ARM GAS  C:\Users\AHMED~1.ELE\AppData\Local\Temp\cckRh1xc.s 			page 1


   1              		.syntax unified
   2              		.cpu cortex-a5
   3              		.fpu softvfp
   4              		.eabi_attribute 20, 1
   5              		.eabi_attribute 21, 1
   6              		.eabi_attribute 23, 3
   7              		.eabi_attribute 24, 1
   8              		.eabi_attribute 25, 1
   9              		.eabi_attribute 26, 1
  10              		.eabi_attribute 30, 4
  11              		.eabi_attribute 34, 0
  12              		.eabi_attribute 18, 4
  13              		.thumb
  14              		.file	"emvtrans.c"
  15              		.text
  16              	.Ltext0:
  17              		.cfi_sections	.debug_frame
  18              		.section	.text.EMVCancel,"ax",%progbits
  19              		.align	1
  20              		.thumb
  21              		.thumb_func
  22              		.type	EMVCancel, %function
  23              	EMVCancel:
  24              	.LFB17:
  25              		.file 1 "src/emvtrans.c"
   1:src/emvtrans.c **** //-----------------------------------------------------------------------------
   2:src/emvtrans.c **** //  File          : emvtrans.c
   3:src/emvtrans.c **** //  Module        :
   4:src/emvtrans.c **** //  Description   : Include routines for EMV transactions.
   5:src/emvtrans.c **** //  Author        : Lewis
   6:src/emvtrans.c **** //  Notes         :
   7:src/emvtrans.c **** //
   8:src/emvtrans.c **** // ============================================================================
   9:src/emvtrans.c **** // | Naming conventions                                                       |
  10:src/emvtrans.c **** // | ~~~~~~~~~~~~~~~~~~                                                       |
  11:src/emvtrans.c **** // |        Struct define : Leading T                                         |
  12:src/emvtrans.c **** // |         Struct/Array : Leading s                                         |
  13:src/emvtrans.c **** // |             Constant : Leading K                                         |
  14:src/emvtrans.c **** // |      Global Variable : Leading g  (variable use outside one C file)      |
  15:src/emvtrans.c **** // |                                                                          |
  16:src/emvtrans.c **** // |   BYTE( 8 Bits) size : Leading b                                         |
  17:src/emvtrans.c **** // |   CHAR( 8 Bits) size : Leading c                                         |
  18:src/emvtrans.c **** // |   WORD(16 Bits) size : Leading w                                         |
  19:src/emvtrans.c **** // |  DWORD(32 Bits) size : Leading d                                         |
  20:src/emvtrans.c **** // |    int(32 Bits) size : Leading i                                         |
  21:src/emvtrans.c **** // | DDWORD(64 Bits) size : Leading dd                                        |
  22:src/emvtrans.c **** // |              Pointer : Leading p                                         |
  23:src/emvtrans.c **** // |                                                                          |
  24:src/emvtrans.c **** // |    Function argument : Leading a                                         |
  25:src/emvtrans.c **** // |       Local Variable : All lower case                                    |
  26:src/emvtrans.c **** // |                                                                          |
  27:src/emvtrans.c **** // | Examples:                                                                |
  28:src/emvtrans.c **** // |                Array : Leading s, (sb = arrary of byte, etc)             |
  29:src/emvtrans.c **** // |              Pointer : Leading p, (pb = pointer of byte, etc)            |
  30:src/emvtrans.c **** // ============================================================================
  31:src/emvtrans.c **** //
  32:src/emvtrans.c **** //  Date          Who         Action
ARM GAS  C:\Users\AHMED~1.ELE\AppData\Local\Temp\cckRh1xc.s 			page 2


  33:src/emvtrans.c **** //  ------------  ----------- -------------------------------------------------
  34:src/emvtrans.c **** //  29 Sept 2008  Lewis       Initial Version.
  35:src/emvtrans.c **** //-----------------------------------------------------------------------------
  36:src/emvtrans.c **** #include <stdio.h>
  37:src/emvtrans.c **** #include <string.h>
  38:src/emvtrans.c **** #include "apm.h"
  39:src/emvtrans.c **** #include "util.h"
  40:src/emvtrans.c **** #include "sysutil.h"
  41:src/emvtrans.c **** #include "lptutil.h"
  42:src/emvtrans.c **** #include "message.h"
  43:src/emvtrans.c **** #include "corevar.h"
  44:src/emvtrans.c **** #include "keytrans.h"
  45:src/emvtrans.c **** #include "constant.h"
  46:src/emvtrans.c **** #include "chkoptn.h"
  47:src/emvtrans.c **** #include "input.h"
  48:src/emvtrans.c **** #include "print.h"
  49:src/emvtrans.c **** #include "hostmsg.h"
  50:src/emvtrans.c **** #include "record.h"
  51:src/emvtrans.c **** #include "reversal.h"
  52:src/emvtrans.c **** #include "offline.h"
  53:src/emvtrans.c **** #include "sale.h"
  54:src/emvtrans.c **** #include "tranutil.h"
  55:src/emvtrans.c **** //#include "emvutil.h"
  56:src/emvtrans.c **** #include "tlvutil.h"
  57:src/emvtrans.c **** #include "auxcom.h"
  58:src/emvtrans.c **** #include "emvtrans.h"
  59:src/emvtrans.c **** 
  60:src/emvtrans.c **** //-----------------------------------------------------------------------------
  61:src/emvtrans.c **** //    Globals Variables
  62:src/emvtrans.c **** //-----------------------------------------------------------------------------
  63:src/emvtrans.c **** static BOOLEAN   bAcceptReferral;
  64:src/emvtrans.c **** BOOLEAN gIsMaestro;
  65:src/emvtrans.c **** 
  66:src/emvtrans.c **** //-----------------------------------------------------------------------------
  67:src/emvtrans.c **** //    Defines
  68:src/emvtrans.c **** //-----------------------------------------------------------------------------
  69:src/emvtrans.c **** #define bAction         gGDS->s_EMVOut.bMsg[1]
  70:src/emvtrans.c **** 
  71:src/emvtrans.c **** // state machine def (order may not be as follow)
  72:src/emvtrans.c **** #define EMV_COMPLETE      0x00
  73:src/emvtrans.c **** #define EMV_START         0x01
  74:src/emvtrans.c **** #define EMV_SELECT_APP    0x02
  75:src/emvtrans.c **** #define EMV_ONLINE_PIN    0x03
  76:src/emvtrans.c **** #define EMV_ONLINE        0x04
  77:src/emvtrans.c **** #define EMV_REFERRAL      0x05
  78:src/emvtrans.c **** #define EMV_AMOUNT_AIP    0x06
  79:src/emvtrans.c **** #define EMV_CONFIRM_CARD  0x07
  80:src/emvtrans.c **** #define EMV_AMOUNT        0x08
  81:src/emvtrans.c **** #define EMV_RESTART       0x09
  82:src/emvtrans.c **** 
  83:src/emvtrans.c **** //-----------------------------------------------------------------------------
  84:src/emvtrans.c **** //    Constant
  85:src/emvtrans.c **** //-----------------------------------------------------------------------------
  86:src/emvtrans.c **** const WORD wVMOnlineTags[] = { 
  87:src/emvtrans.c ****   0x5F2A,                                 /* Transaction Currency Code */
  88:src/emvtrans.c ****   0x5F34,                                 /* PAN Sequence Number */
  89:src/emvtrans.c ****   0x82,                                   /* AIP */
ARM GAS  C:\Users\AHMED~1.ELE\AppData\Local\Temp\cckRh1xc.s 			page 3


  90:src/emvtrans.c ****   0x84,                                   /* Dedicated File Name */
  91:src/emvtrans.c ****   0x95,                                   /* TVR */
  92:src/emvtrans.c ****   0x9A,                                   /* Transaction Date */
  93:src/emvtrans.c ****   0x9C,                                   /* Transaction Type */
  94:src/emvtrans.c ****   0x9F02,                                 /* Amount Authorised */
  95:src/emvtrans.c ****   0x9F03,                                 /* Cashback Amount */
  96:src/emvtrans.c ****   0x9F09,                                 /* Application Version # */
  97:src/emvtrans.c ****   0x9F10,                                 /* Issuer Application Data */
  98:src/emvtrans.c ****   0x9F1A,                                 /* Terminal Country Code */
  99:src/emvtrans.c ****   0x9F1E,                                 /* IFD Serial Number */
 100:src/emvtrans.c ****   0x9F26,                                 /* Application Cryptogram */
 101:src/emvtrans.c ****   0x9F27,                                 /* CID */
 102:src/emvtrans.c ****   0x9F33,                                 /* Terminal Capabilities */
 103:src/emvtrans.c ****   0x9F34,                                 /* CVM Result */
 104:src/emvtrans.c ****   0x9F35,                                 /* Terminal Type */
 105:src/emvtrans.c ****   0x9F36,                                 /* Application Transaction Counter */
 106:src/emvtrans.c ****   0x9F37,                                 /* Unpredicatable Number */
 107:src/emvtrans.c ****   0x9F41,                                 /* Transaction Sequence Counter */
 108:src/emvtrans.c ****   0x9F53,                                 /* Transaction Category code */
 109:src/emvtrans.c ****   0
 110:src/emvtrans.c **** };
 111:src/emvtrans.c **** 
 112:src/emvtrans.c **** const BYTE KPinMsg[] = {     /* PIN related message (max 48 bytes x 4) */
 113:src/emvtrans.c ****   "**** Enter PIN ****\x0"                /*   1. Enter PIN      */
 114:src/emvtrans.c ****   "---- PIN  OK ----\x0"                  /*   2. PIN OK         */
 115:src/emvtrans.c ****   " Incorrect  PIN \x0"                   /*   3. Incorrect PIN  */
 116:src/emvtrans.c ****   "  Last PIN Try  \x0"                   /*   4. Last PIN Try   */
 117:src/emvtrans.c **** };
 118:src/emvtrans.c **** 
 119:src/emvtrans.c **** //*****************************************************************************
 120:src/emvtrans.c **** //  Function        : DeAss
 121:src/emvtrans.c **** //  Description     : decode and count TLV object from the message buffer
 122:src/emvtrans.c **** //  Input           : *pbMsg;   // pointer to message
 123:src/emvtrans.c **** //                    wLen;     // len of message
 124:src/emvtrans.c **** //  Return          : number of Tag in message
 125:src/emvtrans.c **** //  Note            : N/A
 126:src/emvtrans.c **** //  Globals Changed : decode TLV objects store to asTagC structure
 127:src/emvtrans.c **** //*****************************************************************************
 128:src/emvtrans.c **** BYTE DeAss(TLIST *aList, BYTE *pbMsg, WORD wLen)
 129:src/emvtrans.c **** {
 130:src/emvtrans.c ****   BYTE bIdx;
 131:src/emvtrans.c ****   BYTE * pbMark;
 132:src/emvtrans.c ****   WORD wInc;
 133:src/emvtrans.c **** 
 134:src/emvtrans.c ****   if (wLen) {
 135:src/emvtrans.c ****     bIdx = 0;
 136:src/emvtrans.c ****     do {
 137:src/emvtrans.c ****       if (*pbMsg == 0 || *pbMsg == 0xFF) {
 138:src/emvtrans.c ****         ++pbMsg;
 139:src/emvtrans.c ****         --wLen;
 140:src/emvtrans.c ****       } else {
 141:src/emvtrans.c ****         if (bIdx == MAX_TAG_LIST - 1)
 142:src/emvtrans.c ****           break;
 143:src/emvtrans.c ****         //get Tag
 144:src/emvtrans.c ****         aList[bIdx].wTag = TlvTag(pbMark = pbMsg);
 145:src/emvtrans.c ****         //get Length
 146:src/emvtrans.c ****         wInc = TlvLen(pbMsg);
ARM GAS  C:\Users\AHMED~1.ELE\AppData\Local\Temp\cckRh1xc.s 			page 4


 147:src/emvtrans.c ****         aList[bIdx].sLen = (BYTE) wInc;
 148:src/emvtrans.c ****         //get buffer pointer
 149:src/emvtrans.c ****         aList[bIdx].pbLoc = TlvVPtr(pbMsg);
 150:src/emvtrans.c ****         pbMsg += TlvSizeOf(pbMsg);
 151:src/emvtrans.c ****         if (pbMsg - pbMark <= wLen)
 152:src/emvtrans.c ****           wLen -= pbMsg - pbMark;
 153:src/emvtrans.c ****         else
 154:src/emvtrans.c ****           break;
 155:src/emvtrans.c ****         if (wInc > TLMax)               /* length out of range */
 156:src/emvtrans.c ****           break;
 157:src/emvtrans.c ****         ++bIdx;
 158:src/emvtrans.c ****       }
 159:src/emvtrans.c ****       if (wLen == 0) {
 160:src/emvtrans.c ****         aList[bIdx].wTag = 0;
 161:src/emvtrans.c ****         return bIdx;
 162:src/emvtrans.c ****       }
 163:src/emvtrans.c ****     } while (TRUE);
 164:src/emvtrans.c ****   }
 165:src/emvtrans.c ****   aList[0].wTag = 0;
 166:src/emvtrans.c ****   return 0;
 167:src/emvtrans.c **** }
 168:src/emvtrans.c **** //*****************************************************************************
 169:src/emvtrans.c **** //  Function        : DispLabel
 170:src/emvtrans.c **** //  Description     : Display Application Label.
 171:src/emvtrans.c **** //  Input           : TLIST pointer
 172:src/emvtrans.c **** //  Return          : N/A
 173:src/emvtrans.c **** //  Note            : N/A
 174:src/emvtrans.c **** //  Globals Changed : N/A;
 175:src/emvtrans.c **** //*****************************************************************************
 176:src/emvtrans.c **** static void DispLabel(TLIST *psLp)
 177:src/emvtrans.c **** {
 178:src/emvtrans.c ****   BYTE i;
 179:src/emvtrans.c ****   BYTE len;
 180:src/emvtrans.c ****   BYTE buffer[MW_MAX_LINESIZE+1];
 181:src/emvtrans.c **** 
 182:src/emvtrans.c ****   memcpy(buffer,psLp->pbLoc,len = ((psLp->sLen < MW_MAX_LINESIZE) ? psLp->sLen : MW_MAX_LINESIZE));
 183:src/emvtrans.c ****   for (i=0;i<len;i++)
 184:src/emvtrans.c ****     if ((buffer[i] & 0x7f) < 0x20)
 185:src/emvtrans.c ****       buffer[i] = ' ';
 186:src/emvtrans.c ****   buffer[len] = 0;
 187:src/emvtrans.c ****   DispClrBelowMW(MW_LINE7);
 188:src/emvtrans.c ****   DispLineMW(buffer, MW_LINE7, MW_BIGFONT);
 189:src/emvtrans.c **** }
 190:src/emvtrans.c **** //*****************************************************************************
 191:src/emvtrans.c **** //  Function        : EMVChoice
 192:src/emvtrans.c **** //  Description     : Selection Application
 193:src/emvtrans.c **** //  Input           : N/A
 194:src/emvtrans.c **** //  Return          : FALSE => CANCEL
 195:src/emvtrans.c **** //  Note            : N/A
 196:src/emvtrans.c **** //  Globals Changed : N/A
 197:src/emvtrans.c **** //*****************************************************************************
 198:src/emvtrans.c **** static BOOLEAN EMVChoice(void)
 199:src/emvtrans.c **** {
 200:src/emvtrans.c ****   BYTE bChoice;
 201:src/emvtrans.c ****   BYTE bIdx;
 202:src/emvtrans.c ****   DWORD keyin;
 203:src/emvtrans.c **** 
ARM GAS  C:\Users\AHMED~1.ELE\AppData\Local\Temp\cckRh1xc.s 			page 5


 204:src/emvtrans.c ****   //no of tag in response buffer not in group of 2 (AID and display label)
 205:src/emvtrans.c ****   if ((bChoice = DeAss(gGDS->s_TagList, &gGDS->s_EMVOut.bMsg[2],
 206:src/emvtrans.c ****                        (WORD)(gGDS->s_EMVOut.wLen - 2)) / 2) == 0) {
 207:src/emvtrans.c ****     EMVFatal();
 208:src/emvtrans.c ****   }
 209:src/emvtrans.c ****   DispClrBelowMW(MW_LINE3);
 210:src/emvtrans.c ****   Disp2x16Msg(GetConstMsg(EDC_EMV_SEL_APP), MW_LINE3, MW_BIGFONT);
 211:src/emvtrans.c ****   bIdx = 0;
 212:src/emvtrans.c ****   do {
 213:src/emvtrans.c ****     //pointer to the 2nd tag (display label), each step increment by 2
 214:src/emvtrans.c ****     DispLabel(&gGDS->s_TagList[bIdx * 2 + 1]);
 215:src/emvtrans.c ****     do {
 216:src/emvtrans.c ****       keyin = APM_WaitKey(KBD_TIMEOUT,0);
 217:src/emvtrans.c ****       if (keyin == MWKEY_CANCL)
 218:src/emvtrans.c ****         return FALSE;
 219:src/emvtrans.c ****       if (keyin == MWKEY_ENTER) {
 220:src/emvtrans.c ****         gGDS->s_EMVIn.bMsg[0] = bIdx;
 221:src/emvtrans.c ****         return TRUE;
 222:src/emvtrans.c ****       }
 223:src/emvtrans.c ****       if (keyin == MWKEY_CLR)
 224:src/emvtrans.c ****         break;
 225:src/emvtrans.c ****     } while (TRUE);
 226:src/emvtrans.c ****     if (++bIdx == bChoice) {
 227:src/emvtrans.c ****       if (bChoice == 1)
 228:src/emvtrans.c ****         return FALSE;
 229:src/emvtrans.c ****       bIdx = 0;
 230:src/emvtrans.c ****     }
 231:src/emvtrans.c ****   } while (TRUE);
 232:src/emvtrans.c **** }
 233:src/emvtrans.c **** //*****************************************************************************
 234:src/emvtrans.c **** //  Function        : EMVInput
 235:src/emvtrans.c **** //  Description     : Get user input for EMV transaction.
 236:src/emvtrans.c **** //  Input           : N/A
 237:src/emvtrans.c **** //  Return          : FALSE => CANCEL
 238:src/emvtrans.c **** //  Note            : N/A
 239:src/emvtrans.c **** //  Globals Changed : N/A
 240:src/emvtrans.c **** //*****************************************************************************
 241:src/emvtrans.c **** BOOLEAN EMVInput(BOOLEAN aSelAgain)
 242:src/emvtrans.c **** {
 243:src/emvtrans.c ****   if (aSelAgain) {
 244:src/emvtrans.c ****     DispErrorMsg(GetConstMsg(EDC_EMV_CANNOT_SEL));
 245:src/emvtrans.c ****   }
 246:src/emvtrans.c ****   //one application and confirmation required or more application for selection
 247:src/emvtrans.c ****   if ((gGDS->s_EMVIn.bMsg[0]=gGDS->s_EMVOut.bMsg[1])) {
 248:src/emvtrans.c ****     if (EMVChoice() == FALSE)
 249:src/emvtrans.c ****       return FALSE;
 250:src/emvtrans.c ****   }
 251:src/emvtrans.c ****   memcpy(&gGDS->s_EMVIn.bMsg[1], "\x9F\x41\x03", 3);
 252:src/emvtrans.c ****   memcpy(&gGDS->s_EMVIn.bMsg[4], STIS_TERM_DATA.sb_trace_no, 3);
 253:src/emvtrans.c ****   gGDS->s_EMVIn.wLen = 7;
 254:src/emvtrans.c ****   Disp2x16Msg(GetConstMsg(EDC_EMV_PROCESSING),MW_LINE5, MW_BIGFONT);
 255:src/emvtrans.c ****   return TRUE;
 256:src/emvtrans.c **** }
 257:src/emvtrans.c **** /******************************************************************************
 258:src/emvtrans.c ****  *  Function        : TagPut
 259:src/emvtrans.c ****  *  Description     : Save Tag to input buffer.
 260:src/emvtrans.c ****  *  Input           : aBuf;     // Data buffer
ARM GAS  C:\Users\AHMED~1.ELE\AppData\Local\Temp\cckRh1xc.s 			page 6


 261:src/emvtrans.c ****  *                    aTag;     // Tag
 262:src/emvtrans.c ****  *  Return          : new buffer pointer
 263:src/emvtrans.c ****  *  Note            : N/A
 264:src/emvtrans.c ****  *  Globals Changed : N/A
 265:src/emvtrans.c ****  ******************************************************************************
 266:src/emvtrans.c ****  */
 267:src/emvtrans.c **** BYTE *TagPut(BYTE *aBuf, WORD aTag)
 268:src/emvtrans.c **** {
 269:src/emvtrans.c ****   if (aTag / 256)
 270:src/emvtrans.c ****     *aBuf++ = aTag / 256;
 271:src/emvtrans.c ****   *aBuf = (BYTE)aTag;
 272:src/emvtrans.c ****   return aBuf + 1;
 273:src/emvtrans.c **** }
 274:src/emvtrans.c **** /******************************************************************************
 275:src/emvtrans.c ****  *  Function        : TagSeek
 276:src/emvtrans.c ****  *  Description     : Tag List Seek
 277:src/emvtrans.c ****  *  Input           : Tag;
 278:src/emvtrans.c ****  *  Return          : TLIST pointer
 279:src/emvtrans.c ****  *  Note            : N/A
 280:src/emvtrans.c ****  *  Globals Changed : N/A
 281:src/emvtrans.c ****  ******************************************************************************
 282:src/emvtrans.c ****  */
 283:src/emvtrans.c **** TLIST *TagSeek(TLIST *aSrc, WORD aTag)
 284:src/emvtrans.c **** {
 285:src/emvtrans.c ****   while (aSrc->wTag) {
 286:src/emvtrans.c ****     if (aSrc->wTag == aTag)
 287:src/emvtrans.c ****       return aSrc;
 288:src/emvtrans.c ****     ++aSrc;
 289:src/emvtrans.c ****   }
 290:src/emvtrans.c ****   return NULL;
 291:src/emvtrans.c **** }
 292:src/emvtrans.c **** /******************************************************************************
 293:src/emvtrans.c ****  *  Function        : TagData
 294:src/emvtrans.c ****  *  Description     : Seek for Tag Data
 295:src/emvtrans.c ****  *  Input           : aTag;   // Tag
 296:src/emvtrans.c ****  *  Return          : Pointer to Tag data
 297:src/emvtrans.c ****  *  Note            : N/A
 298:src/emvtrans.c ****  *  Globals Changed : N/A
 299:src/emvtrans.c ****  ******************************************************************************
 300:src/emvtrans.c ****  */
 301:src/emvtrans.c **** BYTE *TagData(TLIST *aSrc, WORD aTag)
 302:src/emvtrans.c **** {
 303:src/emvtrans.c ****   while (aSrc->wTag) {
 304:src/emvtrans.c ****     if (aSrc->wTag == aTag)
 305:src/emvtrans.c ****       return aSrc->pbLoc;
 306:src/emvtrans.c ****     ++aSrc;
 307:src/emvtrans.c ****   }
 308:src/emvtrans.c ****   return NULL;
 309:src/emvtrans.c **** }
 310:src/emvtrans.c **** //*****************************************************************************
 311:src/emvtrans.c **** //  Function        : PackTagsData
 312:src/emvtrans.c **** //  Description     : Prepare tag data
 313:src/emvtrans.c **** //  Input           : aBuf;         // pointer to dest buffer.
 314:src/emvtrans.c **** //                    aTags;        // list of tags
 315:src/emvtrans.c **** //  Return          : End of buffer pointer;
 316:src/emvtrans.c **** //  Note            : N/A
 317:src/emvtrans.c **** //  Globals Changed : N/a
ARM GAS  C:\Users\AHMED~1.ELE\AppData\Local\Temp\cckRh1xc.s 			page 7


 318:src/emvtrans.c **** //*****************************************************************************
 319:src/emvtrans.c **** BYTE *PackTagsData(BYTE *aBuf, WORD *aTags)
 320:src/emvtrans.c **** {
 321:src/emvtrans.c ****   WORD tag;
 322:src/emvtrans.c ****   TLIST *psLp;
 323:src/emvtrans.c **** 
 324:src/emvtrans.c ****   while ((tag = *aTags) != 0) {
 325:src/emvtrans.c ****     if ((psLp = TagSeek(gGDS->s_TagList, tag)) != NULL) {
 326:src/emvtrans.c ****       aBuf = TagPut(aBuf, tag);
 327:src/emvtrans.c ****       *aBuf++ = psLp->sLen; // assume byte len
 328:src/emvtrans.c ****       memcpy(aBuf, psLp->pbLoc, psLp->sLen);
 329:src/emvtrans.c ****       aBuf += psLp->sLen;
 330:src/emvtrans.c ****     }
 331:src/emvtrans.c ****     aTags++;  // next tag word
 332:src/emvtrans.c ****   }
 333:src/emvtrans.c ****   return aBuf;
 334:src/emvtrans.c **** }
 335:src/emvtrans.c **** //*****************************************************************************
 336:src/emvtrans.c **** //  Function        : EMVFatal
 337:src/emvtrans.c **** //  Description     : EMV error handler.
 338:src/emvtrans.c **** //  Input           : N/A
 339:src/emvtrans.c **** //  Return          : N/A
 340:src/emvtrans.c **** //  Note            : N/A
 341:src/emvtrans.c **** //  Globals Changed : N/A;
 342:src/emvtrans.c **** //*****************************************************************************
 343:src/emvtrans.c **** void EMVFatal(void)
 344:src/emvtrans.c **** {
 345:src/emvtrans.c ****   Disp2x16Msg(GetConstMsg(EDC_EMV_FATAL), MW_LINE3, MW_CLRDISP|MW_BIGFONT);
 346:src/emvtrans.c ****   while (APM_WaitKey((DWORD)-1,0) != MWKEY_CANCL) SleepMW();
 347:src/emvtrans.c ****   ResetMW();
 348:src/emvtrans.c **** }
 349:src/emvtrans.c **** //*****************************************************************************
 350:src/emvtrans.c **** //  Function        : GetApplNameTag
 351:src/emvtrans.c **** //  Description     : Prepare app name tag if issuer code table is supported.
 352:src/emvtrans.c **** //  Input           : N/A.
 353:src/emvtrans.c **** //  Return          : tag.
 354:src/emvtrans.c **** //  Note            : Pack buffer must be setup before calling this func.
 355:src/emvtrans.c **** //  Globals Changed : N/A
 356:src/emvtrans.c **** //*****************************************************************************
 357:src/emvtrans.c **** WORD GetApplNameTag(void)
 358:src/emvtrans.c **** {
 359:src/emvtrans.c ****   TLIST * ptag;   // temp tag data ptr
 360:src/emvtrans.c **** 
 361:src/emvtrans.c ****   ptag = TagSeek(gGDS->s_TagList, 0x9F11);  // issuer code table
 362:src/emvtrans.c ****   if ( ptag != NULL )                // tag value is found
 363:src/emvtrans.c ****     if (*ptag->pbLoc==1)             // only supported these 1 issuer code tbl
 364:src/emvtrans.c ****       if (TagSeek(gGDS->s_TagList, 0x9F12)) // app preferred name exists
 365:src/emvtrans.c ****         return 0x9F12;               // app preferred name
 366:src/emvtrans.c ****   return 0x50;                       // app label
 367:src/emvtrans.c **** }
 368:src/emvtrans.c **** //*****************************************************************************
 369:src/emvtrans.c **** //  Function        : ePANExtract
 370:src/emvtrans.c **** //  Description     : Extract PAN data from EMV data.
 371:src/emvtrans.c **** //  Input           : N/A
 372:src/emvtrans.c **** //  Return          : FALSE => Error;
 373:src/emvtrans.c **** //  Note            : N/A
 374:src/emvtrans.c **** //  Globals Changed : gInput;
ARM GAS  C:\Users\AHMED~1.ELE\AppData\Local\Temp\cckRh1xc.s 			page 8


 375:src/emvtrans.c **** //*****************************************************************************
 376:src/emvtrans.c **** static BOOLEAN ePANExtract(void)
 377:src/emvtrans.c **** {
 378:src/emvtrans.c ****   TLIST *psLp;
 379:src/emvtrans.c ****   BYTE bLen;
 380:src/emvtrans.c **** 
 381:src/emvtrans.c ****   if (DeAss(gGDS->s_TagList, gGDS->s_EMVOut.bMsg+2, gGDS->s_EMVOut.wLen - 2)) {
 382:src/emvtrans.c ****     if ((psLp = TagSeek(gGDS->s_TagList, 0x5A)) != NULL) {
 383:src/emvtrans.c ****       if ((bLen = psLp->sLen) <= 10) {
 384:src/emvtrans.c ****         memset(INPUT.sb_pan, 0xFF, 10);
 385:src/emvtrans.c ****         memcpy(INPUT.sb_pan, psLp->pbLoc, bLen);
 386:src/emvtrans.c ****         //INPUT.sb_pan_len = bLen;
 387:src/emvtrans.c ****         if ((INPUT.sb_pan[9] & 0x0F) == 0x0F) {
 388:src/emvtrans.c ****           if (InCardTable()) {
 389:src/emvtrans.c ****             //if ((psLp = TagSeek(gGDS->s_TagList, 0x5F34)) != NULL)
 390:src/emvtrans.c ****             //  INPUT.sb_pan_seqno = psLp->pbLoc[0];
 391:src/emvtrans.c ****             //else
 392:src/emvtrans.c ****             //  INPUT.sb_pan_seqno = 0;
 393:src/emvtrans.c ****             return TRUE;
 394:src/emvtrans.c ****           }
 395:src/emvtrans.c ****         }
 396:src/emvtrans.c ****         RSP_DATA.w_rspcode = 'U'*256+'C';
 397:src/emvtrans.c ****         return FALSE;
 398:src/emvtrans.c ****       }
 399:src/emvtrans.c ****     }
 400:src/emvtrans.c ****   }
 401:src/emvtrans.c ****   EMVFatal();
 402:src/emvtrans.c ****   return FALSE;
 403:src/emvtrans.c **** }
 404:src/emvtrans.c **** //*****************************************************************************
 405:src/emvtrans.c **** //  Function        : ValidEMVData
 406:src/emvtrans.c **** //  Description     : Validate & Extract EMV Data
 407:src/emvtrans.c **** //  Input           : N/A
 408:src/emvtrans.c **** //  Return          : TRUE/FALSE;
 409:src/emvtrans.c **** //  Note            : N/A
 410:src/emvtrans.c **** //  Globals Changed : gGTS;
 411:src/emvtrans.c **** //*****************************************************************************
 412:src/emvtrans.c **** BOOLEAN ValidEMVData(void)
 413:src/emvtrans.c **** {
 414:src/emvtrans.c ****   TLIST * psLp;
 415:src/emvtrans.c ****   BYTE bLen;
 416:src/emvtrans.c **** 
 417:src/emvtrans.c ****   if (ePANExtract() == FALSE) {
 418:src/emvtrans.c ****     return FALSE;
 419:src/emvtrans.c ****   }
 420:src/emvtrans.c **** 
 421:src/emvtrans.c ****   memcpy(&INPUT.sb_exp_date, TagData(gGDS->s_TagList, 0x5F24), 2); //App. Exp. Date
 422:src/emvtrans.c ****   if ((psLp = TagSeek(gGDS->s_TagList, 0x5F20)) != NULL) {      //card holder name
 423:src/emvtrans.c ****     if ((bLen = psLp->sLen) > sizeof(INPUT.sb_holder_name))
 424:src/emvtrans.c ****       bLen = sizeof(INPUT.sb_holder_name);
 425:src/emvtrans.c ****     //FormatHolderName(INPUT.sb_holder_name, psLp->pbLoc, bLen);
 426:src/emvtrans.c ****     memcpy(INPUT.sb_holder_name, psLp->pbLoc, bLen);
 427:src/emvtrans.c ****   }
 428:src/emvtrans.c **** 
 429:src/emvtrans.c ****   INPUT.s_trk2buf.b_len = 0;
 430:src/emvtrans.c ****   if ((psLp = TagSeek(gGDS->s_TagList, 0x57)) != NULL) { /* make it compatable with swipe */
 431:src/emvtrans.c ****     split(INPUT.s_trk2buf.sb_content, psLp->pbLoc, bLen = psLp->sLen);
ARM GAS  C:\Users\AHMED~1.ELE\AppData\Local\Temp\cckRh1xc.s 			page 9


 432:src/emvtrans.c ****     INPUT.s_trk2buf.b_len = (BYTE) fndb(INPUT.s_trk2buf.sb_content, 'F', (BYTE)(bLen * 2));
 433:src/emvtrans.c ****     if (INPUT.s_trk2buf.b_len < (bLen*2) -1) {
 434:src/emvtrans.c ****       RSP_DATA.w_rspcode='U'*256+'C';
 435:src/emvtrans.c ****       RSP_DATA.b_response = TRANS_FAIL;
 436:src/emvtrans.c ****       return FALSE;
 437:src/emvtrans.c ****     }
 438:src/emvtrans.c ****   }
 439:src/emvtrans.c **** 
 440:src/emvtrans.c ****   memset(INPUT.s_icc_data.sb_label, ' ',sizeof(INPUT.s_icc_data.sb_label));
 441:src/emvtrans.c ****   psLp = TagSeek(gGDS->s_TagList, GetApplNameTag());
 442:src/emvtrans.c ****   if (psLp != NULL) {
 443:src/emvtrans.c ****     if ((bLen = psLp->sLen) > 16)
 444:src/emvtrans.c ****       bLen = 16;
 445:src/emvtrans.c ****     memcpy(INPUT.s_icc_data.sb_label, psLp->pbLoc, bLen);
 446:src/emvtrans.c ****   }
 447:src/emvtrans.c **** 
 448:src/emvtrans.c ****   // KC++ for Maestro
 449:src/emvtrans.c ****   if ((psLp = TagSeek(gGDS->s_TagList, 0x9F06)) != NULL) {    // search AID
 450:src/emvtrans.c ****     if ((memcmp(psLp->pbLoc, "\xA0\x00\x00\00\x04\x22\x03", 7) == 0) ||
 451:src/emvtrans.c ****         (memcmp(psLp->pbLoc, "\xA0\x00\x00\00\x04\x30\x60", 7) == 0)) {
 452:src/emvtrans.c ****         gIsMaestro = TRUE;
 453:src/emvtrans.c ****     }
 454:src/emvtrans.c ****   }
 455:src/emvtrans.c ****   // KC--
 456:src/emvtrans.c **** 
 457:src/emvtrans.c ****   ClearResponse();
 458:src/emvtrans.c ****   memcpy(&RSP_DATA.s_dtg.b_year, TagData(gGDS->s_TagList, 0x9A), 3);
 459:src/emvtrans.c ****   memcpy(&RSP_DATA.s_dtg.b_hour, TagData(gGDS->s_TagList, 0x9F21), 3);
 460:src/emvtrans.c ****   memset(RSP_DATA.sb_auth_code, ' ', sizeof(RSP_DATA.sb_auth_code));
 461:src/emvtrans.c ****   RSP_DATA.w_rspcode = '5'*256+'1';
 462:src/emvtrans.c ****   RSP_DATA.b_response = TRANS_FAIL;
 463:src/emvtrans.c ****   return TRUE;
 464:src/emvtrans.c **** }
 465:src/emvtrans.c **** //*****************************************************************************
 466:src/emvtrans.c **** //  Function        : emvPIN
 467:src/emvtrans.c **** //  Description     : Get EMV Online PIN.
 468:src/emvtrans.c **** //  Input           : N/A
 469:src/emvtrans.c **** //  Return          : FALSE => fail
 470:src/emvtrans.c **** //  Note            : N/A
 471:src/emvtrans.c **** //  Globals Changed : N/A
 472:src/emvtrans.c **** //*****************************************************************************
 473:src/emvtrans.c **** static BOOLEAN emvPIN(void)
 474:src/emvtrans.c **** {
 475:src/emvtrans.c ****   if (GetPIN()) {
 476:src/emvtrans.c ****     gGDS->s_EMVIn.bMsg[0] = 0;
 477:src/emvtrans.c ****     gGDS->s_EMVIn.wLen = 1;
 478:src/emvtrans.c ****     DispHeader(NULL);
 479:src/emvtrans.c ****     Disp2x16Msg(GetConstMsg(EDC_EMV_PROCESSING), MW_LINE5, MW_BIGFONT);
 480:src/emvtrans.c ****     return TRUE;
 481:src/emvtrans.c ****   }
 482:src/emvtrans.c ****   DispHeader(NULL);
 483:src/emvtrans.c ****   RSP_DATA.w_rspcode = 'C'*256+'N';
 484:src/emvtrans.c ****   return FALSE;
 485:src/emvtrans.c **** }
 486:src/emvtrans.c **** //*****************************************************************************
 487:src/emvtrans.c **** //  Function        : PackEMVData
 488:src/emvtrans.c **** //  Description     : Put EMV related data to  ICC DATA buffer
ARM GAS  C:\Users\AHMED~1.ELE\AppData\Local\Temp\cckRh1xc.s 			page 10


 489:src/emvtrans.c **** //  Input           : aDat;     // pointer to ICC DATA struct
 490:src/emvtrans.c **** //  Return          : N/A
 491:src/emvtrans.c **** //  Note            : N/A
 492:src/emvtrans.c **** //  Globals Changed : N/A
 493:src/emvtrans.c **** //******************************************************************************
 494:src/emvtrans.c **** void PackEMVData(struct ICC_DATA  *aDat)
 495:src/emvtrans.c **** {
 496:src/emvtrans.c ****   BYTE *ptr;
 497:src/emvtrans.c **** 
 498:src/emvtrans.c ****   aDat->w_misc_len = 0;
 499:src/emvtrans.c ****   ptr = PackTagsData(aDat->sb_misc_content, (WORD *)wVMOnlineTags);
 500:src/emvtrans.c ****   aDat->w_misc_len = (BYTE)((DWORD)ptr - (DWORD)aDat->sb_misc_content);
 501:src/emvtrans.c **** }
 502:src/emvtrans.c **** //*****************************************************************************
 503:src/emvtrans.c **** //  Function        : EMVOnline
 504:src/emvtrans.c **** //  Description     : Online Auth
 505:src/emvtrans.c **** //  Input           : N/A
 506:src/emvtrans.c **** //  Return          : FALSE: fail to go online, else TRUE
 507:src/emvtrans.c **** //  Note            : Zero length response => online failure
 508:src/emvtrans.c **** //  Globals Changed : N/A;
 509:src/emvtrans.c **** //*****************************************************************************
 510:src/emvtrans.c **** static BOOLEAN EMVOnline(void)
 511:src/emvtrans.c **** {
 512:src/emvtrans.c ****   static BYTE abResp[4]; //benny
 513:src/emvtrans.c **** 
 514:src/emvtrans.c ****   if (DeAss(gGDS->s_TagList, gGDS->s_EMVOut.bMsg+2, (WORD)(gGDS->s_EMVOut.wLen - 2)) == 0)
 515:src/emvtrans.c ****     EMVFatal();
 516:src/emvtrans.c ****   gGDS->s_EMVOut.wLen = 1;
 517:src/emvtrans.c ****   DispHeader(NULL);
 518:src/emvtrans.c ****   PackComm(INPUT.w_host_idx, FALSE);
 519:src/emvtrans.c ****   if ((RSP_DATA.w_rspcode = APM_ConnectOK(FALSE)) == COMM_OK) {
 520:src/emvtrans.c ****     if (ReversalOK()) {
 521:src/emvtrans.c ****       OfflineSent(FALSE);
 522:src/emvtrans.c ****       memcpy(INPUT.sb_trace_no, TagData(gGDS->s_TagList, 0x9F41), 3); /* restore TSN */
 523:src/emvtrans.c ****       memcpy(TX_DATA.sb_trace_no, INPUT.sb_trace_no, sizeof(TX_DATA.sb_trace_no));
 524:src/emvtrans.c ****       memcpy(INPUT.sb_roc_no, INPUT.sb_trace_no, sizeof(TX_DATA.sb_trace_no));  // restore ROC
 525:src/emvtrans.c ****       PackEMVData(&INPUT.s_icc_data);  // field 55 ICC data
 526:src/emvtrans.c ****       IncAPMTraceNo();
 527:src/emvtrans.c ****       MoveInput2Tx();
 528:src/emvtrans.c ****       memcpy(TX_DATA.sb_pin, INPUT.sb_pin, sizeof(INPUT.sb_pin)); // online pin
 529:src/emvtrans.c ****       //PackEMVData(&TX_DATA.s_icc_data);  // field 55 ICC data
 530:src/emvtrans.c ****       PackProcCode(TX_DATA.b_trans, TX_DATA.b_acc_ind);
 531:src/emvtrans.c ****       PackHostMsg();
 532:src/emvtrans.c ****       UpdateHostStatus(REV_PENDING);
 533:src/emvtrans.c **** 
 534:src/emvtrans.c ****       if ((RSP_DATA.w_rspcode=APM_SendRcvd(&TX_BUF, &RX_BUF))==COMM_OK) {
 535:src/emvtrans.c ****         RSP_DATA.b_response = CheckHostRsp();
 536:src/emvtrans.c ****       }
 537:src/emvtrans.c ****       if (RSP_DATA.b_response <= TRANS_REJ) {
 538:src/emvtrans.c ****         memcpy(abResp, "\x8A\x02", 2);  //Authorisation Response Code, 2 bytes
 539:src/emvtrans.c ****         abResp[2] = (BYTE)(RSP_DATA.w_rspcode>>8);
 540:src/emvtrans.c ****         abResp[3] = (BYTE)(RSP_DATA.w_rspcode&0xFF);
 541:src/emvtrans.c ****         memcpy(gGDS->s_EMVIn.bMsg+1, abResp, sizeof(abResp));
 542:src/emvtrans.c ****         gGDS->s_EMVIn.wLen = sizeof(abResp) + 1;
 543:src/emvtrans.c ****         if (RSP_DATA.b_response == TRANS_ACP) {
 544:src/emvtrans.c ****           memcpy(gGDS->s_EMVIn.bMsg+gGDS->s_EMVIn.wLen, "\x89\x06", 2); //Auth. Code, 6 bytes
 545:src/emvtrans.c ****           memcpy(gGDS->s_EMVIn.bMsg+gGDS->s_EMVIn.wLen+2, RSP_DATA.sb_auth_code, 6);
ARM GAS  C:\Users\AHMED~1.ELE\AppData\Local\Temp\cckRh1xc.s 			page 11


 546:src/emvtrans.c ****           gGDS->s_EMVIn.wLen += 8;
 547:src/emvtrans.c ****         }
 548:src/emvtrans.c ****         //send issuer script and authentication data to EMV module
 549:src/emvtrans.c ****         if (RSP_DATA.s_icc_data.w_misc_len) {
 550:src/emvtrans.c ****           memcpy(gGDS->s_EMVIn.bMsg+gGDS->s_EMVIn.wLen, RSP_DATA.s_icc_data.sb_misc_content, RSP_DA
 551:src/emvtrans.c ****           gGDS->s_EMVIn.wLen += RSP_DATA.s_icc_data.w_misc_len;
 552:src/emvtrans.c ****         }
 553:src/emvtrans.c ****       }
 554:src/emvtrans.c ****     }
 555:src/emvtrans.c ****     APM_ResetComm();
 556:src/emvtrans.c ****     return TRUE;
 557:src/emvtrans.c ****   }
 558:src/emvtrans.c ****   return FALSE; // unable to go online
 559:src/emvtrans.c **** }
 560:src/emvtrans.c **** //*****************************************************************************
 561:src/emvtrans.c **** //  Function        : EMVReferral
 562:src/emvtrans.c **** //  Description     : Voice Referral
 563:src/emvtrans.c **** //  Input           : N/A
 564:src/emvtrans.c **** //  Return          : FALSE => ERROR
 565:src/emvtrans.c **** //  Note            : Zero length response => decline
 566:src/emvtrans.c **** //  Globals Changed : N/A
 567:src/emvtrans.c **** //******************************************************************************
 568:src/emvtrans.c **** static BOOLEAN EMVReferral(void)
 569:src/emvtrans.c **** {
 570:src/emvtrans.c ****   BYTE tmpbuf[MW_MAX_LINESIZE+1];
 571:src/emvtrans.c **** 
 572:src/emvtrans.c ****   PackRspText();
 573:src/emvtrans.c ****   memcpy(tmpbuf, &RSP_DATA.text[1], 16);
 574:src/emvtrans.c ****   tmpbuf[16]=0;
 575:src/emvtrans.c ****   DispLineMW(tmpbuf, MW_LINE1, MW_CENTER|MW_BIGFONT);
 576:src/emvtrans.c **** 
 577:src/emvtrans.c ****   APM_ResetComm();
 578:src/emvtrans.c ****   RSP_DATA.w_rspcode = 'C'*256+'N';
 579:src/emvtrans.c ****   RSP_DATA.text[0] = 0;
 580:src/emvtrans.c **** 
 581:src/emvtrans.c ****   if (GetAuthCode()) {
 582:src/emvtrans.c ****     if (INPUT.b_trans >= SALE_SWIPE) {
 583:src/emvtrans.c ****       INPUT.b_trans = ESALE_COMPLETE;
 584:src/emvtrans.c ****       INPUT.b_trans_status = OFFLINE;
 585:src/emvtrans.c ****     }
 586:src/emvtrans.c ****     DispHeader(STIS_ISS_TBL(0).sb_card_name);
 587:src/emvtrans.c ****     RSP_DATA.b_response = TRANS_ACP;
 588:src/emvtrans.c ****   }
 589:src/emvtrans.c ****   else
 590:src/emvtrans.c ****     DispHeader(STIS_ISS_TBL(0).sb_card_name);
 591:src/emvtrans.c **** 
 592:src/emvtrans.c ****   if (RSP_DATA.b_response != TRANS_ACP){
 593:src/emvtrans.c ****     LongBeep();
 594:src/emvtrans.c ****     return FALSE;
 595:src/emvtrans.c ****   }
 596:src/emvtrans.c ****   PackDTGAA();
 597:src/emvtrans.c ****   return TRUE;
 598:src/emvtrans.c **** }
 599:src/emvtrans.c **** //*****************************************************************************
 600:src/emvtrans.c **** //  Function        : EMVAccepted
 601:src/emvtrans.c **** //  Description     : Store EMV Data into Batch.
 602:src/emvtrans.c **** //  Input           : N/A
ARM GAS  C:\Users\AHMED~1.ELE\AppData\Local\Temp\cckRh1xc.s 			page 12


 603:src/emvtrans.c **** //  Return          : N/A
 604:src/emvtrans.c **** //  Note            : N/A
 605:src/emvtrans.c **** //  Globals Changed : gds.emvdll, input;
 606:src/emvtrans.c **** //*****************************************************************************
 607:src/emvtrans.c **** static void EMVAccepted(BOOLEAN aOnlTxn)
 608:src/emvtrans.c **** {
 609:src/emvtrans.c ****   BYTE *tag_ptr;
 610:src/emvtrans.c ****   TLIST * psLp;
 611:src/emvtrans.c ****   BYTE  *ptr;
 612:src/emvtrans.c **** 
 613:src/emvtrans.c ****   Disp2x16Msg(GetConstMsg(EDC_EMV_PROCESSING), MW_LINE5, MW_BIGFONT);
 614:src/emvtrans.c ****   memcpy(INPUT.sb_trace_no, TagData(gGDS->s_TagList, 0x9F41), 3);  // restore TSN
 615:src/emvtrans.c ****   // mark as offline for offline approved
 616:src/emvtrans.c ****   if (!(bAction & ACT_HOSTAPP)){  // offline approved
 617:src/emvtrans.c ****     if (INPUT.b_trans==SALE_ICC)
 618:src/emvtrans.c ****       INPUT.b_trans = ESALE_UNDER_LMT;
 619:src/emvtrans.c ****   }
 620:src/emvtrans.c **** 
 621:src/emvtrans.c ****   RSP_DATA.b_response = TRANS_ACP;
 622:src/emvtrans.c ****   tag_ptr = TagData(gGDS->s_TagList, 0x89); // locate auth code
 623:src/emvtrans.c ****   if (bAcceptReferral == TRUE) {
 624:src/emvtrans.c ****     if (tag_ptr!=NULL)
 625:src/emvtrans.c ****       memcpy(tag_ptr, RSP_DATA.sb_auth_code, 6); // update auth code
 626:src/emvtrans.c ****   }
 627:src/emvtrans.c ****   else {
 628:src/emvtrans.c ****     if (tag_ptr!=NULL)
 629:src/emvtrans.c ****       memcpy(RSP_DATA.sb_auth_code, tag_ptr, 6); // store Auth Code
 630:src/emvtrans.c ****     else
 631:src/emvtrans.c ****       GenAuthCode(RSP_DATA.sb_auth_code);
 632:src/emvtrans.c ****     if (!aOnlTxn) {
 633:src/emvtrans.c ****       memset(RSP_DATA.sb_auth_code, ' ', 6);
 634:src/emvtrans.c ****       memcpy(RSP_DATA.sb_auth_code, "Y1", 2);
 635:src/emvtrans.c ****       IncAPMTraceNo();
 636:src/emvtrans.c ****       memcpy(TX_DATA.sb_trace_no, INPUT.sb_trace_no, sizeof(TX_DATA.sb_trace_no));
 637:src/emvtrans.c ****     }
 638:src/emvtrans.c ****   }
 639:src/emvtrans.c **** 
 640:src/emvtrans.c **** 
 641:src/emvtrans.c ****   if ((psLp = TagSeek(gGDS->s_TagList, 0x9f26)) != NULL) // app Cryptogram
 642:src/emvtrans.c ****     memcpy(INPUT.s_icc_data.sb_tag_9f26, psLp->pbLoc, psLp->sLen);
 643:src/emvtrans.c ****   if ((psLp = TagSeek(gGDS->s_TagList, 0x9F06)) != NULL) { //AID for printing
 644:src/emvtrans.c ****     memcpy(INPUT.s_icc_data.sb_aid, psLp->pbLoc, psLp->sLen);
 645:src/emvtrans.c ****     INPUT.s_icc_data.b_aid_len = psLp->sLen;
 646:src/emvtrans.c ****   }
 647:src/emvtrans.c **** 
 648:src/emvtrans.c ****   SetRspCode('0'*256+'0');
 649:src/emvtrans.c ****   PackEMVData(&INPUT.s_icc_data);  // field 55 ICC data
 650:src/emvtrans.c ****   if (bAction & ACT_SIGNATURE)
 651:src/emvtrans.c ****     RSP_DATA.w_rspcode = 'V'*256+'S';
 652:src/emvtrans.c ****   else {
 653:src/emvtrans.c ****     RSP_DATA.w_rspcode = 'T'*256+'A';
 654:src/emvtrans.c ****     // !2007-05-23++
 655:src/emvtrans.c ****     // Check for PIN Verified
 656:src/emvtrans.c ****     if ((ptr = TagData(gGDS->s_TagList, 0x9F10)) != NULL) {
 657:src/emvtrans.c ****       if (ptr[4]&0x04)
 658:src/emvtrans.c ****         RSP_DATA.b_PinVerified = 1;
 659:src/emvtrans.c ****     }
ARM GAS  C:\Users\AHMED~1.ELE\AppData\Local\Temp\cckRh1xc.s 			page 13


 660:src/emvtrans.c ****     // !2007-05-23--
 661:src/emvtrans.c ****   }
 662:src/emvtrans.c **** 
 663:src/emvtrans.c ****   PackInputP();
 664:src/emvtrans.c ****   MoveInput2Tx();
 665:src/emvtrans.c ****   if (INPUT.b_trans != AUTH_ICC){
 666:src/emvtrans.c ****     if (bAcceptReferral == TRUE) {
 667:src/emvtrans.c ****       IncTraceNo();
 668:src/emvtrans.c ****     }
 669:src/emvtrans.c ****     SaveRecord();
 670:src/emvtrans.c ****     if ((INPUT.b_trans==ESALE_UNDER_LMT)||((INPUT.b_trans==ESALE_COMPLETE)&&(bAcceptReferral!=TRUE)
 671:src/emvtrans.c ****       if (BlockAuthCode())
 672:src/emvtrans.c ****         memset(RSP_DATA.sb_auth_code, ' ', sizeof(RSP_DATA.sb_auth_code));
 673:src/emvtrans.c ****     }
 674:src/emvtrans.c ****   }
 675:src/emvtrans.c ****   else {  // fill record buf even if not storing for ECR resp
 676:src/emvtrans.c ****     Input2RecordBuf();
 677:src/emvtrans.c ****   }
 678:src/emvtrans.c **** 
 679:src/emvtrans.c ****   /*
 680:src/emvtrans.c ****   if (bAcceptReferral==TRUE){
 681:src/emvtrans.c ****     AcceptBeep();
 682:src/emvtrans.c ****     #if (LPT_SUPPORT|TMLPT_SUPPORT)  // Conditional Compile for Printer support
 683:src/emvtrans.c ****     PrintBuf(MSG_BUF.sb_content, MSG_BUF.d_len, FALSE);
 684:src/emvtrans.c ****     #endif                    // PRINTER_SUPPORT
 685:src/emvtrans.c ****     MsgBufSetup();
 686:src/emvtrans.c ****     PackMsgBufLen();
 687:src/emvtrans.c ****   }
 688:src/emvtrans.c ****   */
 689:src/emvtrans.c **** }
 690:src/emvtrans.c **** //*****************************************************************************
 691:src/emvtrans.c **** //  Function        : EMVCancel
 692:src/emvtrans.c **** //  Description     : Handle EMV Cancel response
 693:src/emvtrans.c **** //  Input           : EMV process next state.
 694:src/emvtrans.c **** //  Return          : EMV process next state.
 695:src/emvtrans.c **** //  Note            : N/A
 696:src/emvtrans.c **** //  Globals Changed : N/A
 697:src/emvtrans.c **** //*****************************************************************************
 698:src/emvtrans.c **** static BYTE EMVCancel(BYTE aNextState)
 699:src/emvtrans.c **** {
  26              		.loc 1 699 0
  27              		.cfi_startproc
  28              		@ args = 0, pretend = 0, frame = 0
  29              		@ frame_needed = 0, uses_anonymous_args = 0
  30              	.LVL0:
 700:src/emvtrans.c ****   DispClrBelowMW(MW_LINE3);  // clr Pls Select display
  31              		.loc 1 700 0
  32 0000 0023     		movs	r3, #0
 699:src/emvtrans.c ****   DispClrBelowMW(MW_LINE3);  // clr Pls Select display
  33              		.loc 1 699 0
  34 0002 37B5     		push	{r0, r1, r2, r4, r5, lr}
  35              		.cfi_def_cfa_offset 24
  36              		.cfi_offset 4, -12
  37              		.cfi_offset 5, -8
  38              		.cfi_offset 14, -4
  39              		.loc 1 700 0
  40 0004 4FF44072 		mov	r2, #768
ARM GAS  C:\Users\AHMED~1.ELE\AppData\Local\Temp\cckRh1xc.s 			page 14


  41 0008 0093     		str	r3, [sp]
  42 000a 2321     		movs	r1, #35
 699:src/emvtrans.c ****   DispClrBelowMW(MW_LINE3);  // clr Pls Select display
  43              		.loc 1 699 0
  44 000c 0546     		mov	r5, r0
  45              		.loc 1 700 0
  46 000e 0F20     		movs	r0, #15
  47              	.LVL1:
  48 0010 FFF7FEFF 		bl	lib_app_call
  49              	.LVL2:
 701:src/emvtrans.c ****   RSP_DATA.w_rspcode = 'C'*256+'N';
  50              		.loc 1 701 0
  51 0014 134C     		ldr	r4, .L10
  52 0016 44F24E33 		movw	r3, #17230
  53 001a A4F86E35 		strh	r3, [r4, #1390]	@ movhi
 702:src/emvtrans.c ****   LongBeep();
  54              		.loc 1 702 0
  55 001e FFF7FEFF 		bl	LongBeep
  56              	.LVL3:
 703:src/emvtrans.c ****   if (gGDS->s_EMVOut.wLen > 2)
  57              		.loc 1 703 0
  58 0022 114B     		ldr	r3, .L10+4
  59 0024 1B68     		ldr	r3, [r3]
  60 0026 03F55E53 		add	r3, r3, #14208
  61 002a 1A89     		ldrh	r2, [r3, #8]
  62 002c 022A     		cmp	r2, #2
  63 002e 06D9     		bls	.L2
 704:src/emvtrans.c ****     if (bAction & ACT_HOSTAPP)
  64              		.loc 1 704 0
  65 0030 DB68     		ldr	r3, [r3, #12]
  66 0032 5B78     		ldrb	r3, [r3, #1]	@ zero_extendqisi2
  67 0034 5B06     		lsls	r3, r3, #25
  68 0036 02D5     		bpl	.L2
 705:src/emvtrans.c ****       UpdateHostStatus(REV_PENDING);
  69              		.loc 1 705 0
  70 0038 0120     		movs	r0, #1
  71 003a FFF7FEFF 		bl	UpdateHostStatus
  72              	.LVL4:
  73              	.L2:
 706:src/emvtrans.c ****   if (IOCtlMW(gIccHandle, IO_ICC_CHANGE, NULL))
  74              		.loc 1 706 0
  75 003e 0023     		movs	r3, #0
  76 0040 0721     		movs	r1, #7
  77 0042 0093     		str	r3, [sp]
  78 0044 094B     		ldr	r3, .L10+8
  79 0046 0F20     		movs	r0, #15
  80 0048 1A68     		ldr	r2, [r3]
  81 004a 0523     		movs	r3, #5
  82 004c FFF7FEFF 		bl	lib_app_call
  83              	.LVL5:
 707:src/emvtrans.c ****     aNextState = EMV_COMPLETE;  // no fallback
 708:src/emvtrans.c **** 
 709:src/emvtrans.c ****   RSP_DATA.b_response = TRANS_REJ; // for print msg disable
  84              		.loc 1 709 0
  85 0050 0123     		movs	r3, #1
  86 0052 84F80037 		strb	r3, [r4, #1792]
 710:src/emvtrans.c ****   return aNextState;
ARM GAS  C:\Users\AHMED~1.ELE\AppData\Local\Temp\cckRh1xc.s 			page 15


 711:src/emvtrans.c **** }
  87              		.loc 1 711 0
  88 0056 0028     		cmp	r0, #0
  89 0058 0CBF     		ite	eq
  90 005a 2846     		moveq	r0, r5
  91 005c 0020     		movne	r0, #0
  92              	.LVL6:
  93 005e 03B0     		add	sp, sp, #12
  94              		.cfi_def_cfa_offset 12
  95              		@ sp needed
  96 0060 30BD     		pop	{r4, r5, pc}
  97              	.L11:
  98 0062 00BF     		.align	2
  99              	.L10:
 100 0064 00000000 		.word	gGTS
 101 0068 00000000 		.word	gGDS
 102 006c 00000000 		.word	gIccHandle
 103              		.cfi_endproc
 104              	.LFE17:
 105              		.size	EMVCancel, .-EMVCancel
 106              		.section	.text.DeAss,"ax",%progbits
 107              		.align	1
 108              		.global	DeAss
 109              		.thumb
 110              		.thumb_func
 111              		.type	DeAss, %function
 112              	DeAss:
 113              	.LFB0:
 129:src/emvtrans.c ****   BYTE bIdx;
 114              		.loc 1 129 0
 115              		.cfi_startproc
 116              		@ args = 0, pretend = 0, frame = 0
 117              		@ frame_needed = 0, uses_anonymous_args = 0
 118              	.LVL7:
 119 0000 2DE9F843 		push	{r3, r4, r5, r6, r7, r8, r9, lr}
 120              		.cfi_def_cfa_offset 32
 121              		.cfi_offset 3, -32
 122              		.cfi_offset 4, -28
 123              		.cfi_offset 5, -24
 124              		.cfi_offset 6, -20
 125              		.cfi_offset 7, -16
 126              		.cfi_offset 8, -12
 127              		.cfi_offset 9, -8
 128              		.cfi_offset 14, -4
 129:src/emvtrans.c ****   BYTE bIdx;
 129              		.loc 1 129 0
 130 0004 0746     		mov	r7, r0
 131 0006 0D46     		mov	r5, r1
 134:src/emvtrans.c ****     bIdx = 0;
 132              		.loc 1 134 0
 133 0008 1646     		mov	r6, r2
 134 000a B2B3     		cbz	r2, .L13
 135 000c 0024     		movs	r4, #0
 136              	.LVL8:
 137              	.L16:
 137:src/emvtrans.c ****         ++pbMsg;
 138              		.loc 1 137 0
ARM GAS  C:\Users\AHMED~1.ELE\AppData\Local\Temp\cckRh1xc.s 			page 16


 139 000e 2B78     		ldrb	r3, [r5]	@ zero_extendqisi2
 140 0010 013B     		subs	r3, r3, #1
 141 0012 DBB2     		uxtb	r3, r3
 142 0014 FD2B     		cmp	r3, #253
 143 0016 03D9     		bls	.L14
 139:src/emvtrans.c ****       } else {
 144              		.loc 1 139 0
 145 0018 013E     		subs	r6, r6, #1
 146              	.LVL9:
 138:src/emvtrans.c ****         --wLen;
 147              		.loc 1 138 0
 148 001a 0135     		adds	r5, r5, #1
 149              	.LVL10:
 139:src/emvtrans.c ****       } else {
 150              		.loc 1 139 0
 151 001c B6B2     		uxth	r6, r6
 152              	.LVL11:
 153 001e 25E0     		b	.L15
 154              	.L14:
 141:src/emvtrans.c ****           break;
 155              		.loc 1 141 0
 156 0020 952C     		cmp	r4, #149
 157 0022 2AD0     		beq	.L13
 144:src/emvtrans.c ****         //get Length
 158              		.loc 1 144 0
 159 0024 2846     		mov	r0, r5
 160 0026 FFF7FEFF 		bl	TlvTag
 161              	.LVL12:
 162 002a 0FFA84F8 		sxth	r8, r4
 163 002e 07EBC809 		add	r9, r7, r8, lsl #3
 164              	.LVL13:
 165 0032 27F83800 		strh	r0, [r7, r8, lsl #3]	@ movhi
 146:src/emvtrans.c ****         aList[bIdx].sLen = (BYTE) wInc;
 166              		.loc 1 146 0
 167 0036 2846     		mov	r0, r5
 168 0038 FFF7FEFF 		bl	TlvLen
 169              	.LVL14:
 147:src/emvtrans.c ****         //get buffer pointer
 170              		.loc 1 147 0
 171 003c 89F80200 		strb	r0, [r9, #2]
 146:src/emvtrans.c ****         aList[bIdx].sLen = (BYTE) wInc;
 172              		.loc 1 146 0
 173 0040 8046     		mov	r8, r0
 174              	.LVL15:
 149:src/emvtrans.c ****         pbMsg += TlvSizeOf(pbMsg);
 175              		.loc 1 149 0
 176 0042 2846     		mov	r0, r5
 177              	.LVL16:
 178 0044 FFF7FEFF 		bl	TlvVPtr
 179              	.LVL17:
 180 0048 C9F80400 		str	r0, [r9, #4]
 150:src/emvtrans.c ****         if (pbMsg - pbMark <= wLen)
 181              		.loc 1 150 0
 182 004c 2846     		mov	r0, r5
 183 004e FFF7FEFF 		bl	TlvSizeOf
 184              	.LVL18:
 151:src/emvtrans.c ****           wLen -= pbMsg - pbMark;
ARM GAS  C:\Users\AHMED~1.ELE\AppData\Local\Temp\cckRh1xc.s 			page 17


 185              		.loc 1 151 0
 186 0052 B042     		cmp	r0, r6
 150:src/emvtrans.c ****         if (pbMsg - pbMark <= wLen)
 187              		.loc 1 150 0
 188 0054 05EB0003 		add	r3, r5, r0
 189              	.LVL19:
 151:src/emvtrans.c ****           wLen -= pbMsg - pbMark;
 190              		.loc 1 151 0
 191 0058 0FDC     		bgt	.L13
 152:src/emvtrans.c ****         else
 192              		.loc 1 152 0
 193 005a ED1A     		subs	r5, r5, r3
 194              	.LVL20:
 195 005c 2E44     		add	r6, r6, r5
 196              	.LVL21:
 155:src/emvtrans.c ****           break;
 197              		.loc 1 155 0
 198 005e B8F1FF0F 		cmp	r8, #255
 152:src/emvtrans.c ****         else
 199              		.loc 1 152 0
 200 0062 B6B2     		uxth	r6, r6
 201              	.LVL22:
 155:src/emvtrans.c ****           break;
 202              		.loc 1 155 0
 203 0064 09D8     		bhi	.L13
 157:src/emvtrans.c ****       }
 204              		.loc 1 157 0
 205 0066 0134     		adds	r4, r4, #1
 206              	.LVL23:
 150:src/emvtrans.c ****         if (pbMsg - pbMark <= wLen)
 207              		.loc 1 150 0
 208 0068 1D46     		mov	r5, r3
 157:src/emvtrans.c ****       }
 209              		.loc 1 157 0
 210 006a E4B2     		uxtb	r4, r4
 211              	.LVL24:
 212              	.L15:
 159:src/emvtrans.c ****         aList[bIdx].wTag = 0;
 213              		.loc 1 159 0
 214 006c 002E     		cmp	r6, #0
 215 006e CED1     		bne	.L16
 160:src/emvtrans.c ****         return bIdx;
 216              		.loc 1 160 0
 217 0070 27F83460 		strh	r6, [r7, r4, lsl #3]	@ movhi
 161:src/emvtrans.c ****       }
 218              		.loc 1 161 0
 219 0074 2046     		mov	r0, r4
 220 0076 BDE8F883 		pop	{r3, r4, r5, r6, r7, r8, r9, pc}
 221              	.LVL25:
 222              	.L13:
 165:src/emvtrans.c ****   return 0;
 223              		.loc 1 165 0
 224 007a 0020     		movs	r0, #0
 225 007c 3880     		strh	r0, [r7]	@ movhi
 167:src/emvtrans.c **** //*****************************************************************************
 226              		.loc 1 167 0
 227 007e BDE8F883 		pop	{r3, r4, r5, r6, r7, r8, r9, pc}
ARM GAS  C:\Users\AHMED~1.ELE\AppData\Local\Temp\cckRh1xc.s 			page 18


 228              		.cfi_endproc
 229              	.LFE0:
 230              		.size	DeAss, .-DeAss
 231              		.section	.text.TagPut,"ax",%progbits
 232              		.align	1
 233              		.global	TagPut
 234              		.thumb
 235              		.thumb_func
 236              		.type	TagPut, %function
 237              	TagPut:
 238              	.LFB4:
 268:src/emvtrans.c ****   if (aTag / 256)
 239              		.loc 1 268 0
 240              		.cfi_startproc
 241              		@ args = 0, pretend = 0, frame = 0
 242              		@ frame_needed = 0, uses_anonymous_args = 0
 243              		@ link register save eliminated.
 244              	.LVL26:
 269:src/emvtrans.c ****     *aBuf++ = aTag / 256;
 245              		.loc 1 269 0
 246 0000 FF29     		cmp	r1, #255
 270:src/emvtrans.c ****   *aBuf = (BYTE)aTag;
 247              		.loc 1 270 0
 248 0002 82BF     		ittt	hi
 249 0004 0B0A     		lsrhi	r3, r1, #8
 250 0006 0370     		strbhi	r3, [r0]
 251 0008 0130     		addhi	r0, r0, #1
 252              	.LVL27:
 271:src/emvtrans.c ****   return aBuf + 1;
 253              		.loc 1 271 0
 254 000a 00F8011B 		strb	r1, [r0], #1
 255              	.LVL28:
 273:src/emvtrans.c **** /******************************************************************************
 256              		.loc 1 273 0
 257 000e 7047     		bx	lr
 258              		.cfi_endproc
 259              	.LFE4:
 260              		.size	TagPut, .-TagPut
 261              		.section	.text.TagSeek,"ax",%progbits
 262              		.align	1
 263              		.global	TagSeek
 264              		.thumb
 265              		.thumb_func
 266              		.type	TagSeek, %function
 267              	TagSeek:
 268              	.LFB5:
 284:src/emvtrans.c ****   while (aSrc->wTag) {
 269              		.loc 1 284 0
 270              		.cfi_startproc
 271              		@ args = 0, pretend = 0, frame = 0
 272              		@ frame_needed = 0, uses_anonymous_args = 0
 273              		@ link register save eliminated.
 274              	.LVL29:
 275              	.L28:
 285:src/emvtrans.c ****     if (aSrc->wTag == aTag)
 276              		.loc 1 285 0
 277 0000 0388     		ldrh	r3, [r0]
ARM GAS  C:\Users\AHMED~1.ELE\AppData\Local\Temp\cckRh1xc.s 			page 19


 278 0002 1BB1     		cbz	r3, .L32
 286:src/emvtrans.c ****       return aSrc;
 279              		.loc 1 286 0
 280 0004 8B42     		cmp	r3, r1
 281 0006 02D0     		beq	.L29
 288:src/emvtrans.c ****   }
 282              		.loc 1 288 0
 283 0008 0830     		adds	r0, r0, #8
 284              	.LVL30:
 285 000a F9E7     		b	.L28
 286              	.L32:
 290:src/emvtrans.c **** }
 287              		.loc 1 290 0
 288 000c 1846     		mov	r0, r3
 289              	.LVL31:
 290              	.L29:
 291:src/emvtrans.c **** /******************************************************************************
 291              		.loc 1 291 0
 292 000e 7047     		bx	lr
 293              		.cfi_endproc
 294              	.LFE5:
 295              		.size	TagSeek, .-TagSeek
 296              		.section	.text.TagData,"ax",%progbits
 297              		.align	1
 298              		.global	TagData
 299              		.thumb
 300              		.thumb_func
 301              		.type	TagData, %function
 302              	TagData:
 303              	.LFB6:
 302:src/emvtrans.c ****   while (aSrc->wTag) {
 304              		.loc 1 302 0
 305              		.cfi_startproc
 306              		@ args = 0, pretend = 0, frame = 0
 307              		@ frame_needed = 0, uses_anonymous_args = 0
 308              		@ link register save eliminated.
 309              	.LVL32:
 310              	.L34:
 303:src/emvtrans.c ****     if (aSrc->wTag == aTag)
 311              		.loc 1 303 0
 312 0000 0388     		ldrh	r3, [r0]
 313 0002 2BB1     		cbz	r3, .L38
 304:src/emvtrans.c ****       return aSrc->pbLoc;
 314              		.loc 1 304 0
 315 0004 8B42     		cmp	r3, r1
 316 0006 01D1     		bne	.L35
 305:src/emvtrans.c ****     ++aSrc;
 317              		.loc 1 305 0
 318 0008 4068     		ldr	r0, [r0, #4]
 319              	.LVL33:
 320 000a 7047     		bx	lr
 321              	.LVL34:
 322              	.L35:
 306:src/emvtrans.c ****   }
 323              		.loc 1 306 0
 324 000c 0830     		adds	r0, r0, #8
 325              	.LVL35:
ARM GAS  C:\Users\AHMED~1.ELE\AppData\Local\Temp\cckRh1xc.s 			page 20


 326 000e F7E7     		b	.L34
 327              	.L38:
 308:src/emvtrans.c **** }
 328              		.loc 1 308 0
 329 0010 1846     		mov	r0, r3
 330              	.LVL36:
 309:src/emvtrans.c **** //*****************************************************************************
 331              		.loc 1 309 0
 332 0012 7047     		bx	lr
 333              		.cfi_endproc
 334              	.LFE6:
 335              		.size	TagData, .-TagData
 336              		.section	.text.PackTagsData,"ax",%progbits
 337              		.align	1
 338              		.global	PackTagsData
 339              		.thumb
 340              		.thumb_func
 341              		.type	PackTagsData, %function
 342              	PackTagsData:
 343              	.LFB7:
 320:src/emvtrans.c ****   WORD tag;
 344              		.loc 1 320 0
 345              		.cfi_startproc
 346              		@ args = 0, pretend = 0, frame = 0
 347              		@ frame_needed = 0, uses_anonymous_args = 0
 348              	.LVL37:
 349 0000 F8B5     		push	{r3, r4, r5, r6, r7, lr}
 350              		.cfi_def_cfa_offset 24
 351              		.cfi_offset 3, -24
 352              		.cfi_offset 4, -20
 353              		.cfi_offset 5, -16
 354              		.cfi_offset 6, -12
 355              		.cfi_offset 7, -8
 356              		.cfi_offset 14, -4
 320:src/emvtrans.c ****   WORD tag;
 357              		.loc 1 320 0
 358 0002 0446     		mov	r4, r0
 359 0004 8F1E     		subs	r7, r1, #2
 360              	.LVL38:
 361              	.L40:
 324:src/emvtrans.c ****     if ((psLp = TagSeek(gGDS->s_TagList, tag)) != NULL) {
 362              		.loc 1 324 0
 363 0006 37F8026F 		ldrh	r6, [r7, #2]!
 364              	.LVL39:
 365 000a CEB1     		cbz	r6, .L46
 325:src/emvtrans.c ****       aBuf = TagPut(aBuf, tag);
 366              		.loc 1 325 0
 367 000c 0D4B     		ldr	r3, .L47
 368 000e 3146     		mov	r1, r6
 369 0010 1868     		ldr	r0, [r3]
 370 0012 00F55E50 		add	r0, r0, #14208
 371 0016 2030     		adds	r0, r0, #32
 372 0018 FFF7FEFF 		bl	TagSeek
 373              	.LVL40:
 374 001c 0546     		mov	r5, r0
 375 001e 0028     		cmp	r0, #0
 376 0020 F1D0     		beq	.L40
ARM GAS  C:\Users\AHMED~1.ELE\AppData\Local\Temp\cckRh1xc.s 			page 21


 326:src/emvtrans.c ****       *aBuf++ = psLp->sLen; // assume byte len
 377              		.loc 1 326 0
 378 0022 2046     		mov	r0, r4
 379              	.LVL41:
 380 0024 3146     		mov	r1, r6
 381 0026 FFF7FEFF 		bl	TagPut
 382              	.LVL42:
 327:src/emvtrans.c ****       memcpy(aBuf, psLp->pbLoc, psLp->sLen);
 383              		.loc 1 327 0
 384 002a AB78     		ldrb	r3, [r5, #2]	@ zero_extendqisi2
 385 002c 441C     		adds	r4, r0, #1
 386              	.LVL43:
 387 002e 0370     		strb	r3, [r0]
 328:src/emvtrans.c ****       aBuf += psLp->sLen;
 388              		.loc 1 328 0
 389 0030 2046     		mov	r0, r4
 390 0032 6968     		ldr	r1, [r5, #4]
 391 0034 AA78     		ldrb	r2, [r5, #2]	@ zero_extendqisi2
 392 0036 FFF7FEFF 		bl	memcpy
 393              	.LVL44:
 329:src/emvtrans.c ****     }
 394              		.loc 1 329 0
 395 003a AB78     		ldrb	r3, [r5, #2]	@ zero_extendqisi2
 396 003c 1C44     		add	r4, r4, r3
 397              	.LVL45:
 398 003e E2E7     		b	.L40
 399              	.LVL46:
 400              	.L46:
 334:src/emvtrans.c **** //*****************************************************************************
 401              		.loc 1 334 0
 402 0040 2046     		mov	r0, r4
 403 0042 F8BD     		pop	{r3, r4, r5, r6, r7, pc}
 404              	.LVL47:
 405              	.L48:
 406              		.align	2
 407              	.L47:
 408 0044 00000000 		.word	gGDS
 409              		.cfi_endproc
 410              	.LFE7:
 411              		.size	PackTagsData, .-PackTagsData
 412              		.section	.text.EMVFatal,"ax",%progbits
 413              		.align	1
 414              		.global	EMVFatal
 415              		.thumb
 416              		.thumb_func
 417              		.type	EMVFatal, %function
 418              	EMVFatal:
 419              	.LFB8:
 344:src/emvtrans.c ****   Disp2x16Msg(GetConstMsg(EDC_EMV_FATAL), MW_LINE3, MW_CLRDISP|MW_BIGFONT);
 420              		.loc 1 344 0
 421              		.cfi_startproc
 422              		@ args = 0, pretend = 0, frame = 0
 423              		@ frame_needed = 0, uses_anonymous_args = 0
 424 0000 07B5     		push	{r0, r1, r2, lr}
 425              		.cfi_def_cfa_offset 16
 426              		.cfi_offset 14, -4
 345:src/emvtrans.c ****   while (APM_WaitKey((DWORD)-1,0) != MWKEY_CANCL) SleepMW();
ARM GAS  C:\Users\AHMED~1.ELE\AppData\Local\Temp\cckRh1xc.s 			page 22


 427              		.loc 1 345 0
 428 0002 8620     		movs	r0, #134
 429 0004 FFF7FEFF 		bl	GetConstMsg
 430              	.LVL48:
 431 0008 4FF44071 		mov	r1, #768
 432 000c 4FF48452 		mov	r2, #4224
 433 0010 FFF7FEFF 		bl	Disp2x16Msg
 434              	.LVL49:
 435              	.L50:
 346:src/emvtrans.c ****   ResetMW();
 436              		.loc 1 346 0 discriminator 1
 437 0014 0023     		movs	r3, #0
 438 0016 1020     		movs	r0, #16
 439 0018 0093     		str	r3, [sp]
 440 001a 0321     		movs	r1, #3
 441 001c 4FF0FF32 		mov	r2, #-1
 442 0020 FFF7FEFF 		bl	lib_app_call
 443              	.LVL50:
 444 0024 1128     		cmp	r0, #17
 445 0026 04D0     		beq	.L52
 346:src/emvtrans.c ****   ResetMW();
 446              		.loc 1 346 0 is_stmt 0 discriminator 2
 447 0028 4FF4CE70 		mov	r0, #412
 448 002c FFF7FEFF 		bl	sys_func0
 449              	.LVL51:
 450 0030 F0E7     		b	.L50
 451              	.L52:
 347:src/emvtrans.c **** }
 452              		.loc 1 347 0 is_stmt 1
 453 0032 4FF4CF70 		mov	r0, #414
 348:src/emvtrans.c **** //*****************************************************************************
 454              		.loc 1 348 0
 455 0036 03B0     		add	sp, sp, #12
 456              		.cfi_def_cfa_offset 4
 457              		@ sp needed
 458 0038 5DF804EB 		ldr	lr, [sp], #4
 459              		.cfi_restore 14
 460              		.cfi_def_cfa_offset 0
 347:src/emvtrans.c **** }
 461              		.loc 1 347 0
 462 003c FFF7FEBF 		b	sys_func0
 463              	.LVL52:
 464              		.cfi_endproc
 465              	.LFE8:
 466              		.size	EMVFatal, .-EMVFatal
 467              		.section	.text.EMVInput,"ax",%progbits
 468              		.align	1
 469              		.global	EMVInput
 470              		.thumb
 471              		.thumb_func
 472              		.type	EMVInput, %function
 473              	EMVInput:
 474              	.LFB3:
 242:src/emvtrans.c ****   if (aSelAgain) {
 475              		.loc 1 242 0
 476              		.cfi_startproc
 477              		@ args = 0, pretend = 0, frame = 32
ARM GAS  C:\Users\AHMED~1.ELE\AppData\Local\Temp\cckRh1xc.s 			page 23


 478              		@ frame_needed = 0, uses_anonymous_args = 0
 479              	.LVL53:
 480 0000 2DE9F047 		push	{r4, r5, r6, r7, r8, r9, r10, lr}
 481              		.cfi_def_cfa_offset 32
 482              		.cfi_offset 4, -32
 483              		.cfi_offset 5, -28
 484              		.cfi_offset 6, -24
 485              		.cfi_offset 7, -20
 486              		.cfi_offset 8, -16
 487              		.cfi_offset 9, -12
 488              		.cfi_offset 10, -8
 489              		.cfi_offset 14, -4
 490 0004 8AB0     		sub	sp, sp, #40
 491              		.cfi_def_cfa_offset 72
 243:src/emvtrans.c ****     DispErrorMsg(GetConstMsg(EDC_EMV_CANNOT_SEL));
 492              		.loc 1 243 0
 493 0006 20B1     		cbz	r0, .L54
 244:src/emvtrans.c ****   }
 494              		.loc 1 244 0
 495 0008 8920     		movs	r0, #137
 496              	.LVL54:
 497 000a FFF7FEFF 		bl	GetConstMsg
 498              	.LVL55:
 499 000e FFF7FEFF 		bl	DispErrorMsg
 500              	.LVL56:
 501              	.L54:
 247:src/emvtrans.c ****     if (EMVChoice() == FALSE)
 502              		.loc 1 247 0
 503 0012 5F4E     		ldr	r6, .L79
 504 0014 3368     		ldr	r3, [r6]
 505 0016 03F55E53 		add	r3, r3, #14208
 506 001a 5A68     		ldr	r2, [r3, #4]
 507 001c DB68     		ldr	r3, [r3, #12]
 508 001e 5B78     		ldrb	r3, [r3, #1]	@ zero_extendqisi2
 509 0020 1370     		strb	r3, [r2]
 510 0022 002B     		cmp	r3, #0
 511 0024 00F09080 		beq	.L55
 512              	.LBB7:
 513              	.LBB8:
 205:src/emvtrans.c ****                        (WORD)(gGDS->s_EMVOut.wLen - 2)) / 2) == 0) {
 514              		.loc 1 205 0
 515 0028 3068     		ldr	r0, [r6]
 516 002a 00F55E50 		add	r0, r0, #14208
 517 002e 2030     		adds	r0, r0, #32
 518 0030 30F8182C 		ldrh	r2, [r0, #-24]
 519 0034 50F8141C 		ldr	r1, [r0, #-20]
 520 0038 023A     		subs	r2, r2, #2
 521 003a 0231     		adds	r1, r1, #2
 522 003c 92B2     		uxth	r2, r2
 523 003e FFF7FEFF 		bl	DeAss
 524              	.LVL57:
 525 0042 C0F34707 		ubfx	r7, r0, #1, #8
 526              	.LVL58:
 527 0046 0FB9     		cbnz	r7, .L56
 207:src/emvtrans.c ****   }
 528              		.loc 1 207 0
 529 0048 FFF7FEFF 		bl	EMVFatal
ARM GAS  C:\Users\AHMED~1.ELE\AppData\Local\Temp\cckRh1xc.s 			page 24


 530              	.LVL59:
 531              	.L56:
 209:src/emvtrans.c ****   Disp2x16Msg(GetConstMsg(EDC_EMV_SEL_APP), MW_LINE3, MW_BIGFONT);
 532              		.loc 1 209 0
 533 004c 0024     		movs	r4, #0
 534 004e 2321     		movs	r1, #35
 535 0050 4FF44072 		mov	r2, #768
 536 0054 2346     		mov	r3, r4
 537 0056 0094     		str	r4, [sp]
 538 0058 0F20     		movs	r0, #15
 539 005a FFF7FEFF 		bl	lib_app_call
 540              	.LVL60:
 210:src/emvtrans.c ****   bIdx = 0;
 541              		.loc 1 210 0
 542 005e 8820     		movs	r0, #136
 543 0060 FFF7FEFF 		bl	GetConstMsg
 544              	.LVL61:
 545 0064 4FF44071 		mov	r1, #768
 546 0068 4FF48052 		mov	r2, #4096
 547 006c FFF7FEFF 		bl	Disp2x16Msg
 548              	.LVL62:
 549              	.L57:
 550 0070 3368     		ldr	r3, [r6]
 551              	.LBB9:
 552              	.LBB10:
 182:src/emvtrans.c ****   for (i=0;i<len;i++)
 553              		.loc 1 182 0
 554 0072 0DF10C08 		add	r8, sp, #12
 555 0076 03EB0413 		add	r3, r3, r4, lsl #4
 556 007a 03F55E53 		add	r3, r3, #14208
 557 007e 4046     		mov	r0, r8
 558 0080 93F82A50 		ldrb	r5, [r3, #42]	@ zero_extendqisi2
 559 0084 D96A     		ldr	r1, [r3, #44]
 560 0086 1A2D     		cmp	r5, #26
 561 0088 28BF     		it	cs
 562 008a 1A25     		movcs	r5, #26
 563              	.LVL63:
 564 008c 2A46     		mov	r2, r5
 565 008e FFF7FEFF 		bl	memcpy
 566              	.LVL64:
 567 0092 4346     		mov	r3, r8
 568              	.LVL65:
 569              	.L58:
 570 0094 C8EB0302 		rsb	r2, r8, r3
 183:src/emvtrans.c ****     if ((buffer[i] & 0x7f) < 0x20)
 571              		.loc 1 183 0
 572 0098 D2B2     		uxtb	r2, r2
 573 009a AA42     		cmp	r2, r5
 574 009c 09D2     		bcs	.L78
 184:src/emvtrans.c ****       buffer[i] = ' ';
 575              		.loc 1 184 0
 576 009e 13F8012B 		ldrb	r2, [r3], #1	@ zero_extendqisi2
 577              	.LVL66:
 578 00a2 02F07F02 		and	r2, r2, #127
 579 00a6 1F2A     		cmp	r2, #31
 185:src/emvtrans.c ****   buffer[len] = 0;
 580              		.loc 1 185 0
ARM GAS  C:\Users\AHMED~1.ELE\AppData\Local\Temp\cckRh1xc.s 			page 25


 581 00a8 9CBF     		itt	ls
 582 00aa 2022     		movls	r2, #32
 583 00ac 03F8012C 		strbls	r2, [r3, #-1]
 584              	.LVL67:
 585 00b0 F0E7     		b	.L58
 586              	.L78:
 186:src/emvtrans.c ****   DispClrBelowMW(MW_LINE7);
 587              		.loc 1 186 0
 588 00b2 0AAB     		add	r3, sp, #40
 589              	.LVL68:
 590 00b4 1D44     		add	r5, r5, r3
 591              	.LVL69:
 592 00b6 4FF00009 		mov	r9, #0
 187:src/emvtrans.c ****   DispLineMW(buffer, MW_LINE7, MW_BIGFONT);
 593              		.loc 1 187 0
 594 00ba 2321     		movs	r1, #35
 186:src/emvtrans.c ****   DispClrBelowMW(MW_LINE7);
 595              		.loc 1 186 0
 596 00bc 05F81C9C 		strb	r9, [r5, #-28]
 187:src/emvtrans.c ****   DispLineMW(buffer, MW_LINE7, MW_BIGFONT);
 597              		.loc 1 187 0
 598 00c0 4FF4E062 		mov	r2, #1792
 599 00c4 4B46     		mov	r3, r9
 600 00c6 CDF80090 		str	r9, [sp]
 601 00ca 0F20     		movs	r0, #15
 602 00cc FFF7FEFF 		bl	lib_app_call
 603              	.LVL70:
 604              	.LBB11:
 188:src/emvtrans.c **** }
 605              		.loc 1 188 0
 606 00d0 4046     		mov	r0, r8
 607 00d2 FFF7FEFF 		bl	strlen
 608              	.LVL71:
 609 00d6 8246     		mov	r10, r0
 610              	.LVL72:
 611 00d8 0AF10101 		add	r1, r10, #1
 612 00dc 9220     		movs	r0, #146
 613              	.LVL73:
 614 00de FFF7FEFF 		bl	sys_func1
 615              	.LVL74:
 616 00e2 0546     		mov	r5, r0
 617 00e4 98B1     		cbz	r0, .L64
 618 00e6 4146     		mov	r1, r8
 619 00e8 5246     		mov	r2, r10
 620 00ea FFF7FEFF 		bl	memcpy
 621              	.LVL75:
 622 00ee 4FF48053 		mov	r3, #4096
 623 00f2 05F80A90 		strb	r9, [r5, r10]
 624 00f6 2521     		movs	r1, #37
 625 00f8 0093     		str	r3, [sp]
 626 00fa 0F20     		movs	r0, #15
 627 00fc 2A46     		mov	r2, r5
 628 00fe 4FF4E063 		mov	r3, #1792
 629 0102 FFF7FEFF 		bl	lib_app_call
 630              	.LVL76:
 631 0106 9420     		movs	r0, #148
 632 0108 2946     		mov	r1, r5
ARM GAS  C:\Users\AHMED~1.ELE\AppData\Local\Temp\cckRh1xc.s 			page 26


 633 010a FFF7FEFF 		bl	sys_func1
 634              	.LVL77:
 635              	.L64:
 636              	.LBE11:
 637              	.LBE10:
 638              	.LBE9:
 216:src/emvtrans.c ****       if (keyin == MWKEY_CANCL)
 639              		.loc 1 216 0
 640 010e 0025     		movs	r5, #0
 641 0110 1020     		movs	r0, #16
 642 0112 0095     		str	r5, [sp]
 643 0114 0321     		movs	r1, #3
 644 0116 42F22832 		movw	r2, #9000
 645 011a 2B46     		mov	r3, r5
 646 011c FFF7FEFF 		bl	lib_app_call
 647              	.LVL78:
 217:src/emvtrans.c ****         return FALSE;
 648              		.loc 1 217 0
 649 0120 1128     		cmp	r0, #17
 650 0122 31D0     		beq	.L67
 219:src/emvtrans.c ****         gGDS->s_EMVIn.bMsg[0] = bIdx;
 651              		.loc 1 219 0
 652 0124 1028     		cmp	r0, #16
 653 0126 05D1     		bne	.L63
 220:src/emvtrans.c ****         return TRUE;
 654              		.loc 1 220 0
 655 0128 3368     		ldr	r3, [r6]
 656 012a 03F55E53 		add	r3, r3, #14208
 657 012e 5B68     		ldr	r3, [r3, #4]
 658 0130 1C70     		strb	r4, [r3]
 659 0132 09E0     		b	.L55
 660              	.L63:
 223:src/emvtrans.c ****         break;
 661              		.loc 1 223 0
 662 0134 1228     		cmp	r0, #18
 663 0136 EAD1     		bne	.L64
 226:src/emvtrans.c ****       if (bChoice == 1)
 664              		.loc 1 226 0
 665 0138 0134     		adds	r4, r4, #1
 666              	.LVL79:
 667 013a E4B2     		uxtb	r4, r4
 668              	.LVL80:
 669 013c BC42     		cmp	r4, r7
 670 013e 97D1     		bne	.L57
 227:src/emvtrans.c ****         return FALSE;
 671              		.loc 1 227 0
 672 0140 012C     		cmp	r4, #1
 673 0142 21D0     		beq	.L67
 229:src/emvtrans.c ****     }
 674              		.loc 1 229 0
 675 0144 2C46     		mov	r4, r5
 676              	.LVL81:
 677 0146 93E7     		b	.L57
 678              	.LVL82:
 679              	.L55:
 680              	.LBE8:
 681              	.LBE7:
ARM GAS  C:\Users\AHMED~1.ELE\AppData\Local\Temp\cckRh1xc.s 			page 27


 251:src/emvtrans.c ****   memcpy(&gGDS->s_EMVIn.bMsg[4], STIS_TERM_DATA.sb_trace_no, 3);
 682              		.loc 1 251 0
 683 0148 3368     		ldr	r3, [r6]
 684 014a 1249     		ldr	r1, .L79+4
 685 014c 03F55E53 		add	r3, r3, #14208
 686 0150 0322     		movs	r2, #3
 687 0152 5868     		ldr	r0, [r3, #4]
 688 0154 0130     		adds	r0, r0, #1
 689 0156 FFF7FEFF 		bl	memcpy
 690              	.LVL83:
 252:src/emvtrans.c ****   gGDS->s_EMVIn.wLen = 7;
 691              		.loc 1 252 0
 692 015a 3168     		ldr	r1, [r6]
 693 015c 0322     		movs	r2, #3
 694 015e 01F55E54 		add	r4, r1, #14208
 695 0162 01F28651 		addw	r1, r1, #1414
 696 0166 6068     		ldr	r0, [r4, #4]
 697 0168 0430     		adds	r0, r0, #4
 698 016a FFF7FEFF 		bl	memcpy
 699              	.LVL84:
 253:src/emvtrans.c ****   Disp2x16Msg(GetConstMsg(EDC_EMV_PROCESSING),MW_LINE5, MW_BIGFONT);
 700              		.loc 1 253 0
 701 016e 0723     		movs	r3, #7
 254:src/emvtrans.c ****   return TRUE;
 702              		.loc 1 254 0
 703 0170 8720     		movs	r0, #135
 253:src/emvtrans.c ****   Disp2x16Msg(GetConstMsg(EDC_EMV_PROCESSING),MW_LINE5, MW_BIGFONT);
 704              		.loc 1 253 0
 705 0172 2380     		strh	r3, [r4]	@ movhi
 254:src/emvtrans.c ****   return TRUE;
 706              		.loc 1 254 0
 707 0174 FFF7FEFF 		bl	GetConstMsg
 708              	.LVL85:
 709 0178 4FF4A061 		mov	r1, #1280
 710 017c 4FF48052 		mov	r2, #4096
 711 0180 FFF7FEFF 		bl	Disp2x16Msg
 712              	.LVL86:
 255:src/emvtrans.c **** }
 713              		.loc 1 255 0
 714 0184 0120     		movs	r0, #1
 715 0186 00E0     		b	.L62
 716              	.LVL87:
 717              	.L67:
 249:src/emvtrans.c ****   }
 718              		.loc 1 249 0
 719 0188 2846     		mov	r0, r5
 720              	.LVL88:
 721              	.L62:
 256:src/emvtrans.c **** /******************************************************************************
 722              		.loc 1 256 0
 723 018a 0AB0     		add	sp, sp, #40
 724              		.cfi_def_cfa_offset 32
 725              		@ sp needed
 726 018c BDE8F087 		pop	{r4, r5, r6, r7, r8, r9, r10, pc}
 727              	.L80:
 728              		.align	2
 729              	.L79:
ARM GAS  C:\Users\AHMED~1.ELE\AppData\Local\Temp\cckRh1xc.s 			page 28


 730 0190 00000000 		.word	gGDS
 731 0194 00000000 		.word	.LC0
 732              		.cfi_endproc
 733              	.LFE3:
 734              		.size	EMVInput, .-EMVInput
 735              		.section	.text.GetApplNameTag,"ax",%progbits
 736              		.align	1
 737              		.global	GetApplNameTag
 738              		.thumb
 739              		.thumb_func
 740              		.type	GetApplNameTag, %function
 741              	GetApplNameTag:
 742              	.LFB9:
 358:src/emvtrans.c ****   TLIST * ptag;   // temp tag data ptr
 743              		.loc 1 358 0
 744              		.cfi_startproc
 745              		@ args = 0, pretend = 0, frame = 0
 746              		@ frame_needed = 0, uses_anonymous_args = 0
 361:src/emvtrans.c ****   if ( ptag != NULL )                // tag value is found
 747              		.loc 1 361 0
 748 0000 0E4B     		ldr	r3, .L86
 358:src/emvtrans.c ****   TLIST * ptag;   // temp tag data ptr
 749              		.loc 1 358 0
 750 0002 10B5     		push	{r4, lr}
 751              		.cfi_def_cfa_offset 8
 752              		.cfi_offset 4, -8
 753              		.cfi_offset 14, -4
 361:src/emvtrans.c ****   if ( ptag != NULL )                // tag value is found
 754              		.loc 1 361 0
 755 0004 49F61171 		movw	r1, #40721
 756 0008 1C68     		ldr	r4, [r3]
 757 000a 04F55E54 		add	r4, r4, #14208
 758 000e 2034     		adds	r4, r4, #32
 759 0010 2046     		mov	r0, r4
 760 0012 FFF7FEFF 		bl	TagSeek
 761              	.LVL89:
 362:src/emvtrans.c ****     if (*ptag->pbLoc==1)             // only supported these 1 issuer code tbl
 762              		.loc 1 362 0
 763 0016 78B1     		cbz	r0, .L84
 363:src/emvtrans.c ****       if (TagSeek(gGDS->s_TagList, 0x9F12)) // app preferred name exists
 764              		.loc 1 363 0
 765 0018 4368     		ldr	r3, [r0, #4]
 766 001a 1B78     		ldrb	r3, [r3]	@ zero_extendqisi2
 767 001c 012B     		cmp	r3, #1
 768 001e 0BD1     		bne	.L84
 364:src/emvtrans.c ****         return 0x9F12;               // app preferred name
 769              		.loc 1 364 0
 770 0020 2046     		mov	r0, r4
 771              	.LVL90:
 772 0022 49F61271 		movw	r1, #40722
 773 0026 FFF7FEFF 		bl	TagSeek
 774              	.LVL91:
 365:src/emvtrans.c ****   return 0x50;                       // app label
 775              		.loc 1 365 0
 776 002a 49F61273 		movw	r3, #40722
 777 002e 0028     		cmp	r0, #0
 778 0030 14BF     		ite	ne
ARM GAS  C:\Users\AHMED~1.ELE\AppData\Local\Temp\cckRh1xc.s 			page 29


 779 0032 1846     		movne	r0, r3
 780 0034 5020     		moveq	r0, #80
 781 0036 10BD     		pop	{r4, pc}
 782              	.LVL92:
 783              	.L84:
 366:src/emvtrans.c **** }
 784              		.loc 1 366 0
 785 0038 5020     		movs	r0, #80
 786              	.LVL93:
 367:src/emvtrans.c **** //*****************************************************************************
 787              		.loc 1 367 0
 788 003a 10BD     		pop	{r4, pc}
 789              	.L87:
 790              		.align	2
 791              	.L86:
 792 003c 00000000 		.word	gGDS
 793              		.cfi_endproc
 794              	.LFE9:
 795              		.size	GetApplNameTag, .-GetApplNameTag
 796              		.section	.text.ValidEMVData,"ax",%progbits
 797              		.align	1
 798              		.global	ValidEMVData
 799              		.thumb
 800              		.thumb_func
 801              		.type	ValidEMVData, %function
 802              	ValidEMVData:
 803              	.LFB11:
 413:src/emvtrans.c ****   TLIST * psLp;
 804              		.loc 1 413 0
 805              		.cfi_startproc
 806              		@ args = 0, pretend = 0, frame = 0
 807              		@ frame_needed = 0, uses_anonymous_args = 0
 808 0000 2DE9F041 		push	{r4, r5, r6, r7, r8, lr}
 809              		.cfi_def_cfa_offset 24
 810              		.cfi_offset 4, -24
 811              		.cfi_offset 5, -20
 812              		.cfi_offset 6, -16
 813              		.cfi_offset 7, -12
 814              		.cfi_offset 8, -8
 815              		.cfi_offset 14, -4
 816              	.LBB16:
 817              	.LBB17:
 381:src/emvtrans.c ****     if ((psLp = TagSeek(gGDS->s_TagList, 0x5A)) != NULL) {
 818              		.loc 1 381 0
 819 0004 6C4E     		ldr	r6, .L120
 820 0006 3068     		ldr	r0, [r6]
 821 0008 00F55E50 		add	r0, r0, #14208
 822 000c 2030     		adds	r0, r0, #32
 823 000e 30F8182C 		ldrh	r2, [r0, #-24]
 824 0012 50F8141C 		ldr	r1, [r0, #-20]
 825 0016 023A     		subs	r2, r2, #2
 826 0018 0231     		adds	r1, r1, #2
 827 001a 92B2     		uxth	r2, r2
 828 001c FFF7FEFF 		bl	DeAss
 829              	.LVL94:
 830 0020 20B3     		cbz	r0, .L89
 382:src/emvtrans.c ****       if ((bLen = psLp->sLen) <= 10) {
ARM GAS  C:\Users\AHMED~1.ELE\AppData\Local\Temp\cckRh1xc.s 			page 30


 831              		.loc 1 382 0
 832 0022 3068     		ldr	r0, [r6]
 833 0024 5A21     		movs	r1, #90
 834 0026 00F55E50 		add	r0, r0, #14208
 835 002a 2030     		adds	r0, r0, #32
 836 002c FFF7FEFF 		bl	TagSeek
 837              	.LVL95:
 838 0030 0446     		mov	r4, r0
 839 0032 D8B1     		cbz	r0, .L89
 383:src/emvtrans.c ****         memset(INPUT.sb_pan, 0xFF, 10);
 840              		.loc 1 383 0
 841 0034 8578     		ldrb	r5, [r0, #2]	@ zero_extendqisi2
 842              	.LVL96:
 843 0036 0A2D     		cmp	r5, #10
 844 0038 18D8     		bhi	.L89
 384:src/emvtrans.c ****         memcpy(INPUT.sb_pan, psLp->pbLoc, bLen);
 845              		.loc 1 384 0
 846 003a FF21     		movs	r1, #255
 847 003c 0A22     		movs	r2, #10
 848 003e 5F48     		ldr	r0, .L120+4
 849              	.LVL97:
 850 0040 FFF7FEFF 		bl	memset
 851              	.LVL98:
 385:src/emvtrans.c ****         //INPUT.sb_pan_len = bLen;
 852              		.loc 1 385 0
 853 0044 6168     		ldr	r1, [r4, #4]
 387:src/emvtrans.c ****           if (InCardTable()) {
 854              		.loc 1 387 0
 855 0046 5E4C     		ldr	r4, .L120+8
 856              	.LVL99:
 385:src/emvtrans.c ****         //INPUT.sb_pan_len = bLen;
 857              		.loc 1 385 0
 858 0048 5C48     		ldr	r0, .L120+4
 859 004a 2A46     		mov	r2, r5
 860 004c FFF7FEFF 		bl	memcpy
 861              	.LVL100:
 387:src/emvtrans.c ****           if (InCardTable()) {
 862              		.loc 1 387 0
 863 0050 A37C     		ldrb	r3, [r4, #18]	@ zero_extendqisi2
 864 0052 03F00F03 		and	r3, r3, #15
 865 0056 0F2B     		cmp	r3, #15
 866 0058 04D0     		beq	.L90
 867              	.L93:
 396:src/emvtrans.c ****         return FALSE;
 868              		.loc 1 396 0
 869 005a 45F24353 		movw	r3, #21827
 870 005e A4F86E35 		strh	r3, [r4, #1390]	@ movhi
 871 0062 A5E0     		b	.L91
 872              	.L90:
 388:src/emvtrans.c ****             //if ((psLp = TagSeek(gGDS->s_TagList, 0x5F34)) != NULL)
 873              		.loc 1 388 0
 874 0064 FFF7FEFF 		bl	InCardTable
 875              	.LVL101:
 876 0068 18B9     		cbnz	r0, .L92
 877 006a F6E7     		b	.L93
 878              	.LVL102:
 879              	.L89:
ARM GAS  C:\Users\AHMED~1.ELE\AppData\Local\Temp\cckRh1xc.s 			page 31


 401:src/emvtrans.c ****   return FALSE;
 880              		.loc 1 401 0
 881 006c FFF7FEFF 		bl	EMVFatal
 882              	.LVL103:
 883 0070 9EE0     		b	.L91
 884              	.LVL104:
 885              	.L92:
 886              	.LBE17:
 887              	.LBE16:
 888              	.LBB18:
 889              	.LBB19:
 421:src/emvtrans.c ****   if ((psLp = TagSeek(gGDS->s_TagList, 0x5F20)) != NULL) {      //card holder name
 890              		.loc 1 421 0
 891 0072 3568     		ldr	r5, [r6]
 892              	.LVL105:
 893 0074 45F62471 		movw	r1, #24356
 894 0078 05F55E55 		add	r5, r5, #14208
 895 007c 2035     		adds	r5, r5, #32
 896 007e 2846     		mov	r0, r5
 897 0080 FFF7FEFF 		bl	TagData
 898              	.LVL106:
 899 0084 0222     		movs	r2, #2
 900 0086 0146     		mov	r1, r0
 901 0088 04F11300 		add	r0, r4, #19
 902 008c FFF7FEFF 		bl	memcpy
 903              	.LVL107:
 422:src/emvtrans.c ****     if ((bLen = psLp->sLen) > sizeof(INPUT.sb_holder_name))
 904              		.loc 1 422 0
 905 0090 2846     		mov	r0, r5
 906 0092 45F62071 		movw	r1, #24352
 907 0096 FFF7FEFF 		bl	TagSeek
 908              	.LVL108:
 909 009a 0346     		mov	r3, r0
 910 009c 40B1     		cbz	r0, .L100
 423:src/emvtrans.c ****       bLen = sizeof(INPUT.sb_holder_name);
 911              		.loc 1 423 0
 912 009e 9A78     		ldrb	r2, [r3, #2]	@ zero_extendqisi2
 913              	.LVL109:
 426:src/emvtrans.c ****   }
 914              		.loc 1 426 0
 915 00a0 04F13500 		add	r0, r4, #53
 916              	.LVL110:
 917 00a4 1A2A     		cmp	r2, #26
 918 00a6 5968     		ldr	r1, [r3, #4]
 919 00a8 28BF     		it	cs
 920 00aa 1A22     		movcs	r2, #26
 921              	.LVL111:
 922 00ac FFF7FEFF 		bl	memcpy
 923              	.LVL112:
 924              	.L100:
 429:src/emvtrans.c ****   if ((psLp = TagSeek(gGDS->s_TagList, 0x57)) != NULL) { /* make it compatable with swipe */
 925              		.loc 1 429 0
 926 00b0 0027     		movs	r7, #0
 430:src/emvtrans.c ****     split(INPUT.s_trk2buf.sb_content, psLp->pbLoc, bLen = psLp->sLen);
 927              		.loc 1 430 0
 928 00b2 2846     		mov	r0, r5
 929 00b4 5721     		movs	r1, #87
ARM GAS  C:\Users\AHMED~1.ELE\AppData\Local\Temp\cckRh1xc.s 			page 32


 429:src/emvtrans.c ****   if ((psLp = TagSeek(gGDS->s_TagList, 0x57)) != NULL) { /* make it compatable with swipe */
 930              		.loc 1 429 0
 931 00b6 84F8A072 		strb	r7, [r4, #672]
 430:src/emvtrans.c ****     split(INPUT.s_trk2buf.sb_content, psLp->pbLoc, bLen = psLp->sLen);
 932              		.loc 1 430 0
 933 00ba FFF7FEFF 		bl	TagSeek
 934              	.LVL113:
 429:src/emvtrans.c ****   if ((psLp = TagSeek(gGDS->s_TagList, 0x57)) != NULL) { /* make it compatable with swipe */
 935              		.loc 1 429 0
 936 00be DFF80081 		ldr	r8, .L120+8
 430:src/emvtrans.c ****     split(INPUT.s_trk2buf.sb_content, psLp->pbLoc, bLen = psLp->sLen);
 937              		.loc 1 430 0
 938 00c2 0346     		mov	r3, r0
 939 00c4 E8B1     		cbz	r0, .L94
 431:src/emvtrans.c ****     INPUT.s_trk2buf.b_len = (BYTE) fndb(INPUT.s_trk2buf.sb_content, 'F', (BYTE)(bLen * 2));
 940              		.loc 1 431 0
 941 00c6 8578     		ldrb	r5, [r0, #2]	@ zero_extendqisi2
 942              	.LVL114:
 943 00c8 5968     		ldr	r1, [r3, #4]
 944 00ca 2A46     		mov	r2, r5
 945 00cc 3D48     		ldr	r0, .L120+12
 946              	.LVL115:
 947 00ce FFF7FEFF 		bl	split
 948              	.LVL116:
 432:src/emvtrans.c ****     if (INPUT.s_trk2buf.b_len < (bLen*2) -1) {
 949              		.loc 1 432 0
 950 00d2 6A00     		lsls	r2, r5, #1
 951 00d4 02F0FE02 		and	r2, r2, #254
 952 00d8 3A48     		ldr	r0, .L120+12
 953 00da 4621     		movs	r1, #70
 954 00dc FFF7FEFF 		bl	fndb
 955              	.LVL117:
 433:src/emvtrans.c ****       RSP_DATA.w_rspcode='U'*256+'C';
 956              		.loc 1 433 0
 957 00e0 0223     		movs	r3, #2
 958 00e2 4FF0FF32 		mov	r2, #-1
 959 00e6 13FB0525 		smlabb	r5, r3, r5, r2
 960              	.LVL118:
 432:src/emvtrans.c ****     if (INPUT.s_trk2buf.b_len < (bLen*2) -1) {
 961              		.loc 1 432 0
 962 00ea 88F8A002 		strb	r0, [r8, #672]
 963 00ee C0B2     		uxtb	r0, r0
 433:src/emvtrans.c ****       RSP_DATA.w_rspcode='U'*256+'C';
 964              		.loc 1 433 0
 965 00f0 A842     		cmp	r0, r5
 966 00f2 06DA     		bge	.L94
 434:src/emvtrans.c ****       RSP_DATA.b_response = TRANS_FAIL;
 967              		.loc 1 434 0
 968 00f4 45F24352 		movw	r2, #21827
 435:src/emvtrans.c ****       return FALSE;
 969              		.loc 1 435 0
 970 00f8 88F80037 		strb	r3, [r8, #1792]
 434:src/emvtrans.c ****       RSP_DATA.b_response = TRANS_FAIL;
 971              		.loc 1 434 0
 972 00fc A8F86E25 		strh	r2, [r8, #1390]	@ movhi
 973 0100 56E0     		b	.L91
 974              	.L94:
ARM GAS  C:\Users\AHMED~1.ELE\AppData\Local\Temp\cckRh1xc.s 			page 33


 440:src/emvtrans.c ****   psLp = TagSeek(gGDS->s_TagList, GetApplNameTag());
 975              		.loc 1 440 0
 976 0102 2021     		movs	r1, #32
 977 0104 1022     		movs	r2, #16
 978 0106 3048     		ldr	r0, .L120+16
 979 0108 FFF7FEFF 		bl	memset
 980              	.LVL119:
 441:src/emvtrans.c ****   if (psLp != NULL) {
 981              		.loc 1 441 0
 982 010c 3568     		ldr	r5, [r6]
 983 010e FFF7FEFF 		bl	GetApplNameTag
 984              	.LVL120:
 985 0112 05F55E55 		add	r5, r5, #14208
 986 0116 2035     		adds	r5, r5, #32
 987 0118 0146     		mov	r1, r0
 988 011a 2846     		mov	r0, r5
 989 011c FFF7FEFF 		bl	TagSeek
 990              	.LVL121:
 442:src/emvtrans.c ****     if ((bLen = psLp->sLen) > 16)
 991              		.loc 1 442 0
 992 0120 0346     		mov	r3, r0
 993 0122 38B1     		cbz	r0, .L96
 443:src/emvtrans.c ****       bLen = 16;
 994              		.loc 1 443 0
 995 0124 8278     		ldrb	r2, [r0, #2]	@ zero_extendqisi2
 996              	.LVL122:
 445:src/emvtrans.c ****   }
 997              		.loc 1 445 0
 998 0126 5968     		ldr	r1, [r3, #4]
 999 0128 102A     		cmp	r2, #16
 1000 012a 2748     		ldr	r0, .L120+16
 1001              	.LVL123:
 1002 012c 28BF     		it	cs
 1003 012e 1022     		movcs	r2, #16
 1004              	.LVL124:
 1005 0130 FFF7FEFF 		bl	memcpy
 1006              	.LVL125:
 1007              	.L96:
 449:src/emvtrans.c ****     if ((memcmp(psLp->pbLoc, "\xA0\x00\x00\00\x04\x22\x03", 7) == 0) ||
 1008              		.loc 1 449 0
 1009 0134 2846     		mov	r0, r5
 1010 0136 49F60671 		movw	r1, #40710
 1011 013a FFF7FEFF 		bl	TagSeek
 1012              	.LVL126:
 1013 013e 78B1     		cbz	r0, .L97
 450:src/emvtrans.c ****         (memcmp(psLp->pbLoc, "\xA0\x00\x00\00\x04\x30\x60", 7) == 0)) {
 1014              		.loc 1 450 0
 1015 0140 4568     		ldr	r5, [r0, #4]
 1016 0142 2249     		ldr	r1, .L120+20
 1017 0144 2846     		mov	r0, r5
 1018              	.LVL127:
 1019 0146 0722     		movs	r2, #7
 1020 0148 FFF7FEFF 		bl	memcmp
 1021              	.LVL128:
 1022 014c 28B1     		cbz	r0, .L98
 451:src/emvtrans.c ****         gIsMaestro = TRUE;
 1023              		.loc 1 451 0
ARM GAS  C:\Users\AHMED~1.ELE\AppData\Local\Temp\cckRh1xc.s 			page 34


 1024 014e 2846     		mov	r0, r5
 1025 0150 1F49     		ldr	r1, .L120+24
 1026 0152 0722     		movs	r2, #7
 1027 0154 FFF7FEFF 		bl	memcmp
 1028              	.LVL129:
 450:src/emvtrans.c ****         (memcmp(psLp->pbLoc, "\xA0\x00\x00\00\x04\x30\x60", 7) == 0)) {
 1029              		.loc 1 450 0
 1030 0158 10B9     		cbnz	r0, .L97
 1031              	.L98:
 452:src/emvtrans.c ****     }
 1032              		.loc 1 452 0
 1033 015a 0122     		movs	r2, #1
 1034 015c 1D4B     		ldr	r3, .L120+28
 1035 015e 1A70     		strb	r2, [r3]
 1036              	.L97:
 457:src/emvtrans.c ****   memcpy(&RSP_DATA.s_dtg.b_year, TagData(gGDS->s_TagList, 0x9A), 3);
 1037              		.loc 1 457 0
 1038 0160 FFF7FEFF 		bl	ClearResponse
 1039              	.LVL130:
 458:src/emvtrans.c ****   memcpy(&RSP_DATA.s_dtg.b_hour, TagData(gGDS->s_TagList, 0x9F21), 3);
 1040              		.loc 1 458 0
 1041 0164 3568     		ldr	r5, [r6]
 1042 0166 9A21     		movs	r1, #154
 1043 0168 05F55E55 		add	r5, r5, #14208
 1044 016c 2035     		adds	r5, r5, #32
 1045 016e 2846     		mov	r0, r5
 1046 0170 FFF7FEFF 		bl	TagData
 1047              	.LVL131:
 1048 0174 0322     		movs	r2, #3
 1049 0176 0146     		mov	r1, r0
 1050 0178 1748     		ldr	r0, .L120+32
 1051 017a FFF7FEFF 		bl	memcpy
 1052              	.LVL132:
 459:src/emvtrans.c ****   memset(RSP_DATA.sb_auth_code, ' ', sizeof(RSP_DATA.sb_auth_code));
 1053              		.loc 1 459 0
 1054 017e 2846     		mov	r0, r5
 1055 0180 49F62171 		movw	r1, #40737
 1056 0184 FFF7FEFF 		bl	TagData
 1057              	.LVL133:
 1058 0188 0322     		movs	r2, #3
 1059 018a 0146     		mov	r1, r0
 1060 018c 1348     		ldr	r0, .L120+36
 1061 018e FFF7FEFF 		bl	memcpy
 1062              	.LVL134:
 460:src/emvtrans.c ****   RSP_DATA.w_rspcode = '5'*256+'1';
 1063              		.loc 1 460 0
 1064 0192 2021     		movs	r1, #32
 1065 0194 0622     		movs	r2, #6
 1066 0196 1248     		ldr	r0, .L120+40
 1067 0198 FFF7FEFF 		bl	memset
 1068              	.LVL135:
 461:src/emvtrans.c ****   RSP_DATA.b_response = TRANS_FAIL;
 1069              		.loc 1 461 0
 1070 019c 43F23153 		movw	r3, #13617
 463:src/emvtrans.c **** }
 1071              		.loc 1 463 0
 1072 01a0 0120     		movs	r0, #1
ARM GAS  C:\Users\AHMED~1.ELE\AppData\Local\Temp\cckRh1xc.s 			page 35


 461:src/emvtrans.c ****   RSP_DATA.b_response = TRANS_FAIL;
 1073              		.loc 1 461 0
 1074 01a2 A4F86E35 		strh	r3, [r4, #1390]	@ movhi
 462:src/emvtrans.c ****   return TRUE;
 1075              		.loc 1 462 0
 1076 01a6 0223     		movs	r3, #2
 1077 01a8 84F80037 		strb	r3, [r4, #1792]
 1078 01ac BDE8F081 		pop	{r4, r5, r6, r7, r8, pc}
 1079              	.L91:
 1080              	.LBE19:
 1081              	.LBE18:
 418:src/emvtrans.c ****   }
 1082              		.loc 1 418 0
 1083 01b0 0020     		movs	r0, #0
 464:src/emvtrans.c **** //*****************************************************************************
 1084              		.loc 1 464 0
 1085 01b2 BDE8F081 		pop	{r4, r5, r6, r7, r8, pc}
 1086              	.L121:
 1087 01b6 00BF     		.align	2
 1088              	.L120:
 1089 01b8 00000000 		.word	gGDS
 1090 01bc 09000000 		.word	gGTS+9
 1091 01c0 00000000 		.word	gGTS
 1092 01c4 A1020000 		.word	gGTS+673
 1093 01c8 84000000 		.word	gGTS+132
 1094 01cc 00000000 		.word	.LANCHOR0
 1095 01d0 08000000 		.word	.LANCHOR0+8
 1096 01d4 00000000 		.word	gIsMaestro
 1097 01d8 85050000 		.word	gGTS+1413
 1098 01dc 88050000 		.word	gGTS+1416
 1099 01e0 67050000 		.word	gGTS+1383
 1100              		.cfi_endproc
 1101              	.LFE11:
 1102              		.size	ValidEMVData, .-ValidEMVData
 1103              		.section	.text.PackEMVData,"ax",%progbits
 1104              		.align	1
 1105              		.global	PackEMVData
 1106              		.thumb
 1107              		.thumb_func
 1108              		.type	PackEMVData, %function
 1109              	PackEMVData:
 1110              	.LFB13:
 495:src/emvtrans.c ****   BYTE *ptr;
 1111              		.loc 1 495 0
 1112              		.cfi_startproc
 1113              		@ args = 0, pretend = 0, frame = 0
 1114              		@ frame_needed = 0, uses_anonymous_args = 0
 1115              	.LVL136:
 1116 0000 38B5     		push	{r3, r4, r5, lr}
 1117              		.cfi_def_cfa_offset 16
 1118              		.cfi_offset 3, -16
 1119              		.cfi_offset 4, -12
 1120              		.cfi_offset 5, -8
 1121              		.cfi_offset 14, -4
 498:src/emvtrans.c ****   ptr = PackTagsData(aDat->sb_misc_content, (WORD *)wVMOnlineTags);
 1122              		.loc 1 498 0
 1123 0002 0023     		movs	r3, #0
ARM GAS  C:\Users\AHMED~1.ELE\AppData\Local\Temp\cckRh1xc.s 			page 36


 499:src/emvtrans.c ****   aDat->w_misc_len = (BYTE)((DWORD)ptr - (DWORD)aDat->sb_misc_content);
 1124              		.loc 1 499 0
 1125 0004 00F12A04 		add	r4, r0, #42
 495:src/emvtrans.c ****   BYTE *ptr;
 1126              		.loc 1 495 0
 1127 0008 0546     		mov	r5, r0
 498:src/emvtrans.c ****   ptr = PackTagsData(aDat->sb_misc_content, (WORD *)wVMOnlineTags);
 1128              		.loc 1 498 0
 1129 000a 0385     		strh	r3, [r0, #40]	@ movhi
 499:src/emvtrans.c ****   aDat->w_misc_len = (BYTE)((DWORD)ptr - (DWORD)aDat->sb_misc_content);
 1130              		.loc 1 499 0
 1131 000c 0349     		ldr	r1, .L123
 1132 000e 2046     		mov	r0, r4
 1133              	.LVL137:
 1134 0010 FFF7FEFF 		bl	PackTagsData
 1135              	.LVL138:
 500:src/emvtrans.c **** }
 1136              		.loc 1 500 0
 1137 0014 001B     		subs	r0, r0, r4
 1138              	.LVL139:
 1139 0016 C0B2     		uxtb	r0, r0
 1140 0018 2885     		strh	r0, [r5, #40]	@ movhi
 1141 001a 38BD     		pop	{r3, r4, r5, pc}
 1142              	.LVL140:
 1143              	.L124:
 1144              		.align	2
 1145              	.L123:
 1146 001c 10000000 		.word	.LANCHOR0+16
 1147              		.cfi_endproc
 1148              	.LFE13:
 1149              		.size	PackEMVData, .-PackEMVData
 1150              		.section	.text.debugEMV2,"ax",%progbits
 1151              		.align	1
 1152              		.global	debugEMV2
 1153              		.thumb
 1154              		.thumb_func
 1155              		.type	debugEMV2, %function
 1156              	debugEMV2:
 1157              	.LFB20:
 712:src/emvtrans.c **** //*****************************************************************************
 713:src/emvtrans.c **** //  Function        : EMVError
 714:src/emvtrans.c **** //  Description     : Handle EMV error response
 715:src/emvtrans.c **** //  Input           : EMV process next state.
 716:src/emvtrans.c **** //  Return          : EMV process next state.
 717:src/emvtrans.c **** //  Note            : N/A
 718:src/emvtrans.c **** //  Globals Changed : N/A;
 719:src/emvtrans.c **** //*****************************************************************************
 720:src/emvtrans.c **** static BYTE EMVError(BYTE aNextState)
 721:src/emvtrans.c **** {
 722:src/emvtrans.c ****   DispHeader(NULL);
 723:src/emvtrans.c ****   switch (gGDS->s_EMVOut.bMsg[0] & 0x7F) {  //short error message response
 724:src/emvtrans.c ****     case ERR_SMCIO:
 725:src/emvtrans.c ****     case ERR_CARDL1:
 726:src/emvtrans.c ****     case ERR_DATA:
 727:src/emvtrans.c ****       RSP_DATA.w_rspcode = 'R'*256+'E';
 728:src/emvtrans.c ****       break;
 729:src/emvtrans.c ****     case ERR_CANCEL:
ARM GAS  C:\Users\AHMED~1.ELE\AppData\Local\Temp\cckRh1xc.s 			page 37


 730:src/emvtrans.c ****       DispClrBelowMW(MW_LINE3);
 731:src/emvtrans.c ****       RSP_DATA.w_rspcode = 'C'*256+'N';
 732:src/emvtrans.c ****       break;
 733:src/emvtrans.c ****     case ERR_SEQ:
 734:src/emvtrans.c ****       RSP_DATA.w_rspcode = 'S'*256+'C';
 735:src/emvtrans.c ****       break;
 736:src/emvtrans.c ****     case ERR_NOMORE:
 737:src/emvtrans.c ****       RSP_DATA.w_rspcode = 'N'*256+'A'; // for ADVT #08
 738:src/emvtrans.c ****       break;
 739:src/emvtrans.c ****     case ERR_NOAPPL:  // not supported if no matching app
 740:src/emvtrans.c ****       RSP_DATA.w_rspcode = 'M'*256+'A'; // fallback
 741:src/emvtrans.c ****       break;
 742:src/emvtrans.c ****     case ERR_BLOCKED:
 743:src/emvtrans.c ****       RSP_DATA.w_rspcode = 'S'*256+'B';
 744:src/emvtrans.c ****       break;
 745:src/emvtrans.c ****     case ERR_CONFIG:
 746:src/emvtrans.c ****     case ERR_MEMORY:
 747:src/emvtrans.c ****     default:
 748:src/emvtrans.c ****       RSP_DATA.w_rspcode = 'S'*256+'E';
 749:src/emvtrans.c ****       IOCtlMW(gIccHandle, IO_ICC_OFF, NULL);
 750:src/emvtrans.c ****       break;
 751:src/emvtrans.c ****   }
 752:src/emvtrans.c ****   LongBeep();
 753:src/emvtrans.c ****   if (gGDS->s_EMVOut.wLen > 2)
 754:src/emvtrans.c ****     if (bAction & ACT_HOSTAPP)
 755:src/emvtrans.c ****       UpdateHostStatus(REV_PENDING);
 756:src/emvtrans.c ****   if (IOCtlMW(gIccHandle, IO_ICC_CHANGE, NULL))
 757:src/emvtrans.c ****     aNextState = EMV_COMPLETE;  // no fallback
 758:src/emvtrans.c **** 
 759:src/emvtrans.c ****   RSP_DATA.b_response = TRANS_REJ; // for print msg disable
 760:src/emvtrans.c ****   return aNextState;
 761:src/emvtrans.c **** }
 762:src/emvtrans.c **** //*****************************************************************************
 763:src/emvtrans.c **** //  Function        : EMVComplete
 764:src/emvtrans.c **** //  Description     : Handle EMV COMPLETE response
 765:src/emvtrans.c **** //  Input           : N/A
 766:src/emvtrans.c **** //  Return          : N/A
 767:src/emvtrans.c **** //  Note            : N/A
 768:src/emvtrans.c **** //  Globals Changed : N/A
 769:src/emvtrans.c **** //*****************************************************************************
 770:src/emvtrans.c **** static void EMVComplete(void)
 771:src/emvtrans.c **** {
 772:src/emvtrans.c ****   IOCtlMW(gIccHandle, IO_ICC_OFF, NULL);
 773:src/emvtrans.c ****   if (DeAss(gGDS->s_TagList, gGDS->s_EMVOut.bMsg+2, (WORD)(gGDS->s_EMVOut.wLen - 2)) == 0)
 774:src/emvtrans.c ****     EMVFatal();
 775:src/emvtrans.c ****   DispHeader(NULL);
 776:src/emvtrans.c **** 
 777:src/emvtrans.c ****   if (bAcceptReferral==TRUE){ // referral requested
 778:src/emvtrans.c ****     if (!EMVReferral())
 779:src/emvtrans.c ****       return;
 780:src/emvtrans.c ****     bAction |= ACT_APPROVED;  // so it will print & update batch
 781:src/emvtrans.c ****   }
 782:src/emvtrans.c **** 
 783:src/emvtrans.c ****   if (bAction & ACT_APPROVED) {
 784:src/emvtrans.c ****     EMVAccepted((BOOLEAN)(bAction & ACT_ONLINE)); // 07-06-05++ BW (1) for offline approved txn
 785:src/emvtrans.c ****     //RSP_DATA.w_rspcode = 'T'*256+'A';
 786:src/emvtrans.c ****     if (bAction & ACT_HOSTAPP)
ARM GAS  C:\Users\AHMED~1.ELE\AppData\Local\Temp\cckRh1xc.s 			page 38


 787:src/emvtrans.c ****       UpdateHostStatus(NO_PENDING); // clear reversal gen after host appr txn
 788:src/emvtrans.c ****     AcceptBeep();
 789:src/emvtrans.c ****   }
 790:src/emvtrans.c ****   else {
 791:src/emvtrans.c ****     if ((bAction&ACT_HOSTAPP) || (RSP_DATA.w_rspcode=='0'*256+'0'))
 792:src/emvtrans.c ****       RSP_DATA.w_rspcode = '5'*256+'1'; //rejected by ICC -> set rsp. ocde to declined
 793:src/emvtrans.c ****     LongBeep();
 794:src/emvtrans.c ****   }
 795:src/emvtrans.c **** }
 796:src/emvtrans.c **** /******************************************************************************
 797:src/emvtrans.c ****  *  Function        : debugEMV
 798:src/emvtrans.c ****  *  Description     : EMV Processing state machine.
 799:src/emvtrans.c ****  *  Input           : N/A
 800:src/emvtrans.c ****  *  Return          : next action
 801:src/emvtrans.c ****  *  Note            : N/A
 802:src/emvtrans.c ****  *  Globals Changed : gds.emvdll, input;
 803:src/emvtrans.c ****  ******************************************************************************
 804:src/emvtrans.c ****  */
 805:src/emvtrans.c **** void debugEMV2(BYTE aState, BYTE aIn, sIO_t *pEMV)
 806:src/emvtrans.c **** {
 1158              		.loc 1 806 0
 1159              		.cfi_startproc
 1160              		@ args = 0, pretend = 0, frame = 32
 1161              		@ frame_needed = 0, uses_anonymous_args = 0
 1162              	.LVL141:
 1163 0000 70B5     		push	{r4, r5, r6, lr}
 1164              		.cfi_def_cfa_offset 16
 1165              		.cfi_offset 4, -16
 1166              		.cfi_offset 5, -12
 1167              		.cfi_offset 6, -8
 1168              		.cfi_offset 14, -4
 1169 0002 0446     		mov	r4, r0
 1170 0004 88B0     		sub	sp, sp, #32
 1171              		.cfi_def_cfa_offset 48
 807:src/emvtrans.c ****   BYTE buf[30];
 808:src/emvtrans.c ****   WORD i;
 809:src/emvtrans.c ****   
 810:src/emvtrans.c ****   LptOpen(NULL);
 1172              		.loc 1 810 0
 1173 0006 0020     		movs	r0, #0
 1174              	.LVL142:
 806:src/emvtrans.c ****   BYTE buf[30];
 1175              		.loc 1 806 0
 1176 0008 0E46     		mov	r6, r1
 1177 000a 1546     		mov	r5, r2
 1178              		.loc 1 810 0
 1179 000c FFF7FEFF 		bl	LptOpen
 1180              	.LVL143:
 811:src/emvtrans.c ****   LptPutS("\x1B""F1\n");
 1181              		.loc 1 811 0
 1182 0010 1348     		ldr	r0, .L131
 1183 0012 FFF7FEFF 		bl	LptPutS
 1184              	.LVL144:
 812:src/emvtrans.c ****   sprintf(buf, "dllMsg(%d)-%s\n", aState, aIn? "In": "Out");
 1185              		.loc 1 812 0
 1186 0016 2246     		mov	r2, r4
 1187 0018 124B     		ldr	r3, .L131+4
ARM GAS  C:\Users\AHMED~1.ELE\AppData\Local\Temp\cckRh1xc.s 			page 39


 1188 001a 134C     		ldr	r4, .L131+8
 1189 001c 1349     		ldr	r1, .L131+12
 1190 001e 002E     		cmp	r6, #0
 1191 0020 08BF     		it	eq
 1192 0022 2346     		moveq	r3, r4
 1193 0024 6846     		mov	r0, sp
 1194 0026 FFF7FEFF 		bl	sprintf
 1195              	.LVL145:
 813:src/emvtrans.c ****   LptPutS(buf);
 1196              		.loc 1 813 0
 1197 002a 6846     		mov	r0, sp
 1198 002c FFF7FEFF 		bl	LptPutS
 1199              	.LVL146:
 814:src/emvtrans.c ****   for (i=1; i<=pEMV->wLen; i++) {
 1200              		.loc 1 814 0
 1201 0030 0124     		movs	r4, #1
 1202              	.LVL147:
 1203              	.L127:
 1204              		.loc 1 814 0 is_stmt 0 discriminator 1
 1205 0032 2B88     		ldrh	r3, [r5]
 1206 0034 A342     		cmp	r3, r4
 1207 0036 0ED3     		bcc	.L130
 815:src/emvtrans.c ****     sprintf(buf, "%02X ", (BYTE)pEMV->bMsg[i-1]);
 1208              		.loc 1 815 0 is_stmt 1 discriminator 3
 1209 0038 6B68     		ldr	r3, [r5, #4]
 1210 003a 0D49     		ldr	r1, .L131+16
 1211 003c 2344     		add	r3, r3, r4
 1212 003e 6846     		mov	r0, sp
 1213 0040 13F8012C 		ldrb	r2, [r3, #-1]	@ zero_extendqisi2
 814:src/emvtrans.c ****   for (i=1; i<=pEMV->wLen; i++) {
 1214              		.loc 1 814 0 discriminator 3
 1215 0044 0134     		adds	r4, r4, #1
 1216              	.LVL148:
 1217              		.loc 1 815 0 discriminator 3
 1218 0046 FFF7FEFF 		bl	sprintf
 1219              	.LVL149:
 816:src/emvtrans.c ****     LptPutN(buf, 3);
 1220              		.loc 1 816 0 discriminator 3
 1221 004a 6846     		mov	r0, sp
 1222 004c 0321     		movs	r1, #3
 1223 004e FFF7FEFF 		bl	LptPutN
 1224              	.LVL150:
 814:src/emvtrans.c ****   for (i=1; i<=pEMV->wLen; i++) {
 1225              		.loc 1 814 0 discriminator 3
 1226 0052 A4B2     		uxth	r4, r4
 1227              	.LVL151:
 1228 0054 EDE7     		b	.L127
 1229              	.L130:
 817:src/emvtrans.c ****   }
 818:src/emvtrans.c ****   LptPutS("\n");
 1230              		.loc 1 818 0
 1231 0056 0748     		ldr	r0, .L131+20
 1232 0058 FFF7FEFF 		bl	LptPutS
 1233              	.LVL152:
 819:src/emvtrans.c **** }
 1234              		.loc 1 819 0
 1235 005c 08B0     		add	sp, sp, #32
ARM GAS  C:\Users\AHMED~1.ELE\AppData\Local\Temp\cckRh1xc.s 			page 40


 1236              		.cfi_def_cfa_offset 16
 1237              		@ sp needed
 1238 005e 70BD     		pop	{r4, r5, r6, pc}
 1239              	.LVL153:
 1240              	.L132:
 1241              		.align	2
 1242              	.L131:
 1243 0060 0B000000 		.word	.LC5
 1244 0064 04000000 		.word	.LC3
 1245 0068 07000000 		.word	.LC4
 1246 006c 10000000 		.word	.LC6
 1247 0070 1F000000 		.word	.LC7
 1248 0074 25000000 		.word	.LC8
 1249              		.cfi_endproc
 1250              	.LFE20:
 1251              		.size	debugEMV2, .-debugEMV2
 1252              		.section	.text.GetTxnCode,"ax",%progbits
 1253              		.align	1
 1254              		.global	GetTxnCode
 1255              		.thumb
 1256              		.thumb_func
 1257              		.type	GetTxnCode, %function
 1258              	GetTxnCode:
 1259              	.LFB21:
 820:src/emvtrans.c **** /******************************************************************************
 821:src/emvtrans.c ****  *  Function        : GetTxnCode
 822:src/emvtrans.c ****  *  Description     : Get the code of the Transaction Type.
 823:src/emvtrans.c ****  *  Input           : N/A
 824:src/emvtrans.c ****  *  Return          : Txn Code
 825:src/emvtrans.c ****  *  Note            : N/A
 826:src/emvtrans.c ****  *  Globals Changed : gds.emvdll, input;
 827:src/emvtrans.c ****  ******************************************************************************
 828:src/emvtrans.c ****  */
 829:src/emvtrans.c **** BYTE GetTxnCode(void)
 830:src/emvtrans.c **** {
 1260              		.loc 1 830 0
 1261              		.cfi_startproc
 1262              		@ args = 0, pretend = 0, frame = 0
 1263              		@ frame_needed = 0, uses_anonymous_args = 0
 1264              		@ link register save eliminated.
 831:src/emvtrans.c ****   BYTE code;
 832:src/emvtrans.c ****   
 833:src/emvtrans.c ****   if (INPUT.b_trans == REFUND_ICC)
 1265              		.loc 1 833 0
 1266 0000 054B     		ldr	r3, .L137
 1267 0002 1878     		ldrb	r0, [r3]	@ zero_extendqisi2
 1268 0004 1128     		cmp	r0, #17
 1269 0006 04D0     		beq	.L135
 834:src/emvtrans.c ****     code = 0x20;
 835:src/emvtrans.c ****   else if (INPUT.b_trans == VOID)
 836:src/emvtrans.c ****     code = 0x02;
 837:src/emvtrans.c ****   else
 838:src/emvtrans.c ****     code = 0x00;      // SALE / AUTH
 1270              		.loc 1 838 0
 1271 0008 0A28     		cmp	r0, #10
 1272 000a 0CBF     		ite	eq
 1273 000c 0220     		moveq	r0, #2
ARM GAS  C:\Users\AHMED~1.ELE\AppData\Local\Temp\cckRh1xc.s 			page 41


 1274 000e 0020     		movne	r0, #0
 1275 0010 7047     		bx	lr
 1276              	.L135:
 834:src/emvtrans.c ****     code = 0x20;
 1277              		.loc 1 834 0
 1278 0012 2020     		movs	r0, #32
 1279              	.LVL154:
 839:src/emvtrans.c ****     
 840:src/emvtrans.c ****   return code;
 841:src/emvtrans.c **** }
 1280              		.loc 1 841 0
 1281 0014 7047     		bx	lr
 1282              	.L138:
 1283 0016 00BF     		.align	2
 1284              	.L137:
 1285 0018 00000000 		.word	gGTS
 1286              		.cfi_endproc
 1287              	.LFE21:
 1288              		.size	GetTxnCode, .-GetTxnCode
 1289              		.section	.text.EMVProcess,"ax",%progbits
 1290              		.align	1
 1291              		.global	EMVProcess
 1292              		.thumb
 1293              		.thumb_func
 1294              		.type	EMVProcess, %function
 1295              	EMVProcess:
 1296              	.LFB22:
 842:src/emvtrans.c **** //*****************************************************************************
 843:src/emvtrans.c **** //  Function        : EMVProcess
 844:src/emvtrans.c **** //  Description     : EMV Processing state machine.
 845:src/emvtrans.c **** //  Input           : N/A
 846:src/emvtrans.c **** //  Return          : next action
 847:src/emvtrans.c **** //  Note            : N/A
 848:src/emvtrans.c **** //  Globals Changed :
 849:src/emvtrans.c **** //*****************************************************************************
 850:src/emvtrans.c **** BYTE EMVProcess(void)
 851:src/emvtrans.c **** {
 1297              		.loc 1 851 0
 1298              		.cfi_startproc
 1299              		@ args = 0, pretend = 0, frame = 64
 1300              		@ frame_needed = 0, uses_anonymous_args = 0
 1301              	.LVL155:
 1302 0000 2DE9F04F 		push	{r4, r5, r6, r7, r8, r9, r10, fp, lr}
 1303              		.cfi_def_cfa_offset 36
 1304              		.cfi_offset 4, -36
 1305              		.cfi_offset 5, -32
 1306              		.cfi_offset 6, -28
 1307              		.cfi_offset 7, -24
 1308              		.cfi_offset 8, -20
 1309              		.cfi_offset 9, -16
 1310              		.cfi_offset 10, -12
 1311              		.cfi_offset 11, -8
 1312              		.cfi_offset 14, -4
 852:src/emvtrans.c ****   BYTE next_state;
 853:src/emvtrans.c ****   BYTE tmp[10];
 854:src/emvtrans.c ****   BOOLEAN again = FALSE;
 855:src/emvtrans.c ****   DDWORD cashback_amt=0;
ARM GAS  C:\Users\AHMED~1.ELE\AppData\Local\Temp\cckRh1xc.s 			page 42


 1313              		.loc 1 855 0
 1314 0004 0022     		movs	r2, #0
 851:src/emvtrans.c ****   BYTE next_state;
 1315              		.loc 1 851 0
 1316 0006 93B0     		sub	sp, sp, #76
 1317              		.cfi_def_cfa_offset 112
 1318              		.loc 1 855 0
 1319 0008 0023     		movs	r3, #0
 856:src/emvtrans.c ****   
 857:src/emvtrans.c ****   gIsMaestro = FALSE;                   // KC++ for Maestro
 1320              		.loc 1 857 0
 1321 000a 9749     		ldr	r1, .L263
 855:src/emvtrans.c ****   
 1322              		.loc 1 855 0
 1323 000c CDE90623 		strd	r2, [sp, #24]
 858:src/emvtrans.c **** 
 859:src/emvtrans.c ****   // init vars
 860:src/emvtrans.c ****   memset(INPUT.sb_pin, 0, sizeof(INPUT.sb_pin));
 1324              		.loc 1 860 0
 1325 0010 964B     		ldr	r3, .L263+4
 861:src/emvtrans.c ****   bAcceptReferral = FALSE;
 1326              		.loc 1 861 0
 1327 0012 974F     		ldr	r7, .L263+8
 862:src/emvtrans.c ****   next_state = EMV_START;
 863:src/emvtrans.c ****   if (INPUT.b_trans == SALE_ICC)
 1328              		.loc 1 863 0
 1329 0014 A3F5FC74 		sub	r4, r3, #504
 860:src/emvtrans.c ****   bAcceptReferral = FALSE;
 1330              		.loc 1 860 0
 1331 0018 1A60     		str	r2, [r3]
 1332 001a 5A60     		str	r2, [r3, #4]
 857:src/emvtrans.c **** 
 1333              		.loc 1 857 0
 1334 001c 0A70     		strb	r2, [r1]
 861:src/emvtrans.c ****   next_state = EMV_START;
 1335              		.loc 1 861 0
 1336 001e 3A70     		strb	r2, [r7]
 1337              	.LVL156:
 1338              		.loc 1 863 0
 1339 0020 2278     		ldrb	r2, [r4]	@ zero_extendqisi2
 1340 0022 0593     		str	r3, [sp, #20]
 1341 0024 0F2A     		cmp	r2, #15
 1342 0026 0491     		str	r1, [sp, #16]
 1343 0028 924B     		ldr	r3, .L263+12
 1344 002a 05D1     		bne	.L140
 864:src/emvtrans.c ****     //gGDS->s_EMVIn.bMsg[0] = EGOOD_SALE;                                      // KC-- MTIP05 T08 S
 865:src/emvtrans.c ****     gGDS->s_EMVIn.bMsg[0] = EGS_WCASHBACK;      // goods sale with cashback    // KC++ MTIP05 T08 S
 1345              		.loc 1 865 0
 1346 002c 1A68     		ldr	r2, [r3]
 1347 002e 0621     		movs	r1, #6
 1348 0030 02F55E52 		add	r2, r2, #14208
 1349 0034 5268     		ldr	r2, [r2, #4]
 1350 0036 08E0     		b	.L254
 1351              	.L140:
 866:src/emvtrans.c ****   else if (INPUT.b_trans == REFUND_ICC)
 1352              		.loc 1 866 0
 1353 0038 112A     		cmp	r2, #17
ARM GAS  C:\Users\AHMED~1.ELE\AppData\Local\Temp\cckRh1xc.s 			page 43


 867:src/emvtrans.c ****     gGDS->s_EMVIn.bMsg[0] = EREFUND;
 1354              		.loc 1 867 0
 1355 003a 1A68     		ldr	r2, [r3]
 1356 003c 08BF     		it	eq
 1357 003e 0221     		moveq	r1, #2
 1358 0040 02F55E52 		add	r2, r2, #14208
 868:src/emvtrans.c ****   else
 869:src/emvtrans.c ****     gGDS->s_EMVIn.bMsg[0] = EAUTH;
 1359              		.loc 1 869 0
 1360 0044 18BF     		it	ne
 1361 0046 0821     		movne	r1, #8
 867:src/emvtrans.c ****     gGDS->s_EMVIn.bMsg[0] = EREFUND;
 1362              		.loc 1 867 0
 1363 0048 5268     		ldr	r2, [r2, #4]
 1364              	.L254:
 1365              		.loc 1 869 0
 1366 004a 1170     		strb	r1, [r2]
 870:src/emvtrans.c ****   gGDS->s_EMVIn.wLen    = 1;
 1367              		.loc 1 870 0
 1368 004c 1B68     		ldr	r3, [r3]
 1369 004e 0126     		movs	r6, #1
 1370 0050 03F55E53 		add	r3, r3, #14208
 1371 0054 1E80     		strh	r6, [r3]	@ movhi
 854:src/emvtrans.c ****   DDWORD cashback_amt=0;
 1372              		.loc 1 854 0
 1373 0056 0023     		movs	r3, #0
 1374              	.LVL157:
 1375              	.L255:
 871:src/emvtrans.c **** 
 872:src/emvtrans.c ****   do {
 873:src/emvtrans.c ****     //if (next_state != EMV_START) {
 874:src/emvtrans.c ****     //debugEMV2(next_state, 1, &gGDS->s_EMVIn);
 875:src/emvtrans.c ****     if (EMV_DllMsg(next_state, &gGDS->s_EMVIn, &gGDS->s_EMVOut) == FALSE) {
 876:src/emvtrans.c ****       next_state=EMVError(next_state);
 877:src/emvtrans.c ****       return next_state;
 878:src/emvtrans.c ****     }
 879:src/emvtrans.c ****     next_state = gGDS->s_EMVOut.bMsg[0];
 880:src/emvtrans.c ****     //}
 881:src/emvtrans.c **** //    else {
 882:src/emvtrans.c **** //      next_state = gGDS->s_EMVOut.bMsg[0];
 883:src/emvtrans.c **** //    }
 884:src/emvtrans.c ****     //debugEMV2(next_state, 0, &gGDS->s_EMVOut);
 885:src/emvtrans.c ****     switch (gGDS->s_EMVOut.bMsg[0]&0x7F) {
 886:src/emvtrans.c ****       case EMV_COMPLETE: /* completed */
 887:src/emvtrans.c ****         EMVComplete();
 888:src/emvtrans.c ****         return EMV_COMPLETE;
 889:src/emvtrans.c ****       case EMV_SELECT_APP: // select application
 890:src/emvtrans.c ****         if (EMVInput(again) == FALSE)
 891:src/emvtrans.c ****           return EMVCancel(next_state);
 892:src/emvtrans.c ****         again = TRUE;
 1376              		.loc 1 892 0
 1377 0058 0393     		str	r3, [sp, #12]
 1378              	.L143:
 1379              	.LVL158:
 875:src/emvtrans.c ****       next_state=EMVError(next_state);
 1380              		.loc 1 875 0
 1381 005a DFF81892 		ldr	r9, .L263+12
ARM GAS  C:\Users\AHMED~1.ELE\AppData\Local\Temp\cckRh1xc.s 			page 44


 1382 005e 0E20     		movs	r0, #14
 1383 0060 D9F80030 		ldr	r3, [r9]
 1384 0064 0121     		movs	r1, #1
 1385 0066 03F55E53 		add	r3, r3, #14208
 1386 006a 03F10802 		add	r2, r3, #8
 1387 006e C846     		mov	r8, r9
 1388 0070 0092     		str	r2, [sp]
 1389 0072 3246     		mov	r2, r6
 1390 0074 FFF7FEFF 		bl	lib_app_call
 1391              	.LVL159:
 1392 0078 C0B2     		uxtb	r0, r0
 1393 007a 0028     		cmp	r0, #0
 1394 007c 5FD1     		bne	.L144
 1395              	.LVL160:
 1396              	.LBB33:
 1397              	.LBB34:
 722:src/emvtrans.c ****   switch (gGDS->s_EMVOut.bMsg[0] & 0x7F) {  //short error message response
 1398              		.loc 1 722 0
 1399 007e FFF7FEFF 		bl	DispHeader
 1400              	.LVL161:
 723:src/emvtrans.c ****     case ERR_SMCIO:
 1401              		.loc 1 723 0
 1402 0082 D9F80030 		ldr	r3, [r9]
 1403 0086 7C4D     		ldr	r5, .L263+16
 1404 0088 03F55E53 		add	r3, r3, #14208
 1405 008c DB68     		ldr	r3, [r3, #12]
 1406 008e 1B78     		ldrb	r3, [r3]	@ zero_extendqisi2
 1407 0090 03F07F03 		and	r3, r3, #127
 1408 0094 023B     		subs	r3, r3, #2
 1409 0096 0E2B     		cmp	r3, #14
 1410 0098 25D8     		bhi	.L145
 1411 009a DFE803F0 		tbb	[pc, r3]
 1412              	.L147:
 1413 009e 08       		.byte	(.L146-.L147)/2
 1414 009f 08       		.byte	(.L146-.L147)/2
 1415 00a0 0B       		.byte	(.L148-.L147)/2
 1416 00a1 1E       		.byte	(.L149-.L147)/2
 1417 00a2 1B       		.byte	(.L150-.L147)/2
 1418 00a3 21       		.byte	(.L151-.L147)/2
 1419 00a4 08       		.byte	(.L146-.L147)/2
 1420 00a5 24       		.byte	(.L145-.L147)/2
 1421 00a6 24       		.byte	(.L145-.L147)/2
 1422 00a7 24       		.byte	(.L145-.L147)/2
 1423 00a8 24       		.byte	(.L145-.L147)/2
 1424 00a9 24       		.byte	(.L145-.L147)/2
 1425 00aa 24       		.byte	(.L145-.L147)/2
 1426 00ab 24       		.byte	(.L145-.L147)/2
 1427 00ac 18       		.byte	(.L152-.L147)/2
 1428 00ad 00       		.p2align 1
 1429              	.L146:
 727:src/emvtrans.c ****       break;
 1430              		.loc 1 727 0
 1431 00ae 45F24523 		movw	r3, #21061
 1432 00b2 09E0     		b	.L257
 1433              	.L148:
 730:src/emvtrans.c ****       RSP_DATA.w_rspcode = 'C'*256+'N';
 1434              		.loc 1 730 0
ARM GAS  C:\Users\AHMED~1.ELE\AppData\Local\Temp\cckRh1xc.s 			page 45


 1435 00b4 0023     		movs	r3, #0
 1436 00b6 0F20     		movs	r0, #15
 1437 00b8 0093     		str	r3, [sp]
 1438 00ba 2321     		movs	r1, #35
 1439 00bc 4FF44072 		mov	r2, #768
 1440 00c0 FFF7FEFF 		bl	lib_app_call
 1441              	.LVL162:
 731:src/emvtrans.c ****       break;
 1442              		.loc 1 731 0
 1443 00c4 44F24E33 		movw	r3, #17230
 1444              	.L257:
 1445 00c8 A4F86E35 		strh	r3, [r4, #1390]	@ movhi
 1446 00cc 17E0     		b	.L153
 1447              	.L152:
 734:src/emvtrans.c ****       break;
 1448              		.loc 1 734 0
 1449 00ce 45F24333 		movw	r3, #21315
 1450 00d2 F9E7     		b	.L257
 1451              	.L150:
 737:src/emvtrans.c ****       break;
 1452              		.loc 1 737 0
 1453 00d4 44F64163 		movw	r3, #20033
 1454 00d8 F6E7     		b	.L257
 1455              	.L149:
 740:src/emvtrans.c ****       break;
 1456              		.loc 1 740 0
 1457 00da 44F64153 		movw	r3, #19777
 1458 00de F3E7     		b	.L257
 1459              	.L151:
 743:src/emvtrans.c ****       break;
 1460              		.loc 1 743 0
 1461 00e0 45F24233 		movw	r3, #21314
 1462 00e4 F0E7     		b	.L257
 1463              	.L145:
 748:src/emvtrans.c ****       IOCtlMW(gIccHandle, IO_ICC_OFF, NULL);
 1464              		.loc 1 748 0
 1465 00e6 45F24533 		movw	r3, #21317
 749:src/emvtrans.c ****       break;
 1466              		.loc 1 749 0
 1467 00ea 0F20     		movs	r0, #15
 748:src/emvtrans.c ****       IOCtlMW(gIccHandle, IO_ICC_OFF, NULL);
 1468              		.loc 1 748 0
 1469 00ec A4F86E35 		strh	r3, [r4, #1390]	@ movhi
 749:src/emvtrans.c ****       break;
 1470              		.loc 1 749 0
 1471 00f0 0023     		movs	r3, #0
 1472 00f2 0721     		movs	r1, #7
 1473 00f4 0093     		str	r3, [sp]
 1474 00f6 0423     		movs	r3, #4
 1475 00f8 2A68     		ldr	r2, [r5]
 1476 00fa FFF7FEFF 		bl	lib_app_call
 1477              	.LVL163:
 1478              	.L153:
 752:src/emvtrans.c ****   if (gGDS->s_EMVOut.wLen > 2)
 1479              		.loc 1 752 0
 1480 00fe FFF7FEFF 		bl	LongBeep
 1481              	.LVL164:
ARM GAS  C:\Users\AHMED~1.ELE\AppData\Local\Temp\cckRh1xc.s 			page 46


 753:src/emvtrans.c ****     if (bAction & ACT_HOSTAPP)
 1482              		.loc 1 753 0
 1483 0102 D8F80030 		ldr	r3, [r8]
 1484 0106 03F55E53 		add	r3, r3, #14208
 1485 010a 1A89     		ldrh	r2, [r3, #8]
 1486 010c 022A     		cmp	r2, #2
 1487 010e 06D9     		bls	.L154
 754:src/emvtrans.c ****       UpdateHostStatus(REV_PENDING);
 1488              		.loc 1 754 0
 1489 0110 DB68     		ldr	r3, [r3, #12]
 1490 0112 5B78     		ldrb	r3, [r3, #1]	@ zero_extendqisi2
 1491 0114 5F06     		lsls	r7, r3, #25
 1492 0116 02D5     		bpl	.L154
 755:src/emvtrans.c ****   if (IOCtlMW(gIccHandle, IO_ICC_CHANGE, NULL))
 1493              		.loc 1 755 0
 1494 0118 0120     		movs	r0, #1
 1495 011a FFF7FEFF 		bl	UpdateHostStatus
 1496              	.LVL165:
 1497              	.L154:
 756:src/emvtrans.c ****     aNextState = EMV_COMPLETE;  // no fallback
 1498              		.loc 1 756 0
 1499 011e 0023     		movs	r3, #0
 1500 0120 0F20     		movs	r0, #15
 1501 0122 0093     		str	r3, [sp]
 1502 0124 0721     		movs	r1, #7
 1503 0126 2A68     		ldr	r2, [r5]
 1504 0128 0523     		movs	r3, #5
 1505 012a FFF7FEFF 		bl	lib_app_call
 1506              	.LVL166:
 759:src/emvtrans.c ****   return aNextState;
 1507              		.loc 1 759 0
 1508 012e 0123     		movs	r3, #1
 1509 0130 84F80037 		strb	r3, [r4, #1792]
 1510              	.LVL167:
 1511              	.LBE34:
 1512              	.LBE33:
 877:src/emvtrans.c ****     }
 1513              		.loc 1 877 0
 1514 0134 0028     		cmp	r0, #0
 1515 0136 0CBF     		ite	eq
 1516 0138 3546     		moveq	r5, r6
 1517 013a 0025     		movne	r5, #0
 1518 013c C6E3     		b	.L252
 1519              	.LVL168:
 1520              	.L144:
 879:src/emvtrans.c ****     //}
 1521              		.loc 1 879 0
 1522 013e D9F80030 		ldr	r3, [r9]
 1523 0142 03F55E53 		add	r3, r3, #14208
 1524 0146 DA68     		ldr	r2, [r3, #12]
 1525 0148 1678     		ldrb	r6, [r2]	@ zero_extendqisi2
 1526              	.LVL169:
 885:src/emvtrans.c ****       case EMV_COMPLETE: /* completed */
 1527              		.loc 1 885 0
 1528 014a 06F07F05 		and	r5, r6, #127
 1529 014e 082D     		cmp	r5, #8
 1530 0150 00F2AB83 		bhi	.L157
ARM GAS  C:\Users\AHMED~1.ELE\AppData\Local\Temp\cckRh1xc.s 			page 47


 1531 0154 DFE815F0 		tbh	[pc, r5, lsl #1]
 1532              	.L159:
 1533 0158 0900     		.2byte	(.L158-.L159)/2
 1534 015a A903     		.2byte	(.L157-.L159)/2
 1535 015c 8301     		.2byte	(.L160-.L159)/2
 1536 015e 9502     		.2byte	(.L161-.L159)/2
 1537 0160 B602     		.2byte	(.L162-.L159)/2
 1538 0162 9D03     		.2byte	(.L163-.L159)/2
 1539 0164 8B01     		.2byte	(.L164-.L159)/2
 1540 0166 6002     		.2byte	(.L165-.L159)/2
 1541 0168 8B01     		.2byte	(.L164-.L159)/2
 1542              		.p2align 1
 1543              	.L158:
 1544              	.LBB35:
 1545              	.LBB36:
 772:src/emvtrans.c ****   if (DeAss(gGDS->s_TagList, gGDS->s_EMVOut.bMsg+2, (WORD)(gGDS->s_EMVOut.wLen - 2)) == 0)
 1546              		.loc 1 772 0
 1547 016a 0023     		movs	r3, #0
 1548 016c 0721     		movs	r1, #7
 1549 016e 0093     		str	r3, [sp]
 1550 0170 414B     		ldr	r3, .L263+16
 1551 0172 0F20     		movs	r0, #15
 1552 0174 1A68     		ldr	r2, [r3]
 1553 0176 0423     		movs	r3, #4
 1554 0178 FFF7FEFF 		bl	lib_app_call
 1555              	.LVL170:
 773:src/emvtrans.c ****     EMVFatal();
 1556              		.loc 1 773 0
 1557 017c D9F80000 		ldr	r0, [r9]
 1558 0180 00F55E50 		add	r0, r0, #14208
 1559 0184 2030     		adds	r0, r0, #32
 1560 0186 30F8182C 		ldrh	r2, [r0, #-24]
 1561 018a 50F8141C 		ldr	r1, [r0, #-20]
 1562 018e 023A     		subs	r2, r2, #2
 1563 0190 0231     		adds	r1, r1, #2
 1564 0192 92B2     		uxth	r2, r2
 1565 0194 FFF7FEFF 		bl	DeAss
 1566              	.LVL171:
 1567 0198 08B9     		cbnz	r0, .L166
 774:src/emvtrans.c ****   DispHeader(NULL);
 1568              		.loc 1 774 0
 1569 019a FFF7FEFF 		bl	EMVFatal
 1570              	.LVL172:
 1571              	.L166:
 775:src/emvtrans.c **** 
 1572              		.loc 1 775 0
 1573 019e 0020     		movs	r0, #0
 1574 01a0 FFF7FEFF 		bl	DispHeader
 1575              	.LVL173:
 777:src/emvtrans.c ****     if (!EMVReferral())
 1576              		.loc 1 777 0
 1577 01a4 3B78     		ldrb	r3, [r7]	@ zero_extendqisi2
 1578 01a6 012B     		cmp	r3, #1
 1579 01a8 77D1     		bne	.L167
 1580              	.LBB37:
 1581              	.LBB38:
 572:src/emvtrans.c ****   memcpy(tmpbuf, &RSP_DATA.text[1], 16);
ARM GAS  C:\Users\AHMED~1.ELE\AppData\Local\Temp\cckRh1xc.s 			page 48


 1582              		.loc 1 572 0
 1583 01aa FFF7FEFF 		bl	PackRspText
 1584              	.LVL174:
 574:src/emvtrans.c ****   DispLineMW(tmpbuf, MW_LINE1, MW_CENTER|MW_BIGFONT);
 1585              		.loc 1 574 0
 1586 01ae 4FF0000A 		mov	r10, #0
 573:src/emvtrans.c ****   tmpbuf[16]=0;
 1587              		.loc 1 573 0
 1588 01b2 3249     		ldr	r1, .L263+20
 1589 01b4 1022     		movs	r2, #16
 1590 01b6 0BA8     		add	r0, sp, #44
 1591 01b8 FFF7FEFF 		bl	memcpy
 1592              	.LVL175:
 1593              	.LBB39:
 575:src/emvtrans.c **** 
 1594              		.loc 1 575 0
 1595 01bc 0BA8     		add	r0, sp, #44
 1596              	.LBE39:
 574:src/emvtrans.c ****   DispLineMW(tmpbuf, MW_LINE1, MW_CENTER|MW_BIGFONT);
 1597              		.loc 1 574 0
 1598 01be 8DF83CA0 		strb	r10, [sp, #60]
 1599              	.LBB40:
 575:src/emvtrans.c **** 
 1600              		.loc 1 575 0
 1601 01c2 FFF7FEFF 		bl	strlen
 1602              	.LVL176:
 1603 01c6 8146     		mov	r9, r0
 1604              	.LVL177:
 1605 01c8 09F10101 		add	r1, r9, #1
 1606 01cc 9220     		movs	r0, #146
 1607              	.LVL178:
 1608 01ce FFF7FEFF 		bl	sys_func1
 1609              	.LVL179:
 1610 01d2 0646     		mov	r6, r0
 1611              	.LVL180:
 1612 01d4 98B1     		cbz	r0, .L168
 1613 01d6 0BA9     		add	r1, sp, #44
 1614 01d8 4A46     		mov	r2, r9
 1615 01da FFF7FEFF 		bl	memcpy
 1616              	.LVL181:
 1617 01de 41F20203 		movw	r3, #4098
 1618 01e2 06F809A0 		strb	r10, [r6, r9]
 1619 01e6 2521     		movs	r1, #37
 1620 01e8 0093     		str	r3, [sp]
 1621 01ea 0F20     		movs	r0, #15
 1622 01ec 3246     		mov	r2, r6
 1623 01ee 4FF48073 		mov	r3, #256
 1624 01f2 FFF7FEFF 		bl	lib_app_call
 1625              	.LVL182:
 1626 01f6 9420     		movs	r0, #148
 1627 01f8 3146     		mov	r1, r6
 1628 01fa FFF7FEFF 		bl	sys_func1
 1629              	.LVL183:
 1630              	.L168:
 1631              	.LBE40:
 577:src/emvtrans.c ****   RSP_DATA.w_rspcode = 'C'*256+'N';
 1632              		.loc 1 577 0
ARM GAS  C:\Users\AHMED~1.ELE\AppData\Local\Temp\cckRh1xc.s 			page 49


 1633 01fe 0026     		movs	r6, #0
 1634              	.LVL184:
 1635 0200 3346     		mov	r3, r6
 1636 0202 0096     		str	r6, [sp]
 1637 0204 1020     		movs	r0, #16
 1638 0206 0D21     		movs	r1, #13
 1639 0208 3246     		mov	r2, r6
 1640 020a FFF7FEFF 		bl	lib_app_call
 1641              	.LVL185:
 578:src/emvtrans.c ****   RSP_DATA.text[0] = 0;
 1642              		.loc 1 578 0
 1643 020e 44F24E33 		movw	r3, #17230
 1644 0212 DFF86C90 		ldr	r9, .L263+24
 1645              	.LVL186:
 1646 0216 A4F86E35 		strh	r3, [r4, #1390]	@ movhi
 579:src/emvtrans.c **** 
 1647              		.loc 1 579 0
 1648 021a 84F80167 		strb	r6, [r4, #1793]
 581:src/emvtrans.c ****     if (INPUT.b_trans >= SALE_SWIPE) {
 1649              		.loc 1 581 0
 1650 021e FFF7FEFF 		bl	GetAuthCode
 1651              	.LVL187:
 1652 0222 A0B1     		cbz	r0, .L169
 582:src/emvtrans.c ****       INPUT.b_trans = ESALE_COMPLETE;
 1653              		.loc 1 582 0
 1654 0224 99F80030 		ldrb	r3, [r9]	@ zero_extendqisi2
 586:src/emvtrans.c ****     RSP_DATA.b_response = TRANS_ACP;
 1655              		.loc 1 586 0
 1656 0228 D8F80000 		ldr	r0, [r8]
 582:src/emvtrans.c ****       INPUT.b_trans = ESALE_COMPLETE;
 1657              		.loc 1 582 0
 1658 022c 012B     		cmp	r3, #1
 583:src/emvtrans.c ****       INPUT.b_trans_status = OFFLINE;
 1659              		.loc 1 583 0
 1660 022e 88BF     		it	hi
 1661 0230 1323     		movhi	r3, #19
 586:src/emvtrans.c ****     RSP_DATA.b_response = TRANS_ACP;
 1662              		.loc 1 586 0
 1663 0232 00F2A140 		addw	r0, r0, #1185
 583:src/emvtrans.c ****       INPUT.b_trans_status = OFFLINE;
 1664              		.loc 1 583 0
 1665 0236 82BF     		ittt	hi
 1666 0238 89F80030 		strbhi	r3, [r9]
 584:src/emvtrans.c ****     }
 1667              		.loc 1 584 0
 1668 023c 8023     		movhi	r3, #128
 1669 023e 89F80130 		strbhi	r3, [r9, #1]
 586:src/emvtrans.c ****     RSP_DATA.b_response = TRANS_ACP;
 1670              		.loc 1 586 0
 1671 0242 FFF7FEFF 		bl	DispHeader
 1672              	.LVL188:
 587:src/emvtrans.c ****   }
 1673              		.loc 1 587 0
 1674 0246 0023     		movs	r3, #0
 1675 0248 84F80037 		strb	r3, [r4, #1792]
 1676 024c 05E0     		b	.L171
 1677              	.L169:
ARM GAS  C:\Users\AHMED~1.ELE\AppData\Local\Temp\cckRh1xc.s 			page 50


 590:src/emvtrans.c **** 
 1678              		.loc 1 590 0
 1679 024e D8F80000 		ldr	r0, [r8]
 1680 0252 00F2A140 		addw	r0, r0, #1185
 1681 0256 FFF7FEFF 		bl	DispHeader
 1682              	.LVL189:
 1683              	.L171:
 592:src/emvtrans.c ****     LongBeep();
 1684              		.loc 1 592 0
 1685 025a 94F80037 		ldrb	r3, [r4, #1792]	@ zero_extendqisi2
 1686 025e 8BB1     		cbz	r3, .L172
 593:src/emvtrans.c ****     return FALSE;
 1687              		.loc 1 593 0
 1688 0260 FFF7FEFF 		bl	LongBeep
 1689              	.LVL190:
 1690              	.LBE38:
 1691              	.LBE37:
 778:src/emvtrans.c ****       return;
 1692              		.loc 1 778 0
 1693 0264 85B9     		cbnz	r5, .L253
 1694 0266 31E3     		b	.L252
 1695              	.L264:
 1696              		.align	2
 1697              	.L263:
 1698 0268 00000000 		.word	gIsMaestro
 1699 026c F8010000 		.word	gGTS+504
 1700 0270 00000000 		.word	.LANCHOR1
 1701 0274 00000000 		.word	gGDS
 1702 0278 00000000 		.word	gIccHandle
 1703 027c 02070000 		.word	gGTS+1794
 1704 0280 00000000 		.word	gGTS
 1705              	.L172:
 1706              	.LBB42:
 1707              	.LBB41:
 596:src/emvtrans.c ****   return TRUE;
 1708              		.loc 1 596 0
 1709 0284 FFF7FEFF 		bl	PackDTGAA
 1710              	.LVL191:
 1711              	.L253:
 1712              	.LBE41:
 1713              	.LBE42:
 780:src/emvtrans.c ****   }
 1714              		.loc 1 780 0
 1715 0288 D8F80030 		ldr	r3, [r8]
 1716 028c 03F55E53 		add	r3, r3, #14208
 1717 0290 DA68     		ldr	r2, [r3, #12]
 1718 0292 5378     		ldrb	r3, [r2, #1]	@ zero_extendqisi2
 1719 0294 63F07F03 		orn	r3, r3, #127
 1720 0298 5370     		strb	r3, [r2, #1]
 1721              	.L167:
 783:src/emvtrans.c ****     EMVAccepted((BOOLEAN)(bAction & ACT_ONLINE)); // 07-06-05++ BW (1) for offline approved txn
 1722              		.loc 1 783 0
 1723 029a D8F80030 		ldr	r3, [r8]
 1724 029e 03F55E53 		add	r3, r3, #14208
 1725 02a2 DB68     		ldr	r3, [r3, #12]
 1726 02a4 93F80190 		ldrb	r9, [r3, #1]	@ zero_extendqisi2
 1727 02a8 19F0800F 		tst	r9, #128
ARM GAS  C:\Users\AHMED~1.ELE\AppData\Local\Temp\cckRh1xc.s 			page 51


 1728 02ac 00F0C780 		beq	.L174
 1729              	.LVL192:
 1730              	.LBB43:
 1731              	.LBB44:
 613:src/emvtrans.c ****   memcpy(INPUT.sb_trace_no, TagData(gGDS->s_TagList, 0x9F41), 3);  // restore TSN
 1732              		.loc 1 613 0
 1733 02b0 8720     		movs	r0, #135
 1734 02b2 FFF7FEFF 		bl	GetConstMsg
 1735              	.LVL193:
 1736 02b6 4FF48052 		mov	r2, #4096
 1737 02ba 4FF4A061 		mov	r1, #1280
 1738 02be FFF7FEFF 		bl	Disp2x16Msg
 1739              	.LVL194:
 614:src/emvtrans.c ****   // mark as offline for offline approved
 1740              		.loc 1 614 0
 1741 02c2 B04B     		ldr	r3, .L265
 1742 02c4 49F64171 		movw	r1, #40769
 1743 02c8 1E68     		ldr	r6, [r3]
 1744 02ca DFF8D4A2 		ldr	r10, .L265+28
 1745 02ce 06F55E56 		add	r6, r6, #14208
 1746 02d2 06F1200B 		add	fp, r6, #32
 1747 02d6 5846     		mov	r0, fp
 1748 02d8 FFF7FEFF 		bl	TagData
 1749              	.LVL195:
 1750 02dc 0322     		movs	r2, #3
 1751 02de 0146     		mov	r1, r0
 1752 02e0 0AF10200 		add	r0, r10, #2
 1753 02e4 FFF7FEFF 		bl	memcpy
 1754              	.LVL196:
 616:src/emvtrans.c ****     if (INPUT.b_trans==SALE_ICC)
 1755              		.loc 1 616 0
 1756 02e8 F368     		ldr	r3, [r6, #12]
 1757 02ea 5B78     		ldrb	r3, [r3, #1]	@ zero_extendqisi2
 1758 02ec 5806     		lsls	r0, r3, #25
 1759 02ee 06D4     		bmi	.L175
 617:src/emvtrans.c ****       INPUT.b_trans = ESALE_UNDER_LMT;
 1760              		.loc 1 617 0
 1761 02f0 9AF80030 		ldrb	r3, [r10]	@ zero_extendqisi2
 1762 02f4 0F2B     		cmp	r3, #15
 618:src/emvtrans.c ****   }
 1763              		.loc 1 618 0
 1764 02f6 04BF     		itt	eq
 1765 02f8 1223     		moveq	r3, #18
 1766 02fa 8AF80030 		strbeq	r3, [r10]
 1767              	.L175:
 621:src/emvtrans.c ****   tag_ptr = TagData(gGDS->s_TagList, 0x89); // locate auth code
 1768              		.loc 1 621 0
 1769 02fe 0023     		movs	r3, #0
 622:src/emvtrans.c ****   if (bAcceptReferral == TRUE) {
 1770              		.loc 1 622 0
 1771 0300 8921     		movs	r1, #137
 1772 0302 5846     		mov	r0, fp
 621:src/emvtrans.c ****   tag_ptr = TagData(gGDS->s_TagList, 0x89); // locate auth code
 1773              		.loc 1 621 0
 1774 0304 84F80037 		strb	r3, [r4, #1792]
 622:src/emvtrans.c ****   if (bAcceptReferral == TRUE) {
 1775              		.loc 1 622 0
ARM GAS  C:\Users\AHMED~1.ELE\AppData\Local\Temp\cckRh1xc.s 			page 52


 1776 0308 FFF7FEFF 		bl	TagData
 1777              	.LVL197:
 623:src/emvtrans.c ****     if (tag_ptr!=NULL)
 1778              		.loc 1 623 0
 1779 030c 3B78     		ldrb	r3, [r7]	@ zero_extendqisi2
 1780 030e 012B     		cmp	r3, #1
 622:src/emvtrans.c ****   if (bAcceptReferral == TRUE) {
 1781              		.loc 1 622 0
 1782 0310 0146     		mov	r1, r0
 1783              	.LVL198:
 623:src/emvtrans.c ****     if (tag_ptr!=NULL)
 1784              		.loc 1 623 0
 1785 0312 03D1     		bne	.L176
 624:src/emvtrans.c ****       memcpy(tag_ptr, RSP_DATA.sb_auth_code, 6); // update auth code
 1786              		.loc 1 624 0
 1787 0314 F8B1     		cbz	r0, .L178
 625:src/emvtrans.c ****   }
 1788              		.loc 1 625 0
 1789 0316 9C49     		ldr	r1, .L265+4
 1790 0318 0622     		movs	r2, #6
 1791 031a 1AE0     		b	.L258
 1792              	.L176:
 629:src/emvtrans.c ****     else
 1793              		.loc 1 629 0
 1794 031c 9A48     		ldr	r0, .L265+4
 1795              	.LVL199:
 628:src/emvtrans.c ****       memcpy(RSP_DATA.sb_auth_code, tag_ptr, 6); // store Auth Code
 1796              		.loc 1 628 0
 1797 031e 19B1     		cbz	r1, .L179
 629:src/emvtrans.c ****     else
 1798              		.loc 1 629 0
 1799 0320 0622     		movs	r2, #6
 1800 0322 FFF7FEFF 		bl	memcpy
 1801              	.LVL200:
 1802 0326 01E0     		b	.L180
 1803              	.LVL201:
 1804              	.L179:
 631:src/emvtrans.c ****     if (!aOnlTxn) {
 1805              		.loc 1 631 0
 1806 0328 FFF7FEFF 		bl	GenAuthCode
 1807              	.LVL202:
 1808              	.L180:
 632:src/emvtrans.c ****       memset(RSP_DATA.sb_auth_code, ' ', 6);
 1809              		.loc 1 632 0
 1810 032c 19F0100F 		tst	r9, #16
 1811 0330 11D1     		bne	.L178
 633:src/emvtrans.c ****       memcpy(RSP_DATA.sb_auth_code, "Y1", 2);
 1812              		.loc 1 633 0
 1813 0332 2021     		movs	r1, #32
 1814 0334 0622     		movs	r2, #6
 1815 0336 9448     		ldr	r0, .L265+4
 1816 0338 FFF7FEFF 		bl	memset
 1817              	.LVL203:
 634:src/emvtrans.c ****       IncAPMTraceNo();
 1818              		.loc 1 634 0
 1819 033c 9349     		ldr	r1, .L265+8
 1820 033e 0222     		movs	r2, #2
ARM GAS  C:\Users\AHMED~1.ELE\AppData\Local\Temp\cckRh1xc.s 			page 53


 1821 0340 9148     		ldr	r0, .L265+4
 1822 0342 FFF7FEFF 		bl	memcpy
 1823              	.LVL204:
 635:src/emvtrans.c ****       memcpy(TX_DATA.sb_trace_no, INPUT.sb_trace_no, sizeof(TX_DATA.sb_trace_no));
 1824              		.loc 1 635 0
 1825 0346 FFF7FEFF 		bl	IncAPMTraceNo
 1826              	.LVL205:
 636:src/emvtrans.c ****     }
 1827              		.loc 1 636 0
 1828 034a 9148     		ldr	r0, .L265+12
 1829 034c 0322     		movs	r2, #3
 1830 034e A0F54071 		sub	r1, r0, #768
 1831              	.L258:
 1832 0352 FFF7FEFF 		bl	memcpy
 1833              	.LVL206:
 1834              	.L178:
 641:src/emvtrans.c ****     memcpy(INPUT.s_icc_data.sb_tag_9f26, psLp->pbLoc, psLp->sLen);
 1835              		.loc 1 641 0
 1836 0356 D8F80060 		ldr	r6, [r8]
 1837 035a 49F62671 		movw	r1, #40742
 1838 035e 06F55E56 		add	r6, r6, #14208
 1839 0362 2036     		adds	r6, r6, #32
 1840 0364 3046     		mov	r0, r6
 1841 0366 FFF7FEFF 		bl	TagSeek
 1842              	.LVL207:
 1843 036a 0346     		mov	r3, r0
 1844 036c 20B1     		cbz	r0, .L182
 642:src/emvtrans.c ****   if ((psLp = TagSeek(gGDS->s_TagList, 0x9F06)) != NULL) { //AID for printing
 1845              		.loc 1 642 0
 1846 036e 8948     		ldr	r0, .L265+16
 1847              	.LVL208:
 1848 0370 5968     		ldr	r1, [r3, #4]
 1849 0372 9A78     		ldrb	r2, [r3, #2]	@ zero_extendqisi2
 1850 0374 FFF7FEFF 		bl	memcpy
 1851              	.LVL209:
 1852              	.L182:
 643:src/emvtrans.c ****     memcpy(INPUT.s_icc_data.sb_aid, psLp->pbLoc, psLp->sLen);
 1853              		.loc 1 643 0
 1854 0378 3046     		mov	r0, r6
 1855 037a 49F60671 		movw	r1, #40710
 1856 037e FFF7FEFF 		bl	TagSeek
 1857              	.LVL210:
 1858 0382 0646     		mov	r6, r0
 1859 0384 38B1     		cbz	r0, .L183
 644:src/emvtrans.c ****     INPUT.s_icc_data.b_aid_len = psLp->sLen;
 1860              		.loc 1 644 0
 1861 0386 8448     		ldr	r0, .L265+20
 1862              	.LVL211:
 1863 0388 7168     		ldr	r1, [r6, #4]
 1864 038a B278     		ldrb	r2, [r6, #2]	@ zero_extendqisi2
 1865 038c FFF7FEFF 		bl	memcpy
 1866              	.LVL212:
 645:src/emvtrans.c ****   }
 1867              		.loc 1 645 0
 1868 0390 B378     		ldrb	r3, [r6, #2]	@ zero_extendqisi2
 1869 0392 84F89430 		strb	r3, [r4, #148]
 1870              	.L183:
ARM GAS  C:\Users\AHMED~1.ELE\AppData\Local\Temp\cckRh1xc.s 			page 54


 648:src/emvtrans.c ****   PackEMVData(&INPUT.s_icc_data);  // field 55 ICC data
 1871              		.loc 1 648 0
 1872 0396 43F23000 		movw	r0, #12336
 1873 039a FFF7FEFF 		bl	SetRspCode
 1874              	.LVL213:
 649:src/emvtrans.c ****   if (bAction & ACT_SIGNATURE)
 1875              		.loc 1 649 0
 1876 039e 7F48     		ldr	r0, .L265+24
 1877 03a0 FFF7FEFF 		bl	PackEMVData
 1878              	.LVL214:
 650:src/emvtrans.c ****     RSP_DATA.w_rspcode = 'V'*256+'S';
 1879              		.loc 1 650 0
 1880 03a4 D8F80000 		ldr	r0, [r8]
 1881 03a8 00F55E50 		add	r0, r0, #14208
 1882 03ac C368     		ldr	r3, [r0, #12]
 1883 03ae 5B78     		ldrb	r3, [r3, #1]	@ zero_extendqisi2
 1884 03b0 D907     		lsls	r1, r3, #31
 1885 03b2 04D5     		bpl	.L184
 651:src/emvtrans.c ****   else {
 1886              		.loc 1 651 0
 1887 03b4 45F25363 		movw	r3, #22099
 1888 03b8 A4F86E35 		strh	r3, [r4, #1390]	@ movhi
 1889 03bc 10E0     		b	.L185
 1890              	.L184:
 653:src/emvtrans.c ****     // !2007-05-23++
 1891              		.loc 1 653 0
 1892 03be 45F24143 		movw	r3, #21569
 656:src/emvtrans.c ****       if (ptr[4]&0x04)
 1893              		.loc 1 656 0
 1894 03c2 2030     		adds	r0, r0, #32
 1895 03c4 49F61071 		movw	r1, #40720
 653:src/emvtrans.c ****     // !2007-05-23++
 1896              		.loc 1 653 0
 1897 03c8 A4F86E35 		strh	r3, [r4, #1390]	@ movhi
 656:src/emvtrans.c ****       if (ptr[4]&0x04)
 1898              		.loc 1 656 0
 1899 03cc FFF7FEFF 		bl	TagData
 1900              	.LVL215:
 1901 03d0 30B1     		cbz	r0, .L185
 657:src/emvtrans.c ****         RSP_DATA.b_PinVerified = 1;
 1902              		.loc 1 657 0
 1903 03d2 0379     		ldrb	r3, [r0, #4]	@ zero_extendqisi2
 1904 03d4 5A07     		lsls	r2, r3, #29
 658:src/emvtrans.c ****     }
 1905              		.loc 1 658 0
 1906 03d6 42BF     		ittt	mi
 1907 03d8 0122     		movmi	r2, #1
 1908 03da 714B     		ldrmi	r3, .L265+28
 1909 03dc 83F87025 		strbmi	r2, [r3, #1392]
 1910              	.LVL216:
 1911              	.L185:
 663:src/emvtrans.c ****   MoveInput2Tx();
 1912              		.loc 1 663 0
 1913 03e0 FFF7FEFF 		bl	PackInputP
 1914              	.LVL217:
 664:src/emvtrans.c ****   if (INPUT.b_trans != AUTH_ICC){
 1915              		.loc 1 664 0
ARM GAS  C:\Users\AHMED~1.ELE\AppData\Local\Temp\cckRh1xc.s 			page 55


 1916 03e4 FFF7FEFF 		bl	MoveInput2Tx
 1917              	.LVL218:
 665:src/emvtrans.c ****     if (bAcceptReferral == TRUE) {
 1918              		.loc 1 665 0
 1919 03e8 2378     		ldrb	r3, [r4]	@ zero_extendqisi2
 1920 03ea 102B     		cmp	r3, #16
 1921 03ec 17D0     		beq	.L186
 666:src/emvtrans.c ****       IncTraceNo();
 1922              		.loc 1 666 0
 1923 03ee 3B78     		ldrb	r3, [r7]	@ zero_extendqisi2
 1924 03f0 012B     		cmp	r3, #1
 1925 03f2 01D1     		bne	.L187
 667:src/emvtrans.c ****     }
 1926              		.loc 1 667 0
 1927 03f4 FFF7FEFF 		bl	IncTraceNo
 1928              	.LVL219:
 1929              	.L187:
 669:src/emvtrans.c ****     if ((INPUT.b_trans==ESALE_UNDER_LMT)||((INPUT.b_trans==ESALE_COMPLETE)&&(bAcceptReferral!=TRUE)
 1930              		.loc 1 669 0
 1931 03f8 FFF7FEFF 		bl	SaveRecord
 1932              	.LVL220:
 670:src/emvtrans.c ****       if (BlockAuthCode())
 1933              		.loc 1 670 0
 1934 03fc 2378     		ldrb	r3, [r4]	@ zero_extendqisi2
 1935 03fe 122B     		cmp	r3, #18
 1936 0400 04D0     		beq	.L188
 1937 0402 132B     		cmp	r3, #19
 1938 0404 0DD1     		bne	.L190
 1939 0406 3B78     		ldrb	r3, [r7]	@ zero_extendqisi2
 1940 0408 012B     		cmp	r3, #1
 1941 040a 0AD0     		beq	.L190
 1942              	.L188:
 671:src/emvtrans.c ****         memset(RSP_DATA.sb_auth_code, ' ', sizeof(RSP_DATA.sb_auth_code));
 1943              		.loc 1 671 0
 1944 040c FFF7FEFF 		bl	BlockAuthCode
 1945              	.LVL221:
 1946 0410 38B1     		cbz	r0, .L190
 672:src/emvtrans.c ****     }
 1947              		.loc 1 672 0
 1948 0412 2021     		movs	r1, #32
 1949 0414 0622     		movs	r2, #6
 1950 0416 5C48     		ldr	r0, .L265+4
 1951 0418 FFF7FEFF 		bl	memset
 1952              	.LVL222:
 1953 041c 01E0     		b	.L190
 1954              	.L186:
 676:src/emvtrans.c ****   }
 1955              		.loc 1 676 0
 1956 041e FFF7FEFF 		bl	Input2RecordBuf
 1957              	.LVL223:
 1958              	.L190:
 1959              	.LBE44:
 1960              	.LBE43:
 786:src/emvtrans.c ****       UpdateHostStatus(NO_PENDING); // clear reversal gen after host appr txn
 1961              		.loc 1 786 0
 1962 0422 D8F80030 		ldr	r3, [r8]
 1963 0426 03F55E53 		add	r3, r3, #14208
ARM GAS  C:\Users\AHMED~1.ELE\AppData\Local\Temp\cckRh1xc.s 			page 56


 1964 042a DB68     		ldr	r3, [r3, #12]
 1965 042c 5B78     		ldrb	r3, [r3, #1]	@ zero_extendqisi2
 1966 042e 5B06     		lsls	r3, r3, #25
 1967 0430 02D5     		bpl	.L192
 787:src/emvtrans.c ****     AcceptBeep();
 1968              		.loc 1 787 0
 1969 0432 0020     		movs	r0, #0
 1970 0434 FFF7FEFF 		bl	UpdateHostStatus
 1971              	.LVL224:
 1972              	.L192:
 788:src/emvtrans.c ****   }
 1973              		.loc 1 788 0
 1974 0438 FFF7FEFF 		bl	AcceptBeep
 1975              	.LVL225:
 1976 043c 46E2     		b	.L252
 1977              	.LVL226:
 1978              	.L174:
 791:src/emvtrans.c ****       RSP_DATA.w_rspcode = '5'*256+'1'; //rejected by ICC -> set rsp. ocde to declined
 1979              		.loc 1 791 0
 1980 043e 19F0400F 		tst	r9, #64
 1981 0442 05D1     		bne	.L193
 1982 0444 B4F86E25 		ldrh	r2, [r4, #1390]
 1983 0448 43F23003 		movw	r3, #12336
 1984 044c 9A42     		cmp	r2, r3
 1985 044e 03D1     		bne	.L194
 1986              	.L193:
 792:src/emvtrans.c ****     LongBeep();
 1987              		.loc 1 792 0
 1988 0450 43F23153 		movw	r3, #13617
 1989              	.L260:
 1990 0454 A4F86E35 		strh	r3, [r4, #1390]	@ movhi
 1991              	.L194:
 793:src/emvtrans.c ****   }
 1992              		.loc 1 793 0
 1993 0458 FFF7FEFF 		bl	LongBeep
 1994              	.LVL227:
 1995 045c 36E2     		b	.L252
 1996              	.LVL228:
 1997              	.L160:
 1998              	.LBE36:
 1999              	.LBE35:
 890:src/emvtrans.c ****           return EMVCancel(next_state);
 2000              		.loc 1 890 0
 2001 045e 0398     		ldr	r0, [sp, #12]
 2002 0460 FFF7FEFF 		bl	EMVInput
 2003              	.LVL229:
 2004 0464 0028     		cmp	r0, #0
 2005 0466 00F0D080 		beq	.L262
 2006              		.loc 1 892 0
 2007 046a 0123     		movs	r3, #1
 2008 046c F4E5     		b	.L255
 2009              	.L164:
 893:src/emvtrans.c ****         break;
 894:src/emvtrans.c ****       case EMV_AMOUNT_AIP: // IAP need amount
 895:src/emvtrans.c ****       case EMV_AMOUNT: // must have amount by now
 896:src/emvtrans.c ****         if (INPUT.dd_amount == 0) {
 2010              		.loc 1 896 0
ARM GAS  C:\Users\AHMED~1.ELE\AppData\Local\Temp\cckRh1xc.s 			page 57


 2011 046e D4E90623 		ldrd	r2, [r4, #24]
 2012 0472 1343     		orrs	r3, r2, r3
 2013 0474 0BD1     		bne	.L196
 897:src/emvtrans.c ****           if ((GetAmount(TIPsReqd(), 0) == FALSE) && (INPUT.dd_amount==0))
 2014              		.loc 1 897 0
 2015 0476 FFF7FEFF 		bl	TIPsReqd
 2016              	.LVL230:
 2017 047a 0021     		movs	r1, #0
 2018 047c FFF7FEFF 		bl	GetAmount
 2019              	.LVL231:
 2020 0480 28B9     		cbnz	r0, .L196
 2021              		.loc 1 897 0 is_stmt 0 discriminator 1
 2022 0482 474B     		ldr	r3, .L265+28
 2023 0484 D3E90623 		ldrd	r2, [r3, #24]
 2024 0488 1343     		orrs	r3, r2, r3
 2025 048a 00F0BE80 		beq	.L262
 2026              	.L196:
 898:src/emvtrans.c ****             return EMVCancel(next_state);
 899:src/emvtrans.c ****         }
 900:src/emvtrans.c ****         DispHeader(NULL);
 2027              		.loc 1 900 0 is_stmt 1
 2028 048e 0020     		movs	r0, #0
 2029 0490 FFF7FEFF 		bl	DispHeader
 2030              	.LVL232:
 901:src/emvtrans.c ****         // KC++ MTIP05 T08 S01
 902:src/emvtrans.c ****         //gGDS->s_EMVIn.bMsg[0] = 0;
 903:src/emvtrans.c ****         if (gIsMaestro && (INPUT.b_trans == SALE_ICC)) {
 2031              		.loc 1 903 0
 2032 0494 049B     		ldr	r3, [sp, #16]
 2033 0496 1B78     		ldrb	r3, [r3]	@ zero_extendqisi2
 2034 0498 002B     		cmp	r3, #0
 2035 049a 00F08980 		beq	.L197
 2036              		.loc 1 903 0 is_stmt 0 discriminator 1
 2037 049e 2378     		ldrb	r3, [r4]	@ zero_extendqisi2
 2038 04a0 3F4D     		ldr	r5, .L265+28
 2039 04a2 0F2B     		cmp	r3, #15
 2040 04a4 40F08480 		bne	.L197
 904:src/emvtrans.c ****           if (GetCashBackAmount(&cashback_amt)) {
 2041              		.loc 1 904 0 is_stmt 1
 2042 04a8 06A8     		add	r0, sp, #24
 2043 04aa FFF7FEFF 		bl	GetCashBackAmount
 2044              	.LVL233:
 905:src/emvtrans.c ****             // confirm cashback
 906:src/emvtrans.c ****             memcpy(gGDS->s_EMVIn.bMsg+1, "\x9F\x02\x06", 3);
 2045              		.loc 1 906 0
 2046 04ae D9F80030 		ldr	r3, [r9]
 2047 04b2 03F55E53 		add	r3, r3, #14208
 904:src/emvtrans.c ****           if (GetCashBackAmount(&cashback_amt)) {
 2048              		.loc 1 904 0
 2049 04b6 0028     		cmp	r0, #0
 2050 04b8 46D0     		beq	.L198
 2051              		.loc 1 906 0
 2052 04ba 5868     		ldr	r0, [r3, #4]
 2053 04bc 3949     		ldr	r1, .L265+32
 2054 04be 0322     		movs	r2, #3
 2055 04c0 0130     		adds	r0, r0, #1
 2056 04c2 FFF7FEFF 		bl	memcpy
ARM GAS  C:\Users\AHMED~1.ELE\AppData\Local\Temp\cckRh1xc.s 			page 58


 2057              	.LVL234:
 907:src/emvtrans.c ****             dbin2bcd(tmp, INPUT.dd_amount);
 2058              		.loc 1 907 0
 2059 04c6 08A8     		add	r0, sp, #32
 2060 04c8 D5E90623 		ldrd	r2, [r5, #24]
 2061 04cc FFF7FEFF 		bl	dbin2bcd
 2062              	.LVL235:
 908:src/emvtrans.c ****             memcpy(gGDS->s_EMVIn.bMsg+4, &tmp[4], 6);
 2063              		.loc 1 908 0
 2064 04d0 D9F80030 		ldr	r3, [r9]
 2065 04d4 09AD     		add	r5, sp, #36
 2066 04d6 03F55E5A 		add	r10, r3, #14208
 2067 04da 2946     		mov	r1, r5
 2068 04dc DAF80400 		ldr	r0, [r10, #4]
 2069 04e0 0622     		movs	r2, #6
 2070 04e2 0430     		adds	r0, r0, #4
 2071 04e4 FFF7FEFF 		bl	memcpy
 2072              	.LVL236:
 909:src/emvtrans.c ****             gGDS->s_EMVIn.wLen = 10;
 2073              		.loc 1 909 0
 2074 04e8 0A23     		movs	r3, #10
 910:src/emvtrans.c ****             if (cashback_amt != 0) {                // cash back amount is non-zero
 2075              		.loc 1 910 0
 2076 04ea DDE90689 		ldrd	r8, [sp, #24]
 909:src/emvtrans.c ****             gGDS->s_EMVIn.wLen = 10;
 2077              		.loc 1 909 0
 2078 04ee AAF80030 		strh	r3, [r10]	@ movhi
 2079 04f2 DAF80400 		ldr	r0, [r10, #4]
 2080              		.loc 1 910 0
 2081 04f6 58EA0903 		orrs	r3, r8, r9
 911:src/emvtrans.c ****               memcpy(&gGDS->s_EMVIn.bMsg[10], "\x9F\x03\x06", 3);
 2082              		.loc 1 911 0
 2083 04fa 00F10A00 		add	r0, r0, #10
 910:src/emvtrans.c ****             if (cashback_amt != 0) {                // cash back amount is non-zero
 2084              		.loc 1 910 0
 2085 04fe 19D0     		beq	.L199
 2086              		.loc 1 911 0
 2087 0500 2949     		ldr	r1, .L265+36
 2088 0502 0322     		movs	r2, #3
 2089 0504 FFF7FEFF 		bl	memcpy
 2090              	.LVL237:
 912:src/emvtrans.c ****               dbin2bcd(tmp, cashback_amt);
 2091              		.loc 1 912 0
 2092 0508 4246     		mov	r2, r8
 2093 050a 08A8     		add	r0, sp, #32
 2094 050c 4B46     		mov	r3, r9
 2095 050e FFF7FEFF 		bl	dbin2bcd
 2096              	.LVL238:
 913:src/emvtrans.c ****               memcpy(&gGDS->s_EMVIn.bMsg[13], &tmp[4], 6);
 2097              		.loc 1 913 0
 2098 0512 1C4B     		ldr	r3, .L265
 2099 0514 2946     		mov	r1, r5
 2100 0516 1B68     		ldr	r3, [r3]
 2101 0518 0622     		movs	r2, #6
 2102 051a 03F55E58 		add	r8, r3, #14208
 2103 051e D8F80400 		ldr	r0, [r8, #4]
 2104 0522 0D30     		adds	r0, r0, #13
ARM GAS  C:\Users\AHMED~1.ELE\AppData\Local\Temp\cckRh1xc.s 			page 59


 2105 0524 FFF7FEFF 		bl	memcpy
 2106              	.LVL239:
 914:src/emvtrans.c ****               gGDS->s_EMVIn.wLen += 9;
 2107              		.loc 1 914 0
 2108 0528 B8F80030 		ldrh	r3, [r8]
 2109 052c 0933     		adds	r3, r3, #9
 2110 052e A8F80030 		strh	r3, [r8]	@ movhi
 2111 0532 67E0     		b	.L200
 2112              	.L199:
 915:src/emvtrans.c ****             }
 916:src/emvtrans.c ****             else {                                                  // cash back amount is zero
 917:src/emvtrans.c ****               memcpy(&gGDS->s_EMVIn.bMsg[10], "\x9C\x01\x00", 3);   // change back to purchase only
 2113              		.loc 1 917 0
 2114 0534 1D49     		ldr	r1, .L265+40
 2115 0536 0322     		movs	r2, #3
 2116 0538 FFF7FEFF 		bl	memcpy
 2117              	.LVL240:
 918:src/emvtrans.c ****               gGDS->s_EMVIn.wLen += 3;
 2118              		.loc 1 918 0
 2119 053c BAF80030 		ldrh	r3, [r10]
 2120 0540 0333     		adds	r3, r3, #3
 2121 0542 AAF80030 		strh	r3, [r10]	@ movhi
 2122 0546 5DE0     		b	.L200
 2123              	.L198:
 919:src/emvtrans.c ****             }
 920:src/emvtrans.c ****           }
 921:src/emvtrans.c ****           else {
 922:src/emvtrans.c ****             // reset trans type to SALE
 923:src/emvtrans.c ****             memcpy(gGDS->s_EMVIn.bMsg+1, "\x9F\x02\x06", 3);
 2124              		.loc 1 923 0
 2125 0548 5868     		ldr	r0, [r3, #4]
 2126 054a 1649     		ldr	r1, .L265+32
 2127 054c 0322     		movs	r2, #3
 2128 054e 0130     		adds	r0, r0, #1
 2129 0550 FFF7FEFF 		bl	memcpy
 2130              	.LVL241:
 924:src/emvtrans.c ****             dbin2bcd(tmp, INPUT.dd_amount);
 2131              		.loc 1 924 0
 2132 0554 08A8     		add	r0, sp, #32
 2133 0556 D5E90623 		ldrd	r2, [r5, #24]
 2134 055a FFF7FEFF 		bl	dbin2bcd
 2135              	.LVL242:
 925:src/emvtrans.c ****             memcpy(gGDS->s_EMVIn.bMsg+4, &tmp[4], 6);
 2136              		.loc 1 925 0
 2137 055e D9F80050 		ldr	r5, [r9]
 2138 0562 09A9     		add	r1, sp, #36
 2139 0564 05F55E55 		add	r5, r5, #14208
 2140 0568 0622     		movs	r2, #6
 2141 056a 6868     		ldr	r0, [r5, #4]
 2142 056c 0430     		adds	r0, r0, #4
 2143 056e FFF7FEFF 		bl	memcpy
 2144              	.LVL243:
 926:src/emvtrans.c ****             gGDS->s_EMVIn.wLen = 10;
 2145              		.loc 1 926 0
 2146 0572 0A23     		movs	r3, #10
 927:src/emvtrans.c ****             memcpy(&gGDS->s_EMVIn.bMsg[10], "\x9C\x01\x00", 3);     // change back to purchase only
 2147              		.loc 1 927 0
ARM GAS  C:\Users\AHMED~1.ELE\AppData\Local\Temp\cckRh1xc.s 			page 60


 2148 0574 6868     		ldr	r0, [r5, #4]
 926:src/emvtrans.c ****             gGDS->s_EMVIn.wLen = 10;
 2149              		.loc 1 926 0
 2150 0576 2B80     		strh	r3, [r5]	@ movhi
 2151              		.loc 1 927 0
 2152 0578 1844     		add	r0, r0, r3
 2153 057a 0C49     		ldr	r1, .L265+40
 2154 057c 0322     		movs	r2, #3
 2155 057e FFF7FEFF 		bl	memcpy
 2156              	.LVL244:
 2157 0582 3CE0     		b	.L259
 2158              	.L266:
 2159              		.align	2
 2160              	.L265:
 2161 0584 00000000 		.word	gGDS
 2162 0588 67050000 		.word	gGTS+1383
 2163 058c 27000000 		.word	.LC9
 2164 0590 02030000 		.word	gGTS+770
 2165 0594 A3000000 		.word	gGTS+163
 2166 0598 95000000 		.word	gGTS+149
 2167 059c 84000000 		.word	gGTS+132
 2168 05a0 00000000 		.word	gGTS
 2169 05a4 2A000000 		.word	.LC10
 2170 05a8 2E000000 		.word	.LC11
 2171 05ac 3E000000 		.word	.LANCHOR0+62
 2172              	.L197:
 928:src/emvtrans.c ****             gGDS->s_EMVIn.wLen += 3;
 929:src/emvtrans.c ****           }
 930:src/emvtrans.c ****         }
 931:src/emvtrans.c ****         else {      // not Maestro
 932:src/emvtrans.c ****           memcpy(gGDS->s_EMVIn.bMsg+1, "\x9F\x02\x06", 3);
 2173              		.loc 1 932 0
 2174 05b0 D9F80030 		ldr	r3, [r9]
 2175 05b4 C749     		ldr	r1, .L267
 2176 05b6 03F55E53 		add	r3, r3, #14208
 2177 05ba 0322     		movs	r2, #3
 2178 05bc 5868     		ldr	r0, [r3, #4]
 2179 05be 0130     		adds	r0, r0, #1
 2180 05c0 FFF7FEFF 		bl	memcpy
 2181              	.LVL245:
 933:src/emvtrans.c ****           dbin2bcd(tmp, INPUT.dd_amount);
 2182              		.loc 1 933 0
 2183 05c4 08A8     		add	r0, sp, #32
 2184 05c6 D4E90623 		ldrd	r2, [r4, #24]
 2185 05ca FFF7FEFF 		bl	dbin2bcd
 2186              	.LVL246:
 934:src/emvtrans.c ****           memcpy(gGDS->s_EMVIn.bMsg+4, &tmp[4], 6);
 2187              		.loc 1 934 0
 2188 05ce D9F80050 		ldr	r5, [r9]
 2189 05d2 09A9     		add	r1, sp, #36
 2190 05d4 05F55E55 		add	r5, r5, #14208
 2191 05d8 0622     		movs	r2, #6
 2192 05da 6868     		ldr	r0, [r5, #4]
 2193 05dc 0430     		adds	r0, r0, #4
 2194 05de FFF7FEFF 		bl	memcpy
 2195              	.LVL247:
 935:src/emvtrans.c ****           gGDS->s_EMVIn.wLen = 10;
ARM GAS  C:\Users\AHMED~1.ELE\AppData\Local\Temp\cckRh1xc.s 			page 61


 2196              		.loc 1 935 0
 2197 05e2 0A23     		movs	r3, #10
 936:src/emvtrans.c ****           memcpy(&gGDS->s_EMVIn.bMsg[10], "\x9C\x01", 2);           // change back txn type
 2198              		.loc 1 936 0
 2199 05e4 6868     		ldr	r0, [r5, #4]
 935:src/emvtrans.c ****           gGDS->s_EMVIn.wLen = 10;
 2200              		.loc 1 935 0
 2201 05e6 2B80     		strh	r3, [r5]	@ movhi
 2202              		.loc 1 936 0
 2203 05e8 1844     		add	r0, r0, r3
 2204 05ea BB49     		ldr	r1, .L267+4
 2205 05ec 0222     		movs	r2, #2
 2206 05ee FFF7FEFF 		bl	memcpy
 2207              	.LVL248:
 937:src/emvtrans.c ****           gGDS->s_EMVIn.bMsg[12] = GetTxnCode();
 2208              		.loc 1 937 0
 2209 05f2 D5F80480 		ldr	r8, [r5, #4]
 2210 05f6 FFF7FEFF 		bl	GetTxnCode
 2211              	.LVL249:
 2212 05fa 88F80C00 		strb	r0, [r8, #12]
 2213              	.L259:
 938:src/emvtrans.c ****           gGDS->s_EMVIn.wLen += 3;
 2214              		.loc 1 938 0
 2215 05fe 2B88     		ldrh	r3, [r5]
 2216 0600 0333     		adds	r3, r3, #3
 2217 0602 2B80     		strh	r3, [r5]	@ movhi
 2218              	.L200:
 939:src/emvtrans.c ****         }
 940:src/emvtrans.c ****         // KC--
 941:src/emvtrans.c ****         if (!GetProductCode())
 2219              		.loc 1 941 0
 2220 0604 FFF7FEFF 		bl	GetProductCode
 2221              	.LVL250:
 2222 0608 20B9     		cbnz	r0, .L201
 2223              	.L262:
 942:src/emvtrans.c ****           return EMVCancel(next_state);
 2224              		.loc 1 942 0
 2225 060a 3046     		mov	r0, r6
 2226 060c FFF7FEFF 		bl	EMVCancel
 2227              	.LVL251:
 2228 0610 0546     		mov	r5, r0
 2229 0612 5BE1     		b	.L252
 2230              	.L201:
 943:src/emvtrans.c ****         DispHeader(NULL);
 2231              		.loc 1 943 0
 2232 0614 0020     		movs	r0, #0
 2233 0616 44E0     		b	.L256
 2234              	.L165:
 944:src/emvtrans.c ****         Disp2x16Msg(GetConstMsg(EDC_EMV_PROCESSING), MW_LINE5, MW_BIGFONT);
 945:src/emvtrans.c ****         break;
 946:src/emvtrans.c ****       case EMV_CONFIRM_CARD: /* validate application */
 947:src/emvtrans.c ****         if (!ValidEMVData()) {
 2235              		.loc 1 947 0
 2236 0618 FFF7FEFF 		bl	ValidEMVData
 2237              	.LVL252:
 2238 061c 0546     		mov	r5, r0
 2239 061e 48B9     		cbnz	r0, .L202
ARM GAS  C:\Users\AHMED~1.ELE\AppData\Local\Temp\cckRh1xc.s 			page 62


 948:src/emvtrans.c ****           Disp2x16Msg(GetConstMsg(EDC_RSP_READ_ERROR), MW_LINE5, MW_BIGFONT);
 2240              		.loc 1 948 0
 2241 0620 7420     		movs	r0, #116
 2242 0622 FFF7FEFF 		bl	GetConstMsg
 2243              	.LVL253:
 2244 0626 4FF4A061 		mov	r1, #1280
 2245 062a 4FF48052 		mov	r2, #4096
 2246 062e FFF7FEFF 		bl	Disp2x16Msg
 2247              	.LVL254:
 949:src/emvtrans.c ****           return FALSE;
 2248              		.loc 1 949 0
 2249 0632 4BE1     		b	.L252
 2250              	.L202:
 950:src/emvtrans.c ****         }
 951:src/emvtrans.c **** 
 952:src/emvtrans.c ****         PackComm(INPUT.w_host_idx, FALSE);
 953:src/emvtrans.c ****         APM_PreConnect();
 2251              		.loc 1 953 0
 2252 0634 0025     		movs	r5, #0
 952:src/emvtrans.c ****         APM_PreConnect();
 2253              		.loc 1 952 0
 2254 0636 B4F87600 		ldrh	r0, [r4, #118]
 2255 063a 0021     		movs	r1, #0
 2256 063c FFF7FEFF 		bl	PackComm
 2257              	.LVL255:
 2258              		.loc 1 953 0
 2259 0640 2A46     		mov	r2, r5
 2260 0642 2B46     		mov	r3, r5
 2261 0644 0095     		str	r5, [sp]
 2262 0646 1020     		movs	r0, #16
 2263 0648 0921     		movs	r1, #9
 2264 064a FFF7FEFF 		bl	lib_app_call
 2265              	.LVL256:
 954:src/emvtrans.c **** 
 955:src/emvtrans.c ****       //  if (!ConfirmCard()) {  // leave exp date chk to kernel
 956:src/emvtrans.c ****       //    RSP_DATA.w_rspcode = 'C'*256+'N';
 957:src/emvtrans.c ****       //    return EMV_COMPLETE; // 25-04-05++ txn end
 958:src/emvtrans.c ****       //  }
 959:src/emvtrans.c **** 
 960:src/emvtrans.c ****         if (INPUT.b_trans == AUTH_ICC) {// AUTH always online
 2266              		.loc 1 960 0
 2267 064e 2378     		ldrb	r3, [r4]	@ zero_extendqisi2
 2268 0650 102B     		cmp	r3, #16
 961:src/emvtrans.c ****           gGDS->s_EMVIn.bMsg[0] = 0x88;     // Override transaction type & force online
 2269              		.loc 1 961 0
 2270 0652 D9F80030 		ldr	r3, [r9]
 2271 0656 08BF     		it	eq
 2272 0658 8822     		moveq	r2, #136
 2273 065a 03F55E53 		add	r3, r3, #14208
 2274 065e 5B68     		ldr	r3, [r3, #4]
 2275 0660 0BBF     		itete	eq
 2276 0662 1A70     		strbeq	r2, [r3]
 962:src/emvtrans.c ****           gGDS->s_EMVIn.wLen = 1;
 963:src/emvtrans.c ****         }
 964:src/emvtrans.c ****         else {
 965:src/emvtrans.c ****           gGDS->s_EMVIn.bMsg[0] = 0;
 2277              		.loc 1 965 0
ARM GAS  C:\Users\AHMED~1.ELE\AppData\Local\Temp\cckRh1xc.s 			page 63


 2278 0664 1D70     		strbne	r5, [r3]
 962:src/emvtrans.c ****           gGDS->s_EMVIn.wLen = 1;
 2279              		.loc 1 962 0
 2280 0666 D9F80030 		ldreq	r3, [r9]
 966:src/emvtrans.c ****           gGDS->s_EMVIn.wLen = 0;
 2281              		.loc 1 966 0
 2282 066a D9F80030 		ldrne	r3, [r9]
 962:src/emvtrans.c ****           gGDS->s_EMVIn.wLen = 1;
 2283              		.loc 1 962 0
 2284 066e 05BF     		ittet	eq
 2285 0670 03F55E53 		addeq	r3, r3, #14208
 2286 0674 0122     		moveq	r2, #1
 2287              		.loc 1 966 0
 2288 0676 03F55E53 		addne	r3, r3, #14208
 962:src/emvtrans.c ****           gGDS->s_EMVIn.wLen = 1;
 2289              		.loc 1 962 0
 2290 067a 1A80     		strheq	r2, [r3]	@ movhi
 2291              		.loc 1 966 0
 2292 067c 18BF     		it	ne
 2293 067e 1D80     		strhne	r5, [r3]	@ movhi
 2294 0680 EBE4     		b	.L143
 2295              	.L161:
 2296              	.LBB45:
 2297              	.LBB46:
 475:src/emvtrans.c ****     gGDS->s_EMVIn.bMsg[0] = 0;
 2298              		.loc 1 475 0
 2299 0682 FFF7FEFF 		bl	GetPIN
 2300              	.LVL257:
 2301 0686 C0B1     		cbz	r0, .L204
 476:src/emvtrans.c ****     gGDS->s_EMVIn.wLen = 1;
 2302              		.loc 1 476 0
 2303 0688 D9F80030 		ldr	r3, [r9]
 2304 068c 0020     		movs	r0, #0
 2305 068e 03F55E53 		add	r3, r3, #14208
 477:src/emvtrans.c ****     DispHeader(NULL);
 2306              		.loc 1 477 0
 2307 0692 0122     		movs	r2, #1
 476:src/emvtrans.c ****     gGDS->s_EMVIn.wLen = 1;
 2308              		.loc 1 476 0
 2309 0694 5B68     		ldr	r3, [r3, #4]
 2310 0696 1870     		strb	r0, [r3]
 477:src/emvtrans.c ****     DispHeader(NULL);
 2311              		.loc 1 477 0
 2312 0698 D9F80030 		ldr	r3, [r9]
 2313 069c 03F55E53 		add	r3, r3, #14208
 2314 06a0 1A80     		strh	r2, [r3]	@ movhi
 2315              	.L256:
 478:src/emvtrans.c ****     Disp2x16Msg(GetConstMsg(EDC_EMV_PROCESSING), MW_LINE5, MW_BIGFONT);
 2316              		.loc 1 478 0
 2317 06a2 FFF7FEFF 		bl	DispHeader
 2318              	.LVL258:
 479:src/emvtrans.c ****     return TRUE;
 2319              		.loc 1 479 0
 2320 06a6 8720     		movs	r0, #135
 2321 06a8 FFF7FEFF 		bl	GetConstMsg
 2322              	.LVL259:
 2323 06ac 4FF4A061 		mov	r1, #1280
ARM GAS  C:\Users\AHMED~1.ELE\AppData\Local\Temp\cckRh1xc.s 			page 64


 2324 06b0 4FF48052 		mov	r2, #4096
 2325 06b4 FFF7FEFF 		bl	Disp2x16Msg
 2326              	.LVL260:
 2327 06b8 CFE4     		b	.L143
 2328              	.L204:
 482:src/emvtrans.c ****   RSP_DATA.w_rspcode = 'C'*256+'N';
 2329              		.loc 1 482 0
 2330 06ba FFF7FEFF 		bl	DispHeader
 2331              	.LVL261:
 483:src/emvtrans.c ****   return FALSE;
 2332              		.loc 1 483 0
 2333 06be 44F24E33 		movw	r3, #17230
 2334 06c2 C7E6     		b	.L260
 2335              	.L162:
 2336              	.LBE46:
 2337              	.LBE45:
 967:src/emvtrans.c ****         }
 968:src/emvtrans.c ****         break;
 969:src/emvtrans.c ****       case EMV_ONLINE_PIN: // online PIN
 970:src/emvtrans.c ****         if (emvPIN() == FALSE) {
 971:src/emvtrans.c ****           LongBeep();
 972:src/emvtrans.c ****           return EMV_ONLINE_PIN; // 25-04-05++ return next action code
 973:src/emvtrans.c ****         }
 974:src/emvtrans.c ****         break;
 975:src/emvtrans.c ****       case EMV_ONLINE: // online process
 976:src/emvtrans.c ****         // only proceed if unable to go online or txn approved
 977:src/emvtrans.c **** 			PackHeader();
 2338              		.loc 1 977 0
 2339 06c4 FFF7FEFF 		bl	PackHeader
 2340              	.LVL262:
 2341              	.LBB47:
 2342              	.LBB48:
 514:src/emvtrans.c ****     EMVFatal();
 2343              		.loc 1 514 0
 2344 06c8 D9F80000 		ldr	r0, [r9]
 2345 06cc 00F55E50 		add	r0, r0, #14208
 2346 06d0 2030     		adds	r0, r0, #32
 2347 06d2 30F8182C 		ldrh	r2, [r0, #-24]
 2348 06d6 50F8141C 		ldr	r1, [r0, #-20]
 2349 06da 023A     		subs	r2, r2, #2
 2350 06dc 0231     		adds	r1, r1, #2
 2351 06de 92B2     		uxth	r2, r2
 2352 06e0 FFF7FEFF 		bl	DeAss
 2353              	.LVL263:
 2354 06e4 08B9     		cbnz	r0, .L205
 515:src/emvtrans.c ****   gGDS->s_EMVOut.wLen = 1;
 2355              		.loc 1 515 0
 2356 06e6 FFF7FEFF 		bl	EMVFatal
 2357              	.LVL264:
 2358              	.L205:
 516:src/emvtrans.c ****   DispHeader(NULL);
 2359              		.loc 1 516 0
 2360 06ea D9F80030 		ldr	r3, [r9]
 2361 06ee 0122     		movs	r2, #1
 2362 06f0 03F55E53 		add	r3, r3, #14208
 519:src/emvtrans.c ****     if (ReversalOK()) {
 2363              		.loc 1 519 0
ARM GAS  C:\Users\AHMED~1.ELE\AppData\Local\Temp\cckRh1xc.s 			page 65


 2364 06f4 4FF00009 		mov	r9, #0
 516:src/emvtrans.c ****   DispHeader(NULL);
 2365              		.loc 1 516 0
 2366 06f8 1A81     		strh	r2, [r3, #8]	@ movhi
 517:src/emvtrans.c ****   PackComm(INPUT.w_host_idx, FALSE);
 2367              		.loc 1 517 0
 2368 06fa 0020     		movs	r0, #0
 2369 06fc FFF7FEFF 		bl	DispHeader
 2370              	.LVL265:
 518:src/emvtrans.c ****   if ((RSP_DATA.w_rspcode = APM_ConnectOK(FALSE)) == COMM_OK) {
 2371              		.loc 1 518 0
 2372 0700 B4F87600 		ldrh	r0, [r4, #118]
 2373 0704 0021     		movs	r1, #0
 2374 0706 FFF7FEFF 		bl	PackComm
 2375              	.LVL266:
 519:src/emvtrans.c ****     if (ReversalOK()) {
 2376              		.loc 1 519 0
 2377 070a 4B46     		mov	r3, r9
 2378 070c CDF80090 		str	r9, [sp]
 2379 0710 1020     		movs	r0, #16
 2380 0712 0A21     		movs	r1, #10
 2381 0714 4A46     		mov	r2, r9
 2382 0716 FFF7FEFF 		bl	lib_app_call
 2383              	.LVL267:
 2384 071a 43F23003 		movw	r3, #12336
 516:src/emvtrans.c ****   DispHeader(NULL);
 2385              		.loc 1 516 0
 2386 071e DFF8D8A1 		ldr	r10, .L267+36
 518:src/emvtrans.c ****   if ((RSP_DATA.w_rspcode = APM_ConnectOK(FALSE)) == COMM_OK) {
 2387              		.loc 1 518 0
 2388 0722 DFF8D081 		ldr	r8, .L267+32
 519:src/emvtrans.c ****     if (ReversalOK()) {
 2389              		.loc 1 519 0
 2390 0726 1FFA80FB 		uxth	fp, r0
 2391 072a 9B45     		cmp	fp, r3
 2392 072c A4F86EB5 		strh	fp, [r4, #1390]	@ movhi
 2393 0730 40F0BF80 		bne	.L206
 520:src/emvtrans.c ****       OfflineSent(FALSE);
 2394              		.loc 1 520 0
 2395 0734 FFF7FEFF 		bl	ReversalOK
 2396              	.LVL268:
 2397 0738 0028     		cmp	r0, #0
 2398 073a 00F0A180 		beq	.L208
 521:src/emvtrans.c ****       memcpy(INPUT.sb_trace_no, TagData(gGDS->s_TagList, 0x9F41), 3); /* restore TSN */
 2399              		.loc 1 521 0
 2400 073e 4846     		mov	r0, r9
 2401 0740 FFF7FEFF 		bl	OfflineSent
 2402              	.LVL269:
 522:src/emvtrans.c ****       memcpy(TX_DATA.sb_trace_no, INPUT.sb_trace_no, sizeof(TX_DATA.sb_trace_no));
 2403              		.loc 1 522 0
 2404 0744 DAF80000 		ldr	r0, [r10]
 2405 0748 49F64171 		movw	r1, #40769
 2406 074c 00F55E50 		add	r0, r0, #14208
 2407 0750 2030     		adds	r0, r0, #32
 2408 0752 FFF7FEFF 		bl	TagData
 2409              	.LVL270:
 2410 0756 0322     		movs	r2, #3
ARM GAS  C:\Users\AHMED~1.ELE\AppData\Local\Temp\cckRh1xc.s 			page 66


 2411 0758 0146     		mov	r1, r0
 2412 075a 08F10200 		add	r0, r8, #2
 2413 075e FFF7FEFF 		bl	memcpy
 2414              	.LVL271:
 523:src/emvtrans.c ****       memcpy(INPUT.sb_roc_no, INPUT.sb_trace_no, sizeof(TX_DATA.sb_trace_no));  // restore ROC
 2415              		.loc 1 523 0
 2416 0762 08F10201 		add	r1, r8, #2
 2417 0766 0322     		movs	r2, #3
 2418 0768 5C48     		ldr	r0, .L267+8
 2419 076a FFF7FEFF 		bl	memcpy
 2420              	.LVL272:
 524:src/emvtrans.c ****       PackEMVData(&INPUT.s_icc_data);  // field 55 ICC data
 2421              		.loc 1 524 0
 2422 076e 08F10201 		add	r1, r8, #2
 2423 0772 0322     		movs	r2, #3
 2424 0774 08F10600 		add	r0, r8, #6
 2425 0778 FFF7FEFF 		bl	memcpy
 2426              	.LVL273:
 525:src/emvtrans.c ****       IncAPMTraceNo();
 2427              		.loc 1 525 0
 2428 077c 08F18400 		add	r0, r8, #132
 2429 0780 FFF7FEFF 		bl	PackEMVData
 2430              	.LVL274:
 526:src/emvtrans.c ****       MoveInput2Tx();
 2431              		.loc 1 526 0
 2432 0784 FFF7FEFF 		bl	IncAPMTraceNo
 2433              	.LVL275:
 527:src/emvtrans.c ****       memcpy(TX_DATA.sb_pin, INPUT.sb_pin, sizeof(INPUT.sb_pin)); // online pin
 2434              		.loc 1 527 0
 2435 0788 FFF7FEFF 		bl	MoveInput2Tx
 2436              	.LVL276:
 528:src/emvtrans.c ****       //PackEMVData(&TX_DATA.s_icc_data);  // field 55 ICC data
 2437              		.loc 1 528 0
 2438 078c 059A     		ldr	r2, [sp, #20]
 2439 078e 08F59F63 		add	r3, r8, #1272
 2440 0792 92E80300 		ldmia	r2, {r0, r1}
 2441 0796 83E80300 		stmia	r3, {r0, r1}
 530:src/emvtrans.c ****       PackHostMsg();
 2442              		.loc 1 530 0
 2443 079a 98F80513 		ldrb	r1, [r8, #773]	@ zero_extendqisi2
 2444 079e 98F80003 		ldrb	r0, [r8, #768]	@ zero_extendqisi2
 2445 07a2 FFF7FEFF 		bl	PackProcCode
 2446              	.LVL277:
 531:src/emvtrans.c ****       UpdateHostStatus(REV_PENDING);
 2447              		.loc 1 531 0
 2448 07a6 FFF7FEFF 		bl	PackHostMsg
 2449              	.LVL278:
 532:src/emvtrans.c **** 
 2450              		.loc 1 532 0
 2451 07aa 0120     		movs	r0, #1
 2452 07ac FFF7FEFF 		bl	UpdateHostStatus
 2453              	.LVL279:
 534:src/emvtrans.c ****         RSP_DATA.b_response = CheckHostRsp();
 2454              		.loc 1 534 0
 2455 07b0 DAF80030 		ldr	r3, [r10]
 2456 07b4 1020     		movs	r0, #16
 2457 07b6 03F5CC52 		add	r2, r3, #6528
ARM GAS  C:\Users\AHMED~1.ELE\AppData\Local\Temp\cckRh1xc.s 			page 67


 2458 07ba 03F51653 		add	r3, r3, #9600
 2459 07be CDF80090 		str	r9, [sp]
 2460 07c2 0B21     		movs	r1, #11
 2461 07c4 1C32     		adds	r2, r2, #28
 2462 07c6 2033     		adds	r3, r3, #32
 2463 07c8 FFF7FEFF 		bl	lib_app_call
 2464              	.LVL280:
 2465 07cc 80B2     		uxth	r0, r0
 2466 07ce 5845     		cmp	r0, fp
 2467 07d0 A8F86E05 		strh	r0, [r8, #1390]	@ movhi
 2468 07d4 03D1     		bne	.L209
 535:src/emvtrans.c ****       }
 2469              		.loc 1 535 0
 2470 07d6 FFF7FEFF 		bl	CheckHostRsp
 2471              	.LVL281:
 2472 07da 88F80007 		strb	r0, [r8, #1792]
 2473              	.L209:
 537:src/emvtrans.c ****         memcpy(abResp, "\x8A\x02", 2);  //Authorisation Response Code, 2 bytes
 2474              		.loc 1 537 0
 2475 07de 94F80037 		ldrb	r3, [r4, #1792]	@ zero_extendqisi2
 2476 07e2 DFF81081 		ldr	r8, .L267+32
 2477 07e6 012B     		cmp	r3, #1
 2478 07e8 4AD8     		bhi	.L208
 538:src/emvtrans.c ****         abResp[2] = (BYTE)(RSP_DATA.w_rspcode>>8);
 2479              		.loc 1 538 0
 2480 07ea 3D49     		ldr	r1, .L267+12
 2481 07ec 0222     		movs	r2, #2
 2482 07ee 3D48     		ldr	r0, .L267+16
 2483 07f0 FFF7FEFF 		bl	memcpy
 2484              	.LVL282:
 541:src/emvtrans.c ****         gGDS->s_EMVIn.wLen = sizeof(abResp) + 1;
 2485              		.loc 1 541 0
 2486 07f4 DFF80091 		ldr	r9, .L267+36
 539:src/emvtrans.c ****         abResp[3] = (BYTE)(RSP_DATA.w_rspcode&0xFF);
 2487              		.loc 1 539 0
 2488 07f8 B8F86E35 		ldrh	r3, [r8, #1390]
 541:src/emvtrans.c ****         gGDS->s_EMVIn.wLen = sizeof(abResp) + 1;
 2489              		.loc 1 541 0
 2490 07fc 3949     		ldr	r1, .L267+16
 539:src/emvtrans.c ****         abResp[3] = (BYTE)(RSP_DATA.w_rspcode&0xFF);
 2491              		.loc 1 539 0
 2492 07fe 1A0A     		lsrs	r2, r3, #8
 540:src/emvtrans.c ****         memcpy(gGDS->s_EMVIn.bMsg+1, abResp, sizeof(abResp));
 2493              		.loc 1 540 0
 2494 0800 3B71     		strb	r3, [r7, #4]
 541:src/emvtrans.c ****         gGDS->s_EMVIn.wLen = sizeof(abResp) + 1;
 2495              		.loc 1 541 0
 2496 0802 D9F80030 		ldr	r3, [r9]
 539:src/emvtrans.c ****         abResp[3] = (BYTE)(RSP_DATA.w_rspcode&0xFF);
 2497              		.loc 1 539 0
 2498 0806 FA70     		strb	r2, [r7, #3]
 541:src/emvtrans.c ****         gGDS->s_EMVIn.wLen = sizeof(abResp) + 1;
 2499              		.loc 1 541 0
 2500 0808 03F55E53 		add	r3, r3, #14208
 2501 080c 0422     		movs	r2, #4
 2502 080e 5868     		ldr	r0, [r3, #4]
 2503 0810 0130     		adds	r0, r0, #1
ARM GAS  C:\Users\AHMED~1.ELE\AppData\Local\Temp\cckRh1xc.s 			page 68


 2504 0812 FFF7FEFF 		bl	memcpy
 2505              	.LVL283:
 542:src/emvtrans.c ****         if (RSP_DATA.b_response == TRANS_ACP) {
 2506              		.loc 1 542 0
 2507 0816 D9F80050 		ldr	r5, [r9]
 2508 081a 0523     		movs	r3, #5
 2509 081c 05F55E55 		add	r5, r5, #14208
 2510 0820 2B80     		strh	r3, [r5]	@ movhi
 543:src/emvtrans.c ****           memcpy(gGDS->s_EMVIn.bMsg+gGDS->s_EMVIn.wLen, "\x89\x06", 2); //Auth. Code, 6 bytes
 2511              		.loc 1 543 0
 2512 0822 98F80037 		ldrb	r3, [r8, #1792]	@ zero_extendqisi2
 2513 0826 A3B9     		cbnz	r3, .L211
 544:src/emvtrans.c ****           memcpy(gGDS->s_EMVIn.bMsg+gGDS->s_EMVIn.wLen+2, RSP_DATA.sb_auth_code, 6);
 2514              		.loc 1 544 0
 2515 0828 6868     		ldr	r0, [r5, #4]
 2516 082a 2F49     		ldr	r1, .L267+20
 2517 082c 0222     		movs	r2, #2
 2518 082e 0530     		adds	r0, r0, #5
 2519 0830 FFF7FEFF 		bl	memcpy
 2520              	.LVL284:
 545:src/emvtrans.c ****           gGDS->s_EMVIn.wLen += 8;
 2521              		.loc 1 545 0
 2522 0834 2B88     		ldrh	r3, [r5]
 2523 0836 6868     		ldr	r0, [r5, #4]
 2524 0838 0622     		movs	r2, #6
 2525 083a 1844     		add	r0, r0, r3
 2526 083c 0230     		adds	r0, r0, #2
 2527 083e 2B49     		ldr	r1, .L267+24
 2528 0840 FFF7FEFF 		bl	memcpy
 2529              	.LVL285:
 546:src/emvtrans.c ****         }
 2530              		.loc 1 546 0
 2531 0844 D9F80030 		ldr	r3, [r9]
 2532 0848 03F55E53 		add	r3, r3, #14208
 2533 084c 1A88     		ldrh	r2, [r3]
 2534 084e 0832     		adds	r2, r2, #8
 2535 0850 1A80     		strh	r2, [r3]	@ movhi
 2536              	.L211:
 549:src/emvtrans.c ****           memcpy(gGDS->s_EMVIn.bMsg+gGDS->s_EMVIn.wLen, RSP_DATA.s_icc_data.sb_misc_content, RSP_DA
 2537              		.loc 1 549 0
 2538 0852 B4F8B425 		ldrh	r2, [r4, #1460]
 2539 0856 9AB1     		cbz	r2, .L208
 550:src/emvtrans.c ****           gGDS->s_EMVIn.wLen += RSP_DATA.s_icc_data.w_misc_len;
 2540              		.loc 1 550 0
 2541 0858 D9F80030 		ldr	r3, [r9]
 2542 085c 03F55E53 		add	r3, r3, #14208
 2543 0860 1988     		ldrh	r1, [r3]
 2544 0862 5868     		ldr	r0, [r3, #4]
 2545 0864 0844     		add	r0, r0, r1
 2546 0866 2249     		ldr	r1, .L267+28
 2547 0868 FFF7FEFF 		bl	memcpy
 2548              	.LVL286:
 551:src/emvtrans.c ****         }
 2549              		.loc 1 551 0
 2550 086c D9F80030 		ldr	r3, [r9]
 2551 0870 204A     		ldr	r2, .L267+32
 2552 0872 03F55E53 		add	r3, r3, #14208
ARM GAS  C:\Users\AHMED~1.ELE\AppData\Local\Temp\cckRh1xc.s 			page 69


 2553 0876 B2F8B415 		ldrh	r1, [r2, #1460]
 2554 087a 1A88     		ldrh	r2, [r3]
 2555 087c 0A44     		add	r2, r2, r1
 2556 087e 1A80     		strh	r2, [r3]	@ movhi
 2557              	.L208:
 555:src/emvtrans.c ****     return TRUE;
 2558              		.loc 1 555 0
 2559 0880 0022     		movs	r2, #0
 2560 0882 0D21     		movs	r1, #13
 2561 0884 0092     		str	r2, [sp]
 2562 0886 1346     		mov	r3, r2
 2563 0888 1020     		movs	r0, #16
 2564 088a FFF7FEFF 		bl	lib_app_call
 2565              	.LVL287:
 2566 088e FFF7E4BB 		b	.L143
 2567              	.L163:
 2568              	.LBE48:
 2569              	.LBE47:
 978:src/emvtrans.c **** 
 979:src/emvtrans.c ****         if ( (EMVOnline() == FALSE)) {
 980:src/emvtrans.c ****           gGDS->s_EMVIn.bMsg[0] = 0;
 981:src/emvtrans.c ****           gGDS->s_EMVIn.wLen = 0;
 982:src/emvtrans.c ****           return EMV_ONLINE;
 983:src/emvtrans.c ****         }
 984:src/emvtrans.c ****         break;
 985:src/emvtrans.c ****       case EMV_REFERRAL: // referral
 986:src/emvtrans.c ****         gGDS->s_EMVIn.bMsg[0] = 0;
 2570              		.loc 1 986 0
 2571 0892 5B68     		ldr	r3, [r3, #4]
 2572 0894 0022     		movs	r2, #0
 2573 0896 1A70     		strb	r2, [r3]
 987:src/emvtrans.c ****         gGDS->s_EMVIn.wLen = 1;   // request AAC
 2574              		.loc 1 987 0
 2575 0898 D9F80030 		ldr	r3, [r9]
 2576 089c 0122     		movs	r2, #1
 2577 089e 03F55E53 		add	r3, r3, #14208
 988:src/emvtrans.c ****         bAcceptReferral = TRUE; //referral requested indicator
 2578              		.loc 1 988 0
 2579 08a2 3A70     		strb	r2, [r7]
 987:src/emvtrans.c ****         gGDS->s_EMVIn.wLen = 1;   // request AAC
 2580              		.loc 1 987 0
 2581 08a4 1A80     		strh	r2, [r3]	@ movhi
 989:src/emvtrans.c ****         break;
 2582              		.loc 1 989 0
 2583 08a6 FFF7D8BB 		b	.L143
 2584              	.L157:
 990:src/emvtrans.c ****       default:
 991:src/emvtrans.c ****         EMVFatal();
 2585              		.loc 1 991 0
 2586 08aa FFF7FEFF 		bl	EMVFatal
 2587              	.LVL288:
 2588 08ae FFF7D4BB 		b	.L143
 2589              	.L206:
 980:src/emvtrans.c ****           gGDS->s_EMVIn.wLen = 0;
 2590              		.loc 1 980 0
 2591 08b2 DAF80030 		ldr	r3, [r10]
 2592 08b6 03F55E53 		add	r3, r3, #14208
ARM GAS  C:\Users\AHMED~1.ELE\AppData\Local\Temp\cckRh1xc.s 			page 70


 2593 08ba 5B68     		ldr	r3, [r3, #4]
 2594 08bc 83F80090 		strb	r9, [r3]
 981:src/emvtrans.c ****           return EMV_ONLINE;
 2595              		.loc 1 981 0
 2596 08c0 DAF80030 		ldr	r3, [r10]
 2597 08c4 03F55E53 		add	r3, r3, #14208
 2598 08c8 A3F80090 		strh	r9, [r3]	@ movhi
 2599              	.LVL289:
 2600              	.L252:
 992:src/emvtrans.c ****     }
 993:src/emvtrans.c ****   } while (TRUE);
 994:src/emvtrans.c **** }
 2601              		.loc 1 994 0
 2602 08cc 2846     		mov	r0, r5
 2603 08ce 13B0     		add	sp, sp, #76
 2604              		.cfi_def_cfa_offset 36
 2605              		@ sp needed
 2606 08d0 BDE8F08F 		pop	{r4, r5, r6, r7, r8, r9, r10, fp, pc}
 2607              	.LVL290:
 2608              	.L268:
 2609              		.align	2
 2610              	.L267:
 2611 08d4 2A000000 		.word	.LC10
 2612 08d8 32000000 		.word	.LC13
 2613 08dc 02030000 		.word	gGTS+770
 2614 08e0 35000000 		.word	.LC14
 2615 08e4 01000000 		.word	.LANCHOR1+1
 2616 08e8 38000000 		.word	.LC15
 2617 08ec 67050000 		.word	gGTS+1383
 2618 08f0 B6050000 		.word	gGTS+1462
 2619 08f4 00000000 		.word	gGTS
 2620 08f8 00000000 		.word	gGDS
 2621              		.cfi_endproc
 2622              	.LFE22:
 2623              		.size	EMVProcess, .-EMVProcess
 2624              		.section	.text.EMVTrans,"ax",%progbits
 2625              		.align	1
 2626              		.global	EMVTrans
 2627              		.thumb
 2628              		.thumb_func
 2629              		.type	EMVTrans, %function
 2630              	EMVTrans:
 2631              	.LFB23:
 995:src/emvtrans.c **** //*****************************************************************************
 996:src/emvtrans.c **** //  Function        : EMVTrans
 997:src/emvtrans.c **** //  Description     : EMV trans handler.
 998:src/emvtrans.c **** //  Input           : trans;    // trans type
 999:src/emvtrans.c **** //  Return          : N/A
1000:src/emvtrans.c **** //  Note            : N/A
1001:src/emvtrans.c **** //  Globals Changed : N/A
1002:src/emvtrans.c **** //******************************************************************************
1003:src/emvtrans.c **** DWORD EMVTrans(DWORD aTrans)
1004:src/emvtrans.c **** {
 2632              		.loc 1 1004 0
 2633              		.cfi_startproc
 2634              		@ args = 0, pretend = 0, frame = 0
 2635              		@ frame_needed = 0, uses_anonymous_args = 0
ARM GAS  C:\Users\AHMED~1.ELE\AppData\Local\Temp\cckRh1xc.s 			page 71


 2636              	.LVL291:
1005:src/emvtrans.c ****   BYTE next_action;
1006:src/emvtrans.c ****   
1007:src/emvtrans.c ****   INPUT.b_trans = (BYTE) aTrans;
1008:src/emvtrans.c ****   if (STIS_TERM_DATA.b_stis_mode < TRANS_MODE) {
 2637              		.loc 1 1008 0
 2638 0000 4F4B     		ldr	r3, .L294
1004:src/emvtrans.c ****   BYTE next_action;
 2639              		.loc 1 1004 0
 2640 0002 73B5     		push	{r0, r1, r4, r5, r6, lr}
 2641              		.cfi_def_cfa_offset 24
 2642              		.cfi_offset 4, -16
 2643              		.cfi_offset 5, -12
 2644              		.cfi_offset 6, -8
 2645              		.cfi_offset 14, -4
1007:src/emvtrans.c ****   if (STIS_TERM_DATA.b_stis_mode < TRANS_MODE) {
 2646              		.loc 1 1007 0
 2647 0004 4F4E     		ldr	r6, .L294+4
 2648              		.loc 1 1008 0
 2649 0006 1B68     		ldr	r3, [r3]
1007:src/emvtrans.c ****   if (STIS_TERM_DATA.b_stis_mode < TRANS_MODE) {
 2650              		.loc 1 1007 0
 2651 0008 3070     		strb	r0, [r6]
 2652              		.loc 1 1008 0
 2653 000a 93F85835 		ldrb	r3, [r3, #1368]	@ zero_extendqisi2
 2654 000e 3546     		mov	r5, r6
 2655 0010 012B     		cmp	r3, #1
 2656 0012 03D9     		bls	.L292
1009:src/emvtrans.c ****     DispErrorMsg(GetConstMsg(EDC_TU_NOT_ALLOW));
1010:src/emvtrans.c ****     return FALSE;
1011:src/emvtrans.c ****   }
1012:src/emvtrans.c **** 
1013:src/emvtrans.c ****   if (BlockLocalTrans()) {
 2657              		.loc 1 1013 0
 2658 0014 FFF7FEFF 		bl	BlockLocalTrans
 2659              	.LVL292:
 2660 0018 0446     		mov	r4, r0
 2661 001a 08B1     		cbz	r0, .L272
 2662              	.L292:
1014:src/emvtrans.c ****     DispErrorMsg(GetConstMsg(EDC_TU_NOT_ALLOW));
 2663              		.loc 1 1014 0
 2664 001c 2220     		movs	r0, #34
 2665 001e 10E0     		b	.L293
 2666              	.L272:
1015:src/emvtrans.c ****     return FALSE;
1016:src/emvtrans.c ****   }
1017:src/emvtrans.c **** 
1018:src/emvtrans.c ****   if (INPUT.b_trans==AUTH_ICC) {
 2667              		.loc 1 1018 0
 2668 0020 3378     		ldrb	r3, [r6]	@ zero_extendqisi2
 2669 0022 102B     		cmp	r3, #16
 2670 0024 08D1     		bne	.L273
1019:src/emvtrans.c ****     if (AuthBlocked()) {
 2671              		.loc 1 1019 0
 2672 0026 FFF7FEFF 		bl	AuthBlocked
 2673              	.LVL293:
 2674 002a 28B1     		cbz	r0, .L273
ARM GAS  C:\Users\AHMED~1.ELE\AppData\Local\Temp\cckRh1xc.s 			page 72


1020:src/emvtrans.c ****       DispErrorMsg(GetConstMsg(EDC_TU_NOT_ALLOW));
 2675              		.loc 1 1020 0
 2676 002c 2220     		movs	r0, #34
 2677 002e FFF7FEFF 		bl	GetConstMsg
 2678              	.LVL294:
 2679 0032 FFF7FEFF 		bl	DispErrorMsg
 2680              	.LVL295:
1021:src/emvtrans.c ****       return FALSE;
 2681              		.loc 1 1021 0
 2682 0036 7FE0     		b	.L271
 2683              	.L273:
1022:src/emvtrans.c ****     }
1023:src/emvtrans.c ****   }
1024:src/emvtrans.c **** 
1025:src/emvtrans.c ****   if (HostSettlePending() || APM_BatchFull(INPUT.w_host_idx)) {
 2684              		.loc 1 1025 0
 2685 0038 FFF7FEFF 		bl	HostSettlePending
 2686              	.LVL296:
 2687 003c 0346     		mov	r3, r0
 2688 003e 30B1     		cbz	r0, .L274
 2689              	.L275:
1026:src/emvtrans.c ****     DispErrorMsg(GetConstMsg(EDC_TU_CLOSE_BATCH));
 2690              		.loc 1 1026 0
 2691 0040 2320     		movs	r0, #35
 2692              	.L293:
 2693 0042 FFF7FEFF 		bl	GetConstMsg
 2694              	.LVL297:
1027:src/emvtrans.c ****     return FALSE;
 2695              		.loc 1 1027 0
 2696 0046 0024     		movs	r4, #0
1026:src/emvtrans.c ****     DispErrorMsg(GetConstMsg(EDC_TU_CLOSE_BATCH));
 2697              		.loc 1 1026 0
 2698 0048 FFF7FEFF 		bl	DispErrorMsg
 2699              	.LVL298:
 2700              		.loc 1 1027 0
 2701 004c 74E0     		b	.L271
 2702              	.L274:
1025:src/emvtrans.c ****     DispErrorMsg(GetConstMsg(EDC_TU_CLOSE_BATCH));
 2703              		.loc 1 1025 0 discriminator 1
 2704 004e B5F87620 		ldrh	r2, [r5, #118]
 2705 0052 2821     		movs	r1, #40
 2706 0054 0090     		str	r0, [sp]
 2707 0056 1020     		movs	r0, #16
 2708 0058 FFF7FEFF 		bl	lib_app_call
 2709              	.LVL299:
 2710 005c 394E     		ldr	r6, .L294+4
 2711 005e 0446     		mov	r4, r0
 2712 0060 0028     		cmp	r0, #0
 2713 0062 EDD1     		bne	.L275
1028:src/emvtrans.c ****   }
1029:src/emvtrans.c ****   if (!Expire_diff())
 2714              		.loc 1 1029 0
 2715 0064 FFF7FEFF 		bl	Expire_diff
 2716              	.LVL300:
 2717 0068 0028     		cmp	r0, #0
 2718 006a 65D0     		beq	.L271
1030:src/emvtrans.c ****     return FALSE;
ARM GAS  C:\Users\AHMED~1.ELE\AppData\Local\Temp\cckRh1xc.s 			page 73


1031:src/emvtrans.c **** 
1032:src/emvtrans.c ****   INPUT.b_entry_mode = ICC;
 2719              		.loc 1 1032 0
 2720 006c 4923     		movs	r3, #73
1033:src/emvtrans.c ****   RSP_DATA.b_response = TRANS_FAIL;
1034:src/emvtrans.c ****   RSP_DATA.w_rspcode = '5'*256+'1';
1035:src/emvtrans.c ****   GetEcrRef(FALSE);
 2721              		.loc 1 1035 0
 2722 006e 2046     		mov	r0, r4
1032:src/emvtrans.c ****   RSP_DATA.b_response = TRANS_FAIL;
 2723              		.loc 1 1032 0
 2724 0070 86F83430 		strb	r3, [r6, #52]
1033:src/emvtrans.c ****   RSP_DATA.b_response = TRANS_FAIL;
 2725              		.loc 1 1033 0
 2726 0074 0223     		movs	r3, #2
 2727 0076 86F80037 		strb	r3, [r6, #1792]
1034:src/emvtrans.c ****   GetEcrRef(FALSE);
 2728              		.loc 1 1034 0
 2729 007a 43F23153 		movw	r3, #13617
 2730 007e A6F86E35 		strh	r3, [r6, #1390]	@ movhi
 2731              		.loc 1 1035 0
 2732 0082 FFF7FEFF 		bl	GetEcrRef
 2733              	.LVL301:
1036:src/emvtrans.c **** 
1037:src/emvtrans.c ****   DispHeader(NULL); // show correct header
 2734              		.loc 1 1037 0
 2735 0086 2046     		mov	r0, r4
 2736 0088 FFF7FEFF 		bl	DispHeader
 2737              	.LVL302:
1038:src/emvtrans.c **** 
1039:src/emvtrans.c ****   DispClrBelowMW(MW_LINE3);
 2738              		.loc 1 1039 0
 2739 008c 2346     		mov	r3, r4
 2740 008e 2321     		movs	r1, #35
 2741 0090 4FF44072 		mov	r2, #768
 2742 0094 0094     		str	r4, [sp]
 2743 0096 0F20     		movs	r0, #15
 2744 0098 FFF7FEFF 		bl	lib_app_call
 2745              	.LVL303:
1040:src/emvtrans.c ****   Disp2x16Msg(GetConstMsg(EDC_EMV_PROCESSING),MW_LINE5, MW_BIGFONT);
 2746              		.loc 1 1040 0
 2747 009c 8720     		movs	r0, #135
 2748 009e FFF7FEFF 		bl	GetConstMsg
 2749              	.LVL304:
 2750 00a2 4FF4A061 		mov	r1, #1280
 2751 00a6 4FF48052 		mov	r2, #4096
 2752 00aa FFF7FEFF 		bl	Disp2x16Msg
 2753              	.LVL305:
1041:src/emvtrans.c ****   Short1Beep();
 2754              		.loc 1 1041 0
 2755 00ae FFF7FEFF 		bl	Short1Beep
 2756              	.LVL306:
1042:src/emvtrans.c ****   // no fallback if get processing option step performed
1043:src/emvtrans.c ****   //21-08-12 JC ++
1044:src/emvtrans.c ****   next_action = EMVProcess();
 2757              		.loc 1 1044 0
 2758 00b2 FFF7FEFF 		bl	EMVProcess
ARM GAS  C:\Users\AHMED~1.ELE\AppData\Local\Temp\cckRh1xc.s 			page 74


 2759              	.LVL307:
1045:src/emvtrans.c ****   if ((next_action != EMV_COMPLETE) &&
 2760              		.loc 1 1045 0
 2761 00b6 80B3     		cbz	r0, .L276
 2762              		.loc 1 1045 0 is_stmt 0 discriminator 1
 2763 00b8 0438     		subs	r0, r0, #4
 2764              	.LVL308:
 2765 00ba C0B2     		uxtb	r0, r0
 2766 00bc 0128     		cmp	r0, #1
 2767 00be 2CD9     		bls	.L276
1046:src/emvtrans.c ****       (next_action != EMV_ONLINE  ) &&
1047:src/emvtrans.c ****       (next_action != EMV_REFERRAL)) {
1048:src/emvtrans.c ****     if ((RSP_DATA.w_rspcode == 'S'*256+'C') ||
 2768              		.loc 1 1048 0 is_stmt 1
 2769 00c0 B6F86E35 		ldrh	r3, [r6, #1390]
 2770 00c4 45F24332 		movw	r2, #21315
 2771 00c8 9342     		cmp	r3, r2
 2772 00ca 0DD0     		beq	.L277
 2773              		.loc 1 1048 0 is_stmt 0 discriminator 1
 2774 00cc 44F64152 		movw	r2, #19777
 2775 00d0 9342     		cmp	r3, r2
 2776 00d2 09D0     		beq	.L277
1049:src/emvtrans.c ****         (RSP_DATA.w_rspcode == 'M'*256+'A') ||  // no matching application
1050:src/emvtrans.c ****         (RSP_DATA.w_rspcode == 'N'*256+'E') ||
 2777              		.loc 1 1050 0 is_stmt 1
 2778 00d4 45F24522 		movw	r2, #21061
 2779 00d8 9342     		cmp	r3, r2
 2780 00da 05D0     		beq	.L277
1051:src/emvtrans.c ****         (RSP_DATA.w_rspcode == 'R'*256+'E') ||
 2781              		.loc 1 1051 0
 2782 00dc 23F00403 		bic	r3, r3, #4
 2783 00e0 44F64162 		movw	r2, #20033
 2784 00e4 9342     		cmp	r3, r2
 2785 00e6 18D1     		bne	.L276
 2786              	.L277:
1052:src/emvtrans.c ****         (RSP_DATA.w_rspcode == 'N'*256+'A')) {
1053:src/emvtrans.c ****       os_sam_off();
 2787              		.loc 1 1053 0
 2788 00e8 C120     		movs	r0, #193
 2789 00ea FFF7FEFF 		bl	sys_func0
 2790              	.LVL309:
1054:src/emvtrans.c ****       if (GetCard(0, TRUE)) {
 2791              		.loc 1 1054 0
 2792 00ee 0020     		movs	r0, #0
 2793 00f0 0121     		movs	r1, #1
 2794 00f2 FFF7FEFF 		bl	GetCard
 2795              	.LVL310:
 2796 00f6 F0B1     		cbz	r0, .L282
1055:src/emvtrans.c ****         switch (INPUT.b_trans) {
 2797              		.loc 1 1055 0
 2798 00f8 2A78     		ldrb	r2, [r5]	@ zero_extendqisi2
 2799 00fa 124B     		ldr	r3, .L294+4
 2800 00fc 0F2A     		cmp	r2, #15
 2801 00fe 07D0     		beq	.L279
 2802 0100 19D3     		bcc	.L282
 2803 0102 112A     		cmp	r2, #17
 2804 0104 17D8     		bhi	.L282
ARM GAS  C:\Users\AHMED~1.ELE\AppData\Local\Temp\cckRh1xc.s 			page 75


1056:src/emvtrans.c ****           case AUTH_ICC:
1057:src/emvtrans.c ****           case REFUND_ICC:
1058:src/emvtrans.c ****             RSP_DATA.w_rspcode = '0'*256+'0';
 2805              		.loc 1 1058 0
 2806 0106 43F23002 		movw	r2, #12336
 2807 010a A3F86E25 		strh	r2, [r3, #1390]	@ movhi
 2808 010e 12E0     		b	.L282
 2809              	.L279:
1059:src/emvtrans.c ****             return TRUE;
1060:src/emvtrans.c ****           case SALE_ICC:
1061:src/emvtrans.c ****             SaleTrans(INPUT.b_entry_mode);
 2810              		.loc 1 1061 0
 2811 0110 93F83400 		ldrb	r0, [r3, #52]	@ zero_extendqisi2
 2812 0114 FFF7FEFF 		bl	SaleTrans
 2813              	.LVL311:
 2814 0118 0DE0     		b	.L282
 2815              	.L276:
1062:src/emvtrans.c ****             break;
1063:src/emvtrans.c ****           default:
1064:src/emvtrans.c ****             break;
1065:src/emvtrans.c ****         }
1066:src/emvtrans.c ****       }
1067:src/emvtrans.c ****       return TRUE;
1068:src/emvtrans.c ****     }
1069:src/emvtrans.c ****   }
1070:src/emvtrans.c ****   //21-08-12 JC --
1071:src/emvtrans.c **** 
1072:src/emvtrans.c ****   if (RSP_DATA.w_rspcode != '0'*256+'0')
 2816              		.loc 1 1072 0
 2817 011a B5F86E25 		ldrh	r2, [r5, #1390]
 2818 011e 43F23003 		movw	r3, #12336
 2819 0122 9A42     		cmp	r2, r3
 2820 0124 07D0     		beq	.L282
1073:src/emvtrans.c ****     TransEnd((BOOLEAN)(RSP_DATA.b_response == TRANS_ACP));
 2821              		.loc 1 1073 0
 2822 0126 074B     		ldr	r3, .L294+4
 2823 0128 93F80007 		ldrb	r0, [r3, #1792]	@ zero_extendqisi2
 2824 012c B0FA80F0 		clz	r0, r0
 2825 0130 4009     		lsrs	r0, r0, #5
 2826 0132 FFF7FEFF 		bl	TransEnd
 2827              	.LVL312:
 2828              	.L282:
1067:src/emvtrans.c ****     }
 2829              		.loc 1 1067 0
 2830 0136 0124     		movs	r4, #1
 2831              	.L271:
1074:src/emvtrans.c ****   return TRUE;
1075:src/emvtrans.c **** }
 2832              		.loc 1 1075 0
 2833 0138 2046     		mov	r0, r4
 2834 013a 02B0     		add	sp, sp, #8
 2835              		.cfi_def_cfa_offset 16
 2836              		@ sp needed
 2837 013c 70BD     		pop	{r4, r5, r6, pc}
 2838              	.L295:
 2839 013e 00BF     		.align	2
 2840              	.L294:
ARM GAS  C:\Users\AHMED~1.ELE\AppData\Local\Temp\cckRh1xc.s 			page 76


 2841 0140 00000000 		.word	gGDS
 2842 0144 00000000 		.word	gGTS
 2843              		.cfi_endproc
 2844              	.LFE23:
 2845              		.size	EMVTrans, .-EMVTrans
 2846              		.section	.text.EMVInit,"ax",%progbits
 2847              		.align	1
 2848              		.global	EMVInit
 2849              		.thumb
 2850              		.thumb_func
 2851              		.type	EMVInit, %function
 2852              	EMVInit:
 2853              	.LFB24:
1076:src/emvtrans.c **** //*****************************************************************************
1077:src/emvtrans.c **** //  Function        : EMVInit
1078:src/emvtrans.c **** //  Description     : Kernel initialization.
1079:src/emvtrans.c **** //  Input           : N/A
1080:src/emvtrans.c **** //  Return          : N/A
1081:src/emvtrans.c **** //  Note            : N/A
1082:src/emvtrans.c **** //  Globals Changed : N/A
1083:src/emvtrans.c **** //*****************************************************************************
1084:src/emvtrans.c **** void EMVInit(void)
1085:src/emvtrans.c **** {
 2854              		.loc 1 1085 0
 2855              		.cfi_startproc
 2856              		@ args = 0, pretend = 0, frame = 0
 2857              		@ frame_needed = 0, uses_anonymous_args = 0
 2858              	.LVL313:
 2859 0000 13B5     		push	{r0, r1, r4, lr}
 2860              		.cfi_def_cfa_offset 16
 2861              		.cfi_offset 4, -8
 2862              		.cfi_offset 14, -4
1086:src/emvtrans.c ****   BYTE init_mode=0;
1087:src/emvtrans.c **** 
1088:src/emvtrans.c ****   gGDS->s_EMVIn.bMsg[0] = 0xFF;     // customized message
 2863              		.loc 1 1088 0
 2864 0002 0F4C     		ldr	r4, .L297
 2865 0004 FF22     		movs	r2, #255
 2866 0006 2368     		ldr	r3, [r4]
1089:src/emvtrans.c ****   memcpy(&gGDS->s_EMVIn.bMsg[1], KPinMsg, sizeof(KPinMsg));
 2867              		.loc 1 1089 0
 2868 0008 0E49     		ldr	r1, .L297+4
1088:src/emvtrans.c ****   memcpy(&gGDS->s_EMVIn.bMsg[1], KPinMsg, sizeof(KPinMsg));
 2869              		.loc 1 1088 0
 2870 000a 03F55E53 		add	r3, r3, #14208
 2871 000e 5B68     		ldr	r3, [r3, #4]
 2872 0010 1A70     		strb	r2, [r3]
 2873              		.loc 1 1089 0
 2874 0012 2368     		ldr	r3, [r4]
 2875 0014 4922     		movs	r2, #73
 2876 0016 03F55E53 		add	r3, r3, #14208
 2877 001a 5868     		ldr	r0, [r3, #4]
 2878 001c 0130     		adds	r0, r0, #1
 2879 001e FFF7FEFF 		bl	memcpy
 2880              	.LVL314:
1090:src/emvtrans.c ****   gGDS->s_EMVIn.wLen = 1 + sizeof(KPinMsg);
 2881              		.loc 1 1090 0
ARM GAS  C:\Users\AHMED~1.ELE\AppData\Local\Temp\cckRh1xc.s 			page 77


 2882 0022 2368     		ldr	r3, [r4]
 2883 0024 4A21     		movs	r1, #74
 2884 0026 03F55E53 		add	r3, r3, #14208
 2885 002a 1A46     		mov	r2, r3
1091:src/emvtrans.c ****   init_mode |= BIT_PSE_SUPPORT;
1092:src/emvtrans.c ****   EMV_DllMsg(init_mode, &gGDS->s_EMVIn, &gGDS->s_EMVOut);
 2886              		.loc 1 1092 0
 2887 002c 0E20     		movs	r0, #14
1090:src/emvtrans.c ****   gGDS->s_EMVIn.wLen = 1 + sizeof(KPinMsg);
 2888              		.loc 1 1090 0
 2889 002e 22F8081B 		strh	r1, [r2], #8	@ movhi
 2890              	.LVL315:
 2891              		.loc 1 1092 0
 2892 0032 0121     		movs	r1, #1
 2893 0034 0092     		str	r2, [sp]
 2894 0036 8022     		movs	r2, #128
 2895 0038 FFF7FEFF 		bl	lib_app_call
 2896              	.LVL316:
1093:src/emvtrans.c **** }
 2897              		.loc 1 1093 0
 2898 003c 02B0     		add	sp, sp, #8
 2899              		.cfi_def_cfa_offset 8
 2900              		@ sp needed
 2901 003e 10BD     		pop	{r4, pc}
 2902              	.L298:
 2903              		.align	2
 2904              	.L297:
 2905 0040 00000000 		.word	gGDS
 2906 0044 42000000 		.word	.LANCHOR0+66
 2907              		.cfi_endproc
 2908              	.LFE24:
 2909              		.size	EMVInit, .-EMVInit
 2910              		.global	KPinMsg
 2911              		.global	wVMOnlineTags
 2912              		.comm	gIsMaestro,1,1
 2913              		.section	.rodata
 2914              		.align	1
 2915              		.set	.LANCHOR0,. + 0
 2916              	.LC1:
 2917 0000 A0000000 		.ascii	"\240\000\000\000\004\"\003\000"
 2917      04220300 
 2918              	.LC2:
 2919 0008 A0000000 		.ascii	"\240\000\000\000\0040`\000"
 2919      04306000 
 2920              		.type	wVMOnlineTags, %object
 2921              		.size	wVMOnlineTags, 46
 2922              	wVMOnlineTags:
 2923 0010 2A5F     		.short	24362
 2924 0012 345F     		.short	24372
 2925 0014 8200     		.short	130
 2926 0016 8400     		.short	132
 2927 0018 9500     		.short	149
 2928 001a 9A00     		.short	154
 2929 001c 9C00     		.short	156
 2930 001e 029F     		.short	-24830
 2931 0020 039F     		.short	-24829
 2932 0022 099F     		.short	-24823
ARM GAS  C:\Users\AHMED~1.ELE\AppData\Local\Temp\cckRh1xc.s 			page 78


 2933 0024 109F     		.short	-24816
 2934 0026 1A9F     		.short	-24806
 2935 0028 1E9F     		.short	-24802
 2936 002a 269F     		.short	-24794
 2937 002c 279F     		.short	-24793
 2938 002e 339F     		.short	-24781
 2939 0030 349F     		.short	-24780
 2940 0032 359F     		.short	-24779
 2941 0034 369F     		.short	-24778
 2942 0036 379F     		.short	-24777
 2943 0038 419F     		.short	-24767
 2944 003a 539F     		.short	-24749
 2945 003c 0000     		.short	0
 2946              	.LC12:
 2947 003e 9C010000 		.ascii	"\234\001\000\000"
 2948              	.LC16:
 2949 0042 2A2A2A2A 		.ascii	"**** Enter PIN ****\000---- PIN  OK ----\000 Incorr"
 2949      20456E74 
 2949      65722050 
 2949      494E202A 
 2949      2A2A2A00 
 2950 006f 65637420 		.ascii	"ect  PIN \000  Last PIN Try  \000\000"
 2950      2050494E 
 2950      20002020 
 2950      4C617374 
 2950      2050494E 
 2951              		.type	KPinMsg, %object
 2952              		.size	KPinMsg, 73
 2953              	KPinMsg:
 2954 008b 2A2A2A2A 		.ascii	"**** Enter PIN ****\000---- PIN  OK ----\000 Incorr"
 2954      20456E74 
 2954      65722050 
 2954      494E202A 
 2954      2A2A2A00 
 2955 00b8 65637420 		.ascii	"ect  PIN \000  Last PIN Try  \000\000"
 2955      2050494E 
 2955      20002020 
 2955      4C617374 
 2955      2050494E 
 2956              		.section	.rodata.str1.1,"aMS",%progbits,1
 2957              	.LC0:
 2958 0000 9F410300 		.ascii	"\237A\003\000"
 2959              	.LC3:
 2960 0004 496E00   		.ascii	"In\000"
 2961              	.LC4:
 2962 0007 4F757400 		.ascii	"Out\000"
 2963              	.LC5:
 2964 000b 1B46310A 		.ascii	"\033F1\012\000"
 2964      00
 2965              	.LC6:
 2966 0010 646C6C4D 		.ascii	"dllMsg(%d)-%s\012\000"
 2966      73672825 
 2966      64292D25 
 2966      730A00
 2967              	.LC7:
 2968 001f 25303258 		.ascii	"%02X \000"
 2968      2000
ARM GAS  C:\Users\AHMED~1.ELE\AppData\Local\Temp\cckRh1xc.s 			page 79


 2969              	.LC8:
 2970 0025 0A00     		.ascii	"\012\000"
 2971              	.LC9:
 2972 0027 593100   		.ascii	"Y1\000"
 2973              	.LC10:
 2974 002a 9F020600 		.ascii	"\237\002\006\000"
 2975              	.LC11:
 2976 002e 9F030600 		.ascii	"\237\003\006\000"
 2977              	.LC13:
 2978 0032 9C0100   		.ascii	"\234\001\000"
 2979              	.LC14:
 2980 0035 8A0200   		.ascii	"\212\002\000"
 2981              	.LC15:
 2982 0038 890600   		.ascii	"\211\006\000"
 2983              		.bss
 2984              		.set	.LANCHOR1,. + 0
 2985              		.type	bAcceptReferral, %object
 2986              		.size	bAcceptReferral, 1
 2987              	bAcceptReferral:
 2988 0000 00       		.space	1
 2989              		.type	abResp.12783, %object
 2990              		.size	abResp.12783, 4
 2991              	abResp.12783:
 2992 0001 00000000 		.space	4
 2993              		.text
 2994              	.Letext0:
 2995              		.file 2 "c:\\devtools\\gcc_v49_2014q4\\lib\\gcc\\arm-none-eabi\\4.9.3\\include\\stddef.h"
 2996              		.file 3 "../LibA5T1000/common.h"
 2997              		.file 4 "../LibA5T1000/midware.h"
 2998              		.file 5 "../LibA5T1000/system.h"
 2999              		.file 6 "../LibA5T1000/apm.h"
 3000              		.file 7 "src/sysutil.h"
 3001              		.file 8 "src/message.h"
 3002              		.file 9 "../LibA5T1000/emv2dll.h"
 3003              		.file 10 "../LibA5T1000/emvcl2dll.h"
 3004              		.file 11 "../LibA5T1000/ecrdll.h"
 3005              		.file 12 "src/corevar.h"
 3006              		.file 13 "src/constant.h"
 3007              		.file 14 "src/tranutil.h"
 3008              		.file 15 "src/hardware.h"
 3009              		.file 16 "src/tlvutil.h"
 3010              		.file 17 "src/record.h"
 3011              		.file 18 "c:\\devtools\\gcc_v49_2014q4\\arm-none-eabi\\include\\string.h"
 3012              		.file 19 "../LibA5T1000/util.h"
 3013              		.file 20 "src/lptutil.h"
 3014              		.file 21 "c:\\devtools\\gcc_v49_2014q4\\arm-none-eabi\\include\\stdio.h"
 3015              		.file 22 "src/input.h"
 3016              		.file 23 "src/chkoptn.h"
 3017              		.file 24 "src/keytrans.h"
 3018              		.file 25 "src/reversal.h"
 3019              		.file 26 "src/offline.h"
 3020              		.file 27 "src/hostmsg.h"
 3021              		.file 28 "src/sale.h"
 3022              		.section	.debug_info,"",%progbits
 3023              	.Ldebug_info0:
 3024 0000 5E470000 		.4byte	0x475e
 3025 0004 0400     		.2byte	0x4
ARM GAS  C:\Users\AHMED~1.ELE\AppData\Local\Temp\cckRh1xc.s 			page 80


 3026 0006 00000000 		.4byte	.Ldebug_abbrev0
 3027 000a 04       		.byte	0x4
 3028 000b 01       		.uleb128 0x1
 3029 000c F5330000 		.4byte	.LASF1159
 3030 0010 01       		.byte	0x1
 3031 0011 A6320000 		.4byte	.LASF1160
 3032 0015 43150000 		.4byte	.LASF1161
 3033 0019 30000000 		.4byte	.Ldebug_ranges0+0x30
 3034 001d 00000000 		.4byte	0
 3035 0021 00000000 		.4byte	.Ldebug_line0
 3036 0025 02       		.uleb128 0x2
 3037 0026 01       		.byte	0x1
 3038 0027 06       		.byte	0x6
 3039 0028 1B380000 		.4byte	.LASF0
 3040 002c 02       		.uleb128 0x2
 3041 002d 01       		.byte	0x1
 3042 002e 08       		.byte	0x8
 3043 002f E1210000 		.4byte	.LASF1
 3044 0033 02       		.uleb128 0x2
 3045 0034 02       		.byte	0x2
 3046 0035 05       		.byte	0x5
 3047 0036 5D2D0000 		.4byte	.LASF2
 3048 003a 02       		.uleb128 0x2
 3049 003b 02       		.byte	0x2
 3050 003c 07       		.byte	0x7
 3051 003d 121E0000 		.4byte	.LASF3
 3052 0041 02       		.uleb128 0x2
 3053 0042 04       		.byte	0x4
 3054 0043 05       		.byte	0x5
 3055 0044 64300000 		.4byte	.LASF4
 3056 0048 02       		.uleb128 0x2
 3057 0049 04       		.byte	0x4
 3058 004a 07       		.byte	0x7
 3059 004b 27010000 		.4byte	.LASF5
 3060 004f 02       		.uleb128 0x2
 3061 0050 08       		.byte	0x8
 3062 0051 05       		.byte	0x5
 3063 0052 24000000 		.4byte	.LASF6
 3064 0056 02       		.uleb128 0x2
 3065 0057 08       		.byte	0x8
 3066 0058 07       		.byte	0x7
 3067 0059 EF3A0000 		.4byte	.LASF7
 3068 005d 03       		.uleb128 0x3
 3069 005e 04       		.byte	0x4
 3070 005f 05       		.byte	0x5
 3071 0060 696E7400 		.ascii	"int\000"
 3072 0064 02       		.uleb128 0x2
 3073 0065 04       		.byte	0x4
 3074 0066 07       		.byte	0x7
 3075 0067 4E460000 		.4byte	.LASF8
 3076 006b 04       		.uleb128 0x4
 3077 006c F9090000 		.4byte	.LASF11
 3078 0070 02       		.byte	0x2
 3079 0071 D4       		.byte	0xd4
 3080 0072 64000000 		.4byte	0x64
 3081 0076 05       		.uleb128 0x5
 3082 0077 04       		.byte	0x4
ARM GAS  C:\Users\AHMED~1.ELE\AppData\Local\Temp\cckRh1xc.s 			page 81


 3083 0078 02       		.uleb128 0x2
 3084 0079 04       		.byte	0x4
 3085 007a 07       		.byte	0x7
 3086 007b 84320000 		.4byte	.LASF9
 3087 007f 06       		.uleb128 0x6
 3088 0080 04       		.byte	0x4
 3089 0081 85000000 		.4byte	0x85
 3090 0085 02       		.uleb128 0x2
 3091 0086 01       		.byte	0x1
 3092 0087 06       		.byte	0x6
 3093 0088 AC3E0000 		.4byte	.LASF10
 3094 008c 06       		.uleb128 0x6
 3095 008d 04       		.byte	0x4
 3096 008e 92000000 		.4byte	0x92
 3097 0092 07       		.uleb128 0x7
 3098 0093 85000000 		.4byte	0x85
 3099 0097 04       		.uleb128 0x4
 3100 0098 B1040000 		.4byte	.LASF12
 3101 009c 03       		.byte	0x3
 3102 009d 0D       		.byte	0xd
 3103 009e 2C000000 		.4byte	0x2c
 3104 00a2 04       		.uleb128 0x4
 3105 00a3 8B3A0000 		.4byte	.LASF13
 3106 00a7 03       		.byte	0x3
 3107 00a8 0E       		.byte	0xe
 3108 00a9 2C000000 		.4byte	0x2c
 3109 00ad 04       		.uleb128 0x4
 3110 00ae C11C0000 		.4byte	.LASF14
 3111 00b2 03       		.byte	0x3
 3112 00b3 0F       		.byte	0xf
 3113 00b4 3A000000 		.4byte	0x3a
 3114 00b8 04       		.uleb128 0x4
 3115 00b9 25220000 		.4byte	.LASF15
 3116 00bd 03       		.byte	0x3
 3117 00be 10       		.byte	0x10
 3118 00bf 64000000 		.4byte	0x64
 3119 00c3 04       		.uleb128 0x4
 3120 00c4 771E0000 		.4byte	.LASF16
 3121 00c8 03       		.byte	0x3
 3122 00c9 11       		.byte	0x11
 3123 00ca 56000000 		.4byte	0x56
 3124 00ce 06       		.uleb128 0x6
 3125 00cf 04       		.byte	0x4
 3126 00d0 D4000000 		.4byte	0xd4
 3127 00d4 07       		.uleb128 0x7
 3128 00d5 A2000000 		.4byte	0xa2
 3129 00d9 08       		.uleb128 0x8
 3130 00da A2000000 		.4byte	0xa2
 3131 00de E9000000 		.4byte	0xe9
 3132 00e2 09       		.uleb128 0x9
 3133 00e3 78000000 		.4byte	0x78
 3134 00e7 01       		.byte	0x1
 3135 00e8 00       		.byte	0
 3136 00e9 06       		.uleb128 0x6
 3137 00ea 04       		.byte	0x4
 3138 00eb A2000000 		.4byte	0xa2
 3139 00ef 08       		.uleb128 0x8
ARM GAS  C:\Users\AHMED~1.ELE\AppData\Local\Temp\cckRh1xc.s 			page 82


 3140 00f0 A2000000 		.4byte	0xa2
 3141 00f4 FF000000 		.4byte	0xff
 3142 00f8 09       		.uleb128 0x9
 3143 00f9 78000000 		.4byte	0x78
 3144 00fd 03       		.byte	0x3
 3145 00fe 00       		.byte	0
 3146 00ff 08       		.uleb128 0x8
 3147 0100 A2000000 		.4byte	0xa2
 3148 0104 0F010000 		.4byte	0x10f
 3149 0108 09       		.uleb128 0x9
 3150 0109 78000000 		.4byte	0x78
 3151 010d 09       		.byte	0x9
 3152 010e 00       		.byte	0
 3153 010f 08       		.uleb128 0x8
 3154 0110 A2000000 		.4byte	0xa2
 3155 0114 1F010000 		.4byte	0x11f
 3156 0118 09       		.uleb128 0x9
 3157 0119 78000000 		.4byte	0x78
 3158 011d 1F       		.byte	0x1f
 3159 011e 00       		.byte	0
 3160 011f 08       		.uleb128 0x8
 3161 0120 A2000000 		.4byte	0xa2
 3162 0124 2F010000 		.4byte	0x12f
 3163 0128 09       		.uleb128 0x9
 3164 0129 78000000 		.4byte	0x78
 3165 012d 0F       		.byte	0xf
 3166 012e 00       		.byte	0
 3167 012f 08       		.uleb128 0x8
 3168 0130 A2000000 		.4byte	0xa2
 3169 0134 3F010000 		.4byte	0x13f
 3170 0138 09       		.uleb128 0x9
 3171 0139 78000000 		.4byte	0x78
 3172 013d 07       		.byte	0x7
 3173 013e 00       		.byte	0
 3174 013f 08       		.uleb128 0x8
 3175 0140 A2000000 		.4byte	0xa2
 3176 0144 4F010000 		.4byte	0x14f
 3177 0148 09       		.uleb128 0x9
 3178 0149 78000000 		.4byte	0x78
 3179 014d 13       		.byte	0x13
 3180 014e 00       		.byte	0
 3181 014f 0A       		.uleb128 0xa
 3182 0150 6D0E0000 		.4byte	.LASF1162
 3183 0154 02       		.byte	0x2
 3184 0155 05       		.byte	0x5
 3185 0156 9A04     		.2byte	0x49a
 3186 0158 0C0E0000 		.4byte	0xe0c
 3187 015c 0B       		.uleb128 0xb
 3188 015d 41400000 		.4byte	.LASF17
 3189 0161 00       		.sleb128 0
 3190 0162 0B       		.uleb128 0xb
 3191 0163 CE090000 		.4byte	.LASF18
 3192 0167 01       		.sleb128 1
 3193 0168 0B       		.uleb128 0xb
 3194 0169 C3040000 		.4byte	.LASF19
 3195 016d 02       		.sleb128 2
 3196 016e 0B       		.uleb128 0xb
ARM GAS  C:\Users\AHMED~1.ELE\AppData\Local\Temp\cckRh1xc.s 			page 83


 3197 016f F00D0000 		.4byte	.LASF20
 3198 0173 03       		.sleb128 3
 3199 0174 0B       		.uleb128 0xb
 3200 0175 821F0000 		.4byte	.LASF21
 3201 0179 04       		.sleb128 4
 3202 017a 0B       		.uleb128 0xb
 3203 017b 3F230000 		.4byte	.LASF22
 3204 017f 05       		.sleb128 5
 3205 0180 0B       		.uleb128 0xb
 3206 0181 DC160000 		.4byte	.LASF23
 3207 0185 06       		.sleb128 6
 3208 0186 0B       		.uleb128 0xb
 3209 0187 E90B0000 		.4byte	.LASF24
 3210 018b 07       		.sleb128 7
 3211 018c 0B       		.uleb128 0xb
 3212 018d 6F210000 		.4byte	.LASF25
 3213 0191 08       		.sleb128 8
 3214 0192 0B       		.uleb128 0xb
 3215 0193 09190000 		.4byte	.LASF26
 3216 0197 09       		.sleb128 9
 3217 0198 0B       		.uleb128 0xb
 3218 0199 723F0000 		.4byte	.LASF27
 3219 019d 0A       		.sleb128 10
 3220 019e 0B       		.uleb128 0xb
 3221 019f 13220000 		.4byte	.LASF28
 3222 01a3 0B       		.sleb128 11
 3223 01a4 0B       		.uleb128 0xb
 3224 01a5 D60D0000 		.4byte	.LASF29
 3225 01a9 0C       		.sleb128 12
 3226 01aa 0B       		.uleb128 0xb
 3227 01ab 312B0000 		.4byte	.LASF30
 3228 01af 0D       		.sleb128 13
 3229 01b0 0B       		.uleb128 0xb
 3230 01b1 00450000 		.4byte	.LASF31
 3231 01b5 0E       		.sleb128 14
 3232 01b6 0B       		.uleb128 0xb
 3233 01b7 BE090000 		.4byte	.LASF32
 3234 01bb 0F       		.sleb128 15
 3235 01bc 0B       		.uleb128 0xb
 3236 01bd 85290000 		.4byte	.LASF33
 3237 01c1 10       		.sleb128 16
 3238 01c2 0B       		.uleb128 0xb
 3239 01c3 202F0000 		.4byte	.LASF34
 3240 01c7 11       		.sleb128 17
 3241 01c8 0B       		.uleb128 0xb
 3242 01c9 FE010000 		.4byte	.LASF35
 3243 01cd 12       		.sleb128 18
 3244 01ce 0B       		.uleb128 0xb
 3245 01cf 04290000 		.4byte	.LASF36
 3246 01d3 13       		.sleb128 19
 3247 01d4 0B       		.uleb128 0xb
 3248 01d5 B71F0000 		.4byte	.LASF37
 3249 01d9 14       		.sleb128 20
 3250 01da 0B       		.uleb128 0xb
 3251 01db 610A0000 		.4byte	.LASF38
 3252 01df 15       		.sleb128 21
 3253 01e0 0B       		.uleb128 0xb
ARM GAS  C:\Users\AHMED~1.ELE\AppData\Local\Temp\cckRh1xc.s 			page 84


 3254 01e1 FB020000 		.4byte	.LASF39
 3255 01e5 16       		.sleb128 22
 3256 01e6 0B       		.uleb128 0xb
 3257 01e7 5D030000 		.4byte	.LASF40
 3258 01eb 17       		.sleb128 23
 3259 01ec 0B       		.uleb128 0xb
 3260 01ed 31030000 		.4byte	.LASF41
 3261 01f1 18       		.sleb128 24
 3262 01f2 0B       		.uleb128 0xb
 3263 01f3 87390000 		.4byte	.LASF42
 3264 01f7 19       		.sleb128 25
 3265 01f8 0B       		.uleb128 0xb
 3266 01f9 14030000 		.4byte	.LASF43
 3267 01fd 1A       		.sleb128 26
 3268 01fe 0B       		.uleb128 0xb
 3269 01ff 4D030000 		.4byte	.LASF44
 3270 0203 1B       		.sleb128 27
 3271 0204 0B       		.uleb128 0xb
 3272 0205 97390000 		.4byte	.LASF45
 3273 0209 1C       		.sleb128 28
 3274 020a 0B       		.uleb128 0xb
 3275 020b CA190000 		.4byte	.LASF46
 3276 020f 1D       		.sleb128 29
 3277 0210 0B       		.uleb128 0xb
 3278 0211 0D320000 		.4byte	.LASF47
 3279 0215 1E       		.sleb128 30
 3280 0216 0B       		.uleb128 0xb
 3281 0217 5C2E0000 		.4byte	.LASF48
 3282 021b 1F       		.sleb128 31
 3283 021c 0B       		.uleb128 0xb
 3284 021d 011E0000 		.4byte	.LASF49
 3285 0221 20       		.sleb128 32
 3286 0222 0B       		.uleb128 0xb
 3287 0223 B7260000 		.4byte	.LASF50
 3288 0227 21       		.sleb128 33
 3289 0228 0B       		.uleb128 0xb
 3290 0229 ED0C0000 		.4byte	.LASF51
 3291 022d 22       		.sleb128 34
 3292 022e 0B       		.uleb128 0xb
 3293 022f D32A0000 		.4byte	.LASF52
 3294 0233 23       		.sleb128 35
 3295 0234 0B       		.uleb128 0xb
 3296 0235 B8310000 		.4byte	.LASF53
 3297 0239 24       		.sleb128 36
 3298 023a 0B       		.uleb128 0xb
 3299 023b CA2D0000 		.4byte	.LASF54
 3300 023f 25       		.sleb128 37
 3301 0240 0B       		.uleb128 0xb
 3302 0241 30120000 		.4byte	.LASF55
 3303 0245 26       		.sleb128 38
 3304 0246 0B       		.uleb128 0xb
 3305 0247 9A3B0000 		.4byte	.LASF56
 3306 024b 27       		.sleb128 39
 3307 024c 0B       		.uleb128 0xb
 3308 024d 43250000 		.4byte	.LASF57
 3309 0251 28       		.sleb128 40
 3310 0252 0B       		.uleb128 0xb
ARM GAS  C:\Users\AHMED~1.ELE\AppData\Local\Temp\cckRh1xc.s 			page 85


 3311 0253 B6150000 		.4byte	.LASF58
 3312 0257 29       		.sleb128 41
 3313 0258 0B       		.uleb128 0xb
 3314 0259 20360000 		.4byte	.LASF59
 3315 025d 2A       		.sleb128 42
 3316 025e 0B       		.uleb128 0xb
 3317 025f 8E040000 		.4byte	.LASF60
 3318 0263 2B       		.sleb128 43
 3319 0264 0B       		.uleb128 0xb
 3320 0265 E42B0000 		.4byte	.LASF61
 3321 0269 2C       		.sleb128 44
 3322 026a 0B       		.uleb128 0xb
 3323 026b C71F0000 		.4byte	.LASF62
 3324 026f 2D       		.sleb128 45
 3325 0270 0B       		.uleb128 0xb
 3326 0271 43080000 		.4byte	.LASF63
 3327 0275 2E       		.sleb128 46
 3328 0276 0B       		.uleb128 0xb
 3329 0277 481E0000 		.4byte	.LASF64
 3330 027b 2F       		.sleb128 47
 3331 027c 0B       		.uleb128 0xb
 3332 027d E3120000 		.4byte	.LASF65
 3333 0281 30       		.sleb128 48
 3334 0282 0B       		.uleb128 0xb
 3335 0283 0C3D0000 		.4byte	.LASF66
 3336 0287 31       		.sleb128 49
 3337 0288 0B       		.uleb128 0xb
 3338 0289 F50E0000 		.4byte	.LASF67
 3339 028d 32       		.sleb128 50
 3340 028e 0B       		.uleb128 0xb
 3341 028f 1F2E0000 		.4byte	.LASF68
 3342 0293 33       		.sleb128 51
 3343 0294 0B       		.uleb128 0xb
 3344 0295 0F450000 		.4byte	.LASF69
 3345 0299 34       		.sleb128 52
 3346 029a 0B       		.uleb128 0xb
 3347 029b BD420000 		.4byte	.LASF70
 3348 029f 35       		.sleb128 53
 3349 02a0 0B       		.uleb128 0xb
 3350 02a1 24370000 		.4byte	.LASF71
 3351 02a5 36       		.sleb128 54
 3352 02a6 0B       		.uleb128 0xb
 3353 02a7 C21A0000 		.4byte	.LASF72
 3354 02ab 37       		.sleb128 55
 3355 02ac 0B       		.uleb128 0xb
 3356 02ad 85190000 		.4byte	.LASF73
 3357 02b1 38       		.sleb128 56
 3358 02b2 0B       		.uleb128 0xb
 3359 02b3 0E0D0000 		.4byte	.LASF74
 3360 02b7 39       		.sleb128 57
 3361 02b8 0B       		.uleb128 0xb
 3362 02b9 A60B0000 		.4byte	.LASF75
 3363 02bd 3A       		.sleb128 58
 3364 02be 0B       		.uleb128 0xb
 3365 02bf 2E090000 		.4byte	.LASF76
 3366 02c3 3B       		.sleb128 59
 3367 02c4 0B       		.uleb128 0xb
ARM GAS  C:\Users\AHMED~1.ELE\AppData\Local\Temp\cckRh1xc.s 			page 86


 3368 02c5 AD270000 		.4byte	.LASF77
 3369 02c9 3C       		.sleb128 60
 3370 02ca 0B       		.uleb128 0xb
 3371 02cb 833F0000 		.4byte	.LASF78
 3372 02cf 3D       		.sleb128 61
 3373 02d0 0B       		.uleb128 0xb
 3374 02d1 10120000 		.4byte	.LASF79
 3375 02d5 3E       		.sleb128 62
 3376 02d6 0B       		.uleb128 0xb
 3377 02d7 13060000 		.4byte	.LASF80
 3378 02db 3F       		.sleb128 63
 3379 02dc 0B       		.uleb128 0xb
 3380 02dd 8F2D0000 		.4byte	.LASF81
 3381 02e1 C000     		.sleb128 64
 3382 02e3 0B       		.uleb128 0xb
 3383 02e4 5E130000 		.4byte	.LASF82
 3384 02e8 C100     		.sleb128 65
 3385 02ea 0B       		.uleb128 0xb
 3386 02eb DC060000 		.4byte	.LASF83
 3387 02ef C200     		.sleb128 66
 3388 02f1 0B       		.uleb128 0xb
 3389 02f2 53250000 		.4byte	.LASF84
 3390 02f6 C300     		.sleb128 67
 3391 02f8 0B       		.uleb128 0xb
 3392 02f9 B92E0000 		.4byte	.LASF85
 3393 02fd C400     		.sleb128 68
 3394 02ff 0B       		.uleb128 0xb
 3395 0300 A1150000 		.4byte	.LASF86
 3396 0304 C500     		.sleb128 69
 3397 0306 0B       		.uleb128 0xb
 3398 0307 EF440000 		.4byte	.LASF87
 3399 030b C600     		.sleb128 70
 3400 030d 0B       		.uleb128 0xb
 3401 030e 8D2B0000 		.4byte	.LASF88
 3402 0312 C700     		.sleb128 71
 3403 0314 0B       		.uleb128 0xb
 3404 0315 E03E0000 		.4byte	.LASF89
 3405 0319 C800     		.sleb128 72
 3406 031b 0B       		.uleb128 0xb
 3407 031c D0080000 		.4byte	.LASF90
 3408 0320 C900     		.sleb128 73
 3409 0322 0B       		.uleb128 0xb
 3410 0323 B13E0000 		.4byte	.LASF91
 3411 0327 CA00     		.sleb128 74
 3412 0329 0B       		.uleb128 0xb
 3413 032a 781F0000 		.4byte	.LASF92
 3414 032e CB00     		.sleb128 75
 3415 0330 0B       		.uleb128 0xb
 3416 0331 32270000 		.4byte	.LASF93
 3417 0335 CC00     		.sleb128 76
 3418 0337 0B       		.uleb128 0xb
 3419 0338 1E270000 		.4byte	.LASF94
 3420 033c CD00     		.sleb128 77
 3421 033e 0B       		.uleb128 0xb
 3422 033f A3080000 		.4byte	.LASF95
 3423 0343 CE00     		.sleb128 78
 3424 0345 0B       		.uleb128 0xb
ARM GAS  C:\Users\AHMED~1.ELE\AppData\Local\Temp\cckRh1xc.s 			page 87


 3425 0346 551F0000 		.4byte	.LASF96
 3426 034a CF00     		.sleb128 79
 3427 034c 0B       		.uleb128 0xb
 3428 034d 44270000 		.4byte	.LASF97
 3429 0351 D000     		.sleb128 80
 3430 0353 0B       		.uleb128 0xb
 3431 0354 06240000 		.4byte	.LASF98
 3432 0358 D100     		.sleb128 81
 3433 035a 0B       		.uleb128 0xb
 3434 035b 2A140000 		.4byte	.LASF99
 3435 035f D200     		.sleb128 82
 3436 0361 0B       		.uleb128 0xb
 3437 0362 591E0000 		.4byte	.LASF100
 3438 0366 D300     		.sleb128 83
 3439 0368 0B       		.uleb128 0xb
 3440 0369 CD260000 		.4byte	.LASF101
 3441 036d D400     		.sleb128 84
 3442 036f 0B       		.uleb128 0xb
 3443 0370 240C0000 		.4byte	.LASF102
 3444 0374 D500     		.sleb128 85
 3445 0376 0B       		.uleb128 0xb
 3446 0377 ED060000 		.4byte	.LASF103
 3447 037b D600     		.sleb128 86
 3448 037d 0B       		.uleb128 0xb
 3449 037e 090A0000 		.4byte	.LASF104
 3450 0382 D700     		.sleb128 87
 3451 0384 0B       		.uleb128 0xb
 3452 0385 6A2F0000 		.4byte	.LASF105
 3453 0389 D800     		.sleb128 88
 3454 038b 0B       		.uleb128 0xb
 3455 038c 753E0000 		.4byte	.LASF106
 3456 0390 D900     		.sleb128 89
 3457 0392 0B       		.uleb128 0xb
 3458 0393 D80B0000 		.4byte	.LASF107
 3459 0397 DA00     		.sleb128 90
 3460 0399 0B       		.uleb128 0xb
 3461 039a F12F0000 		.4byte	.LASF108
 3462 039e DB00     		.sleb128 91
 3463 03a0 0B       		.uleb128 0xb
 3464 03a1 7E0B0000 		.4byte	.LASF109
 3465 03a5 DC00     		.sleb128 92
 3466 03a7 0B       		.uleb128 0xb
 3467 03a8 490A0000 		.4byte	.LASF110
 3468 03ac DD00     		.sleb128 93
 3469 03ae 0B       		.uleb128 0xb
 3470 03af 43320000 		.4byte	.LASF111
 3471 03b3 DE00     		.sleb128 94
 3472 03b5 0B       		.uleb128 0xb
 3473 03b6 9F040000 		.4byte	.LASF112
 3474 03ba DF00     		.sleb128 95
 3475 03bc 0B       		.uleb128 0xb
 3476 03bd EE170000 		.4byte	.LASF113
 3477 03c1 E000     		.sleb128 96
 3478 03c3 0B       		.uleb128 0xb
 3479 03c4 B70F0000 		.4byte	.LASF114
 3480 03c8 E100     		.sleb128 97
 3481 03ca 0B       		.uleb128 0xb
ARM GAS  C:\Users\AHMED~1.ELE\AppData\Local\Temp\cckRh1xc.s 			page 88


 3482 03cb 9D110000 		.4byte	.LASF115
 3483 03cf E200     		.sleb128 98
 3484 03d1 0B       		.uleb128 0xb
 3485 03d2 A6430000 		.4byte	.LASF116
 3486 03d6 E300     		.sleb128 99
 3487 03d8 0B       		.uleb128 0xb
 3488 03d9 F6040000 		.4byte	.LASF117
 3489 03dd E400     		.sleb128 100
 3490 03df 0B       		.uleb128 0xb
 3491 03e0 9A3E0000 		.4byte	.LASF118
 3492 03e4 E500     		.sleb128 101
 3493 03e6 0B       		.uleb128 0xb
 3494 03e7 FD0A0000 		.4byte	.LASF119
 3495 03eb E600     		.sleb128 102
 3496 03ed 0B       		.uleb128 0xb
 3497 03ee D7140000 		.4byte	.LASF120
 3498 03f2 E700     		.sleb128 103
 3499 03f4 0B       		.uleb128 0xb
 3500 03f5 921F0000 		.4byte	.LASF121
 3501 03f9 E800     		.sleb128 104
 3502 03fb 0B       		.uleb128 0xb
 3503 03fc 302F0000 		.4byte	.LASF122
 3504 0400 E900     		.sleb128 105
 3505 0402 0B       		.uleb128 0xb
 3506 0403 DE1F0000 		.4byte	.LASF123
 3507 0407 EA00     		.sleb128 106
 3508 0409 0B       		.uleb128 0xb
 3509 040a 67100000 		.4byte	.LASF124
 3510 040e EB00     		.sleb128 107
 3511 0410 0B       		.uleb128 0xb
 3512 0411 29400000 		.4byte	.LASF125
 3513 0415 EC00     		.sleb128 108
 3514 0417 0B       		.uleb128 0xb
 3515 0418 C4160000 		.4byte	.LASF126
 3516 041c ED00     		.sleb128 109
 3517 041e 0B       		.uleb128 0xb
 3518 041f C30C0000 		.4byte	.LASF127
 3519 0423 EE00     		.sleb128 110
 3520 0425 0B       		.uleb128 0xb
 3521 0426 25110000 		.4byte	.LASF128
 3522 042a EF00     		.sleb128 111
 3523 042c 0B       		.uleb128 0xb
 3524 042d BB190000 		.4byte	.LASF129
 3525 0431 F000     		.sleb128 112
 3526 0433 0B       		.uleb128 0xb
 3527 0434 7A370000 		.4byte	.LASF130
 3528 0438 F100     		.sleb128 113
 3529 043a 0B       		.uleb128 0xb
 3530 043b BB000000 		.4byte	.LASF131
 3531 043f F200     		.sleb128 114
 3532 0441 0B       		.uleb128 0xb
 3533 0442 892C0000 		.4byte	.LASF132
 3534 0446 F300     		.sleb128 115
 3535 0448 0B       		.uleb128 0xb
 3536 0449 3B000000 		.4byte	.LASF133
 3537 044d F400     		.sleb128 116
 3538 044f 0B       		.uleb128 0xb
ARM GAS  C:\Users\AHMED~1.ELE\AppData\Local\Temp\cckRh1xc.s 			page 89


 3539 0450 3C180000 		.4byte	.LASF134
 3540 0454 F500     		.sleb128 117
 3541 0456 0B       		.uleb128 0xb
 3542 0457 87450000 		.4byte	.LASF135
 3543 045b F600     		.sleb128 118
 3544 045d 0B       		.uleb128 0xb
 3545 045e EA130000 		.4byte	.LASF136
 3546 0462 F700     		.sleb128 119
 3547 0464 0B       		.uleb128 0xb
 3548 0465 8F150000 		.4byte	.LASF137
 3549 0469 F800     		.sleb128 120
 3550 046b 0B       		.uleb128 0xb
 3551 046c 8A110000 		.4byte	.LASF138
 3552 0470 F900     		.sleb128 121
 3553 0472 0B       		.uleb128 0xb
 3554 0473 73150000 		.4byte	.LASF139
 3555 0477 FA00     		.sleb128 122
 3556 0479 0B       		.uleb128 0xb
 3557 047a C03B0000 		.4byte	.LASF140
 3558 047e FB00     		.sleb128 123
 3559 0480 0B       		.uleb128 0xb
 3560 0481 C91E0000 		.4byte	.LASF141
 3561 0485 FC00     		.sleb128 124
 3562 0487 0B       		.uleb128 0xb
 3563 0488 DC3D0000 		.4byte	.LASF142
 3564 048c FD00     		.sleb128 125
 3565 048e 0B       		.uleb128 0xb
 3566 048f D9330000 		.4byte	.LASF143
 3567 0493 FE00     		.sleb128 126
 3568 0495 0B       		.uleb128 0xb
 3569 0496 36450000 		.4byte	.LASF144
 3570 049a FF00     		.sleb128 127
 3571 049c 0B       		.uleb128 0xb
 3572 049d 24310000 		.4byte	.LASF145
 3573 04a1 8001     		.sleb128 128
 3574 04a3 0B       		.uleb128 0xb
 3575 04a4 930B0000 		.4byte	.LASF146
 3576 04a8 8101     		.sleb128 129
 3577 04aa 0B       		.uleb128 0xb
 3578 04ab 5D1D0000 		.4byte	.LASF147
 3579 04af 8201     		.sleb128 130
 3580 04b1 0B       		.uleb128 0xb
 3581 04b2 FC360000 		.4byte	.LASF148
 3582 04b6 8301     		.sleb128 131
 3583 04b8 0B       		.uleb128 0xb
 3584 04b9 EC160000 		.4byte	.LASF149
 3585 04bd 8401     		.sleb128 132
 3586 04bf 0B       		.uleb128 0xb
 3587 04c0 D20E0000 		.4byte	.LASF150
 3588 04c4 8501     		.sleb128 133
 3589 04c6 0B       		.uleb128 0xb
 3590 04c7 D32F0000 		.4byte	.LASF151
 3591 04cb 8601     		.sleb128 134
 3592 04cd 0B       		.uleb128 0xb
 3593 04ce 190A0000 		.4byte	.LASF152
 3594 04d2 8701     		.sleb128 135
 3595 04d4 0B       		.uleb128 0xb
ARM GAS  C:\Users\AHMED~1.ELE\AppData\Local\Temp\cckRh1xc.s 			page 90


 3596 04d5 D6270000 		.4byte	.LASF153
 3597 04d9 8801     		.sleb128 136
 3598 04db 0B       		.uleb128 0xb
 3599 04dc 05230000 		.4byte	.LASF154
 3600 04e0 8901     		.sleb128 137
 3601 04e2 0B       		.uleb128 0xb
 3602 04e3 66150000 		.4byte	.LASF155
 3603 04e7 8A01     		.sleb128 138
 3604 04e9 0B       		.uleb128 0xb
 3605 04ea 8F0C0000 		.4byte	.LASF156
 3606 04ee 8B01     		.sleb128 139
 3607 04f0 0B       		.uleb128 0xb
 3608 04f1 A5410000 		.4byte	.LASF157
 3609 04f5 8C01     		.sleb128 140
 3610 04f7 0B       		.uleb128 0xb
 3611 04f8 E6250000 		.4byte	.LASF158
 3612 04fc 8D01     		.sleb128 141
 3613 04fe 0B       		.uleb128 0xb
 3614 04ff 6D300000 		.4byte	.LASF159
 3615 0503 8E01     		.sleb128 142
 3616 0505 0B       		.uleb128 0xb
 3617 0506 A02C0000 		.4byte	.LASF160
 3618 050a 8F01     		.sleb128 143
 3619 050c 0B       		.uleb128 0xb
 3620 050d D6380000 		.4byte	.LASF161
 3621 0511 9001     		.sleb128 144
 3622 0513 0B       		.uleb128 0xb
 3623 0514 1E290000 		.4byte	.LASF162
 3624 0518 9101     		.sleb128 145
 3625 051a 0B       		.uleb128 0xb
 3626 051b AA170000 		.4byte	.LASF163
 3627 051f 9201     		.sleb128 146
 3628 0521 0B       		.uleb128 0xb
 3629 0522 6A0D0000 		.4byte	.LASF164
 3630 0526 9301     		.sleb128 147
 3631 0528 0B       		.uleb128 0xb
 3632 0529 45350000 		.4byte	.LASF165
 3633 052d 9401     		.sleb128 148
 3634 052f 0B       		.uleb128 0xb
 3635 0530 04440000 		.4byte	.LASF166
 3636 0534 9501     		.sleb128 149
 3637 0536 0B       		.uleb128 0xb
 3638 0537 251E0000 		.4byte	.LASF167
 3639 053b 9601     		.sleb128 150
 3640 053d 0B       		.uleb128 0xb
 3641 053e 60250000 		.4byte	.LASF168
 3642 0542 9701     		.sleb128 151
 3643 0544 0B       		.uleb128 0xb
 3644 0545 8B330000 		.4byte	.LASF169
 3645 0549 9801     		.sleb128 152
 3646 054b 0B       		.uleb128 0xb
 3647 054c E41A0000 		.4byte	.LASF170
 3648 0550 9901     		.sleb128 153
 3649 0552 0B       		.uleb128 0xb
 3650 0553 9B2B0000 		.4byte	.LASF171
 3651 0557 9A01     		.sleb128 154
 3652 0559 0B       		.uleb128 0xb
ARM GAS  C:\Users\AHMED~1.ELE\AppData\Local\Temp\cckRh1xc.s 			page 91


 3653 055a 9E050000 		.4byte	.LASF172
 3654 055e 9B01     		.sleb128 155
 3655 0560 0B       		.uleb128 0xb
 3656 0561 930F0000 		.4byte	.LASF173
 3657 0565 9C01     		.sleb128 156
 3658 0567 0B       		.uleb128 0xb
 3659 0568 96140000 		.4byte	.LASF174
 3660 056c 9D01     		.sleb128 157
 3661 056e 0B       		.uleb128 0xb
 3662 056f D2240000 		.4byte	.LASF175
 3663 0573 9E01     		.sleb128 158
 3664 0575 0B       		.uleb128 0xb
 3665 0576 F33C0000 		.4byte	.LASF176
 3666 057a 9F01     		.sleb128 159
 3667 057c 0B       		.uleb128 0xb
 3668 057d EE010000 		.4byte	.LASF177
 3669 0581 A001     		.sleb128 160
 3670 0583 0B       		.uleb128 0xb
 3671 0584 DB370000 		.4byte	.LASF178
 3672 0588 A101     		.sleb128 161
 3673 058a 0B       		.uleb128 0xb
 3674 058b 6A080000 		.4byte	.LASF179
 3675 058f A201     		.sleb128 162
 3676 0591 0B       		.uleb128 0xb
 3677 0592 A6120000 		.4byte	.LASF180
 3678 0596 A301     		.sleb128 163
 3679 0598 0B       		.uleb128 0xb
 3680 0599 413C0000 		.4byte	.LASF181
 3681 059d A401     		.sleb128 164
 3682 059f 0B       		.uleb128 0xb
 3683 05a0 E82C0000 		.4byte	.LASF182
 3684 05a4 A501     		.sleb128 165
 3685 05a6 0B       		.uleb128 0xb
 3686 05a7 AB230000 		.4byte	.LASF183
 3687 05ab A601     		.sleb128 166
 3688 05ad 0B       		.uleb128 0xb
 3689 05ae 15100000 		.4byte	.LASF184
 3690 05b2 A701     		.sleb128 167
 3691 05b4 0B       		.uleb128 0xb
 3692 05b5 7F060000 		.4byte	.LASF185
 3693 05b9 A801     		.sleb128 168
 3694 05bb 0B       		.uleb128 0xb
 3695 05bc 8B0A0000 		.4byte	.LASF186
 3696 05c0 A901     		.sleb128 169
 3697 05c2 0B       		.uleb128 0xb
 3698 05c3 EC1E0000 		.4byte	.LASF187
 3699 05c7 AA01     		.sleb128 170
 3700 05c9 0B       		.uleb128 0xb
 3701 05ca AB100000 		.4byte	.LASF188
 3702 05ce AB01     		.sleb128 171
 3703 05d0 0B       		.uleb128 0xb
 3704 05d1 6D280000 		.4byte	.LASF189
 3705 05d5 AC01     		.sleb128 172
 3706 05d7 0B       		.uleb128 0xb
 3707 05d8 41170000 		.4byte	.LASF190
 3708 05dc AD01     		.sleb128 173
 3709 05de 0B       		.uleb128 0xb
ARM GAS  C:\Users\AHMED~1.ELE\AppData\Local\Temp\cckRh1xc.s 			page 92


 3710 05df 91120000 		.4byte	.LASF191
 3711 05e3 AE01     		.sleb128 174
 3712 05e5 0B       		.uleb128 0xb
 3713 05e6 DC260000 		.4byte	.LASF192
 3714 05ea AF01     		.sleb128 175
 3715 05ec 0B       		.uleb128 0xb
 3716 05ed D9310000 		.4byte	.LASF193
 3717 05f1 B001     		.sleb128 176
 3718 05f3 0B       		.uleb128 0xb
 3719 05f4 75260000 		.4byte	.LASF194
 3720 05f8 B101     		.sleb128 177
 3721 05fa 0B       		.uleb128 0xb
 3722 05fb 02010000 		.4byte	.LASF195
 3723 05ff B201     		.sleb128 178
 3724 0601 0B       		.uleb128 0xb
 3725 0602 DB1E0000 		.4byte	.LASF196
 3726 0606 B301     		.sleb128 179
 3727 0608 0B       		.uleb128 0xb
 3728 0609 7E2D0000 		.4byte	.LASF197
 3729 060d B401     		.sleb128 180
 3730 060f 0B       		.uleb128 0xb
 3731 0610 0F3C0000 		.4byte	.LASF198
 3732 0614 B501     		.sleb128 181
 3733 0616 0B       		.uleb128 0xb
 3734 0617 94160000 		.4byte	.LASF199
 3735 061b B601     		.sleb128 182
 3736 061d 0B       		.uleb128 0xb
 3737 061e 79110000 		.4byte	.LASF200
 3738 0622 B701     		.sleb128 183
 3739 0624 0B       		.uleb128 0xb
 3740 0625 94460000 		.4byte	.LASF201
 3741 0629 B801     		.sleb128 184
 3742 062b 0B       		.uleb128 0xb
 3743 062c 00430000 		.4byte	.LASF202
 3744 0630 B901     		.sleb128 185
 3745 0632 0B       		.uleb128 0xb
 3746 0633 80130000 		.4byte	.LASF203
 3747 0637 BA01     		.sleb128 186
 3748 0639 0B       		.uleb128 0xb
 3749 063a A8010000 		.4byte	.LASF204
 3750 063e BB01     		.sleb128 187
 3751 0640 0B       		.uleb128 0xb
 3752 0641 FF140000 		.4byte	.LASF205
 3753 0645 BC01     		.sleb128 188
 3754 0647 0B       		.uleb128 0xb
 3755 0648 762E0000 		.4byte	.LASF206
 3756 064c BD01     		.sleb128 189
 3757 064e 0B       		.uleb128 0xb
 3758 064f D70F0000 		.4byte	.LASF207
 3759 0653 BE01     		.sleb128 190
 3760 0655 0B       		.uleb128 0xb
 3761 0656 D1200000 		.4byte	.LASF208
 3762 065a BF01     		.sleb128 191
 3763 065c 0B       		.uleb128 0xb
 3764 065d 00180000 		.4byte	.LASF209
 3765 0661 C001     		.sleb128 192
 3766 0663 0B       		.uleb128 0xb
ARM GAS  C:\Users\AHMED~1.ELE\AppData\Local\Temp\cckRh1xc.s 			page 93


 3767 0664 55420000 		.4byte	.LASF210
 3768 0668 C101     		.sleb128 193
 3769 066a 0B       		.uleb128 0xb
 3770 066b 451A0000 		.4byte	.LASF211
 3771 066f C201     		.sleb128 194
 3772 0671 0B       		.uleb128 0xb
 3773 0672 B4350000 		.4byte	.LASF212
 3774 0676 C301     		.sleb128 195
 3775 0678 0B       		.uleb128 0xb
 3776 0679 92220000 		.4byte	.LASF213
 3777 067d C401     		.sleb128 196
 3778 067f 0B       		.uleb128 0xb
 3779 0680 521A0000 		.4byte	.LASF214
 3780 0684 C501     		.sleb128 197
 3781 0686 0B       		.uleb128 0xb
 3782 0687 1E0F0000 		.4byte	.LASF215
 3783 068b C601     		.sleb128 198
 3784 068d 0B       		.uleb128 0xb
 3785 068e 44310000 		.4byte	.LASF216
 3786 0692 C701     		.sleb128 199
 3787 0694 0B       		.uleb128 0xb
 3788 0695 A51F0000 		.4byte	.LASF217
 3789 0699 C801     		.sleb128 200
 3790 069b 0B       		.uleb128 0xb
 3791 069c 11080000 		.4byte	.LASF218
 3792 06a0 C901     		.sleb128 201
 3793 06a2 0B       		.uleb128 0xb
 3794 06a3 A13C0000 		.4byte	.LASF219
 3795 06a7 CA01     		.sleb128 202
 3796 06a9 0B       		.uleb128 0xb
 3797 06aa 5E280000 		.4byte	.LASF220
 3798 06ae CB01     		.sleb128 203
 3799 06b0 0B       		.uleb128 0xb
 3800 06b1 9B210000 		.4byte	.LASF221
 3801 06b5 CC01     		.sleb128 204
 3802 06b7 0B       		.uleb128 0xb
 3803 06b8 2D290000 		.4byte	.LASF222
 3804 06bc CD01     		.sleb128 205
 3805 06be 0B       		.uleb128 0xb
 3806 06bf 9F3D0000 		.4byte	.LASF223
 3807 06c3 CE01     		.sleb128 206
 3808 06c5 0B       		.uleb128 0xb
 3809 06c6 351A0000 		.4byte	.LASF224
 3810 06ca CF01     		.sleb128 207
 3811 06cc 0B       		.uleb128 0xb
 3812 06cd 24080000 		.4byte	.LASF225
 3813 06d1 D001     		.sleb128 208
 3814 06d3 0B       		.uleb128 0xb
 3815 06d4 08100000 		.4byte	.LASF226
 3816 06d8 D101     		.sleb128 209
 3817 06da 0B       		.uleb128 0xb
 3818 06db 022F0000 		.4byte	.LASF227
 3819 06df D201     		.sleb128 210
 3820 06e1 0B       		.uleb128 0xb
 3821 06e2 13330000 		.4byte	.LASF228
 3822 06e6 D301     		.sleb128 211
 3823 06e8 0B       		.uleb128 0xb
ARM GAS  C:\Users\AHMED~1.ELE\AppData\Local\Temp\cckRh1xc.s 			page 94


 3824 06e9 780D0000 		.4byte	.LASF229
 3825 06ed D401     		.sleb128 212
 3826 06ef 0B       		.uleb128 0xb
 3827 06f0 E0220000 		.4byte	.LASF230
 3828 06f4 D501     		.sleb128 213
 3829 06f6 0B       		.uleb128 0xb
 3830 06f7 57370000 		.4byte	.LASF231
 3831 06fb D601     		.sleb128 214
 3832 06fd 0B       		.uleb128 0xb
 3833 06fe F5280000 		.4byte	.LASF232
 3834 0702 D701     		.sleb128 215
 3835 0704 0B       		.uleb128 0xb
 3836 0705 ED110000 		.4byte	.LASF233
 3837 0709 D801     		.sleb128 216
 3838 070b 0B       		.uleb128 0xb
 3839 070c 442E0000 		.4byte	.LASF234
 3840 0710 D901     		.sleb128 217
 3841 0712 0B       		.uleb128 0xb
 3842 0713 12350000 		.4byte	.LASF235
 3843 0717 DA01     		.sleb128 218
 3844 0719 0B       		.uleb128 0xb
 3845 071a B7170000 		.4byte	.LASF236
 3846 071e DB01     		.sleb128 219
 3847 0720 0B       		.uleb128 0xb
 3848 0721 64010000 		.4byte	.LASF237
 3849 0725 DC01     		.sleb128 220
 3850 0727 0B       		.uleb128 0xb
 3851 0728 3F360000 		.4byte	.LASF238
 3852 072c DD01     		.sleb128 221
 3853 072e 0B       		.uleb128 0xb
 3854 072f 66450000 		.4byte	.LASF239
 3855 0733 DE01     		.sleb128 222
 3856 0735 0B       		.uleb128 0xb
 3857 0736 A5130000 		.4byte	.LASF240
 3858 073a DF01     		.sleb128 223
 3859 073c 0B       		.uleb128 0xb
 3860 073d 8D180000 		.4byte	.LASF241
 3861 0741 E001     		.sleb128 224
 3862 0743 0B       		.uleb128 0xb
 3863 0744 883D0000 		.4byte	.LASF242
 3864 0748 E101     		.sleb128 225
 3865 074a 0B       		.uleb128 0xb
 3866 074b 6F1D0000 		.4byte	.LASF243
 3867 074f E201     		.sleb128 226
 3868 0751 0B       		.uleb128 0xb
 3869 0752 7E010000 		.4byte	.LASF244
 3870 0756 E301     		.sleb128 227
 3871 0758 0B       		.uleb128 0xb
 3872 0759 F0000000 		.4byte	.LASF245
 3873 075d E401     		.sleb128 228
 3874 075f 0B       		.uleb128 0xb
 3875 0760 66110000 		.4byte	.LASF246
 3876 0764 E501     		.sleb128 229
 3877 0766 0B       		.uleb128 0xb
 3878 0767 FE060000 		.4byte	.LASF247
 3879 076b E601     		.sleb128 230
 3880 076d 0B       		.uleb128 0xb
ARM GAS  C:\Users\AHMED~1.ELE\AppData\Local\Temp\cckRh1xc.s 			page 95


 3881 076e 2D190000 		.4byte	.LASF248
 3882 0772 E701     		.sleb128 231
 3883 0774 0B       		.uleb128 0xb
 3884 0775 102B0000 		.4byte	.LASF249
 3885 0779 E801     		.sleb128 232
 3886 077b 0B       		.uleb128 0xb
 3887 077c 491B0000 		.4byte	.LASF250
 3888 0780 E901     		.sleb128 233
 3889 0782 0B       		.uleb128 0xb
 3890 0783 AA3F0000 		.4byte	.LASF251
 3891 0787 EA01     		.sleb128 234
 3892 0789 0B       		.uleb128 0xb
 3893 078a 4F270000 		.4byte	.LASF252
 3894 078e EB01     		.sleb128 235
 3895 0790 0B       		.uleb128 0xb
 3896 0791 41330000 		.4byte	.LASF253
 3897 0795 EC01     		.sleb128 236
 3898 0797 0B       		.uleb128 0xb
 3899 0798 79390000 		.4byte	.LASF254
 3900 079c ED01     		.sleb128 237
 3901 079e 0B       		.uleb128 0xb
 3902 079f 242B0000 		.4byte	.LASF255
 3903 07a3 EE01     		.sleb128 238
 3904 07a5 0B       		.uleb128 0xb
 3905 07a6 73240000 		.4byte	.LASF256
 3906 07aa EF01     		.sleb128 239
 3907 07ac 0B       		.uleb128 0xb
 3908 07ad 002A0000 		.4byte	.LASF257
 3909 07b1 F001     		.sleb128 240
 3910 07b3 0B       		.uleb128 0xb
 3911 07b4 5A1C0000 		.4byte	.LASF258
 3912 07b8 F101     		.sleb128 241
 3913 07ba 0B       		.uleb128 0xb
 3914 07bb 97420000 		.4byte	.LASF259
 3915 07bf F201     		.sleb128 242
 3916 07c1 0B       		.uleb128 0xb
 3917 07c2 DA110000 		.4byte	.LASF260
 3918 07c6 F301     		.sleb128 243
 3919 07c8 0B       		.uleb128 0xb
 3920 07c9 E4200000 		.4byte	.LASF261
 3921 07cd F401     		.sleb128 244
 3922 07cf 0B       		.uleb128 0xb
 3923 07d0 71320000 		.4byte	.LASF262
 3924 07d4 F501     		.sleb128 245
 3925 07d6 0B       		.uleb128 0xb
 3926 07d7 32350000 		.4byte	.LASF263
 3927 07db F601     		.sleb128 246
 3928 07dd 0B       		.uleb128 0xb
 3929 07de 562C0000 		.4byte	.LASF264
 3930 07e2 F701     		.sleb128 247
 3931 07e4 0B       		.uleb128 0xb
 3932 07e5 1F0D0000 		.4byte	.LASF265
 3933 07e9 F801     		.sleb128 248
 3934 07eb 0B       		.uleb128 0xb
 3935 07ec 8B170000 		.4byte	.LASF266
 3936 07f0 F901     		.sleb128 249
 3937 07f2 0B       		.uleb128 0xb
ARM GAS  C:\Users\AHMED~1.ELE\AppData\Local\Temp\cckRh1xc.s 			page 96


 3938 07f3 50390000 		.4byte	.LASF267
 3939 07f7 FA01     		.sleb128 250
 3940 07f9 0B       		.uleb128 0xb
 3941 07fa F51A0000 		.4byte	.LASF268
 3942 07fe FB01     		.sleb128 251
 3943 0800 0B       		.uleb128 0xb
 3944 0801 16040000 		.4byte	.LASF269
 3945 0805 FC01     		.sleb128 252
 3946 0807 0B       		.uleb128 0xb
 3947 0808 0F2A0000 		.4byte	.LASF270
 3948 080c FD01     		.sleb128 253
 3949 080e 0B       		.uleb128 0xb
 3950 080f DA350000 		.4byte	.LASF271
 3951 0813 FE01     		.sleb128 254
 3952 0815 0B       		.uleb128 0xb
 3953 0816 433B0000 		.4byte	.LASF272
 3954 081a FF01     		.sleb128 255
 3955 081c 0B       		.uleb128 0xb
 3956 081d EF210000 		.4byte	.LASF273
 3957 0821 8002     		.sleb128 256
 3958 0823 0B       		.uleb128 0xb
 3959 0824 0C110000 		.4byte	.LASF274
 3960 0828 8102     		.sleb128 257
 3961 082a 0B       		.uleb128 0xb
 3962 082b 343F0000 		.4byte	.LASF275
 3963 082f 8202     		.sleb128 258
 3964 0831 0B       		.uleb128 0xb
 3965 0832 931E0000 		.4byte	.LASF276
 3966 0836 8302     		.sleb128 259
 3967 0838 0B       		.uleb128 0xb
 3968 0839 93130000 		.4byte	.LASF277
 3969 083d 8402     		.sleb128 260
 3970 083f 0B       		.uleb128 0xb
 3971 0840 7B400000 		.4byte	.LASF278
 3972 0844 8502     		.sleb128 261
 3973 0846 0B       		.uleb128 0xb
 3974 0847 B40E0000 		.4byte	.LASF279
 3975 084b 8602     		.sleb128 262
 3976 084d 0B       		.uleb128 0xb
 3977 084e 81280000 		.4byte	.LASF280
 3978 0852 8702     		.sleb128 263
 3979 0854 0B       		.uleb128 0xb
 3980 0855 871C0000 		.4byte	.LASF281
 3981 0859 8802     		.sleb128 264
 3982 085b 0B       		.uleb128 0xb
 3983 085c 0F160000 		.4byte	.LASF282
 3984 0860 8902     		.sleb128 265
 3985 0862 0B       		.uleb128 0xb
 3986 0863 77450000 		.4byte	.LASF283
 3987 0867 8A02     		.sleb128 266
 3988 0869 0B       		.uleb128 0xb
 3989 086a 40390000 		.4byte	.LASF284
 3990 086e 8B02     		.sleb128 267
 3991 0870 0B       		.uleb128 0xb
 3992 0871 59160000 		.4byte	.LASF285
 3993 0875 8C02     		.sleb128 268
 3994 0877 0B       		.uleb128 0xb
ARM GAS  C:\Users\AHMED~1.ELE\AppData\Local\Temp\cckRh1xc.s 			page 97


 3995 0878 FC100000 		.4byte	.LASF286
 3996 087c 8D02     		.sleb128 269
 3997 087e 0B       		.uleb128 0xb
 3998 087f 5F090000 		.4byte	.LASF287
 3999 0883 8E02     		.sleb128 270
 4000 0885 0B       		.uleb128 0xb
 4001 0886 2B210000 		.4byte	.LASF288
 4002 088a 8F02     		.sleb128 271
 4003 088c 0B       		.uleb128 0xb
 4004 088d 302E0000 		.4byte	.LASF289
 4005 0891 9002     		.sleb128 272
 4006 0893 0B       		.uleb128 0xb
 4007 0894 DA440000 		.4byte	.LASF290
 4008 0898 9102     		.sleb128 273
 4009 089a 0B       		.uleb128 0xb
 4010 089b 6C1A0000 		.4byte	.LASF291
 4011 089f 9202     		.sleb128 274
 4012 08a1 0B       		.uleb128 0xb
 4013 08a2 490C0000 		.4byte	.LASF292
 4014 08a6 9302     		.sleb128 275
 4015 08a8 0B       		.uleb128 0xb
 4016 08a9 15010000 		.4byte	.LASF293
 4017 08ad 9402     		.sleb128 276
 4018 08af 0B       		.uleb128 0xb
 4019 08b0 A5260000 		.4byte	.LASF294
 4020 08b4 9502     		.sleb128 277
 4021 08b6 0B       		.uleb128 0xb
 4022 08b7 342C0000 		.4byte	.LASF295
 4023 08bb 9602     		.sleb128 278
 4024 08bd 0B       		.uleb128 0xb
 4025 08be FA250000 		.4byte	.LASF296
 4026 08c2 9702     		.sleb128 279
 4027 08c4 0B       		.uleb128 0xb
 4028 08c5 96320000 		.4byte	.LASF297
 4029 08c9 9802     		.sleb128 280
 4030 08cb 0B       		.uleb128 0xb
 4031 08cc 9A2F0000 		.4byte	.LASF298
 4032 08d0 9902     		.sleb128 281
 4033 08d2 0B       		.uleb128 0xb
 4034 08d3 AA3A0000 		.4byte	.LASF299
 4035 08d7 9A02     		.sleb128 282
 4036 08d9 0B       		.uleb128 0xb
 4037 08da 84410000 		.4byte	.LASF300
 4038 08de 9B02     		.sleb128 283
 4039 08e0 0B       		.uleb128 0xb
 4040 08e1 10070000 		.4byte	.LASF301
 4041 08e5 9C02     		.sleb128 284
 4042 08e7 0B       		.uleb128 0xb
 4043 08e8 5D240000 		.4byte	.LASF302
 4044 08ec 9D02     		.sleb128 285
 4045 08ee 0B       		.uleb128 0xb
 4046 08ef 93060000 		.4byte	.LASF303
 4047 08f3 9E02     		.sleb128 286
 4048 08f5 0B       		.uleb128 0xb
 4049 08f6 29260000 		.4byte	.LASF304
 4050 08fa 9F02     		.sleb128 287
 4051 08fc 0B       		.uleb128 0xb
ARM GAS  C:\Users\AHMED~1.ELE\AppData\Local\Temp\cckRh1xc.s 			page 98


 4052 08fd 42210000 		.4byte	.LASF305
 4053 0901 A002     		.sleb128 288
 4054 0903 0B       		.uleb128 0xb
 4055 0904 ED320000 		.4byte	.LASF306
 4056 0908 A102     		.sleb128 289
 4057 090a 0B       		.uleb128 0xb
 4058 090b 83300000 		.4byte	.LASF307
 4059 090f A202     		.sleb128 290
 4060 0911 0B       		.uleb128 0xb
 4061 0912 892F0000 		.4byte	.LASF308
 4062 0916 A302     		.sleb128 291
 4063 0918 0B       		.uleb128 0xb
 4064 0919 0F0B0000 		.4byte	.LASF309
 4065 091d A402     		.sleb128 292
 4066 091f 0B       		.uleb128 0xb
 4067 0920 DE1D0000 		.4byte	.LASF310
 4068 0924 A502     		.sleb128 293
 4069 0926 0B       		.uleb128 0xb
 4070 0927 D40A0000 		.4byte	.LASF311
 4071 092b A602     		.sleb128 294
 4072 092d 0B       		.uleb128 0xb
 4073 092e BE270000 		.4byte	.LASF312
 4074 0932 A702     		.sleb128 295
 4075 0934 0B       		.uleb128 0xb
 4076 0935 25200000 		.4byte	.LASF313
 4077 0939 A802     		.sleb128 296
 4078 093b 0B       		.uleb128 0xb
 4079 093c 0D180000 		.4byte	.LASF314
 4080 0940 A902     		.sleb128 297
 4081 0942 0B       		.uleb128 0xb
 4082 0943 B4130000 		.4byte	.LASF315
 4083 0947 AA02     		.sleb128 298
 4084 0949 0B       		.uleb128 0xb
 4085 094a EE290000 		.4byte	.LASF316
 4086 094e AB02     		.sleb128 299
 4087 0950 0B       		.uleb128 0xb
 4088 0951 46370000 		.4byte	.LASF317
 4089 0955 AC02     		.sleb128 300
 4090 0957 0B       		.uleb128 0xb
 4091 0958 72250000 		.4byte	.LASF318
 4092 095c AD02     		.sleb128 301
 4093 095e 0B       		.uleb128 0xb
 4094 095f 011D0000 		.4byte	.LASF319
 4095 0963 AE02     		.sleb128 302
 4096 0965 0B       		.uleb128 0xb
 4097 0966 0D400000 		.4byte	.LASF320
 4098 096a AF02     		.sleb128 303
 4099 096c 0B       		.uleb128 0xb
 4100 096d 74290000 		.4byte	.LASF321
 4101 0971 B002     		.sleb128 304
 4102 0973 0B       		.uleb128 0xb
 4103 0974 323B0000 		.4byte	.LASF322
 4104 0978 B102     		.sleb128 305
 4105 097a 0B       		.uleb128 0xb
 4106 097b 873E0000 		.4byte	.LASF323
 4107 097f B202     		.sleb128 306
 4108 0981 0B       		.uleb128 0xb
ARM GAS  C:\Users\AHMED~1.ELE\AppData\Local\Temp\cckRh1xc.s 			page 99


 4109 0982 F60F0000 		.4byte	.LASF324
 4110 0986 B302     		.sleb128 307
 4111 0988 0B       		.uleb128 0xb
 4112 0989 D50C0000 		.4byte	.LASF325
 4113 098d B402     		.sleb128 308
 4114 098f 0B       		.uleb128 0xb
 4115 0990 C5130000 		.4byte	.LASF326
 4116 0994 B502     		.sleb128 309
 4117 0996 0B       		.uleb128 0xb
 4118 0997 BC010000 		.4byte	.LASF327
 4119 099b B602     		.sleb128 310
 4120 099d 0B       		.uleb128 0xb
 4121 099e 281B0000 		.4byte	.LASF328
 4122 09a2 B702     		.sleb128 311
 4123 09a4 0B       		.uleb128 0xb
 4124 09a5 88440000 		.4byte	.LASF329
 4125 09a9 B802     		.sleb128 312
 4126 09ab 0B       		.uleb128 0xb
 4127 09ac 56440000 		.4byte	.LASF330
 4128 09b0 B902     		.sleb128 313
 4129 09b2 0B       		.uleb128 0xb
 4130 09b3 673D0000 		.4byte	.LASF331
 4131 09b7 BA02     		.sleb128 314
 4132 09b9 0B       		.uleb128 0xb
 4133 09ba 6F180000 		.4byte	.LASF332
 4134 09be BB02     		.sleb128 315
 4135 09c0 0B       		.uleb128 0xb
 4136 09c1 E9100000 		.4byte	.LASF333
 4137 09c5 BC02     		.sleb128 316
 4138 09c7 0B       		.uleb128 0xb
 4139 09c8 080C0000 		.4byte	.LASF334
 4140 09cc BD02     		.sleb128 317
 4141 09ce 0B       		.uleb128 0xb
 4142 09cf AD2B0000 		.4byte	.LASF335
 4143 09d3 BE02     		.sleb128 318
 4144 09d5 0B       		.uleb128 0xb
 4145 09d6 CD420000 		.4byte	.LASF336
 4146 09da BF02     		.sleb128 319
 4147 09dc 0B       		.uleb128 0xb
 4148 09dd 7F1D0000 		.4byte	.LASF337
 4149 09e1 C002     		.sleb128 320
 4150 09e3 0B       		.uleb128 0xb
 4151 09e4 9E440000 		.4byte	.LASF338
 4152 09e8 C102     		.sleb128 321
 4153 09ea 0B       		.uleb128 0xb
 4154 09eb 08210000 		.4byte	.LASF339
 4155 09ef C202     		.sleb128 322
 4156 09f1 0B       		.uleb128 0xb
 4157 09f2 0C170000 		.4byte	.LASF340
 4158 09f6 C302     		.sleb128 323
 4159 09f8 0B       		.uleb128 0xb
 4160 09f9 E8390000 		.4byte	.LASF341
 4161 09fd C402     		.sleb128 324
 4162 09ff 0B       		.uleb128 0xb
 4163 0a00 E8420000 		.4byte	.LASF342
 4164 0a04 C502     		.sleb128 325
 4165 0a06 0B       		.uleb128 0xb
ARM GAS  C:\Users\AHMED~1.ELE\AppData\Local\Temp\cckRh1xc.s 			page 100


 4166 0a07 E9360000 		.4byte	.LASF343
 4167 0a0b C602     		.sleb128 326
 4168 0a0d 0B       		.uleb128 0xb
 4169 0a0e A3070000 		.4byte	.LASF344
 4170 0a12 C702     		.sleb128 327
 4171 0a14 0B       		.uleb128 0xb
 4172 0a15 2B150000 		.4byte	.LASF345
 4173 0a19 C802     		.sleb128 328
 4174 0a1b 0B       		.uleb128 0xb
 4175 0a1c E6140000 		.4byte	.LASF346
 4176 0a20 C902     		.sleb128 329
 4177 0a22 0B       		.uleb128 0xb
 4178 0a23 B5120000 		.4byte	.LASF347
 4179 0a27 CA02     		.sleb128 330
 4180 0a29 0B       		.uleb128 0xb
 4181 0a2a 7A070000 		.4byte	.LASF348
 4182 0a2e CB02     		.sleb128 331
 4183 0a30 0B       		.uleb128 0xb
 4184 0a31 503F0000 		.4byte	.LASF349
 4185 0a35 CC02     		.sleb128 332
 4186 0a37 0B       		.uleb128 0xb
 4187 0a38 AD370000 		.4byte	.LASF350
 4188 0a3c CD02     		.sleb128 333
 4189 0a3e 0B       		.uleb128 0xb
 4190 0a3f AF300000 		.4byte	.LASF351
 4191 0a43 CE02     		.sleb128 334
 4192 0a45 0B       		.uleb128 0xb
 4193 0a46 B2390000 		.4byte	.LASF352
 4194 0a4a CF02     		.sleb128 335
 4195 0a4c 0B       		.uleb128 0xb
 4196 0a4d B5320000 		.4byte	.LASF353
 4197 0a51 D002     		.sleb128 336
 4198 0a53 0B       		.uleb128 0xb
 4199 0a54 9F1A0000 		.4byte	.LASF354
 4200 0a58 D102     		.sleb128 337
 4201 0a5a 0B       		.uleb128 0xb
 4202 0a5b 20120000 		.4byte	.LASF355
 4203 0a5f D202     		.sleb128 338
 4204 0a61 0B       		.uleb128 0xb
 4205 0a62 C00D0000 		.4byte	.LASF356
 4206 0a66 D302     		.sleb128 339
 4207 0a68 0B       		.uleb128 0xb
 4208 0a69 EF3F0000 		.4byte	.LASF357
 4209 0a6d D402     		.sleb128 340
 4210 0a6f 0B       		.uleb128 0xb
 4211 0a70 14130000 		.4byte	.LASF358
 4212 0a74 D502     		.sleb128 341
 4213 0a76 0B       		.uleb128 0xb
 4214 0a77 24460000 		.4byte	.LASF359
 4215 0a7b D602     		.sleb128 342
 4216 0a7d 0B       		.uleb128 0xb
 4217 0a7e 451C0000 		.4byte	.LASF360
 4218 0a82 D702     		.sleb128 343
 4219 0a84 0B       		.uleb128 0xb
 4220 0a85 64190000 		.4byte	.LASF361
 4221 0a89 D802     		.sleb128 344
 4222 0a8b 0B       		.uleb128 0xb
ARM GAS  C:\Users\AHMED~1.ELE\AppData\Local\Temp\cckRh1xc.s 			page 101


 4223 0a8c C43F0000 		.4byte	.LASF362
 4224 0a90 D902     		.sleb128 345
 4225 0a92 0B       		.uleb128 0xb
 4226 0a93 19300000 		.4byte	.LASF363
 4227 0a97 DA02     		.sleb128 346
 4228 0a99 0B       		.uleb128 0xb
 4229 0a9a A8190000 		.4byte	.LASF364
 4230 0a9e DB02     		.sleb128 347
 4231 0aa0 0B       		.uleb128 0xb
 4232 0aa1 421F0000 		.4byte	.LASF365
 4233 0aa5 DC02     		.sleb128 348
 4234 0aa7 0B       		.uleb128 0xb
 4235 0aa8 6A380000 		.4byte	.LASF366
 4236 0aac DD02     		.sleb128 349
 4237 0aae 0B       		.uleb128 0xb
 4238 0aaf 88350000 		.4byte	.LASF367
 4239 0ab3 DE02     		.sleb128 350
 4240 0ab5 0B       		.uleb128 0xb
 4241 0ab6 D43B0000 		.4byte	.LASF368
 4242 0aba DF02     		.sleb128 351
 4243 0abc 0B       		.uleb128 0xb
 4244 0abd AD110000 		.4byte	.LASF369
 4245 0ac1 E002     		.sleb128 352
 4246 0ac3 0B       		.uleb128 0xb
 4247 0ac4 66370000 		.4byte	.LASF370
 4248 0ac8 E102     		.sleb128 353
 4249 0aca 0B       		.uleb128 0xb
 4250 0acb 13020000 		.4byte	.LASF371
 4251 0acf E202     		.sleb128 354
 4252 0ad1 0B       		.uleb128 0xb
 4253 0ad2 5F270000 		.4byte	.LASF372
 4254 0ad6 E302     		.sleb128 355
 4255 0ad8 0B       		.uleb128 0xb
 4256 0ad9 CA410000 		.4byte	.LASF373
 4257 0add E402     		.sleb128 356
 4258 0adf 0B       		.uleb128 0xb
 4259 0ae0 8A050000 		.4byte	.LASF374
 4260 0ae4 E502     		.sleb128 357
 4261 0ae6 0B       		.uleb128 0xb
 4262 0ae7 54260000 		.4byte	.LASF375
 4263 0aeb E602     		.sleb128 358
 4264 0aed 0B       		.uleb128 0xb
 4265 0aee BF290000 		.4byte	.LASF376
 4266 0af2 E702     		.sleb128 359
 4267 0af4 0B       		.uleb128 0xb
 4268 0af5 5B230000 		.4byte	.LASF377
 4269 0af9 E802     		.sleb128 360
 4270 0afb 0B       		.uleb128 0xb
 4271 0afc 793B0000 		.4byte	.LASF378
 4272 0b00 E902     		.sleb128 361
 4273 0b02 0B       		.uleb128 0xb
 4274 0b03 C02A0000 		.4byte	.LASF379
 4275 0b07 EA02     		.sleb128 362
 4276 0b09 0B       		.uleb128 0xb
 4277 0b0a 8A3B0000 		.4byte	.LASF380
 4278 0b0e EB02     		.sleb128 363
 4279 0b10 0B       		.uleb128 0xb
ARM GAS  C:\Users\AHMED~1.ELE\AppData\Local\Temp\cckRh1xc.s 			page 102


 4280 0b11 862E0000 		.4byte	.LASF381
 4281 0b15 EC02     		.sleb128 364
 4282 0b17 0B       		.uleb128 0xb
 4283 0b18 0C3E0000 		.4byte	.LASF382
 4284 0b1c ED02     		.sleb128 365
 4285 0b1e 0B       		.uleb128 0xb
 4286 0b1f 8C090000 		.4byte	.LASF383
 4287 0b23 EE02     		.sleb128 366
 4288 0b25 0B       		.uleb128 0xb
 4289 0b26 092C0000 		.4byte	.LASF384
 4290 0b2a EF02     		.sleb128 367
 4291 0b2c 0B       		.uleb128 0xb
 4292 0b2d 9C3A0000 		.4byte	.LASF385
 4293 0b31 F002     		.sleb128 368
 4294 0b33 0B       		.uleb128 0xb
 4295 0b34 EE310000 		.4byte	.LASF386
 4296 0b38 F102     		.sleb128 369
 4297 0b3a 0B       		.uleb128 0xb
 4298 0b3b 8C360000 		.4byte	.LASF387
 4299 0b3f F202     		.sleb128 370
 4300 0b41 0B       		.uleb128 0xb
 4301 0b42 80460000 		.4byte	.LASF388
 4302 0b46 F302     		.sleb128 371
 4303 0b48 0B       		.uleb128 0xb
 4304 0b49 06090000 		.4byte	.LASF389
 4305 0b4d F402     		.sleb128 372
 4306 0b4f 0B       		.uleb128 0xb
 4307 0b50 DE340000 		.4byte	.LASF390
 4308 0b54 F502     		.sleb128 373
 4309 0b56 0B       		.uleb128 0xb
 4310 0b57 92200000 		.4byte	.LASF391
 4311 0b5b F602     		.sleb128 374
 4312 0b5d 0B       		.uleb128 0xb
 4313 0b5e D4230000 		.4byte	.LASF392
 4314 0b62 F702     		.sleb128 375
 4315 0b64 0B       		.uleb128 0xb
 4316 0b65 84420000 		.4byte	.LASF393
 4317 0b69 F802     		.sleb128 376
 4318 0b6b 0B       		.uleb128 0xb
 4319 0b6c C93D0000 		.4byte	.LASF394
 4320 0b70 F902     		.sleb128 377
 4321 0b72 0B       		.uleb128 0xb
 4322 0b73 23020000 		.4byte	.LASF395
 4323 0b77 FA02     		.sleb128 378
 4324 0b79 0B       		.uleb128 0xb
 4325 0b7a C7150000 		.4byte	.LASF396
 4326 0b7e FB02     		.sleb128 379
 4327 0b80 0B       		.uleb128 0xb
 4328 0b81 70270000 		.4byte	.LASF397
 4329 0b85 FC02     		.sleb128 380
 4330 0b87 0B       		.uleb128 0xb
 4331 0b88 B0430000 		.4byte	.LASF398
 4332 0b8c FD02     		.sleb128 381
 4333 0b8e 0B       		.uleb128 0xb
 4334 0b8f CD210000 		.4byte	.LASF399
 4335 0b93 FE02     		.sleb128 382
 4336 0b95 0B       		.uleb128 0xb
ARM GAS  C:\Users\AHMED~1.ELE\AppData\Local\Temp\cckRh1xc.s 			page 103


 4337 0b96 603E0000 		.4byte	.LASF400
 4338 0b9a FF02     		.sleb128 383
 4339 0b9c 0B       		.uleb128 0xb
 4340 0b9d D93A0000 		.4byte	.LASF401
 4341 0ba1 8003     		.sleb128 384
 4342 0ba3 0B       		.uleb128 0xb
 4343 0ba4 1C440000 		.4byte	.LASF402
 4344 0ba8 8103     		.sleb128 385
 4345 0baa 0B       		.uleb128 0xb
 4346 0bab 8B310000 		.4byte	.LASF403
 4347 0baf 8203     		.sleb128 386
 4348 0bb1 0B       		.uleb128 0xb
 4349 0bb2 E40A0000 		.4byte	.LASF404
 4350 0bb6 8303     		.sleb128 387
 4351 0bb8 0B       		.uleb128 0xb
 4352 0bb9 09140000 		.4byte	.LASF405
 4353 0bbd 8403     		.sleb128 388
 4354 0bbf 0B       		.uleb128 0xb
 4355 0bc0 1F250000 		.4byte	.LASF406
 4356 0bc4 8503     		.sleb128 389
 4357 0bc6 0B       		.uleb128 0xb
 4358 0bc7 EA430000 		.4byte	.LASF407
 4359 0bcb 8603     		.sleb128 390
 4360 0bcd 0B       		.uleb128 0xb
 4361 0bce CE320000 		.4byte	.LASF408
 4362 0bd2 8703     		.sleb128 391
 4363 0bd4 0B       		.uleb128 0xb
 4364 0bd5 11050000 		.4byte	.LASF409
 4365 0bd9 8803     		.sleb128 392
 4366 0bdb 0B       		.uleb128 0xb
 4367 0bdc BD3A0000 		.4byte	.LASF410
 4368 0be0 8903     		.sleb128 393
 4369 0be2 0B       		.uleb128 0xb
 4370 0be3 B93D0000 		.4byte	.LASF411
 4371 0be7 8A03     		.sleb128 394
 4372 0be9 0B       		.uleb128 0xb
 4373 0bea 650B0000 		.4byte	.LASF412
 4374 0bee 8B03     		.sleb128 395
 4375 0bf0 0B       		.uleb128 0xb
 4376 0bf1 11370000 		.4byte	.LASF413
 4377 0bf5 8C03     		.sleb128 396
 4378 0bf7 0B       		.uleb128 0xb
 4379 0bf8 9D180000 		.4byte	.LASF414
 4380 0bfc 8D03     		.sleb128 397
 4381 0bfe 0B       		.uleb128 0xb
 4382 0bff 6D170000 		.4byte	.LASF415
 4383 0c03 8E03     		.sleb128 398
 4384 0c05 0B       		.uleb128 0xb
 4385 0c06 DD180000 		.4byte	.LASF416
 4386 0c0a 8F03     		.sleb128 399
 4387 0c0c 0B       		.uleb128 0xb
 4388 0c0d C50E0000 		.4byte	.LASF417
 4389 0c11 9003     		.sleb128 400
 4390 0c13 0B       		.uleb128 0xb
 4391 0c14 2B3A0000 		.4byte	.LASF418
 4392 0c18 9103     		.sleb128 401
 4393 0c1a 0B       		.uleb128 0xb
ARM GAS  C:\Users\AHMED~1.ELE\AppData\Local\Temp\cckRh1xc.s 			page 104


 4394 0c1b FB2C0000 		.4byte	.LASF419
 4395 0c1f 9203     		.sleb128 402
 4396 0c21 0B       		.uleb128 0xb
 4397 0c22 0C000000 		.4byte	.LASF420
 4398 0c26 9303     		.sleb128 403
 4399 0c28 0B       		.uleb128 0xb
 4400 0c29 C6030000 		.4byte	.LASF421
 4401 0c2d 9403     		.sleb128 404
 4402 0c2f 0B       		.uleb128 0xb
 4403 0c30 6A3B0000 		.4byte	.LASF422
 4404 0c34 9503     		.sleb128 405
 4405 0c36 0B       		.uleb128 0xb
 4406 0c37 22350000 		.4byte	.LASF423
 4407 0c3b 9603     		.sleb128 406
 4408 0c3d 0B       		.uleb128 0xb
 4409 0c3e C62C0000 		.4byte	.LASF424
 4410 0c42 9703     		.sleb128 407
 4411 0c44 0B       		.uleb128 0xb
 4412 0c45 94290000 		.4byte	.LASF425
 4413 0c49 9803     		.sleb128 408
 4414 0c4b 0B       		.uleb128 0xb
 4415 0c4c C8120000 		.4byte	.LASF426
 4416 0c50 9903     		.sleb128 409
 4417 0c52 0B       		.uleb128 0xb
 4418 0c53 943F0000 		.4byte	.LASF427
 4419 0c57 9A03     		.sleb128 410
 4420 0c59 0B       		.uleb128 0xb
 4421 0c5a CE280000 		.4byte	.LASF428
 4422 0c5e 9B03     		.sleb128 411
 4423 0c60 0B       		.uleb128 0xb
 4424 0c61 941D0000 		.4byte	.LASF429
 4425 0c65 9C03     		.sleb128 412
 4426 0c67 0B       		.uleb128 0xb
 4427 0c68 43420000 		.4byte	.LASF430
 4428 0c6c 9D03     		.sleb128 413
 4429 0c6e 0B       		.uleb128 0xb
 4430 0c6f 78410000 		.4byte	.LASF431
 4431 0c73 9E03     		.sleb128 414
 4432 0c75 0B       		.uleb128 0xb
 4433 0c76 4F220000 		.4byte	.LASF432
 4434 0c7a 9F03     		.sleb128 415
 4435 0c7c 0B       		.uleb128 0xb
 4436 0c7d E0000000 		.4byte	.LASF433
 4437 0c81 A003     		.sleb128 416
 4438 0c83 0B       		.uleb128 0xb
 4439 0c84 D73F0000 		.4byte	.LASF434
 4440 0c88 A103     		.sleb128 417
 4441 0c8a 0B       		.uleb128 0xb
 4442 0c8b 41030000 		.4byte	.LASF435
 4443 0c8f A203     		.sleb128 418
 4444 0c91 0B       		.uleb128 0xb
 4445 0c92 64310000 		.4byte	.LASF436
 4446 0c96 A303     		.sleb128 419
 4447 0c98 0B       		.uleb128 0xb
 4448 0c99 7B000000 		.4byte	.LASF437
 4449 0c9d A403     		.sleb128 420
 4450 0c9f 0B       		.uleb128 0xb
ARM GAS  C:\Users\AHMED~1.ELE\AppData\Local\Temp\cckRh1xc.s 			page 105


 4451 0ca0 EB090000 		.4byte	.LASF438
 4452 0ca4 A503     		.sleb128 421
 4453 0ca6 0B       		.uleb128 0xb
 4454 0ca7 DF170000 		.4byte	.LASF439
 4455 0cab A603     		.sleb128 422
 4456 0cad 0B       		.uleb128 0xb
 4457 0cae AB020000 		.4byte	.LASF440
 4458 0cb2 A703     		.sleb128 423
 4459 0cb4 0B       		.uleb128 0xb
 4460 0cb5 49130000 		.4byte	.LASF441
 4461 0cb9 A803     		.sleb128 424
 4462 0cbb 0B       		.uleb128 0xb
 4463 0cbc 00000000 		.4byte	.LASF442
 4464 0cc0 A903     		.sleb128 425
 4465 0cc2 0B       		.uleb128 0xb
 4466 0cc3 50120000 		.4byte	.LASF443
 4467 0cc7 AA03     		.sleb128 426
 4468 0cc9 0B       		.uleb128 0xb
 4469 0cca 5F050000 		.4byte	.LASF444
 4470 0cce AB03     		.sleb128 427
 4471 0cd0 0B       		.uleb128 0xb
 4472 0cd1 23330000 		.4byte	.LASF445
 4473 0cd5 AC03     		.sleb128 428
 4474 0cd7 0B       		.uleb128 0xb
 4475 0cd8 E2240000 		.4byte	.LASF446
 4476 0cdc AD03     		.sleb128 429
 4477 0cde 0B       		.uleb128 0xb
 4478 0cdf 7E0E0000 		.4byte	.LASF447
 4479 0ce3 AE03     		.sleb128 430
 4480 0ce5 0B       		.uleb128 0xb
 4481 0ce6 D1070000 		.4byte	.LASF448
 4482 0cea AF03     		.sleb128 431
 4483 0cec 0B       		.uleb128 0xb
 4484 0ced C61C0000 		.4byte	.LASF449
 4485 0cf1 B003     		.sleb128 432
 4486 0cf3 0B       		.uleb128 0xb
 4487 0cf4 C2240000 		.4byte	.LASF450
 4488 0cf8 B103     		.sleb128 433
 4489 0cfa 0B       		.uleb128 0xb
 4490 0cfb 5B430000 		.4byte	.LASF451
 4491 0cff B203     		.sleb128 434
 4492 0d01 0B       		.uleb128 0xb
 4493 0d02 AA090000 		.4byte	.LASF452
 4494 0d06 B303     		.sleb128 435
 4495 0d08 0B       		.uleb128 0xb
 4496 0d09 0A270000 		.4byte	.LASF453
 4497 0d0d B403     		.sleb128 436
 4498 0d0f 0B       		.uleb128 0xb
 4499 0d10 67000000 		.4byte	.LASF454
 4500 0d14 B503     		.sleb128 437
 4501 0d16 0B       		.uleb128 0xb
 4502 0d17 CF430000 		.4byte	.LASF455
 4503 0d1b B603     		.sleb128 438
 4504 0d1d 0B       		.uleb128 0xb
 4505 0d1e 36070000 		.4byte	.LASF456
 4506 0d22 B703     		.sleb128 439
 4507 0d24 0B       		.uleb128 0xb
ARM GAS  C:\Users\AHMED~1.ELE\AppData\Local\Temp\cckRh1xc.s 			page 106


 4508 0d25 C4340000 		.4byte	.LASF457
 4509 0d29 B803     		.sleb128 440
 4510 0d2b 0B       		.uleb128 0xb
 4511 0d2c 93430000 		.4byte	.LASF458
 4512 0d30 B903     		.sleb128 441
 4513 0d32 0B       		.uleb128 0xb
 4514 0d33 83270000 		.4byte	.LASF459
 4515 0d37 BA03     		.sleb128 442
 4516 0d39 0B       		.uleb128 0xb
 4517 0d3a 0B200000 		.4byte	.LASF460
 4518 0d3e BB03     		.sleb128 443
 4519 0d40 0B       		.uleb128 0xb
 4520 0d41 37020000 		.4byte	.LASF461
 4521 0d45 BC03     		.sleb128 444
 4522 0d47 0B       		.uleb128 0xb
 4523 0d48 D0010000 		.4byte	.LASF462
 4524 0d4c BD03     		.sleb128 445
 4525 0d4e 0B       		.uleb128 0xb
 4526 0d4f D6130000 		.4byte	.LASF463
 4527 0d53 BE03     		.sleb128 446
 4528 0d55 0B       		.uleb128 0xb
 4529 0d56 41160000 		.4byte	.LASF464
 4530 0d5a BF03     		.sleb128 447
 4531 0d5c 0B       		.uleb128 0xb
 4532 0d5d C2060000 		.4byte	.LASF465
 4533 0d61 C003     		.sleb128 448
 4534 0d63 0B       		.uleb128 0xb
 4535 0d64 24170000 		.4byte	.LASF466
 4536 0d68 C103     		.sleb128 449
 4537 0d6a 0B       		.uleb128 0xb
 4538 0d6b 27320000 		.4byte	.LASF467
 4539 0d6f C203     		.sleb128 450
 4540 0d71 0B       		.uleb128 0xb
 4541 0d72 A50D0000 		.4byte	.LASF468
 4542 0d76 C303     		.sleb128 451
 4543 0d78 0B       		.uleb128 0xb
 4544 0d79 6D350000 		.4byte	.LASF469
 4545 0d7d C403     		.sleb128 452
 4546 0d7f 0B       		.uleb128 0xb
 4547 0d80 A51C0000 		.4byte	.LASF470
 4548 0d84 C503     		.sleb128 453
 4549 0d86 0B       		.uleb128 0xb
 4550 0d87 172C0000 		.4byte	.LASF471
 4551 0d8b C603     		.sleb128 454
 4552 0d8d 0B       		.uleb128 0xb
 4553 0d8e 5B290000 		.4byte	.LASF472
 4554 0d92 C703     		.sleb128 455
 4555 0d94 0B       		.uleb128 0xb
 4556 0d95 DB450000 		.4byte	.LASF473
 4557 0d99 C803     		.sleb128 456
 4558 0d9b 0B       		.uleb128 0xb
 4559 0d9c 8C370000 		.4byte	.LASF474
 4560 0da0 C903     		.sleb128 457
 4561 0da2 0B       		.uleb128 0xb
 4562 0da3 041B0000 		.4byte	.LASF475
 4563 0da7 CA03     		.sleb128 458
 4564 0da9 0B       		.uleb128 0xb
ARM GAS  C:\Users\AHMED~1.ELE\AppData\Local\Temp\cckRh1xc.s 			page 107


 4565 0daa FB340000 		.4byte	.LASF476
 4566 0dae CB03     		.sleb128 459
 4567 0db0 0B       		.uleb128 0xb
 4568 0db1 4D140000 		.4byte	.LASF477
 4569 0db5 CC03     		.sleb128 460
 4570 0db7 0B       		.uleb128 0xb
 4571 0db8 D5040000 		.4byte	.LASF478
 4572 0dbc CD03     		.sleb128 461
 4573 0dbe 0B       		.uleb128 0xb
 4574 0dbf 31430000 		.4byte	.LASF479
 4575 0dc3 CE03     		.sleb128 462
 4576 0dc5 0B       		.uleb128 0xb
 4577 0dc6 433A0000 		.4byte	.LASF480
 4578 0dca CF03     		.sleb128 463
 4579 0dcc 0B       		.uleb128 0xb
 4580 0dcd D9150000 		.4byte	.LASF481
 4581 0dd1 D003     		.sleb128 464
 4582 0dd3 0B       		.uleb128 0xb
 4583 0dd4 6F220000 		.4byte	.LASF482
 4584 0dd8 D103     		.sleb128 465
 4585 0dda 0B       		.uleb128 0xb
 4586 0ddb 121D0000 		.4byte	.LASF483
 4587 0ddf D203     		.sleb128 466
 4588 0de1 0B       		.uleb128 0xb
 4589 0de2 7A230000 		.4byte	.LASF484
 4590 0de6 D303     		.sleb128 467
 4591 0de8 0B       		.uleb128 0xb
 4592 0de9 E32E0000 		.4byte	.LASF485
 4593 0ded D403     		.sleb128 468
 4594 0def 0B       		.uleb128 0xb
 4595 0df0 06250000 		.4byte	.LASF486
 4596 0df4 D503     		.sleb128 469
 4597 0df6 0B       		.uleb128 0xb
 4598 0df7 25240000 		.4byte	.LASF487
 4599 0dfb D603     		.sleb128 470
 4600 0dfd 0B       		.uleb128 0xb
 4601 0dfe AB2F0000 		.4byte	.LASF488
 4602 0e02 D703     		.sleb128 471
 4603 0e04 0B       		.uleb128 0xb
 4604 0e05 BB210000 		.4byte	.LASF489
 4605 0e09 D803     		.sleb128 472
 4606 0e0b 00       		.byte	0
 4607 0e0c 08       		.uleb128 0x8
 4608 0e0d A2000000 		.4byte	0xa2
 4609 0e11 1C0E0000 		.4byte	0xe1c
 4610 0e15 09       		.uleb128 0x9
 4611 0e16 78000000 		.4byte	0x78
 4612 0e1a 06       		.byte	0x6
 4613 0e1b 00       		.byte	0
 4614 0e1c 06       		.uleb128 0x6
 4615 0e1d 04       		.byte	0x4
 4616 0e1e 220E0000 		.4byte	0xe22
 4617 0e22 0C       		.uleb128 0xc
 4618 0e23 08       		.uleb128 0x8
 4619 0e24 A2000000 		.4byte	0xa2
 4620 0e28 330E0000 		.4byte	0xe33
 4621 0e2c 09       		.uleb128 0x9
ARM GAS  C:\Users\AHMED~1.ELE\AppData\Local\Temp\cckRh1xc.s 			page 108


 4622 0e2d 78000000 		.4byte	0x78
 4623 0e31 05       		.byte	0x5
 4624 0e32 00       		.byte	0
 4625 0e33 0D       		.uleb128 0xd
 4626 0e34 02       		.byte	0x2
 4627 0e35 05       		.byte	0x5
 4628 0e36 DD18     		.2byte	0x18dd
 4629 0e38 5C0E0000 		.4byte	0xe5c
 4630 0e3c 0B       		.uleb128 0xb
 4631 0e3d 40290000 		.4byte	.LASF490
 4632 0e41 00       		.sleb128 0
 4633 0e42 0B       		.uleb128 0xb
 4634 0e43 8D1B0000 		.4byte	.LASF491
 4635 0e47 01       		.sleb128 1
 4636 0e48 0B       		.uleb128 0xb
 4637 0e49 A30C0000 		.4byte	.LASF492
 4638 0e4d 02       		.sleb128 2
 4639 0e4e 0B       		.uleb128 0xb
 4640 0e4f 87250000 		.4byte	.LASF493
 4641 0e53 03       		.sleb128 3
 4642 0e54 0B       		.uleb128 0xb
 4643 0e55 CF400000 		.4byte	.LASF494
 4644 0e59 8002     		.sleb128 256
 4645 0e5b 00       		.byte	0
 4646 0e5c 0E       		.uleb128 0xe
 4647 0e5d BB030000 		.4byte	.LASF497
 4648 0e61 A0       		.byte	0xa0
 4649 0e62 04       		.byte	0x4
 4650 0e63 3002     		.2byte	0x230
 4651 0e65 840E0000 		.4byte	0xe84
 4652 0e69 0F       		.uleb128 0xf
 4653 0e6a 3C410000 		.4byte	.LASF495
 4654 0e6e 04       		.byte	0x4
 4655 0e6f 3102     		.2byte	0x231
 4656 0e71 A2000000 		.4byte	0xa2
 4657 0e75 00       		.byte	0
 4658 0e76 0F       		.uleb128 0xf
 4659 0e77 030D0000 		.4byte	.LASF496
 4660 0e7b 04       		.byte	0x4
 4661 0e7c 3202     		.2byte	0x232
 4662 0e7e 840E0000 		.4byte	0xe84
 4663 0e82 01       		.byte	0x1
 4664 0e83 00       		.byte	0
 4665 0e84 08       		.uleb128 0x8
 4666 0e85 A2000000 		.4byte	0xa2
 4667 0e89 940E0000 		.4byte	0xe94
 4668 0e8d 09       		.uleb128 0x9
 4669 0e8e 78000000 		.4byte	0x78
 4670 0e92 9D       		.byte	0x9d
 4671 0e93 00       		.byte	0
 4672 0e94 0E       		.uleb128 0xe
 4673 0e95 DE360000 		.4byte	.LASF498
 4674 0e99 54       		.byte	0x54
 4675 0e9a 04       		.byte	0x4
 4676 0e9b 3902     		.2byte	0x239
 4677 0e9d BC0E0000 		.4byte	0xebc
 4678 0ea1 0F       		.uleb128 0xf
ARM GAS  C:\Users\AHMED~1.ELE\AppData\Local\Temp\cckRh1xc.s 			page 109


 4679 0ea2 3C410000 		.4byte	.LASF495
 4680 0ea6 04       		.byte	0x4
 4681 0ea7 3A02     		.2byte	0x23a
 4682 0ea9 A2000000 		.4byte	0xa2
 4683 0ead 00       		.byte	0
 4684 0eae 0F       		.uleb128 0xf
 4685 0eaf 030D0000 		.4byte	.LASF496
 4686 0eb3 04       		.byte	0x4
 4687 0eb4 3B02     		.2byte	0x23b
 4688 0eb6 BC0E0000 		.4byte	0xebc
 4689 0eba 01       		.byte	0x1
 4690 0ebb 00       		.byte	0
 4691 0ebc 08       		.uleb128 0x8
 4692 0ebd A2000000 		.4byte	0xa2
 4693 0ec1 CC0E0000 		.4byte	0xecc
 4694 0ec5 09       		.uleb128 0x9
 4695 0ec6 78000000 		.4byte	0x78
 4696 0eca 4F       		.byte	0x4f
 4697 0ecb 00       		.byte	0
 4698 0ecc 0D       		.uleb128 0xd
 4699 0ecd 01       		.byte	0x1
 4700 0ece 04       		.byte	0x4
 4701 0ecf DC07     		.2byte	0x7dc
 4702 0ed1 1A100000 		.4byte	0x101a
 4703 0ed5 0B       		.uleb128 0xb
 4704 0ed6 D9120000 		.4byte	.LASF499
 4705 0eda 00       		.sleb128 0
 4706 0edb 0B       		.uleb128 0xb
 4707 0edc 64460000 		.4byte	.LASF500
 4708 0ee0 01       		.sleb128 1
 4709 0ee1 0B       		.uleb128 0xb
 4710 0ee2 CF0D0000 		.4byte	.LASF501
 4711 0ee6 02       		.sleb128 2
 4712 0ee7 0B       		.uleb128 0xb
 4713 0ee8 60400000 		.4byte	.LASF502
 4714 0eec 03       		.sleb128 3
 4715 0eed 0B       		.uleb128 0xb
 4716 0eee 6D060000 		.4byte	.LASF503
 4717 0ef2 04       		.sleb128 4
 4718 0ef3 0B       		.uleb128 0xb
 4719 0ef4 A2090000 		.4byte	.LASF504
 4720 0ef8 05       		.sleb128 5
 4721 0ef9 0B       		.uleb128 0xb
 4722 0efa 26130000 		.4byte	.LASF505
 4723 0efe 06       		.sleb128 6
 4724 0eff 0B       		.uleb128 0xb
 4725 0f00 FA150000 		.4byte	.LASF506
 4726 0f04 07       		.sleb128 7
 4727 0f05 0B       		.uleb128 0xb
 4728 0f06 F9200000 		.4byte	.LASF507
 4729 0f0a 08       		.sleb128 8
 4730 0f0b 0B       		.uleb128 0xb
 4731 0f0c CA0F0000 		.4byte	.LASF508
 4732 0f10 09       		.sleb128 9
 4733 0f11 0B       		.uleb128 0xb
 4734 0f12 38250000 		.4byte	.LASF509
 4735 0f16 0A       		.sleb128 10
ARM GAS  C:\Users\AHMED~1.ELE\AppData\Local\Temp\cckRh1xc.s 			page 110


 4736 0f17 0B       		.uleb128 0xb
 4737 0f18 DE080000 		.4byte	.LASF510
 4738 0f1c 0B       		.sleb128 11
 4739 0f1d 0B       		.uleb128 0xb
 4740 0f1e AC150000 		.4byte	.LASF511
 4741 0f22 0C       		.sleb128 12
 4742 0f23 0B       		.uleb128 0xb
 4743 0f24 C03E0000 		.4byte	.LASF512
 4744 0f28 0D       		.sleb128 13
 4745 0f29 0B       		.uleb128 0xb
 4746 0f2a 77190000 		.4byte	.LASF513
 4747 0f2e 0E       		.sleb128 14
 4748 0f2f 0B       		.uleb128 0xb
 4749 0f30 D4050000 		.4byte	.LASF514
 4750 0f34 0F       		.sleb128 15
 4751 0f35 0B       		.uleb128 0xb
 4752 0f36 62380000 		.4byte	.LASF515
 4753 0f3a 10       		.sleb128 16
 4754 0f3b 0B       		.uleb128 0xb
 4755 0f3c 69360000 		.4byte	.LASF516
 4756 0f40 11       		.sleb128 17
 4757 0f41 0B       		.uleb128 0xb
 4758 0f42 6A160000 		.4byte	.LASF517
 4759 0f46 12       		.sleb128 18
 4760 0f47 0B       		.uleb128 0xb
 4761 0f48 DC290000 		.4byte	.LASF518
 4762 0f4c 13       		.sleb128 19
 4763 0f4d 0B       		.uleb128 0xb
 4764 0f4e 532E0000 		.4byte	.LASF519
 4765 0f52 14       		.sleb128 20
 4766 0f53 0B       		.uleb128 0xb
 4767 0f54 960E0000 		.4byte	.LASF520
 4768 0f58 15       		.sleb128 21
 4769 0f59 0B       		.uleb128 0xb
 4770 0f5a 813A0000 		.4byte	.LASF521
 4771 0f5e 16       		.sleb128 22
 4772 0f5f 0B       		.uleb128 0xb
 4773 0f60 F5350000 		.4byte	.LASF522
 4774 0f64 17       		.sleb128 23
 4775 0f65 0B       		.uleb128 0xb
 4776 0f66 E7070000 		.4byte	.LASF523
 4777 0f6a 18       		.sleb128 24
 4778 0f6b 0B       		.uleb128 0xb
 4779 0f6c 85310000 		.4byte	.LASF524
 4780 0f70 19       		.sleb128 25
 4781 0f71 0B       		.uleb128 0xb
 4782 0f72 AA380000 		.4byte	.LASF525
 4783 0f76 1A       		.sleb128 26
 4784 0f77 0B       		.uleb128 0xb
 4785 0f78 211C0000 		.4byte	.LASF526
 4786 0f7c 1B       		.sleb128 27
 4787 0f7d 0B       		.uleb128 0xb
 4788 0f7e FA0B0000 		.4byte	.LASF527
 4789 0f82 1C       		.sleb128 28
 4790 0f83 0B       		.uleb128 0xb
 4791 0f84 7B030000 		.4byte	.LASF528
 4792 0f88 1D       		.sleb128 29
ARM GAS  C:\Users\AHMED~1.ELE\AppData\Local\Temp\cckRh1xc.s 			page 111


 4793 0f89 0B       		.uleb128 0xb
 4794 0f8a 31360000 		.4byte	.LASF529
 4795 0f8e 1E       		.sleb128 30
 4796 0f8f 0B       		.uleb128 0xb
 4797 0f90 7C080000 		.4byte	.LASF530
 4798 0f94 1F       		.sleb128 31
 4799 0f95 0B       		.uleb128 0xb
 4800 0f96 6C410000 		.4byte	.LASF531
 4801 0f9a 20       		.sleb128 32
 4802 0f9b 0B       		.uleb128 0xb
 4803 0f9c 25430000 		.4byte	.LASF532
 4804 0fa0 21       		.sleb128 33
 4805 0fa1 0B       		.uleb128 0xb
 4806 0fa2 14090000 		.4byte	.LASF533
 4807 0fa6 22       		.sleb128 34
 4808 0fa7 0B       		.uleb128 0xb
 4809 0fa8 DE1B0000 		.4byte	.LASF534
 4810 0fac 23       		.sleb128 35
 4811 0fad 0B       		.uleb128 0xb
 4812 0fae E9350000 		.4byte	.LASF535
 4813 0fb2 24       		.sleb128 36
 4814 0fb3 0B       		.uleb128 0xb
 4815 0fb4 D0290000 		.4byte	.LASF536
 4816 0fb8 25       		.sleb128 37
 4817 0fb9 0B       		.uleb128 0xb
 4818 0fba C8230000 		.4byte	.LASF537
 4819 0fbe 26       		.sleb128 38
 4820 0fbf 0B       		.uleb128 0xb
 4821 0fc0 5E3B0000 		.4byte	.LASF538
 4822 0fc4 27       		.sleb128 39
 4823 0fc5 0B       		.uleb128 0xb
 4824 0fc6 85080000 		.4byte	.LASF539
 4825 0fca 28       		.sleb128 40
 4826 0fcb 0B       		.uleb128 0xb
 4827 0fcc 840F0000 		.4byte	.LASF540
 4828 0fd0 29       		.sleb128 41
 4829 0fd1 0B       		.uleb128 0xb
 4830 0fd2 1E260000 		.4byte	.LASF541
 4831 0fd6 2A       		.sleb128 42
 4832 0fd7 0B       		.uleb128 0xb
 4833 0fd8 57380000 		.4byte	.LASF542
 4834 0fdc 2B       		.sleb128 43
 4835 0fdd 0B       		.uleb128 0xb
 4836 0fde B0410000 		.4byte	.LASF543
 4837 0fe2 2C       		.sleb128 44
 4838 0fe3 0B       		.uleb128 0xb
 4839 0fe4 E5410000 		.4byte	.LASF544
 4840 0fe8 2D       		.sleb128 45
 4841 0fe9 0B       		.uleb128 0xb
 4842 0fea 2B100000 		.4byte	.LASF545
 4843 0fee 2E       		.sleb128 46
 4844 0fef 0B       		.uleb128 0xb
 4845 0ff0 E02D0000 		.4byte	.LASF546
 4846 0ff4 2F       		.sleb128 47
 4847 0ff5 0B       		.uleb128 0xb
 4848 0ff6 5D3A0000 		.4byte	.LASF547
 4849 0ffa 30       		.sleb128 48
ARM GAS  C:\Users\AHMED~1.ELE\AppData\Local\Temp\cckRh1xc.s 			page 112


 4850 0ffb 0B       		.uleb128 0xb
 4851 0ffc 72090000 		.4byte	.LASF548
 4852 1000 31       		.sleb128 49
 4853 1001 0B       		.uleb128 0xb
 4854 1002 40060000 		.4byte	.LASF549
 4855 1006 32       		.sleb128 50
 4856 1007 0B       		.uleb128 0xb
 4857 1008 482F0000 		.4byte	.LASF550
 4858 100c 33       		.sleb128 51
 4859 100d 0B       		.uleb128 0xb
 4860 100e FD1F0000 		.4byte	.LASF551
 4861 1012 34       		.sleb128 52
 4862 1013 0B       		.uleb128 0xb
 4863 1014 CF180000 		.4byte	.LASF552
 4864 1018 35       		.sleb128 53
 4865 1019 00       		.byte	0
 4866 101a 10       		.uleb128 0x10
 4867 101b 01       		.byte	0x1
 4868 101c 06       		.byte	0x6
 4869 101d 40       		.byte	0x40
 4870 101e 6D110000 		.4byte	0x116d
 4871 1022 0B       		.uleb128 0xb
 4872 1023 E92A0000 		.4byte	.LASF553
 4873 1027 00       		.sleb128 0
 4874 1028 0B       		.uleb128 0xb
 4875 1029 8C3C0000 		.4byte	.LASF554
 4876 102d 01       		.sleb128 1
 4877 102e 0B       		.uleb128 0xb
 4878 102f 371F0000 		.4byte	.LASF555
 4879 1033 02       		.sleb128 2
 4880 1034 0B       		.uleb128 0xb
 4881 1035 D9410000 		.4byte	.LASF556
 4882 1039 03       		.sleb128 3
 4883 103a 0B       		.uleb128 0xb
 4884 103b 02380000 		.4byte	.LASF557
 4885 103f 04       		.sleb128 4
 4886 1040 0B       		.uleb128 0xb
 4887 1041 331D0000 		.4byte	.LASF558
 4888 1045 05       		.sleb128 5
 4889 1046 0B       		.uleb128 0xb
 4890 1047 E8280000 		.4byte	.LASF559
 4891 104b 06       		.sleb128 6
 4892 104c 0B       		.uleb128 0xb
 4893 104d 02160000 		.4byte	.LASF560
 4894 1051 07       		.sleb128 7
 4895 1052 0B       		.uleb128 0xb
 4896 1053 C3220000 		.4byte	.LASF561
 4897 1057 08       		.sleb128 8
 4898 1058 0B       		.uleb128 0xb
 4899 1059 A81D0000 		.4byte	.LASF562
 4900 105d 09       		.sleb128 9
 4901 105e 0B       		.uleb128 0xb
 4902 105f 97410000 		.4byte	.LASF563
 4903 1063 0A       		.sleb128 10
 4904 1064 0B       		.uleb128 0xb
 4905 1065 612A0000 		.4byte	.LASF564
 4906 1069 0B       		.sleb128 11
ARM GAS  C:\Users\AHMED~1.ELE\AppData\Local\Temp\cckRh1xc.s 			page 113


 4907 106a 0B       		.uleb128 0xb
 4908 106b 16460000 		.4byte	.LASF565
 4909 106f 0C       		.sleb128 12
 4910 1070 0B       		.uleb128 0xb
 4911 1071 B1290000 		.4byte	.LASF566
 4912 1075 0D       		.sleb128 13
 4913 1076 0B       		.uleb128 0xb
 4914 1077 A12D0000 		.4byte	.LASF567
 4915 107b 0E       		.sleb128 14
 4916 107c 0B       		.uleb128 0xb
 4917 107d 07410000 		.4byte	.LASF568
 4918 1081 0F       		.sleb128 15
 4919 1082 0B       		.uleb128 0xb
 4920 1083 590D0000 		.4byte	.LASF569
 4921 1087 10       		.sleb128 16
 4922 1088 0B       		.uleb128 0xb
 4923 1089 75420000 		.4byte	.LASF570
 4924 108d 11       		.sleb128 17
 4925 108e 0B       		.uleb128 0xb
 4926 108f BA360000 		.4byte	.LASF571
 4927 1093 12       		.sleb128 18
 4928 1094 0B       		.uleb128 0xb
 4929 1095 1C3D0000 		.4byte	.LASF572
 4930 1099 13       		.sleb128 19
 4931 109a 0B       		.uleb128 0xb
 4932 109b 96270000 		.4byte	.LASF573
 4933 109f 14       		.sleb128 20
 4934 10a0 0B       		.uleb128 0xb
 4935 10a1 0C3F0000 		.4byte	.LASF574
 4936 10a5 15       		.sleb128 21
 4937 10a6 0B       		.uleb128 0xb
 4938 10a7 6F130000 		.4byte	.LASF575
 4939 10ab 16       		.sleb128 22
 4940 10ac 0B       		.uleb128 0xb
 4941 10ad B3240000 		.4byte	.LASF576
 4942 10b1 17       		.sleb128 23
 4943 10b2 0B       		.uleb128 0xb
 4944 10b3 E2030000 		.4byte	.LASF577
 4945 10b7 18       		.sleb128 24
 4946 10b8 0B       		.uleb128 0xb
 4947 10b9 5E350000 		.4byte	.LASF578
 4948 10bd 19       		.sleb128 25
 4949 10be 0B       		.uleb128 0xb
 4950 10bf 80160000 		.4byte	.LASF579
 4951 10c3 1A       		.sleb128 26
 4952 10c4 0B       		.uleb128 0xb
 4953 10c5 B5050000 		.4byte	.LASF580
 4954 10c9 1B       		.sleb128 27
 4955 10ca 0B       		.uleb128 0xb
 4956 10cb 9A240000 		.4byte	.LASF581
 4957 10cf 1C       		.sleb128 28
 4958 10d0 0B       		.uleb128 0xb
 4959 10d1 3F460000 		.4byte	.LASF582
 4960 10d5 1D       		.sleb128 29
 4961 10d6 0B       		.uleb128 0xb
 4962 10d7 173B0000 		.4byte	.LASF583
 4963 10db 1E       		.sleb128 30
ARM GAS  C:\Users\AHMED~1.ELE\AppData\Local\Temp\cckRh1xc.s 			page 114


 4964 10dc 0B       		.uleb128 0xb
 4965 10dd 4E200000 		.4byte	.LASF584
 4966 10e1 1F       		.sleb128 31
 4967 10e2 0B       		.uleb128 0xb
 4968 10e3 98350000 		.4byte	.LASF585
 4969 10e7 20       		.sleb128 32
 4970 10e8 0B       		.uleb128 0xb
 4971 10e9 C5080000 		.4byte	.LASF586
 4972 10ed 21       		.sleb128 33
 4973 10ee 0B       		.uleb128 0xb
 4974 10ef C2300000 		.4byte	.LASF587
 4975 10f3 22       		.sleb128 34
 4976 10f4 0B       		.uleb128 0xb
 4977 10f5 BB180000 		.4byte	.LASF588
 4978 10f9 23       		.sleb128 35
 4979 10fa 0B       		.uleb128 0xb
 4980 10fb 04130000 		.4byte	.LASF589
 4981 10ff 24       		.sleb128 36
 4982 1100 0B       		.uleb128 0xb
 4983 1101 A60F0000 		.4byte	.LASF590
 4984 1105 25       		.sleb128 37
 4985 1106 0B       		.uleb128 0xb
 4986 1107 3F090000 		.4byte	.LASF591
 4987 110b 26       		.sleb128 38
 4988 110c 0B       		.uleb128 0xb
 4989 110d 4D240000 		.4byte	.LASF592
 4990 1111 27       		.sleb128 39
 4991 1112 0B       		.uleb128 0xb
 4992 1113 F7080000 		.4byte	.LASF593
 4993 1117 28       		.sleb128 40
 4994 1118 0B       		.uleb128 0xb
 4995 1119 5D180000 		.4byte	.LASF594
 4996 111d 29       		.sleb128 41
 4997 111e 0B       		.uleb128 0xb
 4998 111f E8050000 		.4byte	.LASF595
 4999 1123 2A       		.sleb128 42
 5000 1124 0B       		.uleb128 0xb
 5001 1125 D0220000 		.4byte	.LASF596
 5002 1129 2B       		.sleb128 43
 5003 112a 0B       		.uleb128 0xb
 5004 112b 82200000 		.4byte	.LASF597
 5005 112f 2C       		.sleb128 44
 5006 1130 0B       		.uleb128 0xb
 5007 1131 CD360000 		.4byte	.LASF598
 5008 1135 2D       		.sleb128 45
 5009 1136 0B       		.uleb128 0xb
 5010 1137 2E130000 		.4byte	.LASF599
 5011 113b 2E       		.sleb128 46
 5012 113c 0B       		.uleb128 0xb
 5013 113d 2B220000 		.4byte	.LASF600
 5014 1141 2F       		.sleb128 47
 5015 1142 0B       		.uleb128 0xb
 5016 1143 DA300000 		.4byte	.LASF601
 5017 1147 30       		.sleb128 48
 5018 1148 0B       		.uleb128 0xb
 5019 1149 EB270000 		.4byte	.LASF602
 5020 114d 31       		.sleb128 49
ARM GAS  C:\Users\AHMED~1.ELE\AppData\Local\Temp\cckRh1xc.s 			page 115


 5021 114e 0B       		.uleb128 0xb
 5022 114f 27280000 		.4byte	.LASF603
 5023 1153 32       		.sleb128 50
 5024 1154 0B       		.uleb128 0xb
 5025 1155 71040000 		.4byte	.LASF604
 5026 1159 33       		.sleb128 51
 5027 115a 0B       		.uleb128 0xb
 5028 115b 412B0000 		.4byte	.LASF605
 5029 115f 34       		.sleb128 52
 5030 1160 0B       		.uleb128 0xb
 5031 1161 00320000 		.4byte	.LASF606
 5032 1165 35       		.sleb128 53
 5033 1166 0B       		.uleb128 0xb
 5034 1167 50090000 		.4byte	.LASF607
 5035 116b 36       		.sleb128 54
 5036 116c 00       		.byte	0
 5037 116d 11       		.uleb128 0x11
 5038 116e B0400000 		.4byte	.LASF608
 5039 1172 040C     		.2byte	0xc04
 5040 1174 06       		.byte	0x6
 5041 1175 1E01     		.2byte	0x11e
 5042 1177 96110000 		.4byte	0x1196
 5043 117b 0F       		.uleb128 0xf
 5044 117c 08420000 		.4byte	.LASF609
 5045 1180 06       		.byte	0x6
 5046 1181 1F01     		.2byte	0x11f
 5047 1183 AD000000 		.4byte	0xad
 5048 1187 00       		.byte	0
 5049 1188 0F       		.uleb128 0xf
 5050 1189 B8060000 		.4byte	.LASF610
 5051 118d 06       		.byte	0x6
 5052 118e 2001     		.2byte	0x120
 5053 1190 96110000 		.4byte	0x1196
 5054 1194 02       		.byte	0x2
 5055 1195 00       		.byte	0
 5056 1196 08       		.uleb128 0x8
 5057 1197 A2000000 		.4byte	0xa2
 5058 119b A7110000 		.4byte	0x11a7
 5059 119f 12       		.uleb128 0x12
 5060 11a0 78000000 		.4byte	0x78
 5061 11a4 FF0B     		.2byte	0xbff
 5062 11a6 00       		.byte	0
 5063 11a7 11       		.uleb128 0x11
 5064 11a8 973C0000 		.4byte	.LASF611
 5065 11ac 7001     		.2byte	0x170
 5066 11ae 06       		.byte	0x6
 5067 11af 6401     		.2byte	0x164
 5068 11b1 C3140000 		.4byte	0x14c3
 5069 11b5 0F       		.uleb128 0xf
 5070 11b6 AB140000 		.4byte	.LASF612
 5071 11ba 06       		.byte	0x6
 5072 11bb 6501     		.2byte	0x165
 5073 11bd A2000000 		.4byte	0xa2
 5074 11c1 00       		.byte	0
 5075 11c2 0F       		.uleb128 0xf
 5076 11c3 33080000 		.4byte	.LASF613
 5077 11c7 06       		.byte	0x6
ARM GAS  C:\Users\AHMED~1.ELE\AppData\Local\Temp\cckRh1xc.s 			page 116


 5078 11c8 6601     		.2byte	0x166
 5079 11ca A2000000 		.4byte	0xa2
 5080 11ce 01       		.byte	0x1
 5081 11cf 0F       		.uleb128 0xf
 5082 11d0 AE3D0000 		.4byte	.LASF614
 5083 11d4 06       		.byte	0x6
 5084 11d5 6701     		.2byte	0x167
 5085 11d7 C3140000 		.4byte	0x14c3
 5086 11db 02       		.byte	0x2
 5087 11dc 0F       		.uleb128 0xf
 5088 11dd 443F0000 		.4byte	.LASF615
 5089 11e1 06       		.byte	0x6
 5090 11e2 6801     		.2byte	0x168
 5091 11e4 A2000000 		.4byte	0xa2
 5092 11e8 0B       		.byte	0xb
 5093 11e9 0F       		.uleb128 0xf
 5094 11ea 8F010000 		.4byte	.LASF616
 5095 11ee 06       		.byte	0x6
 5096 11ef 6901     		.2byte	0x169
 5097 11f1 D3140000 		.4byte	0x14d3
 5098 11f5 0C       		.byte	0xc
 5099 11f6 0F       		.uleb128 0xf
 5100 11f7 F43B0000 		.4byte	.LASF617
 5101 11fb 06       		.byte	0x6
 5102 11fc 6A01     		.2byte	0x16a
 5103 11fe A2000000 		.4byte	0xa2
 5104 1202 18       		.byte	0x18
 5105 1203 0F       		.uleb128 0xf
 5106 1204 73160000 		.4byte	.LASF618
 5107 1208 06       		.byte	0x6
 5108 1209 6B01     		.2byte	0x16b
 5109 120b A2000000 		.4byte	0xa2
 5110 120f 19       		.byte	0x19
 5111 1210 0F       		.uleb128 0xf
 5112 1211 4C040000 		.4byte	.LASF619
 5113 1215 06       		.byte	0x6
 5114 1216 6C01     		.2byte	0x16c
 5115 1218 D3140000 		.4byte	0x14d3
 5116 121c 1A       		.byte	0x1a
 5117 121d 0F       		.uleb128 0xf
 5118 121e 771C0000 		.4byte	.LASF620
 5119 1222 06       		.byte	0x6
 5120 1223 6D01     		.2byte	0x16d
 5121 1225 A2000000 		.4byte	0xa2
 5122 1229 26       		.byte	0x26
 5123 122a 0F       		.uleb128 0xf
 5124 122b 7F100000 		.4byte	.LASF621
 5125 122f 06       		.byte	0x6
 5126 1230 6E01     		.2byte	0x16e
 5127 1232 A2000000 		.4byte	0xa2
 5128 1236 27       		.byte	0x27
 5129 1237 0F       		.uleb128 0xf
 5130 1238 7C050000 		.4byte	.LASF622
 5131 123c 06       		.byte	0x6
 5132 123d 6F01     		.2byte	0x16f
 5133 123f A2000000 		.4byte	0xa2
 5134 1243 28       		.byte	0x28
ARM GAS  C:\Users\AHMED~1.ELE\AppData\Local\Temp\cckRh1xc.s 			page 117


 5135 1244 0F       		.uleb128 0xf
 5136 1245 672D0000 		.4byte	.LASF623
 5137 1249 06       		.byte	0x6
 5138 124a 7001     		.2byte	0x170
 5139 124c A2000000 		.4byte	0xa2
 5140 1250 29       		.byte	0x29
 5141 1251 0F       		.uleb128 0xf
 5142 1252 4E360000 		.4byte	.LASF624
 5143 1256 06       		.byte	0x6
 5144 1257 7101     		.2byte	0x171
 5145 1259 EF000000 		.4byte	0xef
 5146 125d 2A       		.byte	0x2a
 5147 125e 0F       		.uleb128 0xf
 5148 125f 4D020000 		.4byte	.LASF625
 5149 1263 06       		.byte	0x6
 5150 1264 7201     		.2byte	0x172
 5151 1266 E3140000 		.4byte	0x14e3
 5152 126a 2E       		.byte	0x2e
 5153 126b 0F       		.uleb128 0xf
 5154 126c 20140000 		.4byte	.LASF626
 5155 1270 06       		.byte	0x6
 5156 1271 7301     		.2byte	0x173
 5157 1273 E3140000 		.4byte	0x14e3
 5158 1277 31       		.byte	0x31
 5159 1278 0F       		.uleb128 0xf
 5160 1279 58280000 		.4byte	.LASF627
 5161 127d 06       		.byte	0x6
 5162 127e 7401     		.2byte	0x174
 5163 1280 EF000000 		.4byte	0xef
 5164 1284 34       		.byte	0x34
 5165 1285 0F       		.uleb128 0xf
 5166 1286 8C260000 		.4byte	.LASF628
 5167 128a 06       		.byte	0x6
 5168 128b 7501     		.2byte	0x175
 5169 128d D9000000 		.4byte	0xd9
 5170 1291 38       		.byte	0x38
 5171 1292 0F       		.uleb128 0xf
 5172 1293 9E170000 		.4byte	.LASF629
 5173 1297 06       		.byte	0x6
 5174 1298 7601     		.2byte	0x176
 5175 129a D9000000 		.4byte	0xd9
 5176 129e 3A       		.byte	0x3a
 5177 129f 0F       		.uleb128 0xf
 5178 12a0 4E070000 		.4byte	.LASF630
 5179 12a4 06       		.byte	0x6
 5180 12a5 7701     		.2byte	0x177
 5181 12a7 A2000000 		.4byte	0xa2
 5182 12ab 3C       		.byte	0x3c
 5183 12ac 0F       		.uleb128 0xf
 5184 12ad 131C0000 		.4byte	.LASF631
 5185 12b1 06       		.byte	0x6
 5186 12b2 7801     		.2byte	0x178
 5187 12b4 A2000000 		.4byte	0xa2
 5188 12b8 3D       		.byte	0x3d
 5189 12b9 0F       		.uleb128 0xf
 5190 12ba 25070000 		.4byte	.LASF632
 5191 12be 06       		.byte	0x6
ARM GAS  C:\Users\AHMED~1.ELE\AppData\Local\Temp\cckRh1xc.s 			page 118


 5192 12bf 7901     		.2byte	0x179
 5193 12c1 A2000000 		.4byte	0xa2
 5194 12c5 3E       		.byte	0x3e
 5195 12c6 0F       		.uleb128 0xf
 5196 12c7 D9090000 		.4byte	.LASF633
 5197 12cb 06       		.byte	0x6
 5198 12cc 7A01     		.2byte	0x17a
 5199 12ce AD000000 		.4byte	0xad
 5200 12d2 40       		.byte	0x40
 5201 12d3 0F       		.uleb128 0xf
 5202 12d4 BB410000 		.4byte	.LASF634
 5203 12d8 06       		.byte	0x6
 5204 12d9 7B01     		.2byte	0x17b
 5205 12db AD000000 		.4byte	0xad
 5206 12df 42       		.byte	0x42
 5207 12e0 0F       		.uleb128 0xf
 5208 12e1 96190000 		.4byte	.LASF635
 5209 12e5 06       		.byte	0x6
 5210 12e6 7C01     		.2byte	0x17c
 5211 12e8 C3000000 		.4byte	0xc3
 5212 12ec 48       		.byte	0x48
 5213 12ed 0F       		.uleb128 0xf
 5214 12ee DD100000 		.4byte	.LASF636
 5215 12f2 06       		.byte	0x6
 5216 12f3 7D01     		.2byte	0x17d
 5217 12f5 A2000000 		.4byte	0xa2
 5218 12f9 50       		.byte	0x50
 5219 12fa 0F       		.uleb128 0xf
 5220 12fb 2B450000 		.4byte	.LASF637
 5221 12ff 06       		.byte	0x6
 5222 1300 7E01     		.2byte	0x17e
 5223 1302 A2000000 		.4byte	0xa2
 5224 1306 51       		.byte	0x51
 5225 1307 0F       		.uleb128 0xf
 5226 1308 EF410000 		.4byte	.LASF638
 5227 130c 06       		.byte	0x6
 5228 130d 8001     		.2byte	0x180
 5229 130f A2000000 		.4byte	0xa2
 5230 1313 52       		.byte	0x52
 5231 1314 0F       		.uleb128 0xf
 5232 1315 3F240000 		.4byte	.LASF639
 5233 1319 06       		.byte	0x6
 5234 131a 8101     		.2byte	0x181
 5235 131c D9000000 		.4byte	0xd9
 5236 1320 53       		.byte	0x53
 5237 1321 0F       		.uleb128 0xf
 5238 1322 12290000 		.4byte	.LASF640
 5239 1326 06       		.byte	0x6
 5240 1327 8201     		.2byte	0x182
 5241 1329 EF000000 		.4byte	0xef
 5242 132d 55       		.byte	0x55
 5243 132e 0F       		.uleb128 0xf
 5244 132f A8350000 		.4byte	.LASF641
 5245 1333 06       		.byte	0x6
 5246 1334 8301     		.2byte	0x183
 5247 1336 C3000000 		.4byte	0xc3
 5248 133a 60       		.byte	0x60
ARM GAS  C:\Users\AHMED~1.ELE\AppData\Local\Temp\cckRh1xc.s 			page 119


 5249 133b 0F       		.uleb128 0xf
 5250 133c 54330000 		.4byte	.LASF642
 5251 1340 06       		.byte	0x6
 5252 1341 8401     		.2byte	0x184
 5253 1343 D9000000 		.4byte	0xd9
 5254 1347 68       		.byte	0x68
 5255 1348 0F       		.uleb128 0xf
 5256 1349 273C0000 		.4byte	.LASF643
 5257 134d 06       		.byte	0x6
 5258 134e 8501     		.2byte	0x185
 5259 1350 EF000000 		.4byte	0xef
 5260 1354 6A       		.byte	0x6a
 5261 1355 0F       		.uleb128 0xf
 5262 1356 3D040000 		.4byte	.LASF644
 5263 135a 06       		.byte	0x6
 5264 135b 8601     		.2byte	0x186
 5265 135d C3000000 		.4byte	0xc3
 5266 1361 70       		.byte	0x70
 5267 1362 0F       		.uleb128 0xf
 5268 1363 1E2A0000 		.4byte	.LASF645
 5269 1367 06       		.byte	0x6
 5270 1368 8701     		.2byte	0x187
 5271 136a D9000000 		.4byte	0xd9
 5272 136e 78       		.byte	0x78
 5273 136f 0F       		.uleb128 0xf
 5274 1370 2D180000 		.4byte	.LASF646
 5275 1374 06       		.byte	0x6
 5276 1375 8801     		.2byte	0x188
 5277 1377 EF000000 		.4byte	0xef
 5278 137b 7A       		.byte	0x7a
 5279 137c 0F       		.uleb128 0xf
 5280 137d 0A260000 		.4byte	.LASF647
 5281 1381 06       		.byte	0x6
 5282 1382 8901     		.2byte	0x189
 5283 1384 C3000000 		.4byte	0xc3
 5284 1388 80       		.byte	0x80
 5285 1389 0F       		.uleb128 0xf
 5286 138a 9E280000 		.4byte	.LASF648
 5287 138e 06       		.byte	0x6
 5288 138f 8A01     		.2byte	0x18a
 5289 1391 D9000000 		.4byte	0xd9
 5290 1395 88       		.byte	0x88
 5291 1396 0F       		.uleb128 0xf
 5292 1397 4A380000 		.4byte	.LASF649
 5293 139b 06       		.byte	0x6
 5294 139c 8B01     		.2byte	0x18b
 5295 139e EF000000 		.4byte	0xef
 5296 13a2 8A       		.byte	0x8a
 5297 13a3 0F       		.uleb128 0xf
 5298 13a4 A0000000 		.4byte	.LASF650
 5299 13a8 06       		.byte	0x6
 5300 13a9 8C01     		.2byte	0x18c
 5301 13ab C3000000 		.4byte	0xc3
 5302 13af 90       		.byte	0x90
 5303 13b0 0F       		.uleb128 0xf
 5304 13b1 D6250000 		.4byte	.LASF651
 5305 13b5 06       		.byte	0x6
ARM GAS  C:\Users\AHMED~1.ELE\AppData\Local\Temp\cckRh1xc.s 			page 120


 5306 13b6 8D01     		.2byte	0x18d
 5307 13b8 D9000000 		.4byte	0xd9
 5308 13bc 98       		.byte	0x98
 5309 13bd 0F       		.uleb128 0xf
 5310 13be A41E0000 		.4byte	.LASF652
 5311 13c2 06       		.byte	0x6
 5312 13c3 8E01     		.2byte	0x18e
 5313 13c5 EF000000 		.4byte	0xef
 5314 13c9 9A       		.byte	0x9a
 5315 13ca 0F       		.uleb128 0xf
 5316 13cb B12D0000 		.4byte	.LASF653
 5317 13cf 06       		.byte	0x6
 5318 13d0 8F01     		.2byte	0x18f
 5319 13d2 C3000000 		.4byte	0xc3
 5320 13d6 A0       		.byte	0xa0
 5321 13d7 0F       		.uleb128 0xf
 5322 13d8 5B200000 		.4byte	.LASF654
 5323 13dc 06       		.byte	0x6
 5324 13dd 9001     		.2byte	0x190
 5325 13df 0F010000 		.4byte	0x10f
 5326 13e3 A8       		.byte	0xa8
 5327 13e4 0F       		.uleb128 0xf
 5328 13e5 A7390000 		.4byte	.LASF655
 5329 13e9 06       		.byte	0x6
 5330 13ea 9101     		.2byte	0x191
 5331 13ec 0F010000 		.4byte	0x10f
 5332 13f0 C8       		.byte	0xc8
 5333 13f1 0F       		.uleb128 0xf
 5334 13f2 3D260000 		.4byte	.LASF656
 5335 13f6 06       		.byte	0x6
 5336 13f7 9201     		.2byte	0x192
 5337 13f9 0F010000 		.4byte	0x10f
 5338 13fd E8       		.byte	0xe8
 5339 13fe 13       		.uleb128 0x13
 5340 13ff CF300000 		.4byte	.LASF657
 5341 1403 06       		.byte	0x6
 5342 1404 9301     		.2byte	0x193
 5343 1406 0F010000 		.4byte	0x10f
 5344 140a 0801     		.2byte	0x108
 5345 140c 13       		.uleb128 0x13
 5346 140d BB080000 		.4byte	.LASF658
 5347 1411 06       		.byte	0x6
 5348 1412 9401     		.2byte	0x194
 5349 1414 EF000000 		.4byte	0xef
 5350 1418 2801     		.2byte	0x128
 5351 141a 13       		.uleb128 0x13
 5352 141b EF3E0000 		.4byte	.LASF659
 5353 141f 06       		.byte	0x6
 5354 1420 9501     		.2byte	0x195
 5355 1422 D9000000 		.4byte	0xd9
 5356 1426 2C01     		.2byte	0x12c
 5357 1428 13       		.uleb128 0x13
 5358 1429 7D0A0000 		.4byte	.LASF660
 5359 142d 06       		.byte	0x6
 5360 142e 9601     		.2byte	0x196
 5361 1430 F3140000 		.4byte	0x14f3
 5362 1434 2E01     		.2byte	0x12e
ARM GAS  C:\Users\AHMED~1.ELE\AppData\Local\Temp\cckRh1xc.s 			page 121


 5363 1436 13       		.uleb128 0x13
 5364 1437 CC1D0000 		.4byte	.LASF661
 5365 143b 06       		.byte	0x6
 5366 143c 9701     		.2byte	0x197
 5367 143e D3140000 		.4byte	0x14d3
 5368 1442 4701     		.2byte	0x147
 5369 1444 13       		.uleb128 0x13
 5370 1445 6C020000 		.4byte	.LASF662
 5371 1449 06       		.byte	0x6
 5372 144a 9801     		.2byte	0x198
 5373 144c A2000000 		.4byte	0xa2
 5374 1450 5301     		.2byte	0x153
 5375 1452 13       		.uleb128 0x13
 5376 1453 BF370000 		.4byte	.LASF663
 5377 1457 06       		.byte	0x6
 5378 1458 9901     		.2byte	0x199
 5379 145a A2000000 		.4byte	0xa2
 5380 145e 5401     		.2byte	0x154
 5381 1460 13       		.uleb128 0x13
 5382 1461 7C040000 		.4byte	.LASF664
 5383 1465 06       		.byte	0x6
 5384 1466 9A01     		.2byte	0x19a
 5385 1468 D3140000 		.4byte	0x14d3
 5386 146c 5501     		.2byte	0x155
 5387 146e 13       		.uleb128 0x13
 5388 146f 3C2A0000 		.4byte	.LASF665
 5389 1473 06       		.byte	0x6
 5390 1474 9B01     		.2byte	0x19b
 5391 1476 A2000000 		.4byte	0xa2
 5392 147a 6101     		.2byte	0x161
 5393 147c 13       		.uleb128 0x13
 5394 147d F8300000 		.4byte	.LASF666
 5395 1481 06       		.byte	0x6
 5396 1482 9C01     		.2byte	0x19c
 5397 1484 A2000000 		.4byte	0xa2
 5398 1488 6201     		.2byte	0x162
 5399 148a 13       		.uleb128 0x13
 5400 148b 7C090000 		.4byte	.LASF667
 5401 148f 06       		.byte	0x6
 5402 1490 9D01     		.2byte	0x19d
 5403 1492 A2000000 		.4byte	0xa2
 5404 1496 6301     		.2byte	0x163
 5405 1498 13       		.uleb128 0x13
 5406 1499 C8440000 		.4byte	.LASF668
 5407 149d 06       		.byte	0x6
 5408 149e 9E01     		.2byte	0x19e
 5409 14a0 AD000000 		.4byte	0xad
 5410 14a4 6401     		.2byte	0x164
 5411 14a6 13       		.uleb128 0x13
 5412 14a7 370A0000 		.4byte	.LASF669
 5413 14ab 06       		.byte	0x6
 5414 14ac 9F01     		.2byte	0x19f
 5415 14ae A2000000 		.4byte	0xa2
 5416 14b2 6601     		.2byte	0x166
 5417 14b4 13       		.uleb128 0x13
 5418 14b5 3B160000 		.4byte	.LASF670
 5419 14b9 06       		.byte	0x6
ARM GAS  C:\Users\AHMED~1.ELE\AppData\Local\Temp\cckRh1xc.s 			page 122


 5420 14ba A101     		.2byte	0x1a1
 5421 14bc B8000000 		.4byte	0xb8
 5422 14c0 6801     		.2byte	0x168
 5423 14c2 00       		.byte	0
 5424 14c3 08       		.uleb128 0x8
 5425 14c4 A2000000 		.4byte	0xa2
 5426 14c8 D3140000 		.4byte	0x14d3
 5427 14cc 09       		.uleb128 0x9
 5428 14cd 78000000 		.4byte	0x78
 5429 14d1 08       		.byte	0x8
 5430 14d2 00       		.byte	0
 5431 14d3 08       		.uleb128 0x8
 5432 14d4 A2000000 		.4byte	0xa2
 5433 14d8 E3140000 		.4byte	0x14e3
 5434 14dc 09       		.uleb128 0x9
 5435 14dd 78000000 		.4byte	0x78
 5436 14e1 0B       		.byte	0xb
 5437 14e2 00       		.byte	0
 5438 14e3 08       		.uleb128 0x8
 5439 14e4 A2000000 		.4byte	0xa2
 5440 14e8 F3140000 		.4byte	0x14f3
 5441 14ec 09       		.uleb128 0x9
 5442 14ed 78000000 		.4byte	0x78
 5443 14f1 02       		.byte	0x2
 5444 14f2 00       		.byte	0
 5445 14f3 08       		.uleb128 0x8
 5446 14f4 A2000000 		.4byte	0xa2
 5447 14f8 03150000 		.4byte	0x1503
 5448 14fc 09       		.uleb128 0x9
 5449 14fd 78000000 		.4byte	0x78
 5450 1501 18       		.byte	0x18
 5451 1502 00       		.byte	0
 5452 1503 11       		.uleb128 0x11
 5453 1504 56050000 		.4byte	.LASF671
 5454 1508 8801     		.2byte	0x188
 5455 150a 06       		.byte	0x6
 5456 150b AC01     		.2byte	0x1ac
 5457 150d AB160000 		.4byte	0x16ab
 5458 1511 0F       		.uleb128 0xf
 5459 1512 47280000 		.4byte	.LASF672
 5460 1516 06       		.byte	0x6
 5461 1517 AD01     		.2byte	0x1ad
 5462 1519 A2000000 		.4byte	0xa2
 5463 151d 00       		.byte	0
 5464 151e 0F       		.uleb128 0xf
 5465 151f 7D360000 		.4byte	.LASF673
 5466 1523 06       		.byte	0x6
 5467 1524 AE01     		.2byte	0x1ae
 5468 1526 A2000000 		.4byte	0xa2
 5469 152a 01       		.byte	0x1
 5470 152b 0F       		.uleb128 0xf
 5471 152c C83E0000 		.4byte	.LASF674
 5472 1530 06       		.byte	0x6
 5473 1531 AF01     		.2byte	0x1af
 5474 1533 A2000000 		.4byte	0xa2
 5475 1537 02       		.byte	0x2
 5476 1538 0F       		.uleb128 0xf
ARM GAS  C:\Users\AHMED~1.ELE\AppData\Local\Temp\cckRh1xc.s 			page 123


 5477 1539 D03E0000 		.4byte	.LASF675
 5478 153d 06       		.byte	0x6
 5479 153e B001     		.2byte	0x1b0
 5480 1540 A2000000 		.4byte	0xa2
 5481 1544 03       		.byte	0x3
 5482 1545 0F       		.uleb128 0xf
 5483 1546 EB300000 		.4byte	.LASF676
 5484 154a 06       		.byte	0x6
 5485 154b B101     		.2byte	0x1b1
 5486 154d 230E0000 		.4byte	0xe23
 5487 1551 04       		.byte	0x4
 5488 1552 0F       		.uleb128 0xf
 5489 1553 600F0000 		.4byte	.LASF677
 5490 1557 06       		.byte	0x6
 5491 1558 B201     		.2byte	0x1b2
 5492 155a A2000000 		.4byte	0xa2
 5493 155e 0A       		.byte	0xa
 5494 155f 0F       		.uleb128 0xf
 5495 1560 0F0E0000 		.4byte	.LASF678
 5496 1564 06       		.byte	0x6
 5497 1565 B301     		.2byte	0x1b3
 5498 1567 D9000000 		.4byte	0xd9
 5499 156b 0B       		.byte	0xb
 5500 156c 0F       		.uleb128 0xf
 5501 156d D21B0000 		.4byte	.LASF679
 5502 1571 06       		.byte	0x6
 5503 1572 B401     		.2byte	0x1b4
 5504 1574 D3140000 		.4byte	0x14d3
 5505 1578 0D       		.byte	0xd
 5506 1579 0F       		.uleb128 0xf
 5507 157a 7D440000 		.4byte	.LASF680
 5508 157e 06       		.byte	0x6
 5509 157f B501     		.2byte	0x1b5
 5510 1581 EF000000 		.4byte	0xef
 5511 1585 19       		.byte	0x19
 5512 1586 0F       		.uleb128 0xf
 5513 1587 53310000 		.4byte	.LASF681
 5514 158b 06       		.byte	0x6
 5515 158c B601     		.2byte	0x1b6
 5516 158e AB160000 		.4byte	0x16ab
 5517 1592 1D       		.byte	0x1d
 5518 1593 0F       		.uleb128 0xf
 5519 1594 BD330000 		.4byte	.LASF682
 5520 1598 06       		.byte	0x6
 5521 1599 B701     		.2byte	0x1b7
 5522 159b BB160000 		.4byte	0x16bb
 5523 159f 4B       		.byte	0x4b
 5524 15a0 0F       		.uleb128 0xf
 5525 15a1 40100000 		.4byte	.LASF683
 5526 15a5 06       		.byte	0x6
 5527 15a6 B801     		.2byte	0x1b8
 5528 15a8 A2000000 		.4byte	0xa2
 5529 15ac 62       		.byte	0x62
 5530 15ad 0F       		.uleb128 0xf
 5531 15ae 1B3E0000 		.4byte	.LASF684
 5532 15b2 06       		.byte	0x6
 5533 15b3 B901     		.2byte	0x1b9
ARM GAS  C:\Users\AHMED~1.ELE\AppData\Local\Temp\cckRh1xc.s 			page 124


 5534 15b5 A2000000 		.4byte	0xa2
 5535 15b9 63       		.byte	0x63
 5536 15ba 0F       		.uleb128 0xf
 5537 15bb F92A0000 		.4byte	.LASF685
 5538 15bf 06       		.byte	0x6
 5539 15c0 BA01     		.2byte	0x1ba
 5540 15c2 A2000000 		.4byte	0xa2
 5541 15c6 64       		.byte	0x64
 5542 15c7 0F       		.uleb128 0xf
 5543 15c8 D83E0000 		.4byte	.LASF686
 5544 15cc 06       		.byte	0x6
 5545 15cd BB01     		.2byte	0x1bb
 5546 15cf A2000000 		.4byte	0xa2
 5547 15d3 65       		.byte	0x65
 5548 15d4 0F       		.uleb128 0xf
 5549 15d5 C2380000 		.4byte	.LASF687
 5550 15d9 06       		.byte	0x6
 5551 15da BC01     		.2byte	0x1bc
 5552 15dc A2000000 		.4byte	0xa2
 5553 15e0 66       		.byte	0x66
 5554 15e1 0F       		.uleb128 0xf
 5555 15e2 7E1A0000 		.4byte	.LASF688
 5556 15e6 06       		.byte	0x6
 5557 15e7 BD01     		.2byte	0x1bd
 5558 15e9 E3140000 		.4byte	0x14e3
 5559 15ed 67       		.byte	0x67
 5560 15ee 0F       		.uleb128 0xf
 5561 15ef 9C330000 		.4byte	.LASF689
 5562 15f3 06       		.byte	0x6
 5563 15f4 BE01     		.2byte	0x1be
 5564 15f6 A2000000 		.4byte	0xa2
 5565 15fa 6A       		.byte	0x6a
 5566 15fb 0F       		.uleb128 0xf
 5567 15fc DE3C0000 		.4byte	.LASF690
 5568 1600 06       		.byte	0x6
 5569 1601 BF01     		.2byte	0x1bf
 5570 1603 3F010000 		.4byte	0x13f
 5571 1607 6B       		.byte	0x6b
 5572 1608 0F       		.uleb128 0xf
 5573 1609 811B0000 		.4byte	.LASF691
 5574 160d 06       		.byte	0x6
 5575 160e C001     		.2byte	0x1c0
 5576 1610 CB160000 		.4byte	0x16cb
 5577 1614 7F       		.byte	0x7f
 5578 1615 0F       		.uleb128 0xf
 5579 1616 E80F0000 		.4byte	.LASF692
 5580 161a 06       		.byte	0x6
 5581 161b C101     		.2byte	0x1c1
 5582 161d 1F010000 		.4byte	0x11f
 5583 1621 9D       		.byte	0x9d
 5584 1622 0F       		.uleb128 0xf
 5585 1623 A9030000 		.4byte	.LASF693
 5586 1627 06       		.byte	0x6
 5587 1628 C201     		.2byte	0x1c2
 5588 162a 1F010000 		.4byte	0x11f
 5589 162e AD       		.byte	0xad
 5590 162f 0F       		.uleb128 0xf
ARM GAS  C:\Users\AHMED~1.ELE\AppData\Local\Temp\cckRh1xc.s 			page 125


 5591 1630 24030000 		.4byte	.LASF694
 5592 1634 06       		.byte	0x6
 5593 1635 C301     		.2byte	0x1c3
 5594 1637 0F010000 		.4byte	0x10f
 5595 163b BD       		.byte	0xbd
 5596 163c 0F       		.uleb128 0xf
 5597 163d 42410000 		.4byte	.LASF695
 5598 1641 06       		.byte	0x6
 5599 1642 C401     		.2byte	0x1c4
 5600 1644 0F010000 		.4byte	0x10f
 5601 1648 DD       		.byte	0xdd
 5602 1649 0F       		.uleb128 0xf
 5603 164a 810C0000 		.4byte	.LASF696
 5604 164e 06       		.byte	0x6
 5605 164f C501     		.2byte	0x1c5
 5606 1651 0F010000 		.4byte	0x10f
 5607 1655 FD       		.byte	0xfd
 5608 1656 13       		.uleb128 0x13
 5609 1657 6D030000 		.4byte	.LASF697
 5610 165b 06       		.byte	0x6
 5611 165c C601     		.2byte	0x1c6
 5612 165e 0F010000 		.4byte	0x10f
 5613 1662 1D01     		.2byte	0x11d
 5614 1664 13       		.uleb128 0x13
 5615 1665 A9240000 		.4byte	.LASF698
 5616 1669 06       		.byte	0x6
 5617 166a C701     		.2byte	0x1c7
 5618 166c 0F010000 		.4byte	0x10f
 5619 1670 3D01     		.2byte	0x13d
 5620 1672 13       		.uleb128 0x13
 5621 1673 293F0000 		.4byte	.LASF699
 5622 1677 06       		.byte	0x6
 5623 1678 C801     		.2byte	0x1c8
 5624 167a 0F010000 		.4byte	0x10f
 5625 167e 5D01     		.2byte	0x15d
 5626 1680 13       		.uleb128 0x13
 5627 1681 BA1A0000 		.4byte	.LASF700
 5628 1685 06       		.byte	0x6
 5629 1686 C901     		.2byte	0x1c9
 5630 1688 EF000000 		.4byte	0xef
 5631 168c 7D01     		.2byte	0x17d
 5632 168e 13       		.uleb128 0x13
 5633 168f EC1F0000 		.4byte	.LASF701
 5634 1693 06       		.byte	0x6
 5635 1694 CA01     		.2byte	0x1ca
 5636 1696 D9000000 		.4byte	0xd9
 5637 169a 8101     		.2byte	0x181
 5638 169c 13       		.uleb128 0x13
 5639 169d 3B160000 		.4byte	.LASF670
 5640 16a1 06       		.byte	0x6
 5641 16a2 CB01     		.2byte	0x1cb
 5642 16a4 AD000000 		.4byte	0xad
 5643 16a8 8401     		.2byte	0x184
 5644 16aa 00       		.byte	0
 5645 16ab 08       		.uleb128 0x8
 5646 16ac A2000000 		.4byte	0xa2
 5647 16b0 BB160000 		.4byte	0x16bb
ARM GAS  C:\Users\AHMED~1.ELE\AppData\Local\Temp\cckRh1xc.s 			page 126


 5648 16b4 09       		.uleb128 0x9
 5649 16b5 78000000 		.4byte	0x78
 5650 16b9 2D       		.byte	0x2d
 5651 16ba 00       		.byte	0
 5652 16bb 08       		.uleb128 0x8
 5653 16bc A2000000 		.4byte	0xa2
 5654 16c0 CB160000 		.4byte	0x16cb
 5655 16c4 09       		.uleb128 0x9
 5656 16c5 78000000 		.4byte	0x78
 5657 16c9 16       		.byte	0x16
 5658 16ca 00       		.byte	0
 5659 16cb 08       		.uleb128 0x8
 5660 16cc A2000000 		.4byte	0xa2
 5661 16d0 DB160000 		.4byte	0x16db
 5662 16d4 09       		.uleb128 0x9
 5663 16d5 78000000 		.4byte	0x78
 5664 16d9 1D       		.byte	0x1d
 5665 16da 00       		.byte	0
 5666 16db 0E       		.uleb128 0xe
 5667 16dc F42B0000 		.4byte	.LASF702
 5668 16e0 24       		.byte	0x24
 5669 16e1 06       		.byte	0x6
 5670 16e2 CE01     		.2byte	0x1ce
 5671 16e4 44170000 		.4byte	0x1744
 5672 16e8 0F       		.uleb128 0xf
 5673 16e9 F5230000 		.4byte	.LASF703
 5674 16ed 06       		.byte	0x6
 5675 16ee CF01     		.2byte	0x1cf
 5676 16f0 44170000 		.4byte	0x1744
 5677 16f4 00       		.byte	0
 5678 16f5 0F       		.uleb128 0xf
 5679 16f6 2B300000 		.4byte	.LASF704
 5680 16fa 06       		.byte	0x6
 5681 16fb D001     		.2byte	0x1d0
 5682 16fd 44170000 		.4byte	0x1744
 5683 1701 05       		.byte	0x5
 5684 1702 0F       		.uleb128 0xf
 5685 1703 22230000 		.4byte	.LASF705
 5686 1707 06       		.byte	0x6
 5687 1708 D101     		.2byte	0x1d1
 5688 170a A2000000 		.4byte	0xa2
 5689 170e 0A       		.byte	0xa
 5690 170f 0F       		.uleb128 0xf
 5691 1710 CD450000 		.4byte	.LASF706
 5692 1714 06       		.byte	0x6
 5693 1715 D201     		.2byte	0x1d2
 5694 1717 A2000000 		.4byte	0xa2
 5695 171b 0B       		.byte	0xb
 5696 171c 0F       		.uleb128 0xf
 5697 171d F6380000 		.4byte	.LASF707
 5698 1721 06       		.byte	0x6
 5699 1722 D301     		.2byte	0x1d3
 5700 1724 A2000000 		.4byte	0xa2
 5701 1728 0C       		.byte	0xc
 5702 1729 0F       		.uleb128 0xf
 5703 172a 811B0000 		.4byte	.LASF691
 5704 172e 06       		.byte	0x6
ARM GAS  C:\Users\AHMED~1.ELE\AppData\Local\Temp\cckRh1xc.s 			page 127


 5705 172f D401     		.2byte	0x1d4
 5706 1731 3F010000 		.4byte	0x13f
 5707 1735 0D       		.byte	0xd
 5708 1736 0F       		.uleb128 0xf
 5709 1737 3B160000 		.4byte	.LASF670
 5710 173b 06       		.byte	0x6
 5711 173c D501     		.2byte	0x1d5
 5712 173e AD000000 		.4byte	0xad
 5713 1742 22       		.byte	0x22
 5714 1743 00       		.byte	0
 5715 1744 08       		.uleb128 0x8
 5716 1745 A2000000 		.4byte	0xa2
 5717 1749 54170000 		.4byte	0x1754
 5718 174d 09       		.uleb128 0x9
 5719 174e 78000000 		.4byte	0x78
 5720 1752 04       		.byte	0x4
 5721 1753 00       		.byte	0
 5722 1754 0E       		.uleb128 0xe
 5723 1755 AE2E0000 		.4byte	.LASF708
 5724 1759 38       		.byte	0x38
 5725 175a 06       		.byte	0x6
 5726 175b D801     		.2byte	0x1d8
 5727 175d D7170000 		.4byte	0x17d7
 5728 1761 0F       		.uleb128 0xf
 5729 1762 A6140000 		.4byte	.LASF709
 5730 1766 06       		.byte	0x6
 5731 1767 D901     		.2byte	0x1d9
 5732 1769 A2000000 		.4byte	0xa2
 5733 176d 00       		.byte	0
 5734 176e 0F       		.uleb128 0xf
 5735 176f 121F0000 		.4byte	.LASF710
 5736 1773 06       		.byte	0x6
 5737 1774 DA01     		.2byte	0x1da
 5738 1776 FF000000 		.4byte	0xff
 5739 177a 01       		.byte	0x1
 5740 177b 0F       		.uleb128 0xf
 5741 177c 88030000 		.4byte	.LASF711
 5742 1780 06       		.byte	0x6
 5743 1781 DB01     		.2byte	0x1db
 5744 1783 D3140000 		.4byte	0x14d3
 5745 1787 0B       		.byte	0xb
 5746 1788 0F       		.uleb128 0xf
 5747 1789 7D440000 		.4byte	.LASF680
 5748 178d 06       		.byte	0x6
 5749 178e DC01     		.2byte	0x1dc
 5750 1790 EF000000 		.4byte	0xef
 5751 1794 17       		.byte	0x17
 5752 1795 0F       		.uleb128 0xf
 5753 1796 56040000 		.4byte	.LASF712
 5754 179a 06       		.byte	0x6
 5755 179b DD01     		.2byte	0x1dd
 5756 179d A2000000 		.4byte	0xa2
 5757 17a1 1B       		.byte	0x1b
 5758 17a2 0F       		.uleb128 0xf
 5759 17a3 05060000 		.4byte	.LASF713
 5760 17a7 06       		.byte	0x6
 5761 17a8 DE01     		.2byte	0x1de
ARM GAS  C:\Users\AHMED~1.ELE\AppData\Local\Temp\cckRh1xc.s 			page 128


 5762 17aa D9000000 		.4byte	0xd9
 5763 17ae 1C       		.byte	0x1c
 5764 17af 0F       		.uleb128 0xf
 5765 17b0 1A3F0000 		.4byte	.LASF714
 5766 17b4 06       		.byte	0x6
 5767 17b5 DF01     		.2byte	0x1df
 5768 17b7 D9000000 		.4byte	0xd9
 5769 17bb 1E       		.byte	0x1e
 5770 17bc 0F       		.uleb128 0xf
 5771 17bd 811B0000 		.4byte	.LASF691
 5772 17c1 06       		.byte	0x6
 5773 17c2 E001     		.2byte	0x1e0
 5774 17c4 3F010000 		.4byte	0x13f
 5775 17c8 20       		.byte	0x20
 5776 17c9 0F       		.uleb128 0xf
 5777 17ca 3B160000 		.4byte	.LASF670
 5778 17ce 06       		.byte	0x6
 5779 17cf E101     		.2byte	0x1e1
 5780 17d1 AD000000 		.4byte	0xad
 5781 17d5 34       		.byte	0x34
 5782 17d6 00       		.byte	0
 5783 17d7 0E       		.uleb128 0xe
 5784 17d8 7C2F0000 		.4byte	.LASF715
 5785 17dc AC       		.byte	0xac
 5786 17dd 06       		.byte	0x6
 5787 17de EC01     		.2byte	0x1ec
 5788 17e0 9F190000 		.4byte	0x199f
 5789 17e4 0F       		.uleb128 0xf
 5790 17e5 A6140000 		.4byte	.LASF709
 5791 17e9 06       		.byte	0x6
 5792 17ea ED01     		.2byte	0x1ed
 5793 17ec A2000000 		.4byte	0xa2
 5794 17f0 00       		.byte	0
 5795 17f1 0F       		.uleb128 0xf
 5796 17f2 363C0000 		.4byte	.LASF716
 5797 17f6 06       		.byte	0x6
 5798 17f7 EE01     		.2byte	0x1ee
 5799 17f9 FF000000 		.4byte	0xff
 5800 17fd 01       		.byte	0x1
 5801 17fe 0F       		.uleb128 0xf
 5802 17ff FA1B0000 		.4byte	.LASF717
 5803 1803 06       		.byte	0x6
 5804 1804 EF01     		.2byte	0x1ef
 5805 1806 FF000000 		.4byte	0xff
 5806 180a 0B       		.byte	0xb
 5807 180b 0F       		.uleb128 0xf
 5808 180c 232D0000 		.4byte	.LASF718
 5809 1810 06       		.byte	0x6
 5810 1811 F001     		.2byte	0x1f0
 5811 1813 D3140000 		.4byte	0x14d3
 5812 1817 15       		.byte	0x15
 5813 1818 0F       		.uleb128 0xf
 5814 1819 62120000 		.4byte	.LASF719
 5815 181d 06       		.byte	0x6
 5816 181e F101     		.2byte	0x1f1
 5817 1820 A2000000 		.4byte	0xa2
 5818 1824 21       		.byte	0x21
ARM GAS  C:\Users\AHMED~1.ELE\AppData\Local\Temp\cckRh1xc.s 			page 129


 5819 1825 0F       		.uleb128 0xf
 5820 1826 3E1D0000 		.4byte	.LASF720
 5821 182a 06       		.byte	0x6
 5822 182b F201     		.2byte	0x1f2
 5823 182d A2000000 		.4byte	0xa2
 5824 1831 22       		.byte	0x22
 5825 1832 0F       		.uleb128 0xf
 5826 1833 8C100000 		.4byte	.LASF721
 5827 1837 06       		.byte	0x6
 5828 1838 F301     		.2byte	0x1f3
 5829 183a D3140000 		.4byte	0x14d3
 5830 183e 23       		.byte	0x23
 5831 183f 0F       		.uleb128 0xf
 5832 1840 FD270000 		.4byte	.LASF722
 5833 1844 06       		.byte	0x6
 5834 1845 F401     		.2byte	0x1f4
 5835 1847 A2000000 		.4byte	0xa2
 5836 184b 2F       		.byte	0x2f
 5837 184c 0F       		.uleb128 0xf
 5838 184d E2020000 		.4byte	.LASF723
 5839 1851 06       		.byte	0x6
 5840 1852 F501     		.2byte	0x1f5
 5841 1854 A2000000 		.4byte	0xa2
 5842 1858 30       		.byte	0x30
 5843 1859 0F       		.uleb128 0xf
 5844 185a BD020000 		.4byte	.LASF724
 5845 185e 06       		.byte	0x6
 5846 185f F601     		.2byte	0x1f6
 5847 1861 D3140000 		.4byte	0x14d3
 5848 1865 31       		.byte	0x31
 5849 1866 0F       		.uleb128 0xf
 5850 1867 6E310000 		.4byte	.LASF725
 5851 186b 06       		.byte	0x6
 5852 186c F701     		.2byte	0x1f7
 5853 186e A2000000 		.4byte	0xa2
 5854 1872 3D       		.byte	0x3d
 5855 1873 0F       		.uleb128 0xf
 5856 1874 173A0000 		.4byte	.LASF726
 5857 1878 06       		.byte	0x6
 5858 1879 F801     		.2byte	0x1f8
 5859 187b A2000000 		.4byte	0xa2
 5860 187f 3E       		.byte	0x3e
 5861 1880 0F       		.uleb128 0xf
 5862 1881 21160000 		.4byte	.LASF727
 5863 1885 06       		.byte	0x6
 5864 1886 F901     		.2byte	0x1f9
 5865 1888 D3140000 		.4byte	0x14d3
 5866 188c 3F       		.byte	0x3f
 5867 188d 0F       		.uleb128 0xf
 5868 188e 7F140000 		.4byte	.LASF728
 5869 1892 06       		.byte	0x6
 5870 1893 FA01     		.2byte	0x1fa
 5871 1895 A2000000 		.4byte	0xa2
 5872 1899 4B       		.byte	0x4b
 5873 189a 0F       		.uleb128 0xf
 5874 189b F6260000 		.4byte	.LASF729
 5875 189f 06       		.byte	0x6
ARM GAS  C:\Users\AHMED~1.ELE\AppData\Local\Temp\cckRh1xc.s 			page 130


 5876 18a0 FB01     		.2byte	0x1fb
 5877 18a2 A2000000 		.4byte	0xa2
 5878 18a6 4C       		.byte	0x4c
 5879 18a7 0F       		.uleb128 0xf
 5880 18a8 181A0000 		.4byte	.LASF730
 5881 18ac 06       		.byte	0x6
 5882 18ad FC01     		.2byte	0x1fc
 5883 18af A2000000 		.4byte	0xa2
 5884 18b3 4D       		.byte	0x4d
 5885 18b4 0F       		.uleb128 0xf
 5886 18b5 7D440000 		.4byte	.LASF680
 5887 18b9 06       		.byte	0x6
 5888 18ba FD01     		.2byte	0x1fd
 5889 18bc EF000000 		.4byte	0xef
 5890 18c0 4E       		.byte	0x4e
 5891 18c1 0F       		.uleb128 0xf
 5892 18c2 182E0000 		.4byte	.LASF731
 5893 18c6 06       		.byte	0x6
 5894 18c7 FE01     		.2byte	0x1fe
 5895 18c9 D9000000 		.4byte	0xd9
 5896 18cd 52       		.byte	0x52
 5897 18ce 0F       		.uleb128 0xf
 5898 18cf AE3D0000 		.4byte	.LASF614
 5899 18d3 06       		.byte	0x6
 5900 18d4 FF01     		.2byte	0x1ff
 5901 18d6 2F010000 		.4byte	0x12f
 5902 18da 54       		.byte	0x54
 5903 18db 0F       		.uleb128 0xf
 5904 18dc 112F0000 		.4byte	.LASF732
 5905 18e0 06       		.byte	0x6
 5906 18e1 0002     		.2byte	0x200
 5907 18e3 9F190000 		.4byte	0x199f
 5908 18e7 5C       		.byte	0x5c
 5909 18e8 0F       		.uleb128 0xf
 5910 18e9 BA0A0000 		.4byte	.LASF733
 5911 18ed 06       		.byte	0x6
 5912 18ee 0102     		.2byte	0x201
 5913 18f0 A2000000 		.4byte	0xa2
 5914 18f4 6B       		.byte	0x6b
 5915 18f5 0F       		.uleb128 0xf
 5916 18f6 71200000 		.4byte	.LASF734
 5917 18fa 06       		.byte	0x6
 5918 18fb 0202     		.2byte	0x202
 5919 18fd E3140000 		.4byte	0x14e3
 5920 1901 6C       		.byte	0x6c
 5921 1902 0F       		.uleb128 0xf
 5922 1903 94260000 		.4byte	.LASF735
 5923 1907 06       		.byte	0x6
 5924 1908 0302     		.2byte	0x203
 5925 190a E3140000 		.4byte	0x14e3
 5926 190e 6F       		.byte	0x6f
 5927 190f 0F       		.uleb128 0xf
 5928 1910 5C060000 		.4byte	.LASF736
 5929 1914 06       		.byte	0x6
 5930 1915 0402     		.2byte	0x204
 5931 1917 BB160000 		.4byte	0x16bb
 5932 191b 72       		.byte	0x72
ARM GAS  C:\Users\AHMED~1.ELE\AppData\Local\Temp\cckRh1xc.s 			page 131


 5933 191c 0F       		.uleb128 0xf
 5934 191d FE110000 		.4byte	.LASF737
 5935 1921 06       		.byte	0x6
 5936 1922 0502     		.2byte	0x205
 5937 1924 A2000000 		.4byte	0xa2
 5938 1928 89       		.byte	0x89
 5939 1929 0F       		.uleb128 0xf
 5940 192a 811B0000 		.4byte	.LASF691
 5941 192e 06       		.byte	0x6
 5942 192f 0602     		.2byte	0x206
 5943 1931 AF190000 		.4byte	0x19af
 5944 1935 8A       		.byte	0x8a
 5945 1936 0F       		.uleb128 0xf
 5946 1937 33230000 		.4byte	.LASF738
 5947 193b 06       		.byte	0x6
 5948 193c 0702     		.2byte	0x207
 5949 193e A2000000 		.4byte	0xa2
 5950 1942 9F       		.byte	0x9f
 5951 1943 0F       		.uleb128 0xf
 5952 1944 F03D0000 		.4byte	.LASF739
 5953 1948 06       		.byte	0x6
 5954 1949 0802     		.2byte	0x208
 5955 194b A2000000 		.4byte	0xa2
 5956 194f A0       		.byte	0xa0
 5957 1950 0F       		.uleb128 0xf
 5958 1951 6D330000 		.4byte	.LASF740
 5959 1955 06       		.byte	0x6
 5960 1956 0902     		.2byte	0x209
 5961 1958 A2000000 		.4byte	0xa2
 5962 195c A1       		.byte	0xa1
 5963 195d 0F       		.uleb128 0xf
 5964 195e 58280000 		.4byte	.LASF627
 5965 1962 06       		.byte	0x6
 5966 1963 0A02     		.2byte	0x20a
 5967 1965 EF000000 		.4byte	0xef
 5968 1969 A2       		.byte	0xa2
 5969 196a 0F       		.uleb128 0xf
 5970 196b 8C260000 		.4byte	.LASF628
 5971 196f 06       		.byte	0x6
 5972 1970 0B02     		.2byte	0x20b
 5973 1972 D9000000 		.4byte	0xd9
 5974 1976 A6       		.byte	0xa6
 5975 1977 0F       		.uleb128 0xf
 5976 1978 6D2E0000 		.4byte	.LASF741
 5977 197c 06       		.byte	0x6
 5978 197d 0C02     		.2byte	0x20c
 5979 197f A2000000 		.4byte	0xa2
 5980 1983 A8       		.byte	0xa8
 5981 1984 0F       		.uleb128 0xf
 5982 1985 B9040000 		.4byte	.LASF742
 5983 1989 06       		.byte	0x6
 5984 198a 0D02     		.2byte	0x20d
 5985 198c A2000000 		.4byte	0xa2
 5986 1990 A9       		.byte	0xa9
 5987 1991 0F       		.uleb128 0xf
 5988 1992 3B160000 		.4byte	.LASF670
 5989 1996 06       		.byte	0x6
ARM GAS  C:\Users\AHMED~1.ELE\AppData\Local\Temp\cckRh1xc.s 			page 132


 5990 1997 0E02     		.2byte	0x20e
 5991 1999 AD000000 		.4byte	0xad
 5992 199d AA       		.byte	0xaa
 5993 199e 00       		.byte	0
 5994 199f 08       		.uleb128 0x8
 5995 19a0 A2000000 		.4byte	0xa2
 5996 19a4 AF190000 		.4byte	0x19af
 5997 19a8 09       		.uleb128 0x9
 5998 19a9 78000000 		.4byte	0x78
 5999 19ad 0E       		.byte	0xe
 6000 19ae 00       		.byte	0
 6001 19af 08       		.uleb128 0x8
 6002 19b0 A2000000 		.4byte	0xa2
 6003 19b4 BF190000 		.4byte	0x19bf
 6004 19b8 09       		.uleb128 0x9
 6005 19b9 78000000 		.4byte	0x78
 6006 19bd 14       		.byte	0x14
 6007 19be 00       		.byte	0
 6008 19bf 0E       		.uleb128 0xe
 6009 19c0 8D320000 		.4byte	.LASF743
 6010 19c4 1C       		.byte	0x1c
 6011 19c5 06       		.byte	0x6
 6012 19c6 1102     		.2byte	0x211
 6013 19c8 011A0000 		.4byte	0x1a01
 6014 19cc 0F       		.uleb128 0xf
 6015 19cd 121A0000 		.4byte	.LASF744
 6016 19d1 06       		.byte	0x6
 6017 19d2 1202     		.2byte	0x212
 6018 19d4 A2000000 		.4byte	0xa2
 6019 19d8 00       		.byte	0
 6020 19d9 0F       		.uleb128 0xf
 6021 19da AA360000 		.4byte	.LASF745
 6022 19de 06       		.byte	0x6
 6023 19df 1302     		.2byte	0x213
 6024 19e1 D9000000 		.4byte	0xd9
 6025 19e5 01       		.byte	0x1
 6026 19e6 0F       		.uleb128 0xf
 6027 19e7 4A010000 		.4byte	.LASF746
 6028 19eb 06       		.byte	0x6
 6029 19ec 1402     		.2byte	0x214
 6030 19ee 3F010000 		.4byte	0x13f
 6031 19f2 03       		.byte	0x3
 6032 19f3 0F       		.uleb128 0xf
 6033 19f4 3B160000 		.4byte	.LASF670
 6034 19f8 06       		.byte	0x6
 6035 19f9 1502     		.2byte	0x215
 6036 19fb AD000000 		.4byte	0xad
 6037 19ff 18       		.byte	0x18
 6038 1a00 00       		.byte	0
 6039 1a01 14       		.uleb128 0x14
 6040 1a02 833C0000 		.4byte	.LASF747
 6041 1a06 08       		.byte	0x8
 6042 1a07 07       		.byte	0x7
 6043 1a08 3A       		.byte	0x3a
 6044 1a09 621A0000 		.4byte	0x1a62
 6045 1a0d 15       		.uleb128 0x15
 6046 1a0e 75140000 		.4byte	.LASF748
ARM GAS  C:\Users\AHMED~1.ELE\AppData\Local\Temp\cckRh1xc.s 			page 133


 6047 1a12 07       		.byte	0x7
 6048 1a13 3B       		.byte	0x3b
 6049 1a14 A2000000 		.4byte	0xa2
 6050 1a18 00       		.byte	0
 6051 1a19 15       		.uleb128 0x15
 6052 1a1a E4270000 		.4byte	.LASF749
 6053 1a1e 07       		.byte	0x7
 6054 1a1f 3C       		.byte	0x3c
 6055 1a20 A2000000 		.4byte	0xa2
 6056 1a24 01       		.byte	0x1
 6057 1a25 15       		.uleb128 0x15
 6058 1a26 F1450000 		.4byte	.LASF750
 6059 1a2a 07       		.byte	0x7
 6060 1a2b 3D       		.byte	0x3d
 6061 1a2c A2000000 		.4byte	0xa2
 6062 1a30 02       		.byte	0x2
 6063 1a31 15       		.uleb128 0x15
 6064 1a32 F0220000 		.4byte	.LASF751
 6065 1a36 07       		.byte	0x7
 6066 1a37 3E       		.byte	0x3e
 6067 1a38 A2000000 		.4byte	0xa2
 6068 1a3c 03       		.byte	0x3
 6069 1a3d 15       		.uleb128 0x15
 6070 1a3e 52010000 		.4byte	.LASF752
 6071 1a42 07       		.byte	0x7
 6072 1a43 3F       		.byte	0x3f
 6073 1a44 A2000000 		.4byte	0xa2
 6074 1a48 04       		.byte	0x4
 6075 1a49 15       		.uleb128 0x15
 6076 1a4a 32000000 		.4byte	.LASF753
 6077 1a4e 07       		.byte	0x7
 6078 1a4f 40       		.byte	0x40
 6079 1a50 A2000000 		.4byte	0xa2
 6080 1a54 05       		.byte	0x5
 6081 1a55 15       		.uleb128 0x15
 6082 1a56 41010000 		.4byte	.LASF754
 6083 1a5a 07       		.byte	0x7
 6084 1a5b 41       		.byte	0x41
 6085 1a5c A2000000 		.4byte	0xa2
 6086 1a60 06       		.byte	0x6
 6087 1a61 00       		.byte	0
 6088 1a62 10       		.uleb128 0x10
 6089 1a63 01       		.byte	0x1
 6090 1a64 08       		.byte	0x8
 6091 1a65 34       		.byte	0x34
 6092 1a66 291E0000 		.4byte	0x1e29
 6093 1a6a 0B       		.uleb128 0xb
 6094 1a6b C70B0000 		.4byte	.LASF755
 6095 1a6f 00       		.sleb128 0
 6096 1a70 0B       		.uleb128 0xb
 6097 1a71 3E0B0000 		.4byte	.LASF756
 6098 1a75 01       		.sleb128 1
 6099 1a76 0B       		.uleb128 0xb
 6100 1a77 A80A0000 		.4byte	.LASF757
 6101 1a7b 02       		.sleb128 2
 6102 1a7c 0B       		.uleb128 0xb
 6103 1a7d 00360000 		.4byte	.LASF758
ARM GAS  C:\Users\AHMED~1.ELE\AppData\Local\Temp\cckRh1xc.s 			page 134


 6104 1a81 03       		.sleb128 3
 6105 1a82 0B       		.uleb128 0xb
 6106 1a83 C3430000 		.4byte	.LASF759
 6107 1a87 04       		.sleb128 4
 6108 1a88 0B       		.uleb128 0xb
 6109 1a89 FD2D0000 		.4byte	.LASF760
 6110 1a8d 05       		.sleb128 5
 6111 1a8e 0B       		.uleb128 0xb
 6112 1a8f 9D100000 		.4byte	.LASF761
 6113 1a93 06       		.sleb128 6
 6114 1a94 0B       		.uleb128 0xb
 6115 1a95 092E0000 		.4byte	.LASF762
 6116 1a99 07       		.sleb128 7
 6117 1a9a 0B       		.uleb128 0xb
 6118 1a9b 3C140000 		.4byte	.LASF763
 6119 1a9f 08       		.sleb128 8
 6120 1aa0 0B       		.uleb128 0xb
 6121 1aa1 962E0000 		.4byte	.LASF764
 6122 1aa5 09       		.sleb128 9
 6123 1aa6 0B       		.uleb128 0xb
 6124 1aa7 93300000 		.4byte	.LASF765
 6125 1aab 0A       		.sleb128 10
 6126 1aac 0B       		.uleb128 0xb
 6127 1aad 27380000 		.4byte	.LASF766
 6128 1ab1 0B       		.sleb128 11
 6129 1ab2 0B       		.uleb128 0xb
 6130 1ab3 F3030000 		.4byte	.LASF767
 6131 1ab7 0C       		.sleb128 12
 6132 1ab8 0B       		.uleb128 0xb
 6133 1ab9 ED2D0000 		.4byte	.LASF768
 6134 1abd 0D       		.sleb128 13
 6135 1abe 0B       		.uleb128 0xb
 6136 1abf 7E380000 		.4byte	.LASF769
 6137 1ac3 0E       		.sleb128 14
 6138 1ac4 0B       		.uleb128 0xb
 6139 1ac5 972A0000 		.4byte	.LASF770
 6140 1ac9 0F       		.sleb128 15
 6141 1aca 0B       		.uleb128 0xb
 6142 1acb FA180000 		.4byte	.LASF771
 6143 1acf 10       		.sleb128 16
 6144 1ad0 0B       		.uleb128 0xb
 6145 1ad1 A6060000 		.4byte	.LASF772
 6146 1ad5 11       		.sleb128 17
 6147 1ad6 0B       		.uleb128 0xb
 6148 1ad7 F0070000 		.4byte	.LASF773
 6149 1adb 12       		.sleb128 18
 6150 1adc 0B       		.uleb128 0xb
 6151 1add 4C060000 		.4byte	.LASF774
 6152 1ae1 13       		.sleb128 19
 6153 1ae2 0B       		.uleb128 0xb
 6154 1ae3 93070000 		.4byte	.LASF775
 6155 1ae7 14       		.sleb128 20
 6156 1ae8 0B       		.uleb128 0xb
 6157 1ae9 61140000 		.4byte	.LASF776
 6158 1aed 15       		.sleb128 21
 6159 1aee 0B       		.uleb128 0xb
 6160 1aef 55000000 		.4byte	.LASF777
ARM GAS  C:\Users\AHMED~1.ELE\AppData\Local\Temp\cckRh1xc.s 			page 135


 6161 1af3 16       		.sleb128 22
 6162 1af4 0B       		.uleb128 0xb
 6163 1af5 40190000 		.4byte	.LASF778
 6164 1af9 17       		.sleb128 23
 6165 1afa 0B       		.uleb128 0xb
 6166 1afb 47450000 		.4byte	.LASF779
 6167 1aff 18       		.sleb128 24
 6168 1b00 0B       		.uleb128 0xb
 6169 1b01 5E320000 		.4byte	.LASF780
 6170 1b05 19       		.sleb128 25
 6171 1b06 0B       		.uleb128 0xb
 6172 1b07 89210000 		.4byte	.LASF781
 6173 1b0b 1A       		.sleb128 26
 6174 1b0c 0B       		.uleb128 0xb
 6175 1b0d A0200000 		.4byte	.LASF782
 6176 1b11 1B       		.sleb128 27
 6177 1b12 0B       		.uleb128 0xb
 6178 1b13 5B170000 		.4byte	.LASF783
 6179 1b17 1C       		.sleb128 28
 6180 1b18 0B       		.uleb128 0xb
 6181 1b19 FD2B0000 		.4byte	.LASF784
 6182 1b1d 1D       		.sleb128 29
 6183 1b1e 0B       		.uleb128 0xb
 6184 1b1f 42050000 		.4byte	.LASF785
 6185 1b23 1E       		.sleb128 30
 6186 1b24 0B       		.uleb128 0xb
 6187 1b25 C51B0000 		.4byte	.LASF786
 6188 1b29 1F       		.sleb128 31
 6189 1b2a 0B       		.uleb128 0xb
 6190 1b2b 370F0000 		.4byte	.LASF787
 6191 1b2f 20       		.sleb128 32
 6192 1b30 0B       		.uleb128 0xb
 6193 1b31 BC450000 		.4byte	.LASF788
 6194 1b35 21       		.sleb128 33
 6195 1b36 0B       		.uleb128 0xb
 6196 1b37 82430000 		.4byte	.LASF789
 6197 1b3b 22       		.sleb128 34
 6198 1b3c 0B       		.uleb128 0xb
 6199 1b3d AD3B0000 		.4byte	.LASF790
 6200 1b41 23       		.sleb128 35
 6201 1b42 0B       		.uleb128 0xb
 6202 1b43 05300000 		.4byte	.LASF791
 6203 1b47 24       		.sleb128 36
 6204 1b48 0B       		.uleb128 0xb
 6205 1b49 C6140000 		.4byte	.LASF792
 6206 1b4d 25       		.sleb128 37
 6207 1b4e 0B       		.uleb128 0xb
 6208 1b4f 01330000 		.4byte	.LASF793
 6209 1b53 26       		.sleb128 38
 6210 1b54 0B       		.uleb128 0xb
 6211 1b55 91080000 		.4byte	.LASF794
 6212 1b59 27       		.sleb128 39
 6213 1b5a 0B       		.uleb128 0xb
 6214 1b5b AB210000 		.4byte	.LASF795
 6215 1b5f 28       		.sleb128 40
 6216 1b60 0B       		.uleb128 0xb
 6217 1b61 6D440000 		.4byte	.LASF796
ARM GAS  C:\Users\AHMED~1.ELE\AppData\Local\Temp\cckRh1xc.s 			page 136


 6218 1b65 29       		.sleb128 41
 6219 1b66 0B       		.uleb128 0xb
 6220 1b67 FB3E0000 		.4byte	.LASF797
 6221 1b6b 2A       		.sleb128 42
 6222 1b6c 0B       		.uleb128 0xb
 6223 1b6d 84020000 		.4byte	.LASF798
 6224 1b71 2B       		.sleb128 43
 6225 1b72 0B       		.uleb128 0xb
 6226 1b73 360C0000 		.4byte	.LASF799
 6227 1b77 2C       		.sleb128 44
 6228 1b78 0B       		.uleb128 0xb
 6229 1b79 53300000 		.4byte	.LASF800
 6230 1b7d 2D       		.sleb128 45
 6231 1b7e 0B       		.uleb128 0xb
 6232 1b7f EB370000 		.4byte	.LASF801
 6233 1b83 2E       		.sleb128 46
 6234 1b84 0B       		.uleb128 0xb
 6235 1b85 DF1C0000 		.4byte	.LASF802
 6236 1b89 2F       		.sleb128 47
 6237 1b8a 0B       		.uleb128 0xb
 6238 1b8b C7110000 		.4byte	.LASF803
 6239 1b8f 30       		.sleb128 48
 6240 1b90 0B       		.uleb128 0xb
 6241 1b91 AC420000 		.4byte	.LASF804
 6242 1b95 31       		.sleb128 49
 6243 1b96 0B       		.uleb128 0xb
 6244 1b97 63420000 		.4byte	.LASF805
 6245 1b9b 32       		.sleb128 50
 6246 1b9c 0B       		.uleb128 0xb
 6247 1b9d 57100000 		.4byte	.LASF806
 6248 1ba1 33       		.sleb128 51
 6249 1ba2 0B       		.uleb128 0xb
 6250 1ba3 6F460000 		.4byte	.LASF807
 6251 1ba7 34       		.sleb128 52
 6252 1ba8 0B       		.uleb128 0xb
 6253 1ba9 34280000 		.4byte	.LASF808
 6254 1bad 35       		.sleb128 53
 6255 1bae 0B       		.uleb128 0xb
 6256 1baf AD000000 		.4byte	.LASF809
 6257 1bb3 36       		.sleb128 54
 6258 1bb4 0B       		.uleb128 0xb
 6259 1bb5 8E380000 		.4byte	.LASF810
 6260 1bb9 37       		.sleb128 55
 6261 1bba 0B       		.uleb128 0xb
 6262 1bbb 342D0000 		.4byte	.LASF811
 6263 1bbf 38       		.sleb128 56
 6264 1bc0 0B       		.uleb128 0xb
 6265 1bc1 2A410000 		.4byte	.LASF812
 6266 1bc5 39       		.sleb128 57
 6267 1bc6 0B       		.uleb128 0xb
 6268 1bc7 A3310000 		.4byte	.LASF813
 6269 1bcb 3A       		.sleb128 58
 6270 1bcc 0B       		.uleb128 0xb
 6271 1bcd 533D0000 		.4byte	.LASF814
 6272 1bd1 3B       		.sleb128 59
 6273 1bd2 0B       		.uleb128 0xb
 6274 1bd3 711B0000 		.4byte	.LASF815
ARM GAS  C:\Users\AHMED~1.ELE\AppData\Local\Temp\cckRh1xc.s 			page 137


 6275 1bd7 3C       		.sleb128 60
 6276 1bd8 0B       		.uleb128 0xb
 6277 1bd9 05460000 		.4byte	.LASF816
 6278 1bdd 3D       		.sleb128 61
 6279 1bde 0B       		.uleb128 0xb
 6280 1bdf 0E0F0000 		.4byte	.LASF817
 6281 1be3 3E       		.sleb128 62
 6282 1be4 0B       		.uleb128 0xb
 6283 1be5 D41A0000 		.4byte	.LASF818
 6284 1be9 3F       		.sleb128 63
 6285 1bea 0B       		.uleb128 0xb
 6286 1beb 62260000 		.4byte	.LASF819
 6287 1bef C000     		.sleb128 64
 6288 1bf1 0B       		.uleb128 0xb
 6289 1bf2 8F1A0000 		.4byte	.LASF820
 6290 1bf6 C100     		.sleb128 65
 6291 1bf8 0B       		.uleb128 0xb
 6292 1bf9 F4120000 		.4byte	.LASF821
 6293 1bfd C200     		.sleb128 66
 6294 1bff 0B       		.uleb128 0xb
 6295 1c00 C4100000 		.4byte	.LASF822
 6296 1c04 C300     		.sleb128 67
 6297 1c06 0B       		.uleb128 0xb
 6298 1c07 A9160000 		.4byte	.LASF823
 6299 1c0b C400     		.sleb128 68
 6300 1c0d 0B       		.uleb128 0xb
 6301 1c0e 3E220000 		.4byte	.LASF824
 6302 1c12 C500     		.sleb128 69
 6303 1c14 0B       		.uleb128 0xb
 6304 1c15 FC190000 		.4byte	.LASF825
 6305 1c19 C600     		.sleb128 70
 6306 1c1b 0B       		.uleb128 0xb
 6307 1c1c E10E0000 		.4byte	.LASF826
 6308 1c20 C700     		.sleb128 71
 6309 1c22 0B       		.uleb128 0xb
 6310 1c23 12430000 		.4byte	.LASF827
 6311 1c27 C800     		.sleb128 72
 6312 1c29 0B       		.uleb128 0xb
 6313 1c2a FC3D0000 		.4byte	.LASF828
 6314 1c2e C900     		.sleb128 73
 6315 1c30 0B       		.uleb128 0xb
 6316 1c31 A1220000 		.4byte	.LASF829
 6317 1c35 CA00     		.sleb128 74
 6318 1c37 0B       		.uleb128 0xb
 6319 1c38 CB3C0000 		.4byte	.LASF830
 6320 1c3c CB00     		.sleb128 75
 6321 1c3e 0B       		.uleb128 0xb
 6322 1c3f 4F410000 		.4byte	.LASF831
 6323 1c43 CC00     		.sleb128 76
 6324 1c45 0B       		.uleb128 0xb
 6325 1c46 243B0000 		.4byte	.LASF832
 6326 1c4a CD00     		.sleb128 77
 6327 1c4c 0B       		.uleb128 0xb
 6328 1c4d 2A3D0000 		.4byte	.LASF833
 6329 1c51 CE00     		.sleb128 78
 6330 1c53 0B       		.uleb128 0xb
 6331 1c54 68400000 		.4byte	.LASF834
ARM GAS  C:\Users\AHMED~1.ELE\AppData\Local\Temp\cckRh1xc.s 			page 138


 6332 1c58 CF00     		.sleb128 79
 6333 1c5a 0B       		.uleb128 0xb
 6334 1c5b 552F0000 		.4byte	.LASF835
 6335 1c5f D000     		.sleb128 80
 6336 1c61 0B       		.uleb128 0xb
 6337 1c62 9B230000 		.4byte	.LASF836
 6338 1c66 D100     		.sleb128 81
 6339 1c68 0B       		.uleb128 0xb
 6340 1c69 220B0000 		.4byte	.LASF837
 6341 1c6d D200     		.sleb128 82
 6342 1c6f 0B       		.uleb128 0xb
 6343 1c70 B60B0000 		.4byte	.LASF838
 6344 1c74 D300     		.sleb128 83
 6345 1c76 0B       		.uleb128 0xb
 6346 1c77 683C0000 		.4byte	.LASF839
 6347 1c7b D400     		.sleb128 84
 6348 1c7d 0B       		.uleb128 0xb
 6349 1c7e AB330000 		.4byte	.LASF840
 6350 1c82 D500     		.sleb128 85
 6351 1c84 0B       		.uleb128 0xb
 6352 1c85 8C400000 		.4byte	.LASF841
 6353 1c89 D600     		.sleb128 86
 6354 1c8b 0B       		.uleb128 0xb
 6355 1c8c 3F3D0000 		.4byte	.LASF842
 6356 1c90 D700     		.sleb128 87
 6357 1c92 0B       		.uleb128 0xb
 6358 1c93 B2220000 		.4byte	.LASF843
 6359 1c97 D800     		.sleb128 88
 6360 1c99 0B       		.uleb128 0xb
 6361 1c9a 3A0D0000 		.4byte	.LASF844
 6362 1c9e D900     		.sleb128 89
 6363 1ca0 0B       		.uleb128 0xb
 6364 1ca1 3D300000 		.4byte	.LASF845
 6365 1ca5 DA00     		.sleb128 90
 6366 1ca7 0B       		.uleb128 0xb
 6367 1ca8 10390000 		.4byte	.LASF846
 6368 1cac DB00     		.sleb128 91
 6369 1cae 0B       		.uleb128 0xb
 6370 1caf B9070000 		.4byte	.LASF847
 6371 1cb3 DC00     		.sleb128 92
 6372 1cb5 0B       		.uleb128 0xb
 6373 1cb6 001F0000 		.4byte	.LASF848
 6374 1cba DD00     		.sleb128 93
 6375 1cbc 0B       		.uleb128 0xb
 6376 1cbd A4250000 		.4byte	.LASF849
 6377 1cc1 DE00     		.sleb128 94
 6378 1cc3 0B       		.uleb128 0xb
 6379 1cc4 6E0F0000 		.4byte	.LASF850
 6380 1cc8 DF00     		.sleb128 95
 6381 1cca 0B       		.uleb128 0xb
 6382 1ccb 2E3E0000 		.4byte	.LASF851
 6383 1ccf E000     		.sleb128 96
 6384 1cd1 0B       		.uleb128 0xb
 6385 1cd2 56360000 		.4byte	.LASF852
 6386 1cd6 E100     		.sleb128 97
 6387 1cd8 0B       		.uleb128 0xb
 6388 1cd9 55080000 		.4byte	.LASF853
ARM GAS  C:\Users\AHMED~1.ELE\AppData\Local\Temp\cckRh1xc.s 			page 139


 6389 1cdd E200     		.sleb128 98
 6390 1cdf 0B       		.uleb128 0xb
 6391 1ce0 862A0000 		.4byte	.LASF854
 6392 1ce4 E300     		.sleb128 99
 6393 1ce6 0B       		.uleb128 0xb
 6394 1ce7 782C0000 		.4byte	.LASF855
 6395 1ceb E400     		.sleb128 100
 6396 1ced 0B       		.uleb128 0xb
 6397 1cee FE390000 		.4byte	.LASF856
 6398 1cf2 E500     		.sleb128 101
 6399 1cf4 0B       		.uleb128 0xb
 6400 1cf5 4B430000 		.4byte	.LASF857
 6401 1cf9 E600     		.sleb128 102
 6402 1cfb 0B       		.uleb128 0xb
 6403 1cfc FF070000 		.4byte	.LASF858
 6404 1d00 E700     		.sleb128 103
 6405 1d02 0B       		.uleb128 0xb
 6406 1d03 2C1C0000 		.4byte	.LASF859
 6407 1d07 E800     		.sleb128 104
 6408 1d09 0B       		.uleb128 0xb
 6409 1d0a 7E120000 		.4byte	.LASF860
 6410 1d0e E900     		.sleb128 105
 6411 1d10 0B       		.uleb128 0xb
 6412 1d11 59020000 		.4byte	.LASF861
 6413 1d15 EA00     		.sleb128 106
 6414 1d17 0B       		.uleb128 0xb
 6415 1d18 0E2D0000 		.4byte	.LASF862
 6416 1d1c EB00     		.sleb128 107
 6417 1d1e 0B       		.uleb128 0xb
 6418 1d1f 2D0E0000 		.4byte	.LASF863
 6419 1d23 EC00     		.sleb128 108
 6420 1d25 0B       		.uleb128 0xb
 6421 1d26 3D0E0000 		.4byte	.LASF864
 6422 1d2a ED00     		.sleb128 109
 6423 1d2c 0B       		.uleb128 0xb
 6424 1d2d 4D0E0000 		.4byte	.LASF865
 6425 1d31 EE00     		.sleb128 110
 6426 1d33 0B       		.uleb128 0xb
 6427 1d34 5D0E0000 		.4byte	.LASF866
 6428 1d38 EF00     		.sleb128 111
 6429 1d3a 0B       		.uleb128 0xb
 6430 1d3b 782B0000 		.4byte	.LASF867
 6431 1d3f F000     		.sleb128 112
 6432 1d41 0B       		.uleb128 0xb
 6433 1d42 23060000 		.4byte	.LASF868
 6434 1d46 F100     		.sleb128 113
 6435 1d48 0B       		.uleb128 0xb
 6436 1d49 E9190000 		.4byte	.LASF869
 6437 1d4d F200     		.sleb128 114
 6438 1d4f 0B       		.uleb128 0xb
 6439 1d50 6E3A0000 		.4byte	.LASF870
 6440 1d54 F300     		.sleb128 115
 6441 1d56 0B       		.uleb128 0xb
 6442 1d57 4D0F0000 		.4byte	.LASF871
 6443 1d5b F400     		.sleb128 116
 6444 1d5d 0B       		.uleb128 0xb
 6445 1d5e 01040000 		.4byte	.LASF872
ARM GAS  C:\Users\AHMED~1.ELE\AppData\Local\Temp\cckRh1xc.s 			page 140


 6446 1d62 F500     		.sleb128 117
 6447 1d64 0B       		.uleb128 0xb
 6448 1d65 F01C0000 		.4byte	.LASF873
 6449 1d69 F600     		.sleb128 118
 6450 1d6b 0B       		.uleb128 0xb
 6451 1d6c 31420000 		.4byte	.LASF874
 6452 1d70 F700     		.sleb128 119
 6453 1d72 0B       		.uleb128 0xb
 6454 1d73 3A200000 		.4byte	.LASF875
 6455 1d77 F800     		.sleb128 120
 6456 1d79 0B       		.uleb128 0xb
 6457 1d7a B53C0000 		.4byte	.LASF876
 6458 1d7e F900     		.sleb128 121
 6459 1d80 0B       		.uleb128 0xb
 6460 1d81 50190000 		.4byte	.LASF877
 6461 1d85 FA00     		.sleb128 122
 6462 1d87 0B       		.uleb128 0xb
 6463 1d88 62390000 		.4byte	.LASF878
 6464 1d8c FB00     		.sleb128 123
 6465 1d8e 0B       		.uleb128 0xb
 6466 1d8f 3A440000 		.4byte	.LASF879
 6467 1d93 FC00     		.sleb128 124
 6468 1d95 0B       		.uleb128 0xb
 6469 1d96 FF0D0000 		.4byte	.LASF880
 6470 1d9a FD00     		.sleb128 125
 6471 1d9c 0B       		.uleb128 0xb
 6472 1d9d F9410000 		.4byte	.LASF881
 6473 1da1 FE00     		.sleb128 126
 6474 1da3 0B       		.uleb128 0xb
 6475 1da4 15240000 		.4byte	.LASF882
 6476 1da8 FF00     		.sleb128 127
 6477 1daa 0B       		.uleb128 0xb
 6478 1dab 7B330000 		.4byte	.LASF883
 6479 1daf 8001     		.sleb128 128
 6480 1db1 0B       		.uleb128 0xb
 6481 1db2 26040000 		.4byte	.LASF884
 6482 1db6 8101     		.sleb128 129
 6483 1db8 0B       		.uleb128 0xb
 6484 1db9 13280000 		.4byte	.LASF885
 6485 1dbd 8201     		.sleb128 130
 6486 1dbf 0B       		.uleb128 0xb
 6487 1dc0 0D420000 		.4byte	.LASF886
 6488 1dc4 8301     		.sleb128 131
 6489 1dc6 0B       		.uleb128 0xb
 6490 1dc7 C7170000 		.4byte	.LASF887
 6491 1dcb 8401     		.sleb128 132
 6492 1dcd 0B       		.uleb128 0xb
 6493 1dce 4F110000 		.4byte	.LASF888
 6494 1dd2 8501     		.sleb128 133
 6495 1dd4 0B       		.uleb128 0xb
 6496 1dd5 12360000 		.4byte	.LASF889
 6497 1dd9 8601     		.sleb128 134
 6498 1ddb 0B       		.uleb128 0xb
 6499 1ddc 2F050000 		.4byte	.LASF890
 6500 1de0 8701     		.sleb128 135
 6501 1de2 0B       		.uleb128 0xb
 6502 1de3 C4050000 		.4byte	.LASF891
ARM GAS  C:\Users\AHMED~1.ELE\AppData\Local\Temp\cckRh1xc.s 			page 141


 6503 1de7 8801     		.sleb128 136
 6504 1de9 0B       		.uleb128 0xb
 6505 1dea 00220000 		.4byte	.LASF892
 6506 1dee 8901     		.sleb128 137
 6507 1df0 0B       		.uleb128 0xb
 6508 1df1 B4200000 		.4byte	.LASF893
 6509 1df5 8A01     		.sleb128 138
 6510 1df7 0B       		.uleb128 0xb
 6511 1df8 452D0000 		.4byte	.LASF894
 6512 1dfc 8B01     		.sleb128 139
 6513 1dfe 0B       		.uleb128 0xb
 6514 1dff B8400000 		.4byte	.LASF895
 6515 1e03 8C01     		.sleb128 140
 6516 1e05 0B       		.uleb128 0xb
 6517 1e06 5E220000 		.4byte	.LASF896
 6518 1e0a 8D01     		.sleb128 141
 6519 1e0c 0B       		.uleb128 0xb
 6520 1e0d A10E0000 		.4byte	.LASF897
 6521 1e11 8E01     		.sleb128 142
 6522 1e13 0B       		.uleb128 0xb
 6523 1e14 C5350000 		.4byte	.LASF898
 6524 1e18 8F01     		.sleb128 143
 6525 1e1a 0B       		.uleb128 0xb
 6526 1e1b 542A0000 		.4byte	.LASF899
 6527 1e1f 9001     		.sleb128 144
 6528 1e21 0B       		.uleb128 0xb
 6529 1e22 CD310000 		.4byte	.LASF900
 6530 1e26 9101     		.sleb128 145
 6531 1e28 00       		.byte	0
 6532 1e29 10       		.uleb128 0x10
 6533 1e2a 01       		.byte	0x1
 6534 1e2b 09       		.byte	0x9
 6535 1e2c 2E       		.byte	0x2e
 6536 1e2d 681E0000 		.4byte	0x1e68
 6537 1e31 0B       		.uleb128 0xb
 6538 1e32 CE2E0000 		.4byte	.LASF901
 6539 1e36 00       		.sleb128 0
 6540 1e37 0B       		.uleb128 0xb
 6541 1e38 6D1F0000 		.4byte	.LASF902
 6542 1e3c 01       		.sleb128 1
 6543 1e3d 0B       		.uleb128 0xb
 6544 1e3e 4B100000 		.4byte	.LASF903
 6545 1e42 02       		.sleb128 2
 6546 1e43 0B       		.uleb128 0xb
 6547 1e44 43110000 		.4byte	.LASF904
 6548 1e48 03       		.sleb128 3
 6549 1e49 0B       		.uleb128 0xb
 6550 1e4a 8E000000 		.4byte	.LASF905
 6551 1e4e 04       		.sleb128 4
 6552 1e4f 0B       		.uleb128 0xb
 6553 1e50 EE1B0000 		.4byte	.LASF906
 6554 1e54 05       		.sleb128 5
 6555 1e55 0B       		.uleb128 0xb
 6556 1e56 A22E0000 		.4byte	.LASF907
 6557 1e5a 06       		.sleb128 6
 6558 1e5b 0B       		.uleb128 0xb
 6559 1e5c 7E1E0000 		.4byte	.LASF908
ARM GAS  C:\Users\AHMED~1.ELE\AppData\Local\Temp\cckRh1xc.s 			page 142


 6560 1e60 07       		.sleb128 7
 6561 1e61 0B       		.uleb128 0xb
 6562 1e62 15310000 		.4byte	.LASF909
 6563 1e66 08       		.sleb128 8
 6564 1e67 00       		.byte	0
 6565 1e68 16       		.uleb128 0x16
 6566 1e69 08       		.byte	0x8
 6567 1e6a 09       		.byte	0x9
 6568 1e6b 58       		.byte	0x58
 6569 1e6c 891E0000 		.4byte	0x1e89
 6570 1e70 15       		.uleb128 0x15
 6571 1e71 08420000 		.4byte	.LASF609
 6572 1e75 09       		.byte	0x9
 6573 1e76 59       		.byte	0x59
 6574 1e77 AD000000 		.4byte	0xad
 6575 1e7b 00       		.byte	0
 6576 1e7c 15       		.uleb128 0x15
 6577 1e7d 2E230000 		.4byte	.LASF910
 6578 1e81 09       		.byte	0x9
 6579 1e82 5A       		.byte	0x5a
 6580 1e83 E9000000 		.4byte	0xe9
 6581 1e87 04       		.byte	0x4
 6582 1e88 00       		.byte	0
 6583 1e89 04       		.uleb128 0x4
 6584 1e8a 40370000 		.4byte	.LASF911
 6585 1e8e 09       		.byte	0x9
 6586 1e8f 5B       		.byte	0x5b
 6587 1e90 681E0000 		.4byte	0x1e68
 6588 1e94 17       		.uleb128 0x17
 6589 1e95 544C00   		.ascii	"TL\000"
 6590 1e98 09       		.byte	0x9
 6591 1e99 AD       		.byte	0xad
 6592 1e9a 2C000000 		.4byte	0x2c
 6593 1e9e 16       		.uleb128 0x16
 6594 1e9f 08       		.byte	0x8
 6595 1ea0 09       		.byte	0x9
 6596 1ea1 B0       		.byte	0xb0
 6597 1ea2 CB1E0000 		.4byte	0x1ecb
 6598 1ea6 15       		.uleb128 0x15
 6599 1ea7 1B140000 		.4byte	.LASF912
 6600 1eab 09       		.byte	0x9
 6601 1eac B1       		.byte	0xb1
 6602 1ead AD000000 		.4byte	0xad
 6603 1eb1 00       		.byte	0
 6604 1eb2 15       		.uleb128 0x15
 6605 1eb3 38040000 		.4byte	.LASF913
 6606 1eb7 09       		.byte	0x9
 6607 1eb8 B2       		.byte	0xb2
 6608 1eb9 941E0000 		.4byte	0x1e94
 6609 1ebd 02       		.byte	0x2
 6610 1ebe 15       		.uleb128 0x15
 6611 1ebf 34370000 		.4byte	.LASF914
 6612 1ec3 09       		.byte	0x9
 6613 1ec4 B3       		.byte	0xb3
 6614 1ec5 E9000000 		.4byte	0xe9
 6615 1ec9 04       		.byte	0x4
 6616 1eca 00       		.byte	0
ARM GAS  C:\Users\AHMED~1.ELE\AppData\Local\Temp\cckRh1xc.s 			page 143


 6617 1ecb 04       		.uleb128 0x4
 6618 1ecc 7B3D0000 		.4byte	.LASF915
 6619 1ed0 09       		.byte	0x9
 6620 1ed1 B4       		.byte	0xb4
 6621 1ed2 9E1E0000 		.4byte	0x1e9e
 6622 1ed6 18       		.uleb128 0x18
 6623 1ed7 08       		.byte	0x8
 6624 1ed8 0A       		.byte	0xa
 6625 1ed9 2B01     		.2byte	0x12b
 6626 1edb FA1E0000 		.4byte	0x1efa
 6627 1edf 0F       		.uleb128 0xf
 6628 1ee0 08420000 		.4byte	.LASF609
 6629 1ee4 0A       		.byte	0xa
 6630 1ee5 2C01     		.2byte	0x12c
 6631 1ee7 AD000000 		.4byte	0xad
 6632 1eeb 00       		.byte	0
 6633 1eec 0F       		.uleb128 0xf
 6634 1eed 1A190000 		.4byte	.LASF916
 6635 1ef1 0A       		.byte	0xa
 6636 1ef2 2D01     		.2byte	0x12d
 6637 1ef4 E9000000 		.4byte	0xe9
 6638 1ef8 04       		.byte	0x4
 6639 1ef9 00       		.byte	0
 6640 1efa 19       		.uleb128 0x19
 6641 1efb 9C090000 		.4byte	.LASF917
 6642 1eff 0A       		.byte	0xa
 6643 1f00 2E01     		.2byte	0x12e
 6644 1f02 D61E0000 		.4byte	0x1ed6
 6645 1f06 1A       		.uleb128 0x1a
 6646 1f07 65330000 		.4byte	.LASF918
 6647 1f0b 0406     		.2byte	0x604
 6648 1f0d 0B       		.byte	0xb
 6649 1f0e 22       		.byte	0x22
 6650 1f0f 381F0000 		.4byte	0x1f38
 6651 1f13 15       		.uleb128 0x15
 6652 1f14 F5020000 		.4byte	.LASF919
 6653 1f18 0B       		.byte	0xb
 6654 1f19 23       		.byte	0x23
 6655 1f1a A2000000 		.4byte	0xa2
 6656 1f1e 00       		.byte	0
 6657 1f1f 15       		.uleb128 0x15
 6658 1f20 B5030000 		.4byte	.LASF920
 6659 1f24 0B       		.byte	0xb
 6660 1f25 24       		.byte	0x24
 6661 1f26 A2000000 		.4byte	0xa2
 6662 1f2a 01       		.byte	0x1
 6663 1f2b 15       		.uleb128 0x15
 6664 1f2c 030D0000 		.4byte	.LASF496
 6665 1f30 0B       		.byte	0xb
 6666 1f31 25       		.byte	0x25
 6667 1f32 381F0000 		.4byte	0x1f38
 6668 1f36 02       		.byte	0x2
 6669 1f37 00       		.byte	0
 6670 1f38 08       		.uleb128 0x8
 6671 1f39 A2000000 		.4byte	0xa2
 6672 1f3d 491F0000 		.4byte	0x1f49
 6673 1f41 12       		.uleb128 0x12
ARM GAS  C:\Users\AHMED~1.ELE\AppData\Local\Temp\cckRh1xc.s 			page 144


 6674 1f42 78000000 		.4byte	0x78
 6675 1f46 FF05     		.2byte	0x5ff
 6676 1f48 00       		.byte	0
 6677 1f49 1A       		.uleb128 0x1a
 6678 1f4a 63410000 		.4byte	.LASF921
 6679 1f4e 7401     		.2byte	0x174
 6680 1f50 0C       		.byte	0xc
 6681 1f51 5B       		.byte	0x5b
 6682 1f52 B71F0000 		.4byte	0x1fb7
 6683 1f56 15       		.uleb128 0x15
 6684 1f57 072B0000 		.4byte	.LASF922
 6685 1f5b 0C       		.byte	0xc
 6686 1f5c 5C       		.byte	0x5c
 6687 1f5d 1F010000 		.4byte	0x11f
 6688 1f61 00       		.byte	0
 6689 1f62 15       		.uleb128 0x15
 6690 1f63 96020000 		.4byte	.LASF923
 6691 1f67 0C       		.byte	0xc
 6692 1f68 5D       		.byte	0x5d
 6693 1f69 A2000000 		.4byte	0xa2
 6694 1f6d 10       		.byte	0x10
 6695 1f6e 15       		.uleb128 0x15
 6696 1f6f 18250000 		.4byte	.LASF924
 6697 1f73 0C       		.byte	0xc
 6698 1f74 5E       		.byte	0x5e
 6699 1f75 0C0E0000 		.4byte	0xe0c
 6700 1f79 11       		.byte	0x11
 6701 1f7a 15       		.uleb128 0x15
 6702 1f7b 4F0D0000 		.4byte	.LASF925
 6703 1f7f 0C       		.byte	0xc
 6704 1f80 5F       		.byte	0x5f
 6705 1f81 44170000 		.4byte	0x1744
 6706 1f85 18       		.byte	0x18
 6707 1f86 15       		.uleb128 0x15
 6708 1f87 8D0D0000 		.4byte	.LASF926
 6709 1f8b 0C       		.byte	0xc
 6710 1f8c 60       		.byte	0x60
 6711 1f8d D9000000 		.4byte	0xd9
 6712 1f91 1D       		.byte	0x1d
 6713 1f92 15       		.uleb128 0x15
 6714 1f93 2B1F0000 		.4byte	.LASF927
 6715 1f97 0C       		.byte	0xc
 6716 1f98 61       		.byte	0x61
 6717 1f99 2F010000 		.4byte	0x12f
 6718 1f9d 1F       		.byte	0x1f
 6719 1f9e 15       		.uleb128 0x15
 6720 1f9f FA050000 		.4byte	.LASF928
 6721 1fa3 0C       		.byte	0xc
 6722 1fa4 62       		.byte	0x62
 6723 1fa5 AD000000 		.4byte	0xad
 6724 1fa9 28       		.byte	0x28
 6725 1faa 15       		.uleb128 0x15
 6726 1fab 533C0000 		.4byte	.LASF929
 6727 1faf 0C       		.byte	0xc
 6728 1fb0 63       		.byte	0x63
 6729 1fb1 B71F0000 		.4byte	0x1fb7
 6730 1fb5 2A       		.byte	0x2a
ARM GAS  C:\Users\AHMED~1.ELE\AppData\Local\Temp\cckRh1xc.s 			page 145


 6731 1fb6 00       		.byte	0
 6732 1fb7 08       		.uleb128 0x8
 6733 1fb8 A2000000 		.4byte	0xa2
 6734 1fbc C81F0000 		.4byte	0x1fc8
 6735 1fc0 12       		.uleb128 0x12
 6736 1fc1 78000000 		.4byte	0x78
 6737 1fc5 4901     		.2byte	0x149
 6738 1fc7 00       		.byte	0
 6739 1fc8 1A       		.uleb128 0x1a
 6740 1fc9 20450000 		.4byte	.LASF930
 6741 1fcd 0002     		.2byte	0x200
 6742 1fcf 0C       		.byte	0xc
 6743 1fd0 66       		.byte	0x66
 6744 1fd1 F7200000 		.4byte	0x20f7
 6745 1fd5 15       		.uleb128 0x15
 6746 1fd6 A1030000 		.4byte	.LASF931
 6747 1fda 0C       		.byte	0xc
 6748 1fdb 67       		.byte	0x67
 6749 1fdc A2000000 		.4byte	0xa2
 6750 1fe0 00       		.byte	0
 6751 1fe1 15       		.uleb128 0x15
 6752 1fe2 F6220000 		.4byte	.LASF932
 6753 1fe6 0C       		.byte	0xc
 6754 1fe7 67       		.byte	0x67
 6755 1fe8 A2000000 		.4byte	0xa2
 6756 1fec 01       		.byte	0x1
 6757 1fed 15       		.uleb128 0x15
 6758 1fee 4D020000 		.4byte	.LASF625
 6759 1ff2 0C       		.byte	0xc
 6760 1ff3 67       		.byte	0x67
 6761 1ff4 E3140000 		.4byte	0x14e3
 6762 1ff8 02       		.byte	0x2
 6763 1ff9 15       		.uleb128 0x15
 6764 1ffa C21D0000 		.4byte	.LASF933
 6765 1ffe 0C       		.byte	0xc
 6766 1fff 67       		.byte	0x67
 6767 2000 A2000000 		.4byte	0xa2
 6768 2004 05       		.byte	0x5
 6769 2005 15       		.uleb128 0x15
 6770 2006 20140000 		.4byte	.LASF626
 6771 200a 0C       		.byte	0xc
 6772 200b 67       		.byte	0x67
 6773 200c E3140000 		.4byte	0x14e3
 6774 2010 06       		.byte	0x6
 6775 2011 15       		.uleb128 0x15
 6776 2012 A1300000 		.4byte	.LASF934
 6777 2016 0C       		.byte	0xc
 6778 2017 67       		.byte	0x67
 6779 2018 FF000000 		.4byte	0xff
 6780 201c 09       		.byte	0x9
 6781 201d 15       		.uleb128 0x15
 6782 201e B83F0000 		.4byte	.LASF935
 6783 2022 0C       		.byte	0xc
 6784 2023 67       		.byte	0x67
 6785 2024 D9000000 		.4byte	0xd9
 6786 2028 13       		.byte	0x13
 6787 2029 15       		.uleb128 0x15
ARM GAS  C:\Users\AHMED~1.ELE\AppData\Local\Temp\cckRh1xc.s 			page 146


 6788 202a E63F0000 		.4byte	.LASF936
 6789 202e 0C       		.byte	0xc
 6790 202f 67       		.byte	0x67
 6791 2030 A2000000 		.4byte	0xa2
 6792 2034 15       		.byte	0x15
 6793 2035 15       		.uleb128 0x15
 6794 2036 35380000 		.4byte	.LASF937
 6795 203a 0C       		.byte	0xc
 6796 203b 67       		.byte	0x67
 6797 203c C3000000 		.4byte	0xc3
 6798 2040 18       		.byte	0x18
 6799 2041 15       		.uleb128 0x15
 6800 2042 A6270000 		.4byte	.LASF938
 6801 2046 0C       		.byte	0xc
 6802 2047 67       		.byte	0x67
 6803 2048 C3000000 		.4byte	0xc3
 6804 204c 20       		.byte	0x20
 6805 204d 15       		.uleb128 0x15
 6806 204e BB1E0000 		.4byte	.LASF939
 6807 2052 0C       		.byte	0xc
 6808 2053 67       		.byte	0x67
 6809 2054 C3000000 		.4byte	0xc3
 6810 2058 28       		.byte	0x28
 6811 2059 15       		.uleb128 0x15
 6812 205a B0180000 		.4byte	.LASF940
 6813 205e 0C       		.byte	0xc
 6814 205f 67       		.byte	0x67
 6815 2060 EF000000 		.4byte	0xef
 6816 2064 30       		.byte	0x30
 6817 2065 15       		.uleb128 0x15
 6818 2066 75430000 		.4byte	.LASF941
 6819 206a 0C       		.byte	0xc
 6820 206b 67       		.byte	0x67
 6821 206c A2000000 		.4byte	0xa2
 6822 2070 34       		.byte	0x34
 6823 2071 15       		.uleb128 0x15
 6824 2072 0C380000 		.4byte	.LASF942
 6825 2076 0C       		.byte	0xc
 6826 2077 67       		.byte	0x67
 6827 2078 F7200000 		.4byte	0x20f7
 6828 207c 35       		.byte	0x35
 6829 207d 15       		.uleb128 0x15
 6830 207e 043C0000 		.4byte	.LASF943
 6831 2082 0C       		.byte	0xc
 6832 2083 67       		.byte	0x67
 6833 2084 1F010000 		.4byte	0x11f
 6834 2088 4F       		.byte	0x4f
 6835 2089 15       		.uleb128 0x15
 6836 208a 53400000 		.4byte	.LASF944
 6837 208e 0C       		.byte	0xc
 6838 208f 67       		.byte	0x67
 6839 2090 230E0000 		.4byte	0xe23
 6840 2094 5F       		.byte	0x5f
 6841 2095 15       		.uleb128 0x15
 6842 2096 6E2A0000 		.4byte	.LASF945
 6843 209a 0C       		.byte	0xc
 6844 209b 67       		.byte	0x67
ARM GAS  C:\Users\AHMED~1.ELE\AppData\Local\Temp\cckRh1xc.s 			page 147


 6845 209c AD000000 		.4byte	0xad
 6846 20a0 66       		.byte	0x66
 6847 20a1 15       		.uleb128 0x15
 6848 20a2 E7230000 		.4byte	.LASF946
 6849 20a6 0C       		.byte	0xc
 6850 20a7 67       		.byte	0x67
 6851 20a8 A2000000 		.4byte	0xa2
 6852 20ac 68       		.byte	0x68
 6853 20ad 15       		.uleb128 0x15
 6854 20ae 20420000 		.4byte	.LASF947
 6855 20b2 0C       		.byte	0xc
 6856 20b3 67       		.byte	0x67
 6857 20b4 D3140000 		.4byte	0x14d3
 6858 20b8 69       		.byte	0x69
 6859 20b9 15       		.uleb128 0x15
 6860 20ba 23090000 		.4byte	.LASF948
 6861 20be 0C       		.byte	0xc
 6862 20bf 67       		.byte	0x67
 6863 20c0 AD000000 		.4byte	0xad
 6864 20c4 76       		.byte	0x76
 6865 20c5 15       		.uleb128 0x15
 6866 20c6 6A1E0000 		.4byte	.LASF949
 6867 20ca 0C       		.byte	0xc
 6868 20cb 67       		.byte	0x67
 6869 20cc AD000000 		.4byte	0xad
 6870 20d0 78       		.byte	0x78
 6871 20d1 15       		.uleb128 0x15
 6872 20d2 78120000 		.4byte	.LASF950
 6873 20d6 0C       		.byte	0xc
 6874 20d7 67       		.byte	0x67
 6875 20d8 011A0000 		.4byte	0x1a01
 6876 20dc 7C       		.byte	0x7c
 6877 20dd 15       		.uleb128 0x15
 6878 20de 59010000 		.4byte	.LASF951
 6879 20e2 0C       		.byte	0xc
 6880 20e3 67       		.byte	0x67
 6881 20e4 491F0000 		.4byte	0x1f49
 6882 20e8 84       		.byte	0x84
 6883 20e9 1B       		.uleb128 0x1b
 6884 20ea 3B160000 		.4byte	.LASF670
 6885 20ee 0C       		.byte	0xc
 6886 20ef 68       		.byte	0x68
 6887 20f0 AD000000 		.4byte	0xad
 6888 20f4 F801     		.2byte	0x1f8
 6889 20f6 00       		.byte	0
 6890 20f7 08       		.uleb128 0x8
 6891 20f8 A2000000 		.4byte	0xa2
 6892 20fc 07210000 		.4byte	0x2107
 6893 2100 09       		.uleb128 0x9
 6894 2101 78000000 		.4byte	0x78
 6895 2105 19       		.byte	0x19
 6896 2106 00       		.byte	0
 6897 2107 1A       		.uleb128 0x1a
 6898 2108 2F2A0000 		.4byte	.LASF952
 6899 210c F801     		.2byte	0x1f8
 6900 210e 0C       		.byte	0xc
 6901 210f 6B       		.byte	0x6b
ARM GAS  C:\Users\AHMED~1.ELE\AppData\Local\Temp\cckRh1xc.s 			page 148


 6902 2110 29220000 		.4byte	0x2229
 6903 2114 15       		.uleb128 0x15
 6904 2115 A1030000 		.4byte	.LASF931
 6905 2119 0C       		.byte	0xc
 6906 211a 6C       		.byte	0x6c
 6907 211b A2000000 		.4byte	0xa2
 6908 211f 00       		.byte	0
 6909 2120 15       		.uleb128 0x15
 6910 2121 F6220000 		.4byte	.LASF932
 6911 2125 0C       		.byte	0xc
 6912 2126 6C       		.byte	0x6c
 6913 2127 A2000000 		.4byte	0xa2
 6914 212b 01       		.byte	0x1
 6915 212c 15       		.uleb128 0x15
 6916 212d 4D020000 		.4byte	.LASF625
 6917 2131 0C       		.byte	0xc
 6918 2132 6C       		.byte	0x6c
 6919 2133 E3140000 		.4byte	0x14e3
 6920 2137 02       		.byte	0x2
 6921 2138 15       		.uleb128 0x15
 6922 2139 C21D0000 		.4byte	.LASF933
 6923 213d 0C       		.byte	0xc
 6924 213e 6C       		.byte	0x6c
 6925 213f A2000000 		.4byte	0xa2
 6926 2143 05       		.byte	0x5
 6927 2144 15       		.uleb128 0x15
 6928 2145 20140000 		.4byte	.LASF626
 6929 2149 0C       		.byte	0xc
 6930 214a 6C       		.byte	0x6c
 6931 214b E3140000 		.4byte	0x14e3
 6932 214f 06       		.byte	0x6
 6933 2150 15       		.uleb128 0x15
 6934 2151 A1300000 		.4byte	.LASF934
 6935 2155 0C       		.byte	0xc
 6936 2156 6C       		.byte	0x6c
 6937 2157 FF000000 		.4byte	0xff
 6938 215b 09       		.byte	0x9
 6939 215c 15       		.uleb128 0x15
 6940 215d B83F0000 		.4byte	.LASF935
 6941 2161 0C       		.byte	0xc
 6942 2162 6C       		.byte	0x6c
 6943 2163 D9000000 		.4byte	0xd9
 6944 2167 13       		.byte	0x13
 6945 2168 15       		.uleb128 0x15
 6946 2169 E63F0000 		.4byte	.LASF936
 6947 216d 0C       		.byte	0xc
 6948 216e 6C       		.byte	0x6c
 6949 216f A2000000 		.4byte	0xa2
 6950 2173 15       		.byte	0x15
 6951 2174 15       		.uleb128 0x15
 6952 2175 35380000 		.4byte	.LASF937
 6953 2179 0C       		.byte	0xc
 6954 217a 6C       		.byte	0x6c
 6955 217b C3000000 		.4byte	0xc3
 6956 217f 18       		.byte	0x18
 6957 2180 15       		.uleb128 0x15
 6958 2181 A6270000 		.4byte	.LASF938
ARM GAS  C:\Users\AHMED~1.ELE\AppData\Local\Temp\cckRh1xc.s 			page 149


 6959 2185 0C       		.byte	0xc
 6960 2186 6C       		.byte	0x6c
 6961 2187 C3000000 		.4byte	0xc3
 6962 218b 20       		.byte	0x20
 6963 218c 15       		.uleb128 0x15
 6964 218d BB1E0000 		.4byte	.LASF939
 6965 2191 0C       		.byte	0xc
 6966 2192 6C       		.byte	0x6c
 6967 2193 C3000000 		.4byte	0xc3
 6968 2197 28       		.byte	0x28
 6969 2198 15       		.uleb128 0x15
 6970 2199 B0180000 		.4byte	.LASF940
 6971 219d 0C       		.byte	0xc
 6972 219e 6C       		.byte	0x6c
 6973 219f EF000000 		.4byte	0xef
 6974 21a3 30       		.byte	0x30
 6975 21a4 15       		.uleb128 0x15
 6976 21a5 75430000 		.4byte	.LASF941
 6977 21a9 0C       		.byte	0xc
 6978 21aa 6C       		.byte	0x6c
 6979 21ab A2000000 		.4byte	0xa2
 6980 21af 34       		.byte	0x34
 6981 21b0 15       		.uleb128 0x15
 6982 21b1 0C380000 		.4byte	.LASF942
 6983 21b5 0C       		.byte	0xc
 6984 21b6 6C       		.byte	0x6c
 6985 21b7 F7200000 		.4byte	0x20f7
 6986 21bb 35       		.byte	0x35
 6987 21bc 15       		.uleb128 0x15
 6988 21bd 043C0000 		.4byte	.LASF943
 6989 21c1 0C       		.byte	0xc
 6990 21c2 6C       		.byte	0x6c
 6991 21c3 1F010000 		.4byte	0x11f
 6992 21c7 4F       		.byte	0x4f
 6993 21c8 15       		.uleb128 0x15
 6994 21c9 53400000 		.4byte	.LASF944
 6995 21cd 0C       		.byte	0xc
 6996 21ce 6C       		.byte	0x6c
 6997 21cf 230E0000 		.4byte	0xe23
 6998 21d3 5F       		.byte	0x5f
 6999 21d4 15       		.uleb128 0x15
 7000 21d5 6E2A0000 		.4byte	.LASF945
 7001 21d9 0C       		.byte	0xc
 7002 21da 6C       		.byte	0x6c
 7003 21db AD000000 		.4byte	0xad
 7004 21df 66       		.byte	0x66
 7005 21e0 15       		.uleb128 0x15
 7006 21e1 E7230000 		.4byte	.LASF946
 7007 21e5 0C       		.byte	0xc
 7008 21e6 6C       		.byte	0x6c
 7009 21e7 A2000000 		.4byte	0xa2
 7010 21eb 68       		.byte	0x68
 7011 21ec 15       		.uleb128 0x15
 7012 21ed 20420000 		.4byte	.LASF947
 7013 21f1 0C       		.byte	0xc
 7014 21f2 6C       		.byte	0x6c
 7015 21f3 D3140000 		.4byte	0x14d3
ARM GAS  C:\Users\AHMED~1.ELE\AppData\Local\Temp\cckRh1xc.s 			page 150


 7016 21f7 69       		.byte	0x69
 7017 21f8 15       		.uleb128 0x15
 7018 21f9 23090000 		.4byte	.LASF948
 7019 21fd 0C       		.byte	0xc
 7020 21fe 6C       		.byte	0x6c
 7021 21ff AD000000 		.4byte	0xad
 7022 2203 76       		.byte	0x76
 7023 2204 15       		.uleb128 0x15
 7024 2205 6A1E0000 		.4byte	.LASF949
 7025 2209 0C       		.byte	0xc
 7026 220a 6C       		.byte	0x6c
 7027 220b AD000000 		.4byte	0xad
 7028 220f 78       		.byte	0x78
 7029 2210 15       		.uleb128 0x15
 7030 2211 78120000 		.4byte	.LASF950
 7031 2215 0C       		.byte	0xc
 7032 2216 6C       		.byte	0x6c
 7033 2217 011A0000 		.4byte	0x1a01
 7034 221b 7C       		.byte	0x7c
 7035 221c 15       		.uleb128 0x15
 7036 221d 59010000 		.4byte	.LASF951
 7037 2221 0C       		.byte	0xc
 7038 2222 6C       		.byte	0x6c
 7039 2223 491F0000 		.4byte	0x1f49
 7040 2227 84       		.byte	0x84
 7041 2228 00       		.byte	0
 7042 2229 1A       		.uleb128 0x1a
 7043 222a 5B460000 		.4byte	.LASF953
 7044 222e 0802     		.2byte	0x208
 7045 2230 0C       		.byte	0xc
 7046 2231 6F       		.byte	0x6f
 7047 2232 65230000 		.4byte	0x2365
 7048 2236 15       		.uleb128 0x15
 7049 2237 A1030000 		.4byte	.LASF931
 7050 223b 0C       		.byte	0xc
 7051 223c 70       		.byte	0x70
 7052 223d A2000000 		.4byte	0xa2
 7053 2241 00       		.byte	0
 7054 2242 15       		.uleb128 0x15
 7055 2243 F6220000 		.4byte	.LASF932
 7056 2247 0C       		.byte	0xc
 7057 2248 70       		.byte	0x70
 7058 2249 A2000000 		.4byte	0xa2
 7059 224d 01       		.byte	0x1
 7060 224e 15       		.uleb128 0x15
 7061 224f 4D020000 		.4byte	.LASF625
 7062 2253 0C       		.byte	0xc
 7063 2254 70       		.byte	0x70
 7064 2255 E3140000 		.4byte	0x14e3
 7065 2259 02       		.byte	0x2
 7066 225a 15       		.uleb128 0x15
 7067 225b C21D0000 		.4byte	.LASF933
 7068 225f 0C       		.byte	0xc
 7069 2260 70       		.byte	0x70
 7070 2261 A2000000 		.4byte	0xa2
 7071 2265 05       		.byte	0x5
 7072 2266 15       		.uleb128 0x15
ARM GAS  C:\Users\AHMED~1.ELE\AppData\Local\Temp\cckRh1xc.s 			page 151


 7073 2267 20140000 		.4byte	.LASF626
 7074 226b 0C       		.byte	0xc
 7075 226c 70       		.byte	0x70
 7076 226d E3140000 		.4byte	0x14e3
 7077 2271 06       		.byte	0x6
 7078 2272 15       		.uleb128 0x15
 7079 2273 A1300000 		.4byte	.LASF934
 7080 2277 0C       		.byte	0xc
 7081 2278 70       		.byte	0x70
 7082 2279 FF000000 		.4byte	0xff
 7083 227d 09       		.byte	0x9
 7084 227e 15       		.uleb128 0x15
 7085 227f B83F0000 		.4byte	.LASF935
 7086 2283 0C       		.byte	0xc
 7087 2284 70       		.byte	0x70
 7088 2285 D9000000 		.4byte	0xd9
 7089 2289 13       		.byte	0x13
 7090 228a 15       		.uleb128 0x15
 7091 228b E63F0000 		.4byte	.LASF936
 7092 228f 0C       		.byte	0xc
 7093 2290 70       		.byte	0x70
 7094 2291 A2000000 		.4byte	0xa2
 7095 2295 15       		.byte	0x15
 7096 2296 15       		.uleb128 0x15
 7097 2297 35380000 		.4byte	.LASF937
 7098 229b 0C       		.byte	0xc
 7099 229c 70       		.byte	0x70
 7100 229d C3000000 		.4byte	0xc3
 7101 22a1 18       		.byte	0x18
 7102 22a2 15       		.uleb128 0x15
 7103 22a3 A6270000 		.4byte	.LASF938
 7104 22a7 0C       		.byte	0xc
 7105 22a8 70       		.byte	0x70
 7106 22a9 C3000000 		.4byte	0xc3
 7107 22ad 20       		.byte	0x20
 7108 22ae 15       		.uleb128 0x15
 7109 22af BB1E0000 		.4byte	.LASF939
 7110 22b3 0C       		.byte	0xc
 7111 22b4 70       		.byte	0x70
 7112 22b5 C3000000 		.4byte	0xc3
 7113 22b9 28       		.byte	0x28
 7114 22ba 15       		.uleb128 0x15
 7115 22bb B0180000 		.4byte	.LASF940
 7116 22bf 0C       		.byte	0xc
 7117 22c0 70       		.byte	0x70
 7118 22c1 EF000000 		.4byte	0xef
 7119 22c5 30       		.byte	0x30
 7120 22c6 15       		.uleb128 0x15
 7121 22c7 75430000 		.4byte	.LASF941
 7122 22cb 0C       		.byte	0xc
 7123 22cc 70       		.byte	0x70
 7124 22cd A2000000 		.4byte	0xa2
 7125 22d1 34       		.byte	0x34
 7126 22d2 15       		.uleb128 0x15
 7127 22d3 0C380000 		.4byte	.LASF942
 7128 22d7 0C       		.byte	0xc
 7129 22d8 70       		.byte	0x70
ARM GAS  C:\Users\AHMED~1.ELE\AppData\Local\Temp\cckRh1xc.s 			page 152


 7130 22d9 F7200000 		.4byte	0x20f7
 7131 22dd 35       		.byte	0x35
 7132 22de 15       		.uleb128 0x15
 7133 22df 043C0000 		.4byte	.LASF943
 7134 22e3 0C       		.byte	0xc
 7135 22e4 70       		.byte	0x70
 7136 22e5 1F010000 		.4byte	0x11f
 7137 22e9 4F       		.byte	0x4f
 7138 22ea 15       		.uleb128 0x15
 7139 22eb 53400000 		.4byte	.LASF944
 7140 22ef 0C       		.byte	0xc
 7141 22f0 70       		.byte	0x70
 7142 22f1 230E0000 		.4byte	0xe23
 7143 22f5 5F       		.byte	0x5f
 7144 22f6 15       		.uleb128 0x15
 7145 22f7 6E2A0000 		.4byte	.LASF945
 7146 22fb 0C       		.byte	0xc
 7147 22fc 70       		.byte	0x70
 7148 22fd AD000000 		.4byte	0xad
 7149 2301 66       		.byte	0x66
 7150 2302 15       		.uleb128 0x15
 7151 2303 E7230000 		.4byte	.LASF946
 7152 2307 0C       		.byte	0xc
 7153 2308 70       		.byte	0x70
 7154 2309 A2000000 		.4byte	0xa2
 7155 230d 68       		.byte	0x68
 7156 230e 15       		.uleb128 0x15
 7157 230f 20420000 		.4byte	.LASF947
 7158 2313 0C       		.byte	0xc
 7159 2314 70       		.byte	0x70
 7160 2315 D3140000 		.4byte	0x14d3
 7161 2319 69       		.byte	0x69
 7162 231a 15       		.uleb128 0x15
 7163 231b 23090000 		.4byte	.LASF948
 7164 231f 0C       		.byte	0xc
 7165 2320 70       		.byte	0x70
 7166 2321 AD000000 		.4byte	0xad
 7167 2325 76       		.byte	0x76
 7168 2326 15       		.uleb128 0x15
 7169 2327 6A1E0000 		.4byte	.LASF949
 7170 232b 0C       		.byte	0xc
 7171 232c 70       		.byte	0x70
 7172 232d AD000000 		.4byte	0xad
 7173 2331 78       		.byte	0x78
 7174 2332 15       		.uleb128 0x15
 7175 2333 78120000 		.4byte	.LASF950
 7176 2337 0C       		.byte	0xc
 7177 2338 70       		.byte	0x70
 7178 2339 011A0000 		.4byte	0x1a01
 7179 233d 7C       		.byte	0x7c
 7180 233e 15       		.uleb128 0x15
 7181 233f 59010000 		.4byte	.LASF951
 7182 2343 0C       		.byte	0xc
 7183 2344 70       		.byte	0x70
 7184 2345 491F0000 		.4byte	0x1f49
 7185 2349 84       		.byte	0x84
 7186 234a 1B       		.uleb128 0x1b
ARM GAS  C:\Users\AHMED~1.ELE\AppData\Local\Temp\cckRh1xc.s 			page 153


 7187 234b 103B0000 		.4byte	.LASF954
 7188 234f 0C       		.byte	0xc
 7189 2350 71       		.byte	0x71
 7190 2351 A2000000 		.4byte	0xa2
 7191 2355 F801     		.2byte	0x1f8
 7192 2357 1B       		.uleb128 0x1b
 7193 2358 472C0000 		.4byte	.LASF955
 7194 235c 0C       		.byte	0xc
 7195 235d 72       		.byte	0x72
 7196 235e C3000000 		.4byte	0xc3
 7197 2362 0002     		.2byte	0x200
 7198 2364 00       		.byte	0
 7199 2365 14       		.uleb128 0x14
 7200 2366 C7390000 		.4byte	.LASF956
 7201 236a 10       		.byte	0x10
 7202 236b 0C       		.byte	0xc
 7203 236c 75       		.byte	0x75
 7204 236d 8A230000 		.4byte	0x238a
 7205 2371 15       		.uleb128 0x15
 7206 2372 401E0000 		.4byte	.LASF957
 7207 2376 0C       		.byte	0xc
 7208 2377 76       		.byte	0x76
 7209 2378 AD000000 		.4byte	0xad
 7210 237c 00       		.byte	0
 7211 237d 15       		.uleb128 0x15
 7212 237e 35380000 		.4byte	.LASF937
 7213 2382 0C       		.byte	0xc
 7214 2383 77       		.byte	0x77
 7215 2384 C3000000 		.4byte	0xc3
 7216 2388 08       		.byte	0x8
 7217 2389 00       		.byte	0
 7218 238a 14       		.uleb128 0x14
 7219 238b DC190000 		.4byte	.LASF958
 7220 238f 68       		.byte	0x68
 7221 2390 0C       		.byte	0xc
 7222 2391 7A       		.byte	0x7a
 7223 2392 EB230000 		.4byte	0x23eb
 7224 2396 15       		.uleb128 0x15
 7225 2397 5B070000 		.4byte	.LASF959
 7226 239b 0C       		.byte	0xc
 7227 239c 7B       		.byte	0x7b
 7228 239d B8000000 		.4byte	0xb8
 7229 23a1 00       		.byte	0
 7230 23a2 15       		.uleb128 0x15
 7231 23a3 351E0000 		.4byte	.LASF960
 7232 23a7 0C       		.byte	0xc
 7233 23a8 7C       		.byte	0x7c
 7234 23a9 65230000 		.4byte	0x2365
 7235 23ad 08       		.byte	0x8
 7236 23ae 15       		.uleb128 0x15
 7237 23af B71D0000 		.4byte	.LASF961
 7238 23b3 0C       		.byte	0xc
 7239 23b4 7D       		.byte	0x7d
 7240 23b5 65230000 		.4byte	0x2365
 7241 23b9 18       		.byte	0x18
 7242 23ba 15       		.uleb128 0x15
 7243 23bb 1E210000 		.4byte	.LASF962
ARM GAS  C:\Users\AHMED~1.ELE\AppData\Local\Temp\cckRh1xc.s 			page 154


 7244 23bf 0C       		.byte	0xc
 7245 23c0 7E       		.byte	0x7e
 7246 23c1 65230000 		.4byte	0x2365
 7247 23c5 28       		.byte	0x28
 7248 23c6 15       		.uleb128 0x15
 7249 23c7 3D1B0000 		.4byte	.LASF963
 7250 23cb 0C       		.byte	0xc
 7251 23cc 7F       		.byte	0x7f
 7252 23cd 65230000 		.4byte	0x2365
 7253 23d1 38       		.byte	0x38
 7254 23d2 15       		.uleb128 0x15
 7255 23d3 782A0000 		.4byte	.LASF964
 7256 23d7 0C       		.byte	0xc
 7257 23d8 80       		.byte	0x80
 7258 23d9 65230000 		.4byte	0x2365
 7259 23dd 48       		.byte	0x48
 7260 23de 15       		.uleb128 0x15
 7261 23df 50350000 		.4byte	.LASF965
 7262 23e3 0C       		.byte	0xc
 7263 23e4 81       		.byte	0x81
 7264 23e5 65230000 		.4byte	0x2365
 7265 23e9 58       		.byte	0x58
 7266 23ea 00       		.byte	0
 7267 23eb 1A       		.uleb128 0x1a
 7268 23ec E60D0000 		.4byte	.LASF966
 7269 23f0 5805     		.2byte	0x558
 7270 23f2 0C       		.byte	0xc
 7271 23f3 86       		.byte	0x86
 7272 23f4 39240000 		.4byte	0x2439
 7273 23f8 15       		.uleb128 0x15
 7274 23f9 74060000 		.4byte	.LASF967
 7275 23fd 0C       		.byte	0xc
 7276 23fe 87       		.byte	0x87
 7277 23ff 03150000 		.4byte	0x1503
 7278 2403 00       		.byte	0
 7279 2404 1B       		.uleb128 0x1b
 7280 2405 F0340000 		.4byte	.LASF968
 7281 2409 0C       		.byte	0xc
 7282 240a 88       		.byte	0x88
 7283 240b 39240000 		.4byte	0x2439
 7284 240f 8801     		.2byte	0x188
 7285 2411 1B       		.uleb128 0x1b
 7286 2412 AD450000 		.4byte	.LASF969
 7287 2416 0C       		.byte	0xc
 7288 2417 89       		.byte	0x89
 7289 2418 49240000 		.4byte	0x2449
 7290 241c 4803     		.2byte	0x348
 7291 241e 1B       		.uleb128 0x1b
 7292 241f 5D1B0000 		.4byte	.LASF970
 7293 2423 0C       		.byte	0xc
 7294 2424 8A       		.byte	0x8a
 7295 2425 59240000 		.4byte	0x2459
 7296 2429 A004     		.2byte	0x4a0
 7297 242b 1B       		.uleb128 0x1b
 7298 242c 732D0000 		.4byte	.LASF971
 7299 2430 0C       		.byte	0xc
 7300 2431 8B       		.byte	0x8b
ARM GAS  C:\Users\AHMED~1.ELE\AppData\Local\Temp\cckRh1xc.s 			page 155


 7301 2432 69240000 		.4byte	0x2469
 7302 2436 1005     		.2byte	0x510
 7303 2438 00       		.byte	0
 7304 2439 08       		.uleb128 0x8
 7305 243a BF190000 		.4byte	0x19bf
 7306 243e 49240000 		.4byte	0x2449
 7307 2442 09       		.uleb128 0x9
 7308 2443 78000000 		.4byte	0x78
 7309 2447 0F       		.byte	0xf
 7310 2448 00       		.byte	0
 7311 2449 08       		.uleb128 0x8
 7312 244a D7170000 		.4byte	0x17d7
 7313 244e 59240000 		.4byte	0x2459
 7314 2452 09       		.uleb128 0x9
 7315 2453 78000000 		.4byte	0x78
 7316 2457 01       		.byte	0x1
 7317 2458 00       		.byte	0
 7318 2459 08       		.uleb128 0x8
 7319 245a 54170000 		.4byte	0x1754
 7320 245e 69240000 		.4byte	0x2469
 7321 2462 09       		.uleb128 0x9
 7322 2463 78000000 		.4byte	0x78
 7323 2467 01       		.byte	0x1
 7324 2468 00       		.byte	0
 7325 2469 08       		.uleb128 0x8
 7326 246a DB160000 		.4byte	0x16db
 7327 246e 79240000 		.4byte	0x2479
 7328 2472 09       		.uleb128 0x9
 7329 2473 78000000 		.4byte	0x78
 7330 2477 01       		.byte	0x1
 7331 2478 00       		.byte	0
 7332 2479 14       		.uleb128 0x14
 7333 247a 37460000 		.4byte	.LASF972
 7334 247e 04       		.byte	0x4
 7335 247f 0C       		.byte	0xc
 7336 2480 8E       		.byte	0x8e
 7337 2481 9E240000 		.4byte	0x249e
 7338 2485 15       		.uleb128 0x15
 7339 2486 A4160000 		.4byte	.LASF973
 7340 248a 0C       		.byte	0xc
 7341 248b 8F       		.byte	0x8f
 7342 248c A2000000 		.4byte	0xa2
 7343 2490 00       		.byte	0
 7344 2491 15       		.uleb128 0x15
 7345 2492 E9290000 		.4byte	.LASF974
 7346 2496 0C       		.byte	0xc
 7347 2497 90       		.byte	0x90
 7348 2498 A2000000 		.4byte	0xa2
 7349 249c 01       		.byte	0x1
 7350 249d 00       		.byte	0
 7351 249e 1A       		.uleb128 0x1a
 7352 249f 33160000 		.4byte	.LASF975
 7353 24a3 040C     		.2byte	0xc04
 7354 24a5 0C       		.byte	0xc
 7355 24a6 9B       		.byte	0x9b
 7356 24a7 C4240000 		.4byte	0x24c4
 7357 24ab 15       		.uleb128 0x15
ARM GAS  C:\Users\AHMED~1.ELE\AppData\Local\Temp\cckRh1xc.s 			page 156


 7358 24ac 310F0000 		.4byte	.LASF976
 7359 24b0 0C       		.byte	0xc
 7360 24b1 9C       		.byte	0x9c
 7361 24b2 B8000000 		.4byte	0xb8
 7362 24b6 00       		.byte	0
 7363 24b7 15       		.uleb128 0x15
 7364 24b8 030D0000 		.4byte	.LASF496
 7365 24bc 0C       		.byte	0xc
 7366 24bd 9D       		.byte	0x9d
 7367 24be 96110000 		.4byte	0x1196
 7368 24c2 04       		.byte	0x4
 7369 24c3 00       		.byte	0
 7370 24c4 1C       		.uleb128 0x1c
 7371 24c5 47445300 		.ascii	"GDS\000"
 7372 24c9 6042     		.2byte	0x4260
 7373 24cb 0C       		.byte	0xc
 7374 24cc A1       		.byte	0xa1
 7375 24cd D5250000 		.4byte	0x25d5
 7376 24d1 15       		.uleb128 0x15
 7377 24d2 6E230000 		.4byte	.LASF977
 7378 24d6 0C       		.byte	0xc
 7379 24d7 A3       		.byte	0xa3
 7380 24d8 EB230000 		.4byte	0x23eb
 7381 24dc 00       		.byte	0
 7382 24dd 1B       		.uleb128 0x1b
 7383 24de 320B0000 		.4byte	.LASF978
 7384 24e2 0C       		.byte	0xc
 7385 24e3 A4       		.byte	0xa4
 7386 24e4 A7110000 		.4byte	0x11a7
 7387 24e8 5805     		.2byte	0x558
 7388 24ea 1B       		.uleb128 0x1b
 7389 24eb B8280000 		.4byte	.LASF979
 7390 24ef 0C       		.byte	0xc
 7391 24f0 A6       		.byte	0xa6
 7392 24f1 C81F0000 		.4byte	0x1fc8
 7393 24f5 C806     		.2byte	0x6c8
 7394 24f7 1B       		.uleb128 0x1b
 7395 24f8 621A0000 		.4byte	.LASF980
 7396 24fc 0C       		.byte	0xc
 7397 24fd A7       		.byte	0xa7
 7398 24fe 07210000 		.4byte	0x2107
 7399 2502 C808     		.2byte	0x8c8
 7400 2504 1B       		.uleb128 0x1b
 7401 2505 16410000 		.4byte	.LASF981
 7402 2509 0C       		.byte	0xc
 7403 250a A8       		.byte	0xa8
 7404 250b 29220000 		.4byte	0x2229
 7405 250f C00A     		.2byte	0xac0
 7406 2511 1B       		.uleb128 0x1b
 7407 2512 59210000 		.4byte	.LASF982
 7408 2516 0C       		.byte	0xc
 7409 2517 A9       		.byte	0xa9
 7410 2518 8A230000 		.4byte	0x238a
 7411 251c C80C     		.2byte	0xcc8
 7412 251e 1B       		.uleb128 0x1b
 7413 251f 5B450000 		.4byte	.LASF983
 7414 2523 0C       		.byte	0xc
ARM GAS  C:\Users\AHMED~1.ELE\AppData\Local\Temp\cckRh1xc.s 			page 157


 7415 2524 AA       		.byte	0xaa
 7416 2525 8A230000 		.4byte	0x238a
 7417 2529 300D     		.2byte	0xd30
 7418 252b 1B       		.uleb128 0x1b
 7419 252c BB100000 		.4byte	.LASF984
 7420 2530 0C       		.byte	0xc
 7421 2531 AB       		.byte	0xab
 7422 2532 9E240000 		.4byte	0x249e
 7423 2536 980D     		.2byte	0xd98
 7424 2538 1B       		.uleb128 0x1b
 7425 2539 77100000 		.4byte	.LASF985
 7426 253d 0C       		.byte	0xc
 7427 253e AC       		.byte	0xac
 7428 253f 6D110000 		.4byte	0x116d
 7429 2543 9C19     		.2byte	0x199c
 7430 2545 1B       		.uleb128 0x1b
 7431 2546 56350000 		.4byte	.LASF986
 7432 254a 0C       		.byte	0xc
 7433 254b AD       		.byte	0xad
 7434 254c 6D110000 		.4byte	0x116d
 7435 2550 A025     		.2byte	0x25a0
 7436 2552 1B       		.uleb128 0x1b
 7437 2553 693F0000 		.4byte	.LASF987
 7438 2557 0C       		.byte	0xc
 7439 2558 AE       		.byte	0xae
 7440 2559 D5250000 		.4byte	0x25d5
 7441 255d A431     		.2byte	0x31a4
 7442 255f 1B       		.uleb128 0x1b
 7443 2560 A01D0000 		.4byte	.LASF988
 7444 2564 0C       		.byte	0xc
 7445 2565 AF       		.byte	0xaf
 7446 2566 891E0000 		.4byte	0x1e89
 7447 256a 8037     		.2byte	0x3780
 7448 256c 1B       		.uleb128 0x1b
 7449 256d 07390000 		.4byte	.LASF989
 7450 2571 0C       		.byte	0xc
 7451 2572 B0       		.byte	0xb0
 7452 2573 891E0000 		.4byte	0x1e89
 7453 2577 8837     		.2byte	0x3788
 7454 2579 1B       		.uleb128 0x1b
 7455 257a DB2E0000 		.4byte	.LASF990
 7456 257e 0C       		.byte	0xc
 7457 257f B1       		.byte	0xb1
 7458 2580 FA1E0000 		.4byte	0x1efa
 7459 2584 9037     		.2byte	0x3790
 7460 2586 1B       		.uleb128 0x1b
 7461 2587 08050000 		.4byte	.LASF991
 7462 258b 0C       		.byte	0xc
 7463 258c B2       		.byte	0xb2
 7464 258d FA1E0000 		.4byte	0x1efa
 7465 2591 9837     		.2byte	0x3798
 7466 2593 1B       		.uleb128 0x1b
 7467 2594 D8020000 		.4byte	.LASF992
 7468 2598 0C       		.byte	0xc
 7469 2599 B3       		.byte	0xb3
 7470 259a E6250000 		.4byte	0x25e6
 7471 259e A037     		.2byte	0x37a0
ARM GAS  C:\Users\AHMED~1.ELE\AppData\Local\Temp\cckRh1xc.s 			page 158


 7472 25a0 1B       		.uleb128 0x1b
 7473 25a1 291A0000 		.4byte	.LASF993
 7474 25a5 0C       		.byte	0xc
 7475 25a6 B4       		.byte	0xb4
 7476 25a7 97000000 		.4byte	0x97
 7477 25ab 503C     		.2byte	0x3c50
 7478 25ad 1B       		.uleb128 0x1b
 7479 25ae FD400000 		.4byte	.LASF994
 7480 25b2 0C       		.byte	0xc
 7481 25b3 B5       		.byte	0xb5
 7482 25b4 79240000 		.4byte	0x2479
 7483 25b8 543C     		.2byte	0x3c54
 7484 25ba 1B       		.uleb128 0x1b
 7485 25bb AD280000 		.4byte	.LASF995
 7486 25bf 0C       		.byte	0xc
 7487 25c0 B6       		.byte	0xb6
 7488 25c1 061F0000 		.4byte	0x1f06
 7489 25c5 583C     		.2byte	0x3c58
 7490 25c7 1B       		.uleb128 0x1b
 7491 25c8 063B0000 		.4byte	.LASF996
 7492 25cc 0C       		.byte	0xc
 7493 25cd B7       		.byte	0xb7
 7494 25ce 5D000000 		.4byte	0x5d
 7495 25d2 5C42     		.2byte	0x425c
 7496 25d4 00       		.byte	0
 7497 25d5 08       		.uleb128 0x8
 7498 25d6 A2000000 		.4byte	0xa2
 7499 25da E6250000 		.4byte	0x25e6
 7500 25de 12       		.uleb128 0x12
 7501 25df 78000000 		.4byte	0x78
 7502 25e3 DB05     		.2byte	0x5db
 7503 25e5 00       		.byte	0
 7504 25e6 08       		.uleb128 0x8
 7505 25e7 CB1E0000 		.4byte	0x1ecb
 7506 25eb F6250000 		.4byte	0x25f6
 7507 25ef 09       		.uleb128 0x9
 7508 25f0 78000000 		.4byte	0x78
 7509 25f4 95       		.byte	0x95
 7510 25f5 00       		.byte	0
 7511 25f6 10       		.uleb128 0x10
 7512 25f7 01       		.byte	0x1
 7513 25f8 0D       		.byte	0xd
 7514 25f9 33       		.byte	0x33
 7515 25fa 9C260000 		.4byte	0x269c
 7516 25fe 0B       		.uleb128 0xb
 7517 25ff 760C0000 		.4byte	.LASF997
 7518 2603 00       		.sleb128 0
 7519 2604 0B       		.uleb128 0xb
 7520 2605 6B1C0000 		.4byte	.LASF998
 7521 2609 01       		.sleb128 1
 7522 260a 0B       		.uleb128 0xb
 7523 260b FE130000 		.4byte	.LASF999
 7524 260f 02       		.sleb128 2
 7525 2610 0B       		.uleb128 0xb
 7526 2611 B6380000 		.4byte	.LASF1000
 7527 2615 03       		.sleb128 3
 7528 2616 0B       		.uleb128 0xb
ARM GAS  C:\Users\AHMED~1.ELE\AppData\Local\Temp\cckRh1xc.s 			page 159


 7529 2617 E32F0000 		.4byte	.LASF1001
 7530 261b 04       		.sleb128 4
 7531 261c 0B       		.uleb128 0xb
 7532 261d D1000000 		.4byte	.LASF1002
 7533 2621 05       		.sleb128 5
 7534 2622 0B       		.uleb128 0xb
 7535 2623 99000000 		.4byte	.LASF1003
 7536 2627 06       		.sleb128 6
 7537 2628 0B       		.uleb128 0xb
 7538 2629 20180000 		.4byte	.LASF1004
 7539 262d 07       		.sleb128 7
 7540 262e 0B       		.uleb128 0xb
 7541 262f D4030000 		.4byte	.LASF1005
 7542 2633 08       		.sleb128 8
 7543 2634 0B       		.uleb128 0xb
 7544 2635 B61B0000 		.4byte	.LASF1006
 7545 2639 09       		.sleb128 9
 7546 263a 0B       		.uleb128 0xb
 7547 263b 4F2B0000 		.4byte	.LASF1007
 7548 263f 0A       		.sleb128 10
 7549 2640 0B       		.uleb128 0xb
 7550 2641 D71F0000 		.4byte	.LASF1008
 7551 2645 0B       		.sleb128 11
 7552 2646 0B       		.uleb128 0xb
 7553 2647 981C0000 		.4byte	.LASF1009
 7554 264b 0C       		.sleb128 12
 7555 264c 0B       		.uleb128 0xb
 7556 264d 52180000 		.4byte	.LASF1010
 7557 2651 0D       		.sleb128 13
 7558 2652 0B       		.uleb128 0xb
 7559 2653 85180000 		.4byte	.LASF1011
 7560 2657 0E       		.sleb128 14
 7561 2658 0B       		.uleb128 0xb
 7562 2659 0E150000 		.4byte	.LASF1012
 7563 265d 0F       		.sleb128 15
 7564 265e 0B       		.uleb128 0xb
 7565 265f C5280000 		.4byte	.LASF1013
 7566 2663 10       		.sleb128 16
 7567 2664 0B       		.uleb128 0xb
 7568 2665 592B0000 		.4byte	.LASF1014
 7569 2669 11       		.sleb128 17
 7570 266a 0B       		.uleb128 0xb
 7571 266b 5B0C0000 		.4byte	.LASF1015
 7572 266f 12       		.sleb128 18
 7573 2670 0B       		.uleb128 0xb
 7574 2671 99010000 		.4byte	.LASF1016
 7575 2675 13       		.sleb128 19
 7576 2676 0B       		.uleb128 0xb
 7577 2677 9F0A0000 		.4byte	.LASF1017
 7578 267b 14       		.sleb128 20
 7579 267c 0B       		.uleb128 0xb
 7580 267d B21E0000 		.4byte	.LASF1018
 7581 2681 15       		.sleb128 21
 7582 2682 0B       		.uleb128 0xb
 7583 2683 64210000 		.4byte	.LASF1019
 7584 2687 16       		.sleb128 22
 7585 2688 0B       		.uleb128 0xb
ARM GAS  C:\Users\AHMED~1.ELE\AppData\Local\Temp\cckRh1xc.s 			page 160


 7586 2689 0B030000 		.4byte	.LASF1020
 7587 268d 17       		.sleb128 23
 7588 268e 0B       		.uleb128 0xb
 7589 268f 9D380000 		.4byte	.LASF1021
 7590 2693 18       		.sleb128 24
 7591 2694 0B       		.uleb128 0xb
 7592 2695 9F450000 		.4byte	.LASF1022
 7593 2699 FF01     		.sleb128 255
 7594 269b 00       		.byte	0
 7595 269c 1A       		.uleb128 0x1a
 7596 269d CE3A0000 		.4byte	.LASF1023
 7597 26a1 0003     		.2byte	0x300
 7598 26a3 0E       		.byte	0xe
 7599 26a4 33       		.byte	0x33
 7600 26a5 0C280000 		.4byte	0x280c
 7601 26a9 15       		.uleb128 0x15
 7602 26aa A1030000 		.4byte	.LASF931
 7603 26ae 0E       		.byte	0xe
 7604 26af 34       		.byte	0x34
 7605 26b0 A2000000 		.4byte	0xa2
 7606 26b4 00       		.byte	0
 7607 26b5 15       		.uleb128 0x15
 7608 26b6 F6220000 		.4byte	.LASF932
 7609 26ba 0E       		.byte	0xe
 7610 26bb 34       		.byte	0x34
 7611 26bc A2000000 		.4byte	0xa2
 7612 26c0 01       		.byte	0x1
 7613 26c1 15       		.uleb128 0x15
 7614 26c2 4D020000 		.4byte	.LASF625
 7615 26c6 0E       		.byte	0xe
 7616 26c7 34       		.byte	0x34
 7617 26c8 E3140000 		.4byte	0x14e3
 7618 26cc 02       		.byte	0x2
 7619 26cd 15       		.uleb128 0x15
 7620 26ce C21D0000 		.4byte	.LASF933
 7621 26d2 0E       		.byte	0xe
 7622 26d3 34       		.byte	0x34
 7623 26d4 A2000000 		.4byte	0xa2
 7624 26d8 05       		.byte	0x5
 7625 26d9 15       		.uleb128 0x15
 7626 26da 20140000 		.4byte	.LASF626
 7627 26de 0E       		.byte	0xe
 7628 26df 34       		.byte	0x34
 7629 26e0 E3140000 		.4byte	0x14e3
 7630 26e4 06       		.byte	0x6
 7631 26e5 15       		.uleb128 0x15
 7632 26e6 A1300000 		.4byte	.LASF934
 7633 26ea 0E       		.byte	0xe
 7634 26eb 34       		.byte	0x34
 7635 26ec FF000000 		.4byte	0xff
 7636 26f0 09       		.byte	0x9
 7637 26f1 15       		.uleb128 0x15
 7638 26f2 B83F0000 		.4byte	.LASF935
 7639 26f6 0E       		.byte	0xe
 7640 26f7 34       		.byte	0x34
 7641 26f8 D9000000 		.4byte	0xd9
 7642 26fc 13       		.byte	0x13
ARM GAS  C:\Users\AHMED~1.ELE\AppData\Local\Temp\cckRh1xc.s 			page 161


 7643 26fd 15       		.uleb128 0x15
 7644 26fe E63F0000 		.4byte	.LASF936
 7645 2702 0E       		.byte	0xe
 7646 2703 34       		.byte	0x34
 7647 2704 A2000000 		.4byte	0xa2
 7648 2708 15       		.byte	0x15
 7649 2709 15       		.uleb128 0x15
 7650 270a 35380000 		.4byte	.LASF937
 7651 270e 0E       		.byte	0xe
 7652 270f 34       		.byte	0x34
 7653 2710 C3000000 		.4byte	0xc3
 7654 2714 18       		.byte	0x18
 7655 2715 15       		.uleb128 0x15
 7656 2716 A6270000 		.4byte	.LASF938
 7657 271a 0E       		.byte	0xe
 7658 271b 34       		.byte	0x34
 7659 271c C3000000 		.4byte	0xc3
 7660 2720 20       		.byte	0x20
 7661 2721 15       		.uleb128 0x15
 7662 2722 BB1E0000 		.4byte	.LASF939
 7663 2726 0E       		.byte	0xe
 7664 2727 34       		.byte	0x34
 7665 2728 C3000000 		.4byte	0xc3
 7666 272c 28       		.byte	0x28
 7667 272d 15       		.uleb128 0x15
 7668 272e B0180000 		.4byte	.LASF940
 7669 2732 0E       		.byte	0xe
 7670 2733 34       		.byte	0x34
 7671 2734 EF000000 		.4byte	0xef
 7672 2738 30       		.byte	0x30
 7673 2739 15       		.uleb128 0x15
 7674 273a 75430000 		.4byte	.LASF941
 7675 273e 0E       		.byte	0xe
 7676 273f 34       		.byte	0x34
 7677 2740 A2000000 		.4byte	0xa2
 7678 2744 34       		.byte	0x34
 7679 2745 15       		.uleb128 0x15
 7680 2746 0C380000 		.4byte	.LASF942
 7681 274a 0E       		.byte	0xe
 7682 274b 34       		.byte	0x34
 7683 274c F7200000 		.4byte	0x20f7
 7684 2750 35       		.byte	0x35
 7685 2751 15       		.uleb128 0x15
 7686 2752 043C0000 		.4byte	.LASF943
 7687 2756 0E       		.byte	0xe
 7688 2757 34       		.byte	0x34
 7689 2758 1F010000 		.4byte	0x11f
 7690 275c 4F       		.byte	0x4f
 7691 275d 15       		.uleb128 0x15
 7692 275e 53400000 		.4byte	.LASF944
 7693 2762 0E       		.byte	0xe
 7694 2763 34       		.byte	0x34
 7695 2764 230E0000 		.4byte	0xe23
 7696 2768 5F       		.byte	0x5f
 7697 2769 15       		.uleb128 0x15
 7698 276a 6E2A0000 		.4byte	.LASF945
 7699 276e 0E       		.byte	0xe
ARM GAS  C:\Users\AHMED~1.ELE\AppData\Local\Temp\cckRh1xc.s 			page 162


 7700 276f 34       		.byte	0x34
 7701 2770 AD000000 		.4byte	0xad
 7702 2774 66       		.byte	0x66
 7703 2775 15       		.uleb128 0x15
 7704 2776 E7230000 		.4byte	.LASF946
 7705 277a 0E       		.byte	0xe
 7706 277b 34       		.byte	0x34
 7707 277c A2000000 		.4byte	0xa2
 7708 2780 68       		.byte	0x68
 7709 2781 15       		.uleb128 0x15
 7710 2782 20420000 		.4byte	.LASF947
 7711 2786 0E       		.byte	0xe
 7712 2787 34       		.byte	0x34
 7713 2788 D3140000 		.4byte	0x14d3
 7714 278c 69       		.byte	0x69
 7715 278d 15       		.uleb128 0x15
 7716 278e 23090000 		.4byte	.LASF948
 7717 2792 0E       		.byte	0xe
 7718 2793 34       		.byte	0x34
 7719 2794 AD000000 		.4byte	0xad
 7720 2798 76       		.byte	0x76
 7721 2799 15       		.uleb128 0x15
 7722 279a 6A1E0000 		.4byte	.LASF949
 7723 279e 0E       		.byte	0xe
 7724 279f 34       		.byte	0x34
 7725 27a0 AD000000 		.4byte	0xad
 7726 27a4 78       		.byte	0x78
 7727 27a5 15       		.uleb128 0x15
 7728 27a6 78120000 		.4byte	.LASF950
 7729 27aa 0E       		.byte	0xe
 7730 27ab 34       		.byte	0x34
 7731 27ac 011A0000 		.4byte	0x1a01
 7732 27b0 7C       		.byte	0x7c
 7733 27b1 15       		.uleb128 0x15
 7734 27b2 59010000 		.4byte	.LASF951
 7735 27b6 0E       		.byte	0xe
 7736 27b7 34       		.byte	0x34
 7737 27b8 491F0000 		.4byte	0x1f49
 7738 27bc 84       		.byte	0x84
 7739 27bd 1B       		.uleb128 0x1b
 7740 27be 483E0000 		.4byte	.LASF1024
 7741 27c2 0E       		.byte	0xe
 7742 27c3 35       		.byte	0x35
 7743 27c4 2F010000 		.4byte	0x12f
 7744 27c8 F801     		.2byte	0x1f8
 7745 27ca 1B       		.uleb128 0x1b
 7746 27cb D4390000 		.4byte	.LASF1025
 7747 27cf 0E       		.byte	0xe
 7748 27d0 36       		.byte	0x36
 7749 27d1 5C0E0000 		.4byte	0xe5c
 7750 27d5 0002     		.2byte	0x200
 7751 27d7 1B       		.uleb128 0x1b
 7752 27d8 86240000 		.4byte	.LASF1026
 7753 27dc 0E       		.byte	0xe
 7754 27dd 37       		.byte	0x37
 7755 27de 940E0000 		.4byte	0xe94
 7756 27e2 A002     		.2byte	0x2a0
ARM GAS  C:\Users\AHMED~1.ELE\AppData\Local\Temp\cckRh1xc.s 			page 163


 7757 27e4 1B       		.uleb128 0x1b
 7758 27e5 EB380000 		.4byte	.LASF1027
 7759 27e9 0E       		.byte	0xe
 7760 27ea 38       		.byte	0x38
 7761 27eb AD000000 		.4byte	0xad
 7762 27ef F402     		.2byte	0x2f4
 7763 27f1 1B       		.uleb128 0x1b
 7764 27f2 E8080000 		.4byte	.LASF1028
 7765 27f6 0E       		.byte	0xe
 7766 27f7 39       		.byte	0x39
 7767 27f8 A2000000 		.4byte	0xa2
 7768 27fc F602     		.2byte	0x2f6
 7769 27fe 1B       		.uleb128 0x1b
 7770 27ff 20190000 		.4byte	.LASF1029
 7771 2803 0E       		.byte	0xe
 7772 2804 3A       		.byte	0x3a
 7773 2805 EF000000 		.4byte	0xef
 7774 2809 F702     		.2byte	0x2f7
 7775 280b 00       		.byte	0
 7776 280c 1A       		.uleb128 0x1a
 7777 280d 39010000 		.4byte	.LASF1030
 7778 2811 0802     		.2byte	0x208
 7779 2813 0E       		.byte	0xe
 7780 2814 3D       		.byte	0x3d
 7781 2815 62290000 		.4byte	0x2962
 7782 2819 15       		.uleb128 0x15
 7783 281a A1030000 		.4byte	.LASF931
 7784 281e 0E       		.byte	0xe
 7785 281f 3E       		.byte	0x3e
 7786 2820 A2000000 		.4byte	0xa2
 7787 2824 00       		.byte	0
 7788 2825 15       		.uleb128 0x15
 7789 2826 F6220000 		.4byte	.LASF932
 7790 282a 0E       		.byte	0xe
 7791 282b 3E       		.byte	0x3e
 7792 282c A2000000 		.4byte	0xa2
 7793 2830 01       		.byte	0x1
 7794 2831 15       		.uleb128 0x15
 7795 2832 4D020000 		.4byte	.LASF625
 7796 2836 0E       		.byte	0xe
 7797 2837 3E       		.byte	0x3e
 7798 2838 E3140000 		.4byte	0x14e3
 7799 283c 02       		.byte	0x2
 7800 283d 15       		.uleb128 0x15
 7801 283e C21D0000 		.4byte	.LASF933
 7802 2842 0E       		.byte	0xe
 7803 2843 3E       		.byte	0x3e
 7804 2844 A2000000 		.4byte	0xa2
 7805 2848 05       		.byte	0x5
 7806 2849 15       		.uleb128 0x15
 7807 284a 20140000 		.4byte	.LASF626
 7808 284e 0E       		.byte	0xe
 7809 284f 3E       		.byte	0x3e
 7810 2850 E3140000 		.4byte	0x14e3
 7811 2854 06       		.byte	0x6
 7812 2855 15       		.uleb128 0x15
 7813 2856 A1300000 		.4byte	.LASF934
ARM GAS  C:\Users\AHMED~1.ELE\AppData\Local\Temp\cckRh1xc.s 			page 164


 7814 285a 0E       		.byte	0xe
 7815 285b 3E       		.byte	0x3e
 7816 285c FF000000 		.4byte	0xff
 7817 2860 09       		.byte	0x9
 7818 2861 15       		.uleb128 0x15
 7819 2862 B83F0000 		.4byte	.LASF935
 7820 2866 0E       		.byte	0xe
 7821 2867 3E       		.byte	0x3e
 7822 2868 D9000000 		.4byte	0xd9
 7823 286c 13       		.byte	0x13
 7824 286d 15       		.uleb128 0x15
 7825 286e E63F0000 		.4byte	.LASF936
 7826 2872 0E       		.byte	0xe
 7827 2873 3E       		.byte	0x3e
 7828 2874 A2000000 		.4byte	0xa2
 7829 2878 15       		.byte	0x15
 7830 2879 15       		.uleb128 0x15
 7831 287a 35380000 		.4byte	.LASF937
 7832 287e 0E       		.byte	0xe
 7833 287f 3E       		.byte	0x3e
 7834 2880 C3000000 		.4byte	0xc3
 7835 2884 18       		.byte	0x18
 7836 2885 15       		.uleb128 0x15
 7837 2886 A6270000 		.4byte	.LASF938
 7838 288a 0E       		.byte	0xe
 7839 288b 3E       		.byte	0x3e
 7840 288c C3000000 		.4byte	0xc3
 7841 2890 20       		.byte	0x20
 7842 2891 15       		.uleb128 0x15
 7843 2892 BB1E0000 		.4byte	.LASF939
 7844 2896 0E       		.byte	0xe
 7845 2897 3E       		.byte	0x3e
 7846 2898 C3000000 		.4byte	0xc3
 7847 289c 28       		.byte	0x28
 7848 289d 15       		.uleb128 0x15
 7849 289e B0180000 		.4byte	.LASF940
 7850 28a2 0E       		.byte	0xe
 7851 28a3 3E       		.byte	0x3e
 7852 28a4 EF000000 		.4byte	0xef
 7853 28a8 30       		.byte	0x30
 7854 28a9 15       		.uleb128 0x15
 7855 28aa 75430000 		.4byte	.LASF941
 7856 28ae 0E       		.byte	0xe
 7857 28af 3E       		.byte	0x3e
 7858 28b0 A2000000 		.4byte	0xa2
 7859 28b4 34       		.byte	0x34
 7860 28b5 15       		.uleb128 0x15
 7861 28b6 0C380000 		.4byte	.LASF942
 7862 28ba 0E       		.byte	0xe
 7863 28bb 3E       		.byte	0x3e
 7864 28bc F7200000 		.4byte	0x20f7
 7865 28c0 35       		.byte	0x35
 7866 28c1 15       		.uleb128 0x15
 7867 28c2 043C0000 		.4byte	.LASF943
 7868 28c6 0E       		.byte	0xe
 7869 28c7 3E       		.byte	0x3e
 7870 28c8 1F010000 		.4byte	0x11f
ARM GAS  C:\Users\AHMED~1.ELE\AppData\Local\Temp\cckRh1xc.s 			page 165


 7871 28cc 4F       		.byte	0x4f
 7872 28cd 15       		.uleb128 0x15
 7873 28ce 53400000 		.4byte	.LASF944
 7874 28d2 0E       		.byte	0xe
 7875 28d3 3E       		.byte	0x3e
 7876 28d4 230E0000 		.4byte	0xe23
 7877 28d8 5F       		.byte	0x5f
 7878 28d9 15       		.uleb128 0x15
 7879 28da 6E2A0000 		.4byte	.LASF945
 7880 28de 0E       		.byte	0xe
 7881 28df 3E       		.byte	0x3e
 7882 28e0 AD000000 		.4byte	0xad
 7883 28e4 66       		.byte	0x66
 7884 28e5 15       		.uleb128 0x15
 7885 28e6 E7230000 		.4byte	.LASF946
 7886 28ea 0E       		.byte	0xe
 7887 28eb 3E       		.byte	0x3e
 7888 28ec A2000000 		.4byte	0xa2
 7889 28f0 68       		.byte	0x68
 7890 28f1 15       		.uleb128 0x15
 7891 28f2 20420000 		.4byte	.LASF947
 7892 28f6 0E       		.byte	0xe
 7893 28f7 3E       		.byte	0x3e
 7894 28f8 D3140000 		.4byte	0x14d3
 7895 28fc 69       		.byte	0x69
 7896 28fd 15       		.uleb128 0x15
 7897 28fe 23090000 		.4byte	.LASF948
 7898 2902 0E       		.byte	0xe
 7899 2903 3E       		.byte	0x3e
 7900 2904 AD000000 		.4byte	0xad
 7901 2908 76       		.byte	0x76
 7902 2909 15       		.uleb128 0x15
 7903 290a 6A1E0000 		.4byte	.LASF949
 7904 290e 0E       		.byte	0xe
 7905 290f 3E       		.byte	0x3e
 7906 2910 AD000000 		.4byte	0xad
 7907 2914 78       		.byte	0x78
 7908 2915 15       		.uleb128 0x15
 7909 2916 78120000 		.4byte	.LASF950
 7910 291a 0E       		.byte	0xe
 7911 291b 3E       		.byte	0x3e
 7912 291c 011A0000 		.4byte	0x1a01
 7913 2920 7C       		.byte	0x7c
 7914 2921 15       		.uleb128 0x15
 7915 2922 59010000 		.4byte	.LASF951
 7916 2926 0E       		.byte	0xe
 7917 2927 3E       		.byte	0x3e
 7918 2928 491F0000 		.4byte	0x1f49
 7919 292c 84       		.byte	0x84
 7920 292d 1B       		.uleb128 0x1b
 7921 292e 483E0000 		.4byte	.LASF1024
 7922 2932 0E       		.byte	0xe
 7923 2933 3F       		.byte	0x3f
 7924 2934 2F010000 		.4byte	0x12f
 7925 2938 F801     		.2byte	0x1f8
 7926 293a 1B       		.uleb128 0x1b
 7927 293b 64040000 		.4byte	.LASF1031
ARM GAS  C:\Users\AHMED~1.ELE\AppData\Local\Temp\cckRh1xc.s 			page 166


 7928 293f 0E       		.byte	0xe
 7929 2940 40       		.byte	0x40
 7930 2941 E3140000 		.4byte	0x14e3
 7931 2945 0002     		.2byte	0x200
 7932 2947 1B       		.uleb128 0x1b
 7933 2948 71360000 		.4byte	.LASF1032
 7934 294c 0E       		.byte	0xe
 7935 294d 41       		.byte	0x41
 7936 294e A2000000 		.4byte	0xa2
 7937 2952 0302     		.2byte	0x203
 7938 2954 1B       		.uleb128 0x1b
 7939 2955 6A070000 		.4byte	.LASF1033
 7940 2959 0E       		.byte	0xe
 7941 295a 42       		.byte	0x42
 7942 295b E3140000 		.4byte	0x14e3
 7943 295f 0402     		.2byte	0x204
 7944 2961 00       		.byte	0
 7945 2962 1A       		.uleb128 0x1a
 7946 2963 37060000 		.4byte	.LASF1034
 7947 2967 4002     		.2byte	0x240
 7948 2969 0E       		.byte	0xe
 7949 296a 45       		.byte	0x45
 7950 296b 9E2A0000 		.4byte	0x2a9e
 7951 296f 15       		.uleb128 0x15
 7952 2970 A1030000 		.4byte	.LASF931
 7953 2974 0E       		.byte	0xe
 7954 2975 46       		.byte	0x46
 7955 2976 A2000000 		.4byte	0xa2
 7956 297a 00       		.byte	0
 7957 297b 15       		.uleb128 0x15
 7958 297c F6220000 		.4byte	.LASF932
 7959 2980 0E       		.byte	0xe
 7960 2981 46       		.byte	0x46
 7961 2982 A2000000 		.4byte	0xa2
 7962 2986 01       		.byte	0x1
 7963 2987 15       		.uleb128 0x15
 7964 2988 4D020000 		.4byte	.LASF625
 7965 298c 0E       		.byte	0xe
 7966 298d 46       		.byte	0x46
 7967 298e E3140000 		.4byte	0x14e3
 7968 2992 02       		.byte	0x2
 7969 2993 15       		.uleb128 0x15
 7970 2994 C21D0000 		.4byte	.LASF933
 7971 2998 0E       		.byte	0xe
 7972 2999 46       		.byte	0x46
 7973 299a A2000000 		.4byte	0xa2
 7974 299e 05       		.byte	0x5
 7975 299f 15       		.uleb128 0x15
 7976 29a0 20140000 		.4byte	.LASF626
 7977 29a4 0E       		.byte	0xe
 7978 29a5 46       		.byte	0x46
 7979 29a6 E3140000 		.4byte	0x14e3
 7980 29aa 06       		.byte	0x6
 7981 29ab 15       		.uleb128 0x15
 7982 29ac A1300000 		.4byte	.LASF934
 7983 29b0 0E       		.byte	0xe
 7984 29b1 46       		.byte	0x46
ARM GAS  C:\Users\AHMED~1.ELE\AppData\Local\Temp\cckRh1xc.s 			page 167


 7985 29b2 FF000000 		.4byte	0xff
 7986 29b6 09       		.byte	0x9
 7987 29b7 15       		.uleb128 0x15
 7988 29b8 B83F0000 		.4byte	.LASF935
 7989 29bc 0E       		.byte	0xe
 7990 29bd 46       		.byte	0x46
 7991 29be D9000000 		.4byte	0xd9
 7992 29c2 13       		.byte	0x13
 7993 29c3 15       		.uleb128 0x15
 7994 29c4 E63F0000 		.4byte	.LASF936
 7995 29c8 0E       		.byte	0xe
 7996 29c9 46       		.byte	0x46
 7997 29ca A2000000 		.4byte	0xa2
 7998 29ce 15       		.byte	0x15
 7999 29cf 15       		.uleb128 0x15
 8000 29d0 35380000 		.4byte	.LASF937
 8001 29d4 0E       		.byte	0xe
 8002 29d5 46       		.byte	0x46
 8003 29d6 C3000000 		.4byte	0xc3
 8004 29da 18       		.byte	0x18
 8005 29db 15       		.uleb128 0x15
 8006 29dc A6270000 		.4byte	.LASF938
 8007 29e0 0E       		.byte	0xe
 8008 29e1 46       		.byte	0x46
 8009 29e2 C3000000 		.4byte	0xc3
 8010 29e6 20       		.byte	0x20
 8011 29e7 15       		.uleb128 0x15
 8012 29e8 BB1E0000 		.4byte	.LASF939
 8013 29ec 0E       		.byte	0xe
 8014 29ed 46       		.byte	0x46
 8015 29ee C3000000 		.4byte	0xc3
 8016 29f2 28       		.byte	0x28
 8017 29f3 15       		.uleb128 0x15
 8018 29f4 B0180000 		.4byte	.LASF940
 8019 29f8 0E       		.byte	0xe
 8020 29f9 46       		.byte	0x46
 8021 29fa EF000000 		.4byte	0xef
 8022 29fe 30       		.byte	0x30
 8023 29ff 15       		.uleb128 0x15
 8024 2a00 75430000 		.4byte	.LASF941
 8025 2a04 0E       		.byte	0xe
 8026 2a05 46       		.byte	0x46
 8027 2a06 A2000000 		.4byte	0xa2
 8028 2a0a 34       		.byte	0x34
 8029 2a0b 15       		.uleb128 0x15
 8030 2a0c 0C380000 		.4byte	.LASF942
 8031 2a10 0E       		.byte	0xe
 8032 2a11 46       		.byte	0x46
 8033 2a12 F7200000 		.4byte	0x20f7
 8034 2a16 35       		.byte	0x35
 8035 2a17 15       		.uleb128 0x15
 8036 2a18 043C0000 		.4byte	.LASF943
 8037 2a1c 0E       		.byte	0xe
 8038 2a1d 46       		.byte	0x46
 8039 2a1e 1F010000 		.4byte	0x11f
 8040 2a22 4F       		.byte	0x4f
 8041 2a23 15       		.uleb128 0x15
ARM GAS  C:\Users\AHMED~1.ELE\AppData\Local\Temp\cckRh1xc.s 			page 168


 8042 2a24 53400000 		.4byte	.LASF944
 8043 2a28 0E       		.byte	0xe
 8044 2a29 46       		.byte	0x46
 8045 2a2a 230E0000 		.4byte	0xe23
 8046 2a2e 5F       		.byte	0x5f
 8047 2a2f 15       		.uleb128 0x15
 8048 2a30 6E2A0000 		.4byte	.LASF945
 8049 2a34 0E       		.byte	0xe
 8050 2a35 46       		.byte	0x46
 8051 2a36 AD000000 		.4byte	0xad
 8052 2a3a 66       		.byte	0x66
 8053 2a3b 15       		.uleb128 0x15
 8054 2a3c E7230000 		.4byte	.LASF946
 8055 2a40 0E       		.byte	0xe
 8056 2a41 46       		.byte	0x46
 8057 2a42 A2000000 		.4byte	0xa2
 8058 2a46 68       		.byte	0x68
 8059 2a47 15       		.uleb128 0x15
 8060 2a48 20420000 		.4byte	.LASF947
 8061 2a4c 0E       		.byte	0xe
 8062 2a4d 46       		.byte	0x46
 8063 2a4e D3140000 		.4byte	0x14d3
 8064 2a52 69       		.byte	0x69
 8065 2a53 15       		.uleb128 0x15
 8066 2a54 23090000 		.4byte	.LASF948
 8067 2a58 0E       		.byte	0xe
 8068 2a59 46       		.byte	0x46
 8069 2a5a AD000000 		.4byte	0xad
 8070 2a5e 76       		.byte	0x76
 8071 2a5f 15       		.uleb128 0x15
 8072 2a60 6A1E0000 		.4byte	.LASF949
 8073 2a64 0E       		.byte	0xe
 8074 2a65 46       		.byte	0x46
 8075 2a66 AD000000 		.4byte	0xad
 8076 2a6a 78       		.byte	0x78
 8077 2a6b 15       		.uleb128 0x15
 8078 2a6c 78120000 		.4byte	.LASF950
 8079 2a70 0E       		.byte	0xe
 8080 2a71 46       		.byte	0x46
 8081 2a72 011A0000 		.4byte	0x1a01
 8082 2a76 7C       		.byte	0x7c
 8083 2a77 15       		.uleb128 0x15
 8084 2a78 59010000 		.4byte	.LASF951
 8085 2a7c 0E       		.byte	0xe
 8086 2a7d 46       		.byte	0x46
 8087 2a7e 491F0000 		.4byte	0x1f49
 8088 2a82 84       		.byte	0x84
 8089 2a83 1B       		.uleb128 0x1b
 8090 2a84 96030000 		.4byte	.LASF1035
 8091 2a88 0E       		.byte	0xe
 8092 2a89 47       		.byte	0x47
 8093 2a8a A2000000 		.4byte	0xa2
 8094 2a8e F801     		.2byte	0x1f8
 8095 2a90 1B       		.uleb128 0x1b
 8096 2a91 542B0000 		.4byte	.LASF1036
 8097 2a95 0E       		.byte	0xe
 8098 2a96 48       		.byte	0x48
ARM GAS  C:\Users\AHMED~1.ELE\AppData\Local\Temp\cckRh1xc.s 			page 169


 8099 2a97 9E2A0000 		.4byte	0x2a9e
 8100 2a9b F901     		.2byte	0x1f9
 8101 2a9d 00       		.byte	0
 8102 2a9e 08       		.uleb128 0x8
 8103 2a9f A2000000 		.4byte	0xa2
 8104 2aa3 AE2A0000 		.4byte	0x2aae
 8105 2aa7 09       		.uleb128 0x9
 8106 2aa8 78000000 		.4byte	0x78
 8107 2aac 45       		.byte	0x45
 8108 2aad 00       		.byte	0
 8109 2aae 1A       		.uleb128 0x1a
 8110 2aaf 3F380000 		.4byte	.LASF1037
 8111 2ab3 4807     		.2byte	0x748
 8112 2ab5 0E       		.byte	0xe
 8113 2ab6 4E       		.byte	0x4e
 8114 2ab7 E22A0000 		.4byte	0x2ae2
 8115 2abb 15       		.uleb128 0x15
 8116 2abc F2150000 		.4byte	.LASF1038
 8117 2ac0 0E       		.byte	0xe
 8118 2ac1 4F       		.byte	0x4f
 8119 2ac2 9C260000 		.4byte	0x269c
 8120 2ac6 00       		.byte	0
 8121 2ac7 1B       		.uleb128 0x1b
 8122 2ac8 27420000 		.4byte	.LASF1039
 8123 2acc 0E       		.byte	0xe
 8124 2acd 50       		.byte	0x50
 8125 2ace 0C280000 		.4byte	0x280c
 8126 2ad2 0003     		.2byte	0x300
 8127 2ad4 1B       		.uleb128 0x1b
 8128 2ad5 6B0C0000 		.4byte	.LASF1040
 8129 2ad9 0E       		.byte	0xe
 8130 2ada 51       		.byte	0x51
 8131 2adb 62290000 		.4byte	0x2962
 8132 2adf 0805     		.2byte	0x508
 8133 2ae1 00       		.byte	0
 8134 2ae2 1D       		.uleb128 0x1d
 8135 2ae3 15230000 		.4byte	.LASF1099
 8136 2ae7 01       		.byte	0x1
 8137 2ae8 9C01     		.2byte	0x19c
 8138 2aea 97000000 		.4byte	0x97
 8139 2aee 01       		.byte	0x1
 8140 2aef 0C2B0000 		.4byte	0x2b0c
 8141 2af3 1E       		.uleb128 0x1e
 8142 2af4 B0050000 		.4byte	.LASF1041
 8143 2af8 01       		.byte	0x1
 8144 2af9 9E01     		.2byte	0x19e
 8145 2afb 0C2B0000 		.4byte	0x2b0c
 8146 2aff 1E       		.uleb128 0x1e
 8147 2b00 633C0000 		.4byte	.LASF1042
 8148 2b04 01       		.byte	0x1
 8149 2b05 9F01     		.2byte	0x19f
 8150 2b07 A2000000 		.4byte	0xa2
 8151 2b0b 00       		.byte	0
 8152 2b0c 06       		.uleb128 0x6
 8153 2b0d 04       		.byte	0x4
 8154 2b0e CB1E0000 		.4byte	0x1ecb
 8155 2b12 1F       		.uleb128 0x1f
ARM GAS  C:\Users\AHMED~1.ELE\AppData\Local\Temp\cckRh1xc.s 			page 170


 8156 2b13 EB330000 		.4byte	.LASF1163
 8157 2b17 01       		.byte	0x1
 8158 2b18 BA02     		.2byte	0x2ba
 8159 2b1a A2000000 		.4byte	0xa2
 8160 2b1e 00000000 		.4byte	.LFB17
 8161 2b22 70000000 		.4byte	.LFE17-.LFB17
 8162 2b26 01       		.uleb128 0x1
 8163 2b27 9C       		.byte	0x9c
 8164 2b28 A32B0000 		.4byte	0x2ba3
 8165 2b2c 20       		.uleb128 0x20
 8166 2b2d 2F440000 		.4byte	.LASF1043
 8167 2b31 01       		.byte	0x1
 8168 2b32 BA02     		.2byte	0x2ba
 8169 2b34 A2000000 		.4byte	0xa2
 8170 2b38 00000000 		.4byte	.LLST0
 8171 2b3c 21       		.uleb128 0x21
 8172 2b3d 14000000 		.4byte	.LVL2
 8173 2b41 64430000 		.4byte	0x4364
 8174 2b45 672B0000 		.4byte	0x2b67
 8175 2b49 22       		.uleb128 0x22
 8176 2b4a 01       		.uleb128 0x1
 8177 2b4b 53       		.byte	0x53
 8178 2b4c 01       		.uleb128 0x1
 8179 2b4d 30       		.byte	0x30
 8180 2b4e 22       		.uleb128 0x22
 8181 2b4f 01       		.uleb128 0x1
 8182 2b50 52       		.byte	0x52
 8183 2b51 03       		.uleb128 0x3
 8184 2b52 0A       		.byte	0xa
 8185 2b53 0003     		.2byte	0x300
 8186 2b55 22       		.uleb128 0x22
 8187 2b56 01       		.uleb128 0x1
 8188 2b57 51       		.byte	0x51
 8189 2b58 02       		.uleb128 0x2
 8190 2b59 08       		.byte	0x8
 8191 2b5a 23       		.byte	0x23
 8192 2b5b 22       		.uleb128 0x22
 8193 2b5c 01       		.uleb128 0x1
 8194 2b5d 50       		.byte	0x50
 8195 2b5e 01       		.uleb128 0x1
 8196 2b5f 3F       		.byte	0x3f
 8197 2b60 22       		.uleb128 0x22
 8198 2b61 02       		.uleb128 0x2
 8199 2b62 7D       		.byte	0x7d
 8200 2b63 00       		.sleb128 0
 8201 2b64 01       		.uleb128 0x1
 8202 2b65 30       		.byte	0x30
 8203 2b66 00       		.byte	0
 8204 2b67 23       		.uleb128 0x23
 8205 2b68 22000000 		.4byte	.LVL3
 8206 2b6c 8D430000 		.4byte	0x438d
 8207 2b70 21       		.uleb128 0x21
 8208 2b71 3E000000 		.4byte	.LVL4
 8209 2b75 94430000 		.4byte	0x4394
 8210 2b79 832B0000 		.4byte	0x2b83
 8211 2b7d 22       		.uleb128 0x22
 8212 2b7e 01       		.uleb128 0x1
ARM GAS  C:\Users\AHMED~1.ELE\AppData\Local\Temp\cckRh1xc.s 			page 171


 8213 2b7f 50       		.byte	0x50
 8214 2b80 01       		.uleb128 0x1
 8215 2b81 31       		.byte	0x31
 8216 2b82 00       		.byte	0
 8217 2b83 24       		.uleb128 0x24
 8218 2b84 50000000 		.4byte	.LVL5
 8219 2b88 64430000 		.4byte	0x4364
 8220 2b8c 22       		.uleb128 0x22
 8221 2b8d 01       		.uleb128 0x1
 8222 2b8e 53       		.byte	0x53
 8223 2b8f 01       		.uleb128 0x1
 8224 2b90 35       		.byte	0x35
 8225 2b91 22       		.uleb128 0x22
 8226 2b92 01       		.uleb128 0x1
 8227 2b93 51       		.byte	0x51
 8228 2b94 01       		.uleb128 0x1
 8229 2b95 37       		.byte	0x37
 8230 2b96 22       		.uleb128 0x22
 8231 2b97 01       		.uleb128 0x1
 8232 2b98 50       		.byte	0x50
 8233 2b99 01       		.uleb128 0x1
 8234 2b9a 3F       		.byte	0x3f
 8235 2b9b 22       		.uleb128 0x22
 8236 2b9c 02       		.uleb128 0x2
 8237 2b9d 7D       		.byte	0x7d
 8238 2b9e 00       		.sleb128 0
 8239 2b9f 01       		.uleb128 0x1
 8240 2ba0 30       		.byte	0x30
 8241 2ba1 00       		.byte	0
 8242 2ba2 00       		.byte	0
 8243 2ba3 25       		.uleb128 0x25
 8244 2ba4 5F0B0000 		.4byte	.LASF1048
 8245 2ba8 01       		.byte	0x1
 8246 2ba9 80       		.byte	0x80
 8247 2baa A2000000 		.4byte	0xa2
 8248 2bae 00000000 		.4byte	.LFB0
 8249 2bb2 82000000 		.4byte	.LFE0-.LFB0
 8250 2bb6 01       		.uleb128 0x1
 8251 2bb7 9C       		.byte	0x9c
 8252 2bb8 632C0000 		.4byte	0x2c63
 8253 2bbc 26       		.uleb128 0x26
 8254 2bbd F8130000 		.4byte	.LASF1044
 8255 2bc1 01       		.byte	0x1
 8256 2bc2 80       		.byte	0x80
 8257 2bc3 0C2B0000 		.4byte	0x2b0c
 8258 2bc7 38000000 		.4byte	.LLST1
 8259 2bcb 26       		.uleb128 0x26
 8260 2bcc 1A190000 		.4byte	.LASF916
 8261 2bd0 01       		.byte	0x1
 8262 2bd1 80       		.byte	0x80
 8263 2bd2 E9000000 		.4byte	0xe9
 8264 2bd6 56000000 		.4byte	.LLST2
 8265 2bda 26       		.uleb128 0x26
 8266 2bdb 08420000 		.4byte	.LASF609
 8267 2bdf 01       		.byte	0x1
 8268 2be0 80       		.byte	0x80
 8269 2be1 AD000000 		.4byte	0xad
ARM GAS  C:\Users\AHMED~1.ELE\AppData\Local\Temp\cckRh1xc.s 			page 172


 8270 2be5 8A000000 		.4byte	.LLST3
 8271 2be9 27       		.uleb128 0x27
 8272 2bea 880D0000 		.4byte	.LASF1045
 8273 2bee 01       		.byte	0x1
 8274 2bef 82       		.byte	0x82
 8275 2bf0 A2000000 		.4byte	0xa2
 8276 2bf4 BE000000 		.4byte	.LLST4
 8277 2bf8 27       		.uleb128 0x27
 8278 2bf9 CA330000 		.4byte	.LASF1046
 8279 2bfd 01       		.byte	0x1
 8280 2bfe 83       		.byte	0x83
 8281 2bff E9000000 		.4byte	0xe9
 8282 2c03 DC000000 		.4byte	.LLST5
 8283 2c07 27       		.uleb128 0x27
 8284 2c08 80190000 		.4byte	.LASF1047
 8285 2c0c 01       		.byte	0x1
 8286 2c0d 84       		.byte	0x84
 8287 2c0e AD000000 		.4byte	0xad
 8288 2c12 EF000000 		.4byte	.LLST6
 8289 2c16 21       		.uleb128 0x21
 8290 2c17 2A000000 		.4byte	.LVL12
 8291 2c1b A5430000 		.4byte	0x43a5
 8292 2c1f 2A2C0000 		.4byte	0x2c2a
 8293 2c23 22       		.uleb128 0x22
 8294 2c24 01       		.uleb128 0x1
 8295 2c25 50       		.byte	0x50
 8296 2c26 02       		.uleb128 0x2
 8297 2c27 75       		.byte	0x75
 8298 2c28 00       		.sleb128 0
 8299 2c29 00       		.byte	0
 8300 2c2a 21       		.uleb128 0x21
 8301 2c2b 3C000000 		.4byte	.LVL14
 8302 2c2f BA430000 		.4byte	0x43ba
 8303 2c33 3E2C0000 		.4byte	0x2c3e
 8304 2c37 22       		.uleb128 0x22
 8305 2c38 01       		.uleb128 0x1
 8306 2c39 50       		.byte	0x50
 8307 2c3a 02       		.uleb128 0x2
 8308 2c3b 75       		.byte	0x75
 8309 2c3c 00       		.sleb128 0
 8310 2c3d 00       		.byte	0
 8311 2c3e 21       		.uleb128 0x21
 8312 2c3f 48000000 		.4byte	.LVL17
 8313 2c43 CF430000 		.4byte	0x43cf
 8314 2c47 522C0000 		.4byte	0x2c52
 8315 2c4b 22       		.uleb128 0x22
 8316 2c4c 01       		.uleb128 0x1
 8317 2c4d 50       		.byte	0x50
 8318 2c4e 02       		.uleb128 0x2
 8319 2c4f 75       		.byte	0x75
 8320 2c50 00       		.sleb128 0
 8321 2c51 00       		.byte	0
 8322 2c52 24       		.uleb128 0x24
 8323 2c53 52000000 		.4byte	.LVL18
 8324 2c57 E4430000 		.4byte	0x43e4
 8325 2c5b 22       		.uleb128 0x22
 8326 2c5c 01       		.uleb128 0x1
ARM GAS  C:\Users\AHMED~1.ELE\AppData\Local\Temp\cckRh1xc.s 			page 173


 8327 2c5d 50       		.byte	0x50
 8328 2c5e 02       		.uleb128 0x2
 8329 2c5f 75       		.byte	0x75
 8330 2c60 00       		.sleb128 0
 8331 2c61 00       		.byte	0
 8332 2c62 00       		.byte	0
 8333 2c63 28       		.uleb128 0x28
 8334 2c64 D6100000 		.4byte	.LASF1049
 8335 2c68 01       		.byte	0x1
 8336 2c69 0B01     		.2byte	0x10b
 8337 2c6b E9000000 		.4byte	0xe9
 8338 2c6f 00000000 		.4byte	.LFB4
 8339 2c73 10000000 		.4byte	.LFE4-.LFB4
 8340 2c77 01       		.uleb128 0x1
 8341 2c78 9C       		.byte	0x9c
 8342 2c79 9C2C0000 		.4byte	0x2c9c
 8343 2c7d 20       		.uleb128 0x20
 8344 2c7e 75370000 		.4byte	.LASF1050
 8345 2c82 01       		.byte	0x1
 8346 2c83 0B01     		.2byte	0x10b
 8347 2c85 E9000000 		.4byte	0xe9
 8348 2c89 02010000 		.4byte	.LLST7
 8349 2c8d 29       		.uleb128 0x29
 8350 2c8e C2200000 		.4byte	.LASF1051
 8351 2c92 01       		.byte	0x1
 8352 2c93 0B01     		.2byte	0x10b
 8353 2c95 AD000000 		.4byte	0xad
 8354 2c99 01       		.uleb128 0x1
 8355 2c9a 51       		.byte	0x51
 8356 2c9b 00       		.byte	0
 8357 2c9c 28       		.uleb128 0x28
 8358 2c9d 0D310000 		.4byte	.LASF1052
 8359 2ca1 01       		.byte	0x1
 8360 2ca2 1B01     		.2byte	0x11b
 8361 2ca4 0C2B0000 		.4byte	0x2b0c
 8362 2ca8 00000000 		.4byte	.LFB5
 8363 2cac 10000000 		.4byte	.LFE5-.LFB5
 8364 2cb0 01       		.uleb128 0x1
 8365 2cb1 9C       		.byte	0x9c
 8366 2cb2 D52C0000 		.4byte	0x2cd5
 8367 2cb6 20       		.uleb128 0x20
 8368 2cb7 F1040000 		.4byte	.LASF1053
 8369 2cbb 01       		.byte	0x1
 8370 2cbc 1B01     		.2byte	0x11b
 8371 2cbe 0C2B0000 		.4byte	0x2b0c
 8372 2cc2 3A010000 		.4byte	.LLST8
 8373 2cc6 29       		.uleb128 0x29
 8374 2cc7 C2200000 		.4byte	.LASF1051
 8375 2ccb 01       		.byte	0x1
 8376 2ccc 1B01     		.2byte	0x11b
 8377 2cce AD000000 		.4byte	0xad
 8378 2cd2 01       		.uleb128 0x1
 8379 2cd3 51       		.byte	0x51
 8380 2cd4 00       		.byte	0
 8381 2cd5 28       		.uleb128 0x28
 8382 2cd6 043D0000 		.4byte	.LASF1054
 8383 2cda 01       		.byte	0x1
ARM GAS  C:\Users\AHMED~1.ELE\AppData\Local\Temp\cckRh1xc.s 			page 174


 8384 2cdb 2D01     		.2byte	0x12d
 8385 2cdd E9000000 		.4byte	0xe9
 8386 2ce1 00000000 		.4byte	.LFB6
 8387 2ce5 14000000 		.4byte	.LFE6-.LFB6
 8388 2ce9 01       		.uleb128 0x1
 8389 2cea 9C       		.byte	0x9c
 8390 2ceb 0E2D0000 		.4byte	0x2d0e
 8391 2cef 20       		.uleb128 0x20
 8392 2cf0 F1040000 		.4byte	.LASF1053
 8393 2cf4 01       		.byte	0x1
 8394 2cf5 2D01     		.2byte	0x12d
 8395 2cf7 0C2B0000 		.4byte	0x2b0c
 8396 2cfb 58010000 		.4byte	.LLST9
 8397 2cff 29       		.uleb128 0x29
 8398 2d00 C2200000 		.4byte	.LASF1051
 8399 2d04 01       		.byte	0x1
 8400 2d05 2D01     		.2byte	0x12d
 8401 2d07 AD000000 		.4byte	0xad
 8402 2d0b 01       		.uleb128 0x1
 8403 2d0c 51       		.byte	0x51
 8404 2d0d 00       		.byte	0
 8405 2d0e 28       		.uleb128 0x28
 8406 2d0f 513B0000 		.4byte	.LASF1055
 8407 2d13 01       		.byte	0x1
 8408 2d14 3F01     		.2byte	0x13f
 8409 2d16 E9000000 		.4byte	0xe9
 8410 2d1a 00000000 		.4byte	.LFB7
 8411 2d1e 48000000 		.4byte	.LFE7-.LFB7
 8412 2d22 01       		.uleb128 0x1
 8413 2d23 9C       		.byte	0x9c
 8414 2d24 A72D0000 		.4byte	0x2da7
 8415 2d28 20       		.uleb128 0x20
 8416 2d29 75370000 		.4byte	.LASF1050
 8417 2d2d 01       		.byte	0x1
 8418 2d2e 3F01     		.2byte	0x13f
 8419 2d30 E9000000 		.4byte	0xe9
 8420 2d34 76010000 		.4byte	.LLST10
 8421 2d38 20       		.uleb128 0x20
 8422 2d39 7D3C0000 		.4byte	.LASF1056
 8423 2d3d 01       		.byte	0x1
 8424 2d3e 3F01     		.2byte	0x13f
 8425 2d40 A72D0000 		.4byte	0x2da7
 8426 2d44 B5010000 		.4byte	.LLST11
 8427 2d48 2A       		.uleb128 0x2a
 8428 2d49 74616700 		.ascii	"tag\000"
 8429 2d4d 01       		.byte	0x1
 8430 2d4e 4101     		.2byte	0x141
 8431 2d50 AD000000 		.4byte	0xad
 8432 2d54 F8010000 		.4byte	.LLST12
 8433 2d58 2B       		.uleb128 0x2b
 8434 2d59 B0050000 		.4byte	.LASF1041
 8435 2d5d 01       		.byte	0x1
 8436 2d5e 4201     		.2byte	0x142
 8437 2d60 0C2B0000 		.4byte	0x2b0c
 8438 2d64 0B020000 		.4byte	.LLST13
 8439 2d68 21       		.uleb128 0x21
 8440 2d69 1C000000 		.4byte	.LVL40
ARM GAS  C:\Users\AHMED~1.ELE\AppData\Local\Temp\cckRh1xc.s 			page 175


 8441 2d6d 9C2C0000 		.4byte	0x2c9c
 8442 2d71 7C2D0000 		.4byte	0x2d7c
 8443 2d75 22       		.uleb128 0x22
 8444 2d76 01       		.uleb128 0x1
 8445 2d77 51       		.byte	0x51
 8446 2d78 02       		.uleb128 0x2
 8447 2d79 76       		.byte	0x76
 8448 2d7a 00       		.sleb128 0
 8449 2d7b 00       		.byte	0
 8450 2d7c 21       		.uleb128 0x21
 8451 2d7d 2A000000 		.4byte	.LVL42
 8452 2d81 632C0000 		.4byte	0x2c63
 8453 2d85 962D0000 		.4byte	0x2d96
 8454 2d89 22       		.uleb128 0x22
 8455 2d8a 01       		.uleb128 0x1
 8456 2d8b 51       		.byte	0x51
 8457 2d8c 02       		.uleb128 0x2
 8458 2d8d 76       		.byte	0x76
 8459 2d8e 00       		.sleb128 0
 8460 2d8f 22       		.uleb128 0x22
 8461 2d90 01       		.uleb128 0x1
 8462 2d91 50       		.byte	0x50
 8463 2d92 02       		.uleb128 0x2
 8464 2d93 74       		.byte	0x74
 8465 2d94 00       		.sleb128 0
 8466 2d95 00       		.byte	0
 8467 2d96 24       		.uleb128 0x24
 8468 2d97 3A000000 		.4byte	.LVL44
 8469 2d9b F9430000 		.4byte	0x43f9
 8470 2d9f 22       		.uleb128 0x22
 8471 2da0 01       		.uleb128 0x1
 8472 2da1 50       		.byte	0x50
 8473 2da2 02       		.uleb128 0x2
 8474 2da3 74       		.byte	0x74
 8475 2da4 00       		.sleb128 0
 8476 2da5 00       		.byte	0
 8477 2da6 00       		.byte	0
 8478 2da7 06       		.uleb128 0x6
 8479 2da8 04       		.byte	0x4
 8480 2da9 AD000000 		.4byte	0xad
 8481 2dad 2C       		.uleb128 0x2c
 8482 2dae 6C430000 		.4byte	.LASF1066
 8483 2db2 01       		.byte	0x1
 8484 2db3 5701     		.2byte	0x157
 8485 2db5 00000000 		.4byte	.LFB8
 8486 2db9 40000000 		.4byte	.LFE8-.LFB8
 8487 2dbd 01       		.uleb128 0x1
 8488 2dbe 9C       		.byte	0x9c
 8489 2dbf 432E0000 		.4byte	0x2e43
 8490 2dc3 21       		.uleb128 0x21
 8491 2dc4 08000000 		.4byte	.LVL48
 8492 2dc8 16440000 		.4byte	0x4416
 8493 2dcc D72D0000 		.4byte	0x2dd7
 8494 2dd0 22       		.uleb128 0x22
 8495 2dd1 01       		.uleb128 0x1
 8496 2dd2 50       		.byte	0x50
 8497 2dd3 02       		.uleb128 0x2
ARM GAS  C:\Users\AHMED~1.ELE\AppData\Local\Temp\cckRh1xc.s 			page 176


 8498 2dd4 08       		.byte	0x8
 8499 2dd5 86       		.byte	0x86
 8500 2dd6 00       		.byte	0
 8501 2dd7 21       		.uleb128 0x21
 8502 2dd8 14000000 		.4byte	.LVL49
 8503 2ddc 2B440000 		.4byte	0x442b
 8504 2de0 F32D0000 		.4byte	0x2df3
 8505 2de4 22       		.uleb128 0x22
 8506 2de5 01       		.uleb128 0x1
 8507 2de6 52       		.byte	0x52
 8508 2de7 03       		.uleb128 0x3
 8509 2de8 0A       		.byte	0xa
 8510 2de9 8010     		.2byte	0x1080
 8511 2deb 22       		.uleb128 0x22
 8512 2dec 01       		.uleb128 0x1
 8513 2ded 51       		.byte	0x51
 8514 2dee 03       		.uleb128 0x3
 8515 2def 0A       		.byte	0xa
 8516 2df0 0003     		.2byte	0x300
 8517 2df2 00       		.byte	0
 8518 2df3 21       		.uleb128 0x21
 8519 2df4 24000000 		.4byte	.LVL50
 8520 2df8 64430000 		.4byte	0x4364
 8521 2dfc 1C2E0000 		.4byte	0x2e1c
 8522 2e00 22       		.uleb128 0x22
 8523 2e01 01       		.uleb128 0x1
 8524 2e02 53       		.byte	0x53
 8525 2e03 01       		.uleb128 0x1
 8526 2e04 30       		.byte	0x30
 8527 2e05 22       		.uleb128 0x22
 8528 2e06 01       		.uleb128 0x1
 8529 2e07 52       		.byte	0x52
 8530 2e08 02       		.uleb128 0x2
 8531 2e09 09       		.byte	0x9
 8532 2e0a FF       		.byte	0xff
 8533 2e0b 22       		.uleb128 0x22
 8534 2e0c 01       		.uleb128 0x1
 8535 2e0d 51       		.byte	0x51
 8536 2e0e 01       		.uleb128 0x1
 8537 2e0f 33       		.byte	0x33
 8538 2e10 22       		.uleb128 0x22
 8539 2e11 01       		.uleb128 0x1
 8540 2e12 50       		.byte	0x50
 8541 2e13 01       		.uleb128 0x1
 8542 2e14 40       		.byte	0x40
 8543 2e15 22       		.uleb128 0x22
 8544 2e16 02       		.uleb128 0x2
 8545 2e17 7D       		.byte	0x7d
 8546 2e18 00       		.sleb128 0
 8547 2e19 01       		.uleb128 0x1
 8548 2e1a 30       		.byte	0x30
 8549 2e1b 00       		.byte	0
 8550 2e1c 21       		.uleb128 0x21
 8551 2e1d 30000000 		.4byte	.LVL51
 8552 2e21 46440000 		.4byte	0x4446
 8553 2e25 312E0000 		.4byte	0x2e31
 8554 2e29 22       		.uleb128 0x22
ARM GAS  C:\Users\AHMED~1.ELE\AppData\Local\Temp\cckRh1xc.s 			page 177


 8555 2e2a 01       		.uleb128 0x1
 8556 2e2b 50       		.byte	0x50
 8557 2e2c 03       		.uleb128 0x3
 8558 2e2d 0A       		.byte	0xa
 8559 2e2e 9C01     		.2byte	0x19c
 8560 2e30 00       		.byte	0
 8561 2e31 2D       		.uleb128 0x2d
 8562 2e32 40000000 		.4byte	.LVL52
 8563 2e36 46440000 		.4byte	0x4446
 8564 2e3a 22       		.uleb128 0x22
 8565 2e3b 01       		.uleb128 0x1
 8566 2e3c 50       		.byte	0x50
 8567 2e3d 03       		.uleb128 0x3
 8568 2e3e 0A       		.byte	0xa
 8569 2e3f 9E01     		.2byte	0x19e
 8570 2e41 00       		.byte	0
 8571 2e42 00       		.byte	0
 8572 2e43 2E       		.uleb128 0x2e
 8573 2e44 DE390000 		.4byte	.LASF1064
 8574 2e48 01       		.byte	0x1
 8575 2e49 C6       		.byte	0xc6
 8576 2e4a 97000000 		.4byte	0x97
 8577 2e4e 01       		.byte	0x1
 8578 2e4f 752E0000 		.4byte	0x2e75
 8579 2e53 2F       		.uleb128 0x2f
 8580 2e54 403E0000 		.4byte	.LASF1057
 8581 2e58 01       		.byte	0x1
 8582 2e59 C8       		.byte	0xc8
 8583 2e5a A2000000 		.4byte	0xa2
 8584 2e5e 2F       		.uleb128 0x2f
 8585 2e5f 880D0000 		.4byte	.LASF1045
 8586 2e63 01       		.byte	0x1
 8587 2e64 C9       		.byte	0xc9
 8588 2e65 A2000000 		.4byte	0xa2
 8589 2e69 2F       		.uleb128 0x2f
 8590 2e6a 3A370000 		.4byte	.LASF1058
 8591 2e6e 01       		.byte	0x1
 8592 2e6f CA       		.byte	0xca
 8593 2e70 B8000000 		.4byte	0xb8
 8594 2e74 00       		.byte	0
 8595 2e75 30       		.uleb128 0x30
 8596 2e76 C7200000 		.4byte	.LASF1077
 8597 2e7a 01       		.byte	0x1
 8598 2e7b B0       		.byte	0xb0
 8599 2e7c 01       		.byte	0x1
 8600 2e7d C42E0000 		.4byte	0x2ec4
 8601 2e81 31       		.uleb128 0x31
 8602 2e82 B0050000 		.4byte	.LASF1041
 8603 2e86 01       		.byte	0x1
 8604 2e87 B0       		.byte	0xb0
 8605 2e88 0C2B0000 		.4byte	0x2b0c
 8606 2e8c 32       		.uleb128 0x32
 8607 2e8d 6900     		.ascii	"i\000"
 8608 2e8f 01       		.byte	0x1
 8609 2e90 B2       		.byte	0xb2
 8610 2e91 A2000000 		.4byte	0xa2
 8611 2e95 32       		.uleb128 0x32
ARM GAS  C:\Users\AHMED~1.ELE\AppData\Local\Temp\cckRh1xc.s 			page 178


 8612 2e96 6C656E00 		.ascii	"len\000"
 8613 2e9a 01       		.byte	0x1
 8614 2e9b B3       		.byte	0xb3
 8615 2e9c A2000000 		.4byte	0xa2
 8616 2ea0 2F       		.uleb128 0x2f
 8617 2ea1 06400000 		.4byte	.LASF1059
 8618 2ea5 01       		.byte	0x1
 8619 2ea6 B4       		.byte	0xb4
 8620 2ea7 C42E0000 		.4byte	0x2ec4
 8621 2eab 33       		.uleb128 0x33
 8622 2eac 32       		.uleb128 0x32
 8623 2ead 6C656E00 		.ascii	"len\000"
 8624 2eb1 01       		.byte	0x1
 8625 2eb2 BC       		.byte	0xbc
 8626 2eb3 B8000000 		.4byte	0xb8
 8627 2eb7 32       		.uleb128 0x32
 8628 2eb8 70747200 		.ascii	"ptr\000"
 8629 2ebc 01       		.byte	0x1
 8630 2ebd BC       		.byte	0xbc
 8631 2ebe E9000000 		.4byte	0xe9
 8632 2ec2 00       		.byte	0
 8633 2ec3 00       		.byte	0
 8634 2ec4 08       		.uleb128 0x8
 8635 2ec5 A2000000 		.4byte	0xa2
 8636 2ec9 D42E0000 		.4byte	0x2ed4
 8637 2ecd 09       		.uleb128 0x9
 8638 2ece 78000000 		.4byte	0x78
 8639 2ed2 1A       		.byte	0x1a
 8640 2ed3 00       		.byte	0
 8641 2ed4 25       		.uleb128 0x25
 8642 2ed5 E4320000 		.4byte	.LASF1060
 8643 2ed9 01       		.byte	0x1
 8644 2eda F1       		.byte	0xf1
 8645 2edb 97000000 		.4byte	0x97
 8646 2edf 00000000 		.4byte	.LFB3
 8647 2ee3 98010000 		.4byte	.LFE3-.LFB3
 8648 2ee7 01       		.uleb128 0x1
 8649 2ee8 9C       		.byte	0x9c
 8650 2ee9 83310000 		.4byte	0x3183
 8651 2eed 26       		.uleb128 0x26
 8652 2eee 21150000 		.4byte	.LASF1061
 8653 2ef2 01       		.byte	0x1
 8654 2ef3 F1       		.byte	0xf1
 8655 2ef4 97000000 		.4byte	0x97
 8656 2ef8 29020000 		.4byte	.LLST14
 8657 2efc 34       		.uleb128 0x34
 8658 2efd 432E0000 		.4byte	0x2e43
 8659 2f01 28000000 		.4byte	.LBB7
 8660 2f05 20010000 		.4byte	.LBE7-.LBB7
 8661 2f09 01       		.byte	0x1
 8662 2f0a F8       		.byte	0xf8
 8663 2f0b 02310000 		.4byte	0x3102
 8664 2f0f 35       		.uleb128 0x35
 8665 2f10 28000000 		.4byte	.LBB8
 8666 2f14 20010000 		.4byte	.LBE8-.LBB8
 8667 2f18 36       		.uleb128 0x36
 8668 2f19 532E0000 		.4byte	0x2e53
ARM GAS  C:\Users\AHMED~1.ELE\AppData\Local\Temp\cckRh1xc.s 			page 179


 8669 2f1d 4A020000 		.4byte	.LLST15
 8670 2f21 36       		.uleb128 0x36
 8671 2f22 5E2E0000 		.4byte	0x2e5e
 8672 2f26 68020000 		.4byte	.LLST16
 8673 2f2a 36       		.uleb128 0x36
 8674 2f2b 692E0000 		.4byte	0x2e69
 8675 2f2f 91020000 		.4byte	.LLST17
 8676 2f33 34       		.uleb128 0x34
 8677 2f34 752E0000 		.4byte	0x2e75
 8678 2f38 72000000 		.4byte	.LBB9
 8679 2f3c 9C000000 		.4byte	.LBE9-.LBB9
 8680 2f40 01       		.byte	0x1
 8681 2f41 D6       		.byte	0xd6
 8682 2f42 69300000 		.4byte	0x3069
 8683 2f46 37       		.uleb128 0x37
 8684 2f47 812E0000 		.4byte	0x2e81
 8685 2f4b AF020000 		.4byte	.LLST18
 8686 2f4f 35       		.uleb128 0x35
 8687 2f50 72000000 		.4byte	.LBB10
 8688 2f54 9C000000 		.4byte	.LBE10-.LBB10
 8689 2f58 36       		.uleb128 0x36
 8690 2f59 8C2E0000 		.4byte	0x2e8c
 8691 2f5d D2020000 		.4byte	.LLST19
 8692 2f61 36       		.uleb128 0x36
 8693 2f62 952E0000 		.4byte	0x2e95
 8694 2f66 06030000 		.4byte	.LLST20
 8695 2f6a 38       		.uleb128 0x38
 8696 2f6b A02E0000 		.4byte	0x2ea0
 8697 2f6f 02       		.uleb128 0x2
 8698 2f70 91       		.byte	0x91
 8699 2f71 44       		.sleb128 -60
 8700 2f72 39       		.uleb128 0x39
 8701 2f73 D0000000 		.4byte	.LBB11
 8702 2f77 3E000000 		.4byte	.LBE11-.LBB11
 8703 2f7b 24300000 		.4byte	0x3024
 8704 2f7f 36       		.uleb128 0x36
 8705 2f80 AC2E0000 		.4byte	0x2eac
 8706 2f84 19030000 		.4byte	.LLST21
 8707 2f88 36       		.uleb128 0x36
 8708 2f89 B72E0000 		.4byte	0x2eb7
 8709 2f8d 42030000 		.4byte	.LLST22
 8710 2f91 21       		.uleb128 0x21
 8711 2f92 D6000000 		.4byte	.LVL71
 8712 2f96 5B440000 		.4byte	0x445b
 8713 2f9a A52F0000 		.4byte	0x2fa5
 8714 2f9e 22       		.uleb128 0x22
 8715 2f9f 01       		.uleb128 0x1
 8716 2fa0 50       		.byte	0x50
 8717 2fa1 02       		.uleb128 0x2
 8718 2fa2 78       		.byte	0x78
 8719 2fa3 00       		.sleb128 0
 8720 2fa4 00       		.byte	0
 8721 2fa5 21       		.uleb128 0x21
 8722 2fa6 E2000000 		.4byte	.LVL74
 8723 2faa 70440000 		.4byte	0x4470
 8724 2fae BF2F0000 		.4byte	0x2fbf
 8725 2fb2 22       		.uleb128 0x22
ARM GAS  C:\Users\AHMED~1.ELE\AppData\Local\Temp\cckRh1xc.s 			page 180


 8726 2fb3 01       		.uleb128 0x1
 8727 2fb4 51       		.byte	0x51
 8728 2fb5 02       		.uleb128 0x2
 8729 2fb6 7A       		.byte	0x7a
 8730 2fb7 01       		.sleb128 1
 8731 2fb8 22       		.uleb128 0x22
 8732 2fb9 01       		.uleb128 0x1
 8733 2fba 50       		.byte	0x50
 8734 2fbb 02       		.uleb128 0x2
 8735 2fbc 08       		.byte	0x8
 8736 2fbd 92       		.byte	0x92
 8737 2fbe 00       		.byte	0
 8738 2fbf 21       		.uleb128 0x21
 8739 2fc0 EE000000 		.4byte	.LVL75
 8740 2fc4 F9430000 		.4byte	0x43f9
 8741 2fc8 DF2F0000 		.4byte	0x2fdf
 8742 2fcc 22       		.uleb128 0x22
 8743 2fcd 01       		.uleb128 0x1
 8744 2fce 52       		.byte	0x52
 8745 2fcf 02       		.uleb128 0x2
 8746 2fd0 7A       		.byte	0x7a
 8747 2fd1 00       		.sleb128 0
 8748 2fd2 22       		.uleb128 0x22
 8749 2fd3 01       		.uleb128 0x1
 8750 2fd4 51       		.byte	0x51
 8751 2fd5 02       		.uleb128 0x2
 8752 2fd6 78       		.byte	0x78
 8753 2fd7 00       		.sleb128 0
 8754 2fd8 22       		.uleb128 0x22
 8755 2fd9 01       		.uleb128 0x1
 8756 2fda 50       		.byte	0x50
 8757 2fdb 02       		.uleb128 0x2
 8758 2fdc 75       		.byte	0x75
 8759 2fdd 00       		.sleb128 0
 8760 2fde 00       		.byte	0
 8761 2fdf 21       		.uleb128 0x21
 8762 2fe0 06010000 		.4byte	.LVL76
 8763 2fe4 64430000 		.4byte	0x4364
 8764 2fe8 0D300000 		.4byte	0x300d
 8765 2fec 22       		.uleb128 0x22
 8766 2fed 01       		.uleb128 0x1
 8767 2fee 53       		.byte	0x53
 8768 2fef 03       		.uleb128 0x3
 8769 2ff0 0A       		.byte	0xa
 8770 2ff1 0007     		.2byte	0x700
 8771 2ff3 22       		.uleb128 0x22
 8772 2ff4 01       		.uleb128 0x1
 8773 2ff5 52       		.byte	0x52
 8774 2ff6 02       		.uleb128 0x2
 8775 2ff7 75       		.byte	0x75
 8776 2ff8 00       		.sleb128 0
 8777 2ff9 22       		.uleb128 0x22
 8778 2ffa 01       		.uleb128 0x1
 8779 2ffb 51       		.byte	0x51
 8780 2ffc 02       		.uleb128 0x2
 8781 2ffd 08       		.byte	0x8
 8782 2ffe 25       		.byte	0x25
ARM GAS  C:\Users\AHMED~1.ELE\AppData\Local\Temp\cckRh1xc.s 			page 181


 8783 2fff 22       		.uleb128 0x22
 8784 3000 01       		.uleb128 0x1
 8785 3001 50       		.byte	0x50
 8786 3002 01       		.uleb128 0x1
 8787 3003 3F       		.byte	0x3f
 8788 3004 22       		.uleb128 0x22
 8789 3005 02       		.uleb128 0x2
 8790 3006 7D       		.byte	0x7d
 8791 3007 00       		.sleb128 0
 8792 3008 03       		.uleb128 0x3
 8793 3009 0A       		.byte	0xa
 8794 300a 0010     		.2byte	0x1000
 8795 300c 00       		.byte	0
 8796 300d 24       		.uleb128 0x24
 8797 300e 0E010000 		.4byte	.LVL77
 8798 3012 70440000 		.4byte	0x4470
 8799 3016 22       		.uleb128 0x22
 8800 3017 01       		.uleb128 0x1
 8801 3018 51       		.byte	0x51
 8802 3019 02       		.uleb128 0x2
 8803 301a 75       		.byte	0x75
 8804 301b 00       		.sleb128 0
 8805 301c 22       		.uleb128 0x22
 8806 301d 01       		.uleb128 0x1
 8807 301e 50       		.byte	0x50
 8808 301f 02       		.uleb128 0x2
 8809 3020 08       		.byte	0x8
 8810 3021 94       		.byte	0x94
 8811 3022 00       		.byte	0
 8812 3023 00       		.byte	0
 8813 3024 21       		.uleb128 0x21
 8814 3025 92000000 		.4byte	.LVL64
 8815 3029 F9430000 		.4byte	0x43f9
 8816 302d 3E300000 		.4byte	0x303e
 8817 3031 22       		.uleb128 0x22
 8818 3032 01       		.uleb128 0x1
 8819 3033 52       		.byte	0x52
 8820 3034 02       		.uleb128 0x2
 8821 3035 75       		.byte	0x75
 8822 3036 00       		.sleb128 0
 8823 3037 22       		.uleb128 0x22
 8824 3038 01       		.uleb128 0x1
 8825 3039 50       		.byte	0x50
 8826 303a 02       		.uleb128 0x2
 8827 303b 78       		.byte	0x78
 8828 303c 00       		.sleb128 0
 8829 303d 00       		.byte	0
 8830 303e 24       		.uleb128 0x24
 8831 303f D0000000 		.4byte	.LVL70
 8832 3043 64430000 		.4byte	0x4364
 8833 3047 22       		.uleb128 0x22
 8834 3048 01       		.uleb128 0x1
 8835 3049 53       		.byte	0x53
 8836 304a 02       		.uleb128 0x2
 8837 304b 79       		.byte	0x79
 8838 304c 00       		.sleb128 0
 8839 304d 22       		.uleb128 0x22
ARM GAS  C:\Users\AHMED~1.ELE\AppData\Local\Temp\cckRh1xc.s 			page 182


 8840 304e 01       		.uleb128 0x1
 8841 304f 52       		.byte	0x52
 8842 3050 03       		.uleb128 0x3
 8843 3051 0A       		.byte	0xa
 8844 3052 0007     		.2byte	0x700
 8845 3054 22       		.uleb128 0x22
 8846 3055 01       		.uleb128 0x1
 8847 3056 51       		.byte	0x51
 8848 3057 02       		.uleb128 0x2
 8849 3058 08       		.byte	0x8
 8850 3059 23       		.byte	0x23
 8851 305a 22       		.uleb128 0x22
 8852 305b 01       		.uleb128 0x1
 8853 305c 50       		.byte	0x50
 8854 305d 01       		.uleb128 0x1
 8855 305e 3F       		.byte	0x3f
 8856 305f 22       		.uleb128 0x22
 8857 3060 02       		.uleb128 0x2
 8858 3061 7D       		.byte	0x7d
 8859 3062 00       		.sleb128 0
 8860 3063 02       		.uleb128 0x2
 8861 3064 79       		.byte	0x79
 8862 3065 00       		.sleb128 0
 8863 3066 00       		.byte	0
 8864 3067 00       		.byte	0
 8865 3068 00       		.byte	0
 8866 3069 23       		.uleb128 0x23
 8867 306a 42000000 		.4byte	.LVL57
 8868 306e A32B0000 		.4byte	0x2ba3
 8869 3072 23       		.uleb128 0x23
 8870 3073 4C000000 		.4byte	.LVL59
 8871 3077 AD2D0000 		.4byte	0x2dad
 8872 307b 21       		.uleb128 0x21
 8873 307c 5E000000 		.4byte	.LVL60
 8874 3080 64430000 		.4byte	0x4364
 8875 3084 A8300000 		.4byte	0x30a8
 8876 3088 22       		.uleb128 0x22
 8877 3089 01       		.uleb128 0x1
 8878 308a 53       		.byte	0x53
 8879 308b 02       		.uleb128 0x2
 8880 308c 74       		.byte	0x74
 8881 308d 00       		.sleb128 0
 8882 308e 22       		.uleb128 0x22
 8883 308f 01       		.uleb128 0x1
 8884 3090 52       		.byte	0x52
 8885 3091 03       		.uleb128 0x3
 8886 3092 0A       		.byte	0xa
 8887 3093 0003     		.2byte	0x300
 8888 3095 22       		.uleb128 0x22
 8889 3096 01       		.uleb128 0x1
 8890 3097 51       		.byte	0x51
 8891 3098 02       		.uleb128 0x2
 8892 3099 08       		.byte	0x8
 8893 309a 23       		.byte	0x23
 8894 309b 22       		.uleb128 0x22
 8895 309c 01       		.uleb128 0x1
 8896 309d 50       		.byte	0x50
ARM GAS  C:\Users\AHMED~1.ELE\AppData\Local\Temp\cckRh1xc.s 			page 183


 8897 309e 01       		.uleb128 0x1
 8898 309f 3F       		.byte	0x3f
 8899 30a0 22       		.uleb128 0x22
 8900 30a1 02       		.uleb128 0x2
 8901 30a2 7D       		.byte	0x7d
 8902 30a3 00       		.sleb128 0
 8903 30a4 02       		.uleb128 0x2
 8904 30a5 74       		.byte	0x74
 8905 30a6 00       		.sleb128 0
 8906 30a7 00       		.byte	0
 8907 30a8 21       		.uleb128 0x21
 8908 30a9 64000000 		.4byte	.LVL61
 8909 30ad 16440000 		.4byte	0x4416
 8910 30b1 BC300000 		.4byte	0x30bc
 8911 30b5 22       		.uleb128 0x22
 8912 30b6 01       		.uleb128 0x1
 8913 30b7 50       		.byte	0x50
 8914 30b8 02       		.uleb128 0x2
 8915 30b9 08       		.byte	0x8
 8916 30ba 88       		.byte	0x88
 8917 30bb 00       		.byte	0
 8918 30bc 21       		.uleb128 0x21
 8919 30bd 70000000 		.4byte	.LVL62
 8920 30c1 2B440000 		.4byte	0x442b
 8921 30c5 D8300000 		.4byte	0x30d8
 8922 30c9 22       		.uleb128 0x22
 8923 30ca 01       		.uleb128 0x1
 8924 30cb 52       		.byte	0x52
 8925 30cc 03       		.uleb128 0x3
 8926 30cd 0A       		.byte	0xa
 8927 30ce 0010     		.2byte	0x1000
 8928 30d0 22       		.uleb128 0x22
 8929 30d1 01       		.uleb128 0x1
 8930 30d2 51       		.byte	0x51
 8931 30d3 03       		.uleb128 0x3
 8932 30d4 0A       		.byte	0xa
 8933 30d5 0003     		.2byte	0x300
 8934 30d7 00       		.byte	0
 8935 30d8 24       		.uleb128 0x24
 8936 30d9 20010000 		.4byte	.LVL78
 8937 30dd 64430000 		.4byte	0x4364
 8938 30e1 22       		.uleb128 0x22
 8939 30e2 01       		.uleb128 0x1
 8940 30e3 53       		.byte	0x53
 8941 30e4 02       		.uleb128 0x2
 8942 30e5 79       		.byte	0x79
 8943 30e6 00       		.sleb128 0
 8944 30e7 22       		.uleb128 0x22
 8945 30e8 01       		.uleb128 0x1
 8946 30e9 52       		.byte	0x52
 8947 30ea 03       		.uleb128 0x3
 8948 30eb 0A       		.byte	0xa
 8949 30ec 2823     		.2byte	0x2328
 8950 30ee 22       		.uleb128 0x22
 8951 30ef 01       		.uleb128 0x1
 8952 30f0 51       		.byte	0x51
 8953 30f1 01       		.uleb128 0x1
ARM GAS  C:\Users\AHMED~1.ELE\AppData\Local\Temp\cckRh1xc.s 			page 184


 8954 30f2 33       		.byte	0x33
 8955 30f3 22       		.uleb128 0x22
 8956 30f4 01       		.uleb128 0x1
 8957 30f5 50       		.byte	0x50
 8958 30f6 01       		.uleb128 0x1
 8959 30f7 40       		.byte	0x40
 8960 30f8 22       		.uleb128 0x22
 8961 30f9 02       		.uleb128 0x2
 8962 30fa 7D       		.byte	0x7d
 8963 30fb 00       		.sleb128 0
 8964 30fc 02       		.uleb128 0x2
 8965 30fd 79       		.byte	0x79
 8966 30fe 00       		.sleb128 0
 8967 30ff 00       		.byte	0
 8968 3100 00       		.byte	0
 8969 3101 00       		.byte	0
 8970 3102 21       		.uleb128 0x21
 8971 3103 0E000000 		.4byte	.LVL55
 8972 3107 16440000 		.4byte	0x4416
 8973 310b 16310000 		.4byte	0x3116
 8974 310f 22       		.uleb128 0x22
 8975 3110 01       		.uleb128 0x1
 8976 3111 50       		.byte	0x50
 8977 3112 02       		.uleb128 0x2
 8978 3113 08       		.byte	0x8
 8979 3114 89       		.byte	0x89
 8980 3115 00       		.byte	0
 8981 3116 23       		.uleb128 0x23
 8982 3117 12000000 		.4byte	.LVL56
 8983 311b 8A440000 		.4byte	0x448a
 8984 311f 21       		.uleb128 0x21
 8985 3120 5A010000 		.4byte	.LVL83
 8986 3124 F9430000 		.4byte	0x43f9
 8987 3128 3B310000 		.4byte	0x313b
 8988 312c 22       		.uleb128 0x22
 8989 312d 01       		.uleb128 0x1
 8990 312e 52       		.byte	0x52
 8991 312f 01       		.uleb128 0x1
 8992 3130 33       		.byte	0x33
 8993 3131 22       		.uleb128 0x22
 8994 3132 01       		.uleb128 0x1
 8995 3133 51       		.byte	0x51
 8996 3134 05       		.uleb128 0x5
 8997 3135 03       		.byte	0x3
 8998 3136 00000000 		.4byte	.LC0
 8999 313a 00       		.byte	0
 9000 313b 21       		.uleb128 0x21
 9001 313c 6E010000 		.4byte	.LVL84
 9002 3140 F9430000 		.4byte	0x43f9
 9003 3144 56310000 		.4byte	0x3156
 9004 3148 22       		.uleb128 0x22
 9005 3149 01       		.uleb128 0x1
 9006 314a 52       		.byte	0x52
 9007 314b 01       		.uleb128 0x1
 9008 314c 33       		.byte	0x33
 9009 314d 22       		.uleb128 0x22
 9010 314e 01       		.uleb128 0x1
ARM GAS  C:\Users\AHMED~1.ELE\AppData\Local\Temp\cckRh1xc.s 			page 185


 9011 314f 51       		.byte	0x51
 9012 3150 04       		.uleb128 0x4
 9013 3151 74       		.byte	0x74
 9014 3152 869C7F   		.sleb128 -12794
 9015 3155 00       		.byte	0
 9016 3156 21       		.uleb128 0x21
 9017 3157 78010000 		.4byte	.LVL85
 9018 315b 16440000 		.4byte	0x4416
 9019 315f 6A310000 		.4byte	0x316a
 9020 3163 22       		.uleb128 0x22
 9021 3164 01       		.uleb128 0x1
 9022 3165 50       		.byte	0x50
 9023 3166 02       		.uleb128 0x2
 9024 3167 08       		.byte	0x8
 9025 3168 87       		.byte	0x87
 9026 3169 00       		.byte	0
 9027 316a 24       		.uleb128 0x24
 9028 316b 84010000 		.4byte	.LVL86
 9029 316f 2B440000 		.4byte	0x442b
 9030 3173 22       		.uleb128 0x22
 9031 3174 01       		.uleb128 0x1
 9032 3175 52       		.byte	0x52
 9033 3176 03       		.uleb128 0x3
 9034 3177 0A       		.byte	0xa
 9035 3178 0010     		.2byte	0x1000
 9036 317a 22       		.uleb128 0x22
 9037 317b 01       		.uleb128 0x1
 9038 317c 51       		.byte	0x51
 9039 317d 03       		.uleb128 0x3
 9040 317e 0A       		.byte	0xa
 9041 317f 0005     		.2byte	0x500
 9042 3181 00       		.byte	0
 9043 3182 00       		.byte	0
 9044 3183 28       		.uleb128 0x28
 9045 3184 B7140000 		.4byte	.LASF1062
 9046 3188 01       		.byte	0x1
 9047 3189 6501     		.2byte	0x165
 9048 318b AD000000 		.4byte	0xad
 9049 318f 00000000 		.4byte	.LFB9
 9050 3193 40000000 		.4byte	.LFE9-.LFB9
 9051 3197 01       		.uleb128 0x1
 9052 3198 9C       		.byte	0x9c
 9053 3199 E0310000 		.4byte	0x31e0
 9054 319d 2B       		.uleb128 0x2b
 9055 319e B1380000 		.4byte	.LASF1063
 9056 31a2 01       		.byte	0x1
 9057 31a3 6701     		.2byte	0x167
 9058 31a5 0C2B0000 		.4byte	0x2b0c
 9059 31a9 60030000 		.4byte	.LLST23
 9060 31ad 21       		.uleb128 0x21
 9061 31ae 16000000 		.4byte	.LVL89
 9062 31b2 9C2C0000 		.4byte	0x2c9c
 9063 31b6 C8310000 		.4byte	0x31c8
 9064 31ba 22       		.uleb128 0x22
 9065 31bb 01       		.uleb128 0x1
 9066 31bc 51       		.byte	0x51
 9067 31bd 03       		.uleb128 0x3
ARM GAS  C:\Users\AHMED~1.ELE\AppData\Local\Temp\cckRh1xc.s 			page 186


 9068 31be 0B       		.byte	0xb
 9069 31bf 119F     		.2byte	0x9f11
 9070 31c1 22       		.uleb128 0x22
 9071 31c2 01       		.uleb128 0x1
 9072 31c3 50       		.byte	0x50
 9073 31c4 02       		.uleb128 0x2
 9074 31c5 74       		.byte	0x74
 9075 31c6 00       		.sleb128 0
 9076 31c7 00       		.byte	0
 9077 31c8 24       		.uleb128 0x24
 9078 31c9 2A000000 		.4byte	.LVL91
 9079 31cd 9C2C0000 		.4byte	0x2c9c
 9080 31d1 22       		.uleb128 0x22
 9081 31d2 01       		.uleb128 0x1
 9082 31d3 51       		.byte	0x51
 9083 31d4 03       		.uleb128 0x3
 9084 31d5 0B       		.byte	0xb
 9085 31d6 129F     		.2byte	0x9f12
 9086 31d8 22       		.uleb128 0x22
 9087 31d9 01       		.uleb128 0x1
 9088 31da 50       		.byte	0x50
 9089 31db 02       		.uleb128 0x2
 9090 31dc 74       		.byte	0x74
 9091 31dd 00       		.sleb128 0
 9092 31de 00       		.byte	0
 9093 31df 00       		.byte	0
 9094 31e0 3A       		.uleb128 0x3a
 9095 31e1 543E0000 		.4byte	.LASF1065
 9096 31e5 01       		.byte	0x1
 9097 31e6 7801     		.2byte	0x178
 9098 31e8 97000000 		.4byte	0x97
 9099 31ec 01       		.byte	0x1
 9100 31ed 0A320000 		.4byte	0x320a
 9101 31f1 1E       		.uleb128 0x1e
 9102 31f2 B0050000 		.4byte	.LASF1041
 9103 31f6 01       		.byte	0x1
 9104 31f7 7A01     		.2byte	0x17a
 9105 31f9 0C2B0000 		.4byte	0x2b0c
 9106 31fd 1E       		.uleb128 0x1e
 9107 31fe 633C0000 		.4byte	.LASF1042
 9108 3202 01       		.byte	0x1
 9109 3203 7B01     		.2byte	0x17b
 9110 3205 A2000000 		.4byte	0xa2
 9111 3209 00       		.byte	0
 9112 320a 3B       		.uleb128 0x3b
 9113 320b E22A0000 		.4byte	0x2ae2
 9114 320f 00000000 		.4byte	.LFB11
 9115 3213 E4010000 		.4byte	.LFE11-.LFB11
 9116 3217 01       		.uleb128 0x1
 9117 3218 9C       		.byte	0x9c
 9118 3219 98340000 		.4byte	0x3498
 9119 321d 3C       		.uleb128 0x3c
 9120 321e F32A0000 		.4byte	0x2af3
 9121 3222 3C       		.uleb128 0x3c
 9122 3223 FF2A0000 		.4byte	0x2aff
 9123 3227 3D       		.uleb128 0x3d
 9124 3228 E0310000 		.4byte	0x31e0
ARM GAS  C:\Users\AHMED~1.ELE\AppData\Local\Temp\cckRh1xc.s 			page 187


 9125 322c 04000000 		.4byte	.LBB16
 9126 3230 6E000000 		.4byte	.LBE16-.LBB16
 9127 3234 01       		.byte	0x1
 9128 3235 A101     		.2byte	0x1a1
 9129 3237 B4320000 		.4byte	0x32b4
 9130 323b 35       		.uleb128 0x35
 9131 323c 04000000 		.4byte	.LBB17
 9132 3240 6E000000 		.4byte	.LBE17-.LBB17
 9133 3244 36       		.uleb128 0x36
 9134 3245 F1310000 		.4byte	0x31f1
 9135 3249 7E030000 		.4byte	.LLST24
 9136 324d 36       		.uleb128 0x36
 9137 324e FD310000 		.4byte	0x31fd
 9138 3252 9C030000 		.4byte	.LLST25
 9139 3256 23       		.uleb128 0x23
 9140 3257 20000000 		.4byte	.LVL94
 9141 325b A32B0000 		.4byte	0x2ba3
 9142 325f 21       		.uleb128 0x21
 9143 3260 30000000 		.4byte	.LVL95
 9144 3264 9C2C0000 		.4byte	0x2c9c
 9145 3268 73320000 		.4byte	0x3273
 9146 326c 22       		.uleb128 0x22
 9147 326d 01       		.uleb128 0x1
 9148 326e 51       		.byte	0x51
 9149 326f 02       		.uleb128 0x2
 9150 3270 08       		.byte	0x8
 9151 3271 5A       		.byte	0x5a
 9152 3272 00       		.byte	0
 9153 3273 21       		.uleb128 0x21
 9154 3274 44000000 		.4byte	.LVL98
 9155 3278 9B440000 		.4byte	0x449b
 9156 327c 8C320000 		.4byte	0x328c
 9157 3280 22       		.uleb128 0x22
 9158 3281 01       		.uleb128 0x1
 9159 3282 52       		.byte	0x52
 9160 3283 01       		.uleb128 0x1
 9161 3284 3A       		.byte	0x3a
 9162 3285 22       		.uleb128 0x22
 9163 3286 01       		.uleb128 0x1
 9164 3287 51       		.byte	0x51
 9165 3288 02       		.uleb128 0x2
 9166 3289 08       		.byte	0x8
 9167 328a FF       		.byte	0xff
 9168 328b 00       		.byte	0
 9169 328c 21       		.uleb128 0x21
 9170 328d 50000000 		.4byte	.LVL100
 9171 3291 F9430000 		.4byte	0x43f9
 9172 3295 A0320000 		.4byte	0x32a0
 9173 3299 22       		.uleb128 0x22
 9174 329a 01       		.uleb128 0x1
 9175 329b 52       		.byte	0x52
 9176 329c 02       		.uleb128 0x2
 9177 329d 75       		.byte	0x75
 9178 329e 00       		.sleb128 0
 9179 329f 00       		.byte	0
 9180 32a0 23       		.uleb128 0x23
 9181 32a1 68000000 		.4byte	.LVL101
ARM GAS  C:\Users\AHMED~1.ELE\AppData\Local\Temp\cckRh1xc.s 			page 188


 9182 32a5 BA440000 		.4byte	0x44ba
 9183 32a9 23       		.uleb128 0x23
 9184 32aa 70000000 		.4byte	.LVL103
 9185 32ae AD2D0000 		.4byte	0x2dad
 9186 32b2 00       		.byte	0
 9187 32b3 00       		.byte	0
 9188 32b4 35       		.uleb128 0x35
 9189 32b5 72000000 		.4byte	.LBB19
 9190 32b9 3E010000 		.4byte	.LBE19-.LBB19
 9191 32bd 36       		.uleb128 0x36
 9192 32be F32A0000 		.4byte	0x2af3
 9193 32c2 BA030000 		.4byte	.LLST26
 9194 32c6 36       		.uleb128 0x36
 9195 32c7 FF2A0000 		.4byte	0x2aff
 9196 32cb 0F040000 		.4byte	.LLST27
 9197 32cf 21       		.uleb128 0x21
 9198 32d0 84000000 		.4byte	.LVL106
 9199 32d4 D52C0000 		.4byte	0x2cd5
 9200 32d8 EA320000 		.4byte	0x32ea
 9201 32dc 22       		.uleb128 0x22
 9202 32dd 01       		.uleb128 0x1
 9203 32de 51       		.byte	0x51
 9204 32df 03       		.uleb128 0x3
 9205 32e0 0A       		.byte	0xa
 9206 32e1 245F     		.2byte	0x5f24
 9207 32e3 22       		.uleb128 0x22
 9208 32e4 01       		.uleb128 0x1
 9209 32e5 50       		.byte	0x50
 9210 32e6 02       		.uleb128 0x2
 9211 32e7 75       		.byte	0x75
 9212 32e8 00       		.sleb128 0
 9213 32e9 00       		.byte	0
 9214 32ea 21       		.uleb128 0x21
 9215 32eb 90000000 		.4byte	.LVL107
 9216 32ef F9430000 		.4byte	0x43f9
 9217 32f3 03330000 		.4byte	0x3303
 9218 32f7 22       		.uleb128 0x22
 9219 32f8 01       		.uleb128 0x1
 9220 32f9 52       		.byte	0x52
 9221 32fa 01       		.uleb128 0x1
 9222 32fb 32       		.byte	0x32
 9223 32fc 22       		.uleb128 0x22
 9224 32fd 01       		.uleb128 0x1
 9225 32fe 50       		.byte	0x50
 9226 32ff 02       		.uleb128 0x2
 9227 3300 74       		.byte	0x74
 9228 3301 13       		.sleb128 19
 9229 3302 00       		.byte	0
 9230 3303 21       		.uleb128 0x21
 9231 3304 9A000000 		.4byte	.LVL108
 9232 3308 9C2C0000 		.4byte	0x2c9c
 9233 330c 1E330000 		.4byte	0x331e
 9234 3310 22       		.uleb128 0x22
 9235 3311 01       		.uleb128 0x1
 9236 3312 51       		.byte	0x51
 9237 3313 03       		.uleb128 0x3
 9238 3314 0A       		.byte	0xa
ARM GAS  C:\Users\AHMED~1.ELE\AppData\Local\Temp\cckRh1xc.s 			page 189


 9239 3315 205F     		.2byte	0x5f20
 9240 3317 22       		.uleb128 0x22
 9241 3318 01       		.uleb128 0x1
 9242 3319 50       		.byte	0x50
 9243 331a 02       		.uleb128 0x2
 9244 331b 75       		.byte	0x75
 9245 331c 00       		.sleb128 0
 9246 331d 00       		.byte	0
 9247 331e 21       		.uleb128 0x21
 9248 331f B0000000 		.4byte	.LVL112
 9249 3323 F9430000 		.4byte	0x43f9
 9250 3327 32330000 		.4byte	0x3332
 9251 332b 22       		.uleb128 0x22
 9252 332c 01       		.uleb128 0x1
 9253 332d 50       		.byte	0x50
 9254 332e 02       		.uleb128 0x2
 9255 332f 74       		.byte	0x74
 9256 3330 35       		.sleb128 53
 9257 3331 00       		.byte	0
 9258 3332 21       		.uleb128 0x21
 9259 3333 BE000000 		.4byte	.LVL113
 9260 3337 9C2C0000 		.4byte	0x2c9c
 9261 333b 4C330000 		.4byte	0x334c
 9262 333f 22       		.uleb128 0x22
 9263 3340 01       		.uleb128 0x1
 9264 3341 51       		.byte	0x51
 9265 3342 02       		.uleb128 0x2
 9266 3343 08       		.byte	0x8
 9267 3344 57       		.byte	0x57
 9268 3345 22       		.uleb128 0x22
 9269 3346 01       		.uleb128 0x1
 9270 3347 50       		.byte	0x50
 9271 3348 02       		.uleb128 0x2
 9272 3349 75       		.byte	0x75
 9273 334a 00       		.sleb128 0
 9274 334b 00       		.byte	0
 9275 334c 21       		.uleb128 0x21
 9276 334d D2000000 		.4byte	.LVL116
 9277 3351 C5440000 		.4byte	0x44c5
 9278 3355 60330000 		.4byte	0x3360
 9279 3359 22       		.uleb128 0x22
 9280 335a 01       		.uleb128 0x1
 9281 335b 52       		.byte	0x52
 9282 335c 02       		.uleb128 0x2
 9283 335d 75       		.byte	0x75
 9284 335e 00       		.sleb128 0
 9285 335f 00       		.byte	0
 9286 3360 21       		.uleb128 0x21
 9287 3361 E0000000 		.4byte	.LVL117
 9288 3365 E0440000 		.4byte	0x44e0
 9289 3369 7F330000 		.4byte	0x337f
 9290 336d 22       		.uleb128 0x22
 9291 336e 01       		.uleb128 0x1
 9292 336f 52       		.byte	0x52
 9293 3370 07       		.uleb128 0x7
 9294 3371 75       		.byte	0x75
 9295 3372 00       		.sleb128 0
ARM GAS  C:\Users\AHMED~1.ELE\AppData\Local\Temp\cckRh1xc.s 			page 190


 9296 3373 31       		.byte	0x31
 9297 3374 24       		.byte	0x24
 9298 3375 08       		.byte	0x8
 9299 3376 FE       		.byte	0xfe
 9300 3377 1A       		.byte	0x1a
 9301 3378 22       		.uleb128 0x22
 9302 3379 01       		.uleb128 0x1
 9303 337a 51       		.byte	0x51
 9304 337b 02       		.uleb128 0x2
 9305 337c 08       		.byte	0x8
 9306 337d 46       		.byte	0x46
 9307 337e 00       		.byte	0
 9308 337f 21       		.uleb128 0x21
 9309 3380 0C010000 		.4byte	.LVL119
 9310 3384 9B440000 		.4byte	0x449b
 9311 3388 98330000 		.4byte	0x3398
 9312 338c 22       		.uleb128 0x22
 9313 338d 01       		.uleb128 0x1
 9314 338e 52       		.byte	0x52
 9315 338f 01       		.uleb128 0x1
 9316 3390 40       		.byte	0x40
 9317 3391 22       		.uleb128 0x22
 9318 3392 01       		.uleb128 0x1
 9319 3393 51       		.byte	0x51
 9320 3394 02       		.uleb128 0x2
 9321 3395 08       		.byte	0x8
 9322 3396 20       		.byte	0x20
 9323 3397 00       		.byte	0
 9324 3398 23       		.uleb128 0x23
 9325 3399 12010000 		.4byte	.LVL120
 9326 339d 83310000 		.4byte	0x3183
 9327 33a1 21       		.uleb128 0x21
 9328 33a2 20010000 		.4byte	.LVL121
 9329 33a6 9C2C0000 		.4byte	0x2c9c
 9330 33aa B5330000 		.4byte	0x33b5
 9331 33ae 22       		.uleb128 0x22
 9332 33af 01       		.uleb128 0x1
 9333 33b0 50       		.byte	0x50
 9334 33b1 02       		.uleb128 0x2
 9335 33b2 75       		.byte	0x75
 9336 33b3 00       		.sleb128 0
 9337 33b4 00       		.byte	0
 9338 33b5 23       		.uleb128 0x23
 9339 33b6 34010000 		.4byte	.LVL125
 9340 33ba F9430000 		.4byte	0x43f9
 9341 33be 21       		.uleb128 0x21
 9342 33bf 3E010000 		.4byte	.LVL126
 9343 33c3 9C2C0000 		.4byte	0x2c9c
 9344 33c7 D9330000 		.4byte	0x33d9
 9345 33cb 22       		.uleb128 0x22
 9346 33cc 01       		.uleb128 0x1
 9347 33cd 51       		.byte	0x51
 9348 33ce 03       		.uleb128 0x3
 9349 33cf 0B       		.byte	0xb
 9350 33d0 069F     		.2byte	0x9f06
 9351 33d2 22       		.uleb128 0x22
 9352 33d3 01       		.uleb128 0x1
ARM GAS  C:\Users\AHMED~1.ELE\AppData\Local\Temp\cckRh1xc.s 			page 191


 9353 33d4 50       		.byte	0x50
 9354 33d5 02       		.uleb128 0x2
 9355 33d6 75       		.byte	0x75
 9356 33d7 00       		.sleb128 0
 9357 33d8 00       		.byte	0
 9358 33d9 21       		.uleb128 0x21
 9359 33da 4C010000 		.4byte	.LVL128
 9360 33de FF440000 		.4byte	0x44ff
 9361 33e2 FB330000 		.4byte	0x33fb
 9362 33e6 22       		.uleb128 0x22
 9363 33e7 01       		.uleb128 0x1
 9364 33e8 52       		.byte	0x52
 9365 33e9 01       		.uleb128 0x1
 9366 33ea 37       		.byte	0x37
 9367 33eb 22       		.uleb128 0x22
 9368 33ec 01       		.uleb128 0x1
 9369 33ed 51       		.byte	0x51
 9370 33ee 05       		.uleb128 0x5
 9371 33ef 03       		.byte	0x3
 9372 33f0 00000000 		.4byte	.LANCHOR0
 9373 33f4 22       		.uleb128 0x22
 9374 33f5 01       		.uleb128 0x1
 9375 33f6 50       		.byte	0x50
 9376 33f7 02       		.uleb128 0x2
 9377 33f8 75       		.byte	0x75
 9378 33f9 00       		.sleb128 0
 9379 33fa 00       		.byte	0
 9380 33fb 21       		.uleb128 0x21
 9381 33fc 58010000 		.4byte	.LVL129
 9382 3400 FF440000 		.4byte	0x44ff
 9383 3404 1D340000 		.4byte	0x341d
 9384 3408 22       		.uleb128 0x22
 9385 3409 01       		.uleb128 0x1
 9386 340a 52       		.byte	0x52
 9387 340b 01       		.uleb128 0x1
 9388 340c 37       		.byte	0x37
 9389 340d 22       		.uleb128 0x22
 9390 340e 01       		.uleb128 0x1
 9391 340f 51       		.byte	0x51
 9392 3410 05       		.uleb128 0x5
 9393 3411 03       		.byte	0x3
 9394 3412 08000000 		.4byte	.LANCHOR0+8
 9395 3416 22       		.uleb128 0x22
 9396 3417 01       		.uleb128 0x1
 9397 3418 50       		.byte	0x50
 9398 3419 02       		.uleb128 0x2
 9399 341a 75       		.byte	0x75
 9400 341b 00       		.sleb128 0
 9401 341c 00       		.byte	0
 9402 341d 23       		.uleb128 0x23
 9403 341e 64010000 		.4byte	.LVL130
 9404 3422 1E450000 		.4byte	0x451e
 9405 3426 21       		.uleb128 0x21
 9406 3427 74010000 		.4byte	.LVL131
 9407 342b D52C0000 		.4byte	0x2cd5
 9408 342f 40340000 		.4byte	0x3440
 9409 3433 22       		.uleb128 0x22
ARM GAS  C:\Users\AHMED~1.ELE\AppData\Local\Temp\cckRh1xc.s 			page 192


 9410 3434 01       		.uleb128 0x1
 9411 3435 51       		.byte	0x51
 9412 3436 02       		.uleb128 0x2
 9413 3437 08       		.byte	0x8
 9414 3438 9A       		.byte	0x9a
 9415 3439 22       		.uleb128 0x22
 9416 343a 01       		.uleb128 0x1
 9417 343b 50       		.byte	0x50
 9418 343c 02       		.uleb128 0x2
 9419 343d 75       		.byte	0x75
 9420 343e 00       		.sleb128 0
 9421 343f 00       		.byte	0
 9422 3440 21       		.uleb128 0x21
 9423 3441 7E010000 		.4byte	.LVL132
 9424 3445 F9430000 		.4byte	0x43f9
 9425 3449 53340000 		.4byte	0x3453
 9426 344d 22       		.uleb128 0x22
 9427 344e 01       		.uleb128 0x1
 9428 344f 52       		.byte	0x52
 9429 3450 01       		.uleb128 0x1
 9430 3451 33       		.byte	0x33
 9431 3452 00       		.byte	0
 9432 3453 21       		.uleb128 0x21
 9433 3454 88010000 		.4byte	.LVL133
 9434 3458 D52C0000 		.4byte	0x2cd5
 9435 345c 6E340000 		.4byte	0x346e
 9436 3460 22       		.uleb128 0x22
 9437 3461 01       		.uleb128 0x1
 9438 3462 51       		.byte	0x51
 9439 3463 03       		.uleb128 0x3
 9440 3464 0B       		.byte	0xb
 9441 3465 219F     		.2byte	0x9f21
 9442 3467 22       		.uleb128 0x22
 9443 3468 01       		.uleb128 0x1
 9444 3469 50       		.byte	0x50
 9445 346a 02       		.uleb128 0x2
 9446 346b 75       		.byte	0x75
 9447 346c 00       		.sleb128 0
 9448 346d 00       		.byte	0
 9449 346e 21       		.uleb128 0x21
 9450 346f 92010000 		.4byte	.LVL134
 9451 3473 F9430000 		.4byte	0x43f9
 9452 3477 81340000 		.4byte	0x3481
 9453 347b 22       		.uleb128 0x22
 9454 347c 01       		.uleb128 0x1
 9455 347d 52       		.byte	0x52
 9456 347e 01       		.uleb128 0x1
 9457 347f 33       		.byte	0x33
 9458 3480 00       		.byte	0
 9459 3481 24       		.uleb128 0x24
 9460 3482 9C010000 		.4byte	.LVL135
 9461 3486 9B440000 		.4byte	0x449b
 9462 348a 22       		.uleb128 0x22
 9463 348b 01       		.uleb128 0x1
 9464 348c 52       		.byte	0x52
 9465 348d 01       		.uleb128 0x1
 9466 348e 36       		.byte	0x36
ARM GAS  C:\Users\AHMED~1.ELE\AppData\Local\Temp\cckRh1xc.s 			page 193


 9467 348f 22       		.uleb128 0x22
 9468 3490 01       		.uleb128 0x1
 9469 3491 51       		.byte	0x51
 9470 3492 02       		.uleb128 0x2
 9471 3493 08       		.byte	0x8
 9472 3494 20       		.byte	0x20
 9473 3495 00       		.byte	0
 9474 3496 00       		.byte	0
 9475 3497 00       		.byte	0
 9476 3498 2C       		.uleb128 0x2c
 9477 3499 530B0000 		.4byte	.LASF1067
 9478 349d 01       		.byte	0x1
 9479 349e EE01     		.2byte	0x1ee
 9480 34a0 00000000 		.4byte	.LFB13
 9481 34a4 20000000 		.4byte	.LFE13-.LFB13
 9482 34a8 01       		.uleb128 0x1
 9483 34a9 9C       		.byte	0x9c
 9484 34aa E8340000 		.4byte	0x34e8
 9485 34ae 20       		.uleb128 0x20
 9486 34af 5F310000 		.4byte	.LASF1068
 9487 34b3 01       		.byte	0x1
 9488 34b4 EE01     		.2byte	0x1ee
 9489 34b6 E8340000 		.4byte	0x34e8
 9490 34ba 9A040000 		.4byte	.LLST28
 9491 34be 2A       		.uleb128 0x2a
 9492 34bf 70747200 		.ascii	"ptr\000"
 9493 34c3 01       		.byte	0x1
 9494 34c4 F001     		.2byte	0x1f0
 9495 34c6 E9000000 		.4byte	0xe9
 9496 34ca C6040000 		.4byte	.LLST29
 9497 34ce 24       		.uleb128 0x24
 9498 34cf 14000000 		.4byte	.LVL138
 9499 34d3 0E2D0000 		.4byte	0x2d0e
 9500 34d7 22       		.uleb128 0x22
 9501 34d8 01       		.uleb128 0x1
 9502 34d9 51       		.byte	0x51
 9503 34da 05       		.uleb128 0x5
 9504 34db 03       		.byte	0x3
 9505 34dc 10000000 		.4byte	.LANCHOR0+16
 9506 34e0 22       		.uleb128 0x22
 9507 34e1 01       		.uleb128 0x1
 9508 34e2 50       		.byte	0x50
 9509 34e3 02       		.uleb128 0x2
 9510 34e4 74       		.byte	0x74
 9511 34e5 00       		.sleb128 0
 9512 34e6 00       		.byte	0
 9513 34e7 00       		.byte	0
 9514 34e8 06       		.uleb128 0x6
 9515 34e9 04       		.byte	0x4
 9516 34ea 491F0000 		.4byte	0x1f49
 9517 34ee 2C       		.uleb128 0x2c
 9518 34ef 393A0000 		.4byte	.LASF1069
 9519 34f3 01       		.byte	0x1
 9520 34f4 2503     		.2byte	0x325
 9521 34f6 00000000 		.4byte	.LFB20
 9522 34fa 78000000 		.4byte	.LFE20-.LFB20
 9523 34fe 01       		.uleb128 0x1
ARM GAS  C:\Users\AHMED~1.ELE\AppData\Local\Temp\cckRh1xc.s 			page 194


 9524 34ff 9C       		.byte	0x9c
 9525 3500 0A360000 		.4byte	0x360a
 9526 3504 20       		.uleb128 0x20
 9527 3505 00390000 		.4byte	.LASF1070
 9528 3509 01       		.byte	0x1
 9529 350a 2503     		.2byte	0x325
 9530 350c A2000000 		.4byte	0xa2
 9531 3510 D9040000 		.4byte	.LLST30
 9532 3514 3E       		.uleb128 0x3e
 9533 3515 61496E00 		.ascii	"aIn\000"
 9534 3519 01       		.byte	0x1
 9535 351a 2503     		.2byte	0x325
 9536 351c A2000000 		.4byte	0xa2
 9537 3520 FA040000 		.4byte	.LLST31
 9538 3524 20       		.uleb128 0x20
 9539 3525 4F3E0000 		.4byte	.LASF1071
 9540 3529 01       		.byte	0x1
 9541 352a 2503     		.2byte	0x325
 9542 352c 0A360000 		.4byte	0x360a
 9543 3530 1B050000 		.4byte	.LLST32
 9544 3534 3F       		.uleb128 0x3f
 9545 3535 62756600 		.ascii	"buf\000"
 9546 3539 01       		.byte	0x1
 9547 353a 2703     		.2byte	0x327
 9548 353c CB160000 		.4byte	0x16cb
 9549 3540 02       		.uleb128 0x2
 9550 3541 91       		.byte	0x91
 9551 3542 50       		.sleb128 -48
 9552 3543 2A       		.uleb128 0x2a
 9553 3544 6900     		.ascii	"i\000"
 9554 3546 01       		.byte	0x1
 9555 3547 2803     		.2byte	0x328
 9556 3549 AD000000 		.4byte	0xad
 9557 354d 47050000 		.4byte	.LLST33
 9558 3551 21       		.uleb128 0x21
 9559 3552 10000000 		.4byte	.LVL143
 9560 3556 25450000 		.4byte	0x4525
 9561 355a 64350000 		.4byte	0x3564
 9562 355e 22       		.uleb128 0x22
 9563 355f 01       		.uleb128 0x1
 9564 3560 50       		.byte	0x50
 9565 3561 01       		.uleb128 0x1
 9566 3562 30       		.byte	0x30
 9567 3563 00       		.byte	0
 9568 3564 21       		.uleb128 0x21
 9569 3565 16000000 		.4byte	.LVL144
 9570 3569 3A450000 		.4byte	0x453a
 9571 356d 7B350000 		.4byte	0x357b
 9572 3571 22       		.uleb128 0x22
 9573 3572 01       		.uleb128 0x1
 9574 3573 50       		.byte	0x50
 9575 3574 05       		.uleb128 0x5
 9576 3575 03       		.byte	0x3
 9577 3576 0B000000 		.4byte	.LC5
 9578 357a 00       		.byte	0
 9579 357b 21       		.uleb128 0x21
 9580 357c 2A000000 		.4byte	.LVL145
ARM GAS  C:\Users\AHMED~1.ELE\AppData\Local\Temp\cckRh1xc.s 			page 195


 9581 3580 4F450000 		.4byte	0x454f
 9582 3584 AC350000 		.4byte	0x35ac
 9583 3588 22       		.uleb128 0x22
 9584 3589 01       		.uleb128 0x1
 9585 358a 53       		.byte	0x53
 9586 358b 10       		.uleb128 0x10
 9587 358c 03       		.byte	0x3
 9588 358d 04000000 		.4byte	.LC3
 9589 3591 74       		.byte	0x74
 9590 3592 00       		.sleb128 0
 9591 3593 76       		.byte	0x76
 9592 3594 00       		.sleb128 0
 9593 3595 30       		.byte	0x30
 9594 3596 2E       		.byte	0x2e
 9595 3597 28       		.byte	0x28
 9596 3598 0100     		.2byte	0x1
 9597 359a 16       		.byte	0x16
 9598 359b 13       		.byte	0x13
 9599 359c 22       		.uleb128 0x22
 9600 359d 01       		.uleb128 0x1
 9601 359e 51       		.byte	0x51
 9602 359f 05       		.uleb128 0x5
 9603 35a0 03       		.byte	0x3
 9604 35a1 10000000 		.4byte	.LC6
 9605 35a5 22       		.uleb128 0x22
 9606 35a6 01       		.uleb128 0x1
 9607 35a7 50       		.byte	0x50
 9608 35a8 02       		.uleb128 0x2
 9609 35a9 7D       		.byte	0x7d
 9610 35aa 00       		.sleb128 0
 9611 35ab 00       		.byte	0
 9612 35ac 21       		.uleb128 0x21
 9613 35ad 30000000 		.4byte	.LVL146
 9614 35b1 3A450000 		.4byte	0x453a
 9615 35b5 C0350000 		.4byte	0x35c0
 9616 35b9 22       		.uleb128 0x22
 9617 35ba 01       		.uleb128 0x1
 9618 35bb 50       		.byte	0x50
 9619 35bc 02       		.uleb128 0x2
 9620 35bd 7D       		.byte	0x7d
 9621 35be 00       		.sleb128 0
 9622 35bf 00       		.byte	0
 9623 35c0 21       		.uleb128 0x21
 9624 35c1 4A000000 		.4byte	.LVL149
 9625 35c5 4F450000 		.4byte	0x454f
 9626 35c9 DD350000 		.4byte	0x35dd
 9627 35cd 22       		.uleb128 0x22
 9628 35ce 01       		.uleb128 0x1
 9629 35cf 51       		.byte	0x51
 9630 35d0 05       		.uleb128 0x5
 9631 35d1 03       		.byte	0x3
 9632 35d2 1F000000 		.4byte	.LC7
 9633 35d6 22       		.uleb128 0x22
 9634 35d7 01       		.uleb128 0x1
 9635 35d8 50       		.byte	0x50
 9636 35d9 02       		.uleb128 0x2
 9637 35da 7D       		.byte	0x7d
ARM GAS  C:\Users\AHMED~1.ELE\AppData\Local\Temp\cckRh1xc.s 			page 196


 9638 35db 00       		.sleb128 0
 9639 35dc 00       		.byte	0
 9640 35dd 21       		.uleb128 0x21
 9641 35de 52000000 		.4byte	.LVL150
 9642 35e2 6A450000 		.4byte	0x456a
 9643 35e6 F6350000 		.4byte	0x35f6
 9644 35ea 22       		.uleb128 0x22
 9645 35eb 01       		.uleb128 0x1
 9646 35ec 51       		.byte	0x51
 9647 35ed 01       		.uleb128 0x1
 9648 35ee 33       		.byte	0x33
 9649 35ef 22       		.uleb128 0x22
 9650 35f0 01       		.uleb128 0x1
 9651 35f1 50       		.byte	0x50
 9652 35f2 02       		.uleb128 0x2
 9653 35f3 7D       		.byte	0x7d
 9654 35f4 00       		.sleb128 0
 9655 35f5 00       		.byte	0
 9656 35f6 24       		.uleb128 0x24
 9657 35f7 5C000000 		.4byte	.LVL152
 9658 35fb 3A450000 		.4byte	0x453a
 9659 35ff 22       		.uleb128 0x22
 9660 3600 01       		.uleb128 0x1
 9661 3601 50       		.byte	0x50
 9662 3602 05       		.uleb128 0x5
 9663 3603 03       		.byte	0x3
 9664 3604 25000000 		.4byte	.LC8
 9665 3608 00       		.byte	0
 9666 3609 00       		.byte	0
 9667 360a 06       		.uleb128 0x6
 9668 360b 04       		.byte	0x4
 9669 360c 891E0000 		.4byte	0x1e89
 9670 3610 28       		.uleb128 0x28
 9671 3611 9F360000 		.4byte	.LASF1072
 9672 3615 01       		.byte	0x1
 9673 3616 3D03     		.2byte	0x33d
 9674 3618 A2000000 		.4byte	0xa2
 9675 361c 00000000 		.4byte	.LFB21
 9676 3620 1C000000 		.4byte	.LFE21-.LFB21
 9677 3624 01       		.uleb128 0x1
 9678 3625 9C       		.byte	0x9c
 9679 3626 39360000 		.4byte	0x3639
 9680 362a 40       		.uleb128 0x40
 9681 362b 3C330000 		.4byte	.LASF1073
 9682 362f 01       		.byte	0x1
 9683 3630 3F03     		.2byte	0x33f
 9684 3632 A2000000 		.4byte	0xa2
 9685 3636 01       		.uleb128 0x1
 9686 3637 50       		.byte	0x50
 9687 3638 00       		.byte	0
 9688 3639 3A       		.uleb128 0x3a
 9689 363a CF020000 		.4byte	.LASF1074
 9690 363e 01       		.byte	0x1
 9691 363f D002     		.2byte	0x2d0
 9692 3641 A2000000 		.4byte	0xa2
 9693 3645 01       		.byte	0x1
 9694 3646 57360000 		.4byte	0x3657
ARM GAS  C:\Users\AHMED~1.ELE\AppData\Local\Temp\cckRh1xc.s 			page 197


 9695 364a 41       		.uleb128 0x41
 9696 364b 2F440000 		.4byte	.LASF1043
 9697 364f 01       		.byte	0x1
 9698 3650 D002     		.2byte	0x2d0
 9699 3652 A2000000 		.4byte	0xa2
 9700 3656 00       		.byte	0
 9701 3657 42       		.uleb128 0x42
 9702 3658 70050000 		.4byte	.LASF1164
 9703 365c 01       		.byte	0x1
 9704 365d 0203     		.2byte	0x302
 9705 365f 01       		.byte	0x1
 9706 3660 3A       		.uleb128 0x3a
 9707 3661 FA240000 		.4byte	.LASF1075
 9708 3665 01       		.byte	0x1
 9709 3666 3802     		.2byte	0x238
 9710 3668 97000000 		.4byte	0x97
 9711 366c 01       		.byte	0x1
 9712 366d 98360000 		.4byte	0x3698
 9713 3671 1E       		.uleb128 0x1e
 9714 3672 021C0000 		.4byte	.LASF1076
 9715 3676 01       		.byte	0x1
 9716 3677 3A02     		.2byte	0x23a
 9717 3679 C42E0000 		.4byte	0x2ec4
 9718 367d 33       		.uleb128 0x33
 9719 367e 43       		.uleb128 0x43
 9720 367f 6C656E00 		.ascii	"len\000"
 9721 3683 01       		.byte	0x1
 9722 3684 3F02     		.2byte	0x23f
 9723 3686 B8000000 		.4byte	0xb8
 9724 368a 43       		.uleb128 0x43
 9725 368b 70747200 		.ascii	"ptr\000"
 9726 368f 01       		.byte	0x1
 9727 3690 3F02     		.2byte	0x23f
 9728 3692 E9000000 		.4byte	0xe9
 9729 3696 00       		.byte	0
 9730 3697 00       		.byte	0
 9731 3698 44       		.uleb128 0x44
 9732 3699 38310000 		.4byte	.LASF1078
 9733 369d 01       		.byte	0x1
 9734 369e 5F02     		.2byte	0x25f
 9735 36a0 01       		.byte	0x1
 9736 36a1 D6360000 		.4byte	0x36d6
 9737 36a5 41       		.uleb128 0x41
 9738 36a6 973D0000 		.4byte	.LASF1079
 9739 36aa 01       		.byte	0x1
 9740 36ab 5F02     		.2byte	0x25f
 9741 36ad 97000000 		.4byte	0x97
 9742 36b1 1E       		.uleb128 0x1e
 9743 36b2 D1330000 		.4byte	.LASF1080
 9744 36b6 01       		.byte	0x1
 9745 36b7 6102     		.2byte	0x261
 9746 36b9 E9000000 		.4byte	0xe9
 9747 36bd 1E       		.uleb128 0x1e
 9748 36be B0050000 		.4byte	.LASF1041
 9749 36c2 01       		.byte	0x1
 9750 36c3 6202     		.2byte	0x262
 9751 36c5 0C2B0000 		.4byte	0x2b0c
ARM GAS  C:\Users\AHMED~1.ELE\AppData\Local\Temp\cckRh1xc.s 			page 198


 9752 36c9 43       		.uleb128 0x43
 9753 36ca 70747200 		.ascii	"ptr\000"
 9754 36ce 01       		.byte	0x1
 9755 36cf 6302     		.2byte	0x263
 9756 36d1 E9000000 		.4byte	0xe9
 9757 36d5 00       		.byte	0
 9758 36d6 45       		.uleb128 0x45
 9759 36d7 CD390000 		.4byte	.LASF1165
 9760 36db 01       		.byte	0x1
 9761 36dc D901     		.2byte	0x1d9
 9762 36de 97000000 		.4byte	0x97
 9763 36e2 01       		.byte	0x1
 9764 36e3 3A       		.uleb128 0x3a
 9765 36e4 091C0000 		.4byte	.LASF1081
 9766 36e8 01       		.byte	0x1
 9767 36e9 FE01     		.2byte	0x1fe
 9768 36eb 97000000 		.4byte	0x97
 9769 36ef 01       		.byte	0x1
 9770 36f0 01370000 		.4byte	0x3701
 9771 36f4 1E       		.uleb128 0x1e
 9772 36f5 813D0000 		.4byte	.LASF1082
 9773 36f9 01       		.byte	0x1
 9774 36fa 0002     		.2byte	0x200
 9775 36fc EF000000 		.4byte	0xef
 9776 3700 00       		.byte	0
 9777 3701 28       		.uleb128 0x28
 9778 3702 BF2D0000 		.4byte	.LASF1083
 9779 3706 01       		.byte	0x1
 9780 3707 5203     		.2byte	0x352
 9781 3709 A2000000 		.4byte	0xa2
 9782 370d 00000000 		.4byte	.LFB22
 9783 3711 FC080000 		.4byte	.LFE22-.LFB22
 9784 3715 01       		.uleb128 0x1
 9785 3716 9C       		.byte	0x9c
 9786 3717 F5400000 		.4byte	0x40f5
 9787 371b 2B       		.uleb128 0x2b
 9788 371c 73010000 		.4byte	.LASF1084
 9789 3720 01       		.byte	0x1
 9790 3721 5403     		.2byte	0x354
 9791 3723 A2000000 		.4byte	0xa2
 9792 3727 71050000 		.4byte	.LLST34
 9793 372b 3F       		.uleb128 0x3f
 9794 372c 746D7000 		.ascii	"tmp\000"
 9795 3730 01       		.byte	0x1
 9796 3731 5503     		.2byte	0x355
 9797 3733 FF000000 		.4byte	0xff
 9798 3737 03       		.uleb128 0x3
 9799 3738 91       		.byte	0x91
 9800 3739 B07F     		.sleb128 -80
 9801 373b 2B       		.uleb128 0x2b
 9802 373c C2230000 		.4byte	.LASF1085
 9803 3740 01       		.byte	0x1
 9804 3741 5603     		.2byte	0x356
 9805 3743 97000000 		.4byte	0x97
 9806 3747 A6050000 		.4byte	.LLST35
 9807 374b 40       		.uleb128 0x40
 9808 374c A4290000 		.4byte	.LASF1086
ARM GAS  C:\Users\AHMED~1.ELE\AppData\Local\Temp\cckRh1xc.s 			page 199


 9809 3750 01       		.byte	0x1
 9810 3751 5703     		.2byte	0x357
 9811 3753 C3000000 		.4byte	0xc3
 9812 3757 03       		.uleb128 0x3
 9813 3758 91       		.byte	0x91
 9814 3759 A87F     		.sleb128 -88
 9815 375b 3D       		.uleb128 0x3d
 9816 375c 39360000 		.4byte	0x3639
 9817 3760 7E000000 		.4byte	.LBB33
 9818 3764 B6000000 		.4byte	.LBE33-.LBB33
 9819 3768 01       		.byte	0x1
 9820 3769 6C03     		.2byte	0x36c
 9821 376b 0B380000 		.4byte	0x380b
 9822 376f 37       		.uleb128 0x37
 9823 3770 4A360000 		.4byte	0x364a
 9824 3774 D4050000 		.4byte	.LLST36
 9825 3778 23       		.uleb128 0x23
 9826 3779 82000000 		.4byte	.LVL161
 9827 377d 84450000 		.4byte	0x4584
 9828 3781 21       		.uleb128 0x21
 9829 3782 C4000000 		.4byte	.LVL162
 9830 3786 64430000 		.4byte	0x4364
 9831 378a AC370000 		.4byte	0x37ac
 9832 378e 22       		.uleb128 0x22
 9833 378f 01       		.uleb128 0x1
 9834 3790 53       		.byte	0x53
 9835 3791 01       		.uleb128 0x1
 9836 3792 30       		.byte	0x30
 9837 3793 22       		.uleb128 0x22
 9838 3794 01       		.uleb128 0x1
 9839 3795 52       		.byte	0x52
 9840 3796 03       		.uleb128 0x3
 9841 3797 0A       		.byte	0xa
 9842 3798 0003     		.2byte	0x300
 9843 379a 22       		.uleb128 0x22
 9844 379b 01       		.uleb128 0x1
 9845 379c 51       		.byte	0x51
 9846 379d 02       		.uleb128 0x2
 9847 379e 08       		.byte	0x8
 9848 379f 23       		.byte	0x23
 9849 37a0 22       		.uleb128 0x22
 9850 37a1 01       		.uleb128 0x1
 9851 37a2 50       		.byte	0x50
 9852 37a3 01       		.uleb128 0x1
 9853 37a4 3F       		.byte	0x3f
 9854 37a5 22       		.uleb128 0x22
 9855 37a6 02       		.uleb128 0x2
 9856 37a7 7D       		.byte	0x7d
 9857 37a8 00       		.sleb128 0
 9858 37a9 01       		.uleb128 0x1
 9859 37aa 30       		.byte	0x30
 9860 37ab 00       		.byte	0
 9861 37ac 21       		.uleb128 0x21
 9862 37ad FE000000 		.4byte	.LVL163
 9863 37b1 64430000 		.4byte	0x4364
 9864 37b5 CF370000 		.4byte	0x37cf
 9865 37b9 22       		.uleb128 0x22
ARM GAS  C:\Users\AHMED~1.ELE\AppData\Local\Temp\cckRh1xc.s 			page 200


 9866 37ba 01       		.uleb128 0x1
 9867 37bb 53       		.byte	0x53
 9868 37bc 01       		.uleb128 0x1
 9869 37bd 34       		.byte	0x34
 9870 37be 22       		.uleb128 0x22
 9871 37bf 01       		.uleb128 0x1
 9872 37c0 51       		.byte	0x51
 9873 37c1 01       		.uleb128 0x1
 9874 37c2 37       		.byte	0x37
 9875 37c3 22       		.uleb128 0x22
 9876 37c4 01       		.uleb128 0x1
 9877 37c5 50       		.byte	0x50
 9878 37c6 01       		.uleb128 0x1
 9879 37c7 3F       		.byte	0x3f
 9880 37c8 22       		.uleb128 0x22
 9881 37c9 02       		.uleb128 0x2
 9882 37ca 7D       		.byte	0x7d
 9883 37cb 00       		.sleb128 0
 9884 37cc 01       		.uleb128 0x1
 9885 37cd 30       		.byte	0x30
 9886 37ce 00       		.byte	0
 9887 37cf 23       		.uleb128 0x23
 9888 37d0 02010000 		.4byte	.LVL164
 9889 37d4 8D430000 		.4byte	0x438d
 9890 37d8 21       		.uleb128 0x21
 9891 37d9 1E010000 		.4byte	.LVL165
 9892 37dd 94430000 		.4byte	0x4394
 9893 37e1 EB370000 		.4byte	0x37eb
 9894 37e5 22       		.uleb128 0x22
 9895 37e6 01       		.uleb128 0x1
 9896 37e7 50       		.byte	0x50
 9897 37e8 01       		.uleb128 0x1
 9898 37e9 31       		.byte	0x31
 9899 37ea 00       		.byte	0
 9900 37eb 24       		.uleb128 0x24
 9901 37ec 2E010000 		.4byte	.LVL166
 9902 37f0 64430000 		.4byte	0x4364
 9903 37f4 22       		.uleb128 0x22
 9904 37f5 01       		.uleb128 0x1
 9905 37f6 53       		.byte	0x53
 9906 37f7 01       		.uleb128 0x1
 9907 37f8 35       		.byte	0x35
 9908 37f9 22       		.uleb128 0x22
 9909 37fa 01       		.uleb128 0x1
 9910 37fb 51       		.byte	0x51
 9911 37fc 01       		.uleb128 0x1
 9912 37fd 37       		.byte	0x37
 9913 37fe 22       		.uleb128 0x22
 9914 37ff 01       		.uleb128 0x1
 9915 3800 50       		.byte	0x50
 9916 3801 01       		.uleb128 0x1
 9917 3802 3F       		.byte	0x3f
 9918 3803 22       		.uleb128 0x22
 9919 3804 02       		.uleb128 0x2
 9920 3805 7D       		.byte	0x7d
 9921 3806 00       		.sleb128 0
 9922 3807 01       		.uleb128 0x1
ARM GAS  C:\Users\AHMED~1.ELE\AppData\Local\Temp\cckRh1xc.s 			page 201


 9923 3808 30       		.byte	0x30
 9924 3809 00       		.byte	0
 9925 380a 00       		.byte	0
 9926 380b 3D       		.uleb128 0x3d
 9927 380c 57360000 		.4byte	0x3657
 9928 3810 6A010000 		.4byte	.LBB35
 9929 3814 F4020000 		.4byte	.LBE35-.LBB35
 9930 3818 01       		.byte	0x1
 9931 3819 7703     		.2byte	0x377
 9932 381b CA3B0000 		.4byte	0x3bca
 9933 381f 46       		.uleb128 0x46
 9934 3820 60360000 		.4byte	0x3660
 9935 3824 AA010000 		.4byte	.LBB37
 9936 3828 00000000 		.4byte	.Ldebug_ranges0+0
 9937 382c 01       		.byte	0x1
 9938 382d 0A03     		.2byte	0x30a
 9939 382f 6E390000 		.4byte	0x396e
 9940 3833 47       		.uleb128 0x47
 9941 3834 00000000 		.4byte	.Ldebug_ranges0+0
 9942 3838 38       		.uleb128 0x38
 9943 3839 71360000 		.4byte	0x3671
 9944 383d 03       		.uleb128 0x3
 9945 383e 91       		.byte	0x91
 9946 383f BC7F     		.sleb128 -68
 9947 3841 48       		.uleb128 0x48
 9948 3842 18000000 		.4byte	.Ldebug_ranges0+0x18
 9949 3846 F1380000 		.4byte	0x38f1
 9950 384a 36       		.uleb128 0x36
 9951 384b 7E360000 		.4byte	0x367e
 9952 384f FE050000 		.4byte	.LLST37
 9953 3853 36       		.uleb128 0x36
 9954 3854 8A360000 		.4byte	0x368a
 9955 3858 1C060000 		.4byte	.LLST38
 9956 385c 21       		.uleb128 0x21
 9957 385d C6010000 		.4byte	.LVL176
 9958 3861 5B440000 		.4byte	0x445b
 9959 3865 71380000 		.4byte	0x3871
 9960 3869 22       		.uleb128 0x22
 9961 386a 01       		.uleb128 0x1
 9962 386b 50       		.byte	0x50
 9963 386c 03       		.uleb128 0x3
 9964 386d 91       		.byte	0x91
 9965 386e BC7F     		.sleb128 -68
 9966 3870 00       		.byte	0
 9967 3871 21       		.uleb128 0x21
 9968 3872 D2010000 		.4byte	.LVL179
 9969 3876 70440000 		.4byte	0x4470
 9970 387a 8B380000 		.4byte	0x388b
 9971 387e 22       		.uleb128 0x22
 9972 387f 01       		.uleb128 0x1
 9973 3880 51       		.byte	0x51
 9974 3881 02       		.uleb128 0x2
 9975 3882 79       		.byte	0x79
 9976 3883 01       		.sleb128 1
 9977 3884 22       		.uleb128 0x22
 9978 3885 01       		.uleb128 0x1
 9979 3886 50       		.byte	0x50
ARM GAS  C:\Users\AHMED~1.ELE\AppData\Local\Temp\cckRh1xc.s 			page 202


 9980 3887 02       		.uleb128 0x2
 9981 3888 08       		.byte	0x8
 9982 3889 92       		.byte	0x92
 9983 388a 00       		.byte	0
 9984 388b 21       		.uleb128 0x21
 9985 388c DE010000 		.4byte	.LVL181
 9986 3890 F9430000 		.4byte	0x43f9
 9987 3894 AC380000 		.4byte	0x38ac
 9988 3898 22       		.uleb128 0x22
 9989 3899 01       		.uleb128 0x1
 9990 389a 52       		.byte	0x52
 9991 389b 02       		.uleb128 0x2
 9992 389c 79       		.byte	0x79
 9993 389d 00       		.sleb128 0
 9994 389e 22       		.uleb128 0x22
 9995 389f 01       		.uleb128 0x1
 9996 38a0 51       		.byte	0x51
 9997 38a1 03       		.uleb128 0x3
 9998 38a2 91       		.byte	0x91
 9999 38a3 BC7F     		.sleb128 -68
 10000 38a5 22       		.uleb128 0x22
 10001 38a6 01       		.uleb128 0x1
 10002 38a7 50       		.byte	0x50
 10003 38a8 02       		.uleb128 0x2
 10004 38a9 76       		.byte	0x76
 10005 38aa 00       		.sleb128 0
 10006 38ab 00       		.byte	0
 10007 38ac 21       		.uleb128 0x21
 10008 38ad F6010000 		.4byte	.LVL182
 10009 38b1 64430000 		.4byte	0x4364
 10010 38b5 DA380000 		.4byte	0x38da
 10011 38b9 22       		.uleb128 0x22
 10012 38ba 01       		.uleb128 0x1
 10013 38bb 53       		.byte	0x53
 10014 38bc 03       		.uleb128 0x3
 10015 38bd 0A       		.byte	0xa
 10016 38be 0001     		.2byte	0x100
 10017 38c0 22       		.uleb128 0x22
 10018 38c1 01       		.uleb128 0x1
 10019 38c2 52       		.byte	0x52
 10020 38c3 02       		.uleb128 0x2
 10021 38c4 76       		.byte	0x76
 10022 38c5 00       		.sleb128 0
 10023 38c6 22       		.uleb128 0x22
 10024 38c7 01       		.uleb128 0x1
 10025 38c8 51       		.byte	0x51
 10026 38c9 02       		.uleb128 0x2
 10027 38ca 08       		.byte	0x8
 10028 38cb 25       		.byte	0x25
 10029 38cc 22       		.uleb128 0x22
 10030 38cd 01       		.uleb128 0x1
 10031 38ce 50       		.byte	0x50
 10032 38cf 01       		.uleb128 0x1
 10033 38d0 3F       		.byte	0x3f
 10034 38d1 22       		.uleb128 0x22
 10035 38d2 02       		.uleb128 0x2
 10036 38d3 7D       		.byte	0x7d
ARM GAS  C:\Users\AHMED~1.ELE\AppData\Local\Temp\cckRh1xc.s 			page 203


 10037 38d4 00       		.sleb128 0
 10038 38d5 03       		.uleb128 0x3
 10039 38d6 0A       		.byte	0xa
 10040 38d7 0210     		.2byte	0x1002
 10041 38d9 00       		.byte	0
 10042 38da 24       		.uleb128 0x24
 10043 38db FE010000 		.4byte	.LVL183
 10044 38df 70440000 		.4byte	0x4470
 10045 38e3 22       		.uleb128 0x22
 10046 38e4 01       		.uleb128 0x1
 10047 38e5 51       		.byte	0x51
 10048 38e6 02       		.uleb128 0x2
 10049 38e7 76       		.byte	0x76
 10050 38e8 00       		.sleb128 0
 10051 38e9 22       		.uleb128 0x22
 10052 38ea 01       		.uleb128 0x1
 10053 38eb 50       		.byte	0x50
 10054 38ec 02       		.uleb128 0x2
 10055 38ed 08       		.byte	0x8
 10056 38ee 94       		.byte	0x94
 10057 38ef 00       		.byte	0
 10058 38f0 00       		.byte	0
 10059 38f1 23       		.uleb128 0x23
 10060 38f2 AE010000 		.4byte	.LVL174
 10061 38f6 95450000 		.4byte	0x4595
 10062 38fa 21       		.uleb128 0x21
 10063 38fb BC010000 		.4byte	.LVL175
 10064 38ff F9430000 		.4byte	0x43f9
 10065 3903 14390000 		.4byte	0x3914
 10066 3907 22       		.uleb128 0x22
 10067 3908 01       		.uleb128 0x1
 10068 3909 52       		.byte	0x52
 10069 390a 01       		.uleb128 0x1
 10070 390b 40       		.byte	0x40
 10071 390c 22       		.uleb128 0x22
 10072 390d 01       		.uleb128 0x1
 10073 390e 50       		.byte	0x50
 10074 390f 03       		.uleb128 0x3
 10075 3910 91       		.byte	0x91
 10076 3911 BC7F     		.sleb128 -68
 10077 3913 00       		.byte	0
 10078 3914 21       		.uleb128 0x21
 10079 3915 0E020000 		.4byte	.LVL185
 10080 3919 64430000 		.4byte	0x4364
 10081 391d 3F390000 		.4byte	0x393f
 10082 3921 22       		.uleb128 0x22
 10083 3922 01       		.uleb128 0x1
 10084 3923 53       		.byte	0x53
 10085 3924 02       		.uleb128 0x2
 10086 3925 76       		.byte	0x76
 10087 3926 00       		.sleb128 0
 10088 3927 22       		.uleb128 0x22
 10089 3928 01       		.uleb128 0x1
 10090 3929 52       		.byte	0x52
 10091 392a 02       		.uleb128 0x2
 10092 392b 76       		.byte	0x76
 10093 392c 00       		.sleb128 0
ARM GAS  C:\Users\AHMED~1.ELE\AppData\Local\Temp\cckRh1xc.s 			page 204


 10094 392d 22       		.uleb128 0x22
 10095 392e 01       		.uleb128 0x1
 10096 392f 51       		.byte	0x51
 10097 3930 01       		.uleb128 0x1
 10098 3931 3D       		.byte	0x3d
 10099 3932 22       		.uleb128 0x22
 10100 3933 01       		.uleb128 0x1
 10101 3934 50       		.byte	0x50
 10102 3935 01       		.uleb128 0x1
 10103 3936 40       		.byte	0x40
 10104 3937 22       		.uleb128 0x22
 10105 3938 02       		.uleb128 0x2
 10106 3939 7D       		.byte	0x7d
 10107 393a 00       		.sleb128 0
 10108 393b 02       		.uleb128 0x2
 10109 393c 76       		.byte	0x76
 10110 393d 00       		.sleb128 0
 10111 393e 00       		.byte	0
 10112 393f 23       		.uleb128 0x23
 10113 3940 22020000 		.4byte	.LVL187
 10114 3944 9C450000 		.4byte	0x459c
 10115 3948 23       		.uleb128 0x23
 10116 3949 46020000 		.4byte	.LVL188
 10117 394d 84450000 		.4byte	0x4584
 10118 3951 23       		.uleb128 0x23
 10119 3952 5A020000 		.4byte	.LVL189
 10120 3956 84450000 		.4byte	0x4584
 10121 395a 23       		.uleb128 0x23
 10122 395b 64020000 		.4byte	.LVL190
 10123 395f 8D430000 		.4byte	0x438d
 10124 3963 23       		.uleb128 0x23
 10125 3964 88020000 		.4byte	.LVL191
 10126 3968 A7450000 		.4byte	0x45a7
 10127 396c 00       		.byte	0
 10128 396d 00       		.byte	0
 10129 396e 3D       		.uleb128 0x3d
 10130 396f 98360000 		.4byte	0x3698
 10131 3973 B0020000 		.4byte	.LBB43
 10132 3977 72010000 		.4byte	.LBE43-.LBB43
 10133 397b 01       		.byte	0x1
 10134 397c 1003     		.2byte	0x310
 10135 397e 5C3B0000 		.4byte	0x3b5c
 10136 3982 37       		.uleb128 0x37
 10137 3983 A5360000 		.4byte	0x36a5
 10138 3987 3A060000 		.4byte	.LLST39
 10139 398b 35       		.uleb128 0x35
 10140 398c B0020000 		.4byte	.LBB44
 10141 3990 72010000 		.4byte	.LBE44-.LBB44
 10142 3994 36       		.uleb128 0x36
 10143 3995 B1360000 		.4byte	0x36b1
 10144 3999 51060000 		.4byte	.LLST40
 10145 399d 36       		.uleb128 0x36
 10146 399e BD360000 		.4byte	0x36bd
 10147 39a2 7A060000 		.4byte	.LLST41
 10148 39a6 36       		.uleb128 0x36
 10149 39a7 C9360000 		.4byte	0x36c9
 10150 39ab AE060000 		.4byte	.LLST42
ARM GAS  C:\Users\AHMED~1.ELE\AppData\Local\Temp\cckRh1xc.s 			page 205


 10151 39af 21       		.uleb128 0x21
 10152 39b0 B6020000 		.4byte	.LVL193
 10153 39b4 16440000 		.4byte	0x4416
 10154 39b8 C3390000 		.4byte	0x39c3
 10155 39bc 22       		.uleb128 0x22
 10156 39bd 01       		.uleb128 0x1
 10157 39be 50       		.byte	0x50
 10158 39bf 02       		.uleb128 0x2
 10159 39c0 08       		.byte	0x8
 10160 39c1 87       		.byte	0x87
 10161 39c2 00       		.byte	0
 10162 39c3 21       		.uleb128 0x21
 10163 39c4 C2020000 		.4byte	.LVL194
 10164 39c8 2B440000 		.4byte	0x442b
 10165 39cc DF390000 		.4byte	0x39df
 10166 39d0 22       		.uleb128 0x22
 10167 39d1 01       		.uleb128 0x1
 10168 39d2 52       		.byte	0x52
 10169 39d3 03       		.uleb128 0x3
 10170 39d4 0A       		.byte	0xa
 10171 39d5 0010     		.2byte	0x1000
 10172 39d7 22       		.uleb128 0x22
 10173 39d8 01       		.uleb128 0x1
 10174 39d9 51       		.byte	0x51
 10175 39da 03       		.uleb128 0x3
 10176 39db 0A       		.byte	0xa
 10177 39dc 0005     		.2byte	0x500
 10178 39de 00       		.byte	0
 10179 39df 21       		.uleb128 0x21
 10180 39e0 DC020000 		.4byte	.LVL195
 10181 39e4 D52C0000 		.4byte	0x2cd5
 10182 39e8 FA390000 		.4byte	0x39fa
 10183 39ec 22       		.uleb128 0x22
 10184 39ed 01       		.uleb128 0x1
 10185 39ee 51       		.byte	0x51
 10186 39ef 03       		.uleb128 0x3
 10187 39f0 0B       		.byte	0xb
 10188 39f1 419F     		.2byte	0x9f41
 10189 39f3 22       		.uleb128 0x22
 10190 39f4 01       		.uleb128 0x1
 10191 39f5 50       		.byte	0x50
 10192 39f6 02       		.uleb128 0x2
 10193 39f7 7B       		.byte	0x7b
 10194 39f8 00       		.sleb128 0
 10195 39f9 00       		.byte	0
 10196 39fa 21       		.uleb128 0x21
 10197 39fb E8020000 		.4byte	.LVL196
 10198 39ff F9430000 		.4byte	0x43f9
 10199 3a03 133A0000 		.4byte	0x3a13
 10200 3a07 22       		.uleb128 0x22
 10201 3a08 01       		.uleb128 0x1
 10202 3a09 52       		.byte	0x52
 10203 3a0a 01       		.uleb128 0x1
 10204 3a0b 33       		.byte	0x33
 10205 3a0c 22       		.uleb128 0x22
 10206 3a0d 01       		.uleb128 0x1
 10207 3a0e 50       		.byte	0x50
ARM GAS  C:\Users\AHMED~1.ELE\AppData\Local\Temp\cckRh1xc.s 			page 206


 10208 3a0f 02       		.uleb128 0x2
 10209 3a10 7A       		.byte	0x7a
 10210 3a11 02       		.sleb128 2
 10211 3a12 00       		.byte	0
 10212 3a13 21       		.uleb128 0x21
 10213 3a14 0C030000 		.4byte	.LVL197
 10214 3a18 D52C0000 		.4byte	0x2cd5
 10215 3a1c 2D3A0000 		.4byte	0x3a2d
 10216 3a20 22       		.uleb128 0x22
 10217 3a21 01       		.uleb128 0x1
 10218 3a22 51       		.byte	0x51
 10219 3a23 02       		.uleb128 0x2
 10220 3a24 08       		.byte	0x8
 10221 3a25 89       		.byte	0x89
 10222 3a26 22       		.uleb128 0x22
 10223 3a27 01       		.uleb128 0x1
 10224 3a28 50       		.byte	0x50
 10225 3a29 02       		.uleb128 0x2
 10226 3a2a 7B       		.byte	0x7b
 10227 3a2b 00       		.sleb128 0
 10228 3a2c 00       		.byte	0
 10229 3a2d 21       		.uleb128 0x21
 10230 3a2e 26030000 		.4byte	.LVL200
 10231 3a32 F9430000 		.4byte	0x43f9
 10232 3a36 403A0000 		.4byte	0x3a40
 10233 3a3a 22       		.uleb128 0x22
 10234 3a3b 01       		.uleb128 0x1
 10235 3a3c 52       		.byte	0x52
 10236 3a3d 01       		.uleb128 0x1
 10237 3a3e 36       		.byte	0x36
 10238 3a3f 00       		.byte	0
 10239 3a40 23       		.uleb128 0x23
 10240 3a41 2C030000 		.4byte	.LVL202
 10241 3a45 AE450000 		.4byte	0x45ae
 10242 3a49 21       		.uleb128 0x21
 10243 3a4a 3C030000 		.4byte	.LVL203
 10244 3a4e 9B440000 		.4byte	0x449b
 10245 3a52 623A0000 		.4byte	0x3a62
 10246 3a56 22       		.uleb128 0x22
 10247 3a57 01       		.uleb128 0x1
 10248 3a58 52       		.byte	0x52
 10249 3a59 01       		.uleb128 0x1
 10250 3a5a 36       		.byte	0x36
 10251 3a5b 22       		.uleb128 0x22
 10252 3a5c 01       		.uleb128 0x1
 10253 3a5d 51       		.byte	0x51
 10254 3a5e 02       		.uleb128 0x2
 10255 3a5f 08       		.byte	0x8
 10256 3a60 20       		.byte	0x20
 10257 3a61 00       		.byte	0
 10258 3a62 21       		.uleb128 0x21
 10259 3a63 46030000 		.4byte	.LVL204
 10260 3a67 F9430000 		.4byte	0x43f9
 10261 3a6b 7E3A0000 		.4byte	0x3a7e
 10262 3a6f 22       		.uleb128 0x22
 10263 3a70 01       		.uleb128 0x1
 10264 3a71 52       		.byte	0x52
ARM GAS  C:\Users\AHMED~1.ELE\AppData\Local\Temp\cckRh1xc.s 			page 207


 10265 3a72 01       		.uleb128 0x1
 10266 3a73 32       		.byte	0x32
 10267 3a74 22       		.uleb128 0x22
 10268 3a75 01       		.uleb128 0x1
 10269 3a76 51       		.byte	0x51
 10270 3a77 05       		.uleb128 0x5
 10271 3a78 03       		.byte	0x3
 10272 3a79 27000000 		.4byte	.LC9
 10273 3a7d 00       		.byte	0
 10274 3a7e 23       		.uleb128 0x23
 10275 3a7f 4A030000 		.4byte	.LVL205
 10276 3a83 BF450000 		.4byte	0x45bf
 10277 3a87 23       		.uleb128 0x23
 10278 3a88 56030000 		.4byte	.LVL206
 10279 3a8c F9430000 		.4byte	0x43f9
 10280 3a90 21       		.uleb128 0x21
 10281 3a91 6A030000 		.4byte	.LVL207
 10282 3a95 9C2C0000 		.4byte	0x2c9c
 10283 3a99 AB3A0000 		.4byte	0x3aab
 10284 3a9d 22       		.uleb128 0x22
 10285 3a9e 01       		.uleb128 0x1
 10286 3a9f 51       		.byte	0x51
 10287 3aa0 03       		.uleb128 0x3
 10288 3aa1 0B       		.byte	0xb
 10289 3aa2 269F     		.2byte	0x9f26
 10290 3aa4 22       		.uleb128 0x22
 10291 3aa5 01       		.uleb128 0x1
 10292 3aa6 50       		.byte	0x50
 10293 3aa7 02       		.uleb128 0x2
 10294 3aa8 76       		.byte	0x76
 10295 3aa9 00       		.sleb128 0
 10296 3aaa 00       		.byte	0
 10297 3aab 23       		.uleb128 0x23
 10298 3aac 78030000 		.4byte	.LVL209
 10299 3ab0 F9430000 		.4byte	0x43f9
 10300 3ab4 21       		.uleb128 0x21
 10301 3ab5 82030000 		.4byte	.LVL210
 10302 3ab9 9C2C0000 		.4byte	0x2c9c
 10303 3abd CF3A0000 		.4byte	0x3acf
 10304 3ac1 22       		.uleb128 0x22
 10305 3ac2 01       		.uleb128 0x1
 10306 3ac3 51       		.byte	0x51
 10307 3ac4 03       		.uleb128 0x3
 10308 3ac5 0B       		.byte	0xb
 10309 3ac6 069F     		.2byte	0x9f06
 10310 3ac8 22       		.uleb128 0x22
 10311 3ac9 01       		.uleb128 0x1
 10312 3aca 50       		.byte	0x50
 10313 3acb 02       		.uleb128 0x2
 10314 3acc 76       		.byte	0x76
 10315 3acd 00       		.sleb128 0
 10316 3ace 00       		.byte	0
 10317 3acf 23       		.uleb128 0x23
 10318 3ad0 90030000 		.4byte	.LVL212
 10319 3ad4 F9430000 		.4byte	0x43f9
 10320 3ad8 21       		.uleb128 0x21
 10321 3ad9 9E030000 		.4byte	.LVL213
ARM GAS  C:\Users\AHMED~1.ELE\AppData\Local\Temp\cckRh1xc.s 			page 208


 10322 3add C6450000 		.4byte	0x45c6
 10323 3ae1 ED3A0000 		.4byte	0x3aed
 10324 3ae5 22       		.uleb128 0x22
 10325 3ae6 01       		.uleb128 0x1
 10326 3ae7 50       		.byte	0x50
 10327 3ae8 03       		.uleb128 0x3
 10328 3ae9 0A       		.byte	0xa
 10329 3aea 3030     		.2byte	0x3030
 10330 3aec 00       		.byte	0
 10331 3aed 23       		.uleb128 0x23
 10332 3aee A4030000 		.4byte	.LVL214
 10333 3af2 98340000 		.4byte	0x3498
 10334 3af6 21       		.uleb128 0x21
 10335 3af7 D0030000 		.4byte	.LVL215
 10336 3afb D52C0000 		.4byte	0x2cd5
 10337 3aff 0B3B0000 		.4byte	0x3b0b
 10338 3b03 22       		.uleb128 0x22
 10339 3b04 01       		.uleb128 0x1
 10340 3b05 51       		.byte	0x51
 10341 3b06 03       		.uleb128 0x3
 10342 3b07 0B       		.byte	0xb
 10343 3b08 109F     		.2byte	0x9f10
 10344 3b0a 00       		.byte	0
 10345 3b0b 23       		.uleb128 0x23
 10346 3b0c E4030000 		.4byte	.LVL217
 10347 3b10 D7450000 		.4byte	0x45d7
 10348 3b14 23       		.uleb128 0x23
 10349 3b15 E8030000 		.4byte	.LVL218
 10350 3b19 DE450000 		.4byte	0x45de
 10351 3b1d 23       		.uleb128 0x23
 10352 3b1e F8030000 		.4byte	.LVL219
 10353 3b22 E5450000 		.4byte	0x45e5
 10354 3b26 23       		.uleb128 0x23
 10355 3b27 FC030000 		.4byte	.LVL220
 10356 3b2b EC450000 		.4byte	0x45ec
 10357 3b2f 23       		.uleb128 0x23
 10358 3b30 10040000 		.4byte	.LVL221
 10359 3b34 F3450000 		.4byte	0x45f3
 10360 3b38 21       		.uleb128 0x21
 10361 3b39 1C040000 		.4byte	.LVL222
 10362 3b3d 9B440000 		.4byte	0x449b
 10363 3b41 513B0000 		.4byte	0x3b51
 10364 3b45 22       		.uleb128 0x22
 10365 3b46 01       		.uleb128 0x1
 10366 3b47 52       		.byte	0x52
 10367 3b48 01       		.uleb128 0x1
 10368 3b49 36       		.byte	0x36
 10369 3b4a 22       		.uleb128 0x22
 10370 3b4b 01       		.uleb128 0x1
 10371 3b4c 51       		.byte	0x51
 10372 3b4d 02       		.uleb128 0x2
 10373 3b4e 08       		.byte	0x8
 10374 3b4f 20       		.byte	0x20
 10375 3b50 00       		.byte	0
 10376 3b51 23       		.uleb128 0x23
 10377 3b52 22040000 		.4byte	.LVL223
 10378 3b56 FE450000 		.4byte	0x45fe
ARM GAS  C:\Users\AHMED~1.ELE\AppData\Local\Temp\cckRh1xc.s 			page 209


 10379 3b5a 00       		.byte	0
 10380 3b5b 00       		.byte	0
 10381 3b5c 21       		.uleb128 0x21
 10382 3b5d 7C010000 		.4byte	.LVL170
 10383 3b61 64430000 		.4byte	0x4364
 10384 3b65 7F3B0000 		.4byte	0x3b7f
 10385 3b69 22       		.uleb128 0x22
 10386 3b6a 01       		.uleb128 0x1
 10387 3b6b 53       		.byte	0x53
 10388 3b6c 01       		.uleb128 0x1
 10389 3b6d 34       		.byte	0x34
 10390 3b6e 22       		.uleb128 0x22
 10391 3b6f 01       		.uleb128 0x1
 10392 3b70 51       		.byte	0x51
 10393 3b71 01       		.uleb128 0x1
 10394 3b72 37       		.byte	0x37
 10395 3b73 22       		.uleb128 0x22
 10396 3b74 01       		.uleb128 0x1
 10397 3b75 50       		.byte	0x50
 10398 3b76 01       		.uleb128 0x1
 10399 3b77 3F       		.byte	0x3f
 10400 3b78 22       		.uleb128 0x22
 10401 3b79 02       		.uleb128 0x2
 10402 3b7a 7D       		.byte	0x7d
 10403 3b7b 00       		.sleb128 0
 10404 3b7c 01       		.uleb128 0x1
 10405 3b7d 30       		.byte	0x30
 10406 3b7e 00       		.byte	0
 10407 3b7f 23       		.uleb128 0x23
 10408 3b80 98010000 		.4byte	.LVL171
 10409 3b84 A32B0000 		.4byte	0x2ba3
 10410 3b88 23       		.uleb128 0x23
 10411 3b89 9E010000 		.4byte	.LVL172
 10412 3b8d AD2D0000 		.4byte	0x2dad
 10413 3b91 21       		.uleb128 0x21
 10414 3b92 A4010000 		.4byte	.LVL173
 10415 3b96 84450000 		.4byte	0x4584
 10416 3b9a A43B0000 		.4byte	0x3ba4
 10417 3b9e 22       		.uleb128 0x22
 10418 3b9f 01       		.uleb128 0x1
 10419 3ba0 50       		.byte	0x50
 10420 3ba1 01       		.uleb128 0x1
 10421 3ba2 30       		.byte	0x30
 10422 3ba3 00       		.byte	0
 10423 3ba4 21       		.uleb128 0x21
 10424 3ba5 38040000 		.4byte	.LVL224
 10425 3ba9 94430000 		.4byte	0x4394
 10426 3bad B73B0000 		.4byte	0x3bb7
 10427 3bb1 22       		.uleb128 0x22
 10428 3bb2 01       		.uleb128 0x1
 10429 3bb3 50       		.byte	0x50
 10430 3bb4 01       		.uleb128 0x1
 10431 3bb5 30       		.byte	0x30
 10432 3bb6 00       		.byte	0
 10433 3bb7 23       		.uleb128 0x23
 10434 3bb8 3C040000 		.4byte	.LVL225
 10435 3bbc 05460000 		.4byte	0x4605
ARM GAS  C:\Users\AHMED~1.ELE\AppData\Local\Temp\cckRh1xc.s 			page 210


 10436 3bc0 23       		.uleb128 0x23
 10437 3bc1 5C040000 		.4byte	.LVL227
 10438 3bc5 8D430000 		.4byte	0x438d
 10439 3bc9 00       		.byte	0
 10440 3bca 3D       		.uleb128 0x3d
 10441 3bcb D6360000 		.4byte	0x36d6
 10442 3bcf 82060000 		.4byte	.LBB45
 10443 3bd3 42000000 		.4byte	.LBE45-.LBB45
 10444 3bd7 01       		.byte	0x1
 10445 3bd8 CA03     		.2byte	0x3ca
 10446 3bda 2A3C0000 		.4byte	0x3c2a
 10447 3bde 23       		.uleb128 0x23
 10448 3bdf 86060000 		.4byte	.LVL257
 10449 3be3 0C460000 		.4byte	0x460c
 10450 3be7 23       		.uleb128 0x23
 10451 3be8 A6060000 		.4byte	.LVL258
 10452 3bec 84450000 		.4byte	0x4584
 10453 3bf0 21       		.uleb128 0x21
 10454 3bf1 AC060000 		.4byte	.LVL259
 10455 3bf5 16440000 		.4byte	0x4416
 10456 3bf9 043C0000 		.4byte	0x3c04
 10457 3bfd 22       		.uleb128 0x22
 10458 3bfe 01       		.uleb128 0x1
 10459 3bff 50       		.byte	0x50
 10460 3c00 02       		.uleb128 0x2
 10461 3c01 08       		.byte	0x8
 10462 3c02 87       		.byte	0x87
 10463 3c03 00       		.byte	0
 10464 3c04 21       		.uleb128 0x21
 10465 3c05 B8060000 		.4byte	.LVL260
 10466 3c09 2B440000 		.4byte	0x442b
 10467 3c0d 203C0000 		.4byte	0x3c20
 10468 3c11 22       		.uleb128 0x22
 10469 3c12 01       		.uleb128 0x1
 10470 3c13 52       		.byte	0x52
 10471 3c14 03       		.uleb128 0x3
 10472 3c15 0A       		.byte	0xa
 10473 3c16 0010     		.2byte	0x1000
 10474 3c18 22       		.uleb128 0x22
 10475 3c19 01       		.uleb128 0x1
 10476 3c1a 51       		.byte	0x51
 10477 3c1b 03       		.uleb128 0x3
 10478 3c1c 0A       		.byte	0xa
 10479 3c1d 0005     		.2byte	0x500
 10480 3c1f 00       		.byte	0
 10481 3c20 23       		.uleb128 0x23
 10482 3c21 BE060000 		.4byte	.LVL261
 10483 3c25 84450000 		.4byte	0x4584
 10484 3c29 00       		.byte	0
 10485 3c2a 3D       		.uleb128 0x3d
 10486 3c2b E3360000 		.4byte	0x36e3
 10487 3c2f C8060000 		.4byte	.LBB47
 10488 3c33 CA010000 		.4byte	.LBE47-.LBB47
 10489 3c37 01       		.byte	0x1
 10490 3c38 D303     		.2byte	0x3d3
 10491 3c3a 4D3E0000 		.4byte	0x3e4d
 10492 3c3e 35       		.uleb128 0x35
ARM GAS  C:\Users\AHMED~1.ELE\AppData\Local\Temp\cckRh1xc.s 			page 211


 10493 3c3f C8060000 		.4byte	.LBB48
 10494 3c43 CA010000 		.4byte	.LBE48-.LBB48
 10495 3c47 38       		.uleb128 0x38
 10496 3c48 F4360000 		.4byte	0x36f4
 10497 3c4c 05       		.uleb128 0x5
 10498 3c4d 03       		.byte	0x3
 10499 3c4e 01000000 		.4byte	abResp.12783
 10500 3c52 23       		.uleb128 0x23
 10501 3c53 E4060000 		.4byte	.LVL263
 10502 3c57 A32B0000 		.4byte	0x2ba3
 10503 3c5b 23       		.uleb128 0x23
 10504 3c5c EA060000 		.4byte	.LVL264
 10505 3c60 AD2D0000 		.4byte	0x2dad
 10506 3c64 21       		.uleb128 0x21
 10507 3c65 00070000 		.4byte	.LVL265
 10508 3c69 84450000 		.4byte	0x4584
 10509 3c6d 783C0000 		.4byte	0x3c78
 10510 3c71 22       		.uleb128 0x22
 10511 3c72 01       		.uleb128 0x1
 10512 3c73 50       		.byte	0x50
 10513 3c74 02       		.uleb128 0x2
 10514 3c75 79       		.byte	0x79
 10515 3c76 00       		.sleb128 0
 10516 3c77 00       		.byte	0
 10517 3c78 21       		.uleb128 0x21
 10518 3c79 0A070000 		.4byte	.LVL266
 10519 3c7d 17460000 		.4byte	0x4617
 10520 3c81 8C3C0000 		.4byte	0x3c8c
 10521 3c85 22       		.uleb128 0x22
 10522 3c86 01       		.uleb128 0x1
 10523 3c87 51       		.byte	0x51
 10524 3c88 02       		.uleb128 0x2
 10525 3c89 79       		.byte	0x79
 10526 3c8a 00       		.sleb128 0
 10527 3c8b 00       		.byte	0
 10528 3c8c 21       		.uleb128 0x21
 10529 3c8d 1A070000 		.4byte	.LVL267
 10530 3c91 64430000 		.4byte	0x4364
 10531 3c95 B73C0000 		.4byte	0x3cb7
 10532 3c99 22       		.uleb128 0x22
 10533 3c9a 01       		.uleb128 0x1
 10534 3c9b 53       		.byte	0x53
 10535 3c9c 02       		.uleb128 0x2
 10536 3c9d 79       		.byte	0x79
 10537 3c9e 00       		.sleb128 0
 10538 3c9f 22       		.uleb128 0x22
 10539 3ca0 01       		.uleb128 0x1
 10540 3ca1 52       		.byte	0x52
 10541 3ca2 02       		.uleb128 0x2
 10542 3ca3 79       		.byte	0x79
 10543 3ca4 00       		.sleb128 0
 10544 3ca5 22       		.uleb128 0x22
 10545 3ca6 01       		.uleb128 0x1
 10546 3ca7 51       		.byte	0x51
 10547 3ca8 01       		.uleb128 0x1
 10548 3ca9 3A       		.byte	0x3a
 10549 3caa 22       		.uleb128 0x22
ARM GAS  C:\Users\AHMED~1.ELE\AppData\Local\Temp\cckRh1xc.s 			page 212


 10550 3cab 01       		.uleb128 0x1
 10551 3cac 50       		.byte	0x50
 10552 3cad 01       		.uleb128 0x1
 10553 3cae 40       		.byte	0x40
 10554 3caf 22       		.uleb128 0x22
 10555 3cb0 02       		.uleb128 0x2
 10556 3cb1 7D       		.byte	0x7d
 10557 3cb2 00       		.sleb128 0
 10558 3cb3 02       		.uleb128 0x2
 10559 3cb4 79       		.byte	0x79
 10560 3cb5 00       		.sleb128 0
 10561 3cb6 00       		.byte	0
 10562 3cb7 23       		.uleb128 0x23
 10563 3cb8 38070000 		.4byte	.LVL268
 10564 3cbc 2D460000 		.4byte	0x462d
 10565 3cc0 21       		.uleb128 0x21
 10566 3cc1 44070000 		.4byte	.LVL269
 10567 3cc5 38460000 		.4byte	0x4638
 10568 3cc9 D43C0000 		.4byte	0x3cd4
 10569 3ccd 22       		.uleb128 0x22
 10570 3cce 01       		.uleb128 0x1
 10571 3ccf 50       		.byte	0x50
 10572 3cd0 02       		.uleb128 0x2
 10573 3cd1 79       		.byte	0x79
 10574 3cd2 00       		.sleb128 0
 10575 3cd3 00       		.byte	0
 10576 3cd4 21       		.uleb128 0x21
 10577 3cd5 56070000 		.4byte	.LVL270
 10578 3cd9 D52C0000 		.4byte	0x2cd5
 10579 3cdd E93C0000 		.4byte	0x3ce9
 10580 3ce1 22       		.uleb128 0x22
 10581 3ce2 01       		.uleb128 0x1
 10582 3ce3 51       		.byte	0x51
 10583 3ce4 03       		.uleb128 0x3
 10584 3ce5 0B       		.byte	0xb
 10585 3ce6 419F     		.2byte	0x9f41
 10586 3ce8 00       		.byte	0
 10587 3ce9 21       		.uleb128 0x21
 10588 3cea 62070000 		.4byte	.LVL271
 10589 3cee F9430000 		.4byte	0x43f9
 10590 3cf2 023D0000 		.4byte	0x3d02
 10591 3cf6 22       		.uleb128 0x22
 10592 3cf7 01       		.uleb128 0x1
 10593 3cf8 52       		.byte	0x52
 10594 3cf9 01       		.uleb128 0x1
 10595 3cfa 33       		.byte	0x33
 10596 3cfb 22       		.uleb128 0x22
 10597 3cfc 01       		.uleb128 0x1
 10598 3cfd 50       		.byte	0x50
 10599 3cfe 02       		.uleb128 0x2
 10600 3cff 78       		.byte	0x78
 10601 3d00 02       		.sleb128 2
 10602 3d01 00       		.byte	0
 10603 3d02 21       		.uleb128 0x21
 10604 3d03 6E070000 		.4byte	.LVL272
 10605 3d07 F9430000 		.4byte	0x43f9
 10606 3d0b 1B3D0000 		.4byte	0x3d1b
ARM GAS  C:\Users\AHMED~1.ELE\AppData\Local\Temp\cckRh1xc.s 			page 213


 10607 3d0f 22       		.uleb128 0x22
 10608 3d10 01       		.uleb128 0x1
 10609 3d11 52       		.byte	0x52
 10610 3d12 01       		.uleb128 0x1
 10611 3d13 33       		.byte	0x33
 10612 3d14 22       		.uleb128 0x22
 10613 3d15 01       		.uleb128 0x1
 10614 3d16 51       		.byte	0x51
 10615 3d17 02       		.uleb128 0x2
 10616 3d18 78       		.byte	0x78
 10617 3d19 02       		.sleb128 2
 10618 3d1a 00       		.byte	0
 10619 3d1b 21       		.uleb128 0x21
 10620 3d1c 7C070000 		.4byte	.LVL273
 10621 3d20 F9430000 		.4byte	0x43f9
 10622 3d24 3A3D0000 		.4byte	0x3d3a
 10623 3d28 22       		.uleb128 0x22
 10624 3d29 01       		.uleb128 0x1
 10625 3d2a 52       		.byte	0x52
 10626 3d2b 01       		.uleb128 0x1
 10627 3d2c 33       		.byte	0x33
 10628 3d2d 22       		.uleb128 0x22
 10629 3d2e 01       		.uleb128 0x1
 10630 3d2f 51       		.byte	0x51
 10631 3d30 02       		.uleb128 0x2
 10632 3d31 78       		.byte	0x78
 10633 3d32 02       		.sleb128 2
 10634 3d33 22       		.uleb128 0x22
 10635 3d34 01       		.uleb128 0x1
 10636 3d35 50       		.byte	0x50
 10637 3d36 02       		.uleb128 0x2
 10638 3d37 78       		.byte	0x78
 10639 3d38 06       		.sleb128 6
 10640 3d39 00       		.byte	0
 10641 3d3a 21       		.uleb128 0x21
 10642 3d3b 84070000 		.4byte	.LVL274
 10643 3d3f 98340000 		.4byte	0x3498
 10644 3d43 4F3D0000 		.4byte	0x3d4f
 10645 3d47 22       		.uleb128 0x22
 10646 3d48 01       		.uleb128 0x1
 10647 3d49 50       		.byte	0x50
 10648 3d4a 03       		.uleb128 0x3
 10649 3d4b 78       		.byte	0x78
 10650 3d4c 8401     		.sleb128 132
 10651 3d4e 00       		.byte	0
 10652 3d4f 23       		.uleb128 0x23
 10653 3d50 88070000 		.4byte	.LVL275
 10654 3d54 BF450000 		.4byte	0x45bf
 10655 3d58 23       		.uleb128 0x23
 10656 3d59 8C070000 		.4byte	.LVL276
 10657 3d5d DE450000 		.4byte	0x45de
 10658 3d61 23       		.uleb128 0x23
 10659 3d62 A6070000 		.4byte	.LVL277
 10660 3d66 4D460000 		.4byte	0x464d
 10661 3d6a 23       		.uleb128 0x23
 10662 3d6b AA070000 		.4byte	.LVL278
 10663 3d6f 63460000 		.4byte	0x4663
ARM GAS  C:\Users\AHMED~1.ELE\AppData\Local\Temp\cckRh1xc.s 			page 214


 10664 3d73 21       		.uleb128 0x21
 10665 3d74 B0070000 		.4byte	.LVL279
 10666 3d78 94430000 		.4byte	0x4394
 10667 3d7c 863D0000 		.4byte	0x3d86
 10668 3d80 22       		.uleb128 0x22
 10669 3d81 01       		.uleb128 0x1
 10670 3d82 50       		.byte	0x50
 10671 3d83 01       		.uleb128 0x1
 10672 3d84 31       		.byte	0x31
 10673 3d85 00       		.byte	0
 10674 3d86 21       		.uleb128 0x21
 10675 3d87 CC070000 		.4byte	.LVL280
 10676 3d8b 64430000 		.4byte	0x4364
 10677 3d8f A53D0000 		.4byte	0x3da5
 10678 3d93 22       		.uleb128 0x22
 10679 3d94 01       		.uleb128 0x1
 10680 3d95 51       		.byte	0x51
 10681 3d96 01       		.uleb128 0x1
 10682 3d97 3B       		.byte	0x3b
 10683 3d98 22       		.uleb128 0x22
 10684 3d99 01       		.uleb128 0x1
 10685 3d9a 50       		.byte	0x50
 10686 3d9b 01       		.uleb128 0x1
 10687 3d9c 40       		.byte	0x40
 10688 3d9d 22       		.uleb128 0x22
 10689 3d9e 02       		.uleb128 0x2
 10690 3d9f 7D       		.byte	0x7d
 10691 3da0 00       		.sleb128 0
 10692 3da1 02       		.uleb128 0x2
 10693 3da2 79       		.byte	0x79
 10694 3da3 00       		.sleb128 0
 10695 3da4 00       		.byte	0
 10696 3da5 23       		.uleb128 0x23
 10697 3da6 DA070000 		.4byte	.LVL281
 10698 3daa 6A460000 		.4byte	0x466a
 10699 3dae 21       		.uleb128 0x21
 10700 3daf F4070000 		.4byte	.LVL282
 10701 3db3 F9430000 		.4byte	0x43f9
 10702 3db7 D33D0000 		.4byte	0x3dd3
 10703 3dbb 22       		.uleb128 0x22
 10704 3dbc 01       		.uleb128 0x1
 10705 3dbd 52       		.byte	0x52
 10706 3dbe 01       		.uleb128 0x1
 10707 3dbf 32       		.byte	0x32
 10708 3dc0 22       		.uleb128 0x22
 10709 3dc1 01       		.uleb128 0x1
 10710 3dc2 51       		.byte	0x51
 10711 3dc3 05       		.uleb128 0x5
 10712 3dc4 03       		.byte	0x3
 10713 3dc5 35000000 		.4byte	.LC14
 10714 3dc9 22       		.uleb128 0x22
 10715 3dca 01       		.uleb128 0x1
 10716 3dcb 50       		.byte	0x50
 10717 3dcc 05       		.uleb128 0x5
 10718 3dcd 03       		.byte	0x3
 10719 3dce 01000000 		.4byte	.LANCHOR1+1
 10720 3dd2 00       		.byte	0
ARM GAS  C:\Users\AHMED~1.ELE\AppData\Local\Temp\cckRh1xc.s 			page 215


 10721 3dd3 21       		.uleb128 0x21
 10722 3dd4 16080000 		.4byte	.LVL283
 10723 3dd8 F9430000 		.4byte	0x43f9
 10724 3ddc EF3D0000 		.4byte	0x3def
 10725 3de0 22       		.uleb128 0x22
 10726 3de1 01       		.uleb128 0x1
 10727 3de2 52       		.byte	0x52
 10728 3de3 01       		.uleb128 0x1
 10729 3de4 34       		.byte	0x34
 10730 3de5 22       		.uleb128 0x22
 10731 3de6 01       		.uleb128 0x1
 10732 3de7 51       		.byte	0x51
 10733 3de8 05       		.uleb128 0x5
 10734 3de9 03       		.byte	0x3
 10735 3dea 01000000 		.4byte	.LANCHOR1+1
 10736 3dee 00       		.byte	0
 10737 3def 21       		.uleb128 0x21
 10738 3df0 34080000 		.4byte	.LVL284
 10739 3df4 F9430000 		.4byte	0x43f9
 10740 3df8 0B3E0000 		.4byte	0x3e0b
 10741 3dfc 22       		.uleb128 0x22
 10742 3dfd 01       		.uleb128 0x1
 10743 3dfe 52       		.byte	0x52
 10744 3dff 01       		.uleb128 0x1
 10745 3e00 32       		.byte	0x32
 10746 3e01 22       		.uleb128 0x22
 10747 3e02 01       		.uleb128 0x1
 10748 3e03 51       		.byte	0x51
 10749 3e04 05       		.uleb128 0x5
 10750 3e05 03       		.byte	0x3
 10751 3e06 38000000 		.4byte	.LC15
 10752 3e0a 00       		.byte	0
 10753 3e0b 21       		.uleb128 0x21
 10754 3e0c 44080000 		.4byte	.LVL285
 10755 3e10 F9430000 		.4byte	0x43f9
 10756 3e14 1E3E0000 		.4byte	0x3e1e
 10757 3e18 22       		.uleb128 0x22
 10758 3e19 01       		.uleb128 0x1
 10759 3e1a 52       		.byte	0x52
 10760 3e1b 01       		.uleb128 0x1
 10761 3e1c 36       		.byte	0x36
 10762 3e1d 00       		.byte	0
 10763 3e1e 23       		.uleb128 0x23
 10764 3e1f 6C080000 		.4byte	.LVL286
 10765 3e23 F9430000 		.4byte	0x43f9
 10766 3e27 24       		.uleb128 0x24
 10767 3e28 8E080000 		.4byte	.LVL287
 10768 3e2c 64430000 		.4byte	0x4364
 10769 3e30 22       		.uleb128 0x22
 10770 3e31 01       		.uleb128 0x1
 10771 3e32 53       		.byte	0x53
 10772 3e33 01       		.uleb128 0x1
 10773 3e34 30       		.byte	0x30
 10774 3e35 22       		.uleb128 0x22
 10775 3e36 01       		.uleb128 0x1
 10776 3e37 52       		.byte	0x52
 10777 3e38 01       		.uleb128 0x1
ARM GAS  C:\Users\AHMED~1.ELE\AppData\Local\Temp\cckRh1xc.s 			page 216


 10778 3e39 30       		.byte	0x30
 10779 3e3a 22       		.uleb128 0x22
 10780 3e3b 01       		.uleb128 0x1
 10781 3e3c 51       		.byte	0x51
 10782 3e3d 01       		.uleb128 0x1
 10783 3e3e 3D       		.byte	0x3d
 10784 3e3f 22       		.uleb128 0x22
 10785 3e40 01       		.uleb128 0x1
 10786 3e41 50       		.byte	0x50
 10787 3e42 01       		.uleb128 0x1
 10788 3e43 40       		.byte	0x40
 10789 3e44 22       		.uleb128 0x22
 10790 3e45 02       		.uleb128 0x2
 10791 3e46 7D       		.byte	0x7d
 10792 3e47 00       		.sleb128 0
 10793 3e48 01       		.uleb128 0x1
 10794 3e49 30       		.byte	0x30
 10795 3e4a 00       		.byte	0
 10796 3e4b 00       		.byte	0
 10797 3e4c 00       		.byte	0
 10798 3e4d 21       		.uleb128 0x21
 10799 3e4e 78000000 		.4byte	.LVL159
 10800 3e52 64430000 		.4byte	0x4364
 10801 3e56 6B3E0000 		.4byte	0x3e6b
 10802 3e5a 22       		.uleb128 0x22
 10803 3e5b 01       		.uleb128 0x1
 10804 3e5c 52       		.byte	0x52
 10805 3e5d 02       		.uleb128 0x2
 10806 3e5e 76       		.byte	0x76
 10807 3e5f 00       		.sleb128 0
 10808 3e60 22       		.uleb128 0x22
 10809 3e61 01       		.uleb128 0x1
 10810 3e62 51       		.byte	0x51
 10811 3e63 01       		.uleb128 0x1
 10812 3e64 31       		.byte	0x31
 10813 3e65 22       		.uleb128 0x22
 10814 3e66 01       		.uleb128 0x1
 10815 3e67 50       		.byte	0x50
 10816 3e68 01       		.uleb128 0x1
 10817 3e69 3E       		.byte	0x3e
 10818 3e6a 00       		.byte	0
 10819 3e6b 21       		.uleb128 0x21
 10820 3e6c 64040000 		.4byte	.LVL229
 10821 3e70 D42E0000 		.4byte	0x2ed4
 10822 3e74 823E0000 		.4byte	0x3e82
 10823 3e78 22       		.uleb128 0x22
 10824 3e79 01       		.uleb128 0x1
 10825 3e7a 50       		.byte	0x50
 10826 3e7b 05       		.uleb128 0x5
 10827 3e7c 91       		.byte	0x91
 10828 3e7d 9C7F     		.sleb128 -100
 10829 3e7f 94       		.byte	0x94
 10830 3e80 01       		.byte	0x1
 10831 3e81 00       		.byte	0
 10832 3e82 23       		.uleb128 0x23
 10833 3e83 7A040000 		.4byte	.LVL230
 10834 3e87 75460000 		.4byte	0x4675
ARM GAS  C:\Users\AHMED~1.ELE\AppData\Local\Temp\cckRh1xc.s 			page 217


 10835 3e8b 21       		.uleb128 0x21
 10836 3e8c 80040000 		.4byte	.LVL231
 10837 3e90 80460000 		.4byte	0x4680
 10838 3e94 9E3E0000 		.4byte	0x3e9e
 10839 3e98 22       		.uleb128 0x22
 10840 3e99 01       		.uleb128 0x1
 10841 3e9a 51       		.byte	0x51
 10842 3e9b 01       		.uleb128 0x1
 10843 3e9c 30       		.byte	0x30
 10844 3e9d 00       		.byte	0
 10845 3e9e 21       		.uleb128 0x21
 10846 3e9f 94040000 		.4byte	.LVL232
 10847 3ea3 84450000 		.4byte	0x4584
 10848 3ea7 B13E0000 		.4byte	0x3eb1
 10849 3eab 22       		.uleb128 0x22
 10850 3eac 01       		.uleb128 0x1
 10851 3ead 50       		.byte	0x50
 10852 3eae 01       		.uleb128 0x1
 10853 3eaf 30       		.byte	0x30
 10854 3eb0 00       		.byte	0
 10855 3eb1 21       		.uleb128 0x21
 10856 3eb2 AE040000 		.4byte	.LVL233
 10857 3eb6 9A460000 		.4byte	0x469a
 10858 3eba C63E0000 		.4byte	0x3ec6
 10859 3ebe 22       		.uleb128 0x22
 10860 3ebf 01       		.uleb128 0x1
 10861 3ec0 50       		.byte	0x50
 10862 3ec1 03       		.uleb128 0x3
 10863 3ec2 91       		.byte	0x91
 10864 3ec3 A87F     		.sleb128 -88
 10865 3ec5 00       		.byte	0
 10866 3ec6 21       		.uleb128 0x21
 10867 3ec7 C6040000 		.4byte	.LVL234
 10868 3ecb F9430000 		.4byte	0x43f9
 10869 3ecf E23E0000 		.4byte	0x3ee2
 10870 3ed3 22       		.uleb128 0x22
 10871 3ed4 01       		.uleb128 0x1
 10872 3ed5 52       		.byte	0x52
 10873 3ed6 01       		.uleb128 0x1
 10874 3ed7 33       		.byte	0x33
 10875 3ed8 22       		.uleb128 0x22
 10876 3ed9 01       		.uleb128 0x1
 10877 3eda 51       		.byte	0x51
 10878 3edb 05       		.uleb128 0x5
 10879 3edc 03       		.byte	0x3
 10880 3edd 2A000000 		.4byte	.LC10
 10881 3ee1 00       		.byte	0
 10882 3ee2 21       		.uleb128 0x21
 10883 3ee3 D0040000 		.4byte	.LVL235
 10884 3ee7 B5460000 		.4byte	0x46b5
 10885 3eeb F73E0000 		.4byte	0x3ef7
 10886 3eef 22       		.uleb128 0x22
 10887 3ef0 01       		.uleb128 0x1
 10888 3ef1 50       		.byte	0x50
 10889 3ef2 03       		.uleb128 0x3
 10890 3ef3 91       		.byte	0x91
 10891 3ef4 B07F     		.sleb128 -80
ARM GAS  C:\Users\AHMED~1.ELE\AppData\Local\Temp\cckRh1xc.s 			page 218


 10892 3ef6 00       		.byte	0
 10893 3ef7 21       		.uleb128 0x21
 10894 3ef8 E8040000 		.4byte	.LVL236
 10895 3efc F9430000 		.4byte	0x43f9
 10896 3f00 103F0000 		.4byte	0x3f10
 10897 3f04 22       		.uleb128 0x22
 10898 3f05 01       		.uleb128 0x1
 10899 3f06 52       		.byte	0x52
 10900 3f07 01       		.uleb128 0x1
 10901 3f08 36       		.byte	0x36
 10902 3f09 22       		.uleb128 0x22
 10903 3f0a 01       		.uleb128 0x1
 10904 3f0b 51       		.byte	0x51
 10905 3f0c 02       		.uleb128 0x2
 10906 3f0d 75       		.byte	0x75
 10907 3f0e 00       		.sleb128 0
 10908 3f0f 00       		.byte	0
 10909 3f10 21       		.uleb128 0x21
 10910 3f11 08050000 		.4byte	.LVL237
 10911 3f15 F9430000 		.4byte	0x43f9
 10912 3f19 2C3F0000 		.4byte	0x3f2c
 10913 3f1d 22       		.uleb128 0x22
 10914 3f1e 01       		.uleb128 0x1
 10915 3f1f 52       		.byte	0x52
 10916 3f20 01       		.uleb128 0x1
 10917 3f21 33       		.byte	0x33
 10918 3f22 22       		.uleb128 0x22
 10919 3f23 01       		.uleb128 0x1
 10920 3f24 51       		.byte	0x51
 10921 3f25 05       		.uleb128 0x5
 10922 3f26 03       		.byte	0x3
 10923 3f27 2E000000 		.4byte	.LC11
 10924 3f2b 00       		.byte	0
 10925 3f2c 21       		.uleb128 0x21
 10926 3f2d 12050000 		.4byte	.LVL238
 10927 3f31 B5460000 		.4byte	0x46b5
 10928 3f35 413F0000 		.4byte	0x3f41
 10929 3f39 22       		.uleb128 0x22
 10930 3f3a 01       		.uleb128 0x1
 10931 3f3b 50       		.byte	0x50
 10932 3f3c 03       		.uleb128 0x3
 10933 3f3d 91       		.byte	0x91
 10934 3f3e B07F     		.sleb128 -80
 10935 3f40 00       		.byte	0
 10936 3f41 21       		.uleb128 0x21
 10937 3f42 28050000 		.4byte	.LVL239
 10938 3f46 F9430000 		.4byte	0x43f9
 10939 3f4a 5A3F0000 		.4byte	0x3f5a
 10940 3f4e 22       		.uleb128 0x22
 10941 3f4f 01       		.uleb128 0x1
 10942 3f50 52       		.byte	0x52
 10943 3f51 01       		.uleb128 0x1
 10944 3f52 36       		.byte	0x36
 10945 3f53 22       		.uleb128 0x22
 10946 3f54 01       		.uleb128 0x1
 10947 3f55 51       		.byte	0x51
 10948 3f56 02       		.uleb128 0x2
ARM GAS  C:\Users\AHMED~1.ELE\AppData\Local\Temp\cckRh1xc.s 			page 219


 10949 3f57 75       		.byte	0x75
 10950 3f58 00       		.sleb128 0
 10951 3f59 00       		.byte	0
 10952 3f5a 21       		.uleb128 0x21
 10953 3f5b 3C050000 		.4byte	.LVL240
 10954 3f5f F9430000 		.4byte	0x43f9
 10955 3f63 763F0000 		.4byte	0x3f76
 10956 3f67 22       		.uleb128 0x22
 10957 3f68 01       		.uleb128 0x1
 10958 3f69 52       		.byte	0x52
 10959 3f6a 01       		.uleb128 0x1
 10960 3f6b 33       		.byte	0x33
 10961 3f6c 22       		.uleb128 0x22
 10962 3f6d 01       		.uleb128 0x1
 10963 3f6e 51       		.byte	0x51
 10964 3f6f 05       		.uleb128 0x5
 10965 3f70 03       		.byte	0x3
 10966 3f71 3E000000 		.4byte	.LANCHOR0+62
 10967 3f75 00       		.byte	0
 10968 3f76 21       		.uleb128 0x21
 10969 3f77 54050000 		.4byte	.LVL241
 10970 3f7b F9430000 		.4byte	0x43f9
 10971 3f7f 923F0000 		.4byte	0x3f92
 10972 3f83 22       		.uleb128 0x22
 10973 3f84 01       		.uleb128 0x1
 10974 3f85 52       		.byte	0x52
 10975 3f86 01       		.uleb128 0x1
 10976 3f87 33       		.byte	0x33
 10977 3f88 22       		.uleb128 0x22
 10978 3f89 01       		.uleb128 0x1
 10979 3f8a 51       		.byte	0x51
 10980 3f8b 05       		.uleb128 0x5
 10981 3f8c 03       		.byte	0x3
 10982 3f8d 2A000000 		.4byte	.LC10
 10983 3f91 00       		.byte	0
 10984 3f92 21       		.uleb128 0x21
 10985 3f93 5E050000 		.4byte	.LVL242
 10986 3f97 B5460000 		.4byte	0x46b5
 10987 3f9b A73F0000 		.4byte	0x3fa7
 10988 3f9f 22       		.uleb128 0x22
 10989 3fa0 01       		.uleb128 0x1
 10990 3fa1 50       		.byte	0x50
 10991 3fa2 03       		.uleb128 0x3
 10992 3fa3 91       		.byte	0x91
 10993 3fa4 B07F     		.sleb128 -80
 10994 3fa6 00       		.byte	0
 10995 3fa7 21       		.uleb128 0x21
 10996 3fa8 72050000 		.4byte	.LVL243
 10997 3fac F9430000 		.4byte	0x43f9
 10998 3fb0 C13F0000 		.4byte	0x3fc1
 10999 3fb4 22       		.uleb128 0x22
 11000 3fb5 01       		.uleb128 0x1
 11001 3fb6 52       		.byte	0x52
 11002 3fb7 01       		.uleb128 0x1
 11003 3fb8 36       		.byte	0x36
 11004 3fb9 22       		.uleb128 0x22
 11005 3fba 01       		.uleb128 0x1
ARM GAS  C:\Users\AHMED~1.ELE\AppData\Local\Temp\cckRh1xc.s 			page 220


 11006 3fbb 51       		.byte	0x51
 11007 3fbc 03       		.uleb128 0x3
 11008 3fbd 91       		.byte	0x91
 11009 3fbe B47F     		.sleb128 -76
 11010 3fc0 00       		.byte	0
 11011 3fc1 21       		.uleb128 0x21
 11012 3fc2 82050000 		.4byte	.LVL244
 11013 3fc6 F9430000 		.4byte	0x43f9
 11014 3fca DD3F0000 		.4byte	0x3fdd
 11015 3fce 22       		.uleb128 0x22
 11016 3fcf 01       		.uleb128 0x1
 11017 3fd0 52       		.byte	0x52
 11018 3fd1 01       		.uleb128 0x1
 11019 3fd2 33       		.byte	0x33
 11020 3fd3 22       		.uleb128 0x22
 11021 3fd4 01       		.uleb128 0x1
 11022 3fd5 51       		.byte	0x51
 11023 3fd6 05       		.uleb128 0x5
 11024 3fd7 03       		.byte	0x3
 11025 3fd8 3E000000 		.4byte	.LANCHOR0+62
 11026 3fdc 00       		.byte	0
 11027 3fdd 21       		.uleb128 0x21
 11028 3fde C4050000 		.4byte	.LVL245
 11029 3fe2 F9430000 		.4byte	0x43f9
 11030 3fe6 F93F0000 		.4byte	0x3ff9
 11031 3fea 22       		.uleb128 0x22
 11032 3feb 01       		.uleb128 0x1
 11033 3fec 52       		.byte	0x52
 11034 3fed 01       		.uleb128 0x1
 11035 3fee 33       		.byte	0x33
 11036 3fef 22       		.uleb128 0x22
 11037 3ff0 01       		.uleb128 0x1
 11038 3ff1 51       		.byte	0x51
 11039 3ff2 05       		.uleb128 0x5
 11040 3ff3 03       		.byte	0x3
 11041 3ff4 2A000000 		.4byte	.LC10
 11042 3ff8 00       		.byte	0
 11043 3ff9 21       		.uleb128 0x21
 11044 3ffa CE050000 		.4byte	.LVL246
 11045 3ffe B5460000 		.4byte	0x46b5
 11046 4002 0E400000 		.4byte	0x400e
 11047 4006 22       		.uleb128 0x22
 11048 4007 01       		.uleb128 0x1
 11049 4008 50       		.byte	0x50
 11050 4009 03       		.uleb128 0x3
 11051 400a 91       		.byte	0x91
 11052 400b B07F     		.sleb128 -80
 11053 400d 00       		.byte	0
 11054 400e 21       		.uleb128 0x21
 11055 400f E2050000 		.4byte	.LVL247
 11056 4013 F9430000 		.4byte	0x43f9
 11057 4017 28400000 		.4byte	0x4028
 11058 401b 22       		.uleb128 0x22
 11059 401c 01       		.uleb128 0x1
 11060 401d 52       		.byte	0x52
 11061 401e 01       		.uleb128 0x1
 11062 401f 36       		.byte	0x36
ARM GAS  C:\Users\AHMED~1.ELE\AppData\Local\Temp\cckRh1xc.s 			page 221


 11063 4020 22       		.uleb128 0x22
 11064 4021 01       		.uleb128 0x1
 11065 4022 51       		.byte	0x51
 11066 4023 03       		.uleb128 0x3
 11067 4024 91       		.byte	0x91
 11068 4025 B47F     		.sleb128 -76
 11069 4027 00       		.byte	0
 11070 4028 21       		.uleb128 0x21
 11071 4029 F2050000 		.4byte	.LVL248
 11072 402d F9430000 		.4byte	0x43f9
 11073 4031 44400000 		.4byte	0x4044
 11074 4035 22       		.uleb128 0x22
 11075 4036 01       		.uleb128 0x1
 11076 4037 52       		.byte	0x52
 11077 4038 01       		.uleb128 0x1
 11078 4039 32       		.byte	0x32
 11079 403a 22       		.uleb128 0x22
 11080 403b 01       		.uleb128 0x1
 11081 403c 51       		.byte	0x51
 11082 403d 05       		.uleb128 0x5
 11083 403e 03       		.byte	0x3
 11084 403f 32000000 		.4byte	.LC13
 11085 4043 00       		.byte	0
 11086 4044 23       		.uleb128 0x23
 11087 4045 FA050000 		.4byte	.LVL249
 11088 4049 10360000 		.4byte	0x3610
 11089 404d 23       		.uleb128 0x23
 11090 404e 08060000 		.4byte	.LVL250
 11091 4052 CB460000 		.4byte	0x46cb
 11092 4056 21       		.uleb128 0x21
 11093 4057 10060000 		.4byte	.LVL251
 11094 405b 122B0000 		.4byte	0x2b12
 11095 405f 6A400000 		.4byte	0x406a
 11096 4063 22       		.uleb128 0x22
 11097 4064 01       		.uleb128 0x1
 11098 4065 50       		.byte	0x50
 11099 4066 02       		.uleb128 0x2
 11100 4067 76       		.byte	0x76
 11101 4068 00       		.sleb128 0
 11102 4069 00       		.byte	0
 11103 406a 23       		.uleb128 0x23
 11104 406b 1C060000 		.4byte	.LVL252
 11105 406f E22A0000 		.4byte	0x2ae2
 11106 4073 21       		.uleb128 0x21
 11107 4074 26060000 		.4byte	.LVL253
 11108 4078 16440000 		.4byte	0x4416
 11109 407c 87400000 		.4byte	0x4087
 11110 4080 22       		.uleb128 0x22
 11111 4081 01       		.uleb128 0x1
 11112 4082 50       		.byte	0x50
 11113 4083 02       		.uleb128 0x2
 11114 4084 08       		.byte	0x8
 11115 4085 74       		.byte	0x74
 11116 4086 00       		.byte	0
 11117 4087 21       		.uleb128 0x21
 11118 4088 32060000 		.4byte	.LVL254
 11119 408c 2B440000 		.4byte	0x442b
ARM GAS  C:\Users\AHMED~1.ELE\AppData\Local\Temp\cckRh1xc.s 			page 222


 11120 4090 A3400000 		.4byte	0x40a3
 11121 4094 22       		.uleb128 0x22
 11122 4095 01       		.uleb128 0x1
 11123 4096 52       		.byte	0x52
 11124 4097 03       		.uleb128 0x3
 11125 4098 0A       		.byte	0xa
 11126 4099 0010     		.2byte	0x1000
 11127 409b 22       		.uleb128 0x22
 11128 409c 01       		.uleb128 0x1
 11129 409d 51       		.byte	0x51
 11130 409e 03       		.uleb128 0x3
 11131 409f 0A       		.byte	0xa
 11132 40a0 0005     		.2byte	0x500
 11133 40a2 00       		.byte	0
 11134 40a3 21       		.uleb128 0x21
 11135 40a4 40060000 		.4byte	.LVL255
 11136 40a8 17460000 		.4byte	0x4617
 11137 40ac B7400000 		.4byte	0x40b7
 11138 40b0 22       		.uleb128 0x22
 11139 40b1 01       		.uleb128 0x1
 11140 40b2 51       		.byte	0x51
 11141 40b3 02       		.uleb128 0x2
 11142 40b4 75       		.byte	0x75
 11143 40b5 00       		.sleb128 0
 11144 40b6 00       		.byte	0
 11145 40b7 21       		.uleb128 0x21
 11146 40b8 4E060000 		.4byte	.LVL256
 11147 40bc 64430000 		.4byte	0x4364
 11148 40c0 E2400000 		.4byte	0x40e2
 11149 40c4 22       		.uleb128 0x22
 11150 40c5 01       		.uleb128 0x1
 11151 40c6 53       		.byte	0x53
 11152 40c7 02       		.uleb128 0x2
 11153 40c8 75       		.byte	0x75
 11154 40c9 00       		.sleb128 0
 11155 40ca 22       		.uleb128 0x22
 11156 40cb 01       		.uleb128 0x1
 11157 40cc 52       		.byte	0x52
 11158 40cd 02       		.uleb128 0x2
 11159 40ce 75       		.byte	0x75
 11160 40cf 00       		.sleb128 0
 11161 40d0 22       		.uleb128 0x22
 11162 40d1 01       		.uleb128 0x1
 11163 40d2 51       		.byte	0x51
 11164 40d3 01       		.uleb128 0x1
 11165 40d4 39       		.byte	0x39
 11166 40d5 22       		.uleb128 0x22
 11167 40d6 01       		.uleb128 0x1
 11168 40d7 50       		.byte	0x50
 11169 40d8 01       		.uleb128 0x1
 11170 40d9 40       		.byte	0x40
 11171 40da 22       		.uleb128 0x22
 11172 40db 02       		.uleb128 0x2
 11173 40dc 7D       		.byte	0x7d
 11174 40dd 00       		.sleb128 0
 11175 40de 02       		.uleb128 0x2
 11176 40df 75       		.byte	0x75
ARM GAS  C:\Users\AHMED~1.ELE\AppData\Local\Temp\cckRh1xc.s 			page 223


 11177 40e0 00       		.sleb128 0
 11178 40e1 00       		.byte	0
 11179 40e2 23       		.uleb128 0x23
 11180 40e3 C8060000 		.4byte	.LVL262
 11181 40e7 D6460000 		.4byte	0x46d6
 11182 40eb 23       		.uleb128 0x23
 11183 40ec AE080000 		.4byte	.LVL288
 11184 40f0 AD2D0000 		.4byte	0x2dad
 11185 40f4 00       		.byte	0
 11186 40f5 28       		.uleb128 0x28
 11187 40f6 E5010000 		.4byte	.LASF1087
 11188 40fa 01       		.byte	0x1
 11189 40fb EB03     		.2byte	0x3eb
 11190 40fd B8000000 		.4byte	0xb8
 11191 4101 00000000 		.4byte	.LFB23
 11192 4105 48010000 		.4byte	.LFE23-.LFB23
 11193 4109 01       		.uleb128 0x1
 11194 410a 9C       		.byte	0x9c
 11195 410b 71420000 		.4byte	0x4271
 11196 410f 20       		.uleb128 0x20
 11197 4110 F61F0000 		.4byte	.LASF1088
 11198 4114 01       		.byte	0x1
 11199 4115 EB03     		.2byte	0x3eb
 11200 4117 B8000000 		.4byte	0xb8
 11201 411b C1060000 		.4byte	.LLST43
 11202 411f 2B       		.uleb128 0x2b
 11203 4120 511D0000 		.4byte	.LASF1089
 11204 4124 01       		.byte	0x1
 11205 4125 ED03     		.2byte	0x3ed
 11206 4127 A2000000 		.4byte	0xa2
 11207 412b E2060000 		.4byte	.LLST44
 11208 412f 23       		.uleb128 0x23
 11209 4130 18000000 		.4byte	.LVL292
 11210 4134 DD460000 		.4byte	0x46dd
 11211 4138 23       		.uleb128 0x23
 11212 4139 2A000000 		.4byte	.LVL293
 11213 413d E8460000 		.4byte	0x46e8
 11214 4141 21       		.uleb128 0x21
 11215 4142 32000000 		.4byte	.LVL294
 11216 4146 16440000 		.4byte	0x4416
 11217 414a 55410000 		.4byte	0x4155
 11218 414e 22       		.uleb128 0x22
 11219 414f 01       		.uleb128 0x1
 11220 4150 50       		.byte	0x50
 11221 4151 02       		.uleb128 0x2
 11222 4152 08       		.byte	0x8
 11223 4153 22       		.byte	0x22
 11224 4154 00       		.byte	0
 11225 4155 23       		.uleb128 0x23
 11226 4156 36000000 		.4byte	.LVL295
 11227 415a 8A440000 		.4byte	0x448a
 11228 415e 23       		.uleb128 0x23
 11229 415f 3C000000 		.4byte	.LVL296
 11230 4163 F3460000 		.4byte	0x46f3
 11231 4167 23       		.uleb128 0x23
 11232 4168 46000000 		.4byte	.LVL297
 11233 416c 16440000 		.4byte	0x4416
ARM GAS  C:\Users\AHMED~1.ELE\AppData\Local\Temp\cckRh1xc.s 			page 224


 11234 4170 23       		.uleb128 0x23
 11235 4171 4C000000 		.4byte	.LVL298
 11236 4175 8A440000 		.4byte	0x448a
 11237 4179 21       		.uleb128 0x21
 11238 417a 5C000000 		.4byte	.LVL299
 11239 417e 64430000 		.4byte	0x4364
 11240 4182 92410000 		.4byte	0x4192
 11241 4186 22       		.uleb128 0x22
 11242 4187 01       		.uleb128 0x1
 11243 4188 51       		.byte	0x51
 11244 4189 02       		.uleb128 0x2
 11245 418a 08       		.byte	0x8
 11246 418b 28       		.byte	0x28
 11247 418c 22       		.uleb128 0x22
 11248 418d 01       		.uleb128 0x1
 11249 418e 50       		.byte	0x50
 11250 418f 01       		.uleb128 0x1
 11251 4190 40       		.byte	0x40
 11252 4191 00       		.byte	0
 11253 4192 23       		.uleb128 0x23
 11254 4193 68000000 		.4byte	.LVL300
 11255 4197 FE460000 		.4byte	0x46fe
 11256 419b 21       		.uleb128 0x21
 11257 419c 86000000 		.4byte	.LVL301
 11258 41a0 09470000 		.4byte	0x4709
 11259 41a4 AF410000 		.4byte	0x41af
 11260 41a8 22       		.uleb128 0x22
 11261 41a9 01       		.uleb128 0x1
 11262 41aa 50       		.byte	0x50
 11263 41ab 02       		.uleb128 0x2
 11264 41ac 74       		.byte	0x74
 11265 41ad 00       		.sleb128 0
 11266 41ae 00       		.byte	0
 11267 41af 21       		.uleb128 0x21
 11268 41b0 8C000000 		.4byte	.LVL302
 11269 41b4 84450000 		.4byte	0x4584
 11270 41b8 C3410000 		.4byte	0x41c3
 11271 41bc 22       		.uleb128 0x22
 11272 41bd 01       		.uleb128 0x1
 11273 41be 50       		.byte	0x50
 11274 41bf 02       		.uleb128 0x2
 11275 41c0 74       		.byte	0x74
 11276 41c1 00       		.sleb128 0
 11277 41c2 00       		.byte	0
 11278 41c3 21       		.uleb128 0x21
 11279 41c4 9C000000 		.4byte	.LVL303
 11280 41c8 64430000 		.4byte	0x4364
 11281 41cc F0410000 		.4byte	0x41f0
 11282 41d0 22       		.uleb128 0x22
 11283 41d1 01       		.uleb128 0x1
 11284 41d2 53       		.byte	0x53
 11285 41d3 02       		.uleb128 0x2
 11286 41d4 74       		.byte	0x74
 11287 41d5 00       		.sleb128 0
 11288 41d6 22       		.uleb128 0x22
 11289 41d7 01       		.uleb128 0x1
 11290 41d8 52       		.byte	0x52
ARM GAS  C:\Users\AHMED~1.ELE\AppData\Local\Temp\cckRh1xc.s 			page 225


 11291 41d9 03       		.uleb128 0x3
 11292 41da 0A       		.byte	0xa
 11293 41db 0003     		.2byte	0x300
 11294 41dd 22       		.uleb128 0x22
 11295 41de 01       		.uleb128 0x1
 11296 41df 51       		.byte	0x51
 11297 41e0 02       		.uleb128 0x2
 11298 41e1 08       		.byte	0x8
 11299 41e2 23       		.byte	0x23
 11300 41e3 22       		.uleb128 0x22
 11301 41e4 01       		.uleb128 0x1
 11302 41e5 50       		.byte	0x50
 11303 41e6 01       		.uleb128 0x1
 11304 41e7 3F       		.byte	0x3f
 11305 41e8 22       		.uleb128 0x22
 11306 41e9 02       		.uleb128 0x2
 11307 41ea 7D       		.byte	0x7d
 11308 41eb 00       		.sleb128 0
 11309 41ec 02       		.uleb128 0x2
 11310 41ed 74       		.byte	0x74
 11311 41ee 00       		.sleb128 0
 11312 41ef 00       		.byte	0
 11313 41f0 21       		.uleb128 0x21
 11314 41f1 A2000000 		.4byte	.LVL304
 11315 41f5 16440000 		.4byte	0x4416
 11316 41f9 04420000 		.4byte	0x4204
 11317 41fd 22       		.uleb128 0x22
 11318 41fe 01       		.uleb128 0x1
 11319 41ff 50       		.byte	0x50
 11320 4200 02       		.uleb128 0x2
 11321 4201 08       		.byte	0x8
 11322 4202 87       		.byte	0x87
 11323 4203 00       		.byte	0
 11324 4204 21       		.uleb128 0x21
 11325 4205 AE000000 		.4byte	.LVL305
 11326 4209 2B440000 		.4byte	0x442b
 11327 420d 20420000 		.4byte	0x4220
 11328 4211 22       		.uleb128 0x22
 11329 4212 01       		.uleb128 0x1
 11330 4213 52       		.byte	0x52
 11331 4214 03       		.uleb128 0x3
 11332 4215 0A       		.byte	0xa
 11333 4216 0010     		.2byte	0x1000
 11334 4218 22       		.uleb128 0x22
 11335 4219 01       		.uleb128 0x1
 11336 421a 51       		.byte	0x51
 11337 421b 03       		.uleb128 0x3
 11338 421c 0A       		.byte	0xa
 11339 421d 0005     		.2byte	0x500
 11340 421f 00       		.byte	0
 11341 4220 23       		.uleb128 0x23
 11342 4221 B2000000 		.4byte	.LVL306
 11343 4225 1E470000 		.4byte	0x471e
 11344 4229 23       		.uleb128 0x23
 11345 422a B6000000 		.4byte	.LVL307
 11346 422e 01370000 		.4byte	0x3701
 11347 4232 21       		.uleb128 0x21
ARM GAS  C:\Users\AHMED~1.ELE\AppData\Local\Temp\cckRh1xc.s 			page 226


 11348 4233 EE000000 		.4byte	.LVL309
 11349 4237 46440000 		.4byte	0x4446
 11350 423b 46420000 		.4byte	0x4246
 11351 423f 22       		.uleb128 0x22
 11352 4240 01       		.uleb128 0x1
 11353 4241 50       		.byte	0x50
 11354 4242 02       		.uleb128 0x2
 11355 4243 08       		.byte	0x8
 11356 4244 C1       		.byte	0xc1
 11357 4245 00       		.byte	0
 11358 4246 21       		.uleb128 0x21
 11359 4247 F6000000 		.4byte	.LVL310
 11360 424b 25470000 		.4byte	0x4725
 11361 424f 5E420000 		.4byte	0x425e
 11362 4253 22       		.uleb128 0x22
 11363 4254 01       		.uleb128 0x1
 11364 4255 51       		.byte	0x51
 11365 4256 01       		.uleb128 0x1
 11366 4257 31       		.byte	0x31
 11367 4258 22       		.uleb128 0x22
 11368 4259 01       		.uleb128 0x1
 11369 425a 50       		.byte	0x50
 11370 425b 01       		.uleb128 0x1
 11371 425c 30       		.byte	0x30
 11372 425d 00       		.byte	0
 11373 425e 23       		.uleb128 0x23
 11374 425f 18010000 		.4byte	.LVL311
 11375 4263 3F470000 		.4byte	0x473f
 11376 4267 23       		.uleb128 0x23
 11377 4268 36010000 		.4byte	.LVL312
 11378 426c 54470000 		.4byte	0x4754
 11379 4270 00       		.byte	0
 11380 4271 2C       		.uleb128 0x2c
 11381 4272 E8400000 		.4byte	.LASF1090
 11382 4276 01       		.byte	0x1
 11383 4277 3C04     		.2byte	0x43c
 11384 4279 00000000 		.4byte	.LFB24
 11385 427d 48000000 		.4byte	.LFE24-.LFB24
 11386 4281 01       		.uleb128 0x1
 11387 4282 9C       		.byte	0x9c
 11388 4283 CF420000 		.4byte	0x42cf
 11389 4287 2B       		.uleb128 0x2b
 11390 4288 3E2F0000 		.4byte	.LASF1091
 11391 428c 01       		.byte	0x1
 11392 428d 3E04     		.2byte	0x43e
 11393 428f A2000000 		.4byte	0xa2
 11394 4293 F5060000 		.4byte	.LLST45
 11395 4297 21       		.uleb128 0x21
 11396 4298 22000000 		.4byte	.LVL314
 11397 429c F9430000 		.4byte	0x43f9
 11398 42a0 B4420000 		.4byte	0x42b4
 11399 42a4 22       		.uleb128 0x22
 11400 42a5 01       		.uleb128 0x1
 11401 42a6 52       		.byte	0x52
 11402 42a7 02       		.uleb128 0x2
 11403 42a8 08       		.byte	0x8
 11404 42a9 49       		.byte	0x49
ARM GAS  C:\Users\AHMED~1.ELE\AppData\Local\Temp\cckRh1xc.s 			page 227


 11405 42aa 22       		.uleb128 0x22
 11406 42ab 01       		.uleb128 0x1
 11407 42ac 51       		.byte	0x51
 11408 42ad 05       		.uleb128 0x5
 11409 42ae 03       		.byte	0x3
 11410 42af 42000000 		.4byte	.LANCHOR0+66
 11411 42b3 00       		.byte	0
 11412 42b4 24       		.uleb128 0x24
 11413 42b5 3C000000 		.4byte	.LVL316
 11414 42b9 64430000 		.4byte	0x4364
 11415 42bd 22       		.uleb128 0x22
 11416 42be 01       		.uleb128 0x1
 11417 42bf 52       		.byte	0x52
 11418 42c0 02       		.uleb128 0x2
 11419 42c1 08       		.byte	0x8
 11420 42c2 80       		.byte	0x80
 11421 42c3 22       		.uleb128 0x22
 11422 42c4 01       		.uleb128 0x1
 11423 42c5 51       		.byte	0x51
 11424 42c6 01       		.uleb128 0x1
 11425 42c7 31       		.byte	0x31
 11426 42c8 22       		.uleb128 0x22
 11427 42c9 01       		.uleb128 0x1
 11428 42ca 50       		.byte	0x50
 11429 42cb 01       		.uleb128 0x1
 11430 42cc 3E       		.byte	0x3e
 11431 42cd 00       		.byte	0
 11432 42ce 00       		.byte	0
 11433 42cf 49       		.uleb128 0x49
 11434 42d0 D82C0000 		.4byte	.LASF1092
 11435 42d4 01       		.byte	0x1
 11436 42d5 3F       		.byte	0x3f
 11437 42d6 97000000 		.4byte	0x97
 11438 42da 05       		.uleb128 0x5
 11439 42db 03       		.byte	0x3
 11440 42dc 00000000 		.4byte	bAcceptReferral
 11441 42e0 4A       		.uleb128 0x4a
 11442 42e1 4D280000 		.4byte	.LASF1093
 11443 42e5 0F       		.byte	0xf
 11444 42e6 3E       		.byte	0x3e
 11445 42e7 5D000000 		.4byte	0x5d
 11446 42eb 4A       		.uleb128 0x4a
 11447 42ec DA1C0000 		.4byte	.LASF1094
 11448 42f0 0C       		.byte	0xc
 11449 42f1 B9       		.byte	0xb9
 11450 42f2 F6420000 		.4byte	0x42f6
 11451 42f6 06       		.uleb128 0x6
 11452 42f7 04       		.byte	0x4
 11453 42f8 C4240000 		.4byte	0x24c4
 11454 42fc 4A       		.uleb128 0x4a
 11455 42fd 19260000 		.4byte	.LASF1095
 11456 4301 0E       		.byte	0xe
 11457 4302 53       		.byte	0x53
 11458 4303 AE2A0000 		.4byte	0x2aae
 11459 4307 4B       		.uleb128 0x4b
 11460 4308 1F410000 		.4byte	.LASF1096
 11461 430c 01       		.byte	0x1
ARM GAS  C:\Users\AHMED~1.ELE\AppData\Local\Temp\cckRh1xc.s 			page 228


 11462 430d 40       		.byte	0x40
 11463 430e 97000000 		.4byte	0x97
 11464 4312 05       		.uleb128 0x5
 11465 4313 03       		.byte	0x3
 11466 4314 00000000 		.4byte	gIsMaestro
 11467 4318 08       		.uleb128 0x8
 11468 4319 AD000000 		.4byte	0xad
 11469 431d 28430000 		.4byte	0x4328
 11470 4321 09       		.uleb128 0x9
 11471 4322 78000000 		.4byte	0x78
 11472 4326 16       		.byte	0x16
 11473 4327 00       		.byte	0
 11474 4328 4B       		.uleb128 0x4b
 11475 4329 BA440000 		.4byte	.LASF1097
 11476 432d 01       		.byte	0x1
 11477 432e 56       		.byte	0x56
 11478 432f 39430000 		.4byte	0x4339
 11479 4333 05       		.uleb128 0x5
 11480 4334 03       		.byte	0x3
 11481 4335 00000000 		.4byte	wVMOnlineTags
 11482 4339 07       		.uleb128 0x7
 11483 433a 18430000 		.4byte	0x4318
 11484 433e 08       		.uleb128 0x8
 11485 433f A2000000 		.4byte	0xa2
 11486 4343 4E430000 		.4byte	0x434e
 11487 4347 09       		.uleb128 0x9
 11488 4348 78000000 		.4byte	0x78
 11489 434c 48       		.byte	0x48
 11490 434d 00       		.byte	0
 11491 434e 4B       		.uleb128 0x4b
 11492 434f EC3B0000 		.4byte	.LASF1098
 11493 4353 01       		.byte	0x1
 11494 4354 70       		.byte	0x70
 11495 4355 5F430000 		.4byte	0x435f
 11496 4359 05       		.uleb128 0x5
 11497 435a 03       		.byte	0x3
 11498 435b 00000000 		.4byte	KPinMsg
 11499 435f 07       		.uleb128 0x7
 11500 4360 3E430000 		.4byte	0x433e
 11501 4364 4C       		.uleb128 0x4c
 11502 4365 BC250000 		.4byte	.LASF1100
 11503 4369 05       		.byte	0x5
 11504 436a A0       		.byte	0xa0
 11505 436b B8000000 		.4byte	0xb8
 11506 436f 8D430000 		.4byte	0x438d
 11507 4373 4D       		.uleb128 0x4d
 11508 4374 B8000000 		.4byte	0xb8
 11509 4378 4D       		.uleb128 0x4d
 11510 4379 B8000000 		.4byte	0xb8
 11511 437d 4D       		.uleb128 0x4d
 11512 437e B8000000 		.4byte	0xb8
 11513 4382 4D       		.uleb128 0x4d
 11514 4383 B8000000 		.4byte	0xb8
 11515 4387 4D       		.uleb128 0x4d
 11516 4388 B8000000 		.4byte	0xb8
 11517 438c 00       		.byte	0
 11518 438d 4E       		.uleb128 0x4e
ARM GAS  C:\Users\AHMED~1.ELE\AppData\Local\Temp\cckRh1xc.s 			page 229


 11519 438e 20400000 		.4byte	.LASF1117
 11520 4392 07       		.byte	0x7
 11521 4393 2F       		.byte	0x2f
 11522 4394 4F       		.uleb128 0x4f
 11523 4395 B52C0000 		.4byte	.LASF1105
 11524 4399 11       		.byte	0x11
 11525 439a 2D       		.byte	0x2d
 11526 439b A5430000 		.4byte	0x43a5
 11527 439f 4D       		.uleb128 0x4d
 11528 43a0 A2000000 		.4byte	0xa2
 11529 43a4 00       		.byte	0
 11530 43a5 4C       		.uleb128 0x4c
 11531 43a6 A8300000 		.4byte	.LASF1101
 11532 43aa 10       		.byte	0x10
 11533 43ab 3D       		.byte	0x3d
 11534 43ac AD000000 		.4byte	0xad
 11535 43b0 BA430000 		.4byte	0x43ba
 11536 43b4 4D       		.uleb128 0x4d
 11537 43b5 E9000000 		.4byte	0xe9
 11538 43b9 00       		.byte	0
 11539 43ba 4C       		.uleb128 0x4c
 11540 43bb 6A1B0000 		.4byte	.LASF1102
 11541 43bf 10       		.byte	0x10
 11542 43c0 3F       		.byte	0x3f
 11543 43c1 AD000000 		.4byte	0xad
 11544 43c5 CF430000 		.4byte	0x43cf
 11545 43c9 4D       		.uleb128 0x4d
 11546 43ca E9000000 		.4byte	0xe9
 11547 43ce 00       		.byte	0
 11548 43cf 4C       		.uleb128 0x4c
 11549 43d0 060F0000 		.4byte	.LASF1103
 11550 43d4 10       		.byte	0x10
 11551 43d5 40       		.byte	0x40
 11552 43d6 E9000000 		.4byte	0xe9
 11553 43da E4430000 		.4byte	0x43e4
 11554 43de 4D       		.uleb128 0x4d
 11555 43df E9000000 		.4byte	0xe9
 11556 43e3 00       		.byte	0
 11557 43e4 4C       		.uleb128 0x4c
 11558 43e5 AC1B0000 		.4byte	.LASF1104
 11559 43e9 10       		.byte	0x10
 11560 43ea 3B       		.byte	0x3b
 11561 43eb AD000000 		.4byte	0xad
 11562 43ef F9430000 		.4byte	0x43f9
 11563 43f3 4D       		.uleb128 0x4d
 11564 43f4 E9000000 		.4byte	0xe9
 11565 43f8 00       		.byte	0
 11566 43f9 50       		.uleb128 0x50
 11567 43fa C8180000 		.4byte	.LASF1106
 11568 43fe 76000000 		.4byte	0x76
 11569 4402 16440000 		.4byte	0x4416
 11570 4406 4D       		.uleb128 0x4d
 11571 4407 76000000 		.4byte	0x76
 11572 440b 4D       		.uleb128 0x4d
 11573 440c 1C0E0000 		.4byte	0xe1c
 11574 4410 4D       		.uleb128 0x4d
 11575 4411 78000000 		.4byte	0x78
ARM GAS  C:\Users\AHMED~1.ELE\AppData\Local\Temp\cckRh1xc.s 			page 230


 11576 4415 00       		.byte	0
 11577 4416 4C       		.uleb128 0x4c
 11578 4417 2E0D0000 		.4byte	.LASF1107
 11579 441b 08       		.byte	0x8
 11580 441c E5       		.byte	0xe5
 11581 441d E9000000 		.4byte	0xe9
 11582 4421 2B440000 		.4byte	0x442b
 11583 4425 4D       		.uleb128 0x4d
 11584 4426 B8000000 		.4byte	0xb8
 11585 442a 00       		.byte	0
 11586 442b 4F       		.uleb128 0x4f
 11587 442c F9450000 		.4byte	.LASF1108
 11588 4430 07       		.byte	0x7
 11589 4431 54       		.byte	0x54
 11590 4432 46440000 		.4byte	0x4446
 11591 4436 4D       		.uleb128 0x4d
 11592 4437 CE000000 		.4byte	0xce
 11593 443b 4D       		.uleb128 0x4d
 11594 443c B8000000 		.4byte	0xb8
 11595 4440 4D       		.uleb128 0x4d
 11596 4441 B8000000 		.4byte	0xb8
 11597 4445 00       		.byte	0
 11598 4446 4C       		.uleb128 0x4c
 11599 4447 642B0000 		.4byte	.LASF1109
 11600 444b 05       		.byte	0x5
 11601 444c A1       		.byte	0xa1
 11602 444d B8000000 		.4byte	0xb8
 11603 4451 5B440000 		.4byte	0x445b
 11604 4455 4D       		.uleb128 0x4d
 11605 4456 B8000000 		.4byte	0xb8
 11606 445a 00       		.byte	0
 11607 445b 4C       		.uleb128 0x4c
 11608 445c 4F440000 		.4byte	.LASF1110
 11609 4460 12       		.byte	0x12
 11610 4461 21       		.byte	0x21
 11611 4462 6B000000 		.4byte	0x6b
 11612 4466 70440000 		.4byte	0x4470
 11613 446a 4D       		.uleb128 0x4d
 11614 446b 8C000000 		.4byte	0x8c
 11615 446f 00       		.byte	0
 11616 4470 4C       		.uleb128 0x4c
 11617 4471 6E2B0000 		.4byte	.LASF1111
 11618 4475 05       		.byte	0x5
 11619 4476 A2       		.byte	0xa2
 11620 4477 B8000000 		.4byte	0xb8
 11621 447b 8A440000 		.4byte	0x448a
 11622 447f 4D       		.uleb128 0x4d
 11623 4480 B8000000 		.4byte	0xb8
 11624 4484 4D       		.uleb128 0x4d
 11625 4485 B8000000 		.4byte	0xb8
 11626 4489 00       		.byte	0
 11627 448a 4F       		.uleb128 0x4f
 11628 448b F0400000 		.4byte	.LASF1112
 11629 448f 0E       		.byte	0xe
 11630 4490 67       		.byte	0x67
 11631 4491 9B440000 		.4byte	0x449b
 11632 4495 4D       		.uleb128 0x4d
ARM GAS  C:\Users\AHMED~1.ELE\AppData\Local\Temp\cckRh1xc.s 			page 231


 11633 4496 CE000000 		.4byte	0xce
 11634 449a 00       		.byte	0
 11635 449b 4C       		.uleb128 0x4c
 11636 449c 0C020000 		.4byte	.LASF1113
 11637 44a0 12       		.byte	0x12
 11638 44a1 19       		.byte	0x19
 11639 44a2 76000000 		.4byte	0x76
 11640 44a6 BA440000 		.4byte	0x44ba
 11641 44aa 4D       		.uleb128 0x4d
 11642 44ab 76000000 		.4byte	0x76
 11643 44af 4D       		.uleb128 0x4d
 11644 44b0 5D000000 		.4byte	0x5d
 11645 44b4 4D       		.uleb128 0x4d
 11646 44b5 6B000000 		.4byte	0x6b
 11647 44b9 00       		.byte	0
 11648 44ba 51       		.uleb128 0x51
 11649 44bb 00170000 		.4byte	.LASF1125
 11650 44bf 16       		.byte	0x16
 11651 44c0 31       		.byte	0x31
 11652 44c1 97000000 		.4byte	0x97
 11653 44c5 4F       		.uleb128 0x4f
 11654 44c6 A7370000 		.4byte	.LASF1114
 11655 44ca 13       		.byte	0x13
 11656 44cb 29       		.byte	0x29
 11657 44cc E0440000 		.4byte	0x44e0
 11658 44d0 4D       		.uleb128 0x4d
 11659 44d1 E9000000 		.4byte	0xe9
 11660 44d5 4D       		.uleb128 0x4d
 11661 44d6 E9000000 		.4byte	0xe9
 11662 44da 4D       		.uleb128 0x4d
 11663 44db B8000000 		.4byte	0xb8
 11664 44df 00       		.byte	0
 11665 44e0 4C       		.uleb128 0x4c
 11666 44e1 582D0000 		.4byte	.LASF1115
 11667 44e5 13       		.byte	0x13
 11668 44e6 24       		.byte	0x24
 11669 44e7 B8000000 		.4byte	0xb8
 11670 44eb FF440000 		.4byte	0x44ff
 11671 44ef 4D       		.uleb128 0x4d
 11672 44f0 E9000000 		.4byte	0xe9
 11673 44f4 4D       		.uleb128 0x4d
 11674 44f5 B8000000 		.4byte	0xb8
 11675 44f9 4D       		.uleb128 0x4d
 11676 44fa B8000000 		.4byte	0xb8
 11677 44fe 00       		.byte	0
 11678 44ff 4C       		.uleb128 0x4c
 11679 4500 BD160000 		.4byte	.LASF1116
 11680 4504 12       		.byte	0x12
 11681 4505 16       		.byte	0x16
 11682 4506 5D000000 		.4byte	0x5d
 11683 450a 1E450000 		.4byte	0x451e
 11684 450e 4D       		.uleb128 0x4d
 11685 450f 1C0E0000 		.4byte	0xe1c
 11686 4513 4D       		.uleb128 0x4d
 11687 4514 1C0E0000 		.4byte	0xe1c
 11688 4518 4D       		.uleb128 0x4d
 11689 4519 6B000000 		.4byte	0x6b
ARM GAS  C:\Users\AHMED~1.ELE\AppData\Local\Temp\cckRh1xc.s 			page 232


 11690 451d 00       		.byte	0
 11691 451e 4E       		.uleb128 0x4e
 11692 451f C52F0000 		.4byte	.LASF1118
 11693 4523 0E       		.byte	0xe
 11694 4524 62       		.byte	0x62
 11695 4525 4C       		.uleb128 0x4c
 11696 4526 450F0000 		.4byte	.LASF1119
 11697 452a 14       		.byte	0x14
 11698 452b 33       		.byte	0x33
 11699 452c B8000000 		.4byte	0xb8
 11700 4530 3A450000 		.4byte	0x453a
 11701 4534 4D       		.uleb128 0x4d
 11702 4535 76000000 		.4byte	0x76
 11703 4539 00       		.byte	0
 11704 453a 4C       		.uleb128 0x4c
 11705 453b 38390000 		.4byte	.LASF1120
 11706 453f 14       		.byte	0x14
 11707 4540 36       		.byte	0x36
 11708 4541 B8000000 		.4byte	0xb8
 11709 4545 4F450000 		.4byte	0x454f
 11710 4549 4D       		.uleb128 0x4d
 11711 454a CE000000 		.4byte	0xce
 11712 454e 00       		.byte	0
 11713 454f 4C       		.uleb128 0x4c
 11714 4550 87150000 		.4byte	.LASF1121
 11715 4554 15       		.byte	0x15
 11716 4555 DD       		.byte	0xdd
 11717 4556 5D000000 		.4byte	0x5d
 11718 455a 6A450000 		.4byte	0x456a
 11719 455e 4D       		.uleb128 0x4d
 11720 455f 7F000000 		.4byte	0x7f
 11721 4563 4D       		.uleb128 0x4d
 11722 4564 8C000000 		.4byte	0x8c
 11723 4568 52       		.uleb128 0x52
 11724 4569 00       		.byte	0
 11725 456a 4C       		.uleb128 0x4c
 11726 456b 30390000 		.4byte	.LASF1122
 11727 456f 14       		.byte	0x14
 11728 4570 35       		.byte	0x35
 11729 4571 B8000000 		.4byte	0xb8
 11730 4575 84450000 		.4byte	0x4584
 11731 4579 4D       		.uleb128 0x4d
 11732 457a CE000000 		.4byte	0xce
 11733 457e 4D       		.uleb128 0x4d
 11734 457f B8000000 		.4byte	0xb8
 11735 4583 00       		.byte	0
 11736 4584 4F       		.uleb128 0x4f
 11737 4585 A0020000 		.4byte	.LASF1123
 11738 4589 0E       		.byte	0xe
 11739 458a 60       		.byte	0x60
 11740 458b 95450000 		.4byte	0x4595
 11741 458f 4D       		.uleb128 0x4d
 11742 4590 E9000000 		.4byte	0xe9
 11743 4594 00       		.byte	0
 11744 4595 4E       		.uleb128 0x4e
 11745 4596 D82B0000 		.4byte	.LASF1124
 11746 459a 0E       		.byte	0xe
ARM GAS  C:\Users\AHMED~1.ELE\AppData\Local\Temp\cckRh1xc.s 			page 233


 11747 459b 65       		.byte	0x65
 11748 459c 51       		.uleb128 0x51
 11749 459d 92280000 		.4byte	.LASF1126
 11750 45a1 16       		.byte	0x16
 11751 45a2 34       		.byte	0x34
 11752 45a3 97000000 		.4byte	0x97
 11753 45a7 4E       		.uleb128 0x4e
 11754 45a8 17150000 		.4byte	.LASF1127
 11755 45ac 0E       		.byte	0xe
 11756 45ad 5D       		.byte	0x5d
 11757 45ae 4F       		.uleb128 0x4f
 11758 45af C80A0000 		.4byte	.LASF1128
 11759 45b3 0C       		.byte	0xc
 11760 45b4 DB       		.byte	0xdb
 11761 45b5 BF450000 		.4byte	0x45bf
 11762 45b9 4D       		.uleb128 0x4d
 11763 45ba E9000000 		.4byte	0xe9
 11764 45be 00       		.byte	0
 11765 45bf 4E       		.uleb128 0x4e
 11766 45c0 6A2C0000 		.4byte	.LASF1129
 11767 45c4 0C       		.byte	0xc
 11768 45c5 ED       		.byte	0xed
 11769 45c6 4F       		.uleb128 0x4f
 11770 45c7 720A0000 		.4byte	.LASF1130
 11771 45cb 0E       		.byte	0xe
 11772 45cc 61       		.byte	0x61
 11773 45cd D7450000 		.4byte	0x45d7
 11774 45d1 4D       		.uleb128 0x4d
 11775 45d2 AD000000 		.4byte	0xad
 11776 45d6 00       		.byte	0
 11777 45d7 4E       		.uleb128 0x4e
 11778 45d8 35100000 		.4byte	.LASF1131
 11779 45dc 0E       		.byte	0xe
 11780 45dd 5F       		.byte	0x5f
 11781 45de 4E       		.uleb128 0x4e
 11782 45df 85220000 		.4byte	.LASF1132
 11783 45e3 11       		.byte	0x11
 11784 45e4 2B       		.byte	0x2b
 11785 45e5 4E       		.uleb128 0x4e
 11786 45e6 25390000 		.4byte	.LASF1133
 11787 45ea 0E       		.byte	0xe
 11788 45eb 71       		.byte	0x71
 11789 45ec 4E       		.uleb128 0x4e
 11790 45ed 49260000 		.4byte	.LASF1134
 11791 45f1 11       		.byte	0x11
 11792 45f2 2E       		.byte	0x2e
 11793 45f3 51       		.uleb128 0x51
 11794 45f4 970D0000 		.4byte	.LASF1135
 11795 45f8 17       		.byte	0x17
 11796 45f9 57       		.byte	0x57
 11797 45fa 97000000 		.4byte	0x97
 11798 45fe 4E       		.uleb128 0x4e
 11799 45ff A0400000 		.4byte	.LASF1136
 11800 4603 11       		.byte	0x11
 11801 4604 2C       		.byte	0x2c
 11802 4605 4E       		.uleb128 0x4e
 11803 4606 7E210000 		.4byte	.LASF1137
ARM GAS  C:\Users\AHMED~1.ELE\AppData\Local\Temp\cckRh1xc.s 			page 234


 11804 460a 07       		.byte	0x7
 11805 460b 30       		.byte	0x30
 11806 460c 51       		.uleb128 0x51
 11807 460d D4370000 		.4byte	.LASF1138
 11808 4611 18       		.byte	0x18
 11809 4612 28       		.byte	0x28
 11810 4613 97000000 		.4byte	0x97
 11811 4617 4F       		.uleb128 0x4f
 11812 4618 0E3A0000 		.4byte	.LASF1139
 11813 461c 0E       		.byte	0xe
 11814 461d 75       		.byte	0x75
 11815 461e 2D460000 		.4byte	0x462d
 11816 4622 4D       		.uleb128 0x4d
 11817 4623 B8000000 		.4byte	0xb8
 11818 4627 4D       		.uleb128 0x4d
 11819 4628 97000000 		.4byte	0x97
 11820 462c 00       		.byte	0
 11821 462d 51       		.uleb128 0x51
 11822 462e C32E0000 		.4byte	.LASF1140
 11823 4632 19       		.byte	0x19
 11824 4633 28       		.byte	0x28
 11825 4634 A2000000 		.4byte	0xa2
 11826 4638 4C       		.uleb128 0x4c
 11827 4639 37110000 		.4byte	.LASF1141
 11828 463d 1A       		.byte	0x1a
 11829 463e 28       		.byte	0x28
 11830 463f 97000000 		.4byte	0x97
 11831 4643 4D460000 		.4byte	0x464d
 11832 4647 4D       		.uleb128 0x4d
 11833 4648 97000000 		.4byte	0x97
 11834 464c 00       		.byte	0
 11835 464d 4F       		.uleb128 0x4f
 11836 464e 2A0A0000 		.4byte	.LASF1142
 11837 4652 1B       		.byte	0x1b
 11838 4653 28       		.byte	0x28
 11839 4654 63460000 		.4byte	0x4663
 11840 4658 4D       		.uleb128 0x4d
 11841 4659 A2000000 		.4byte	0xa2
 11842 465d 4D       		.uleb128 0x4d
 11843 465e A2000000 		.4byte	0xa2
 11844 4662 00       		.byte	0
 11845 4663 4E       		.uleb128 0x4e
 11846 4664 4F230000 		.4byte	.LASF1143
 11847 4668 1B       		.byte	0x1b
 11848 4669 29       		.byte	0x29
 11849 466a 51       		.uleb128 0x51
 11850 466b C9250000 		.4byte	.LASF1144
 11851 466f 1B       		.byte	0x1b
 11852 4670 2A       		.byte	0x2a
 11853 4671 A2000000 		.4byte	0xa2
 11854 4675 51       		.uleb128 0x51
 11855 4676 DF280000 		.4byte	.LASF1145
 11856 467a 17       		.byte	0x17
 11857 467b 2E       		.byte	0x2e
 11858 467c 97000000 		.4byte	0x97
 11859 4680 4C       		.uleb128 0x4c
 11860 4681 67200000 		.4byte	.LASF1146
ARM GAS  C:\Users\AHMED~1.ELE\AppData\Local\Temp\cckRh1xc.s 			page 235


 11861 4685 16       		.byte	0x16
 11862 4686 35       		.byte	0x35
 11863 4687 97000000 		.4byte	0x97
 11864 468b 9A460000 		.4byte	0x469a
 11865 468f 4D       		.uleb128 0x4d
 11866 4690 97000000 		.4byte	0x97
 11867 4694 4D       		.uleb128 0x4d
 11868 4695 B8000000 		.4byte	0xb8
 11869 4699 00       		.byte	0
 11870 469a 4C       		.uleb128 0x4c
 11871 469b AE2A0000 		.4byte	.LASF1147
 11872 469f 16       		.byte	0x16
 11873 46a0 3E       		.byte	0x3e
 11874 46a1 97000000 		.4byte	0x97
 11875 46a5 AF460000 		.4byte	0x46af
 11876 46a9 4D       		.uleb128 0x4d
 11877 46aa AF460000 		.4byte	0x46af
 11878 46ae 00       		.byte	0
 11879 46af 06       		.uleb128 0x6
 11880 46b0 04       		.byte	0x4
 11881 46b1 C3000000 		.4byte	0xc3
 11882 46b5 4F       		.uleb128 0x4f
 11883 46b6 000A0000 		.4byte	.LASF1148
 11884 46ba 13       		.byte	0x13
 11885 46bb 57       		.byte	0x57
 11886 46bc CB460000 		.4byte	0x46cb
 11887 46c0 4D       		.uleb128 0x4d
 11888 46c1 E9000000 		.4byte	0xe9
 11889 46c5 4D       		.uleb128 0x4d
 11890 46c6 56000000 		.4byte	0x56
 11891 46ca 00       		.byte	0
 11892 46cb 51       		.uleb128 0x51
 11893 46cc C92B0000 		.4byte	.LASF1149
 11894 46d0 16       		.byte	0x16
 11895 46d1 38       		.byte	0x38
 11896 46d2 97000000 		.4byte	0x97
 11897 46d6 4E       		.uleb128 0x4e
 11898 46d7 3E130000 		.4byte	.LASF1150
 11899 46db 0E       		.byte	0xe
 11900 46dc 76       		.byte	0x76
 11901 46dd 51       		.uleb128 0x51
 11902 46de F11D0000 		.4byte	.LASF1151
 11903 46e2 17       		.byte	0x17
 11904 46e3 34       		.byte	0x34
 11905 46e4 97000000 		.4byte	0x97
 11906 46e8 51       		.uleb128 0x51
 11907 46e9 903A0000 		.4byte	.LASF1152
 11908 46ed 17       		.byte	0x17
 11909 46ee 55       		.byte	0x55
 11910 46ef 97000000 		.4byte	0x97
 11911 46f3 51       		.uleb128 0x51
 11912 46f4 1B0E0000 		.4byte	.LASF1153
 11913 46f8 17       		.byte	0x17
 11914 46f9 3D       		.byte	0x3d
 11915 46fa 97000000 		.4byte	0x97
 11916 46fe 51       		.uleb128 0x51
 11917 46ff 1F1F0000 		.4byte	.LASF1154
ARM GAS  C:\Users\AHMED~1.ELE\AppData\Local\Temp\cckRh1xc.s 			page 236


 11918 4703 16       		.byte	0x16
 11919 4704 36       		.byte	0x36
 11920 4705 97000000 		.4byte	0x97
 11921 4709 4C       		.uleb128 0x4c
 11922 470a DE050000 		.4byte	.LASF1155
 11923 470e 16       		.byte	0x16
 11924 470f 3D       		.byte	0x3d
 11925 4710 97000000 		.4byte	0x97
 11926 4714 1E470000 		.4byte	0x471e
 11927 4718 4D       		.uleb128 0x4d
 11928 4719 97000000 		.4byte	0x97
 11929 471d 00       		.byte	0
 11930 471e 4E       		.uleb128 0x4e
 11931 471f F72E0000 		.4byte	.LASF1156
 11932 4723 07       		.byte	0x7
 11933 4724 32       		.byte	0x32
 11934 4725 4C       		.uleb128 0x4c
 11935 4726 00210000 		.4byte	.LASF1157
 11936 472a 16       		.byte	0x16
 11937 472b 3C       		.byte	0x3c
 11938 472c 97000000 		.4byte	0x97
 11939 4730 3F470000 		.4byte	0x473f
 11940 4734 4D       		.uleb128 0x4d
 11941 4735 5D000000 		.4byte	0x5d
 11942 4739 4D       		.uleb128 0x4d
 11943 473a 97000000 		.4byte	0x97
 11944 473e 00       		.byte	0
 11945 473f 4C       		.uleb128 0x4c
 11946 4740 90240000 		.4byte	.LASF1158
 11947 4744 1C       		.byte	0x1c
 11948 4745 29       		.byte	0x29
 11949 4746 B8000000 		.4byte	0xb8
 11950 474a 54470000 		.4byte	0x4754
 11951 474e 4D       		.uleb128 0x4d
 11952 474f B8000000 		.4byte	0xb8
 11953 4753 00       		.byte	0
 11954 4754 53       		.uleb128 0x53
 11955 4755 F9370000 		.4byte	.LASF1166
 11956 4759 0E       		.byte	0xe
 11957 475a 68       		.byte	0x68
 11958 475b 4D       		.uleb128 0x4d
 11959 475c 97000000 		.4byte	0x97
 11960 4760 00       		.byte	0
 11961 4761 00       		.byte	0
 11962              		.section	.debug_abbrev,"",%progbits
 11963              	.Ldebug_abbrev0:
 11964 0000 01       		.uleb128 0x1
 11965 0001 11       		.uleb128 0x11
 11966 0002 01       		.byte	0x1
 11967 0003 25       		.uleb128 0x25
 11968 0004 0E       		.uleb128 0xe
 11969 0005 13       		.uleb128 0x13
 11970 0006 0B       		.uleb128 0xb
 11971 0007 03       		.uleb128 0x3
 11972 0008 0E       		.uleb128 0xe
 11973 0009 1B       		.uleb128 0x1b
 11974 000a 0E       		.uleb128 0xe
ARM GAS  C:\Users\AHMED~1.ELE\AppData\Local\Temp\cckRh1xc.s 			page 237


 11975 000b 55       		.uleb128 0x55
 11976 000c 17       		.uleb128 0x17
 11977 000d 11       		.uleb128 0x11
 11978 000e 01       		.uleb128 0x1
 11979 000f 10       		.uleb128 0x10
 11980 0010 17       		.uleb128 0x17
 11981 0011 00       		.byte	0
 11982 0012 00       		.byte	0
 11983 0013 02       		.uleb128 0x2
 11984 0014 24       		.uleb128 0x24
 11985 0015 00       		.byte	0
 11986 0016 0B       		.uleb128 0xb
 11987 0017 0B       		.uleb128 0xb
 11988 0018 3E       		.uleb128 0x3e
 11989 0019 0B       		.uleb128 0xb
 11990 001a 03       		.uleb128 0x3
 11991 001b 0E       		.uleb128 0xe
 11992 001c 00       		.byte	0
 11993 001d 00       		.byte	0
 11994 001e 03       		.uleb128 0x3
 11995 001f 24       		.uleb128 0x24
 11996 0020 00       		.byte	0
 11997 0021 0B       		.uleb128 0xb
 11998 0022 0B       		.uleb128 0xb
 11999 0023 3E       		.uleb128 0x3e
 12000 0024 0B       		.uleb128 0xb
 12001 0025 03       		.uleb128 0x3
 12002 0026 08       		.uleb128 0x8
 12003 0027 00       		.byte	0
 12004 0028 00       		.byte	0
 12005 0029 04       		.uleb128 0x4
 12006 002a 16       		.uleb128 0x16
 12007 002b 00       		.byte	0
 12008 002c 03       		.uleb128 0x3
 12009 002d 0E       		.uleb128 0xe
 12010 002e 3A       		.uleb128 0x3a
 12011 002f 0B       		.uleb128 0xb
 12012 0030 3B       		.uleb128 0x3b
 12013 0031 0B       		.uleb128 0xb
 12014 0032 49       		.uleb128 0x49
 12015 0033 13       		.uleb128 0x13
 12016 0034 00       		.byte	0
 12017 0035 00       		.byte	0
 12018 0036 05       		.uleb128 0x5
 12019 0037 0F       		.uleb128 0xf
 12020 0038 00       		.byte	0
 12021 0039 0B       		.uleb128 0xb
 12022 003a 0B       		.uleb128 0xb
 12023 003b 00       		.byte	0
 12024 003c 00       		.byte	0
 12025 003d 06       		.uleb128 0x6
 12026 003e 0F       		.uleb128 0xf
 12027 003f 00       		.byte	0
 12028 0040 0B       		.uleb128 0xb
 12029 0041 0B       		.uleb128 0xb
 12030 0042 49       		.uleb128 0x49
 12031 0043 13       		.uleb128 0x13
ARM GAS  C:\Users\AHMED~1.ELE\AppData\Local\Temp\cckRh1xc.s 			page 238


 12032 0044 00       		.byte	0
 12033 0045 00       		.byte	0
 12034 0046 07       		.uleb128 0x7
 12035 0047 26       		.uleb128 0x26
 12036 0048 00       		.byte	0
 12037 0049 49       		.uleb128 0x49
 12038 004a 13       		.uleb128 0x13
 12039 004b 00       		.byte	0
 12040 004c 00       		.byte	0
 12041 004d 08       		.uleb128 0x8
 12042 004e 01       		.uleb128 0x1
 12043 004f 01       		.byte	0x1
 12044 0050 49       		.uleb128 0x49
 12045 0051 13       		.uleb128 0x13
 12046 0052 01       		.uleb128 0x1
 12047 0053 13       		.uleb128 0x13
 12048 0054 00       		.byte	0
 12049 0055 00       		.byte	0
 12050 0056 09       		.uleb128 0x9
 12051 0057 21       		.uleb128 0x21
 12052 0058 00       		.byte	0
 12053 0059 49       		.uleb128 0x49
 12054 005a 13       		.uleb128 0x13
 12055 005b 2F       		.uleb128 0x2f
 12056 005c 0B       		.uleb128 0xb
 12057 005d 00       		.byte	0
 12058 005e 00       		.byte	0
 12059 005f 0A       		.uleb128 0xa
 12060 0060 04       		.uleb128 0x4
 12061 0061 01       		.byte	0x1
 12062 0062 03       		.uleb128 0x3
 12063 0063 0E       		.uleb128 0xe
 12064 0064 0B       		.uleb128 0xb
 12065 0065 0B       		.uleb128 0xb
 12066 0066 3A       		.uleb128 0x3a
 12067 0067 0B       		.uleb128 0xb
 12068 0068 3B       		.uleb128 0x3b
 12069 0069 05       		.uleb128 0x5
 12070 006a 01       		.uleb128 0x1
 12071 006b 13       		.uleb128 0x13
 12072 006c 00       		.byte	0
 12073 006d 00       		.byte	0
 12074 006e 0B       		.uleb128 0xb
 12075 006f 28       		.uleb128 0x28
 12076 0070 00       		.byte	0
 12077 0071 03       		.uleb128 0x3
 12078 0072 0E       		.uleb128 0xe
 12079 0073 1C       		.uleb128 0x1c
 12080 0074 0D       		.uleb128 0xd
 12081 0075 00       		.byte	0
 12082 0076 00       		.byte	0
 12083 0077 0C       		.uleb128 0xc
 12084 0078 26       		.uleb128 0x26
 12085 0079 00       		.byte	0
 12086 007a 00       		.byte	0
 12087 007b 00       		.byte	0
 12088 007c 0D       		.uleb128 0xd
ARM GAS  C:\Users\AHMED~1.ELE\AppData\Local\Temp\cckRh1xc.s 			page 239


 12089 007d 04       		.uleb128 0x4
 12090 007e 01       		.byte	0x1
 12091 007f 0B       		.uleb128 0xb
 12092 0080 0B       		.uleb128 0xb
 12093 0081 3A       		.uleb128 0x3a
 12094 0082 0B       		.uleb128 0xb
 12095 0083 3B       		.uleb128 0x3b
 12096 0084 05       		.uleb128 0x5
 12097 0085 01       		.uleb128 0x1
 12098 0086 13       		.uleb128 0x13
 12099 0087 00       		.byte	0
 12100 0088 00       		.byte	0
 12101 0089 0E       		.uleb128 0xe
 12102 008a 13       		.uleb128 0x13
 12103 008b 01       		.byte	0x1
 12104 008c 03       		.uleb128 0x3
 12105 008d 0E       		.uleb128 0xe
 12106 008e 0B       		.uleb128 0xb
 12107 008f 0B       		.uleb128 0xb
 12108 0090 3A       		.uleb128 0x3a
 12109 0091 0B       		.uleb128 0xb
 12110 0092 3B       		.uleb128 0x3b
 12111 0093 05       		.uleb128 0x5
 12112 0094 01       		.uleb128 0x1
 12113 0095 13       		.uleb128 0x13
 12114 0096 00       		.byte	0
 12115 0097 00       		.byte	0
 12116 0098 0F       		.uleb128 0xf
 12117 0099 0D       		.uleb128 0xd
 12118 009a 00       		.byte	0
 12119 009b 03       		.uleb128 0x3
 12120 009c 0E       		.uleb128 0xe
 12121 009d 3A       		.uleb128 0x3a
 12122 009e 0B       		.uleb128 0xb
 12123 009f 3B       		.uleb128 0x3b
 12124 00a0 05       		.uleb128 0x5
 12125 00a1 49       		.uleb128 0x49
 12126 00a2 13       		.uleb128 0x13
 12127 00a3 38       		.uleb128 0x38
 12128 00a4 0B       		.uleb128 0xb
 12129 00a5 00       		.byte	0
 12130 00a6 00       		.byte	0
 12131 00a7 10       		.uleb128 0x10
 12132 00a8 04       		.uleb128 0x4
 12133 00a9 01       		.byte	0x1
 12134 00aa 0B       		.uleb128 0xb
 12135 00ab 0B       		.uleb128 0xb
 12136 00ac 3A       		.uleb128 0x3a
 12137 00ad 0B       		.uleb128 0xb
 12138 00ae 3B       		.uleb128 0x3b
 12139 00af 0B       		.uleb128 0xb
 12140 00b0 01       		.uleb128 0x1
 12141 00b1 13       		.uleb128 0x13
 12142 00b2 00       		.byte	0
 12143 00b3 00       		.byte	0
 12144 00b4 11       		.uleb128 0x11
 12145 00b5 13       		.uleb128 0x13
ARM GAS  C:\Users\AHMED~1.ELE\AppData\Local\Temp\cckRh1xc.s 			page 240


 12146 00b6 01       		.byte	0x1
 12147 00b7 03       		.uleb128 0x3
 12148 00b8 0E       		.uleb128 0xe
 12149 00b9 0B       		.uleb128 0xb
 12150 00ba 05       		.uleb128 0x5
 12151 00bb 3A       		.uleb128 0x3a
 12152 00bc 0B       		.uleb128 0xb
 12153 00bd 3B       		.uleb128 0x3b
 12154 00be 05       		.uleb128 0x5
 12155 00bf 01       		.uleb128 0x1
 12156 00c0 13       		.uleb128 0x13
 12157 00c1 00       		.byte	0
 12158 00c2 00       		.byte	0
 12159 00c3 12       		.uleb128 0x12
 12160 00c4 21       		.uleb128 0x21
 12161 00c5 00       		.byte	0
 12162 00c6 49       		.uleb128 0x49
 12163 00c7 13       		.uleb128 0x13
 12164 00c8 2F       		.uleb128 0x2f
 12165 00c9 05       		.uleb128 0x5
 12166 00ca 00       		.byte	0
 12167 00cb 00       		.byte	0
 12168 00cc 13       		.uleb128 0x13
 12169 00cd 0D       		.uleb128 0xd
 12170 00ce 00       		.byte	0
 12171 00cf 03       		.uleb128 0x3
 12172 00d0 0E       		.uleb128 0xe
 12173 00d1 3A       		.uleb128 0x3a
 12174 00d2 0B       		.uleb128 0xb
 12175 00d3 3B       		.uleb128 0x3b
 12176 00d4 05       		.uleb128 0x5
 12177 00d5 49       		.uleb128 0x49
 12178 00d6 13       		.uleb128 0x13
 12179 00d7 38       		.uleb128 0x38
 12180 00d8 05       		.uleb128 0x5
 12181 00d9 00       		.byte	0
 12182 00da 00       		.byte	0
 12183 00db 14       		.uleb128 0x14
 12184 00dc 13       		.uleb128 0x13
 12185 00dd 01       		.byte	0x1
 12186 00de 03       		.uleb128 0x3
 12187 00df 0E       		.uleb128 0xe
 12188 00e0 0B       		.uleb128 0xb
 12189 00e1 0B       		.uleb128 0xb
 12190 00e2 3A       		.uleb128 0x3a
 12191 00e3 0B       		.uleb128 0xb
 12192 00e4 3B       		.uleb128 0x3b
 12193 00e5 0B       		.uleb128 0xb
 12194 00e6 01       		.uleb128 0x1
 12195 00e7 13       		.uleb128 0x13
 12196 00e8 00       		.byte	0
 12197 00e9 00       		.byte	0
 12198 00ea 15       		.uleb128 0x15
 12199 00eb 0D       		.uleb128 0xd
 12200 00ec 00       		.byte	0
 12201 00ed 03       		.uleb128 0x3
 12202 00ee 0E       		.uleb128 0xe
ARM GAS  C:\Users\AHMED~1.ELE\AppData\Local\Temp\cckRh1xc.s 			page 241


 12203 00ef 3A       		.uleb128 0x3a
 12204 00f0 0B       		.uleb128 0xb
 12205 00f1 3B       		.uleb128 0x3b
 12206 00f2 0B       		.uleb128 0xb
 12207 00f3 49       		.uleb128 0x49
 12208 00f4 13       		.uleb128 0x13
 12209 00f5 38       		.uleb128 0x38
 12210 00f6 0B       		.uleb128 0xb
 12211 00f7 00       		.byte	0
 12212 00f8 00       		.byte	0
 12213 00f9 16       		.uleb128 0x16
 12214 00fa 13       		.uleb128 0x13
 12215 00fb 01       		.byte	0x1
 12216 00fc 0B       		.uleb128 0xb
 12217 00fd 0B       		.uleb128 0xb
 12218 00fe 3A       		.uleb128 0x3a
 12219 00ff 0B       		.uleb128 0xb
 12220 0100 3B       		.uleb128 0x3b
 12221 0101 0B       		.uleb128 0xb
 12222 0102 01       		.uleb128 0x1
 12223 0103 13       		.uleb128 0x13
 12224 0104 00       		.byte	0
 12225 0105 00       		.byte	0
 12226 0106 17       		.uleb128 0x17
 12227 0107 16       		.uleb128 0x16
 12228 0108 00       		.byte	0
 12229 0109 03       		.uleb128 0x3
 12230 010a 08       		.uleb128 0x8
 12231 010b 3A       		.uleb128 0x3a
 12232 010c 0B       		.uleb128 0xb
 12233 010d 3B       		.uleb128 0x3b
 12234 010e 0B       		.uleb128 0xb
 12235 010f 49       		.uleb128 0x49
 12236 0110 13       		.uleb128 0x13
 12237 0111 00       		.byte	0
 12238 0112 00       		.byte	0
 12239 0113 18       		.uleb128 0x18
 12240 0114 13       		.uleb128 0x13
 12241 0115 01       		.byte	0x1
 12242 0116 0B       		.uleb128 0xb
 12243 0117 0B       		.uleb128 0xb
 12244 0118 3A       		.uleb128 0x3a
 12245 0119 0B       		.uleb128 0xb
 12246 011a 3B       		.uleb128 0x3b
 12247 011b 05       		.uleb128 0x5
 12248 011c 01       		.uleb128 0x1
 12249 011d 13       		.uleb128 0x13
 12250 011e 00       		.byte	0
 12251 011f 00       		.byte	0
 12252 0120 19       		.uleb128 0x19
 12253 0121 16       		.uleb128 0x16
 12254 0122 00       		.byte	0
 12255 0123 03       		.uleb128 0x3
 12256 0124 0E       		.uleb128 0xe
 12257 0125 3A       		.uleb128 0x3a
 12258 0126 0B       		.uleb128 0xb
 12259 0127 3B       		.uleb128 0x3b
ARM GAS  C:\Users\AHMED~1.ELE\AppData\Local\Temp\cckRh1xc.s 			page 242


 12260 0128 05       		.uleb128 0x5
 12261 0129 49       		.uleb128 0x49
 12262 012a 13       		.uleb128 0x13
 12263 012b 00       		.byte	0
 12264 012c 00       		.byte	0
 12265 012d 1A       		.uleb128 0x1a
 12266 012e 13       		.uleb128 0x13
 12267 012f 01       		.byte	0x1
 12268 0130 03       		.uleb128 0x3
 12269 0131 0E       		.uleb128 0xe
 12270 0132 0B       		.uleb128 0xb
 12271 0133 05       		.uleb128 0x5
 12272 0134 3A       		.uleb128 0x3a
 12273 0135 0B       		.uleb128 0xb
 12274 0136 3B       		.uleb128 0x3b
 12275 0137 0B       		.uleb128 0xb
 12276 0138 01       		.uleb128 0x1
 12277 0139 13       		.uleb128 0x13
 12278 013a 00       		.byte	0
 12279 013b 00       		.byte	0
 12280 013c 1B       		.uleb128 0x1b
 12281 013d 0D       		.uleb128 0xd
 12282 013e 00       		.byte	0
 12283 013f 03       		.uleb128 0x3
 12284 0140 0E       		.uleb128 0xe
 12285 0141 3A       		.uleb128 0x3a
 12286 0142 0B       		.uleb128 0xb
 12287 0143 3B       		.uleb128 0x3b
 12288 0144 0B       		.uleb128 0xb
 12289 0145 49       		.uleb128 0x49
 12290 0146 13       		.uleb128 0x13
 12291 0147 38       		.uleb128 0x38
 12292 0148 05       		.uleb128 0x5
 12293 0149 00       		.byte	0
 12294 014a 00       		.byte	0
 12295 014b 1C       		.uleb128 0x1c
 12296 014c 13       		.uleb128 0x13
 12297 014d 01       		.byte	0x1
 12298 014e 03       		.uleb128 0x3
 12299 014f 08       		.uleb128 0x8
 12300 0150 0B       		.uleb128 0xb
 12301 0151 05       		.uleb128 0x5
 12302 0152 3A       		.uleb128 0x3a
 12303 0153 0B       		.uleb128 0xb
 12304 0154 3B       		.uleb128 0x3b
 12305 0155 0B       		.uleb128 0xb
 12306 0156 01       		.uleb128 0x1
 12307 0157 13       		.uleb128 0x13
 12308 0158 00       		.byte	0
 12309 0159 00       		.byte	0
 12310 015a 1D       		.uleb128 0x1d
 12311 015b 2E       		.uleb128 0x2e
 12312 015c 01       		.byte	0x1
 12313 015d 3F       		.uleb128 0x3f
 12314 015e 19       		.uleb128 0x19
 12315 015f 03       		.uleb128 0x3
 12316 0160 0E       		.uleb128 0xe
ARM GAS  C:\Users\AHMED~1.ELE\AppData\Local\Temp\cckRh1xc.s 			page 243


 12317 0161 3A       		.uleb128 0x3a
 12318 0162 0B       		.uleb128 0xb
 12319 0163 3B       		.uleb128 0x3b
 12320 0164 05       		.uleb128 0x5
 12321 0165 27       		.uleb128 0x27
 12322 0166 19       		.uleb128 0x19
 12323 0167 49       		.uleb128 0x49
 12324 0168 13       		.uleb128 0x13
 12325 0169 20       		.uleb128 0x20
 12326 016a 0B       		.uleb128 0xb
 12327 016b 01       		.uleb128 0x1
 12328 016c 13       		.uleb128 0x13
 12329 016d 00       		.byte	0
 12330 016e 00       		.byte	0
 12331 016f 1E       		.uleb128 0x1e
 12332 0170 34       		.uleb128 0x34
 12333 0171 00       		.byte	0
 12334 0172 03       		.uleb128 0x3
 12335 0173 0E       		.uleb128 0xe
 12336 0174 3A       		.uleb128 0x3a
 12337 0175 0B       		.uleb128 0xb
 12338 0176 3B       		.uleb128 0x3b
 12339 0177 05       		.uleb128 0x5
 12340 0178 49       		.uleb128 0x49
 12341 0179 13       		.uleb128 0x13
 12342 017a 00       		.byte	0
 12343 017b 00       		.byte	0
 12344 017c 1F       		.uleb128 0x1f
 12345 017d 2E       		.uleb128 0x2e
 12346 017e 01       		.byte	0x1
 12347 017f 03       		.uleb128 0x3
 12348 0180 0E       		.uleb128 0xe
 12349 0181 3A       		.uleb128 0x3a
 12350 0182 0B       		.uleb128 0xb
 12351 0183 3B       		.uleb128 0x3b
 12352 0184 05       		.uleb128 0x5
 12353 0185 27       		.uleb128 0x27
 12354 0186 19       		.uleb128 0x19
 12355 0187 49       		.uleb128 0x49
 12356 0188 13       		.uleb128 0x13
 12357 0189 11       		.uleb128 0x11
 12358 018a 01       		.uleb128 0x1
 12359 018b 12       		.uleb128 0x12
 12360 018c 06       		.uleb128 0x6
 12361 018d 40       		.uleb128 0x40
 12362 018e 18       		.uleb128 0x18
 12363 018f 9742     		.uleb128 0x2117
 12364 0191 19       		.uleb128 0x19
 12365 0192 01       		.uleb128 0x1
 12366 0193 13       		.uleb128 0x13
 12367 0194 00       		.byte	0
 12368 0195 00       		.byte	0
 12369 0196 20       		.uleb128 0x20
 12370 0197 05       		.uleb128 0x5
 12371 0198 00       		.byte	0
 12372 0199 03       		.uleb128 0x3
 12373 019a 0E       		.uleb128 0xe
ARM GAS  C:\Users\AHMED~1.ELE\AppData\Local\Temp\cckRh1xc.s 			page 244


 12374 019b 3A       		.uleb128 0x3a
 12375 019c 0B       		.uleb128 0xb
 12376 019d 3B       		.uleb128 0x3b
 12377 019e 05       		.uleb128 0x5
 12378 019f 49       		.uleb128 0x49
 12379 01a0 13       		.uleb128 0x13
 12380 01a1 02       		.uleb128 0x2
 12381 01a2 17       		.uleb128 0x17
 12382 01a3 00       		.byte	0
 12383 01a4 00       		.byte	0
 12384 01a5 21       		.uleb128 0x21
 12385 01a6 898201   		.uleb128 0x4109
 12386 01a9 01       		.byte	0x1
 12387 01aa 11       		.uleb128 0x11
 12388 01ab 01       		.uleb128 0x1
 12389 01ac 31       		.uleb128 0x31
 12390 01ad 13       		.uleb128 0x13
 12391 01ae 01       		.uleb128 0x1
 12392 01af 13       		.uleb128 0x13
 12393 01b0 00       		.byte	0
 12394 01b1 00       		.byte	0
 12395 01b2 22       		.uleb128 0x22
 12396 01b3 8A8201   		.uleb128 0x410a
 12397 01b6 00       		.byte	0
 12398 01b7 02       		.uleb128 0x2
 12399 01b8 18       		.uleb128 0x18
 12400 01b9 9142     		.uleb128 0x2111
 12401 01bb 18       		.uleb128 0x18
 12402 01bc 00       		.byte	0
 12403 01bd 00       		.byte	0
 12404 01be 23       		.uleb128 0x23
 12405 01bf 898201   		.uleb128 0x4109
 12406 01c2 00       		.byte	0
 12407 01c3 11       		.uleb128 0x11
 12408 01c4 01       		.uleb128 0x1
 12409 01c5 31       		.uleb128 0x31
 12410 01c6 13       		.uleb128 0x13
 12411 01c7 00       		.byte	0
 12412 01c8 00       		.byte	0
 12413 01c9 24       		.uleb128 0x24
 12414 01ca 898201   		.uleb128 0x4109
 12415 01cd 01       		.byte	0x1
 12416 01ce 11       		.uleb128 0x11
 12417 01cf 01       		.uleb128 0x1
 12418 01d0 31       		.uleb128 0x31
 12419 01d1 13       		.uleb128 0x13
 12420 01d2 00       		.byte	0
 12421 01d3 00       		.byte	0
 12422 01d4 25       		.uleb128 0x25
 12423 01d5 2E       		.uleb128 0x2e
 12424 01d6 01       		.byte	0x1
 12425 01d7 3F       		.uleb128 0x3f
 12426 01d8 19       		.uleb128 0x19
 12427 01d9 03       		.uleb128 0x3
 12428 01da 0E       		.uleb128 0xe
 12429 01db 3A       		.uleb128 0x3a
 12430 01dc 0B       		.uleb128 0xb
ARM GAS  C:\Users\AHMED~1.ELE\AppData\Local\Temp\cckRh1xc.s 			page 245


 12431 01dd 3B       		.uleb128 0x3b
 12432 01de 0B       		.uleb128 0xb
 12433 01df 27       		.uleb128 0x27
 12434 01e0 19       		.uleb128 0x19
 12435 01e1 49       		.uleb128 0x49
 12436 01e2 13       		.uleb128 0x13
 12437 01e3 11       		.uleb128 0x11
 12438 01e4 01       		.uleb128 0x1
 12439 01e5 12       		.uleb128 0x12
 12440 01e6 06       		.uleb128 0x6
 12441 01e7 40       		.uleb128 0x40
 12442 01e8 18       		.uleb128 0x18
 12443 01e9 9742     		.uleb128 0x2117
 12444 01eb 19       		.uleb128 0x19
 12445 01ec 01       		.uleb128 0x1
 12446 01ed 13       		.uleb128 0x13
 12447 01ee 00       		.byte	0
 12448 01ef 00       		.byte	0
 12449 01f0 26       		.uleb128 0x26
 12450 01f1 05       		.uleb128 0x5
 12451 01f2 00       		.byte	0
 12452 01f3 03       		.uleb128 0x3
 12453 01f4 0E       		.uleb128 0xe
 12454 01f5 3A       		.uleb128 0x3a
 12455 01f6 0B       		.uleb128 0xb
 12456 01f7 3B       		.uleb128 0x3b
 12457 01f8 0B       		.uleb128 0xb
 12458 01f9 49       		.uleb128 0x49
 12459 01fa 13       		.uleb128 0x13
 12460 01fb 02       		.uleb128 0x2
 12461 01fc 17       		.uleb128 0x17
 12462 01fd 00       		.byte	0
 12463 01fe 00       		.byte	0
 12464 01ff 27       		.uleb128 0x27
 12465 0200 34       		.uleb128 0x34
 12466 0201 00       		.byte	0
 12467 0202 03       		.uleb128 0x3
 12468 0203 0E       		.uleb128 0xe
 12469 0204 3A       		.uleb128 0x3a
 12470 0205 0B       		.uleb128 0xb
 12471 0206 3B       		.uleb128 0x3b
 12472 0207 0B       		.uleb128 0xb
 12473 0208 49       		.uleb128 0x49
 12474 0209 13       		.uleb128 0x13
 12475 020a 02       		.uleb128 0x2
 12476 020b 17       		.uleb128 0x17
 12477 020c 00       		.byte	0
 12478 020d 00       		.byte	0
 12479 020e 28       		.uleb128 0x28
 12480 020f 2E       		.uleb128 0x2e
 12481 0210 01       		.byte	0x1
 12482 0211 3F       		.uleb128 0x3f
 12483 0212 19       		.uleb128 0x19
 12484 0213 03       		.uleb128 0x3
 12485 0214 0E       		.uleb128 0xe
 12486 0215 3A       		.uleb128 0x3a
 12487 0216 0B       		.uleb128 0xb
ARM GAS  C:\Users\AHMED~1.ELE\AppData\Local\Temp\cckRh1xc.s 			page 246


 12488 0217 3B       		.uleb128 0x3b
 12489 0218 05       		.uleb128 0x5
 12490 0219 27       		.uleb128 0x27
 12491 021a 19       		.uleb128 0x19
 12492 021b 49       		.uleb128 0x49
 12493 021c 13       		.uleb128 0x13
 12494 021d 11       		.uleb128 0x11
 12495 021e 01       		.uleb128 0x1
 12496 021f 12       		.uleb128 0x12
 12497 0220 06       		.uleb128 0x6
 12498 0221 40       		.uleb128 0x40
 12499 0222 18       		.uleb128 0x18
 12500 0223 9742     		.uleb128 0x2117
 12501 0225 19       		.uleb128 0x19
 12502 0226 01       		.uleb128 0x1
 12503 0227 13       		.uleb128 0x13
 12504 0228 00       		.byte	0
 12505 0229 00       		.byte	0
 12506 022a 29       		.uleb128 0x29
 12507 022b 05       		.uleb128 0x5
 12508 022c 00       		.byte	0
 12509 022d 03       		.uleb128 0x3
 12510 022e 0E       		.uleb128 0xe
 12511 022f 3A       		.uleb128 0x3a
 12512 0230 0B       		.uleb128 0xb
 12513 0231 3B       		.uleb128 0x3b
 12514 0232 05       		.uleb128 0x5
 12515 0233 49       		.uleb128 0x49
 12516 0234 13       		.uleb128 0x13
 12517 0235 02       		.uleb128 0x2
 12518 0236 18       		.uleb128 0x18
 12519 0237 00       		.byte	0
 12520 0238 00       		.byte	0
 12521 0239 2A       		.uleb128 0x2a
 12522 023a 34       		.uleb128 0x34
 12523 023b 00       		.byte	0
 12524 023c 03       		.uleb128 0x3
 12525 023d 08       		.uleb128 0x8
 12526 023e 3A       		.uleb128 0x3a
 12527 023f 0B       		.uleb128 0xb
 12528 0240 3B       		.uleb128 0x3b
 12529 0241 05       		.uleb128 0x5
 12530 0242 49       		.uleb128 0x49
 12531 0243 13       		.uleb128 0x13
 12532 0244 02       		.uleb128 0x2
 12533 0245 17       		.uleb128 0x17
 12534 0246 00       		.byte	0
 12535 0247 00       		.byte	0
 12536 0248 2B       		.uleb128 0x2b
 12537 0249 34       		.uleb128 0x34
 12538 024a 00       		.byte	0
 12539 024b 03       		.uleb128 0x3
 12540 024c 0E       		.uleb128 0xe
 12541 024d 3A       		.uleb128 0x3a
 12542 024e 0B       		.uleb128 0xb
 12543 024f 3B       		.uleb128 0x3b
 12544 0250 05       		.uleb128 0x5
ARM GAS  C:\Users\AHMED~1.ELE\AppData\Local\Temp\cckRh1xc.s 			page 247


 12545 0251 49       		.uleb128 0x49
 12546 0252 13       		.uleb128 0x13
 12547 0253 02       		.uleb128 0x2
 12548 0254 17       		.uleb128 0x17
 12549 0255 00       		.byte	0
 12550 0256 00       		.byte	0
 12551 0257 2C       		.uleb128 0x2c
 12552 0258 2E       		.uleb128 0x2e
 12553 0259 01       		.byte	0x1
 12554 025a 3F       		.uleb128 0x3f
 12555 025b 19       		.uleb128 0x19
 12556 025c 03       		.uleb128 0x3
 12557 025d 0E       		.uleb128 0xe
 12558 025e 3A       		.uleb128 0x3a
 12559 025f 0B       		.uleb128 0xb
 12560 0260 3B       		.uleb128 0x3b
 12561 0261 05       		.uleb128 0x5
 12562 0262 27       		.uleb128 0x27
 12563 0263 19       		.uleb128 0x19
 12564 0264 11       		.uleb128 0x11
 12565 0265 01       		.uleb128 0x1
 12566 0266 12       		.uleb128 0x12
 12567 0267 06       		.uleb128 0x6
 12568 0268 40       		.uleb128 0x40
 12569 0269 18       		.uleb128 0x18
 12570 026a 9742     		.uleb128 0x2117
 12571 026c 19       		.uleb128 0x19
 12572 026d 01       		.uleb128 0x1
 12573 026e 13       		.uleb128 0x13
 12574 026f 00       		.byte	0
 12575 0270 00       		.byte	0
 12576 0271 2D       		.uleb128 0x2d
 12577 0272 898201   		.uleb128 0x4109
 12578 0275 01       		.byte	0x1
 12579 0276 11       		.uleb128 0x11
 12580 0277 01       		.uleb128 0x1
 12581 0278 9542     		.uleb128 0x2115
 12582 027a 19       		.uleb128 0x19
 12583 027b 31       		.uleb128 0x31
 12584 027c 13       		.uleb128 0x13
 12585 027d 00       		.byte	0
 12586 027e 00       		.byte	0
 12587 027f 2E       		.uleb128 0x2e
 12588 0280 2E       		.uleb128 0x2e
 12589 0281 01       		.byte	0x1
 12590 0282 03       		.uleb128 0x3
 12591 0283 0E       		.uleb128 0xe
 12592 0284 3A       		.uleb128 0x3a
 12593 0285 0B       		.uleb128 0xb
 12594 0286 3B       		.uleb128 0x3b
 12595 0287 0B       		.uleb128 0xb
 12596 0288 27       		.uleb128 0x27
 12597 0289 19       		.uleb128 0x19
 12598 028a 49       		.uleb128 0x49
 12599 028b 13       		.uleb128 0x13
 12600 028c 20       		.uleb128 0x20
 12601 028d 0B       		.uleb128 0xb
ARM GAS  C:\Users\AHMED~1.ELE\AppData\Local\Temp\cckRh1xc.s 			page 248


 12602 028e 01       		.uleb128 0x1
 12603 028f 13       		.uleb128 0x13
 12604 0290 00       		.byte	0
 12605 0291 00       		.byte	0
 12606 0292 2F       		.uleb128 0x2f
 12607 0293 34       		.uleb128 0x34
 12608 0294 00       		.byte	0
 12609 0295 03       		.uleb128 0x3
 12610 0296 0E       		.uleb128 0xe
 12611 0297 3A       		.uleb128 0x3a
 12612 0298 0B       		.uleb128 0xb
 12613 0299 3B       		.uleb128 0x3b
 12614 029a 0B       		.uleb128 0xb
 12615 029b 49       		.uleb128 0x49
 12616 029c 13       		.uleb128 0x13
 12617 029d 00       		.byte	0
 12618 029e 00       		.byte	0
 12619 029f 30       		.uleb128 0x30
 12620 02a0 2E       		.uleb128 0x2e
 12621 02a1 01       		.byte	0x1
 12622 02a2 03       		.uleb128 0x3
 12623 02a3 0E       		.uleb128 0xe
 12624 02a4 3A       		.uleb128 0x3a
 12625 02a5 0B       		.uleb128 0xb
 12626 02a6 3B       		.uleb128 0x3b
 12627 02a7 0B       		.uleb128 0xb
 12628 02a8 27       		.uleb128 0x27
 12629 02a9 19       		.uleb128 0x19
 12630 02aa 20       		.uleb128 0x20
 12631 02ab 0B       		.uleb128 0xb
 12632 02ac 01       		.uleb128 0x1
 12633 02ad 13       		.uleb128 0x13
 12634 02ae 00       		.byte	0
 12635 02af 00       		.byte	0
 12636 02b0 31       		.uleb128 0x31
 12637 02b1 05       		.uleb128 0x5
 12638 02b2 00       		.byte	0
 12639 02b3 03       		.uleb128 0x3
 12640 02b4 0E       		.uleb128 0xe
 12641 02b5 3A       		.uleb128 0x3a
 12642 02b6 0B       		.uleb128 0xb
 12643 02b7 3B       		.uleb128 0x3b
 12644 02b8 0B       		.uleb128 0xb
 12645 02b9 49       		.uleb128 0x49
 12646 02ba 13       		.uleb128 0x13
 12647 02bb 00       		.byte	0
 12648 02bc 00       		.byte	0
 12649 02bd 32       		.uleb128 0x32
 12650 02be 34       		.uleb128 0x34
 12651 02bf 00       		.byte	0
 12652 02c0 03       		.uleb128 0x3
 12653 02c1 08       		.uleb128 0x8
 12654 02c2 3A       		.uleb128 0x3a
 12655 02c3 0B       		.uleb128 0xb
 12656 02c4 3B       		.uleb128 0x3b
 12657 02c5 0B       		.uleb128 0xb
 12658 02c6 49       		.uleb128 0x49
ARM GAS  C:\Users\AHMED~1.ELE\AppData\Local\Temp\cckRh1xc.s 			page 249


 12659 02c7 13       		.uleb128 0x13
 12660 02c8 00       		.byte	0
 12661 02c9 00       		.byte	0
 12662 02ca 33       		.uleb128 0x33
 12663 02cb 0B       		.uleb128 0xb
 12664 02cc 01       		.byte	0x1
 12665 02cd 00       		.byte	0
 12666 02ce 00       		.byte	0
 12667 02cf 34       		.uleb128 0x34
 12668 02d0 1D       		.uleb128 0x1d
 12669 02d1 01       		.byte	0x1
 12670 02d2 31       		.uleb128 0x31
 12671 02d3 13       		.uleb128 0x13
 12672 02d4 11       		.uleb128 0x11
 12673 02d5 01       		.uleb128 0x1
 12674 02d6 12       		.uleb128 0x12
 12675 02d7 06       		.uleb128 0x6
 12676 02d8 58       		.uleb128 0x58
 12677 02d9 0B       		.uleb128 0xb
 12678 02da 59       		.uleb128 0x59
 12679 02db 0B       		.uleb128 0xb
 12680 02dc 01       		.uleb128 0x1
 12681 02dd 13       		.uleb128 0x13
 12682 02de 00       		.byte	0
 12683 02df 00       		.byte	0
 12684 02e0 35       		.uleb128 0x35
 12685 02e1 0B       		.uleb128 0xb
 12686 02e2 01       		.byte	0x1
 12687 02e3 11       		.uleb128 0x11
 12688 02e4 01       		.uleb128 0x1
 12689 02e5 12       		.uleb128 0x12
 12690 02e6 06       		.uleb128 0x6
 12691 02e7 00       		.byte	0
 12692 02e8 00       		.byte	0
 12693 02e9 36       		.uleb128 0x36
 12694 02ea 34       		.uleb128 0x34
 12695 02eb 00       		.byte	0
 12696 02ec 31       		.uleb128 0x31
 12697 02ed 13       		.uleb128 0x13
 12698 02ee 02       		.uleb128 0x2
 12699 02ef 17       		.uleb128 0x17
 12700 02f0 00       		.byte	0
 12701 02f1 00       		.byte	0
 12702 02f2 37       		.uleb128 0x37
 12703 02f3 05       		.uleb128 0x5
 12704 02f4 00       		.byte	0
 12705 02f5 31       		.uleb128 0x31
 12706 02f6 13       		.uleb128 0x13
 12707 02f7 02       		.uleb128 0x2
 12708 02f8 17       		.uleb128 0x17
 12709 02f9 00       		.byte	0
 12710 02fa 00       		.byte	0
 12711 02fb 38       		.uleb128 0x38
 12712 02fc 34       		.uleb128 0x34
 12713 02fd 00       		.byte	0
 12714 02fe 31       		.uleb128 0x31
 12715 02ff 13       		.uleb128 0x13
ARM GAS  C:\Users\AHMED~1.ELE\AppData\Local\Temp\cckRh1xc.s 			page 250


 12716 0300 02       		.uleb128 0x2
 12717 0301 18       		.uleb128 0x18
 12718 0302 00       		.byte	0
 12719 0303 00       		.byte	0
 12720 0304 39       		.uleb128 0x39
 12721 0305 0B       		.uleb128 0xb
 12722 0306 01       		.byte	0x1
 12723 0307 11       		.uleb128 0x11
 12724 0308 01       		.uleb128 0x1
 12725 0309 12       		.uleb128 0x12
 12726 030a 06       		.uleb128 0x6
 12727 030b 01       		.uleb128 0x1
 12728 030c 13       		.uleb128 0x13
 12729 030d 00       		.byte	0
 12730 030e 00       		.byte	0
 12731 030f 3A       		.uleb128 0x3a
 12732 0310 2E       		.uleb128 0x2e
 12733 0311 01       		.byte	0x1
 12734 0312 03       		.uleb128 0x3
 12735 0313 0E       		.uleb128 0xe
 12736 0314 3A       		.uleb128 0x3a
 12737 0315 0B       		.uleb128 0xb
 12738 0316 3B       		.uleb128 0x3b
 12739 0317 05       		.uleb128 0x5
 12740 0318 27       		.uleb128 0x27
 12741 0319 19       		.uleb128 0x19
 12742 031a 49       		.uleb128 0x49
 12743 031b 13       		.uleb128 0x13
 12744 031c 20       		.uleb128 0x20
 12745 031d 0B       		.uleb128 0xb
 12746 031e 01       		.uleb128 0x1
 12747 031f 13       		.uleb128 0x13
 12748 0320 00       		.byte	0
 12749 0321 00       		.byte	0
 12750 0322 3B       		.uleb128 0x3b
 12751 0323 2E       		.uleb128 0x2e
 12752 0324 01       		.byte	0x1
 12753 0325 31       		.uleb128 0x31
 12754 0326 13       		.uleb128 0x13
 12755 0327 11       		.uleb128 0x11
 12756 0328 01       		.uleb128 0x1
 12757 0329 12       		.uleb128 0x12
 12758 032a 06       		.uleb128 0x6
 12759 032b 40       		.uleb128 0x40
 12760 032c 18       		.uleb128 0x18
 12761 032d 9742     		.uleb128 0x2117
 12762 032f 19       		.uleb128 0x19
 12763 0330 01       		.uleb128 0x1
 12764 0331 13       		.uleb128 0x13
 12765 0332 00       		.byte	0
 12766 0333 00       		.byte	0
 12767 0334 3C       		.uleb128 0x3c
 12768 0335 34       		.uleb128 0x34
 12769 0336 00       		.byte	0
 12770 0337 31       		.uleb128 0x31
 12771 0338 13       		.uleb128 0x13
 12772 0339 00       		.byte	0
ARM GAS  C:\Users\AHMED~1.ELE\AppData\Local\Temp\cckRh1xc.s 			page 251


 12773 033a 00       		.byte	0
 12774 033b 3D       		.uleb128 0x3d
 12775 033c 1D       		.uleb128 0x1d
 12776 033d 01       		.byte	0x1
 12777 033e 31       		.uleb128 0x31
 12778 033f 13       		.uleb128 0x13
 12779 0340 11       		.uleb128 0x11
 12780 0341 01       		.uleb128 0x1
 12781 0342 12       		.uleb128 0x12
 12782 0343 06       		.uleb128 0x6
 12783 0344 58       		.uleb128 0x58
 12784 0345 0B       		.uleb128 0xb
 12785 0346 59       		.uleb128 0x59
 12786 0347 05       		.uleb128 0x5
 12787 0348 01       		.uleb128 0x1
 12788 0349 13       		.uleb128 0x13
 12789 034a 00       		.byte	0
 12790 034b 00       		.byte	0
 12791 034c 3E       		.uleb128 0x3e
 12792 034d 05       		.uleb128 0x5
 12793 034e 00       		.byte	0
 12794 034f 03       		.uleb128 0x3
 12795 0350 08       		.uleb128 0x8
 12796 0351 3A       		.uleb128 0x3a
 12797 0352 0B       		.uleb128 0xb
 12798 0353 3B       		.uleb128 0x3b
 12799 0354 05       		.uleb128 0x5
 12800 0355 49       		.uleb128 0x49
 12801 0356 13       		.uleb128 0x13
 12802 0357 02       		.uleb128 0x2
 12803 0358 17       		.uleb128 0x17
 12804 0359 00       		.byte	0
 12805 035a 00       		.byte	0
 12806 035b 3F       		.uleb128 0x3f
 12807 035c 34       		.uleb128 0x34
 12808 035d 00       		.byte	0
 12809 035e 03       		.uleb128 0x3
 12810 035f 08       		.uleb128 0x8
 12811 0360 3A       		.uleb128 0x3a
 12812 0361 0B       		.uleb128 0xb
 12813 0362 3B       		.uleb128 0x3b
 12814 0363 05       		.uleb128 0x5
 12815 0364 49       		.uleb128 0x49
 12816 0365 13       		.uleb128 0x13
 12817 0366 02       		.uleb128 0x2
 12818 0367 18       		.uleb128 0x18
 12819 0368 00       		.byte	0
 12820 0369 00       		.byte	0
 12821 036a 40       		.uleb128 0x40
 12822 036b 34       		.uleb128 0x34
 12823 036c 00       		.byte	0
 12824 036d 03       		.uleb128 0x3
 12825 036e 0E       		.uleb128 0xe
 12826 036f 3A       		.uleb128 0x3a
 12827 0370 0B       		.uleb128 0xb
 12828 0371 3B       		.uleb128 0x3b
 12829 0372 05       		.uleb128 0x5
ARM GAS  C:\Users\AHMED~1.ELE\AppData\Local\Temp\cckRh1xc.s 			page 252


 12830 0373 49       		.uleb128 0x49
 12831 0374 13       		.uleb128 0x13
 12832 0375 02       		.uleb128 0x2
 12833 0376 18       		.uleb128 0x18
 12834 0377 00       		.byte	0
 12835 0378 00       		.byte	0
 12836 0379 41       		.uleb128 0x41
 12837 037a 05       		.uleb128 0x5
 12838 037b 00       		.byte	0
 12839 037c 03       		.uleb128 0x3
 12840 037d 0E       		.uleb128 0xe
 12841 037e 3A       		.uleb128 0x3a
 12842 037f 0B       		.uleb128 0xb
 12843 0380 3B       		.uleb128 0x3b
 12844 0381 05       		.uleb128 0x5
 12845 0382 49       		.uleb128 0x49
 12846 0383 13       		.uleb128 0x13
 12847 0384 00       		.byte	0
 12848 0385 00       		.byte	0
 12849 0386 42       		.uleb128 0x42
 12850 0387 2E       		.uleb128 0x2e
 12851 0388 00       		.byte	0
 12852 0389 03       		.uleb128 0x3
 12853 038a 0E       		.uleb128 0xe
 12854 038b 3A       		.uleb128 0x3a
 12855 038c 0B       		.uleb128 0xb
 12856 038d 3B       		.uleb128 0x3b
 12857 038e 05       		.uleb128 0x5
 12858 038f 27       		.uleb128 0x27
 12859 0390 19       		.uleb128 0x19
 12860 0391 20       		.uleb128 0x20
 12861 0392 0B       		.uleb128 0xb
 12862 0393 00       		.byte	0
 12863 0394 00       		.byte	0
 12864 0395 43       		.uleb128 0x43
 12865 0396 34       		.uleb128 0x34
 12866 0397 00       		.byte	0
 12867 0398 03       		.uleb128 0x3
 12868 0399 08       		.uleb128 0x8
 12869 039a 3A       		.uleb128 0x3a
 12870 039b 0B       		.uleb128 0xb
 12871 039c 3B       		.uleb128 0x3b
 12872 039d 05       		.uleb128 0x5
 12873 039e 49       		.uleb128 0x49
 12874 039f 13       		.uleb128 0x13
 12875 03a0 00       		.byte	0
 12876 03a1 00       		.byte	0
 12877 03a2 44       		.uleb128 0x44
 12878 03a3 2E       		.uleb128 0x2e
 12879 03a4 01       		.byte	0x1
 12880 03a5 03       		.uleb128 0x3
 12881 03a6 0E       		.uleb128 0xe
 12882 03a7 3A       		.uleb128 0x3a
 12883 03a8 0B       		.uleb128 0xb
 12884 03a9 3B       		.uleb128 0x3b
 12885 03aa 05       		.uleb128 0x5
 12886 03ab 27       		.uleb128 0x27
ARM GAS  C:\Users\AHMED~1.ELE\AppData\Local\Temp\cckRh1xc.s 			page 253


 12887 03ac 19       		.uleb128 0x19
 12888 03ad 20       		.uleb128 0x20
 12889 03ae 0B       		.uleb128 0xb
 12890 03af 01       		.uleb128 0x1
 12891 03b0 13       		.uleb128 0x13
 12892 03b1 00       		.byte	0
 12893 03b2 00       		.byte	0
 12894 03b3 45       		.uleb128 0x45
 12895 03b4 2E       		.uleb128 0x2e
 12896 03b5 00       		.byte	0
 12897 03b6 03       		.uleb128 0x3
 12898 03b7 0E       		.uleb128 0xe
 12899 03b8 3A       		.uleb128 0x3a
 12900 03b9 0B       		.uleb128 0xb
 12901 03ba 3B       		.uleb128 0x3b
 12902 03bb 05       		.uleb128 0x5
 12903 03bc 27       		.uleb128 0x27
 12904 03bd 19       		.uleb128 0x19
 12905 03be 49       		.uleb128 0x49
 12906 03bf 13       		.uleb128 0x13
 12907 03c0 20       		.uleb128 0x20
 12908 03c1 0B       		.uleb128 0xb
 12909 03c2 00       		.byte	0
 12910 03c3 00       		.byte	0
 12911 03c4 46       		.uleb128 0x46
 12912 03c5 1D       		.uleb128 0x1d
 12913 03c6 01       		.byte	0x1
 12914 03c7 31       		.uleb128 0x31
 12915 03c8 13       		.uleb128 0x13
 12916 03c9 52       		.uleb128 0x52
 12917 03ca 01       		.uleb128 0x1
 12918 03cb 55       		.uleb128 0x55
 12919 03cc 17       		.uleb128 0x17
 12920 03cd 58       		.uleb128 0x58
 12921 03ce 0B       		.uleb128 0xb
 12922 03cf 59       		.uleb128 0x59
 12923 03d0 05       		.uleb128 0x5
 12924 03d1 01       		.uleb128 0x1
 12925 03d2 13       		.uleb128 0x13
 12926 03d3 00       		.byte	0
 12927 03d4 00       		.byte	0
 12928 03d5 47       		.uleb128 0x47
 12929 03d6 0B       		.uleb128 0xb
 12930 03d7 01       		.byte	0x1
 12931 03d8 55       		.uleb128 0x55
 12932 03d9 17       		.uleb128 0x17
 12933 03da 00       		.byte	0
 12934 03db 00       		.byte	0
 12935 03dc 48       		.uleb128 0x48
 12936 03dd 0B       		.uleb128 0xb
 12937 03de 01       		.byte	0x1
 12938 03df 55       		.uleb128 0x55
 12939 03e0 17       		.uleb128 0x17
 12940 03e1 01       		.uleb128 0x1
 12941 03e2 13       		.uleb128 0x13
 12942 03e3 00       		.byte	0
 12943 03e4 00       		.byte	0
ARM GAS  C:\Users\AHMED~1.ELE\AppData\Local\Temp\cckRh1xc.s 			page 254


 12944 03e5 49       		.uleb128 0x49
 12945 03e6 34       		.uleb128 0x34
 12946 03e7 00       		.byte	0
 12947 03e8 03       		.uleb128 0x3
 12948 03e9 0E       		.uleb128 0xe
 12949 03ea 3A       		.uleb128 0x3a
 12950 03eb 0B       		.uleb128 0xb
 12951 03ec 3B       		.uleb128 0x3b
 12952 03ed 0B       		.uleb128 0xb
 12953 03ee 49       		.uleb128 0x49
 12954 03ef 13       		.uleb128 0x13
 12955 03f0 02       		.uleb128 0x2
 12956 03f1 18       		.uleb128 0x18
 12957 03f2 00       		.byte	0
 12958 03f3 00       		.byte	0
 12959 03f4 4A       		.uleb128 0x4a
 12960 03f5 34       		.uleb128 0x34
 12961 03f6 00       		.byte	0
 12962 03f7 03       		.uleb128 0x3
 12963 03f8 0E       		.uleb128 0xe
 12964 03f9 3A       		.uleb128 0x3a
 12965 03fa 0B       		.uleb128 0xb
 12966 03fb 3B       		.uleb128 0x3b
 12967 03fc 0B       		.uleb128 0xb
 12968 03fd 49       		.uleb128 0x49
 12969 03fe 13       		.uleb128 0x13
 12970 03ff 3F       		.uleb128 0x3f
 12971 0400 19       		.uleb128 0x19
 12972 0401 3C       		.uleb128 0x3c
 12973 0402 19       		.uleb128 0x19
 12974 0403 00       		.byte	0
 12975 0404 00       		.byte	0
 12976 0405 4B       		.uleb128 0x4b
 12977 0406 34       		.uleb128 0x34
 12978 0407 00       		.byte	0
 12979 0408 03       		.uleb128 0x3
 12980 0409 0E       		.uleb128 0xe
 12981 040a 3A       		.uleb128 0x3a
 12982 040b 0B       		.uleb128 0xb
 12983 040c 3B       		.uleb128 0x3b
 12984 040d 0B       		.uleb128 0xb
 12985 040e 49       		.uleb128 0x49
 12986 040f 13       		.uleb128 0x13
 12987 0410 3F       		.uleb128 0x3f
 12988 0411 19       		.uleb128 0x19
 12989 0412 02       		.uleb128 0x2
 12990 0413 18       		.uleb128 0x18
 12991 0414 00       		.byte	0
 12992 0415 00       		.byte	0
 12993 0416 4C       		.uleb128 0x4c
 12994 0417 2E       		.uleb128 0x2e
 12995 0418 01       		.byte	0x1
 12996 0419 3F       		.uleb128 0x3f
 12997 041a 19       		.uleb128 0x19
 12998 041b 03       		.uleb128 0x3
 12999 041c 0E       		.uleb128 0xe
 13000 041d 3A       		.uleb128 0x3a
ARM GAS  C:\Users\AHMED~1.ELE\AppData\Local\Temp\cckRh1xc.s 			page 255


 13001 041e 0B       		.uleb128 0xb
 13002 041f 3B       		.uleb128 0x3b
 13003 0420 0B       		.uleb128 0xb
 13004 0421 27       		.uleb128 0x27
 13005 0422 19       		.uleb128 0x19
 13006 0423 49       		.uleb128 0x49
 13007 0424 13       		.uleb128 0x13
 13008 0425 3C       		.uleb128 0x3c
 13009 0426 19       		.uleb128 0x19
 13010 0427 01       		.uleb128 0x1
 13011 0428 13       		.uleb128 0x13
 13012 0429 00       		.byte	0
 13013 042a 00       		.byte	0
 13014 042b 4D       		.uleb128 0x4d
 13015 042c 05       		.uleb128 0x5
 13016 042d 00       		.byte	0
 13017 042e 49       		.uleb128 0x49
 13018 042f 13       		.uleb128 0x13
 13019 0430 00       		.byte	0
 13020 0431 00       		.byte	0
 13021 0432 4E       		.uleb128 0x4e
 13022 0433 2E       		.uleb128 0x2e
 13023 0434 00       		.byte	0
 13024 0435 3F       		.uleb128 0x3f
 13025 0436 19       		.uleb128 0x19
 13026 0437 03       		.uleb128 0x3
 13027 0438 0E       		.uleb128 0xe
 13028 0439 3A       		.uleb128 0x3a
 13029 043a 0B       		.uleb128 0xb
 13030 043b 3B       		.uleb128 0x3b
 13031 043c 0B       		.uleb128 0xb
 13032 043d 27       		.uleb128 0x27
 13033 043e 19       		.uleb128 0x19
 13034 043f 3C       		.uleb128 0x3c
 13035 0440 19       		.uleb128 0x19
 13036 0441 00       		.byte	0
 13037 0442 00       		.byte	0
 13038 0443 4F       		.uleb128 0x4f
 13039 0444 2E       		.uleb128 0x2e
 13040 0445 01       		.byte	0x1
 13041 0446 3F       		.uleb128 0x3f
 13042 0447 19       		.uleb128 0x19
 13043 0448 03       		.uleb128 0x3
 13044 0449 0E       		.uleb128 0xe
 13045 044a 3A       		.uleb128 0x3a
 13046 044b 0B       		.uleb128 0xb
 13047 044c 3B       		.uleb128 0x3b
 13048 044d 0B       		.uleb128 0xb
 13049 044e 27       		.uleb128 0x27
 13050 044f 19       		.uleb128 0x19
 13051 0450 3C       		.uleb128 0x3c
 13052 0451 19       		.uleb128 0x19
 13053 0452 01       		.uleb128 0x1
 13054 0453 13       		.uleb128 0x13
 13055 0454 00       		.byte	0
 13056 0455 00       		.byte	0
 13057 0456 50       		.uleb128 0x50
ARM GAS  C:\Users\AHMED~1.ELE\AppData\Local\Temp\cckRh1xc.s 			page 256


 13058 0457 2E       		.uleb128 0x2e
 13059 0458 01       		.byte	0x1
 13060 0459 3F       		.uleb128 0x3f
 13061 045a 19       		.uleb128 0x19
 13062 045b 03       		.uleb128 0x3
 13063 045c 0E       		.uleb128 0xe
 13064 045d 27       		.uleb128 0x27
 13065 045e 19       		.uleb128 0x19
 13066 045f 49       		.uleb128 0x49
 13067 0460 13       		.uleb128 0x13
 13068 0461 34       		.uleb128 0x34
 13069 0462 19       		.uleb128 0x19
 13070 0463 3C       		.uleb128 0x3c
 13071 0464 19       		.uleb128 0x19
 13072 0465 01       		.uleb128 0x1
 13073 0466 13       		.uleb128 0x13
 13074 0467 00       		.byte	0
 13075 0468 00       		.byte	0
 13076 0469 51       		.uleb128 0x51
 13077 046a 2E       		.uleb128 0x2e
 13078 046b 00       		.byte	0
 13079 046c 3F       		.uleb128 0x3f
 13080 046d 19       		.uleb128 0x19
 13081 046e 03       		.uleb128 0x3
 13082 046f 0E       		.uleb128 0xe
 13083 0470 3A       		.uleb128 0x3a
 13084 0471 0B       		.uleb128 0xb
 13085 0472 3B       		.uleb128 0x3b
 13086 0473 0B       		.uleb128 0xb
 13087 0474 27       		.uleb128 0x27
 13088 0475 19       		.uleb128 0x19
 13089 0476 49       		.uleb128 0x49
 13090 0477 13       		.uleb128 0x13
 13091 0478 3C       		.uleb128 0x3c
 13092 0479 19       		.uleb128 0x19
 13093 047a 00       		.byte	0
 13094 047b 00       		.byte	0
 13095 047c 52       		.uleb128 0x52
 13096 047d 18       		.uleb128 0x18
 13097 047e 00       		.byte	0
 13098 047f 00       		.byte	0
 13099 0480 00       		.byte	0
 13100 0481 53       		.uleb128 0x53
 13101 0482 2E       		.uleb128 0x2e
 13102 0483 01       		.byte	0x1
 13103 0484 3F       		.uleb128 0x3f
 13104 0485 19       		.uleb128 0x19
 13105 0486 03       		.uleb128 0x3
 13106 0487 0E       		.uleb128 0xe
 13107 0488 3A       		.uleb128 0x3a
 13108 0489 0B       		.uleb128 0xb
 13109 048a 3B       		.uleb128 0x3b
 13110 048b 0B       		.uleb128 0xb
 13111 048c 27       		.uleb128 0x27
 13112 048d 19       		.uleb128 0x19
 13113 048e 3C       		.uleb128 0x3c
 13114 048f 19       		.uleb128 0x19
ARM GAS  C:\Users\AHMED~1.ELE\AppData\Local\Temp\cckRh1xc.s 			page 257


 13115 0490 00       		.byte	0
 13116 0491 00       		.byte	0
 13117 0492 00       		.byte	0
 13118              		.section	.debug_loc,"",%progbits
 13119              	.Ldebug_loc0:
 13120              	.LLST0:
 13121 0000 00000000 		.4byte	.LVL0
 13122 0004 10000000 		.4byte	.LVL1
 13123 0008 0100     		.2byte	0x1
 13124 000a 50       		.byte	0x50
 13125 000b 10000000 		.4byte	.LVL1
 13126 000f 50000000 		.4byte	.LVL5
 13127 0013 0400     		.2byte	0x4
 13128 0015 F3       		.byte	0xf3
 13129 0016 01       		.uleb128 0x1
 13130 0017 50       		.byte	0x50
 13131 0018 9F       		.byte	0x9f
 13132 0019 50000000 		.4byte	.LVL5
 13133 001d 5E000000 		.4byte	.LVL6
 13134 0021 0D00     		.2byte	0xd
 13135 0023 75       		.byte	0x75
 13136 0024 00       		.sleb128 0
 13137 0025 30       		.byte	0x30
 13138 0026 70       		.byte	0x70
 13139 0027 00       		.sleb128 0
 13140 0028 30       		.byte	0x30
 13141 0029 29       		.byte	0x29
 13142 002a 28       		.byte	0x28
 13143 002b 0100     		.2byte	0x1
 13144 002d 16       		.byte	0x16
 13145 002e 13       		.byte	0x13
 13146 002f 9F       		.byte	0x9f
 13147 0030 00000000 		.4byte	0
 13148 0034 00000000 		.4byte	0
 13149              	.LLST1:
 13150 0038 00000000 		.4byte	.LVL7
 13151 003c 0E000000 		.4byte	.LVL8
 13152 0040 0100     		.2byte	0x1
 13153 0042 50       		.byte	0x50
 13154 0043 0E000000 		.4byte	.LVL8
 13155 0047 82000000 		.4byte	.LFE0
 13156 004b 0100     		.2byte	0x1
 13157 004d 57       		.byte	0x57
 13158 004e 00000000 		.4byte	0
 13159 0052 00000000 		.4byte	0
 13160              	.LLST2:
 13161 0056 00000000 		.4byte	.LVL7
 13162 005a 0E000000 		.4byte	.LVL8
 13163 005e 0100     		.2byte	0x1
 13164 0060 51       		.byte	0x51
 13165 0061 0E000000 		.4byte	.LVL8
 13166 0065 58000000 		.4byte	.LVL19
 13167 0069 0100     		.2byte	0x1
 13168 006b 55       		.byte	0x55
 13169 006c 58000000 		.4byte	.LVL19
 13170 0070 6C000000 		.4byte	.LVL24
 13171 0074 0100     		.2byte	0x1
ARM GAS  C:\Users\AHMED~1.ELE\AppData\Local\Temp\cckRh1xc.s 			page 258


 13172 0076 53       		.byte	0x53
 13173 0077 6C000000 		.4byte	.LVL24
 13174 007b 7A000000 		.4byte	.LVL25
 13175 007f 0100     		.2byte	0x1
 13176 0081 55       		.byte	0x55
 13177 0082 00000000 		.4byte	0
 13178 0086 00000000 		.4byte	0
 13179              	.LLST3:
 13180 008a 00000000 		.4byte	.LVL7
 13181 008e 0E000000 		.4byte	.LVL8
 13182 0092 0100     		.2byte	0x1
 13183 0094 52       		.byte	0x52
 13184 0095 0E000000 		.4byte	.LVL8
 13185 0099 1A000000 		.4byte	.LVL9
 13186 009d 0100     		.2byte	0x1
 13187 009f 56       		.byte	0x56
 13188 00a0 1E000000 		.4byte	.LVL11
 13189 00a4 5E000000 		.4byte	.LVL21
 13190 00a8 0100     		.2byte	0x1
 13191 00aa 56       		.byte	0x56
 13192 00ab 64000000 		.4byte	.LVL22
 13193 00af 7A000000 		.4byte	.LVL25
 13194 00b3 0100     		.2byte	0x1
 13195 00b5 56       		.byte	0x56
 13196 00b6 00000000 		.4byte	0
 13197 00ba 00000000 		.4byte	0
 13198              	.LLST4:
 13199 00be 0E000000 		.4byte	.LVL8
 13200 00c2 68000000 		.4byte	.LVL23
 13201 00c6 0100     		.2byte	0x1
 13202 00c8 54       		.byte	0x54
 13203 00c9 6C000000 		.4byte	.LVL24
 13204 00cd 7A000000 		.4byte	.LVL25
 13205 00d1 0100     		.2byte	0x1
 13206 00d3 54       		.byte	0x54
 13207 00d4 00000000 		.4byte	0
 13208 00d8 00000000 		.4byte	0
 13209              	.LLST5:
 13210 00dc 32000000 		.4byte	.LVL13
 13211 00e0 5C000000 		.4byte	.LVL20
 13212 00e4 0100     		.2byte	0x1
 13213 00e6 55       		.byte	0x55
 13214 00e7 00000000 		.4byte	0
 13215 00eb 00000000 		.4byte	0
 13216              	.LLST6:
 13217 00ef 42000000 		.4byte	.LVL15
 13218 00f3 44000000 		.4byte	.LVL16
 13219 00f7 0100     		.2byte	0x1
 13220 00f9 50       		.byte	0x50
 13221 00fa 00000000 		.4byte	0
 13222 00fe 00000000 		.4byte	0
 13223              	.LLST7:
 13224 0102 00000000 		.4byte	.LVL26
 13225 0106 00000000 		.4byte	.LVL26
 13226 010a 0100     		.2byte	0x1
 13227 010c 50       		.byte	0x50
 13228 010d 00000000 		.4byte	.LVL26
ARM GAS  C:\Users\AHMED~1.ELE\AppData\Local\Temp\cckRh1xc.s 			page 259


 13229 0111 0A000000 		.4byte	.LVL27
 13230 0115 0300     		.2byte	0x3
 13231 0117 70       		.byte	0x70
 13232 0118 01       		.sleb128 1
 13233 0119 9F       		.byte	0x9f
 13234 011a 0A000000 		.4byte	.LVL27
 13235 011e 0E000000 		.4byte	.LVL28
 13236 0122 0100     		.2byte	0x1
 13237 0124 50       		.byte	0x50
 13238 0125 0E000000 		.4byte	.LVL28
 13239 0129 10000000 		.4byte	.LFE4
 13240 012d 0300     		.2byte	0x3
 13241 012f 70       		.byte	0x70
 13242 0130 7F       		.sleb128 -1
 13243 0131 9F       		.byte	0x9f
 13244 0132 00000000 		.4byte	0
 13245 0136 00000000 		.4byte	0
 13246              	.LLST8:
 13247 013a 00000000 		.4byte	.LVL29
 13248 013e 0A000000 		.4byte	.LVL30
 13249 0142 0100     		.2byte	0x1
 13250 0144 50       		.byte	0x50
 13251 0145 0A000000 		.4byte	.LVL30
 13252 0149 0E000000 		.4byte	.LVL31
 13253 014d 0100     		.2byte	0x1
 13254 014f 50       		.byte	0x50
 13255 0150 00000000 		.4byte	0
 13256 0154 00000000 		.4byte	0
 13257              	.LLST9:
 13258 0158 00000000 		.4byte	.LVL32
 13259 015c 0A000000 		.4byte	.LVL33
 13260 0160 0100     		.2byte	0x1
 13261 0162 50       		.byte	0x50
 13262 0163 0C000000 		.4byte	.LVL34
 13263 0167 12000000 		.4byte	.LVL36
 13264 016b 0100     		.2byte	0x1
 13265 016d 50       		.byte	0x50
 13266 016e 00000000 		.4byte	0
 13267 0172 00000000 		.4byte	0
 13268              	.LLST10:
 13269 0176 00000000 		.4byte	.LVL37
 13270 017a 06000000 		.4byte	.LVL38
 13271 017e 0100     		.2byte	0x1
 13272 0180 50       		.byte	0x50
 13273 0181 06000000 		.4byte	.LVL38
 13274 0185 2A000000 		.4byte	.LVL42
 13275 0189 0100     		.2byte	0x1
 13276 018b 54       		.byte	0x54
 13277 018c 2A000000 		.4byte	.LVL42
 13278 0190 2E000000 		.4byte	.LVL43
 13279 0194 0100     		.2byte	0x1
 13280 0196 50       		.byte	0x50
 13281 0197 2E000000 		.4byte	.LVL43
 13282 019b 44000000 		.4byte	.LVL47
 13283 019f 0100     		.2byte	0x1
 13284 01a1 54       		.byte	0x54
 13285 01a2 44000000 		.4byte	.LVL47
ARM GAS  C:\Users\AHMED~1.ELE\AppData\Local\Temp\cckRh1xc.s 			page 260


 13286 01a6 48000000 		.4byte	.LFE7
 13287 01aa 0100     		.2byte	0x1
 13288 01ac 50       		.byte	0x50
 13289 01ad 00000000 		.4byte	0
 13290 01b1 00000000 		.4byte	0
 13291              	.LLST11:
 13292 01b5 00000000 		.4byte	.LVL37
 13293 01b9 06000000 		.4byte	.LVL38
 13294 01bd 0100     		.2byte	0x1
 13295 01bf 51       		.byte	0x51
 13296 01c0 06000000 		.4byte	.LVL38
 13297 01c4 0A000000 		.4byte	.LVL39
 13298 01c8 0300     		.2byte	0x3
 13299 01ca 77       		.byte	0x77
 13300 01cb 02       		.sleb128 2
 13301 01cc 9F       		.byte	0x9f
 13302 01cd 0A000000 		.4byte	.LVL39
 13303 01d1 3E000000 		.4byte	.LVL45
 13304 01d5 0100     		.2byte	0x1
 13305 01d7 57       		.byte	0x57
 13306 01d8 3E000000 		.4byte	.LVL45
 13307 01dc 40000000 		.4byte	.LVL46
 13308 01e0 0300     		.2byte	0x3
 13309 01e2 77       		.byte	0x77
 13310 01e3 02       		.sleb128 2
 13311 01e4 9F       		.byte	0x9f
 13312 01e5 40000000 		.4byte	.LVL46
 13313 01e9 44000000 		.4byte	.LVL47
 13314 01ed 0100     		.2byte	0x1
 13315 01ef 57       		.byte	0x57
 13316 01f0 00000000 		.4byte	0
 13317 01f4 00000000 		.4byte	0
 13318              	.LLST12:
 13319 01f8 0A000000 		.4byte	.LVL39
 13320 01fc 44000000 		.4byte	.LVL47
 13321 0200 0100     		.2byte	0x1
 13322 0202 56       		.byte	0x56
 13323 0203 00000000 		.4byte	0
 13324 0207 00000000 		.4byte	0
 13325              	.LLST13:
 13326 020b 1C000000 		.4byte	.LVL40
 13327 020f 24000000 		.4byte	.LVL41
 13328 0213 0100     		.2byte	0x1
 13329 0215 50       		.byte	0x50
 13330 0216 24000000 		.4byte	.LVL41
 13331 021a 40000000 		.4byte	.LVL46
 13332 021e 0100     		.2byte	0x1
 13333 0220 55       		.byte	0x55
 13334 0221 00000000 		.4byte	0
 13335 0225 00000000 		.4byte	0
 13336              	.LLST14:
 13337 0229 00000000 		.4byte	.LVL53
 13338 022d 0A000000 		.4byte	.LVL54
 13339 0231 0100     		.2byte	0x1
 13340 0233 50       		.byte	0x50
 13341 0234 0A000000 		.4byte	.LVL54
 13342 0238 98010000 		.4byte	.LFE3
ARM GAS  C:\Users\AHMED~1.ELE\AppData\Local\Temp\cckRh1xc.s 			page 261


 13343 023c 0400     		.2byte	0x4
 13344 023e F3       		.byte	0xf3
 13345 023f 01       		.uleb128 0x1
 13346 0240 50       		.byte	0x50
 13347 0241 9F       		.byte	0x9f
 13348 0242 00000000 		.4byte	0
 13349 0246 00000000 		.4byte	0
 13350              	.LLST15:
 13351 024a 46000000 		.4byte	.LVL58
 13352 024e 48010000 		.4byte	.LVL82
 13353 0252 0100     		.2byte	0x1
 13354 0254 57       		.byte	0x57
 13355 0255 88010000 		.4byte	.LVL87
 13356 0259 8A010000 		.4byte	.LVL88
 13357 025d 0100     		.2byte	0x1
 13358 025f 57       		.byte	0x57
 13359 0260 00000000 		.4byte	0
 13360 0264 00000000 		.4byte	0
 13361              	.LLST16:
 13362 0268 70000000 		.4byte	.LVL62
 13363 026c 3A010000 		.4byte	.LVL79
 13364 0270 0100     		.2byte	0x1
 13365 0272 54       		.byte	0x54
 13366 0273 3C010000 		.4byte	.LVL80
 13367 0277 46010000 		.4byte	.LVL81
 13368 027b 0100     		.2byte	0x1
 13369 027d 54       		.byte	0x54
 13370 027e 88010000 		.4byte	.LVL87
 13371 0282 8A010000 		.4byte	.LVL88
 13372 0286 0100     		.2byte	0x1
 13373 0288 54       		.byte	0x54
 13374 0289 00000000 		.4byte	0
 13375 028d 00000000 		.4byte	0
 13376              	.LLST17:
 13377 0291 20010000 		.4byte	.LVL78
 13378 0295 48010000 		.4byte	.LVL82
 13379 0299 0100     		.2byte	0x1
 13380 029b 50       		.byte	0x50
 13381 029c 88010000 		.4byte	.LVL87
 13382 02a0 8A010000 		.4byte	.LVL88
 13383 02a4 0100     		.2byte	0x1
 13384 02a6 50       		.byte	0x50
 13385 02a7 00000000 		.4byte	0
 13386 02ab 00000000 		.4byte	0
 13387              	.LLST18:
 13388 02af 70000000 		.4byte	.LVL62
 13389 02b3 91000000 		.4byte	.LVL64-1
 13390 02b7 1100     		.2byte	0x11
 13391 02b9 74       		.byte	0x74
 13392 02ba 00       		.sleb128 0
 13393 02bb 08       		.byte	0x8
 13394 02bc FF       		.byte	0xff
 13395 02bd 1A       		.byte	0x1a
 13396 02be 31       		.byte	0x31
 13397 02bf 24       		.byte	0x24
 13398 02c0 23       		.byte	0x23
 13399 02c1 F50D     		.uleb128 0x6f5
ARM GAS  C:\Users\AHMED~1.ELE\AppData\Local\Temp\cckRh1xc.s 			page 262


 13400 02c3 33       		.byte	0x33
 13401 02c4 24       		.byte	0x24
 13402 02c5 76       		.byte	0x76
 13403 02c6 00       		.sleb128 0
 13404 02c7 06       		.byte	0x6
 13405 02c8 22       		.byte	0x22
 13406 02c9 9F       		.byte	0x9f
 13407 02ca 00000000 		.4byte	0
 13408 02ce 00000000 		.4byte	0
 13409              	.LLST19:
 13410 02d2 92000000 		.4byte	.LVL64
 13411 02d6 94000000 		.4byte	.LVL65
 13412 02da 0200     		.2byte	0x2
 13413 02dc 30       		.byte	0x30
 13414 02dd 9F       		.byte	0x9f
 13415 02de 94000000 		.4byte	.LVL65
 13416 02e2 A2000000 		.4byte	.LVL66
 13417 02e6 0600     		.2byte	0x6
 13418 02e8 73       		.byte	0x73
 13419 02e9 00       		.sleb128 0
 13420 02ea 91       		.byte	0x91
 13421 02eb 44       		.sleb128 -60
 13422 02ec 1C       		.byte	0x1c
 13423 02ed 9F       		.byte	0x9f
 13424 02ee B0000000 		.4byte	.LVL67
 13425 02f2 B4000000 		.4byte	.LVL68
 13426 02f6 0600     		.2byte	0x6
 13427 02f8 73       		.byte	0x73
 13428 02f9 00       		.sleb128 0
 13429 02fa 91       		.byte	0x91
 13430 02fb 44       		.sleb128 -60
 13431 02fc 1C       		.byte	0x1c
 13432 02fd 9F       		.byte	0x9f
 13433 02fe 00000000 		.4byte	0
 13434 0302 00000000 		.4byte	0
 13435              	.LLST20:
 13436 0306 8C000000 		.4byte	.LVL63
 13437 030a B6000000 		.4byte	.LVL69
 13438 030e 0100     		.2byte	0x1
 13439 0310 55       		.byte	0x55
 13440 0311 00000000 		.4byte	0
 13441 0315 00000000 		.4byte	0
 13442              	.LLST21:
 13443 0319 D8000000 		.4byte	.LVL72
 13444 031d DE000000 		.4byte	.LVL73
 13445 0321 0100     		.2byte	0x1
 13446 0323 50       		.byte	0x50
 13447 0324 DE000000 		.4byte	.LVL73
 13448 0328 48010000 		.4byte	.LVL82
 13449 032c 0100     		.2byte	0x1
 13450 032e 5A       		.byte	0x5a
 13451 032f 88010000 		.4byte	.LVL87
 13452 0333 8A010000 		.4byte	.LVL88
 13453 0337 0100     		.2byte	0x1
 13454 0339 5A       		.byte	0x5a
 13455 033a 00000000 		.4byte	0
 13456 033e 00000000 		.4byte	0
ARM GAS  C:\Users\AHMED~1.ELE\AppData\Local\Temp\cckRh1xc.s 			page 263


 13457              	.LLST22:
 13458 0342 E2000000 		.4byte	.LVL74
 13459 0346 ED000000 		.4byte	.LVL75-1
 13460 034a 0100     		.2byte	0x1
 13461 034c 50       		.byte	0x50
 13462 034d ED000000 		.4byte	.LVL75-1
 13463 0351 0E010000 		.4byte	.LVL77
 13464 0355 0100     		.2byte	0x1
 13465 0357 55       		.byte	0x55
 13466 0358 00000000 		.4byte	0
 13467 035c 00000000 		.4byte	0
 13468              	.LLST23:
 13469 0360 16000000 		.4byte	.LVL89
 13470 0364 22000000 		.4byte	.LVL90
 13471 0368 0100     		.2byte	0x1
 13472 036a 50       		.byte	0x50
 13473 036b 38000000 		.4byte	.LVL92
 13474 036f 3A000000 		.4byte	.LVL93
 13475 0373 0100     		.2byte	0x1
 13476 0375 50       		.byte	0x50
 13477 0376 00000000 		.4byte	0
 13478 037a 00000000 		.4byte	0
 13479              	.LLST24:
 13480 037e 30000000 		.4byte	.LVL95
 13481 0382 40000000 		.4byte	.LVL97
 13482 0386 0100     		.2byte	0x1
 13483 0388 50       		.byte	0x50
 13484 0389 40000000 		.4byte	.LVL97
 13485 038d 48000000 		.4byte	.LVL99
 13486 0391 0100     		.2byte	0x1
 13487 0393 54       		.byte	0x54
 13488 0394 00000000 		.4byte	0
 13489 0398 00000000 		.4byte	0
 13490              	.LLST25:
 13491 039c 36000000 		.4byte	.LVL96
 13492 03a0 6C000000 		.4byte	.LVL102
 13493 03a4 0100     		.2byte	0x1
 13494 03a6 55       		.byte	0x55
 13495 03a7 72000000 		.4byte	.LVL104
 13496 03ab 74000000 		.4byte	.LVL105
 13497 03af 0100     		.2byte	0x1
 13498 03b1 55       		.byte	0x55
 13499 03b2 00000000 		.4byte	0
 13500 03b6 00000000 		.4byte	0
 13501              	.LLST26:
 13502 03ba 9A000000 		.4byte	.LVL108
 13503 03be A4000000 		.4byte	.LVL110
 13504 03c2 0100     		.2byte	0x1
 13505 03c4 50       		.byte	0x50
 13506 03c5 A4000000 		.4byte	.LVL110
 13507 03c9 AF000000 		.4byte	.LVL112-1
 13508 03cd 0100     		.2byte	0x1
 13509 03cf 53       		.byte	0x53
 13510 03d0 BE000000 		.4byte	.LVL113
 13511 03d4 CE000000 		.4byte	.LVL115
 13512 03d8 0100     		.2byte	0x1
 13513 03da 50       		.byte	0x50
ARM GAS  C:\Users\AHMED~1.ELE\AppData\Local\Temp\cckRh1xc.s 			page 264


 13514 03db CE000000 		.4byte	.LVL115
 13515 03df D1000000 		.4byte	.LVL116-1
 13516 03e3 0100     		.2byte	0x1
 13517 03e5 53       		.byte	0x53
 13518 03e6 20010000 		.4byte	.LVL121
 13519 03ea 2C010000 		.4byte	.LVL123
 13520 03ee 0100     		.2byte	0x1
 13521 03f0 50       		.byte	0x50
 13522 03f1 2C010000 		.4byte	.LVL123
 13523 03f5 33010000 		.4byte	.LVL125-1
 13524 03f9 0100     		.2byte	0x1
 13525 03fb 53       		.byte	0x53
 13526 03fc 3E010000 		.4byte	.LVL126
 13527 0400 46010000 		.4byte	.LVL127
 13528 0404 0100     		.2byte	0x1
 13529 0406 50       		.byte	0x50
 13530 0407 00000000 		.4byte	0
 13531 040b 00000000 		.4byte	0
 13532              	.LLST27:
 13533 040f A0000000 		.4byte	.LVL109
 13534 0413 AC000000 		.4byte	.LVL111
 13535 0417 1300     		.2byte	0x13
 13536 0419 72       		.byte	0x72
 13537 041a 00       		.sleb128 0
 13538 041b 12       		.byte	0x12
 13539 041c 08       		.byte	0x8
 13540 041d FF       		.byte	0xff
 13541 041e 1A       		.byte	0x1a
 13542 041f 4A       		.byte	0x4a
 13543 0420 16       		.byte	0x16
 13544 0421 14       		.byte	0x14
 13545 0422 08       		.byte	0x8
 13546 0423 FF       		.byte	0xff
 13547 0424 1A       		.byte	0x1a
 13548 0425 2D       		.byte	0x2d
 13549 0426 28       		.byte	0x28
 13550 0427 0100     		.2byte	0x1
 13551 0429 16       		.byte	0x16
 13552 042a 13       		.byte	0x13
 13553 042b 9F       		.byte	0x9f
 13554 042c AC000000 		.4byte	.LVL111
 13555 0430 AF000000 		.4byte	.LVL112-1
 13556 0434 1500     		.2byte	0x15
 13557 0436 73       		.byte	0x73
 13558 0437 02       		.sleb128 2
 13559 0438 94       		.byte	0x94
 13560 0439 01       		.byte	0x1
 13561 043a 12       		.byte	0x12
 13562 043b 08       		.byte	0x8
 13563 043c FF       		.byte	0xff
 13564 043d 1A       		.byte	0x1a
 13565 043e 4A       		.byte	0x4a
 13566 043f 16       		.byte	0x16
 13567 0440 14       		.byte	0x14
 13568 0441 08       		.byte	0x8
 13569 0442 FF       		.byte	0xff
 13570 0443 1A       		.byte	0x1a
ARM GAS  C:\Users\AHMED~1.ELE\AppData\Local\Temp\cckRh1xc.s 			page 265


 13571 0444 2D       		.byte	0x2d
 13572 0445 28       		.byte	0x28
 13573 0446 0100     		.2byte	0x1
 13574 0448 16       		.byte	0x16
 13575 0449 13       		.byte	0x13
 13576 044a 9F       		.byte	0x9f
 13577 044b C8000000 		.4byte	.LVL114
 13578 044f EA000000 		.4byte	.LVL118
 13579 0453 0100     		.2byte	0x1
 13580 0455 55       		.byte	0x55
 13581 0456 26010000 		.4byte	.LVL122
 13582 045a 30010000 		.4byte	.LVL124
 13583 045e 1300     		.2byte	0x13
 13584 0460 72       		.byte	0x72
 13585 0461 00       		.sleb128 0
 13586 0462 12       		.byte	0x12
 13587 0463 08       		.byte	0x8
 13588 0464 FF       		.byte	0xff
 13589 0465 1A       		.byte	0x1a
 13590 0466 40       		.byte	0x40
 13591 0467 16       		.byte	0x16
 13592 0468 14       		.byte	0x14
 13593 0469 08       		.byte	0x8
 13594 046a FF       		.byte	0xff
 13595 046b 1A       		.byte	0x1a
 13596 046c 2D       		.byte	0x2d
 13597 046d 28       		.byte	0x28
 13598 046e 0100     		.2byte	0x1
 13599 0470 16       		.byte	0x16
 13600 0471 13       		.byte	0x13
 13601 0472 9F       		.byte	0x9f
 13602 0473 30010000 		.4byte	.LVL124
 13603 0477 33010000 		.4byte	.LVL125-1
 13604 047b 1500     		.2byte	0x15
 13605 047d 73       		.byte	0x73
 13606 047e 02       		.sleb128 2
 13607 047f 94       		.byte	0x94
 13608 0480 01       		.byte	0x1
 13609 0481 12       		.byte	0x12
 13610 0482 08       		.byte	0x8
 13611 0483 FF       		.byte	0xff
 13612 0484 1A       		.byte	0x1a
 13613 0485 40       		.byte	0x40
 13614 0486 16       		.byte	0x16
 13615 0487 14       		.byte	0x14
 13616 0488 08       		.byte	0x8
 13617 0489 FF       		.byte	0xff
 13618 048a 1A       		.byte	0x1a
 13619 048b 2D       		.byte	0x2d
 13620 048c 28       		.byte	0x28
 13621 048d 0100     		.2byte	0x1
 13622 048f 16       		.byte	0x16
 13623 0490 13       		.byte	0x13
 13624 0491 9F       		.byte	0x9f
 13625 0492 00000000 		.4byte	0
 13626 0496 00000000 		.4byte	0
 13627              	.LLST28:
ARM GAS  C:\Users\AHMED~1.ELE\AppData\Local\Temp\cckRh1xc.s 			page 266


 13628 049a 00000000 		.4byte	.LVL136
 13629 049e 10000000 		.4byte	.LVL137
 13630 04a2 0100     		.2byte	0x1
 13631 04a4 50       		.byte	0x50
 13632 04a5 10000000 		.4byte	.LVL137
 13633 04a9 1C000000 		.4byte	.LVL140
 13634 04ad 0100     		.2byte	0x1
 13635 04af 55       		.byte	0x55
 13636 04b0 1C000000 		.4byte	.LVL140
 13637 04b4 20000000 		.4byte	.LFE13
 13638 04b8 0400     		.2byte	0x4
 13639 04ba F3       		.byte	0xf3
 13640 04bb 01       		.uleb128 0x1
 13641 04bc 50       		.byte	0x50
 13642 04bd 9F       		.byte	0x9f
 13643 04be 00000000 		.4byte	0
 13644 04c2 00000000 		.4byte	0
 13645              	.LLST29:
 13646 04c6 14000000 		.4byte	.LVL138
 13647 04ca 16000000 		.4byte	.LVL139
 13648 04ce 0100     		.2byte	0x1
 13649 04d0 50       		.byte	0x50
 13650 04d1 00000000 		.4byte	0
 13651 04d5 00000000 		.4byte	0
 13652              	.LLST30:
 13653 04d9 00000000 		.4byte	.LVL141
 13654 04dd 08000000 		.4byte	.LVL142
 13655 04e1 0100     		.2byte	0x1
 13656 04e3 50       		.byte	0x50
 13657 04e4 08000000 		.4byte	.LVL142
 13658 04e8 78000000 		.4byte	.LFE20
 13659 04ec 0400     		.2byte	0x4
 13660 04ee F3       		.byte	0xf3
 13661 04ef 01       		.uleb128 0x1
 13662 04f0 50       		.byte	0x50
 13663 04f1 9F       		.byte	0x9f
 13664 04f2 00000000 		.4byte	0
 13665 04f6 00000000 		.4byte	0
 13666              	.LLST31:
 13667 04fa 00000000 		.4byte	.LVL141
 13668 04fe 0F000000 		.4byte	.LVL143-1
 13669 0502 0100     		.2byte	0x1
 13670 0504 51       		.byte	0x51
 13671 0505 0F000000 		.4byte	.LVL143-1
 13672 0509 78000000 		.4byte	.LFE20
 13673 050d 0400     		.2byte	0x4
 13674 050f F3       		.byte	0xf3
 13675 0510 01       		.uleb128 0x1
 13676 0511 51       		.byte	0x51
 13677 0512 9F       		.byte	0x9f
 13678 0513 00000000 		.4byte	0
 13679 0517 00000000 		.4byte	0
 13680              	.LLST32:
 13681 051b 00000000 		.4byte	.LVL141
 13682 051f 0F000000 		.4byte	.LVL143-1
 13683 0523 0100     		.2byte	0x1
 13684 0525 52       		.byte	0x52
ARM GAS  C:\Users\AHMED~1.ELE\AppData\Local\Temp\cckRh1xc.s 			page 267


 13685 0526 0F000000 		.4byte	.LVL143-1
 13686 052a 60000000 		.4byte	.LVL153
 13687 052e 0100     		.2byte	0x1
 13688 0530 55       		.byte	0x55
 13689 0531 60000000 		.4byte	.LVL153
 13690 0535 78000000 		.4byte	.LFE20
 13691 0539 0400     		.2byte	0x4
 13692 053b F3       		.byte	0xf3
 13693 053c 01       		.uleb128 0x1
 13694 053d 52       		.byte	0x52
 13695 053e 9F       		.byte	0x9f
 13696 053f 00000000 		.4byte	0
 13697 0543 00000000 		.4byte	0
 13698              	.LLST33:
 13699 0547 30000000 		.4byte	.LVL146
 13700 054b 32000000 		.4byte	.LVL147
 13701 054f 0200     		.2byte	0x2
 13702 0551 31       		.byte	0x31
 13703 0552 9F       		.byte	0x9f
 13704 0553 32000000 		.4byte	.LVL147
 13705 0557 46000000 		.4byte	.LVL148
 13706 055b 0100     		.2byte	0x1
 13707 055d 54       		.byte	0x54
 13708 055e 54000000 		.4byte	.LVL151
 13709 0562 60000000 		.4byte	.LVL153
 13710 0566 0100     		.2byte	0x1
 13711 0568 54       		.byte	0x54
 13712 0569 00000000 		.4byte	0
 13713 056d 00000000 		.4byte	0
 13714              	.LLST34:
 13715 0571 20000000 		.4byte	.LVL156
 13716 0575 58000000 		.4byte	.LVL157
 13717 0579 0200     		.2byte	0x2
 13718 057b 31       		.byte	0x31
 13719 057c 9F       		.byte	0x9f
 13720 057d 5A000000 		.4byte	.LVL158
 13721 0581 34010000 		.4byte	.LVL167
 13722 0585 0100     		.2byte	0x1
 13723 0587 56       		.byte	0x56
 13724 0588 3E010000 		.4byte	.LVL168
 13725 058c D4010000 		.4byte	.LVL180
 13726 0590 0100     		.2byte	0x1
 13727 0592 56       		.byte	0x56
 13728 0593 5E040000 		.4byte	.LVL228
 13729 0597 CC080000 		.4byte	.LVL289
 13730 059b 0100     		.2byte	0x1
 13731 059d 56       		.byte	0x56
 13732 059e 00000000 		.4byte	0
 13733 05a2 00000000 		.4byte	0
 13734              	.LLST35:
 13735 05a6 00000000 		.4byte	.LVL155
 13736 05aa 58000000 		.4byte	.LVL157
 13737 05ae 0200     		.2byte	0x2
 13738 05b0 30       		.byte	0x30
 13739 05b1 9F       		.byte	0x9f
 13740 05b2 5A000000 		.4byte	.LVL158
 13741 05b6 D4080000 		.4byte	.LVL290
ARM GAS  C:\Users\AHMED~1.ELE\AppData\Local\Temp\cckRh1xc.s 			page 268


 13742 05ba 0300     		.2byte	0x3
 13743 05bc 91       		.byte	0x91
 13744 05bd 9C7F     		.sleb128 -100
 13745 05bf D4080000 		.4byte	.LVL290
 13746 05c3 FC080000 		.4byte	.LFE22
 13747 05c7 0300     		.2byte	0x3
 13748 05c9 7D       		.byte	0x7d
 13749 05ca 9C7F     		.sleb128 -100
 13750 05cc 00000000 		.4byte	0
 13751 05d0 00000000 		.4byte	0
 13752              	.LLST36:
 13753 05d4 7E000000 		.4byte	.LVL160
 13754 05d8 2E010000 		.4byte	.LVL166
 13755 05dc 0100     		.2byte	0x1
 13756 05de 56       		.byte	0x56
 13757 05df 2E010000 		.4byte	.LVL166
 13758 05e3 3E010000 		.4byte	.LVL168
 13759 05e7 0D00     		.2byte	0xd
 13760 05e9 76       		.byte	0x76
 13761 05ea 00       		.sleb128 0
 13762 05eb 30       		.byte	0x30
 13763 05ec 70       		.byte	0x70
 13764 05ed 00       		.sleb128 0
 13765 05ee 30       		.byte	0x30
 13766 05ef 29       		.byte	0x29
 13767 05f0 28       		.byte	0x28
 13768 05f1 0100     		.2byte	0x1
 13769 05f3 16       		.byte	0x16
 13770 05f4 13       		.byte	0x13
 13771 05f5 9F       		.byte	0x9f
 13772 05f6 00000000 		.4byte	0
 13773 05fa 00000000 		.4byte	0
 13774              	.LLST37:
 13775 05fe C8010000 		.4byte	.LVL177
 13776 0602 CE010000 		.4byte	.LVL178
 13777 0606 0100     		.2byte	0x1
 13778 0608 50       		.byte	0x50
 13779 0609 CE010000 		.4byte	.LVL178
 13780 060d 16020000 		.4byte	.LVL186
 13781 0611 0100     		.2byte	0x1
 13782 0613 59       		.byte	0x59
 13783 0614 00000000 		.4byte	0
 13784 0618 00000000 		.4byte	0
 13785              	.LLST38:
 13786 061c D2010000 		.4byte	.LVL179
 13787 0620 DD010000 		.4byte	.LVL181-1
 13788 0624 0100     		.2byte	0x1
 13789 0626 50       		.byte	0x50
 13790 0627 DD010000 		.4byte	.LVL181-1
 13791 062b 00020000 		.4byte	.LVL184
 13792 062f 0100     		.2byte	0x1
 13793 0631 56       		.byte	0x56
 13794 0632 00000000 		.4byte	0
 13795 0636 00000000 		.4byte	0
 13796              	.LLST39:
 13797 063a B0020000 		.4byte	.LVL192
 13798 063e 3E040000 		.4byte	.LVL226
ARM GAS  C:\Users\AHMED~1.ELE\AppData\Local\Temp\cckRh1xc.s 			page 269


 13799 0642 0500     		.2byte	0x5
 13800 0644 79       		.byte	0x79
 13801 0645 00       		.sleb128 0
 13802 0646 40       		.byte	0x40
 13803 0647 1A       		.byte	0x1a
 13804 0648 9F       		.byte	0x9f
 13805 0649 00000000 		.4byte	0
 13806 064d 00000000 		.4byte	0
 13807              	.LLST40:
 13808 0651 12030000 		.4byte	.LVL198
 13809 0655 1E030000 		.4byte	.LVL199
 13810 0659 0100     		.2byte	0x1
 13811 065b 50       		.byte	0x50
 13812 065c 1E030000 		.4byte	.LVL199
 13813 0660 25030000 		.4byte	.LVL200-1
 13814 0664 0100     		.2byte	0x1
 13815 0666 51       		.byte	0x51
 13816 0667 28030000 		.4byte	.LVL201
 13817 066b 2B030000 		.4byte	.LVL202-1
 13818 066f 0100     		.2byte	0x1
 13819 0671 51       		.byte	0x51
 13820 0672 00000000 		.4byte	0
 13821 0676 00000000 		.4byte	0
 13822              	.LLST41:
 13823 067a 6A030000 		.4byte	.LVL207
 13824 067e 70030000 		.4byte	.LVL208
 13825 0682 0100     		.2byte	0x1
 13826 0684 50       		.byte	0x50
 13827 0685 70030000 		.4byte	.LVL208
 13828 0689 77030000 		.4byte	.LVL209-1
 13829 068d 0100     		.2byte	0x1
 13830 068f 53       		.byte	0x53
 13831 0690 82030000 		.4byte	.LVL210
 13832 0694 88030000 		.4byte	.LVL211
 13833 0698 0100     		.2byte	0x1
 13834 069a 50       		.byte	0x50
 13835 069b 88030000 		.4byte	.LVL211
 13836 069f 3E040000 		.4byte	.LVL226
 13837 06a3 0100     		.2byte	0x1
 13838 06a5 56       		.byte	0x56
 13839 06a6 00000000 		.4byte	0
 13840 06aa 00000000 		.4byte	0
 13841              	.LLST42:
 13842 06ae D0030000 		.4byte	.LVL215
 13843 06b2 E0030000 		.4byte	.LVL216
 13844 06b6 0100     		.2byte	0x1
 13845 06b8 50       		.byte	0x50
 13846 06b9 00000000 		.4byte	0
 13847 06bd 00000000 		.4byte	0
 13848              	.LLST43:
 13849 06c1 00000000 		.4byte	.LVL291
 13850 06c5 17000000 		.4byte	.LVL292-1
 13851 06c9 0100     		.2byte	0x1
 13852 06cb 50       		.byte	0x50
 13853 06cc 17000000 		.4byte	.LVL292-1
 13854 06d0 48010000 		.4byte	.LFE23
 13855 06d4 0400     		.2byte	0x4
ARM GAS  C:\Users\AHMED~1.ELE\AppData\Local\Temp\cckRh1xc.s 			page 270


 13856 06d6 F3       		.byte	0xf3
 13857 06d7 01       		.uleb128 0x1
 13858 06d8 50       		.byte	0x50
 13859 06d9 9F       		.byte	0x9f
 13860 06da 00000000 		.4byte	0
 13861 06de 00000000 		.4byte	0
 13862              	.LLST44:
 13863 06e2 B6000000 		.4byte	.LVL307
 13864 06e6 BA000000 		.4byte	.LVL308
 13865 06ea 0100     		.2byte	0x1
 13866 06ec 50       		.byte	0x50
 13867 06ed 00000000 		.4byte	0
 13868 06f1 00000000 		.4byte	0
 13869              	.LLST45:
 13870 06f5 00000000 		.4byte	.LVL313
 13871 06f9 32000000 		.4byte	.LVL315
 13872 06fd 0200     		.2byte	0x2
 13873 06ff 30       		.byte	0x30
 13874 0700 9F       		.byte	0x9f
 13875 0701 32000000 		.4byte	.LVL315
 13876 0705 48000000 		.4byte	.LFE24
 13877 0709 0300     		.2byte	0x3
 13878 070b 09       		.byte	0x9
 13879 070c 80       		.byte	0x80
 13880 070d 9F       		.byte	0x9f
 13881 070e 00000000 		.4byte	0
 13882 0712 00000000 		.4byte	0
 13883              		.section	.debug_aranges,"",%progbits
 13884 0000 94000000 		.4byte	0x94
 13885 0004 0200     		.2byte	0x2
 13886 0006 00000000 		.4byte	.Ldebug_info0
 13887 000a 04       		.byte	0x4
 13888 000b 00       		.byte	0
 13889 000c 0000     		.2byte	0
 13890 000e 0000     		.2byte	0
 13891 0010 00000000 		.4byte	.LFB17
 13892 0014 70000000 		.4byte	.LFE17-.LFB17
 13893 0018 00000000 		.4byte	.LFB0
 13894 001c 82000000 		.4byte	.LFE0-.LFB0
 13895 0020 00000000 		.4byte	.LFB4
 13896 0024 10000000 		.4byte	.LFE4-.LFB4
 13897 0028 00000000 		.4byte	.LFB5
 13898 002c 10000000 		.4byte	.LFE5-.LFB5
 13899 0030 00000000 		.4byte	.LFB6
 13900 0034 14000000 		.4byte	.LFE6-.LFB6
 13901 0038 00000000 		.4byte	.LFB7
 13902 003c 48000000 		.4byte	.LFE7-.LFB7
 13903 0040 00000000 		.4byte	.LFB8
 13904 0044 40000000 		.4byte	.LFE8-.LFB8
 13905 0048 00000000 		.4byte	.LFB3
 13906 004c 98010000 		.4byte	.LFE3-.LFB3
 13907 0050 00000000 		.4byte	.LFB9
 13908 0054 40000000 		.4byte	.LFE9-.LFB9
 13909 0058 00000000 		.4byte	.LFB11
 13910 005c E4010000 		.4byte	.LFE11-.LFB11
 13911 0060 00000000 		.4byte	.LFB13
 13912 0064 20000000 		.4byte	.LFE13-.LFB13
ARM GAS  C:\Users\AHMED~1.ELE\AppData\Local\Temp\cckRh1xc.s 			page 271


 13913 0068 00000000 		.4byte	.LFB20
 13914 006c 78000000 		.4byte	.LFE20-.LFB20
 13915 0070 00000000 		.4byte	.LFB21
 13916 0074 1C000000 		.4byte	.LFE21-.LFB21
 13917 0078 00000000 		.4byte	.LFB22
 13918 007c FC080000 		.4byte	.LFE22-.LFB22
 13919 0080 00000000 		.4byte	.LFB23
 13920 0084 48010000 		.4byte	.LFE23-.LFB23
 13921 0088 00000000 		.4byte	.LFB24
 13922 008c 48000000 		.4byte	.LFE24-.LFB24
 13923 0090 00000000 		.4byte	0
 13924 0094 00000000 		.4byte	0
 13925              		.section	.debug_ranges,"",%progbits
 13926              	.Ldebug_ranges0:
 13927 0000 AA010000 		.4byte	.LBB37
 13928 0004 64020000 		.4byte	.LBE37
 13929 0008 84020000 		.4byte	.LBB42
 13930 000c 88020000 		.4byte	.LBE42
 13931 0010 00000000 		.4byte	0
 13932 0014 00000000 		.4byte	0
 13933 0018 BC010000 		.4byte	.LBB39
 13934 001c BE010000 		.4byte	.LBE39
 13935 0020 C2010000 		.4byte	.LBB40
 13936 0024 FE010000 		.4byte	.LBE40
 13937 0028 00000000 		.4byte	0
 13938 002c 00000000 		.4byte	0
 13939 0030 00000000 		.4byte	.LFB17
 13940 0034 70000000 		.4byte	.LFE17
 13941 0038 00000000 		.4byte	.LFB0
 13942 003c 82000000 		.4byte	.LFE0
 13943 0040 00000000 		.4byte	.LFB4
 13944 0044 10000000 		.4byte	.LFE4
 13945 0048 00000000 		.4byte	.LFB5
 13946 004c 10000000 		.4byte	.LFE5
 13947 0050 00000000 		.4byte	.LFB6
 13948 0054 14000000 		.4byte	.LFE6
 13949 0058 00000000 		.4byte	.LFB7
 13950 005c 48000000 		.4byte	.LFE7
 13951 0060 00000000 		.4byte	.LFB8
 13952 0064 40000000 		.4byte	.LFE8
 13953 0068 00000000 		.4byte	.LFB3
 13954 006c 98010000 		.4byte	.LFE3
 13955 0070 00000000 		.4byte	.LFB9
 13956 0074 40000000 		.4byte	.LFE9
 13957 0078 00000000 		.4byte	.LFB11
 13958 007c E4010000 		.4byte	.LFE11
 13959 0080 00000000 		.4byte	.LFB13
 13960 0084 20000000 		.4byte	.LFE13
 13961 0088 00000000 		.4byte	.LFB20
 13962 008c 78000000 		.4byte	.LFE20
 13963 0090 00000000 		.4byte	.LFB21
 13964 0094 1C000000 		.4byte	.LFE21
 13965 0098 00000000 		.4byte	.LFB22
 13966 009c FC080000 		.4byte	.LFE22
 13967 00a0 00000000 		.4byte	.LFB23
 13968 00a4 48010000 		.4byte	.LFE23
 13969 00a8 00000000 		.4byte	.LFB24
ARM GAS  C:\Users\AHMED~1.ELE\AppData\Local\Temp\cckRh1xc.s 			page 272


 13970 00ac 48000000 		.4byte	.LFE24
 13971 00b0 00000000 		.4byte	0
 13972 00b4 00000000 		.4byte	0
 13973              		.section	.debug_line,"",%progbits
 13974              	.Ldebug_line0:
 13975 0000 81050000 		.section	.debug_str,"MS",%progbits,1
 13975      0200F501 
 13975      00000201 
 13975      FB0E0D00 
 13975      01010101 
 13976              	.LASF442:
 13977 0000 4F535F46 		.ascii	"OS_FN_POWER\000"
 13977      4E5F504F 
 13977      57455200 
 13978              	.LASF420:
 13979 000c 4F535F46 		.ascii	"OS_FN_GPRS_GET_GPS_INFO\000"
 13979      4E5F4750 
 13979      52535F47 
 13979      45545F47 
 13979      50535F49 
 13980              	.LASF6:
 13981 0024 6C6F6E67 		.ascii	"long long int\000"
 13981      206C6F6E 
 13981      6720696E 
 13981      7400
 13982              	.LASF753:
 13983 0032 625F6D69 		.ascii	"b_minute\000"
 13983      6E757465 
 13983      00
 13984              	.LASF133:
 13985 003b 4F535F46 		.ascii	"OS_FN_KEY_SAVE_TMK_CBC_NC\000"
 13985      4E5F4B45 
 13985      595F5341 
 13985      56455F54 
 13985      4D4B5F43 
 13986              	.LASF777:
 13987 0055 4544435F 		.ascii	"EDC_IN_ENTER_TIPS\000"
 13987      494E5F45 
 13987      4E544552 
 13987      5F544950 
 13987      5300
 13988              	.LASF454:
 13989 0067 4F535F46 		.ascii	"OS_FN_FPRT_INFO_GET\000"
 13989      4E5F4650 
 13989      52545F49 
 13989      4E464F5F 
 13989      47455400 
 13990              	.LASF437:
 13991 007b 4F535F46 		.ascii	"OS_FN_DMK_KVC_READ\000"
 13991      4E5F444D 
 13991      4B5F4B56 
 13991      435F5245 
 13991      414400
 13992              	.LASF905:
 13993 008e 454D565F 		.ascii	"EMV_ICC_ON\000"
 13993      4943435F 
 13993      4F4E00
ARM GAS  C:\Users\AHMED~1.ELE\AppData\Local\Temp\cckRh1xc.s 			page 273


 13994              	.LASF1003:
 13995 0099 52454655 		.ascii	"REFUND\000"
 13995      4E4400
 13996              	.LASF650:
 13997 00a0 73625F78 		.ascii	"sb_xapp_size\000"
 13997      6170705F 
 13997      73697A65 
 13997      00
 13998              	.LASF809:
 13999 00ad 4544435F 		.ascii	"EDC_FN_NO_REV\000"
 13999      464E5F4E 
 13999      4F5F5245 
 13999      5600
 14000              	.LASF131:
 14001 00bb 4F535F46 		.ascii	"OS_FN_KEY_SAVE_TMK_NC\000"
 14001      4E5F4B45 
 14001      595F5341 
 14001      56455F54 
 14001      4D4B5F4E 
 14002              	.LASF1002:
 14003 00d1 4F4E4C5F 		.ascii	"ONL_REFUND_MNL\000"
 14003      52454655 
 14003      4E445F4D 
 14003      4E4C00
 14004              	.LASF433:
 14005 00e0 4F535F46 		.ascii	"OS_FN_HD_CONFIG\000"
 14005      4E5F4844 
 14005      5F434F4E 
 14005      46494700 
 14006              	.LASF245:
 14007 00f0 4F535F46 		.ascii	"OS_FN_USBSER_OPEN\000"
 14007      4E5F5553 
 14007      42534552 
 14007      5F4F5045 
 14007      4E00
 14008              	.LASF195:
 14009 0102 4F535F46 		.ascii	"OS_FN_FILE_READDIR\000"
 14009      4E5F4649 
 14009      4C455F52 
 14009      45414444 
 14009      495200
 14010              	.LASF293:
 14011 0115 4F535F46 		.ascii	"OS_FN_GPRS_STATUS\000"
 14011      4E5F4750 
 14011      52535F53 
 14011      54415455 
 14011      5300
 14012              	.LASF5:
 14013 0127 6C6F6E67 		.ascii	"long unsigned int\000"
 14013      20756E73 
 14013      69676E65 
 14013      6420696E 
 14013      7400
 14014              	.LASF1030:
 14015 0139 54585F44 		.ascii	"TX_DATA\000"
 14015      41544100 
 14016              	.LASF754:
ARM GAS  C:\Users\AHMED~1.ELE\AppData\Local\Temp\cckRh1xc.s 			page 274


 14017 0141 625F7365 		.ascii	"b_second\000"
 14017      636F6E64 
 14017      00
 14018              	.LASF746:
 14019 014a 73625F74 		.ascii	"sb_text\000"
 14019      65787400 
 14020              	.LASF752:
 14021 0152 625F686F 		.ascii	"b_hour\000"
 14021      757200
 14022              	.LASF951:
 14023 0159 735F6963 		.ascii	"s_icc_data\000"
 14023      635F6461 
 14023      746100
 14024              	.LASF237:
 14025 0164 4F535F46 		.ascii	"OS_FN_MSR_GETC\000"
 14025      4E5F4D53 
 14025      525F4745 
 14025      544300
 14026              	.LASF1084:
 14027 0173 6E657874 		.ascii	"next_state\000"
 14027      5F737461 
 14027      746500
 14028              	.LASF244:
 14029 017e 4F535F46 		.ascii	"OS_FN_LPT_STATUS\000"
 14029      4E5F4C50 
 14029      545F5354 
 14029      41545553 
 14029      00
 14030              	.LASF616:
 14031 018f 73625F70 		.ascii	"sb_pri_no\000"
 14031      72695F6E 
 14031      6F00
 14032              	.LASF1016:
 14033 0199 4553414C 		.ascii	"ESALE_COMPLETE\000"
 14033      455F434F 
 14033      4D504C45 
 14033      544500
 14034              	.LASF204:
 14035 01a8 4F535F46 		.ascii	"OS_FN_CONFIG_UPDATE\000"
 14035      4E5F434F 
 14035      4E464947 
 14035      5F555044 
 14035      41544500 
 14036              	.LASF327:
 14037 01bc 4F535F46 		.ascii	"OS_FN_CLICC_EMV_LV1\000"
 14037      4E5F434C 
 14037      4943435F 
 14037      454D565F 
 14037      4C563100 
 14038              	.LASF462:
 14039 01d0 4F535F46 		.ascii	"OS_FN_GCM_AES_FINISH\000"
 14039      4E5F4743 
 14039      4D5F4145 
 14039      535F4649 
 14039      4E495348 
 14040              	.LASF1087:
 14041 01e5 454D5654 		.ascii	"EMVTrans\000"
ARM GAS  C:\Users\AHMED~1.ELE\AppData\Local\Temp\cckRh1xc.s 			page 275


 14041      72616E73 
 14041      00
 14042              	.LASF177:
 14043 01ee 4F535F46 		.ascii	"OS_FN_FILE_PUTC\000"
 14043      4E5F4649 
 14043      4C455F50 
 14043      55544300 
 14044              	.LASF35:
 14045 01fe 4F535F46 		.ascii	"OS_FN_RTC_GET\000"
 14045      4E5F5254 
 14045      435F4745 
 14045      5400
 14046              	.LASF1113:
 14047 020c 6D656D73 		.ascii	"memset\000"
 14047      657400
 14048              	.LASF371:
 14049 0213 4F535F46 		.ascii	"OS_FN_MIF_CLOSE\000"
 14049      4E5F4D49 
 14049      465F434C 
 14049      4F534500 
 14050              	.LASF395:
 14051 0223 4F535F46 		.ascii	"OS_FN_BARCODE_CLOSE\000"
 14051      4E5F4241 
 14051      52434F44 
 14051      455F434C 
 14051      4F534500 
 14052              	.LASF461:
 14053 0237 4F535F46 		.ascii	"OS_FN_GCM_AES_PROCESS\000"
 14053      4E5F4743 
 14053      4D5F4145 
 14053      535F5052 
 14053      4F434553 
 14054              	.LASF625:
 14055 024d 73625F74 		.ascii	"sb_trace_no\000"
 14055      72616365 
 14055      5F6E6F00 
 14056              	.LASF861:
 14057 0259 4544435F 		.ascii	"EDC_RSP_DATA_ERROR\000"
 14057      5253505F 
 14057      44415441 
 14057      5F455252 
 14057      4F5200
 14058              	.LASF662:
 14059 026c 625F6368 		.ascii	"b_checkin_pri_conn_time\000"
 14059      65636B69 
 14059      6E5F7072 
 14059      695F636F 
 14059      6E6E5F74 
 14060              	.LASF798:
 14061 0284 4544435F 		.ascii	"EDC_AJ_TXN_VOIDED\000"
 14061      414A5F54 
 14061      584E5F56 
 14061      4F494445 
 14061      4400
 14062              	.LASF923:
 14063 0296 625F6169 		.ascii	"b_aid_len\000"
 14063      645F6C65 
ARM GAS  C:\Users\AHMED~1.ELE\AppData\Local\Temp\cckRh1xc.s 			page 276


 14063      6E00
 14064              	.LASF1123:
 14065 02a0 44697370 		.ascii	"DispHeader\000"
 14065      48656164 
 14065      657200
 14066              	.LASF440:
 14067 02ab 4F535F46 		.ascii	"OS_FN_RMB_CONTROL\000"
 14067      4E5F524D 
 14067      425F434F 
 14067      4E54524F 
 14067      4C00
 14068              	.LASF724:
 14069 02bd 73625F70 		.ascii	"sb_pri_settle_tel\000"
 14069      72695F73 
 14069      6574746C 
 14069      655F7465 
 14069      6C00
 14070              	.LASF1074:
 14071 02cf 454D5645 		.ascii	"EMVError\000"
 14071      72726F72 
 14071      00
 14072              	.LASF992:
 14073 02d8 735F5461 		.ascii	"s_TagList\000"
 14073      674C6973 
 14073      7400
 14074              	.LASF723:
 14075 02e2 625F7365 		.ascii	"b_sec_trans_redial\000"
 14075      635F7472 
 14075      616E735F 
 14075      72656469 
 14075      616C00
 14076              	.LASF919:
 14077 02f5 625F636C 		.ascii	"b_cla\000"
 14077      6100
 14078              	.LASF39:
 14079 02fb 4F535F46 		.ascii	"OS_FN_DISP_PUTC\000"
 14079      4E5F4449 
 14079      53505F50 
 14079      55544300 
 14080              	.LASF1020:
 14081 030b 54455354 		.ascii	"TEST_MSG\000"
 14081      5F4D5347 
 14081      00
 14082              	.LASF43:
 14083 0314 4F535F46 		.ascii	"OS_FN_DISP_PUTG\000"
 14083      4E5F4449 
 14083      53505F50 
 14083      55544700 
 14084              	.LASF694:
 14085 0324 61706E5F 		.ascii	"apn_username\000"
 14085      75736572 
 14085      6E616D65 
 14085      00
 14086              	.LASF41:
 14087 0331 4F535F46 		.ascii	"OS_FN_DISP_PUTN\000"
 14087      4E5F4449 
 14087      53505F50 
ARM GAS  C:\Users\AHMED~1.ELE\AppData\Local\Temp\cckRh1xc.s 			page 277


 14087      55544E00 
 14088              	.LASF435:
 14089 0341 4F535F46 		.ascii	"OS_FN_DUMMY\000"
 14089      4E5F4455 
 14089      4D4D5900 
 14090              	.LASF44:
 14091 034d 4F535F46 		.ascii	"OS_FN_DISP_PUTP\000"
 14091      4E5F4449 
 14091      53505F50 
 14091      55545000 
 14092              	.LASF40:
 14093 035d 4F535F46 		.ascii	"OS_FN_DISP_PUTS\000"
 14093      4E5F4449 
 14093      53505F50 
 14093      55545300 
 14094              	.LASF697:
 14095 036d 61706E32 		.ascii	"apn2_password\000"
 14095      5F706173 
 14095      73776F72 
 14095      6400
 14096              	.LASF528:
 14097 037b 5343484E 		.ascii	"SCHNLSETUPMW\000"
 14097      4C534554 
 14097      55504D57 
 14097      00
 14098              	.LASF711:
 14099 0388 73625F72 		.ascii	"sb_ref_tel_no\000"
 14099      65665F74 
 14099      656C5F6E 
 14099      6F00
 14100              	.LASF1035:
 14101 0396 625F7265 		.ascii	"b_response\000"
 14101      73706F6E 
 14101      736500
 14102              	.LASF931:
 14103 03a1 625F7472 		.ascii	"b_trans\000"
 14103      616E7300 
 14104              	.LASF693:
 14105 03a9 73625F70 		.ascii	"sb_psw_void\000"
 14105      73775F76 
 14105      6F696400 
 14106              	.LASF920:
 14107 03b5 625F636D 		.ascii	"b_cmd\000"
 14107      6400
 14108              	.LASF497:
 14109 03bb 4D575F54 		.ascii	"MW_TRK1BUF\000"
 14109      524B3142 
 14109      554600
 14110              	.LASF421:
 14111 03c6 4F535F46 		.ascii	"OS_FN_GPS_CMD\000"
 14111      4E5F4750 
 14111      535F434D 
 14111      4400
 14112              	.LASF1005:
 14113 03d4 53414C45 		.ascii	"SALE_COMPLETE\000"
 14113      5F434F4D 
 14113      504C4554 
ARM GAS  C:\Users\AHMED~1.ELE\AppData\Local\Temp\cckRh1xc.s 			page 278


 14113      4500
 14114              	.LASF577:
 14115 03e2 41504D5F 		.ascii	"APM_GETLOGOCOUNT\000"
 14115      4745544C 
 14115      4F474F43 
 14115      4F554E54 
 14115      00
 14116              	.LASF767:
 14117 03f3 4544435F 		.ascii	"EDC_CN_SETTLE\000"
 14117      434E5F53 
 14117      4554544C 
 14117      4500
 14118              	.LASF872:
 14119 0401 4544435F 		.ascii	"EDC_RSP_CARD_BLOCKED\000"
 14119      5253505F 
 14119      43415244 
 14119      5F424C4F 
 14119      434B4544 
 14120              	.LASF269:
 14121 0416 4F535F46 		.ascii	"OS_FN_MDM_CLOSE\000"
 14121      4E5F4D44 
 14121      4D5F434C 
 14121      4F534500 
 14122              	.LASF884:
 14123 0426 4544435F 		.ascii	"EDC_SE_SALE_TOTAL\000"
 14123      53455F53 
 14123      414C455F 
 14123      544F5441 
 14123      4C00
 14124              	.LASF913:
 14125 0438 734C656E 		.ascii	"sLen\000"
 14125      00
 14126              	.LASF644:
 14127 043d 73625F65 		.ascii	"sb_emvapp_size\000"
 14127      6D766170 
 14127      705F7369 
 14127      7A6500
 14128              	.LASF619:
 14129 044c 73625F73 		.ascii	"sb_sec_no\000"
 14129      65635F6E 
 14129      6F00
 14130              	.LASF712:
 14131 0456 625F6465 		.ascii	"b_default_acc\000"
 14131      6661756C 
 14131      745F6163 
 14131      6300
 14132              	.LASF1031:
 14133 0464 73625F70 		.ascii	"sb_proc_code\000"
 14133      726F635F 
 14133      636F6465 
 14133      00
 14134              	.LASF604:
 14135 0471 41504D5F 		.ascii	"APM_SELAPP\000"
 14135      53454C41 
 14135      505000
 14136              	.LASF664:
 14137 047c 73625F63 		.ascii	"sb_checkin_sec_no\000"
ARM GAS  C:\Users\AHMED~1.ELE\AppData\Local\Temp\cckRh1xc.s 			page 279


 14137      6865636B 
 14137      696E5F73 
 14137      65635F6E 
 14137      6F00
 14138              	.LASF60:
 14139 048e 4F535F46 		.ascii	"OS_FN_COM1_TXRDY\000"
 14139      4E5F434F 
 14139      4D315F54 
 14139      58524459 
 14139      00
 14140              	.LASF112:
 14141 049f 4F535F46 		.ascii	"OS_FN_SM2_ENCRYPT\000"
 14141      4E5F534D 
 14141      325F454E 
 14141      43525950 
 14141      5400
 14142              	.LASF12:
 14143 04b1 424F4F4C 		.ascii	"BOOLEAN\000"
 14143      45414E00 
 14144              	.LASF742:
 14145 04b9 625F7065 		.ascii	"b_pending\000"
 14145      6E64696E 
 14145      6700
 14146              	.LASF19:
 14147 04c3 4F535F46 		.ascii	"OS_FN_RAND_UPDATE\000"
 14147      4E5F5241 
 14147      4E445F55 
 14147      50444154 
 14147      4500
 14148              	.LASF478:
 14149 04d5 4F535F46 		.ascii	"OS_FN_GPRS_IS_HL6RD_OLD_FRM\000"
 14149      4E5F4750 
 14149      52535F49 
 14149      535F484C 
 14149      3652445F 
 14150              	.LASF1053:
 14151 04f1 61537263 		.ascii	"aSrc\000"
 14151      00
 14152              	.LASF117:
 14153 04f6 4F535F46 		.ascii	"OS_FN_SM4_SET_KEY\000"
 14153      4E5F534D 
 14153      345F5345 
 14153      545F4B45 
 14153      5900
 14154              	.LASF991:
 14155 0508 735F4354 		.ascii	"s_CTLOut\000"
 14155      4C4F7574 
 14155      00
 14156              	.LASF409:
 14157 0511 4F535F46 		.ascii	"OS_FN_NFC_SEND_FELICA_COMMAND\000"
 14157      4E5F4E46 
 14157      435F5345 
 14157      4E445F46 
 14157      454C4943 
 14158              	.LASF890:
 14159 052f 4544435F 		.ascii	"EDC_EMV_PROCESSING\000"
 14159      454D565F 
ARM GAS  C:\Users\AHMED~1.ELE\AppData\Local\Temp\cckRh1xc.s 			page 280


 14159      50524F43 
 14159      45535349 
 14159      4E4700
 14160              	.LASF785:
 14161 0542 4544435F 		.ascii	"EDC_IN_INVALID_CARD\000"
 14161      494E5F49 
 14161      4E56414C 
 14161      49445F43 
 14161      41524400 
 14162              	.LASF671:
 14163 0556 5445524D 		.ascii	"TERM_CFG\000"
 14163      5F434647 
 14163      00
 14164              	.LASF444:
 14165 055f 4F535F46 		.ascii	"OS_FN_DMK_INJECT\000"
 14165      4E5F444D 
 14165      4B5F494E 
 14165      4A454354 
 14165      00
 14166              	.LASF1164:
 14167 0570 454D5643 		.ascii	"EMVComplete\000"
 14167      6F6D706C 
 14167      65746500 
 14168              	.LASF622:
 14169 057c 625F6173 		.ascii	"b_async_delay\000"
 14169      796E635F 
 14169      64656C61 
 14169      7900
 14170              	.LASF374:
 14171 058a 4F535F46 		.ascii	"OS_FN_MIF_CARD_TYPE\000"
 14171      4E5F4D49 
 14171      465F4341 
 14171      52445F54 
 14171      59504500 
 14172              	.LASF172:
 14173 059e 4F535F46 		.ascii	"OS_FN_FILE_DELETE\000"
 14173      4E5F4649 
 14173      4C455F44 
 14173      454C4554 
 14173      4500
 14174              	.LASF1041:
 14175 05b0 70734C70 		.ascii	"psLp\000"
 14175      00
 14176              	.LASF580:
 14177 05b5 41504D5F 		.ascii	"APM_GETEXPARAM\000"
 14177      47455445 
 14177      58504152 
 14177      414D00
 14178              	.LASF891:
 14179 05c4 4544435F 		.ascii	"EDC_EMV_SEL_APP\000"
 14179      454D565F 
 14179      53454C5F 
 14179      41505000 
 14180              	.LASF514:
 14181 05d4 464C454E 		.ascii	"FLENGTHMW\000"
 14181      4754484D 
 14181      5700
ARM GAS  C:\Users\AHMED~1.ELE\AppData\Local\Temp\cckRh1xc.s 			page 281


 14182              	.LASF1155:
 14183 05de 47657445 		.ascii	"GetEcrRef\000"
 14183      63725265 
 14183      6600
 14184              	.LASF595:
 14185 05e8 41504D5F 		.ascii	"APM_GET_BATCH_REC\000"
 14185      4745545F 
 14185      42415443 
 14185      485F5245 
 14185      4300
 14186              	.LASF928:
 14187 05fa 775F6D69 		.ascii	"w_misc_len\000"
 14187      73635F6C 
 14187      656E00
 14188              	.LASF713:
 14189 0605 73625F70 		.ascii	"sb_pan_format\000"
 14189      616E5F66 
 14189      6F726D61 
 14189      7400
 14190              	.LASF80:
 14191 0613 4F535F46 		.ascii	"OS_FN_COM3_SEND\000"
 14191      4E5F434F 
 14191      4D335F53 
 14191      454E4400 
 14192              	.LASF868:
 14193 0623 4544435F 		.ascii	"EDC_RSP_NO_DIALTONE\000"
 14193      5253505F 
 14193      4E4F5F44 
 14193      49414C54 
 14193      4F4E4500 
 14194              	.LASF1034:
 14195 0637 5253505F 		.ascii	"RSP_DATA\000"
 14195      44415441 
 14195      00
 14196              	.LASF549:
 14197 0640 46545255 		.ascii	"FTRUNCATEMW\000"
 14197      4E434154 
 14197      454D5700 
 14198              	.LASF774:
 14199 064c 4544435F 		.ascii	"EDC_IN_APP_CODE\000"
 14199      494E5F41 
 14199      50505F43 
 14199      4F444500 
 14200              	.LASF736:
 14201 065c 73625F76 		.ascii	"sb_visa1_term_id\000"
 14201      69736131 
 14201      5F746572 
 14201      6D5F6964 
 14201      00
 14202              	.LASF503:
 14203 066d 52454144 		.ascii	"READMW\000"
 14203      4D5700
 14204              	.LASF967:
 14205 0674 735F7465 		.ascii	"s_term_cfg\000"
 14205      726D5F63 
 14205      666700
 14206              	.LASF185:
ARM GAS  C:\Users\AHMED~1.ELE\AppData\Local\Temp\cckRh1xc.s 			page 282


 14207 067f 4F535F46 		.ascii	"OS_FN_FILE_ACTIVATE\000"
 14207      4E5F4649 
 14207      4C455F41 
 14207      43544956 
 14207      41544500 
 14208              	.LASF303:
 14209 0693 4F535F46 		.ascii	"OS_FN_GPRS_SMS_ACK\000"
 14209      4E5F4750 
 14209      52535F53 
 14209      4D535F41 
 14209      434B00
 14210              	.LASF772:
 14211 06a6 4544435F 		.ascii	"EDC_IN_SWIPE_CARD\000"
 14211      494E5F53 
 14211      57495045 
 14211      5F434152 
 14211      4400
 14212              	.LASF610:
 14213 06b8 7362436F 		.ascii	"sbContent\000"
 14213      6E74656E 
 14213      7400
 14214              	.LASF465:
 14215 06c2 4F535F46 		.ascii	"OS_FN_WIFI_SOCKET_CONNECT\000"
 14215      4E5F5749 
 14215      46495F53 
 14215      4F434B45 
 14215      545F434F 
 14216              	.LASF83:
 14217 06dc 4F535F46 		.ascii	"OS_FN_COM3_SSEND\000"
 14217      4E5F434F 
 14217      4D335F53 
 14217      53454E44 
 14217      00
 14218              	.LASF103:
 14219 06ed 4F535F46 		.ascii	"OS_FN_SHA_FINISH\000"
 14219      4E5F5348 
 14219      415F4649 
 14219      4E495348 
 14219      00
 14220              	.LASF247:
 14221 06fe 4F535F46 		.ascii	"OS_FN_USBSER_READ\000"
 14221      4E5F5553 
 14221      42534552 
 14221      5F524541 
 14221      4400
 14222              	.LASF301:
 14223 0710 4F535F46 		.ascii	"OS_FN_GPRS_READ_USSD\000"
 14223      4E5F4750 
 14223      52535F52 
 14223      4541445F 
 14223      55535344 
 14224              	.LASF632:
 14225 0725 625F7265 		.ascii	"b_return_timeout\000"
 14225      7475726E 
 14225      5F74696D 
 14225      656F7574 
 14225      00
ARM GAS  C:\Users\AHMED~1.ELE\AppData\Local\Temp\cckRh1xc.s 			page 283


 14226              	.LASF456:
 14227 0736 4F535F46 		.ascii	"OS_FN_ECC_PUBKEY_VERIFY\000"
 14227      4E5F4543 
 14227      435F5055 
 14227      424B4559 
 14227      5F564552 
 14228              	.LASF630:
 14229 074e 625F656D 		.ascii	"b_emv_enable\000"
 14229      765F656E 
 14229      61626C65 
 14229      00
 14230              	.LASF959:
 14231 075b 645F6164 		.ascii	"d_adjust_count\000"
 14231      6A757374 
 14231      5F636F75 
 14231      6E7400
 14232              	.LASF1033:
 14233 076a 73625F6F 		.ascii	"sb_org_trace_no\000"
 14233      72675F74 
 14233      72616365 
 14233      5F6E6F00 
 14234              	.LASF348:
 14235 077a 4F535F46 		.ascii	"OS_FN_DEVICE_SEARCH_INIT\000"
 14235      4E5F4445 
 14235      56494345 
 14235      5F534541 
 14235      5243485F 
 14236              	.LASF775:
 14237 0793 4544435F 		.ascii	"EDC_IN_BASE_AMT\000"
 14237      494E5F42 
 14237      4153455F 
 14237      414D5400 
 14238              	.LASF344:
 14239 07a3 4F535F46 		.ascii	"OS_FN_DEVICE_REGISTER\000"
 14239      4E5F4445 
 14239      56494345 
 14239      5F524547 
 14239      49535445 
 14240              	.LASF847:
 14241 07b9 4544435F 		.ascii	"EDC_RSP_BATCH_NOT_FOUND\000"
 14241      5253505F 
 14241      42415443 
 14241      485F4E4F 
 14241      545F464F 
 14242              	.LASF448:
 14243 07d1 4F535F46 		.ascii	"OS_FN_LPT_RESET_COUNT\000"
 14243      4E5F4C50 
 14243      545F5245 
 14243      5345545F 
 14243      434F554E 
 14244              	.LASF523:
 14245 07e7 4445534B 		.ascii	"DESKEYMW\000"
 14245      45594D57 
 14245      00
 14246              	.LASF773:
 14247 07f0 4544435F 		.ascii	"EDC_IN_CORRECT\000"
 14247      494E5F43 
ARM GAS  C:\Users\AHMED~1.ELE\AppData\Local\Temp\cckRh1xc.s 			page 284


 14247      4F525245 
 14247      435400
 14248              	.LASF858:
 14249 07ff 4544435F 		.ascii	"EDC_RSP_CTL_OCARD\000"
 14249      5253505F 
 14249      43544C5F 
 14249      4F434152 
 14249      4400
 14250              	.LASF218:
 14251 0811 4F535F46 		.ascii	"OS_FN_MMC_BLK_READ\000"
 14251      4E5F4D4D 
 14251      435F424C 
 14251      4B5F5245 
 14251      414400
 14252              	.LASF225:
 14253 0824 4F535F46 		.ascii	"OS_FN_SLE_HIST\000"
 14253      4E5F534C 
 14253      455F4849 
 14253      535400
 14254              	.LASF613:
 14255 0833 625F6469 		.ascii	"b_disp_contrast\000"
 14255      73705F63 
 14255      6F6E7472 
 14255      61737400 
 14256              	.LASF63:
 14257 0843 4F535F46 		.ascii	"OS_FN_COM1_STATUS\000"
 14257      4E5F434F 
 14257      4D315F53 
 14257      54415455 
 14257      5300
 14258              	.LASF853:
 14259 0855 4544435F 		.ascii	"EDC_RSP_OTHER_REASON\000"
 14259      5253505F 
 14259      4F544845 
 14259      525F5245 
 14259      41534F4E 
 14260              	.LASF179:
 14261 086a 4F535F46 		.ascii	"OS_FN_FILE_LENGTH\000"
 14261      4E5F4649 
 14261      4C455F4C 
 14261      454E4754 
 14261      4800
 14262              	.LASF530:
 14263 087c 4C4C5345 		.ascii	"LLSEEKMW\000"
 14263      454B4D57 
 14263      00
 14264              	.LASF539:
 14265 0885 44495350 		.ascii	"DISP_PUTGMW\000"
 14265      5F505554 
 14265      474D5700 
 14266              	.LASF794:
 14267 0891 4544435F 		.ascii	"EDC_AJ_ENTER_NTIP\000"
 14267      414A5F45 
 14267      4E544552 
 14267      5F4E5449 
 14267      5000
 14268              	.LASF95:
ARM GAS  C:\Users\AHMED~1.ELE\AppData\Local\Temp\cckRh1xc.s 			page 285


 14269 08a3 4F535F46 		.ascii	"OS_FN_AES_ENCRYPT_BLOCK\000"
 14269      4E5F4145 
 14269      535F454E 
 14269      43525950 
 14269      545F424C 
 14270              	.LASF658:
 14271 08bb 73625F70 		.ascii	"sb_ppp_ip\000"
 14271      70705F69 
 14271      7000
 14272              	.LASF586:
 14273 08c5 41504D5F 		.ascii	"APM_SETROC\000"
 14273      53455452 
 14273      4F4300
 14274              	.LASF90:
 14275 08d0 4F535F46 		.ascii	"OS_FN_NEW_DES\000"
 14275      4E5F4E45 
 14275      575F4445 
 14275      5300
 14276              	.LASF510:
 14277 08de 46435245 		.ascii	"FCREATEMW\000"
 14277      4154454D 
 14277      5700
 14278              	.LASF1028:
 14279 08e8 625F6361 		.ascii	"b_card_expired\000"
 14279      72645F65 
 14279      78706972 
 14279      656400
 14280              	.LASF593:
 14281 08f7 41504D5F 		.ascii	"APM_BATCH_FULL\000"
 14281      42415443 
 14281      485F4655 
 14281      4C4C00
 14282              	.LASF389:
 14283 0906 4F535F46 		.ascii	"OS_FN_MIF_SNO\000"
 14283      4E5F4D49 
 14283      465F534E 
 14283      4F00
 14284              	.LASF533:
 14285 0914 44495350 		.ascii	"DISP_CLRLINEMW\000"
 14285      5F434C52 
 14285      4C494E45 
 14285      4D5700
 14286              	.LASF948:
 14287 0923 775F686F 		.ascii	"w_host_idx\000"
 14287      73745F69 
 14287      647800
 14288              	.LASF76:
 14289 092e 4F535F46 		.ascii	"OS_FN_COM3_CLOSE\000"
 14289      4E5F434F 
 14289      4D335F43 
 14289      4C4F5345 
 14289      00
 14290              	.LASF591:
 14291 093f 41504D5F 		.ascii	"APM_TERMDATA_UPD\000"
 14291      5445524D 
 14291      44415441 
 14291      5F555044 
ARM GAS  C:\Users\AHMED~1.ELE\AppData\Local\Temp\cckRh1xc.s 			page 286


 14291      00
 14292              	.LASF607:
 14293 0950 41504D5F 		.ascii	"APM_FUNC_COUNT\000"
 14293      46554E43 
 14293      5F434F55 
 14293      4E5400
 14294              	.LASF287:
 14295 095f 4F535F46 		.ascii	"OS_FN_BATT_CONTROL\000"
 14295      4E5F4241 
 14295      54545F43 
 14295      4F4E5452 
 14295      4F4C00
 14296              	.LASF548:
 14297 0972 4652454E 		.ascii	"FRENAMEMW\000"
 14297      414D454D 
 14297      5700
 14298              	.LASF667:
 14299 097c 625F696E 		.ascii	"b_init_fallback\000"
 14299      69745F66 
 14299      616C6C62 
 14299      61636B00 
 14300              	.LASF383:
 14301 098c 4F535F46 		.ascii	"OS_FN_MIF_WRITE\000"
 14301      4E5F4D49 
 14301      465F5752 
 14301      49544500 
 14302              	.LASF917:
 14303 099c 434C5F49 		.ascii	"CL_IO\000"
 14303      4F00
 14304              	.LASF504:
 14305 09a2 57524954 		.ascii	"WRITEMW\000"
 14305      454D5700 
 14306              	.LASF452:
 14307 09aa 4F535F46 		.ascii	"OS_FN_FPRT_SCAN_IMG\000"
 14307      4E5F4650 
 14307      52545F53 
 14307      43414E5F 
 14307      494D4700 
 14308              	.LASF32:
 14309 09be 4F535F46 		.ascii	"OS_FN_BUZ_CLOSE\000"
 14309      4E5F4255 
 14309      5A5F434C 
 14309      4F534500 
 14310              	.LASF18:
 14311 09ce 4F535F46 		.ascii	"OS_FN_RAND\000"
 14311      4E5F5241 
 14311      4E4400
 14312              	.LASF633:
 14313 09d9 775F7472 		.ascii	"w_training_status\000"
 14313      61696E69 
 14313      6E675F73 
 14313      74617475 
 14313      7300
 14314              	.LASF438:
 14315 09eb 4F535F46 		.ascii	"OS_FN_DLL_REQ\000"
 14315      4E5F444C 
 14315      4C5F5245 
ARM GAS  C:\Users\AHMED~1.ELE\AppData\Local\Temp\cckRh1xc.s 			page 287


 14315      5100
 14316              	.LASF11:
 14317 09f9 73697A65 		.ascii	"size_t\000"
 14317      5F7400
 14318              	.LASF1148:
 14319 0a00 6462696E 		.ascii	"dbin2bcd\000"
 14319      32626364 
 14319      00
 14320              	.LASF104:
 14321 0a09 4F535F46 		.ascii	"OS_FN_RC4_SETUP\000"
 14321      4E5F5243 
 14321      345F5345 
 14321      54555000 
 14322              	.LASF152:
 14323 0a19 4F535F46 		.ascii	"OS_FN_LED_STATUS\000"
 14323      4E5F4C45 
 14323      445F5354 
 14323      41545553 
 14323      00
 14324              	.LASF1142:
 14325 0a2a 5061636B 		.ascii	"PackProcCode\000"
 14325      50726F63 
 14325      436F6465 
 14325      00
 14326              	.LASF669:
 14327 0a37 625F6170 		.ascii	"b_app_list_upload\000"
 14327      705F6C69 
 14327      73745F75 
 14327      706C6F61 
 14327      6400
 14328              	.LASF110:
 14329 0a49 4F535F46 		.ascii	"OS_FN_SM2_GET_SIGNATURE\000"
 14329      4E5F534D 
 14329      325F4745 
 14329      545F5349 
 14329      474E4154 
 14330              	.LASF38:
 14331 0a61 4F535F46 		.ascii	"OS_FN_DISP_CLOSE\000"
 14331      4E5F4449 
 14331      53505F43 
 14331      4C4F5345 
 14331      00
 14332              	.LASF1130:
 14333 0a72 53657452 		.ascii	"SetRspCode\000"
 14333      7370436F 
 14333      646500
 14334              	.LASF660:
 14335 0a7d 73625F73 		.ascii	"sb_server_key\000"
 14335      65727665 
 14335      725F6B65 
 14335      7900
 14336              	.LASF186:
 14337 0a8b 4F535F46 		.ascii	"OS_FN_FILE_GET_NAME\000"
 14337      4E5F4649 
 14337      4C455F47 
 14337      45545F4E 
 14337      414D4500 
ARM GAS  C:\Users\AHMED~1.ELE\AppData\Local\Temp\cckRh1xc.s 			page 288


 14338              	.LASF1017:
 14339 0a9f 53414C45 		.ascii	"SALE_CTL\000"
 14339      5F43544C 
 14339      00
 14340              	.LASF757:
 14341 0aa8 4544435F 		.ascii	"EDC_CO_REMOVE_ICC\000"
 14341      434F5F52 
 14341      454D4F56 
 14341      455F4943 
 14341      4300
 14342              	.LASF733:
 14343 0aba 625F7469 		.ascii	"b_timeout_val\000"
 14343      6D656F75 
 14343      745F7661 
 14343      6C00
 14344              	.LASF1128:
 14345 0ac8 47656E41 		.ascii	"GenAuthCode\000"
 14345      75746843 
 14345      6F646500 
 14346              	.LASF311:
 14347 0ad4 4F535F46 		.ascii	"OS_FN_TPAD_CPOS\000"
 14347      4E5F5450 
 14347      41445F43 
 14347      504F5300 
 14348              	.LASF404:
 14349 0ae4 4F535F46 		.ascii	"OS_FN_WIFI_RECV_RESPONSE\000"
 14349      4E5F5749 
 14349      46495F52 
 14349      4543565F 
 14349      52455350 
 14350              	.LASF119:
 14351 0afd 4F535F46 		.ascii	"OS_FN_SM4_DECRYPT\000"
 14351      4E5F534D 
 14351      345F4445 
 14351      43525950 
 14351      5400
 14352              	.LASF309:
 14353 0b0f 4F535F46 		.ascii	"OS_FN_TPAD_ADD_OBJ\000"
 14353      4E5F5450 
 14353      41445F41 
 14353      44445F4F 
 14353      424A00
 14354              	.LASF837:
 14355 0b22 4544435F 		.ascii	"EDC_RSP_CALL_CC\000"
 14355      5253505F 
 14355      43414C4C 
 14355      5F434300 
 14356              	.LASF978:
 14357 0b32 735F7465 		.ascii	"s_term_data\000"
 14357      726D5F64 
 14357      61746100 
 14358              	.LASF756:
 14359 0b3e 4544435F 		.ascii	"EDC_CO_SWIPE_INS_TAP\000"
 14359      434F5F53 
 14359      57495045 
 14359      5F494E53 
 14359      5F544150 
ARM GAS  C:\Users\AHMED~1.ELE\AppData\Local\Temp\cckRh1xc.s 			page 289


 14360              	.LASF1067:
 14361 0b53 5061636B 		.ascii	"PackEMVData\000"
 14361      454D5644 
 14361      61746100 
 14362              	.LASF1048:
 14363 0b5f 44654173 		.ascii	"DeAss\000"
 14363      7300
 14364              	.LASF412:
 14365 0b65 4F535F46 		.ascii	"OS_FN_NFC_GET_VALID_RESP\000"
 14365      4E5F4E46 
 14365      435F4745 
 14365      545F5641 
 14365      4C49445F 
 14366              	.LASF109:
 14367 0b7e 4F535F46 		.ascii	"OS_FN_SM2_FREE_CURVE\000"
 14367      4E5F534D 
 14367      325F4652 
 14367      45455F43 
 14367      55525645 
 14368              	.LASF146:
 14369 0b93 4F535F46 		.ascii	"OS_FN_BUFMAN_ALLOC\000"
 14369      4E5F4255 
 14369      464D414E 
 14369      5F414C4C 
 14369      4F4300
 14370              	.LASF75:
 14371 0ba6 4F535F46 		.ascii	"OS_FN_COM3_OPEN\000"
 14371      4E5F434F 
 14371      4D335F4F 
 14371      50454E00 
 14372              	.LASF838:
 14373 0bb6 4544435F 		.ascii	"EDC_RSP_DECLINED\000"
 14373      5253505F 
 14373      4445434C 
 14373      494E4544 
 14373      00
 14374              	.LASF755:
 14375 0bc7 4544435F 		.ascii	"EDC_CO_SWIPE_INS\000"
 14375      434F5F53 
 14375      57495045 
 14375      5F494E53 
 14375      00
 14376              	.LASF107:
 14377 0bd8 4F535F46 		.ascii	"OS_FN_MD4_FINISH\000"
 14377      4E5F4D44 
 14377      345F4649 
 14377      4E495348 
 14377      00
 14378              	.LASF24:
 14379 0be9 4F535F46 		.ascii	"OS_FN_KBD_GETKEY\000"
 14379      4E5F4B42 
 14379      445F4745 
 14379      544B4559 
 14379      00
 14380              	.LASF527:
 14381 0bfa 49434349 		.ascii	"ICCINSERTEDMW\000"
 14381      4E534552 
ARM GAS  C:\Users\AHMED~1.ELE\AppData\Local\Temp\cckRh1xc.s 			page 290


 14381      5445444D 
 14381      5700
 14382              	.LASF334:
 14383 0c08 4F535F46 		.ascii	"OS_FN_USBHOST_SUBMIT_BUFFER\000"
 14383      4E5F5553 
 14383      42484F53 
 14383      545F5355 
 14383      424D4954 
 14384              	.LASF102:
 14385 0c24 4F535F46 		.ascii	"OS_FN_SHA_PROCESS\000"
 14385      4E5F5348 
 14385      415F5052 
 14385      4F434553 
 14385      5300
 14386              	.LASF799:
 14387 0c36 4544435F 		.ascii	"EDC_AJ_CLOSE_BATCH\000"
 14387      414A5F43 
 14387      4C4F5345 
 14387      5F424154 
 14387      434800
 14388              	.LASF292:
 14389 0c49 4F535F46 		.ascii	"OS_FN_GPRS_SIGNAL\000"
 14389      4E5F4750 
 14389      52535F53 
 14389      49474E41 
 14389      4C00
 14390              	.LASF1015:
 14391 0c5b 4553414C 		.ascii	"ESALE_UNDER_LMT\000"
 14391      455F554E 
 14391      4445525F 
 14391      4C4D5400 
 14392              	.LASF1040:
 14393 0c6b 735F7273 		.ascii	"s_rsp_data\000"
 14393      705F6461 
 14393      746100
 14394              	.LASF997:
 14395 0c76 41555448 		.ascii	"AUTH_SWIPE\000"
 14395      5F535749 
 14395      504500
 14396              	.LASF696:
 14397 0c81 61706E32 		.ascii	"apn2_username\000"
 14397      5F757365 
 14397      726E616D 
 14397      6500
 14398              	.LASF156:
 14399 0c8f 4F535F46 		.ascii	"OS_FN_GET_CHALLENGE\000"
 14399      4E5F4745 
 14399      545F4348 
 14399      414C4C45 
 14399      4E474500 
 14400              	.LASF492:
 14401 0ca3 55534246 		.ascii	"USBFPRT_GENERAL_INFO_IMG_HEIGHT\000"
 14401      5052545F 
 14401      47454E45 
 14401      52414C5F 
 14401      494E464F 
 14402              	.LASF127:
ARM GAS  C:\Users\AHMED~1.ELE\AppData\Local\Temp\cckRh1xc.s 			page 291


 14403 0cc3 4F535F46 		.ascii	"OS_FN_KEY_CUP_MAC\000"
 14403      4E5F4B45 
 14403      595F4355 
 14403      505F4D41 
 14403      4300
 14404              	.LASF325:
 14405 0cd5 4F535F46 		.ascii	"OS_FN_CLICC_SENDCOMMAND\000"
 14405      4E5F434C 
 14405      4943435F 
 14405      53454E44 
 14405      434F4D4D 
 14406              	.LASF51:
 14407 0ced 4F535F46 		.ascii	"OS_FN_DISP_BL_CONTROL\000"
 14407      4E5F4449 
 14407      53505F42 
 14407      4C5F434F 
 14407      4E54524F 
 14408              	.LASF496:
 14409 0d03 73625F63 		.ascii	"sb_content\000"
 14409      6F6E7465 
 14409      6E7400
 14410              	.LASF74:
 14411 0d0e 4F535F46 		.ascii	"OS_FN_COM2_SSEND\000"
 14411      4E5F434F 
 14411      4D325F53 
 14411      53454E44 
 14411      00
 14412              	.LASF265:
 14413 0d1f 4F535F46 		.ascii	"OS_FN_FL_CREAD\000"
 14413      4E5F464C 
 14413      5F435245 
 14413      414400
 14414              	.LASF1107:
 14415 0d2e 47657443 		.ascii	"GetConstMsg\000"
 14415      6F6E7374 
 14415      4D736700 
 14416              	.LASF844:
 14417 0d3a 4544435F 		.ascii	"EDC_RSP_TOT_MISMATCH\000"
 14417      5253505F 
 14417      544F545F 
 14417      4D49534D 
 14417      41544348 
 14418              	.LASF925:
 14419 0d4f 73625F74 		.ascii	"sb_tag_95\000"
 14419      61675F39 
 14419      3500
 14420              	.LASF569:
 14421 0d59 41504D5F 		.ascii	"APM_GETCARDCOUNT\000"
 14421      47455443 
 14421      41524443 
 14421      4F554E54 
 14421      00
 14422              	.LASF164:
 14423 0d6a 4F535F46 		.ascii	"OS_FN_REALLOC\000"
 14423      4E5F5245 
 14423      414C4C4F 
 14423      4300
ARM GAS  C:\Users\AHMED~1.ELE\AppData\Local\Temp\cckRh1xc.s 			page 292


 14424              	.LASF229:
 14425 0d78 4F535F46 		.ascii	"OS_FN_LAN_RXRDY\000"
 14425      4E5F4C41 
 14425      4E5F5258 
 14425      52445900 
 14426              	.LASF1045:
 14427 0d88 62496478 		.ascii	"bIdx\000"
 14427      00
 14428              	.LASF926:
 14429 0d8d 73625F74 		.ascii	"sb_tag_9b\000"
 14429      61675F39 
 14429      6200
 14430              	.LASF1135:
 14431 0d97 426C6F63 		.ascii	"BlockAuthCode\000"
 14431      6B417574 
 14431      68436F64 
 14431      6500
 14432              	.LASF468:
 14433 0da5 4F535F46 		.ascii	"OS_FN_WIFI_SOCKET_SEND_TCP\000"
 14433      4E5F5749 
 14433      46495F53 
 14433      4F434B45 
 14433      545F5345 
 14434              	.LASF356:
 14435 0dc0 4F535F46 		.ascii	"OS_FN_BUS_STOP\000"
 14435      4E5F4255 
 14435      535F5354 
 14435      4F5000
 14436              	.LASF501:
 14437 0dcf 4F50454E 		.ascii	"OPENMW\000"
 14437      4D5700
 14438              	.LASF29:
 14439 0dd6 4F535F46 		.ascii	"OS_FN_TIMER_SET\000"
 14439      4E5F5449 
 14439      4D45525F 
 14439      53455400 
 14440              	.LASF966:
 14441 0de6 53544953 		.ascii	"STIS_DATA\000"
 14441      5F444154 
 14441      4100
 14442              	.LASF20:
 14443 0df0 4F535F46 		.ascii	"OS_FN_KBD_OPEN\000"
 14443      4E5F4B42 
 14443      445F4F50 
 14443      454E00
 14444              	.LASF880:
 14445 0dff 4544435F 		.ascii	"EDC_RSP_CALL_IC\000"
 14445      5253505F 
 14445      43414C4C 
 14445      5F494300 
 14446              	.LASF678:
 14447 0e0f 73625F70 		.ascii	"sb_password\000"
 14447      61737377 
 14447      6F726400 
 14448              	.LASF1153:
 14449 0e1b 486F7374 		.ascii	"HostSettlePending\000"
 14449      53657474 
ARM GAS  C:\Users\AHMED~1.ELE\AppData\Local\Temp\cckRh1xc.s 			page 293


 14449      6C655065 
 14449      6E64696E 
 14449      6700
 14450              	.LASF863:
 14451 0e2d 4544435F 		.ascii	"EDC_RSP_CALL_IP\000"
 14451      5253505F 
 14451      43414C4C 
 14451      5F495000 
 14452              	.LASF864:
 14453 0e3d 4544435F 		.ascii	"EDC_RSP_CALL_IR\000"
 14453      5253505F 
 14453      43414C4C 
 14453      5F495200 
 14454              	.LASF865:
 14455 0e4d 4544435F 		.ascii	"EDC_RSP_CALL_IS\000"
 14455      5253505F 
 14455      43414C4C 
 14455      5F495300 
 14456              	.LASF866:
 14457 0e5d 4544435F 		.ascii	"EDC_RSP_CALL_IT\000"
 14457      5253505F 
 14457      43414C4C 
 14457      5F495400 
 14458              	.LASF1162:
 14459 0e6d 73797374 		.ascii	"system_call_list\000"
 14459      656D5F63 
 14459      616C6C5F 
 14459      6C697374 
 14459      00
 14460              	.LASF447:
 14461 0e7e 4F535F46 		.ascii	"OS_FN_DTIMER_LATCH_TIME\000"
 14461      4E5F4454 
 14461      494D4552 
 14461      5F4C4154 
 14461      43485F54 
 14462              	.LASF520:
 14463 0e96 46445345 		.ascii	"FDSEARCHMW\000"
 14463      41524348 
 14463      4D5700
 14464              	.LASF897:
 14465 0ea1 4544435F 		.ascii	"EDC_CTL_AMT_EXCEED\000"
 14465      43544C5F 
 14465      414D545F 
 14465      45584345 
 14465      454400
 14466              	.LASF279:
 14467 0eb4 4F535F46 		.ascii	"OS_FN_MCOM_TXRDY\000"
 14467      4E5F4D43 
 14467      4F4D5F54 
 14467      58524459 
 14467      00
 14468              	.LASF417:
 14469 0ec5 4F535F46 		.ascii	"OS_FN_GPS_ON\000"
 14469      4E5F4750 
 14469      535F4F4E 
 14469      00
 14470              	.LASF150:
ARM GAS  C:\Users\AHMED~1.ELE\AppData\Local\Temp\cckRh1xc.s 			page 294


 14471 0ed2 4F535F46 		.ascii	"OS_FN_LED_OPEN\000"
 14471      4E5F4C45 
 14471      445F4F50 
 14471      454E00
 14472              	.LASF826:
 14473 0ee1 4544435F 		.ascii	"EDC_RSP_PICKUP_CARD\000"
 14473      5253505F 
 14473      5049434B 
 14473      55505F43 
 14473      41524400 
 14474              	.LASF67:
 14475 0ef5 4F535F46 		.ascii	"OS_FN_COM2_CLOSE\000"
 14475      4E5F434F 
 14475      4D325F43 
 14475      4C4F5345 
 14475      00
 14476              	.LASF1103:
 14477 0f06 546C7656 		.ascii	"TlvVPtr\000"
 14477      50747200 
 14478              	.LASF817:
 14479 0f0e 4544435F 		.ascii	"EDC_PN_HIGHTEMP\000"
 14479      504E5F48 
 14479      49474854 
 14479      454D5000 
 14480              	.LASF215:
 14481 0f1e 4F535F46 		.ascii	"OS_FN_MMC_BLK_SIZE\000"
 14481      4E5F4D4D 
 14481      435F424C 
 14481      4B5F5349 
 14481      5A4500
 14482              	.LASF976:
 14483 0f31 645F6C65 		.ascii	"d_len\000"
 14483      6E00
 14484              	.LASF787:
 14485 0f37 4544435F 		.ascii	"EDC_IN_ECRREF\000"
 14485      494E5F45 
 14485      43525245 
 14485      4600
 14486              	.LASF1119:
 14487 0f45 4C70744F 		.ascii	"LptOpen\000"
 14487      70656E00 
 14488              	.LASF871:
 14489 0f4d 4544435F 		.ascii	"EDC_RSP_READ_ERROR\000"
 14489      5253505F 
 14489      52454144 
 14489      5F455252 
 14489      4F5200
 14490              	.LASF677:
 14491 0f60 625F6469 		.ascii	"b_dial_option\000"
 14491      616C5F6F 
 14491      7074696F 
 14491      6E00
 14492              	.LASF850:
 14493 0f6e 4544435F 		.ascii	"EDC_RSP_SYS_NOT_AVAIL\000"
 14493      5253505F 
 14493      5359535F 
 14493      4E4F545F 
ARM GAS  C:\Users\AHMED~1.ELE\AppData\Local\Temp\cckRh1xc.s 			page 295


 14493      41564149 
 14494              	.LASF540:
 14495 0f84 4745545F 		.ascii	"GET_LCD_TYPEMW\000"
 14495      4C43445F 
 14495      54595045 
 14495      4D5700
 14496              	.LASF173:
 14497 0f93 4F535F46 		.ascii	"OS_FN_FILE_FLUSHED\000"
 14497      4E5F4649 
 14497      4C455F46 
 14497      4C555348 
 14497      454400
 14498              	.LASF590:
 14499 0fa6 41504D5F 		.ascii	"APM_TERMDATA_CLR\000"
 14499      5445524D 
 14499      44415441 
 14499      5F434C52 
 14499      00
 14500              	.LASF114:
 14501 0fb7 4F535F46 		.ascii	"OS_FN_SM2_GET_MESS\000"
 14501      4E5F534D 
 14501      325F4745 
 14501      545F4D45 
 14501      535300
 14502              	.LASF508:
 14503 0fca 4745544C 		.ascii	"GETLASTERRMW\000"
 14503      41535445 
 14503      52524D57 
 14503      00
 14504              	.LASF207:
 14505 0fd7 4F535F46 		.ascii	"OS_FN_SAM_SELECT\000"
 14505      4E5F5341 
 14505      4D5F5345 
 14505      4C454354 
 14505      00
 14506              	.LASF692:
 14507 0fe8 73625F70 		.ascii	"sb_psw_refund\000"
 14507      73775F72 
 14507      6566756E 
 14507      6400
 14508              	.LASF324:
 14509 0ff6 4F535F46 		.ascii	"OS_FN_CLICC_CLOSE\000"
 14509      4E5F434C 
 14509      4943435F 
 14509      434C4F53 
 14509      4500
 14510              	.LASF226:
 14511 1008 4F535F46 		.ascii	"OS_FN_SLE_IO\000"
 14511      4E5F534C 
 14511      455F494F 
 14511      00
 14512              	.LASF184:
 14513 1015 4F535F46 		.ascii	"OS_FN_FILE_DEACTIVATE\000"
 14513      4E5F4649 
 14513      4C455F44 
 14513      45414354 
 14513      49564154 
ARM GAS  C:\Users\AHMED~1.ELE\AppData\Local\Temp\cckRh1xc.s 			page 296


 14514              	.LASF545:
 14515 102b 534D535F 		.ascii	"SMS_TX_MW\000"
 14515      54585F4D 
 14515      5700
 14516              	.LASF1131:
 14517 1035 5061636B 		.ascii	"PackInputP\000"
 14517      496E7075 
 14517      745000
 14518              	.LASF683:
 14519 1040 625F6375 		.ascii	"b_currency\000"
 14519      7272656E 
 14519      637900
 14520              	.LASF903:
 14521 104b 454D565F 		.ascii	"EMV_PACKREC\000"
 14521      5041434B 
 14521      52454300 
 14522              	.LASF806:
 14523 1057 4544435F 		.ascii	"EDC_FN_CARD_REC\000"
 14523      464E5F43 
 14523      4152445F 
 14523      52454300 
 14524              	.LASF124:
 14525 1067 4F535F46 		.ascii	"OS_FN_KEY_FLUSH\000"
 14525      4E5F4B45 
 14525      595F464C 
 14525      55534800 
 14526              	.LASF985:
 14527 1077 735F5478 		.ascii	"s_TxBuf\000"
 14527      42756600 
 14528              	.LASF621:
 14529 107f 625F7365 		.ascii	"b_sec_redial\000"
 14529      635F7265 
 14529      6469616C 
 14529      00
 14530              	.LASF721:
 14531 108c 73625F73 		.ascii	"sb_sec_trans_tel\000"
 14531      65635F74 
 14531      72616E73 
 14531      5F74656C 
 14531      00
 14532              	.LASF761:
 14533 109d 4544435F 		.ascii	"EDC_CN_REFUND\000"
 14533      434E5F52 
 14533      4546554E 
 14533      4400
 14534              	.LASF188:
 14535 10ab 4F535F46 		.ascii	"OS_FN_FILE_AUTH\000"
 14535      4E5F4649 
 14535      4C455F41 
 14535      55544800 
 14536              	.LASF984:
 14537 10bb 735F4D73 		.ascii	"s_MsgBuf\000"
 14537      67427566 
 14537      00
 14538              	.LASF822:
 14539 10c4 4544435F 		.ascii	"EDC_RSP_COMPLETED\000"
 14539      5253505F 
ARM GAS  C:\Users\AHMED~1.ELE\AppData\Local\Temp\cckRh1xc.s 			page 297


 14539      434F4D50 
 14539      4C455445 
 14539      4400
 14540              	.LASF1049:
 14541 10d6 54616750 		.ascii	"TagPut\000"
 14541      757400
 14542              	.LASF636:
 14543 10dd 625F7070 		.ascii	"b_ppad_port\000"
 14543      61645F70 
 14543      6F727400 
 14544              	.LASF333:
 14545 10e9 4F535F46 		.ascii	"OS_FN_CLICC_LED_ON\000"
 14545      4E5F434C 
 14545      4943435F 
 14545      4C45445F 
 14545      4F4E00
 14546              	.LASF286:
 14547 10fc 4F535F46 		.ascii	"OS_FN_BATT_TEMP\000"
 14547      4E5F4241 
 14547      54545F54 
 14547      454D5000 
 14548              	.LASF274:
 14549 110c 4F535F46 		.ascii	"OS_FN_MDM_LAST_CONN_STAT\000"
 14549      4E5F4D44 
 14549      4D5F4C41 
 14549      53545F43 
 14549      4F4E4E5F 
 14550              	.LASF128:
 14551 1125 4F535F46 		.ascii	"OS_FN_KEY_CBC_MAC\000"
 14551      4E5F4B45 
 14551      595F4342 
 14551      435F4D41 
 14551      4300
 14552              	.LASF1141:
 14553 1137 4F66666C 		.ascii	"OfflineSent\000"
 14553      696E6553 
 14553      656E7400 
 14554              	.LASF904:
 14555 1143 454D565F 		.ascii	"EMV_FINDREC\000"
 14555      46494E44 
 14555      52454300 
 14556              	.LASF888:
 14557 114f 4544435F 		.ascii	"EDC_SE_ENTER_REF_TOTAL\000"
 14557      53455F45 
 14557      4E544552 
 14557      5F524546 
 14557      5F544F54 
 14558              	.LASF246:
 14559 1166 4F535F46 		.ascii	"OS_FN_USBSER_CLOSE\000"
 14559      4E5F5553 
 14559      42534552 
 14559      5F434C4F 
 14559      534500
 14560              	.LASF200:
 14561 1179 4F535F46 		.ascii	"OS_FN_FILE_IOCTL\000"
 14561      4E5F4649 
 14561      4C455F49 
ARM GAS  C:\Users\AHMED~1.ELE\AppData\Local\Temp\cckRh1xc.s 			page 298


 14561      4F43544C 
 14561      00
 14562              	.LASF138:
 14563 118a 4F535F46 		.ascii	"OS_FN_THREAD_CLOSE\000"
 14563      4E5F5448 
 14563      52454144 
 14563      5F434C4F 
 14563      534500
 14564              	.LASF115:
 14565 119d 4F535F46 		.ascii	"OS_FN_SM3_ASCII\000"
 14565      4E5F534D 
 14565      335F4153 
 14565      43494900 
 14566              	.LASF369:
 14567 11ad 4F535F46 		.ascii	"OS_FN_TAMPER_RESET_STATUS\000"
 14567      4E5F5441 
 14567      4D504552 
 14567      5F524553 
 14567      45545F53 
 14568              	.LASF803:
 14569 11c7 4544435F 		.ascii	"EDC_FN_START_BATCH\000"
 14569      464E5F53 
 14569      54415254 
 14569      5F424154 
 14569      434800
 14570              	.LASF260:
 14571 11da 4F535F46 		.ascii	"OS_FN_FL_ERASE_END\000"
 14571      4E5F464C 
 14571      5F455241 
 14571      53455F45 
 14571      4E4400
 14572              	.LASF233:
 14573 11ed 4F535F46 		.ascii	"OS_FN_LAN_STATUS\000"
 14573      4E5F4C41 
 14573      4E5F5354 
 14573      41545553 
 14573      00
 14574              	.LASF737:
 14575 11fe 625F7365 		.ascii	"b_settle_mdm_mode\000"
 14575      74746C65 
 14575      5F6D646D 
 14575      5F6D6F64 
 14575      6500
 14576              	.LASF79:
 14577 1210 4F535F46 		.ascii	"OS_FN_COM3_READ\000"
 14577      4E5F434F 
 14577      4D335F52 
 14577      45414400 
 14578              	.LASF355:
 14579 1220 4F535F46 		.ascii	"OS_FN_BUS_START\000"
 14579      4E5F4255 
 14579      535F5354 
 14579      41525400 
 14580              	.LASF55:
 14581 1230 4F535F46 		.ascii	"OS_FN_DISP_ICON_SET_SIGNAL_TYPE\000"
 14581      4E5F4449 
 14581      53505F49 
ARM GAS  C:\Users\AHMED~1.ELE\AppData\Local\Temp\cckRh1xc.s 			page 299


 14581      434F4E5F 
 14581      5345545F 
 14582              	.LASF443:
 14583 1250 4F535F46 		.ascii	"OS_FN_CLICC_DEBUG\000"
 14583      4E5F434C 
 14583      4943435F 
 14583      44454255 
 14583      4700
 14584              	.LASF719:
 14585 1262 625F7072 		.ascii	"b_pri_trans_conn_time\000"
 14585      695F7472 
 14585      616E735F 
 14585      636F6E6E 
 14585      5F74696D 
 14586              	.LASF950:
 14587 1278 735F6474 		.ascii	"s_dtg\000"
 14587      6700
 14588              	.LASF860:
 14589 127e 4544435F 		.ascii	"EDC_RSP_TXN_CANCEL\000"
 14589      5253505F 
 14589      54584E5F 
 14589      43414E43 
 14589      454C00
 14590              	.LASF191:
 14591 1291 4F535F46 		.ascii	"OS_FN_FILE_FREESPACE\000"
 14591      4E5F4649 
 14591      4C455F46 
 14591      52454553 
 14591      50414345 
 14592              	.LASF180:
 14593 12a6 4F535F46 		.ascii	"OS_FN_FILE_END\000"
 14593      4E5F4649 
 14593      4C455F45 
 14593      4E4400
 14594              	.LASF347:
 14595 12b5 4F535F46 		.ascii	"OS_FN_DEVICE_IOCTL\000"
 14595      4E5F4445 
 14595      56494345 
 14595      5F494F43 
 14595      544C00
 14596              	.LASF426:
 14597 12c8 4F535F46 		.ascii	"OS_FN_BREG_WRITE\000"
 14597      4E5F4252 
 14597      45475F57 
 14597      52495445 
 14597      00
 14598              	.LASF499:
 14599 12d9 53544152 		.ascii	"STARTUPMW\000"
 14599      5455504D 
 14599      5700
 14600              	.LASF65:
 14601 12e3 4F535F46 		.ascii	"OS_FN_COM1_SSEND\000"
 14601      4E5F434F 
 14601      4D315F53 
 14601      53454E44 
 14601      00
 14602              	.LASF821:
ARM GAS  C:\Users\AHMED~1.ELE\AppData\Local\Temp\cckRh1xc.s 			page 300


 14603 12f4 4544435F 		.ascii	"EDC_PN_LOW_BATT\000"
 14603      504E5F4C 
 14603      4F575F42 
 14603      41545400 
 14604              	.LASF589:
 14605 1304 41504D5F 		.ascii	"APM_STIS_ADDTBL\000"
 14605      53544953 
 14605      5F414444 
 14605      54424C00 
 14606              	.LASF358:
 14607 1314 4F535F46 		.ascii	"OS_FN_NETDEV_OPEN\000"
 14607      4E5F4E45 
 14607      54444556 
 14607      5F4F5045 
 14607      4E00
 14608              	.LASF505:
 14609 1326 4C534545 		.ascii	"LSEEKMW\000"
 14609      4B4D5700 
 14610              	.LASF599:
 14611 132e 41504D5F 		.ascii	"APM_UPD_BAT_REC\000"
 14611      5550445F 
 14611      4241545F 
 14611      52454300 
 14612              	.LASF1150:
 14613 133e 5061636B 		.ascii	"PackHeader\000"
 14613      48656164 
 14613      657200
 14614              	.LASF441:
 14615 1349 4F535F46 		.ascii	"OS_FN_APPCALL_RETURN\000"
 14615      4E5F4150 
 14615      5043414C 
 14615      4C5F5245 
 14615      5455524E 
 14616              	.LASF82:
 14617 135e 4F535F46 		.ascii	"OS_FN_COM3_SREAD\000"
 14617      4E5F434F 
 14617      4D335F53 
 14617      52454144 
 14617      00
 14618              	.LASF575:
 14619 136f 41504D5F 		.ascii	"APM_GETDESCCOUNT\000"
 14619      47455444 
 14619      45534343 
 14619      4F554E54 
 14619      00
 14620              	.LASF203:
 14621 1380 4F535F46 		.ascii	"OS_FN_CONFIG_WRITE\000"
 14621      4E5F434F 
 14621      4E464947 
 14621      5F575249 
 14621      544500
 14622              	.LASF277:
 14623 1393 4F535F46 		.ascii	"OS_FN_MCOM_PERMIT\000"
 14623      4E5F4D43 
 14623      4F4D5F50 
 14623      45524D49 
 14623      5400
ARM GAS  C:\Users\AHMED~1.ELE\AppData\Local\Temp\cckRh1xc.s 			page 301


 14624              	.LASF240:
 14625 13a5 4F535F46 		.ascii	"OS_FN_LPT_OPEN\000"
 14625      4E5F4C50 
 14625      545F4F50 
 14625      454E00
 14626              	.LASF315:
 14627 13b4 4F535F46 		.ascii	"OS_FN_CODEC_OPEN\000"
 14627      4E5F434F 
 14627      4445435F 
 14627      4F50454E 
 14627      00
 14628              	.LASF326:
 14629 13c5 4F535F46 		.ascii	"OS_FN_CLICC_CTRL\000"
 14629      4E5F434C 
 14629      4943435F 
 14629      4354524C 
 14629      00
 14630              	.LASF463:
 14631 13d6 4F535F46 		.ascii	"OS_FN_GCM_AES_CLOSE\000"
 14631      4E5F4743 
 14631      4D5F4145 
 14631      535F434C 
 14631      4F534500 
 14632              	.LASF136:
 14633 13ea 4F535F46 		.ascii	"OS_FN_PCI_DSS\000"
 14633      4E5F5043 
 14633      495F4453 
 14633      5300
 14634              	.LASF1044:
 14635 13f8 614C6973 		.ascii	"aList\000"
 14635      7400
 14636              	.LASF999:
 14637 13fe 53414C45 		.ascii	"SALE_SWIPE\000"
 14637      5F535749 
 14637      504500
 14638              	.LASF405:
 14639 1409 4F535F46 		.ascii	"OS_FN_WIFI_STATUS\000"
 14639      4E5F5749 
 14639      46495F53 
 14639      54415455 
 14639      5300
 14640              	.LASF912:
 14641 141b 77546167 		.ascii	"wTag\000"
 14641      00
 14642              	.LASF626:
 14643 1420 73625F72 		.ascii	"sb_roc_no\000"
 14643      6F635F6E 
 14643      6F00
 14644              	.LASF99:
 14645 142a 4F535F46 		.ascii	"OS_FN_MD5_PROCESS\000"
 14645      4E5F4D44 
 14645      355F5052 
 14645      4F434553 
 14645      5300
 14646              	.LASF763:
 14647 143c 4544435F 		.ascii	"EDC_CN_SALE_COMP\000"
 14647      434E5F53 
ARM GAS  C:\Users\AHMED~1.ELE\AppData\Local\Temp\cckRh1xc.s 			page 302


 14647      414C455F 
 14647      434F4D50 
 14647      00
 14648              	.LASF477:
 14649 144d 4F535F46 		.ascii	"OS_FN_GPRS_IS_HL6RD\000"
 14649      4E5F4750 
 14649      52535F49 
 14649      535F484C 
 14649      36524400 
 14650              	.LASF776:
 14651 1461 4544435F 		.ascii	"EDC_IN_ENTER_AMOUNT\000"
 14651      494E5F45 
 14651      4E544552 
 14651      5F414D4F 
 14651      554E5400 
 14652              	.LASF748:
 14653 1475 625F6365 		.ascii	"b_century\000"
 14653      6E747572 
 14653      7900
 14654              	.LASF728:
 14655 147f 625F7365 		.ascii	"b_sec_settle_conn_time\000"
 14655      635F7365 
 14655      74746C65 
 14655      5F636F6E 
 14655      6E5F7469 
 14656              	.LASF174:
 14657 1496 4F535F46 		.ascii	"OS_FN_FILE_SEEK\000"
 14657      4E5F4649 
 14657      4C455F53 
 14657      45454B00 
 14658              	.LASF709:
 14659 14a6 625F6964 		.ascii	"b_id\000"
 14659      00
 14660              	.LASF612:
 14661 14ab 625F7374 		.ascii	"b_stis_mode\000"
 14661      69735F6D 
 14661      6F646500 
 14662              	.LASF1062:
 14663 14b7 47657441 		.ascii	"GetApplNameTag\000"
 14663      70706C4E 
 14663      616D6554 
 14663      616700
 14664              	.LASF792:
 14665 14c6 4544435F 		.ascii	"EDC_AJ_NOT_ALLOW\000"
 14665      414A5F4E 
 14665      4F545F41 
 14665      4C4C4F57 
 14665      00
 14666              	.LASF120:
 14667 14d7 4F535F46 		.ascii	"OS_FN_KEY_SAVE\000"
 14667      4E5F4B45 
 14667      595F5341 
 14667      564500
 14668              	.LASF346:
 14669 14e6 4F535F46 		.ascii	"OS_FN_DEVICE_ALLOC_MEDIA\000"
 14669      4E5F4445 
 14669      56494345 
ARM GAS  C:\Users\AHMED~1.ELE\AppData\Local\Temp\cckRh1xc.s 			page 303


 14669      5F414C4C 
 14669      4F435F4D 
 14670              	.LASF205:
 14671 14ff 4F535F46 		.ascii	"OS_FN_SAM_OPEN\000"
 14671      4E5F5341 
 14671      4D5F4F50 
 14671      454E00
 14672              	.LASF1012:
 14673 150e 53414C45 		.ascii	"SALE_ICC\000"
 14673      5F494343 
 14673      00
 14674              	.LASF1127:
 14675 1517 5061636B 		.ascii	"PackDTGAA\000"
 14675      44544741 
 14675      4100
 14676              	.LASF1061:
 14677 1521 6153656C 		.ascii	"aSelAgain\000"
 14677      41676169 
 14677      6E00
 14678              	.LASF345:
 14679 152b 4F535F46 		.ascii	"OS_FN_DEVICE_UNREGISTER\000"
 14679      4E5F4445 
 14679      56494345 
 14679      5F554E52 
 14679      45474953 
 14680              	.LASF1161:
 14681 1543 443A5C47 		.ascii	"D:\\GuadianPro\\Core\\S_MISR\\APP\\MISR\000"
 14681      75616469 
 14681      616E5072 
 14681      6F5C436F 
 14681      72655C53 
 14682              	.LASF155:
 14683 1566 4F535F46 		.ascii	"OS_FN_LED_ON\000"
 14683      4E5F4C45 
 14683      445F4F4E 
 14683      00
 14684              	.LASF139:
 14685 1573 4F535F46 		.ascii	"OS_FN_THREAD_CREATE\000"
 14685      4E5F5448 
 14685      52454144 
 14685      5F435245 
 14685      41544500 
 14686              	.LASF1121:
 14687 1587 73707269 		.ascii	"sprintf\000"
 14687      6E746600 
 14688              	.LASF137:
 14689 158f 4F535F46 		.ascii	"OS_FN_THREAD_OPEN\000"
 14689      4E5F5448 
 14689      52454144 
 14689      5F4F5045 
 14689      4E00
 14690              	.LASF86:
 14691 15a1 4F535F46 		.ascii	"OS_FN_DES2\000"
 14691      4E5F4445 
 14691      533200
 14692              	.LASF511:
 14693 15ac 4644454C 		.ascii	"FDELETEMW\000"
ARM GAS  C:\Users\AHMED~1.ELE\AppData\Local\Temp\cckRh1xc.s 			page 304


 14693      4554454D 
 14693      5700
 14694              	.LASF58:
 14695 15b6 4F535F46 		.ascii	"OS_FN_COM1_CLOSE\000"
 14695      4E5F434F 
 14695      4D315F43 
 14695      4C4F5345 
 14695      00
 14696              	.LASF396:
 14697 15c7 4F535F46 		.ascii	"OS_FN_BARCODE_CMD\000"
 14697      4E5F4241 
 14697      52434F44 
 14697      455F434D 
 14697      4400
 14698              	.LASF481:
 14699 15d9 4F535F46 		.ascii	"OS_FN_DISP_PUTS_ANYWHERE\000"
 14699      4E5F4449 
 14699      53505F50 
 14699      5554535F 
 14699      414E5957 
 14700              	.LASF1038:
 14701 15f2 735F696E 		.ascii	"s_input\000"
 14701      70757400 
 14702              	.LASF506:
 14703 15fa 494F4354 		.ascii	"IOCTLMW\000"
 14703      4C4D5700 
 14704              	.LASF560:
 14705 1602 41504D5F 		.ascii	"APM_GETKBDTO\000"
 14705      4745544B 
 14705      4244544F 
 14705      00
 14706              	.LASF282:
 14707 160f 4F535F46 		.ascii	"OS_FN_MCOM_STATUS\000"
 14707      4E5F4D43 
 14707      4F4D5F53 
 14707      54415455 
 14707      5300
 14708              	.LASF727:
 14709 1621 73625F73 		.ascii	"sb_sec_settle_tel\000"
 14709      65635F73 
 14709      6574746C 
 14709      655F7465 
 14709      6C00
 14710              	.LASF975:
 14711 1633 4D53475F 		.ascii	"MSG_BUF\000"
 14711      42554600 
 14712              	.LASF670:
 14713 163b 775F6372 		.ascii	"w_crc\000"
 14713      6300
 14714              	.LASF464:
 14715 1641 4F535F46 		.ascii	"OS_FN_SYS_THREAD_CREATE\000"
 14715      4E5F5359 
 14715      535F5448 
 14715      52454144 
 14715      5F435245 
 14716              	.LASF285:
 14717 1659 4F535F46 		.ascii	"OS_FN_BATT_LEVEL\000"
ARM GAS  C:\Users\AHMED~1.ELE\AppData\Local\Temp\cckRh1xc.s 			page 305


 14717      4E5F4241 
 14717      54545F4C 
 14717      4556454C 
 14717      00
 14718              	.LASF517:
 14719 166a 46575249 		.ascii	"FWRITEMW\000"
 14719      54454D57 
 14719      00
 14720              	.LASF618:
 14721 1673 625F7072 		.ascii	"b_pri_redial\000"
 14721      695F7265 
 14721      6469616C 
 14721      00
 14722              	.LASF579:
 14723 1680 41504D5F 		.ascii	"APM_GETEXPARAMCOUNT\000"
 14723      47455445 
 14723      58504152 
 14723      414D434F 
 14723      554E5400 
 14724              	.LASF199:
 14725 1694 4F535F46 		.ascii	"OS_FN_FILE_SYNC\000"
 14725      4E5F4649 
 14725      4C455F53 
 14725      594E4300 
 14726              	.LASF973:
 14727 16a4 625F6D6D 		.ascii	"b_mm\000"
 14727      00
 14728              	.LASF823:
 14729 16a9 4544435F 		.ascii	"EDC_RSP_CALL_ISSUER\000"
 14729      5253505F 
 14729      43414C4C 
 14729      5F495353 
 14729      55455200 
 14730              	.LASF1116:
 14731 16bd 6D656D63 		.ascii	"memcmp\000"
 14731      6D7000
 14732              	.LASF126:
 14733 16c4 4F535F46 		.ascii	"OS_FN_KEY_DUKPT_MAC_CAL\000"
 14733      4E5F4B45 
 14733      595F4455 
 14733      4B50545F 
 14733      4D41435F 
 14734              	.LASF23:
 14735 16dc 4F535F46 		.ascii	"OS_FN_KBD_SCODE\000"
 14735      4E5F4B42 
 14735      445F5343 
 14735      4F444500 
 14736              	.LASF149:
 14737 16ec 4F535F46 		.ascii	"OS_FN_BUFMAN_SHRINK\000"
 14737      4E5F4255 
 14737      464D414E 
 14737      5F534852 
 14737      494E4B00 
 14738              	.LASF1125:
 14739 1700 496E4361 		.ascii	"InCardTable\000"
 14739      72645461 
 14739      626C6500 
ARM GAS  C:\Users\AHMED~1.ELE\AppData\Local\Temp\cckRh1xc.s 			page 306


 14740              	.LASF340:
 14741 170c 4F535F46 		.ascii	"OS_FN_USBHOST_DEVICEMAP\000"
 14741      4E5F5553 
 14741      42484F53 
 14741      545F4445 
 14741      56494345 
 14742              	.LASF466:
 14743 1724 4F535F46 		.ascii	"OS_FN_WIFI_SOCKET_DISCONNECT\000"
 14743      4E5F5749 
 14743      46495F53 
 14743      4F434B45 
 14743      545F4449 
 14744              	.LASF190:
 14745 1741 4F535F46 		.ascii	"OS_FN_FILE_GET_FREE_SPACE\000"
 14745      4E5F4649 
 14745      4C455F47 
 14745      45545F46 
 14745      5245455F 
 14746              	.LASF783:
 14747 175b 4544435F 		.ascii	"EDC_IN_ENTER_DESC\000"
 14747      494E5F45 
 14747      4E544552 
 14747      5F444553 
 14747      4300
 14748              	.LASF415:
 14749 176d 4F535F46 		.ascii	"OS_FN_NFC_IC_REG_DIRECT_WRITE\000"
 14749      4E5F4E46 
 14749      435F4943 
 14749      5F524547 
 14749      5F444952 
 14750              	.LASF266:
 14751 178b 4F535F46 		.ascii	"OS_FN_FL_CREAD_END\000"
 14751      4E5F464C 
 14751      5F435245 
 14751      41445F45 
 14751      4E4400
 14752              	.LASF629:
 14753 179e 73625F69 		.ascii	"sb_init_nii\000"
 14753      6E69745F 
 14753      6E696900 
 14754              	.LASF163:
 14755 17aa 4F535F46 		.ascii	"OS_FN_MALLOC\000"
 14755      4E5F4D41 
 14755      4C4C4F43 
 14755      00
 14756              	.LASF236:
 14757 17b7 4F535F46 		.ascii	"OS_FN_MSR_RXLEN\000"
 14757      4E5F4D53 
 14757      525F5258 
 14757      4C454E00 
 14758              	.LASF887:
 14759 17c7 4544435F 		.ascii	"EDC_SE_ENTER_SALE_TOTAL\000"
 14759      53455F45 
 14759      4E544552 
 14759      5F53414C 
 14759      455F544F 
 14760              	.LASF439:
ARM GAS  C:\Users\AHMED~1.ELE\AppData\Local\Temp\cckRh1xc.s 			page 307


 14761 17df 4F535F46 		.ascii	"OS_FN_GET_MCLK\000"
 14761      4E5F4745 
 14761      545F4D43 
 14761      4C4B00
 14762              	.LASF113:
 14763 17ee 4F535F46 		.ascii	"OS_FN_SM2_DECRYPT\000"
 14763      4E5F534D 
 14763      325F4445 
 14763      43525950 
 14763      5400
 14764              	.LASF209:
 14765 1800 4F535F46 		.ascii	"OS_FN_SAM_ON\000"
 14765      4E5F5341 
 14765      4D5F4F4E 
 14765      00
 14766              	.LASF314:
 14767 180d 4F535F46 		.ascii	"OS_FN_TPAD_RAW_POS\000"
 14767      4E5F5450 
 14767      41445F52 
 14767      41575F50 
 14767      4F5300
 14768              	.LASF1004:
 14769 1820 53414C45 		.ascii	"SALE_OFFLINE\000"
 14769      5F4F4646 
 14769      4C494E45 
 14769      00
 14770              	.LASF646:
 14771 182d 73625F65 		.ascii	"sb_emvkey_date\000"
 14771      6D766B65 
 14771      795F6461 
 14771      746500
 14772              	.LASF134:
 14773 183c 4F535F46 		.ascii	"OS_FN_PCI_DSS_GET_KVC\000"
 14773      4E5F5043 
 14773      495F4453 
 14773      535F4745 
 14773      545F4B56 
 14774              	.LASF1010:
 14775 1852 53455454 		.ascii	"SETTLEMENT\000"
 14775      4C454D45 
 14775      4E5400
 14776              	.LASF594:
 14777 185d 41504D5F 		.ascii	"APM_GET_REC_COUNT\000"
 14777      4745545F 
 14777      5245435F 
 14777      434F554E 
 14777      5400
 14778              	.LASF332:
 14779 186f 4F535F46 		.ascii	"OS_FN_CLICC_LED_CLEAR\000"
 14779      4E5F434C 
 14779      4943435F 
 14779      4C45445F 
 14779      434C4541 
 14780              	.LASF1011:
 14781 1885 4544435F 		.ascii	"EDC_REV\000"
 14781      52455600 
 14782              	.LASF241:
ARM GAS  C:\Users\AHMED~1.ELE\AppData\Local\Temp\cckRh1xc.s 			page 308


 14783 188d 4F535F46 		.ascii	"OS_FN_LPT_CLOSE\000"
 14783      4E5F4C50 
 14783      545F434C 
 14783      4F534500 
 14784              	.LASF414:
 14785 189d 4F535F46 		.ascii	"OS_FN_NFC_INFO_SET\000"
 14785      4E5F4E46 
 14785      435F494E 
 14785      464F5F53 
 14785      455400
 14786              	.LASF940:
 14787 18b0 73625F70 		.ascii	"sb_product\000"
 14787      726F6475 
 14787      637400
 14788              	.LASF588:
 14789 18bb 41504D5F 		.ascii	"APM_STIS_CLR\000"
 14789      53544953 
 14789      5F434C52 
 14789      00
 14790              	.LASF1106:
 14791 18c8 6D656D63 		.ascii	"memcpy\000"
 14791      707900
 14792              	.LASF552:
 14793 18cf 4D575F46 		.ascii	"MW_FUNC_COUNT\000"
 14793      554E435F 
 14793      434F554E 
 14793      5400
 14794              	.LASF416:
 14795 18dd 4F535F46 		.ascii	"OS_FN_NFC_IC_REG_DIRECT_READ\000"
 14795      4E5F4E46 
 14795      435F4943 
 14795      5F524547 
 14795      5F444952 
 14796              	.LASF771:
 14797 18fa 4544435F 		.ascii	"EDC_IN_USE_ICC\000"
 14797      494E5F55 
 14797      53455F49 
 14797      434300
 14798              	.LASF26:
 14799 1909 4F535F46 		.ascii	"OS_FN_KBD_UNLOCK\000"
 14799      4E5F4B42 
 14799      445F554E 
 14799      4C4F434B 
 14799      00
 14800              	.LASF916:
 14801 191a 70624D73 		.ascii	"pbMsg\000"
 14801      6700
 14802              	.LASF1029:
 14803 1920 73625F61 		.ascii	"sb_amex_4DBC\000"
 14803      6D65785F 
 14803      34444243 
 14803      00
 14804              	.LASF248:
 14805 192d 4F535F46 		.ascii	"OS_FN_USBSER_WRITE\000"
 14805      4E5F5553 
 14805      42534552 
 14805      5F575249 
ARM GAS  C:\Users\AHMED~1.ELE\AppData\Local\Temp\cckRh1xc.s 			page 309


 14805      544500
 14806              	.LASF778:
 14807 1940 4544435F 		.ascii	"EDC_IN_INV_TIPS\000"
 14807      494E5F49 
 14807      4E565F54 
 14807      49505300 
 14808              	.LASF877:
 14809 1950 4544435F 		.ascii	"EDC_RSP_VERIFY_SIGN\000"
 14809      5253505F 
 14809      56455249 
 14809      46595F53 
 14809      49474E00 
 14810              	.LASF361:
 14811 1964 4F535F46 		.ascii	"OS_FN_NETDEV_EVENT\000"
 14811      4E5F4E45 
 14811      54444556 
 14811      5F455645 
 14811      4E5400
 14812              	.LASF513:
 14813 1977 46434C4F 		.ascii	"FCLOSEMW\000"
 14813      53454D57 
 14813      00
 14814              	.LASF1047:
 14815 1980 77496E63 		.ascii	"wInc\000"
 14815      00
 14816              	.LASF73:
 14817 1985 4F535F46 		.ascii	"OS_FN_COM2_SREAD\000"
 14817      4E5F434F 
 14817      4D325F53 
 14817      52454144 
 14817      00
 14818              	.LASF635:
 14819 1996 64645F64 		.ascii	"dd_default_amount\000"
 14819      65666175 
 14819      6C745F61 
 14819      6D6F756E 
 14819      7400
 14820              	.LASF364:
 14821 19a8 4F535F46 		.ascii	"OS_FN_USBKBD_CLOSE\000"
 14821      4E5F5553 
 14821      424B4244 
 14821      5F434C4F 
 14821      534500
 14822              	.LASF129:
 14823 19bb 4F535F46 		.ascii	"OS_FN_KEY_HASH\000"
 14823      4E5F4B45 
 14823      595F4841 
 14823      534800
 14824              	.LASF46:
 14825 19ca 4F535F46 		.ascii	"OS_FN_DISP_LENGTH\000"
 14825      4E5F4449 
 14825      53505F4C 
 14825      454E4754 
 14825      4800
 14826              	.LASF958:
 14827 19dc 544F5441 		.ascii	"TOTAL_STRUCT\000"
 14827      4C5F5354 
ARM GAS  C:\Users\AHMED~1.ELE\AppData\Local\Temp\cckRh1xc.s 			page 310


 14827      52554354 
 14827      00
 14828              	.LASF869:
 14829 19e9 4544435F 		.ascii	"EDC_RSP_LINE_OCCUP\000"
 14829      5253505F 
 14829      4C494E45 
 14829      5F4F4343 
 14829      555000
 14830              	.LASF825:
 14831 19fc 4544435F 		.ascii	"EDC_RSP_INVALID_MERCH\000"
 14831      5253505F 
 14831      494E5641 
 14831      4C49445F 
 14831      4D455243 
 14832              	.LASF744:
 14833 1a12 625F6B65 		.ascii	"b_key\000"
 14833      7900
 14834              	.LASF730:
 14835 1a18 625F7472 		.ascii	"b_trans_mdm_mode\000"
 14835      616E735F 
 14835      6D646D5F 
 14835      6D6F6465 
 14835      00
 14836              	.LASF993:
 14837 1a29 625F6469 		.ascii	"b_disp_chgd\000"
 14837      73705F63 
 14837      68676400 
 14838              	.LASF224:
 14839 1a35 4F535F46 		.ascii	"OS_FN_SLE_CLOSE\000"
 14839      4E5F534C 
 14839      455F434C 
 14839      4F534500 
 14840              	.LASF211:
 14841 1a45 4F535F46 		.ascii	"OS_FN_SAM_T1\000"
 14841      4E5F5341 
 14841      4D5F5431 
 14841      00
 14842              	.LASF214:
 14843 1a52 4F535F46 		.ascii	"OS_FN_MMC_CLOSE\000"
 14843      4E5F4D4D 
 14843      435F434C 
 14843      4F534500 
 14844              	.LASF980:
 14845 1a62 735F6163 		.ascii	"s_acq_rev\000"
 14845      715F7265 
 14845      7600
 14846              	.LASF291:
 14847 1a6c 4F535F46 		.ascii	"OS_FN_ADC_CH_READ\000"
 14847      4E5F4144 
 14847      435F4348 
 14847      5F524541 
 14847      4400
 14848              	.LASF688:
 14849 1a7e 73625F63 		.ascii	"sb_currency_name\000"
 14849      75727265 
 14849      6E63795F 
 14849      6E616D65 
ARM GAS  C:\Users\AHMED~1.ELE\AppData\Local\Temp\cckRh1xc.s 			page 311


 14849      00
 14850              	.LASF820:
 14851 1a8f 4544435F 		.ascii	"EDC_PN_PLS_WAIT\000"
 14851      504E5F50 
 14851      4C535F57 
 14851      41495400 
 14852              	.LASF354:
 14853 1a9f 4F535F46 		.ascii	"OS_FN_INTERRUPT_UNREGISTER\000"
 14853      4E5F494E 
 14853      54455252 
 14853      5550545F 
 14853      554E5245 
 14854              	.LASF700:
 14855 1aba 61706E32 		.ascii	"apn2_ip\000"
 14855      5F697000 
 14856              	.LASF72:
 14857 1ac2 4F535F46 		.ascii	"OS_FN_COM2_STATUS\000"
 14857      4E5F434F 
 14857      4D325F53 
 14857      54415455 
 14857      5300
 14858              	.LASF818:
 14859 1ad4 4544435F 		.ascii	"EDC_PN_NO_PAPER\000"
 14859      504E5F4E 
 14859      4F5F5041 
 14859      50455200 
 14860              	.LASF170:
 14861 1ae4 4F535F46 		.ascii	"OS_FN_FILE_EXIST\000"
 14861      4E5F4649 
 14861      4C455F45 
 14861      58495354 
 14861      00
 14862              	.LASF268:
 14863 1af5 4F535F46 		.ascii	"OS_FN_MDM_OPEN\000"
 14863      4E5F4D44 
 14863      4D5F4F50 
 14863      454E00
 14864              	.LASF475:
 14865 1b04 4F535F46 		.ascii	"OS_FN_IMG_SENSOR_GET_FRAME_COMPLETE\000"
 14865      4E5F494D 
 14865      475F5345 
 14865      4E534F52 
 14865      5F474554 
 14866              	.LASF328:
 14867 1b28 4F535F46 		.ascii	"OS_FN_CLICC_LED_OPEN\000"
 14867      4E5F434C 
 14867      4943435F 
 14867      4C45445F 
 14867      4F50454E 
 14868              	.LASF963:
 14869 1b3d 735F766F 		.ascii	"s_void_sale\000"
 14869      69645F73 
 14869      616C6500 
 14870              	.LASF250:
 14871 1b49 4F535F46 		.ascii	"OS_FN_USBSER_ENABLE\000"
 14871      4E5F5553 
 14871      42534552 
ARM GAS  C:\Users\AHMED~1.ELE\AppData\Local\Temp\cckRh1xc.s 			page 312


 14871      5F454E41 
 14871      424C4500 
 14872              	.LASF970:
 14873 1b5d 735F6973 		.ascii	"s_issuer_tbl\000"
 14873      73756572 
 14873      5F74626C 
 14873      00
 14874              	.LASF1102:
 14875 1b6a 546C764C 		.ascii	"TlvLen\000"
 14875      656E00
 14876              	.LASF815:
 14877 1b71 4544435F 		.ascii	"EDC_PN_PRINTING\000"
 14877      504E5F50 
 14877      52494E54 
 14877      494E4700 
 14878              	.LASF691:
 14879 1b81 73625F72 		.ascii	"sb_reserved\000"
 14879      65736572 
 14879      76656400 
 14880              	.LASF491:
 14881 1b8d 55534246 		.ascii	"USBFPRT_GENERAL_INFO_IMG_WIDTH\000"
 14881      5052545F 
 14881      47454E45 
 14881      52414C5F 
 14881      494E464F 
 14882              	.LASF1104:
 14883 1bac 546C7653 		.ascii	"TlvSizeOf\000"
 14883      697A654F 
 14883      6600
 14884              	.LASF1006:
 14885 1bb6 53414C45 		.ascii	"SALE_UNDER_LMT\000"
 14885      5F554E44 
 14885      45525F4C 
 14885      4D5400
 14886              	.LASF786:
 14887 1bc5 4544435F 		.ascii	"EDC_IN_TRACE\000"
 14887      494E5F54 
 14887      52414345 
 14887      00
 14888              	.LASF679:
 14889 1bd2 73625F68 		.ascii	"sb_help_tel\000"
 14889      656C705F 
 14889      74656C00 
 14890              	.LASF534:
 14891 1bde 44495350 		.ascii	"DISP_CLRBELOWMW\000"
 14891      5F434C52 
 14891      42454C4F 
 14891      574D5700 
 14892              	.LASF906:
 14893 1bee 454D565F 		.ascii	"EMV_ICC_OFF\000"
 14893      4943435F 
 14893      4F464600 
 14894              	.LASF717:
 14895 1bfa 73625F6E 		.ascii	"sb_name\000"
 14895      616D6500 
 14896              	.LASF1076:
 14897 1c02 746D7062 		.ascii	"tmpbuf\000"
ARM GAS  C:\Users\AHMED~1.ELE\AppData\Local\Temp\cckRh1xc.s 			page 313


 14897      756600
 14898              	.LASF1081:
 14899 1c09 454D564F 		.ascii	"EMVOnline\000"
 14899      6E6C696E 
 14899      6500
 14900              	.LASF631:
 14901 1c13 625F6465 		.ascii	"b_default_app\000"
 14901      6661756C 
 14901      745F6170 
 14901      7000
 14902              	.LASF526:
 14903 1c21 44495350 		.ascii	"DISPLOGOMW\000"
 14903      4C4F474F 
 14903      4D5700
 14904              	.LASF859:
 14905 1c2c 4544435F 		.ascii	"EDC_RSP_CTL_REFER_MOBILE\000"
 14905      5253505F 
 14905      43544C5F 
 14905      52454645 
 14905      525F4D4F 
 14906              	.LASF360:
 14907 1c45 4F535F46 		.ascii	"OS_FN_NETDEV_GETLINK\000"
 14907      4E5F4E45 
 14907      54444556 
 14907      5F474554 
 14907      4C494E4B 
 14908              	.LASF258:
 14909 1c5a 4F535F46 		.ascii	"OS_FN_FL_PGM_END\000"
 14909      4E5F464C 
 14909      5F50474D 
 14909      5F454E44 
 14909      00
 14910              	.LASF998:
 14911 1c6b 41555448 		.ascii	"AUTH_MANUAL\000"
 14911      5F4D414E 
 14911      55414C00 
 14912              	.LASF620:
 14913 1c77 625F7365 		.ascii	"b_sec_conn_time\000"
 14913      635F636F 
 14913      6E6E5F74 
 14913      696D6500 
 14914              	.LASF281:
 14915 1c87 4F535F46 		.ascii	"OS_FN_MCOM_SSEND\000"
 14915      4E5F4D43 
 14915      4F4D5F53 
 14915      53454E44 
 14915      00
 14916              	.LASF1009:
 14917 1c98 5452414E 		.ascii	"TRANS_UPLOAD\000"
 14917      535F5550 
 14917      4C4F4144 
 14917      00
 14918              	.LASF470:
 14919 1ca5 4F535F46 		.ascii	"OS_FN_WIFI_GET_DEVICE_STATE\000"
 14919      4E5F5749 
 14919      46495F47 
 14919      45545F44 
ARM GAS  C:\Users\AHMED~1.ELE\AppData\Local\Temp\cckRh1xc.s 			page 314


 14919      45564943 
 14920              	.LASF14:
 14921 1cc1 574F5244 		.ascii	"WORD\000"
 14921      00
 14922              	.LASF449:
 14923 1cc6 4F535F46 		.ascii	"OS_FN_LPT_GET_COUNT\000"
 14923      4E5F4C50 
 14923      545F4745 
 14923      545F434F 
 14923      554E5400 
 14924              	.LASF1094:
 14925 1cda 67474453 		.ascii	"gGDS\000"
 14925      00
 14926              	.LASF802:
 14927 1cdf 4544435F 		.ascii	"EDC_VD_NOT_ALLOW\000"
 14927      56445F4E 
 14927      4F545F41 
 14927      4C4C4F57 
 14927      00
 14928              	.LASF873:
 14929 1cf0 4544435F 		.ascii	"EDC_RSP_SWIPT_AE\000"
 14929      5253505F 
 14929      53574950 
 14929      545F4145 
 14929      00
 14930              	.LASF319:
 14931 1d01 4F535F46 		.ascii	"OS_FN_CODEC_STOP\000"
 14931      4E5F434F 
 14931      4445435F 
 14931      53544F50 
 14931      00
 14932              	.LASF483:
 14933 1d12 4F535F46 		.ascii	"OS_FN_WIFI_GET_REGULATORY_DOMAIN\000"
 14933      4E5F5749 
 14933      46495F47 
 14933      45545F52 
 14933      4547554C 
 14934              	.LASF558:
 14935 1d33 41504D5F 		.ascii	"APM_GETKBD\000"
 14935      4745544B 
 14935      424400
 14936              	.LASF720:
 14937 1d3e 625F7072 		.ascii	"b_pri_trans_redial\000"
 14937      695F7472 
 14937      616E735F 
 14937      72656469 
 14937      616C00
 14938              	.LASF1089:
 14939 1d51 6E657874 		.ascii	"next_action\000"
 14939      5F616374 
 14939      696F6E00 
 14940              	.LASF147:
 14941 1d5d 4F535F46 		.ascii	"OS_FN_BUFMAN_FREE\000"
 14941      4E5F4255 
 14941      464D414E 
 14941      5F465245 
 14941      4500
ARM GAS  C:\Users\AHMED~1.ELE\AppData\Local\Temp\cckRh1xc.s 			page 315


 14942              	.LASF243:
 14943 1d6f 4F535F46 		.ascii	"OS_FN_LPT_PUTDW\000"
 14943      4E5F4C50 
 14943      545F5055 
 14943      54445700 
 14944              	.LASF337:
 14945 1d7f 4F535F46 		.ascii	"OS_FN_USBHOST_STATUS\000"
 14945      4E5F5553 
 14945      42484F53 
 14945      545F5354 
 14945      41545553 
 14946              	.LASF429:
 14947 1d94 4F535F46 		.ascii	"OS_FN_SLEEP\000"
 14947      4E5F534C 
 14947      45455000 
 14948              	.LASF988:
 14949 1da0 735F454D 		.ascii	"s_EMVIn\000"
 14949      56496E00 
 14950              	.LASF562:
 14951 1da8 41504D5F 		.ascii	"APM_PRECONNECT\000"
 14951      50524543 
 14951      4F4E4E45 
 14951      435400
 14952              	.LASF961:
 14953 1db7 735F7469 		.ascii	"s_tips_tot\000"
 14953      70735F74 
 14953      6F7400
 14954              	.LASF933:
 14955 1dc2 625F6163 		.ascii	"b_acc_ind\000"
 14955      635F696E 
 14955      6400
 14956              	.LASF661:
 14957 1dcc 73625F63 		.ascii	"sb_checkin_pri_no\000"
 14957      6865636B 
 14957      696E5F70 
 14957      72695F6E 
 14957      6F00
 14958              	.LASF310:
 14959 1dde 4F535F46 		.ascii	"OS_FN_TPAD_DEL_OBJ\000"
 14959      4E5F5450 
 14959      41445F44 
 14959      454C5F4F 
 14959      424A00
 14960              	.LASF1151:
 14961 1df1 426C6F63 		.ascii	"BlockLocalTrans\000"
 14961      6B4C6F63 
 14961      616C5472 
 14961      616E7300 
 14962              	.LASF49:
 14963 1e01 4F535F46 		.ascii	"OS_FN_DISP_BACKC\000"
 14963      4E5F4449 
 14963      53505F42 
 14963      41434B43 
 14963      00
 14964              	.LASF3:
 14965 1e12 73686F72 		.ascii	"short unsigned int\000"
 14965      7420756E 
ARM GAS  C:\Users\AHMED~1.ELE\AppData\Local\Temp\cckRh1xc.s 			page 316


 14965      7369676E 
 14965      65642069 
 14965      6E7400
 14966              	.LASF167:
 14967 1e25 4F535F46 		.ascii	"OS_FN_FILE_OPEN\000"
 14967      4E5F4649 
 14967      4C455F4F 
 14967      50454E00 
 14968              	.LASF960:
 14969 1e35 735F7361 		.ascii	"s_sale_tot\000"
 14969      6C655F74 
 14969      6F7400
 14970              	.LASF957:
 14971 1e40 775F636F 		.ascii	"w_count\000"
 14971      756E7400 
 14972              	.LASF64:
 14973 1e48 4F535F46 		.ascii	"OS_FN_COM1_SREAD\000"
 14973      4E5F434F 
 14973      4D315F53 
 14973      52454144 
 14973      00
 14974              	.LASF100:
 14975 1e59 4F535F46 		.ascii	"OS_FN_MD5_FINISH\000"
 14975      4E5F4D44 
 14975      355F4649 
 14975      4E495348 
 14975      00
 14976              	.LASF949:
 14977 1e6a 775F6973 		.ascii	"w_issuer_idx\000"
 14977      73756572 
 14977      5F696478 
 14977      00
 14978              	.LASF16:
 14979 1e77 4444574F 		.ascii	"DDWORD\000"
 14979      524400
 14980              	.LASF908:
 14981 1e7e 454D565F 		.ascii	"EMV_OSF_OWNER_EXPORT\000"
 14981      4F53465F 
 14981      4F574E45 
 14981      525F4558 
 14981      504F5254 
 14982              	.LASF276:
 14983 1e93 4F535F46 		.ascii	"OS_FN_MCOM_CLOSE\000"
 14983      4E5F4D43 
 14983      4F4D5F43 
 14983      4C4F5345 
 14983      00
 14984              	.LASF652:
 14985 1ea4 73625F6C 		.ascii	"sb_lxapp_date\000"
 14985      78617070 
 14985      5F646174 
 14985      6500
 14986              	.LASF1018:
 14987 1eb2 41555448 		.ascii	"AUTH_CTL\000"
 14987      5F43544C 
 14987      00
 14988              	.LASF939:
ARM GAS  C:\Users\AHMED~1.ELE\AppData\Local\Temp\cckRh1xc.s 			page 317


 14989 1ebb 64645F6F 		.ascii	"dd_org_amount\000"
 14989      72675F61 
 14989      6D6F756E 
 14989      7400
 14990              	.LASF141:
 14991 1ec9 4F535F46 		.ascii	"OS_FN_THREAD_LOCK\000"
 14991      4E5F5448 
 14991      52454144 
 14991      5F4C4F43 
 14991      4B00
 14992              	.LASF196:
 14993 1edb 4F535F46 		.ascii	"OS_FN_FILE_MKDIR\000"
 14993      4E5F4649 
 14993      4C455F4D 
 14993      4B444952 
 14993      00
 14994              	.LASF187:
 14995 1eec 4F535F46 		.ascii	"OS_FN_FILE_TRUNCATE\000"
 14995      4E5F4649 
 14995      4C455F54 
 14995      52554E43 
 14995      41544500 
 14996              	.LASF848:
 14997 1f00 4544435F 		.ascii	"EDC_RSP_CALL_AMEX\000"
 14997      5253505F 
 14997      43414C4C 
 14997      5F414D45 
 14997      5800
 14998              	.LASF710:
 14999 1f12 73625F63 		.ascii	"sb_card_name\000"
 14999      6172645F 
 14999      6E616D65 
 14999      00
 15000              	.LASF1154:
 15001 1f1f 45787069 		.ascii	"Expire_diff\000"
 15001      72655F64 
 15001      69666600 
 15002              	.LASF927:
 15003 1f2b 73625F74 		.ascii	"sb_tag_9f26\000"
 15003      61675F39 
 15003      66323600 
 15004              	.LASF555:
 15005 1f37 41504D5F 		.ascii	"APM_GETKEY\000"
 15005      4745544B 
 15005      455900
 15006              	.LASF365:
 15007 1f42 4F535F46 		.ascii	"OS_FN_USBKBD_INKEY\000"
 15007      4E5F5553 
 15007      424B4244 
 15007      5F494E4B 
 15007      455900
 15008              	.LASF96:
 15009 1f55 4F535F46 		.ascii	"OS_FN_AES_DECRYPT_BLOCK\000"
 15009      4E5F4145 
 15009      535F4445 
 15009      43525950 
 15009      545F424C 
ARM GAS  C:\Users\AHMED~1.ELE\AppData\Local\Temp\cckRh1xc.s 			page 318


 15010              	.LASF902:
 15011 1f6d 454D565F 		.ascii	"EMV_DLLMSG\000"
 15011      444C4C4D 
 15011      534700
 15012              	.LASF92:
 15013 1f78 4F535F46 		.ascii	"OS_FN_RSA\000"
 15013      4E5F5253 
 15013      4100
 15014              	.LASF21:
 15015 1f82 4F535F46 		.ascii	"OS_FN_KBD_CLOSE\000"
 15015      4E5F4B42 
 15015      445F434C 
 15015      4F534500 
 15016              	.LASF121:
 15017 1f92 4F535F46 		.ascii	"OS_FN_KEY_SAVE_TMK\000"
 15017      4E5F4B45 
 15017      595F5341 
 15017      56455F54 
 15017      4D4B00
 15018              	.LASF217:
 15019 1fa5 4F535F46 		.ascii	"OS_FN_MMC_PSTATUS\000"
 15019      4E5F4D4D 
 15019      435F5053 
 15019      54415455 
 15019      5300
 15020              	.LASF37:
 15021 1fb7 4F535F46 		.ascii	"OS_FN_DISP_OPEN\000"
 15021      4E5F4449 
 15021      53505F4F 
 15021      50454E00 
 15022              	.LASF62:
 15023 1fc7 4F535F46 		.ascii	"OS_FN_COM1_SEND\000"
 15023      4E5F434F 
 15023      4D315F53 
 15023      454E4400 
 15024              	.LASF1008:
 15025 1fd7 41444A55 		.ascii	"ADJUST\000"
 15025      535400
 15026              	.LASF123:
 15027 1fde 4F535F46 		.ascii	"OS_FN_KEY_RSA\000"
 15027      4E5F4B45 
 15027      595F5253 
 15027      4100
 15028              	.LASF701:
 15029 1fec 61706E32 		.ascii	"apn2_port\000"
 15029      5F706F72 
 15029      7400
 15030              	.LASF1088:
 15031 1ff6 61547261 		.ascii	"aTrans\000"
 15031      6E7300
 15032              	.LASF551:
 15033 1ffd 41505049 		.ascii	"APPINFO_GETMW\000"
 15033      4E464F5F 
 15033      4745544D 
 15033      5700
 15034              	.LASF460:
 15035 200b 4F535F46 		.ascii	"OS_FN_GCM_AES_PROCESS_AAD\000"
ARM GAS  C:\Users\AHMED~1.ELE\AppData\Local\Temp\cckRh1xc.s 			page 319


 15035      4E5F4743 
 15035      4D5F4145 
 15035      535F5052 
 15035      4F434553 
 15036              	.LASF313:
 15037 2025 4F535F46 		.ascii	"OS_FN_TPAD_CALIBRATE\000"
 15037      4E5F5450 
 15037      41445F43 
 15037      414C4942 
 15037      52415445 
 15038              	.LASF875:
 15039 203a 4544435F 		.ascii	"EDC_RSP_RSP_TXN_ACP\000"
 15039      5253505F 
 15039      5253505F 
 15039      54584E5F 
 15039      41435000 
 15040              	.LASF584:
 15041 204e 41504D5F 		.ascii	"APM_SETBATCH\000"
 15041      53455442 
 15041      41544348 
 15041      00
 15042              	.LASF654:
 15043 205b 73625F66 		.ascii	"sb_ftp_user\000"
 15043      74705F75 
 15043      73657200 
 15044              	.LASF1146:
 15045 2067 47657441 		.ascii	"GetAmount\000"
 15045      6D6F756E 
 15045      7400
 15046              	.LASF734:
 15047 2071 73625F63 		.ascii	"sb_curr_batch_no\000"
 15047      7572725F 
 15047      62617463 
 15047      685F6E6F 
 15047      00
 15048              	.LASF597:
 15049 2082 41504D5F 		.ascii	"APM_CLR_REV_REC\000"
 15049      434C525F 
 15049      5245565F 
 15049      52454300 
 15050              	.LASF391:
 15051 2092 4F535F46 		.ascii	"OS_FN_MIF_GET\000"
 15051      4E5F4D49 
 15051      465F4745 
 15051      5400
 15052              	.LASF782:
 15053 20a0 4544435F 		.ascii	"EDC_IN_CARD_EXPIRED\000"
 15053      494E5F43 
 15053      4152445F 
 15053      45585049 
 15053      52454400 
 15054              	.LASF893:
 15055 20b4 4544435F 		.ascii	"EDC_CTL_FATAL\000"
 15055      43544C5F 
 15055      46415441 
 15055      4C00
 15056              	.LASF1051:
ARM GAS  C:\Users\AHMED~1.ELE\AppData\Local\Temp\cckRh1xc.s 			page 320


 15057 20c2 61546167 		.ascii	"aTag\000"
 15057      00
 15058              	.LASF1077:
 15059 20c7 44697370 		.ascii	"DispLabel\000"
 15059      4C616265 
 15059      6C00
 15060              	.LASF208:
 15061 20d1 4F535F46 		.ascii	"OS_FN_SAM_INSERTED\000"
 15061      4E5F5341 
 15061      4D5F494E 
 15061      53455254 
 15061      454400
 15062              	.LASF261:
 15063 20e4 4F535F46 		.ascii	"OS_FN_FL_COPYB_START\000"
 15063      4E5F464C 
 15063      5F434F50 
 15063      59425F53 
 15063      54415254 
 15064              	.LASF507:
 15065 20f9 53544154 		.ascii	"STATMW\000"
 15065      4D5700
 15066              	.LASF1157:
 15067 2100 47657443 		.ascii	"GetCard\000"
 15067      61726400 
 15068              	.LASF339:
 15069 2108 4F535F46 		.ascii	"OS_FN_USBHOST_DEVINFO\000"
 15069      4E5F5553 
 15069      42484F53 
 15069      545F4445 
 15069      56494E46 
 15070              	.LASF962:
 15071 211e 735F7265 		.ascii	"s_refund_tot\000"
 15071      66756E64 
 15071      5F746F74 
 15071      00
 15072              	.LASF288:
 15073 212b 4F535F46 		.ascii	"OS_FN_BATT_CHARGE_MODE\000"
 15073      4E5F4241 
 15073      54545F43 
 15073      48415247 
 15073      455F4D4F 
 15074              	.LASF305:
 15075 2142 4F535F46 		.ascii	"OS_FN_GPRS_SMS_CONTROL\000"
 15075      4E5F4750 
 15075      52535F53 
 15075      4D535F43 
 15075      4F4E5452 
 15076              	.LASF982:
 15077 2159 735F7465 		.ascii	"s_term_tot\000"
 15077      726D5F74 
 15077      6F7400
 15078              	.LASF1019:
 15079 2164 52454655 		.ascii	"REFUND_CTL\000"
 15079      4E445F43 
 15079      544C00
 15080              	.LASF25:
 15081 216f 4F535F46 		.ascii	"OS_FN_KBD_LOCK\000"
ARM GAS  C:\Users\AHMED~1.ELE\AppData\Local\Temp\cckRh1xc.s 			page 321


 15081      4E5F4B42 
 15081      445F4C4F 
 15081      434B00
 15082              	.LASF1137:
 15083 217e 41636365 		.ascii	"AcceptBeep\000"
 15083      70744265 
 15083      657000
 15084              	.LASF781:
 15085 2189 4544435F 		.ascii	"EDC_IN_INV_EXPIRE\000"
 15085      494E5F49 
 15085      4E565F45 
 15085      58504952 
 15085      4500
 15086              	.LASF221:
 15087 219b 4F535F46 		.ascii	"OS_FN_MMC_WRITE\000"
 15087      4E5F4D4D 
 15087      435F5752 
 15087      49544500 
 15088              	.LASF795:
 15089 21ab 4544435F 		.ascii	"EDC_AJ_BASE_AMT\000"
 15089      414A5F42 
 15089      4153455F 
 15089      414D5400 
 15090              	.LASF489:
 15091 21bb 454E445F 		.ascii	"END_OF_OS_FN_LIST\000"
 15091      4F465F4F 
 15091      535F464E 
 15091      5F4C4953 
 15091      5400
 15092              	.LASF399:
 15093 21cd 4F535F46 		.ascii	"OS_FN_BARCODE_ABORT\000"
 15093      4E5F4241 
 15093      52434F44 
 15093      455F4142 
 15093      4F525400 
 15094              	.LASF1:
 15095 21e1 756E7369 		.ascii	"unsigned char\000"
 15095      676E6564 
 15095      20636861 
 15095      7200
 15096              	.LASF273:
 15097 21ef 4F535F46 		.ascii	"OS_FN_MDM_STATUS\000"
 15097      4E5F4D44 
 15097      4D5F5354 
 15097      41545553 
 15097      00
 15098              	.LASF892:
 15099 2200 4544435F 		.ascii	"EDC_EMV_CANNOT_SEL\000"
 15099      454D565F 
 15099      43414E4E 
 15099      4F545F53 
 15099      454C00
 15100              	.LASF28:
 15101 2213 4F535F46 		.ascii	"OS_FN_TIMER_CLOSE\000"
 15101      4E5F5449 
 15101      4D45525F 
 15101      434C4F53 
ARM GAS  C:\Users\AHMED~1.ELE\AppData\Local\Temp\cckRh1xc.s 			page 322


 15101      4500
 15102              	.LASF15:
 15103 2225 44574F52 		.ascii	"DWORD\000"
 15103      4400
 15104              	.LASF600:
 15105 222b 41504D5F 		.ascii	"APM_TRACE_IN_BATCH\000"
 15105      54524143 
 15105      455F494E 
 15105      5F424154 
 15105      434800
 15106              	.LASF824:
 15107 223e 4544435F 		.ascii	"EDC_RSP_REFERRAL\000"
 15107      5253505F 
 15107      52454645 
 15107      5252414C 
 15107      00
 15108              	.LASF432:
 15109 224f 4F535F46 		.ascii	"OS_FN_FREE_RUN\000"
 15109      4E5F4652 
 15109      45455F52 
 15109      554E00
 15110              	.LASF896:
 15111 225e 4544435F 		.ascii	"EDC_CTL_TAP_CARD\000"
 15111      43544C5F 
 15111      5441505F 
 15111      43415244 
 15111      00
 15112              	.LASF482:
 15113 226f 4F535F46 		.ascii	"OS_FN_BATT_CHARGE_NOW\000"
 15113      4E5F4241 
 15113      54545F43 
 15113      48415247 
 15113      455F4E4F 
 15114              	.LASF1132:
 15115 2285 4D6F7665 		.ascii	"MoveInput2Tx\000"
 15115      496E7075 
 15115      74325478 
 15115      00
 15116              	.LASF213:
 15117 2292 4F535F46 		.ascii	"OS_FN_MMC_OPEN\000"
 15117      4E5F4D4D 
 15117      435F4F50 
 15117      454E00
 15118              	.LASF829:
 15119 22a1 4544435F 		.ascii	"EDC_RSP_BAD_PROC\000"
 15119      5253505F 
 15119      4241445F 
 15119      50524F43 
 15119      00
 15120              	.LASF843:
 15121 22b2 4544435F 		.ascii	"EDC_RSP_BAD_PROD\000"
 15121      5253505F 
 15121      4241445F 
 15121      50524F44 
 15121      00
 15122              	.LASF561:
 15123 22c3 41504D5F 		.ascii	"APM_PACKCOMM\000"
ARM GAS  C:\Users\AHMED~1.ELE\AppData\Local\Temp\cckRh1xc.s 			page 323


 15123      5041434B 
 15123      434F4D4D 
 15123      00
 15124              	.LASF596:
 15125 22d0 41504D5F 		.ascii	"APM_GET_REV_REC\000"
 15125      4745545F 
 15125      5245565F 
 15125      52454300 
 15126              	.LASF230:
 15127 22e0 4F535F46 		.ascii	"OS_FN_LAN_TXRDY\000"
 15127      4E5F4C41 
 15127      4E5F5458 
 15127      52445900 
 15128              	.LASF751:
 15129 22f0 625F6461 		.ascii	"b_day\000"
 15129      7900
 15130              	.LASF932:
 15131 22f6 625F7472 		.ascii	"b_trans_status\000"
 15131      616E735F 
 15131      73746174 
 15131      757300
 15132              	.LASF154:
 15133 2305 4F535F46 		.ascii	"OS_FN_LED_CLEAR\000"
 15133      4E5F4C45 
 15133      445F434C 
 15133      45415200 
 15134              	.LASF1099:
 15135 2315 56616C69 		.ascii	"ValidEMVData\000"
 15135      64454D56 
 15135      44617461 
 15135      00
 15136              	.LASF705:
 15137 2322 625F6973 		.ascii	"b_issuer_id\000"
 15137      73756572 
 15137      5F696400 
 15138              	.LASF910:
 15139 232e 624D7367 		.ascii	"bMsg\000"
 15139      00
 15140              	.LASF738:
 15141 2333 625F686F 		.ascii	"b_host_type\000"
 15141      73745F74 
 15141      79706500 
 15142              	.LASF22:
 15143 233f 4F535F46 		.ascii	"OS_FN_KBD_INKEY\000"
 15143      4E5F4B42 
 15143      445F494E 
 15143      4B455900 
 15144              	.LASF1143:
 15145 234f 5061636B 		.ascii	"PackHostMsg\000"
 15145      486F7374 
 15145      4D736700 
 15146              	.LASF377:
 15147 235b 4F535F46 		.ascii	"OS_FN_MIF_ANTICOLL\000"
 15147      4E5F4D49 
 15147      465F414E 
 15147      5449434F 
 15147      4C4C00
ARM GAS  C:\Users\AHMED~1.ELE\AppData\Local\Temp\cckRh1xc.s 			page 324


 15148              	.LASF977:
 15149 236e 735F7374 		.ascii	"s_stis_data\000"
 15149      69735F64 
 15149      61746100 
 15150              	.LASF484:
 15151 237a 4F535F46 		.ascii	"OS_FN_WIFI_SET_REGULATORY_DOMAIN\000"
 15151      4E5F5749 
 15151      46495F53 
 15151      45545F52 
 15151      4547554C 
 15152              	.LASF836:
 15153 239b 4544435F 		.ascii	"EDC_RSP_CALL_LC\000"
 15153      5253505F 
 15153      43414C4C 
 15153      5F4C4300 
 15154              	.LASF183:
 15155 23ab 4F535F46 		.ascii	"OS_FN_FILE_DSEARCH_ALL\000"
 15155      4E5F4649 
 15155      4C455F44 
 15155      53454152 
 15155      43485F41 
 15156              	.LASF1085:
 15157 23c2 61676169 		.ascii	"again\000"
 15157      6E00
 15158              	.LASF537:
 15159 23c8 44495350 		.ascii	"DISP_SETPMW\000"
 15159      5F534554 
 15159      504D5700 
 15160              	.LASF392:
 15161 23d4 4F535F46 		.ascii	"OS_FN_MIF_INFO_SET\000"
 15161      4E5F4D49 
 15161      465F494E 
 15161      464F5F53 
 15161      455400
 15162              	.LASF946:
 15163 23e7 625F5069 		.ascii	"b_PinVerified\000"
 15163      6E566572 
 15163      69666965 
 15163      6400
 15164              	.LASF703:
 15165 23f5 73625F70 		.ascii	"sb_pan_range_low\000"
 15165      616E5F72 
 15165      616E6765 
 15165      5F6C6F77 
 15165      00
 15166              	.LASF98:
 15167 2406 4F535F46 		.ascii	"OS_FN_MD5_INIT\000"
 15167      4E5F4D44 
 15167      355F494E 
 15167      495400
 15168              	.LASF882:
 15169 2415 4544435F 		.ascii	"EDC_SE_BUS_DATE\000"
 15169      53455F42 
 15169      55535F44 
 15169      41544500 
 15170              	.LASF487:
 15171 2425 4F535F46 		.ascii	"OS_FN_IMG_SENSOR_SET_MODE\000"
ARM GAS  C:\Users\AHMED~1.ELE\AppData\Local\Temp\cckRh1xc.s 			page 325


 15171      4E5F494D 
 15171      475F5345 
 15171      4E534F52 
 15171      5F534554 
 15172              	.LASF639:
 15173 243f 73625F65 		.ascii	"sb_edc_chksum\000"
 15173      64635F63 
 15173      686B7375 
 15173      6D00
 15174              	.LASF592:
 15175 244d 41504D5F 		.ascii	"APM_BATCH_CLEAR\000"
 15175      42415443 
 15175      485F434C 
 15175      45415200 
 15176              	.LASF302:
 15177 245d 4F535F46 		.ascii	"OS_FN_GPRS_SMS_DECODE\000"
 15177      4E5F4750 
 15177      52535F53 
 15177      4D535F44 
 15177      45434F44 
 15178              	.LASF256:
 15179 2473 4F535F46 		.ascii	"OS_FN_FL_PGM_START\000"
 15179      4E5F464C 
 15179      5F50474D 
 15179      5F535441 
 15179      525400
 15180              	.LASF1026:
 15181 2486 735F7472 		.ascii	"s_trk2buf\000"
 15181      6B326275 
 15181      6600
 15182              	.LASF1158:
 15183 2490 53616C65 		.ascii	"SaleTrans\000"
 15183      5472616E 
 15183      7300
 15184              	.LASF581:
 15185 249a 41504D5F 		.ascii	"APM_GETPENDING\000"
 15185      47455450 
 15185      454E4449 
 15185      4E4700
 15186              	.LASF698:
 15187 24a9 61706E63 		.ascii	"apnconfig\000"
 15187      6F6E6669 
 15187      6700
 15188              	.LASF576:
 15189 24b3 41504D5F 		.ascii	"APM_GETDESCTBL\000"
 15189      47455444 
 15189      45534354 
 15189      424C00
 15190              	.LASF450:
 15191 24c2 4F535F46 		.ascii	"OS_FN_FPRT_OPEN\000"
 15191      4E5F4650 
 15191      52545F4F 
 15191      50454E00 
 15192              	.LASF175:
 15193 24d2 4F535F46 		.ascii	"OS_FN_FILE_READ\000"
 15193      4E5F4649 
 15193      4C455F52 
ARM GAS  C:\Users\AHMED~1.ELE\AppData\Local\Temp\cckRh1xc.s 			page 326


 15193      45414400 
 15194              	.LASF446:
 15195 24e2 4F535F46 		.ascii	"OS_FN_DTIMER_LATCH_STOP\000"
 15195      4E5F4454 
 15195      494D4552 
 15195      5F4C4154 
 15195      43485F53 
 15196              	.LASF1075:
 15197 24fa 454D5652 		.ascii	"EMVReferral\000"
 15197      65666572 
 15197      72616C00 
 15198              	.LASF486:
 15199 2506 4F535F46 		.ascii	"OS_FN_BATT_LEVEL2\000"
 15199      4E5F4241 
 15199      54545F4C 
 15199      4556454C 
 15199      3200
 15200              	.LASF924:
 15201 2518 73625F61 		.ascii	"sb_aid\000"
 15201      696400
 15202              	.LASF406:
 15203 251f 4F535F46 		.ascii	"OS_FN_WIFI_PROFILES_READ\000"
 15203      4E5F5749 
 15203      46495F50 
 15203      524F4649 
 15203      4C45535F 
 15204              	.LASF509:
 15205 2538 46535953 		.ascii	"FSYSINITMW\000"
 15205      494E4954 
 15205      4D5700
 15206              	.LASF57:
 15207 2543 4F535F46 		.ascii	"OS_FN_COM1_OPEN\000"
 15207      4E5F434F 
 15207      4D315F4F 
 15207      50454E00 
 15208              	.LASF84:
 15209 2553 4F535F46 		.ascii	"OS_FN_DESKEY\000"
 15209      4E5F4445 
 15209      534B4559 
 15209      00
 15210              	.LASF168:
 15211 2560 4F535F46 		.ascii	"OS_FN_FILE_CREATE\000"
 15211      4E5F4649 
 15211      4C455F43 
 15211      52454154 
 15211      4500
 15212              	.LASF318:
 15213 2572 4F535F46 		.ascii	"OS_FN_CODEC_PLAY_RAM\000"
 15213      4E5F434F 
 15213      4445435F 
 15213      504C4159 
 15213      5F52414D 
 15214              	.LASF493:
 15215 2587 55534246 		.ascii	"USBFPRT_GENERAL_INFO_IMG_BPP\000"
 15215      5052545F 
 15215      47454E45 
 15215      52414C5F 
ARM GAS  C:\Users\AHMED~1.ELE\AppData\Local\Temp\cckRh1xc.s 			page 327


 15215      494E464F 
 15216              	.LASF849:
 15217 25a4 4544435F 		.ascii	"EDC_RSP_BAD_TERMINAL_ID\000"
 15217      5253505F 
 15217      4241445F 
 15217      5445524D 
 15217      494E414C 
 15218              	.LASF1100:
 15219 25bc 6C69625F 		.ascii	"lib_app_call\000"
 15219      6170705F 
 15219      63616C6C 
 15219      00
 15220              	.LASF1144:
 15221 25c9 43686563 		.ascii	"CheckHostRsp\000"
 15221      6B486F73 
 15221      74527370 
 15221      00
 15222              	.LASF651:
 15223 25d6 73625F6C 		.ascii	"sb_lxapp_chksum\000"
 15223      78617070 
 15223      5F63686B 
 15223      73756D00 
 15224              	.LASF158:
 15225 25e6 4F535F46 		.ascii	"OS_FN_APP_SEARCH_ID\000"
 15225      4E5F4150 
 15225      505F5345 
 15225      41524348 
 15225      5F494400 
 15226              	.LASF296:
 15227 25fa 4F535F46 		.ascii	"OS_FN_GPRS_SEND\000"
 15227      4E5F4750 
 15227      52535F53 
 15227      454E4400 
 15228              	.LASF647:
 15229 260a 73625F65 		.ascii	"sb_emvkey_size\000"
 15229      6D766B65 
 15229      795F7369 
 15229      7A6500
 15230              	.LASF1095:
 15231 2619 67475453 		.ascii	"gGTS\000"
 15231      00
 15232              	.LASF541:
 15233 261e 4F535F43 		.ascii	"OS_CALL_MW\000"
 15233      414C4C5F 
 15233      4D5700
 15234              	.LASF304:
 15235 2629 4F535F46 		.ascii	"OS_FN_GPRS_SMS_SEND\000"
 15235      4E5F4750 
 15235      52535F53 
 15235      4D535F53 
 15235      454E4400 
 15236              	.LASF656:
 15237 263d 73625F70 		.ascii	"sb_ppp_user\000"
 15237      70705F75 
 15237      73657200 
 15238              	.LASF1134:
 15239 2649 53617665 		.ascii	"SaveRecord\000"
ARM GAS  C:\Users\AHMED~1.ELE\AppData\Local\Temp\cckRh1xc.s 			page 328


 15239      5265636F 
 15239      726400
 15240              	.LASF375:
 15241 2654 4F535F46 		.ascii	"OS_FN_MIF_TAG\000"
 15241      4E5F4D49 
 15241      465F5441 
 15241      4700
 15242              	.LASF819:
 15243 2662 4544435F 		.ascii	"EDC_PN_PLS_REPRINT\000"
 15243      504E5F50 
 15243      4C535F52 
 15243      45505249 
 15243      4E5400
 15244              	.LASF194:
 15245 2675 4F535F46 		.ascii	"OS_FN_FILE_INIT_SEARCH\000"
 15245      4E5F4649 
 15245      4C455F49 
 15245      4E49545F 
 15245      53454152 
 15246              	.LASF628:
 15247 268c 73625F70 		.ascii	"sb_port\000"
 15247      6F727400 
 15248              	.LASF735:
 15249 2694 73625F6E 		.ascii	"sb_next_batch_no\000"
 15249      6578745F 
 15249      62617463 
 15249      685F6E6F 
 15249      00
 15250              	.LASF294:
 15251 26a5 4F535F46 		.ascii	"OS_FN_GPRS_AT_CMD\000"
 15251      4E5F4750 
 15251      52535F41 
 15251      545F434D 
 15251      4400
 15252              	.LASF50:
 15253 26b7 4F535F46 		.ascii	"OS_FN_DISP_BRIGHTNESS\000"
 15253      4E5F4449 
 15253      53505F42 
 15253      52494748 
 15253      544E4553 
 15254              	.LASF101:
 15255 26cd 4F535F46 		.ascii	"OS_FN_SHA_INIT\000"
 15255      4E5F5348 
 15255      415F494E 
 15255      495400
 15256              	.LASF192:
 15257 26dc 4F535F46 		.ascii	"OS_FN_FILE_GET_SYSTEMINFO\000"
 15257      4E5F4649 
 15257      4C455F47 
 15257      45545F53 
 15257      59535445 
 15258              	.LASF729:
 15259 26f6 625F7365 		.ascii	"b_sec_settle_redial\000"
 15259      635F7365 
 15259      74746C65 
 15259      5F726564 
 15259      69616C00 
ARM GAS  C:\Users\AHMED~1.ELE\AppData\Local\Temp\cckRh1xc.s 			page 329


 15260              	.LASF453:
 15261 270a 4F535F46 		.ascii	"OS_FN_FPRT_INFO_SET\000"
 15261      4E5F4650 
 15261      52545F49 
 15261      4E464F5F 
 15261      53455400 
 15262              	.LASF94:
 15263 271e 4F535F46 		.ascii	"OS_FN_AES_SETUP_KEY\000"
 15263      4E5F4145 
 15263      535F5345 
 15263      5455505F 
 15263      4B455900 
 15264              	.LASF93:
 15265 2732 4F535F46 		.ascii	"OS_FN_RSA_PRIVATE\000"
 15265      4E5F5253 
 15265      415F5052 
 15265      49564154 
 15265      4500
 15266              	.LASF97:
 15267 2744 4F535F46 		.ascii	"OS_FN_SHA1\000"
 15267      4E5F5348 
 15267      413100
 15268              	.LASF252:
 15269 274f 4F535F46 		.ascii	"OS_FN_FL_STATUS\000"
 15269      4E5F464C 
 15269      5F535441 
 15269      54555300 
 15270              	.LASF372:
 15271 275f 4F535F46 		.ascii	"OS_FN_MIF_CANCEL\000"
 15271      4E5F4D49 
 15271      465F4341 
 15271      4E43454C 
 15271      00
 15272              	.LASF397:
 15273 2770 4F535F46 		.ascii	"OS_FN_BARCODE_SCAN\000"
 15273      4E5F4241 
 15273      52434F44 
 15273      455F5343 
 15273      414E00
 15274              	.LASF459:
 15275 2783 4F535F46 		.ascii	"OS_FN_GCM_AES_INIT\000"
 15275      4E5F4743 
 15275      4D5F4145 
 15275      535F494E 
 15275      495400
 15276              	.LASF573:
 15277 2796 41504D5F 		.ascii	"APM_GETACQCOUNT\000"
 15277      47455441 
 15277      4351434F 
 15277      554E5400 
 15278              	.LASF938:
 15279 27a6 64645F74 		.ascii	"dd_tip\000"
 15279      697000
 15280              	.LASF77:
 15281 27ad 4F535F46 		.ascii	"OS_FN_COM3_RXRDY\000"
 15281      4E5F434F 
 15281      4D335F52 
ARM GAS  C:\Users\AHMED~1.ELE\AppData\Local\Temp\cckRh1xc.s 			page 330


 15281      58524459 
 15281      00
 15282              	.LASF312:
 15283 27be 4F535F46 		.ascii	"OS_FN_TPAD_ALERT_RETURN\000"
 15283      4E5F5450 
 15283      41445F41 
 15283      4C455254 
 15283      5F524554 
 15284              	.LASF153:
 15285 27d6 4F535F46 		.ascii	"OS_FN_LED_SET\000"
 15285      4E5F4C45 
 15285      445F5345 
 15285      5400
 15286              	.LASF749:
 15287 27e4 625F7965 		.ascii	"b_year\000"
 15287      617200
 15288              	.LASF602:
 15289 27eb 41504D5F 		.ascii	"APM_GETACCESSCODE\000"
 15289      47455441 
 15289      43434553 
 15289      53434F44 
 15289      4500
 15290              	.LASF722:
 15291 27fd 625F7365 		.ascii	"b_sec_trans_conn_time\000"
 15291      635F7472 
 15291      616E735F 
 15291      636F6E6E 
 15291      5F74696D 
 15292              	.LASF885:
 15293 2813 4544435F 		.ascii	"EDC_SE_REFUND_TOTAL\000"
 15293      53455F52 
 15293      4546554E 
 15293      445F544F 
 15293      54414C00 
 15294              	.LASF603:
 15295 2827 41504D5F 		.ascii	"APM_SELYESNO\000"
 15295      53454C59 
 15295      45534E4F 
 15295      00
 15296              	.LASF808:
 15297 2834 4544435F 		.ascii	"EDC_FN_BATCH_ERASE\000"
 15297      464E5F42 
 15297      41544348 
 15297      5F455241 
 15297      534500
 15298              	.LASF672:
 15299 2847 625F646C 		.ascii	"b_dll\000"
 15299      6C00
 15300              	.LASF1093:
 15301 284d 67496363 		.ascii	"gIccHandle\000"
 15301      48616E64 
 15301      6C6500
 15302              	.LASF627:
 15303 2858 73625F69 		.ascii	"sb_ip\000"
 15303      7000
 15304              	.LASF220:
 15305 285e 4F535F46 		.ascii	"OS_FN_MMC_READ\000"
ARM GAS  C:\Users\AHMED~1.ELE\AppData\Local\Temp\cckRh1xc.s 			page 331


 15305      4E5F4D4D 
 15305      435F5245 
 15305      414400
 15306              	.LASF189:
 15307 286d 4F535F46 		.ascii	"OS_FN_FILE_SET_LOCK\000"
 15307      4E5F4649 
 15307      4C455F53 
 15307      45545F4C 
 15307      4F434B00 
 15308              	.LASF280:
 15309 2881 4F535F46 		.ascii	"OS_FN_MCOM_SREAD\000"
 15309      4E5F4D43 
 15309      4F4D5F53 
 15309      52454144 
 15309      00
 15310              	.LASF1126:
 15311 2892 47657441 		.ascii	"GetAuthCode\000"
 15311      75746843 
 15311      6F646500 
 15312              	.LASF648:
 15313 289e 73625F78 		.ascii	"sb_xapp_chksum\000"
 15313      6170705F 
 15313      63686B73 
 15313      756D00
 15314              	.LASF995:
 15315 28ad 735F6563 		.ascii	"s_ecr_data\000"
 15315      725F6461 
 15315      746100
 15316              	.LASF979:
 15317 28b8 735F7265 		.ascii	"s_record_buf\000"
 15317      636F7264 
 15317      5F627566 
 15317      00
 15318              	.LASF1013:
 15319 28c5 41555448 		.ascii	"AUTH_ICC\000"
 15319      5F494343 
 15319      00
 15320              	.LASF428:
 15321 28ce 4F535F46 		.ascii	"OS_FN_GET_CALLID\000"
 15321      4E5F4745 
 15321      545F4341 
 15321      4C4C4944 
 15321      00
 15322              	.LASF1145:
 15323 28df 54495073 		.ascii	"TIPsReqd\000"
 15323      52657164 
 15323      00
 15324              	.LASF559:
 15325 28e8 41504D5F 		.ascii	"APM_SETKBDTO\000"
 15325      5345544B 
 15325      4244544F 
 15325      00
 15326              	.LASF232:
 15327 28f5 4F535F46 		.ascii	"OS_FN_LAN_SEND\000"
 15327      4E5F4C41 
 15327      4E5F5345 
 15327      4E4400
ARM GAS  C:\Users\AHMED~1.ELE\AppData\Local\Temp\cckRh1xc.s 			page 332


 15328              	.LASF36:
 15329 2904 4F535F46 		.ascii	"OS_FN_RTC_SET\000"
 15329      4E5F5254 
 15329      435F5345 
 15329      5400
 15330              	.LASF640:
 15331 2912 73625F65 		.ascii	"sb_edc_date\000"
 15331      64635F64 
 15331      61746500 
 15332              	.LASF162:
 15333 291e 4F535F46 		.ascii	"OS_FN_APP_INFO\000"
 15333      4E5F4150 
 15333      505F494E 
 15333      464F00
 15334              	.LASF222:
 15335 292d 4F535F46 		.ascii	"OS_FN_MMC_INSERTED\000"
 15335      4E5F4D4D 
 15335      435F494E 
 15335      53455254 
 15335      454400
 15336              	.LASF490:
 15337 2940 55534246 		.ascii	"USBFPRT_GENERAL_INFO_MODEL\000"
 15337      5052545F 
 15337      47454E45 
 15337      52414C5F 
 15337      494E464F 
 15338              	.LASF472:
 15339 295b 4F535F46 		.ascii	"OS_FN_WIFI_SOCKET_LISTEN\000"
 15339      4E5F5749 
 15339      46495F53 
 15339      4F434B45 
 15339      545F4C49 
 15340              	.LASF321:
 15341 2974 4F535F46 		.ascii	"OS_FN_CLICC_OPEN\000"
 15341      4E5F434C 
 15341      4943435F 
 15341      4F50454E 
 15341      00
 15342              	.LASF33:
 15343 2985 4F535F46 		.ascii	"OS_FN_BUZ_BEEP\000"
 15343      4E5F4255 
 15343      5A5F4245 
 15343      455000
 15344              	.LASF425:
 15345 2994 4F535F46 		.ascii	"OS_FN_BREG_READ\000"
 15345      4E5F4252 
 15345      45475F52 
 15345      45414400 
 15346              	.LASF1086:
 15347 29a4 63617368 		.ascii	"cashback_amt\000"
 15347      6261636B 
 15347      5F616D74 
 15347      00
 15348              	.LASF566:
 15349 29b1 41504D5F 		.ascii	"APM_RESETCOMM\000"
 15349      52455345 
 15349      54434F4D 
ARM GAS  C:\Users\AHMED~1.ELE\AppData\Local\Temp\cckRh1xc.s 			page 333


 15349      4D00
 15350              	.LASF376:
 15351 29bf 4F535F46 		.ascii	"OS_FN_MIF_STATUS\000"
 15351      4E5F4D49 
 15351      465F5354 
 15351      41545553 
 15351      00
 15352              	.LASF536:
 15353 29d0 44495350 		.ascii	"DISP_LINEMW\000"
 15353      5F4C494E 
 15353      454D5700 
 15354              	.LASF518:
 15355 29dc 46434F4D 		.ascii	"FCOMMITALLMW\000"
 15355      4D495441 
 15355      4C4C4D57 
 15355      00
 15356              	.LASF974:
 15357 29e9 625F6464 		.ascii	"b_dd\000"
 15357      00
 15358              	.LASF316:
 15359 29ee 4F535F46 		.ascii	"OS_FN_CODEC_CLOSE\000"
 15359      4E5F434F 
 15359      4445435F 
 15359      434C4F53 
 15359      4500
 15360              	.LASF257:
 15361 2a00 4F535F46 		.ascii	"OS_FN_FL_WRITE\000"
 15361      4E5F464C 
 15361      5F575249 
 15361      544500
 15362              	.LASF270:
 15363 2a0f 4F535F46 		.ascii	"OS_FN_MDM_DIAL\000"
 15363      4E5F4D44 
 15363      4D5F4449 
 15363      414C00
 15364              	.LASF645:
 15365 2a1e 73625F65 		.ascii	"sb_emvkey_chksum\000"
 15365      6D766B65 
 15365      795F6368 
 15365      6B73756D 
 15365      00
 15366              	.LASF952:
 15367 2a2f 41435155 		.ascii	"ACQUIRER_REV\000"
 15367      49524552 
 15367      5F524556 
 15367      00
 15368              	.LASF665:
 15369 2a3c 625F6368 		.ascii	"b_checkin_sec_conn_time\000"
 15369      65636B69 
 15369      6E5F7365 
 15369      635F636F 
 15369      6E6E5F74 
 15370              	.LASF899:
 15371 2a54 4544435F 		.ascii	"EDC_NET_INIT\000"
 15371      4E45545F 
 15371      494E4954 
 15371      00
ARM GAS  C:\Users\AHMED~1.ELE\AppData\Local\Temp\cckRh1xc.s 			page 334


 15372              	.LASF564:
 15373 2a61 41504D5F 		.ascii	"APM_SENDRCVD\000"
 15373      53454E44 
 15373      52435644 
 15373      00
 15374              	.LASF945:
 15375 2a6e 775F7273 		.ascii	"w_rspcode\000"
 15375      70636F64 
 15375      6500
 15376              	.LASF964:
 15377 2a78 735F766F 		.ascii	"s_void_refund\000"
 15377      69645F72 
 15377      6566756E 
 15377      6400
 15378              	.LASF854:
 15379 2a86 4544435F 		.ascii	"EDC_RSP_APP_CODE\000"
 15379      5253505F 
 15379      4150505F 
 15379      434F4445 
 15379      00
 15380              	.LASF770:
 15381 2a97 4544435F 		.ascii	"EDC_IN_CHK_DIGIT_ERROR\000"
 15381      494E5F43 
 15381      484B5F44 
 15381      49474954 
 15381      5F455252 
 15382              	.LASF1147:
 15383 2aae 47657443 		.ascii	"GetCashBackAmount\000"
 15383      61736842 
 15383      61636B41 
 15383      6D6F756E 
 15383      7400
 15384              	.LASF379:
 15385 2ac0 4F535F46 		.ascii	"OS_FN_MIF_LOAD_KEY\000"
 15385      4E5F4D49 
 15385      465F4C4F 
 15385      41445F4B 
 15385      455900
 15386              	.LASF52:
 15387 2ad3 4F535F46 		.ascii	"OS_FN_DISP_ICON_COLOR\000"
 15387      4E5F4449 
 15387      53505F49 
 15387      434F4E5F 
 15387      434F4C4F 
 15388              	.LASF553:
 15389 2ae9 41504D5F 		.ascii	"APM_GETHWHANDLE\000"
 15389      47455448 
 15389      5748414E 
 15389      444C4500 
 15390              	.LASF685:
 15391 2af9 625F6465 		.ascii	"b_decimal_pos\000"
 15391      63696D61 
 15391      6C5F706F 
 15391      7300
 15392              	.LASF922:
 15393 2b07 73625F6C 		.ascii	"sb_label\000"
 15393      6162656C 
ARM GAS  C:\Users\AHMED~1.ELE\AppData\Local\Temp\cckRh1xc.s 			page 335


 15393      00
 15394              	.LASF249:
 15395 2b10 4F535F46 		.ascii	"OS_FN_USBSER_STATUS\000"
 15395      4E5F5553 
 15395      42534552 
 15395      5F535441 
 15395      54555300 
 15396              	.LASF255:
 15397 2b24 4F535F46 		.ascii	"OS_FN_FL_PGM\000"
 15397      4E5F464C 
 15397      5F50474D 
 15397      00
 15398              	.LASF30:
 15399 2b31 4F535F46 		.ascii	"OS_FN_TIMER_GET\000"
 15399      4E5F5449 
 15399      4D45525F 
 15399      47455400 
 15400              	.LASF605:
 15401 2b41 41504D5F 		.ascii	"APM_MERCHFUNC\000"
 15401      4D455243 
 15401      4846554E 
 15401      4300
 15402              	.LASF1007:
 15403 2b4f 564F4944 		.ascii	"VOID\000"
 15403      00
 15404              	.LASF1036:
 15405 2b54 74657874 		.ascii	"text\000"
 15405      00
 15406              	.LASF1014:
 15407 2b59 52454655 		.ascii	"REFUND_ICC\000"
 15407      4E445F49 
 15407      434300
 15408              	.LASF1109:
 15409 2b64 7379735F 		.ascii	"sys_func0\000"
 15409      66756E63 
 15409      3000
 15410              	.LASF1111:
 15411 2b6e 7379735F 		.ascii	"sys_func1\000"
 15411      66756E63 
 15411      3100
 15412              	.LASF867:
 15413 2b78 4544435F 		.ascii	"EDC_RSP_TRY_AGAIN_LC\000"
 15413      5253505F 
 15413      5452595F 
 15413      41474149 
 15413      4E5F4C43 
 15414              	.LASF88:
 15415 2b8d 4F535F46 		.ascii	"OS_FN_COM_DES\000"
 15415      4E5F434F 
 15415      4D5F4445 
 15415      5300
 15416              	.LASF171:
 15417 2b9b 4F535F46 		.ascii	"OS_FN_FILE_RENAME\000"
 15417      4E5F4649 
 15417      4C455F52 
 15417      454E414D 
 15417      4500
ARM GAS  C:\Users\AHMED~1.ELE\AppData\Local\Temp\cckRh1xc.s 			page 336


 15418              	.LASF335:
 15419 2bad 4F535F46 		.ascii	"OS_FN_USBHOST_UNLINK_BUFFER\000"
 15419      4E5F5553 
 15419      42484F53 
 15419      545F554E 
 15419      4C494E4B 
 15420              	.LASF1149:
 15421 2bc9 47657450 		.ascii	"GetProductCode\000"
 15421      726F6475 
 15421      6374436F 
 15421      646500
 15422              	.LASF1124:
 15423 2bd8 5061636B 		.ascii	"PackRspText\000"
 15423      52737054 
 15423      65787400 
 15424              	.LASF61:
 15425 2be4 4F535F46 		.ascii	"OS_FN_COM1_READ\000"
 15425      4E5F434F 
 15425      4D315F52 
 15425      45414400 
 15426              	.LASF702:
 15427 2bf4 43415244 		.ascii	"CARD_TBL\000"
 15427      5F54424C 
 15427      00
 15428              	.LASF784:
 15429 2bfd 4544435F 		.ascii	"EDC_IN_4DBC\000"
 15429      494E5F34 
 15429      44424300 
 15430              	.LASF384:
 15431 2c09 4F535F46 		.ascii	"OS_FN_MIF_INC\000"
 15431      4E5F4D49 
 15431      465F494E 
 15431      4300
 15432              	.LASF471:
 15433 2c17 4F535F46 		.ascii	"OS_FN_WIFI_SOCKET_GET_STATUS\000"
 15433      4E5F5749 
 15433      46495F53 
 15433      4F434B45 
 15433      545F4745 
 15434              	.LASF295:
 15435 2c34 4F535F46 		.ascii	"OS_FN_GPRS_AT_RESP\000"
 15435      4E5F4750 
 15435      52535F41 
 15435      545F5245 
 15435      535000
 15436              	.LASF955:
 15437 2c47 64645F62 		.ascii	"dd_base_amount\000"
 15437      6173655F 
 15437      616D6F75 
 15437      6E7400
 15438              	.LASF264:
 15439 2c56 4F535F46 		.ascii	"OS_FN_FL_CREAD_RAND\000"
 15439      4E5F464C 
 15439      5F435245 
 15439      41445F52 
 15439      414E4400 
 15440              	.LASF1129:
ARM GAS  C:\Users\AHMED~1.ELE\AppData\Local\Temp\cckRh1xc.s 			page 337


 15441 2c6a 496E6341 		.ascii	"IncAPMTraceNo\000"
 15441      504D5472 
 15441      6163654E 
 15441      6F00
 15442              	.LASF855:
 15443 2c78 4544435F 		.ascii	"EDC_RSP_LOW_BATT\000"
 15443      5253505F 
 15443      4C4F575F 
 15443      42415454 
 15443      00
 15444              	.LASF132:
 15445 2c89 4F535F46 		.ascii	"OS_FN_KEY_SAVE_TMK_CBC\000"
 15445      4E5F4B45 
 15445      595F5341 
 15445      56455F54 
 15445      4D4B5F43 
 15446              	.LASF160:
 15447 2ca0 4F535F46 		.ascii	"OS_FN_APP_GET_VIRGIN\000"
 15447      4E5F4150 
 15447      505F4745 
 15447      545F5649 
 15447      5247494E 
 15448              	.LASF1105:
 15449 2cb5 55706461 		.ascii	"UpdateHostStatus\000"
 15449      7465486F 
 15449      73745374 
 15449      61747573 
 15449      00
 15450              	.LASF424:
 15451 2cc6 4F535F46 		.ascii	"OS_FN_GPS_ENABLED\000"
 15451      4E5F4750 
 15451      535F454E 
 15451      41424C45 
 15451      4400
 15452              	.LASF1092:
 15453 2cd8 62416363 		.ascii	"bAcceptReferral\000"
 15453      65707452 
 15453      65666572 
 15453      72616C00 
 15454              	.LASF182:
 15455 2ce8 4F535F46 		.ascii	"OS_FN_FILE_DSEARCH\000"
 15455      4E5F4649 
 15455      4C455F44 
 15455      53454152 
 15455      434800
 15456              	.LASF419:
 15457 2cfb 4F535F46 		.ascii	"OS_FN_GPS_GET_INFO\000"
 15457      4E5F4750 
 15457      535F4745 
 15457      545F494E 
 15457      464F00
 15458              	.LASF862:
 15459 2d0e 4544435F 		.ascii	"EDC_RSP_TRY_AGAIN_NC\000"
 15459      5253505F 
 15459      5452595F 
 15459      41474149 
 15459      4E5F4E43 
ARM GAS  C:\Users\AHMED~1.ELE\AppData\Local\Temp\cckRh1xc.s 			page 338


 15460              	.LASF718:
 15461 2d23 73625F70 		.ascii	"sb_pri_trans_tel\000"
 15461      72695F74 
 15461      72616E73 
 15461      5F74656C 
 15461      00
 15462              	.LASF811:
 15463 2d34 4544435F 		.ascii	"EDC_FN_REV_CLEAR\000"
 15463      464E5F52 
 15463      45565F43 
 15463      4C454152 
 15463      00
 15464              	.LASF894:
 15465 2d45 4544435F 		.ascii	"EDC_CTL_PROCESSING\000"
 15465      43544C5F 
 15465      50524F43 
 15465      45535349 
 15465      4E4700
 15466              	.LASF1115:
 15467 2d58 666E6462 		.ascii	"fndb\000"
 15467      00
 15468              	.LASF2:
 15469 2d5d 73686F72 		.ascii	"short int\000"
 15469      7420696E 
 15469      7400
 15470              	.LASF623:
 15471 2d67 625F6469 		.ascii	"b_dial_mode\000"
 15471      616C5F6D 
 15471      6F646500 
 15472              	.LASF971:
 15473 2d73 735F6361 		.ascii	"s_card_tbl\000"
 15473      72645F74 
 15473      626C00
 15474              	.LASF197:
 15475 2d7e 4F535F46 		.ascii	"OS_FN_FILE_RMDIR\000"
 15475      4E5F4649 
 15475      4C455F52 
 15475      4D444952 
 15475      00
 15476              	.LASF81:
 15477 2d8f 4F535F46 		.ascii	"OS_FN_COM3_STATUS\000"
 15477      4E5F434F 
 15477      4D335F53 
 15477      54415455 
 15477      5300
 15478              	.LASF567:
 15479 2da1 41504D5F 		.ascii	"APM_GETTERMDATA\000"
 15479      47455454 
 15479      45524D44 
 15479      41544100 
 15480              	.LASF653:
 15481 2db1 73625F6C 		.ascii	"sb_lxapp_size\000"
 15481      78617070 
 15481      5F73697A 
 15481      6500
 15482              	.LASF1083:
 15483 2dbf 454D5650 		.ascii	"EMVProcess\000"
ARM GAS  C:\Users\AHMED~1.ELE\AppData\Local\Temp\cckRh1xc.s 			page 339


 15483      726F6365 
 15483      737300
 15484              	.LASF54:
 15485 2dca 4F535F46 		.ascii	"OS_FN_DISP_ICON_TEXTC\000"
 15485      4E5F4449 
 15485      53505F49 
 15485      434F4E5F 
 15485      54455854 
 15486              	.LASF546:
 15487 2de0 534D535F 		.ascii	"SMS_COUNT_MW\000"
 15487      434F554E 
 15487      545F4D57 
 15487      00
 15488              	.LASF768:
 15489 2ded 4544435F 		.ascii	"EDC_CN_REVERSAL\000"
 15489      434E5F52 
 15489      45564552 
 15489      53414C00 
 15490              	.LASF760:
 15491 2dfd 4544435F 		.ascii	"EDC_CN_SALE\000"
 15491      434E5F53 
 15491      414C4500 
 15492              	.LASF762:
 15493 2e09 4544435F 		.ascii	"EDC_CN_OFFLINE\000"
 15493      434E5F4F 
 15493      46464C49 
 15493      4E4500
 15494              	.LASF731:
 15495 2e18 73625F6E 		.ascii	"sb_nii\000"
 15495      696900
 15496              	.LASF68:
 15497 2e1f 4F535F46 		.ascii	"OS_FN_COM2_RXRDY\000"
 15497      4E5F434F 
 15497      4D325F52 
 15497      58524459 
 15497      00
 15498              	.LASF289:
 15499 2e30 4F535F46 		.ascii	"OS_FN_ADC_CH_ENABLE\000"
 15499      4E5F4144 
 15499      435F4348 
 15499      5F454E41 
 15499      424C4500 
 15500              	.LASF234:
 15501 2e44 4F535F46 		.ascii	"OS_FN_MSR_OPEN\000"
 15501      4E5F4D53 
 15501      525F4F50 
 15501      454E00
 15502              	.LASF519:
 15503 2e53 46464C55 		.ascii	"FFLUSHMW\000"
 15503      53484D57 
 15503      00
 15504              	.LASF48:
 15505 2e5c 4F535F46 		.ascii	"OS_FN_DISP_TEXTC\000"
 15505      4E5F4449 
 15505      53505F54 
 15505      45585443 
 15505      00
ARM GAS  C:\Users\AHMED~1.ELE\AppData\Local\Temp\cckRh1xc.s 			page 340


 15506              	.LASF741:
 15507 2e6d 625F7374 		.ascii	"b_status\000"
 15507      61747573 
 15507      00
 15508              	.LASF206:
 15509 2e76 4F535F46 		.ascii	"OS_FN_SAM_CLOSE\000"
 15509      4E5F5341 
 15509      4D5F434C 
 15509      4F534500 
 15510              	.LASF381:
 15511 2e86 4F535F46 		.ascii	"OS_FN_MIF_AUTH2\000"
 15511      4E5F4D49 
 15511      465F4155 
 15511      54483200 
 15512              	.LASF764:
 15513 2e96 4544435F 		.ascii	"EDC_CN_VOID\000"
 15513      434E5F56 
 15513      4F494400 
 15514              	.LASF907:
 15515 2ea2 454D565F 		.ascii	"EMV_ICC_CMD\000"
 15515      4943435F 
 15515      434D4400 
 15516              	.LASF708:
 15517 2eae 49535355 		.ascii	"ISSUER_TBL\000"
 15517      45525F54 
 15517      424C00
 15518              	.LASF85:
 15519 2eb9 4F535F46 		.ascii	"OS_FN_DES\000"
 15519      4E5F4445 
 15519      5300
 15520              	.LASF1140:
 15521 2ec3 52657665 		.ascii	"ReversalOK\000"
 15521      7273616C 
 15521      4F4B00
 15522              	.LASF901:
 15523 2ece 454D565F 		.ascii	"EMV_DLLSETUP\000"
 15523      444C4C53 
 15523      45545550 
 15523      00
 15524              	.LASF990:
 15525 2edb 735F4354 		.ascii	"s_CTLIn\000"
 15525      4C496E00 
 15526              	.LASF485:
 15527 2ee3 4F535F46 		.ascii	"OS_FN_TAMPER_UNLOCK\000"
 15527      4E5F5441 
 15527      4D504552 
 15527      5F554E4C 
 15527      4F434B00 
 15528              	.LASF1156:
 15529 2ef7 53686F72 		.ascii	"Short1Beep\000"
 15529      74314265 
 15529      657000
 15530              	.LASF227:
 15531 2f02 4F535F46 		.ascii	"OS_FN_LAN_OPEN\000"
 15531      4E5F4C41 
 15531      4E5F4F50 
 15531      454E00
ARM GAS  C:\Users\AHMED~1.ELE\AppData\Local\Temp\cckRh1xc.s 			page 341


 15532              	.LASF732:
 15533 2f11 73625F61 		.ascii	"sb_acceptor_id\000"
 15533      63636570 
 15533      746F725F 
 15533      696400
 15534              	.LASF34:
 15535 2f20 4F535F46 		.ascii	"OS_FN_BUZ_STATE\000"
 15535      4E5F4255 
 15535      5A5F5354 
 15535      41544500 
 15536              	.LASF122:
 15537 2f30 4F535F46 		.ascii	"OS_FN_KEY_DES\000"
 15537      4E5F4B45 
 15537      595F4445 
 15537      5300
 15538              	.LASF1091:
 15539 2f3e 696E6974 		.ascii	"init_mode\000"
 15539      5F6D6F64 
 15539      6500
 15540              	.LASF550:
 15541 2f48 46465452 		.ascii	"FFTRUNCATEMW\000"
 15541      554E4341 
 15541      54454D57 
 15541      00
 15542              	.LASF835:
 15543 2f55 4544435F 		.ascii	"EDC_RSP_UNKNOWN_CARD\000"
 15543      5253505F 
 15543      554E4B4E 
 15543      4F574E5F 
 15543      43415244 
 15544              	.LASF105:
 15545 2f6a 4F535F46 		.ascii	"OS_FN_RC4_ENCRYPT\000"
 15545      4E5F5243 
 15545      345F454E 
 15545      43525950 
 15545      5400
 15546              	.LASF715:
 15547 2f7c 41435155 		.ascii	"ACQUIRER_TBL\000"
 15547      49524552 
 15547      5F54424C 
 15547      00
 15548              	.LASF308:
 15549 2f89 4F535F46 		.ascii	"OS_FN_TPAD_CLOSE\000"
 15549      4E5F5450 
 15549      41445F43 
 15549      4C4F5345 
 15549      00
 15550              	.LASF298:
 15551 2f9a 4F535F46 		.ascii	"OS_FN_GPRS_RESET\000"
 15551      4E5F4750 
 15551      52535F52 
 15551      45534554 
 15551      00
 15552              	.LASF488:
 15553 2fab 4F535F46 		.ascii	"OS_FN_GPS_GET_DETAIL_INFO\000"
 15553      4E5F4750 
 15553      535F4745 
ARM GAS  C:\Users\AHMED~1.ELE\AppData\Local\Temp\cckRh1xc.s 			page 342


 15553      545F4445 
 15553      5441494C 
 15554              	.LASF1118:
 15555 2fc5 436C6561 		.ascii	"ClearResponse\000"
 15555      72526573 
 15555      706F6E73 
 15555      6500
 15556              	.LASF151:
 15557 2fd3 4F535F46 		.ascii	"OS_FN_LED_CLOSE\000"
 15557      4E5F4C45 
 15557      445F434C 
 15557      4F534500 
 15558              	.LASF1001:
 15559 2fe3 4F4E4C5F 		.ascii	"ONL_REFUND_SW\000"
 15559      52454655 
 15559      4E445F53 
 15559      5700
 15560              	.LASF108:
 15561 2ff1 4F535F46 		.ascii	"OS_FN_SM2_SET_CURVE\000"
 15561      4E5F534D 
 15561      325F5345 
 15561      545F4355 
 15561      52564500 
 15562              	.LASF791:
 15563 3005 4544435F 		.ascii	"EDC_AJ_TOTAL_PROMPT\000"
 15563      414A5F54 
 15563      4F54414C 
 15563      5F50524F 
 15563      4D505400 
 15564              	.LASF363:
 15565 3019 4F535F46 		.ascii	"OS_FN_USBKBD_OPEN\000"
 15565      4E5F5553 
 15565      424B4244 
 15565      5F4F5045 
 15565      4E00
 15566              	.LASF704:
 15567 302b 73625F70 		.ascii	"sb_pan_range_high\000"
 15567      616E5F72 
 15567      616E6765 
 15567      5F686967 
 15567      6800
 15568              	.LASF845:
 15569 303d 4544435F 		.ascii	"EDC_RSP_ROC_NOT_FOUND\000"
 15569      5253505F 
 15569      524F435F 
 15569      4E4F545F 
 15569      464F554E 
 15570              	.LASF800:
 15571 3053 4544435F 		.ascii	"EDC_AJ_COMPLETED\000"
 15571      414A5F43 
 15571      4F4D504C 
 15571      45544544 
 15571      00
 15572              	.LASF4:
 15573 3064 6C6F6E67 		.ascii	"long int\000"
 15573      20696E74 
 15573      00
ARM GAS  C:\Users\AHMED~1.ELE\AppData\Local\Temp\cckRh1xc.s 			page 343


 15574              	.LASF159:
 15575 306d 4F535F46 		.ascii	"OS_FN_APP_SEARCH_NAME\000"
 15575      4E5F4150 
 15575      505F5345 
 15575      41524348 
 15575      5F4E414D 
 15576              	.LASF307:
 15577 3083 4F535F46 		.ascii	"OS_FN_TPAD_OPEN\000"
 15577      4E5F5450 
 15577      41445F4F 
 15577      50454E00 
 15578              	.LASF765:
 15579 3093 4544435F 		.ascii	"EDC_CN_ADJUST\000"
 15579      434E5F41 
 15579      444A5553 
 15579      5400
 15580              	.LASF934:
 15581 30a1 73625F70 		.ascii	"sb_pan\000"
 15581      616E00
 15582              	.LASF1101:
 15583 30a8 546C7654 		.ascii	"TlvTag\000"
 15583      616700
 15584              	.LASF351:
 15585 30af 4F535F46 		.ascii	"OS_FN_DEVICE_MOUNT\000"
 15585      4E5F4445 
 15585      56494345 
 15585      5F4D4F55 
 15585      4E5400
 15586              	.LASF587:
 15587 30c2 41504D5F 		.ascii	"APM_SETTRACE\000"
 15587      53455454 
 15587      52414345 
 15587      00
 15588              	.LASF657:
 15589 30cf 73625F70 		.ascii	"sb_ppp_pwd\000"
 15589      70705F70 
 15589      776400
 15590              	.LASF601:
 15591 30da 41504D5F 		.ascii	"APM_TRACE_IN_REV\000"
 15591      54524143 
 15591      455F494E 
 15591      5F524556 
 15591      00
 15592              	.LASF676:
 15593 30eb 73625F64 		.ascii	"sb_date_time\000"
 15593      6174655F 
 15593      74696D65 
 15593      00
 15594              	.LASF666:
 15595 30f8 625F6368 		.ascii	"b_checkin_sec_redial\000"
 15595      65636B69 
 15595      6E5F7365 
 15595      635F7265 
 15595      6469616C 
 15596              	.LASF1052:
 15597 310d 54616753 		.ascii	"TagSeek\000"
 15597      65656B00 
ARM GAS  C:\Users\AHMED~1.ELE\AppData\Local\Temp\cckRh1xc.s 			page 344


 15598              	.LASF909:
 15599 3115 454D565F 		.ascii	"EMV_FUNC_COUNT\000"
 15599      46554E43 
 15599      5F434F55 
 15599      4E5400
 15600              	.LASF145:
 15601 3124 4F535F46 		.ascii	"OS_FN_THREAD_RETURN\000"
 15601      4E5F5448 
 15601      52454144 
 15601      5F524554 
 15601      55524E00 
 15602              	.LASF1078:
 15603 3138 454D5641 		.ascii	"EMVAccepted\000"
 15603      63636570 
 15603      74656400 
 15604              	.LASF216:
 15605 3144 4F535F46 		.ascii	"OS_FN_MMC_SIZE\000"
 15605      4E5F4D4D 
 15605      435F5349 
 15605      5A4500
 15606              	.LASF681:
 15607 3153 73625F6E 		.ascii	"sb_name_loc\000"
 15607      616D655F 
 15607      6C6F6300 
 15608              	.LASF1068:
 15609 315f 61446174 		.ascii	"aDat\000"
 15609      00
 15610              	.LASF436:
 15611 3164 4F535F46 		.ascii	"OS_FN_OFF\000"
 15611      4E5F4F46 
 15611      4600
 15612              	.LASF725:
 15613 316e 625F7072 		.ascii	"b_pri_settle_conn_time\000"
 15613      695F7365 
 15613      74746C65 
 15613      5F636F6E 
 15613      6E5F7469 
 15614              	.LASF524:
 15615 3185 4445534D 		.ascii	"DESMW\000"
 15615      5700
 15616              	.LASF403:
 15617 318b 4F535F46 		.ascii	"OS_FN_WIFI_SEND_COMMAND\000"
 15617      4E5F5749 
 15617      46495F53 
 15617      454E445F 
 15617      434F4D4D 
 15618              	.LASF813:
 15619 31a3 4544435F 		.ascii	"EDC_FN_REPRINT_BATCH\000"
 15619      464E5F52 
 15619      45505249 
 15619      4E545F42 
 15619      41544348 
 15620              	.LASF53:
 15621 31b8 4F535F46 		.ascii	"OS_FN_DISP_ICON_PUTC\000"
 15621      4E5F4449 
 15621      53505F49 
 15621      434F4E5F 
ARM GAS  C:\Users\AHMED~1.ELE\AppData\Local\Temp\cckRh1xc.s 			page 345


 15621      50555443 
 15622              	.LASF900:
 15623 31cd 4544435F 		.ascii	"EDC_MSG_END\000"
 15623      4D53475F 
 15623      454E4400 
 15624              	.LASF193:
 15625 31d9 4F535F46 		.ascii	"OS_FN_FILE_FTRUNCATE\000"
 15625      4E5F4649 
 15625      4C455F46 
 15625      5452554E 
 15625      43415445 
 15626              	.LASF386:
 15627 31ee 4F535F46 		.ascii	"OS_FN_MIF_RESTORE\000"
 15627      4E5F4D49 
 15627      465F5245 
 15627      53544F52 
 15627      4500
 15628              	.LASF606:
 15629 3200 41504D5F 		.ascii	"APM_PWRSLEEP\000"
 15629      50575253 
 15629      4C454550 
 15629      00
 15630              	.LASF47:
 15631 320d 4F535F46 		.ascii	"OS_FN_DISP_GET_LCD_BUFFER\000"
 15631      4E5F4449 
 15631      53505F47 
 15631      45545F4C 
 15631      43445F42 
 15632              	.LASF467:
 15633 3227 4F535F46 		.ascii	"OS_FN_WIFI_SOCKET_GET_STATE\000"
 15633      4E5F5749 
 15633      46495F53 
 15633      4F434B45 
 15633      545F4745 
 15634              	.LASF111:
 15635 3243 4F535F46 		.ascii	"OS_FN_SM2_VERIFY_SIGNATURE\000"
 15635      4E5F534D 
 15635      325F5645 
 15635      52494659 
 15635      5F534947 
 15636              	.LASF780:
 15637 325e 4544435F 		.ascii	"EDC_IN_EXPIRY_DATE\000"
 15637      494E5F45 
 15637      58504952 
 15637      595F4441 
 15637      544500
 15638              	.LASF262:
 15639 3271 4F535F46 		.ascii	"OS_FN_FL_COPYB_PGM\000"
 15639      4E5F464C 
 15639      5F434F50 
 15639      59425F50 
 15639      474D00
 15640              	.LASF9:
 15641 3284 73697A65 		.ascii	"sizetype\000"
 15641      74797065 
 15641      00
 15642              	.LASF743:
ARM GAS  C:\Users\AHMED~1.ELE\AppData\Local\Temp\cckRh1xc.s 			page 346


 15643 328d 44455343 		.ascii	"DESC_TBL\000"
 15643      5F54424C 
 15643      00
 15644              	.LASF297:
 15645 3296 4F535F46 		.ascii	"OS_FN_GPRS_READ\000"
 15645      4E5F4750 
 15645      52535F52 
 15645      45414400 
 15646              	.LASF1160:
 15647 32a6 7372632F 		.ascii	"src/emvtrans.c\000"
 15647      656D7674 
 15647      72616E73 
 15647      2E6300
 15648              	.LASF353:
 15649 32b5 4F535F46 		.ascii	"OS_FN_INTERRUPT_REGISTER\000"
 15649      4E5F494E 
 15649      54455252 
 15649      5550545F 
 15649      52454749 
 15650              	.LASF408:
 15651 32ce 4F535F46 		.ascii	"OS_FN_NFC_OPEN_FELICA\000"
 15651      4E5F4E46 
 15651      435F4F50 
 15651      454E5F46 
 15651      454C4943 
 15652              	.LASF1060:
 15653 32e4 454D5649 		.ascii	"EMVInput\000"
 15653      6E707574 
 15653      00
 15654              	.LASF306:
 15655 32ed 4F535F46 		.ascii	"OS_FN_GPRS_SMS_READ\000"
 15655      4E5F4750 
 15655      52535F53 
 15655      4D535F52 
 15655      45414400 
 15656              	.LASF793:
 15657 3301 4544435F 		.ascii	"EDC_AJ_ENTER_NAMT\000"
 15657      414A5F45 
 15657      4E544552 
 15657      5F4E414D 
 15657      5400
 15658              	.LASF228:
 15659 3313 4F535F46 		.ascii	"OS_FN_LAN_CLOSE\000"
 15659      4E5F4C41 
 15659      4E5F434C 
 15659      4F534500 
 15660              	.LASF445:
 15661 3323 4F535F46 		.ascii	"OS_FN_DTIMER_LATCH_START\000"
 15661      4E5F4454 
 15661      494D4552 
 15661      5F4C4154 
 15661      43485F53 
 15662              	.LASF1073:
 15663 333c 636F6465 		.ascii	"code\000"
 15663      00
 15664              	.LASF253:
 15665 3341 4F535F46 		.ascii	"OS_FN_FL_PAGE_READ\000"
ARM GAS  C:\Users\AHMED~1.ELE\AppData\Local\Temp\cckRh1xc.s 			page 347


 15665      4E5F464C 
 15665      5F504147 
 15665      455F5245 
 15665      414400
 15666              	.LASF642:
 15667 3354 73625F65 		.ascii	"sb_emvapp_chksum\000"
 15667      6D766170 
 15667      705F6368 
 15667      6B73756D 
 15667      00
 15668              	.LASF918:
 15669 3365 45435244 		.ascii	"ECRDATA\000"
 15669      41544100 
 15670              	.LASF740:
 15671 336d 625F7373 		.ascii	"b_ssl_key_idx\000"
 15671      6C5F6B65 
 15671      795F6964 
 15671      7800
 15672              	.LASF883:
 15673 337b 4544435F 		.ascii	"EDC_SE_NO_BATCH\000"
 15673      53455F4E 
 15673      4F5F4241 
 15673      54434800 
 15674              	.LASF169:
 15675 338b 4F535F46 		.ascii	"OS_FN_FILE_CLOSE\000"
 15675      4E5F4649 
 15675      4C455F43 
 15675      4C4F5345 
 15675      00
 15676              	.LASF689:
 15677 339c 625F6C6F 		.ascii	"b_local_option\000"
 15677      63616C5F 
 15677      6F707469 
 15677      6F6E00
 15678              	.LASF840:
 15679 33ab 4544435F 		.ascii	"EDC_RSP_PIN_ERROR\000"
 15679      5253505F 
 15679      50494E5F 
 15679      4552524F 
 15679      5200
 15680              	.LASF682:
 15681 33bd 73625F64 		.ascii	"sb_dflt_name\000"
 15681      666C745F 
 15681      6E616D65 
 15681      00
 15682              	.LASF1046:
 15683 33ca 70624D61 		.ascii	"pbMark\000"
 15683      726B00
 15684              	.LASF1080:
 15685 33d1 7461675F 		.ascii	"tag_ptr\000"
 15685      70747200 
 15686              	.LASF143:
 15687 33d9 4F535F46 		.ascii	"OS_FN_THREAD_PUSH\000"
 15687      4E5F5448 
 15687      52454144 
 15687      5F505553 
 15687      4800
ARM GAS  C:\Users\AHMED~1.ELE\AppData\Local\Temp\cckRh1xc.s 			page 348


 15688              	.LASF1163:
 15689 33eb 454D5643 		.ascii	"EMVCancel\000"
 15689      616E6365 
 15689      6C00
 15690              	.LASF1159:
 15691 33f5 474E5520 		.ascii	"GNU C 4.9.3 20141119 (release) [ARM/embedded-4_9-br"
 15691      4320342E 
 15691      392E3320 
 15691      32303134 
 15691      31313139 
 15692 3428 616E6368 		.ascii	"anch revision 218278] -mthumb -mcpu=cortex-a5 -mthu"
 15692      20726576 
 15692      6973696F 
 15692      6E203231 
 15692      38323738 
 15693 345b 6D622D69 		.ascii	"mb-interwork -mstructure-size-boundary=32 -mno-unal"
 15693      6E746572 
 15693      776F726B 
 15693      202D6D73 
 15693      74727563 
 15694 348e 69676E65 		.ascii	"igned-access -g -Os -ffunction-sections -fsigned-ch"
 15694      642D6163 
 15694      63657373 
 15694      202D6720 
 15694      2D4F7320 
 15695 34c1 617200   		.ascii	"ar\000"
 15696              	.LASF457:
 15697 34c4 4F535F46 		.ascii	"OS_FN_ECC_SCALAR_MULTIPLY\000"
 15697      4E5F4543 
 15697      435F5343 
 15697      414C4152 
 15697      5F4D554C 
 15698              	.LASF390:
 15699 34de 4F535F46 		.ascii	"OS_FN_MIF_SENDCMD\000"
 15699      4E5F4D49 
 15699      465F5345 
 15699      4E44434D 
 15699      4400
 15700              	.LASF968:
 15701 34f0 735F6465 		.ascii	"s_desc_tbl\000"
 15701      73635F74 
 15701      626C00
 15702              	.LASF476:
 15703 34fb 4F535F46 		.ascii	"OS_FN_IMG_SENSOR_CLOSE\000"
 15703      4E5F494D 
 15703      475F5345 
 15703      4E534F52 
 15703      5F434C4F 
 15704              	.LASF235:
 15705 3512 4F535F46 		.ascii	"OS_FN_MSR_CLOSE\000"
 15705      4E5F4D53 
 15705      525F434C 
 15705      4F534500 
 15706              	.LASF423:
 15707 3522 4F535F46 		.ascii	"OS_FN_GPS_RESET\000"
 15707      4E5F4750 
 15707      535F5245 
ARM GAS  C:\Users\AHMED~1.ELE\AppData\Local\Temp\cckRh1xc.s 			page 349


 15707      53455400 
 15708              	.LASF263:
 15709 3532 4F535F46 		.ascii	"OS_FN_FL_COPYB_END\000"
 15709      4E5F464C 
 15709      5F434F50 
 15709      59425F45 
 15709      4E4400
 15710              	.LASF165:
 15711 3545 4F535F46 		.ascii	"OS_FN_FREE\000"
 15711      4E5F4652 
 15711      454500
 15712              	.LASF965:
 15713 3550 735F414C 		.ascii	"s_ALL\000"
 15713      4C00
 15714              	.LASF986:
 15715 3556 735F5278 		.ascii	"s_RxMsg\000"
 15715      4D736700 
 15716              	.LASF578:
 15717 355e 41504D5F 		.ascii	"APM_GETLOGOTBL\000"
 15717      4745544C 
 15717      4F474F54 
 15717      424C00
 15718              	.LASF469:
 15719 356d 4F535F46 		.ascii	"OS_FN_WIFI_SOCKET_SEND_UDP\000"
 15719      4E5F5749 
 15719      46495F53 
 15719      4F434B45 
 15719      545F5345 
 15720              	.LASF367:
 15721 3588 4F535F46 		.ascii	"OS_FN_TAMPER_ON\000"
 15721      4E5F5441 
 15721      4D504552 
 15721      5F4F4E00 
 15722              	.LASF585:
 15723 3598 41504D5F 		.ascii	"APM_SELACQUIRER\000"
 15723      53454C41 
 15723      43515549 
 15723      52455200 
 15724              	.LASF641:
 15725 35a8 73625F65 		.ascii	"sb_edc_size\000"
 15725      64635F73 
 15725      697A6500 
 15726              	.LASF212:
 15727 35b4 4F535F46 		.ascii	"OS_FN_SAM_CHANGE\000"
 15727      4E5F5341 
 15727      4D5F4348 
 15727      414E4745 
 15727      00
 15728              	.LASF898:
 15729 35c5 4544435F 		.ascii	"EDC_CTL_CARD_READ_OK\000"
 15729      43544C5F 
 15729      43415244 
 15729      5F524541 
 15729      445F4F4B 
 15730              	.LASF271:
 15731 35da 4F535F46 		.ascii	"OS_FN_MDM_DISC\000"
 15731      4E5F4D44 
ARM GAS  C:\Users\AHMED~1.ELE\AppData\Local\Temp\cckRh1xc.s 			page 350


 15731      4D5F4449 
 15731      534300
 15732              	.LASF535:
 15733 35e9 44495350 		.ascii	"DISP_GOTOMW\000"
 15733      5F474F54 
 15733      4F4D5700 
 15734              	.LASF522:
 15735 35f5 4B424453 		.ascii	"KBDSCODEMW\000"
 15735      434F4445 
 15735      4D5700
 15736              	.LASF758:
 15737 3600 4544435F 		.ascii	"EDC_CO_PROCESSING\000"
 15737      434F5F50 
 15737      524F4345 
 15737      5353494E 
 15737      4700
 15738              	.LASF889:
 15739 3612 4544435F 		.ascii	"EDC_EMV_FATAL\000"
 15739      454D565F 
 15739      46415441 
 15739      4C00
 15740              	.LASF59:
 15741 3620 4F535F46 		.ascii	"OS_FN_COM1_RXRDY\000"
 15741      4E5F434F 
 15741      4D315F52 
 15741      58524459 
 15741      00
 15742              	.LASF529:
 15743 3631 5343484E 		.ascii	"SCHNLGETPINMW\000"
 15743      4C474554 
 15743      50494E4D 
 15743      5700
 15744              	.LASF238:
 15745 363f 4F535F46 		.ascii	"OS_FN_MSR_READ\000"
 15745      4E5F4D53 
 15745      525F5245 
 15745      414400
 15746              	.LASF624:
 15747 364e 73625F70 		.ascii	"sb_pabx\000"
 15747      61627800 
 15748              	.LASF852:
 15749 3656 4544435F 		.ascii	"EDC_RSP_BATCH_XFER\000"
 15749      5253505F 
 15749      42415443 
 15749      485F5846 
 15749      455200
 15750              	.LASF516:
 15751 3669 46524541 		.ascii	"FREADMW\000"
 15751      444D5700 
 15752              	.LASF1032:
 15753 3671 625F6F72 		.ascii	"b_org_trans\000"
 15753      675F7472 
 15753      616E7300 
 15754              	.LASF673:
 15755 367d 625F696E 		.ascii	"b_init_control\000"
 15755      69745F63 
 15755      6F6E7472 
ARM GAS  C:\Users\AHMED~1.ELE\AppData\Local\Temp\cckRh1xc.s 			page 351


 15755      6F6C00
 15756              	.LASF387:
 15757 368c 4F535F46 		.ascii	"OS_FN_MIF_TRANSFER\000"
 15757      4E5F4D49 
 15757      465F5452 
 15757      414E5346 
 15757      455200
 15758              	.LASF1072:
 15759 369f 47657454 		.ascii	"GetTxnCode\000"
 15759      786E436F 
 15759      646500
 15760              	.LASF745:
 15761 36aa 73625F68 		.ascii	"sb_host_tx_code\000"
 15761      6F73745F 
 15761      74785F63 
 15761      6F646500 
 15762              	.LASF571:
 15763 36ba 41504D5F 		.ascii	"APM_GETISSUERCOUNT\000"
 15763      47455449 
 15763      53535545 
 15763      52434F55 
 15763      4E5400
 15764              	.LASF598:
 15765 36cd 41504D5F 		.ascii	"APM_SAVE_BAT_REC\000"
 15765      53415645 
 15765      5F424154 
 15765      5F524543 
 15765      00
 15766              	.LASF498:
 15767 36de 4D575F54 		.ascii	"MW_TRK2BUF\000"
 15767      524B3242 
 15767      554600
 15768              	.LASF343:
 15769 36e9 4F535F46 		.ascii	"OS_FN_DEVICE_ALLOC\000"
 15769      4E5F4445 
 15769      56494345 
 15769      5F414C4C 
 15769      4F4300
 15770              	.LASF148:
 15771 36fc 4F535F46 		.ascii	"OS_FN_BUFMAN_REALLOC\000"
 15771      4E5F4255 
 15771      464D414E 
 15771      5F524541 
 15771      4C4C4F43 
 15772              	.LASF413:
 15773 3711 4F535F46 		.ascii	"OS_FN_NFC_INFO_GET\000"
 15773      4E5F4E46 
 15773      435F494E 
 15773      464F5F47 
 15773      455400
 15774              	.LASF71:
 15775 3724 4F535F46 		.ascii	"OS_FN_COM2_SEND\000"
 15775      4E5F434F 
 15775      4D325F53 
 15775      454E4400 
 15776              	.LASF914:
 15777 3734 70624C6F 		.ascii	"pbLoc\000"
ARM GAS  C:\Users\AHMED~1.ELE\AppData\Local\Temp\cckRh1xc.s 			page 352


 15777      6300
 15778              	.LASF1058:
 15779 373a 6B657969 		.ascii	"keyin\000"
 15779      6E00
 15780              	.LASF911:
 15781 3740 73494F5F 		.ascii	"sIO_t\000"
 15781      7400
 15782              	.LASF317:
 15783 3746 4F535F46 		.ascii	"OS_FN_CODEC_PLAY\000"
 15783      4E5F434F 
 15783      4445435F 
 15783      504C4159 
 15783      00
 15784              	.LASF231:
 15785 3757 4F535F46 		.ascii	"OS_FN_LAN_READ\000"
 15785      4E5F4C41 
 15785      4E5F5245 
 15785      414400
 15786              	.LASF370:
 15787 3766 4F535F46 		.ascii	"OS_FN_MIF_OPEN\000"
 15787      4E5F4D49 
 15787      465F4F50 
 15787      454E00
 15788              	.LASF1050:
 15789 3775 61427566 		.ascii	"aBuf\000"
 15789      00
 15790              	.LASF130:
 15791 377a 4F535F46 		.ascii	"OS_FN_KEY_SAVE_NC\000"
 15791      4E5F4B45 
 15791      595F5341 
 15791      56455F4E 
 15791      4300
 15792              	.LASF474:
 15793 378c 4F535F46 		.ascii	"OS_FN_IMG_SENSOR_GET_FRAME\000"
 15793      4E5F494D 
 15793      475F5345 
 15793      4E534F52 
 15793      5F474554 
 15794              	.LASF1114:
 15795 37a7 73706C69 		.ascii	"split\000"
 15795      7400
 15796              	.LASF350:
 15797 37ad 4F535F46 		.ascii	"OS_FN_DEVICE_OPEN\000"
 15797      4E5F4445 
 15797      56494345 
 15797      5F4F5045 
 15797      4E00
 15798              	.LASF663:
 15799 37bf 625F6368 		.ascii	"b_checkin_pri_redial\000"
 15799      65636B69 
 15799      6E5F7072 
 15799      695F7265 
 15799      6469616C 
 15800              	.LASF1138:
 15801 37d4 47657450 		.ascii	"GetPIN\000"
 15801      494E00
 15802              	.LASF178:
ARM GAS  C:\Users\AHMED~1.ELE\AppData\Local\Temp\cckRh1xc.s 			page 353


 15803 37db 4F535F46 		.ascii	"OS_FN_FILE_GETC\000"
 15803      4E5F4649 
 15803      4C455F47 
 15803      45544300 
 15804              	.LASF801:
 15805 37eb 4544435F 		.ascii	"EDC_VD_VOIDED\000"
 15805      56445F56 
 15805      4F494445 
 15805      4400
 15806              	.LASF1166:
 15807 37f9 5472616E 		.ascii	"TransEnd\000"
 15807      73456E64 
 15807      00
 15808              	.LASF557:
 15809 3802 41504D5F 		.ascii	"APM_YESNO\000"
 15809      5945534E 
 15809      4F00
 15810              	.LASF942:
 15811 380c 73625F68 		.ascii	"sb_holder_name\000"
 15811      6F6C6465 
 15811      725F6E61 
 15811      6D6500
 15812              	.LASF0:
 15813 381b 7369676E 		.ascii	"signed char\000"
 15813      65642063 
 15813      68617200 
 15814              	.LASF766:
 15815 3827 4544435F 		.ascii	"EDC_CN_UPLOAD\000"
 15815      434E5F55 
 15815      504C4F41 
 15815      4400
 15816              	.LASF937:
 15817 3835 64645F61 		.ascii	"dd_amount\000"
 15817      6D6F756E 
 15817      7400
 15818              	.LASF1037:
 15819 383f 5452414E 		.ascii	"TRANS_DATA\000"
 15819      535F4441 
 15819      544100
 15820              	.LASF649:
 15821 384a 73625F78 		.ascii	"sb_xapp_date\000"
 15821      6170705F 
 15821      64617465 
 15821      00
 15822              	.LASF542:
 15823 3857 42535F43 		.ascii	"BS_CALL_MW\000"
 15823      414C4C5F 
 15823      4D5700
 15824              	.LASF515:
 15825 3862 46534545 		.ascii	"FSEEKMW\000"
 15825      4B4D5700 
 15826              	.LASF366:
 15827 386a 4F535F46 		.ascii	"OS_FN_USBKBD_GETKEY\000"
 15827      4E5F5553 
 15827      424B4244 
 15827      5F474554 
 15827      4B455900 
ARM GAS  C:\Users\AHMED~1.ELE\AppData\Local\Temp\cckRh1xc.s 			page 354


 15828              	.LASF769:
 15829 387e 4544435F 		.ascii	"EDC_CN_TEST_MSG\000"
 15829      434E5F54 
 15829      4553545F 
 15829      4D534700 
 15830              	.LASF810:
 15831 388e 4544435F 		.ascii	"EDC_FN_CLR_REV\000"
 15831      464E5F43 
 15831      4C525F52 
 15831      455600
 15832              	.LASF1021:
 15833 389d 4D41585F 		.ascii	"MAX_TXN_TYPE\000"
 15833      54584E5F 
 15833      54595045 
 15833      00
 15834              	.LASF525:
 15835 38aa 44455332 		.ascii	"DES2MW\000"
 15835      4D5700
 15836              	.LASF1063:
 15837 38b1 70746167 		.ascii	"ptag\000"
 15837      00
 15838              	.LASF1000:
 15839 38b6 53414C45 		.ascii	"SALE_MANUAL\000"
 15839      5F4D414E 
 15839      55414C00 
 15840              	.LASF687:
 15841 38c2 625F7365 		.ascii	"b_settle_amount_len\000"
 15841      74746C65 
 15841      5F616D6F 
 15841      756E745F 
 15841      6C656E00 
 15842              	.LASF161:
 15843 38d6 4F535F46 		.ascii	"OS_FN_APP_CLR_VIRGIN\000"
 15843      4E5F4150 
 15843      505F434C 
 15843      525F5649 
 15843      5247494E 
 15844              	.LASF1027:
 15845 38eb 775F6361 		.ascii	"w_card_idx\000"
 15845      72645F69 
 15845      647800
 15846              	.LASF707:
 15847 38f6 625F7061 		.ascii	"b_pan_len\000"
 15847      6E5F6C65 
 15847      6E00
 15848              	.LASF1070:
 15849 3900 61537461 		.ascii	"aState\000"
 15849      746500
 15850              	.LASF989:
 15851 3907 735F454D 		.ascii	"s_EMVOut\000"
 15851      564F7574 
 15851      00
 15852              	.LASF846:
 15853 3910 4544435F 		.ascii	"EDC_RSP_BAD_BATCH_NO\000"
 15853      5253505F 
 15853      4241445F 
 15853      42415443 
ARM GAS  C:\Users\AHMED~1.ELE\AppData\Local\Temp\cckRh1xc.s 			page 355


 15853      485F4E4F 
 15854              	.LASF1133:
 15855 3925 496E6354 		.ascii	"IncTraceNo\000"
 15855      72616365 
 15855      4E6F00
 15856              	.LASF1122:
 15857 3930 4C707450 		.ascii	"LptPutN\000"
 15857      75744E00 
 15858              	.LASF1120:
 15859 3938 4C707450 		.ascii	"LptPutS\000"
 15859      75745300 
 15860              	.LASF284:
 15861 3940 4F535F46 		.ascii	"OS_FN_MCOM_SEND\000"
 15861      4E5F4D43 
 15861      4F4D5F53 
 15861      454E4400 
 15862              	.LASF267:
 15863 3950 4F535F46 		.ascii	"OS_FN_FL_COPYBACK\000"
 15863      4E5F464C 
 15863      5F434F50 
 15863      59424143 
 15863      4B00
 15864              	.LASF878:
 15865 3962 4544435F 		.ascii	"EDC_RSP_UNSUPPORT_CARD\000"
 15865      5253505F 
 15865      554E5355 
 15865      50504F52 
 15865      545F4341 
 15866              	.LASF254:
 15867 3979 4F535F46 		.ascii	"OS_FN_FL_PAGE\000"
 15867      4E5F464C 
 15867      5F504147 
 15867      4500
 15868              	.LASF42:
 15869 3987 4F535F46 		.ascii	"OS_FN_DISP_GETG\000"
 15869      4E5F4449 
 15869      53505F47 
 15869      45544700 
 15870              	.LASF45:
 15871 3997 4F535F46 		.ascii	"OS_FN_DISP_GETP\000"
 15871      4E5F4449 
 15871      53505F47 
 15871      45545000 
 15872              	.LASF655:
 15873 39a7 73625F66 		.ascii	"sb_ftp_pwd\000"
 15873      74705F70 
 15873      776400
 15874              	.LASF352:
 15875 39b2 4F535F46 		.ascii	"OS_FN_DEVICE_UNMOUNT\000"
 15875      4E5F4445 
 15875      56494345 
 15875      5F554E4D 
 15875      4F554E54 
 15876              	.LASF956:
 15877 39c7 544F5441 		.ascii	"TOTAL\000"
 15877      4C00
 15878              	.LASF1165:
ARM GAS  C:\Users\AHMED~1.ELE\AppData\Local\Temp\cckRh1xc.s 			page 356


 15879 39cd 656D7650 		.ascii	"emvPIN\000"
 15879      494E00
 15880              	.LASF1025:
 15881 39d4 735F7472 		.ascii	"s_trk1buf\000"
 15881      6B316275 
 15881      6600
 15882              	.LASF1064:
 15883 39de 454D5643 		.ascii	"EMVChoice\000"
 15883      686F6963 
 15883      6500
 15884              	.LASF341:
 15885 39e8 4F535F46 		.ascii	"OS_FN_DRIVER_REGISTER\000"
 15885      4E5F4452 
 15885      49564552 
 15885      5F524547 
 15885      49535445 
 15886              	.LASF856:
 15887 39fe 4544435F 		.ascii	"EDC_RSP_CTL_TOI\000"
 15887      5253505F 
 15887      43544C5F 
 15887      544F4900 
 15888              	.LASF1139:
 15889 3a0e 5061636B 		.ascii	"PackComm\000"
 15889      436F6D6D 
 15889      00
 15890              	.LASF726:
 15891 3a17 625F7072 		.ascii	"b_pri_settle_redial\000"
 15891      695F7365 
 15891      74746C65 
 15891      5F726564 
 15891      69616C00 
 15892              	.LASF418:
 15893 3a2b 4F535F46 		.ascii	"OS_FN_GPS_OFF\000"
 15893      4E5F4750 
 15893      535F4F46 
 15893      4600
 15894              	.LASF1069:
 15895 3a39 64656275 		.ascii	"debugEMV2\000"
 15895      67454D56 
 15895      3200
 15896              	.LASF480:
 15897 3a43 4F535F46 		.ascii	"OS_FN_IMG_SENSOR_LED_OPEN\000"
 15897      4E5F494D 
 15897      475F5345 
 15897      4E534F52 
 15897      5F4C4544 
 15898              	.LASF547:
 15899 3a5d 534D535F 		.ascii	"SMS_CLEAR_ALL_MW\000"
 15899      434C4541 
 15899      525F414C 
 15899      4C5F4D57 
 15899      00
 15900              	.LASF870:
 15901 3a6e 4544435F 		.ascii	"EDC_RSP_SWIPE_CARD\000"
 15901      5253505F 
 15901      53574950 
 15901      455F4341 
ARM GAS  C:\Users\AHMED~1.ELE\AppData\Local\Temp\cckRh1xc.s 			page 357


 15901      524400
 15902              	.LASF521:
 15903 3a81 47455443 		.ascii	"GETCHARMW\000"
 15903      4841524D 
 15903      5700
 15904              	.LASF13:
 15905 3a8b 42595445 		.ascii	"BYTE\000"
 15905      00
 15906              	.LASF1152:
 15907 3a90 41757468 		.ascii	"AuthBlocked\000"
 15907      426C6F63 
 15907      6B656400 
 15908              	.LASF385:
 15909 3a9c 4F535F46 		.ascii	"OS_FN_MIF_DEC\000"
 15909      4E5F4D49 
 15909      465F4445 
 15909      4300
 15910              	.LASF299:
 15911 3aaa 4F535F46 		.ascii	"OS_FN_GPRS_CONTROL\000"
 15911      4E5F4750 
 15911      52535F43 
 15911      4F4E5452 
 15911      4F4C00
 15912              	.LASF410:
 15913 3abd 4F535F46 		.ascii	"OS_FN_NFC_CANCEL\000"
 15913      4E5F4E46 
 15913      435F4341 
 15913      4E43454C 
 15913      00
 15914              	.LASF1023:
 15915 3ace 494E5055 		.ascii	"INPUT_DATA\000"
 15915      545F4441 
 15915      544100
 15916              	.LASF401:
 15917 3ad9 4F535F46 		.ascii	"OS_FN_BARCODE_ENABLED\000"
 15917      4E5F4241 
 15917      52434F44 
 15917      455F454E 
 15917      41424C45 
 15918              	.LASF7:
 15919 3aef 6C6F6E67 		.ascii	"long long unsigned int\000"
 15919      206C6F6E 
 15919      6720756E 
 15919      7369676E 
 15919      65642069 
 15920              	.LASF996:
 15921 3b06 695F6563 		.ascii	"i_ecr_len\000"
 15921      725F6C65 
 15921      6E00
 15922              	.LASF954:
 15923 3b10 625F7479 		.ascii	"b_type\000"
 15923      706500
 15924              	.LASF583:
 15925 3b17 41504D5F 		.ascii	"APM_GETBATCH\000"
 15925      47455442 
 15925      41544348 
 15925      00
ARM GAS  C:\Users\AHMED~1.ELE\AppData\Local\Temp\cckRh1xc.s 			page 358


 15926              	.LASF832:
 15927 3b24 4544435F 		.ascii	"EDC_RSP_RETRY\000"
 15927      5253505F 
 15927      52455452 
 15927      5900
 15928              	.LASF322:
 15929 3b32 4F535F46 		.ascii	"OS_FN_CLICC_POLL\000"
 15929      4E5F434C 
 15929      4943435F 
 15929      504F4C4C 
 15929      00
 15930              	.LASF272:
 15931 3b43 4F535F46 		.ascii	"OS_FN_MDM_CID\000"
 15931      4E5F4D44 
 15931      4D5F4349 
 15931      4400
 15932              	.LASF1055:
 15933 3b51 5061636B 		.ascii	"PackTagsData\000"
 15933      54616773 
 15933      44617461 
 15933      00
 15934              	.LASF538:
 15935 3b5e 44495350 		.ascii	"DISP_GETGMW\000"
 15935      5F474554 
 15935      474D5700 
 15936              	.LASF422:
 15937 3b6a 4F535F46 		.ascii	"OS_FN_GPS_RESP\000"
 15937      4E5F4750 
 15937      535F5245 
 15937      535000
 15938              	.LASF378:
 15939 3b79 4F535F46 		.ascii	"OS_FN_MIF_SELECT\000"
 15939      4E5F4D49 
 15939      465F5345 
 15939      4C454354 
 15939      00
 15940              	.LASF380:
 15941 3b8a 4F535F46 		.ascii	"OS_FN_MIF_AUTH1\000"
 15941      4E5F4D49 
 15941      465F4155 
 15941      54483100 
 15942              	.LASF56:
 15943 3b9a 4F535F46 		.ascii	"OS_FN_DISP_OVERLAY\000"
 15943      4E5F4449 
 15943      53505F4F 
 15943      5645524C 
 15943      415900
 15944              	.LASF790:
 15945 3bad 4544435F 		.ascii	"EDC_TU_CLOSE_BATCH\000"
 15945      54555F43 
 15945      4C4F5345 
 15945      5F424154 
 15945      434800
 15946              	.LASF140:
 15947 3bc0 4F535F46 		.ascii	"OS_FN_THREAD_DELETE\000"
 15947      4E5F5448 
 15947      52454144 
ARM GAS  C:\Users\AHMED~1.ELE\AppData\Local\Temp\cckRh1xc.s 			page 359


 15947      5F44454C 
 15947      45544500 
 15948              	.LASF368:
 15949 3bd4 4F535F46 		.ascii	"OS_FN_TAMPER_GET_STATUS\000"
 15949      4E5F5441 
 15949      4D504552 
 15949      5F474554 
 15949      5F535441 
 15950              	.LASF1098:
 15951 3bec 4B50696E 		.ascii	"KPinMsg\000"
 15951      4D736700 
 15952              	.LASF617:
 15953 3bf4 625F7072 		.ascii	"b_pri_conn_time\000"
 15953      695F636F 
 15953      6E6E5F74 
 15953      696D6500 
 15954              	.LASF943:
 15955 3c04 73625F65 		.ascii	"sb_ecr_ref\000"
 15955      63725F72 
 15955      656600
 15956              	.LASF198:
 15957 3c0f 4F535F46 		.ascii	"OS_FN_FILE_GET_LONGNAME\000"
 15957      4E5F4649 
 15957      4C455F47 
 15957      45545F4C 
 15957      4F4E474E 
 15958              	.LASF643:
 15959 3c27 73625F65 		.ascii	"sb_emvapp_date\000"
 15959      6D766170 
 15959      705F6461 
 15959      746500
 15960              	.LASF716:
 15961 3c36 73625F70 		.ascii	"sb_program\000"
 15961      726F6772 
 15961      616D00
 15962              	.LASF181:
 15963 3c41 4F535F46 		.ascii	"OS_FN_FILE_SEARCH\000"
 15963      4E5F4649 
 15963      4C455F53 
 15963      45415243 
 15963      4800
 15964              	.LASF929:
 15965 3c53 73625F6D 		.ascii	"sb_misc_content\000"
 15965      6973635F 
 15965      636F6E74 
 15965      656E7400 
 15966              	.LASF1042:
 15967 3c63 624C656E 		.ascii	"bLen\000"
 15967      00
 15968              	.LASF839:
 15969 3c68 4544435F 		.ascii	"EDC_RSP_CARD_EXPIRED\000"
 15969      5253505F 
 15969      43415244 
 15969      5F455850 
 15969      49524544 
 15970              	.LASF1056:
 15971 3c7d 61546167 		.ascii	"aTags\000"
ARM GAS  C:\Users\AHMED~1.ELE\AppData\Local\Temp\cckRh1xc.s 			page 360


 15971      7300
 15972              	.LASF747:
 15973 3c83 44415445 		.ascii	"DATETIME\000"
 15973      54494D45 
 15973      00
 15974              	.LASF554:
 15975 3c8c 41504D5F 		.ascii	"APM_CLRKEY\000"
 15975      434C524B 
 15975      455900
 15976              	.LASF611:
 15977 3c97 5445524D 		.ascii	"TERM_DATA\000"
 15977      5F444154 
 15977      4100
 15978              	.LASF219:
 15979 3ca1 4F535F46 		.ascii	"OS_FN_MMC_BLK_WRITE\000"
 15979      4E5F4D4D 
 15979      435F424C 
 15979      4B5F5752 
 15979      49544500 
 15980              	.LASF876:
 15981 3cb5 4544435F 		.ascii	"EDC_RSP_TRY_AGAING_TO\000"
 15981      5253505F 
 15981      5452595F 
 15981      41474149 
 15981      4E475F54 
 15982              	.LASF830:
 15983 3ccb 4544435F 		.ascii	"EDC_RSP_BAD_AMOUNT\000"
 15983      5253505F 
 15983      4241445F 
 15983      414D4F55 
 15983      4E5400
 15984              	.LASF690:
 15985 3cde 73625F61 		.ascii	"sb_additional_prompt\000"
 15985      64646974 
 15985      696F6E61 
 15985      6C5F7072 
 15985      6F6D7074 
 15986              	.LASF176:
 15987 3cf3 4F535F46 		.ascii	"OS_FN_FILE_WRITE\000"
 15987      4E5F4649 
 15987      4C455F57 
 15987      52495445 
 15987      00
 15988              	.LASF1054:
 15989 3d04 54616744 		.ascii	"TagData\000"
 15989      61746100 
 15990              	.LASF66:
 15991 3d0c 4F535F46 		.ascii	"OS_FN_COM2_OPEN\000"
 15991      4E5F434F 
 15991      4D325F4F 
 15991      50454E00 
 15992              	.LASF572:
 15993 3d1c 41504D5F 		.ascii	"APM_GETISSUER\000"
 15993      47455449 
 15993      53535545 
 15993      5200
 15994              	.LASF833:
ARM GAS  C:\Users\AHMED~1.ELE\AppData\Local\Temp\cckRh1xc.s 			page 361


 15995 3d2a 4544435F 		.ascii	"EDC_RSP_INVALID_TERM\000"
 15995      5253505F 
 15995      494E5641 
 15995      4C49445F 
 15995      5445524D 
 15996              	.LASF842:
 15997 3d3f 4544435F 		.ascii	"EDC_RSP_CONTACT_ACQ\000"
 15997      5253505F 
 15997      434F4E54 
 15997      4143545F 
 15997      41435100 
 15998              	.LASF814:
 15999 3d53 4544435F 		.ascii	"EDC_FN_PRINT_REPORT\000"
 15999      464E5F50 
 15999      52494E54 
 15999      5F524550 
 15999      4F525400 
 16000              	.LASF331:
 16001 3d67 4F535F46 		.ascii	"OS_FN_CLICC_LED_SET\000"
 16001      4E5F434C 
 16001      4943435F 
 16001      4C45445F 
 16001      53455400 
 16002              	.LASF915:
 16003 3d7b 544C4953 		.ascii	"TLIST\000"
 16003      5400
 16004              	.LASF1082:
 16005 3d81 61625265 		.ascii	"abResp\000"
 16005      737000
 16006              	.LASF242:
 16007 3d88 4F535F46 		.ascii	"OS_FN_LPT_PUTC\000"
 16007      4E5F4C50 
 16007      545F5055 
 16007      544300
 16008              	.LASF1079:
 16009 3d97 614F6E6C 		.ascii	"aOnlTxn\000"
 16009      54786E00 
 16010              	.LASF223:
 16011 3d9f 4F535F46 		.ascii	"OS_FN_SLE_OPEN\000"
 16011      4E5F534C 
 16011      455F4F50 
 16011      454E00
 16012              	.LASF614:
 16013 3dae 73625F74 		.ascii	"sb_term_id\000"
 16013      65726D5F 
 16013      696400
 16014              	.LASF411:
 16015 3db9 4F535F46 		.ascii	"OS_FN_NFC_CLOSE\000"
 16015      4E5F4E46 
 16015      435F434C 
 16015      4F534500 
 16016              	.LASF394:
 16017 3dc9 4F535F46 		.ascii	"OS_FN_BARCODE_OPEN\000"
 16017      4E5F4241 
 16017      52434F44 
 16017      455F4F50 
 16017      454E00
ARM GAS  C:\Users\AHMED~1.ELE\AppData\Local\Temp\cckRh1xc.s 			page 362


 16018              	.LASF142:
 16019 3ddc 4F535F46 		.ascii	"OS_FN_THREAD_UNLOCK\000"
 16019      4E5F5448 
 16019      52454144 
 16019      5F554E4C 
 16019      4F434B00 
 16020              	.LASF739:
 16021 3df0 625F7265 		.ascii	"b_reserved1\000"
 16021      73657276 
 16021      65643100 
 16022              	.LASF828:
 16023 3dfc 4544435F 		.ascii	"EDC_RSP_APPV_ID\000"
 16023      5253505F 
 16023      41505056 
 16023      5F494400 
 16024              	.LASF382:
 16025 3e0c 4F535F46 		.ascii	"OS_FN_MIF_READ\000"
 16025      4E5F4D49 
 16025      465F5245 
 16025      414400
 16026              	.LASF684:
 16027 3e1b 625F7472 		.ascii	"b_trans_amount_len\000"
 16027      616E735F 
 16027      616D6F75 
 16027      6E745F6C 
 16027      656E00
 16028              	.LASF851:
 16029 3e2e 4544435F 		.ascii	"EDC_RSP_DUP_TRACE\000"
 16029      5253505F 
 16029      4455505F 
 16029      54524143 
 16029      4500
 16030              	.LASF1057:
 16031 3e40 6243686F 		.ascii	"bChoice\000"
 16031      69636500 
 16032              	.LASF1024:
 16033 3e48 73625F70 		.ascii	"sb_pin\000"
 16033      696E00
 16034              	.LASF1071:
 16035 3e4f 70454D56 		.ascii	"pEMV\000"
 16035      00
 16036              	.LASF1065:
 16037 3e54 6550414E 		.ascii	"ePANExtract\000"
 16037      45787472 
 16037      61637400 
 16038              	.LASF400:
 16039 3e60 4F535F46 		.ascii	"OS_FN_BARCODE_STATUS\000"
 16039      4E5F4241 
 16039      52434F44 
 16039      455F5354 
 16039      41545553 
 16040              	.LASF106:
 16041 3e75 4F535F46 		.ascii	"OS_FN_MD4_PROCESS\000"
 16041      4E5F4D44 
 16041      345F5052 
 16041      4F434553 
 16041      5300
ARM GAS  C:\Users\AHMED~1.ELE\AppData\Local\Temp\cckRh1xc.s 			page 363


 16042              	.LASF323:
 16043 3e87 4F535F46 		.ascii	"OS_FN_CLICC_REMOVE\000"
 16043      4E5F434C 
 16043      4943435F 
 16043      52454D4F 
 16043      564500
 16044              	.LASF118:
 16045 3e9a 4F535F46 		.ascii	"OS_FN_SM4_ENCRYPT\000"
 16045      4E5F534D 
 16045      345F454E 
 16045      43525950 
 16045      5400
 16046              	.LASF10:
 16047 3eac 63686172 		.ascii	"char\000"
 16047      00
 16048              	.LASF91:
 16049 3eb1 4F535F46 		.ascii	"OS_FN_NEW_DES2\000"
 16049      4E5F4E45 
 16049      575F4445 
 16049      533200
 16050              	.LASF512:
 16051 3ec0 464F5045 		.ascii	"FOPENMW\000"
 16051      4E4D5700 
 16052              	.LASF674:
 16053 3ec8 625F7273 		.ascii	"b_rsvd0\000"
 16053      76643000 
 16054              	.LASF675:
 16055 3ed0 625F7273 		.ascii	"b_rsvd1\000"
 16055      76643100 
 16056              	.LASF686:
 16057 3ed8 625F7273 		.ascii	"b_rsvd2\000"
 16057      76643200 
 16058              	.LASF89:
 16059 3ee0 4F535F46 		.ascii	"OS_FN_COM_DES2\000"
 16059      4E5F434F 
 16059      4D5F4445 
 16059      533200
 16060              	.LASF659:
 16061 3eef 73625F70 		.ascii	"sb_ppp_port\000"
 16061      70705F70 
 16061      6F727400 
 16062              	.LASF797:
 16063 3efb 4544435F 		.ascii	"EDC_AJ_OVERLIMIT\000"
 16063      414A5F4F 
 16063      5645524C 
 16063      494D4954 
 16063      00
 16064              	.LASF574:
 16065 3f0c 41504D5F 		.ascii	"APM_GETACQTBL\000"
 16065      47455441 
 16065      43515442 
 16065      4C00
 16066              	.LASF714:
 16067 3f1a 73625F66 		.ascii	"sb_floor_limit\000"
 16067      6C6F6F72 
 16067      5F6C696D 
 16067      697400
ARM GAS  C:\Users\AHMED~1.ELE\AppData\Local\Temp\cckRh1xc.s 			page 364


 16068              	.LASF699:
 16069 3f29 61706E63 		.ascii	"apnconfig2\000"
 16069      6F6E6669 
 16069      673200
 16070              	.LASF275:
 16071 3f34 4F535F46 		.ascii	"OS_FN_MCOM_OPEN\000"
 16071      4E5F4D43 
 16071      4F4D5F4F 
 16071      50454E00 
 16072              	.LASF615:
 16073 3f44 625F696E 		.ascii	"b_init_mode\000"
 16073      69745F6D 
 16073      6F646500 
 16074              	.LASF349:
 16075 3f50 4F535F46 		.ascii	"OS_FN_DEVICE_SEARCH_NEXT\000"
 16075      4E5F4445 
 16075      56494345 
 16075      5F534541 
 16075      5243485F 
 16076              	.LASF987:
 16077 3f69 73625F49 		.ascii	"sb_IOBuf\000"
 16077      4F427566 
 16077      00
 16078              	.LASF27:
 16079 3f72 4F535F46 		.ascii	"OS_FN_TIMER_OPEN\000"
 16079      4E5F5449 
 16079      4D45525F 
 16079      4F50454E 
 16079      00
 16080              	.LASF78:
 16081 3f83 4F535F46 		.ascii	"OS_FN_COM3_TXRDY\000"
 16081      4E5F434F 
 16081      4D335F54 
 16081      58524459 
 16081      00
 16082              	.LASF427:
 16083 3f94 4F535F46 		.ascii	"OS_FN_APPDL_WRITE_APP\000"
 16083      4E5F4150 
 16083      50444C5F 
 16083      57524954 
 16083      455F4150 
 16084              	.LASF251:
 16085 3faa 4F535F46 		.ascii	"OS_FN_FL_INFO\000"
 16085      4E5F464C 
 16085      5F494E46 
 16085      4F00
 16086              	.LASF935:
 16087 3fb8 73625F65 		.ascii	"sb_exp_date\000"
 16087      78705F64 
 16087      61746500 
 16088              	.LASF362:
 16089 3fc4 4F535F46 		.ascii	"OS_FN_NETDEV_IOCTL\000"
 16089      4E5F4E45 
 16089      54444556 
 16089      5F494F43 
 16089      544C00
 16090              	.LASF434:
ARM GAS  C:\Users\AHMED~1.ELE\AppData\Local\Temp\cckRh1xc.s 			page 365


 16091 3fd7 4F535F46 		.ascii	"OS_FN_RDLL_APP\000"
 16091      4E5F5244 
 16091      4C4C5F41 
 16091      505000
 16092              	.LASF936:
 16093 3fe6 63757272 		.ascii	"currency\000"
 16093      656E6379 
 16093      00
 16094              	.LASF357:
 16095 3fef 4F535F46 		.ascii	"OS_FN_USBOTG_GET_STATE\000"
 16095      4E5F5553 
 16095      424F5447 
 16095      5F474554 
 16095      5F535441 
 16096              	.LASF1059:
 16097 4006 62756666 		.ascii	"buffer\000"
 16097      657200
 16098              	.LASF320:
 16099 400d 4F535F46 		.ascii	"OS_FN_CODEC_STATUS\000"
 16099      4E5F434F 
 16099      4445435F 
 16099      53544154 
 16099      555300
 16100              	.LASF1117:
 16101 4020 4C6F6E67 		.ascii	"LongBeep\000"
 16101      42656570 
 16101      00
 16102              	.LASF125:
 16103 4029 4F535F46 		.ascii	"OS_FN_KEY_DUKPT_ENCRYPT\000"
 16103      4E5F4B45 
 16103      595F4455 
 16103      4B50545F 
 16103      454E4352 
 16104              	.LASF17:
 16105 4041 4F535F46 		.ascii	"OS_FN_GET_VERSION\000"
 16105      4E5F4745 
 16105      545F5645 
 16105      5253494F 
 16105      4E00
 16106              	.LASF944:
 16107 4053 73625F61 		.ascii	"sb_auth_code\000"
 16107      7574685F 
 16107      636F6465 
 16107      00
 16108              	.LASF502:
 16109 4060 434C4F53 		.ascii	"CLOSEMW\000"
 16109      454D5700 
 16110              	.LASF834:
 16111 4068 4544435F 		.ascii	"EDC_RSP_EDIT_ERROR\000"
 16111      5253505F 
 16111      45444954 
 16111      5F455252 
 16111      4F5200
 16112              	.LASF278:
 16113 407b 4F535F46 		.ascii	"OS_FN_MCOM_RXRDY\000"
 16113      4E5F4D43 
 16113      4F4D5F52 
ARM GAS  C:\Users\AHMED~1.ELE\AppData\Local\Temp\cckRh1xc.s 			page 366


 16113      58524459 
 16113      00
 16114              	.LASF841:
 16115 408c 4544435F 		.ascii	"EDC_RSP_INV_SERVICE\000"
 16115      5253505F 
 16115      494E565F 
 16115      53455256 
 16115      49434500 
 16116              	.LASF1136:
 16117 40a0 496E7075 		.ascii	"Input2RecordBuf\000"
 16117      74325265 
 16117      636F7264 
 16117      42756600 
 16118              	.LASF608:
 16119 40b0 434F4D4D 		.ascii	"COMMBUF\000"
 16119      42554600 
 16120              	.LASF895:
 16121 40b8 4544435F 		.ascii	"EDC_CTL_PREPROCESS_ERR\000"
 16121      43544C5F 
 16121      50524550 
 16121      524F4345 
 16121      53535F45 
 16122              	.LASF494:
 16123 40cf 55534246 		.ascii	"USBFPRT_GENERAL_INFO_END\000"
 16123      5052545F 
 16123      47454E45 
 16123      52414C5F 
 16123      494E464F 
 16124              	.LASF1090:
 16125 40e8 454D5649 		.ascii	"EMVInit\000"
 16125      6E697400 
 16126              	.LASF1112:
 16127 40f0 44697370 		.ascii	"DispErrorMsg\000"
 16127      4572726F 
 16127      724D7367 
 16127      00
 16128              	.LASF994:
 16129 40fd 735F6273 		.ascii	"s_bs_date\000"
 16129      5F646174 
 16129      6500
 16130              	.LASF568:
 16131 4107 41504D5F 		.ascii	"APM_GETTERMCFG\000"
 16131      47455454 
 16131      45524D43 
 16131      464700
 16132              	.LASF981:
 16133 4116 735F705F 		.ascii	"s_p_data\000"
 16133      64617461 
 16133      00
 16134              	.LASF1096:
 16135 411f 6749734D 		.ascii	"gIsMaestro\000"
 16135      61657374 
 16135      726F00
 16136              	.LASF812:
 16137 412a 4544435F 		.ascii	"EDC_FN_DISP_BATCH\000"
 16137      464E5F44 
 16137      4953505F 
ARM GAS  C:\Users\AHMED~1.ELE\AppData\Local\Temp\cckRh1xc.s 			page 367


 16137      42415443 
 16137      4800
 16138              	.LASF495:
 16139 413c 625F6C65 		.ascii	"b_len\000"
 16139      6E00
 16140              	.LASF695:
 16141 4142 61706E5F 		.ascii	"apn_password\000"
 16141      70617373 
 16141      776F7264 
 16141      00
 16142              	.LASF831:
 16143 414f 4544435F 		.ascii	"EDC_RSP_INVALID_ACC\000"
 16143      5253505F 
 16143      494E5641 
 16143      4C49445F 
 16143      41434300 
 16144              	.LASF921:
 16145 4163 4943435F 		.ascii	"ICC_DATA\000"
 16145      44415441 
 16145      00
 16146              	.LASF531:
 16147 416c 44495350 		.ascii	"DISP_PUTCMW\000"
 16147      5F505554 
 16147      434D5700 
 16148              	.LASF431:
 16149 4178 4F535F46 		.ascii	"OS_FN_RESET\000"
 16149      4E5F5245 
 16149      53455400 
 16150              	.LASF300:
 16151 4184 4F535F46 		.ascii	"OS_FN_GPRS_GET_CID\000"
 16151      4E5F4750 
 16151      52535F47 
 16151      45545F43 
 16151      494400
 16152              	.LASF563:
 16153 4197 41504D5F 		.ascii	"APM_CONNECTOK\000"
 16153      434F4E4E 
 16153      4543544F 
 16153      4B00
 16154              	.LASF157:
 16155 41a5 4F535F46 		.ascii	"OS_FN_AUTH\000"
 16155      4E5F4155 
 16155      544800
 16156              	.LASF543:
 16157 41b0 534D535F 		.ascii	"SMS_ENB_MW\000"
 16157      454E425F 
 16157      4D5700
 16158              	.LASF634:
 16159 41bb 775F6465 		.ascii	"w_debug_status\000"
 16159      6275675F 
 16159      73746174 
 16159      757300
 16160              	.LASF373:
 16161 41ca 4F535F46 		.ascii	"OS_FN_MIF_HALT\000"
 16161      4E5F4D49 
 16161      465F4841 
 16161      4C5400
ARM GAS  C:\Users\AHMED~1.ELE\AppData\Local\Temp\cckRh1xc.s 			page 368


 16162              	.LASF556:
 16163 41d9 41504D5F 		.ascii	"APM_WAITKEY\000"
 16163      57414954 
 16163      4B455900 
 16164              	.LASF544:
 16165 41e5 534D535F 		.ascii	"SMS_RX_MW\000"
 16165      52585F4D 
 16165      5700
 16166              	.LASF638:
 16167 41ef 625F6563 		.ascii	"b_ecr_ssl\000"
 16167      725F7373 
 16167      6C00
 16168              	.LASF881:
 16169 41f9 4544435F 		.ascii	"EDC_RSP_NO_REC\000"
 16169      5253505F 
 16169      4E4F5F52 
 16169      454300
 16170              	.LASF609:
 16171 4208 774C656E 		.ascii	"wLen\000"
 16171      00
 16172              	.LASF886:
 16173 420d 4544435F 		.ascii	"EDC_SE_TOTAL_WRONG\000"
 16173      53455F54 
 16173      4F54414C 
 16173      5F57524F 
 16173      4E4700
 16174              	.LASF947:
 16175 4220 73625F72 		.ascii	"sb_rrn\000"
 16175      726E00
 16176              	.LASF1039:
 16177 4227 735F7478 		.ascii	"s_tx_data\000"
 16177      5F646174 
 16177      6100
 16178              	.LASF874:
 16179 4231 4544435F 		.ascii	"EDC_RSP_SYS_ERROR\000"
 16179      5253505F 
 16179      5359535F 
 16179      4552524F 
 16179      5200
 16180              	.LASF430:
 16181 4243 4F535F46 		.ascii	"OS_FN_POWER_SLEEP\000"
 16181      4E5F504F 
 16181      5745525F 
 16181      534C4545 
 16181      5000
 16182              	.LASF210:
 16183 4255 4F535F46 		.ascii	"OS_FN_SAM_OFF\000"
 16183      4E5F5341 
 16183      4D5F4F46 
 16183      4600
 16184              	.LASF805:
 16185 4263 4544435F 		.ascii	"EDC_FN_CARD_TOTAL\000"
 16185      464E5F43 
 16185      4152445F 
 16185      544F5441 
 16185      4C00
 16186              	.LASF570:
ARM GAS  C:\Users\AHMED~1.ELE\AppData\Local\Temp\cckRh1xc.s 			page 369


 16187 4275 41504D5F 		.ascii	"APM_GETCARDTBL\000"
 16187      47455443 
 16187      41524454 
 16187      424C00
 16188              	.LASF393:
 16189 4284 4F535F46 		.ascii	"OS_FN_MIF_INFO_GET\000"
 16189      4E5F4D49 
 16189      465F494E 
 16189      464F5F47 
 16189      455400
 16190              	.LASF259:
 16191 4297 4F535F46 		.ascii	"OS_FN_FL_ERASE_START\000"
 16191      4E5F464C 
 16191      5F455241 
 16191      53455F53 
 16191      54415254 
 16192              	.LASF804:
 16193 42ac 4544435F 		.ascii	"EDC_FN_END_BATCH\000"
 16193      464E5F45 
 16193      4E445F42 
 16193      41544348 
 16193      00
 16194              	.LASF70:
 16195 42bd 4F535F46 		.ascii	"OS_FN_COM2_READ\000"
 16195      4E5F434F 
 16195      4D325F52 
 16195      45414400 
 16196              	.LASF336:
 16197 42cd 4F535F46 		.ascii	"OS_FN_USBHOST_RESET_DEVICE\000"
 16197      4E5F5553 
 16197      42484F53 
 16197      545F5245 
 16197      5345545F 
 16198              	.LASF342:
 16199 42e8 4F535F46 		.ascii	"OS_FN_DRIVER_UNREGISTER\000"
 16199      4E5F4452 
 16199      49564552 
 16199      5F554E52 
 16199      45474953 
 16200              	.LASF202:
 16201 4300 4F535F46 		.ascii	"OS_FN_CONFIG_READ\000"
 16201      4E5F434F 
 16201      4E464947 
 16201      5F524541 
 16201      4400
 16202              	.LASF827:
 16203 4312 4544435F 		.ascii	"EDC_RSP_NOT_HONOUR\000"
 16203      5253505F 
 16203      4E4F545F 
 16203      484F4E4F 
 16203      555200
 16204              	.LASF532:
 16205 4325 44495350 		.ascii	"DISP_PUTNMW\000"
 16205      5F505554 
 16205      4E4D5700 
 16206              	.LASF479:
 16207 4331 4F535F46 		.ascii	"OS_FN_GPRS_SET_PIN_STATUS\000"
ARM GAS  C:\Users\AHMED~1.ELE\AppData\Local\Temp\cckRh1xc.s 			page 370


 16207      4E5F4750 
 16207      52535F53 
 16207      45545F50 
 16207      494E5F53 
 16208              	.LASF857:
 16209 434b 4544435F 		.ascii	"EDC_RSP_CTL_DDA\000"
 16209      5253505F 
 16209      43544C5F 
 16209      44444100 
 16210              	.LASF451:
 16211 435b 4F535F46 		.ascii	"OS_FN_FPRT_CLOSE\000"
 16211      4E5F4650 
 16211      52545F43 
 16211      4C4F5345 
 16211      00
 16212              	.LASF1066:
 16213 436c 454D5646 		.ascii	"EMVFatal\000"
 16213      6174616C 
 16213      00
 16214              	.LASF941:
 16215 4375 625F656E 		.ascii	"b_entry_mode\000"
 16215      7472795F 
 16215      6D6F6465 
 16215      00
 16216              	.LASF789:
 16217 4382 4544435F 		.ascii	"EDC_TU_NOT_ALLOW\000"
 16217      54555F4E 
 16217      4F545F41 
 16217      4C4C4F57 
 16217      00
 16218              	.LASF458:
 16219 4393 4F535F46 		.ascii	"OS_FN_GCM_AES_OPEN\000"
 16219      4E5F4743 
 16219      4D5F4145 
 16219      535F4F50 
 16219      454E00
 16220              	.LASF116:
 16221 43a6 4F535F46 		.ascii	"OS_FN_SM3\000"
 16221      4E5F534D 
 16221      3300
 16222              	.LASF398:
 16223 43b0 4F535F46 		.ascii	"OS_FN_BARCODE_READ\000"
 16223      4E5F4241 
 16223      52434F44 
 16223      455F5245 
 16223      414400
 16224              	.LASF759:
 16225 43c3 4544435F 		.ascii	"EDC_CN_AUTH\000"
 16225      434E5F41 
 16225      55544800 
 16226              	.LASF455:
 16227 43cf 4F535F46 		.ascii	"OS_FN_ECC_KEYPAIR_GENERATE\000"
 16227      4E5F4543 
 16227      435F4B45 
 16227      59504149 
 16227      525F4745 
 16228              	.LASF407:
ARM GAS  C:\Users\AHMED~1.ELE\AppData\Local\Temp\cckRh1xc.s 			page 371


 16229 43ea 4F535F46 		.ascii	"OS_FN_WIFI_PROFILES_WRITE\000"
 16229      4E5F5749 
 16229      46495F50 
 16229      524F4649 
 16229      4C45535F 
 16230              	.LASF166:
 16231 4404 4F535F46 		.ascii	"OS_FN_FILE_CREATE_OWNER\000"
 16231      4E5F4649 
 16231      4C455F43 
 16231      52454154 
 16231      455F4F57 
 16232              	.LASF402:
 16233 441c 4F535F46 		.ascii	"OS_FN_WIFI_CONTROL\000"
 16233      4E5F5749 
 16233      46495F43 
 16233      4F4E5452 
 16233      4F4C00
 16234              	.LASF1043:
 16235 442f 614E6578 		.ascii	"aNextState\000"
 16235      74537461 
 16235      746500
 16236              	.LASF879:
 16237 443a 4544435F 		.ascii	"EDC_RSP_INVALID_CARD\000"
 16237      5253505F 
 16237      494E5641 
 16237      4C49445F 
 16237      43415244 
 16238              	.LASF1110:
 16239 444f 7374726C 		.ascii	"strlen\000"
 16239      656E00
 16240              	.LASF330:
 16241 4456 4F535F46 		.ascii	"OS_FN_CLICC_LED_STATUS\000"
 16241      4E5F434C 
 16241      4943435F 
 16241      4C45445F 
 16241      53544154 
 16242              	.LASF796:
 16243 446d 4544435F 		.ascii	"EDC_AJ_TIPS_AMT\000"
 16243      414A5F54 
 16243      4950535F 
 16243      414D5400 
 16244              	.LASF680:
 16245 447d 73625F6F 		.ascii	"sb_options\000"
 16245      7074696F 
 16245      6E7300
 16246              	.LASF329:
 16247 4488 4F535F46 		.ascii	"OS_FN_CLICC_LED_CLOSE\000"
 16247      4E5F434C 
 16247      4943435F 
 16247      4C45445F 
 16247      434C4F53 
 16248              	.LASF338:
 16249 449e 4F535F46 		.ascii	"OS_FN_USBHOST_RHPORT_STATUS\000"
 16249      4E5F5553 
 16249      42484F53 
 16249      545F5248 
 16249      504F5254 
ARM GAS  C:\Users\AHMED~1.ELE\AppData\Local\Temp\cckRh1xc.s 			page 372


 16250              	.LASF1097:
 16251 44ba 77564D4F 		.ascii	"wVMOnlineTags\000"
 16251      6E6C696E 
 16251      65546167 
 16251      7300
 16252              	.LASF668:
 16253 44c8 775F6170 		.ascii	"w_app_list_chksum\000"
 16253      705F6C69 
 16253      73745F63 
 16253      686B7375 
 16253      6D00
 16254              	.LASF290:
 16255 44da 4F535F46 		.ascii	"OS_FN_ADC_CH_DISABLE\000"
 16255      4E5F4144 
 16255      435F4348 
 16255      5F444953 
 16255      41424C45 
 16256              	.LASF87:
 16257 44ef 4F535F46 		.ascii	"OS_FN_COM_DESKEY\000"
 16257      4E5F434F 
 16257      4D5F4445 
 16257      534B4559 
 16257      00
 16258              	.LASF31:
 16259 4500 4F535F46 		.ascii	"OS_FN_BUZ_OPEN\000"
 16259      4E5F4255 
 16259      5A5F4F50 
 16259      454E00
 16260              	.LASF69:
 16261 450f 4F535F46 		.ascii	"OS_FN_COM2_TXRDY\000"
 16261      4E5F434F 
 16261      4D325F54 
 16261      58524459 
 16261      00
 16262              	.LASF930:
 16263 4520 54584E5F 		.ascii	"TXN_RECORD\000"
 16263      5245434F 
 16263      524400
 16264              	.LASF637:
 16265 452b 625F6563 		.ascii	"b_ecr_port\000"
 16265      725F706F 
 16265      727400
 16266              	.LASF144:
 16267 4536 4F535F46 		.ascii	"OS_FN_THREAD_POP\000"
 16267      4E5F5448 
 16267      52454144 
 16267      5F504F50 
 16267      00
 16268              	.LASF779:
 16269 4547 4544435F 		.ascii	"EDC_IN_TOTAL_PROMPT\000"
 16269      494E5F54 
 16269      4F54414C 
 16269      5F50524F 
 16269      4D505400 
 16270              	.LASF983:
 16271 455b 745F7465 		.ascii	"t_term_tot\000"
 16271      726D5F74 
ARM GAS  C:\Users\AHMED~1.ELE\AppData\Local\Temp\cckRh1xc.s 			page 373


 16271      6F7400
 16272              	.LASF239:
 16273 4566 4F535F46 		.ascii	"OS_FN_MSR_STATUS\000"
 16273      4E5F4D53 
 16273      525F5354 
 16273      41545553 
 16273      00
 16274              	.LASF283:
 16275 4577 4F535F46 		.ascii	"OS_FN_MCOM_READ\000"
 16275      4E5F4D43 
 16275      4F4D5F52 
 16275      45414400 
 16276              	.LASF135:
 16277 4587 4F535F46 		.ascii	"OS_FN_PCI_DSS_REGEN_KEY\000"
 16277      4E5F5043 
 16277      495F4453 
 16277      535F5245 
 16277      47454E5F 
 16278              	.LASF1022:
 16279 459f 44454641 		.ascii	"DEFAULT_TRANS\000"
 16279      554C545F 
 16279      5452414E 
 16279      5300
 16280              	.LASF969:
 16281 45ad 735F6163 		.ascii	"s_acquirer_tbl\000"
 16281      71756972 
 16281      65725F74 
 16281      626C00
 16282              	.LASF788:
 16283 45bc 4544435F 		.ascii	"EDC_IN_CUR_ERROR\000"
 16283      494E5F43 
 16283      55525F45 
 16283      52524F52 
 16283      00
 16284              	.LASF706:
 16285 45cd 625F6163 		.ascii	"b_acquirer_id\000"
 16285      71756972 
 16285      65725F69 
 16285      6400
 16286              	.LASF473:
 16287 45db 4F535F46 		.ascii	"OS_FN_IMG_SENSOR_OPEN\000"
 16287      4E5F494D 
 16287      475F5345 
 16287      4E534F52 
 16287      5F4F5045 
 16288              	.LASF750:
 16289 45f1 625F6D6F 		.ascii	"b_month\000"
 16289      6E746800 
 16290              	.LASF1108:
 16291 45f9 44697370 		.ascii	"Disp2x16Msg\000"
 16291      32783136 
 16291      4D736700 
 16292              	.LASF816:
 16293 4605 4544435F 		.ascii	"EDC_PN_MANUALCUT\000"
 16293      504E5F4D 
 16293      414E5541 
 16293      4C435554 
ARM GAS  C:\Users\AHMED~1.ELE\AppData\Local\Temp\cckRh1xc.s 			page 374


 16293      00
 16294              	.LASF565:
 16295 4616 41504D5F 		.ascii	"APM_FLUSHCOMM\000"
 16295      464C5553 
 16295      48434F4D 
 16295      4D00
 16296              	.LASF359:
 16297 4624 4F535F46 		.ascii	"OS_FN_NETDEV_CLOSE\000"
 16297      4E5F4E45 
 16297      54444556 
 16297      5F434C4F 
 16297      534500
 16298              	.LASF972:
 16299 4637 42535F44 		.ascii	"BS_DATE\000"
 16299      41544500 
 16300              	.LASF582:
 16301 463f 41504D5F 		.ascii	"APM_SETPENDING\000"
 16301      53455450 
 16301      454E4449 
 16301      4E4700
 16302              	.LASF8:
 16303 464e 756E7369 		.ascii	"unsigned int\000"
 16303      676E6564 
 16303      20696E74 
 16303      00
 16304              	.LASF953:
 16305 465b 50524E5F 		.ascii	"PRN_DATA\000"
 16305      44415441 
 16305      00
 16306              	.LASF500:
 16307 4664 53485554 		.ascii	"SHUTDOWNMW\000"
 16307      444F574E 
 16307      4D5700
 16308              	.LASF807:
 16309 466f 4544435F 		.ascii	"EDC_FN_CLR_BATCH\000"
 16309      464E5F43 
 16309      4C525F42 
 16309      41544348 
 16309      00
 16310              	.LASF388:
 16311 4680 4F535F46 		.ascii	"OS_FN_MIF_DEC_TRANS\000"
 16311      4E5F4D49 
 16311      465F4445 
 16311      435F5452 
 16311      414E5300 
 16312              	.LASF201:
 16313 4694 4F535F46 		.ascii	"OS_FN_CONFIG_LENGTH\000"
 16313      4E5F434F 
 16313      4E464947 
 16313      5F4C454E 
 16313      47544800 
 16314              		.ident	"GCC: (GNU Tools for ARM Embedded Processors) 4.9.3 20141119 (release) [ARM/embedded-4_9-br
ARM GAS  C:\Users\AHMED~1.ELE\AppData\Local\Temp\cckRh1xc.s 			page 375


DEFINED SYMBOLS
                            *ABS*:00000000 emvtrans.c
C:\Users\AHMED~1.ELE\AppData\Local\Temp\cckRh1xc.s:19     .text.EMVCancel:00000000 $t
C:\Users\AHMED~1.ELE\AppData\Local\Temp\cckRh1xc.s:23     .text.EMVCancel:00000000 EMVCancel
C:\Users\AHMED~1.ELE\AppData\Local\Temp\cckRh1xc.s:100    .text.EMVCancel:00000064 $d
C:\Users\AHMED~1.ELE\AppData\Local\Temp\cckRh1xc.s:107    .text.DeAss:00000000 $t
C:\Users\AHMED~1.ELE\AppData\Local\Temp\cckRh1xc.s:112    .text.DeAss:00000000 DeAss
C:\Users\AHMED~1.ELE\AppData\Local\Temp\cckRh1xc.s:232    .text.TagPut:00000000 $t
C:\Users\AHMED~1.ELE\AppData\Local\Temp\cckRh1xc.s:237    .text.TagPut:00000000 TagPut
C:\Users\AHMED~1.ELE\AppData\Local\Temp\cckRh1xc.s:262    .text.TagSeek:00000000 $t
C:\Users\AHMED~1.ELE\AppData\Local\Temp\cckRh1xc.s:267    .text.TagSeek:00000000 TagSeek
C:\Users\AHMED~1.ELE\AppData\Local\Temp\cckRh1xc.s:297    .text.TagData:00000000 $t
C:\Users\AHMED~1.ELE\AppData\Local\Temp\cckRh1xc.s:302    .text.TagData:00000000 TagData
C:\Users\AHMED~1.ELE\AppData\Local\Temp\cckRh1xc.s:337    .text.PackTagsData:00000000 $t
C:\Users\AHMED~1.ELE\AppData\Local\Temp\cckRh1xc.s:342    .text.PackTagsData:00000000 PackTagsData
C:\Users\AHMED~1.ELE\AppData\Local\Temp\cckRh1xc.s:408    .text.PackTagsData:00000044 $d
C:\Users\AHMED~1.ELE\AppData\Local\Temp\cckRh1xc.s:413    .text.EMVFatal:00000000 $t
C:\Users\AHMED~1.ELE\AppData\Local\Temp\cckRh1xc.s:418    .text.EMVFatal:00000000 EMVFatal
C:\Users\AHMED~1.ELE\AppData\Local\Temp\cckRh1xc.s:468    .text.EMVInput:00000000 $t
C:\Users\AHMED~1.ELE\AppData\Local\Temp\cckRh1xc.s:473    .text.EMVInput:00000000 EMVInput
C:\Users\AHMED~1.ELE\AppData\Local\Temp\cckRh1xc.s:730    .text.EMVInput:00000190 $d
C:\Users\AHMED~1.ELE\AppData\Local\Temp\cckRh1xc.s:736    .text.GetApplNameTag:00000000 $t
C:\Users\AHMED~1.ELE\AppData\Local\Temp\cckRh1xc.s:741    .text.GetApplNameTag:00000000 GetApplNameTag
C:\Users\AHMED~1.ELE\AppData\Local\Temp\cckRh1xc.s:792    .text.GetApplNameTag:0000003c $d
C:\Users\AHMED~1.ELE\AppData\Local\Temp\cckRh1xc.s:797    .text.ValidEMVData:00000000 $t
C:\Users\AHMED~1.ELE\AppData\Local\Temp\cckRh1xc.s:802    .text.ValidEMVData:00000000 ValidEMVData
C:\Users\AHMED~1.ELE\AppData\Local\Temp\cckRh1xc.s:1089   .text.ValidEMVData:000001b8 $d
                            *COM*:00000001 gIsMaestro
C:\Users\AHMED~1.ELE\AppData\Local\Temp\cckRh1xc.s:1104   .text.PackEMVData:00000000 $t
C:\Users\AHMED~1.ELE\AppData\Local\Temp\cckRh1xc.s:1109   .text.PackEMVData:00000000 PackEMVData
C:\Users\AHMED~1.ELE\AppData\Local\Temp\cckRh1xc.s:1146   .text.PackEMVData:0000001c $d
C:\Users\AHMED~1.ELE\AppData\Local\Temp\cckRh1xc.s:1151   .text.debugEMV2:00000000 $t
C:\Users\AHMED~1.ELE\AppData\Local\Temp\cckRh1xc.s:1156   .text.debugEMV2:00000000 debugEMV2
C:\Users\AHMED~1.ELE\AppData\Local\Temp\cckRh1xc.s:1243   .text.debugEMV2:00000060 $d
C:\Users\AHMED~1.ELE\AppData\Local\Temp\cckRh1xc.s:1253   .text.GetTxnCode:00000000 $t
C:\Users\AHMED~1.ELE\AppData\Local\Temp\cckRh1xc.s:1258   .text.GetTxnCode:00000000 GetTxnCode
C:\Users\AHMED~1.ELE\AppData\Local\Temp\cckRh1xc.s:1285   .text.GetTxnCode:00000018 $d
C:\Users\AHMED~1.ELE\AppData\Local\Temp\cckRh1xc.s:1290   .text.EMVProcess:00000000 $t
C:\Users\AHMED~1.ELE\AppData\Local\Temp\cckRh1xc.s:1295   .text.EMVProcess:00000000 EMVProcess
C:\Users\AHMED~1.ELE\AppData\Local\Temp\cckRh1xc.s:1413   .text.EMVProcess:0000009e $d
C:\Users\AHMED~1.ELE\AppData\Local\Temp\cckRh1xc.s:1533   .text.EMVProcess:00000158 $d
C:\Users\AHMED~1.ELE\AppData\Local\Temp\cckRh1xc.s:1542   .text.EMVProcess:0000016a $t
C:\Users\AHMED~1.ELE\AppData\Local\Temp\cckRh1xc.s:1698   .text.EMVProcess:00000268 $d
C:\Users\AHMED~1.ELE\AppData\Local\Temp\cckRh1xc.s:1709   .text.EMVProcess:00000284 $t
C:\Users\AHMED~1.ELE\AppData\Local\Temp\cckRh1xc.s:2161   .text.EMVProcess:00000584 $d
C:\Users\AHMED~1.ELE\AppData\Local\Temp\cckRh1xc.s:2174   .text.EMVProcess:000005b0 $t
C:\Users\AHMED~1.ELE\AppData\Local\Temp\cckRh1xc.s:2611   .text.EMVProcess:000008d4 $d
C:\Users\AHMED~1.ELE\AppData\Local\Temp\cckRh1xc.s:2625   .text.EMVTrans:00000000 $t
C:\Users\AHMED~1.ELE\AppData\Local\Temp\cckRh1xc.s:2630   .text.EMVTrans:00000000 EMVTrans
C:\Users\AHMED~1.ELE\AppData\Local\Temp\cckRh1xc.s:2841   .text.EMVTrans:00000140 $d
C:\Users\AHMED~1.ELE\AppData\Local\Temp\cckRh1xc.s:2847   .text.EMVInit:00000000 $t
C:\Users\AHMED~1.ELE\AppData\Local\Temp\cckRh1xc.s:2852   .text.EMVInit:00000000 EMVInit
C:\Users\AHMED~1.ELE\AppData\Local\Temp\cckRh1xc.s:2905   .text.EMVInit:00000040 $d
C:\Users\AHMED~1.ELE\AppData\Local\Temp\cckRh1xc.s:2953   .rodata:0000008b KPinMsg
C:\Users\AHMED~1.ELE\AppData\Local\Temp\cckRh1xc.s:2922   .rodata:00000010 wVMOnlineTags
C:\Users\AHMED~1.ELE\AppData\Local\Temp\cckRh1xc.s:2914   .rodata:00000000 $d
C:\Users\AHMED~1.ELE\AppData\Local\Temp\cckRh1xc.s:2987   .bss:00000000 bAcceptReferral
ARM GAS  C:\Users\AHMED~1.ELE\AppData\Local\Temp\cckRh1xc.s 			page 376


C:\Users\AHMED~1.ELE\AppData\Local\Temp\cckRh1xc.s:2988   .bss:00000000 $d
C:\Users\AHMED~1.ELE\AppData\Local\Temp\cckRh1xc.s:2991   .bss:00000001 abResp.12783
                     .debug_frame:00000010 $d
C:\Users\AHMED~1.ELE\AppData\Local\Temp\cckRh1xc.s:1428   .text.EMVProcess:000000ad $d
C:\Users\AHMED~1.ELE\AppData\Local\Temp\cckRh1xc.s:1428   .text.EMVProcess:000000ae $t

UNDEFINED SYMBOLS
lib_app_call
LongBeep
UpdateHostStatus
gGTS
gGDS
gIccHandle
TlvTag
TlvLen
TlvVPtr
TlvSizeOf
memcpy
GetConstMsg
Disp2x16Msg
sys_func0
DispErrorMsg
strlen
sys_func1
memset
InCardTable
split
fndb
memcmp
ClearResponse
LptOpen
LptPutS
sprintf
LptPutN
DispHeader
PackRspText
GetAuthCode
PackDTGAA
GenAuthCode
IncAPMTraceNo
SetRspCode
PackInputP
MoveInput2Tx
IncTraceNo
SaveRecord
BlockAuthCode
Input2RecordBuf
AcceptBeep
TIPsReqd
GetAmount
GetCashBackAmount
dbin2bcd
GetProductCode
PackComm
GetPIN
PackHeader
ReversalOK
ARM GAS  C:\Users\AHMED~1.ELE\AppData\Local\Temp\cckRh1xc.s 			page 377


OfflineSent
PackProcCode
PackHostMsg
CheckHostRsp
BlockLocalTrans
AuthBlocked
HostSettlePending
Expire_diff
GetEcrRef
Short1Beep
GetCard
SaleTrans
TransEnd
