ARM GAS  C:\Users\AHMED~1.ELE\AppData\Local\Temp\ccDsbZvl.s 			page 1


   1              		.syntax unified
   2              		.cpu cortex-a5
   3              		.fpu softvfp
   4              		.eabi_attribute 20, 1
   5              		.eabi_attribute 21, 1
   6              		.eabi_attribute 23, 3
   7              		.eabi_attribute 24, 1
   8              		.eabi_attribute 25, 1
   9              		.eabi_attribute 26, 1
  10              		.eabi_attribute 30, 4
  11              		.eabi_attribute 34, 0
  12              		.eabi_attribute 18, 4
  13              		.thumb
  14              		.file	"expect_send.c"
  15              		.text
  16              	.Ltext0:
  17              		.cfi_sections	.debug_frame
  18              		.section	.text.expect_send_release,"ax",%progbits
  19              		.align	1
  20              		.global	expect_send_release
  21              		.thumb
  22              		.thumb_func
  23              		.type	expect_send_release, %function
  24              	expect_send_release:
  25              	.LFB0:
  26              		.file 1 "../LibA5T1000/gcc/expect_send.c"
   1:../LibA5T1000/gcc/expect_send.c **** /*
   2:../LibA5T1000/gcc/expect_send.c **** ************************************
   3:../LibA5T1000/gcc/expect_send.c **** *       Module : expect_send.c     *
   4:../LibA5T1000/gcc/expect_send.c **** *       Name   : TF                *
   5:../LibA5T1000/gcc/expect_send.c **** *       Date   : 16-01-2008        *
   6:../LibA5T1000/gcc/expect_send.c **** ************************************
   7:../LibA5T1000/gcc/expect_send.c **** */
   8:../LibA5T1000/gcc/expect_send.c **** /*==========================================================================*/
   9:../LibA5T1000/gcc/expect_send.c **** /* Naming conventions                                                       */
  10:../LibA5T1000/gcc/expect_send.c **** /* ~~~~~~~~~~~~~~~~~~                                                       */
  11:../LibA5T1000/gcc/expect_send.c **** /*         Class define : Leading C                                         */
  12:../LibA5T1000/gcc/expect_send.c **** /*        Struct define : Leading S                                         */
  13:../LibA5T1000/gcc/expect_send.c **** /*               Struct : Leading s                                         */
  14:../LibA5T1000/gcc/expect_send.c **** /*               Class  : Leading c                                         */
  15:../LibA5T1000/gcc/expect_send.c **** /*             Constant : Leading K                                         */
  16:../LibA5T1000/gcc/expect_send.c **** /*      Global Variable : Leading g                                         */
  17:../LibA5T1000/gcc/expect_send.c **** /*    Function argument : Leading a                                         */
  18:../LibA5T1000/gcc/expect_send.c **** /*       Local Variable : All lower case                                    */
  19:../LibA5T1000/gcc/expect_send.c **** /*            Byte size : Leading b                                         */
  20:../LibA5T1000/gcc/expect_send.c **** /*            Word size : Leading w                                         */
  21:../LibA5T1000/gcc/expect_send.c **** /*           Dword size : Leading d                                         */
  22:../LibA5T1000/gcc/expect_send.c **** /*              Pointer : Leading p                                         */
  23:../LibA5T1000/gcc/expect_send.c **** /*==========================================================================*/
  24:../LibA5T1000/gcc/expect_send.c **** 
  25:../LibA5T1000/gcc/expect_send.c **** #include <string.h>
  26:../LibA5T1000/gcc/expect_send.c **** #include "system.h"
  27:../LibA5T1000/gcc/expect_send.c **** #include "expect_send.h"
  28:../LibA5T1000/gcc/expect_send.c **** 
  29:../LibA5T1000/gcc/expect_send.c **** /*---------------------------------------------------------------------*/
  30:../LibA5T1000/gcc/expect_send.c **** /*
  31:../LibA5T1000/gcc/expect_send.c **** function : to release the allocated T_EXPECT_SEND
ARM GAS  C:\Users\AHMED~1.ELE\AppData\Local\Temp\ccDsbZvl.s 			page 2


  32:../LibA5T1000/gcc/expect_send.c **** input    : T_EXPECT_SEND structure array ptr
  33:../LibA5T1000/gcc/expect_send.c ****            size of array
  34:../LibA5T1000/gcc/expect_send.c **** output   : none
  35:../LibA5T1000/gcc/expect_send.c **** */
  36:../LibA5T1000/gcc/expect_send.c **** __pcs void expect_send_release(T_EXPECT_SEND ** a_s, DWORD a_n)
  37:../LibA5T1000/gcc/expect_send.c **** {
  27              		.loc 1 37 0
  28              		.cfi_startproc
  29              		@ args = 0, pretend = 0, frame = 0
  30              		@ frame_needed = 0, uses_anonymous_args = 0
  31              	.LVL0:
  32 0000 F8B5     		push	{r3, r4, r5, r6, r7, lr}
  33              		.cfi_def_cfa_offset 24
  34              		.cfi_offset 3, -24
  35              		.cfi_offset 4, -20
  36              		.cfi_offset 5, -16
  37              		.cfi_offset 6, -12
  38              		.cfi_offset 7, -8
  39              		.cfi_offset 14, -4
  38:../LibA5T1000/gcc/expect_send.c ****   T_EXPECT_SEND * ps;
  39:../LibA5T1000/gcc/expect_send.c ****   char **p;
  40:../LibA5T1000/gcc/expect_send.c **** 
  41:../LibA5T1000/gcc/expect_send.c ****   ps = *a_s;
  40              		.loc 1 41 0
  41 0002 0468     		ldr	r4, [r0]
  37:../LibA5T1000/gcc/expect_send.c ****   T_EXPECT_SEND * ps;
  42              		.loc 1 37 0
  43 0004 0746     		mov	r7, r0
  44              	.LVL1:
  42:../LibA5T1000/gcc/expect_send.c ****   if ((ps == NULL) || (a_n == 0))
  45              		.loc 1 42 0
  46 0006 34B3     		cbz	r4, .L1
  47              		.loc 1 42 0 is_stmt 0 discriminator 1
  48 0008 29B3     		cbz	r1, .L1
  49 000a 1434     		adds	r4, r4, #20
  50              	.LVL2:
  51              		.loc 1 42 0
  52 000c 0D46     		mov	r5, r1
  53              	.LVL3:
  54              	.L8:
  43:../LibA5T1000/gcc/expect_send.c ****     return;
  44:../LibA5T1000/gcc/expect_send.c ****   while (a_n--)
  45:../LibA5T1000/gcc/expect_send.c ****   {  
  46:../LibA5T1000/gcc/expect_send.c ****     if (ps->p_send)
  55              		.loc 1 46 0 is_stmt 1
  56 000e 54F80C1C 		ldr	r1, [r4, #-12]
  57 0012 11B1     		cbz	r1, .L3
  47:../LibA5T1000/gcc/expect_send.c ****       os_free(ps->p_send);
  58              		.loc 1 47 0
  59 0014 9420     		movs	r0, #148
  60 0016 FFF7FEFF 		bl	sys_func1
  61              	.LVL4:
  62              	.L3:
  48:../LibA5T1000/gcc/expect_send.c ****     if (ps->p_abort)
  63              		.loc 1 48 0
  64 001a 54F8081C 		ldr	r1, [r4, #-8]
  65 001e 11B1     		cbz	r1, .L4
ARM GAS  C:\Users\AHMED~1.ELE\AppData\Local\Temp\ccDsbZvl.s 			page 3


  49:../LibA5T1000/gcc/expect_send.c ****       os_free(ps->p_abort);    
  66              		.loc 1 49 0
  67 0020 9420     		movs	r0, #148
  68 0022 FFF7FEFF 		bl	sys_func1
  69              	.LVL5:
  70              	.L4:
  50:../LibA5T1000/gcc/expect_send.c ****     if (ps->p_expect)
  71              		.loc 1 50 0
  72 0026 54F8146C 		ldr	r6, [r4, #-20]
  73 002a 5EB1     		cbz	r6, .L5
  74 002c 043E     		subs	r6, r6, #4
  75              	.L6:
  76              	.LVL6:
  51:../LibA5T1000/gcc/expect_send.c ****     { 
  52:../LibA5T1000/gcc/expect_send.c ****       p = ps->p_expect; 
  53:../LibA5T1000/gcc/expect_send.c ****       while (*p)
  77              		.loc 1 53 0
  78 002e 56F8041F 		ldr	r1, [r6, #4]!
  79              	.LVL7:
  54:../LibA5T1000/gcc/expect_send.c ****       {
  55:../LibA5T1000/gcc/expect_send.c ****         os_free(*p);
  80              		.loc 1 55 0
  81 0032 9420     		movs	r0, #148
  53:../LibA5T1000/gcc/expect_send.c ****       {
  82              		.loc 1 53 0
  83 0034 11B1     		cbz	r1, .L26
  84              		.loc 1 55 0
  85 0036 FFF7FEFF 		bl	sys_func1
  86              	.LVL8:
  87 003a F8E7     		b	.L6
  88              	.LVL9:
  89              	.L26:
  56:../LibA5T1000/gcc/expect_send.c ****         p++;
  57:../LibA5T1000/gcc/expect_send.c ****       }
  58:../LibA5T1000/gcc/expect_send.c ****       os_free(ps->p_expect);  
  90              		.loc 1 58 0
  91 003c 54F8141C 		ldr	r1, [r4, #-20]
  92 0040 FFF7FEFF 		bl	sys_func1
  93              	.LVL10:
  94              	.L5:
  44:../LibA5T1000/gcc/expect_send.c ****   {  
  95              		.loc 1 44 0
  96 0044 013D     		subs	r5, r5, #1
  97              	.LVL11:
  98 0046 04F11404 		add	r4, r4, #20
  99              	.LVL12:
 100 004a E0D1     		bne	.L8
 101              	.LVL13:
 102              	.LBB4:
 103              	.LBB5:
  59:../LibA5T1000/gcc/expect_send.c ****     }
  60:../LibA5T1000/gcc/expect_send.c ****     ps++;
  61:../LibA5T1000/gcc/expect_send.c ****   }
  62:../LibA5T1000/gcc/expect_send.c ****   os_free(*a_s);
 104              		.loc 1 62 0
 105 004c 9420     		movs	r0, #148
 106 004e 3968     		ldr	r1, [r7]
ARM GAS  C:\Users\AHMED~1.ELE\AppData\Local\Temp\ccDsbZvl.s 			page 4


 107 0050 FFF7FEFF 		bl	sys_func1
 108              	.LVL14:
  63:../LibA5T1000/gcc/expect_send.c ****   *a_s = NULL;
 109              		.loc 1 63 0
 110 0054 3D60     		str	r5, [r7]
 111              	.LVL15:
 112              	.L1:
 113 0056 F8BD     		pop	{r3, r4, r5, r6, r7, pc}
 114              	.LBE5:
 115              	.LBE4:
 116              		.cfi_endproc
 117              	.LFE0:
 118              		.size	expect_send_release, .-expect_send_release
 119              		.section	.text.expect_send_alloc,"ax",%progbits
 120              		.align	1
 121              		.global	expect_send_alloc
 122              		.thumb
 123              		.thumb_func
 124              		.type	expect_send_alloc, %function
 125              	expect_send_alloc:
 126              	.LFB1:
  64:../LibA5T1000/gcc/expect_send.c **** }
  65:../LibA5T1000/gcc/expect_send.c **** 
  66:../LibA5T1000/gcc/expect_send.c **** /*---------------------------------------------------------------------*/
  67:../LibA5T1000/gcc/expect_send.c **** /*
  68:../LibA5T1000/gcc/expect_send.c **** function : to release the allocated T_EXPECT_SEND
  69:../LibA5T1000/gcc/expect_send.c **** input    : T_EXPECT_SEND structure array ptr
  70:../LibA5T1000/gcc/expect_send.c ****            size of array
  71:../LibA5T1000/gcc/expect_send.c **** output   : none
  72:../LibA5T1000/gcc/expect_send.c **** */
  73:../LibA5T1000/gcc/expect_send.c **** __pcs T_EXPECT_SEND * expect_send_alloc(T_EXPECT_SEND * a_s,DWORD a_n)
  74:../LibA5T1000/gcc/expect_send.c **** {
 127              		.loc 1 74 0
 128              		.cfi_startproc
 129              		@ args = 0, pretend = 0, frame = 8
 130              		@ frame_needed = 0, uses_anonymous_args = 0
 131              	.LVL16:
 132 0000 2DE9F347 		push	{r0, r1, r4, r5, r6, r7, r8, r9, r10, lr}
 133              		.cfi_def_cfa_offset 40
 134              		.cfi_offset 4, -32
 135              		.cfi_offset 5, -28
 136              		.cfi_offset 6, -24
 137              		.cfi_offset 7, -20
 138              		.cfi_offset 8, -16
 139              		.cfi_offset 9, -12
 140              		.cfi_offset 10, -8
 141              		.cfi_offset 14, -4
 142              		.loc 1 74 0
 143 0004 0E46     		mov	r6, r1
  75:../LibA5T1000/gcc/expect_send.c ****   T_EXPECT_SEND * ps,*ops;
  76:../LibA5T1000/gcc/expect_send.c ****   char  *p;
  77:../LibA5T1000/gcc/expect_send.c ****   char  **pp;
  78:../LibA5T1000/gcc/expect_send.c ****   char  **pt;
  79:../LibA5T1000/gcc/expect_send.c ****   DWORD i;
  80:../LibA5T1000/gcc/expect_send.c ****   DWORD size;
  81:../LibA5T1000/gcc/expect_send.c ****   DWORD n;
  82:../LibA5T1000/gcc/expect_send.c ****   
ARM GAS  C:\Users\AHMED~1.ELE\AppData\Local\Temp\ccDsbZvl.s 			page 5


  83:../LibA5T1000/gcc/expect_send.c ****   if ((a_s == NULL) || (a_n == 0))
 144              		.loc 1 83 0
 145 0006 0446     		mov	r4, r0
 146 0008 70B3     		cbz	r0, .L68
 147              		.loc 1 83 0 is_stmt 0 discriminator 1
 148 000a 69B3     		cbz	r1, .L68
 149              	.LVL17:
  84:../LibA5T1000/gcc/expect_send.c ****     return NULL;
  85:../LibA5T1000/gcc/expect_send.c ****   size = sizeof(T_EXPECT_SEND);
  86:../LibA5T1000/gcc/expect_send.c ****   size += 3;
  87:../LibA5T1000/gcc/expect_send.c ****   size &= ~3;
  88:../LibA5T1000/gcc/expect_send.c ****   size *= a_n;
 150              		.loc 1 88 0 is_stmt 1
 151 000c 1427     		movs	r7, #20
  89:../LibA5T1000/gcc/expect_send.c ****   if ((ops=(T_EXPECT_SEND*)os_malloc(size * a_n)) == NULL)
 152              		.loc 1 89 0
 153 000e 9220     		movs	r0, #146
 154              	.LVL18:
  88:../LibA5T1000/gcc/expect_send.c ****   if ((ops=(T_EXPECT_SEND*)os_malloc(size * a_n)) == NULL)
 155              		.loc 1 88 0
 156 0010 4F43     		muls	r7, r1, r7
 157              	.LVL19:
 158              		.loc 1 89 0
 159 0012 7943     		muls	r1, r7, r1
 160              	.LVL20:
 161 0014 FFF7FEFF 		bl	sys_func1
 162              	.LVL21:
 163 0018 0546     		mov	r5, r0
 164 001a 0190     		str	r0, [sp, #4]
 165 001c 20B3     		cbz	r0, .L68
 166              	.LVL22:
  90:../LibA5T1000/gcc/expect_send.c ****     return NULL;
  91:../LibA5T1000/gcc/expect_send.c ****   ps = ops;
  92:../LibA5T1000/gcc/expect_send.c ****   n   = a_n;
  93:../LibA5T1000/gcc/expect_send.c ****   memcpy(ps,a_s,size);
 167              		.loc 1 93 0
 168 001e 2146     		mov	r1, r4
 169 0020 3A46     		mov	r2, r7
 170 0022 FFF7FEFF 		bl	memcpy
 171              	.LVL23:
  94:../LibA5T1000/gcc/expect_send.c ****   while (n--)
 172              		.loc 1 94 0
 173 0026 2846     		mov	r0, r5
 174 0028 3346     		mov	r3, r6
 175              	.LVL24:
 176              	.L31:
 177 002a 013B     		subs	r3, r3, #1
 178              	.LVL25:
 179 002c 5A1C     		adds	r2, r3, #1
 180 002e 00F11400 		add	r0, r0, #20
 181              	.LVL26:
 182 0032 07D0     		beq	.L69
  95:../LibA5T1000/gcc/expect_send.c ****   {
  96:../LibA5T1000/gcc/expect_send.c ****     ps->p_expect = NULL;
 183              		.loc 1 96 0
 184 0034 0022     		movs	r2, #0
 185 0036 40F8142C 		str	r2, [r0, #-20]
ARM GAS  C:\Users\AHMED~1.ELE\AppData\Local\Temp\ccDsbZvl.s 			page 6


  97:../LibA5T1000/gcc/expect_send.c ****     ps->p_send   = NULL;
 186              		.loc 1 97 0
 187 003a 40F80C2C 		str	r2, [r0, #-12]
  98:../LibA5T1000/gcc/expect_send.c ****     ps->p_abort  = NULL;
 188              		.loc 1 98 0
 189 003e 40F8082C 		str	r2, [r0, #-8]
 190              	.LVL27:
 191 0042 F2E7     		b	.L31
 192              	.LVL28:
 193              	.L69:
 194 0044 019D     		ldr	r5, [sp, #4]
 195 0046 1434     		adds	r4, r4, #20
 196              	.LVL29:
 197 0048 1435     		adds	r5, r5, #20
 198              	.LVL30:
  99:../LibA5T1000/gcc/expect_send.c ****     ps++;
 100:../LibA5T1000/gcc/expect_send.c ****   }
 101:../LibA5T1000/gcc/expect_send.c ****   ps = ops;
 199              		.loc 1 101 0
 200 004a B146     		mov	r9, r6
 201              	.LVL31:
 202              	.L42:
 102:../LibA5T1000/gcc/expect_send.c ****   n   = a_n;
 103:../LibA5T1000/gcc/expect_send.c ****   
 104:../LibA5T1000/gcc/expect_send.c ****   while (n--)
 105:../LibA5T1000/gcc/expect_send.c ****   {
 106:../LibA5T1000/gcc/expect_send.c ****     if (a_s->p_abort)
 203              		.loc 1 106 0
 204 004c 54F8080C 		ldr	r0, [r4, #-8]
 205 0050 90B1     		cbz	r0, .L33
 107:../LibA5T1000/gcc/expect_send.c ****     {
 108:../LibA5T1000/gcc/expect_send.c ****       if ((p=(char*)os_malloc(strlen(a_s->p_abort)+1))== NULL)
 206              		.loc 1 108 0
 207 0052 FFF7FEFF 		bl	strlen
 208              	.LVL32:
 209 0056 411C     		adds	r1, r0, #1
 210 0058 9220     		movs	r0, #146
 211 005a FFF7FEFF 		bl	sys_func1
 212              	.LVL33:
 213 005e 28B9     		cbnz	r0, .L34
 214              	.LVL34:
 215              	.L36:
 109:../LibA5T1000/gcc/expect_send.c ****       {
 110:../LibA5T1000/gcc/expect_send.c ****         expect_send_release(&ops,a_n);
 216              		.loc 1 110 0
 217 0060 01A8     		add	r0, sp, #4
 218 0062 3146     		mov	r1, r6
 219 0064 FFF7FEFF 		bl	expect_send_release
 220              	.LVL35:
 221              	.L68:
 111:../LibA5T1000/gcc/expect_send.c ****         return NULL;
 222              		.loc 1 111 0
 223 0068 0020     		movs	r0, #0
 224 006a 4DE0     		b	.L29
 225              	.LVL36:
 226              	.L34:
 112:../LibA5T1000/gcc/expect_send.c ****       }
ARM GAS  C:\Users\AHMED~1.ELE\AppData\Local\Temp\ccDsbZvl.s 			page 7


 113:../LibA5T1000/gcc/expect_send.c ****       ps->p_abort = p;
 227              		.loc 1 113 0
 228 006c 45F8080C 		str	r0, [r5, #-8]
 114:../LibA5T1000/gcc/expect_send.c ****       strcpy(p,a_s->p_abort);
 229              		.loc 1 114 0
 230 0070 54F8081C 		ldr	r1, [r4, #-8]
 231 0074 FFF7FEFF 		bl	strcpy
 232              	.LVL37:
 233              	.L33:
 115:../LibA5T1000/gcc/expect_send.c ****     }
 116:../LibA5T1000/gcc/expect_send.c ****     
 117:../LibA5T1000/gcc/expect_send.c ****     if (a_s->p_send)
 234              		.loc 1 117 0
 235 0078 54F80C0C 		ldr	r0, [r4, #-12]
 236 007c 68B1     		cbz	r0, .L35
 118:../LibA5T1000/gcc/expect_send.c ****     {
 119:../LibA5T1000/gcc/expect_send.c ****       if ((p=(char*)os_malloc(strlen((char*)a_s->p_send)+1))== NULL)
 237              		.loc 1 119 0
 238 007e FFF7FEFF 		bl	strlen
 239              	.LVL38:
 240 0082 411C     		adds	r1, r0, #1
 241 0084 9220     		movs	r0, #146
 242 0086 FFF7FEFF 		bl	sys_func1
 243              	.LVL39:
 244 008a 0028     		cmp	r0, #0
 245 008c E8D0     		beq	.L36
 120:../LibA5T1000/gcc/expect_send.c ****       {
 121:../LibA5T1000/gcc/expect_send.c ****         expect_send_release(&ops,a_n);
 122:../LibA5T1000/gcc/expect_send.c ****         return NULL;
 123:../LibA5T1000/gcc/expect_send.c ****       }
 124:../LibA5T1000/gcc/expect_send.c ****       ps->p_send = (signed char *)p;
 246              		.loc 1 124 0
 247 008e 45F80C0C 		str	r0, [r5, #-12]
 125:../LibA5T1000/gcc/expect_send.c ****       strcpy(p,(char*)a_s->p_send);
 248              		.loc 1 125 0
 249 0092 54F80C1C 		ldr	r1, [r4, #-12]
 250 0096 FFF7FEFF 		bl	strcpy
 251              	.LVL40:
 252              	.L35:
 126:../LibA5T1000/gcc/expect_send.c ****     }
 127:../LibA5T1000/gcc/expect_send.c ****       
 128:../LibA5T1000/gcc/expect_send.c ****     if (a_s->p_expect)
 253              		.loc 1 128 0
 254 009a 54F8143C 		ldr	r3, [r4, #-20]
 255 009e 5BB3     		cbz	r3, .L37
 256 00a0 4FF00408 		mov	r8, #4
 257              	.L38:
 258              	.LVL41:
 129:../LibA5T1000/gcc/expect_send.c ****     {
 130:../LibA5T1000/gcc/expect_send.c ****       i = sizeof(char*);
 131:../LibA5T1000/gcc/expect_send.c ****       pp = a_s->p_expect;
 132:../LibA5T1000/gcc/expect_send.c ****       while (*pp++)
 259              		.loc 1 132 0
 260 00a4 53F804AB 		ldr	r10, [r3], #4
 261              	.LVL42:
 262 00a8 BAF1000F 		cmp	r10, #0
 263 00ac 02D0     		beq	.L70
ARM GAS  C:\Users\AHMED~1.ELE\AppData\Local\Temp\ccDsbZvl.s 			page 8


 133:../LibA5T1000/gcc/expect_send.c ****         i += sizeof(char*);
 264              		.loc 1 133 0
 265 00ae 08F10408 		add	r8, r8, #4
 266              	.LVL43:
 267 00b2 F7E7     		b	.L38
 268              	.L70:
 134:../LibA5T1000/gcc/expect_send.c ****       
 135:../LibA5T1000/gcc/expect_send.c ****       if ((pt=(char**)os_malloc(i))== NULL)
 269              		.loc 1 135 0
 270 00b4 9220     		movs	r0, #146
 271 00b6 4146     		mov	r1, r8
 272 00b8 FFF7FEFF 		bl	sys_func1
 273              	.LVL44:
 274 00bc 0746     		mov	r7, r0
 275 00be 0028     		cmp	r0, #0
 276 00c0 CED0     		beq	.L36
 136:../LibA5T1000/gcc/expect_send.c ****       {
 137:../LibA5T1000/gcc/expect_send.c ****         expect_send_release(&ops,a_n);
 138:../LibA5T1000/gcc/expect_send.c ****         return NULL;
 139:../LibA5T1000/gcc/expect_send.c ****       }
 140:../LibA5T1000/gcc/expect_send.c ****       memset(pt,0,i);   // set all null
 277              		.loc 1 140 0
 278 00c2 4246     		mov	r2, r8
 279 00c4 5146     		mov	r1, r10
 280 00c6 FFF7FEFF 		bl	memset
 281              	.LVL45:
 141:../LibA5T1000/gcc/expect_send.c ****       ps->p_expect = pt;
 282              		.loc 1 141 0
 283 00ca 45F8147C 		str	r7, [r5, #-20]
 142:../LibA5T1000/gcc/expect_send.c ****               
 143:../LibA5T1000/gcc/expect_send.c ****       pp = a_s->p_expect; 
 284              		.loc 1 143 0
 285 00ce 54F8148C 		ldr	r8, [r4, #-20]
 286              	.LVL46:
 287              	.L40:
 144:../LibA5T1000/gcc/expect_send.c ****       while (*pp)
 288              		.loc 1 144 0
 289 00d2 D8F80000 		ldr	r0, [r8]
 290 00d6 70B1     		cbz	r0, .L71
 145:../LibA5T1000/gcc/expect_send.c ****       {
 146:../LibA5T1000/gcc/expect_send.c ****         if ((p=(char*)os_malloc(strlen(*pp)+1))== NULL)
 291              		.loc 1 146 0
 292 00d8 FFF7FEFF 		bl	strlen
 293              	.LVL47:
 294 00dc 411C     		adds	r1, r0, #1
 295 00de 9220     		movs	r0, #146
 296 00e0 FFF7FEFF 		bl	sys_func1
 297              	.LVL48:
 298 00e4 0028     		cmp	r0, #0
 299 00e6 BBD0     		beq	.L36
 147:../LibA5T1000/gcc/expect_send.c ****         {
 148:../LibA5T1000/gcc/expect_send.c ****           expect_send_release(&ops,a_n);
 149:../LibA5T1000/gcc/expect_send.c ****           return NULL;
 150:../LibA5T1000/gcc/expect_send.c ****         }
 151:../LibA5T1000/gcc/expect_send.c ****         *pt++ = p;
 300              		.loc 1 151 0
 301 00e8 47F8040B 		str	r0, [r7], #4
ARM GAS  C:\Users\AHMED~1.ELE\AppData\Local\Temp\ccDsbZvl.s 			page 9


 302              	.LVL49:
 152:../LibA5T1000/gcc/expect_send.c ****         strcpy(p,*pp);
 303              		.loc 1 152 0
 304 00ec 58F8041B 		ldr	r1, [r8], #4
 305              	.LVL50:
 306 00f0 FFF7FEFF 		bl	strcpy
 307              	.LVL51:
 308 00f4 EDE7     		b	.L40
 309              	.LVL52:
 310              	.L71:
 153:../LibA5T1000/gcc/expect_send.c ****         pp++;
 154:../LibA5T1000/gcc/expect_send.c ****       }
 155:../LibA5T1000/gcc/expect_send.c ****       *pt = NULL;
 311              		.loc 1 155 0
 312 00f6 3860     		str	r0, [r7]
 313              	.LVL53:
 314              	.L37:
 104:../LibA5T1000/gcc/expect_send.c ****   {
 315              		.loc 1 104 0
 316 00f8 B9F10109 		subs	r9, r9, #1
 317              	.LVL54:
 318 00fc 04F11404 		add	r4, r4, #20
 319              	.LVL55:
 320 0100 05F11405 		add	r5, r5, #20
 321              	.LVL56:
 322 0104 A2D1     		bne	.L42
 156:../LibA5T1000/gcc/expect_send.c ****     }
 157:../LibA5T1000/gcc/expect_send.c ****     a_s++;
 158:../LibA5T1000/gcc/expect_send.c ****     ps++;
 159:../LibA5T1000/gcc/expect_send.c ****   }
 160:../LibA5T1000/gcc/expect_send.c ****   return ops;
 323              		.loc 1 160 0
 324 0106 0198     		ldr	r0, [sp, #4]
 325              	.LVL57:
 326              	.L29:
 161:../LibA5T1000/gcc/expect_send.c **** }
 327              		.loc 1 161 0
 328 0108 02B0     		add	sp, sp, #8
 329              		.cfi_def_cfa_offset 32
 330              		@ sp needed
 331 010a BDE8F087 		pop	{r4, r5, r6, r7, r8, r9, r10, pc}
 332              		.cfi_endproc
 333              	.LFE1:
 334              		.size	expect_send_alloc, .-expect_send_alloc
 335              		.text
 336              	.Letext0:
 337              		.file 2 "c:\\devtools\\gcc_v49_2014q4\\lib\\gcc\\arm-none-eabi\\4.9.3\\include\\stddef.h"
 338              		.file 3 "../LibA5T1000/common.h"
 339              		.file 4 "../LibA5T1000/basecall.h"
 340              		.file 5 "../LibA5T1000/system.h"
 341              		.file 6 "c:\\devtools\\gcc_v49_2014q4\\arm-none-eabi\\include\\string.h"