ARM GAS  C:\Users\AHMED~1.ELE\AppData\Local\Temp\ccgSQ7Y9.s 			page 1


   1              		.syntax unified
   2              		.cpu cortex-a5
   3              		.fpu softvfp
   4              		.eabi_attribute 20, 1
   5              		.eabi_attribute 21, 1
   6              		.eabi_attribute 23, 3
   7              		.eabi_attribute 24, 1
   8              		.eabi_attribute 25, 1
   9              		.eabi_attribute 26, 1
  10              		.eabi_attribute 30, 4
  11              		.eabi_attribute 34, 0
  12              		.eabi_attribute 18, 4
  13              		.thumb
  14              		.file	"Func.c"
  15              		.text
  16              	.Ltext0:
  17              		.cfi_sections	.debug_frame
  18              		.section	.text.DispStatusMsg,"ax",%progbits
  19              		.align	1
  20              		.thumb
  21              		.thumb_func
  22              		.type	DispStatusMsg, %function
  23              	DispStatusMsg:
  24              	.LFB3:
  25              		.file 1 "src/Func.c"
   1:src/Func.c    **** //-----------------------------------------------------------------------------
   2:src/Func.c    **** //  File          : func.c
   3:src/Func.c    **** //  Module        :
   4:src/Func.c    **** //  Description   : Include Merchant Functions.
   5:src/Func.c    **** //  Author        : Lewis
   6:src/Func.c    **** //  Notes         :
   7:src/Func.c    **** //
   8:src/Func.c    **** // ============================================================================
   9:src/Func.c    **** // | Naming conventions                                                       |
  10:src/Func.c    **** // | ~~~~~~~~~~~~~~~~~~                                                       |
  11:src/Func.c    **** // |        Struct define : Leading T                                         |
  12:src/Func.c    **** // |         Struct/Array : Leading s                                         |
  13:src/Func.c    **** // |             Constant : Leading K                                         |
  14:src/Func.c    **** // |      Global Variable : Leading g  (variable use outside one C file)      |
  15:src/Func.c    **** // |                                                                          |
  16:src/Func.c    **** // |   BYTE( 8 Bits) size : Leading b                                         |
  17:src/Func.c    **** // |   CHAR( 8 Bits) size : Leading c                                         |
  18:src/Func.c    **** // |   WORD(16 Bits) size : Leading w                                         |
  19:src/Func.c    **** // |  DWORD(32 Bits) size : Leading d                                         |
  20:src/Func.c    **** // |    int(32 Bits) size : Leading i                                         |
  21:src/Func.c    **** // | DDWORD(64 Bits) size : Leading dd                                        |
  22:src/Func.c    **** // |              Pointer : Leading p                                         |
  23:src/Func.c    **** // |                                                                          |
  24:src/Func.c    **** // |    Function argument : Leading a                                         |
  25:src/Func.c    **** // |       Local Variable : All lower case                                    |
  26:src/Func.c    **** // |                                                                          |
  27:src/Func.c    **** // | Examples:                                                                |
  28:src/Func.c    **** // |                Array : Leading s, (sb = arrary of byte, etc)             |
  29:src/Func.c    **** // |              Pointer : Leading p, (pb = pointer of byte, etc)            |
  30:src/Func.c    **** // ============================================================================
  31:src/Func.c    **** //
  32:src/Func.c    **** //  Date          Who         Action
ARM GAS  C:\Users\AHMED~1.ELE\AppData\Local\Temp\ccgSQ7Y9.s 			page 2


  33:src/Func.c    **** //  ------------  ----------- -------------------------------------------------
  34:src/Func.c    **** //  29 Sept 2008  Lewis       Initial Version.
  35:src/Func.c    **** //-----------------------------------------------------------------------------
  36:src/Func.c    **** #include <string.h>
  37:src/Func.c    **** #include <stdio.h>
  38:src/Func.c    **** #include "util.h"
  39:src/Func.c    **** #include "sysutil.h"
  40:src/Func.c    **** #include "message.h"
  41:src/Func.c    **** #include "constant.h"
  42:src/Func.c    **** #include "corevar.h"
  43:src/Func.c    **** #include "chkoptn.h"
  44:src/Func.c    **** #include "input.h"
  45:src/Func.c    **** #include "lptutil.h"
  46:src/Func.c    **** #include "print.h"
  47:src/Func.c    **** #include "tranutil.h"
  48:src/Func.c    **** #include "record.h"
  49:src/Func.c    **** #include "settle.h"
  50:src/Func.c    **** #include "menu.h"
  51:src/Func.c    **** #include "testrans.h"
  52:src/Func.c    **** #include "debugstis.h"
  53:src/Func.c    **** #include "testcfg.h"
  54:src/Func.c    **** #include "adjust.h"
  55:src/Func.c    **** #include "func.h"
  56:src/Func.c    **** #include "keytrans.h"
  57:src/Func.c    **** #include "tpadtest.h"
  58:src/Func.c    **** #include "camtest.h"
  59:src/Func.c    **** #include "network.h"
  60:src/Func.c    **** 
  61:src/Func.c    **** //-----------------------------------------------------------------------------
  62:src/Func.c    **** //  Constants
  63:src/Func.c    **** //-----------------------------------------------------------------------------
  64:src/Func.c    **** static const BYTE KAppvCode[]  = {"APPR CODE:"};
  65:src/Func.c    **** 
  66:src/Func.c    **** // Default manager Function Menu
  67:src/Func.c    **** static const struct MENU_ITEM KFuncItem [] =
  68:src/Func.c    **** {
  69:src/Func.c    ****   {  1, "Display Batch"},
  70:src/Func.c    ****   {  5, "Display Total"},
  71:src/Func.c    ****   {  6, "TMS FTP Setup"},       //29-09-16 JC ++
  72:src/Func.c    ****   {  7, "TMS FTP Dnload"},      //29-09-16 JC ++
  73:src/Func.c    ****   {  9, "Clear Reversal"},
  74:src/Func.c    ****   { 21, "Trans Detail"},
  75:src/Func.c    ****  // { 22, "Adjust Tips"},
  76:src/Func.c    ****  { 50, "Set Demo EDC"},
  77:src/Func.c    ****  { 51, "Set Demo CTL"},
  78:src/Func.c    ****  // { 52, "Load TMK & Keys"},
  79:src/Func.c    ****  // { 53, "Encr Data"},
  80:src/Func.c    ****  // { 54, "Decr Data"},
  81:src/Func.c    **** //  { 55, "Get PIN"},
  82:src/Func.c    ****  // { 56, "Reset Keys"},
  83:src/Func.c    ****  // { 57, "Set Dukpt Host Idx"},
  84:src/Func.c    **** //  { 58, "Load Dukpt Keys"},
  85:src/Func.c    ****  // { 59, "Get Dukpt PIN"},
  86:src/Func.c    ****  // { 60, "Reset Dukpt Keys"},
  87:src/Func.c    ****  // { 61, "ICC TMK Inject"},
  88:src/Func.c    **** //  { 62, "Signpad Test"},
  89:src/Func.c    ****  // { 63, "Barcode Test"},
ARM GAS  C:\Users\AHMED~1.ELE\AppData\Local\Temp\ccgSQ7Y9.s 			page 3


  90:src/Func.c    ****   { 64, "Reboot"},
  91:src/Func.c    ****   { 65, "Config report"},
  92:src/Func.c    ****   { 66, "Show IP Addr"},
  93:src/Func.c    ****   #if (LPT_SUPPORT|TMLPT_SUPPORT)    // Conditional Compile for Printer support
  94:src/Func.c    ****   { 72, "Reprint Last"},
  95:src/Func.c    ****   { 73, "Reprint Any"},
  96:src/Func.c    ****   { 74, "Summary Rep"},
  97:src/Func.c    ****   { 75, "Details Rep"},
  98:src/Func.c    ****   #endif                    // PRINTER_SUPPORT
  99:src/Func.c    ****   { 96, "Test Trans"},
 100:src/Func.c    ****   { 99, "Clear Batch"},
 101:src/Func.c    ****   {-1, NULL},
 102:src/Func.c    **** };
 103:src/Func.c    **** 
 104:src/Func.c    **** static const struct MENU_DAT KFuncMenu  = {
 105:src/Func.c    ****   "EDC Functions",
 106:src/Func.c    ****   KFuncItem,
 107:src/Func.c    **** };
 108:src/Func.c    **** //*****************************************************************************
 109:src/Func.c    **** //  Function        : DispTransData
 110:src/Func.c    **** //  Description     : Display transaction record.
 111:src/Func.c    **** //  Input           : N/A
 112:src/Func.c    **** //  Return          : N/A
 113:src/Func.c    **** //  Note            : N/A
 114:src/Func.c    **** //  Globals Changed : N/A
 115:src/Func.c    **** //*****************************************************************************
 116:src/Func.c    **** static void DispTransData(struct TXN_RECORD *aRec)
 117:src/Func.c    **** {
 118:src/Func.c    ****   static const BYTE KTraceNum[]   = {"TRACE NUM:"};
 119:src/Func.c    ****   static const BYTE KVoided[]     = {"VOIDED "};
 120:src/Func.c    ****   BYTE buffer[MW_MAX_LINESIZE+1], *ptr;
 121:src/Func.c    ****   DWORD var_j;
 122:src/Func.c    **** 
 123:src/Func.c    ****   DispLineMW(KTraceNum, MW_LINE1, MW_CLRDISP|MW_SMFONT);
 124:src/Func.c    ****   split(buffer,aRec->sb_trace_no, 3);
 125:src/Func.c    ****   buffer[6] = 0;
 126:src/Func.c    ****   DispLineMW(buffer, MW_LINE1, MW_RIGHT|MW_SMFONT);
 127:src/Func.c    ****   if (aRec->b_trans_status & ADJUSTED)
 128:src/Func.c    ****     var_j = ADJUST;
 129:src/Func.c    ****   else
 130:src/Func.c    ****     var_j = aRec->b_trans;
 131:src/Func.c    **** 
 132:src/Func.c    ****   if ((aRec->b_trans_status & VOIDED) != 0) {
 133:src/Func.c    ****     memcpy(buffer, KVoided, sizeof(KVoided));
 134:src/Func.c    ****     DispLineMW(buffer, MW_LINE2, MW_SMFONT);
 135:src/Func.c    ****   }
 136:src/Func.c    ****   ptr = buffer;
 137:src/Func.c    ****   memcpy(ptr, GetConstMsg(KTransHeader[var_j])+4, 12);
 138:src/Func.c    ****   ptr += 12;
 139:src/Func.c    ****   *ptr++ = 0;
 140:src/Func.c    ****   DispLineMW(buffer, MW_LINE2, MW_RIGHT|MW_SMFONT);
 141:src/Func.c    **** 
 142:src/Func.c    ****   DispAmount(aRec->dd_amount, MW_LINE3, MW_SMFONT);
 143:src/Func.c    **** 
 144:src/Func.c    ****   switch (aRec->b_entry_mode) {
 145:src/Func.c    ****     case ICC:
 146:src/Func.c    ****       buffer[0] = 'C';
ARM GAS  C:\Users\AHMED~1.ELE\AppData\Local\Temp\ccgSQ7Y9.s 			page 4


 147:src/Func.c    ****       break;
 148:src/Func.c    ****     case MANUAL:
 149:src/Func.c    ****       buffer[0] = 'M';
 150:src/Func.c    ****       break;
 151:src/Func.c    ****     case SWIPE:
 152:src/Func.c    ****       buffer[0] = 'S';
 153:src/Func.c    ****       break;
 154:src/Func.c    ****     case FALLBACK:
 155:src/Func.c    ****       buffer[0] = 'F';
 156:src/Func.c    ****       break;
 157:src/Func.c    ****     case CONTACTLESS:
 158:src/Func.c    ****       buffer[0] = 'T';
 159:src/Func.c    ****       break;
 160:src/Func.c    ****     default:
 161:src/Func.c    ****       buffer[0] = ' ';
 162:src/Func.c    ****       break;
 163:src/Func.c    ****   }
 164:src/Func.c    ****   split(&buffer[1],aRec->sb_pan, 10);
 165:src/Func.c    ****   var_j = (BYTE) fndb(&buffer[1], 'F', 19);
 166:src/Func.c    ****   if (MaskCardNo())
 167:src/Func.c    ****     memset(&buffer[7], 'X', 6);
 168:src/Func.c    ****   buffer[var_j+1] = 0;
 169:src/Func.c    ****   DispLineMW(buffer, MW_LINE4, MW_CLREOL|MW_SPFONT);
 170:src/Func.c    **** }
 171:src/Func.c    **** //*****************************************************************************
 172:src/Func.c    **** //  Function        : DispReversal
 173:src/Func.c    **** //  Description     : Display reversal batch record.
 174:src/Func.c    **** //  Input           : N/A
 175:src/Func.c    **** //  Return          : N/A
 176:src/Func.c    **** //  Note            : N/A
 177:src/Func.c    **** //  Globals Changed : N/A
 178:src/Func.c    **** //*****************************************************************************
 179:src/Func.c    **** void DispReversal(void)
 180:src/Func.c    **** {
 181:src/Func.c    ****   static const BYTE KTraceNum[] = {"TRACE NUM:"};
 182:src/Func.c    ****   static const BYTE KVoided[]   = {"VOIDED "};
 183:src/Func.c    ****   BYTE i, var_j;
 184:src/Func.c    ****   BYTE tmp[MW_MAX_LINESIZE+1];
 185:src/Func.c    ****   BOOLEAN no_reversal;
 186:src/Func.c    ****   WORD max_acq = APM_GetAcqCount();
 187:src/Func.c    **** 
 188:src/Func.c    ****   no_reversal = TRUE;
 189:src/Func.c    ****   for (i=0;i<max_acq; i++) {
 190:src/Func.c    ****     if (APM_GetPending(i) != REV_PENDING)
 191:src/Func.c    ****       continue;
 192:src/Func.c    ****     APM_GetAcqTbl(i, &STIS_ACQ_TBL(0));
 193:src/Func.c    ****     if (!CorrectHost(GetHostType(0)))
 194:src/Func.c    ****       continue;
 195:src/Func.c    **** 
 196:src/Func.c    ****     no_reversal = FALSE;
 197:src/Func.c    ****     APM_GetRevRec(i, &RECORD_BUF,sizeof(RECORD_BUF));
 198:src/Func.c    **** 
 199:src/Func.c    ****     DispLineMW("REVERSAL", MW_LINE1, MW_REVERSE|MW_CENTER|MW_SMFONT);
 200:src/Func.c    ****     DispLineMW("HOST: ", MW_LINE2, MW_SMFONT);
 201:src/Func.c    ****     memcpy(tmp, STIS_ACQ_TBL(0).sb_name, 10);
 202:src/Func.c    ****     tmp[10] = 0;
 203:src/Func.c    ****     DispLineMW(tmp, MW_LINE2+6, MW_SMFONT);
ARM GAS  C:\Users\AHMED~1.ELE\AppData\Local\Temp\ccgSQ7Y9.s 			page 5


 204:src/Func.c    ****     DispLineMW(KTraceNum, MW_LINE3, MW_SMFONT);
 205:src/Func.c    ****     split(tmp,RECORD_BUF.sb_roc_no, 3);
 206:src/Func.c    ****     tmp[6]= 0;
 207:src/Func.c    ****     DispLineMW(tmp, MW_LINE3+10, MW_SMFONT);
 208:src/Func.c    ****     if (RECORD_BUF.b_trans_status & ADJUSTED)
 209:src/Func.c    ****       var_j = ADJUST;
 210:src/Func.c    ****     else
 211:src/Func.c    ****       var_j = RECORD_BUF.b_trans;
 212:src/Func.c    ****     memcpy(tmp, GetConstMsg(KTransHeader[var_j]), 16);
 213:src/Func.c    ****     tmp[16]=0;
 214:src/Func.c    ****     DispLineMW(&tmp[4], MW_LINE4+4, MW_SMFONT);
 215:src/Func.c    **** 
 216:src/Func.c    ****     if ((RECORD_BUF.b_trans_status & VOIDED) != 0) {
 217:src/Func.c    ****       DispLineMW(KVoided, MW_LINE4, MW_SMFONT);
 218:src/Func.c    ****     }
 219:src/Func.c    ****     DispAmount(RECORD_BUF.dd_amount, MW_LINE5, MW_SMFONT);
 220:src/Func.c    **** 
 221:src/Func.c    ****     split(tmp,RECORD_BUF.sb_pan, 10);
 222:src/Func.c    ****     var_j = (BYTE) fndb(tmp, 'F', 19);
 223:src/Func.c    ****     tmp[var_j] = 0;
 224:src/Func.c    ****     DispLineMW(tmp, MW_LINE6, MW_RIGHT|MW_SPFONT);
 225:src/Func.c    **** 
 226:src/Func.c    ****     ConvDateTime(tmp, &RECORD_BUF.s_dtg, FALSE);
 227:src/Func.c    ****     tmp[16] = 0;
 228:src/Func.c    ****     DispLineMW(tmp, MW_LINE7, MW_SMFONT);
 229:src/Func.c    ****     memcpy(tmp, RECORD_BUF.sb_ecr_ref, 16);
 230:src/Func.c    ****     DispLineMW(tmp, MW_LINE8, MW_SMFONT);
 231:src/Func.c    ****     APM_WaitKey(KBD_TIMEOUT,0);
 232:src/Func.c    ****   }
 233:src/Func.c    ****   if (no_reversal) {
 234:src/Func.c    ****     DispClrBelowMW(MW_LINE3);
 235:src/Func.c    ****     Disp2x16Msg(GetConstMsg(EDC_FN_NO_REV), MW_LINE3, MW_BIGFONT);
 236:src/Func.c    ****     APM_WaitKey(KBD_TIMEOUT,0);
 237:src/Func.c    ****   }
 238:src/Func.c    **** }
 239:src/Func.c    **** //*****************************************************************************
 240:src/Func.c    **** //  Function        : ClearReversal
 241:src/Func.c    **** //  Description     : Clear acquirer reversal flag.
 242:src/Func.c    **** //  Input           : N/A
 243:src/Func.c    **** //  Return          : N/A
 244:src/Func.c    **** //  Note            : N/A
 245:src/Func.c    **** //  Globals Changed : N/A
 246:src/Func.c    **** //*****************************************************************************
 247:src/Func.c    **** void ClearReversal(void)
 248:src/Func.c    **** {
 249:src/Func.c    ****   int i;
 250:src/Func.c    **** 
 251:src/Func.c    ****   DispLineMW("CLEAR REVERSAL", MW_LINE1, MW_CLRDISP|MW_REVERSE|MW_CENTER|MW_BIGFONT);
 252:src/Func.c    ****   if (!APM_GetAccessCode())
 253:src/Func.c    ****     return;
 254:src/Func.c    **** 
 255:src/Func.c    ****   while (1) {
 256:src/Func.c    ****     if ((i = APM_SelectAcquirer(FALSE)) == -1)
 257:src/Func.c    ****       return;
 258:src/Func.c    ****     DispLineMW("CLEAR REVERSAL", MW_LINE1, MW_CLRDISP|MW_REVERSE|MW_CENTER|MW_BIGFONT);
 259:src/Func.c    ****     if (APM_GetPending(i) != REV_PENDING) {
 260:src/Func.c    ****       Disp2x16Msg(GetConstMsg(EDC_FN_NO_REV), MW_LINE3, MW_CENTER|MW_BIGFONT);
ARM GAS  C:\Users\AHMED~1.ELE\AppData\Local\Temp\ccgSQ7Y9.s 			page 6


 261:src/Func.c    ****       APM_WaitKey(KBD_TIMEOUT,0);
 262:src/Func.c    ****       break;
 263:src/Func.c    ****     }
 264:src/Func.c    ****     else {
 265:src/Func.c    ****       DispLineMW(GetConstMsg(EDC_FN_CLR_REV), MW_LINE5, MW_CENTER|MW_BIGFONT);
 266:src/Func.c    ****       switch (APM_YesNo()) {
 267:src/Func.c    ****         case 0 :
 268:src/Func.c    ****           return;
 269:src/Func.c    ****         case 2 :
 270:src/Func.c    ****           APM_SetPending(i, NO_PENDING);
 271:src/Func.c    ****           DispLineMW(GetConstMsg(EDC_FN_REV_CLEAR), MW_LINE5, MW_CENTER|MW_BIGFONT);
 272:src/Func.c    ****           ErrorDelay();
 273:src/Func.c    ****       }
 274:src/Func.c    ****     }
 275:src/Func.c    ****   }
 276:src/Func.c    **** }
 277:src/Func.c    **** //*****************************************************************************
 278:src/Func.c    **** //  Function        : DispStatusMsg
 279:src/Func.c    **** //  Description     : Display status message
 280:src/Func.c    **** //  Input           : N/A
 281:src/Func.c    **** //  Return          : N/A
 282:src/Func.c    **** //  Note            : N/A
 283:src/Func.c    **** //  Globals Changed : N/A
 284:src/Func.c    **** //*****************************************************************************
 285:src/Func.c    **** static void DispStatusMsg(BYTE *aMsg)
 286:src/Func.c    **** {
  26              		.loc 1 286 0
  27              		.cfi_startproc
  28              		@ args = 0, pretend = 0, frame = 0
  29              		@ frame_needed = 0, uses_anonymous_args = 0
  30              	.LVL0:
  31 0000 08B5     		push	{r3, lr}
  32              		.cfi_def_cfa_offset 8
  33              		.cfi_offset 3, -8
  34              		.cfi_offset 14, -4
 287:src/Func.c    ****   Disp2x16Msg(aMsg, MW_LINE5, MW_CLRDISP|MW_CENTER|MW_BIGFONT);
  35              		.loc 1 287 0
  36 0002 4FF4A061 		mov	r1, #1280
  37 0006 41F28202 		movw	r2, #4226
  38 000a FFF7FEFF 		bl	Disp2x16Msg
  39              	.LVL1:
 288:src/Func.c    ****   Delay1Sec(1, 1);
  40              		.loc 1 288 0
  41 000e 0120     		movs	r0, #1
  42 0010 0146     		mov	r1, r0
 289:src/Func.c    **** }
  43              		.loc 1 289 0
  44 0012 BDE80840 		pop	{r3, lr}
  45              		.cfi_restore 14
  46              		.cfi_restore 3
  47              		.cfi_def_cfa_offset 0
 288:src/Func.c    ****   Delay1Sec(1, 1);
  48              		.loc 1 288 0
  49 0016 FFF7FEBF 		b	Delay1Sec
  50              	.LVL2:
  51              		.cfi_endproc
  52              	.LFE3:
ARM GAS  C:\Users\AHMED~1.ELE\AppData\Local\Temp\ccgSQ7Y9.s 			page 7


  53              		.size	DispStatusMsg, .-DispStatusMsg
  54              		.section	.text.DispTransData,"ax",%progbits
  55              		.align	1
  56              		.thumb
  57              		.thumb_func
  58              		.type	DispTransData, %function
  59              	DispTransData:
  60              	.LFB0:
 117:src/Func.c    ****   static const BYTE KTraceNum[]   = {"TRACE NUM:"};
  61              		.loc 1 117 0
  62              		.cfi_startproc
  63              		@ args = 0, pretend = 0, frame = 32
  64              		@ frame_needed = 0, uses_anonymous_args = 0
  65              	.LVL3:
  66 0000 F0B5     		push	{r4, r5, r6, r7, lr}
  67              		.cfi_def_cfa_offset 20
  68              		.cfi_offset 4, -20
  69              		.cfi_offset 5, -16
  70              		.cfi_offset 6, -12
  71              		.cfi_offset 7, -8
  72              		.cfi_offset 14, -4
  73              	.LBB8:
 123:src/Func.c    ****   split(buffer,aRec->sb_trace_no, 3);
  74              		.loc 1 123 0
  75 0002 0B21     		movs	r1, #11
  76              	.LBE8:
 117:src/Func.c    ****   static const BYTE KTraceNum[]   = {"TRACE NUM:"};
  77              		.loc 1 117 0
  78 0004 8BB0     		sub	sp, sp, #44
  79              		.cfi_def_cfa_offset 64
 117:src/Func.c    ****   static const BYTE KTraceNum[]   = {"TRACE NUM:"};
  80              		.loc 1 117 0
  81 0006 0446     		mov	r4, r0
  82              	.LBB9:
 123:src/Func.c    ****   split(buffer,aRec->sb_trace_no, 3);
  83              		.loc 1 123 0
  84 0008 9220     		movs	r0, #146
  85              	.LVL4:
  86 000a FFF7FEFF 		bl	sys_func1
  87              	.LVL5:
  88 000e 0546     		mov	r5, r0
  89 0010 90B1     		cbz	r0, .L3
 123:src/Func.c    ****   split(buffer,aRec->sb_trace_no, 3);
  90              		.loc 1 123 0 is_stmt 0 discriminator 1
  91 0012 7249     		ldr	r1, .L41
  92 0014 0A22     		movs	r2, #10
  93 0016 FFF7FEFF 		bl	memcpy
  94              	.LVL6:
  95 001a 0023     		movs	r3, #0
  96 001c 2521     		movs	r1, #37
  97 001e AB72     		strb	r3, [r5, #10]
  98 0020 8023     		movs	r3, #128
  99 0022 0F20     		movs	r0, #15
 100 0024 0093     		str	r3, [sp]
 101 0026 2A46     		mov	r2, r5
 102 0028 4FF48073 		mov	r3, #256
 103 002c FFF7FEFF 		bl	lib_app_call
ARM GAS  C:\Users\AHMED~1.ELE\AppData\Local\Temp\ccgSQ7Y9.s 			page 8


 104              	.LVL7:
 105 0030 9420     		movs	r0, #148
 106 0032 2946     		mov	r1, r5
 107 0034 FFF7FEFF 		bl	sys_func1
 108              	.LVL8:
 109              	.L3:
 110              	.LBE9:
 124:src/Func.c    ****   buffer[6] = 0;
 111              		.loc 1 124 0 is_stmt 1
 112 0038 E11C     		adds	r1, r4, #3
 113 003a 0322     		movs	r2, #3
 114 003c 03A8     		add	r0, sp, #12
 125:src/Func.c    ****   DispLineMW(buffer, MW_LINE1, MW_RIGHT|MW_SMFONT);
 115              		.loc 1 125 0
 116 003e 0027     		movs	r7, #0
 124:src/Func.c    ****   buffer[6] = 0;
 117              		.loc 1 124 0
 118 0040 FFF7FEFF 		bl	split
 119              	.LVL9:
 120              	.LBB10:
 126:src/Func.c    ****   if (aRec->b_trans_status & ADJUSTED)
 121              		.loc 1 126 0
 122 0044 03A8     		add	r0, sp, #12
 123              	.LBE10:
 125:src/Func.c    ****   DispLineMW(buffer, MW_LINE1, MW_RIGHT|MW_SMFONT);
 124              		.loc 1 125 0
 125 0046 8DF81270 		strb	r7, [sp, #18]
 126              	.LBB11:
 126:src/Func.c    ****   if (aRec->b_trans_status & ADJUSTED)
 127              		.loc 1 126 0
 128 004a FFF7FEFF 		bl	strlen
 129              	.LVL10:
 130 004e 0646     		mov	r6, r0
 131              	.LVL11:
 132 0050 711C     		adds	r1, r6, #1
 133 0052 9220     		movs	r0, #146
 134              	.LVL12:
 135 0054 FFF7FEFF 		bl	sys_func1
 136              	.LVL13:
 137 0058 0546     		mov	r5, r0
 138              	.LVL14:
 139 005a 88B1     		cbz	r0, .L4
 126:src/Func.c    ****   if (aRec->b_trans_status & ADJUSTED)
 140              		.loc 1 126 0 is_stmt 0 discriminator 1
 141 005c 03A9     		add	r1, sp, #12
 142 005e 3246     		mov	r2, r6
 143 0060 FFF7FEFF 		bl	memcpy
 144              	.LVL15:
 145 0064 0123     		movs	r3, #1
 146 0066 AF55     		strb	r7, [r5, r6]
 147 0068 2521     		movs	r1, #37
 148 006a 0093     		str	r3, [sp]
 149 006c 0F20     		movs	r0, #15
 150 006e 2A46     		mov	r2, r5
 151 0070 4FF48073 		mov	r3, #256
 152 0074 FFF7FEFF 		bl	lib_app_call
 153              	.LVL16:
ARM GAS  C:\Users\AHMED~1.ELE\AppData\Local\Temp\ccgSQ7Y9.s 			page 9


 154 0078 9420     		movs	r0, #148
 155 007a 2946     		mov	r1, r5
 156 007c FFF7FEFF 		bl	sys_func1
 157              	.LVL17:
 158              	.L4:
 159              	.LBE11:
 127:src/Func.c    ****     var_j = ADJUST;
 160              		.loc 1 127 0 is_stmt 1
 161 0080 A378     		ldrb	r3, [r4, #2]	@ zero_extendqisi2
 162 0082 9A06     		lsls	r2, r3, #26
 128:src/Func.c    ****   else
 163              		.loc 1 128 0
 164 0084 4CBF     		ite	mi
 165 0086 0B27     		movmi	r7, #11
 130:src/Func.c    **** 
 166              		.loc 1 130 0
 167 0088 2778     		ldrbpl	r7, [r4]	@ zero_extendqisi2
 168              	.LVL18:
 132:src/Func.c    ****     memcpy(buffer, KVoided, sizeof(KVoided));
 169              		.loc 1 132 0
 170 008a DB06     		lsls	r3, r3, #27
 171 008c 20D5     		bpl	.L7
 133:src/Func.c    ****     DispLineMW(buffer, MW_LINE2, MW_SMFONT);
 172              		.loc 1 133 0
 173 008e 5449     		ldr	r1, .L41+4
 174 0090 0822     		movs	r2, #8
 175 0092 03A8     		add	r0, sp, #12
 176 0094 FFF7FEFF 		bl	memcpy
 177              	.LVL19:
 178              	.LBB12:
 134:src/Func.c    ****   }
 179              		.loc 1 134 0
 180 0098 03A8     		add	r0, sp, #12
 181 009a FFF7FEFF 		bl	strlen
 182              	.LVL20:
 183 009e 0646     		mov	r6, r0
 184              	.LVL21:
 185 00a0 711C     		adds	r1, r6, #1
 186 00a2 9220     		movs	r0, #146
 187              	.LVL22:
 188 00a4 FFF7FEFF 		bl	sys_func1
 189              	.LVL23:
 190 00a8 0546     		mov	r5, r0
 191              	.LVL24:
 192 00aa 88B1     		cbz	r0, .L7
 134:src/Func.c    ****   }
 193              		.loc 1 134 0 is_stmt 0 discriminator 1
 194 00ac 03A9     		add	r1, sp, #12
 195 00ae 3246     		mov	r2, r6
 196 00b0 FFF7FEFF 		bl	memcpy
 197              	.LVL25:
 198 00b4 0023     		movs	r3, #0
 199 00b6 2521     		movs	r1, #37
 200 00b8 AB55     		strb	r3, [r5, r6]
 201 00ba 0F20     		movs	r0, #15
 202 00bc 0093     		str	r3, [sp]
 203 00be 2A46     		mov	r2, r5
ARM GAS  C:\Users\AHMED~1.ELE\AppData\Local\Temp\ccgSQ7Y9.s 			page 10


 204 00c0 4FF40073 		mov	r3, #512
 205 00c4 FFF7FEFF 		bl	lib_app_call
 206              	.LVL26:
 207 00c8 9420     		movs	r0, #148
 208 00ca 2946     		mov	r1, r5
 209 00cc FFF7FEFF 		bl	sys_func1
 210              	.LVL27:
 211              	.L7:
 212              	.LBE12:
 137:src/Func.c    ****   ptr += 12;
 213              		.loc 1 137 0 is_stmt 1
 214 00d0 444B     		ldr	r3, .L41+8
 215 00d2 D85D     		ldrb	r0, [r3, r7]	@ zero_extendqisi2
 216 00d4 FFF7FEFF 		bl	GetConstMsg
 217              	.LVL28:
 139:src/Func.c    ****   DispLineMW(buffer, MW_LINE2, MW_RIGHT|MW_SMFONT);
 218              		.loc 1 139 0
 219 00d8 0027     		movs	r7, #0
 220              	.LVL29:
 137:src/Func.c    ****   ptr += 12;
 221              		.loc 1 137 0
 222 00da 0C22     		movs	r2, #12
 223 00dc 011D     		adds	r1, r0, #4
 224 00de 03A8     		add	r0, sp, #12
 225              	.LVL30:
 226 00e0 FFF7FEFF 		bl	memcpy
 227              	.LVL31:
 228              	.LBB13:
 140:src/Func.c    **** 
 229              		.loc 1 140 0
 230 00e4 03A8     		add	r0, sp, #12
 231              	.LBE13:
 139:src/Func.c    ****   DispLineMW(buffer, MW_LINE2, MW_RIGHT|MW_SMFONT);
 232              		.loc 1 139 0
 233 00e6 8DF81870 		strb	r7, [sp, #24]
 234              	.LBB14:
 140:src/Func.c    **** 
 235              		.loc 1 140 0
 236 00ea FFF7FEFF 		bl	strlen
 237              	.LVL32:
 238 00ee 0646     		mov	r6, r0
 239              	.LVL33:
 240 00f0 711C     		adds	r1, r6, #1
 241 00f2 9220     		movs	r0, #146
 242              	.LVL34:
 243 00f4 FFF7FEFF 		bl	sys_func1
 244              	.LVL35:
 245 00f8 0546     		mov	r5, r0
 246 00fa 88B1     		cbz	r0, .L9
 140:src/Func.c    **** 
 247              		.loc 1 140 0 is_stmt 0 discriminator 1
 248 00fc 03A9     		add	r1, sp, #12
 249 00fe 3246     		mov	r2, r6
 250 0100 FFF7FEFF 		bl	memcpy
 251              	.LVL36:
 252 0104 0123     		movs	r3, #1
 253 0106 AF55     		strb	r7, [r5, r6]
ARM GAS  C:\Users\AHMED~1.ELE\AppData\Local\Temp\ccgSQ7Y9.s 			page 11


 254 0108 2521     		movs	r1, #37
 255 010a 0093     		str	r3, [sp]
 256 010c 0F20     		movs	r0, #15
 257 010e 2A46     		mov	r2, r5
 258 0110 4FF40073 		mov	r3, #512
 259 0114 FFF7FEFF 		bl	lib_app_call
 260              	.LVL37:
 261 0118 9420     		movs	r0, #148
 262 011a 2946     		mov	r1, r5
 263 011c FFF7FEFF 		bl	sys_func1
 264              	.LVL38:
 265              	.L9:
 266              	.LBE14:
 142:src/Func.c    **** 
 267              		.loc 1 142 0 is_stmt 1
 268 0120 0023     		movs	r3, #0
 269 0122 D4E90601 		ldrd	r0, [r4, #24]
 270 0126 4FF44072 		mov	r2, #768
 271 012a FFF7FEFF 		bl	DispAmount
 272              	.LVL39:
 144:src/Func.c    ****     case ICC:
 273              		.loc 1 144 0
 274 012e 94F83430 		ldrb	r3, [r4, #52]	@ zero_extendqisi2
 275 0132 463B     		subs	r3, r3, #70
 276 0134 0E2B     		cmp	r3, #14
 277 0136 13D8     		bhi	.L10
 278 0138 DFE803F0 		tbb	[pc, r3]
 279              	.L12:
 280 013c 0E       		.byte	(.L11-.L12)/2
 281 013d 12       		.byte	(.L10-.L12)/2
 282 013e 12       		.byte	(.L10-.L12)/2
 283 013f 08       		.byte	(.L13-.L12)/2
 284 0140 12       		.byte	(.L10-.L12)/2
 285 0141 12       		.byte	(.L10-.L12)/2
 286 0142 12       		.byte	(.L10-.L12)/2
 287 0143 0A       		.byte	(.L14-.L12)/2
 288 0144 12       		.byte	(.L10-.L12)/2
 289 0145 12       		.byte	(.L10-.L12)/2
 290 0146 12       		.byte	(.L10-.L12)/2
 291 0147 12       		.byte	(.L10-.L12)/2
 292 0148 12       		.byte	(.L10-.L12)/2
 293 0149 0C       		.byte	(.L15-.L12)/2
 294 014a 10       		.byte	(.L16-.L12)/2
 295 014b 00       		.p2align 1
 296              	.L13:
 146:src/Func.c    ****       break;
 297              		.loc 1 146 0
 298 014c 4323     		movs	r3, #67
 299 014e 08E0     		b	.L39
 300              	.L14:
 149:src/Func.c    ****       break;
 301              		.loc 1 149 0
 302 0150 4D23     		movs	r3, #77
 303 0152 06E0     		b	.L39
 304              	.L15:
 152:src/Func.c    ****       break;
 305              		.loc 1 152 0
ARM GAS  C:\Users\AHMED~1.ELE\AppData\Local\Temp\ccgSQ7Y9.s 			page 12


 306 0154 5323     		movs	r3, #83
 307 0156 04E0     		b	.L39
 308              	.L11:
 155:src/Func.c    ****       break;
 309              		.loc 1 155 0
 310 0158 4623     		movs	r3, #70
 311 015a 02E0     		b	.L39
 312              	.L16:
 158:src/Func.c    ****       break;
 313              		.loc 1 158 0
 314 015c 5423     		movs	r3, #84
 315 015e 00E0     		b	.L39
 316              	.L10:
 161:src/Func.c    ****       break;
 317              		.loc 1 161 0
 318 0160 2023     		movs	r3, #32
 319              	.L39:
 164:src/Func.c    ****   var_j = (BYTE) fndb(&buffer[1], 'F', 19);
 320              		.loc 1 164 0
 321 0162 0DF10D05 		add	r5, sp, #13
 322              	.LVL40:
 323 0166 04F10A01 		add	r1, r4, #10
 324 016a 2846     		mov	r0, r5
 325 016c 0A22     		movs	r2, #10
 161:src/Func.c    ****       break;
 326              		.loc 1 161 0
 327 016e 8DF80C30 		strb	r3, [sp, #12]
 164:src/Func.c    ****   var_j = (BYTE) fndb(&buffer[1], 'F', 19);
 328              		.loc 1 164 0
 329 0172 FFF7FEFF 		bl	split
 330              	.LVL41:
 165:src/Func.c    ****   if (MaskCardNo())
 331              		.loc 1 165 0
 332 0176 2846     		mov	r0, r5
 333 0178 4621     		movs	r1, #70
 334 017a 1322     		movs	r2, #19
 335 017c FFF7FEFF 		bl	fndb
 336              	.LVL42:
 337 0180 C4B2     		uxtb	r4, r0
 338              	.LVL43:
 166:src/Func.c    ****     memset(&buffer[7], 'X', 6);
 339              		.loc 1 166 0
 340 0182 FFF7FEFF 		bl	MaskCardNo
 341              	.LVL44:
 342 0186 28B1     		cbz	r0, .L18
 167:src/Func.c    ****   buffer[var_j+1] = 0;
 343              		.loc 1 167 0
 344 0188 0DF11300 		add	r0, sp, #19
 345 018c 5821     		movs	r1, #88
 346 018e 0622     		movs	r2, #6
 347 0190 FFF7FEFF 		bl	memset
 348              	.LVL45:
 349              	.L18:
 168:src/Func.c    ****   DispLineMW(buffer, MW_LINE4, MW_CLREOL|MW_SPFONT);
 350              		.loc 1 168 0
 351 0194 0AAB     		add	r3, sp, #40
 352 0196 1C44     		add	r4, r4, r3
ARM GAS  C:\Users\AHMED~1.ELE\AppData\Local\Temp\ccgSQ7Y9.s 			page 13


 353              	.LVL46:
 354 0198 0026     		movs	r6, #0
 355              	.LVL47:
 356              	.LBB15:
 169:src/Func.c    **** }
 357              		.loc 1 169 0
 358 019a 03A8     		add	r0, sp, #12
 359              	.LBE15:
 168:src/Func.c    ****   DispLineMW(buffer, MW_LINE4, MW_CLREOL|MW_SPFONT);
 360              		.loc 1 168 0
 361 019c 04F81B6C 		strb	r6, [r4, #-27]
 362              	.LBB16:
 169:src/Func.c    **** }
 363              		.loc 1 169 0
 364 01a0 FFF7FEFF 		bl	strlen
 365              	.LVL48:
 366 01a4 0546     		mov	r5, r0
 367              	.LVL49:
 368 01a6 691C     		adds	r1, r5, #1
 369 01a8 9220     		movs	r0, #146
 370              	.LVL50:
 371 01aa FFF7FEFF 		bl	sys_func1
 372              	.LVL51:
 373 01ae 0446     		mov	r4, r0
 374 01b0 90B1     		cbz	r0, .L2
 169:src/Func.c    **** }
 375              		.loc 1 169 0 is_stmt 0 discriminator 1
 376 01b2 03A9     		add	r1, sp, #12
 377 01b4 2A46     		mov	r2, r5
 378 01b6 FFF7FEFF 		bl	memcpy
 379              	.LVL52:
 380 01ba 42F22003 		movw	r3, #8224
 381 01be 6655     		strb	r6, [r4, r5]
 382 01c0 2521     		movs	r1, #37
 383 01c2 0093     		str	r3, [sp]
 384 01c4 0F20     		movs	r0, #15
 385 01c6 2246     		mov	r2, r4
 386 01c8 4FF48063 		mov	r3, #1024
 387 01cc FFF7FEFF 		bl	lib_app_call
 388              	.LVL53:
 389 01d0 9420     		movs	r0, #148
 390 01d2 2146     		mov	r1, r4
 391 01d4 FFF7FEFF 		bl	sys_func1
 392              	.LVL54:
 393              	.L2:
 394              	.LBE16:
 170:src/Func.c    **** //*****************************************************************************
 395              		.loc 1 170 0 is_stmt 1
 396 01d8 0BB0     		add	sp, sp, #44
 397              		.cfi_def_cfa_offset 20
 398              		@ sp needed
 399 01da F0BD     		pop	{r4, r5, r6, r7, pc}
 400              	.LVL55:
 401              	.L42:
 402              		.align	2
 403              	.L41:
 404 01dc 00000000 		.word	.LANCHOR0
ARM GAS  C:\Users\AHMED~1.ELE\AppData\Local\Temp\ccgSQ7Y9.s 			page 14


 405 01e0 00000000 		.word	.LC0
 406 01e4 00000000 		.word	KTransHeader
 407              		.cfi_endproc
 408              	.LFE0:
 409              		.size	DispTransData, .-DispTransData
 410              		.section	.text.DispReversal,"ax",%progbits
 411              		.align	1
 412              		.global	DispReversal
 413              		.thumb
 414              		.thumb_func
 415              		.type	DispReversal, %function
 416              	DispReversal:
 417              	.LFB1:
 180:src/Func.c    ****   static const BYTE KTraceNum[] = {"TRACE NUM:"};
 418              		.loc 1 180 0
 419              		.cfi_startproc
 420              		@ args = 0, pretend = 0, frame = 32
 421              		@ frame_needed = 0, uses_anonymous_args = 0
 422 0000 2DE9F047 		push	{r4, r5, r6, r7, r8, r9, r10, lr}
 423              		.cfi_def_cfa_offset 32
 424              		.cfi_offset 4, -32
 425              		.cfi_offset 5, -28
 426              		.cfi_offset 6, -24
 427              		.cfi_offset 7, -20
 428              		.cfi_offset 8, -16
 429              		.cfi_offset 9, -12
 430              		.cfi_offset 10, -8
 431              		.cfi_offset 14, -4
 186:src/Func.c    **** 
 432              		.loc 1 186 0
 433 0004 0024     		movs	r4, #0
 180:src/Func.c    ****   static const BYTE KTraceNum[] = {"TRACE NUM:"};
 434              		.loc 1 180 0
 435 0006 8AB0     		sub	sp, sp, #40
 436              		.cfi_def_cfa_offset 72
 186:src/Func.c    **** 
 437              		.loc 1 186 0
 438 0008 1020     		movs	r0, #16
 439 000a 0094     		str	r4, [sp]
 440 000c 1421     		movs	r1, #20
 441 000e 2246     		mov	r2, r4
 442 0010 2346     		mov	r3, r4
 443 0012 FFF7FEFF 		bl	lib_app_call
 444              	.LVL56:
 188:src/Func.c    ****   for (i=0;i<max_acq; i++) {
 445              		.loc 1 188 0
 446 0016 0126     		movs	r6, #1
 186:src/Func.c    **** 
 447              		.loc 1 186 0
 448 0018 1FFA80F8 		uxth	r8, r0
 449              	.LVL57:
 450              	.L44:
 189:src/Func.c    ****     if (APM_GetPending(i) != REV_PENDING)
 451              		.loc 1 189 0 discriminator 1
 452 001c 4445     		cmp	r4, r8
 453 001e 80F0AD81 		bcs	.L98
 190:src/Func.c    ****       continue;
ARM GAS  C:\Users\AHMED~1.ELE\AppData\Local\Temp\ccgSQ7Y9.s 			page 15


 454              		.loc 1 190 0
 455 0022 0027     		movs	r7, #0
 456 0024 1020     		movs	r0, #16
 457 0026 0097     		str	r7, [sp]
 458 0028 1C21     		movs	r1, #28
 459 002a 2246     		mov	r2, r4
 460 002c 3B46     		mov	r3, r7
 461 002e FFF7FEFF 		bl	lib_app_call
 462              	.LVL58:
 463 0032 C0B2     		uxtb	r0, r0
 464 0034 0128     		cmp	r0, #1
 465 0036 40F09281 		bne	.L45
 192:src/Func.c    ****     if (!CorrectHost(GetHostType(0)))
 466              		.loc 1 192 0
 467 003a CA4D     		ldr	r5, .L99
 468 003c 1521     		movs	r1, #21
 469 003e 2B68     		ldr	r3, [r5]
 470 0040 2246     		mov	r2, r4
 471 0042 03F55273 		add	r3, r3, #840
 472 0046 0097     		str	r7, [sp]
 473 0048 1020     		movs	r0, #16
 474 004a FFF7FEFF 		bl	lib_app_call
 475              	.LVL59:
 193:src/Func.c    ****       continue;
 476              		.loc 1 193 0
 477 004e 3846     		mov	r0, r7
 478 0050 FFF7FEFF 		bl	GetHostType
 479              	.LVL60:
 480 0054 FFF7FEFF 		bl	CorrectHost
 481              	.LVL61:
 482 0058 0028     		cmp	r0, #0
 483 005a 00F08081 		beq	.L45
 484              	.LVL62:
 197:src/Func.c    **** 
 485              		.loc 1 197 0
 486 005e 2B68     		ldr	r3, [r5]
 487 0060 4FF40072 		mov	r2, #512
 488 0064 2B21     		movs	r1, #43
 489 0066 0092     		str	r2, [sp]
 490 0068 03F5D963 		add	r3, r3, #1736
 491 006c 2246     		mov	r2, r4
 492 006e 1020     		movs	r0, #16
 493 0070 FFF7FEFF 		bl	lib_app_call
 494              	.LVL63:
 495              	.LBB17:
 199:src/Func.c    ****     DispLineMW("HOST: ", MW_LINE2, MW_SMFONT);
 496              		.loc 1 199 0
 497 0074 9220     		movs	r0, #146
 498 0076 0921     		movs	r1, #9
 499 0078 FFF7FEFF 		bl	sys_func1
 500              	.LVL64:
 501 007c 0646     		mov	r6, r0
 502 007e 88B1     		cbz	r0, .L46
 199:src/Func.c    ****     DispLineMW("HOST: ", MW_LINE2, MW_SMFONT);
 503              		.loc 1 199 0 is_stmt 0 discriminator 1
 504 0080 B949     		ldr	r1, .L99+4
 505 0082 0822     		movs	r2, #8
ARM GAS  C:\Users\AHMED~1.ELE\AppData\Local\Temp\ccgSQ7Y9.s 			page 16


 506 0084 FFF7FEFF 		bl	memcpy
 507              	.LVL65:
 508 0088 1223     		movs	r3, #18
 509 008a 3772     		strb	r7, [r6, #8]
 510 008c 2521     		movs	r1, #37
 511 008e 0093     		str	r3, [sp]
 512 0090 0F20     		movs	r0, #15
 513 0092 3246     		mov	r2, r6
 514 0094 4FF48073 		mov	r3, #256
 515 0098 FFF7FEFF 		bl	lib_app_call
 516              	.LVL66:
 517 009c 9420     		movs	r0, #148
 518 009e 3146     		mov	r1, r6
 519 00a0 FFF7FEFF 		bl	sys_func1
 520              	.LVL67:
 521              	.L46:
 522              	.LBE17:
 523              	.LBB18:
 200:src/Func.c    ****     memcpy(tmp, STIS_ACQ_TBL(0).sb_name, 10);
 524              		.loc 1 200 0 is_stmt 1
 525 00a4 9220     		movs	r0, #146
 526 00a6 0721     		movs	r1, #7
 527 00a8 FFF7FEFF 		bl	sys_func1
 528              	.LVL68:
 529 00ac 0646     		mov	r6, r0
 530              	.LVL69:
 531 00ae 88B1     		cbz	r0, .L47
 200:src/Func.c    ****     memcpy(tmp, STIS_ACQ_TBL(0).sb_name, 10);
 532              		.loc 1 200 0 is_stmt 0 discriminator 1
 533 00b0 AE49     		ldr	r1, .L99+8
 534 00b2 0622     		movs	r2, #6
 535 00b4 FFF7FEFF 		bl	memcpy
 536              	.LVL70:
 537 00b8 0023     		movs	r3, #0
 538 00ba 2521     		movs	r1, #37
 539 00bc B371     		strb	r3, [r6, #6]
 540 00be 0F20     		movs	r0, #15
 541 00c0 0093     		str	r3, [sp]
 542 00c2 3246     		mov	r2, r6
 543 00c4 4FF40073 		mov	r3, #512
 544 00c8 FFF7FEFF 		bl	lib_app_call
 545              	.LVL71:
 546 00cc 9420     		movs	r0, #148
 547 00ce 3146     		mov	r1, r6
 548 00d0 FFF7FEFF 		bl	sys_func1
 549              	.LVL72:
 550              	.L47:
 551              	.LBE18:
 201:src/Func.c    ****     tmp[10] = 0;
 552              		.loc 1 201 0 is_stmt 1
 553 00d4 2968     		ldr	r1, [r5]
 554 00d6 0A22     		movs	r2, #10
 555 00d8 01F25331 		addw	r1, r1, #851
 556 00dc 03A8     		add	r0, sp, #12
 202:src/Func.c    ****     DispLineMW(tmp, MW_LINE2+6, MW_SMFONT);
 557              		.loc 1 202 0
 558 00de 0027     		movs	r7, #0
ARM GAS  C:\Users\AHMED~1.ELE\AppData\Local\Temp\ccgSQ7Y9.s 			page 17


 201:src/Func.c    ****     tmp[10] = 0;
 559              		.loc 1 201 0
 560 00e0 FFF7FEFF 		bl	memcpy
 561              	.LVL73:
 562              	.LBB19:
 203:src/Func.c    ****     DispLineMW(KTraceNum, MW_LINE3, MW_SMFONT);
 563              		.loc 1 203 0
 564 00e4 03A8     		add	r0, sp, #12
 565              	.LBE19:
 202:src/Func.c    ****     DispLineMW(tmp, MW_LINE2+6, MW_SMFONT);
 566              		.loc 1 202 0
 567 00e6 8DF81670 		strb	r7, [sp, #22]
 568              	.LBB20:
 203:src/Func.c    ****     DispLineMW(KTraceNum, MW_LINE3, MW_SMFONT);
 569              		.loc 1 203 0
 570 00ea FFF7FEFF 		bl	strlen
 571              	.LVL74:
 572 00ee 8146     		mov	r9, r0
 573              	.LVL75:
 574 00f0 09F10101 		add	r1, r9, #1
 575 00f4 9220     		movs	r0, #146
 576              	.LVL76:
 577 00f6 FFF7FEFF 		bl	sys_func1
 578              	.LVL77:
 579 00fa 0646     		mov	r6, r0
 580              	.LVL78:
 581 00fc 88B1     		cbz	r0, .L48
 203:src/Func.c    ****     DispLineMW(KTraceNum, MW_LINE3, MW_SMFONT);
 582              		.loc 1 203 0 is_stmt 0 discriminator 1
 583 00fe 03A9     		add	r1, sp, #12
 584 0100 4A46     		mov	r2, r9
 585 0102 FFF7FEFF 		bl	memcpy
 586              	.LVL79:
 587 0106 06F80970 		strb	r7, [r6, r9]
 588 010a 2521     		movs	r1, #37
 589 010c 0097     		str	r7, [sp]
 590 010e 0F20     		movs	r0, #15
 591 0110 3246     		mov	r2, r6
 592 0112 40F20623 		movw	r3, #518
 593 0116 FFF7FEFF 		bl	lib_app_call
 594              	.LVL80:
 595 011a 9420     		movs	r0, #148
 596 011c 3146     		mov	r1, r6
 597 011e FFF7FEFF 		bl	sys_func1
 598              	.LVL81:
 599              	.L48:
 600              	.LBE20:
 601              	.LBB21:
 204:src/Func.c    ****     split(tmp,RECORD_BUF.sb_roc_no, 3);
 602              		.loc 1 204 0 is_stmt 1
 603 0122 9220     		movs	r0, #146
 604 0124 0B21     		movs	r1, #11
 605 0126 FFF7FEFF 		bl	sys_func1
 606              	.LVL82:
 607 012a 0646     		mov	r6, r0
 608              	.LVL83:
 609 012c 88B1     		cbz	r0, .L49
ARM GAS  C:\Users\AHMED~1.ELE\AppData\Local\Temp\ccgSQ7Y9.s 			page 18


 204:src/Func.c    ****     split(tmp,RECORD_BUF.sb_roc_no, 3);
 610              		.loc 1 204 0 is_stmt 0 discriminator 1
 611 012e 9049     		ldr	r1, .L99+12
 612 0130 0A22     		movs	r2, #10
 613 0132 FFF7FEFF 		bl	memcpy
 614              	.LVL84:
 615 0136 0023     		movs	r3, #0
 616 0138 2521     		movs	r1, #37
 617 013a B372     		strb	r3, [r6, #10]
 618 013c 0F20     		movs	r0, #15
 619 013e 0093     		str	r3, [sp]
 620 0140 3246     		mov	r2, r6
 621 0142 4FF44073 		mov	r3, #768
 622 0146 FFF7FEFF 		bl	lib_app_call
 623              	.LVL85:
 624 014a 9420     		movs	r0, #148
 625 014c 3146     		mov	r1, r6
 626 014e FFF7FEFF 		bl	sys_func1
 627              	.LVL86:
 628              	.L49:
 629              	.LBE21:
 205:src/Func.c    ****     tmp[6]= 0;
 630              		.loc 1 205 0 is_stmt 1
 631 0152 2968     		ldr	r1, [r5]
 632 0154 0322     		movs	r2, #3
 633 0156 01F2CF61 		addw	r1, r1, #1743
 634 015a 03A8     		add	r0, sp, #12
 206:src/Func.c    ****     DispLineMW(tmp, MW_LINE3+10, MW_SMFONT);
 635              		.loc 1 206 0
 636 015c 0027     		movs	r7, #0
 205:src/Func.c    ****     tmp[6]= 0;
 637              		.loc 1 205 0
 638 015e FFF7FEFF 		bl	split
 639              	.LVL87:
 640              	.LBB22:
 207:src/Func.c    ****     if (RECORD_BUF.b_trans_status & ADJUSTED)
 641              		.loc 1 207 0
 642 0162 03A8     		add	r0, sp, #12
 643              	.LBE22:
 206:src/Func.c    ****     DispLineMW(tmp, MW_LINE3+10, MW_SMFONT);
 644              		.loc 1 206 0
 645 0164 8DF81270 		strb	r7, [sp, #18]
 646              	.LBB23:
 207:src/Func.c    ****     if (RECORD_BUF.b_trans_status & ADJUSTED)
 647              		.loc 1 207 0
 648 0168 FFF7FEFF 		bl	strlen
 649              	.LVL88:
 650 016c 8146     		mov	r9, r0
 651              	.LVL89:
 652 016e 09F10101 		add	r1, r9, #1
 653 0172 9220     		movs	r0, #146
 654              	.LVL90:
 655 0174 FFF7FEFF 		bl	sys_func1
 656              	.LVL91:
 657 0178 0646     		mov	r6, r0
 658              	.LVL92:
 659 017a 88B1     		cbz	r0, .L50
ARM GAS  C:\Users\AHMED~1.ELE\AppData\Local\Temp\ccgSQ7Y9.s 			page 19


 207:src/Func.c    ****     if (RECORD_BUF.b_trans_status & ADJUSTED)
 660              		.loc 1 207 0 is_stmt 0 discriminator 1
 661 017c 03A9     		add	r1, sp, #12
 662 017e 4A46     		mov	r2, r9
 663 0180 FFF7FEFF 		bl	memcpy
 664              	.LVL93:
 665 0184 06F80970 		strb	r7, [r6, r9]
 666 0188 2521     		movs	r1, #37
 667 018a 0097     		str	r7, [sp]
 668 018c 0F20     		movs	r0, #15
 669 018e 3246     		mov	r2, r6
 670 0190 40F20A33 		movw	r3, #778
 671 0194 FFF7FEFF 		bl	lib_app_call
 672              	.LVL94:
 673 0198 9420     		movs	r0, #148
 674 019a 3146     		mov	r1, r6
 675 019c FFF7FEFF 		bl	sys_func1
 676              	.LVL95:
 677              	.L50:
 678              	.LBE23:
 208:src/Func.c    ****       var_j = ADJUST;
 679              		.loc 1 208 0 is_stmt 1
 680 01a0 2B68     		ldr	r3, [r5]
 213:src/Func.c    ****     DispLineMW(&tmp[4], MW_LINE4+4, MW_SMFONT);
 681              		.loc 1 213 0
 682 01a2 0027     		movs	r7, #0
 208:src/Func.c    ****       var_j = ADJUST;
 683              		.loc 1 208 0
 684 01a4 93F8CA26 		ldrb	r2, [r3, #1738]	@ zero_extendqisi2
 685              	.LBB24:
 214:src/Func.c    **** 
 686              		.loc 1 214 0
 687 01a8 0DF1100A 		add	r10, sp, #16
 688              	.LBE24:
 208:src/Func.c    ****       var_j = ADJUST;
 689              		.loc 1 208 0
 690 01ac 9206     		lsls	r2, r2, #26
 209:src/Func.c    ****     else
 691              		.loc 1 209 0
 692 01ae 4CBF     		ite	mi
 693 01b0 0B23     		movmi	r3, #11
 211:src/Func.c    ****     memcpy(tmp, GetConstMsg(KTransHeader[var_j]), 16);
 694              		.loc 1 211 0
 695 01b2 93F8C836 		ldrbpl	r3, [r3, #1736]	@ zero_extendqisi2
 696              	.LVL96:
 212:src/Func.c    ****     tmp[16]=0;
 697              		.loc 1 212 0
 698 01b6 6F4A     		ldr	r2, .L99+16
 699 01b8 D05C     		ldrb	r0, [r2, r3]	@ zero_extendqisi2
 700 01ba FFF7FEFF 		bl	GetConstMsg
 701              	.LVL97:
 702 01be 1022     		movs	r2, #16
 703 01c0 0146     		mov	r1, r0
 704 01c2 03A8     		add	r0, sp, #12
 705 01c4 FFF7FEFF 		bl	memcpy
 706              	.LVL98:
 707              	.LBB25:
ARM GAS  C:\Users\AHMED~1.ELE\AppData\Local\Temp\ccgSQ7Y9.s 			page 20


 214:src/Func.c    **** 
 708              		.loc 1 214 0
 709 01c8 5046     		mov	r0, r10
 710              	.LBE25:
 213:src/Func.c    ****     DispLineMW(&tmp[4], MW_LINE4+4, MW_SMFONT);
 711              		.loc 1 213 0
 712 01ca 8DF81C70 		strb	r7, [sp, #28]
 713              	.LBB26:
 214:src/Func.c    **** 
 714              		.loc 1 214 0
 715 01ce FFF7FEFF 		bl	strlen
 716              	.LVL99:
 717 01d2 8146     		mov	r9, r0
 718              	.LVL100:
 719 01d4 09F10101 		add	r1, r9, #1
 720 01d8 9220     		movs	r0, #146
 721              	.LVL101:
 722 01da FFF7FEFF 		bl	sys_func1
 723              	.LVL102:
 724 01de 0646     		mov	r6, r0
 725              	.LVL103:
 726 01e0 88B1     		cbz	r0, .L52
 214:src/Func.c    **** 
 727              		.loc 1 214 0 is_stmt 0 discriminator 1
 728 01e2 5146     		mov	r1, r10
 729 01e4 4A46     		mov	r2, r9
 730 01e6 FFF7FEFF 		bl	memcpy
 731              	.LVL104:
 732 01ea 06F80970 		strb	r7, [r6, r9]
 733 01ee 2521     		movs	r1, #37
 734 01f0 0097     		str	r7, [sp]
 735 01f2 0F20     		movs	r0, #15
 736 01f4 3246     		mov	r2, r6
 737 01f6 40F20443 		movw	r3, #1028
 738 01fa FFF7FEFF 		bl	lib_app_call
 739              	.LVL105:
 740 01fe 9420     		movs	r0, #148
 741 0200 3146     		mov	r1, r6
 742 0202 FFF7FEFF 		bl	sys_func1
 743              	.LVL106:
 744              	.L52:
 745              	.LBE26:
 216:src/Func.c    ****       DispLineMW(KVoided, MW_LINE4, MW_SMFONT);
 746              		.loc 1 216 0 is_stmt 1
 747 0206 2B68     		ldr	r3, [r5]
 748 0208 93F8CA36 		ldrb	r3, [r3, #1738]	@ zero_extendqisi2
 749 020c DB06     		lsls	r3, r3, #27
 750 020e 17D5     		bpl	.L54
 751              	.LVL107:
 752              	.LBB27:
 217:src/Func.c    ****     }
 753              		.loc 1 217 0
 754 0210 9220     		movs	r0, #146
 755 0212 0821     		movs	r1, #8
 756 0214 FFF7FEFF 		bl	sys_func1
 757              	.LVL108:
 758 0218 0646     		mov	r6, r0
ARM GAS  C:\Users\AHMED~1.ELE\AppData\Local\Temp\ccgSQ7Y9.s 			page 21


 759              	.LVL109:
 760 021a 88B1     		cbz	r0, .L54
 217:src/Func.c    ****     }
 761              		.loc 1 217 0 is_stmt 0 discriminator 1
 762 021c 5649     		ldr	r1, .L99+20
 763 021e 0722     		movs	r2, #7
 764 0220 FFF7FEFF 		bl	memcpy
 765              	.LVL110:
 766 0224 0023     		movs	r3, #0
 767 0226 2521     		movs	r1, #37
 768 0228 F371     		strb	r3, [r6, #7]
 769 022a 0F20     		movs	r0, #15
 770 022c 0093     		str	r3, [sp]
 771 022e 3246     		mov	r2, r6
 772 0230 4FF48063 		mov	r3, #1024
 773 0234 FFF7FEFF 		bl	lib_app_call
 774              	.LVL111:
 775 0238 9420     		movs	r0, #148
 776 023a 3146     		mov	r1, r6
 777 023c FFF7FEFF 		bl	sys_func1
 778              	.LVL112:
 779              	.L54:
 780              	.LBE27:
 219:src/Func.c    **** 
 781              		.loc 1 219 0 is_stmt 1
 782 0240 2B68     		ldr	r3, [r5]
 783 0242 4FF4A062 		mov	r2, #1280
 784 0246 03F5DC63 		add	r3, r3, #1760
 223:src/Func.c    ****     DispLineMW(tmp, MW_LINE6, MW_RIGHT|MW_SPFONT);
 785              		.loc 1 223 0
 786 024a 4FF00009 		mov	r9, #0
 787              	.LVL113:
 219:src/Func.c    **** 
 788              		.loc 1 219 0
 789 024e D3E90001 		ldrd	r0, [r3]
 790 0252 0023     		movs	r3, #0
 791 0254 FFF7FEFF 		bl	DispAmount
 792              	.LVL114:
 221:src/Func.c    ****     var_j = (BYTE) fndb(tmp, 'F', 19);
 793              		.loc 1 221 0
 794 0258 2968     		ldr	r1, [r5]
 795 025a 03A8     		add	r0, sp, #12
 796 025c 01F2D261 		addw	r1, r1, #1746
 797 0260 0A22     		movs	r2, #10
 798 0262 FFF7FEFF 		bl	split
 799              	.LVL115:
 222:src/Func.c    ****     tmp[var_j] = 0;
 800              		.loc 1 222 0
 801 0266 4621     		movs	r1, #70
 802 0268 1322     		movs	r2, #19
 803 026a 03A8     		add	r0, sp, #12
 804 026c FFF7FEFF 		bl	fndb
 805              	.LVL116:
 223:src/Func.c    ****     DispLineMW(tmp, MW_LINE6, MW_RIGHT|MW_SPFONT);
 806              		.loc 1 223 0
 807 0270 0AAB     		add	r3, sp, #40
 808 0272 53FA80F0 		uxtab	r0, r3, r0
ARM GAS  C:\Users\AHMED~1.ELE\AppData\Local\Temp\ccgSQ7Y9.s 			page 22


 809              	.LVL117:
 810 0276 00F81C9C 		strb	r9, [r0, #-28]
 811              	.LBB28:
 224:src/Func.c    **** 
 812              		.loc 1 224 0
 813 027a 03A8     		add	r0, sp, #12
 814 027c FFF7FEFF 		bl	strlen
 815              	.LVL118:
 816 0280 0746     		mov	r7, r0
 817              	.LVL119:
 818 0282 791C     		adds	r1, r7, #1
 819 0284 9220     		movs	r0, #146
 820              	.LVL120:
 821 0286 FFF7FEFF 		bl	sys_func1
 822              	.LVL121:
 823 028a 0646     		mov	r6, r0
 824 028c 98B1     		cbz	r0, .L56
 224:src/Func.c    **** 
 825              		.loc 1 224 0 is_stmt 0 discriminator 1
 826 028e 03A9     		add	r1, sp, #12
 827 0290 3A46     		mov	r2, r7
 828 0292 FFF7FEFF 		bl	memcpy
 829              	.LVL122:
 830 0296 42F20103 		movw	r3, #8193
 831 029a 06F80790 		strb	r9, [r6, r7]
 832 029e 2521     		movs	r1, #37
 833 02a0 0093     		str	r3, [sp]
 834 02a2 0F20     		movs	r0, #15
 835 02a4 3246     		mov	r2, r6
 836 02a6 4FF4C063 		mov	r3, #1536
 837 02aa FFF7FEFF 		bl	lib_app_call
 838              	.LVL123:
 839 02ae 9420     		movs	r0, #148
 840 02b0 3146     		mov	r1, r6
 841 02b2 FFF7FEFF 		bl	sys_func1
 842              	.LVL124:
 843              	.L56:
 844              	.LBE28:
 226:src/Func.c    ****     tmp[16] = 0;
 845              		.loc 1 226 0 is_stmt 1
 846 02b6 2968     		ldr	r1, [r5]
 847 02b8 0022     		movs	r2, #0
 848 02ba 01F24471 		addw	r1, r1, #1860
 849 02be 03A8     		add	r0, sp, #12
 227:src/Func.c    ****     DispLineMW(tmp, MW_LINE7, MW_SMFONT);
 850              		.loc 1 227 0
 851 02c0 0027     		movs	r7, #0
 852              	.LVL125:
 226:src/Func.c    ****     tmp[16] = 0;
 853              		.loc 1 226 0
 854 02c2 FFF7FEFF 		bl	ConvDateTime
 855              	.LVL126:
 856              	.LBB29:
 228:src/Func.c    ****     memcpy(tmp, RECORD_BUF.sb_ecr_ref, 16);
 857              		.loc 1 228 0
 858 02c6 03A8     		add	r0, sp, #12
 859              	.LBE29:
ARM GAS  C:\Users\AHMED~1.ELE\AppData\Local\Temp\ccgSQ7Y9.s 			page 23


 227:src/Func.c    ****     DispLineMW(tmp, MW_LINE7, MW_SMFONT);
 860              		.loc 1 227 0
 861 02c8 8DF81C70 		strb	r7, [sp, #28]
 862              	.LBB30:
 228:src/Func.c    ****     memcpy(tmp, RECORD_BUF.sb_ecr_ref, 16);
 863              		.loc 1 228 0
 864 02cc FFF7FEFF 		bl	strlen
 865              	.LVL127:
 866 02d0 8146     		mov	r9, r0
 867              	.LVL128:
 868 02d2 09F10101 		add	r1, r9, #1
 869 02d6 9220     		movs	r0, #146
 870              	.LVL129:
 871 02d8 FFF7FEFF 		bl	sys_func1
 872              	.LVL130:
 873 02dc 0646     		mov	r6, r0
 874              	.LVL131:
 875 02de 88B1     		cbz	r0, .L57
 228:src/Func.c    ****     memcpy(tmp, RECORD_BUF.sb_ecr_ref, 16);
 876              		.loc 1 228 0 is_stmt 0 discriminator 1
 877 02e0 03A9     		add	r1, sp, #12
 878 02e2 4A46     		mov	r2, r9
 879 02e4 FFF7FEFF 		bl	memcpy
 880              	.LVL132:
 881 02e8 06F80970 		strb	r7, [r6, r9]
 882 02ec 2521     		movs	r1, #37
 883 02ee 0097     		str	r7, [sp]
 884 02f0 0F20     		movs	r0, #15
 885 02f2 3246     		mov	r2, r6
 886 02f4 4FF4E063 		mov	r3, #1792
 887 02f8 FFF7FEFF 		bl	lib_app_call
 888              	.LVL133:
 889 02fc 9420     		movs	r0, #148
 890 02fe 3146     		mov	r1, r6
 891 0300 FFF7FEFF 		bl	sys_func1
 892              	.LVL134:
 893              	.L57:
 894              	.LBE30:
 229:src/Func.c    ****     DispLineMW(tmp, MW_LINE8, MW_SMFONT);
 895              		.loc 1 229 0 is_stmt 1
 896 0304 2968     		ldr	r1, [r5]
 897 0306 1022     		movs	r2, #16
 898 0308 01F21771 		addw	r1, r1, #1815
 899 030c 03A8     		add	r0, sp, #12
 900 030e FFF7FEFF 		bl	memcpy
 901              	.LVL135:
 902              	.LBB31:
 230:src/Func.c    ****     APM_WaitKey(KBD_TIMEOUT,0);
 903              		.loc 1 230 0
 904 0312 03A8     		add	r0, sp, #12
 905 0314 FFF7FEFF 		bl	strlen
 906              	.LVL136:
 907 0318 0646     		mov	r6, r0
 908              	.LVL137:
 909 031a 711C     		adds	r1, r6, #1
 910 031c 9220     		movs	r0, #146
 911              	.LVL138:
ARM GAS  C:\Users\AHMED~1.ELE\AppData\Local\Temp\ccgSQ7Y9.s 			page 24


 912 031e FFF7FEFF 		bl	sys_func1
 913              	.LVL139:
 914 0322 0546     		mov	r5, r0
 915 0324 88B1     		cbz	r0, .L58
 230:src/Func.c    ****     APM_WaitKey(KBD_TIMEOUT,0);
 916              		.loc 1 230 0 is_stmt 0 discriminator 1
 917 0326 03A9     		add	r1, sp, #12
 918 0328 3246     		mov	r2, r6
 919 032a FFF7FEFF 		bl	memcpy
 920              	.LVL140:
 921 032e 0023     		movs	r3, #0
 922 0330 2521     		movs	r1, #37
 923 0332 AB55     		strb	r3, [r5, r6]
 924 0334 0F20     		movs	r0, #15
 925 0336 0093     		str	r3, [sp]
 926 0338 2A46     		mov	r2, r5
 927 033a 4FF40063 		mov	r3, #2048
 928 033e FFF7FEFF 		bl	lib_app_call
 929              	.LVL141:
 930 0342 9420     		movs	r0, #148
 931 0344 2946     		mov	r1, r5
 932 0346 FFF7FEFF 		bl	sys_func1
 933              	.LVL142:
 934              	.L58:
 935              	.LBE31:
 231:src/Func.c    ****   }
 936              		.loc 1 231 0 is_stmt 1
 937 034a 0025     		movs	r5, #0
 938              	.LVL143:
 939 034c 1020     		movs	r0, #16
 940 034e 0095     		str	r5, [sp]
 941 0350 0321     		movs	r1, #3
 942 0352 42F22832 		movw	r2, #9000
 943 0356 2B46     		mov	r3, r5
 944 0358 FFF7FEFF 		bl	lib_app_call
 945              	.LVL144:
 196:src/Func.c    ****     APM_GetRevRec(i, &RECORD_BUF,sizeof(RECORD_BUF));
 946              		.loc 1 196 0
 947 035c 2E46     		mov	r6, r5
 948              	.LVL145:
 949              	.L45:
 189:src/Func.c    ****     if (APM_GetPending(i) != REV_PENDING)
 950              		.loc 1 189 0 discriminator 2
 951 035e 0134     		adds	r4, r4, #1
 952              	.LVL146:
 953 0360 E4B2     		uxtb	r4, r4
 954              	.LVL147:
 955 0362 5BE6     		b	.L44
 956              	.L100:
 957              		.align	2
 958              	.L99:
 959 0364 00000000 		.word	gGDS
 960 0368 08000000 		.word	.LC1
 961 036c 11000000 		.word	.LC2
 962 0370 0B000000 		.word	.LANCHOR0+11
 963 0374 00000000 		.word	KTransHeader
 964 0378 16000000 		.word	.LANCHOR0+22
ARM GAS  C:\Users\AHMED~1.ELE\AppData\Local\Temp\ccgSQ7Y9.s 			page 25


 965              	.L98:
 233:src/Func.c    ****     DispClrBelowMW(MW_LINE3);
 966              		.loc 1 233 0
 967 037c CEB1     		cbz	r6, .L43
 234:src/Func.c    ****     Disp2x16Msg(GetConstMsg(EDC_FN_NO_REV), MW_LINE3, MW_BIGFONT);
 968              		.loc 1 234 0
 969 037e 0024     		movs	r4, #0
 970              	.LVL148:
 971 0380 2346     		mov	r3, r4
 972 0382 2321     		movs	r1, #35
 973 0384 4FF44072 		mov	r2, #768
 974 0388 0094     		str	r4, [sp]
 975 038a 0F20     		movs	r0, #15
 976 038c FFF7FEFF 		bl	lib_app_call
 977              	.LVL149:
 235:src/Func.c    ****     APM_WaitKey(KBD_TIMEOUT,0);
 978              		.loc 1 235 0
 979 0390 3820     		movs	r0, #56
 980 0392 FFF7FEFF 		bl	GetConstMsg
 981              	.LVL150:
 982 0396 4FF44071 		mov	r1, #768
 983 039a 4FF48052 		mov	r2, #4096
 984 039e FFF7FEFF 		bl	Disp2x16Msg
 985              	.LVL151:
 236:src/Func.c    ****   }
 986              		.loc 1 236 0
 987 03a2 0094     		str	r4, [sp]
 988 03a4 1020     		movs	r0, #16
 989 03a6 0321     		movs	r1, #3
 990 03a8 42F22832 		movw	r2, #9000
 991 03ac 2346     		mov	r3, r4
 992 03ae FFF7FEFF 		bl	lib_app_call
 993              	.LVL152:
 994              	.L43:
 238:src/Func.c    **** //*****************************************************************************
 995              		.loc 1 238 0
 996 03b2 0AB0     		add	sp, sp, #40
 997              		.cfi_def_cfa_offset 32
 998              		@ sp needed
 999 03b4 BDE8F087 		pop	{r4, r5, r6, r7, r8, r9, r10, pc}
 1000              		.cfi_endproc
 1001              	.LFE1:
 1002              		.size	DispReversal, .-DispReversal
 1003              		.section	.text.ClearReversal,"ax",%progbits
 1004              		.align	1
 1005              		.global	ClearReversal
 1006              		.thumb
 1007              		.thumb_func
 1008              		.type	ClearReversal, %function
 1009              	ClearReversal:
 1010              	.LFB2:
 248:src/Func.c    ****   int i;
 1011              		.loc 1 248 0
 1012              		.cfi_startproc
 1013              		@ args = 0, pretend = 0, frame = 0
 1014              		@ frame_needed = 0, uses_anonymous_args = 0
 1015              	.LVL153:
ARM GAS  C:\Users\AHMED~1.ELE\AppData\Local\Temp\ccgSQ7Y9.s 			page 26


 1016 0000 F7B5     		push	{r0, r1, r2, r4, r5, r6, r7, lr}
 1017              		.cfi_def_cfa_offset 32
 1018              		.cfi_offset 4, -20
 1019              		.cfi_offset 5, -16
 1020              		.cfi_offset 6, -12
 1021              		.cfi_offset 7, -8
 1022              		.cfi_offset 14, -4
 1023              	.LBB39:
 251:src/Func.c    ****   if (!APM_GetAccessCode())
 1024              		.loc 1 251 0
 1025 0002 9220     		movs	r0, #146
 1026 0004 0F21     		movs	r1, #15
 1027 0006 FFF7FEFF 		bl	sys_func1
 1028              	.LVL154:
 1029 000a 0446     		mov	r4, r0
 1030 000c 98B1     		cbz	r0, .L102
 251:src/Func.c    ****   if (!APM_GetAccessCode())
 1031              		.loc 1 251 0 is_stmt 0 discriminator 1
 1032 000e 5F49     		ldr	r1, .L133
 1033 0010 0E22     		movs	r2, #14
 1034 0012 FFF7FEFF 		bl	memcpy
 1035              	.LVL155:
 1036 0016 0023     		movs	r3, #0
 1037 0018 2521     		movs	r1, #37
 1038 001a A373     		strb	r3, [r4, #14]
 1039 001c 41F29203 		movw	r3, #4242
 1040 0020 0F20     		movs	r0, #15
 1041 0022 0093     		str	r3, [sp]
 1042 0024 2246     		mov	r2, r4
 1043 0026 4FF48073 		mov	r3, #256
 1044 002a FFF7FEFF 		bl	lib_app_call
 1045              	.LVL156:
 1046 002e 9420     		movs	r0, #148
 1047 0030 2146     		mov	r1, r4
 1048 0032 FFF7FEFF 		bl	sys_func1
 1049              	.LVL157:
 1050              	.L102:
 1051              	.LBE39:
 252:src/Func.c    ****     return;
 1052              		.loc 1 252 0 is_stmt 1
 1053 0036 0022     		movs	r2, #0
 1054 0038 1020     		movs	r0, #16
 1055 003a 0092     		str	r2, [sp]
 1056 003c 3121     		movs	r1, #49
 1057 003e 1346     		mov	r3, r2
 1058 0040 FFF7FEFF 		bl	lib_app_call
 1059              	.LVL158:
 1060 0044 10F0FF0F 		tst	r0, #255
 1061 0048 00F09D80 		beq	.L101
 1062              	.LVL159:
 1063              	.L104:
 1064              	.LBB40:
 1065              	.LBB41:
 256:src/Func.c    ****       return;
 1066              		.loc 1 256 0
 1067 004c 0024     		movs	r4, #0
 1068 004e 2346     		mov	r3, r4
ARM GAS  C:\Users\AHMED~1.ELE\AppData\Local\Temp\ccgSQ7Y9.s 			page 27


 1069 0050 0094     		str	r4, [sp]
 1070 0052 1020     		movs	r0, #16
 1071 0054 2021     		movs	r1, #32
 1072 0056 2246     		mov	r2, r4
 1073 0058 FFF7FEFF 		bl	lib_app_call
 1074              	.LVL160:
 1075 005c 431C     		adds	r3, r0, #1
 1076 005e 0646     		mov	r6, r0
 1077              	.LVL161:
 1078 0060 00F09180 		beq	.L101
 1079              	.LVL162:
 1080              	.LBB42:
 258:src/Func.c    ****     if (APM_GetPending(i) != REV_PENDING) {
 1081              		.loc 1 258 0
 1082 0064 9220     		movs	r0, #146
 1083              	.LVL163:
 1084 0066 0F21     		movs	r1, #15
 1085 0068 FFF7FEFF 		bl	sys_func1
 1086              	.LVL164:
 1087 006c 0546     		mov	r5, r0
 1088 006e 90B1     		cbz	r0, .L105
 1089 0070 4649     		ldr	r1, .L133
 1090 0072 0E22     		movs	r2, #14
 1091 0074 FFF7FEFF 		bl	memcpy
 1092              	.LVL165:
 1093 0078 41F29203 		movw	r3, #4242
 1094 007c AC73     		strb	r4, [r5, #14]
 1095 007e 2521     		movs	r1, #37
 1096 0080 0093     		str	r3, [sp]
 1097 0082 0F20     		movs	r0, #15
 1098 0084 2A46     		mov	r2, r5
 1099 0086 4FF48073 		mov	r3, #256
 1100 008a FFF7FEFF 		bl	lib_app_call
 1101              	.LVL166:
 1102 008e 9420     		movs	r0, #148
 1103 0090 2946     		mov	r1, r5
 1104 0092 FFF7FEFF 		bl	sys_func1
 1105              	.LVL167:
 1106              	.L105:
 1107              	.LBE42:
 259:src/Func.c    ****       Disp2x16Msg(GetConstMsg(EDC_FN_NO_REV), MW_LINE3, MW_CENTER|MW_BIGFONT);
 1108              		.loc 1 259 0
 1109 0096 0025     		movs	r5, #0
 1110              	.LVL168:
 1111 0098 1020     		movs	r0, #16
 1112 009a 0095     		str	r5, [sp]
 1113 009c 1C21     		movs	r1, #28
 1114 009e 3246     		mov	r2, r6
 1115 00a0 2B46     		mov	r3, r5
 1116 00a2 FFF7FEFF 		bl	lib_app_call
 1117              	.LVL169:
 1118 00a6 C0B2     		uxtb	r0, r0
 1119 00a8 0128     		cmp	r0, #1
 1120 00aa 11D0     		beq	.L106
 260:src/Func.c    ****       APM_WaitKey(KBD_TIMEOUT,0);
 1121              		.loc 1 260 0
 1122 00ac 3820     		movs	r0, #56
ARM GAS  C:\Users\AHMED~1.ELE\AppData\Local\Temp\ccgSQ7Y9.s 			page 28


 1123 00ae FFF7FEFF 		bl	GetConstMsg
 1124              	.LVL170:
 1125 00b2 4FF44071 		mov	r1, #768
 1126 00b6 41F20202 		movw	r2, #4098
 1127 00ba FFF7FEFF 		bl	Disp2x16Msg
 1128              	.LVL171:
 261:src/Func.c    ****       break;
 1129              		.loc 1 261 0
 1130 00be 0095     		str	r5, [sp]
 1131 00c0 0321     		movs	r1, #3
 1132 00c2 42F22832 		movw	r2, #9000
 1133 00c6 2B46     		mov	r3, r5
 1134 00c8 1020     		movs	r0, #16
 1135 00ca FFF7FEFF 		bl	lib_app_call
 1136              	.LVL172:
 1137 00ce 5AE0     		b	.L101
 1138              	.L106:
 1139              	.LBB43:
 265:src/Func.c    ****       switch (APM_YesNo()) {
 1140              		.loc 1 265 0
 1141 00d0 3920     		movs	r0, #57
 1142 00d2 FFF7FEFF 		bl	GetConstMsg
 1143              	.LVL173:
 1144 00d6 FFF7FEFF 		bl	strlen
 1145              	.LVL174:
 1146 00da 0746     		mov	r7, r0
 1147              	.LVL175:
 1148 00dc 791C     		adds	r1, r7, #1
 1149 00de 9220     		movs	r0, #146
 1150              	.LVL176:
 1151 00e0 FFF7FEFF 		bl	sys_func1
 1152              	.LVL177:
 1153 00e4 0446     		mov	r4, r0
 1154 00e6 B0B1     		cbz	r0, .L108
 1155 00e8 3920     		movs	r0, #57
 1156              	.LVL178:
 1157 00ea FFF7FEFF 		bl	GetConstMsg
 1158              	.LVL179:
 1159 00ee 3A46     		mov	r2, r7
 1160 00f0 0146     		mov	r1, r0
 1161 00f2 2046     		mov	r0, r4
 1162 00f4 FFF7FEFF 		bl	memcpy
 1163              	.LVL180:
 1164 00f8 41F20203 		movw	r3, #4098
 1165 00fc E555     		strb	r5, [r4, r7]
 1166 00fe 2521     		movs	r1, #37
 1167 0100 0093     		str	r3, [sp]
 1168 0102 0F20     		movs	r0, #15
 1169 0104 2246     		mov	r2, r4
 1170 0106 4FF4A063 		mov	r3, #1280
 1171 010a FFF7FEFF 		bl	lib_app_call
 1172              	.LVL181:
 1173 010e 9420     		movs	r0, #148
 1174 0110 2146     		mov	r1, r4
 1175 0112 FFF7FEFF 		bl	sys_func1
 1176              	.LVL182:
 1177              	.L108:
ARM GAS  C:\Users\AHMED~1.ELE\AppData\Local\Temp\ccgSQ7Y9.s 			page 29


 1178              	.LBE43:
 266:src/Func.c    ****         case 0 :
 1179              		.loc 1 266 0
 1180 0116 0024     		movs	r4, #0
 1181              	.LVL183:
 1182 0118 1020     		movs	r0, #16
 1183 011a 0094     		str	r4, [sp]
 1184 011c 0421     		movs	r1, #4
 1185 011e 2246     		mov	r2, r4
 1186 0120 2346     		mov	r3, r4
 1187 0122 FFF7FEFF 		bl	lib_app_call
 1188              	.LVL184:
 1189 0126 70B3     		cbz	r0, .L101
 1190 0128 0228     		cmp	r0, #2
 1191 012a 8FD1     		bne	.L104
 270:src/Func.c    ****           DispLineMW(GetConstMsg(EDC_FN_REV_CLEAR), MW_LINE5, MW_CENTER|MW_BIGFONT);
 1192              		.loc 1 270 0
 1193 012c 3246     		mov	r2, r6
 1194 012e 1D21     		movs	r1, #29
 1195 0130 2346     		mov	r3, r4
 1196 0132 0094     		str	r4, [sp]
 1197 0134 1020     		movs	r0, #16
 1198 0136 FFF7FEFF 		bl	lib_app_call
 1199              	.LVL185:
 1200              	.LBB44:
 271:src/Func.c    ****           ErrorDelay();
 1201              		.loc 1 271 0
 1202 013a 3A20     		movs	r0, #58
 1203 013c FFF7FEFF 		bl	GetConstMsg
 1204              	.LVL186:
 1205 0140 FFF7FEFF 		bl	strlen
 1206              	.LVL187:
 1207 0144 0646     		mov	r6, r0
 1208              	.LVL188:
 1209 0146 711C     		adds	r1, r6, #1
 1210 0148 9220     		movs	r0, #146
 1211              	.LVL189:
 1212 014a FFF7FEFF 		bl	sys_func1
 1213              	.LVL190:
 1214 014e 0546     		mov	r5, r0
 1215 0150 B0B1     		cbz	r0, .L110
 1216 0152 3A20     		movs	r0, #58
 1217              	.LVL191:
 1218 0154 FFF7FEFF 		bl	GetConstMsg
 1219              	.LVL192:
 1220 0158 3246     		mov	r2, r6
 1221 015a 0146     		mov	r1, r0
 1222 015c 2846     		mov	r0, r5
 1223 015e FFF7FEFF 		bl	memcpy
 1224              	.LVL193:
 1225 0162 41F20203 		movw	r3, #4098
 1226 0166 AC55     		strb	r4, [r5, r6]
 1227 0168 2521     		movs	r1, #37
 1228 016a 0093     		str	r3, [sp]
 1229 016c 0F20     		movs	r0, #15
 1230 016e 2A46     		mov	r2, r5
 1231 0170 4FF4A063 		mov	r3, #1280
ARM GAS  C:\Users\AHMED~1.ELE\AppData\Local\Temp\ccgSQ7Y9.s 			page 30


 1232 0174 FFF7FEFF 		bl	lib_app_call
 1233              	.LVL194:
 1234 0178 9420     		movs	r0, #148
 1235 017a 2946     		mov	r1, r5
 1236 017c FFF7FEFF 		bl	sys_func1
 1237              	.LVL195:
 1238              	.L110:
 1239              	.LBE44:
 272:src/Func.c    ****       }
 1240              		.loc 1 272 0
 1241 0180 FFF7FEFF 		bl	ErrorDelay
 1242              	.LVL196:
 1243 0184 62E7     		b	.L104
 1244              	.LVL197:
 1245              	.L101:
 1246              	.LBE41:
 1247              	.LBE40:
 276:src/Func.c    **** //*****************************************************************************
 1248              		.loc 1 276 0
 1249 0186 03B0     		add	sp, sp, #12
 1250              		.cfi_def_cfa_offset 20
 1251              		@ sp needed
 1252 0188 F0BD     		pop	{r4, r5, r6, r7, pc}
 1253              	.L134:
 1254 018a 00BF     		.align	2
 1255              	.L133:
 1256 018c 18000000 		.word	.LC3
 1257              		.cfi_endproc
 1258              	.LFE2:
 1259              		.size	ClearReversal, .-ClearReversal
 1260              		.section	.text.DisplayRecordno,"ax",%progbits
 1261              		.align	1
 1262              		.global	DisplayRecordno
 1263              		.thumb
 1264              		.thumb_func
 1265              		.type	DisplayRecordno, %function
 1266              	DisplayRecordno:
 1267              	.LFB4:
 290:src/Func.c    **** //*****************************************************************************
 291:src/Func.c    **** //  Function        : DisplayBatch
 292:src/Func.c    **** //  Description     : Display batch record.
 293:src/Func.c    **** //  Input           : record index;     // display with specify record index.
 294:src/Func.c    **** //  Return          : N/A
 295:src/Func.c    **** //  Note            : N/A
 296:src/Func.c    **** //  Globals Changed : N/A
 297:src/Func.c    **** //*****************************************************************************
 298:src/Func.c    **** int DisplayRecordno(DWORD aRecIdx)
 299:src/Func.c    **** {
 1268              		.loc 1 299 0
 1269              		.cfi_startproc
 1270              		@ args = 0, pretend = 0, frame = 32
 1271              		@ frame_needed = 0, uses_anonymous_args = 0
 1272              	.LVL198:
 1273 0000 2DE9F041 		push	{r4, r5, r6, r7, r8, lr}
 1274              		.cfi_def_cfa_offset 24
 1275              		.cfi_offset 4, -24
 1276              		.cfi_offset 5, -20
ARM GAS  C:\Users\AHMED~1.ELE\AppData\Local\Temp\ccgSQ7Y9.s 			page 31


 1277              		.cfi_offset 6, -16
 1278              		.cfi_offset 7, -12
 1279              		.cfi_offset 8, -8
 1280              		.cfi_offset 14, -4
 300:src/Func.c    ****   static const BYTE KRRN[] = {"RRN:"};
 301:src/Func.c    ****   BYTE tmpbuf[MW_MAX_LINESIZE+1];
 302:src/Func.c    ****   int rec_cnt, rec_idx;
 303:src/Func.c    ****   DWORD keyin;
 304:src/Func.c    **** 
 305:src/Func.c    ****   rec_cnt = APM_GetRecCount();
 1281              		.loc 1 305 0
 1282 0004 0025     		movs	r5, #0
 299:src/Func.c    ****   static const BYTE KRRN[] = {"RRN:"};
 1283              		.loc 1 299 0
 1284 0006 8AB0     		sub	sp, sp, #40
 1285              		.cfi_def_cfa_offset 64
 299:src/Func.c    ****   static const BYTE KRRN[] = {"RRN:"};
 1286              		.loc 1 299 0
 1287 0008 0646     		mov	r6, r0
 1288              		.loc 1 305 0
 1289 000a 0095     		str	r5, [sp]
 1290 000c 1020     		movs	r0, #16
 1291              	.LVL199:
 1292 000e 2921     		movs	r1, #41
 1293 0010 2A46     		mov	r2, r5
 1294 0012 2B46     		mov	r3, r5
 1295 0014 FFF7FEFF 		bl	lib_app_call
 1296              	.LVL200:
 306:src/Func.c    ****   if (rec_cnt == 0) {
 1297              		.loc 1 306 0
 1298 0018 0446     		mov	r4, r0
 1299 001a 70B9     		cbnz	r0, .L136
 307:src/Func.c    ****     RSP_DATA.w_rspcode = 'N'*256+'T';
 1300              		.loc 1 307 0
 1301 001c 44F65462 		movw	r2, #20052
 1302 0020 AD4B     		ldr	r3, .L176
 308:src/Func.c    ****     DispCtrlMW(MW_CLR_DISP);
 1303              		.loc 1 308 0
 1304 0022 0C21     		movs	r1, #12
 1305 0024 1620     		movs	r0, #22
 1306              	.LVL201:
 307:src/Func.c    ****     RSP_DATA.w_rspcode = 'N'*256+'T';
 1307              		.loc 1 307 0
 1308 0026 A3F81627 		strh	r2, [r3, #1814]	@ movhi
 1309              		.loc 1 308 0
 1310 002a FFF7FEFF 		bl	sys_func1
 1311              	.LVL202:
 309:src/Func.c    ****     DispRspText(FALSE);
 1312              		.loc 1 309 0
 1313 002e 2046     		mov	r0, r4
 1314 0030 FFF7FEFF 		bl	DispRspText
 1315              	.LVL203:
 310:src/Func.c    ****     ErrorDelay();
 1316              		.loc 1 310 0
 1317 0034 FFF7FEFF 		bl	ErrorDelay
 1318              	.LVL204:
 1319 0038 4FE0     		b	.L175
ARM GAS  C:\Users\AHMED~1.ELE\AppData\Local\Temp\ccgSQ7Y9.s 			page 32


 1320              	.LVL205:
 1321              	.L136:
 311:src/Func.c    ****     return -1;
 312:src/Func.c    ****   }
 313:src/Func.c    **** 
 314:src/Func.c    ****   if (aRecIdx == -1) {
 1322              		.loc 1 314 0
 1323 003a 0136     		adds	r6, r6, #1
 1324              	.LVL206:
 1325 003c 29D1     		bne	.L138
 1326              	.LBB45:
 315:src/Func.c    ****     DispLineMW(GetConstMsg(EDC_FN_DISP_BATCH), MW_LINE1, MW_REVERSE|MW_CENTER|MW_BIGFONT);
 1327              		.loc 1 315 0
 1328 003e 3B20     		movs	r0, #59
 1329              	.LVL207:
 1330 0040 FFF7FEFF 		bl	GetConstMsg
 1331              	.LVL208:
 1332 0044 FFF7FEFF 		bl	strlen
 1333              	.LVL209:
 1334 0048 0646     		mov	r6, r0
 1335              	.LVL210:
 1336 004a 711C     		adds	r1, r6, #1
 1337 004c 9220     		movs	r0, #146
 1338              	.LVL211:
 1339 004e FFF7FEFF 		bl	sys_func1
 1340              	.LVL212:
 1341 0052 0446     		mov	r4, r0
 1342              	.LVL213:
 1343 0054 B0B1     		cbz	r0, .L139
 1344              		.loc 1 315 0 is_stmt 0 discriminator 1
 1345 0056 3B20     		movs	r0, #59
 1346              	.LVL214:
 1347 0058 FFF7FEFF 		bl	GetConstMsg
 1348              	.LVL215:
 1349 005c 3246     		mov	r2, r6
 1350 005e 0146     		mov	r1, r0
 1351 0060 2046     		mov	r0, r4
 1352 0062 FFF7FEFF 		bl	memcpy
 1353              	.LVL216:
 1354 0066 41F21203 		movw	r3, #4114
 1355 006a A555     		strb	r5, [r4, r6]
 1356 006c 2521     		movs	r1, #37
 1357 006e 0093     		str	r3, [sp]
 1358 0070 0F20     		movs	r0, #15
 1359 0072 2246     		mov	r2, r4
 1360 0074 4FF48073 		mov	r3, #256
 1361 0078 FFF7FEFF 		bl	lib_app_call
 1362              	.LVL217:
 1363 007c 9420     		movs	r0, #148
 1364 007e 2146     		mov	r1, r4
 1365 0080 FFF7FEFF 		bl	sys_func1
 1366              	.LVL218:
 1367              	.L139:
 1368              	.LBE45:
 316:src/Func.c    ****     rec_idx = SearchRecord(FALSE);
 1369              		.loc 1 316 0 is_stmt 1
 1370 0084 0020     		movs	r0, #0
ARM GAS  C:\Users\AHMED~1.ELE\AppData\Local\Temp\ccgSQ7Y9.s 			page 33


 1371 0086 FFF7FEFF 		bl	SearchRecord
 1372              	.LVL219:
 317:src/Func.c    ****     if (rec_idx == -1)
 1373              		.loc 1 317 0
 1374 008a 431C     		adds	r3, r0, #1
 316:src/Func.c    ****     rec_idx = SearchRecord(FALSE);
 1375              		.loc 1 316 0
 1376 008c 0446     		mov	r4, r0
 1377              	.LVL220:
 1378              		.loc 1 317 0
 1379 008e 01D1     		bne	.L149
 1380 0090 23E0     		b	.L175
 1381              	.LVL221:
 1382              	.L138:
 318:src/Func.c    ****       return -1;
 319:src/Func.c    ****   }
 320:src/Func.c    ****   else
 321:src/Func.c    ****     rec_idx = rec_cnt - 1;
 1383              		.loc 1 321 0
 1384 0092 441E     		subs	r4, r0, #1
 1385              	.LVL222:
 1386              	.L149:
 322:src/Func.c    **** 
 323:src/Func.c    ****   while (1) {
 324:src/Func.c    ****     APM_GetBatchRec(rec_idx, (BYTE *)&RECORD_BUF, sizeof(RECORD_BUF));
 1387              		.loc 1 324 0
 1388 0094 914D     		ldr	r5, .L176+4
 1389 0096 4FF40072 		mov	r2, #512
 1390 009a 2B68     		ldr	r3, [r5]
 1391 009c 2A21     		movs	r1, #42
 1392 009e 0092     		str	r2, [sp]
 1393 00a0 03F5D963 		add	r3, r3, #1736
 1394 00a4 2246     		mov	r2, r4
 1395 00a6 1020     		movs	r0, #16
 1396 00a8 FFF7FEFF 		bl	lib_app_call
 1397              	.LVL223:
 325:src/Func.c    ****     APM_GetAcqTbl(RECORD_BUF.w_host_idx, &STIS_ACQ_TBL(0));
 1398              		.loc 1 325 0
 1399 00ac 0026     		movs	r6, #0
 1400 00ae 2B68     		ldr	r3, [r5]
 1401 00b0 1521     		movs	r1, #21
 1402 00b2 B3F83E27 		ldrh	r2, [r3, #1854]
 1403 00b6 1020     		movs	r0, #16
 1404 00b8 03F55273 		add	r3, r3, #840
 1405 00bc 0096     		str	r6, [sp]
 1406 00be FFF7FEFF 		bl	lib_app_call
 1407              	.LVL224:
 326:src/Func.c    ****     if (!CorrectHost(GetHostType(0))) {
 1408              		.loc 1 326 0
 1409 00c2 3046     		mov	r0, r6
 1410 00c4 FFF7FEFF 		bl	GetHostType
 1411              	.LVL225:
 1412 00c8 FFF7FEFF 		bl	CorrectHost
 1413              	.LVL226:
 1414 00cc 40B9     		cbnz	r0, .L141
 327:src/Func.c    ****       if (rec_idx == 0) {
 1415              		.loc 1 327 0
ARM GAS  C:\Users\AHMED~1.ELE\AppData\Local\Temp\ccgSQ7Y9.s 			page 34


 1416 00ce 3CB9     		cbnz	r4, .L141
 328:src/Func.c    ****         DispStatusMsg(GetConstMsg(EDC_FN_START_BATCH));
 1417              		.loc 1 328 0
 1418 00d0 3220     		movs	r0, #50
 1419 00d2 FFF7FEFF 		bl	GetConstMsg
 1420              	.LVL227:
 1421 00d6 FFF7FEFF 		bl	DispStatusMsg
 1422              	.LVL228:
 1423              	.L175:
 329:src/Func.c    ****        return -1;
 1424              		.loc 1 329 0
 1425 00da 4FF0FF30 		mov	r0, #-1
 1426 00de F7E0     		b	.L137
 1427              	.LVL229:
 1428              	.L141:
 330:src/Func.c    ****       }   
 331:src/Func.c    ****     }
 332:src/Func.c    ****     APM_GetIssuer(RECORD_BUF.w_issuer_idx, &STIS_ISS_TBL(0));
 1429              		.loc 1 332 0
 1430 00e0 2B68     		ldr	r3, [r5]
 1431 00e2 0027     		movs	r7, #0
 1432 00e4 B3F84027 		ldrh	r2, [r3, #1856]
 1433 00e8 1321     		movs	r1, #19
 1434 00ea 03F59463 		add	r3, r3, #1184
 1435 00ee 0097     		str	r7, [sp]
 1436 00f0 1020     		movs	r0, #16
 1437 00f2 FFF7FEFF 		bl	lib_app_call
 1438              	.LVL230:
 333:src/Func.c    ****     DispTransData(&RECORD_BUF);
 1439              		.loc 1 333 0
 1440 00f6 2868     		ldr	r0, [r5]
 1441 00f8 00F5D960 		add	r0, r0, #1736
 1442 00fc FFF7FEFF 		bl	DispTransData
 1443              	.LVL231:
 1444              	.LBB46:
 334:src/Func.c    ****     DispLineMW(KAppvCode, MW_LINE5, MW_SMFONT);
 1445              		.loc 1 334 0
 1446 0100 9220     		movs	r0, #146
 1447 0102 0B21     		movs	r1, #11
 1448 0104 FFF7FEFF 		bl	sys_func1
 1449              	.LVL232:
 1450 0108 0646     		mov	r6, r0
 1451 010a 80B1     		cbz	r0, .L142
 1452              		.loc 1 334 0 is_stmt 0 discriminator 1
 1453 010c 7449     		ldr	r1, .L176+8
 1454 010e 0A22     		movs	r2, #10
 1455 0110 FFF7FEFF 		bl	memcpy
 1456              	.LVL233:
 1457 0114 B772     		strb	r7, [r6, #10]
 1458 0116 2521     		movs	r1, #37
 1459 0118 0097     		str	r7, [sp]
 1460 011a 0F20     		movs	r0, #15
 1461 011c 3246     		mov	r2, r6
 1462 011e 4FF4A063 		mov	r3, #1280
 1463 0122 FFF7FEFF 		bl	lib_app_call
 1464              	.LVL234:
 1465 0126 9420     		movs	r0, #148
ARM GAS  C:\Users\AHMED~1.ELE\AppData\Local\Temp\ccgSQ7Y9.s 			page 35


 1466 0128 3146     		mov	r1, r6
 1467 012a FFF7FEFF 		bl	sys_func1
 1468              	.LVL235:
 1469              	.L142:
 1470              	.LBE46:
 335:src/Func.c    ****     memset(tmpbuf, 0, sizeof(tmpbuf));
 1471              		.loc 1 335 0 is_stmt 1
 1472 012e 0021     		movs	r1, #0
 1473 0130 1B22     		movs	r2, #27
 1474 0132 03A8     		add	r0, sp, #12
 1475 0134 FFF7FEFF 		bl	memset
 1476              	.LVL236:
 336:src/Func.c    ****     memcpy(tmpbuf, RECORD_BUF.sb_auth_code, sizeof(RECORD_BUF.sb_auth_code));
 1477              		.loc 1 336 0
 1478 0138 2968     		ldr	r1, [r5]
 1479 013a 0622     		movs	r2, #6
 1480 013c 01F22771 		addw	r1, r1, #1831
 1481 0140 03A8     		add	r0, sp, #12
 1482 0142 FFF7FEFF 		bl	memcpy
 1483              	.LVL237:
 1484              	.LBB47:
 337:src/Func.c    ****     DispLineMW(tmpbuf, MW_LINE5, MW_RIGHT|MW_SMFONT);
 1485              		.loc 1 337 0
 1486 0146 03A8     		add	r0, sp, #12
 1487 0148 FFF7FEFF 		bl	strlen
 1488              	.LVL238:
 1489 014c 0746     		mov	r7, r0
 1490              	.LVL239:
 1491 014e 791C     		adds	r1, r7, #1
 1492 0150 9220     		movs	r0, #146
 1493              	.LVL240:
 1494 0152 FFF7FEFF 		bl	sys_func1
 1495              	.LVL241:
 1496 0156 0646     		mov	r6, r0
 1497              	.LVL242:
 1498 0158 90B1     		cbz	r0, .L143
 1499              		.loc 1 337 0 is_stmt 0 discriminator 1
 1500 015a 03A9     		add	r1, sp, #12
 1501 015c 3A46     		mov	r2, r7
 1502 015e FFF7FEFF 		bl	memcpy
 1503              	.LVL243:
 1504 0162 0023     		movs	r3, #0
 1505 0164 2521     		movs	r1, #37
 1506 0166 F355     		strb	r3, [r6, r7]
 1507 0168 0123     		movs	r3, #1
 1508 016a 0F20     		movs	r0, #15
 1509 016c 0093     		str	r3, [sp]
 1510 016e 3246     		mov	r2, r6
 1511 0170 4FF4A063 		mov	r3, #1280
 1512 0174 FFF7FEFF 		bl	lib_app_call
 1513              	.LVL244:
 1514 0178 9420     		movs	r0, #148
 1515 017a 3146     		mov	r1, r6
 1516 017c FFF7FEFF 		bl	sys_func1
 1517              	.LVL245:
 1518              	.L143:
 1519              	.LBE47:
ARM GAS  C:\Users\AHMED~1.ELE\AppData\Local\Temp\ccgSQ7Y9.s 			page 36


 338:src/Func.c    ****     memset(tmpbuf, 0, sizeof(tmpbuf));
 1520              		.loc 1 338 0 is_stmt 1
 1521 0180 0021     		movs	r1, #0
 1522 0182 1B22     		movs	r2, #27
 1523 0184 03A8     		add	r0, sp, #12
 1524 0186 FFF7FEFF 		bl	memset
 1525              	.LVL246:
 339:src/Func.c    ****     ConvDateTime(tmpbuf, &RECORD_BUF.s_dtg, FALSE);
 1526              		.loc 1 339 0
 1527 018a 2968     		ldr	r1, [r5]
 1528 018c 0022     		movs	r2, #0
 1529 018e 01F24471 		addw	r1, r1, #1860
 1530 0192 03A8     		add	r0, sp, #12
 340:src/Func.c    ****     tmpbuf[16] = 0;
 1531              		.loc 1 340 0
 1532 0194 0027     		movs	r7, #0
 1533              	.LVL247:
 339:src/Func.c    ****     ConvDateTime(tmpbuf, &RECORD_BUF.s_dtg, FALSE);
 1534              		.loc 1 339 0
 1535 0196 FFF7FEFF 		bl	ConvDateTime
 1536              	.LVL248:
 1537              	.LBB48:
 341:src/Func.c    ****     DispLineMW(tmpbuf, MW_LINE6, MW_SMFONT);
 1538              		.loc 1 341 0
 1539 019a 03A8     		add	r0, sp, #12
 1540              	.LBE48:
 340:src/Func.c    ****     tmpbuf[16] = 0;
 1541              		.loc 1 340 0
 1542 019c 8DF81C70 		strb	r7, [sp, #28]
 1543              	.LBB49:
 1544              		.loc 1 341 0
 1545 01a0 FFF7FEFF 		bl	strlen
 1546              	.LVL249:
 1547 01a4 8046     		mov	r8, r0
 1548              	.LVL250:
 1549 01a6 08F10101 		add	r1, r8, #1
 1550 01aa 9220     		movs	r0, #146
 1551              	.LVL251:
 1552 01ac FFF7FEFF 		bl	sys_func1
 1553              	.LVL252:
 1554 01b0 0646     		mov	r6, r0
 1555              	.LVL253:
 1556 01b2 88B1     		cbz	r0, .L144
 1557              		.loc 1 341 0 is_stmt 0 discriminator 1
 1558 01b4 03A9     		add	r1, sp, #12
 1559 01b6 4246     		mov	r2, r8
 1560 01b8 FFF7FEFF 		bl	memcpy
 1561              	.LVL254:
 1562 01bc 06F80870 		strb	r7, [r6, r8]
 1563 01c0 2521     		movs	r1, #37
 1564 01c2 0097     		str	r7, [sp]
 1565 01c4 0F20     		movs	r0, #15
 1566 01c6 3246     		mov	r2, r6
 1567 01c8 4FF4C063 		mov	r3, #1536
 1568 01cc FFF7FEFF 		bl	lib_app_call
 1569              	.LVL255:
 1570 01d0 9420     		movs	r0, #148
ARM GAS  C:\Users\AHMED~1.ELE\AppData\Local\Temp\ccgSQ7Y9.s 			page 37


 1571 01d2 3146     		mov	r1, r6
 1572 01d4 FFF7FEFF 		bl	sys_func1
 1573              	.LVL256:
 1574              	.L144:
 1575              	.LBE49:
 342:src/Func.c    ****     memset(tmpbuf, 0, sizeof(tmpbuf));
 1576              		.loc 1 342 0 is_stmt 1
 1577 01d8 0021     		movs	r1, #0
 1578 01da 1B22     		movs	r2, #27
 1579 01dc 03A8     		add	r0, sp, #12
 1580 01de FFF7FEFF 		bl	memset
 1581              	.LVL257:
 343:src/Func.c    ****     memcpy(tmpbuf, RECORD_BUF.sb_ecr_ref, sizeof(RECORD_BUF.sb_ecr_ref));
 1582              		.loc 1 343 0
 1583 01e2 2968     		ldr	r1, [r5]
 1584 01e4 1022     		movs	r2, #16
 1585 01e6 01F21771 		addw	r1, r1, #1815
 1586 01ea 03A8     		add	r0, sp, #12
 1587 01ec FFF7FEFF 		bl	memcpy
 1588              	.LVL258:
 1589              	.LBB50:
 344:src/Func.c    ****     DispLineMW(tmpbuf, MW_LINE7, MW_CENTER|MW_SMFONT);
 1590              		.loc 1 344 0
 1591 01f0 03A8     		add	r0, sp, #12
 1592 01f2 FFF7FEFF 		bl	strlen
 1593              	.LVL259:
 1594 01f6 0746     		mov	r7, r0
 1595              	.LVL260:
 1596 01f8 791C     		adds	r1, r7, #1
 1597 01fa 9220     		movs	r0, #146
 1598              	.LVL261:
 1599 01fc FFF7FEFF 		bl	sys_func1
 1600              	.LVL262:
 1601 0200 0646     		mov	r6, r0
 1602              	.LVL263:
 1603 0202 90B1     		cbz	r0, .L145
 1604              		.loc 1 344 0 is_stmt 0 discriminator 1
 1605 0204 03A9     		add	r1, sp, #12
 1606 0206 3A46     		mov	r2, r7
 1607 0208 FFF7FEFF 		bl	memcpy
 1608              	.LVL264:
 1609 020c 0023     		movs	r3, #0
 1610 020e 2521     		movs	r1, #37
 1611 0210 F355     		strb	r3, [r6, r7]
 1612 0212 0223     		movs	r3, #2
 1613 0214 0F20     		movs	r0, #15
 1614 0216 0093     		str	r3, [sp]
 1615 0218 3246     		mov	r2, r6
 1616 021a 4FF4E063 		mov	r3, #1792
 1617 021e FFF7FEFF 		bl	lib_app_call
 1618              	.LVL265:
 1619 0222 9420     		movs	r0, #148
 1620 0224 3146     		mov	r1, r6
 1621 0226 FFF7FEFF 		bl	sys_func1
 1622              	.LVL266:
 1623              	.L145:
 1624              	.LBE50:
ARM GAS  C:\Users\AHMED~1.ELE\AppData\Local\Temp\ccgSQ7Y9.s 			page 38


 1625              	.LBB51:
 345:src/Func.c    ****     DispLineMW(KRRN, MW_LINE8, MW_SPFONT);
 1626              		.loc 1 345 0 is_stmt 1
 1627 022a 9220     		movs	r0, #146
 1628 022c 0521     		movs	r1, #5
 1629 022e FFF7FEFF 		bl	sys_func1
 1630              	.LVL267:
 1631 0232 0646     		mov	r6, r0
 1632              	.LVL268:
 1633 0234 98B1     		cbz	r0, .L146
 1634              		.loc 1 345 0 is_stmt 0 discriminator 1
 1635 0236 2B49     		ldr	r1, .L176+12
 1636 0238 0422     		movs	r2, #4
 1637 023a FFF7FEFF 		bl	memcpy
 1638              	.LVL269:
 1639 023e 0023     		movs	r3, #0
 1640 0240 2521     		movs	r1, #37
 1641 0242 3371     		strb	r3, [r6, #4]
 1642 0244 4FF40053 		mov	r3, #8192
 1643 0248 0F20     		movs	r0, #15
 1644 024a 0093     		str	r3, [sp]
 1645 024c 3246     		mov	r2, r6
 1646 024e 4FF40063 		mov	r3, #2048
 1647 0252 FFF7FEFF 		bl	lib_app_call
 1648              	.LVL270:
 1649 0256 9420     		movs	r0, #148
 1650 0258 3146     		mov	r1, r6
 1651 025a FFF7FEFF 		bl	sys_func1
 1652              	.LVL271:
 1653              	.L146:
 1654              	.LBE51:
 346:src/Func.c    ****     memset(tmpbuf, 0, sizeof(tmpbuf));
 1655              		.loc 1 346 0 is_stmt 1
 1656 025e 0021     		movs	r1, #0
 1657 0260 1B22     		movs	r2, #27
 1658 0262 03A8     		add	r0, sp, #12
 1659 0264 FFF7FEFF 		bl	memset
 1660              	.LVL272:
 347:src/Func.c    ****     memcpy(tmpbuf, RECORD_BUF.sb_rrn, sizeof(RECORD_BUF.sb_rrn));
 1661              		.loc 1 347 0
 1662 0268 2968     		ldr	r1, [r5]
 1663 026a 0C22     		movs	r2, #12
 1664 026c 01F23171 		addw	r1, r1, #1841
 1665 0270 03A8     		add	r0, sp, #12
 1666 0272 FFF7FEFF 		bl	memcpy
 1667              	.LVL273:
 1668              	.LBB52:
 348:src/Func.c    ****     DispLineMW(tmpbuf, MW_LINE8+4, MW_SPFONT);
 1669              		.loc 1 348 0
 1670 0276 03A8     		add	r0, sp, #12
 1671 0278 FFF7FEFF 		bl	strlen
 1672              	.LVL274:
 1673 027c 0646     		mov	r6, r0
 1674              	.LVL275:
 1675 027e 711C     		adds	r1, r6, #1
 1676 0280 9220     		movs	r0, #146
 1677              	.LVL276:
ARM GAS  C:\Users\AHMED~1.ELE\AppData\Local\Temp\ccgSQ7Y9.s 			page 39


 1678 0282 FFF7FEFF 		bl	sys_func1
 1679              	.LVL277:
 1680 0286 0546     		mov	r5, r0
 1681 0288 98B1     		cbz	r0, .L147
 1682              		.loc 1 348 0 is_stmt 0 discriminator 1
 1683 028a 03A9     		add	r1, sp, #12
 1684 028c 3246     		mov	r2, r6
 1685 028e FFF7FEFF 		bl	memcpy
 1686              	.LVL278:
 1687 0292 0023     		movs	r3, #0
 1688 0294 2521     		movs	r1, #37
 1689 0296 AB55     		strb	r3, [r5, r6]
 1690 0298 4FF40053 		mov	r3, #8192
 1691 029c 0F20     		movs	r0, #15
 1692 029e 0093     		str	r3, [sp]
 1693 02a0 2A46     		mov	r2, r5
 1694 02a2 40F60403 		movw	r3, #2052
 1695 02a6 FFF7FEFF 		bl	lib_app_call
 1696              	.LVL279:
 1697 02aa 9420     		movs	r0, #148
 1698 02ac 2946     		mov	r1, r5
 1699 02ae FFF7FEFF 		bl	sys_func1
 1700              	.LVL280:
 1701              	.L147:
 1702              	.LBE52:
 349:src/Func.c    ****     keyin=APM_WaitKey(KBD_TIMEOUT,0);
 1703              		.loc 1 349 0 is_stmt 1
 1704 02b2 0023     		movs	r3, #0
 1705 02b4 1020     		movs	r0, #16
 1706 02b6 0093     		str	r3, [sp]
 1707 02b8 0321     		movs	r1, #3
 1708 02ba 42F22832 		movw	r2, #9000
 1709 02be FFF7FEFF 		bl	lib_app_call
 1710              	.LVL281:
 350:src/Func.c    ****     if (keyin == MWKEY_CANCL)
 1711              		.loc 1 350 0
 1712 02c2 1128     		cmp	r0, #17
 1713 02c4 3FF409AF 		beq	.L175
 351:src/Func.c    ****       return -1;
 352:src/Func.c    ****     if (keyin == MWKEY_ENTER)
 1714              		.loc 1 352 0
 1715 02c8 1028     		cmp	r0, #16
 1716 02ca 7FF4E3AE 		bne	.L149
 1717 02ce 2046     		mov	r0, r4
 1718              	.LVL282:
 1719              	.L137:
 353:src/Func.c    ****       return rec_idx;
 354:src/Func.c    ****   }
 355:src/Func.c    **** }
 1720              		.loc 1 355 0
 1721 02d0 0AB0     		add	sp, sp, #40
 1722              		.cfi_def_cfa_offset 24
 1723              		@ sp needed
 1724 02d2 BDE8F081 		pop	{r4, r5, r6, r7, r8, pc}
 1725              	.L177:
 1726 02d6 00BF     		.align	2
 1727              	.L176:
ARM GAS  C:\Users\AHMED~1.ELE\AppData\Local\Temp\ccgSQ7Y9.s 			page 40


 1728 02d8 00000000 		.word	gGTS
 1729 02dc 00000000 		.word	gGDS
 1730 02e0 1E000000 		.word	.LANCHOR0+30
 1731 02e4 29000000 		.word	.LANCHOR0+41
 1732              		.cfi_endproc
 1733              	.LFE4:
 1734              		.size	DisplayRecordno, .-DisplayRecordno
 1735              		.section	.text.DisplayBatch,"ax",%progbits
 1736              		.align	1
 1737              		.global	DisplayBatch
 1738              		.thumb
 1739              		.thumb_func
 1740              		.type	DisplayBatch, %function
 1741              	DisplayBatch:
 1742              	.LFB5:
 356:src/Func.c    **** //*****************************************************************************
 357:src/Func.c    **** //  Function        : DisplayBatch
 358:src/Func.c    **** //  Description     : Display batch record.
 359:src/Func.c    **** //  Input           : record index;     // display with specify record index.
 360:src/Func.c    **** //  Return          : N/A
 361:src/Func.c    **** //  Note            : N/A
 362:src/Func.c    **** //  Globals Changed : N/A
 363:src/Func.c    **** //*****************************************************************************
 364:src/Func.c    **** void DisplayBatch(DWORD aRecIdx)
 365:src/Func.c    **** {
 1743              		.loc 1 365 0
 1744              		.cfi_startproc
 1745              		@ args = 0, pretend = 0, frame = 32
 1746              		@ frame_needed = 0, uses_anonymous_args = 0
 1747              	.LVL283:
 1748 0000 2DE9F043 		push	{r4, r5, r6, r7, r8, r9, lr}
 1749              		.cfi_def_cfa_offset 28
 1750              		.cfi_offset 4, -28
 1751              		.cfi_offset 5, -24
 1752              		.cfi_offset 6, -20
 1753              		.cfi_offset 7, -16
 1754              		.cfi_offset 8, -12
 1755              		.cfi_offset 9, -8
 1756              		.cfi_offset 14, -4
 366:src/Func.c    ****   static const BYTE KRRN[] = {"RRN:"};
 367:src/Func.c    ****   BYTE tmpbuf[MW_MAX_LINESIZE+1];
 368:src/Func.c    ****   int rec_cnt, rec_idx;
 369:src/Func.c    ****   DWORD keyin;
 370:src/Func.c    **** 
 371:src/Func.c    ****   rec_cnt = APM_GetRecCount();
 1757              		.loc 1 371 0
 1758 0004 0025     		movs	r5, #0
 365:src/Func.c    ****   static const BYTE KRRN[] = {"RRN:"};
 1759              		.loc 1 365 0
 1760 0006 8BB0     		sub	sp, sp, #44
 1761              		.cfi_def_cfa_offset 72
 365:src/Func.c    ****   static const BYTE KRRN[] = {"RRN:"};
 1762              		.loc 1 365 0
 1763 0008 0446     		mov	r4, r0
 1764              		.loc 1 371 0
 1765 000a 0095     		str	r5, [sp]
 1766 000c 1020     		movs	r0, #16
ARM GAS  C:\Users\AHMED~1.ELE\AppData\Local\Temp\ccgSQ7Y9.s 			page 41


 1767              	.LVL284:
 1768 000e 2921     		movs	r1, #41
 1769 0010 2A46     		mov	r2, r5
 1770 0012 2B46     		mov	r3, r5
 1771 0014 FFF7FEFF 		bl	lib_app_call
 1772              	.LVL285:
 372:src/Func.c    ****   if (rec_cnt == 0) {
 1773              		.loc 1 372 0
 1774 0018 0746     		mov	r7, r0
 1775 001a 70B9     		cbnz	r0, .L179
 373:src/Func.c    ****     RSP_DATA.w_rspcode = 'N'*256+'T';
 1776              		.loc 1 373 0
 1777 001c 44F65462 		movw	r2, #20052
 1778 0020 BC4B     		ldr	r3, .L234
 374:src/Func.c    ****     DispCtrlMW(MW_CLR_DISP);
 1779              		.loc 1 374 0
 1780 0022 0C21     		movs	r1, #12
 1781 0024 1620     		movs	r0, #22
 1782              	.LVL286:
 373:src/Func.c    ****     RSP_DATA.w_rspcode = 'N'*256+'T';
 1783              		.loc 1 373 0
 1784 0026 A3F81627 		strh	r2, [r3, #1814]	@ movhi
 1785              		.loc 1 374 0
 1786 002a FFF7FEFF 		bl	sys_func1
 1787              	.LVL287:
 375:src/Func.c    ****     DispRspText(FALSE);
 1788              		.loc 1 375 0
 1789 002e 3846     		mov	r0, r7
 1790 0030 FFF7FEFF 		bl	DispRspText
 1791              	.LVL288:
 376:src/Func.c    ****     ErrorDelay();
 1792              		.loc 1 376 0
 1793 0034 FFF7FEFF 		bl	ErrorDelay
 1794              	.LVL289:
 377:src/Func.c    ****     return;
 1795              		.loc 1 377 0
 1796 0038 68E1     		b	.L178
 1797              	.LVL290:
 1798              	.L179:
 378:src/Func.c    ****   }
 379:src/Func.c    **** 
 380:src/Func.c    ****   if (aRecIdx == -1) {
 1799              		.loc 1 380 0
 1800 003a 0134     		adds	r4, r4, #1
 1801              	.LVL291:
 1802 003c 29D1     		bne	.L181
 1803              	.LBB53:
 381:src/Func.c    ****     DispLineMW(GetConstMsg(EDC_FN_DISP_BATCH), MW_LINE1, MW_REVERSE|MW_CENTER|MW_BIGFONT);
 1804              		.loc 1 381 0
 1805 003e 3B20     		movs	r0, #59
 1806              	.LVL292:
 1807 0040 FFF7FEFF 		bl	GetConstMsg
 1808              	.LVL293:
 1809 0044 FFF7FEFF 		bl	strlen
 1810              	.LVL294:
 1811 0048 0646     		mov	r6, r0
 1812              	.LVL295:
ARM GAS  C:\Users\AHMED~1.ELE\AppData\Local\Temp\ccgSQ7Y9.s 			page 42


 1813 004a 711C     		adds	r1, r6, #1
 1814 004c 9220     		movs	r0, #146
 1815              	.LVL296:
 1816 004e FFF7FEFF 		bl	sys_func1
 1817              	.LVL297:
 1818 0052 0446     		mov	r4, r0
 1819              	.LVL298:
 1820 0054 B0B1     		cbz	r0, .L182
 1821              		.loc 1 381 0 is_stmt 0 discriminator 1
 1822 0056 3B20     		movs	r0, #59
 1823              	.LVL299:
 1824 0058 FFF7FEFF 		bl	GetConstMsg
 1825              	.LVL300:
 1826 005c 3246     		mov	r2, r6
 1827 005e 0146     		mov	r1, r0
 1828 0060 2046     		mov	r0, r4
 1829 0062 FFF7FEFF 		bl	memcpy
 1830              	.LVL301:
 1831 0066 41F21203 		movw	r3, #4114
 1832 006a A555     		strb	r5, [r4, r6]
 1833 006c 2521     		movs	r1, #37
 1834 006e 0093     		str	r3, [sp]
 1835 0070 0F20     		movs	r0, #15
 1836 0072 2246     		mov	r2, r4
 1837 0074 4FF48073 		mov	r3, #256
 1838 0078 FFF7FEFF 		bl	lib_app_call
 1839              	.LVL302:
 1840 007c 9420     		movs	r0, #148
 1841 007e 2146     		mov	r1, r4
 1842 0080 FFF7FEFF 		bl	sys_func1
 1843              	.LVL303:
 1844              	.L182:
 1845              	.LBE53:
 382:src/Func.c    ****     rec_idx = SearchRecord(FALSE);
 1846              		.loc 1 382 0 is_stmt 1
 1847 0084 0020     		movs	r0, #0
 1848 0086 FFF7FEFF 		bl	SearchRecord
 1849              	.LVL304:
 383:src/Func.c    ****     if (rec_idx == -1)
 1850              		.loc 1 383 0
 1851 008a 431C     		adds	r3, r0, #1
 382:src/Func.c    ****     rec_idx = SearchRecord(FALSE);
 1852              		.loc 1 382 0
 1853 008c 0446     		mov	r4, r0
 1854              	.LVL305:
 1855              		.loc 1 383 0
 1856 008e 01D1     		bne	.L184
 1857 0090 3CE1     		b	.L178
 1858              	.LVL306:
 1859              	.L181:
 384:src/Func.c    ****       return;
 385:src/Func.c    ****   }
 386:src/Func.c    ****   else
 387:src/Func.c    ****     rec_idx = rec_cnt - 1;
 1860              		.loc 1 387 0
 1861 0092 441E     		subs	r4, r0, #1
 1862              	.LVL307:
ARM GAS  C:\Users\AHMED~1.ELE\AppData\Local\Temp\ccgSQ7Y9.s 			page 43


 1863              	.L184:
 388:src/Func.c    **** 
 389:src/Func.c    ****   while (1) {
 390:src/Func.c    ****     APM_GetBatchRec(rec_idx, (BYTE *)&RECORD_BUF, sizeof(RECORD_BUF));
 1864              		.loc 1 390 0
 1865 0094 A04D     		ldr	r5, .L234+4
 1866 0096 4FF40072 		mov	r2, #512
 1867 009a 2B68     		ldr	r3, [r5]
 1868 009c 2A21     		movs	r1, #42
 1869 009e 0092     		str	r2, [sp]
 1870 00a0 03F5D963 		add	r3, r3, #1736
 1871 00a4 2246     		mov	r2, r4
 1872 00a6 1020     		movs	r0, #16
 1873 00a8 FFF7FEFF 		bl	lib_app_call
 1874              	.LVL308:
 391:src/Func.c    ****     APM_GetAcqTbl(RECORD_BUF.w_host_idx, &STIS_ACQ_TBL(0));
 1875              		.loc 1 391 0
 1876 00ac 0026     		movs	r6, #0
 1877 00ae 2B68     		ldr	r3, [r5]
 1878 00b0 1521     		movs	r1, #21
 1879 00b2 B3F83E27 		ldrh	r2, [r3, #1854]
 1880 00b6 1020     		movs	r0, #16
 1881 00b8 03F55273 		add	r3, r3, #840
 1882 00bc 0096     		str	r6, [sp]
 1883 00be FFF7FEFF 		bl	lib_app_call
 1884              	.LVL309:
 392:src/Func.c    ****     if (!CorrectHost(GetHostType(0))) {
 1885              		.loc 1 392 0
 1886 00c2 3046     		mov	r0, r6
 1887 00c4 FFF7FEFF 		bl	GetHostType
 1888              	.LVL310:
 1889 00c8 FFF7FEFF 		bl	CorrectHost
 1890              	.LVL311:
 1891 00cc 40B9     		cbnz	r0, .L185
 393:src/Func.c    ****       if (rec_idx == 0) {
 1892              		.loc 1 393 0
 1893 00ce 2CB9     		cbnz	r4, .L186
 394:src/Func.c    ****         DispStatusMsg(GetConstMsg(EDC_FN_START_BATCH));
 1894              		.loc 1 394 0
 1895 00d0 3220     		movs	r0, #50
 1896 00d2 FFF7FEFF 		bl	GetConstMsg
 1897              	.LVL312:
 1898 00d6 FFF7FEFF 		bl	DispStatusMsg
 1899              	.LVL313:
 395:src/Func.c    ****         break;
 1900              		.loc 1 395 0
 1901 00da 17E1     		b	.L178
 1902              	.L186:
 396:src/Func.c    ****       }
 397:src/Func.c    ****       else
 398:src/Func.c    ****         rec_idx -= 1;
 1903              		.loc 1 398 0
 1904 00dc 013C     		subs	r4, r4, #1
 1905              	.LVL314:
 399:src/Func.c    ****       continue;
 1906              		.loc 1 399 0
 1907 00de D9E7     		b	.L184
ARM GAS  C:\Users\AHMED~1.ELE\AppData\Local\Temp\ccgSQ7Y9.s 			page 44


 1908              	.L185:
 400:src/Func.c    ****     }
 401:src/Func.c    ****     APM_GetIssuer(RECORD_BUF.w_issuer_idx, &STIS_ISS_TBL(0));
 1909              		.loc 1 401 0
 1910 00e0 2B68     		ldr	r3, [r5]
 1911 00e2 1321     		movs	r1, #19
 1912 00e4 B3F84027 		ldrh	r2, [r3, #1856]
 1913 00e8 1020     		movs	r0, #16
 1914 00ea 03F59463 		add	r3, r3, #1184
 1915 00ee 0096     		str	r6, [sp]
 1916 00f0 FFF7FEFF 		bl	lib_app_call
 1917              	.LVL315:
 402:src/Func.c    ****     DispTransData(&RECORD_BUF);
 1918              		.loc 1 402 0
 1919 00f4 2868     		ldr	r0, [r5]
 1920 00f6 00F5D960 		add	r0, r0, #1736
 1921 00fa FFF7FEFF 		bl	DispTransData
 1922              	.LVL316:
 1923              	.LBB54:
 403:src/Func.c    ****     DispLineMW(KAppvCode, MW_LINE5, MW_SMFONT);
 1924              		.loc 1 403 0
 1925 00fe 9220     		movs	r0, #146
 1926 0100 0B21     		movs	r1, #11
 1927 0102 FFF7FEFF 		bl	sys_func1
 1928              	.LVL317:
 1929 0106 8046     		mov	r8, r0
 1930 0108 88B1     		cbz	r0, .L189
 1931              		.loc 1 403 0 is_stmt 0 discriminator 1
 1932 010a 8449     		ldr	r1, .L234+8
 1933 010c 0A22     		movs	r2, #10
 1934 010e FFF7FEFF 		bl	memcpy
 1935              	.LVL318:
 1936 0112 88F80A60 		strb	r6, [r8, #10]
 1937 0116 2521     		movs	r1, #37
 1938 0118 0096     		str	r6, [sp]
 1939 011a 0F20     		movs	r0, #15
 1940 011c 4246     		mov	r2, r8
 1941 011e 4FF4A063 		mov	r3, #1280
 1942 0122 FFF7FEFF 		bl	lib_app_call
 1943              	.LVL319:
 1944 0126 9420     		movs	r0, #148
 1945 0128 4146     		mov	r1, r8
 1946 012a FFF7FEFF 		bl	sys_func1
 1947              	.LVL320:
 1948              	.L189:
 1949              	.LBE54:
 404:src/Func.c    ****     memset(tmpbuf, 0, sizeof(tmpbuf));
 1950              		.loc 1 404 0 is_stmt 1
 1951 012e 0021     		movs	r1, #0
 1952 0130 1B22     		movs	r2, #27
 1953 0132 03A8     		add	r0, sp, #12
 1954 0134 FFF7FEFF 		bl	memset
 1955              	.LVL321:
 405:src/Func.c    ****     memcpy(tmpbuf, RECORD_BUF.sb_auth_code, sizeof(RECORD_BUF.sb_auth_code));
 1956              		.loc 1 405 0
 1957 0138 2968     		ldr	r1, [r5]
 1958 013a 0622     		movs	r2, #6
ARM GAS  C:\Users\AHMED~1.ELE\AppData\Local\Temp\ccgSQ7Y9.s 			page 45


 1959 013c 01F22771 		addw	r1, r1, #1831
 1960 0140 03A8     		add	r0, sp, #12
 1961 0142 FFF7FEFF 		bl	memcpy
 1962              	.LVL322:
 1963              	.LBB55:
 406:src/Func.c    ****     DispLineMW(tmpbuf, MW_LINE5, MW_RIGHT|MW_SMFONT);
 1964              		.loc 1 406 0
 1965 0146 03A8     		add	r0, sp, #12
 1966 0148 FFF7FEFF 		bl	strlen
 1967              	.LVL323:
 1968 014c 8046     		mov	r8, r0
 1969              	.LVL324:
 1970 014e 08F10101 		add	r1, r8, #1
 1971 0152 9220     		movs	r0, #146
 1972              	.LVL325:
 1973 0154 FFF7FEFF 		bl	sys_func1
 1974              	.LVL326:
 1975 0158 0646     		mov	r6, r0
 1976 015a 98B1     		cbz	r0, .L190
 1977              		.loc 1 406 0 is_stmt 0 discriminator 1
 1978 015c 03A9     		add	r1, sp, #12
 1979 015e 4246     		mov	r2, r8
 1980 0160 FFF7FEFF 		bl	memcpy
 1981              	.LVL327:
 1982 0164 0023     		movs	r3, #0
 1983 0166 2521     		movs	r1, #37
 1984 0168 06F80830 		strb	r3, [r6, r8]
 1985 016c 0123     		movs	r3, #1
 1986 016e 0F20     		movs	r0, #15
 1987 0170 0093     		str	r3, [sp]
 1988 0172 3246     		mov	r2, r6
 1989 0174 4FF4A063 		mov	r3, #1280
 1990 0178 FFF7FEFF 		bl	lib_app_call
 1991              	.LVL328:
 1992 017c 9420     		movs	r0, #148
 1993 017e 3146     		mov	r1, r6
 1994 0180 FFF7FEFF 		bl	sys_func1
 1995              	.LVL329:
 1996              	.L190:
 1997              	.LBE55:
 407:src/Func.c    ****     memset(tmpbuf, 0, sizeof(tmpbuf));
 1998              		.loc 1 407 0 is_stmt 1
 1999 0184 0021     		movs	r1, #0
 2000 0186 1B22     		movs	r2, #27
 2001 0188 03A8     		add	r0, sp, #12
 2002 018a FFF7FEFF 		bl	memset
 2003              	.LVL330:
 408:src/Func.c    ****     ConvDateTime(tmpbuf, &RECORD_BUF.s_dtg, FALSE);
 2004              		.loc 1 408 0
 2005 018e 2968     		ldr	r1, [r5]
 2006 0190 0022     		movs	r2, #0
 2007 0192 01F24471 		addw	r1, r1, #1860
 2008 0196 03A8     		add	r0, sp, #12
 409:src/Func.c    ****     tmpbuf[16] = 0;
 2009              		.loc 1 409 0
 2010 0198 4FF00008 		mov	r8, #0
 2011              	.LVL331:
ARM GAS  C:\Users\AHMED~1.ELE\AppData\Local\Temp\ccgSQ7Y9.s 			page 46


 408:src/Func.c    ****     ConvDateTime(tmpbuf, &RECORD_BUF.s_dtg, FALSE);
 2012              		.loc 1 408 0
 2013 019c FFF7FEFF 		bl	ConvDateTime
 2014              	.LVL332:
 2015              	.LBB56:
 410:src/Func.c    ****     DispLineMW(tmpbuf, MW_LINE6, MW_SMFONT);
 2016              		.loc 1 410 0
 2017 01a0 03A8     		add	r0, sp, #12
 2018              	.LBE56:
 409:src/Func.c    ****     tmpbuf[16] = 0;
 2019              		.loc 1 409 0
 2020 01a2 8DF81C80 		strb	r8, [sp, #28]
 2021              	.LBB57:
 2022              		.loc 1 410 0
 2023 01a6 FFF7FEFF 		bl	strlen
 2024              	.LVL333:
 2025 01aa 8146     		mov	r9, r0
 2026              	.LVL334:
 2027 01ac 09F10101 		add	r1, r9, #1
 2028 01b0 9220     		movs	r0, #146
 2029              	.LVL335:
 2030 01b2 FFF7FEFF 		bl	sys_func1
 2031              	.LVL336:
 2032 01b6 0646     		mov	r6, r0
 2033              	.LVL337:
 2034 01b8 90B1     		cbz	r0, .L191
 2035              		.loc 1 410 0 is_stmt 0 discriminator 1
 2036 01ba 03A9     		add	r1, sp, #12
 2037 01bc 4A46     		mov	r2, r9
 2038 01be FFF7FEFF 		bl	memcpy
 2039              	.LVL338:
 2040 01c2 06F80980 		strb	r8, [r6, r9]
 2041 01c6 2521     		movs	r1, #37
 2042 01c8 CDF80080 		str	r8, [sp]
 2043 01cc 0F20     		movs	r0, #15
 2044 01ce 3246     		mov	r2, r6
 2045 01d0 4FF4C063 		mov	r3, #1536
 2046 01d4 FFF7FEFF 		bl	lib_app_call
 2047              	.LVL339:
 2048 01d8 9420     		movs	r0, #148
 2049 01da 3146     		mov	r1, r6
 2050 01dc FFF7FEFF 		bl	sys_func1
 2051              	.LVL340:
 2052              	.L191:
 2053              	.LBE57:
 411:src/Func.c    ****     memset(tmpbuf, 0, sizeof(tmpbuf));
 2054              		.loc 1 411 0 is_stmt 1
 2055 01e0 0021     		movs	r1, #0
 2056 01e2 1B22     		movs	r2, #27
 2057 01e4 03A8     		add	r0, sp, #12
 2058 01e6 FFF7FEFF 		bl	memset
 2059              	.LVL341:
 412:src/Func.c    ****     memcpy(tmpbuf, RECORD_BUF.sb_ecr_ref, sizeof(RECORD_BUF.sb_ecr_ref));
 2060              		.loc 1 412 0
 2061 01ea 2968     		ldr	r1, [r5]
 2062 01ec 1022     		movs	r2, #16
 2063 01ee 01F21771 		addw	r1, r1, #1815
ARM GAS  C:\Users\AHMED~1.ELE\AppData\Local\Temp\ccgSQ7Y9.s 			page 47


 2064 01f2 03A8     		add	r0, sp, #12
 2065 01f4 FFF7FEFF 		bl	memcpy
 2066              	.LVL342:
 2067              	.LBB58:
 413:src/Func.c    ****     DispLineMW(tmpbuf, MW_LINE7, MW_CENTER|MW_SMFONT);
 2068              		.loc 1 413 0
 2069 01f8 03A8     		add	r0, sp, #12
 2070 01fa FFF7FEFF 		bl	strlen
 2071              	.LVL343:
 2072 01fe 8046     		mov	r8, r0
 2073              	.LVL344:
 2074 0200 08F10101 		add	r1, r8, #1
 2075 0204 9220     		movs	r0, #146
 2076              	.LVL345:
 2077 0206 FFF7FEFF 		bl	sys_func1
 2078              	.LVL346:
 2079 020a 0646     		mov	r6, r0
 2080              	.LVL347:
 2081 020c 98B1     		cbz	r0, .L192
 2082              		.loc 1 413 0 is_stmt 0 discriminator 1
 2083 020e 03A9     		add	r1, sp, #12
 2084 0210 4246     		mov	r2, r8
 2085 0212 FFF7FEFF 		bl	memcpy
 2086              	.LVL348:
 2087 0216 0023     		movs	r3, #0
 2088 0218 2521     		movs	r1, #37
 2089 021a 06F80830 		strb	r3, [r6, r8]
 2090 021e 0223     		movs	r3, #2
 2091 0220 0F20     		movs	r0, #15
 2092 0222 0093     		str	r3, [sp]
 2093 0224 3246     		mov	r2, r6
 2094 0226 4FF4E063 		mov	r3, #1792
 2095 022a FFF7FEFF 		bl	lib_app_call
 2096              	.LVL349:
 2097 022e 9420     		movs	r0, #148
 2098 0230 3146     		mov	r1, r6
 2099 0232 FFF7FEFF 		bl	sys_func1
 2100              	.LVL350:
 2101              	.L192:
 2102              	.LBE58:
 2103              	.LBB59:
 414:src/Func.c    ****     DispLineMW(KRRN, MW_LINE8, MW_SPFONT);
 2104              		.loc 1 414 0 is_stmt 1
 2105 0236 9220     		movs	r0, #146
 2106 0238 0521     		movs	r1, #5
 2107 023a FFF7FEFF 		bl	sys_func1
 2108              	.LVL351:
 2109 023e 0646     		mov	r6, r0
 2110              	.LVL352:
 2111 0240 98B1     		cbz	r0, .L193
 2112              		.loc 1 414 0 is_stmt 0 discriminator 1
 2113 0242 3749     		ldr	r1, .L234+12
 2114 0244 0422     		movs	r2, #4
 2115 0246 FFF7FEFF 		bl	memcpy
 2116              	.LVL353:
 2117 024a 0023     		movs	r3, #0
 2118 024c 2521     		movs	r1, #37
ARM GAS  C:\Users\AHMED~1.ELE\AppData\Local\Temp\ccgSQ7Y9.s 			page 48


 2119 024e 3371     		strb	r3, [r6, #4]
 2120 0250 4FF40053 		mov	r3, #8192
 2121 0254 0F20     		movs	r0, #15
 2122 0256 0093     		str	r3, [sp]
 2123 0258 3246     		mov	r2, r6
 2124 025a 4FF40063 		mov	r3, #2048
 2125 025e FFF7FEFF 		bl	lib_app_call
 2126              	.LVL354:
 2127 0262 9420     		movs	r0, #148
 2128 0264 3146     		mov	r1, r6
 2129 0266 FFF7FEFF 		bl	sys_func1
 2130              	.LVL355:
 2131              	.L193:
 2132              	.LBE59:
 415:src/Func.c    ****     memset(tmpbuf, 0, sizeof(tmpbuf));
 2133              		.loc 1 415 0 is_stmt 1
 2134 026a 0021     		movs	r1, #0
 2135 026c 1B22     		movs	r2, #27
 2136 026e 03A8     		add	r0, sp, #12
 2137 0270 FFF7FEFF 		bl	memset
 2138              	.LVL356:
 416:src/Func.c    ****     memcpy(tmpbuf, RECORD_BUF.sb_rrn, sizeof(RECORD_BUF.sb_rrn));
 2139              		.loc 1 416 0
 2140 0274 2968     		ldr	r1, [r5]
 2141 0276 0C22     		movs	r2, #12
 2142 0278 01F23171 		addw	r1, r1, #1841
 2143 027c 03A8     		add	r0, sp, #12
 2144 027e FFF7FEFF 		bl	memcpy
 2145              	.LVL357:
 2146              	.LBB60:
 417:src/Func.c    ****     DispLineMW(tmpbuf, MW_LINE8+4, MW_SPFONT);
 2147              		.loc 1 417 0
 2148 0282 03A8     		add	r0, sp, #12
 2149 0284 FFF7FEFF 		bl	strlen
 2150              	.LVL358:
 2151 0288 0646     		mov	r6, r0
 2152              	.LVL359:
 2153 028a 711C     		adds	r1, r6, #1
 2154 028c 9220     		movs	r0, #146
 2155              	.LVL360:
 2156 028e FFF7FEFF 		bl	sys_func1
 2157              	.LVL361:
 2158 0292 0546     		mov	r5, r0
 2159 0294 98B1     		cbz	r0, .L194
 2160              		.loc 1 417 0 is_stmt 0 discriminator 1
 2161 0296 03A9     		add	r1, sp, #12
 2162 0298 3246     		mov	r2, r6
 2163 029a FFF7FEFF 		bl	memcpy
 2164              	.LVL362:
 2165 029e 0023     		movs	r3, #0
 2166 02a0 2521     		movs	r1, #37
 2167 02a2 AB55     		strb	r3, [r5, r6]
 2168 02a4 4FF40053 		mov	r3, #8192
 2169 02a8 0F20     		movs	r0, #15
 2170 02aa 0093     		str	r3, [sp]
 2171 02ac 2A46     		mov	r2, r5
 2172 02ae 40F60403 		movw	r3, #2052
ARM GAS  C:\Users\AHMED~1.ELE\AppData\Local\Temp\ccgSQ7Y9.s 			page 49


 2173 02b2 FFF7FEFF 		bl	lib_app_call
 2174              	.LVL363:
 2175 02b6 9420     		movs	r0, #148
 2176 02b8 2946     		mov	r1, r5
 2177 02ba FFF7FEFF 		bl	sys_func1
 2178              	.LVL364:
 2179              	.L194:
 2180              	.LBE60:
 418:src/Func.c    ****     keyin=APM_WaitKey(KBD_TIMEOUT,0);
 2181              		.loc 1 418 0 is_stmt 1
 2182 02be 0023     		movs	r3, #0
 2183 02c0 1020     		movs	r0, #16
 2184 02c2 0093     		str	r3, [sp]
 2185 02c4 0321     		movs	r1, #3
 2186 02c6 42F22832 		movw	r2, #9000
 2187 02ca FFF7FEFF 		bl	lib_app_call
 2188              	.LVL365:
 419:src/Func.c    ****     if (keyin == MWKEY_CANCL)
 2189              		.loc 1 419 0
 2190 02ce 1128     		cmp	r0, #17
 418:src/Func.c    ****     keyin=APM_WaitKey(KBD_TIMEOUT,0);
 2191              		.loc 1 418 0
 2192 02d0 0546     		mov	r5, r0
 2193              	.LVL366:
 2194              		.loc 1 419 0
 2195 02d2 1BD0     		beq	.L178
 420:src/Func.c    ****       break;
 421:src/Func.c    ****     if ((keyin == MWKEY_ENTER)||(keyin == MWKEY_UP)) {
 2196              		.loc 1 421 0
 2197 02d4 1028     		cmp	r0, #16
 2198 02d6 01D0     		beq	.L195
 2199              		.loc 1 421 0 is_stmt 0 discriminator 1
 2200 02d8 4128     		cmp	r0, #65
 2201 02da 07D1     		bne	.L196
 2202              	.L195:
 422:src/Func.c    ****       if (rec_idx == 0) {
 2203              		.loc 1 422 0 is_stmt 1
 2204 02dc 2CB9     		cbnz	r4, .L197
 423:src/Func.c    ****         DispStatusMsg(GetConstMsg(EDC_FN_START_BATCH));
 2205              		.loc 1 423 0
 2206 02de 3220     		movs	r0, #50
 2207              	.LVL367:
 2208 02e0 FFF7FEFF 		bl	GetConstMsg
 2209              	.LVL368:
 2210 02e4 FFF7FEFF 		bl	DispStatusMsg
 2211              	.LVL369:
 2212 02e8 00E0     		b	.L196
 2213              	.LVL370:
 2214              	.L197:
 424:src/Func.c    ****       }
 425:src/Func.c    ****       else
 426:src/Func.c    ****         rec_idx -= 1;
 2215              		.loc 1 426 0
 2216 02ea 013C     		subs	r4, r4, #1
 2217              	.LVL371:
 2218              	.L196:
 427:src/Func.c    ****     }
ARM GAS  C:\Users\AHMED~1.ELE\AppData\Local\Temp\ccgSQ7Y9.s 			page 50


 428:src/Func.c    ****     if ((keyin ==MWKEY_CLR)||(keyin == MWKEY_DN)) {
 2219              		.loc 1 428 0
 2220 02ec 122D     		cmp	r5, #18
 2221 02ee 02D0     		beq	.L198
 2222              		.loc 1 428 0 is_stmt 0 discriminator 1
 2223 02f0 422D     		cmp	r5, #66
 2224 02f2 7FF4CFAE 		bne	.L184
 2225              	.L198:
 429:src/Func.c    ****       if (rec_idx == (rec_cnt - 1))
 2226              		.loc 1 429 0 is_stmt 1
 2227 02f6 7B1E     		subs	r3, r7, #1
 2228 02f8 9C42     		cmp	r4, r3
 2229 02fa 05D1     		bne	.L199
 430:src/Func.c    ****         DispStatusMsg(GetConstMsg(EDC_FN_END_BATCH));
 2230              		.loc 1 430 0
 2231 02fc 3320     		movs	r0, #51
 2232 02fe FFF7FEFF 		bl	GetConstMsg
 2233              	.LVL372:
 2234 0302 FFF7FEFF 		bl	DispStatusMsg
 2235              	.LVL373:
 2236 0306 C5E6     		b	.L184
 2237              	.L199:
 431:src/Func.c    ****       else
 432:src/Func.c    ****         rec_idx += 1;
 2238              		.loc 1 432 0
 2239 0308 0134     		adds	r4, r4, #1
 2240              	.LVL374:
 2241 030a C3E6     		b	.L184
 2242              	.LVL375:
 2243              	.L178:
 433:src/Func.c    ****     }
 434:src/Func.c    ****   }
 435:src/Func.c    **** }
 2244              		.loc 1 435 0
 2245 030c 0BB0     		add	sp, sp, #44
 2246              		.cfi_def_cfa_offset 28
 2247              		@ sp needed
 2248 030e BDE8F083 		pop	{r4, r5, r6, r7, r8, r9, pc}
 2249              	.LVL376:
 2250              	.L235:
 2251 0312 00BF     		.align	2
 2252              	.L234:
 2253 0314 00000000 		.word	gGTS
 2254 0318 00000000 		.word	gGDS
 2255 031c 1E000000 		.word	.LANCHOR0+30
 2256 0320 2E000000 		.word	.LANCHOR0+46
 2257              		.cfi_endproc
 2258              	.LFE5:
 2259              		.size	DisplayBatch, .-DisplayBatch
 2260              		.section	.text.ClearBatch,"ax",%progbits
 2261              		.align	1
 2262              		.global	ClearBatch
 2263              		.thumb
 2264              		.thumb_func
 2265              		.type	ClearBatch, %function
 2266              	ClearBatch:
 2267              	.LFB6:
ARM GAS  C:\Users\AHMED~1.ELE\AppData\Local\Temp\ccgSQ7Y9.s 			page 51


 436:src/Func.c    **** //*****************************************************************************
 437:src/Func.c    **** //  Function        : ClearBatch
 438:src/Func.c    **** //  Description     : Clear EDC batch record.
 439:src/Func.c    **** //  Input           : aHeader;          // Header Line.
 440:src/Func.c    **** //  Return          : N/A
 441:src/Func.c    **** //  Note            : N/A
 442:src/Func.c    **** //  Globals Changed : N/A
 443:src/Func.c    **** //*****************************************************************************
 444:src/Func.c    **** void ClearBatch(void)
 445:src/Func.c    **** {
 2268              		.loc 1 445 0
 2269              		.cfi_startproc
 2270              		@ args = 0, pretend = 0, frame = 0
 2271              		@ frame_needed = 0, uses_anonymous_args = 0
 2272 0000 73B5     		push	{r0, r1, r4, r5, r6, lr}
 2273              		.cfi_def_cfa_offset 24
 2274              		.cfi_offset 4, -16
 2275              		.cfi_offset 5, -12
 2276              		.cfi_offset 6, -8
 2277              		.cfi_offset 14, -4
 446:src/Func.c    ****   int i;
 447:src/Func.c    ****   WORD max_acq;
 448:src/Func.c    **** 
 449:src/Func.c    ****   DispCtrlMW(MW_CLR_DISP);
 450:src/Func.c    ****   if (!APM_GetAccessCode())
 2278              		.loc 1 450 0
 2279 0002 0024     		movs	r4, #0
 449:src/Func.c    ****   if (!APM_GetAccessCode())
 2280              		.loc 1 449 0
 2281 0004 0C21     		movs	r1, #12
 2282 0006 1620     		movs	r0, #22
 2283 0008 FFF7FEFF 		bl	sys_func1
 2284              	.LVL377:
 2285              		.loc 1 450 0
 2286 000c 0094     		str	r4, [sp]
 2287 000e 1020     		movs	r0, #16
 2288 0010 3121     		movs	r1, #49
 2289 0012 2246     		mov	r2, r4
 2290 0014 2346     		mov	r3, r4
 2291 0016 FFF7FEFF 		bl	lib_app_call
 2292              	.LVL378:
 2293 001a 10F0FF0F 		tst	r0, #255
 2294 001e 00F0A880 		beq	.L236
 2295              	.LBB65:
 2296              	.LBB66:
 451:src/Func.c    ****     return;
 452:src/Func.c    ****   DispClrBelowMW(MW_LINE3);
 2297              		.loc 1 452 0
 2298 0022 2321     		movs	r1, #35
 2299 0024 4FF44072 		mov	r2, #768
 2300 0028 2346     		mov	r3, r4
 2301 002a 0094     		str	r4, [sp]
 2302 002c 0F20     		movs	r0, #15
 2303 002e FFF7FEFF 		bl	lib_app_call
 2304              	.LVL379:
 2305              	.LBB67:
 453:src/Func.c    ****   DispLineMW(GetConstMsg(EDC_FN_CLR_BATCH), MW_LINE5, MW_CENTER|MW_BIGFONT);
ARM GAS  C:\Users\AHMED~1.ELE\AppData\Local\Temp\ccgSQ7Y9.s 			page 52


 2306              		.loc 1 453 0
 2307 0032 3620     		movs	r0, #54
 2308 0034 FFF7FEFF 		bl	GetConstMsg
 2309              	.LVL380:
 2310 0038 FFF7FEFF 		bl	strlen
 2311              	.LVL381:
 2312 003c 0646     		mov	r6, r0
 2313              	.LVL382:
 2314 003e 711C     		adds	r1, r6, #1
 2315 0040 9220     		movs	r0, #146
 2316              	.LVL383:
 2317 0042 FFF7FEFF 		bl	sys_func1
 2318              	.LVL384:
 2319 0046 0546     		mov	r5, r0
 2320 0048 B0B1     		cbz	r0, .L239
 2321 004a 3620     		movs	r0, #54
 2322              	.LVL385:
 2323 004c FFF7FEFF 		bl	GetConstMsg
 2324              	.LVL386:
 2325 0050 3246     		mov	r2, r6
 2326 0052 0146     		mov	r1, r0
 2327 0054 2846     		mov	r0, r5
 2328 0056 FFF7FEFF 		bl	memcpy
 2329              	.LVL387:
 2330 005a 41F20203 		movw	r3, #4098
 2331 005e AC55     		strb	r4, [r5, r6]
 2332 0060 2521     		movs	r1, #37
 2333 0062 0093     		str	r3, [sp]
 2334 0064 0F20     		movs	r0, #15
 2335 0066 2A46     		mov	r2, r5
 2336 0068 4FF4A063 		mov	r3, #1280
 2337 006c FFF7FEFF 		bl	lib_app_call
 2338              	.LVL388:
 2339 0070 9420     		movs	r0, #148
 2340 0072 2946     		mov	r1, r5
 2341 0074 FFF7FEFF 		bl	sys_func1
 2342              	.LVL389:
 2343              	.L239:
 2344              	.LBE67:
 454:src/Func.c    ****   if (APM_YesNo() == 2) {
 2345              		.loc 1 454 0
 2346 0078 0024     		movs	r4, #0
 2347 007a 1020     		movs	r0, #16
 2348 007c 0094     		str	r4, [sp]
 2349 007e 0421     		movs	r1, #4
 2350 0080 2246     		mov	r2, r4
 2351 0082 2346     		mov	r3, r4
 2352 0084 FFF7FEFF 		bl	lib_app_call
 2353              	.LVL390:
 2354 0088 0228     		cmp	r0, #2
 2355 008a 72D1     		bne	.L236
 455:src/Func.c    ****     DispClrBelowMW(MW_LINE3);
 2356              		.loc 1 455 0
 2357 008c 2321     		movs	r1, #35
 2358 008e 4FF44072 		mov	r2, #768
 2359 0092 2346     		mov	r3, r4
 2360 0094 0094     		str	r4, [sp]
ARM GAS  C:\Users\AHMED~1.ELE\AppData\Local\Temp\ccgSQ7Y9.s 			page 53


 2361 0096 0F20     		movs	r0, #15
 2362 0098 FFF7FEFF 		bl	lib_app_call
 2363              	.LVL391:
 456:src/Func.c    ****     INPUT.w_host_idx = -1;
 2364              		.loc 1 456 0
 2365 009c 4FF6FF72 		movw	r2, #65535
 2366 00a0 354B     		ldr	r3, .L254
 2367 00a2 A3F87620 		strh	r2, [r3, #118]	@ movhi
 457:src/Func.c    ****     SetDefault();
 2368              		.loc 1 457 0
 2369 00a6 FFF7FEFF 		bl	SetDefault
 2370              	.LVL392:
 458:src/Func.c    ****     max_acq = APM_GetAcqCount();
 2371              		.loc 1 458 0
 2372 00aa 0094     		str	r4, [sp]
 2373 00ac 1020     		movs	r0, #16
 2374 00ae 1421     		movs	r1, #20
 2375 00b0 2246     		mov	r2, r4
 2376 00b2 2346     		mov	r3, r4
 2377 00b4 FFF7FEFF 		bl	lib_app_call
 2378              	.LVL393:
 2379 00b8 0646     		mov	r6, r0
 2380              	.LVL394:
 2381              	.L241:
 2382 00ba B3B2     		uxth	r3, r6
 459:src/Func.c    ****     for (i = 0; i < max_acq; i++) {
 2383              		.loc 1 459 0
 2384 00bc 9C42     		cmp	r4, r3
 2385 00be 0DDA     		bge	.L247
 460:src/Func.c    ****       if (!APM_GetAcqTbl(i, &STIS_ACQ_TBL(0)))
 2386              		.loc 1 460 0
 2387 00c0 2E4B     		ldr	r3, .L254+4
 2388 00c2 0025     		movs	r5, #0
 2389 00c4 1B68     		ldr	r3, [r3]
 2390 00c6 1020     		movs	r0, #16
 2391 00c8 0095     		str	r5, [sp]
 2392 00ca 1521     		movs	r1, #21
 2393 00cc 2246     		mov	r2, r4
 2394 00ce 03F55273 		add	r3, r3, #840
 2395 00d2 FFF7FEFF 		bl	lib_app_call
 2396              	.LVL395:
 2397 00d6 10F0FF0F 		tst	r0, #255
 2398 00da 2BD1     		bne	.L242
 2399              	.L247:
 461:src/Func.c    ****         break;
 462:src/Func.c    ****       if (CorrectHost(GetHostType(0))) {
 463:src/Func.c    ****         APM_SetPending(i, NO_PENDING);
 464:src/Func.c    ****         APM_BatchClear(i);
 465:src/Func.c    ****       }
 466:src/Func.c    ****     }
 467:src/Func.c    ****     fCommitAllMW();
 2400              		.loc 1 467 0
 2401 00dc 0025     		movs	r5, #0
 2402 00de 1321     		movs	r1, #19
 2403 00e0 2A46     		mov	r2, r5
 2404 00e2 2B46     		mov	r3, r5
 2405 00e4 0095     		str	r5, [sp]
ARM GAS  C:\Users\AHMED~1.ELE\AppData\Local\Temp\ccgSQ7Y9.s 			page 54


 2406 00e6 0F20     		movs	r0, #15
 2407 00e8 FFF7FEFF 		bl	lib_app_call
 2408              	.LVL396:
 2409              	.LBB68:
 468:src/Func.c    ****     DispLineMW(GetConstMsg(EDC_FN_BATCH_ERASE), MW_LINE5, MW_CENTER|MW_BIGFONT);
 2410              		.loc 1 468 0
 2411 00ec 3720     		movs	r0, #55
 2412 00ee FFF7FEFF 		bl	GetConstMsg
 2413              	.LVL397:
 2414 00f2 FFF7FEFF 		bl	strlen
 2415              	.LVL398:
 2416 00f6 0646     		mov	r6, r0
 2417              	.LVL399:
 2418 00f8 711C     		adds	r1, r6, #1
 2419 00fa 9220     		movs	r0, #146
 2420              	.LVL400:
 2421 00fc FFF7FEFF 		bl	sys_func1
 2422              	.LVL401:
 2423 0100 0446     		mov	r4, r0
 2424              	.LVL402:
 2425 0102 68B3     		cbz	r0, .L244
 2426 0104 3720     		movs	r0, #55
 2427              	.LVL403:
 2428 0106 FFF7FEFF 		bl	GetConstMsg
 2429              	.LVL404:
 2430 010a 3246     		mov	r2, r6
 2431 010c 0146     		mov	r1, r0
 2432 010e 2046     		mov	r0, r4
 2433 0110 FFF7FEFF 		bl	memcpy
 2434              	.LVL405:
 2435 0114 41F20203 		movw	r3, #4098
 2436 0118 A555     		strb	r5, [r4, r6]
 2437 011a 2521     		movs	r1, #37
 2438 011c 0093     		str	r3, [sp]
 2439 011e 2246     		mov	r2, r4
 2440 0120 4FF4A063 		mov	r3, #1280
 2441 0124 0F20     		movs	r0, #15
 2442 0126 FFF7FEFF 		bl	lib_app_call
 2443              	.LVL406:
 2444 012a 2146     		mov	r1, r4
 2445 012c 9420     		movs	r0, #148
 2446 012e FFF7FEFF 		bl	sys_func1
 2447              	.LVL407:
 2448 0132 15E0     		b	.L244
 2449              	.LVL408:
 2450              	.L242:
 2451              	.LBE68:
 462:src/Func.c    ****         APM_SetPending(i, NO_PENDING);
 2452              		.loc 1 462 0
 2453 0134 2846     		mov	r0, r5
 2454 0136 FFF7FEFF 		bl	GetHostType
 2455              	.LVL409:
 2456 013a FFF7FEFF 		bl	CorrectHost
 2457              	.LVL410:
 2458 013e 68B1     		cbz	r0, .L245
 463:src/Func.c    ****         APM_BatchClear(i);
 2459              		.loc 1 463 0
ARM GAS  C:\Users\AHMED~1.ELE\AppData\Local\Temp\ccgSQ7Y9.s 			page 55


 2460 0140 1D21     		movs	r1, #29
 2461 0142 2246     		mov	r2, r4
 2462 0144 2B46     		mov	r3, r5
 2463 0146 0095     		str	r5, [sp]
 2464 0148 1020     		movs	r0, #16
 2465 014a FFF7FEFF 		bl	lib_app_call
 2466              	.LVL411:
 464:src/Func.c    ****       }
 2467              		.loc 1 464 0
 2468 014e 0095     		str	r5, [sp]
 2469 0150 1020     		movs	r0, #16
 2470 0152 2721     		movs	r1, #39
 2471 0154 2246     		mov	r2, r4
 2472 0156 2B46     		mov	r3, r5
 2473 0158 FFF7FEFF 		bl	lib_app_call
 2474              	.LVL412:
 2475              	.L245:
 459:src/Func.c    ****       if (!APM_GetAcqTbl(i, &STIS_ACQ_TBL(0)))
 2476              		.loc 1 459 0
 2477 015c 0134     		adds	r4, r4, #1
 2478              	.LVL413:
 2479 015e ACE7     		b	.L241
 2480              	.LVL414:
 2481              	.L244:
 469:src/Func.c    ****     AcceptBeep();
 2482              		.loc 1 469 0
 2483 0160 FFF7FEFF 		bl	AcceptBeep
 2484              	.LVL415:
 470:src/Func.c    ****     Delay1Sec(10, 0);
 2485              		.loc 1 470 0
 2486 0164 0A20     		movs	r0, #10
 2487 0166 0021     		movs	r1, #0
 2488              	.LBE66:
 2489              	.LBE65:
 471:src/Func.c    ****   }
 472:src/Func.c    **** }
 2490              		.loc 1 472 0
 2491 0168 02B0     		add	sp, sp, #8
 2492              		.cfi_remember_state
 2493              		.cfi_def_cfa_offset 16
 2494              		@ sp needed
 2495 016a BDE87040 		pop	{r4, r5, r6, lr}
 2496              		.cfi_restore 14
 2497              		.cfi_restore 6
 2498              		.cfi_restore 5
 2499              		.cfi_restore 4
 2500              		.cfi_def_cfa_offset 0
 2501              	.LVL416:
 2502              	.LBB70:
 2503              	.LBB69:
 470:src/Func.c    ****     Delay1Sec(10, 0);
 2504              		.loc 1 470 0
 2505 016e FFF7FEBF 		b	Delay1Sec
 2506              	.LVL417:
 2507              	.L236:
 2508              		.cfi_restore_state
 2509              	.LBE69:
ARM GAS  C:\Users\AHMED~1.ELE\AppData\Local\Temp\ccgSQ7Y9.s 			page 56


 2510              	.LBE70:
 2511              		.loc 1 472 0
 2512 0172 02B0     		add	sp, sp, #8
 2513              		.cfi_def_cfa_offset 16
 2514              		@ sp needed
 2515 0174 70BD     		pop	{r4, r5, r6, pc}
 2516              	.L255:
 2517 0176 00BF     		.align	2
 2518              	.L254:
 2519 0178 00000000 		.word	gGTS
 2520 017c 00000000 		.word	gGDS
 2521              		.cfi_endproc
 2522              	.LFE6:
 2523              		.size	ClearBatch, .-ClearBatch
 2524              		.section	.text.DispTransTotal,"ax",%progbits
 2525              		.align	1
 2526              		.global	DispTransTotal
 2527              		.thumb
 2528              		.thumb_func
 2529              		.type	DispTransTotal, %function
 2530              	DispTransTotal:
 2531              	.LFB7:
 473:src/Func.c    **** //*****************************************************************************
 474:src/Func.c    **** //  Function        : DispTransTotal
 475:src/Func.c    **** //  Description     : Display transaction totals.
 476:src/Func.c    **** //  Input           : N/A
 477:src/Func.c    **** //  Return          : N/A
 478:src/Func.c    **** //  Note            : N/A
 479:src/Func.c    **** //  Globals Changed : N/A
 480:src/Func.c    **** //*****************************************************************************
 481:src/Func.c    **** void DispTransTotal(void)
 482:src/Func.c    **** {
 2532              		.loc 1 482 0
 2533              		.cfi_startproc
 2534              		@ args = 0, pretend = 0, frame = 8
 2535              		@ frame_needed = 0, uses_anonymous_args = 0
 2536 0000 7FB5     		push	{r0, r1, r2, r3, r4, r5, r6, lr}
 2537              		.cfi_def_cfa_offset 32
 2538              		.cfi_offset 4, -16
 2539              		.cfi_offset 5, -12
 2540              		.cfi_offset 6, -8
 2541              		.cfi_offset 14, -4
 2542              	.L265:
 2543              	.LVL418:
 483:src/Func.c    ****   static const BYTE KSale[]    = {"SALE:"};
 484:src/Func.c    ****   static const BYTE KRefund[]  = {"REFUND:"};
 485:src/Func.c    ****   BYTE buffer[5];
 486:src/Func.c    ****   int host_idx;
 487:src/Func.c    ****   BOOLEAN all_acq;
 488:src/Func.c    **** 
 489:src/Func.c    ****   do {
 490:src/Func.c    ****     all_acq=FALSE;
 491:src/Func.c    ****     host_idx = APM_SelectAcquirer(TRUE);
 2544              		.loc 1 491 0
 2545 0002 0024     		movs	r4, #0
 2546 0004 2021     		movs	r1, #32
 2547 0006 0122     		movs	r2, #1
ARM GAS  C:\Users\AHMED~1.ELE\AppData\Local\Temp\ccgSQ7Y9.s 			page 57


 2548 0008 0094     		str	r4, [sp]
 2549 000a 1020     		movs	r0, #16
 2550 000c 2346     		mov	r3, r4
 2551 000e FFF7FEFF 		bl	lib_app_call
 2552              	.LVL419:
 492:src/Func.c    ****     if (host_idx == -1)
 2553              		.loc 1 492 0
 2554 0012 411C     		adds	r1, r0, #1
 491:src/Func.c    ****     if (host_idx == -1)
 2555              		.loc 1 491 0
 2556 0014 0246     		mov	r2, r0
 2557              	.LVL420:
 2558              		.loc 1 492 0
 2559 0016 00F0B880 		beq	.L256
 493:src/Func.c    ****       break;
 494:src/Func.c    ****     if (host_idx == -2) {
 2560              		.loc 1 494 0
 2561 001a 831C     		adds	r3, r0, #2
 2562 001c 5C4D     		ldr	r5, .L281
 2563 001e 5D4B     		ldr	r3, .L281+4
 2564 0020 03D1     		bne	.L258
 2565              	.LVL421:
 495:src/Func.c    ****       all_acq = TRUE;
 496:src/Func.c    ****       INPUT.w_host_idx = 0;
 2566              		.loc 1 496 0
 2567 0022 A3F87640 		strh	r4, [r3, #118]	@ movhi
 495:src/Func.c    ****       all_acq = TRUE;
 2568              		.loc 1 495 0
 2569 0026 0120     		movs	r0, #1
 2570              	.LVL422:
 2571 0028 0AE0     		b	.L259
 2572              	.LVL423:
 2573              	.L258:
 497:src/Func.c    ****     }
 498:src/Func.c    ****     else {
 499:src/Func.c    ****       INPUT.w_host_idx = (WORD) host_idx;
 2574              		.loc 1 499 0
 2575 002a A3F87600 		strh	r0, [r3, #118]	@ movhi
 500:src/Func.c    ****       APM_GetAcqTbl(host_idx, &STIS_ACQ_TBL(0));
 2576              		.loc 1 500 0
 2577 002e 2B68     		ldr	r3, [r5]
 2578 0030 0094     		str	r4, [sp]
 2579 0032 1020     		movs	r0, #16
 2580              	.LVL424:
 2581 0034 1521     		movs	r1, #21
 2582 0036 03F55273 		add	r3, r3, #840
 2583 003a FFF7FEFF 		bl	lib_app_call
 2584              	.LVL425:
 490:src/Func.c    ****     host_idx = APM_SelectAcquirer(TRUE);
 2585              		.loc 1 490 0
 2586 003e 2046     		mov	r0, r4
 2587              	.LVL426:
 2588              	.L259:
 501:src/Func.c    ****     }
 502:src/Func.c    **** 
 503:src/Func.c    ****     CalTotals(all_acq);
 2589              		.loc 1 503 0
ARM GAS  C:\Users\AHMED~1.ELE\AppData\Local\Temp\ccgSQ7Y9.s 			page 58


 2590 0040 FFF7FEFF 		bl	CalTotals
 2591              	.LVL427:
 504:src/Func.c    ****     bin2dec(TERM_TOT.s_sale_tot.w_count, buffer, 3);
 2592              		.loc 1 504 0
 2593 0044 2B68     		ldr	r3, [r5]
 2594 0046 02A9     		add	r1, sp, #8
 2595 0048 B3F8D00C 		ldrh	r0, [r3, #3280]
 2596 004c 0322     		movs	r2, #3
 505:src/Func.c    ****     buffer[3] = 0;
 2597              		.loc 1 505 0
 2598 004e 0026     		movs	r6, #0
 504:src/Func.c    ****     bin2dec(TERM_TOT.s_sale_tot.w_count, buffer, 3);
 2599              		.loc 1 504 0
 2600 0050 FFF7FEFF 		bl	bin2dec
 2601              	.LVL428:
 2602              	.LBB71:
 506:src/Func.c    ****     DispLineMW(KSale, MW_LINE1, MW_CLRDISP|MW_BIGFONT);
 2603              		.loc 1 506 0
 2604 0054 9220     		movs	r0, #146
 2605 0056 0621     		movs	r1, #6
 2606              	.LBE71:
 505:src/Func.c    ****     buffer[3] = 0;
 2607              		.loc 1 505 0
 2608 0058 8DF80B60 		strb	r6, [sp, #11]
 2609              	.LVL429:
 2610              	.LBB72:
 2611              		.loc 1 506 0
 2612 005c FFF7FEFF 		bl	sys_func1
 2613              	.LVL430:
 2614 0060 0446     		mov	r4, r0
 2615 0062 90B1     		cbz	r0, .L260
 2616              		.loc 1 506 0 is_stmt 0 discriminator 1
 2617 0064 4C49     		ldr	r1, .L281+8
 2618 0066 0522     		movs	r2, #5
 2619 0068 FFF7FEFF 		bl	memcpy
 2620              	.LVL431:
 2621 006c 4FF48453 		mov	r3, #4224
 2622 0070 6671     		strb	r6, [r4, #5]
 2623 0072 2521     		movs	r1, #37
 2624 0074 0093     		str	r3, [sp]
 2625 0076 0F20     		movs	r0, #15
 2626 0078 2246     		mov	r2, r4
 2627 007a 4FF48073 		mov	r3, #256
 2628 007e FFF7FEFF 		bl	lib_app_call
 2629              	.LVL432:
 2630 0082 9420     		movs	r0, #148
 2631 0084 2146     		mov	r1, r4
 2632 0086 FFF7FEFF 		bl	sys_func1
 2633              	.LVL433:
 2634              	.L260:
 2635              	.LBE72:
 2636              	.LBB73:
 507:src/Func.c    ****     DispLineMW(buffer, MW_LINE1, MW_RIGHT|MW_BIGFONT);
 2637              		.loc 1 507 0 is_stmt 1
 2638 008a 02A8     		add	r0, sp, #8
 2639 008c FFF7FEFF 		bl	strlen
 2640              	.LVL434:
ARM GAS  C:\Users\AHMED~1.ELE\AppData\Local\Temp\ccgSQ7Y9.s 			page 59


 2641 0090 0646     		mov	r6, r0
 2642              	.LVL435:
 2643 0092 711C     		adds	r1, r6, #1
 2644 0094 9220     		movs	r0, #146
 2645              	.LVL436:
 2646 0096 FFF7FEFF 		bl	sys_func1
 2647              	.LVL437:
 2648 009a 0446     		mov	r4, r0
 2649              	.LVL438:
 2650 009c 98B1     		cbz	r0, .L261
 2651              		.loc 1 507 0 is_stmt 0 discriminator 1
 2652 009e 02A9     		add	r1, sp, #8
 2653 00a0 3246     		mov	r2, r6
 2654 00a2 FFF7FEFF 		bl	memcpy
 2655              	.LVL439:
 2656 00a6 0023     		movs	r3, #0
 2657 00a8 2521     		movs	r1, #37
 2658 00aa A355     		strb	r3, [r4, r6]
 2659 00ac 41F20103 		movw	r3, #4097
 2660 00b0 0F20     		movs	r0, #15
 2661 00b2 0093     		str	r3, [sp]
 2662 00b4 2246     		mov	r2, r4
 2663 00b6 4FF48073 		mov	r3, #256
 2664 00ba FFF7FEFF 		bl	lib_app_call
 2665              	.LVL440:
 2666 00be 9420     		movs	r0, #148
 2667 00c0 2146     		mov	r1, r4
 2668 00c2 FFF7FEFF 		bl	sys_func1
 2669              	.LVL441:
 2670              	.L261:
 2671              	.LBE73:
 508:src/Func.c    ****     DispAmount(TERM_TOT.s_sale_tot.dd_amount, MW_LINE3, MW_BIGFONT);
 2672              		.loc 1 508 0 is_stmt 1
 2673 00c6 2B68     		ldr	r3, [r5]
 2674 00c8 4FF44072 		mov	r2, #768
 2675 00cc 03F6D843 		addw	r3, r3, #3288
 509:src/Func.c    **** 
 510:src/Func.c    ****     bin2dec(TERM_TOT.s_refund_tot.w_count, buffer, 3);
 511:src/Func.c    ****     buffer[3] = 0;
 2676              		.loc 1 511 0
 2677 00d0 0026     		movs	r6, #0
 2678              	.LVL442:
 508:src/Func.c    ****     DispAmount(TERM_TOT.s_sale_tot.dd_amount, MW_LINE3, MW_BIGFONT);
 2679              		.loc 1 508 0
 2680 00d2 D3E90001 		ldrd	r0, [r3]
 2681 00d6 4FF48053 		mov	r3, #4096
 2682 00da FFF7FEFF 		bl	DispAmount
 2683              	.LVL443:
 510:src/Func.c    ****     buffer[3] = 0;
 2684              		.loc 1 510 0
 2685 00de 2B68     		ldr	r3, [r5]
 2686 00e0 02A9     		add	r1, sp, #8
 2687 00e2 B3F8F00C 		ldrh	r0, [r3, #3312]
 2688 00e6 0322     		movs	r2, #3
 2689 00e8 FFF7FEFF 		bl	bin2dec
 2690              	.LVL444:
 2691              	.LBB74:
ARM GAS  C:\Users\AHMED~1.ELE\AppData\Local\Temp\ccgSQ7Y9.s 			page 60


 512:src/Func.c    ****     DispLineMW(KRefund, MW_LINE5, MW_BIGFONT);
 2692              		.loc 1 512 0
 2693 00ec 9220     		movs	r0, #146
 2694 00ee 0821     		movs	r1, #8
 2695              	.LBE74:
 511:src/Func.c    ****     DispLineMW(KRefund, MW_LINE5, MW_BIGFONT);
 2696              		.loc 1 511 0
 2697 00f0 8DF80B60 		strb	r6, [sp, #11]
 2698              	.LVL445:
 2699              	.LBB75:
 2700              		.loc 1 512 0
 2701 00f4 FFF7FEFF 		bl	sys_func1
 2702              	.LVL446:
 2703 00f8 0446     		mov	r4, r0
 2704              	.LVL447:
 2705 00fa 90B1     		cbz	r0, .L262
 2706              		.loc 1 512 0 is_stmt 0 discriminator 1
 2707 00fc 2749     		ldr	r1, .L281+12
 2708 00fe 0722     		movs	r2, #7
 2709 0100 FFF7FEFF 		bl	memcpy
 2710              	.LVL448:
 2711 0104 4FF48053 		mov	r3, #4096
 2712 0108 E671     		strb	r6, [r4, #7]
 2713 010a 2521     		movs	r1, #37
 2714 010c 0093     		str	r3, [sp]
 2715 010e 0F20     		movs	r0, #15
 2716 0110 2246     		mov	r2, r4
 2717 0112 4FF4A063 		mov	r3, #1280
 2718 0116 FFF7FEFF 		bl	lib_app_call
 2719              	.LVL449:
 2720 011a 9420     		movs	r0, #148
 2721 011c 2146     		mov	r1, r4
 2722 011e FFF7FEFF 		bl	sys_func1
 2723              	.LVL450:
 2724              	.L262:
 2725              	.LBE75:
 2726              	.LBB76:
 513:src/Func.c    ****     DispLineMW(buffer, MW_LINE5, MW_RIGHT|MW_BIGFONT);
 2727              		.loc 1 513 0 is_stmt 1
 2728 0122 02A8     		add	r0, sp, #8
 2729 0124 FFF7FEFF 		bl	strlen
 2730              	.LVL451:
 2731 0128 0646     		mov	r6, r0
 2732              	.LVL452:
 2733 012a 711C     		adds	r1, r6, #1
 2734 012c 9220     		movs	r0, #146
 2735              	.LVL453:
 2736 012e FFF7FEFF 		bl	sys_func1
 2737              	.LVL454:
 2738 0132 0446     		mov	r4, r0
 2739              	.LVL455:
 2740 0134 98B1     		cbz	r0, .L263
 2741              		.loc 1 513 0 is_stmt 0 discriminator 1
 2742 0136 02A9     		add	r1, sp, #8
 2743 0138 3246     		mov	r2, r6
 2744 013a FFF7FEFF 		bl	memcpy
 2745              	.LVL456:
ARM GAS  C:\Users\AHMED~1.ELE\AppData\Local\Temp\ccgSQ7Y9.s 			page 61


 2746 013e 0023     		movs	r3, #0
 2747 0140 2521     		movs	r1, #37
 2748 0142 A355     		strb	r3, [r4, r6]
 2749 0144 41F20103 		movw	r3, #4097
 2750 0148 0F20     		movs	r0, #15
 2751 014a 0093     		str	r3, [sp]
 2752 014c 2246     		mov	r2, r4
 2753 014e 4FF4A063 		mov	r3, #1280
 2754 0152 FFF7FEFF 		bl	lib_app_call
 2755              	.LVL457:
 2756 0156 9420     		movs	r0, #148
 2757 0158 2146     		mov	r1, r4
 2758 015a FFF7FEFF 		bl	sys_func1
 2759              	.LVL458:
 2760              	.L263:
 2761              	.LBE76:
 514:src/Func.c    ****     DispAmount(TERM_TOT.s_refund_tot.dd_amount, MW_LINE7, MW_BIGFONT);
 2762              		.loc 1 514 0 is_stmt 1
 2763 015e 2B68     		ldr	r3, [r5]
 2764 0160 4FF4E062 		mov	r2, #1792
 2765 0164 03F6F843 		addw	r3, r3, #3320
 2766 0168 D3E90001 		ldrd	r0, [r3]
 2767 016c 4FF48053 		mov	r3, #4096
 2768 0170 FFF7FEFF 		bl	DispAmount
 2769              	.LVL459:
 515:src/Func.c    **** 
 516:src/Func.c    ****     if (APM_WaitKey(KBD_TIMEOUT, 0) == MWKEY_CANCL)
 2770              		.loc 1 516 0
 2771 0174 0023     		movs	r3, #0
 2772 0176 1020     		movs	r0, #16
 2773 0178 0093     		str	r3, [sp]
 2774 017a 0321     		movs	r1, #3
 2775 017c 42F22832 		movw	r2, #9000
 2776 0180 FFF7FEFF 		bl	lib_app_call
 2777              	.LVL460:
 2778 0184 1128     		cmp	r0, #17
 2779 0186 7FF43CAF 		bne	.L265
 2780              	.LVL461:
 2781              	.L256:
 517:src/Func.c    ****       break;
 518:src/Func.c    ****   } while (1);
 519:src/Func.c    **** }
 2782              		.loc 1 519 0
 2783 018a 04B0     		add	sp, sp, #16
 2784              		.cfi_def_cfa_offset 16
 2785              		@ sp needed
 2786 018c 70BD     		pop	{r4, r5, r6, pc}
 2787              	.L282:
 2788 018e 00BF     		.align	2
 2789              	.L281:
 2790 0190 00000000 		.word	gGDS
 2791 0194 00000000 		.word	gGTS
 2792 0198 33000000 		.word	.LANCHOR0+51
 2793 019c 39000000 		.word	.LANCHOR0+57
 2794              		.cfi_endproc
 2795              	.LFE7:
 2796              		.size	DispTransTotal, .-DispTransTotal
ARM GAS  C:\Users\AHMED~1.ELE\AppData\Local\Temp\ccgSQ7Y9.s 			page 62


 2797              		.section	.text.ReprintTxn,"ax",%progbits
 2798              		.align	1
 2799              		.global	ReprintTxn
 2800              		.thumb
 2801              		.thumb_func
 2802              		.type	ReprintTxn, %function
 2803              	ReprintTxn:
 2804              	.LFB8:
 520:src/Func.c    **** //*****************************************************************************
 521:src/Func.c    **** //  Function        : ReprintTxn
 522:src/Func.c    **** //  Description     : Reprint specified receipt.
 523:src/Func.c    **** //  Input           : aLastBatch;     // TRUE=>Last Batch Record
 524:src/Func.c    **** //  Return          : N/A
 525:src/Func.c    **** //  Note            : N/A
 526:src/Func.c    **** //  Globals Changed : N/A
 527:src/Func.c    **** //*****************************************************************************
 528:src/Func.c    **** void ReprintTxn(int aLastBatch)
 529:src/Func.c    **** {
 2805              		.loc 1 529 0
 2806              		.cfi_startproc
 2807              		@ args = 0, pretend = 0, frame = 0
 2808              		@ frame_needed = 0, uses_anonymous_args = 0
 2809              	.LVL462:
 2810 0000 37B5     		push	{r0, r1, r2, r4, r5, lr}
 2811              		.cfi_def_cfa_offset 24
 2812              		.cfi_offset 4, -12
 2813              		.cfi_offset 5, -8
 2814              		.cfi_offset 14, -4
 530:src/Func.c    ****   int rec_cnt, rec_idx;
 531:src/Func.c    **** rec_idx = aLastBatch;
 532:src/Func.c    **** 
 533:src/Func.c    ****   APM_GetBatchRec(rec_idx, (BYTE *)&RECORD_BUF, sizeof(RECORD_BUF));
 2815              		.loc 1 533 0
 2816 0002 184C     		ldr	r4, .L284
 2817 0004 4FF40071 		mov	r1, #512
 2818 0008 2368     		ldr	r3, [r4]
 529:src/Func.c    ****   int rec_cnt, rec_idx;
 2819              		.loc 1 529 0
 2820 000a 0246     		mov	r2, r0
 2821              	.LVL463:
 2822              		.loc 1 533 0
 2823 000c 0091     		str	r1, [sp]
 2824 000e 03F5D963 		add	r3, r3, #1736
 2825 0012 2A21     		movs	r1, #42
 2826 0014 1020     		movs	r0, #16
 2827              	.LVL464:
 2828 0016 FFF7FEFF 		bl	lib_app_call
 2829              	.LVL465:
 534:src/Func.c    ****   APM_GetAcqTbl(RECORD_BUF.w_host_idx, &STIS_ACQ_TBL(0));
 2830              		.loc 1 534 0
 2831 001a 0025     		movs	r5, #0
 2832 001c 2368     		ldr	r3, [r4]
 2833 001e 1521     		movs	r1, #21
 2834 0020 B3F83E27 		ldrh	r2, [r3, #1854]
 2835 0024 1020     		movs	r0, #16
 2836 0026 0095     		str	r5, [sp]
 2837 0028 03F55273 		add	r3, r3, #840
ARM GAS  C:\Users\AHMED~1.ELE\AppData\Local\Temp\ccgSQ7Y9.s 			page 63


 2838 002c FFF7FEFF 		bl	lib_app_call
 2839              	.LVL466:
 535:src/Func.c    ****   APM_GetIssuer(RECORD_BUF.w_issuer_idx, &STIS_ISS_TBL(0));
 2840              		.loc 1 535 0
 2841 0030 2368     		ldr	r3, [r4]
 2842 0032 1321     		movs	r1, #19
 2843 0034 B3F84027 		ldrh	r2, [r3, #1856]
 2844 0038 1020     		movs	r0, #16
 2845 003a 03F59463 		add	r3, r3, #1184
 2846 003e 0095     		str	r5, [sp]
 2847 0040 FFF7FEFF 		bl	lib_app_call
 2848              	.LVL467:
 536:src/Func.c    ****   PackRecordP(TRUE);
 2849              		.loc 1 536 0
 2850 0044 0120     		movs	r0, #1
 2851 0046 FFF7FEFF 		bl	PackRecordP
 2852              	.LVL468:
 537:src/Func.c    ****    PrintBuf(MSG_BUF.sb_content, MSG_BUF.d_len, FALSE, FALSE);
 2853              		.loc 1 537 0
 2854 004a 2368     		ldr	r3, [r4]
 2855 004c 2A46     		mov	r2, r5
 2856 004e D3F8981D 		ldr	r1, [r3, #3480]
 2857 0052 03F69C50 		addw	r0, r3, #3484
 2858 0056 2B46     		mov	r3, r5
 538:src/Func.c    **** }
 2859              		.loc 1 538 0
 2860 0058 03B0     		add	sp, sp, #12
 2861              		.cfi_def_cfa_offset 12
 2862              		@ sp needed
 2863 005a BDE83040 		pop	{r4, r5, lr}
 2864              		.cfi_restore 14
 2865              		.cfi_restore 5
 2866              		.cfi_restore 4
 2867              		.cfi_def_cfa_offset 0
 537:src/Func.c    ****    PrintBuf(MSG_BUF.sb_content, MSG_BUF.d_len, FALSE, FALSE);
 2868              		.loc 1 537 0
 2869 005e FFF7FEBF 		b	PrintBuf
 2870              	.LVL469:
 2871              	.L285:
 2872 0062 00BF     		.align	2
 2873              	.L284:
 2874 0064 00000000 		.word	gGDS
 2875              		.cfi_endproc
 2876              	.LFE8:
 2877              		.size	ReprintTxn, .-ReprintTxn
 2878              		.section	.text.PrintTotals,"ax",%progbits
 2879              		.align	1
 2880              		.global	PrintTotals
 2881              		.thumb
 2882              		.thumb_func
 2883              		.type	PrintTotals, %function
 2884              	PrintTotals:
 2885              	.LFB9:
 539:src/Func.c    **** //*****************************************************************************
 540:src/Func.c    **** //  Function        : PrintTotals
 541:src/Func.c    **** //  Description     : Print Transaction total information.
 542:src/Func.c    **** //  Input           : N/A
ARM GAS  C:\Users\AHMED~1.ELE\AppData\Local\Temp\ccgSQ7Y9.s 			page 64


 543:src/Func.c    **** //  Return          : N/A
 544:src/Func.c    **** //  Note            : N/A
 545:src/Func.c    **** //  Globals Changed : N/A
 546:src/Func.c    **** //*****************************************************************************
 547:src/Func.c    **** void PrintTotals(void)
 548:src/Func.c    **** {
 2886              		.loc 1 548 0
 2887              		.cfi_startproc
 2888              		@ args = 0, pretend = 0, frame = 0
 2889              		@ frame_needed = 0, uses_anonymous_args = 0
 2890 0000 37B5     		push	{r0, r1, r2, r4, r5, lr}
 2891              		.cfi_def_cfa_offset 24
 2892              		.cfi_offset 4, -12
 2893              		.cfi_offset 5, -8
 2894              		.cfi_offset 14, -4
 2895              	.LBB77:
 549:src/Func.c    ****   DispLineMW(GetConstMsg(EDC_FN_CARD_TOTAL), MW_LINE1, MW_CLRDISP|MW_REVERSE|MW_CENTER|MW_BIGFONT);
 2896              		.loc 1 549 0
 2897 0002 3420     		movs	r0, #52
 2898 0004 FFF7FEFF 		bl	GetConstMsg
 2899              	.LVL470:
 2900 0008 FFF7FEFF 		bl	strlen
 2901              	.LVL471:
 2902 000c 0546     		mov	r5, r0
 2903              	.LVL472:
 2904 000e 691C     		adds	r1, r5, #1
 2905 0010 9220     		movs	r0, #146
 2906              	.LVL473:
 2907 0012 FFF7FEFF 		bl	sys_func1
 2908              	.LVL474:
 2909 0016 0446     		mov	r4, r0
 2910 0018 B8B1     		cbz	r0, .L287
 2911              		.loc 1 549 0 is_stmt 0 discriminator 1
 2912 001a 3420     		movs	r0, #52
 2913              	.LVL475:
 2914 001c FFF7FEFF 		bl	GetConstMsg
 2915              	.LVL476:
 2916 0020 2A46     		mov	r2, r5
 2917 0022 0146     		mov	r1, r0
 2918 0024 2046     		mov	r0, r4
 2919 0026 FFF7FEFF 		bl	memcpy
 2920              	.LVL477:
 2921 002a 0023     		movs	r3, #0
 2922 002c 2521     		movs	r1, #37
 2923 002e 6355     		strb	r3, [r4, r5]
 2924 0030 41F29203 		movw	r3, #4242
 2925 0034 0F20     		movs	r0, #15
 2926 0036 0093     		str	r3, [sp]
 2927 0038 2246     		mov	r2, r4
 2928 003a 4FF48073 		mov	r3, #256
 2929 003e FFF7FEFF 		bl	lib_app_call
 2930              	.LVL478:
 2931 0042 9420     		movs	r0, #148
 2932 0044 2146     		mov	r1, r4
 2933 0046 FFF7FEFF 		bl	sys_func1
 2934              	.LVL479:
 2935              	.L287:
ARM GAS  C:\Users\AHMED~1.ELE\AppData\Local\Temp\ccgSQ7Y9.s 			page 65


 2936              	.LBE77:
 550:src/Func.c    ****   MsgBufSetup();
 2937              		.loc 1 550 0 is_stmt 1
 2938 004a FFF7FEFF 		bl	MsgBufSetup
 2939              	.LVL480:
 551:src/Func.c    ****   PackLogo();
 2940              		.loc 1 551 0
 2941 004e FFF7FEFF 		bl	PackLogo
 2942              	.LVL481:
 552:src/Func.c    ****  // pack_lfs(1);
 553:src/Func.c    ****   PackIssuerSum(TRUE);
 2943              		.loc 1 553 0
 2944 0052 0120     		movs	r0, #1
 2945 0054 FFF7FEFF 		bl	PackIssuerSum
 2946              	.LVL482:
 554:src/Func.c    ****   PackFF();
 2947              		.loc 1 554 0
 2948 0058 FFF7FEFF 		bl	PackFF
 2949              	.LVL483:
 555:src/Func.c    ****   PackMsgBufLen();
 2950              		.loc 1 555 0
 2951 005c FFF7FEFF 		bl	PackMsgBufLen
 2952              	.LVL484:
 556:src/Func.c    ****   PrintBuf(MSG_BUF.sb_content, MSG_BUF.d_len, FALSE, FALSE);
 2953              		.loc 1 556 0
 2954 0060 064B     		ldr	r3, .L291
 2955 0062 0022     		movs	r2, #0
 2956 0064 1B68     		ldr	r3, [r3]
 2957 0066 D3F8981D 		ldr	r1, [r3, #3480]
 2958 006a 03F69C50 		addw	r0, r3, #3484
 2959 006e 1346     		mov	r3, r2
 557:src/Func.c    **** }
 2960              		.loc 1 557 0
 2961 0070 03B0     		add	sp, sp, #12
 2962              		.cfi_def_cfa_offset 12
 2963              		@ sp needed
 2964 0072 BDE83040 		pop	{r4, r5, lr}
 2965              		.cfi_restore 14
 2966              		.cfi_restore 5
 2967              		.cfi_restore 4
 2968              		.cfi_def_cfa_offset 0
 2969              	.LVL485:
 556:src/Func.c    ****   PrintBuf(MSG_BUF.sb_content, MSG_BUF.d_len, FALSE, FALSE);
 2970              		.loc 1 556 0
 2971 0076 FFF7FEBF 		b	PrintBuf
 2972              	.LVL486:
 2973              	.L292:
 2974 007a 00BF     		.align	2
 2975              	.L291:
 2976 007c 00000000 		.word	gGDS
 2977              		.cfi_endproc
 2978              	.LFE9:
 2979              		.size	PrintTotals, .-PrintTotals
 2980              		.section	.text.PrintTxnRecord,"ax",%progbits
 2981              		.align	1
 2982              		.global	PrintTxnRecord
 2983              		.thumb
ARM GAS  C:\Users\AHMED~1.ELE\AppData\Local\Temp\ccgSQ7Y9.s 			page 66


 2984              		.thumb_func
 2985              		.type	PrintTxnRecord, %function
 2986              	PrintTxnRecord:
 2987              	.LFB10:
 558:src/Func.c    **** //*****************************************************************************
 559:src/Func.c    **** //  Function        : PrintTxnRecord
 560:src/Func.c    **** //  Description     : Print transaction Log.
 561:src/Func.c    **** //  Input           : N/A
 562:src/Func.c    **** //  Return          : N/A
 563:src/Func.c    **** //  Note            : N/A
 564:src/Func.c    **** //  Globals Changed : N/A
 565:src/Func.c    **** //*****************************************************************************
 566:src/Func.c    **** void PrintTxnRecord(void)
 567:src/Func.c    **** {
 2988              		.loc 1 567 0
 2989              		.cfi_startproc
 2990              		@ args = 0, pretend = 0, frame = 80
 2991              		@ frame_needed = 0, uses_anonymous_args = 0
 2992              	.LVL487:
 2993 0000 2DE9F043 		push	{r4, r5, r6, r7, r8, r9, lr}
 2994              		.cfi_def_cfa_offset 28
 2995              		.cfi_offset 4, -28
 2996              		.cfi_offset 5, -24
 2997              		.cfi_offset 6, -20
 2998              		.cfi_offset 7, -16
 2999              		.cfi_offset 8, -12
 3000              		.cfi_offset 9, -8
 3001              		.cfi_offset 14, -4
 568:src/Func.c    ****   static const BYTE c_nii[] = {"NII "};
 569:src/Func.c    ****   static const BYTE KBase[] = {"BASE  "};
 570:src/Func.c    ****   static const BYTE c_tip[] = {"TIP   "};
 571:src/Func.c    ****   DDWORD amount;
 572:src/Func.c    ****   WORD line_cnt, rec_cnt;
 573:src/Func.c    ****   BYTE tmp[21];
 574:src/Func.c    ****   BYTE buf[21];
 575:src/Func.c    ****   DWORD keyin, i = 0;
 576:src/Func.c    ****   struct DATETIME dtg;
 577:src/Func.c    ****   struct DISP_AMT disp_amt;
 578:src/Func.c    ****   int  host_idx;
 579:src/Func.c    **** 
 580:src/Func.c    ****   host_idx = APM_SelectAcquirer(FALSE);
 3002              		.loc 1 580 0
 3003 0004 0026     		movs	r6, #0
 567:src/Func.c    ****   static const BYTE c_nii[] = {"NII "};
 3004              		.loc 1 567 0
 3005 0006 97B0     		sub	sp, sp, #92
 3006              		.cfi_def_cfa_offset 120
 3007              		.loc 1 580 0
 3008 0008 3246     		mov	r2, r6
 3009 000a 0096     		str	r6, [sp]
 3010 000c 1020     		movs	r0, #16
 3011 000e 2021     		movs	r1, #32
 3012 0010 3346     		mov	r3, r6
 3013 0012 FFF7FEFF 		bl	lib_app_call
 3014              	.LVL488:
 581:src/Func.c    ****   if (host_idx == -1)
 3015              		.loc 1 581 0
ARM GAS  C:\Users\AHMED~1.ELE\AppData\Local\Temp\ccgSQ7Y9.s 			page 67


 3016 0016 421C     		adds	r2, r0, #1
 580:src/Func.c    ****   if (host_idx == -1)
 3017              		.loc 1 580 0
 3018 0018 0746     		mov	r7, r0
 3019              	.LVL489:
 3020              		.loc 1 581 0
 3021 001a 00F07881 		beq	.L293
 582:src/Func.c    ****     return;
 583:src/Func.c    **** 
 584:src/Func.c    ****   APM_GetAcqTbl(host_idx, &STIS_ACQ_TBL(0));
 3022              		.loc 1 584 0
 3023 001e BD4C     		ldr	r4, .L314
 3024 0020 1521     		movs	r1, #21
 3025 0022 2368     		ldr	r3, [r4]
 3026 0024 3A46     		mov	r2, r7
 3027 0026 03F55273 		add	r3, r3, #840
 3028 002a 0096     		str	r6, [sp]
 3029 002c 1020     		movs	r0, #16
 3030              	.LVL490:
 3031 002e FFF7FEFF 		bl	lib_app_call
 3032              	.LVL491:
 3033              	.LBB78:
 585:src/Func.c    ****   DispLineMW(GetConstMsg(EDC_FN_CARD_REC), MW_LINE1, MW_CLRDISP|MW_REVERSE|MW_CENTER|MW_BIGFONT);
 3034              		.loc 1 585 0
 3035 0032 3520     		movs	r0, #53
 3036 0034 FFF7FEFF 		bl	GetConstMsg
 3037              	.LVL492:
 3038 0038 FFF7FEFF 		bl	strlen
 3039              	.LVL493:
 3040 003c 8046     		mov	r8, r0
 3041              	.LVL494:
 3042 003e 08F10101 		add	r1, r8, #1
 3043 0042 9220     		movs	r0, #146
 3044              	.LVL495:
 3045 0044 FFF7FEFF 		bl	sys_func1
 3046              	.LVL496:
 3047 0048 0546     		mov	r5, r0
 3048 004a B8B1     		cbz	r0, .L295
 3049              		.loc 1 585 0 is_stmt 0 discriminator 1
 3050 004c 3520     		movs	r0, #53
 3051              	.LVL497:
 3052 004e FFF7FEFF 		bl	GetConstMsg
 3053              	.LVL498:
 3054 0052 4246     		mov	r2, r8
 3055 0054 0146     		mov	r1, r0
 3056 0056 2846     		mov	r0, r5
 3057 0058 FFF7FEFF 		bl	memcpy
 3058              	.LVL499:
 3059 005c 41F29203 		movw	r3, #4242
 3060 0060 05F80860 		strb	r6, [r5, r8]
 3061 0064 2521     		movs	r1, #37
 3062 0066 0093     		str	r3, [sp]
 3063 0068 0F20     		movs	r0, #15
 3064 006a 2A46     		mov	r2, r5
 3065 006c 4FF48073 		mov	r3, #256
 3066 0070 FFF7FEFF 		bl	lib_app_call
 3067              	.LVL500:
ARM GAS  C:\Users\AHMED~1.ELE\AppData\Local\Temp\ccgSQ7Y9.s 			page 68


 3068 0074 9420     		movs	r0, #148
 3069 0076 2946     		mov	r1, r5
 3070 0078 FFF7FEFF 		bl	sys_func1
 3071              	.LVL501:
 3072              	.L295:
 3073              	.LBE78:
 586:src/Func.c    ****   MsgBufSetup();
 3074              		.loc 1 586 0 is_stmt 1
 3075 007c FFF7FEFF 		bl	MsgBufSetup
 3076              	.LVL502:
 587:src/Func.c    **** 
 588:src/Func.c    **** PackLogo();
 589:src/Func.c    ****  // pack_lfs(2);
 590:src/Func.c    ****   pack_str("POS/Terminal ID: ");
 591:src/Func.c    ****   pack_mem(STIS_ACQ_TBL(0).sb_term_id, 8);
 592:src/Func.c    ****   pack_lf();
 593:src/Func.c    ****   pack_str("MERCHANT ID/MID: ");
 594:src/Func.c    ****   pack_mem(STIS_ACQ_TBL(0).sb_acceptor_id, 8);
 595:src/Func.c    ****   pack_lf();
 596:src/Func.c    ****    pack_str("BATCH: ");
 597:src/Func.c    ****   split_data(STIS_ACQ_TBL(0).sb_curr_batch_no, 3);
 598:src/Func.c    ****   pack_lf();
 599:src/Func.c    ****   pack_str("LE/EGP BATCH");
 600:src/Func.c    ****   pack_lf();
 601:src/Func.c    ****   PackCurrentDate();
 602:src/Func.c    ****   //pack_lfs(2);
 603:src/Func.c    **** 
 604:src/Func.c    ****   pack_str("\x1bW1 DETAILS REPORT\x1bW0");
 605:src/Func.c    ****   pack_lf();
 606:src/Func.c    ****   PackSeperator('=');
 607:src/Func.c    ****   //pack_lfs(2);
 608:src/Func.c    ****  
 609:src/Func.c    **** 
 610:src/Func.c    ****   //pack_lf();
 611:src/Func.c    ****  // pack_str("TRACE#  APP.CODE   TRANS  TIME");
 612:src/Func.c    ****  // pack_lf();
 613:src/Func.c    ****   //pack_str("ACCT #               EXP. DATE");
 614:src/Func.c    ****  // pack_lf();
 615:src/Func.c    ****  // pack_str("AMOUNT                    DATE");
 616:src/Func.c    ****  // pack_lf();
 617:src/Func.c    ****  // PackSeperator('-');
 618:src/Func.c    **** 
 619:src/Func.c    ****   line_cnt = 18;
 620:src/Func.c    ****   rec_cnt = APM_GetRecCount();
 3077              		.loc 1 620 0
 3078 0080 0025     		movs	r5, #0
 3079              	.LVL503:
 588:src/Func.c    ****  // pack_lfs(2);
 3080              		.loc 1 588 0
 3081 0082 FFF7FEFF 		bl	PackLogo
 3082              	.LVL504:
 590:src/Func.c    ****   pack_mem(STIS_ACQ_TBL(0).sb_term_id, 8);
 3083              		.loc 1 590 0
 3084 0086 A448     		ldr	r0, .L314+4
 3085 0088 FFF7FEFF 		bl	pack_str
 3086              	.LVL505:
 591:src/Func.c    ****   pack_lf();
ARM GAS  C:\Users\AHMED~1.ELE\AppData\Local\Temp\ccgSQ7Y9.s 			page 69


 3087              		.loc 1 591 0
 3088 008c 2068     		ldr	r0, [r4]
 3089 008e 0821     		movs	r1, #8
 3090 0090 00F56770 		add	r0, r0, #924
 3091 0094 FFF7FEFF 		bl	pack_mem
 3092              	.LVL506:
 619:src/Func.c    ****   rec_cnt = APM_GetRecCount();
 3093              		.loc 1 619 0
 3094 0098 1226     		movs	r6, #18
 592:src/Func.c    ****   pack_str("MERCHANT ID/MID: ");
 3095              		.loc 1 592 0
 3096 009a FFF7FEFF 		bl	pack_lf
 3097              	.LVL507:
 593:src/Func.c    ****   pack_mem(STIS_ACQ_TBL(0).sb_acceptor_id, 8);
 3098              		.loc 1 593 0
 3099 009e 9F48     		ldr	r0, .L314+8
 3100 00a0 FFF7FEFF 		bl	pack_str
 3101              	.LVL508:
 594:src/Func.c    ****   pack_lf();
 3102              		.loc 1 594 0
 3103 00a4 2068     		ldr	r0, [r4]
 3104 00a6 0821     		movs	r1, #8
 3105 00a8 00F56970 		add	r0, r0, #932
 3106 00ac FFF7FEFF 		bl	pack_mem
 3107              	.LVL509:
 595:src/Func.c    ****    pack_str("BATCH: ");
 3108              		.loc 1 595 0
 3109 00b0 FFF7FEFF 		bl	pack_lf
 3110              	.LVL510:
 596:src/Func.c    ****   split_data(STIS_ACQ_TBL(0).sb_curr_batch_no, 3);
 3111              		.loc 1 596 0
 3112 00b4 9A48     		ldr	r0, .L314+12
 3113 00b6 FFF7FEFF 		bl	pack_str
 3114              	.LVL511:
 597:src/Func.c    ****   pack_lf();
 3115              		.loc 1 597 0
 3116 00ba 2068     		ldr	r0, [r4]
 3117 00bc 0321     		movs	r1, #3
 3118 00be 00F56D70 		add	r0, r0, #948
 3119 00c2 FFF7FEFF 		bl	split_data
 3120              	.LVL512:
 598:src/Func.c    ****   pack_str("LE/EGP BATCH");
 3121              		.loc 1 598 0
 3122 00c6 FFF7FEFF 		bl	pack_lf
 3123              	.LVL513:
 599:src/Func.c    ****   pack_lf();
 3124              		.loc 1 599 0
 3125 00ca 9648     		ldr	r0, .L314+16
 3126 00cc FFF7FEFF 		bl	pack_str
 3127              	.LVL514:
 600:src/Func.c    ****   PackCurrentDate();
 3128              		.loc 1 600 0
 3129 00d0 FFF7FEFF 		bl	pack_lf
 3130              	.LVL515:
 601:src/Func.c    ****   //pack_lfs(2);
 3131              		.loc 1 601 0
 3132 00d4 FFF7FEFF 		bl	PackCurrentDate
ARM GAS  C:\Users\AHMED~1.ELE\AppData\Local\Temp\ccgSQ7Y9.s 			page 70


 3133              	.LVL516:
 604:src/Func.c    ****   pack_lf();
 3134              		.loc 1 604 0
 3135 00d8 9348     		ldr	r0, .L314+20
 3136 00da FFF7FEFF 		bl	pack_str
 3137              	.LVL517:
 605:src/Func.c    ****   PackSeperator('=');
 3138              		.loc 1 605 0
 3139 00de FFF7FEFF 		bl	pack_lf
 3140              	.LVL518:
 606:src/Func.c    ****   //pack_lfs(2);
 3141              		.loc 1 606 0
 3142 00e2 3D20     		movs	r0, #61
 3143 00e4 FFF7FEFF 		bl	PackSeperator
 3144              	.LVL519:
 3145              		.loc 1 620 0
 3146 00e8 0095     		str	r5, [sp]
 3147 00ea 1020     		movs	r0, #16
 3148 00ec 2921     		movs	r1, #41
 3149 00ee 2A46     		mov	r2, r5
 3150 00f0 2B46     		mov	r3, r5
 3151 00f2 FFF7FEFF 		bl	lib_app_call
 3152              	.LVL520:
 3153 00f6 8146     		mov	r9, r0
 3154              	.LVL521:
 3155              	.L296:
 621:src/Func.c    ****   for (i = 0; i < rec_cnt; i++) {
 3156              		.loc 1 621 0 discriminator 1
 3157 00f8 1FFA89F3 		uxth	r3, r9
 3158 00fc 9D42     		cmp	r5, r3
 3159 00fe 80F0F180 		bcs	.L313
 622:src/Func.c    ****     APM_GetBatchRec(i, (BYTE *)&RECORD_BUF, sizeof(RECORD_BUF));
 3160              		.loc 1 622 0
 3161 0102 2368     		ldr	r3, [r4]
 3162 0104 4FF40072 		mov	r2, #512
 3163 0108 03F5D963 		add	r3, r3, #1736
 3164 010c 0092     		str	r2, [sp]
 3165 010e 1020     		movs	r0, #16
 3166 0110 2A21     		movs	r1, #42
 3167 0112 2A46     		mov	r2, r5
 3168 0114 FFF7FEFF 		bl	lib_app_call
 3169              	.LVL522:
 623:src/Func.c    ****     if (RECORD_BUF.w_host_idx != host_idx)
 3170              		.loc 1 623 0
 3171 0118 2368     		ldr	r3, [r4]
 3172 011a B3F83E37 		ldrh	r3, [r3, #1854]
 3173 011e BB42     		cmp	r3, r7
 3174 0120 40F0DE80 		bne	.L297
 624:src/Func.c    ****       continue;
 625:src/Func.c    **** 
 626:src/Func.c    ****     if (line_cnt > 80) {
 3175              		.loc 1 626 0
 3176 0124 502E     		cmp	r6, #80
 3177 0126 0ED9     		bls	.L298
 627:src/Func.c    ****       PackMsgBufLen();
 3178              		.loc 1 627 0
 3179 0128 FFF7FEFF 		bl	PackMsgBufLen
ARM GAS  C:\Users\AHMED~1.ELE\AppData\Local\Temp\ccgSQ7Y9.s 			page 71


 3180              	.LVL523:
 628:src/Func.c    ****       PrintBuf(MSG_BUF.sb_content, MSG_BUF.d_len, TRUE, FALSE);
 3181              		.loc 1 628 0
 3182 012c 794B     		ldr	r3, .L314
 3183 012e 0122     		movs	r2, #1
 3184 0130 1B68     		ldr	r3, [r3]
 629:src/Func.c    ****       MsgBufSetup();
 630:src/Func.c    ****       line_cnt = 0;
 3185              		.loc 1 630 0
 3186 0132 0026     		movs	r6, #0
 3187              	.LVL524:
 628:src/Func.c    ****       PrintBuf(MSG_BUF.sb_content, MSG_BUF.d_len, TRUE, FALSE);
 3188              		.loc 1 628 0
 3189 0134 D3F8981D 		ldr	r1, [r3, #3480]
 3190 0138 03F69C50 		addw	r0, r3, #3484
 3191 013c 0023     		movs	r3, #0
 3192 013e FFF7FEFF 		bl	PrintBuf
 3193              	.LVL525:
 629:src/Func.c    ****       MsgBufSetup();
 3194              		.loc 1 629 0
 3195 0142 FFF7FEFF 		bl	MsgBufSetup
 3196              	.LVL526:
 3197              	.L298:
 631:src/Func.c    ****     }
 632:src/Func.c    **** 	// pack_str("Record No.");
 633:src/Func.c    ****     split_data(RECORD_BUF.sb_roc_no, 3);
 3198              		.loc 1 633 0
 3199 0146 2068     		ldr	r0, [r4]
 3200 0148 0321     		movs	r1, #3
 3201 014a 00F2CF60 		addw	r0, r0, #1743
 3202 014e FFF7FEFF 		bl	split_data
 3203              	.LVL527:
 634:src/Func.c    ****     pack_space((BYTE)(MAX_CHAR_LINE_NORMAL-6-11+2));
 3204              		.loc 1 634 0
 3205 0152 0F20     		movs	r0, #15
 3206 0154 FFF7FEFF 		bl	pack_space
 3207              	.LVL528:
 635:src/Func.c    **** 	    ByteCopy((BYTE*) &dtg, (BYTE*)&RECORD_BUF.s_dtg, sizeof(struct DATETIME));
 3208              		.loc 1 635 0
 3209 0158 2168     		ldr	r1, [r4]
 3210 015a 02A8     		add	r0, sp, #8
 3211 015c 01F24471 		addw	r1, r1, #1860
 3212 0160 0822     		movs	r2, #8
 3213 0162 FFF7FEFF 		bl	ByteCopy
 3214              	.LVL529:
 636:src/Func.c    **** 		 ConvDateTimeT(tmp, &dtg, TRUE);
 3215              		.loc 1 636 0
 3216 0166 0122     		movs	r2, #1
 3217 0168 04A8     		add	r0, sp, #16
 3218 016a 02A9     		add	r1, sp, #8
 3219 016c FFF7FEFF 		bl	ConvDateTimeT
 3220              	.LVL530:
 637:src/Func.c    **** 	 pack_mem(tmp,11);
 3221              		.loc 1 637 0
 3222 0170 0B21     		movs	r1, #11
 3223 0172 04A8     		add	r0, sp, #16
 3224 0174 FFF7FEFF 		bl	pack_mem
ARM GAS  C:\Users\AHMED~1.ELE\AppData\Local\Temp\ccgSQ7Y9.s 			page 72


 3225              	.LVL531:
 638:src/Func.c    ****     pack_lf();
 3226              		.loc 1 638 0
 3227 0178 FFF7FEFF 		bl	pack_lf
 3228              	.LVL532:
 639:src/Func.c    **** 
 640:src/Func.c    **** pack_space((BYTE)(MAX_CHAR_LINE_NORMAL-16)/2);
 3229              		.loc 1 640 0
 3230 017c 0720     		movs	r0, #7
 3231 017e FFF7FEFF 		bl	pack_space
 3232              	.LVL533:
 641:src/Func.c    ****   memset(tmp,0, sizeof(tmp));
 3233              		.loc 1 641 0
 3234 0182 0021     		movs	r1, #0
 3235 0184 1522     		movs	r2, #21
 3236 0186 04A8     		add	r0, sp, #16
 3237 0188 FFF7FEFF 		bl	memset
 3238              	.LVL534:
 642:src/Func.c    ****     // PAN
 643:src/Func.c    ****     split(tmp, RECORD_BUF.sb_pan, 8);
 3239              		.loc 1 643 0
 3240 018c 2168     		ldr	r1, [r4]
 3241 018e 04A8     		add	r0, sp, #16
 3242 0190 01F2D261 		addw	r1, r1, #1746
 3243 0194 0822     		movs	r2, #8
 3244 0196 FFF7FEFF 		bl	split
 3245              	.LVL535:
 644:src/Func.c    ****    // if (MaskCardNo())
 645:src/Func.c    **** 	 memset(&tmp[6],'*', 6);     // mask PAN
 3246              		.loc 1 645 0
 3247 019a 2A21     		movs	r1, #42
 3248 019c 0622     		movs	r2, #6
 3249 019e 0DF11600 		add	r0, sp, #22
 3250 01a2 FFF7FEFF 		bl	memset
 3251              	.LVL536:
 646:src/Func.c    **** 	sprintf(buf, "%.4s %.4s %.4s %.4s", tmp, &tmp[4],&tmp[8],&tmp[12]);
 3252              		.loc 1 646 0
 3253 01a6 06AB     		add	r3, sp, #24
 3254 01a8 04AA     		add	r2, sp, #16
 3255 01aa 0093     		str	r3, [sp]
 3256 01ac 07AB     		add	r3, sp, #28
 3257 01ae 5F49     		ldr	r1, .L314+24
 3258 01b0 0193     		str	r3, [sp, #4]
 3259 01b2 1346     		mov	r3, r2
 3260 01b4 0433     		adds	r3, r3, #4
 3261 01b6 0AA8     		add	r0, sp, #40
 3262 01b8 FFF7FEFF 		bl	sprintf
 3263              	.LVL537:
 647:src/Func.c    ****     pack_str(buf);
 3264              		.loc 1 647 0
 3265 01bc 0AA8     		add	r0, sp, #40
 3266 01be FFF7FEFF 		bl	pack_str
 3267              	.LVL538:
 648:src/Func.c    ****     pack_lf();
 3268              		.loc 1 648 0
 3269 01c2 FFF7FEFF 		bl	pack_lf
 3270              	.LVL539:
ARM GAS  C:\Users\AHMED~1.ELE\AppData\Local\Temp\ccgSQ7Y9.s 			page 73


 649:src/Func.c    **** 
 650:src/Func.c    **** 	APM_GetIssuer(RECORD_BUF.w_issuer_idx, &STIS_ISS_TBL(1));
 3271              		.loc 1 650 0
 3272 01c6 2368     		ldr	r3, [r4]
 3273 01c8 0021     		movs	r1, #0
 3274 01ca B3F84027 		ldrh	r2, [r3, #1856]
 3275 01ce 1020     		movs	r0, #16
 3276 01d0 03F59B63 		add	r3, r3, #1240
 3277 01d4 0091     		str	r1, [sp]
 3278 01d6 1321     		movs	r1, #19
 3279 01d8 FFF7FEFF 		bl	lib_app_call
 3280              	.LVL540:
 651:src/Func.c    ****   
 652:src/Func.c    **** 	memset(buf, 0x20, sizeof(buf));
 3281              		.loc 1 652 0
 3282 01dc 1522     		movs	r2, #21
 3283 01de 2021     		movs	r1, #32
 3284 01e0 0AA8     		add	r0, sp, #40
 3285 01e2 FFF7FEFF 		bl	memset
 3286              	.LVL541:
 653:src/Func.c    **** 	sprintf(buf, "%s", STIS_ISS_TBL(1).sb_card_name);
 3287              		.loc 1 653 0
 3288 01e6 2168     		ldr	r1, [r4]
 3289 01e8 0AA8     		add	r0, sp, #40
 3290 01ea 01F2D941 		addw	r1, r1, #1241
 3291 01ee FFF7FEFF 		bl	strcpy
 3292              	.LVL542:
 654:src/Func.c    **** 	pack_mem(buf, 10);
 3293              		.loc 1 654 0
 3294 01f2 0A21     		movs	r1, #10
 3295 01f4 0AA8     		add	r0, sp, #40
 3296 01f6 FFF7FEFF 		bl	pack_mem
 3297              	.LVL543:
 655:src/Func.c    **** 	pack_space((BYTE)(MAX_CHAR_LINE_NORMAL-10-3-8+1)/2);
 3298              		.loc 1 655 0
 3299 01fa 0520     		movs	r0, #5
 3300 01fc FFF7FEFF 		bl	pack_space
 3301              	.LVL544:
 656:src/Func.c    **** 	pack_str("MAG");
 3302              		.loc 1 656 0
 3303 0200 4B48     		ldr	r0, .L314+28
 3304 0202 FFF7FEFF 		bl	pack_str
 3305              	.LVL545:
 657:src/Func.c    **** 	pack_space((BYTE)(MAX_CHAR_LINE_NORMAL-10-3-8+1)/2);
 3306              		.loc 1 657 0
 3307 0206 0520     		movs	r0, #5
 3308 0208 FFF7FEFF 		bl	pack_space
 3309              	.LVL546:
 658:src/Func.c    ****     pack_str("EXP:");
 3310              		.loc 1 658 0
 3311 020c 4948     		ldr	r0, .L314+32
 3312 020e FFF7FEFF 		bl	pack_str
 3313              	.LVL547:
 659:src/Func.c    ****     split_data((BYTE *)&RECORD_BUF.sb_exp_date[1], 1);
 3314              		.loc 1 659 0
 3315 0212 2068     		ldr	r0, [r4]
 3316 0214 0121     		movs	r1, #1
ARM GAS  C:\Users\AHMED~1.ELE\AppData\Local\Temp\ccgSQ7Y9.s 			page 74


 3317 0216 00F2DD60 		addw	r0, r0, #1757
 3318 021a FFF7FEFF 		bl	split_data
 3319              	.LVL548:
 660:src/Func.c    **** 	pack_str("/");
 3320              		.loc 1 660 0
 3321 021e 4648     		ldr	r0, .L314+36
 3322 0220 FFF7FEFF 		bl	pack_str
 3323              	.LVL549:
 661:src/Func.c    ****     split_data((BYTE *)&RECORD_BUF.sb_exp_date[0],1);
 3324              		.loc 1 661 0
 3325 0224 2068     		ldr	r0, [r4]
 3326 0226 0121     		movs	r1, #1
 3327 0228 00F2DC60 		addw	r0, r0, #1756
 3328 022c FFF7FEFF 		bl	split_data
 3329              	.LVL550:
 662:src/Func.c    ****     pack_lf();
 3330              		.loc 1 662 0
 3331 0230 FFF7FEFF 		bl	pack_lf
 3332              	.LVL551:
 663:src/Func.c    **** 
 664:src/Func.c    ****     //pack_mem(RECORD_BUF.sb_auth_code,6);
 665:src/Func.c    ****   //  pack_space(1);
 666:src/Func.c    **** 
 667:src/Func.c    ****     keyin = RECORD_BUF.b_trans;
 3333              		.loc 1 667 0
 3334 0234 2368     		ldr	r3, [r4]
 668:src/Func.c    ****     if (RECORD_BUF.b_trans_status & ADJUSTED) {
 669:src/Func.c    ****       keyin = ADJUST;
 670:src/Func.c    ****     }
 671:src/Func.c    **** 	memset(tmp, 0x20, sizeof(tmp)); 
 3335              		.loc 1 671 0
 3336 0236 2021     		movs	r1, #32
 667:src/Func.c    ****     if (RECORD_BUF.b_trans_status & ADJUSTED) {
 3337              		.loc 1 667 0
 3338 0238 93F8C886 		ldrb	r8, [r3, #1736]	@ zero_extendqisi2
 3339              	.LVL552:
 668:src/Func.c    ****     if (RECORD_BUF.b_trans_status & ADJUSTED) {
 3340              		.loc 1 668 0
 3341 023c 93F8CA36 		ldrb	r3, [r3, #1738]	@ zero_extendqisi2
 3342              		.loc 1 671 0
 3343 0240 1522     		movs	r2, #21
 667:src/Func.c    ****     if (RECORD_BUF.b_trans_status & ADJUSTED) {
 3344              		.loc 1 667 0
 3345 0242 13F0200F 		tst	r3, #32
 3346              		.loc 1 671 0
 3347 0246 04A8     		add	r0, sp, #16
 667:src/Func.c    ****     if (RECORD_BUF.b_trans_status & ADJUSTED) {
 3348              		.loc 1 667 0
 3349 0248 18BF     		it	ne
 3350 024a 4FF00B08 		movne	r8, #11
 3351              	.LVL553:
 3352              		.loc 1 671 0
 3353 024e FFF7FEFF 		bl	memset
 3354              	.LVL554:
 672:src/Func.c    ****     memcpy(tmp, GetConstMsg(KTransHeader[keyin]), 16);
 3355              		.loc 1 672 0
 3356 0252 3A4B     		ldr	r3, .L314+40
ARM GAS  C:\Users\AHMED~1.ELE\AppData\Local\Temp\ccgSQ7Y9.s 			page 75


 3357 0254 13F80800 		ldrb	r0, [r3, r8]	@ zero_extendqisi2
 3358 0258 FFF7FEFF 		bl	GetConstMsg
 3359              	.LVL555:
 3360 025c 1022     		movs	r2, #16
 3361 025e 0146     		mov	r1, r0
 3362 0260 04A8     		add	r0, sp, #16
 3363 0262 FFF7FEFF 		bl	memcpy
 3364              	.LVL556:
 673:src/Func.c    ****    // memmove(tmp, &tmp[6], 10);
 674:src/Func.c    ****    // if (RECORD_BUF.b_trans_status & VOIDED) {
 675:src/Func.c    ****   //    for (keyin=1;keyin<10;keyin++) {
 676:src/Func.c    ****    //     if (tmp[keyin]!=' ') {
 677:src/Func.c    ****    //       tmp[keyin-1]='V';
 678:src/Func.c    ****     //      break;
 679:src/Func.c    ****    ///     }
 680:src/Func.c    ****    ///   }
 681:src/Func.c    ****    // }
 682:src/Func.c    ****     pack_mem(tmp, 16);
 3365              		.loc 1 682 0
 3366 0266 04A8     		add	r0, sp, #16
 3367 0268 1021     		movs	r1, #16
 3368 026a FFF7FEFF 		bl	pack_mem
 3369              	.LVL557:
 683:src/Func.c    **** 	if (RECORD_BUF.b_trans_status & VOIDED) {
 3370              		.loc 1 683 0
 3371 026e 2368     		ldr	r3, [r4]
 3372 0270 93F8CA36 		ldrb	r3, [r3, #1738]	@ zero_extendqisi2
 3373 0274 DB06     		lsls	r3, r3, #27
 3374 0276 05D5     		bpl	.L300
 684:src/Func.c    **** 		pack_space((BYTE)(MAX_CHAR_LINE_NORMAL-12-2-4));
 3375              		.loc 1 684 0
 3376 0278 0C20     		movs	r0, #12
 3377 027a FFF7FEFF 		bl	pack_space
 3378              	.LVL558:
 685:src/Func.c    **** 		 pack_str("VOID");
 3379              		.loc 1 685 0
 3380 027e 3048     		ldr	r0, .L314+44
 3381 0280 FFF7FEFF 		bl	pack_str
 3382              	.LVL559:
 3383              	.L300:
 686:src/Func.c    **** 	}
 687:src/Func.c    **** 	pack_lf();
 3384              		.loc 1 687 0
 3385 0284 FFF7FEFF 		bl	pack_lf
 3386              	.LVL560:
 688:src/Func.c    ****     //pack_space(1);
 689:src/Func.c    **** 
 690:src/Func.c    ****    // ByteCopy((BYTE*) &dtg, (BYTE*)&RECORD_BUF.s_dtg, sizeof(struct DATETIME));
 691:src/Func.c    ****    // ConvDateTime(tmp, &dtg, TRUE);
 692:src/Func.c    ****    // pack_mem(&tmp[12],6);
 693:src/Func.c    ****    // pack_lf();
 694:src/Func.c    **** 
 695:src/Func.c    ****    // split(get_pptr(),RECORD_BUF.sb_pan, 10);
 696:src/Func.c    ****   //  inc_pptr(keyin = (BYTE)fndb(get_pptr(), 'F', 19));
 697:src/Func.c    ****    // pack_space((BYTE)(MAX_CHAR_LINE_NORMAL-keyin-4));
 698:src/Func.c    ****   //  split_data(&RECORD_BUF.sb_exp_date[1], 1);
 699:src/Func.c    ****   //  split_data(&RECORD_BUF.sb_exp_date[0],1);
ARM GAS  C:\Users\AHMED~1.ELE\AppData\Local\Temp\ccgSQ7Y9.s 			page 76


 700:src/Func.c    ****   //  pack_lf();
 701:src/Func.c    **** 
 702:src/Func.c    **** //	pack_str("AMOUNT ");
 703:src/Func.c    **** 	 pack_mem(gCurInfo[RECORD_BUF.currency].name, 3); 
 3387              		.loc 1 703 0
 3388 0288 2368     		ldr	r3, [r4]
 3389 028a 0321     		movs	r1, #3
 3390 028c 93F8DE06 		ldrb	r0, [r3, #1758]	@ zero_extendqisi2
 3391 0290 2C4B     		ldr	r3, .L314+48
 704:src/Func.c    ****     ConvAmount(RECORD_BUF.dd_amount, &disp_amt, STIS_TERM_CFG.b_decimal_pos, STIS_TERM_CFG.b_curren
 705:src/Func.c    ****     pack_mem(disp_amt.content, disp_amt.len);
 706:src/Func.c    ****     pack_space((BYTE)(MAX_CHAR_LINE_NORMAL-9-6+2));
 707:src/Func.c    ****    // pack_mem(tmp, 6);
 708:src/Func.c    ****     pack_mem(RECORD_BUF.sb_auth_code,6);
 709:src/Func.c    ****    // pack_space(1);
 710:src/Func.c    ****     pack_lf();
 711:src/Func.c    **** /*
 712:src/Func.c    ****     if (SaleType((BYTE)(RECORD_BUF.b_trans)) && TIPsReqd()) {
 713:src/Func.c    ****       amount = RECORD_BUF.dd_amount - RECORD_BUF.dd_tip;
 714:src/Func.c    ****       pack_mem((BYTE *)KBase, 6);
 715:src/Func.c    ****       pack_space(6);
 716:src/Func.c    ****       PackAmt(amount, 19);
 717:src/Func.c    ****       pack_lf();
 718:src/Func.c    ****       pack_mem((BYTE *)c_tip, 6);
 719:src/Func.c    ****       pack_space(6);
 720:src/Func.c    ****       PackAmt(RECORD_BUF.dd_tip, 19);
 721:src/Func.c    ****       pack_lf();
 722:src/Func.c    ****     }
 723:src/Func.c    ****     pack_str("ECR/INV NO:");
 724:src/Func.c    ****     if (skpb(RECORD_BUF.sb_ecr_ref,' ', 16)==16)
 725:src/Func.c    ****       pack_str(" NIL");
 726:src/Func.c    ****     else
 727:src/Func.c    ****       pack_mem(RECORD_BUF.sb_ecr_ref,16);
 728:src/Func.c    ****   
 729:src/Func.c    **** pack_lf();
 730:src/Func.c    **** */
 731:src/Func.c    **** 
 732:src/Func.c    **** 	pack_lfs(2);
 733:src/Func.c    ****     line_cnt += 7;
 3392              		.loc 1 733 0
 3393 0292 0736     		adds	r6, r6, #7
 3394              	.LVL561:
 703:src/Func.c    ****     ConvAmount(RECORD_BUF.dd_amount, &disp_amt, STIS_TERM_CFG.b_decimal_pos, STIS_TERM_CFG.b_curren
 3395              		.loc 1 703 0
 3396 0294 03EBC000 		add	r0, r3, r0, lsl #3
 3397 0298 FFF7FEFF 		bl	pack_mem
 3398              	.LVL562:
 704:src/Func.c    ****     ConvAmount(RECORD_BUF.dd_amount, &disp_amt, STIS_TERM_CFG.b_decimal_pos, STIS_TERM_CFG.b_curren
 3399              		.loc 1 704 0
 3400 029c 2268     		ldr	r2, [r4]
 3401              		.loc 1 733 0
 3402 029e B6B2     		uxth	r6, r6
 704:src/Func.c    ****     ConvAmount(RECORD_BUF.dd_amount, &disp_amt, STIS_TERM_CFG.b_decimal_pos, STIS_TERM_CFG.b_curren
 3403              		.loc 1 704 0
 3404 02a0 92F86430 		ldrb	r3, [r2, #100]	@ zero_extendqisi2
 3405 02a4 02F5DC61 		add	r1, r2, #1760
 3406 02a8 92F86220 		ldrb	r2, [r2, #98]	@ zero_extendqisi2
ARM GAS  C:\Users\AHMED~1.ELE\AppData\Local\Temp\ccgSQ7Y9.s 			page 77


 3407 02ac 0092     		str	r2, [sp]
 3408 02ae 10AA     		add	r2, sp, #64
 3409 02b0 D1E90001 		ldrd	r0, [r1]
 3410 02b4 FFF7FEFF 		bl	ConvAmount
 3411              	.LVL563:
 705:src/Func.c    ****     pack_space((BYTE)(MAX_CHAR_LINE_NORMAL-9-6+2));
 3412              		.loc 1 705 0
 3413 02b8 9DF84010 		ldrb	r1, [sp, #64]	@ zero_extendqisi2
 3414 02bc 0DF14100 		add	r0, sp, #65
 3415 02c0 FFF7FEFF 		bl	pack_mem
 3416              	.LVL564:
 706:src/Func.c    ****    // pack_mem(tmp, 6);
 3417              		.loc 1 706 0
 3418 02c4 1120     		movs	r0, #17
 3419 02c6 FFF7FEFF 		bl	pack_space
 3420              	.LVL565:
 708:src/Func.c    ****    // pack_space(1);
 3421              		.loc 1 708 0
 3422 02ca 2068     		ldr	r0, [r4]
 3423 02cc 0621     		movs	r1, #6
 3424 02ce 00F22770 		addw	r0, r0, #1831
 3425 02d2 FFF7FEFF 		bl	pack_mem
 3426              	.LVL566:
 710:src/Func.c    **** /*
 3427              		.loc 1 710 0
 3428 02d6 FFF7FEFF 		bl	pack_lf
 3429              	.LVL567:
 732:src/Func.c    ****     line_cnt += 7;
 3430              		.loc 1 732 0
 3431 02da 0220     		movs	r0, #2
 3432 02dc FFF7FEFF 		bl	pack_lfs
 3433              	.LVL568:
 3434              	.L297:
 621:src/Func.c    ****     APM_GetBatchRec(i, (BYTE *)&RECORD_BUF, sizeof(RECORD_BUF));
 3435              		.loc 1 621 0 discriminator 2
 3436 02e0 0135     		adds	r5, r5, #1
 3437              	.LVL569:
 3438 02e2 09E7     		b	.L296
 3439              	.L313:
 734:src/Func.c    ****   }
 735:src/Func.c    **** PackSeperator('*');
 3440              		.loc 1 735 0
 3441 02e4 2A20     		movs	r0, #42
 3442 02e6 FFF7FEFF 		bl	PackSeperator
 3443              	.LVL570:
 736:src/Func.c    **** pack_lf();
 3444              		.loc 1 736 0
 3445 02ea FFF7FEFF 		bl	pack_lf
 3446              	.LVL571:
 737:src/Func.c    **** 
 738:src/Func.c    ****   PackIssuerSumT(host_idx);
 3447              		.loc 1 738 0
 3448 02ee B8B2     		uxth	r0, r7
 3449 02f0 FFF7FEFF 		bl	PackIssuerSumT
 3450              	.LVL572:
 739:src/Func.c    ****   PackFF();
 3451              		.loc 1 739 0
ARM GAS  C:\Users\AHMED~1.ELE\AppData\Local\Temp\ccgSQ7Y9.s 			page 78


 3452 02f4 FFF7FEFF 		bl	PackFF
 3453              	.LVL573:
 740:src/Func.c    ****   PackMsgBufLen();
 3454              		.loc 1 740 0
 3455 02f8 FFF7FEFF 		bl	PackMsgBufLen
 3456              	.LVL574:
 741:src/Func.c    ****    PrintBuf(MSG_BUF.sb_content, MSG_BUF.d_len, FALSE, FALSE);
 3457              		.loc 1 741 0
 3458 02fc 2368     		ldr	r3, [r4]
 3459 02fe 0022     		movs	r2, #0
 3460 0300 03F69C50 		addw	r0, r3, #3484
 3461 0304 D3F8981D 		ldr	r1, [r3, #3480]
 3462 0308 1346     		mov	r3, r2
 3463 030a FFF7FEFF 		bl	PrintBuf
 3464              	.LVL575:
 3465              	.L293:
 742:src/Func.c    **** }
 3466              		.loc 1 742 0
 3467 030e 17B0     		add	sp, sp, #92
 3468              		.cfi_def_cfa_offset 28
 3469              		@ sp needed
 3470 0310 BDE8F083 		pop	{r4, r5, r6, r7, r8, r9, pc}
 3471              	.LVL576:
 3472              	.L315:
 3473              		.align	2
 3474              	.L314:
 3475 0314 00000000 		.word	gGDS
 3476 0318 27000000 		.word	.LC4
 3477 031c 39000000 		.word	.LC5
 3478 0320 4B000000 		.word	.LC6
 3479 0324 53000000 		.word	.LC7
 3480 0328 60000000 		.word	.LC8
 3481 032c 76000000 		.word	.LC9
 3482 0330 8A000000 		.word	.LC10
 3483 0334 8E000000 		.word	.LC11
 3484 0338 93000000 		.word	.LC12
 3485 033c 00000000 		.word	KTransHeader
 3486 0340 95000000 		.word	.LC13
 3487 0344 00000000 		.word	gCurInfo
 3488              		.cfi_endproc
 3489              	.LFE10:
 3490              		.size	PrintTxnRecord, .-PrintTxnRecord
 3491              		.section	.text.MerchantFunc,"ax",%progbits
 3492              		.align	1
 3493              		.global	MerchantFunc
 3494              		.thumb
 3495              		.thumb_func
 3496              		.type	MerchantFunc, %function
 3497              	MerchantFunc:
 3498              	.LFB11:
 743:src/Func.c    **** extern void ReferralCall(void);
 744:src/Func.c    **** //*****************************************************************************
 745:src/Func.c    **** //  Function        : MerchantFunc
 746:src/Func.c    **** //  Description     : Process function base on the input function id.
 747:src/Func.c    **** //  Input           : aFuncId;        // Function Id
 748:src/Func.c    **** //  Return          : TRUE;           // indicate func process complete
 749:src/Func.c    **** //                    FALSE;          // func not define.
ARM GAS  C:\Users\AHMED~1.ELE\AppData\Local\Temp\ccgSQ7Y9.s 			page 79


 750:src/Func.c    **** //  Note            : N/A
 751:src/Func.c    **** //  Globals Changed : N/A
 752:src/Func.c    **** //*****************************************************************************
 753:src/Func.c    **** BOOLEAN MerchantFunc(DWORD aFuncId)
 754:src/Func.c    **** {
 3499              		.loc 1 754 0
 3500              		.cfi_startproc
 3501              		@ args = 0, pretend = 0, frame = 0
 3502              		@ frame_needed = 0, uses_anonymous_args = 0
 3503              	.LVL577:
 3504 0000 37B5     		push	{r0, r1, r2, r4, r5, lr}
 3505              		.cfi_def_cfa_offset 24
 3506              		.cfi_offset 4, -12
 3507              		.cfi_offset 5, -8
 3508              		.cfi_offset 14, -4
 755:src/Func.c    ****   int select;
 756:src/Func.c    ****   int recordno;
 757:src/Func.c    **** 
 758:src/Func.c    ****   select = aFuncId;
 759:src/Func.c    ****   if (aFuncId == -1) {
 3509              		.loc 1 759 0
 3510 0002 411C     		adds	r1, r0, #1
 3511 0004 03D1     		bne	.L317
 3512              	.LVL578:
 760:src/Func.c    ****     select = 0;
 761:src/Func.c    ****     select = MenuSelect(&KFuncMenu, select);
 3513              		.loc 1 761 0
 3514 0006 CD48     		ldr	r0, .L392
 3515              	.LVL579:
 3516 0008 0021     		movs	r1, #0
 3517              	.LVL580:
 3518 000a FFF7FEFF 		bl	MenuSelect
 3519              	.LVL581:
 3520              	.L317:
 762:src/Func.c    ****   }
 763:src/Func.c    **** 
 764:src/Func.c    ****   gGDS->b_disp_chgd = TRUE;
 3521              		.loc 1 764 0
 3522 000e CC4B     		ldr	r3, .L392+4
 3523 0010 0124     		movs	r4, #1
 3524 0012 1B68     		ldr	r3, [r3]
 765:src/Func.c    ****   if (select == -1)
 3525              		.loc 1 765 0
 3526 0014 421C     		adds	r2, r0, #1
 764:src/Func.c    ****   if (select == -1)
 3527              		.loc 1 764 0
 3528 0016 03F57153 		add	r3, r3, #15424
 3529 001a 1C74     		strb	r4, [r3, #16]
 3530              		.loc 1 765 0
 3531 001c 00F07C81 		beq	.L387
 766:src/Func.c    ****     return TRUE;
 767:src/Func.c    **** 
 768:src/Func.c    ****   switch (select) {
 3532              		.loc 1 768 0
 3533 0020 3928     		cmp	r0, #57
 3534 0022 00F04681 		beq	.L321
 3535 0026 2ADC     		bgt	.L322
ARM GAS  C:\Users\AHMED~1.ELE\AppData\Local\Temp\ccgSQ7Y9.s 			page 80


 3536 0028 1628     		cmp	r0, #22
 3537 002a 73D0     		beq	.L323
 3538 002c 13DC     		bgt	.L324
 3539 002e 0728     		cmp	r0, #7
 3540 0030 61D0     		beq	.L325
 3541 0032 07DC     		bgt	.L326
 3542 0034 0528     		cmp	r0, #5
 3543 0036 55D0     		beq	.L327
 3544 0038 57DC     		bgt	.L328
 3545 003a 0128     		cmp	r0, #1
 3546 003c 40F07681 		bne	.L320
 769:src/Func.c    ****     case 1:
 770:src/Func.c    ****       DisplayBatch(0);  // Start from last rec
 3547              		.loc 1 770 0
 3548 0040 0020     		movs	r0, #0
 3549              	.LVL582:
 3550 0042 64E0     		b	.L388
 3551              	.LVL583:
 3552              	.L326:
 768:src/Func.c    ****     case 1:
 3553              		.loc 1 768 0
 3554 0044 0928     		cmp	r0, #9
 3555 0046 5FD0     		beq	.L330
 3556 0048 5BDB     		blt	.L331
 3557 004a 1528     		cmp	r0, #21
 3558 004c 40F06E81 		bne	.L320
 771:src/Func.c    ****       break;
 772:src/Func.c    ****     case 5:
 773:src/Func.c    ****       DispTransTotal();
 774:src/Func.c    ****       break;
 775:src/Func.c    **** 	    case  6:
 776:src/Func.c    ****         APM_MerchFunc(7);
 777:src/Func.c    ****         break;
 778:src/Func.c    **** 		 case  7:
 779:src/Func.c    ****         APM_MerchFunc(8);
 780:src/Func.c    ****         break;
 781:src/Func.c    ****     case 8:
 782:src/Func.c    ****       DispReversal();
 783:src/Func.c    ****       break;
 784:src/Func.c    ****     case 9 :
 785:src/Func.c    ****       ClearReversal();
 786:src/Func.c    ****       break;
 787:src/Func.c    ****     case 21:
 788:src/Func.c    ****       DisplayBatch(-1);  // Prompt User for TRACE
 3559              		.loc 1 788 0
 3560 0050 4FF0FF30 		mov	r0, #-1
 3561              	.LVL584:
 3562 0054 5BE0     		b	.L388
 3563              	.LVL585:
 3564              	.L324:
 768:src/Func.c    ****     case 1:
 3565              		.loc 1 768 0
 3566 0056 3528     		cmp	r0, #53
 3567 0058 00F02181 		beq	.L333
 3568 005c 07DC     		bgt	.L334
 3569 005e 3328     		cmp	r0, #51
 3570 0060 00F0D980 		beq	.L335
ARM GAS  C:\Users\AHMED~1.ELE\AppData\Local\Temp\ccgSQ7Y9.s 			page 81


 3571 0064 00F31381 		bgt	.L336
 3572 0068 3228     		cmp	r0, #50
 3573 006a 58D0     		beq	.L337
 3574 006c 5EE1     		b	.L320
 3575              	.L334:
 3576 006e 3728     		cmp	r0, #55
 3577 0070 00F01881 		beq	.L338
 3578 0074 00F31981 		bgt	.L389
 789:src/Func.c    ****       break;
 790:src/Func.c    ****     case 22:
 791:src/Func.c    ****       AdjustTrans(-1);
 792:src/Func.c    ****       break;
 793:src/Func.c    ****       //case 23:
 794:src/Func.c    ****       //if (TIPsReqd())
 795:src/Func.c    ****       //  AdjustTrans(TRUE);   /* adjust base amount */
 796:src/Func.c    ****       //  break;
 797:src/Func.c    ****       // debug only ++
 798:src/Func.c    **** 
 799:src/Func.c    ****     case 50:
 800:src/Func.c    ****       DispLineMW("Reset DEMO Data", MW_LINE1, MW_CLRDISP|MW_CENTER|MW_REVERSE|MW_BIGFONT);
 801:src/Func.c    ****       DispLineMW("PROCESSING...",  MW_LINE5, MW_CENTER|MW_BIGFONT);
 802:src/Func.c    **** 
 803:src/Func.c    ****       // Set STIS data
 804:src/Func.c    ****       SaveSTISDbgData(MODE_ALL_PARAM);
 805:src/Func.c    ****       fCommitAllMW();
 806:src/Func.c    ****       LoadEMVKey();
 807:src/Func.c    ****       LoadEMVCfg();
 808:src/Func.c    ****       DispClrBelowMW(MW_LINE5);
 809:src/Func.c    ****       DispLineMW("Enter to Reboot!", MW_LINE5, MW_CENTER|MW_BIGFONT);
 810:src/Func.c    ****       APM_WaitKey(9000, 0);
 811:src/Func.c    ****       fCommitAllMW();
 812:src/Func.c    ****       APM_MerchFunc(64);
 813:src/Func.c    ****       break;
 814:src/Func.c    ****     case 51:
 815:src/Func.c    **** 	  DispLineMW("Reset CTL Data", MW_LINE1, MW_CLRDISP|MW_CENTER|MW_REVERSE|MW_BIGFONT);
 816:src/Func.c    ****       DispLineMW("PROCESSING...",  MW_LINE5, MW_CENTER|MW_BIGFONT);
 817:src/Func.c    ****       // Set EMVCL data
 818:src/Func.c    ****       LoadCTLKey();
 819:src/Func.c    ****       LoadCTLCfg();
 820:src/Func.c    ****       CTLEnable(TRUE);
 821:src/Func.c    ****       break;
 822:src/Func.c    ****     case 52:
 823:src/Func.c    ****       if (LoadTmk() == TRUE)
 824:src/Func.c    ****         LoadKeys();
 825:src/Func.c    ****       break;
 826:src/Func.c    ****     case 53:
 827:src/Func.c    ****       EncData();
 828:src/Func.c    ****       break;
 829:src/Func.c    ****     case 54:
 830:src/Func.c    ****       DecData();
 3579              		.loc 1 830 0
 3580 0078 FFF7FEFF 		bl	DecData
 3581              	.LVL586:
 831:src/Func.c    ****       break;
 3582              		.loc 1 831 0
 3583 007c 5AE1     		b	.L319
 3584              	.LVL587:
ARM GAS  C:\Users\AHMED~1.ELE\AppData\Local\Temp\ccgSQ7Y9.s 			page 82


 3585              	.L322:
 768:src/Func.c    ****     case 1:
 3586              		.loc 1 768 0
 3587 007e 4128     		cmp	r0, #65
 3588 0080 00F03681 		beq	.L341
 3589 0084 13DC     		bgt	.L342
 3590 0086 3D28     		cmp	r0, #61
 3591 0088 00F01C81 		beq	.L343
 3592 008c 07DC     		bgt	.L344
 3593 008e 3B28     		cmp	r0, #59
 3594 0090 00F01281 		beq	.L345
 3595 0094 00F31381 		bgt	.L390
 832:src/Func.c    ****     case 55:
 833:src/Func.c    ****       GetPIN();
 834:src/Func.c    ****       break;
 835:src/Func.c    ****     case 56:
 836:src/Func.c    ****       ResetKey(0xFF);
 837:src/Func.c    ****       break;
 838:src/Func.c    ****     case 57:
 839:src/Func.c    ****       SetDhostIdx();
 840:src/Func.c    ****       break;
 841:src/Func.c    ****     case 58:
 842:src/Func.c    ****       LoadDukptIkey();
 3596              		.loc 1 842 0
 3597 0098 FFF7FEFF 		bl	LoadDukptIkey
 3598              	.LVL588:
 843:src/Func.c    ****       break;
 3599              		.loc 1 843 0
 3600 009c 4AE1     		b	.L319
 3601              	.LVL589:
 3602              	.L344:
 768:src/Func.c    ****     case 1:
 3603              		.loc 1 768 0
 3604 009e 3F28     		cmp	r0, #63
 3605 00a0 00F01381 		beq	.L348
 3606 00a4 00F31481 		bgt	.L391
 844:src/Func.c    ****     case 59:
 845:src/Func.c    ****       GetDukptPin();
 846:src/Func.c    ****       break;
 847:src/Func.c    ****     case 60:
 848:src/Func.c    ****       ResetDukptIkey();
 849:src/Func.c    ****       break;
 850:src/Func.c    ****     case 61:
 851:src/Func.c    ****       IccTmkInject();
 852:src/Func.c    ****       break;
 853:src/Func.c    ****     case 62:
 854:src/Func.c    ****       SPadTest();
 3607              		.loc 1 854 0
 3608 00a8 FFF7FEFF 		bl	SPadTest
 3609              	.LVL590:
 855:src/Func.c    ****       break;
 3610              		.loc 1 855 0
 3611 00ac 42E1     		b	.L319
 3612              	.LVL591:
 3613              	.L342:
 768:src/Func.c    ****     case 1:
 3614              		.loc 1 768 0
ARM GAS  C:\Users\AHMED~1.ELE\AppData\Local\Temp\ccgSQ7Y9.s 			page 83


 3615 00ae 4A28     		cmp	r0, #74
 3616 00b0 00F02F81 		beq	.L351
 3617 00b4 0ADC     		bgt	.L352
 3618 00b6 4828     		cmp	r0, #72
 3619 00b8 00F01F81 		beq	.L353
 3620 00bc 00F32081 		bgt	.L354
 3621 00c0 4228     		cmp	r0, #66
 3622 00c2 40F03381 		bne	.L320
 856:src/Func.c    ****     case 63:
 857:src/Func.c    ****       //BRdrTest();
 858:src/Func.c    ****       CamTestAll();
 859:src/Func.c    ****       break;
 860:src/Func.c    ****     case 64:
 861:src/Func.c    ****       fCommitAllMW();
 862:src/Func.c    ****       APM_MerchFunc(select);
 863:src/Func.c    ****       break;
 864:src/Func.c    **** 	  case 65:
 865:src/Func.c    ****        Packprintconfig();
 866:src/Func.c    **** 	   Packprintissuer();
 867:src/Func.c    ****       break;
 868:src/Func.c    ****     case 66:
 869:src/Func.c    ****       ShowPPPStatus();
 3623              		.loc 1 869 0
 3624 00c6 FFF7FEFF 		bl	ShowPPPStatus
 3625              	.LVL592:
 3626 00ca 25E1     		b	.L387
 3627              	.LVL593:
 3628              	.L352:
 768:src/Func.c    ****     case 1:
 3629              		.loc 1 768 0
 3630 00cc 6028     		cmp	r0, #96
 3631 00ce 00F02581 		beq	.L356
 3632 00d2 6328     		cmp	r0, #99
 3633 00d4 00F02781 		beq	.L357
 3634 00d8 4B28     		cmp	r0, #75
 3635 00da 40F02781 		bne	.L320
 870:src/Func.c    ****       break;
 871:src/Func.c    ****      #if (LPT_SUPPORT|TMLPT_SUPPORT)    // Conditional Compile for Printer support
 872:src/Func.c    ****     case 72:
 873:src/Func.c    ****       ReprintLast();
 874:src/Func.c    ****       break;
 875:src/Func.c    ****     case 73:
 876:src/Func.c    ****       recordno = DisplayRecordno(-1);
 877:src/Func.c    **** 	  if(recordno == -1){
 878:src/Func.c    **** 	  break;
 879:src/Func.c    **** 	  }
 880:src/Func.c    ****       ReprintTxn(recordno);
 881:src/Func.c    ****       break;
 882:src/Func.c    ****     case 74:
 883:src/Func.c    ****       PrintTotals();
 884:src/Func.c    ****       break;
 885:src/Func.c    ****     case 75:
 886:src/Func.c    ****       PrintTxnRecord();
 3636              		.loc 1 886 0
 3637 00de FFF7FEFF 		bl	PrintTxnRecord
 3638              	.LVL594:
 3639 00e2 19E1     		b	.L387
ARM GAS  C:\Users\AHMED~1.ELE\AppData\Local\Temp\ccgSQ7Y9.s 			page 84


 3640              	.LVL595:
 3641              	.L327:
 773:src/Func.c    ****       break;
 3642              		.loc 1 773 0
 3643 00e4 FFF7FEFF 		bl	DispTransTotal
 3644              	.LVL596:
 774:src/Func.c    **** 	    case  6:
 3645              		.loc 1 774 0
 3646 00e8 24E1     		b	.L319
 3647              	.LVL597:
 3648              	.L328:
 776:src/Func.c    ****         break;
 3649              		.loc 1 776 0
 3650 00ea 0023     		movs	r3, #0
 3651 00ec 1020     		movs	r0, #16
 3652              	.LVL598:
 3653 00ee 0093     		str	r3, [sp]
 3654 00f0 3421     		movs	r1, #52
 3655 00f2 0722     		movs	r2, #7
 3656              	.LVL599:
 3657 00f4 F9E0     		b	.L386
 3658              	.LVL600:
 3659              	.L325:
 779:src/Func.c    ****         break;
 3660              		.loc 1 779 0
 3661 00f6 0023     		movs	r3, #0
 3662 00f8 1020     		movs	r0, #16
 3663              	.LVL601:
 3664 00fa 0093     		str	r3, [sp]
 3665 00fc 3421     		movs	r1, #52
 3666 00fe 0822     		movs	r2, #8
 3667              	.LVL602:
 3668 0100 F3E0     		b	.L386
 3669              	.LVL603:
 3670              	.L331:
 782:src/Func.c    ****       break;
 3671              		.loc 1 782 0
 3672 0102 FFF7FEFF 		bl	DispReversal
 3673              	.LVL604:
 783:src/Func.c    ****     case 9 :
 3674              		.loc 1 783 0
 3675 0106 15E1     		b	.L319
 3676              	.LVL605:
 3677              	.L330:
 785:src/Func.c    ****       break;
 3678              		.loc 1 785 0
 3679 0108 FFF7FEFF 		bl	ClearReversal
 3680              	.LVL606:
 786:src/Func.c    ****     case 21:
 3681              		.loc 1 786 0
 3682 010c 12E1     		b	.L319
 3683              	.LVL607:
 3684              	.L388:
 788:src/Func.c    ****       break;
 3685              		.loc 1 788 0
 3686 010e FFF7FEFF 		bl	DisplayBatch
 3687              	.LVL608:
ARM GAS  C:\Users\AHMED~1.ELE\AppData\Local\Temp\ccgSQ7Y9.s 			page 85


 3688 0112 01E1     		b	.L387
 3689              	.LVL609:
 3690              	.L323:
 791:src/Func.c    ****       break;
 3691              		.loc 1 791 0
 3692 0114 4FF0FF30 		mov	r0, #-1
 3693              	.LVL610:
 3694 0118 FFF7FEFF 		bl	AdjustTrans
 3695              	.LVL611:
 792:src/Func.c    ****       //case 23:
 3696              		.loc 1 792 0
 3697 011c 0AE1     		b	.L319
 3698              	.LVL612:
 3699              	.L337:
 3700              	.LBB79:
 800:src/Func.c    ****       DispLineMW("PROCESSING...",  MW_LINE5, MW_CENTER|MW_BIGFONT);
 3701              		.loc 1 800 0
 3702 011e 9220     		movs	r0, #146
 3703              	.LVL613:
 3704 0120 1021     		movs	r1, #16
 3705 0122 FFF7FEFF 		bl	sys_func1
 3706              	.LVL614:
 3707 0126 0446     		mov	r4, r0
 3708 0128 98B1     		cbz	r0, .L359
 800:src/Func.c    ****       DispLineMW("PROCESSING...",  MW_LINE5, MW_CENTER|MW_BIGFONT);
 3709              		.loc 1 800 0 is_stmt 0 discriminator 1
 3710 012a 8649     		ldr	r1, .L392+8
 3711 012c 0F22     		movs	r2, #15
 3712 012e FFF7FEFF 		bl	memcpy
 3713              	.LVL615:
 3714 0132 0023     		movs	r3, #0
 3715 0134 2521     		movs	r1, #37
 3716 0136 E373     		strb	r3, [r4, #15]
 3717 0138 41F29203 		movw	r3, #4242
 3718 013c 0F20     		movs	r0, #15
 3719 013e 0093     		str	r3, [sp]
 3720 0140 2246     		mov	r2, r4
 3721 0142 4FF48073 		mov	r3, #256
 3722 0146 FFF7FEFF 		bl	lib_app_call
 3723              	.LVL616:
 3724 014a 9420     		movs	r0, #148
 3725 014c 2146     		mov	r1, r4
 3726 014e FFF7FEFF 		bl	sys_func1
 3727              	.LVL617:
 3728              	.L359:
 3729              	.LBE79:
 3730              	.LBB80:
 801:src/Func.c    **** 
 3731              		.loc 1 801 0 is_stmt 1
 3732 0152 9220     		movs	r0, #146
 3733 0154 0E21     		movs	r1, #14
 3734 0156 FFF7FEFF 		bl	sys_func1
 3735              	.LVL618:
 3736 015a 0446     		mov	r4, r0
 3737              	.LVL619:
 3738 015c 98B1     		cbz	r0, .L360
 801:src/Func.c    **** 
ARM GAS  C:\Users\AHMED~1.ELE\AppData\Local\Temp\ccgSQ7Y9.s 			page 86


 3739              		.loc 1 801 0 is_stmt 0 discriminator 1
 3740 015e 7A49     		ldr	r1, .L392+12
 3741 0160 0D22     		movs	r2, #13
 3742 0162 FFF7FEFF 		bl	memcpy
 3743              	.LVL620:
 3744 0166 0023     		movs	r3, #0
 3745 0168 2521     		movs	r1, #37
 3746 016a 6373     		strb	r3, [r4, #13]
 3747 016c 41F20203 		movw	r3, #4098
 3748 0170 0F20     		movs	r0, #15
 3749 0172 0093     		str	r3, [sp]
 3750 0174 2246     		mov	r2, r4
 3751 0176 4FF4A063 		mov	r3, #1280
 3752 017a FFF7FEFF 		bl	lib_app_call
 3753              	.LVL621:
 3754 017e 9420     		movs	r0, #148
 3755 0180 2146     		mov	r1, r4
 3756 0182 FFF7FEFF 		bl	sys_func1
 3757              	.LVL622:
 3758              	.L360:
 3759              	.LBE80:
 805:src/Func.c    ****       LoadEMVKey();
 3760              		.loc 1 805 0 is_stmt 1
 3761 0186 0024     		movs	r4, #0
 3762              	.LVL623:
 804:src/Func.c    ****       fCommitAllMW();
 3763              		.loc 1 804 0
 3764 0188 0120     		movs	r0, #1
 3765 018a FFF7FEFF 		bl	SaveSTISDbgData
 3766              	.LVL624:
 805:src/Func.c    ****       LoadEMVKey();
 3767              		.loc 1 805 0
 3768 018e 1321     		movs	r1, #19
 3769 0190 2246     		mov	r2, r4
 3770 0192 2346     		mov	r3, r4
 3771 0194 0094     		str	r4, [sp]
 3772 0196 0F20     		movs	r0, #15
 3773 0198 FFF7FEFF 		bl	lib_app_call
 3774              	.LVL625:
 806:src/Func.c    ****       LoadEMVCfg();
 3775              		.loc 1 806 0
 3776 019c FFF7FEFF 		bl	LoadEMVKey
 3777              	.LVL626:
 807:src/Func.c    ****       DispClrBelowMW(MW_LINE5);
 3778              		.loc 1 807 0
 3779 01a0 FFF7FEFF 		bl	LoadEMVCfg
 3780              	.LVL627:
 808:src/Func.c    ****       DispLineMW("Enter to Reboot!", MW_LINE5, MW_CENTER|MW_BIGFONT);
 3781              		.loc 1 808 0
 3782 01a4 2321     		movs	r1, #35
 3783 01a6 4FF4A062 		mov	r2, #1280
 3784 01aa 2346     		mov	r3, r4
 3785 01ac 0094     		str	r4, [sp]
 3786 01ae 0F20     		movs	r0, #15
 3787 01b0 FFF7FEFF 		bl	lib_app_call
 3788              	.LVL628:
 3789              	.LBB81:
ARM GAS  C:\Users\AHMED~1.ELE\AppData\Local\Temp\ccgSQ7Y9.s 			page 87


 809:src/Func.c    ****       APM_WaitKey(9000, 0);
 3790              		.loc 1 809 0
 3791 01b4 9220     		movs	r0, #146
 3792 01b6 1121     		movs	r1, #17
 3793 01b8 FFF7FEFF 		bl	sys_func1
 3794              	.LVL629:
 3795 01bc 0546     		mov	r5, r0
 3796 01be 90B1     		cbz	r0, .L361
 809:src/Func.c    ****       APM_WaitKey(9000, 0);
 3797              		.loc 1 809 0 is_stmt 0 discriminator 1
 3798 01c0 6249     		ldr	r1, .L392+16
 3799 01c2 1022     		movs	r2, #16
 3800 01c4 FFF7FEFF 		bl	memcpy
 3801              	.LVL630:
 3802 01c8 41F20203 		movw	r3, #4098
 3803 01cc 2C74     		strb	r4, [r5, #16]
 3804 01ce 2521     		movs	r1, #37
 3805 01d0 0093     		str	r3, [sp]
 3806 01d2 0F20     		movs	r0, #15
 3807 01d4 2A46     		mov	r2, r5
 3808 01d6 4FF4A063 		mov	r3, #1280
 3809 01da FFF7FEFF 		bl	lib_app_call
 3810              	.LVL631:
 3811 01de 9420     		movs	r0, #148
 3812 01e0 2946     		mov	r1, r5
 3813 01e2 FFF7FEFF 		bl	sys_func1
 3814              	.LVL632:
 3815              	.L361:
 3816              	.LBE81:
 810:src/Func.c    ****       fCommitAllMW();
 3817              		.loc 1 810 0 is_stmt 1
 3818 01e6 0024     		movs	r4, #0
 3819 01e8 2346     		mov	r3, r4
 3820 01ea 0094     		str	r4, [sp]
 3821 01ec 0321     		movs	r1, #3
 3822 01ee 42F22832 		movw	r2, #9000
 3823 01f2 1020     		movs	r0, #16
 3824 01f4 FFF7FEFF 		bl	lib_app_call
 3825              	.LVL633:
 811:src/Func.c    ****       APM_MerchFunc(64);
 3826              		.loc 1 811 0
 3827 01f8 2246     		mov	r2, r4
 3828 01fa 2346     		mov	r3, r4
 3829 01fc 0094     		str	r4, [sp]
 3830 01fe 1321     		movs	r1, #19
 3831 0200 0F20     		movs	r0, #15
 3832 0202 FFF7FEFF 		bl	lib_app_call
 3833              	.LVL634:
 812:src/Func.c    ****       break;
 3834              		.loc 1 812 0
 3835 0206 0094     		str	r4, [sp]
 3836 0208 3421     		movs	r1, #52
 3837 020a 4022     		movs	r2, #64
 3838 020c 2346     		mov	r3, r4
 3839 020e 1020     		movs	r0, #16
 3840 0210 FFF7FEFF 		bl	lib_app_call
 3841              	.LVL635:
ARM GAS  C:\Users\AHMED~1.ELE\AppData\Local\Temp\ccgSQ7Y9.s 			page 88


 3842 0214 80E0     		b	.L387
 3843              	.LVL636:
 3844              	.L335:
 3845              	.LBB82:
 815:src/Func.c    ****       DispLineMW("PROCESSING...",  MW_LINE5, MW_CENTER|MW_BIGFONT);
 3846              		.loc 1 815 0
 3847 0216 9220     		movs	r0, #146
 3848              	.LVL637:
 3849 0218 0F21     		movs	r1, #15
 3850 021a FFF7FEFF 		bl	sys_func1
 3851              	.LVL638:
 3852 021e 0446     		mov	r4, r0
 3853 0220 98B1     		cbz	r0, .L362
 815:src/Func.c    ****       DispLineMW("PROCESSING...",  MW_LINE5, MW_CENTER|MW_BIGFONT);
 3854              		.loc 1 815 0 is_stmt 0 discriminator 1
 3855 0222 4B49     		ldr	r1, .L392+20
 3856 0224 0E22     		movs	r2, #14
 3857 0226 FFF7FEFF 		bl	memcpy
 3858              	.LVL639:
 3859 022a 0023     		movs	r3, #0
 3860 022c 2521     		movs	r1, #37
 3861 022e A373     		strb	r3, [r4, #14]
 3862 0230 41F29203 		movw	r3, #4242
 3863 0234 0F20     		movs	r0, #15
 3864 0236 0093     		str	r3, [sp]
 3865 0238 2246     		mov	r2, r4
 3866 023a 4FF48073 		mov	r3, #256
 3867 023e FFF7FEFF 		bl	lib_app_call
 3868              	.LVL640:
 3869 0242 9420     		movs	r0, #148
 3870 0244 2146     		mov	r1, r4
 3871 0246 FFF7FEFF 		bl	sys_func1
 3872              	.LVL641:
 3873              	.L362:
 3874              	.LBE82:
 3875              	.LBB83:
 816:src/Func.c    ****       // Set EMVCL data
 3876              		.loc 1 816 0 is_stmt 1
 3877 024a 9220     		movs	r0, #146
 3878 024c 0E21     		movs	r1, #14
 3879 024e FFF7FEFF 		bl	sys_func1
 3880              	.LVL642:
 3881 0252 0446     		mov	r4, r0
 3882              	.LVL643:
 3883 0254 98B1     		cbz	r0, .L363
 816:src/Func.c    ****       // Set EMVCL data
 3884              		.loc 1 816 0 is_stmt 0 discriminator 1
 3885 0256 3C49     		ldr	r1, .L392+12
 3886 0258 0D22     		movs	r2, #13
 3887 025a FFF7FEFF 		bl	memcpy
 3888              	.LVL644:
 3889 025e 0023     		movs	r3, #0
 3890 0260 2521     		movs	r1, #37
 3891 0262 6373     		strb	r3, [r4, #13]
 3892 0264 41F20203 		movw	r3, #4098
 3893 0268 0F20     		movs	r0, #15
 3894 026a 0093     		str	r3, [sp]
ARM GAS  C:\Users\AHMED~1.ELE\AppData\Local\Temp\ccgSQ7Y9.s 			page 89


 3895 026c 2246     		mov	r2, r4
 3896 026e 4FF4A063 		mov	r3, #1280
 3897 0272 FFF7FEFF 		bl	lib_app_call
 3898              	.LVL645:
 3899 0276 9420     		movs	r0, #148
 3900 0278 2146     		mov	r1, r4
 3901 027a FFF7FEFF 		bl	sys_func1
 3902              	.LVL646:
 3903              	.L363:
 3904              	.LBE83:
 818:src/Func.c    ****       LoadCTLCfg();
 3905              		.loc 1 818 0 is_stmt 1
 3906 027e FFF7FEFF 		bl	LoadCTLKey
 3907              	.LVL647:
 819:src/Func.c    ****       CTLEnable(TRUE);
 3908              		.loc 1 819 0
 3909 0282 FFF7FEFF 		bl	LoadCTLCfg
 3910              	.LVL648:
 820:src/Func.c    ****       break;
 3911              		.loc 1 820 0
 3912 0286 0120     		movs	r0, #1
 3913 0288 FFF7FEFF 		bl	CTLEnable
 3914              	.LVL649:
 3915 028c 44E0     		b	.L387
 3916              	.LVL650:
 3917              	.L336:
 823:src/Func.c    ****         LoadKeys();
 3918              		.loc 1 823 0
 3919 028e FFF7FEFF 		bl	LoadTmk
 3920              	.LVL651:
 3921 0292 0128     		cmp	r0, #1
 3922 0294 0446     		mov	r4, r0
 3923 0296 3FD1     		bne	.L387
 824:src/Func.c    ****       break;
 3924              		.loc 1 824 0
 3925 0298 FFF7FEFF 		bl	LoadKeys
 3926              	.LVL652:
 3927 029c 4AE0     		b	.L319
 3928              	.LVL653:
 3929              	.L333:
 827:src/Func.c    ****       break;
 3930              		.loc 1 827 0
 3931 029e FFF7FEFF 		bl	EncData
 3932              	.LVL654:
 828:src/Func.c    ****     case 54:
 3933              		.loc 1 828 0
 3934 02a2 47E0     		b	.L319
 3935              	.LVL655:
 3936              	.L338:
 833:src/Func.c    ****       break;
 3937              		.loc 1 833 0
 3938 02a4 FFF7FEFF 		bl	GetPIN
 3939              	.LVL656:
 834:src/Func.c    ****     case 56:
 3940              		.loc 1 834 0
 3941 02a8 44E0     		b	.L319
 3942              	.LVL657:
ARM GAS  C:\Users\AHMED~1.ELE\AppData\Local\Temp\ccgSQ7Y9.s 			page 90


 3943              	.L389:
 836:src/Func.c    ****       break;
 3944              		.loc 1 836 0
 3945 02aa FF20     		movs	r0, #255
 3946              	.LVL658:
 3947 02ac FFF7FEFF 		bl	ResetKey
 3948              	.LVL659:
 837:src/Func.c    ****     case 57:
 3949              		.loc 1 837 0
 3950 02b0 40E0     		b	.L319
 3951              	.LVL660:
 3952              	.L321:
 839:src/Func.c    ****       break;
 3953              		.loc 1 839 0
 3954 02b2 FFF7FEFF 		bl	SetDhostIdx
 3955              	.LVL661:
 840:src/Func.c    ****     case 58:
 3956              		.loc 1 840 0
 3957 02b6 3DE0     		b	.L319
 3958              	.LVL662:
 3959              	.L345:
 845:src/Func.c    ****       break;
 3960              		.loc 1 845 0
 3961 02b8 FFF7FEFF 		bl	GetDukptPin
 3962              	.LVL663:
 846:src/Func.c    ****     case 60:
 3963              		.loc 1 846 0
 3964 02bc 3AE0     		b	.L319
 3965              	.LVL664:
 3966              	.L390:
 848:src/Func.c    ****       break;
 3967              		.loc 1 848 0
 3968 02be FFF7FEFF 		bl	ResetDukptIkey
 3969              	.LVL665:
 849:src/Func.c    ****     case 61:
 3970              		.loc 1 849 0
 3971 02c2 37E0     		b	.L319
 3972              	.LVL666:
 3973              	.L343:
 851:src/Func.c    ****       break;
 3974              		.loc 1 851 0
 3975 02c4 FFF7FEFF 		bl	IccTmkInject
 3976              	.LVL667:
 852:src/Func.c    ****     case 62:
 3977              		.loc 1 852 0
 3978 02c8 34E0     		b	.L319
 3979              	.LVL668:
 3980              	.L348:
 858:src/Func.c    ****       break;
 3981              		.loc 1 858 0
 3982 02ca FFF7FEFF 		bl	CamTestAll
 3983              	.LVL669:
 859:src/Func.c    ****     case 64:
 3984              		.loc 1 859 0
 3985 02ce 31E0     		b	.L319
 3986              	.LVL670:
 3987              	.L391:
ARM GAS  C:\Users\AHMED~1.ELE\AppData\Local\Temp\ccgSQ7Y9.s 			page 91


 861:src/Func.c    ****       APM_MerchFunc(select);
 3988              		.loc 1 861 0
 3989 02d0 0025     		movs	r5, #0
 3990 02d2 1321     		movs	r1, #19
 3991 02d4 2A46     		mov	r2, r5
 3992 02d6 2B46     		mov	r3, r5
 3993 02d8 0095     		str	r5, [sp]
 3994 02da 0F20     		movs	r0, #15
 3995              	.LVL671:
 3996 02dc FFF7FEFF 		bl	lib_app_call
 3997              	.LVL672:
 862:src/Func.c    ****       break;
 3998              		.loc 1 862 0
 3999 02e0 1020     		movs	r0, #16
 4000 02e2 3421     		movs	r1, #52
 4001 02e4 4022     		movs	r2, #64
 4002 02e6 2B46     		mov	r3, r5
 4003 02e8 0095     		str	r5, [sp]
 4004              	.L386:
 4005 02ea FFF7FEFF 		bl	lib_app_call
 4006              	.LVL673:
 863:src/Func.c    **** 	  case 65:
 4007              		.loc 1 863 0
 4008 02ee 21E0     		b	.L319
 4009              	.LVL674:
 4010              	.L341:
 865:src/Func.c    **** 	   Packprintissuer();
 4011              		.loc 1 865 0
 4012 02f0 FFF7FEFF 		bl	Packprintconfig
 4013              	.LVL675:
 866:src/Func.c    ****       break;
 4014              		.loc 1 866 0
 4015 02f4 FFF7FEFF 		bl	Packprintissuer
 4016              	.LVL676:
 867:src/Func.c    ****     case 66:
 4017              		.loc 1 867 0
 4018 02f8 1CE0     		b	.L319
 4019              	.LVL677:
 4020              	.L353:
 873:src/Func.c    ****       break;
 4021              		.loc 1 873 0
 4022 02fa FFF7FEFF 		bl	ReprintLast
 4023              	.LVL678:
 874:src/Func.c    ****     case 73:
 4024              		.loc 1 874 0
 4025 02fe 19E0     		b	.L319
 4026              	.LVL679:
 4027              	.L354:
 876:src/Func.c    **** 	  if(recordno == -1){
 4028              		.loc 1 876 0
 4029 0300 4FF0FF30 		mov	r0, #-1
 4030              	.LVL680:
 4031 0304 FFF7FEFF 		bl	DisplayRecordno
 4032              	.LVL681:
 877:src/Func.c    **** 	  break;
 4033              		.loc 1 877 0
 4034 0308 431C     		adds	r3, r0, #1
ARM GAS  C:\Users\AHMED~1.ELE\AppData\Local\Temp\ccgSQ7Y9.s 			page 92


 4035 030a 05D0     		beq	.L387
 880:src/Func.c    ****       break;
 4036              		.loc 1 880 0
 4037 030c FFF7FEFF 		bl	ReprintTxn
 4038              	.LVL682:
 4039 0310 02E0     		b	.L387
 4040              	.LVL683:
 4041              	.L351:
 883:src/Func.c    ****       break;
 4042              		.loc 1 883 0
 4043 0312 FFF7FEFF 		bl	PrintTotals
 4044              	.LVL684:
 884:src/Func.c    ****     case 75:
 4045              		.loc 1 884 0
 4046 0316 0DE0     		b	.L319
 4047              	.L387:
 887:src/Func.c    ****       break;
 888:src/Func.c    ****     #endif                    // PRINTER_SUPPORT
 889:src/Func.c    ****     case 96:
 890:src/Func.c    ****       return TestTrans();
 891:src/Func.c    ****     case 99:
 892:src/Func.c    ****       ClearBatch();
 893:src/Func.c    ****       break;
 894:src/Func.c    ****     default:
 895:src/Func.c    ****       RefreshDispAfter(0);
 896:src/Func.c    ****       return(FALSE);
 897:src/Func.c    ****   }
 898:src/Func.c    ****   return(TRUE);
 4048              		.loc 1 898 0
 4049 0318 0124     		movs	r4, #1
 887:src/Func.c    ****       break;
 4050              		.loc 1 887 0
 4051 031a 0BE0     		b	.L319
 4052              	.LVL685:
 4053              	.L356:
 899:src/Func.c    **** }
 4054              		.loc 1 899 0
 4055 031c 03B0     		add	sp, sp, #12
 4056              		.cfi_remember_state
 4057              		.cfi_def_cfa_offset 12
 4058              		@ sp needed
 4059 031e BDE83040 		pop	{r4, r5, lr}
 4060              		.cfi_restore 14
 4061              		.cfi_restore 5
 4062              		.cfi_restore 4
 4063              		.cfi_def_cfa_offset 0
 890:src/Func.c    ****     case 99:
 4064              		.loc 1 890 0
 4065 0322 FFF7FEBF 		b	TestTrans
 4066              	.LVL686:
 4067              	.L357:
 4068              		.cfi_restore_state
 892:src/Func.c    ****       break;
 4069              		.loc 1 892 0
 4070 0326 FFF7FEFF 		bl	ClearBatch
 4071              	.LVL687:
 893:src/Func.c    ****     default:
ARM GAS  C:\Users\AHMED~1.ELE\AppData\Local\Temp\ccgSQ7Y9.s 			page 93


 4072              		.loc 1 893 0
 4073 032a 03E0     		b	.L319
 4074              	.LVL688:
 4075              	.L320:
 895:src/Func.c    ****       return(FALSE);
 4076              		.loc 1 895 0
 4077 032c 0020     		movs	r0, #0
 4078              	.LVL689:
 4079 032e FFF7FEFF 		bl	RefreshDispAfter
 4080              	.LVL690:
 896:src/Func.c    ****   }
 4081              		.loc 1 896 0
 4082 0332 0024     		movs	r4, #0
 4083              	.L319:
 4084              		.loc 1 899 0
 4085 0334 2046     		mov	r0, r4
 4086 0336 03B0     		add	sp, sp, #12
 4087              		.cfi_def_cfa_offset 12
 4088              		@ sp needed
 4089 0338 30BD     		pop	{r4, r5, pc}
 4090              	.L393:
 4091 033a 00BF     		.align	2
 4092              	.L392:
 4093 033c 44000000 		.word	.LANCHOR0+68
 4094 0340 00000000 		.word	gGDS
 4095 0344 9A000000 		.word	.LC14
 4096 0348 AA000000 		.word	.LC15
 4097 034c B8000000 		.word	.LC16
 4098 0350 C9000000 		.word	.LC17
 4099              		.cfi_endproc
 4100              	.LFE11:
 4101              		.size	MerchantFunc, .-MerchantFunc
 4102              		.section	.rodata
 4103              		.align	2
 4104              		.set	.LANCHOR0,. + 0
 4105              		.type	KTraceNum.12762, %object
 4106              		.size	KTraceNum.12762, 11
 4107              	KTraceNum.12762:
 4108 0000 54524143 		.ascii	"TRACE NUM:\000"
 4108      45204E55 
 4108      4D3A00
 4109              		.type	KTraceNum.12787, %object
 4110              		.size	KTraceNum.12787, 11
 4111              	KTraceNum.12787:
 4112 000b 54524143 		.ascii	"TRACE NUM:\000"
 4112      45204E55 
 4112      4D3A00
 4113              		.type	KVoided.12788, %object
 4114              		.size	KVoided.12788, 8
 4115              	KVoided.12788:
 4116 0016 564F4944 		.ascii	"VOIDED \000"
 4116      45442000 
 4117              		.type	KAppvCode, %object
 4118              		.size	KAppvCode, 11
 4119              	KAppvCode:
 4120 001e 41505052 		.ascii	"APPR CODE:\000"
 4120      20434F44 
ARM GAS  C:\Users\AHMED~1.ELE\AppData\Local\Temp\ccgSQ7Y9.s 			page 94


 4120      453A00
 4121              		.type	KRRN.12840, %object
 4122              		.size	KRRN.12840, 5
 4123              	KRRN.12840:
 4124 0029 52524E3A 		.ascii	"RRN:\000"
 4124      00
 4125              		.type	KRRN.12863, %object
 4126              		.size	KRRN.12863, 5
 4127              	KRRN.12863:
 4128 002e 52524E3A 		.ascii	"RRN:\000"
 4128      00
 4129              		.type	KSale.12900, %object
 4130              		.size	KSale.12900, 6
 4131              	KSale.12900:
 4132 0033 53414C45 		.ascii	"SALE:\000"
 4132      3A00
 4133              		.type	KRefund.12901, %object
 4134              		.size	KRefund.12901, 8
 4135              	KRefund.12901:
 4136 0039 52454655 		.ascii	"REFUND:\000"
 4136      4E443A00 
 4137 0041 000000   		.space	3
 4138              		.type	KFuncMenu, %object
 4139              		.size	KFuncMenu, 28
 4140              	KFuncMenu:
 4141 0044 45444320 		.ascii	"EDC Functions\000"
 4141      46756E63 
 4141      74696F6E 
 4141      7300
 4142 0052 00000000 		.space	9
 4142      00000000 
 4142      00
 4143 005b 00       		.space	1
 4144 005c 60000000 		.word	KFuncItem
 4145              		.type	KFuncItem, %object
 4146              		.size	KFuncItem, 576
 4147              	KFuncItem:
 4148 0060 01000000 		.word	1
 4149 0064 D8000000 		.word	.LC18
 4150 0068 00000000 		.space	24
 4150      00000000 
 4150      00000000 
 4150      00000000 
 4150      00000000 
 4151 0080 05000000 		.word	5
 4152 0084 E6000000 		.word	.LC19
 4153 0088 00000000 		.space	24
 4153      00000000 
 4153      00000000 
 4153      00000000 
 4153      00000000 
 4154 00a0 06000000 		.word	6
 4155 00a4 F4000000 		.word	.LC20
 4156 00a8 00000000 		.space	24
 4156      00000000 
 4156      00000000 
 4156      00000000 
ARM GAS  C:\Users\AHMED~1.ELE\AppData\Local\Temp\ccgSQ7Y9.s 			page 95


 4156      00000000 
 4157 00c0 07000000 		.word	7
 4158 00c4 02010000 		.word	.LC21
 4159 00c8 00000000 		.space	24
 4159      00000000 
 4159      00000000 
 4159      00000000 
 4159      00000000 
 4160 00e0 09000000 		.word	9
 4161 00e4 11010000 		.word	.LC22
 4162 00e8 00000000 		.space	24
 4162      00000000 
 4162      00000000 
 4162      00000000 
 4162      00000000 
 4163 0100 15000000 		.word	21
 4164 0104 20010000 		.word	.LC23
 4165 0108 00000000 		.space	24
 4165      00000000 
 4165      00000000 
 4165      00000000 
 4165      00000000 
 4166 0120 32000000 		.word	50
 4167 0124 2D010000 		.word	.LC24
 4168 0128 00000000 		.space	24
 4168      00000000 
 4168      00000000 
 4168      00000000 
 4168      00000000 
 4169 0140 33000000 		.word	51
 4170 0144 3A010000 		.word	.LC25
 4171 0148 00000000 		.space	24
 4171      00000000 
 4171      00000000 
 4171      00000000 
 4171      00000000 
 4172 0160 40000000 		.word	64
 4173 0164 47010000 		.word	.LC26
 4174 0168 00000000 		.space	24
 4174      00000000 
 4174      00000000 
 4174      00000000 
 4174      00000000 
 4175 0180 41000000 		.word	65
 4176 0184 4E010000 		.word	.LC27
 4177 0188 00000000 		.space	24
 4177      00000000 
 4177      00000000 
 4177      00000000 
 4177      00000000 
 4178 01a0 42000000 		.word	66
 4179 01a4 5C010000 		.word	.LC28
 4180 01a8 00000000 		.space	24
 4180      00000000 
 4180      00000000 
 4180      00000000 
 4180      00000000 
ARM GAS  C:\Users\AHMED~1.ELE\AppData\Local\Temp\ccgSQ7Y9.s 			page 96


 4181 01c0 48000000 		.word	72
 4182 01c4 69010000 		.word	.LC29
 4183 01c8 00000000 		.space	24
 4183      00000000 
 4183      00000000 
 4183      00000000 
 4183      00000000 
 4184 01e0 49000000 		.word	73
 4185 01e4 76010000 		.word	.LC30
 4186 01e8 00000000 		.space	24
 4186      00000000 
 4186      00000000 
 4186      00000000 
 4186      00000000 
 4187 0200 4A000000 		.word	74
 4188 0204 82010000 		.word	.LC31
 4189 0208 00000000 		.space	24
 4189      00000000 
 4189      00000000 
 4189      00000000 
 4189      00000000 
 4190 0220 4B000000 		.word	75
 4191 0224 8E010000 		.word	.LC32
 4192 0228 00000000 		.space	24
 4192      00000000 
 4192      00000000 
 4192      00000000 
 4192      00000000 
 4193 0240 60000000 		.word	96
 4194 0244 9A010000 		.word	.LC33
 4195 0248 00000000 		.space	24
 4195      00000000 
 4195      00000000 
 4195      00000000 
 4195      00000000 
 4196 0260 63000000 		.word	99
 4197 0264 A5010000 		.word	.LC34
 4198 0268 00000000 		.space	24
 4198      00000000 
 4198      00000000 
 4198      00000000 
 4198      00000000 
 4199 0280 FFFFFFFF 		.word	-1
 4200 0284 00000000 		.word	0
 4201 0288 00000000 		.space	24
 4201      00000000 
 4201      00000000 
 4201      00000000 
 4201      00000000 
 4202              		.section	.rodata.str1.1,"aMS",%progbits,1
 4203              	.LC0:
 4204 0000 564F4944 		.ascii	"VOIDED \000"
 4204      45442000 
 4205              	.LC1:
 4206 0008 52455645 		.ascii	"REVERSAL\000"
 4206      5253414C 
 4206      00
ARM GAS  C:\Users\AHMED~1.ELE\AppData\Local\Temp\ccgSQ7Y9.s 			page 97


 4207              	.LC2:
 4208 0011 484F5354 		.ascii	"HOST: \000"
 4208      3A2000
 4209              	.LC3:
 4210 0018 434C4541 		.ascii	"CLEAR REVERSAL\000"
 4210      52205245 
 4210      56455253 
 4210      414C00
 4211              	.LC4:
 4212 0027 504F532F 		.ascii	"POS/Terminal ID: \000"
 4212      5465726D 
 4212      696E616C 
 4212      2049443A 
 4212      2000
 4213              	.LC5:
 4214 0039 4D455243 		.ascii	"MERCHANT ID/MID: \000"
 4214      48414E54 
 4214      2049442F 
 4214      4D49443A 
 4214      2000
 4215              	.LC6:
 4216 004b 42415443 		.ascii	"BATCH: \000"
 4216      483A2000 
 4217              	.LC7:
 4218 0053 4C452F45 		.ascii	"LE/EGP BATCH\000"
 4218      47502042 
 4218      41544348 
 4218      00
 4219              	.LC8:
 4220 0060 1B573120 		.ascii	"\033W1 DETAILS REPORT\033W0\000"
 4220      44455441 
 4220      494C5320 
 4220      5245504F 
 4220      52541B57 
 4221              	.LC9:
 4222 0076 252E3473 		.ascii	"%.4s %.4s %.4s %.4s\000"
 4222      20252E34 
 4222      7320252E 
 4222      34732025 
 4222      2E347300 
 4223              	.LC10:
 4224 008a 4D414700 		.ascii	"MAG\000"
 4225              	.LC11:
 4226 008e 4558503A 		.ascii	"EXP:\000"
 4226      00
 4227              	.LC12:
 4228 0093 2F00     		.ascii	"/\000"
 4229              	.LC13:
 4230 0095 564F4944 		.ascii	"VOID\000"
 4230      00
 4231              	.LC14:
 4232 009a 52657365 		.ascii	"Reset DEMO Data\000"
 4232      74204445 
 4232      4D4F2044 
 4232      61746100 
 4233              	.LC15:
 4234 00aa 50524F43 		.ascii	"PROCESSING...\000"
ARM GAS  C:\Users\AHMED~1.ELE\AppData\Local\Temp\ccgSQ7Y9.s 			page 98


 4234      45535349 
 4234      4E472E2E 
 4234      2E00
 4235              	.LC16:
 4236 00b8 456E7465 		.ascii	"Enter to Reboot!\000"
 4236      7220746F 
 4236      20526562 
 4236      6F6F7421 
 4236      00
 4237              	.LC17:
 4238 00c9 52657365 		.ascii	"Reset CTL Data\000"
 4238      74204354 
 4238      4C204461 
 4238      746100
 4239              	.LC18:
 4240 00d8 44697370 		.ascii	"Display Batch\000"
 4240      6C617920 
 4240      42617463 
 4240      6800
 4241              	.LC19:
 4242 00e6 44697370 		.ascii	"Display Total\000"
 4242      6C617920 
 4242      546F7461 
 4242      6C00
 4243              	.LC20:
 4244 00f4 544D5320 		.ascii	"TMS FTP Setup\000"
 4244      46545020 
 4244      53657475 
 4244      7000
 4245              	.LC21:
 4246 0102 544D5320 		.ascii	"TMS FTP Dnload\000"
 4246      46545020 
 4246      446E6C6F 
 4246      616400
 4247              	.LC22:
 4248 0111 436C6561 		.ascii	"Clear Reversal\000"
 4248      72205265 
 4248      76657273 
 4248      616C00
 4249              	.LC23:
 4250 0120 5472616E 		.ascii	"Trans Detail\000"
 4250      73204465 
 4250      7461696C 
 4250      00
 4251              	.LC24:
 4252 012d 53657420 		.ascii	"Set Demo EDC\000"
 4252      44656D6F 
 4252      20454443 
 4252      00
 4253              	.LC25:
 4254 013a 53657420 		.ascii	"Set Demo CTL\000"
 4254      44656D6F 
 4254      2043544C 
 4254      00
 4255              	.LC26:
 4256 0147 5265626F 		.ascii	"Reboot\000"
 4256      6F7400
ARM GAS  C:\Users\AHMED~1.ELE\AppData\Local\Temp\ccgSQ7Y9.s 			page 99


 4257              	.LC27:
 4258 014e 436F6E66 		.ascii	"Config report\000"
 4258      69672072 
 4258      65706F72 
 4258      7400
 4259              	.LC28:
 4260 015c 53686F77 		.ascii	"Show IP Addr\000"
 4260      20495020 
 4260      41646472 
 4260      00
 4261              	.LC29:
 4262 0169 52657072 		.ascii	"Reprint Last\000"
 4262      696E7420 
 4262      4C617374 
 4262      00
 4263              	.LC30:
 4264 0176 52657072 		.ascii	"Reprint Any\000"
 4264      696E7420 
 4264      416E7900 
 4265              	.LC31:
 4266 0182 53756D6D 		.ascii	"Summary Rep\000"
 4266      61727920 
 4266      52657000 
 4267              	.LC32:
 4268 018e 44657461 		.ascii	"Details Rep\000"
 4268      696C7320 
 4268      52657000 
 4269              	.LC33:
 4270 019a 54657374 		.ascii	"Test Trans\000"
 4270      20547261 
 4270      6E7300
 4271              	.LC34:
 4272 01a5 436C6561 		.ascii	"Clear Batch\000"
 4272      72204261 
 4272      74636800 
 4273              		.text
 4274              	.Letext0:
 4275              		.file 2 "c:\\devtools\\gcc_v49_2014q4\\lib\\gcc\\arm-none-eabi\\4.9.3\\include\\stddef.h"
 4276              		.file 3 "../LibA5T1000/common.h"
 4277              		.file 4 "src/sysutil.h"
 4278              		.file 5 "src/message.h"
 4279              		.file 6 "src/constant.h"
 4280              		.file 7 "../LibA5T1000/emv2dll.h"
 4281              		.file 8 "../LibA5T1000/system.h"
 4282              		.file 9 "../LibA5T1000/emvcl2dll.h"
 4283              		.file 10 "../LibA5T1000/ecrdll.h"
 4284              		.file 11 "../LibA5T1000/midware.h"
 4285              		.file 12 "../LibA5T1000/apm.h"
 4286              		.file 13 "src/corevar.h"
 4287              		.file 14 "src/input.h"
 4288              		.file 15 "src/tranutil.h"
 4289              		.file 16 "src/menu.h"
 4290              		.file 17 "c:\\devtools\\gcc_v49_2014q4\\arm-none-eabi\\include\\string.h"
 4291              		.file 18 "../LibA5T1000/util.h"
 4292              		.file 19 "src/chkoptn.h"
 4293              		.file 20 "src/lptutil.h"
 4294              		.file 21 "src/print.h"
ARM GAS  C:\Users\AHMED~1.ELE\AppData\Local\Temp\ccgSQ7Y9.s 			page 100


 4295              		.file 22 "c:\\devtools\\gcc_v49_2014q4\\arm-none-eabi\\include\\stdio.h"
 4296              		.file 23 "src/keytrans.h"
 4297              		.file 24 "src/tpadtest.h"
 4298              		.file 25 "src/network.h"
 4299              		.file 26 "src/adjust.h"
 4300              		.file 27 "src/debugstis.h"
 4301              		.file 28 "src/testcfg.h"
 4302              		.file 29 "src/camtest.h"
 4303              		.file 30 "src/testrans.h"
 4304              		.file 31 "<built-in>"