ARM GAS  C:\Users\AHMED~1.ELE\AppData\Local\Temp\cchj3JTE.s 			page 1


   1              		.syntax unified
   2              		.cpu cortex-a5
   3              		.fpu softvfp
   4              		.eabi_attribute 20, 1
   5              		.eabi_attribute 21, 1
   6              		.eabi_attribute 23, 3
   7              		.eabi_attribute 24, 1
   8              		.eabi_attribute 25, 1
   9              		.eabi_attribute 26, 1
  10              		.eabi_attribute 30, 4
  11              		.eabi_attribute 34, 0
  12              		.eabi_attribute 18, 4
  13              		.thumb
  14              		.file	"hardware.c"
  15              		.text
  16              	.Ltext0:
  17              		.cfi_sections	.debug_frame
  18              		.section	.text.CloseAllHw,"ax",%progbits
  19              		.align	1
  20              		.global	CloseAllHw
  21              		.thumb
  22              		.thumb_func
  23              		.type	CloseAllHw, %function
  24              	CloseAllHw:
  25              	.LFB1:
  26              		.file 1 "src/hardware.c"
   1:src/hardware.c **** //-----------------------------------------------------------------------------
   2:src/hardware.c **** //  File          : hardware.c
   3:src/hardware.c **** //  Module        :
   4:src/hardware.c **** //  Description   : Include hardware handle routines.
   5:src/hardware.c **** //  Author        : Lewis
   6:src/hardware.c **** //  Notes         : Following Device cannot share by applications
   7:src/hardware.c **** //                  AUX
   8:src/hardware.c **** //                  MCOM
   9:src/hardware.c **** //                  MDM
  10:src/hardware.c **** //                  TCP
  11:src/hardware.c **** //                  UDP
  12:src/hardware.c **** //                  Timer
  13:src/hardware.c **** //                  (i.e. Application have to open themselves)
  14:src/hardware.c **** //
  15:src/hardware.c **** // ============================================================================
  16:src/hardware.c **** // | Naming conventions                                                       |
  17:src/hardware.c **** // | ~~~~~~~~~~~~~~~~~~                                                       |
  18:src/hardware.c **** // |        Struct define : Leading T                                         |
  19:src/hardware.c **** // |         Struct/Array : Leading s                                         |
  20:src/hardware.c **** // |             Constant : Leading K                                         |
  21:src/hardware.c **** // |      Global Variable : Leading g  (variable use outside one C file)      |
  22:src/hardware.c **** // |                                                                          |
  23:src/hardware.c **** // |   BYTE( 8 Bits) size : Leading b                                         |
  24:src/hardware.c **** // |   CHAR( 8 Bits) size : Leading c                                         |
  25:src/hardware.c **** // |   WORD(16 Bits) size : Leading w                                         |
  26:src/hardware.c **** // |  DWORD(32 Bits) size : Leading d                                         |
  27:src/hardware.c **** // |    int(32 Bits) size : Leading i                                         |
  28:src/hardware.c **** // | DDWORD(64 Bits) size : Leading dd                                        |
  29:src/hardware.c **** // |              Pointer : Leading p                                         |
  30:src/hardware.c **** // |                                                                          |
  31:src/hardware.c **** // |    Function argument : Leading a                                         |
ARM GAS  C:\Users\AHMED~1.ELE\AppData\Local\Temp\cchj3JTE.s 			page 2


  32:src/hardware.c **** // |       Local Variable : All lower case                                    |
  33:src/hardware.c **** // |                                                                          |
  34:src/hardware.c **** // | Examples:                                                                |
  35:src/hardware.c **** // |                Array : Leading s, (sb = arrary of byte, etc)             |
  36:src/hardware.c **** // |              Pointer : Leading p, (pb = pointer of byte, etc)            |
  37:src/hardware.c **** // ============================================================================
  38:src/hardware.c **** //
  39:src/hardware.c **** //  Date          Who         Action
  40:src/hardware.c **** //  ------------  ----------- -------------------------------------------------
  41:src/hardware.c **** //  29 Sept 2008  Lewis       Initial Version.
  42:src/hardware.c **** //-----------------------------------------------------------------------------
  43:src/hardware.c **** #include <string.h>
  44:src/hardware.c **** #include "hwdef.h"
  45:src/hardware.c **** #include "midware.h"
  46:src/hardware.c **** #include "apm.h"
  47:src/hardware.c **** #include "sysutil.h"
  48:src/hardware.c **** #include "message.h"
  49:src/hardware.c **** #include "testcfg.h"
  50:src/hardware.c **** #include "ctltrans.h"
  51:src/hardware.c **** #include "corevar.h"
  52:src/hardware.c **** #include "hardware.h"
  53:src/hardware.c **** 
  54:src/hardware.c **** //-----------------------------------------------------------------------------
  55:src/hardware.c **** //      Defines
  56:src/hardware.c **** //-----------------------------------------------------------------------------
  57:src/hardware.c **** #define PSLEEP_IDLE_TIME      (60 * 1000)     // 60 seconds idle before sleep
  58:src/hardware.c **** #define PSLEEP_WAKEUP_TIME    (15 * 60)       // 15 min to wakeup after sleep
  59:src/hardware.c **** #define PSLEEP_ALERT_TIME     (10 * 1000)     // 10 seconds to display sleep msg
  60:src/hardware.c **** 
  61:src/hardware.c **** //-----------------------------------------------------------------------------
  62:src/hardware.c **** //      Globals
  63:src/hardware.c **** //-----------------------------------------------------------------------------
  64:src/hardware.c **** // Device Handle
  65:src/hardware.c **** int    gTimerHdl[MAX_TIMER_SUPPORT];
  66:src/hardware.c **** int    gMsrHandle;
  67:src/hardware.c **** int    gIccHandle;
  68:src/hardware.c **** int    gAux1Handle;
  69:src/hardware.c **** int    gAux2Handle;
  70:src/hardware.c **** int    gLptHandle;
  71:src/hardware.c **** int    gCdc1Handle;
  72:src/hardware.c **** int    gGprsHandle;
  73:src/hardware.c **** int    gPppHandle;
  74:src/hardware.c **** 
  75:src/hardware.c **** //static BYTE     gMsrBuf[1024];
  76:src/hardware.c **** static BOOLEAN  bSMCLocked=FALSE;         // Flag indicate ICC inserted for transaction.
  77:src/hardware.c **** 
  78:src/hardware.c **** DWORD gIdleCnt=0;                //25-07-17 JC ++
  79:src/hardware.c **** 
  80:src/hardware.c **** //-----------------------------------------------------------------------------
  81:src/hardware.c **** //      Constants
  82:src/hardware.c **** //-----------------------------------------------------------------------------
  83:src/hardware.c **** 
  84:src/hardware.c **** //*****************************************************************************
  85:src/hardware.c **** //  Function        : InitAllHw
  86:src/hardware.c **** //  Description     : Initialize all hardware drivers.
  87:src/hardware.c **** //  Input           : N/A
  88:src/hardware.c **** //  Return          : N/A
ARM GAS  C:\Users\AHMED~1.ELE\AppData\Local\Temp\cchj3JTE.s 			page 3


  89:src/hardware.c **** //  Note            : N/A
  90:src/hardware.c **** //  Globals Changed : N/A
  91:src/hardware.c **** //*****************************************************************************
  92:src/hardware.c **** void InitAllHw(void)
  93:src/hardware.c **** {
  94:src/hardware.c ****   int i;
  95:src/hardware.c **** 
  96:src/hardware.c ****   gMsrHandle  = -1;
  97:src/hardware.c ****   gIccHandle  = -1;
  98:src/hardware.c ****   gAux1Handle = -1;
  99:src/hardware.c ****   gAux2Handle = -1;
 100:src/hardware.c ****   gLptHandle  = -1;
 101:src/hardware.c ****   gCdc1Handle = -1;
 102:src/hardware.c ****   gGprsHandle = -1;
 103:src/hardware.c ****   gPppHandle = -1;
 104:src/hardware.c **** 
 105:src/hardware.c ****   //25-07-17 JC ++
 106:src/hardware.c **** #if 0
 107:src/hardware.c ****   gMsrHandle  = APM_GetHwHandle(APM_SDEV_MSR);
 108:src/hardware.c ****   gIccHandle  = APM_GetHwHandle(APM_SDEV_ICC);
 109:src/hardware.c ****   #if (CDC_SUPPORT)
 110:src/hardware.c ****   gCdc1Handle = APM_GetHwHandle(APM_SDEV_CDC);
 111:src/hardware.c ****   #endif
 112:src/hardware.c **** #endif
 113:src/hardware.c ****   //25-07-17 JC --
 114:src/hardware.c ****   #if (GPRS_SUPPORT)
 115:src/hardware.c ****   gGprsHandle  = APM_GetHwHandle(APM_SDEV_GPRS);
 116:src/hardware.c ****   gPppHandle   = APM_GetHwHandle(APM_SDEV_PPP);
 117:src/hardware.c ****   #endif
 118:src/hardware.c **** 
 119:src/hardware.c ****   for (i = 0; i < MAX_TIMER_SUPPORT; i++) {
 120:src/hardware.c ****     gTimerHdl[i] = TimerOpenMW();
 121:src/hardware.c ****   }
 122:src/hardware.c **** 
 123:src/hardware.c ****   CL_Init();
 124:src/hardware.c ****   OffDevice(HW_MSR|HW_CLICC);           //25-07-17 JC ++
 125:src/hardware.c **** }
 126:src/hardware.c **** //*****************************************************************************
 127:src/hardware.c **** //  Function        : CloseAllHw
 128:src/hardware.c **** //  Description     : Close All hardware driver.
 129:src/hardware.c **** //  Input           : N/A
 130:src/hardware.c **** //  Return          : N/A
 131:src/hardware.c **** //  Note            : N/A
 132:src/hardware.c **** //  Globals Changed : N/A
 133:src/hardware.c **** //*****************************************************************************
 134:src/hardware.c **** void CloseAllHw(void)
 135:src/hardware.c **** {
  27              		.loc 1 135 0
  28              		.cfi_startproc
  29              		@ args = 0, pretend = 0, frame = 0
  30              		@ frame_needed = 0, uses_anonymous_args = 0
 136:src/hardware.c ****   int i;
 137:src/hardware.c **** 
 138:src/hardware.c ****   if (gAux1Handle != -1)
  31              		.loc 1 138 0
  32 0000 104B     		ldr	r3, .L13
 135:src/hardware.c ****   int i;
ARM GAS  C:\Users\AHMED~1.ELE\AppData\Local\Temp\cchj3JTE.s 			page 4


  33              		.loc 1 135 0
  34 0002 13B5     		push	{r0, r1, r4, lr}
  35              		.cfi_def_cfa_offset 16
  36              		.cfi_offset 4, -8
  37              		.cfi_offset 14, -4
  38              		.loc 1 138 0
  39 0004 1A68     		ldr	r2, [r3]
  40 0006 511C     		adds	r1, r2, #1
  41 0008 05D0     		beq	.L2
 139:src/hardware.c ****     CloseMW(gAux1Handle);
  42              		.loc 1 139 0
  43 000a 0023     		movs	r3, #0
  44 000c 0F20     		movs	r0, #15
  45 000e 0093     		str	r3, [sp]
  46 0010 0321     		movs	r1, #3
  47 0012 FFF7FEFF 		bl	lib_app_call
  48              	.LVL0:
  49              	.L2:
 140:src/hardware.c ****   if (gAux2Handle != -1)
  50              		.loc 1 140 0
  51 0016 0C4B     		ldr	r3, .L13+4
  52 0018 1A68     		ldr	r2, [r3]
  53 001a 531C     		adds	r3, r2, #1
  54 001c 05D0     		beq	.L3
 141:src/hardware.c ****     CloseMW(gAux2Handle);
  55              		.loc 1 141 0
  56 001e 0023     		movs	r3, #0
  57 0020 0F20     		movs	r0, #15
  58 0022 0093     		str	r3, [sp]
  59 0024 0321     		movs	r1, #3
  60 0026 FFF7FEFF 		bl	lib_app_call
  61              	.LVL1:
  62              	.L3:
 135:src/hardware.c ****   int i;
  63              		.loc 1 135 0 discriminator 1
  64 002a 0024     		movs	r4, #0
  65              	.LVL2:
  66              	.L4:
 142:src/hardware.c **** 
 143:src/hardware.c ****   for (i = 0; i < MAX_TIMER_SUPPORT; i++) {
 144:src/hardware.c ****     TimerCloseMW(gTimerHdl[i]);
  67              		.loc 1 144 0 discriminator 3
  68 002c 074B     		ldr	r3, .L13+8
  69 002e 0B20     		movs	r0, #11
  70 0030 53F82410 		ldr	r1, [r3, r4, lsl #2]
 143:src/hardware.c ****     TimerCloseMW(gTimerHdl[i]);
  71              		.loc 1 143 0 discriminator 3
  72 0034 0134     		adds	r4, r4, #1
  73              	.LVL3:
  74              		.loc 1 144 0 discriminator 3
  75 0036 FFF7FEFF 		bl	sys_func1
  76              	.LVL4:
 143:src/hardware.c ****     TimerCloseMW(gTimerHdl[i]);
  77              		.loc 1 143 0 discriminator 3
  78 003a 072C     		cmp	r4, #7
  79 003c F6D1     		bne	.L4
 145:src/hardware.c ****   }
ARM GAS  C:\Users\AHMED~1.ELE\AppData\Local\Temp\cchj3JTE.s 			page 5


 146:src/hardware.c **** }
  80              		.loc 1 146 0
  81 003e 02B0     		add	sp, sp, #8
  82              		.cfi_def_cfa_offset 8
  83              		@ sp needed
  84 0040 10BD     		pop	{r4, pc}
  85              	.LVL5:
  86              	.L14:
  87 0042 00BF     		.align	2
  88              	.L13:
  89 0044 00000000 		.word	gAux1Handle
  90 0048 00000000 		.word	gAux2Handle
  91 004c 00000000 		.word	gTimerHdl
  92              		.cfi_endproc
  93              	.LFE1:
  94              		.size	CloseAllHw, .-CloseAllHw
  95              		.section	.text.WaitKey,"ax",%progbits
  96              		.align	1
  97              		.global	WaitKey
  98              		.thumb
  99              		.thumb_func
 100              		.type	WaitKey, %function
 101              	WaitKey:
 102              	.LFB2:
 147:src/hardware.c **** //*****************************************************************************
 148:src/hardware.c **** //  Function        : WaitKey
 149:src/hardware.c **** //  Description     : Wait a key for specify time.
 150:src/hardware.c **** //  Input           : timeout;   // timeout value in second
 151:src/hardware.c **** //                    aCheckList
 152:src/hardware.c **** //  Return          : N/A
 153:src/hardware.c **** //  Note            : N/A
 154:src/hardware.c **** //  Globals Changed : N/A
 155:src/hardware.c **** //*****************************************************************************
 156:src/hardware.c **** DWORD WaitKey(DWORD aTimeout, DWORD aCheckList)
 157:src/hardware.c **** {
 103              		.loc 1 157 0
 104              		.cfi_startproc
 105              		@ args = 0, pretend = 0, frame = 0
 106              		@ frame_needed = 0, uses_anonymous_args = 0
 107              	.LVL6:
 158:src/hardware.c ****   DWORD keyin;
 159:src/hardware.c ****   //DWORD icc_id;
 160:src/hardware.c **** 
 161:src/hardware.c ****   //icc_id = 0;
 162:src/hardware.c ****   APM_SetKbdTimeout(aTimeout);
 108              		.loc 1 162 0
 109 0000 0023     		movs	r3, #0
 157:src/hardware.c ****   DWORD keyin;
 110              		.loc 1 157 0
 111 0002 13B5     		push	{r0, r1, r4, lr}
 112              		.cfi_def_cfa_offset 16
 113              		.cfi_offset 4, -8
 114              		.cfi_offset 14, -4
 157:src/hardware.c ****   DWORD keyin;
 115              		.loc 1 157 0
 116 0004 0246     		mov	r2, r0
 117 0006 0C46     		mov	r4, r1
ARM GAS  C:\Users\AHMED~1.ELE\AppData\Local\Temp\cchj3JTE.s 			page 6


 118              		.loc 1 162 0
 119 0008 0093     		str	r3, [sp]
 120 000a 1020     		movs	r0, #16
 121              	.LVL7:
 122 000c 0621     		movs	r1, #6
 123              	.LVL8:
 124 000e FFF7FEFF 		bl	lib_app_call
 125              	.LVL9:
 126              	.L16:
 163:src/hardware.c ****   while ((keyin=APM_GetKeyin())==0) {
 127              		.loc 1 163 0
 128 0012 0022     		movs	r2, #0
 129 0014 1346     		mov	r3, r2
 130 0016 0092     		str	r2, [sp]
 131 0018 1020     		movs	r0, #16
 132 001a 0221     		movs	r1, #2
 133 001c FFF7FEFF 		bl	lib_app_call
 134              	.LVL10:
 135 0020 0246     		mov	r2, r0
 136 0022 0028     		cmp	r0, #0
 137 0024 3AD1     		bne	.L21
 164:src/hardware.c **** 
 165:src/hardware.c ****     if ((aCheckList & WAIT_ICC_INSERT) && (gIccHandle != -1)) {
 138              		.loc 1 165 0
 139 0026 E105     		lsls	r1, r4, #23
 140 0028 02D4     		bmi	.L17
 141              	.LVL11:
 142              	.L20:
 166:src/hardware.c ****       if (ICCInsertedMW()&0x01) {
 167:src/hardware.c ****         keyin = WAIT_ICC_INSERT;
 168:src/hardware.c ****         break;
 169:src/hardware.c ****       }
 170:src/hardware.c ****     }
 171:src/hardware.c **** 
 172:src/hardware.c ****     if ((aCheckList & WAIT_ICC_REMOVE) && (gIccHandle != -1)) {
 143              		.loc 1 172 0
 144 002a A305     		lsls	r3, r4, #22
 145 002c 0FD4     		bmi	.L18
 146 002e 12E0     		b	.L19
 147              	.LVL12:
 148              	.L17:
 165:src/hardware.c ****       if (ICCInsertedMW()&0x01) {
 149              		.loc 1 165 0 discriminator 1
 150 0030 1C4B     		ldr	r3, .L39
 151 0032 1B68     		ldr	r3, [r3]
 152 0034 0133     		adds	r3, r3, #1
 153 0036 F8D0     		beq	.L20
 166:src/hardware.c ****       if (ICCInsertedMW()&0x01) {
 154              		.loc 1 166 0
 155 0038 0092     		str	r2, [sp]
 156 003a 0F20     		movs	r0, #15
 157              	.LVL13:
 158 003c 1C21     		movs	r1, #28
 159 003e 1346     		mov	r3, r2
 160 0040 FFF7FEFF 		bl	lib_app_call
 161              	.LVL14:
 162 0044 C007     		lsls	r0, r0, #31
ARM GAS  C:\Users\AHMED~1.ELE\AppData\Local\Temp\cchj3JTE.s 			page 7


 163 0046 F0D5     		bpl	.L20
 167:src/hardware.c ****         break;
 164              		.loc 1 167 0
 165 0048 4FF48072 		mov	r2, #256
 166 004c 26E0     		b	.L21
 167              	.L18:
 168              		.loc 1 172 0 discriminator 1
 169 004e 154B     		ldr	r3, .L39
 170 0050 1B68     		ldr	r3, [r3]
 171 0052 0133     		adds	r3, r3, #1
 172 0054 02D1     		bne	.L38
 173              	.L19:
 173:src/hardware.c ****       if (ICCInsertedMW()&0x01) {
 174:src/hardware.c ****         keyin = WAIT_ICC_REMOVE;
 175:src/hardware.c ****         break;
 176:src/hardware.c ****       }
 177:src/hardware.c ****     }
 178:src/hardware.c **** 
 179:src/hardware.c ****     if ((aCheckList & WAIT_MSR_READY) && (gMsrHandle != -1)) {
 174              		.loc 1 179 0
 175 0056 6105     		lsls	r1, r4, #21
 176 0058 0CD4     		bmi	.L22
 177 005a 18E0     		b	.L24
 178              	.L38:
 173:src/hardware.c ****       if (ICCInsertedMW()&0x01) {
 179              		.loc 1 173 0
 180 005c 0022     		movs	r2, #0
 181 005e 1346     		mov	r3, r2
 182 0060 0092     		str	r2, [sp]
 183 0062 0F20     		movs	r0, #15
 184 0064 1C21     		movs	r1, #28
 185 0066 FFF7FEFF 		bl	lib_app_call
 186              	.LVL15:
 187 006a C207     		lsls	r2, r0, #31
 188 006c F3D5     		bpl	.L19
 174:src/hardware.c ****         break;
 189              		.loc 1 174 0
 190 006e 4FF40072 		mov	r2, #512
 191 0072 13E0     		b	.L21
 192              	.L22:
 193              		.loc 1 179 0 discriminator 1
 194 0074 0C4B     		ldr	r3, .L39+4
 195 0076 1A68     		ldr	r2, [r3]
 196 0078 531C     		adds	r3, r2, #1
 197 007a 08D0     		beq	.L24
 180:src/hardware.c ****       if (IOCtlMW(gMsrHandle, IO_MSR_RXLEN, NULL) > 0) {
 198              		.loc 1 180 0
 199 007c 0023     		movs	r3, #0
 200 007e 0F20     		movs	r0, #15
 201 0080 0093     		str	r3, [sp]
 202 0082 0721     		movs	r1, #7
 203 0084 0323     		movs	r3, #3
 204 0086 FFF7FEFF 		bl	lib_app_call
 205              	.LVL16:
 206 008a 0028     		cmp	r0, #0
 207 008c 04DC     		bgt	.L28
 208              	.L24:
ARM GAS  C:\Users\AHMED~1.ELE\AppData\Local\Temp\cchj3JTE.s 			page 8


 181:src/hardware.c ****         keyin = WAIT_MSR_READY;
 182:src/hardware.c ****         break;
 183:src/hardware.c ****       }
 184:src/hardware.c ****     }
 185:src/hardware.c **** 
 186:src/hardware.c **** //    if ((aCheckList & WAIT_AUX1_READY) && (gAux1Handle != -1)) {
 187:src/hardware.c **** //      if (IOCtlMW(gAux1Handle, IO_AUX_RX_RDY, NULL) > 0) {
 188:src/hardware.c **** //        keyin = WAIT_AUX1_READY;
 189:src/hardware.c **** //        break;
 190:src/hardware.c **** //      }
 191:src/hardware.c **** //    }
 192:src/hardware.c **** 
 193:src/hardware.c **** //    if ((aCheckList & WAIT_AUX2_READY) && (gAux1Handle != -1)) {
 194:src/hardware.c **** //      if (IOCtlMW(gAux2Handle, IO_AUX_RX_RDY, NULL) > 0) {
 195:src/hardware.c **** //        keyin = WAIT_AUX2_READY;
 196:src/hardware.c **** //        break;
 197:src/hardware.c **** //      }
 198:src/hardware.c **** //    }
 199:src/hardware.c **** 
 200:src/hardware.c ****     SleepMW();
 209              		.loc 1 200 0
 210 008e 4FF4CE70 		mov	r0, #412
 211 0092 FFF7FEFF 		bl	sys_func0
 212              	.LVL17:
 213 0096 BCE7     		b	.L16
 214              	.L28:
 181:src/hardware.c ****         keyin = WAIT_MSR_READY;
 215              		.loc 1 181 0
 216 0098 4FF48062 		mov	r2, #1024
 217              	.L21:
 218              	.LVL18:
 201:src/hardware.c ****   }
 202:src/hardware.c ****   return(keyin);
 203:src/hardware.c **** }
 219              		.loc 1 203 0
 220 009c 1046     		mov	r0, r2
 221 009e 02B0     		add	sp, sp, #8
 222              		.cfi_def_cfa_offset 8
 223              		@ sp needed
 224 00a0 10BD     		pop	{r4, pc}
 225              	.LVL19:
 226              	.L40:
 227 00a2 00BF     		.align	2
 228              	.L39:
 229 00a4 00000000 		.word	gIccHandle
 230 00a8 00000000 		.word	gMsrHandle
 231              		.cfi_endproc
 232              	.LFE2:
 233              		.size	WaitKey, .-WaitKey
 234              		.section	.text.MSRSwiped,"ax",%progbits
 235              		.align	1
 236              		.global	MSRSwiped
 237              		.thumb
 238              		.thumb_func
 239              		.type	MSRSwiped, %function
 240              	MSRSwiped:
 241              	.LFB3:
ARM GAS  C:\Users\AHMED~1.ELE\AppData\Local\Temp\cchj3JTE.s 			page 9


 204:src/hardware.c **** //*****************************************************************************
 205:src/hardware.c **** //  Function        : MSRSwiped
 206:src/hardware.c **** //  Description     : Check for MSR data.
 207:src/hardware.c **** //  Input           : aTrk1;            // pointer to track1 buffer.
 208:src/hardware.c **** //                    aTrk2;            // pointer to track2 buffer.
 209:src/hardware.c **** //  Return          : TRUE/FALSE;       // TRUE=>Card Swiped
 210:src/hardware.c **** //  Note            : N/A
 211:src/hardware.c **** //  Globals Changed : N/A
 212:src/hardware.c **** //*****************************************************************************
 213:src/hardware.c **** BOOLEAN MSRSwiped(struct MW_TRK1BUF *aTrk1, struct MW_TRK2BUF *aTrk2)
 214:src/hardware.c **** {
 242              		.loc 1 214 0
 243              		.cfi_startproc
 244              		@ args = 0, pretend = 0, frame = 1024
 245              		@ frame_needed = 0, uses_anonymous_args = 0
 246              	.LVL20:
 247 0000 2DE9F043 		push	{r4, r5, r6, r7, r8, r9, lr}
 248              		.cfi_def_cfa_offset 28
 249              		.cfi_offset 4, -28
 250              		.cfi_offset 5, -24
 251              		.cfi_offset 6, -20
 252              		.cfi_offset 7, -16
 253              		.cfi_offset 8, -12
 254              		.cfi_offset 9, -8
 255              		.cfi_offset 14, -4
 215:src/hardware.c ****   WORD status;
 216:src/hardware.c ****   BYTE len;
 217:src/hardware.c ****   BYTE c;
 218:src/hardware.c ****   DWORD msr_len, cur_len = 0;
 219:src/hardware.c ****   BYTE msr_buf[1024];
 220:src/hardware.c **** 
 221:src/hardware.c ****   if (IOCtlMW(gMsrHandle, IO_MSR_RXLEN, NULL) <= 0)
 256              		.loc 1 221 0
 257 0004 0025     		movs	r5, #0
 214:src/hardware.c ****   WORD status;
 258              		.loc 1 214 0
 259 0006 ADF20C4D 		subw	sp, sp, #1036
 260              		.cfi_def_cfa_offset 1064
 261              		.loc 1 221 0
 262 000a DFF8B880 		ldr	r8, .L54
 214:src/hardware.c ****   WORD status;
 263              		.loc 1 214 0
 264 000e 0646     		mov	r6, r0
 265 0010 0F46     		mov	r7, r1
 266              		.loc 1 221 0
 267 0012 0095     		str	r5, [sp]
 268 0014 0F20     		movs	r0, #15
 269              	.LVL21:
 270 0016 0721     		movs	r1, #7
 271              	.LVL22:
 272 0018 D8F80020 		ldr	r2, [r8]
 273 001c 0323     		movs	r3, #3
 274 001e FFF7FEFF 		bl	lib_app_call
 275              	.LVL23:
 276 0022 A842     		cmp	r0, r5
 277 0024 48DD     		ble	.L49
 222:src/hardware.c ****     return FALSE;
ARM GAS  C:\Users\AHMED~1.ELE\AppData\Local\Temp\cchj3JTE.s 			page 10


 223:src/hardware.c **** 
 224:src/hardware.c ****   aTrk1->b_len = 0;
 278              		.loc 1 224 0
 279 0026 3570     		strb	r5, [r6]
 225:src/hardware.c ****   aTrk2->b_len = 0;
 226:src/hardware.c ****   status = IOCtlMW(gMsrHandle, IO_MSR_STATUS, NULL);
 280              		.loc 1 226 0
 281 0028 0223     		movs	r3, #2
 225:src/hardware.c ****   aTrk2->b_len = 0;
 282              		.loc 1 225 0
 283 002a 3D70     		strb	r5, [r7]
 284              		.loc 1 226 0
 285 002c 0721     		movs	r1, #7
 286 002e D8F80020 		ldr	r2, [r8]
 287 0032 0095     		str	r5, [sp]
 288 0034 0F20     		movs	r0, #15
 289 0036 FFF7FEFF 		bl	lib_app_call
 290              	.LVL24:
 227:src/hardware.c ****   memset(msr_buf, 0, sizeof(msr_buf));
 291              		.loc 1 227 0
 292 003a 4FF48069 		mov	r9, #1024
 293 003e 2946     		mov	r1, r5
 294 0040 4A46     		mov	r2, r9
 226:src/hardware.c ****   memset(msr_buf, 0, sizeof(msr_buf));
 295              		.loc 1 226 0
 296 0042 0446     		mov	r4, r0
 297              	.LVL25:
 298              		.loc 1 227 0
 299 0044 02A8     		add	r0, sp, #8
 300 0046 FFF7FEFF 		bl	memset
 301              	.LVL26:
 228:src/hardware.c ****   msr_len = ReadMW(gMsrHandle, &msr_buf, sizeof(msr_buf));
 302              		.loc 1 228 0
 303 004a D8F80020 		ldr	r2, [r8]
 304 004e 02AB     		add	r3, sp, #8
 305 0050 CDF80090 		str	r9, [sp]
 306 0054 0F20     		movs	r0, #15
 307 0056 0421     		movs	r1, #4
 308 0058 FFF7FEFF 		bl	lib_app_call
 309              	.LVL27:
 310 005c A3B2     		uxth	r3, r4
 229:src/hardware.c ****   if (((status & MW_TRACK2) == 0x00) && (msr_len > 0)) {
 311              		.loc 1 229 0
 312 005e 13F00102 		ands	r2, r3, #1
 313 0062 09D1     		bne	.L50
 314              		.loc 1 229 0 is_stmt 0 discriminator 1
 315 0064 A8B1     		cbz	r0, .L51
 230:src/hardware.c ****     IOCtlMW(gMsrHandle, IO_MSR_RESET, NULL);
 316              		.loc 1 230 0 is_stmt 1
 317 0066 0092     		str	r2, [sp]
 318 0068 0721     		movs	r1, #7
 319 006a D8F80020 		ldr	r2, [r8]
 320 006e 0423     		movs	r3, #4
 321 0070 0F20     		movs	r0, #15
 322              	.LVL28:
 323 0072 FFF7FEFF 		bl	lib_app_call
 324              	.LVL29:
ARM GAS  C:\Users\AHMED~1.ELE\AppData\Local\Temp\cchj3JTE.s 			page 11


 325 0076 1DE0     		b	.L53
 326              	.LVL30:
 327              	.L50:
 328 0078 0121     		movs	r1, #1
 329              	.LVL31:
 330              	.L43:
 331 007a 481E     		subs	r0, r1, #1
 332 007c 02AA     		add	r2, sp, #8
 231:src/hardware.c ****     return TRUE;
 232:src/hardware.c ****   }
 233:src/hardware.c **** 
 234:src/hardware.c ****   cur_len++;
 235:src/hardware.c ****   len = 0;
 236:src/hardware.c ****   if (status & MW_TRACK2) {
 237:src/hardware.c ****     while ((c=msr_buf[cur_len++]) != END_SENTINEL) {
 333              		.loc 1 237 0
 334 007e 0131     		adds	r1, r1, #1
 335 0080 0A44     		add	r2, r2, r1
 336 0082 C0B2     		uxtb	r0, r0
 337              	.LVL32:
 338 0084 12F8012C 		ldrb	r2, [r2, #-1]	@ zero_extendqisi2
 339              	.LVL33:
 340 0088 3F2A     		cmp	r2, #63
 341 008a 03D0     		beq	.L44
 342              	.LVL34:
 238:src/hardware.c ****       aTrk2->sb_content[len++] = c;
 343              		.loc 1 238 0
 344 008c 3844     		add	r0, r0, r7
 345 008e 4270     		strb	r2, [r0, #1]
 346 0090 F3E7     		b	.L43
 347              	.LVL35:
 348              	.L51:
 239:src/hardware.c ****     }
 240:src/hardware.c ****   }
 241:src/hardware.c ****   else {
 242:src/hardware.c ****     cur_len++;
 349              		.loc 1 242 0
 350 0092 0221     		movs	r1, #2
 351              	.LVL36:
 352              	.L44:
 243:src/hardware.c ****   }
 244:src/hardware.c ****   aTrk2->b_len = len;
 245:src/hardware.c ****   cur_len++;
 246:src/hardware.c ****   len = 0;
 247:src/hardware.c ****   if (status & MW_TRACK1) {
 353              		.loc 1 247 0
 354 0094 13F00203 		ands	r3, r3, #2
 244:src/hardware.c ****   cur_len++;
 355              		.loc 1 244 0
 356 0098 3870     		strb	r0, [r7]
 357              	.LVL37:
 358              		.loc 1 247 0
 359 009a 0AD0     		beq	.L47
 360 009c 0022     		movs	r2, #0
 361              	.LVL38:
 362              	.L46:
 363 009e 02A8     		add	r0, sp, #8
ARM GAS  C:\Users\AHMED~1.ELE\AppData\Local\Temp\cchj3JTE.s 			page 12


 364 00a0 D3B2     		uxtb	r3, r2
 365              	.LVL39:
 366 00a2 0844     		add	r0, r0, r1
 367 00a4 0132     		adds	r2, r2, #1
 368              	.LVL40:
 248:src/hardware.c ****     while ((c=msr_buf[cur_len++]) != END_SENTINEL) {
 369              		.loc 1 248 0
 370 00a6 805C     		ldrb	r0, [r0, r2]	@ zero_extendqisi2
 371              	.LVL41:
 372 00a8 3F28     		cmp	r0, #63
 373 00aa 02D0     		beq	.L47
 374              	.LVL42:
 249:src/hardware.c ****       aTrk1->sb_content[len++] = c;
 375              		.loc 1 249 0
 376 00ac 3344     		add	r3, r3, r6
 377 00ae 5870     		strb	r0, [r3, #1]
 378 00b0 F5E7     		b	.L46
 379              	.LVL43:
 380              	.L47:
 250:src/hardware.c ****     }
 251:src/hardware.c ****   }
 252:src/hardware.c ****   else {
 253:src/hardware.c ****     cur_len++;
 254:src/hardware.c ****   }
 255:src/hardware.c **** 
 256:src/hardware.c ****   aTrk1->b_len = len;
 381              		.loc 1 256 0
 382 00b2 3370     		strb	r3, [r6]
 383              	.LVL44:
 384              	.L53:
 257:src/hardware.c ****   return TRUE;
 385              		.loc 1 257 0
 386 00b4 0120     		movs	r0, #1
 387 00b6 00E0     		b	.L42
 388              	.LVL45:
 389              	.L49:
 222:src/hardware.c **** 
 390              		.loc 1 222 0
 391 00b8 2846     		mov	r0, r5
 392              	.LVL46:
 393              	.L42:
 258:src/hardware.c **** }
 394              		.loc 1 258 0
 395 00ba 0DF20C4D 		addw	sp, sp, #1036
 396              		.cfi_def_cfa_offset 28
 397              		@ sp needed
 398 00be BDE8F083 		pop	{r4, r5, r6, r7, r8, r9, pc}
 399              	.LVL47:
 400              	.L55:
 401 00c2 00BF     		.align	2
 402              	.L54:
 403 00c4 00000000 		.word	gMsrHandle
 404              		.cfi_endproc
 405              	.LFE3:
 406              		.size	MSRSwiped, .-MSRSwiped
 407              		.section	.text.ICCInserted,"ax",%progbits
 408              		.align	1
ARM GAS  C:\Users\AHMED~1.ELE\AppData\Local\Temp\cchj3JTE.s 			page 13


 409              		.global	ICCInserted
 410              		.thumb
 411              		.thumb_func
 412              		.type	ICCInserted, %function
 413              	ICCInserted:
 414              	.LFB4:
 259:src/hardware.c **** //*****************************************************************************
 260:src/hardware.c **** //  Function        : ICCInserted
 261:src/hardware.c **** //  Description     : Check for ICC inserted.
 262:src/hardware.c **** //  Input           : TRUE;
 263:src/hardware.c **** //                    FALSE;
 264:src/hardware.c **** //  Return          : N/A
 265:src/hardware.c **** //  Note            : N/A
 266:src/hardware.c **** //  Globals Changed : N/A
 267:src/hardware.c **** //*****************************************************************************
 268:src/hardware.c **** BOOLEAN ICCInserted(void)
 269:src/hardware.c **** {
 415              		.loc 1 269 0
 416              		.cfi_startproc
 417              		@ args = 0, pretend = 0, frame = 8
 418              		@ frame_needed = 0, uses_anonymous_args = 0
 419 0000 1FB5     		push	{r0, r1, r2, r3, r4, lr}
 420              		.cfi_def_cfa_offset 24
 421              		.cfi_offset 4, -8
 422              		.cfi_offset 14, -4
 270:src/hardware.c ****   DWORD icc_id;
 271:src/hardware.c **** 
 272:src/hardware.c ****   icc_id = 0;
 423              		.loc 1 272 0
 424 0002 0022     		movs	r2, #0
 273:src/hardware.c ****   if (ICCInsertedMW()&0x01) {
 425              		.loc 1 273 0
 426 0004 0F20     		movs	r0, #15
 427 0006 0092     		str	r2, [sp]
 428 0008 1C21     		movs	r1, #28
 429 000a 1346     		mov	r3, r2
 272:src/hardware.c ****   if (ICCInsertedMW()&0x01) {
 430              		.loc 1 272 0
 431 000c 0392     		str	r2, [sp, #12]
 432              		.loc 1 273 0
 433 000e FFF7FEFF 		bl	lib_app_call
 434              	.LVL48:
 435 0012 0C4C     		ldr	r4, .L65
 436 0014 10F00100 		ands	r0, r0, #1
 437 0018 0ED0     		beq	.L57
 274:src/hardware.c ****     IOCtlMW(gIccHandle, IO_ICC_SELECT, &icc_id);
 438              		.loc 1 274 0
 439 001a 03AB     		add	r3, sp, #12
 440 001c 0F20     		movs	r0, #15
 441 001e 0093     		str	r3, [sp]
 442 0020 094B     		ldr	r3, .L65+4
 443 0022 0721     		movs	r1, #7
 444 0024 1A68     		ldr	r2, [r3]
 445 0026 0123     		movs	r3, #1
 446 0028 FFF7FEFF 		bl	lib_app_call
 447              	.LVL49:
 275:src/hardware.c ****     if (bSMCLocked == FALSE) {
ARM GAS  C:\Users\AHMED~1.ELE\AppData\Local\Temp\cchj3JTE.s 			page 14


 448              		.loc 1 275 0
 449 002c 2378     		ldrb	r3, [r4]	@ zero_extendqisi2
 450 002e 0BB1     		cbz	r3, .L58
 451              	.L60:
 276:src/hardware.c ****       bSMCLocked = TRUE;
 277:src/hardware.c ****       return TRUE;
 278:src/hardware.c ****     }
 279:src/hardware.c ****   }
 280:src/hardware.c ****   else
 281:src/hardware.c ****     if (bSMCLocked) {
 282:src/hardware.c ****       bSMCLocked = FALSE;
 283:src/hardware.c ****     }
 284:src/hardware.c ****   return FALSE;
 452              		.loc 1 284 0
 453 0030 0020     		movs	r0, #0
 454 0032 05E0     		b	.L59
 455              	.L58:
 276:src/hardware.c ****       bSMCLocked = TRUE;
 456              		.loc 1 276 0
 457 0034 0120     		movs	r0, #1
 458 0036 02E0     		b	.L64
 459              	.L57:
 281:src/hardware.c ****       bSMCLocked = FALSE;
 460              		.loc 1 281 0
 461 0038 2378     		ldrb	r3, [r4]	@ zero_extendqisi2
 462 003a 002B     		cmp	r3, #0
 463 003c F8D0     		beq	.L60
 464              	.L64:
 282:src/hardware.c ****     }
 465              		.loc 1 282 0
 466 003e 2070     		strb	r0, [r4]
 467              	.L59:
 285:src/hardware.c **** }
 468              		.loc 1 285 0
 469 0040 04B0     		add	sp, sp, #16
 470              		.cfi_def_cfa_offset 8
 471              		@ sp needed
 472 0042 10BD     		pop	{r4, pc}
 473              	.L66:
 474              		.align	2
 475              	.L65:
 476 0044 00000000 		.word	.LANCHOR0
 477 0048 00000000 		.word	gIccHandle
 478              		.cfi_endproc
 479              	.LFE4:
 480              		.size	ICCInserted, .-ICCInserted
 481              		.section	.text.ICCReaderRdy,"ax",%progbits
 482              		.align	1
 483              		.global	ICCReaderRdy
 484              		.thumb
 485              		.thumb_func
 486              		.type	ICCReaderRdy, %function
 487              	ICCReaderRdy:
 488              	.LFB5:
 286:src/hardware.c **** //*****************************************************************************
 287:src/hardware.c **** //  Function        : ICCReaderRdy
 288:src/hardware.c **** //  Description     : Check for ICC reader ready for use.
ARM GAS  C:\Users\AHMED~1.ELE\AppData\Local\Temp\cchj3JTE.s 			page 15


 289:src/hardware.c **** //  Input           : TRUE/FALSE;// FALSE => ICC not remove since last inserted
 290:src/hardware.c **** //  Return          : N/A
 291:src/hardware.c **** //  Note            : N/A
 292:src/hardware.c **** //  Globals Changed : N/A
 293:src/hardware.c **** //*****************************************************************************
 294:src/hardware.c **** BOOLEAN ICCReaderRdy(void)
 295:src/hardware.c **** {
 489              		.loc 1 295 0
 490              		.cfi_startproc
 491              		@ args = 0, pretend = 0, frame = 0
 492              		@ frame_needed = 0, uses_anonymous_args = 0
 493 0000 07B5     		push	{r0, r1, r2, lr}
 494              		.cfi_def_cfa_offset 16
 495              		.cfi_offset 14, -4
 296:src/hardware.c ****   //DWORD icc_id;
 297:src/hardware.c **** 
 298:src/hardware.c ****   //icc_id = 0;
 299:src/hardware.c ****   if ((ICCInsertedMW()&0x01)==0) {
 496              		.loc 1 299 0
 497 0002 0022     		movs	r2, #0
 498 0004 1346     		mov	r3, r2
 499 0006 0092     		str	r2, [sp]
 500 0008 0F20     		movs	r0, #15
 501 000a 1C21     		movs	r1, #28
 502 000c FFF7FEFF 		bl	lib_app_call
 503              	.LVL50:
 504 0010 084B     		ldr	r3, .L71
 505 0012 10F00100 		ands	r0, r0, #1
 506 0016 03D1     		bne	.L68
 300:src/hardware.c ****     if (bSMCLocked) {
 507              		.loc 1 300 0
 508 0018 1A78     		ldrb	r2, [r3]	@ zero_extendqisi2
 509 001a 32B1     		cbz	r2, .L70
 301:src/hardware.c ****       bSMCLocked = FALSE;
 510              		.loc 1 301 0
 511 001c 1870     		strb	r0, [r3]
 512 001e 04E0     		b	.L70
 513              	.L68:
 302:src/hardware.c ****     }
 303:src/hardware.c ****     return TRUE;
 304:src/hardware.c ****   }
 305:src/hardware.c ****   return (bSMCLocked == FALSE);
 514              		.loc 1 305 0
 515 0020 1878     		ldrb	r0, [r3]	@ zero_extendqisi2
 516 0022 B0FA80F0 		clz	r0, r0
 517 0026 4009     		lsrs	r0, r0, #5
 518 0028 00E0     		b	.L69
 519              	.L70:
 303:src/hardware.c ****   }
 520              		.loc 1 303 0
 521 002a 0120     		movs	r0, #1
 522              	.L69:
 306:src/hardware.c **** }
 523              		.loc 1 306 0
 524 002c 03B0     		add	sp, sp, #12
 525              		.cfi_def_cfa_offset 4
 526              		@ sp needed
ARM GAS  C:\Users\AHMED~1.ELE\AppData\Local\Temp\cchj3JTE.s 			page 16


 527 002e 5DF804FB 		ldr	pc, [sp], #4
 528              	.L72:
 529 0032 00BF     		.align	2
 530              	.L71:
 531 0034 00000000 		.word	.LANCHOR0
 532              		.cfi_endproc
 533              	.LFE5:
 534              		.size	ICCReaderRdy, .-ICCReaderRdy
 535              		.section	.text.WaitICCRemove,"ax",%progbits
 536              		.align	1
 537              		.global	WaitICCRemove
 538              		.thumb
 539              		.thumb_func
 540              		.type	WaitICCRemove, %function
 541              	WaitICCRemove:
 542              	.LFB6:
 307:src/hardware.c **** //*****************************************************************************
 308:src/hardware.c **** //  Function        : WaitICCRemove
 309:src/hardware.c **** //  Description     : Wait user to pull out the ICC
 310:src/hardware.c **** //  Input           : N/A
 311:src/hardware.c **** //  Return          : N/A
 312:src/hardware.c **** //  Note            : N/A
 313:src/hardware.c **** //  Globals Changed : N/A
 314:src/hardware.c **** //*****************************************************************************
 315:src/hardware.c **** void WaitICCRemove(void)
 316:src/hardware.c **** {
 543              		.loc 1 316 0
 544              		.cfi_startproc
 545              		@ args = 0, pretend = 0, frame = 0
 546              		@ frame_needed = 0, uses_anonymous_args = 0
 547 0000 13B5     		push	{r0, r1, r4, lr}
 548              		.cfi_def_cfa_offset 16
 549              		.cfi_offset 4, -8
 550              		.cfi_offset 14, -4
 317:src/hardware.c ****   //DWORD icc_id;
 318:src/hardware.c **** 
 319:src/hardware.c ****   //icc_id = 0;
 320:src/hardware.c ****   TimerSetMW(gTimerHdl[TIMER_GEN], 0);
 551              		.loc 1 320 0
 552 0002 114C     		ldr	r4, .L80
 553 0004 0C20     		movs	r0, #12
 554 0006 A169     		ldr	r1, [r4, #24]
 555 0008 0022     		movs	r2, #0
 556              	.L78:
 321:src/hardware.c ****   while (ICCInsertedMW()&0x01) {
 322:src/hardware.c ****     SleepMW();
 323:src/hardware.c ****     if (TimerGetMW(gTimerHdl[TIMER_GEN]) == 0) {
 324:src/hardware.c ****       LongBeep();
 325:src/hardware.c ****       TimerSetMW(gTimerHdl[TIMER_GEN], TIMER_1SEC);
 557              		.loc 1 325 0
 558 000a FFF7FEFF 		bl	sys_func2
 559              	.LVL51:
 560              	.L75:
 321:src/hardware.c ****   while (ICCInsertedMW()&0x01) {
 561              		.loc 1 321 0
 562 000e 0022     		movs	r2, #0
 563 0010 1346     		mov	r3, r2
ARM GAS  C:\Users\AHMED~1.ELE\AppData\Local\Temp\cchj3JTE.s 			page 17


 564 0012 0092     		str	r2, [sp]
 565 0014 0F20     		movs	r0, #15
 566 0016 1C21     		movs	r1, #28
 567 0018 FFF7FEFF 		bl	lib_app_call
 568              	.LVL52:
 569 001c C307     		lsls	r3, r0, #31
 570 001e 10D5     		bpl	.L79
 322:src/hardware.c ****     if (TimerGetMW(gTimerHdl[TIMER_GEN]) == 0) {
 571              		.loc 1 322 0
 572 0020 4FF4CE70 		mov	r0, #412
 573 0024 FFF7FEFF 		bl	sys_func0
 574              	.LVL53:
 323:src/hardware.c ****       LongBeep();
 575              		.loc 1 323 0
 576 0028 0D20     		movs	r0, #13
 577 002a A169     		ldr	r1, [r4, #24]
 578 002c FFF7FEFF 		bl	sys_func1
 579              	.LVL54:
 580 0030 0028     		cmp	r0, #0
 581 0032 ECD1     		bne	.L75
 324:src/hardware.c ****       TimerSetMW(gTimerHdl[TIMER_GEN], TIMER_1SEC);
 582              		.loc 1 324 0
 583 0034 FFF7FEFF 		bl	LongBeep
 584              	.LVL55:
 585              		.loc 1 325 0
 586 0038 034B     		ldr	r3, .L80
 587 003a 0C20     		movs	r0, #12
 588 003c 9969     		ldr	r1, [r3, #24]
 589 003e 6422     		movs	r2, #100
 590 0040 E3E7     		b	.L78
 591              	.L79:
 326:src/hardware.c ****     }
 327:src/hardware.c ****   }
 328:src/hardware.c **** }
 592              		.loc 1 328 0
 593 0042 02B0     		add	sp, sp, #8
 594              		.cfi_def_cfa_offset 8
 595              		@ sp needed
 596 0044 10BD     		pop	{r4, pc}
 597              	.L81:
 598 0046 00BF     		.align	2
 599              	.L80:
 600 0048 00000000 		.word	gTimerHdl
 601              		.cfi_endproc
 602              	.LFE6:
 603              		.size	WaitICCRemove, .-WaitICCRemove
 604              		.section	.text.PowerOnICC,"ax",%progbits
 605              		.align	1
 606              		.global	PowerOnICC
 607              		.thumb
 608              		.thumb_func
 609              		.type	PowerOnICC, %function
 610              	PowerOnICC:
 611              	.LFB7:
 329:src/hardware.c **** ////*****************************************************************************
 330:src/hardware.c **** ////  Function        : WaitICCRemove
 331:src/hardware.c **** ////  Description     : Wait user to pull out the ICC
ARM GAS  C:\Users\AHMED~1.ELE\AppData\Local\Temp\cchj3JTE.s 			page 18


 332:src/hardware.c **** ////  Input           : N/A
 333:src/hardware.c **** ////  Return          : N/A
 334:src/hardware.c **** ////  Note            : N/A
 335:src/hardware.c **** ////  Globals Changed : N/A
 336:src/hardware.c **** ////*****************************************************************************
 337:src/hardware.c **** //void WaitDebugICCRemove(void)
 338:src/hardware.c **** //{
 339:src/hardware.c **** //  DWORD icc_id;
 340:src/hardware.c **** //  if (DebugAutoRun()&&!DebugEnd()) {
 341:src/hardware.c **** //    if (bSMCLocked) {
 342:src/hardware.c **** //      bSMCLocked = FALSE;
 343:src/hardware.c **** //    }
 344:src/hardware.c **** //    return;
 345:src/hardware.c **** //  }
 346:src/hardware.c **** //
 347:src/hardware.c **** //  icc_id = 0;
 348:src/hardware.c **** //  TimerSetMW(gTimerHdl[TIMER_GEN], 0);
 349:src/hardware.c **** //  while ((GetCharMW()!=MWKEY_ENTER)&&(ICCInsertedMW()&0x01)) {
 350:src/hardware.c **** //    SleepMW();
 351:src/hardware.c **** //  }
 352:src/hardware.c **** //  if (bSMCLocked) {
 353:src/hardware.c **** //    bSMCLocked = FALSE;
 354:src/hardware.c **** //  }
 355:src/hardware.c **** //}
 356:src/hardware.c **** //*****************************************************************************
 357:src/hardware.c **** //  Function        : PowerOnICC
 358:src/hardware.c **** //  Description     : Power ON ICC 0.
 359:src/hardware.c **** //  Input           : N/A
 360:src/hardware.c **** //  Return          : IC Card Protocol. 0=>Err
 361:src/hardware.c **** //  Note            : T1000 implement sam ownership.=>EMVDLL have to handle it.
 362:src/hardware.c **** //  Globals Changed : N/A
 363:src/hardware.c **** //*****************************************************************************
 364:src/hardware.c **** DWORD PowerOnICC(void)
 365:src/hardware.c **** {
 612              		.loc 1 365 0
 613              		.cfi_startproc
 614              		@ args = 0, pretend = 0, frame = 256
 615              		@ frame_needed = 0, uses_anonymous_args = 0
 616 0000 00B5     		push	{lr}
 617              		.cfi_def_cfa_offset 4
 618              		.cfi_offset 14, -4
 366:src/hardware.c ****   BYTE tmp[256];
 367:src/hardware.c **** 
 368:src/hardware.c ****   #ifdef EMV_ICCOn
 369:src/hardware.c ****   return EMV_ICCOn(tmp);
 619              		.loc 1 369 0
 620 0002 0023     		movs	r3, #0
 365:src/hardware.c ****   BYTE tmp[256];
 621              		.loc 1 365 0
 622 0004 C3B0     		sub	sp, sp, #268
 623              		.cfi_def_cfa_offset 272
 624              		.loc 1 369 0
 625 0006 0421     		movs	r1, #4
 626 0008 0093     		str	r3, [sp]
 627 000a 02AA     		add	r2, sp, #8
 628 000c 0E20     		movs	r0, #14
 629 000e FFF7FEFF 		bl	lib_app_call
ARM GAS  C:\Users\AHMED~1.ELE\AppData\Local\Temp\cchj3JTE.s 			page 19


 630              	.LVL56:
 370:src/hardware.c ****   #else
 371:src/hardware.c ****   return IOCtlMW(gIccHandle, IO_ICC_ON, tmp);
 372:src/hardware.c ****   #endif
 373:src/hardware.c **** }
 631              		.loc 1 373 0
 632 0012 43B0     		add	sp, sp, #268
 633              		.cfi_def_cfa_offset 4
 634              		@ sp needed
 635 0014 5DF804FB 		ldr	pc, [sp], #4
 636              		.cfi_endproc
 637              	.LFE7:
 638              		.size	PowerOnICC, .-PowerOnICC
 639              		.section	.text.PowerOffICC,"ax",%progbits
 640              		.align	1
 641              		.global	PowerOffICC
 642              		.thumb
 643              		.thumb_func
 644              		.type	PowerOffICC, %function
 645              	PowerOffICC:
 646              	.LFB8:
 374:src/hardware.c **** //*****************************************************************************
 375:src/hardware.c **** //  Function        : PowerOffICC
 376:src/hardware.c **** //  Description     : Power OFF ICC.
 377:src/hardware.c **** //  Input           : N/A
 378:src/hardware.c **** //  Return          : N/A
 379:src/hardware.c **** //  Note            : T1000 implement sam ownership.=>EMVDLL have to handle it.
 380:src/hardware.c **** //  Globals Changed : N/A
 381:src/hardware.c **** //*****************************************************************************
 382:src/hardware.c **** DWORD PowerOffICC(void)
 383:src/hardware.c **** {
 647              		.loc 1 383 0
 648              		.cfi_startproc
 649              		@ args = 0, pretend = 0, frame = 0
 650              		@ frame_needed = 0, uses_anonymous_args = 0
 651 0000 07B5     		push	{r0, r1, r2, lr}
 652              		.cfi_def_cfa_offset 16
 653              		.cfi_offset 14, -4
 384:src/hardware.c ****   #ifdef EMV_ICCOff
 385:src/hardware.c ****   return EMV_ICCOff();
 654              		.loc 1 385 0
 655 0002 0022     		movs	r2, #0
 656 0004 0521     		movs	r1, #5
 657 0006 0092     		str	r2, [sp]
 658 0008 1346     		mov	r3, r2
 659 000a 0E20     		movs	r0, #14
 660 000c FFF7FEFF 		bl	lib_app_call
 661              	.LVL57:
 386:src/hardware.c ****   #else
 387:src/hardware.c ****   return IOCtlMW(gIccHandle, IO_ICC_OFF, NULL);
 388:src/hardware.c ****   #endif
 389:src/hardware.c **** }
 662              		.loc 1 389 0
 663 0010 03B0     		add	sp, sp, #12
 664              		.cfi_def_cfa_offset 4
 665              		@ sp needed
 666 0012 5DF804FB 		ldr	pc, [sp], #4
ARM GAS  C:\Users\AHMED~1.ELE\AppData\Local\Temp\cchj3JTE.s 			page 20


 667              		.cfi_endproc
 668              	.LFE8:
 669              		.size	PowerOffICC, .-PowerOffICC
 670              		.section	.text.OffDevice,"ax",%progbits
 671              		.align	1
 672              		.global	OffDevice
 673              		.thumb
 674              		.thumb_func
 675              		.type	OffDevice, %function
 676              	OffDevice:
 677              	.LFB9:
 390:src/hardware.c **** //*****************************************************************************
 391:src/hardware.c **** //  Function        : OffDevice
 392:src/hardware.c **** //  Description     : Off device base on the input..
 393:src/hardware.c **** //  Input           : N/A
 394:src/hardware.c **** //  Return          : N/A
 395:src/hardware.c **** //  Note            : //25-07-17 JC ++
 396:src/hardware.c **** 
 397:src/hardware.c **** //  Globals Changed : N/A
 398:src/hardware.c **** //*****************************************************************************
 399:src/hardware.c **** void OffDevice(DWORD aHw)
 400:src/hardware.c **** {
 678              		.loc 1 400 0
 679              		.cfi_startproc
 680              		@ args = 0, pretend = 0, frame = 0
 681              		@ frame_needed = 0, uses_anonymous_args = 0
 682              	.LVL58:
 401:src/hardware.c ****    if (aHw & HW_MSR) {
 683              		.loc 1 401 0
 684 0000 C207     		lsls	r2, r0, #31
 400:src/hardware.c ****    if (aHw & HW_MSR) {
 685              		.loc 1 400 0
 686 0002 13B5     		push	{r0, r1, r4, lr}
 687              		.cfi_def_cfa_offset 16
 688              		.cfi_offset 4, -8
 689              		.cfi_offset 14, -4
 400:src/hardware.c ****    if (aHw & HW_MSR) {
 690              		.loc 1 400 0
 691 0004 0446     		mov	r4, r0
 692              		.loc 1 401 0
 693 0006 06D5     		bpl	.L85
 402:src/hardware.c ****      APM_CloseHwHandle(APM_SDEV_MSR);
 694              		.loc 1 402 0
 695 0008 0021     		movs	r1, #0
 696 000a 1020     		movs	r0, #16
 697              	.LVL59:
 698 000c 0091     		str	r1, [sp]
 699 000e 0A46     		mov	r2, r1
 700 0010 0123     		movs	r3, #1
 701 0012 FFF7FEFF 		bl	lib_app_call
 702              	.LVL60:
 703              	.L85:
 403:src/hardware.c ****    }
 404:src/hardware.c **** 
 405:src/hardware.c ****    if (aHw & HW_CLICC) {
 704              		.loc 1 405 0
 705 0016 A307     		lsls	r3, r4, #30
ARM GAS  C:\Users\AHMED~1.ELE\AppData\Local\Temp\cchj3JTE.s 			page 21


 706 0018 0AD5     		bpl	.L84
 406:src/hardware.c ****      // Close contactless polling
 407:src/hardware.c ****      if (CTLEnabled()) {
 707              		.loc 1 407 0
 708 001a FFF7FEFF 		bl	CTLEnabled
 709              	.LVL61:
 710 001e 38B1     		cbz	r0, .L84
 711              	.LVL62:
 712              	.LBB4:
 713              	.LBB5:
 408:src/hardware.c ****        CL_Close(0);
 714              		.loc 1 408 0
 715 0020 0020     		movs	r0, #0
 716 0022 FFF7FEFF 		bl	CL_Close
 717              	.LVL63:
 718              	.LBE5:
 719              	.LBE4:
 409:src/hardware.c ****        CL_Off();
 410:src/hardware.c ****      }
 411:src/hardware.c ****    }
 412:src/hardware.c **** }
 720              		.loc 1 412 0
 721 0026 02B0     		add	sp, sp, #8
 722              		.cfi_remember_state
 723              		.cfi_def_cfa_offset 8
 724              		@ sp needed
 725 0028 BDE81040 		pop	{r4, lr}
 726              		.cfi_restore 14
 727              		.cfi_restore 4
 728              		.cfi_def_cfa_offset 0
 729              	.LVL64:
 730              	.LBB7:
 731              	.LBB6:
 409:src/hardware.c ****        CL_Off();
 732              		.loc 1 409 0
 733 002c FFF7FEBF 		b	CL_Off
 734              	.LVL65:
 735              	.L84:
 736              		.cfi_restore_state
 737              	.LBE6:
 738              	.LBE7:
 739              		.loc 1 412 0
 740 0030 02B0     		add	sp, sp, #8
 741              		.cfi_def_cfa_offset 8
 742              		@ sp needed
 743 0032 10BD     		pop	{r4, pc}
 744              		.cfi_endproc
 745              	.LFE9:
 746              		.size	OffDevice, .-OffDevice
 747              		.section	.text.InitAllHw,"ax",%progbits
 748              		.align	1
 749              		.global	InitAllHw
 750              		.thumb
 751              		.thumb_func
 752              		.type	InitAllHw, %function
 753              	InitAllHw:
 754              	.LFB0:
ARM GAS  C:\Users\AHMED~1.ELE\AppData\Local\Temp\cchj3JTE.s 			page 22


  93:src/hardware.c **** {
 755              		.loc 1 93 0
 756              		.cfi_startproc
 757              		@ args = 0, pretend = 0, frame = 0
 758              		@ frame_needed = 0, uses_anonymous_args = 0
  96:src/hardware.c ****   gMsrHandle  = -1;
 759              		.loc 1 96 0
 760 0000 4FF0FF33 		mov	r3, #-1
  93:src/hardware.c **** {
 761              		.loc 1 93 0
 762 0004 73B5     		push	{r0, r1, r4, r5, r6, lr}
 763              		.cfi_def_cfa_offset 24
 764              		.cfi_offset 4, -16
 765              		.cfi_offset 5, -12
 766              		.cfi_offset 6, -8
 767              		.cfi_offset 14, -4
  96:src/hardware.c ****   gMsrHandle  = -1;
 768              		.loc 1 96 0
 769 0006 194A     		ldr	r2, .L98
 115:src/hardware.c ****   gGprsHandle  = APM_GetHwHandle(APM_SDEV_GPRS);
 770              		.loc 1 115 0
 771 0008 0024     		movs	r4, #0
  96:src/hardware.c ****   gMsrHandle  = -1;
 772              		.loc 1 96 0
 773 000a 1360     		str	r3, [r2]
  97:src/hardware.c ****   gIccHandle  = -1;
 774              		.loc 1 97 0
 775 000c 184A     		ldr	r2, .L98+4
 102:src/hardware.c ****   gGprsHandle = -1;
 776              		.loc 1 102 0
 777 000e 194E     		ldr	r6, .L98+8
  97:src/hardware.c ****   gIccHandle  = -1;
 778              		.loc 1 97 0
 779 0010 1360     		str	r3, [r2]
  98:src/hardware.c ****   gAux1Handle = -1;
 780              		.loc 1 98 0
 781 0012 194A     		ldr	r2, .L98+12
 103:src/hardware.c ****   gPppHandle = -1;
 782              		.loc 1 103 0
 783 0014 194D     		ldr	r5, .L98+16
  98:src/hardware.c ****   gAux1Handle = -1;
 784              		.loc 1 98 0
 785 0016 1360     		str	r3, [r2]
  99:src/hardware.c ****   gAux2Handle = -1;
 786              		.loc 1 99 0
 787 0018 194A     		ldr	r2, .L98+20
 102:src/hardware.c ****   gGprsHandle = -1;
 788              		.loc 1 102 0
 789 001a 3360     		str	r3, [r6]
  99:src/hardware.c ****   gAux2Handle = -1;
 790              		.loc 1 99 0
 791 001c 1360     		str	r3, [r2]
 100:src/hardware.c ****   gLptHandle  = -1;
 792              		.loc 1 100 0
 793 001e 194A     		ldr	r2, .L98+24
 103:src/hardware.c ****   gPppHandle = -1;
 794              		.loc 1 103 0
ARM GAS  C:\Users\AHMED~1.ELE\AppData\Local\Temp\cchj3JTE.s 			page 23


 795 0020 2B60     		str	r3, [r5]
 100:src/hardware.c ****   gLptHandle  = -1;
 796              		.loc 1 100 0
 797 0022 1360     		str	r3, [r2]
 101:src/hardware.c ****   gCdc1Handle = -1;
 798              		.loc 1 101 0
 799 0024 184A     		ldr	r2, .L98+28
 115:src/hardware.c ****   gGprsHandle  = APM_GetHwHandle(APM_SDEV_GPRS);
 800              		.loc 1 115 0
 801 0026 2146     		mov	r1, r4
 101:src/hardware.c ****   gCdc1Handle = -1;
 802              		.loc 1 101 0
 803 0028 1360     		str	r3, [r2]
 115:src/hardware.c ****   gGprsHandle  = APM_GetHwHandle(APM_SDEV_GPRS);
 804              		.loc 1 115 0
 805 002a 1020     		movs	r0, #16
 806 002c 0222     		movs	r2, #2
 807 002e 2346     		mov	r3, r4
 808 0030 0094     		str	r4, [sp]
 809 0032 FFF7FEFF 		bl	lib_app_call
 810              	.LVL66:
 116:src/hardware.c ****   gPppHandle   = APM_GetHwHandle(APM_SDEV_PPP);
 811              		.loc 1 116 0
 812 0036 0094     		str	r4, [sp]
 813 0038 2146     		mov	r1, r4
 814 003a 0322     		movs	r2, #3
 115:src/hardware.c ****   gGprsHandle  = APM_GetHwHandle(APM_SDEV_GPRS);
 815              		.loc 1 115 0
 816 003c 3060     		str	r0, [r6]
 116:src/hardware.c ****   gPppHandle   = APM_GetHwHandle(APM_SDEV_PPP);
 817              		.loc 1 116 0
 818 003e 2346     		mov	r3, r4
 819 0040 1020     		movs	r0, #16
 820 0042 FFF7FEFF 		bl	lib_app_call
 821              	.LVL67:
 822 0046 2860     		str	r0, [r5]
 823              	.LVL68:
 824              	.L96:
 120:src/hardware.c ****     gTimerHdl[i] = TimerOpenMW();
 825              		.loc 1 120 0 discriminator 3
 826 0048 0A20     		movs	r0, #10
 827 004a FFF7FEFF 		bl	sys_func0
 828              	.LVL69:
 829 004e 0F4B     		ldr	r3, .L98+32
 830 0050 43F82400 		str	r0, [r3, r4, lsl #2]
 119:src/hardware.c ****   for (i = 0; i < MAX_TIMER_SUPPORT; i++) {
 831              		.loc 1 119 0 discriminator 3
 832 0054 0134     		adds	r4, r4, #1
 833              	.LVL70:
 834 0056 072C     		cmp	r4, #7
 835 0058 F6D1     		bne	.L96
 123:src/hardware.c ****   CL_Init();
 836              		.loc 1 123 0
 837 005a FFF7FEFF 		bl	CL_Init
 838              	.LVL71:
 124:src/hardware.c ****   OffDevice(HW_MSR|HW_CLICC);           //25-07-17 JC ++
 839              		.loc 1 124 0
ARM GAS  C:\Users\AHMED~1.ELE\AppData\Local\Temp\cchj3JTE.s 			page 24


 840 005e 0320     		movs	r0, #3
 125:src/hardware.c **** }
 841              		.loc 1 125 0
 842 0060 02B0     		add	sp, sp, #8
 843              		.cfi_def_cfa_offset 16
 844              		@ sp needed
 845 0062 BDE87040 		pop	{r4, r5, r6, lr}
 846              		.cfi_restore 14
 847              		.cfi_restore 6
 848              		.cfi_restore 5
 849              		.cfi_restore 4
 850              		.cfi_def_cfa_offset 0
 851              	.LVL72:
 124:src/hardware.c ****   OffDevice(HW_MSR|HW_CLICC);           //25-07-17 JC ++
 852              		.loc 1 124 0
 853 0066 FFF7FEBF 		b	OffDevice
 854              	.LVL73:
 855              	.L99:
 856 006a 00BF     		.align	2
 857              	.L98:
 858 006c 00000000 		.word	gMsrHandle
 859 0070 00000000 		.word	gIccHandle
 860 0074 00000000 		.word	gGprsHandle
 861 0078 00000000 		.word	gAux1Handle
 862 007c 00000000 		.word	gPppHandle
 863 0080 00000000 		.word	gAux2Handle
 864 0084 00000000 		.word	gLptHandle
 865 0088 00000000 		.word	gCdc1Handle
 866 008c 00000000 		.word	gTimerHdl
 867              		.cfi_endproc
 868              	.LFE0:
 869              		.size	InitAllHw, .-InitAllHw
 870              		.section	.text.OnDevice,"ax",%progbits
 871              		.align	1
 872              		.global	OnDevice
 873              		.thumb
 874              		.thumb_func
 875              		.type	OnDevice, %function
 876              	OnDevice:
 877              	.LFB10:
 413:src/hardware.c **** //*****************************************************************************
 414:src/hardware.c **** //  Function        : OnDevice
 415:src/hardware.c **** //  Description     : On device base on the input..
 416:src/hardware.c **** //  Input           : N/A
 417:src/hardware.c **** //  Return          : N/A
 418:src/hardware.c **** //  Note            : //25-07-17 JC ++
 419:src/hardware.c **** //  Globals Changed : N/A
 420:src/hardware.c **** //*****************************************************************************
 421:src/hardware.c **** void OnDevice(DWORD aHw)
 422:src/hardware.c **** {
 878              		.loc 1 422 0
 879              		.cfi_startproc
 880              		@ args = 0, pretend = 0, frame = 0
 881              		@ frame_needed = 0, uses_anonymous_args = 0
 882              	.LVL74:
 423:src/hardware.c ****    if (aHw & HW_MSR) {
 883              		.loc 1 423 0
ARM GAS  C:\Users\AHMED~1.ELE\AppData\Local\Temp\cchj3JTE.s 			page 25


 884 0000 C207     		lsls	r2, r0, #31
 422:src/hardware.c ****    if (aHw & HW_MSR) {
 885              		.loc 1 422 0
 886 0002 13B5     		push	{r0, r1, r4, lr}
 887              		.cfi_def_cfa_offset 16
 888              		.cfi_offset 4, -8
 889              		.cfi_offset 14, -4
 422:src/hardware.c ****    if (aHw & HW_MSR) {
 890              		.loc 1 422 0
 891 0004 0446     		mov	r4, r0
 892              		.loc 1 423 0
 893 0006 08D5     		bpl	.L101
 424:src/hardware.c ****      gMsrHandle = APM_GetHwHandle(APM_SDEV_MSR);
 894              		.loc 1 424 0
 895 0008 0021     		movs	r1, #0
 896 000a 0B46     		mov	r3, r1
 897 000c 0091     		str	r1, [sp]
 898 000e 1020     		movs	r0, #16
 899              	.LVL75:
 900 0010 0A46     		mov	r2, r1
 901 0012 FFF7FEFF 		bl	lib_app_call
 902              	.LVL76:
 903 0016 084B     		ldr	r3, .L111
 904 0018 1860     		str	r0, [r3]
 905              	.L101:
 425:src/hardware.c ****    }
 426:src/hardware.c **** 
 427:src/hardware.c ****    if ((aHw & HW_CLICC) && CTLEnabled()) {
 906              		.loc 1 427 0
 907 001a A307     		lsls	r3, r4, #30
 908 001c 0AD5     		bpl	.L100
 909              		.loc 1 427 0 is_stmt 0 discriminator 1
 910 001e FFF7FEFF 		bl	CTLEnabled
 911              	.LVL77:
 912 0022 38B1     		cbz	r0, .L100
 428:src/hardware.c ****      CL_Init();
 913              		.loc 1 428 0 is_stmt 1
 914 0024 FFF7FEFF 		bl	CL_Init
 915              	.LVL78:
 429:src/hardware.c ****      CL_LedSet(CTL_LED_TRANS_IDLE);      // blink blue LED only
 916              		.loc 1 429 0
 917 0028 0720     		movs	r0, #7
 430:src/hardware.c ****    }
 431:src/hardware.c **** }
 918              		.loc 1 431 0
 919 002a 02B0     		add	sp, sp, #8
 920              		.cfi_remember_state
 921              		.cfi_def_cfa_offset 8
 922              		@ sp needed
 923 002c BDE81040 		pop	{r4, lr}
 924              		.cfi_restore 14
 925              		.cfi_restore 4
 926              		.cfi_def_cfa_offset 0
 927              	.LVL79:
 429:src/hardware.c ****      CL_LedSet(CTL_LED_TRANS_IDLE);      // blink blue LED only
 928              		.loc 1 429 0
 929 0030 FFF7FEBF 		b	CL_LedSet
ARM GAS  C:\Users\AHMED~1.ELE\AppData\Local\Temp\cchj3JTE.s 			page 26


 930              	.LVL80:
 931              	.L100:
 932              		.cfi_restore_state
 933              		.loc 1 431 0
 934 0034 02B0     		add	sp, sp, #8
 935              		.cfi_def_cfa_offset 8
 936              		@ sp needed
 937 0036 10BD     		pop	{r4, pc}
 938              	.LVL81:
 939              	.L112:
 940              		.align	2
 941              	.L111:
 942 0038 00000000 		.word	gMsrHandle
 943              		.cfi_endproc
 944              	.LFE10:
 945              		.size	OnDevice, .-OnDevice
 946              		.global	__aeabi_uidiv
 947              		.section	.text.PwrSleep,"ax",%progbits
 948              		.align	1
 949              		.global	PwrSleep
 950              		.thumb
 951              		.thumb_func
 952              		.type	PwrSleep, %function
 953              	PwrSleep:
 954              	.LFB11:
 432:src/hardware.c **** //*****************************************************************************
 433:src/hardware.c **** //  Function        : PwrSleep
 434:src/hardware.c **** //  Description     : Power sleep function.
 435:src/hardware.c **** //  Input           : N/A
 436:src/hardware.c **** //  Return          : N/A
 437:src/hardware.c **** //  Note            : //25-07-17 JC ++
 438:src/hardware.c **** //  Globals Changed : N/A
 439:src/hardware.c **** //*****************************************************************************
 440:src/hardware.c **** void PwrSleep(void)
 441:src/hardware.c **** {
 955              		.loc 1 441 0
 956              		.cfi_startproc
 957              		@ args = 0, pretend = 0, frame = 32
 958              		@ frame_needed = 0, uses_anonymous_args = 0
 959 0000 F0B5     		push	{r4, r5, r6, r7, lr}
 960              		.cfi_def_cfa_offset 20
 961              		.cfi_offset 4, -20
 962              		.cfi_offset 5, -16
 963              		.cfi_offset 6, -12
 964              		.cfi_offset 7, -8
 965              		.cfi_offset 14, -4
 442:src/hardware.c ****   static BOOLEAN msg_disp=FALSE;
 443:src/hardware.c ****   DWORD idle;
 444:src/hardware.c ****   BYTE buf[32];
 445:src/hardware.c ****   int ret;
 446:src/hardware.c ****   
 447:src/hardware.c ****   // return if no battery installed
 448:src/hardware.c ****   if ((os_hd_config() & K_HdBattery) == K_HdNoBattery)
 966              		.loc 1 448 0
 967 0002 4FF4D070 		mov	r0, #416
 441:src/hardware.c ****   static BOOLEAN msg_disp=FALSE;
 968              		.loc 1 441 0
ARM GAS  C:\Users\AHMED~1.ELE\AppData\Local\Temp\cchj3JTE.s 			page 27


 969 0006 8BB0     		sub	sp, sp, #44
 970              		.cfi_def_cfa_offset 64
 971              		.loc 1 448 0
 972 0008 FFF7FEFF 		bl	sys_func0
 973              	.LVL82:
 974 000c 4303     		lsls	r3, r0, #13
 975 000e 00F1BC80 		bmi	.L113
 449:src/hardware.c ****     return;
 450:src/hardware.c ****     
 451:src/hardware.c ****   // enter sleep after 2 minutes if no power connected
 452:src/hardware.c ****   if ((os_batt_level() & K_PowerPluggedIn) == 0) {
 976              		.loc 1 452 0
 977 0012 4FF48670 		mov	r0, #268
 978 0016 FFF7FEFF 		bl	sys_func0
 979              	.LVL83:
 980 001a 5D4C     		ldr	r4, .L141
 981 001c 10F08046 		ands	r6, r0, #1073741824
 982 0020 62D1     		bne	.L115
 453:src/hardware.c ****     if (FreeRunElapsed(gIdleCnt) > PSLEEP_IDLE_TIME) {
 983              		.loc 1 453 0
 984 0022 6068     		ldr	r0, [r4, #4]
 985 0024 FFF7FEFF 		bl	FreeRunElapsed
 986              	.LVL84:
 987 0028 4EF66023 		movw	r3, #60000
 988 002c 9842     		cmp	r0, r3
 989 002e 5ED9     		bls	.L116
 990              	.LVL85:
 991              	.LBB8:
 454:src/hardware.c ****       DispLineMW("", MW_MAX_LINE, MW_CLREOL|MW_SPFONT);
 992              		.loc 1 454 0
 993 0030 9220     		movs	r0, #146
 994 0032 0121     		movs	r1, #1
 995 0034 FFF7FEFF 		bl	sys_func1
 996              	.LVL86:
 997 0038 0546     		mov	r5, r0
 998 003a 70B1     		cbz	r0, .L117
 999              		.loc 1 454 0 is_stmt 0 discriminator 1
 1000 003c 42F22003 		movw	r3, #8224
 1001 0040 0670     		strb	r6, [r0]
 1002 0042 2521     		movs	r1, #37
 1003 0044 0093     		str	r3, [sp]
 1004 0046 0F20     		movs	r0, #15
 1005              	.LVL87:
 1006 0048 2A46     		mov	r2, r5
 1007 004a 4FF41063 		mov	r3, #2304
 1008 004e FFF7FEFF 		bl	lib_app_call
 1009              	.LVL88:
 1010 0052 9420     		movs	r0, #148
 1011 0054 2946     		mov	r1, r5
 1012 0056 FFF7FEFF 		bl	sys_func1
 1013              	.LVL89:
 1014              	.L117:
 1015              	.LBE8:
 455:src/hardware.c ****       msg_disp = FALSE;
 1016              		.loc 1 455 0 is_stmt 1
 1017 005a 0025     		movs	r5, #0
 1018              	.LVL90:
ARM GAS  C:\Users\AHMED~1.ELE\AppData\Local\Temp\cchj3JTE.s 			page 28


 456:src/hardware.c ****       ret = APM_PwrSleep(PSLEEP_WAKEUP_TIME);
 1019              		.loc 1 456 0
 1020 005c 3521     		movs	r1, #53
 1021 005e 4FF46172 		mov	r2, #900
 1022 0062 2B46     		mov	r3, r5
 1023 0064 0095     		str	r5, [sp]
 1024 0066 1020     		movs	r0, #16
 455:src/hardware.c ****       msg_disp = FALSE;
 1025              		.loc 1 455 0
 1026 0068 2572     		strb	r5, [r4, #8]
 1027              		.loc 1 456 0
 1028 006a FFF7FEFF 		bl	lib_app_call
 1029              	.LVL91:
 1030 006e 0646     		mov	r6, r0
 1031              	.LVL92:
 457:src/hardware.c ****       Short2Beep();
 1032              		.loc 1 457 0
 1033 0070 FFF7FEFF 		bl	Short2Beep
 1034              	.LVL93:
 458:src/hardware.c ****       gIdleCnt = FreeRunMark();
 1035              		.loc 1 458 0
 1036 0074 FFF7FEFF 		bl	FreeRunMark
 1037              	.LVL94:
 459:src/hardware.c ****       if (ret <= 0) {
 1038              		.loc 1 459 0
 1039 0078 AE42     		cmp	r6, r5
 458:src/hardware.c ****       gIdleCnt = FreeRunMark();
 1040              		.loc 1 458 0
 1041 007a 6060     		str	r0, [r4, #4]
 1042              		.loc 1 459 0
 1043 007c 30DC     		bgt	.L118
 460:src/hardware.c ****         os_disp_bl_control(256);
 1044              		.loc 1 460 0
 1045 007e 4FF48071 		mov	r1, #256
 1046 0082 2220     		movs	r0, #34
 1047 0084 FFF7FEFF 		bl	sys_func1
 1048              	.LVL95:
 461:src/hardware.c ****         SprintfMW(buf, "PwrSleep Err=%d\x05", ret);
 1049              		.loc 1 461 0
 1050 0088 3246     		mov	r2, r6
 1051 008a 4249     		ldr	r1, .L141+4
 1052 008c 02A8     		add	r0, sp, #8
 1053 008e FFF7FEFF 		bl	sprintf
 1054              	.LVL96:
 1055              	.LBB9:
 462:src/hardware.c ****         DispLineMW(buf, MW_MAX_LINE, MW_SPFONT);
 1056              		.loc 1 462 0
 1057 0092 02A8     		add	r0, sp, #8
 1058 0094 FFF7FEFF 		bl	strlen
 1059              	.LVL97:
 1060 0098 0746     		mov	r7, r0
 1061              	.LVL98:
 1062 009a 791C     		adds	r1, r7, #1
 1063 009c 9220     		movs	r0, #146
 1064              	.LVL99:
 1065 009e FFF7FEFF 		bl	sys_func1
 1066              	.LVL100:
ARM GAS  C:\Users\AHMED~1.ELE\AppData\Local\Temp\cchj3JTE.s 			page 29


 1067 00a2 0646     		mov	r6, r0
 1068              	.LVL101:
 1069 00a4 90B1     		cbz	r0, .L119
 1070              		.loc 1 462 0 is_stmt 0 discriminator 1
 1071 00a6 02A9     		add	r1, sp, #8
 1072 00a8 3A46     		mov	r2, r7
 1073 00aa FFF7FEFF 		bl	memcpy
 1074              	.LVL102:
 1075 00ae 4FF40053 		mov	r3, #8192
 1076 00b2 F555     		strb	r5, [r6, r7]
 1077 00b4 2521     		movs	r1, #37
 1078 00b6 0093     		str	r3, [sp]
 1079 00b8 0F20     		movs	r0, #15
 1080 00ba 3246     		mov	r2, r6
 1081 00bc 4FF41063 		mov	r3, #2304
 1082 00c0 FFF7FEFF 		bl	lib_app_call
 1083              	.LVL103:
 1084 00c4 9420     		movs	r0, #148
 1085 00c6 3146     		mov	r1, r6
 1086 00c8 FFF7FEFF 		bl	sys_func1
 1087              	.LVL104:
 1088              	.L119:
 1089              	.LBE9:
 463:src/hardware.c ****         LongBeep();
 1090              		.loc 1 463 0 is_stmt 1
 1091 00cc FFF7FEFF 		bl	LongBeep
 1092              	.LVL105:
 464:src/hardware.c ****         APM_WaitKey(1000, 0);
 1093              		.loc 1 464 0
 1094 00d0 0023     		movs	r3, #0
 1095 00d2 1020     		movs	r0, #16
 1096 00d4 0093     		str	r3, [sp]
 1097 00d6 0321     		movs	r1, #3
 1098 00d8 4FF47A72 		mov	r2, #1000
 1099 00dc FFF7FEFF 		bl	lib_app_call
 1100              	.LVL106:
 1101              	.L118:
 465:src/hardware.c ****       }
 466:src/hardware.c ****       RefreshDispAfter(0);
 1102              		.loc 1 466 0
 1103 00e0 0020     		movs	r0, #0
 1104 00e2 FFF7FEFF 		bl	RefreshDispAfter
 1105              	.LVL107:
 1106 00e6 02E0     		b	.L116
 1107              	.LVL108:
 1108              	.L115:
 467:src/hardware.c ****     }
 468:src/hardware.c ****   }
 469:src/hardware.c ****   else
 470:src/hardware.c ****     gIdleCnt = FreeRunMark();
 1109              		.loc 1 470 0
 1110 00e8 FFF7FEFF 		bl	FreeRunMark
 1111              	.LVL109:
 1112 00ec 6060     		str	r0, [r4, #4]
 1113              	.L116:
 471:src/hardware.c **** 
 472:src/hardware.c ****   idle = FreeRunElapsed(gIdleCnt);
ARM GAS  C:\Users\AHMED~1.ELE\AppData\Local\Temp\cchj3JTE.s 			page 30


 1114              		.loc 1 472 0
 1115 00ee 6068     		ldr	r0, [r4, #4]
 1116 00f0 FFF7FEFF 		bl	FreeRunElapsed
 1117              	.LVL110:
 473:src/hardware.c ****   if (idle > (PSLEEP_IDLE_TIME - PSLEEP_ALERT_TIME)) {
 1118              		.loc 1 473 0
 1119 00f4 4CF25033 		movw	r3, #50000
 1120 00f8 9842     		cmp	r0, r3
 1121 00fa 2BD9     		bls	.L120
 474:src/hardware.c ****     SprintfMW(buf, "Sleep in %d sec\x05", (PSLEEP_IDLE_TIME-idle)/1000);
 1122              		.loc 1 474 0
 1123 00fc C0F56A40 		rsb	r0, r0, #59904
 1124              	.LVL111:
 1125 0100 4FF47A71 		mov	r1, #1000
 1126 0104 6030     		adds	r0, r0, #96
 1127 0106 FFF7FEFF 		bl	__aeabi_uidiv
 1128              	.LVL112:
 1129 010a 2349     		ldr	r1, .L141+8
 1130 010c 0246     		mov	r2, r0
 1131 010e 02A8     		add	r0, sp, #8
 1132 0110 FFF7FEFF 		bl	sprintf
 1133              	.LVL113:
 1134              	.LBB10:
 475:src/hardware.c ****     DispLineMW(buf, MW_MAX_LINE, MW_SPFONT);
 1135              		.loc 1 475 0
 1136 0114 02A8     		add	r0, sp, #8
 1137 0116 FFF7FEFF 		bl	strlen
 1138              	.LVL114:
 1139 011a 0646     		mov	r6, r0
 1140              	.LVL115:
 1141 011c 711C     		adds	r1, r6, #1
 1142 011e 9220     		movs	r0, #146
 1143              	.LVL116:
 1144 0120 FFF7FEFF 		bl	sys_func1
 1145              	.LVL117:
 1146 0124 0546     		mov	r5, r0
 1147 0126 98B1     		cbz	r0, .L121
 1148              		.loc 1 475 0 is_stmt 0 discriminator 1
 1149 0128 02A9     		add	r1, sp, #8
 1150 012a 3246     		mov	r2, r6
 1151 012c FFF7FEFF 		bl	memcpy
 1152              	.LVL118:
 1153 0130 0023     		movs	r3, #0
 1154 0132 2521     		movs	r1, #37
 1155 0134 AB55     		strb	r3, [r5, r6]
 1156 0136 4FF40053 		mov	r3, #8192
 1157 013a 0F20     		movs	r0, #15
 1158 013c 0093     		str	r3, [sp]
 1159 013e 2A46     		mov	r2, r5
 1160 0140 4FF41063 		mov	r3, #2304
 1161 0144 FFF7FEFF 		bl	lib_app_call
 1162              	.LVL119:
 1163 0148 9420     		movs	r0, #148
 1164 014a 2946     		mov	r1, r5
 1165 014c FFF7FEFF 		bl	sys_func1
 1166              	.LVL120:
 1167              	.L121:
ARM GAS  C:\Users\AHMED~1.ELE\AppData\Local\Temp\cchj3JTE.s 			page 31


 1168              	.LBE10:
 476:src/hardware.c ****     msg_disp = TRUE;
 1169              		.loc 1 476 0 is_stmt 1
 1170 0150 0123     		movs	r3, #1
 1171 0152 19E0     		b	.L140
 1172              	.LVL121:
 1173              	.L120:
 477:src/hardware.c ****   }
 478:src/hardware.c ****   else {
 479:src/hardware.c ****     if (msg_disp) {
 1174              		.loc 1 479 0
 1175 0154 0E4B     		ldr	r3, .L141
 1176 0156 1B7A     		ldrb	r3, [r3, #8]	@ zero_extendqisi2
 1177 0158 BBB1     		cbz	r3, .L113
 1178              	.LVL122:
 1179              	.LBB11:
 480:src/hardware.c ****       DispLineMW("", MW_MAX_LINE, MW_CLREOL|MW_SPFONT);
 1180              		.loc 1 480 0
 1181 015a 9220     		movs	r0, #146
 1182              	.LVL123:
 1183 015c 0121     		movs	r1, #1
 1184 015e FFF7FEFF 		bl	sys_func1
 1185              	.LVL124:
 1186 0162 0546     		mov	r5, r0
 1187 0164 78B1     		cbz	r0, .L123
 1188              		.loc 1 480 0 is_stmt 0 discriminator 1
 1189 0166 0023     		movs	r3, #0
 1190 0168 2521     		movs	r1, #37
 1191 016a 0370     		strb	r3, [r0]
 1192 016c 42F22003 		movw	r3, #8224
 1193 0170 0F20     		movs	r0, #15
 1194              	.LVL125:
 1195 0172 0093     		str	r3, [sp]
 1196 0174 2A46     		mov	r2, r5
 1197 0176 4FF41063 		mov	r3, #2304
 1198 017a FFF7FEFF 		bl	lib_app_call
 1199              	.LVL126:
 1200 017e 9420     		movs	r0, #148
 1201 0180 2946     		mov	r1, r5
 1202 0182 FFF7FEFF 		bl	sys_func1
 1203              	.LVL127:
 1204              	.L123:
 1205              	.LBE11:
 481:src/hardware.c ****       msg_disp = FALSE;
 1206              		.loc 1 481 0 is_stmt 1
 1207 0186 0023     		movs	r3, #0
 1208              	.LVL128:
 1209              	.L140:
 1210 0188 2372     		strb	r3, [r4, #8]
 1211              	.L113:
 482:src/hardware.c ****     }
 483:src/hardware.c ****   }
 484:src/hardware.c **** }
 1212              		.loc 1 484 0
 1213 018a 0BB0     		add	sp, sp, #44
 1214              		.cfi_def_cfa_offset 20
 1215              		@ sp needed
ARM GAS  C:\Users\AHMED~1.ELE\AppData\Local\Temp\cchj3JTE.s 			page 32


 1216 018c F0BD     		pop	{r4, r5, r6, r7, pc}
 1217              	.L142:
 1218 018e 00BF     		.align	2
 1219              	.L141:
 1220 0190 00000000 		.word	.LANCHOR0
 1221 0194 00000000 		.word	.LC0
 1222 0198 11000000 		.word	.LC1
 1223              		.cfi_endproc
 1224              	.LFE11:
 1225              		.size	PwrSleep, .-PwrSleep
 1226              		.global	gIdleCnt
 1227              		.comm	gPppHandle,4,4
 1228              		.comm	gGprsHandle,4,4
 1229              		.comm	gCdc1Handle,4,4
 1230              		.comm	gLptHandle,4,4
 1231              		.comm	gAux2Handle,4,4
 1232              		.comm	gAux1Handle,4,4
 1233              		.comm	gIccHandle,4,4
 1234              		.comm	gMsrHandle,4,4
 1235              		.comm	gTimerHdl,28,4
 1236              		.section	.rodata.str1.1,"aMS",%progbits,1
 1237              	.LC0:
 1238 0000 50777253 		.ascii	"PwrSleep Err=%d\005\000"
 1238      6C656570 
 1238      20457272 
 1238      3D256405 
 1238      00
 1239              	.LC1:
 1240 0011 536C6565 		.ascii	"Sleep in %d sec\005\000"
 1240      7020696E 
 1240      20256420 
 1240      73656305 
 1240      00
 1241              		.bss
 1242              		.align	2
 1243              		.set	.LANCHOR0,. + 0
 1244              		.type	bSMCLocked, %object
 1245              		.size	bSMCLocked, 1
 1246              	bSMCLocked:
 1247 0000 00       		.space	1
 1248 0001 000000   		.space	3
 1249              		.type	gIdleCnt, %object
 1250              		.size	gIdleCnt, 4
 1251              	gIdleCnt:
 1252 0004 00000000 		.space	4
 1253              		.type	msg_disp.12070, %object
 1254              		.size	msg_disp.12070, 1
 1255              	msg_disp.12070:
 1256 0008 00       		.space	1
 1257 0009 000000   		.text
 1258              	.Letext0:
 1259              		.file 2 "c:\\devtools\\gcc_v49_2014q4\\lib\\gcc\\arm-none-eabi\\4.9.3\\include\\stddef.h"
 1260              		.file 3 "../LibA5T1000/common.h"
 1261              		.file 4 "../LibA5T1000/midware.h"
 1262              		.file 5 "../LibA5T1000/system.h"
 1263              		.file 6 "../LibA5T1000/apm.h"
 1264              		.file 7 "../LibA5T1000/emv2dll.h"
ARM GAS  C:\Users\AHMED~1.ELE\AppData\Local\Temp\cchj3JTE.s 			page 33


 1265              		.file 8 "src/ctltrans.h"
 1266              		.file 9 "src/sysutil.h"
 1267              		.file 10 "src/corevar.h"
 1268              		.file 11 "c:\\devtools\\gcc_v49_2014q4\\arm-none-eabi\\include\\string.h"
 1269              		.file 12 "c:\\devtools\\gcc_v49_2014q4\\arm-none-eabi\\include\\stdio.h"