ARM GAS  C:\Users\AHMED~1.ELE\AppData\Local\Temp\cc0wYKcg.s 			page 1


   1              		.syntax unified
   2              		.cpu cortex-a5
   3              		.fpu softvfp
   4              		.eabi_attribute 20, 1
   5              		.eabi_attribute 21, 1
   6              		.eabi_attribute 23, 3
   7              		.eabi_attribute 24, 1
   8              		.eabi_attribute 25, 1
   9              		.eabi_attribute 26, 1
  10              		.eabi_attribute 30, 4
  11              		.eabi_attribute 34, 0
  12              		.eabi_attribute 18, 4
  13              		.thumb
  14              		.file	"hostmsg.c"
  15              		.text
  16              	.Ltext0:
  17              		.cfi_sections	.debug_frame
  18              		.section	.text.print_field.isra.0,"ax",%progbits
  19              		.align	1
  20              		.thumb
  21              		.thumb_func
  22              		.type	print_field.isra.0, %function
  23              	print_field.isra.0:
  24              	.LFB8:
  25              		.file 1 "src/hostmsg.c"
   1:src/hostmsg.c **** //-----------------------------------------------------------------------------
   2:src/hostmsg.c **** //  File          : hostmsg.c
   3:src/hostmsg.c **** //  Module        :
   4:src/hostmsg.c **** //  Description   : Include routines to Pack/Unpack Host Message.
   5:src/hostmsg.c **** //  Author        : Lewis
   6:src/hostmsg.c **** //  Notes         :
   7:src/hostmsg.c **** //
   8:src/hostmsg.c **** // ============================================================================
   9:src/hostmsg.c **** // | Naming conventions                                                       |
  10:src/hostmsg.c **** // | ~~~~~~~~~~~~~~~~~~                                                       |
  11:src/hostmsg.c **** // |        Struct define : Leading T                                         |
  12:src/hostmsg.c **** // |         Struct/Array : Leading s                                         |
  13:src/hostmsg.c **** // |             Constant : Leading K                                         |
  14:src/hostmsg.c **** // |      Global Variable : Leading g  (variable use outside one C file)      |
  15:src/hostmsg.c **** // |                                                                          |
  16:src/hostmsg.c **** // |   BYTE( 8 Bits) size : Leading b                                         |
  17:src/hostmsg.c **** // |   CHAR( 8 Bits) size : Leading c                                         |
  18:src/hostmsg.c **** // |   WORD(16 Bits) size : Leading w                                         |
  19:src/hostmsg.c **** // |  DWORD(32 Bits) size : Leading d                                         |
  20:src/hostmsg.c **** // |    int(32 Bits) size : Leading i                                         |
  21:src/hostmsg.c **** // | DDWORD(64 Bits) size : Leading dd                                        |
  22:src/hostmsg.c **** // |              Pointer : Leading p                                         |
  23:src/hostmsg.c **** // |                                                                          |
  24:src/hostmsg.c **** // |    Function argument : Leading a                                         |
  25:src/hostmsg.c **** // |       Local Variable : All lower case                                    |
  26:src/hostmsg.c **** // |                                                                          |
  27:src/hostmsg.c **** // | Examples:                                                                |
  28:src/hostmsg.c **** // |                Array : Leading s, (sb = arrary of byte, etc)             |
  29:src/hostmsg.c **** // |              Pointer : Leading p, (pb = pointer of byte, etc)            |
  30:src/hostmsg.c **** // ============================================================================
  31:src/hostmsg.c **** //
  32:src/hostmsg.c **** //  Date          Who         Action
ARM GAS  C:\Users\AHMED~1.ELE\AppData\Local\Temp\cc0wYKcg.s 			page 2


  33:src/hostmsg.c **** //  ------------  ----------- -------------------------------------------------
  34:src/hostmsg.c **** //  29 Sept 2008  Lewis       Initial Version.
  35:src/hostmsg.c **** //-----------------------------------------------------------------------------
  36:src/hostmsg.c **** #include <stdio.h>
  37:src/hostmsg.c **** #include <string.h>
  38:src/hostmsg.c **** #include "corevar.h"
  39:src/hostmsg.c **** #include "chkoptn.h"
  40:src/hostmsg.c **** #include "constant.h"
  41:src/hostmsg.c **** #include "record.h"
  42:src/hostmsg.c **** #include "message.h"
  43:src/hostmsg.c **** #include "tranutil.h"
  44:src/hostmsg.c **** #include "util.h"
  45:src/hostmsg.c **** #include "sysutil.h"
  46:src/hostmsg.c **** #include "emvtrans.h"
  47:src/hostmsg.c **** #include "hostmsg.h"
  48:src/hostmsg.c **** #include "auxcom.h"
  49:src/hostmsg.c **** #include "coremain.h"
  50:src/hostmsg.c **** 
  51:src/hostmsg.c **** 
  52:src/hostmsg.c **** 
  53:src/hostmsg.c ****     BYTE field[300];
  54:src/hostmsg.c **** 
  55:src/hostmsg.c **** 
  56:src/hostmsg.c **** 
  57:src/hostmsg.c **** 
  58:src/hostmsg.c **** //*****************************************************************************
  59:src/hostmsg.c **** //  Function        : print fields
  60:src/hostmsg.c **** //  Description     : print lenght
  61:src/hostmsg.c **** //  Input           : N/A
  62:src/hostmsg.c **** //  Return          : Transaction status
  63:src/hostmsg.c **** //  Note            : N/A
  64:src/hostmsg.c **** //  Globals Changed : N/A
  65:src/hostmsg.c **** //*****************************************************************************
  66:src/hostmsg.c **** static void print_field(int aLen,int num)
  26              		.loc 1 66 0
  27              		.cfi_startproc
  28              		@ args = 0, pretend = 0, frame = 0
  29              		@ frame_needed = 0, uses_anonymous_args = 0
  30              		@ link register save eliminated.
  31              	.LVL0:
  32              		.loc 1 66 0
  33 0000 0146     		mov	r1, r0
  67:src/hostmsg.c **** {
  68:src/hostmsg.c ****     
  69:src/hostmsg.c **** 
  70:src/hostmsg.c ****     int i=0;
  71:src/hostmsg.c **** 
  72:src/hostmsg.c ****     
  73:src/hostmsg.c ****     get_mem(field, aLen);
  34              		.loc 1 73 0
  35 0002 0148     		ldr	r0, .L2
  36              	.LVL1:
  37 0004 FFF7FEBF 		b	get_mem
  38              	.LVL2:
  39              	.L3:
  40              		.align	2
  41              	.L2:
ARM GAS  C:\Users\AHMED~1.ELE\AppData\Local\Temp\cc0wYKcg.s 			page 3


  42 0008 00000000 		.word	field
  43              		.cfi_endproc
  44              	.LFE8:
  45              		.size	print_field.isra.0, .-print_field.isra.0
  46              		.section	.text.PackProcCode,"ax",%progbits
  47              		.align	1
  48              		.global	PackProcCode
  49              		.thumb
  50              		.thumb_func
  51              		.type	PackProcCode, %function
  52              	PackProcCode:
  53              	.LFB5:
  74:src/hostmsg.c **** 
  75:src/hostmsg.c ****     
  76:src/hostmsg.c ****   //  printf("\f");
  77:src/hostmsg.c ****     
  78:src/hostmsg.c **** //   printf("field%d \n",num);
  79:src/hostmsg.c ****     
  80:src/hostmsg.c ****  //  i=0;
  81:src/hostmsg.c ****  //   while (i < aLen)
  82:src/hostmsg.c ****  //   {
  83:src/hostmsg.c ****   //    printf("%02X:",(int)field[i]);
  84:src/hostmsg.c ****   //     i++;
  85:src/hostmsg.c ****   //  }
  86:src/hostmsg.c ****  //  APM_WaitKey(9000, 0);
  87:src/hostmsg.c **** }
  88:src/hostmsg.c **** 
  89:src/hostmsg.c **** //*****************************************************************************
  90:src/hostmsg.c **** //  Function        : TrainiingRsp
  91:src/hostmsg.c **** //  Description     : Generate training response.
  92:src/hostmsg.c **** //  Input           : N/A
  93:src/hostmsg.c **** //  Return          : Transaction status
  94:src/hostmsg.c **** //  Note            : N/A
  95:src/hostmsg.c **** //  Globals Changed : N/A
  96:src/hostmsg.c **** //*****************************************************************************
  97:src/hostmsg.c **** static BYTE TrainingRsp(void)
  98:src/hostmsg.c **** {
  99:src/hostmsg.c ****   struct DATETIME dtg;
 100:src/hostmsg.c **** 
 101:src/hostmsg.c ****   ReadRTC(&dtg);
 102:src/hostmsg.c ****   memcpy(&RSP_DATA.s_dtg.b_year, &dtg.b_year, 6);
 103:src/hostmsg.c ****   memset(RSP_DATA.sb_auth_code, '0', sizeof(RSP_DATA.sb_auth_code));
 104:src/hostmsg.c ****   split(RSP_DATA.sb_rrn, &dtg.b_year, 6);
 105:src/hostmsg.c ****   RSP_DATA.b_response = TRANS_ACP;
 106:src/hostmsg.c ****   RSP_DATA.w_rspcode = '0'*256+'0';
 107:src/hostmsg.c ****   RSP_DATA.dd_amount = 0;
 108:src/hostmsg.c ****   memset(&RSP_DATA.text[21], ' ', 20);
 109:src/hostmsg.c ****   return TRANS_ACP;
 110:src/hostmsg.c **** }
 111:src/hostmsg.c **** //*****************************************************************************
 112:src/hostmsg.c **** //  Function        : Match
 113:src/hostmsg.c **** //  Description     : Compare current pointer to buffer.
 114:src/hostmsg.c **** //  Input           : aPtr;    // pointer to buffer needs to Match.
 115:src/hostmsg.c **** //                    aLen;    // no. of byte to Match.
 116:src/hostmsg.c **** //  Return          : N/A
 117:src/hostmsg.c **** //  Note            : N/A
 118:src/hostmsg.c **** //  Globals Changed : N/A
ARM GAS  C:\Users\AHMED~1.ELE\AppData\Local\Temp\cc0wYKcg.s 			page 4


 119:src/hostmsg.c **** //*****************************************************************************
 120:src/hostmsg.c **** static BOOLEAN Match(void *aPtr, BYTE aLen)
 121:src/hostmsg.c **** {
 122:src/hostmsg.c ****   BOOLEAN result;
 123:src/hostmsg.c **** 
 124:src/hostmsg.c ****   result = (memcmp(aPtr, get_pptr(), aLen) == 0);
 125:src/hostmsg.c ****   inc_pptr(aLen);
 126:src/hostmsg.c ****   return(result);
 127:src/hostmsg.c **** }
 128:src/hostmsg.c **** //*****************************************************************************
 129:src/hostmsg.c **** //  Function        : BcdBin8b
 130:src/hostmsg.c **** //  Description     : Convert max 6 bytes of bcd number to DDWORD.
 131:src/hostmsg.c **** //  Input           : aSrc;        // pointer src bcd number
 132:src/hostmsg.c **** //                    aLen;        // no. of byte of the bcd number to be conv.
 133:src/hostmsg.c **** //  Return          : N/A
 134:src/hostmsg.c **** //  Note            : N/A
 135:src/hostmsg.c **** //  Globals Changed : N/A
 136:src/hostmsg.c **** //*****************************************************************************
 137:src/hostmsg.c **** static DDWORD BcdBin8b(void *aSrc,BYTE aLen)
 138:src/hostmsg.c **** {
 139:src/hostmsg.c ****   BYTE buffer[12];
 140:src/hostmsg.c **** 
 141:src/hostmsg.c ****   if (aLen < 7) {
 142:src/hostmsg.c ****     split(buffer,aSrc,aLen);
 143:src/hostmsg.c ****     return decbin4b(buffer,(BYTE)(aLen*2));
 144:src/hostmsg.c ****   }
 145:src/hostmsg.c ****   return 0;
 146:src/hostmsg.c **** }
 147:src/hostmsg.c **** //*****************************************************************************
 148:src/hostmsg.c **** //  Function        : SyncHostDtg
 149:src/hostmsg.c **** //  Description     : Sync RTC with HOST date & time.
 150:src/hostmsg.c **** //  Input           : N/A
 151:src/hostmsg.c **** //  Return          : N/A
 152:src/hostmsg.c **** //  Note            : N/A
 153:src/hostmsg.c **** //  Globals Changed : N/A
 154:src/hostmsg.c **** //*****************************************************************************
 155:src/hostmsg.c **** static void SyncHostDtg(void)
 156:src/hostmsg.c **** {
 157:src/hostmsg.c ****   BYTE tmp;
 158:src/hostmsg.c ****   struct DATETIME dtg;
 159:src/hostmsg.c **** 
 160:src/hostmsg.c ****   ReadRTC(&dtg);
 161:src/hostmsg.c ****   RSP_DATA.s_dtg.b_century = dtg.b_century;
 162:src/hostmsg.c ****   RSP_DATA.s_dtg.b_year = dtg.b_year;
 163:src/hostmsg.c ****   tmp = 1;
 164:src/hostmsg.c ****   if ((RSP_DATA.s_dtg.b_month == 0x12) && (dtg.b_month == 0x01))
 165:src/hostmsg.c ****     bcdsub(&RSP_DATA.s_dtg.b_year,&tmp,1);
 166:src/hostmsg.c ****   else
 167:src/hostmsg.c ****     if ((RSP_DATA.s_dtg.b_month == 0x01) && (dtg.b_month == 0x12))
 168:src/hostmsg.c ****       bcdadd(&RSP_DATA.s_dtg.b_year,&tmp,1);
 169:src/hostmsg.c ****   ByteCopy((BYTE *)&dtg, (BYTE *)&RSP_DATA.s_dtg, sizeof(struct DATETIME));
 170:src/hostmsg.c ****   SetRTC(&dtg);
 171:src/hostmsg.c **** }
 172:src/hostmsg.c **** //*****************************************************************************
 173:src/hostmsg.c **** //  Function        : PackProcCode
 174:src/hostmsg.c **** //  Description     : Pack the processing code for input transaction type,
 175:src/hostmsg.c **** //  Input           : aTrans;      // transaction type
ARM GAS  C:\Users\AHMED~1.ELE\AppData\Local\Temp\cc0wYKcg.s 			page 5


 176:src/hostmsg.c **** //                    aProcCode;   // 2nd byte of processing code
 177:src/hostmsg.c **** //  Return          : N/A
 178:src/hostmsg.c **** //  Note            : when aProcCode != 0xFF => use INPUT.b_acc_ind
 179:src/hostmsg.c **** //  Globals Changed : TX_DATA.sb_proc_code[];
 180:src/hostmsg.c **** //*****************************************************************************
 181:src/hostmsg.c **** void PackProcCode(BYTE aTrans, BYTE aProcCode)
 182:src/hostmsg.c **** {
  54              		.loc 1 182 0
  55              		.cfi_startproc
  56              		@ args = 0, pretend = 0, frame = 0
  57              		@ frame_needed = 0, uses_anonymous_args = 0
  58              		@ link register save eliminated.
  59              	.LVL3:
 183:src/hostmsg.c ****    TX_DATA.sb_proc_code[0] = KTransBitmap[aTrans].b_proc_code;
  60              		.loc 1 183 0
  61 0000 0C4A     		ldr	r2, .L14
  62 0002 1823     		movs	r3, #24
 184:src/hostmsg.c **** 
 185:src/hostmsg.c ****   if (aTrans == ADJUST)
  63              		.loc 1 185 0
  64 0004 0B28     		cmp	r0, #11
 183:src/hostmsg.c ****    TX_DATA.sb_proc_code[0] = KTransBitmap[aTrans].b_proc_code;
  65              		.loc 1 183 0
  66 0006 03FB0023 		mla	r3, r3, r0, r2
  67 000a 9A7C     		ldrb	r2, [r3, #18]	@ zero_extendqisi2
  68 000c 0A4B     		ldr	r3, .L14+4
  69              		.loc 1 185 0
  70 000e 01D1     		bne	.L5
 186:src/hostmsg.c ****     TX_DATA.sb_proc_code[0] = 2;
  71              		.loc 1 186 0
  72 0010 0222     		movs	r2, #2
  73 0012 04E0     		b	.L12
  74              	.L5:
 187:src/hostmsg.c ****   else
 188:src/hostmsg.c ****     if ((aTrans <= AUTH_MANUAL) || (aTrans == AUTH_ICC))  // !2005-09-21
  75              		.loc 1 188 0
  76 0014 0128     		cmp	r0, #1
  77 0016 01D9     		bls	.L7
  78              		.loc 1 188 0 is_stmt 0 discriminator 1
  79 0018 1028     		cmp	r0, #16
  80 001a 00D1     		bne	.L12
  81              	.L7:
 189:src/hostmsg.c ****       TX_DATA.sb_proc_code[0] = 0x30;
  82              		.loc 1 189 0 is_stmt 1
  83 001c 3022     		movs	r2, #48
  84              	.L12:
 190:src/hostmsg.c **** 
 191:src/hostmsg.c ****   if (aProcCode == 0xFF)
  85              		.loc 1 191 0
  86 001e FF29     		cmp	r1, #255
 189:src/hostmsg.c ****       TX_DATA.sb_proc_code[0] = 0x30;
  87              		.loc 1 189 0
  88 0020 83F8A826 		strb	r2, [r3, #1704]
 192:src/hostmsg.c ****     aProcCode = INPUT.b_acc_ind;
  89              		.loc 1 192 0
  90 0024 08BF     		it	eq
  91 0026 9979     		ldrbeq	r1, [r3, #6]	@ zero_extendqisi2
ARM GAS  C:\Users\AHMED~1.ELE\AppData\Local\Temp\cc0wYKcg.s 			page 6


  92              	.LVL4:
 193:src/hostmsg.c **** 
 194:src/hostmsg.c ****   TX_DATA.sb_proc_code[1] = aProcCode;
 195:src/hostmsg.c ****   TX_DATA.sb_proc_code[2] = 0;
  93              		.loc 1 195 0
  94 0028 0022     		movs	r2, #0
 194:src/hostmsg.c ****   TX_DATA.sb_proc_code[2] = 0;
  95              		.loc 1 194 0
  96 002a 83F8A916 		strb	r1, [r3, #1705]
  97              		.loc 1 195 0
  98 002e 83F8AA26 		strb	r2, [r3, #1706]
  99 0032 7047     		bx	lr
 100              	.L15:
 101              		.align	2
 102              	.L14:
 103 0034 00000000 		.word	KTransBitmap
 104 0038 00000000 		.word	gGTS
 105              		.cfi_endproc
 106              	.LFE5:
 107              		.size	PackProcCode, .-PackProcCode
 108              		.section	.text.PackHostMsg,"ax",%progbits
 109              		.align	1
 110              		.global	PackHostMsg
 111              		.thumb
 112              		.thumb_func
 113              		.type	PackHostMsg, %function
 114              	PackHostMsg:
 115              	.LFB6:
 196:src/hostmsg.c **** }
 197:src/hostmsg.c **** /*********************************************************************/
 198:src/hostmsg.c **** /*  This procedure fills stxbuf with information required according  */
 199:src/hostmsg.c **** /*  to the BOOLEAN map of the trans.                                 */
 200:src/hostmsg.c **** /*  02. primary account number   03. processing code                 */
 201:src/hostmsg.c **** /*  04. amount, transaction      11. system trace number             */
 202:src/hostmsg.c **** /*  12. local transaction time   13. local transaction date          */
 203:src/hostmsg.c **** /*  14. card expiration date     22. entry mode                      */
 204:src/hostmsg.c **** /*  24. netword int'l id.        25. condition code                  */
 205:src/hostmsg.c **** /*  35. track 2 data             37. retrieval reference number      */
 206:src/hostmsg.c **** /*  38. authorization id.        39. response code                   */
 207:src/hostmsg.c **** /*  41. terminal id              42. card acceptor id                */
 208:src/hostmsg.c **** /*  44. additional resp data     45. track 1 data                    */
 209:src/hostmsg.c **** /*  52. PIN                                                          */
 210:src/hostmsg.c **** /*  54. additional amount        60. private - org. amount           */
 211:src/hostmsg.c **** /*  61. product code             62. private - invoice no            */
 212:src/hostmsg.c **** /*  63. settlement totals        64. MAC                             */
 213:src/hostmsg.c **** /*********************************************************************/
 214:src/hostmsg.c **** void PackHostMsg(void)
 215:src/hostmsg.c **** {
 116              		.loc 1 215 0
 117              		.cfi_startproc
 118              		@ args = 0, pretend = 0, frame = 208
 119              		@ frame_needed = 0, uses_anonymous_args = 0
 120 0000 2DE9F043 		push	{r4, r5, r6, r7, r8, r9, lr}
 121              		.cfi_def_cfa_offset 28
 122              		.cfi_offset 4, -28
 123              		.cfi_offset 5, -24
 124              		.cfi_offset 6, -20
ARM GAS  C:\Users\AHMED~1.ELE\AppData\Local\Temp\cc0wYKcg.s 			page 7


 125              		.cfi_offset 7, -16
 126              		.cfi_offset 8, -12
 127              		.cfi_offset 9, -8
 128              		.cfi_offset 14, -4
 129 0004 B7B0     		sub	sp, sp, #220
 130              		.cfi_def_cfa_offset 248
 216:src/hostmsg.c ****    BYTE *len_ptr, *bitmap_ptr;
 217:src/hostmsg.c ****   BYTE tx_bitmap[16];
 218:src/hostmsg.c ****   BYTE var_i, var_j;
 219:src/hostmsg.c ****    BYTE buf[128], tmp[10],length[4]; // request by dbin2bcd
 220:src/hostmsg.c ****   struct DESC_TBL prod;
 221:src/hostmsg.c ****   BYTE date_time[14];
 222:src/hostmsg.c **** 
 223:src/hostmsg.c **** 
 224:src/hostmsg.c ****   TxBufSetup(ExtraMsgLen());
 131              		.loc 1 224 0
 132 0006 FFF7FEFF 		bl	ExtraMsgLen
 133              	.LVL5:
 225:src/hostmsg.c **** 
 226:src/hostmsg.c ****  // len_ptr = get_pptr();     // 4-byte length
 227:src/hostmsg.c **** /* PowerCard header */
 228:src/hostmsg.c **** pack_byte(0x49);
 229:src/hostmsg.c **** pack_byte(0x53);
 230:src/hostmsg.c **** pack_byte(0x4F);
 231:src/hostmsg.c **** 
 232:src/hostmsg.c **** //pack_byte(0x30);
 233:src/hostmsg.c **** //pack_byte(0x34);
 234:src/hostmsg.c **** //pack_byte(0x36);
 235:src/hostmsg.c **** //pack_byte(0x35);
 236:src/hostmsg.c **** 
 237:src/hostmsg.c **** len_ptr = get_pptr();     // 4-byte length
 238:src/hostmsg.c **** inc_pptr(4);
 239:src/hostmsg.c **** 
 240:src/hostmsg.c **** 
 241:src/hostmsg.c **** pack_byte(0x32);
 242:src/hostmsg.c **** pack_byte(0x31);
 243:src/hostmsg.c **** pack_byte(0x31);
 244:src/hostmsg.c **** pack_byte(0x31);
 245:src/hostmsg.c **** pack_byte(0x30);
 246:src/hostmsg.c **** pack_byte(0x35);
 247:src/hostmsg.c **** pack_byte(0x30);
 248:src/hostmsg.c **** pack_byte(0x30);
 249:src/hostmsg.c **** pack_byte(0x30);
 250:src/hostmsg.c **** /* PowerCard header */
 251:src/hostmsg.c **** 
 252:src/hostmsg.c **** /* PowerCard Message id */
 253:src/hostmsg.c **** //pack_byte(0x31);
 254:src/hostmsg.c **** //pack_byte(0x32);
 255:src/hostmsg.c **** //pack_byte(0x30);
 256:src/hostmsg.c **** //pack_byte(0x30);
 257:src/hostmsg.c ****   SprintfMW(buf, "%04X", KTransBitmap[TX_DATA.b_trans].w_txmsg_id);
 134              		.loc 1 257 0
 135 000a B14C     		ldr	r4, .L292
 224:src/hostmsg.c **** 
 136              		.loc 1 224 0
 137 000c FFF7FEFF 		bl	TxBufSetup
 138              	.LVL6:
ARM GAS  C:\Users\AHMED~1.ELE\AppData\Local\Temp\cc0wYKcg.s 			page 8


 228:src/hostmsg.c **** pack_byte(0x53);
 139              		.loc 1 228 0
 140 0010 4920     		movs	r0, #73
 141 0012 FFF7FEFF 		bl	pack_byte
 142              	.LVL7:
 229:src/hostmsg.c **** pack_byte(0x4F);
 143              		.loc 1 229 0
 144 0016 5320     		movs	r0, #83
 145 0018 FFF7FEFF 		bl	pack_byte
 146              	.LVL8:
 230:src/hostmsg.c **** 
 147              		.loc 1 230 0
 148 001c 4F20     		movs	r0, #79
 149 001e FFF7FEFF 		bl	pack_byte
 150              	.LVL9:
 151              		.loc 1 257 0
 152 0022 1826     		movs	r6, #24
 237:src/hostmsg.c **** inc_pptr(4);
 153              		.loc 1 237 0
 154 0024 FFF7FEFF 		bl	get_pptr
 155              	.LVL10:
 156              		.loc 1 257 0
 157 0028 AA4D     		ldr	r5, .L292+4
 237:src/hostmsg.c **** inc_pptr(4);
 158              		.loc 1 237 0
 159 002a 0746     		mov	r7, r0
 160              	.LVL11:
 238:src/hostmsg.c **** 
 161              		.loc 1 238 0
 162 002c 0420     		movs	r0, #4
 163              	.LVL12:
 164 002e FFF7FEFF 		bl	inc_pptr
 165              	.LVL13:
 241:src/hostmsg.c **** pack_byte(0x31);
 166              		.loc 1 241 0
 167 0032 3220     		movs	r0, #50
 168 0034 FFF7FEFF 		bl	pack_byte
 169              	.LVL14:
 242:src/hostmsg.c **** pack_byte(0x31);
 170              		.loc 1 242 0
 171 0038 3120     		movs	r0, #49
 172 003a FFF7FEFF 		bl	pack_byte
 173              	.LVL15:
 243:src/hostmsg.c **** pack_byte(0x31);
 174              		.loc 1 243 0
 175 003e 3120     		movs	r0, #49
 176 0040 FFF7FEFF 		bl	pack_byte
 177              	.LVL16:
 244:src/hostmsg.c **** pack_byte(0x30);
 178              		.loc 1 244 0
 179 0044 3120     		movs	r0, #49
 180 0046 FFF7FEFF 		bl	pack_byte
 181              	.LVL17:
 245:src/hostmsg.c **** pack_byte(0x35);
 182              		.loc 1 245 0
 183 004a 3020     		movs	r0, #48
 184 004c FFF7FEFF 		bl	pack_byte
ARM GAS  C:\Users\AHMED~1.ELE\AppData\Local\Temp\cc0wYKcg.s 			page 9


 185              	.LVL18:
 246:src/hostmsg.c **** pack_byte(0x30);
 186              		.loc 1 246 0
 187 0050 3520     		movs	r0, #53
 188 0052 FFF7FEFF 		bl	pack_byte
 189              	.LVL19:
 247:src/hostmsg.c **** pack_byte(0x30);
 190              		.loc 1 247 0
 191 0056 3020     		movs	r0, #48
 192 0058 FFF7FEFF 		bl	pack_byte
 193              	.LVL20:
 248:src/hostmsg.c **** pack_byte(0x30);
 194              		.loc 1 248 0
 195 005c 3020     		movs	r0, #48
 196 005e FFF7FEFF 		bl	pack_byte
 197              	.LVL21:
 249:src/hostmsg.c **** /* PowerCard header */
 198              		.loc 1 249 0
 199 0062 3020     		movs	r0, #48
 200 0064 FFF7FEFF 		bl	pack_byte
 201              	.LVL22:
 202              		.loc 1 257 0
 203 0068 94F8A834 		ldrb	r3, [r4, #1192]	@ zero_extendqisi2
 204 006c 9A49     		ldr	r1, .L292+8
 205 006e 7343     		muls	r3, r6, r3
 206 0070 16A8     		add	r0, sp, #88
 207 0072 EA5A     		ldrh	r2, [r5, r3]
 208 0074 FFF7FEFF 		bl	sprintf
 209              	.LVL23:
 258:src/hostmsg.c ****   pack_mem(buf, 4);
 210              		.loc 1 258 0
 211 0078 16A8     		add	r0, sp, #88
 212 007a 0421     		movs	r1, #4
 213 007c FFF7FEFF 		bl	pack_mem
 214              	.LVL24:
 259:src/hostmsg.c **** /* PowerCard Message id */
 260:src/hostmsg.c **** 
 261:src/hostmsg.c ****   
 262:src/hostmsg.c **** /* PowerCard Map */
 263:src/hostmsg.c **** 
 264:src/hostmsg.c **** //pack_byte(0xF2);
 265:src/hostmsg.c **** //pack_byte(0x34);
 266:src/hostmsg.c **** //pack_byte(0x87);
 267:src/hostmsg.c **** //pack_byte(0x41);
 268:src/hostmsg.c **** //pack_byte(0x68);
 269:src/hostmsg.c **** //pack_byte(0xE1);
 270:src/hostmsg.c **** //pack_byte(0x9A);
 271:src/hostmsg.c **** //pack_byte(0x03);
 272:src/hostmsg.c **** //pack_byte(0x01);
 273:src/hostmsg.c **** //pack_byte(0x00);
 274:src/hostmsg.c **** //pack_byte(0x00);
 275:src/hostmsg.c **** //pack_byte(0x00);
 276:src/hostmsg.c **** //pack_byte(0x00);
 277:src/hostmsg.c **** //pack_byte(0x00);
 278:src/hostmsg.c **** //pack_byte(0x00);
 279:src/hostmsg.c **** //pack_byte(0x00);
 280:src/hostmsg.c **** 
ARM GAS  C:\Users\AHMED~1.ELE\AppData\Local\Temp\cc0wYKcg.s 			page 10


 281:src/hostmsg.c **** memcpy(tx_bitmap, KTransBitmap[TX_DATA.b_trans].sb_txbitmap, 16);
 215              		.loc 1 281 0
 216 0080 94F8A814 		ldrb	r1, [r4, #1192]	@ zero_extendqisi2
 217 0084 1022     		movs	r2, #16
 218 0086 06FB0151 		mla	r1, r6, r1, r5
 219 008a 0BA8     		add	r0, sp, #44
 220 008c 0231     		adds	r1, r1, #2
 221 008e FFF7FEFF 		bl	memcpy
 222              	.LVL25:
 282:src/hostmsg.c ****   bitmap_ptr = get_pptr();
 223              		.loc 1 282 0
 224 0092 FFF7FEFF 		bl	get_pptr
 225              	.LVL26:
 283:src/hostmsg.c ****   if (tx_bitmap[0] & 0x80)
 226              		.loc 1 283 0
 227 0096 9DF82C90 		ldrb	r9, [sp, #44]	@ zero_extendqisi2
 228 009a 19F0800F 		tst	r9, #128
 282:src/hostmsg.c ****   bitmap_ptr = get_pptr();
 229              		.loc 1 282 0
 230 009e 0646     		mov	r6, r0
 231              	.LVL27:
 284:src/hostmsg.c ****    inc_pptr(16);
 232              		.loc 1 284 0
 233 00a0 14BF     		ite	ne
 234 00a2 1020     		movne	r0, #16
 235              	.LVL28:
 285:src/hostmsg.c ****   else
 286:src/hostmsg.c ****     inc_pptr(8);
 236              		.loc 1 286 0
 237 00a4 0820     		moveq	r0, #8
 238 00a6 FFF7FEFF 		bl	inc_pptr
 239              	.LVL29:
 287:src/hostmsg.c **** 
 288:src/hostmsg.c **** /* PowerCard Map */
 289:src/hostmsg.c **** 	  
 290:src/hostmsg.c ****  //  pack_mem("ISO0433211105000", 16);
 291:src/hostmsg.c ****  //  
 292:src/hostmsg.c ****  // /* PowerCard header */
 293:src/hostmsg.c ****  //// pack_mem("ISO", 3);
 294:src/hostmsg.c ****  // len_ptr = get_pptr();     // 4-byte length
 295:src/hostmsg.c ****  // inc_pptr(16);
 296:src/hostmsg.c ****  //// inc_pptr(4);
 297:src/hostmsg.c ****  //// pack_byte('2');           // POS
 298:src/hostmsg.c ****  //// SprintfMW(buf, "%02X%02X0", SOFT_VERSION, SOFT_SUBVERSION);   // SW Version
 299:src/hostmsg.c ****  //// pack_mem(buf, 5);
 300:src/hostmsg.c ****  //// pack_mem("000", 3);       // single message
 301:src/hostmsg.c ****  // 
 302:src/hostmsg.c ****  // /* msg type id */
 303:src/hostmsg.c ****  // SprintfMW(buf, "%04X", KTransBitmap[TX_DATA.b_trans].w_txmsg_id);
 304:src/hostmsg.c ****  // pack_mem(buf, 4);
 305:src/hostmsg.c ****  // 
 306:src/hostmsg.c ****  // /* bitmap */
 307:src/hostmsg.c ****  // memcpy(tx_bitmap, KTransBitmap[TX_DATA.b_trans].sb_txbitmap, 16);
 308:src/hostmsg.c ****  // bitmap_ptr = get_pptr();
 309:src/hostmsg.c ****  // if (tx_bitmap[0] & 0x80)
 310:src/hostmsg.c ****  //   inc_pptr(16);
 311:src/hostmsg.c ****  // else
ARM GAS  C:\Users\AHMED~1.ELE\AppData\Local\Temp\cc0wYKcg.s 			page 11


 312:src/hostmsg.c ****  //   inc_pptr(8);
 313:src/hostmsg.c **** 
 314:src/hostmsg.c ****  // // Send PAN and expire date if TRK2 not available of ICC trans.
 315:src/hostmsg.c ****  // if ((TX_DATA.b_trans >= SALE_ICC) && (TX_DATA.b_trans <= AUTH_ICC)) {
 316:src/hostmsg.c ****  //   if (INPUT.s_trk2buf.b_len == 0) {
 317:src/hostmsg.c ****  //     tx_bitmap[0] |= 0x40;
 318:src/hostmsg.c ****  //     tx_bitmap[1] |= 0x04;
 319:src/hostmsg.c ****  //     tx_bitmap[4] &= ~0x20;
 320:src/hostmsg.c ****  //   }
 321:src/hostmsg.c ****  // }
 322:src/hostmsg.c **** 
 323:src/hostmsg.c ****   if (memcmp(&TX_DATA.s_dtg.b_year, "\x00\x00\x00\x00\x00\x00", 6) == 0)
 240              		.loc 1 323 0
 241 00aa 8C48     		ldr	r0, .L292+12
 242 00ac 8C49     		ldr	r1, .L292+16
 243 00ae 0622     		movs	r2, #6
 244 00b0 FFF7FEFF 		bl	memcmp
 245              	.LVL30:
 246 00b4 10B9     		cbnz	r0, .L19
 324:src/hostmsg.c ****      ReadRTC(&TX_DATA.s_dtg);
 247              		.loc 1 324 0
 248 00b6 8B48     		ldr	r0, .L292+20
 249 00b8 FFF7FEFF 		bl	ReadRTC
 250              	.LVL31:
 251              	.L19:
 325:src/hostmsg.c **** 
 326:src/hostmsg.c ****   RtcGetMW(date_time);
 252              		.loc 1 326 0
 253 00bc 1220     		movs	r0, #18
 254 00be 07A9     		add	r1, sp, #28
 255 00c0 FFF7FEFF 		bl	sys_func1
 256              	.LVL32:
 327:src/hostmsg.c **** 
 328:src/hostmsg.c **** 
 329:src/hostmsg.c **** 
 330:src/hostmsg.c **** 
 331:src/hostmsg.c **** 
 332:src/hostmsg.c ****   /* 02. primary account number */
 333:src/hostmsg.c **** 
 334:src/hostmsg.c ****   if (tx_bitmap[0] & 0x40) {
 257              		.loc 1 334 0
 258 00c4 19F0400F 		tst	r9, #64
 259 00c8 28D0     		beq	.L20
 335:src/hostmsg.c ****     var_i = (BYTE)fndb(TX_DATA.sb_pan, 0xff, 10);
 260              		.loc 1 335 0
 261 00ca FF21     		movs	r1, #255
 262 00cc 0A22     		movs	r2, #10
 263 00ce 8648     		ldr	r0, .L292+24
 264 00d0 FFF7FEFF 		bl	fndb
 265              	.LVL33:
 266 00d4 5FFA80F8 		uxtb	r8, r0
 267              	.LVL34:
 336:src/hostmsg.c ****     if (var_i == 0xff)
 337:src/hostmsg.c ****       var_i = 10;
 268              		.loc 1 337 0
 269 00d8 B8F1FF0F 		cmp	r8, #255
 270 00dc 08BF     		it	eq
ARM GAS  C:\Users\AHMED~1.ELE\AppData\Local\Temp\cc0wYKcg.s 			page 12


 271 00de 4FF00A08 		moveq	r8, #10
 272              	.LVL35:
 338:src/hostmsg.c ****     var_j = var_i * 2;
 339:src/hostmsg.c ****     if ((TX_DATA.sb_pan[var_i-1] & 0x0f) == 0x0f) {
 273              		.loc 1 339 0
 274 00e2 04EB0803 		add	r3, r4, r8
 338:src/hostmsg.c ****     var_j = var_i * 2;
 275              		.loc 1 338 0
 276 00e6 4FEA4805 		lsl	r5, r8, #1
 277              		.loc 1 339 0
 278 00ea 93F8B134 		ldrb	r3, [r3, #1201]	@ zero_extendqisi2
 338:src/hostmsg.c ****     var_j = var_i * 2;
 279              		.loc 1 338 0
 280 00ee EDB2     		uxtb	r5, r5
 281              	.LVL36:
 282              		.loc 1 339 0
 283 00f0 03F00F03 		and	r3, r3, #15
 284 00f4 0F2B     		cmp	r3, #15
 340:src/hostmsg.c ****       var_j -= 1;
 285              		.loc 1 340 0
 286 00f6 04BF     		itt	eq
 287 00f8 05F1FF35 		addeq	r5, r5, #-1
 288              	.LVL37:
 289 00fc EDB2     		uxtbeq	r5, r5
 290              	.LVL38:
 341:src/hostmsg.c ****       //if ((STIS_ACQ_TBL(0).sb_nii[0]*256+STIS_ACQ_TBL(0).sb_nii[1]) == 0x016)
 342:src/hostmsg.c ****       //  TX_DATA.sb_pan[var_i - 1] &= 0xf0;
 343:src/hostmsg.c ****     }
 344:src/hostmsg.c ****     pack_byte((BYTE)bin2bcd(var_j));
 291              		.loc 1 344 0
 292 00fe 2846     		mov	r0, r5
 293 0100 FFF7FEFF 		bl	bin2bcd
 294              	.LVL39:
 295 0104 C0B2     		uxtb	r0, r0
 296 0106 FFF7FEFF 		bl	pack_byte
 297              	.LVL40:
 345:src/hostmsg.c ****     split(buf, TX_DATA.sb_pan, var_i);
 298              		.loc 1 345 0
 299 010a 16A8     		add	r0, sp, #88
 300 010c 7649     		ldr	r1, .L292+24
 301 010e 4246     		mov	r2, r8
 302 0110 FFF7FEFF 		bl	split
 303              	.LVL41:
 346:src/hostmsg.c ****     pack_mem(buf, var_j);                     // PAN in ascii format
 304              		.loc 1 346 0
 305 0114 16A8     		add	r0, sp, #88
 306 0116 2946     		mov	r1, r5
 307 0118 FFF7FEFF 		bl	pack_mem
 308              	.LVL42:
 309              	.L20:
 347:src/hostmsg.c ****   }
 348:src/hostmsg.c **** 
 349:src/hostmsg.c **** 
 350:src/hostmsg.c **** 
 351:src/hostmsg.c **** 
 352:src/hostmsg.c ****   /* 03. processing code */
 353:src/hostmsg.c ****   if (tx_bitmap[0] & 0x20) {
ARM GAS  C:\Users\AHMED~1.ELE\AppData\Local\Temp\cc0wYKcg.s 			page 13


 310              		.loc 1 353 0
 311 011c 19F0200F 		tst	r9, #32
 312 0120 03D0     		beq	.L23
 354:src/hostmsg.c ****     split_data(TX_DATA.sb_proc_code, 3);
 313              		.loc 1 354 0
 314 0122 7248     		ldr	r0, .L292+28
 315 0124 0321     		movs	r1, #3
 316 0126 FFF7FEFF 		bl	split_data
 317              	.LVL43:
 318              	.L23:
 355:src/hostmsg.c ****   }
 356:src/hostmsg.c **** 
 357:src/hostmsg.c ****   /* 04. amount, transaction */
 358:src/hostmsg.c ****   if (tx_bitmap[0] & 0x10) {
 319              		.loc 1 358 0
 320 012a 19F0100F 		tst	r9, #16
 321 012e 12D0     		beq	.L24
 359:src/hostmsg.c ****     if (TX_DATA.b_trans != VOID)
 322              		.loc 1 359 0
 323 0130 94F8A834 		ldrb	r3, [r4, #1192]	@ zero_extendqisi2
 324 0134 0A2B     		cmp	r3, #10
 325 0136 06D0     		beq	.L25
 360:src/hostmsg.c ****       dbin2bcd(tmp,TX_DATA.dd_amount);
 326              		.loc 1 360 0
 327 0138 6D4B     		ldr	r3, .L292+32
 328 013a 04A8     		add	r0, sp, #16
 329 013c D3E90023 		ldrd	r2, [r3]
 330 0140 FFF7FEFF 		bl	dbin2bcd
 331              	.LVL44:
 332 0144 03E0     		b	.L26
 333              	.L25:
 361:src/hostmsg.c ****     else
 362:src/hostmsg.c ****       memset(&tmp[4], 0, 6);
 334              		.loc 1 362 0
 335 0146 0022     		movs	r2, #0
 336 0148 0592     		str	r2, [sp, #20]
 337 014a ADF81820 		strh	r2, [sp, #24]	@ movhi
 338              	.L26:
 363:src/hostmsg.c ****     split_data(&tmp[4], 6);
 339              		.loc 1 363 0
 340 014e 05A8     		add	r0, sp, #20
 341 0150 0621     		movs	r1, #6
 342 0152 FFF7FEFF 		bl	split_data
 343              	.LVL45:
 344              	.L24:
 364:src/hostmsg.c ****   }
 365:src/hostmsg.c **** 
 366:src/hostmsg.c ****   /* 07. transmission date & time */
 367:src/hostmsg.c ****   if (tx_bitmap[0] & 0x02) {
 345              		.loc 1 367 0
 346 0156 19F0020F 		tst	r9, #2
 347 015a 04D0     		beq	.L27
 368:src/hostmsg.c ****  //   split_data(&TX_DATA.s_dtg.b_year, 5);
 369:src/hostmsg.c **** 
 370:src/hostmsg.c **** 	  pack_mem(&date_time[2], 10);
 348              		.loc 1 370 0
 349 015c 0DF11E00 		add	r0, sp, #30
ARM GAS  C:\Users\AHMED~1.ELE\AppData\Local\Temp\cc0wYKcg.s 			page 14


 350 0160 0A21     		movs	r1, #10
 351 0162 FFF7FEFF 		bl	pack_mem
 352              	.LVL46:
 353              	.L27:
 371:src/hostmsg.c ****       
 372:src/hostmsg.c ****    //   CCYYMMDDHHMMSS
 373:src/hostmsg.c ****   }
 374:src/hostmsg.c **** 
 375:src/hostmsg.c **** 
 376:src/hostmsg.c ****   /* 11. systems trace audit number */
 377:src/hostmsg.c ****   if (tx_bitmap[1] & 0x20) {
 354              		.loc 1 377 0
 355 0166 9DF82D50 		ldrb	r5, [sp, #45]	@ zero_extendqisi2
 356 016a A806     		lsls	r0, r5, #26
 357 016c 03D5     		bpl	.L28
 378:src/hostmsg.c ****     split_data(TX_DATA.sb_trace_no, 3);
 358              		.loc 1 378 0
 359 016e 6148     		ldr	r0, .L292+36
 360 0170 0321     		movs	r1, #3
 361 0172 FFF7FEFF 		bl	split_data
 362              	.LVL47:
 363              	.L28:
 379:src/hostmsg.c ****       
 380:src/hostmsg.c ****   }
 381:src/hostmsg.c **** 
 382:src/hostmsg.c ****   /* 12. local transaction date & time */
 383:src/hostmsg.c ****   if (tx_bitmap[1] & 0x10) {
 364              		.loc 1 383 0
 365 0176 E906     		lsls	r1, r5, #27
 366 0178 04D5     		bpl	.L29
 384:src/hostmsg.c **** 	  pack_mem(&date_time[2], 12);
 367              		.loc 1 384 0
 368 017a 0DF11E00 		add	r0, sp, #30
 369 017e 0C21     		movs	r1, #12
 370 0180 FFF7FEFF 		bl	pack_mem
 371              	.LVL48:
 372              	.L29:
 385:src/hostmsg.c ****  //   split_data(&TX_DATA.s_dtg.b_year, 6);
 386:src/hostmsg.c ****   }
 387:src/hostmsg.c **** 
 388:src/hostmsg.c ****   /* 14. expiry date */
 389:src/hostmsg.c ****   if (tx_bitmap[1] & 0x04) {
 373              		.loc 1 389 0
 374 0184 6A07     		lsls	r2, r5, #29
 375 0186 03D5     		bpl	.L30
 390:src/hostmsg.c ****     split_data(TX_DATA.sb_exp_date, 2);
 376              		.loc 1 390 0
 377 0188 5B48     		ldr	r0, .L292+40
 378 018a 0221     		movs	r1, #2
 379 018c FFF7FEFF 		bl	split_data
 380              	.LVL49:
 381              	.L30:
 391:src/hostmsg.c ****   }
 392:src/hostmsg.c **** 
 393:src/hostmsg.c ****   /* 17. capture date (MMDD) */
 394:src/hostmsg.c ****   if (tx_bitmap[2] & 0x80) {
 382              		.loc 1 394 0
ARM GAS  C:\Users\AHMED~1.ELE\AppData\Local\Temp\cc0wYKcg.s 			page 15


 383 0190 9DF82E50 		ldrb	r5, [sp, #46]	@ zero_extendqisi2
 384 0194 2B06     		lsls	r3, r5, #24
 385 0196 08D5     		bpl	.L31
 395:src/hostmsg.c ****       pack_mem(&date_time[4], 2); //MM
 386              		.loc 1 395 0
 387 0198 08A8     		add	r0, sp, #32
 388 019a 0221     		movs	r1, #2
 389 019c FFF7FEFF 		bl	pack_mem
 390              	.LVL50:
 396:src/hostmsg.c ****       pack_mem(&date_time[6], 2); //DD
 391              		.loc 1 396 0
 392 01a0 0DF12200 		add	r0, sp, #34
 393 01a4 0221     		movs	r1, #2
 394 01a6 FFF7FEFF 		bl	pack_mem
 395              	.LVL51:
 396              	.L31:
 397:src/hostmsg.c **** 
 398:src/hostmsg.c ****   //  split_data(&TX_DATA.s_dtg.b_month, 2);
 399:src/hostmsg.c ****   }
 400:src/hostmsg.c **** 
 401:src/hostmsg.c **** 
 402:src/hostmsg.c ****   //81010151014c
 403:src/hostmsg.c ****   /* 22. Entry mode */
 404:src/hostmsg.c ****   if (tx_bitmap[2] & 0x04) {
 397              		.loc 1 404 0
 398 01aa 6807     		lsls	r0, r5, #29
 399 01ac 3DD5     		bpl	.L32
 405:src/hostmsg.c ****     pack_byte('8');       // manual / swipe / EMV
 400              		.loc 1 405 0
 401 01ae 3820     		movs	r0, #56
 402 01b0 FFF7FEFF 		bl	pack_byte
 403              	.LVL52:
 406:src/hostmsg.c ****     pack_byte('1');       // PIN authentication
 404              		.loc 1 406 0
 405 01b4 3120     		movs	r0, #49
 406 01b6 FFF7FEFF 		bl	pack_byte
 407              	.LVL53:
 407:src/hostmsg.c ****     pack_byte('0');       // no card capture
 408              		.loc 1 407 0
 409 01ba 3020     		movs	r0, #48
 410 01bc FFF7FEFF 		bl	pack_byte
 411              	.LVL54:
 408:src/hostmsg.c ****     pack_byte('1');       // attended
 412              		.loc 1 408 0
 413 01c0 3120     		movs	r0, #49
 414 01c2 FFF7FEFF 		bl	pack_byte
 415              	.LVL55:
 409:src/hostmsg.c ****     pack_byte('0');       // cardholder present
 416              		.loc 1 409 0
 417 01c6 3020     		movs	r0, #48
 418 01c8 FFF7FEFF 		bl	pack_byte
 419              	.LVL56:
 410:src/hostmsg.c ****     pack_byte('1');       // card present
 420              		.loc 1 410 0
 421 01cc 3120     		movs	r0, #49
 422 01ce FFF7FEFF 		bl	pack_byte
 423              	.LVL57:
ARM GAS  C:\Users\AHMED~1.ELE\AppData\Local\Temp\cc0wYKcg.s 			page 16


 411:src/hostmsg.c ****     switch (TX_DATA.b_entry_mode) {
 424              		.loc 1 411 0
 425 01d2 94F8DC34 		ldrb	r3, [r4, #1244]	@ zero_extendqisi2
 426 01d6 532B     		cmp	r3, #83
 427 01d8 0ED0     		beq	.L34
 428 01da 04D8     		bhi	.L35
 429 01dc 462B     		cmp	r3, #70
 430 01de 0DD0     		beq	.L36
 431 01e0 4D2B     		cmp	r3, #77
 432 01e2 07D0     		beq	.L37
 433 01e4 0FE0     		b	.L33
 434              	.L35:
 435 01e6 6D2B     		cmp	r3, #109
 436 01e8 04D0     		beq	.L37
 437 01ea 732B     		cmp	r3, #115
 438 01ec 04D0     		beq	.L34
 439 01ee 662B     		cmp	r3, #102
 440 01f0 09D1     		bne	.L33
 441 01f2 03E0     		b	.L36
 442              	.L37:
 412:src/hostmsg.c ****       case MANUAL:
 413:src/hostmsg.c ****       case MANUAL_4DBC:
 414:src/hostmsg.c ****         pack_byte('1');
 443              		.loc 1 414 0
 444 01f4 3120     		movs	r0, #49
 445 01f6 02E0     		b	.L291
 446              	.L34:
 415:src/hostmsg.c ****         pack_byte('5');   // signature
 416:src/hostmsg.c ****         break;
 417:src/hostmsg.c ****       case SWIPE:
 418:src/hostmsg.c ****       case SWIPE_4DBC:
 419:src/hostmsg.c ****         pack_byte('2');
 447              		.loc 1 419 0
 448 01f8 3220     		movs	r0, #50
 449 01fa 00E0     		b	.L291
 450              	.L36:
 420:src/hostmsg.c ****         pack_byte('5');   // signature
 421:src/hostmsg.c ****         break;
 422:src/hostmsg.c ****       case FALLBACK:
 423:src/hostmsg.c ****       case FALLBACK_4DBC:
 424:src/hostmsg.c ****         pack_byte('8');
 451              		.loc 1 424 0
 452 01fc 3820     		movs	r0, #56
 453              	.L291:
 454 01fe FFF7FEFF 		bl	pack_byte
 455              	.LVL58:
 425:src/hostmsg.c ****         pack_byte('5');   // signature
 456              		.loc 1 425 0
 457 0202 3520     		movs	r0, #53
 458 0204 03E0     		b	.L284
 459              	.L33:
 426:src/hostmsg.c ****         break;
 427:src/hostmsg.c ****       default :
 428:src/hostmsg.c ****         pack_byte('5');   // chip reading
 460              		.loc 1 428 0
 461 0206 3520     		movs	r0, #53
 462 0208 FFF7FEFF 		bl	pack_byte
ARM GAS  C:\Users\AHMED~1.ELE\AppData\Local\Temp\cc0wYKcg.s 			page 17


 463              	.LVL59:
 429:src/hostmsg.c ****         pack_byte('1');   // PIN verified
 464              		.loc 1 429 0
 465 020c 3120     		movs	r0, #49
 466              	.L284:
 467 020e FFF7FEFF 		bl	pack_byte
 468              	.LVL60:
 430:src/hostmsg.c ****         break;
 431:src/hostmsg.c ****     }
 432:src/hostmsg.c ****     pack_byte('0');       // cardholder auth entity
 469              		.loc 1 432 0
 470 0212 3020     		movs	r0, #48
 471 0214 FFF7FEFF 		bl	pack_byte
 472              	.LVL61:
 433:src/hostmsg.c ****     pack_byte('1');       // rewrite capability
 473              		.loc 1 433 0
 474 0218 3120     		movs	r0, #49
 475 021a FFF7FEFF 		bl	pack_byte
 476              	.LVL62:
 434:src/hostmsg.c ****     pack_byte('4');       // display & printing
 477              		.loc 1 434 0
 478 021e 3420     		movs	r0, #52
 479 0220 FFF7FEFF 		bl	pack_byte
 480              	.LVL63:
 435:src/hostmsg.c ****     pack_byte('c');       // 12-digit PIN
 481              		.loc 1 435 0
 482 0224 6320     		movs	r0, #99
 483 0226 FFF7FEFF 		bl	pack_byte
 484              	.LVL64:
 485              	.L32:
 436:src/hostmsg.c ****   }
 437:src/hostmsg.c **** 
 438:src/hostmsg.c ****   /* 23. pan sequence number */
 439:src/hostmsg.c ****   if (tx_bitmap[2] & 0x02) {
 486              		.loc 1 439 0
 487 022a 9DF82E50 		ldrb	r5, [sp, #46]	@ zero_extendqisi2
 488 022e A907     		lsls	r1, r5, #30
 489 0230 03D5     		bpl	.L39
 440:src/hostmsg.c ****     pack_mem("000", 3);                       //testing only
 490              		.loc 1 440 0
 491 0232 3248     		ldr	r0, .L292+44
 492 0234 0321     		movs	r1, #3
 493 0236 FFF7FEFF 		bl	pack_mem
 494              	.LVL65:
 495              	.L39:
 441:src/hostmsg.c ****   }
 442:src/hostmsg.c **** 
 443:src/hostmsg.c ****   /* 24. function code */
 444:src/hostmsg.c ****   if (tx_bitmap[2] & 0x01) {
 496              		.loc 1 444 0
 497 023a EA07     		lsls	r2, r5, #31
 498 023c 1CD5     		bpl	.L40
 445:src/hostmsg.c ****     if ((TX_DATA.b_trans == AUTH_SWIPE) || (TX_DATA.b_trans == AUTH_MANUAL))
 499              		.loc 1 445 0
 500 023e 94F8A834 		ldrb	r3, [r4, #1192]	@ zero_extendqisi2
 501 0242 012B     		cmp	r3, #1
 502 0244 01D8     		bhi	.L41
ARM GAS  C:\Users\AHMED~1.ELE\AppData\Local\Temp\cc0wYKcg.s 			page 18


 446:src/hostmsg.c ****       pack_mem("101", 3);
 503              		.loc 1 446 0
 504 0246 2E48     		ldr	r0, .L292+48
 505 0248 13E0     		b	.L285
 506              	.L41:
 447:src/hostmsg.c ****     else if (TX_DATA.b_trans == EDC_REV)
 507              		.loc 1 447 0
 508 024a 0E2B     		cmp	r3, #14
 509 024c 01D1     		bne	.L42
 448:src/hostmsg.c ****       pack_mem("400", 3);
 510              		.loc 1 448 0
 511 024e 2D48     		ldr	r0, .L292+52
 512 0250 0FE0     		b	.L285
 513              	.L42:
 449:src/hostmsg.c ****     else if (TX_DATA.b_trans == SETTLEMENT)
 514              		.loc 1 449 0
 515 0252 0D2B     		cmp	r3, #13
 516 0254 01D1     		bne	.L43
 450:src/hostmsg.c **** 		//15082018 test 
 451:src/hostmsg.c ****       pack_mem("821", 3);
 517              		.loc 1 451 0
 518 0256 2C48     		ldr	r0, .L292+56
 519 0258 0BE0     		b	.L285
 520              	.L43:
 452:src/hostmsg.c **** 	else if (TX_DATA.b_trans == SETT_ADV)
 521              		.loc 1 452 0
 522 025a 182B     		cmp	r3, #24
 523 025c 01D1     		bne	.L44
 453:src/hostmsg.c **** 		//15082018 test 
 454:src/hostmsg.c **** 		pack_mem("500", 3);
 524              		.loc 1 454 0
 525 025e 2B48     		ldr	r0, .L292+60
 526 0260 07E0     		b	.L285
 527              	.L44:
 455:src/hostmsg.c ****     else if (TX_DATA.b_trans == TRANS_UPLOAD)
 528              		.loc 1 455 0
 529 0262 0C2B     		cmp	r3, #12
 530 0264 01D1     		bne	.L45
 456:src/hostmsg.c ****         pack_mem("300", 3);
 531              		.loc 1 456 0
 532 0266 2A48     		ldr	r0, .L292+64
 533 0268 03E0     		b	.L285
 534              	.L45:
 457:src/hostmsg.c ****     else if (TX_DATA.b_trans == TRANS_UPLOAD_LAST)
 535              		.loc 1 457 0
 536 026a 192B     		cmp	r3, #25
 458:src/hostmsg.c ****         pack_mem("301", 3);
 537              		.loc 1 458 0
 538 026c 0CBF     		ite	eq
 539 026e 2948     		ldreq	r0, .L292+68
 459:src/hostmsg.c ****     else
 460:src/hostmsg.c ****       pack_mem("200", 3);
 540              		.loc 1 460 0
 541 0270 2948     		ldrne	r0, .L292+72
 542              	.L285:
 543 0272 0321     		movs	r1, #3
 544 0274 FFF7FEFF 		bl	pack_mem
ARM GAS  C:\Users\AHMED~1.ELE\AppData\Local\Temp\cc0wYKcg.s 			page 19


 545              	.LVL66:
 546              	.L40:
 461:src/hostmsg.c ****   }
 462:src/hostmsg.c **** 
 463:src/hostmsg.c ****   /* 26. merchant business code */
 464:src/hostmsg.c ****   if (tx_bitmap[3] & 0x40) {
 547              		.loc 1 464 0
 548 0278 9DF82F50 		ldrb	r5, [sp, #47]	@ zero_extendqisi2
 549 027c 6B06     		lsls	r3, r5, #25
 550 027e 03D5     		bpl	.L47
 465:src/hostmsg.c ****     pack_mem("4814", 4);                      //testing only
 551              		.loc 1 465 0
 552 0280 2648     		ldr	r0, .L292+76
 553 0282 0421     		movs	r1, #4
 554 0284 FFF7FEFF 		bl	pack_mem
 555              	.LVL67:
 556              	.L47:
 466:src/hostmsg.c ****   }
 467:src/hostmsg.c **** 
 468:src/hostmsg.c ****   /* 32. acquirer id */
 469:src/hostmsg.c ****   if (tx_bitmap[3] & 0x01) {
 557              		.loc 1 469 0
 558 0288 E807     		lsls	r0, r5, #31
 559 028a 06D5     		bpl	.L48
 470:src/hostmsg.c ****     pack_byte(0x06);
 560              		.loc 1 470 0
 561 028c 0620     		movs	r0, #6
 562 028e FFF7FEFF 		bl	pack_byte
 563              	.LVL68:
 471:src/hostmsg.c ****     pack_mem("011200", 6);                    //testing only
 564              		.loc 1 471 0
 565 0292 2348     		ldr	r0, .L292+80
 566 0294 0621     		movs	r1, #6
 567 0296 FFF7FEFF 		bl	pack_mem
 568              	.LVL69:
 569              	.L48:
 472:src/hostmsg.c ****   }
 473:src/hostmsg.c **** 
 474:src/hostmsg.c ****   /* 34. pan extension */
 475:src/hostmsg.c ****   if (tx_bitmap[4] & 0x40) {
 570              		.loc 1 475 0
 571 029a 9DF83050 		ldrb	r5, [sp, #48]	@ zero_extendqisi2
 572 029e 6906     		lsls	r1, r5, #25
 573 02a0 06D5     		bpl	.L49
 476:src/hostmsg.c ****     pack_byte(0x08);
 574              		.loc 1 476 0
 575 02a2 0820     		movs	r0, #8
 576 02a4 FFF7FEFF 		bl	pack_byte
 577              	.LVL70:
 477:src/hostmsg.c ****     pack_mem("00000000", 8);                  //testing only
 578              		.loc 1 477 0
 579 02a8 1E48     		ldr	r0, .L292+84
 580 02aa 0821     		movs	r1, #8
 581 02ac FFF7FEFF 		bl	pack_mem
 582              	.LVL71:
 583              	.L49:
 478:src/hostmsg.c ****   }
ARM GAS  C:\Users\AHMED~1.ELE\AppData\Local\Temp\cc0wYKcg.s 			page 20


 479:src/hostmsg.c **** 
 480:src/hostmsg.c ****   /* 35. track 2 data */
 481:src/hostmsg.c ****   if (tx_bitmap[4] & 0x20) {
 584              		.loc 1 481 0
 585 02b0 AA06     		lsls	r2, r5, #26
 586 02b2 3FD5     		bpl	.L50
 482:src/hostmsg.c ****     if (INPUT.s_trk2buf.b_len) {
 587              		.loc 1 482 0
 588 02b4 94F8A002 		ldrb	r0, [r4, #672]	@ zero_extendqisi2
 589 02b8 C0B3     		cbz	r0, .L51
 483:src/hostmsg.c ****       pack_byte((BYTE)bin2bcd(INPUT.s_trk2buf.b_len));
 590              		.loc 1 483 0
 591 02ba FFF7FEFF 		bl	bin2bcd
 592              	.LVL72:
 593 02be C0B2     		uxtb	r0, r0
 594 02c0 FFF7FEFF 		bl	pack_byte
 595              	.LVL73:
 484:src/hostmsg.c ****       pack_mem(INPUT.s_trk2buf.sb_content, INPUT.s_trk2buf.b_len);
 596              		.loc 1 484 0
 597 02c4 1848     		ldr	r0, .L292+88
 598 02c6 10F8011C 		ldrb	r1, [r0, #-1]	@ zero_extendqisi2
 599 02ca FFF7FEFF 		bl	pack_mem
 600              	.LVL74:
 601 02ce 31E0     		b	.L50
 602              	.L293:
 603              		.align	2
 604              	.L292:
 605 02d0 00000000 		.word	gGTS
 606 02d4 00000000 		.word	KTransBitmap
 607 02d8 00000000 		.word	.LC0
 608 02dc 25050000 		.word	gGTS+1317
 609 02e0 00000000 		.word	.LANCHOR0
 610 02e4 24050000 		.word	gGTS+1316
 611 02e8 B2040000 		.word	gGTS+1202
 612 02ec A8060000 		.word	gGTS+1704
 613 02f0 C0040000 		.word	gGTS+1216
 614 02f4 AB040000 		.word	gGTS+1195
 615 02f8 BC040000 		.word	gGTS+1212
 616 02fc 05000000 		.word	.LC2
 617 0300 09000000 		.word	.LC3
 618 0304 0D000000 		.word	.LC4
 619 0308 11000000 		.word	.LC5
 620 030c 15000000 		.word	.LC6
 621 0310 19000000 		.word	.LC7
 622 0314 1D000000 		.word	.LC8
 623 0318 21000000 		.word	.LC9
 624 031c 25000000 		.word	.LC10
 625 0320 2A000000 		.word	.LC11
 626 0324 31000000 		.word	.LC12
 627 0328 A1020000 		.word	gGTS+673
 628              	.L51:
 485:src/hostmsg.c ****     } else
 486:src/hostmsg.c ****       tx_bitmap[4] &= ~0x20;
 629              		.loc 1 486 0
 630 032c 25F02005 		bic	r5, r5, #32
 631 0330 8DF83050 		strb	r5, [sp, #48]
 632              	.L50:
ARM GAS  C:\Users\AHMED~1.ELE\AppData\Local\Temp\cc0wYKcg.s 			page 21


 487:src/hostmsg.c ****   }
 488:src/hostmsg.c **** 
 489:src/hostmsg.c ****   /* 37. RRN */
 490:src/hostmsg.c ****   if (tx_bitmap[4] & 0x08) {
 633              		.loc 1 490 0
 634 0334 9DF83050 		ldrb	r5, [sp, #48]	@ zero_extendqisi2
 635 0338 2B07     		lsls	r3, r5, #28
 636 033a 07D5     		bpl	.L52
 491:src/hostmsg.c **** 
 492:src/hostmsg.c ****    split_data(TX_DATA.sb_trace_no, 3);
 637              		.loc 1 492 0
 638 033c B448     		ldr	r0, .L294
 639 033e 0321     		movs	r1, #3
 640 0340 FFF7FEFF 		bl	split_data
 641              	.LVL75:
 493:src/hostmsg.c ****    pack_mem("000000", 6);                  //amr tell that will me reveersal number for last TRX no
 642              		.loc 1 493 0
 643 0344 B348     		ldr	r0, .L294+4
 644 0346 0621     		movs	r1, #6
 645 0348 FFF7FEFF 		bl	pack_mem
 646              	.LVL76:
 647              	.L52:
 494:src/hostmsg.c **** 
 495:src/hostmsg.c **** 
 496:src/hostmsg.c ****   //  if ((TX_DATA.b_trans == EDC_REV) && (TX_DATA.b_org_trans != VOID))
 497:src/hostmsg.c ****    //   tx_bitmap[4] &= ~0x08; /* not applicable, clear BIT */
 498:src/hostmsg.c ****    // else {
 499:src/hostmsg.c ****     //  if (memcmp(TX_DATA.sb_rrn, "\x00\x00\x00\x00\x00\x00\x00\x00\x00\x00\x00\x00", 12))
 500:src/hostmsg.c ****     //    pack_mem(TX_DATA.sb_rrn, 12);
 501:src/hostmsg.c ****      // else
 502:src/hostmsg.c ****       //  tx_bitmap[4] &= ~0x08; /* not applicable, clear BIT */
 503:src/hostmsg.c ****     //}
 504:src/hostmsg.c ****   }
 505:src/hostmsg.c **** 
 506:src/hostmsg.c ****   /* 38. authorization code */
 507:src/hostmsg.c ****   if (tx_bitmap[4] & 0x04) {
 648              		.loc 1 507 0
 649 034c 6D07     		lsls	r5, r5, #29
 650 034e 03D5     		bpl	.L53
 508:src/hostmsg.c ****     pack_mem(TX_DATA.sb_auth_code, 6);
 651              		.loc 1 508 0
 652 0350 B148     		ldr	r0, .L294+8
 653 0352 0621     		movs	r1, #6
 654 0354 FFF7FEFF 		bl	pack_mem
 655              	.LVL77:
 656              	.L53:
 509:src/hostmsg.c ****   }
 510:src/hostmsg.c **** 
 511:src/hostmsg.c ****   /* 41. terminal identification */
 512:src/hostmsg.c ****   if (tx_bitmap[5] & 0x80) {
 657              		.loc 1 512 0
 658 0358 9DF83150 		ldrb	r5, [sp, #49]	@ zero_extendqisi2
 659 035c 2806     		lsls	r0, r5, #24
 660 035e 03D5     		bpl	.L54
 513:src/hostmsg.c ****  //pack_mem("47400010", 8);
 514:src/hostmsg.c **** 	  //15082018 test 
 515:src/hostmsg.c **** 	pack_mem("62301764", 8);     
ARM GAS  C:\Users\AHMED~1.ELE\AppData\Local\Temp\cc0wYKcg.s 			page 22


 661              		.loc 1 515 0
 662 0360 AE48     		ldr	r0, .L294+12
 663 0362 0821     		movs	r1, #8
 664 0364 FFF7FEFF 		bl	pack_mem
 665              	.LVL78:
 666              	.L54:
 516:src/hostmsg.c ****   //  pack_mem(STIS_ACQ_TBL(0).sb_term_id, 8);
 517:src/hostmsg.c **** //	 pack_mem("0000000", 7);
 518:src/hostmsg.c ****   }
 519:src/hostmsg.c **** 
 520:src/hostmsg.c ****   /* 42. card acceptor identification */
 521:src/hostmsg.c ****   if (tx_bitmap[5] & 0x40) {
 667              		.loc 1 521 0
 668 0368 6906     		lsls	r1, r5, #25
 669 036a 03D5     		bpl	.L55
 522:src/hostmsg.c ****    // pack_mem(STIS_ACQ_TBL(0).sb_acceptor_id, 15);
 523:src/hostmsg.c **** 	   //15082018 test 
 524:src/hostmsg.c **** 	  pack_mem("4740001005     ", 15);
 670              		.loc 1 524 0
 671 036c AC48     		ldr	r0, .L294+16
 672 036e 0F21     		movs	r1, #15
 673 0370 FFF7FEFF 		bl	pack_mem
 674              	.LVL79:
 675              	.L55:
 525:src/hostmsg.c ****   }
 526:src/hostmsg.c **** 
 527:src/hostmsg.c ****   /* 43. card acceptor name & address */
 528:src/hostmsg.c ****   if (tx_bitmap[5] & 0x20) {
 676              		.loc 1 528 0
 677 0374 AA06     		lsls	r2, r5, #26
 678 0376 23D5     		bpl	.L56
 529:src/hostmsg.c ****   //  pack_byte((BYTE)bin2bcd(sizeof(STIS_TERM_CFG.sb_name_loc)));
 530:src/hostmsg.c ****  //   pack_mem(STIS_TERM_CFG.sb_name_loc, sizeof(STIS_TERM_CFG.sb_name_loc));
 531:src/hostmsg.c **** pack_byte(0x11);
 679              		.loc 1 531 0
 680 0378 1120     		movs	r0, #17
 681 037a FFF7FEFF 		bl	pack_byte
 682              	.LVL80:
 532:src/hostmsg.c **** pack_byte(0x31);
 683              		.loc 1 532 0
 684 037e 3120     		movs	r0, #49
 685 0380 FFF7FEFF 		bl	pack_byte
 686              	.LVL81:
 533:src/hostmsg.c **** pack_byte(0x32);
 687              		.loc 1 533 0
 688 0384 3220     		movs	r0, #50
 689 0386 FFF7FEFF 		bl	pack_byte
 690              	.LVL82:
 534:src/hostmsg.c **** pack_byte(0x33);
 691              		.loc 1 534 0
 692 038a 3320     		movs	r0, #51
 693 038c FFF7FEFF 		bl	pack_byte
 694              	.LVL83:
 535:src/hostmsg.c **** pack_byte(0x34);
 695              		.loc 1 535 0
 696 0390 3420     		movs	r0, #52
 697 0392 FFF7FEFF 		bl	pack_byte
ARM GAS  C:\Users\AHMED~1.ELE\AppData\Local\Temp\cc0wYKcg.s 			page 23


 698              	.LVL84:
 536:src/hostmsg.c **** pack_byte(0x35);
 699              		.loc 1 536 0
 700 0396 3520     		movs	r0, #53
 701 0398 FFF7FEFF 		bl	pack_byte
 702              	.LVL85:
 537:src/hostmsg.c **** pack_byte(0x36);
 703              		.loc 1 537 0
 704 039c 3620     		movs	r0, #54
 705 039e FFF7FEFF 		bl	pack_byte
 706              	.LVL86:
 538:src/hostmsg.c **** pack_byte(0x37);
 707              		.loc 1 538 0
 708 03a2 3720     		movs	r0, #55
 709 03a4 FFF7FEFF 		bl	pack_byte
 710              	.LVL87:
 539:src/hostmsg.c **** pack_byte(0x38);
 711              		.loc 1 539 0
 712 03a8 3820     		movs	r0, #56
 713 03aa FFF7FEFF 		bl	pack_byte
 714              	.LVL88:
 540:src/hostmsg.c **** pack_byte(0x45);
 715              		.loc 1 540 0
 716 03ae 4520     		movs	r0, #69
 717 03b0 FFF7FEFF 		bl	pack_byte
 718              	.LVL89:
 541:src/hostmsg.c **** pack_byte(0x47);
 719              		.loc 1 541 0
 720 03b4 4720     		movs	r0, #71
 721 03b6 FFF7FEFF 		bl	pack_byte
 722              	.LVL90:
 542:src/hostmsg.c **** pack_byte(0x59);
 723              		.loc 1 542 0
 724 03ba 5920     		movs	r0, #89
 725 03bc FFF7FEFF 		bl	pack_byte
 726              	.LVL91:
 727              	.L56:
 543:src/hostmsg.c **** 
 544:src/hostmsg.c **** 
 545:src/hostmsg.c ****   }
 546:src/hostmsg.c ****  // 
 547:src/hostmsg.c ****   /* 44. additional resp. data */
 548:src/hostmsg.c ****   if (tx_bitmap[5] & 0x10) { /* indicates under floor limit approval */
 728              		.loc 1 548 0
 729 03c0 EB06     		lsls	r3, r5, #27
 730 03c2 19D5     		bpl	.L57
 549:src/hostmsg.c ****     if (TX_DATA.b_trans == TRANS_UPLOAD) {
 731              		.loc 1 549 0
 732 03c4 94F8A834 		ldrb	r3, [r4, #1192]	@ zero_extendqisi2
 733 03c8 0C2B     		cmp	r3, #12
 734 03ca 94F8AB36 		ldrb	r3, [r4, #1707]	@ zero_extendqisi2
 735 03ce 0AD1     		bne	.L58
 550:src/hostmsg.c ****       if ((TX_DATA.b_org_trans == REFUND) ||
 736              		.loc 1 550 0
 737 03d0 9A1F     		subs	r2, r3, #6
 738 03d2 032A     		cmp	r2, #3
 739 03d4 02D9     		bls	.L59
ARM GAS  C:\Users\AHMED~1.ELE\AppData\Local\Temp\cc0wYKcg.s 			page 24


 551:src/hostmsg.c ****           (TX_DATA.b_org_trans == SALE_OFFLINE) ||
 552:src/hostmsg.c ****           (TX_DATA.b_org_trans == SALE_COMPLETE) ||
 553:src/hostmsg.c ****           (TX_DATA.b_org_trans == SALE_UNDER_LMT) ||
 554:src/hostmsg.c ****           (TX_DATA.b_org_trans == ESALE_COMPLETE) ||
 740              		.loc 1 554 0
 741 03d6 123B     		subs	r3, r3, #18
 742 03d8 012B     		cmp	r3, #1
 743 03da 0DD8     		bhi	.L57
 744              	.L59:
 555:src/hostmsg.c ****           (TX_DATA.b_org_trans == ESALE_UNDER_LMT)
 556:src/hostmsg.c ****          )
 557:src/hostmsg.c ****         tx_bitmap[5] &= ~0x10; /* not applicable, clear bit */
 745              		.loc 1 557 0
 746 03dc 25F01005 		bic	r5, r5, #16
 747 03e0 8DF83150 		strb	r5, [sp, #49]
 748 03e4 08E0     		b	.L57
 749              	.L58:
 558:src/hostmsg.c ****     }
 559:src/hostmsg.c ****     else /* indicates under floor limit approval */
 560:src/hostmsg.c ****       if ((TX_DATA.b_org_trans == SALE_UNDER_LMT) ||(TX_DATA.b_org_trans == ESALE_UNDER_LMT))
 750              		.loc 1 560 0
 751 03e6 092B     		cmp	r3, #9
 752 03e8 01D0     		beq	.L60
 753              		.loc 1 560 0 is_stmt 0 discriminator 1
 754 03ea 122B     		cmp	r3, #18
 755 03ec 01D1     		bne	.L61
 756              	.L60:
 561:src/hostmsg.c ****         pack_str("\x02\x30\x33");
 757              		.loc 1 561 0 is_stmt 1
 758 03ee 8D48     		ldr	r0, .L294+20
 759 03f0 00E0     		b	.L286
 760              	.L61:
 562:src/hostmsg.c ****       else
 563:src/hostmsg.c ****         pack_str("\x02\x30\x30");
 761              		.loc 1 563 0
 762 03f2 8D48     		ldr	r0, .L294+24
 763              	.L286:
 764 03f4 FFF7FEFF 		bl	pack_str
 765              	.LVL92:
 766              	.L57:
 564:src/hostmsg.c ****   }
 565:src/hostmsg.c **** 
 566:src/hostmsg.c ****   /* 45. track 1 data */
 567:src/hostmsg.c ****   if (tx_bitmap[5] & 0x08) {
 767              		.loc 1 567 0
 768 03f8 9DF83150 		ldrb	r5, [sp, #49]	@ zero_extendqisi2
 769 03fc 2807     		lsls	r0, r5, #28
 770 03fe 19D5     		bpl	.L62
 568:src/hostmsg.c ****     // Send Track1 when available
 569:src/hostmsg.c ****     if ((INPUT.s_trk1buf.b_len==0)||!Track1Enable())
 771              		.loc 1 569 0
 772 0400 94F80032 		ldrb	r3, [r4, #512]	@ zero_extendqisi2
 773 0404 DFF84C82 		ldr	r8, .L294+68
 774 0408 23B9     		cbnz	r3, .L63
 775              	.L64:
 570:src/hostmsg.c ****       tx_bitmap[5] &= ~0x08;
 776              		.loc 1 570 0
ARM GAS  C:\Users\AHMED~1.ELE\AppData\Local\Temp\cc0wYKcg.s 			page 25


 777 040a 25F00805 		bic	r5, r5, #8
 778 040e 8DF83150 		strb	r5, [sp, #49]
 779 0412 0FE0     		b	.L62
 780              	.L63:
 569:src/hostmsg.c ****       tx_bitmap[5] &= ~0x08;
 781              		.loc 1 569 0 discriminator 1
 782 0414 FFF7FEFF 		bl	Track1Enable
 783              	.LVL93:
 784 0418 0028     		cmp	r0, #0
 785 041a F6D0     		beq	.L64
 571:src/hostmsg.c ****     else {
 572:src/hostmsg.c ****       pack_byte((BYTE)bin2bcd(INPUT.s_trk1buf.b_len));
 786              		.loc 1 572 0
 787 041c 98F80002 		ldrb	r0, [r8, #512]	@ zero_extendqisi2
 788 0420 FFF7FEFF 		bl	bin2bcd
 789              	.LVL94:
 790 0424 C0B2     		uxtb	r0, r0
 791 0426 FFF7FEFF 		bl	pack_byte
 792              	.LVL95:
 573:src/hostmsg.c ****       split_data(INPUT.s_trk1buf.sb_content, INPUT.s_trk1buf.b_len);
 793              		.loc 1 573 0
 794 042a 8048     		ldr	r0, .L294+28
 795 042c 98F80012 		ldrb	r1, [r8, #512]	@ zero_extendqisi2
 796 0430 FFF7FEFF 		bl	split_data
 797              	.LVL96:
 798              	.L62:
 574:src/hostmsg.c ****     }
 575:src/hostmsg.c ****   }
 576:src/hostmsg.c **** 
 577:src/hostmsg.c **** 
 578:src/hostmsg.c ****   //P10032A554A96459E368BF60B927E9F4AD14E9
 579:src/hostmsg.c ****   /* 48. additional resp. data */
 580:src/hostmsg.c ****   if (tx_bitmap[5] & 0x01) {
 799              		.loc 1 580 0
 800 0434 9DF83130 		ldrb	r3, [sp, #49]	@ zero_extendqisi2
 801 0438 D907     		lsls	r1, r3, #31
 802 043a 11D5     		bpl	.L65
 581:src/hostmsg.c ****    // pack_mem("0038", 2);                                //Total length of TLVs
 582:src/hostmsg.c **** 	pack_byte(0x00);
 803              		.loc 1 582 0
 804 043c 0020     		movs	r0, #0
 805 043e FFF7FEFF 		bl	pack_byte
 806              	.LVL97:
 583:src/hostmsg.c ****     pack_byte(0x38);
 807              		.loc 1 583 0
 808 0442 3820     		movs	r0, #56
 809 0444 FFF7FEFF 		bl	pack_byte
 810              	.LVL98:
 584:src/hostmsg.c ****    
 585:src/hostmsg.c **** 	pack_mem("P10", 3);                                 //Tag P10 - PIN encryption key
 811              		.loc 1 585 0
 812 0448 7948     		ldr	r0, .L294+32
 813 044a 0321     		movs	r1, #3
 814 044c FFF7FEFF 		bl	pack_mem
 815              	.LVL99:
 586:src/hostmsg.c ****     pack_mem("032", 3);                                 //length of data
 816              		.loc 1 586 0
ARM GAS  C:\Users\AHMED~1.ELE\AppData\Local\Temp\cc0wYKcg.s 			page 26


 817 0450 7848     		ldr	r0, .L294+36
 818 0452 0321     		movs	r1, #3
 819 0454 FFF7FEFF 		bl	pack_mem
 820              	.LVL100:
 587:src/hostmsg.c ****     pack_mem("A554A96459E368BF60B927E9F4AD14E9", 32);   //testing only
 821              		.loc 1 587 0
 822 0458 7748     		ldr	r0, .L294+40
 823 045a 2021     		movs	r1, #32
 824 045c FFF7FEFF 		bl	pack_mem
 825              	.LVL101:
 826              	.L65:
 588:src/hostmsg.c ****   }
 589:src/hostmsg.c **** 
 590:src/hostmsg.c ****   /* 49. transaction currency code */
 591:src/hostmsg.c ****   if (tx_bitmap[6] & 0x80) {
 827              		.loc 1 591 0
 828 0460 9DF83250 		ldrb	r5, [sp, #50]	@ zero_extendqisi2
 829 0464 2A06     		lsls	r2, r5, #24
 830 0466 03D5     		bpl	.L66
 592:src/hostmsg.c ****     pack_mem("818", 3);                       //testing only (EGP)
 831              		.loc 1 592 0
 832 0468 7448     		ldr	r0, .L294+44
 833 046a 0321     		movs	r1, #3
 834 046c FFF7FEFF 		bl	pack_mem
 835              	.LVL102:
 836              	.L66:
 593:src/hostmsg.c ****   }
 594:src/hostmsg.c **** 
 595:src/hostmsg.c **** 
 596:src/hostmsg.c ****   /* 50. Settlement currency code */
 597:src/hostmsg.c ****   if (tx_bitmap[6] & 0x40) {
 837              		.loc 1 597 0
 838 0470 6B06     		lsls	r3, r5, #25
 839 0472 03D5     		bpl	.L67
 598:src/hostmsg.c **** 	  pack_mem("818", 3);                       //testing only (EGP)
 840              		.loc 1 598 0
 841 0474 7148     		ldr	r0, .L294+44
 842 0476 0321     		movs	r1, #3
 843 0478 FFF7FEFF 		bl	pack_mem
 844              	.LVL103:
 845              	.L67:
 599:src/hostmsg.c ****   }
 600:src/hostmsg.c **** 
 601:src/hostmsg.c ****   /* 52. pin block */
 602:src/hostmsg.c ****   if (tx_bitmap[6] & 0x10) {
 846              		.loc 1 602 0
 847 047c E806     		lsls	r0, r5, #27
 848 047e 03D5     		bpl	.L68
 603:src/hostmsg.c **** 
 604:src/hostmsg.c **** 	  pack_mem("0000000000000000", 16);
 849              		.loc 1 604 0
 850 0480 6F48     		ldr	r0, .L294+48
 851 0482 1021     		movs	r1, #16
 852 0484 FFF7FEFF 		bl	pack_mem
 853              	.LVL104:
 854              	.L68:
 605:src/hostmsg.c ****   //  if (memcmp(TX_DATA.sb_pin, "\x00\x00\x00\x00\x00\x00\x00\x00", 8))
ARM GAS  C:\Users\AHMED~1.ELE\AppData\Local\Temp\cc0wYKcg.s 			page 27


 606:src/hostmsg.c ****    //   pack_mem (TX_DATA.sb_pin, 8);
 607:src/hostmsg.c ****   //  else
 608:src/hostmsg.c ****    //   tx_bitmap[6] &= ~0x10; /* not applicable, clear BIT */
 609:src/hostmsg.c ****   }
 610:src/hostmsg.c **** 
 611:src/hostmsg.c ****   /* 53. security data */
 612:src/hostmsg.c ****   if (tx_bitmap[6] & 0x08) {
 855              		.loc 1 612 0
 856 0488 2907     		lsls	r1, r5, #28
 857 048a 06D5     		bpl	.L69
 613:src/hostmsg.c ****     pack_byte(0x09);
 858              		.loc 1 613 0
 859 048c 0920     		movs	r0, #9
 860 048e FFF7FEFF 		bl	pack_byte
 861              	.LVL105:
 614:src/hostmsg.c ****     pack_mem("010100000", 9);               //testing only (encrypted by TPK, ANSI format)
 862              		.loc 1 614 0
 863 0492 6C48     		ldr	r0, .L294+52
 864 0494 0921     		movs	r1, #9
 865 0496 FFF7FEFF 		bl	pack_mem
 866              	.LVL106:
 867              	.L69:
 615:src/hostmsg.c ****   }
 616:src/hostmsg.c **** 
 617:src/hostmsg.c ****   /* 54. additional amount */
 618:src/hostmsg.c ****   if (tx_bitmap[6] & 0x04) {
 868              		.loc 1 618 0
 869 049a 6A07     		lsls	r2, r5, #29
 870 049c 2AD5     		bpl	.L70
 619:src/hostmsg.c ****  //   if (TX_DATA.dd_tip !=0) {
 620:src/hostmsg.c ****       pack_word(0x0020);
 871              		.loc 1 620 0
 872 049e 2020     		movs	r0, #32
 873 04a0 FFF7FEFF 		bl	pack_word
 874              	.LVL107:
 621:src/hostmsg.c ****       pack_mem("04", 2);                  // account type   //testing only
 875              		.loc 1 621 0
 876 04a4 6848     		ldr	r0, .L294+56
 877 04a6 0221     		movs	r1, #2
 878 04a8 FFF7FEFF 		bl	pack_mem
 879              	.LVL108:
 622:src/hostmsg.c ****       pack_mem("04", 2);                  // account type   //testing only
 880              		.loc 1 622 0
 881 04ac 6648     		ldr	r0, .L294+56
 882 04ae 0221     		movs	r1, #2
 883 04b0 FFF7FEFF 		bl	pack_mem
 884              	.LVL109:
 623:src/hostmsg.c ****       pack_mem("818", 3);                 // currency code  //testing only
 885              		.loc 1 623 0
 886 04b4 6148     		ldr	r0, .L294+44
 887 04b6 0321     		movs	r1, #3
 888 04b8 FFF7FEFF 		bl	pack_mem
 889              	.LVL110:
 624:src/hostmsg.c ****       pack_mem("C", 1);                   // credit         //testing only
 890              		.loc 1 624 0
 891 04bc 6348     		ldr	r0, .L294+60
 892 04be 0121     		movs	r1, #1
ARM GAS  C:\Users\AHMED~1.ELE\AppData\Local\Temp\cc0wYKcg.s 			page 28


 893 04c0 FFF7FEFF 		bl	pack_mem
 894              	.LVL111:
 625:src/hostmsg.c ****      // dbin2bcd(tmp,TX_DATA.dd_tip);
 626:src/hostmsg.c ****     //  split_data(&tmp[4],6);
 627:src/hostmsg.c **** 	  memset(tmp, 0, sizeof(tmp));
 895              		.loc 1 627 0
 896 04c4 04A8     		add	r0, sp, #16
 897 04c6 0021     		movs	r1, #0
 898 04c8 0A22     		movs	r2, #10
 899 04ca FFF7FEFF 		bl	memset
 900              	.LVL112:
 628:src/hostmsg.c **** 	  if (TX_DATA.b_trans != VOID)
 901              		.loc 1 628 0
 902 04ce 94F8A834 		ldrb	r3, [r4, #1192]	@ zero_extendqisi2
 903 04d2 0A2B     		cmp	r3, #10
 904 04d4 06D0     		beq	.L71
 629:src/hostmsg.c **** 		  dbin2bcd(tmp, TX_DATA.dd_amount);
 905              		.loc 1 629 0
 906 04d6 5E4B     		ldr	r3, .L294+64
 907 04d8 04A8     		add	r0, sp, #16
 908 04da D3E90023 		ldrd	r2, [r3]
 909 04de FFF7FEFF 		bl	dbin2bcd
 910              	.LVL113:
 911 04e2 03E0     		b	.L72
 912              	.L71:
 630:src/hostmsg.c **** 	  else
 631:src/hostmsg.c **** 		  memset(&tmp[4], 0, 6);
 913              		.loc 1 631 0
 914 04e4 0022     		movs	r2, #0
 915 04e6 0592     		str	r2, [sp, #20]
 916 04e8 ADF81820 		strh	r2, [sp, #24]	@ movhi
 917              	.L72:
 632:src/hostmsg.c **** 	  split_data(&tmp[4], 6);
 918              		.loc 1 632 0
 919 04ec 05A8     		add	r0, sp, #20
 920 04ee 0621     		movs	r1, #6
 921 04f0 FFF7FEFF 		bl	split_data
 922              	.LVL114:
 923              	.L70:
 633:src/hostmsg.c **** 
 634:src/hostmsg.c ****   //  }
 635:src/hostmsg.c ****  //   else
 636:src/hostmsg.c ****   //    tx_bitmap[6] &= ~0x04; /* no tip, clear BIT */
 637:src/hostmsg.c ****   }
 638:src/hostmsg.c **** 
 639:src/hostmsg.c ****   /* 55. EMV data */
 640:src/hostmsg.c ****   if (tx_bitmap[6] & 0x02) {
 924              		.loc 1 640 0
 925 04f4 AB07     		lsls	r3, r5, #30
 926 04f6 28D5     		bpl	.L73
 641:src/hostmsg.c **** 
 642:src/hostmsg.c ****     // EMVEDC data higher priority
 643:src/hostmsg.c ****     if (TX_DATA.s_icc_data.w_misc_len) {
 927              		.loc 1 643 0
 928 04f8 564C     		ldr	r4, .L294+68
 929 04fa B4F85405 		ldrh	r0, [r4, #1364]
 930 04fe 38B1     		cbz	r0, .L74
ARM GAS  C:\Users\AHMED~1.ELE\AppData\Local\Temp\cc0wYKcg.s 			page 29


 644:src/hostmsg.c ****       pack_word(bin2bcd(TX_DATA.s_icc_data.w_misc_len));
 931              		.loc 1 644 0
 932 0500 FFF7FEFF 		bl	bin2bcd
 933              	.LVL115:
 934 0504 FFF7FEFF 		bl	pack_word
 935              	.LVL116:
 645:src/hostmsg.c ****       pack_mem(TX_DATA.s_icc_data.sb_misc_content, TX_DATA.s_icc_data.w_misc_len);
 936              		.loc 1 645 0
 937 0508 5348     		ldr	r0, .L294+72
 938 050a B4F85415 		ldrh	r1, [r4, #1364]
 939 050e 15E0     		b	.L287
 940              	.L74:
 646:src/hostmsg.c ****     }
 647:src/hostmsg.c ****     else
 648:src/hostmsg.c ****       if (Prompt4DBC() &&
 941              		.loc 1 648 0
 942 0510 FFF7FEFF 		bl	Prompt4DBC
 943              	.LVL117:
 944 0514 A8B1     		cbz	r0, .L75
 649:src/hostmsg.c ****           (KTransBitmap[TX_DATA.b_trans].w_txmsg_id!=0x1220) &&
 945              		.loc 1 649 0 discriminator 1
 946 0516 94F8A824 		ldrb	r2, [r4, #1192]	@ zero_extendqisi2
 947 051a 1823     		movs	r3, #24
 948 051c 5343     		muls	r3, r2, r3
 949 051e 4F4A     		ldr	r2, .L294+76
 950 0520 D35A     		ldrh	r3, [r2, r3]
 648:src/hostmsg.c ****           (KTransBitmap[TX_DATA.b_trans].w_txmsg_id!=0x1220) &&
 951              		.loc 1 648 0 discriminator 1
 952 0522 23F48072 		bic	r2, r3, #256
 953 0526 B2F5915F 		cmp	r2, #4640
 954 052a 0AD0     		beq	.L75
 955              		.loc 1 649 0
 956 052c B3F5A05F 		cmp	r3, #5120
 957 0530 07D0     		beq	.L75
 650:src/hostmsg.c ****           (KTransBitmap[TX_DATA.b_trans].w_txmsg_id!=0x1400) &&
 651:src/hostmsg.c ****           (KTransBitmap[TX_DATA.b_trans].w_txmsg_id!=0x1320)) {
 652:src/hostmsg.c ****         pack_word(0x0004);
 958              		.loc 1 652 0
 959 0532 0420     		movs	r0, #4
 960 0534 FFF7FEFF 		bl	pack_word
 961              	.LVL118:
 653:src/hostmsg.c ****         pack_mem(INPUT.sb_amex_4DBC, 4);
 962              		.loc 1 653 0
 963 0538 4948     		ldr	r0, .L294+80
 964 053a 0421     		movs	r1, #4
 965              	.L287:
 966 053c FFF7FEFF 		bl	pack_mem
 967              	.LVL119:
 968 0540 03E0     		b	.L73
 969              	.L75:
 654:src/hostmsg.c ****       }
 655:src/hostmsg.c ****       else
 656:src/hostmsg.c ****         tx_bitmap[6] &= ~0x02; // no 4DBC
 970              		.loc 1 656 0
 971 0542 25F00205 		bic	r5, r5, #2
 972 0546 8DF83250 		strb	r5, [sp, #50]
 973              	.L73:
ARM GAS  C:\Users\AHMED~1.ELE\AppData\Local\Temp\cc0wYKcg.s 			page 30


 657:src/hostmsg.c ****   }
 658:src/hostmsg.c **** 
 659:src/hostmsg.c ****   /* 60. reserved private */
 660:src/hostmsg.c ****   if (tx_bitmap[7] & 0x10) {
 974              		.loc 1 660 0
 975 054a 9DF83340 		ldrb	r4, [sp, #51]	@ zero_extendqisi2
 976 054e E506     		lsls	r5, r4, #27
 977 0550 3BD5     		bpl	.L76
 661:src/hostmsg.c ****     if (TX_DATA.b_trans == SETTLEMENT) {
 978              		.loc 1 661 0
 979 0552 404D     		ldr	r5, .L294+68
 980 0554 95F8A884 		ldrb	r8, [r5, #1192]	@ zero_extendqisi2
 981 0558 B8F10D0F 		cmp	r8, #13
 982 055c 08D1     		bne	.L77
 662:src/hostmsg.c ****       pack_word(0x0006); /* length */
 983              		.loc 1 662 0
 984 055e 0620     		movs	r0, #6
 985 0560 FFF7FEFF 		bl	pack_word
 986              	.LVL120:
 663:src/hostmsg.c ****       split_data(STIS_ACQ_TBL(0).sb_curr_batch_no, 3);
 987              		.loc 1 663 0
 988 0564 3F4B     		ldr	r3, .L294+84
 989 0566 0321     		movs	r1, #3
 990 0568 1868     		ldr	r0, [r3]
 991 056a 00F56D70 		add	r0, r0, #948
 992 056e 2AE0     		b	.L288
 993              	.L77:
 664:src/hostmsg.c ****     }
 665:src/hostmsg.c ****     else
 666:src/hostmsg.c ****       if (TX_DATA.b_trans == TRANS_UPLOAD) {
 994              		.loc 1 666 0
 995 0570 B8F10C0F 		cmp	r8, #12
 996 0574 1BD1     		bne	.L78
 667:src/hostmsg.c ****         pack_word(0x0022);
 997              		.loc 1 667 0
 998 0576 2220     		movs	r0, #34
 999 0578 FFF7FEFF 		bl	pack_word
 1000              	.LVL121:
 668:src/hostmsg.c ****         tmp [0] = (BYTE)(KTransBitmap[TX_DATA.b_org_trans].w_txmsg_id >> 8);
 1001              		.loc 1 668 0
 1002 057c 95F8AB26 		ldrb	r2, [r5, #1707]	@ zero_extendqisi2
 1003 0580 1823     		movs	r3, #24
 669:src/hostmsg.c ****         tmp [1] = (BYTE)(KTransBitmap[TX_DATA.b_org_trans].w_txmsg_id &0xF);
 670:src/hostmsg.c ****         split_data(tmp, 2);
 1004              		.loc 1 670 0
 1005 0582 04A8     		add	r0, sp, #16
 668:src/hostmsg.c ****         tmp [0] = (BYTE)(KTransBitmap[TX_DATA.b_org_trans].w_txmsg_id >> 8);
 1006              		.loc 1 668 0
 1007 0584 5343     		muls	r3, r2, r3
 1008 0586 354A     		ldr	r2, .L294+76
 1009              		.loc 1 670 0
 1010 0588 0221     		movs	r1, #2
 668:src/hostmsg.c ****         tmp [0] = (BYTE)(KTransBitmap[TX_DATA.b_org_trans].w_txmsg_id >> 8);
 1011              		.loc 1 668 0
 1012 058a D35A     		ldrh	r3, [r2, r3]
 1013 058c 1A0A     		lsrs	r2, r3, #8
 669:src/hostmsg.c ****         tmp [1] = (BYTE)(KTransBitmap[TX_DATA.b_org_trans].w_txmsg_id &0xF);
ARM GAS  C:\Users\AHMED~1.ELE\AppData\Local\Temp\cc0wYKcg.s 			page 31


 1014              		.loc 1 669 0
 1015 058e 03F00F03 		and	r3, r3, #15
 668:src/hostmsg.c ****         tmp [0] = (BYTE)(KTransBitmap[TX_DATA.b_org_trans].w_txmsg_id >> 8);
 1016              		.loc 1 668 0
 1017 0592 8DF81020 		strb	r2, [sp, #16]
 669:src/hostmsg.c ****         tmp [1] = (BYTE)(KTransBitmap[TX_DATA.b_org_trans].w_txmsg_id &0xF);
 1018              		.loc 1 669 0
 1019 0596 8DF81130 		strb	r3, [sp, #17]
 1020              		.loc 1 670 0
 1021 059a FFF7FEFF 		bl	split_data
 1022              	.LVL122:
 671:src/hostmsg.c ****         split_data(TX_DATA.sb_org_trace_no, 3);
 1023              		.loc 1 671 0
 1024 059e 3248     		ldr	r0, .L294+88
 1025 05a0 0321     		movs	r1, #3
 1026 05a2 FFF7FEFF 		bl	split_data
 1027              	.LVL123:
 672:src/hostmsg.c ****         pack_space(12);
 1028              		.loc 1 672 0
 1029 05a6 4046     		mov	r0, r8
 1030 05a8 FFF7FEFF 		bl	pack_space
 1031              	.LVL124:
 1032 05ac 0DE0     		b	.L76
 1033              	.L78:
 673:src/hostmsg.c ****       }
 674:src/hostmsg.c ****       else { /* adjust original amount */
 675:src/hostmsg.c ****         pack_word(0x0012);
 676:src/hostmsg.c ****         dbin2bcd(tmp,TX_DATA.dd_org_amount);
 1034              		.loc 1 676 0
 1035 05ae 05F59A65 		add	r5, r5, #1232
 675:src/hostmsg.c ****         dbin2bcd(tmp,TX_DATA.dd_org_amount);
 1036              		.loc 1 675 0
 1037 05b2 1220     		movs	r0, #18
 1038 05b4 FFF7FEFF 		bl	pack_word
 1039              	.LVL125:
 1040              		.loc 1 676 0
 1041 05b8 04A8     		add	r0, sp, #16
 1042 05ba D5E90023 		ldrd	r2, [r5]
 1043 05be FFF7FEFF 		bl	dbin2bcd
 1044              	.LVL126:
 677:src/hostmsg.c ****         split_data(&tmp[4], 6);
 1045              		.loc 1 677 0
 1046 05c2 05A8     		add	r0, sp, #20
 1047 05c4 0621     		movs	r1, #6
 1048              	.L288:
 1049 05c6 FFF7FEFF 		bl	split_data
 1050              	.LVL127:
 1051              	.L76:
 678:src/hostmsg.c ****       }
 679:src/hostmsg.c ****   }
 680:src/hostmsg.c **** 
 681:src/hostmsg.c ****   /* 61. private - product codes */
 682:src/hostmsg.c ****   if (tx_bitmap[7] & 0x08) {
 1052              		.loc 1 682 0
 1053 05ca 2007     		lsls	r0, r4, #28
 1054 05cc 54D5     		bpl	.L80
 683:src/hostmsg.c ****     if (TX_DATA.sb_product[0] == 0xFF)
ARM GAS  C:\Users\AHMED~1.ELE\AppData\Local\Temp\cc0wYKcg.s 			page 32


 1055              		.loc 1 683 0
 1056 05ce 214B     		ldr	r3, .L294+68
 1057 05d0 93F8D824 		ldrb	r2, [r3, #1240]	@ zero_extendqisi2
 1058 05d4 1D46     		mov	r5, r3
 1059 05d6 FF2A     		cmp	r2, #255
 1060 05d8 04D1     		bne	.L81
 684:src/hostmsg.c ****       tx_bitmap[7] &= ~0x08; /* clear BIT */
 1061              		.loc 1 684 0
 1062 05da 24F00804 		bic	r4, r4, #8
 1063 05de 8DF83340 		strb	r4, [sp, #51]
 1064 05e2 49E0     		b	.L80
 1065              	.L81:
 685:src/hostmsg.c ****     else {
 686:src/hostmsg.c ****       pack_word(0x0008); /* length */
 1066              		.loc 1 686 0
 1067 05e4 0820     		movs	r0, #8
 1068 05e6 FFF7FEFF 		bl	pack_word
 1069              	.LVL128:
 1070 05ea 0024     		movs	r4, #0
 1071              	.LVL129:
 1072              	.L84:
 1073 05ec 2B19     		adds	r3, r5, r4
 687:src/hostmsg.c ****       for (var_i = 0; var_i != 4; var_i++) {
 688:src/hostmsg.c ****         if (TX_DATA.sb_product[var_i] != 0xFF) {
 1074              		.loc 1 688 0
 1075 05ee 93F8D824 		ldrb	r2, [r3, #1240]	@ zero_extendqisi2
 1076 05f2 FF2A     		cmp	r2, #255
 1077 05f4 3AD0     		beq	.L82
 689:src/hostmsg.c ****           APM_GetDescTbl(TX_DATA.sb_product[var_i], &prod);
 1078              		.loc 1 689 0
 1079 05f6 0023     		movs	r3, #0
 1080 05f8 1721     		movs	r1, #23
 1081 05fa 0093     		str	r3, [sp]
 1082 05fc 1020     		movs	r0, #16
 1083 05fe 0FAB     		add	r3, sp, #60
 1084 0600 FFF7FEFF 		bl	lib_app_call
 1085              	.LVL130:
 690:src/hostmsg.c ****           pack_mem((BYTE *)&prod.sb_host_tx_code, 2);
 1086              		.loc 1 690 0
 1087 0604 0DF13D00 		add	r0, sp, #61
 1088 0608 0221     		movs	r1, #2
 1089 060a FFF7FEFF 		bl	pack_mem
 1090              	.LVL131:
 1091 060e 30E0     		b	.L83
 1092              	.L295:
 1093              		.align	2
 1094              	.L294:
 1095 0610 AB040000 		.word	gGTS+1195
 1096 0614 3A000000 		.word	.LC13
 1097 0618 07050000 		.word	gGTS+1287
 1098 061c 41000000 		.word	.LC14
 1099 0620 4A000000 		.word	.LC15
 1100 0624 5A000000 		.word	.LC16
 1101 0628 5E000000 		.word	.LC17
 1102 062c 01020000 		.word	gGTS+513
 1103 0630 62000000 		.word	.LC18
 1104 0634 66000000 		.word	.LC19
ARM GAS  C:\Users\AHMED~1.ELE\AppData\Local\Temp\cc0wYKcg.s 			page 33


 1105 0638 6A000000 		.word	.LC20
 1106 063c 8B000000 		.word	.LC21
 1107 0640 8F000000 		.word	.LC22
 1108 0644 A0000000 		.word	.LC23
 1109 0648 AA000000 		.word	.LC24
 1110 064c AD000000 		.word	.LC25
 1111 0650 C0040000 		.word	gGTS+1216
 1112 0654 00000000 		.word	gGTS
 1113 0658 56050000 		.word	gGTS+1366
 1114 065c 00000000 		.word	KTransBitmap
 1115 0660 F7020000 		.word	gGTS+759
 1116 0664 00000000 		.word	gGDS
 1117 0668 AC060000 		.word	gGTS+1708
 1118              	.L82:
 691:src/hostmsg.c ****         }
 692:src/hostmsg.c ****         else
 693:src/hostmsg.c ****           pack_space(2);
 1119              		.loc 1 693 0
 1120 066c 0220     		movs	r0, #2
 1121 066e FFF7FEFF 		bl	pack_space
 1122              	.LVL132:
 1123              	.L83:
 1124 0672 0134     		adds	r4, r4, #1
 1125              	.LVL133:
 687:src/hostmsg.c ****         if (TX_DATA.sb_product[var_i] != 0xFF) {
 1126              		.loc 1 687 0 discriminator 2
 1127 0674 042C     		cmp	r4, #4
 1128 0676 B9D1     		bne	.L84
 1129              	.L80:
 694:src/hostmsg.c ****       }
 695:src/hostmsg.c ****     }
 696:src/hostmsg.c ****   }
 697:src/hostmsg.c **** 
 698:src/hostmsg.c ****   /* 62. private - ROC number of financial/SOC number of settlement */
 699:src/hostmsg.c ****   if (tx_bitmap[7] & 0x04) {
 1130              		.loc 1 699 0
 1131 0678 9DF83340 		ldrb	r4, [sp, #51]	@ zero_extendqisi2
 1132 067c 6107     		lsls	r1, r4, #29
 1133 067e 06D5     		bpl	.L86
 700:src/hostmsg.c ****     pack_word(0x0020); /* length */
 1134              		.loc 1 700 0
 1135 0680 2020     		movs	r0, #32
 1136 0682 FFF7FEFF 		bl	pack_word
 1137              	.LVL134:
 701:src/hostmsg.c ****     split_data(TX_DATA.sb_roc_no, 10);
 1138              		.loc 1 701 0
 1139 0686 6448     		ldr	r0, .L296
 1140 0688 0A21     		movs	r1, #10
 1141 068a FFF7FEFF 		bl	split_data
 1142              	.LVL135:
 1143              	.L86:
 702:src/hostmsg.c ****   }
 703:src/hostmsg.c **** 
 704:src/hostmsg.c ****   /* 63. versions */
 705:src/hostmsg.c ****   if (tx_bitmap[7] & 0x02) {
 1144              		.loc 1 705 0
 1145 068e A207     		lsls	r2, r4, #30
ARM GAS  C:\Users\AHMED~1.ELE\AppData\Local\Temp\cc0wYKcg.s 			page 34


 1146 0690 06D5     		bpl	.L87
 706:src/hostmsg.c ****     pack_word(0x0025);
 1147              		.loc 1 706 0
 1148 0692 2520     		movs	r0, #37
 1149 0694 FFF7FEFF 		bl	pack_word
 1150              	.LVL136:
 707:src/hostmsg.c ****     pack_nbyte('0', 25);                              //testing only
 1151              		.loc 1 707 0
 1152 0698 3020     		movs	r0, #48
 1153 069a 1921     		movs	r1, #25
 1154 069c FFF7FEFF 		bl	pack_nbyte
 1155              	.LVL137:
 1156              	.L87:
 708:src/hostmsg.c ****   }
 709:src/hostmsg.c **** 
 710:src/hostmsg.c ****   /* 64. MAC */
 711:src/hostmsg.c ****   if (tx_bitmap[7] & 0x01) {
 1157              		.loc 1 711 0
 1158 06a0 E307     		lsls	r3, r4, #31
 1159 06a2 03D5     		bpl	.L88
 712:src/hostmsg.c ****     pack_mem("\x00\x00\x00\x00\x00\x00\x00\x00", 8);  //testing only
 1160              		.loc 1 712 0
 1161 06a4 5D48     		ldr	r0, .L296+4
 1162 06a6 0821     		movs	r1, #8
 1163 06a8 FFF7FEFF 		bl	pack_mem
 1164              	.LVL138:
 1165              	.L88:
 713:src/hostmsg.c ****   }
 714:src/hostmsg.c **** 
 715:src/hostmsg.c ****   /* 71. Message number */
 716:src/hostmsg.c ****   if (tx_bitmap[8] & 0x02) {
 1166              		.loc 1 716 0
 1167 06ac 9DF83440 		ldrb	r4, [sp, #52]	@ zero_extendqisi2
 1168 06b0 A507     		lsls	r5, r4, #30
 1169 06b2 03D5     		bpl	.L89
 717:src/hostmsg.c **** 	  pack_mem("00000001", 8);               //testing only 
 1170              		.loc 1 717 0
 1171 06b4 5A48     		ldr	r0, .L296+8
 1172 06b6 0821     		movs	r1, #8
 1173 06b8 FFF7FEFF 		bl	pack_mem
 1174              	.LVL139:
 1175              	.L89:
 718:src/hostmsg.c ****   }
 719:src/hostmsg.c **** 
 720:src/hostmsg.c ****   /* 72. Data Record */
 721:src/hostmsg.c ****    //15082018 test 
 722:src/hostmsg.c ****   if (tx_bitmap[8] & 0x01) {
 1176              		.loc 1 722 0
 1177 06bc E007     		lsls	r0, r4, #31
 1178 06be 40F1D980 		bpl	.L90
 723:src/hostmsg.c ****     if ((TX_DATA.b_trans == TRANS_UPLOAD_LAST) || (TX_DATA.b_trans == TRANS_UPLOAD)) {
 1179              		.loc 1 723 0
 1180 06c2 584C     		ldr	r4, .L296+12
 1181 06c4 94F8A834 		ldrb	r3, [r4, #1192]	@ zero_extendqisi2
 1182 06c8 192B     		cmp	r3, #25
 1183 06ca 02D0     		beq	.L91
 1184              		.loc 1 723 0 is_stmt 0 discriminator 1
ARM GAS  C:\Users\AHMED~1.ELE\AppData\Local\Temp\cc0wYKcg.s 			page 35


 1185 06cc 0C2B     		cmp	r3, #12
 1186 06ce 40F0D180 		bne	.L90
 1187              	.L91:
 724:src/hostmsg.c ****       pack_word(0x0103); /* length */
 1188              		.loc 1 724 0 is_stmt 1
 1189 06d2 40F20310 		movw	r0, #259
 1190 06d6 FFF7FEFF 		bl	pack_word
 1191              	.LVL140:
 725:src/hostmsg.c ****         
 726:src/hostmsg.c ****     //msg_id   4byte
 727:src/hostmsg.c ****         SprintfMW(buf, "%04X", KTransBitmap[TX_DATA.b_trans_old].w_txmsg_id);
 1192              		.loc 1 727 0
 1193 06da 94F8A924 		ldrb	r2, [r4, #1193]	@ zero_extendqisi2
 1194 06de 1823     		movs	r3, #24
 1195 06e0 5149     		ldr	r1, .L296+16
 1196 06e2 5343     		muls	r3, r2, r3
 1197 06e4 514A     		ldr	r2, .L296+20
 1198 06e6 16A8     		add	r0, sp, #88
 1199 06e8 D25A     		ldrh	r2, [r2, r3]
 1200 06ea FFF7FEFF 		bl	sprintf
 1201              	.LVL141:
 728:src/hostmsg.c ****         pack_mem(buf, 4);
 1202              		.loc 1 728 0
 1203 06ee 16A8     		add	r0, sp, #88
 1204 06f0 0421     		movs	r1, #4
 1205 06f2 FFF7FEFF 		bl	pack_mem
 1206              	.LVL142:
 729:src/hostmsg.c ****         
 730:src/hostmsg.c ****     //processing code
 731:src/hostmsg.c ****           split_data(TX_DATA.sb_proc_code, 3);
 1207              		.loc 1 731 0
 1208 06f6 4E48     		ldr	r0, .L296+24
 1209 06f8 0321     		movs	r1, #3
 1210 06fa FFF7FEFF 		bl	split_data
 1211              	.LVL143:
 732:src/hostmsg.c ****      //trace audit code
 733:src/hostmsg.c ****         split_data(TX_DATA.sb_trace_no, 3);
 1212              		.loc 1 733 0
 1213 06fe 4D48     		ldr	r0, .L296+28
 1214 0700 0321     		movs	r1, #3
 1215 0702 FFF7FEFF 		bl	split_data
 1216              	.LVL144:
 734:src/hostmsg.c ****      //PAN
 735:src/hostmsg.c ****         var_i = (BYTE)fndb(TX_DATA.sb_pan, 0xff, 10);
 1217              		.loc 1 735 0
 1218 0706 FF21     		movs	r1, #255
 1219 0708 0A22     		movs	r2, #10
 1220 070a 4B48     		ldr	r0, .L296+32
 1221 070c FFF7FEFF 		bl	fndb
 1222              	.LVL145:
 1223 0710 5FFA80F8 		uxtb	r8, r0
 1224              	.LVL146:
 736:src/hostmsg.c ****         if (var_i == 0xff)
 737:src/hostmsg.c ****             var_i = 10;
 1225              		.loc 1 737 0
 1226 0714 B8F1FF0F 		cmp	r8, #255
 1227 0718 08BF     		it	eq
ARM GAS  C:\Users\AHMED~1.ELE\AppData\Local\Temp\cc0wYKcg.s 			page 36


 1228 071a 4FF00A08 		moveq	r8, #10
 1229              	.LVL147:
 738:src/hostmsg.c ****         var_j = var_i * 2;
 739:src/hostmsg.c ****         if ((TX_DATA.sb_pan[var_i-1] & 0x0f) == 0x0f) {
 1230              		.loc 1 739 0
 1231 071e 04EB0803 		add	r3, r4, r8
 738:src/hostmsg.c ****         var_j = var_i * 2;
 1232              		.loc 1 738 0
 1233 0722 4FEA4805 		lsl	r5, r8, #1
 1234              		.loc 1 739 0
 1235 0726 93F8B134 		ldrb	r3, [r3, #1201]	@ zero_extendqisi2
 738:src/hostmsg.c ****         var_j = var_i * 2;
 1236              		.loc 1 738 0
 1237 072a EDB2     		uxtb	r5, r5
 1238              	.LVL148:
 1239              		.loc 1 739 0
 1240 072c 03F00F03 		and	r3, r3, #15
 1241 0730 0F2B     		cmp	r3, #15
 740:src/hostmsg.c ****             var_j -= 1;
 1242              		.loc 1 740 0
 1243 0732 04BF     		itt	eq
 1244 0734 05F1FF35 		addeq	r5, r5, #-1
 1245              	.LVL149:
 1246 0738 EDB2     		uxtbeq	r5, r5
 1247              	.LVL150:
 741:src/hostmsg.c ****             //if ((STIS_ACQ_TBL(0).sb_nii[0]*256+STIS_ACQ_TBL(0).sb_nii[1]) == 0x016)
 742:src/hostmsg.c ****             //  TX_DATA.sb_pan[var_i - 1] &= 0xf0;
 743:src/hostmsg.c ****         }
 744:src/hostmsg.c ****         pack_byte((BYTE)bin2bcd(var_j));
 1248              		.loc 1 744 0
 1249 073a 2846     		mov	r0, r5
 1250 073c FFF7FEFF 		bl	bin2bcd
 1251              	.LVL151:
 1252 0740 C0B2     		uxtb	r0, r0
 1253 0742 FFF7FEFF 		bl	pack_byte
 1254              	.LVL152:
 745:src/hostmsg.c ****         split(buf, TX_DATA.sb_pan, var_i);
 1255              		.loc 1 745 0
 1256 0746 4246     		mov	r2, r8
 1257 0748 16A8     		add	r0, sp, #88
 1258 074a 3B49     		ldr	r1, .L296+32
 1259 074c FFF7FEFF 		bl	split
 1260              	.LVL153:
 746:src/hostmsg.c ****         pack_mem(buf, var_j);                     // PAN in ascii format
 1261              		.loc 1 746 0
 1262 0750 16A8     		add	r0, sp, #88
 1263 0752 2946     		mov	r1, r5
 1264 0754 FFF7FEFF 		bl	pack_mem
 1265              	.LVL154:
 747:src/hostmsg.c ****         //FS1
 748:src/hostmsg.c ****         pack_mem("*",1);
 1266              		.loc 1 748 0
 1267 0758 3848     		ldr	r0, .L296+36
 1268 075a 0121     		movs	r1, #1
 1269 075c FFF7FEFF 		bl	pack_mem
 1270              	.LVL155:
 749:src/hostmsg.c ****         //amount
ARM GAS  C:\Users\AHMED~1.ELE\AppData\Local\Temp\cc0wYKcg.s 			page 37


 750:src/hostmsg.c ****         if (TX_DATA.b_trans != VOID)
 1271              		.loc 1 750 0
 1272 0760 94F8A834 		ldrb	r3, [r4, #1192]	@ zero_extendqisi2
 1273 0764 0A2B     		cmp	r3, #10
 1274 0766 06D0     		beq	.L94
 751:src/hostmsg.c ****             dbin2bcd(tmp,TX_DATA.dd_amount);
 1275              		.loc 1 751 0
 1276 0768 354B     		ldr	r3, .L296+40
 1277 076a 04A8     		add	r0, sp, #16
 1278 076c D3E90023 		ldrd	r2, [r3]
 1279 0770 FFF7FEFF 		bl	dbin2bcd
 1280              	.LVL156:
 1281 0774 03E0     		b	.L95
 1282              	.L94:
 752:src/hostmsg.c ****         else
 753:src/hostmsg.c ****             memset(&tmp[4], 0, 6);
 1283              		.loc 1 753 0
 1284 0776 0022     		movs	r2, #0
 1285 0778 0592     		str	r2, [sp, #20]
 1286 077a ADF81820 		strh	r2, [sp, #24]	@ movhi
 1287              	.L95:
 754:src/hostmsg.c ****         split_data(&tmp[4], 6);
 1288              		.loc 1 754 0
 1289 077e 05AD     		add	r5, sp, #20
 1290              	.LVL157:
 1291 0780 2846     		mov	r0, r5
 1292 0782 0621     		movs	r1, #6
 1293 0784 FFF7FEFF 		bl	split_data
 1294              	.LVL158:
 755:src/hostmsg.c ****         //currency
 756:src/hostmsg.c ****          pack_mem("818", 3);
 1295              		.loc 1 756 0
 1296 0788 2E48     		ldr	r0, .L296+44
 1297 078a 0321     		movs	r1, #3
 1298 078c FFF7FEFF 		bl	pack_mem
 1299              	.LVL159:
 757:src/hostmsg.c **** 
 758:src/hostmsg.c **** 		 // Reconciliation  amount
 759:src/hostmsg.c **** 		 if (TX_DATA.b_trans != VOID)
 1300              		.loc 1 759 0
 1301 0790 94F8A834 		ldrb	r3, [r4, #1192]	@ zero_extendqisi2
 1302 0794 0A2B     		cmp	r3, #10
 1303 0796 06D0     		beq	.L96
 760:src/hostmsg.c **** 			 dbin2bcd(tmp, TX_DATA.dd_amount);
 1304              		.loc 1 760 0
 1305 0798 294B     		ldr	r3, .L296+40
 1306 079a 04A8     		add	r0, sp, #16
 1307 079c D3E90023 		ldrd	r2, [r3]
 1308 07a0 FFF7FEFF 		bl	dbin2bcd
 1309              	.LVL160:
 1310 07a4 02E0     		b	.L97
 1311              	.L96:
 761:src/hostmsg.c **** 		 else
 762:src/hostmsg.c **** 			 memset(&tmp[4], 0, 6);
 1312              		.loc 1 762 0
 1313 07a6 0023     		movs	r3, #0
 1314 07a8 0593     		str	r3, [sp, #20]
ARM GAS  C:\Users\AHMED~1.ELE\AppData\Local\Temp\cc0wYKcg.s 			page 38


 1315 07aa AB80     		strh	r3, [r5, #4]	@ movhi
 1316              	.L97:
 763:src/hostmsg.c **** 		 split_data(&tmp[4], 6);
 1317              		.loc 1 763 0
 1318 07ac 05AD     		add	r5, sp, #20
 1319 07ae 2846     		mov	r0, r5
 1320 07b0 0621     		movs	r1, #6
 1321 07b2 FFF7FEFF 		bl	split_data
 1322              	.LVL161:
 764:src/hostmsg.c **** 		 //Reconciliation  currency
 765:src/hostmsg.c **** 		 pack_mem("818", 3);
 766:src/hostmsg.c **** 
 767:src/hostmsg.c ****         //Transaction date 6 byte   DDMMYY   for CCYYMMDDHHMMSS
 768:src/hostmsg.c ****         pack_mem(&date_time[6], 2); //DD
 1323              		.loc 1 768 0
 1324 07b6 0DF12209 		add	r9, sp, #34
 765:src/hostmsg.c **** 
 1325              		.loc 1 765 0
 1326 07ba 2248     		ldr	r0, .L296+44
 1327 07bc 0321     		movs	r1, #3
 1328 07be FFF7FEFF 		bl	pack_mem
 1329              	.LVL162:
 769:src/hostmsg.c ****         pack_mem(&date_time[4], 2); //MM
 1330              		.loc 1 769 0
 1331 07c2 0DF12008 		add	r8, sp, #32
 1332              	.LVL163:
 768:src/hostmsg.c ****         pack_mem(&date_time[4], 2); //MM
 1333              		.loc 1 768 0
 1334 07c6 4846     		mov	r0, r9
 1335 07c8 0221     		movs	r1, #2
 1336 07ca FFF7FEFF 		bl	pack_mem
 1337              	.LVL164:
 1338              		.loc 1 769 0
 1339 07ce 4046     		mov	r0, r8
 1340 07d0 0221     		movs	r1, #2
 1341 07d2 FFF7FEFF 		bl	pack_mem
 1342              	.LVL165:
 770:src/hostmsg.c ****         pack_mem(&date_time[2], 2); //YY
 1343              		.loc 1 770 0
 1344 07d6 0DF11E00 		add	r0, sp, #30
 1345 07da 0221     		movs	r1, #2
 1346 07dc FFF7FEFF 		bl	pack_mem
 1347              	.LVL166:
 771:src/hostmsg.c ****         //Authorisation number  ask amr 6 byte
 772:src/hostmsg.c ****             split_data(TX_DATA.sb_trace_no, 3);
 1348              		.loc 1 772 0
 1349 07e0 1448     		ldr	r0, .L296+28
 1350 07e2 0321     		movs	r1, #3
 1351 07e4 FFF7FEFF 		bl	split_data
 1352              	.LVL167:
 773:src/hostmsg.c ****         //exchenge = 9 byte + DDMM + Amount [12 byte]
 774:src/hostmsg.c ****         pack_mem("000000000", 9);
 1353              		.loc 1 774 0
 1354 07e8 1748     		ldr	r0, .L296+48
 1355 07ea 0921     		movs	r1, #9
 1356 07ec FFF7FEFF 		bl	pack_mem
 1357              	.LVL168:
ARM GAS  C:\Users\AHMED~1.ELE\AppData\Local\Temp\cc0wYKcg.s 			page 39


 775:src/hostmsg.c ****         pack_mem(&date_time[6], 2); //DD
 1358              		.loc 1 775 0
 1359 07f0 4846     		mov	r0, r9
 1360 07f2 0221     		movs	r1, #2
 1361 07f4 FFF7FEFF 		bl	pack_mem
 1362              	.LVL169:
 776:src/hostmsg.c ****         pack_mem(&date_time[4], 2); //MM
 1363              		.loc 1 776 0
 1364 07f8 4046     		mov	r0, r8
 1365 07fa 0221     		movs	r1, #2
 1366 07fc FFF7FEFF 		bl	pack_mem
 1367              	.LVL170:
 777:src/hostmsg.c ****         if (TX_DATA.b_trans != VOID)
 1368              		.loc 1 777 0
 1369 0800 94F8A834 		ldrb	r3, [r4, #1192]	@ zero_extendqisi2
 1370 0804 0A2B     		cmp	r3, #10
 1371 0806 21D0     		beq	.L98
 778:src/hostmsg.c ****             dbin2bcd(tmp,TX_DATA.dd_amount);
 1372              		.loc 1 778 0
 1373 0808 0D4B     		ldr	r3, .L296+40
 1374 080a 04A8     		add	r0, sp, #16
 1375 080c D3E90023 		ldrd	r2, [r3]
 1376 0810 FFF7FEFF 		bl	dbin2bcd
 1377              	.LVL171:
 1378 0814 1DE0     		b	.L99
 1379              	.L297:
 1380 0816 00BF     		.align	2
 1381              	.L296:
 1382 0818 AF040000 		.word	gGTS+1199
 1383 081c 07000000 		.word	.LANCHOR0+7
 1384 0820 AF000000 		.word	.LC27
 1385 0824 00000000 		.word	gGTS
 1386 0828 00000000 		.word	.LC0
 1387 082c 00000000 		.word	KTransBitmap
 1388 0830 A8060000 		.word	gGTS+1704
 1389 0834 AB040000 		.word	gGTS+1195
 1390 0838 B2040000 		.word	gGTS+1202
 1391 083c B8000000 		.word	.LC28
 1392 0840 C0040000 		.word	gGTS+1216
 1393 0844 8B000000 		.word	.LC21
 1394 0848 BA000000 		.word	.LC29
 1395              	.L98:
 779:src/hostmsg.c ****         else
 780:src/hostmsg.c ****             memset(&tmp[4], 0, 6);
 1396              		.loc 1 780 0
 1397 084c 0023     		movs	r3, #0
 1398 084e 0593     		str	r3, [sp, #20]
 1399 0850 AB80     		strh	r3, [r5, #4]	@ movhi
 1400              	.L99:
 781:src/hostmsg.c ****         split_data(&tmp[4], 6);
 1401              		.loc 1 781 0
 1402 0852 05A8     		add	r0, sp, #20
 1403 0854 0621     		movs	r1, #6
 1404 0856 FFF7FEFF 		bl	split_data
 1405              	.LVL172:
 782:src/hostmsg.c ****         
 783:src/hostmsg.c ****         //offline or online
ARM GAS  C:\Users\AHMED~1.ELE\AppData\Local\Temp\cc0wYKcg.s 			page 40


 784:src/hostmsg.c ****         if ((TX_DATA.b_trans_status & OFFLINE)==0) {
 1406              		.loc 1 784 0
 1407 085a 94F9AA34 		ldrsb	r3, [r4, #1194]
 785:src/hostmsg.c ****            pack_mem("0", 1);
 786:src/hostmsg.c ****         }
 787:src/hostmsg.c ****         else { /* offline - trans not sent to host yet */
 788:src/hostmsg.c ****            pack_mem("1", 1);
 1408              		.loc 1 788 0
 1409 085e 0121     		movs	r1, #1
 784:src/hostmsg.c ****            pack_mem("0", 1);
 1410              		.loc 1 784 0
 1411 0860 002B     		cmp	r3, #0
 785:src/hostmsg.c ****            pack_mem("0", 1);
 1412              		.loc 1 785 0
 1413 0862 ACBF     		ite	ge
 1414 0864 6048     		ldrge	r0, .L298
 1415              		.loc 1 788 0
 1416 0866 6148     		ldrlt	r0, .L298+4
 1417 0868 FFF7FEFF 		bl	pack_mem
 1418              	.LVL173:
 789:src/hostmsg.c ****         }
 790:src/hostmsg.c ****         //FS2
 791:src/hostmsg.c ****          pack_mem("?",1);
 1419              		.loc 1 791 0
 1420 086c 6048     		ldr	r0, .L298+8
 1421 086e 0121     		movs	r1, #1
 1422 0870 FFF7FEFF 		bl	pack_mem
 1423              	.LVL174:
 1424              	.L90:
 792:src/hostmsg.c ****         
 793:src/hostmsg.c ****         
 794:src/hostmsg.c ****    //   pack_mem("6013260019010000001259708402000000036575", 40);   //testing only
 795:src/hostmsg.c ****         
 796:src/hostmsg.c ****         
 797:src/hostmsg.c ****     }
 798:src/hostmsg.c ****   }
 799:src/hostmsg.c ****  // 
 800:src/hostmsg.c **** //  SprintfMW(buf, "%04d", get_distance());
 801:src/hostmsg.c **** //  memcpy(len_ptr, buf, 4);
 802:src/hostmsg.c **** 
 803:src/hostmsg.c **** 
 804:src/hostmsg.c **** /* 73. Action date */
 805:src/hostmsg.c ****   if (tx_bitmap[9] & 0x80) {
 1425              		.loc 1 805 0
 1426 0874 9DF83550 		ldrb	r5, [sp, #53]	@ zero_extendqisi2
 1427 0878 2906     		lsls	r1, r5, #24
 1428 087a 04D5     		bpl	.L102
 806:src/hostmsg.c **** 	  pack_mem(&date_time[2], 6);
 1429              		.loc 1 806 0
 1430 087c 0DF11E00 		add	r0, sp, #30
 1431 0880 0621     		movs	r1, #6
 1432 0882 FFF7FEFF 		bl	pack_mem
 1433              	.LVL175:
 1434              	.L102:
 807:src/hostmsg.c ****   }
 808:src/hostmsg.c **** 
 809:src/hostmsg.c ****   //15082018 test 
ARM GAS  C:\Users\AHMED~1.ELE\AppData\Local\Temp\cc0wYKcg.s 			page 41


 810:src/hostmsg.c **** 
 811:src/hostmsg.c ****   /* 74. Credits number (sum of all TRX) */
 812:src/hostmsg.c ****   if (tx_bitmap[9] & 0x40) {
 1435              		.loc 1 812 0
 1436 0886 15F0400F 		tst	r5, #64
 1437 088a 5A4C     		ldr	r4, .L298+12
 1438 088c 0BD0     		beq	.L103
 813:src/hostmsg.c **** 	dbin2bcd(tmp, TERM_TOT.s_sale_tot.dd_amount);
 1439              		.loc 1 813 0
 1440 088e 2368     		ldr	r3, [r4]
 1441 0890 04A8     		add	r0, sp, #16
 1442 0892 03F6D843 		addw	r3, r3, #3288
 1443 0896 D3E90023 		ldrd	r2, [r3]
 1444 089a FFF7FEFF 		bl	dbin2bcd
 1445              	.LVL176:
 814:src/hostmsg.c ****     split_data(&tmp[4], 5);
 1446              		.loc 1 814 0
 1447 089e 05A8     		add	r0, sp, #20
 1448 08a0 0521     		movs	r1, #5
 1449 08a2 FFF7FEFF 		bl	split_data
 1450              	.LVL177:
 1451              	.L103:
 815:src/hostmsg.c ****   }
 816:src/hostmsg.c **** 
 817:src/hostmsg.c **** 
 818:src/hostmsg.c **** 
 819:src/hostmsg.c ****   /* 75. Credits reversal number (sum of all reversal TRX) */
 820:src/hostmsg.c ****   if (tx_bitmap[9] & 0x20) {
 1452              		.loc 1 820 0
 1453 08a6 AA06     		lsls	r2, r5, #26
 1454 08a8 0BD5     		bpl	.L104
 821:src/hostmsg.c **** 	  dbin2bcd(tmp, TERM_TOT.s_refund_tot.dd_amount);
 1455              		.loc 1 821 0
 1456 08aa 2368     		ldr	r3, [r4]
 1457 08ac 04A8     		add	r0, sp, #16
 1458 08ae 03F6F843 		addw	r3, r3, #3320
 1459 08b2 D3E90023 		ldrd	r2, [r3]
 1460 08b6 FFF7FEFF 		bl	dbin2bcd
 1461              	.LVL178:
 822:src/hostmsg.c **** 	  split_data(&tmp[4], 5);
 1462              		.loc 1 822 0
 1463 08ba 05A8     		add	r0, sp, #20
 1464 08bc 0521     		movs	r1, #5
 1465 08be FFF7FEFF 		bl	split_data
 1466              	.LVL179:
 1467              	.L104:
 823:src/hostmsg.c ****   }
 824:src/hostmsg.c **** 
 825:src/hostmsg.c **** 
 826:src/hostmsg.c ****   /* 76. Debit number */
 827:src/hostmsg.c ****   if (tx_bitmap[9] & 0x10) {
 1468              		.loc 1 827 0
 1469 08c2 EB06     		lsls	r3, r5, #27
 1470 08c4 0BD5     		bpl	.L105
 828:src/hostmsg.c **** 	  dbin2bcd(tmp, TERM_TOT.s_sale_tot.dd_amount);
 1471              		.loc 1 828 0
 1472 08c6 2368     		ldr	r3, [r4]
ARM GAS  C:\Users\AHMED~1.ELE\AppData\Local\Temp\cc0wYKcg.s 			page 42


 1473 08c8 04A8     		add	r0, sp, #16
 1474 08ca 03F6D843 		addw	r3, r3, #3288
 1475 08ce D3E90023 		ldrd	r2, [r3]
 1476 08d2 FFF7FEFF 		bl	dbin2bcd
 1477              	.LVL180:
 829:src/hostmsg.c **** 	  split_data(&tmp[4], 5);
 1478              		.loc 1 829 0
 1479 08d6 05A8     		add	r0, sp, #20
 1480 08d8 0521     		movs	r1, #5
 1481 08da FFF7FEFF 		bl	split_data
 1482              	.LVL181:
 1483              	.L105:
 830:src/hostmsg.c ****   }
 831:src/hostmsg.c **** 
 832:src/hostmsg.c **** 
 833:src/hostmsg.c ****   /* 77. Debits reversal number */
 834:src/hostmsg.c ****   if (tx_bitmap[9] & 0x08) {
 1484              		.loc 1 834 0
 1485 08de 2807     		lsls	r0, r5, #28
 1486 08e0 0BD5     		bpl	.L106
 835:src/hostmsg.c **** 	  dbin2bcd(tmp, TERM_TOT.s_refund_tot.dd_amount);
 1487              		.loc 1 835 0
 1488 08e2 2368     		ldr	r3, [r4]
 1489 08e4 04A8     		add	r0, sp, #16
 1490 08e6 03F6F843 		addw	r3, r3, #3320
 1491 08ea D3E90023 		ldrd	r2, [r3]
 1492 08ee FFF7FEFF 		bl	dbin2bcd
 1493              	.LVL182:
 836:src/hostmsg.c **** 	  split_data(&tmp[4], 5);
 1494              		.loc 1 836 0
 1495 08f2 05A8     		add	r0, sp, #20
 1496 08f4 0521     		movs	r1, #5
 1497 08f6 FFF7FEFF 		bl	split_data
 1498              	.LVL183:
 1499              	.L106:
 837:src/hostmsg.c ****   }
 838:src/hostmsg.c **** 
 839:src/hostmsg.c **** 
 840:src/hostmsg.c ****   /* 83. Payments number */
 841:src/hostmsg.c ****   if (tx_bitmap[10] & 0x20) {
 1500              		.loc 1 841 0
 1501 08fa 9DF83650 		ldrb	r5, [sp, #54]	@ zero_extendqisi2
 1502 08fe A906     		lsls	r1, r5, #26
 1503 0900 0BD5     		bpl	.L107
 842:src/hostmsg.c **** 	  dbin2bcd(tmp, TERM_TOT.s_refund_tot.dd_amount);
 1504              		.loc 1 842 0
 1505 0902 2368     		ldr	r3, [r4]
 1506 0904 04A8     		add	r0, sp, #16
 1507 0906 03F6F843 		addw	r3, r3, #3320
 1508 090a D3E90023 		ldrd	r2, [r3]
 1509 090e FFF7FEFF 		bl	dbin2bcd
 1510              	.LVL184:
 843:src/hostmsg.c **** 	  split_data(&tmp[4], 5);
 1511              		.loc 1 843 0
 1512 0912 05A8     		add	r0, sp, #20
 1513 0914 0521     		movs	r1, #5
 1514 0916 FFF7FEFF 		bl	split_data
ARM GAS  C:\Users\AHMED~1.ELE\AppData\Local\Temp\cc0wYKcg.s 			page 43


 1515              	.LVL185:
 1516              	.L107:
 844:src/hostmsg.c ****   }
 845:src/hostmsg.c **** 
 846:src/hostmsg.c **** 
 847:src/hostmsg.c ****   /* 84. Credits amount */
 848:src/hostmsg.c ****   if (tx_bitmap[10] & 0x10) {
 1517              		.loc 1 848 0
 1518 091a EA06     		lsls	r2, r5, #27
 1519 091c 0BD5     		bpl	.L108
 849:src/hostmsg.c **** 	  dbin2bcd(tmp, TERM_TOT.s_refund_tot.dd_amount);
 1520              		.loc 1 849 0
 1521 091e 2368     		ldr	r3, [r4]
 1522 0920 04A8     		add	r0, sp, #16
 1523 0922 03F6F843 		addw	r3, r3, #3320
 1524 0926 D3E90023 		ldrd	r2, [r3]
 1525 092a FFF7FEFF 		bl	dbin2bcd
 1526              	.LVL186:
 850:src/hostmsg.c **** 	  split_data(&tmp[4], 5);
 1527              		.loc 1 850 0
 1528 092e 05A8     		add	r0, sp, #20
 1529 0930 0521     		movs	r1, #5
 1530 0932 FFF7FEFF 		bl	split_data
 1531              	.LVL187:
 1532              	.L108:
 851:src/hostmsg.c ****   }
 852:src/hostmsg.c **** 
 853:src/hostmsg.c **** 
 854:src/hostmsg.c ****   /* 86. Payments reversal number */
 855:src/hostmsg.c ****   if (tx_bitmap[10] & 0x04) {
 1533              		.loc 1 855 0
 1534 0936 6B07     		lsls	r3, r5, #29
 1535 0938 03D5     		bpl	.L109
 856:src/hostmsg.c **** 	  pack_mem("0000000000000000", 16);               //testing only 
 1536              		.loc 1 856 0
 1537 093a 2F48     		ldr	r0, .L298+16
 1538 093c 1021     		movs	r1, #16
 1539 093e FFF7FEFF 		bl	pack_mem
 1540              	.LVL188:
 1541              	.L109:
 857:src/hostmsg.c ****   }
 858:src/hostmsg.c **** 
 859:src/hostmsg.c **** 
 860:src/hostmsg.c ****   /* 87. Credits recycled amounts */
 861:src/hostmsg.c ****   if (tx_bitmap[10] & 0x02) {
 1542              		.loc 1 861 0
 1543 0942 A807     		lsls	r0, r5, #30
 1544 0944 03D5     		bpl	.L110
 862:src/hostmsg.c **** 	  pack_mem("0000000000000000", 16);               //testing only 
 1545              		.loc 1 862 0
 1546 0946 2C48     		ldr	r0, .L298+16
 1547 0948 1021     		movs	r1, #16
 1548 094a FFF7FEFF 		bl	pack_mem
 1549              	.LVL189:
 1550              	.L110:
 863:src/hostmsg.c ****   }
 864:src/hostmsg.c **** 
ARM GAS  C:\Users\AHMED~1.ELE\AppData\Local\Temp\cc0wYKcg.s 			page 44


 865:src/hostmsg.c **** 
 866:src/hostmsg.c ****   /* 88. 	Debits amount */
 867:src/hostmsg.c ****   if (tx_bitmap[10] & 0x01) {
 1551              		.loc 1 867 0
 1552 094e E907     		lsls	r1, r5, #31
 1553 0950 03D5     		bpl	.L111
 868:src/hostmsg.c **** 	  pack_mem("0000000000000000", 16);               //testing only 
 1554              		.loc 1 868 0
 1555 0952 2948     		ldr	r0, .L298+16
 1556 0954 1021     		movs	r1, #16
 1557 0956 FFF7FEFF 		bl	pack_mem
 1558              	.LVL190:
 1559              	.L111:
 869:src/hostmsg.c ****   }
 870:src/hostmsg.c **** 
 871:src/hostmsg.c ****   /* 89. Debits reversed amounts */
 872:src/hostmsg.c ****   if (tx_bitmap[11] & 0x80) {
 1560              		.loc 1 872 0
 1561 095a 9DF93730 		ldrsb	r3, [sp, #55]
 1562 095e 002B     		cmp	r3, #0
 1563 0960 07DA     		bge	.L112
 873:src/hostmsg.c **** 	  pack_mem("0000000000000000", 16);               //testing only 
 1564              		.loc 1 873 0
 1565 0962 2548     		ldr	r0, .L298+16
 1566 0964 1021     		movs	r1, #16
 1567 0966 FFF7FEFF 		bl	pack_mem
 1568              	.LVL191:
 874:src/hostmsg.c ****   }
 875:src/hostmsg.c **** 
 876:src/hostmsg.c ****   /* 97. Net reconciliation amount */
 877:src/hostmsg.c ****   if (tx_bitmap[11] & 0x80) {
 878:src/hostmsg.c **** 	  pack_mem("0000000000000000", 16);               //testing only 
 1569              		.loc 1 878 0
 1570 096a 2348     		ldr	r0, .L298+16
 1571 096c 1021     		movs	r1, #16
 1572 096e FFF7FEFF 		bl	pack_mem
 1573              	.LVL192:
 1574              	.L112:
 879:src/hostmsg.c ****   }
 880:src/hostmsg.c **** 
 881:src/hostmsg.c **** 
 882:src/hostmsg.c **** 
 883:src/hostmsg.c **** 
 884:src/hostmsg.c ****   /* 101. File name */
 885:src/hostmsg.c ****   if (tx_bitmap[12] & 0x08) {
 1575              		.loc 1 885 0
 1576 0972 9DF83830 		ldrb	r3, [sp, #56]	@ zero_extendqisi2
 1577 0976 1A07     		lsls	r2, r3, #28
 1578 0978 06D5     		bpl	.L113
 886:src/hostmsg.c **** 	  pack_byte(0x11);
 1579              		.loc 1 886 0
 1580 097a 1120     		movs	r0, #17
 1581 097c FFF7FEFF 		bl	pack_byte
 1582              	.LVL193:
 887:src/hostmsg.c **** 	  pack_mem("TRANSACTION", 11);
 1583              		.loc 1 887 0
 1584 0980 1E48     		ldr	r0, .L298+20
ARM GAS  C:\Users\AHMED~1.ELE\AppData\Local\Temp\cc0wYKcg.s 			page 45


 1585 0982 0B21     		movs	r1, #11
 1586 0984 FFF7FEFF 		bl	pack_mem
 1587              	.LVL194:
 1588              	.L113:
 888:src/hostmsg.c ****   }
 889:src/hostmsg.c **** 
 890:src/hostmsg.c ****   /* 128. Message Authentication Code */
 891:src/hostmsg.c ****   if (tx_bitmap[15] & 0x01) {
 1589              		.loc 1 891 0
 1590 0988 9DF83B30 		ldrb	r3, [sp, #59]	@ zero_extendqisi2
 1591 098c DB07     		lsls	r3, r3, #31
 1592 098e 03D5     		bpl	.L114
 892:src/hostmsg.c **** 	  pack_mem("\x00\x00\x00\x00\x00\x00\x00\x00", 8);  //testing only
 1593              		.loc 1 892 0
 1594 0990 1B48     		ldr	r0, .L298+24
 1595 0992 0821     		movs	r1, #8
 1596 0994 FFF7FEFF 		bl	pack_mem
 1597              	.LVL195:
 1598              	.L114:
 893:src/hostmsg.c ****   }
 894:src/hostmsg.c **** 
 895:src/hostmsg.c **** 
 896:src/hostmsg.c **** PackTxBufLen(ExtraMsgLen());
 1599              		.loc 1 896 0
 1600 0998 FFF7FEFF 		bl	ExtraMsgLen
 1601              	.LVL196:
 1602 099c FFF7FEFF 		bl	PackTxBufLen
 1603              	.LVL197:
 897:src/hostmsg.c **** 
 898:src/hostmsg.c **** 
 899:src/hostmsg.c ****    SprintfMW(length, "%04d", TX_BUF.wLen - 2);
 1604              		.loc 1 899 0
 1605 09a0 2368     		ldr	r3, [r4]
 1606 09a2 03A8     		add	r0, sp, #12
 1607 09a4 03F5CC53 		add	r3, r3, #6528
 1608 09a8 1649     		ldr	r1, .L298+28
 1609 09aa 9A8B     		ldrh	r2, [r3, #28]
 1610 09ac 023A     		subs	r2, r2, #2
 1611 09ae FFF7FEFF 		bl	sprintf
 1612              	.LVL198:
 900:src/hostmsg.c ****    memcpy(len_ptr, length, 4);
 1613              		.loc 1 900 0
 1614 09b2 0422     		movs	r2, #4
 1615 09b4 03A9     		add	r1, sp, #12
 1616 09b6 3846     		mov	r0, r7
 1617 09b8 FFF7FEFF 		bl	memcpy
 1618              	.LVL199:
 901:src/hostmsg.c **** 
 902:src/hostmsg.c ****   if (tx_bitmap[0] & 0x80)
 1619              		.loc 1 902 0
 1620 09bc 36A9     		add	r1, sp, #216
 903:src/hostmsg.c ****     memcpy(bitmap_ptr, tx_bitmap, 16);
 1621              		.loc 1 903 0
 1622 09be 3046     		mov	r0, r6
 902:src/hostmsg.c ****     memcpy(bitmap_ptr, tx_bitmap, 16);
 1623              		.loc 1 902 0
 1624 09c0 11F9AC3D 		ldrsb	r3, [r1, #-172]!
ARM GAS  C:\Users\AHMED~1.ELE\AppData\Local\Temp\cc0wYKcg.s 			page 46


 1625 09c4 002B     		cmp	r3, #0
 1626              		.loc 1 903 0
 1627 09c6 B4BF     		ite	lt
 1628 09c8 1022     		movlt	r2, #16
 904:src/hostmsg.c ****   else
 905:src/hostmsg.c ****     memcpy(bitmap_ptr, tx_bitmap, 8);
 1629              		.loc 1 905 0
 1630 09ca 0822     		movge	r2, #8
 1631 09cc FFF7FEFF 		bl	memcpy
 1632              	.LVL200:
 906:src/hostmsg.c **** 
 907:src/hostmsg.c **** 
 908:src/hostmsg.c ****   //  PackTxBufLen(ExtraMsgLen());
 909:src/hostmsg.c ****   dbgHex("TxMsg", TX_BUF.sbContent, TX_BUF.wLen);         /* JJJ */
 1633              		.loc 1 909 0
 1634 09d0 2368     		ldr	r3, [r4]
 1635 09d2 0D48     		ldr	r0, .L298+32
 1636 09d4 03F5CC53 		add	r3, r3, #6528
 1637 09d8 03F11E01 		add	r1, r3, #30
 1638 09dc 9A8B     		ldrh	r2, [r3, #28]
 1639 09de FFF7FEFF 		bl	dbgHex
 1640              	.LVL201:
 910:src/hostmsg.c **** }
 1641              		.loc 1 910 0
 1642 09e2 37B0     		add	sp, sp, #220
 1643              		.cfi_def_cfa_offset 28
 1644              		@ sp needed
 1645 09e4 BDE8F083 		pop	{r4, r5, r6, r7, r8, r9, pc}
 1646              	.LVL202:
 1647              	.L299:
 1648              		.align	2
 1649              	.L298:
 1650 09e8 C4000000 		.word	.LC30
 1651 09ec C6000000 		.word	.LC31
 1652 09f0 C8000000 		.word	.LC32
 1653 09f4 00000000 		.word	gGDS
 1654 09f8 8F000000 		.word	.LC22
 1655 09fc CA000000 		.word	.LC33
 1656 0a00 07000000 		.word	.LANCHOR0+7
 1657 0a04 D6000000 		.word	.LC34
 1658 0a08 DB000000 		.word	.LC35
 1659              		.cfi_endproc
 1660              	.LFE6:
 1661              		.size	PackHostMsg, .-PackHostMsg
 1662              		.section	.text.CheckHostRsp,"ax",%progbits
 1663              		.align	1
 1664              		.global	CheckHostRsp
 1665              		.thumb
 1666              		.thumb_func
 1667              		.type	CheckHostRsp, %function
 1668              	CheckHostRsp:
 1669              	.LFB7:
 911:src/hostmsg.c **** /******************************************************************/
 912:src/hostmsg.c **** /*  This procedure extracts or checks items in response message.  */
 913:src/hostmsg.c **** /*  Enter with type of message to be retrieved:                   */
 914:src/hostmsg.c **** /*  02. P.A.N.                                                    */
 915:src/hostmsg.c **** /*  03. Processing code          04. amount                       */
ARM GAS  C:\Users\AHMED~1.ELE\AppData\Local\Temp\cc0wYKcg.s 			page 47


 916:src/hostmsg.c **** /*  11. system trace number      12. trans time                   */
 917:src/hostmsg.c **** /*  13. trans date               14. expiry date                  */
 918:src/hostmsg.c **** /*  15. settlement date                                           */
 919:src/hostmsg.c **** /*  22. pos entry mode           24. network id                   */
 920:src/hostmsg.c **** /*  25. pos condition code                                        */
 921:src/hostmsg.c **** /*  32.                          37. retrieval reference number   */
 922:src/hostmsg.c **** /*  38. auth code                39. response code                */
 923:src/hostmsg.c **** /*  41. terminal id              42. card acceptor id             */
 924:src/hostmsg.c **** /*  48. CITI instalment info.                                     */
 925:src/hostmsg.c **** /*  54. additional amount        60. init. param / original trans */
 926:src/hostmsg.c **** /*  61. product descriptor code  62. record of charge number      */
 927:src/hostmsg.c **** /******************************************************************/
 928:src/hostmsg.c **** BYTE CheckHostRsp(void)
 929:src/hostmsg.c **** {
 1670              		.loc 1 929 0
 1671              		.cfi_startproc
 1672              		@ args = 0, pretend = 0, frame = 32
 1673              		@ frame_needed = 0, uses_anonymous_args = 0
 1674              	.LVL203:
 1675 0000 F0B5     		push	{r4, r5, r6, r7, lr}
 1676              		.cfi_def_cfa_offset 20
 1677              		.cfi_offset 4, -20
 1678              		.cfi_offset 5, -16
 1679              		.cfi_offset 6, -12
 1680              		.cfi_offset 7, -8
 1681              		.cfi_offset 14, -4
 930:src/hostmsg.c ****   DWORD var_i;
 931:src/hostmsg.c ****   BYTE msg_id[4];
 932:src/hostmsg.c ****   BYTE buf[4];
 933:src/hostmsg.c ****   BYTE words[12];
 934:src/hostmsg.c ****   BYTE bitmap[8];
 935:src/hostmsg.c **** 
 936:src/hostmsg.c **** 
 937:src/hostmsg.c ****     
 938:src/hostmsg.c ****      int i=0;
 939:src/hostmsg.c ****     
 940:src/hostmsg.c ****   BYTE tmp;
 941:src/hostmsg.c ****   BOOLEAN more_msg, sync_datetime;
 942:src/hostmsg.c **** 
 943:src/hostmsg.c ****   // to get in binary mao & with {80,40,20,10,08,04,02,01}
 944:src/hostmsg.c **** 
 945:src/hostmsg.c ****   Disp2x16Msg(GetConstMsg(EDC_CO_PROCESSING), MW_LINE5, MW_CENTER|MW_BIGFONT);
 1682              		.loc 1 945 0
 1683 0002 0320     		movs	r0, #3
 929:src/hostmsg.c ****   DWORD var_i;
 1684              		.loc 1 929 0
 1685 0004 8BB0     		sub	sp, sp, #44
 1686              		.cfi_def_cfa_offset 64
 1687              		.loc 1 945 0
 1688 0006 FFF7FEFF 		bl	GetConstMsg
 1689              	.LVL204:
 1690 000a 4FF4A061 		mov	r1, #1280
 1691 000e 41F20202 		movw	r2, #4098
 1692 0012 FFF7FEFF 		bl	Disp2x16Msg
 1693              	.LVL205:
 946:src/hostmsg.c ****   if (TrainingModeON())
 1694              		.loc 1 946 0
ARM GAS  C:\Users\AHMED~1.ELE\AppData\Local\Temp\cc0wYKcg.s 			page 48


 1695 0016 FFF7FEFF 		bl	TrainingModeON
 1696              	.LVL206:
 1697 001a 0446     		mov	r4, r0
 1698 001c 40B3     		cbz	r0, .L301
 1699              	.LBB6:
 1700              	.LBB7:
 102:src/hostmsg.c ****   memset(RSP_DATA.sb_auth_code, '0', sizeof(RSP_DATA.sb_auth_code));
 1701              		.loc 1 102 0
 1702 001e 0DF12104 		add	r4, sp, #33
 101:src/hostmsg.c ****   memcpy(&RSP_DATA.s_dtg.b_year, &dtg.b_year, 6);
 1703              		.loc 1 101 0
 1704 0022 08A8     		add	r0, sp, #32
 1705 0024 FFF7FEFF 		bl	ReadRTC
 1706              	.LVL207:
 102:src/hostmsg.c ****   memset(RSP_DATA.sb_auth_code, '0', sizeof(RSP_DATA.sb_auth_code));
 1707              		.loc 1 102 0
 1708 0028 2146     		mov	r1, r4
 1709 002a 0622     		movs	r2, #6
 1710 002c 4148     		ldr	r0, .L450
 1711 002e FFF7FEFF 		bl	memcpy
 1712              	.LVL208:
 103:src/hostmsg.c ****   split(RSP_DATA.sb_rrn, &dtg.b_year, 6);
 1713              		.loc 1 103 0
 1714 0032 3021     		movs	r1, #48
 1715 0034 0622     		movs	r2, #6
 1716 0036 4048     		ldr	r0, .L450+4
 1717 0038 FFF7FEFF 		bl	memset
 1718              	.LVL209:
 104:src/hostmsg.c ****   RSP_DATA.b_response = TRANS_ACP;
 1719              		.loc 1 104 0
 1720 003c 2146     		mov	r1, r4
 1721 003e 3F48     		ldr	r0, .L450+8
 1722 0040 0622     		movs	r2, #6
 1723 0042 FFF7FEFF 		bl	split
 1724              	.LVL210:
 105:src/hostmsg.c ****   RSP_DATA.w_rspcode = '0'*256+'0';
 1725              		.loc 1 105 0
 1726 0046 0024     		movs	r4, #0
 1727 0048 3D4B     		ldr	r3, .L450+12
 106:src/hostmsg.c ****   RSP_DATA.dd_amount = 0;
 1728              		.loc 1 106 0
 1729 004a 43F23002 		movw	r2, #12336
 105:src/hostmsg.c ****   RSP_DATA.w_rspcode = '0'*256+'0';
 1730              		.loc 1 105 0
 1731 004e 83F8A848 		strb	r4, [r3, #2216]
 106:src/hostmsg.c ****   RSP_DATA.dd_amount = 0;
 1732              		.loc 1 106 0
 1733 0052 A3F81627 		strh	r2, [r3, #1814]	@ movhi
 107:src/hostmsg.c ****   memset(&RSP_DATA.text[21], ' ', 20);
 1734              		.loc 1 107 0
 1735 0056 0020     		movs	r0, #0
 1736 0058 03F5D963 		add	r3, r3, #1736
 1737 005c 0021     		movs	r1, #0
 108:src/hostmsg.c ****   return TRANS_ACP;
 1738              		.loc 1 108 0
 1739 005e 1422     		movs	r2, #20
 107:src/hostmsg.c ****   memset(&RSP_DATA.text[21], ' ', 20);
ARM GAS  C:\Users\AHMED~1.ELE\AppData\Local\Temp\cc0wYKcg.s 			page 49


 1740              		.loc 1 107 0
 1741 0060 C3E90001 		strd	r0, [r3]
 108:src/hostmsg.c ****   return TRANS_ACP;
 1742              		.loc 1 108 0
 1743 0064 03F5FB70 		add	r0, r3, #502
 1744 0068 2021     		movs	r1, #32
 1745 006a FFF7FEFF 		bl	memset
 1746              	.LVL211:
 1747              	.LBE7:
 1748              	.LBE6:
 947:src/hostmsg.c ****     return TrainingRsp();
 1749              		.loc 1 947 0
 1750 006e 5AE3     		b	.L302
 1751              	.L301:
 948:src/hostmsg.c **** 
 949:src/hostmsg.c ****   dbgHex("RxMsg", RX_BUF.sbContent, RX_BUF.wLen);         /* JJJ */
 1752              		.loc 1 949 0
 1753 0070 344B     		ldr	r3, .L450+16
 1754 0072 3548     		ldr	r0, .L450+20
 1755 0074 1B68     		ldr	r3, [r3]
 1756 0076 03F51653 		add	r3, r3, #9600
 1757 007a 03F12201 		add	r1, r3, #34
 1758 007e 1A8C     		ldrh	r2, [r3, #32]
 1759 0080 FFF7FEFF 		bl	dbgHex
 1760              	.LVL212:
 950:src/hostmsg.c ****   RxBufSetup(ExtraMsgLen());
 1761              		.loc 1 950 0
 1762 0084 FFF7FEFF 		bl	ExtraMsgLen
 1763              	.LVL213:
 1764 0088 FFF7FEFF 		bl	RxBufSetup
 1765              	.LVL214:
 951:src/hostmsg.c ****   more_msg = sync_datetime = 0;
 952:src/hostmsg.c **** 
 953:src/hostmsg.c ****   inc_pptr(14); // 14 BYTE Header
 1766              		.loc 1 953 0
 1767 008c 0E20     		movs	r0, #14
 1768 008e FFF7FEFF 		bl	inc_pptr
 1769              	.LVL215:
 954:src/hostmsg.c **** 
 955:src/hostmsg.c ****    msg_id[0]=get_byte();
 1770              		.loc 1 955 0
 1771 0092 FFF7FEFF 		bl	get_byte
 1772              	.LVL216:
 1773 0096 8DF81000 		strb	r0, [sp, #16]
 956:src/hostmsg.c ****    msg_id[1]=get_byte();
 1774              		.loc 1 956 0
 1775 009a FFF7FEFF 		bl	get_byte
 1776              	.LVL217:
 1777 009e 8DF81100 		strb	r0, [sp, #17]
 957:src/hostmsg.c ****    msg_id[2]=get_byte();
 1778              		.loc 1 957 0
 1779 00a2 FFF7FEFF 		bl	get_byte
 1780              	.LVL218:
 1781 00a6 8DF81200 		strb	r0, [sp, #18]
 958:src/hostmsg.c ****    msg_id[3]=get_byte();
 1782              		.loc 1 958 0
 1783 00aa FFF7FEFF 		bl	get_byte
ARM GAS  C:\Users\AHMED~1.ELE\AppData\Local\Temp\cc0wYKcg.s 			page 50


 1784              	.LVL219:
 959:src/hostmsg.c **** 
 960:src/hostmsg.c ****  if (msg_id[0] == 0x31 && msg_id[1] == 0x38 && msg_id[2] == 0x32 && msg_id[3] == 0x30)
 1785              		.loc 1 960 0
 1786 00ae 9DF81030 		ldrb	r3, [sp, #16]	@ zero_extendqisi2
 958:src/hostmsg.c ****    msg_id[3]=get_byte();
 1787              		.loc 1 958 0
 1788 00b2 C0B2     		uxtb	r0, r0
 1789              		.loc 1 960 0
 1790 00b4 312B     		cmp	r3, #49
 958:src/hostmsg.c ****    msg_id[3]=get_byte();
 1791              		.loc 1 958 0
 1792 00b6 8DF81300 		strb	r0, [sp, #19]
 1793              		.loc 1 960 0
 1794 00ba 0AD1     		bne	.L303
 1795              		.loc 1 960 0 is_stmt 0 discriminator 1
 1796 00bc 9DF81130 		ldrb	r3, [sp, #17]	@ zero_extendqisi2
 1797 00c0 382B     		cmp	r3, #56
 1798 00c2 06D1     		bne	.L303
 1799              		.loc 1 960 0 discriminator 2
 1800 00c4 9DF81230 		ldrb	r3, [sp, #18]	@ zero_extendqisi2
 1801 00c8 322B     		cmp	r3, #50
 1802 00ca 02D1     		bne	.L303
 1803              		.loc 1 960 0 discriminator 3
 1804 00cc 3028     		cmp	r0, #48
 1805 00ce 00F02783 		beq	.L348
 1806              	.L303:
 961:src/hostmsg.c ****     return 0xff; /* please wait message */
 962:src/hostmsg.c **** 
 963:src/hostmsg.c ****    SprintfMW(buf, "%04X", KTransBitmap[TX_DATA.b_trans].w_txmsg_id + 0x10);
 1807              		.loc 1 963 0 is_stmt 1
 1808 00d2 1B4D     		ldr	r5, .L450+12
 1809 00d4 1823     		movs	r3, #24
 1810 00d6 95F8A824 		ldrb	r2, [r5, #1192]	@ zero_extendqisi2
 1811 00da 1C49     		ldr	r1, .L450+24
 1812 00dc 5343     		muls	r3, r2, r3
 1813 00de 1C4A     		ldr	r2, .L450+28
 1814 00e0 05A8     		add	r0, sp, #20
 1815 00e2 D25A     		ldrh	r2, [r2, r3]
 1816 00e4 2F46     		mov	r7, r5
 1817 00e6 1032     		adds	r2, r2, #16
 1818 00e8 FFF7FEFF 		bl	sprintf
 1819              	.LVL220:
 964:src/hostmsg.c ****     
 965:src/hostmsg.c ****     printf("\f");
 1820              		.loc 1 965 0
 1821 00ec 0C20     		movs	r0, #12
 1822 00ee FFF7FEFF 		bl	putchar
 1823              	.LVL221:
 966:src/hostmsg.c **** 
 967:src/hostmsg.c ****      printf("%02X:%02X:%02X:%02X", msg_id[0], msg_id[1], msg_id[2], msg_id[3]);
 1824              		.loc 1 967 0
 1825 00f2 9DF81300 		ldrb	r0, [sp, #19]	@ zero_extendqisi2
 1826 00f6 9DF81010 		ldrb	r1, [sp, #16]	@ zero_extendqisi2
 1827 00fa 9DF81120 		ldrb	r2, [sp, #17]	@ zero_extendqisi2
 1828 00fe 9DF81230 		ldrb	r3, [sp, #18]	@ zero_extendqisi2
 1829 0102 0090     		str	r0, [sp]
ARM GAS  C:\Users\AHMED~1.ELE\AppData\Local\Temp\cc0wYKcg.s 			page 51


 1830 0104 1348     		ldr	r0, .L450+32
 1831 0106 FFF7FEFF 		bl	printf
 1832              	.LVL222:
 968:src/hostmsg.c **** 	  APM_WaitKey(9000, 0);
 1833              		.loc 1 968 0
 1834 010a 0023     		movs	r3, #0
 1835 010c 0321     		movs	r1, #3
 1836 010e 0093     		str	r3, [sp]
 1837 0110 42F22832 		movw	r2, #9000
 1838 0114 1020     		movs	r0, #16
 1839 0116 FFF7FEFF 		bl	lib_app_call
 1840              	.LVL223:
 969:src/hostmsg.c **** 	//  printf("%02X:%02X:%02X:%02X", buf[0], buf[1], buf[2], buf[3]);
 970:src/hostmsg.c **** 	//  APM_WaitKey(9000, 0);
 971:src/hostmsg.c **** 
 972:src/hostmsg.c **** 
 973:src/hostmsg.c **** 	  if (memcmp(msg_id, buf, 4)!=0) {
 1841              		.loc 1 973 0
 1842 011a 04A8     		add	r0, sp, #16
 1843 011c 05A9     		add	r1, sp, #20
 1844 011e 0422     		movs	r2, #4
 1845 0120 FFF7FEFF 		bl	memcmp
 1846              	.LVL224:
 1847 0124 C0B1     		cbz	r0, .L304
 974:src/hostmsg.c ****   RSP_DATA.w_rspcode = 'I'*256+'R';
 1848              		.loc 1 974 0
 1849 0126 44F65213 		movw	r3, #18770
 975:src/hostmsg.c ****     return TRANS_FAIL;
 1850              		.loc 1 975 0
 1851 012a 0224     		movs	r4, #2
 974:src/hostmsg.c ****   RSP_DATA.w_rspcode = 'I'*256+'R';
 1852              		.loc 1 974 0
 1853 012c A5F81637 		strh	r3, [r5, #1814]	@ movhi
 1854              		.loc 1 975 0
 1855 0130 F9E2     		b	.L302
 1856              	.L451:
 1857 0132 00BF     		.align	2
 1858              	.L450:
 1859 0134 2D070000 		.word	gGTS+1837
 1860 0138 0F070000 		.word	gGTS+1807
 1861 013c 19070000 		.word	gGTS+1817
 1862 0140 00000000 		.word	gGTS
 1863 0144 00000000 		.word	gGDS
 1864 0148 E1000000 		.word	.LC36
 1865 014c 00000000 		.word	.LC0
 1866 0150 00000000 		.word	KTransBitmap
 1867 0154 E7000000 		.word	.LC37
 1868              	.L304:
 976:src/hostmsg.c **** 	  }
 977:src/hostmsg.c **** 
 978:src/hostmsg.c **** 
 979:src/hostmsg.c **** 
 980:src/hostmsg.c ****   get_mem(bitmap, 8);
 1869              		.loc 1 980 0
 1870 0158 06A8     		add	r0, sp, #24
 1871 015a 0821     		movs	r1, #8
 1872 015c FFF7FEFF 		bl	get_mem
ARM GAS  C:\Users\AHMED~1.ELE\AppData\Local\Temp\cc0wYKcg.s 			page 52


 1873              	.LVL225:
 981:src/hostmsg.c **** 
 982:src/hostmsg.c **** 
 983:src/hostmsg.c **** 
 984:src/hostmsg.c **** 
 985:src/hostmsg.c ****   /* 02. pan */
 986:src/hostmsg.c ****   if (bitmap[0] & 0x40) {
 1874              		.loc 1 986 0
 1875 0160 9DF81830 		ldrb	r3, [sp, #24]	@ zero_extendqisi2
 1876 0164 5E06     		lsls	r6, r3, #25
 1877 0166 0DD5     		bpl	.L305
 987:src/hostmsg.c ****       
 988:src/hostmsg.c ****     var_i = bcd2bin(get_byte());
 1878              		.loc 1 988 0
 1879 0168 FFF7FEFF 		bl	get_byte
 1880              	.LVL226:
 1881 016c FFF7FEFF 		bl	bcd2bin
 1882              	.LVL227:
 989:src/hostmsg.c ****     memset(RSP_DATA.sb_pan, 0xFF, 10);
 1883              		.loc 1 989 0
 1884 0170 FF21     		movs	r1, #255
 1885 0172 0A22     		movs	r2, #10
 988:src/hostmsg.c ****     memset(RSP_DATA.sb_pan, 0xFF, 10);
 1886              		.loc 1 988 0
 1887 0174 0546     		mov	r5, r0
 1888              	.LVL228:
 1889              		.loc 1 989 0
 1890 0176 CD48     		ldr	r0, .L452
 1891              	.LVL229:
 1892 0178 FFF7FEFF 		bl	memset
 1893              	.LVL230:
 990:src/hostmsg.c ****     get_mem(RSP_DATA.sb_pan, var_i);
 1894              		.loc 1 990 0
 1895 017c CB48     		ldr	r0, .L452
 1896 017e 2946     		mov	r1, r5
 1897 0180 FFF7FEFF 		bl	get_mem
 1898              	.LVL231:
 1899              	.L305:
 991:src/hostmsg.c ****      
 992:src/hostmsg.c ****   }
 993:src/hostmsg.c **** 
 994:src/hostmsg.c ****   /* 03. processing code */
 995:src/hostmsg.c ****   if (bitmap[0] & 0x20) {
 1900              		.loc 1 995 0
 1901 0184 9DF81830 		ldrb	r3, [sp, #24]	@ zero_extendqisi2
 1902 0188 9D06     		lsls	r5, r3, #26
 1903 018a 0DD5     		bpl	.L306
 996:src/hostmsg.c ****       memset(field, 0, sizeof(field));
 1904              		.loc 1 996 0
 1905 018c 0021     		movs	r1, #0
 1906 018e 4FF49672 		mov	r2, #300
 1907 0192 C748     		ldr	r0, .L452+4
 1908 0194 FFF7FEFF 		bl	memset
 1909              	.LVL232:
 997:src/hostmsg.c ****      //   get_mem(TX_DATA.sb_proc_code, 6);
 998:src/hostmsg.c ****       
 999:src/hostmsg.c ****       print_field(6,3);
ARM GAS  C:\Users\AHMED~1.ELE\AppData\Local\Temp\cc0wYKcg.s 			page 53


 1910              		.loc 1 999 0
 1911 0198 0620     		movs	r0, #6
 1912 019a FFF7FEFF 		bl	print_field.isra.0
 1913              	.LVL233:
1000:src/hostmsg.c **** 
1001:src/hostmsg.c ****      memcpy(TX_DATA.sb_proc_code, field, 3);
 1914              		.loc 1 1001 0
 1915 019e C548     		ldr	r0, .L452+8
 1916 01a0 C349     		ldr	r1, .L452+4
 1917 01a2 0322     		movs	r2, #3
 1918 01a4 FFF7FEFF 		bl	memcpy
 1919              	.LVL234:
 1920              	.L306:
1002:src/hostmsg.c **** 
1003:src/hostmsg.c **** 	//  SprintfMW(buf, "%06X", field6);
1004:src/hostmsg.c **** 
1005:src/hostmsg.c ****    /* if (memcmp(get_pptr(), buf, 6)!=0) {
1006:src/hostmsg.c ****       if ((TX_DATA.b_trans != SETTLEMENT)|| (memcmp(get_pptr(),KSetlPCode2,2)!=0)) {
1007:src/hostmsg.c ****         RSP_DATA.w_rspcode = 'I'*256+'P';
1008:src/hostmsg.c ****         return TRANS_FAIL;
1009:src/hostmsg.c ****       }
1010:src/hostmsg.c ****     }*/
1011:src/hostmsg.c **** //    inc_pptr(6);
1012:src/hostmsg.c ****    /* tmp = get_byte();
1013:src/hostmsg.c ****     if ((TX_DATA.b_trans == TRANS_UPLOAD) && (tmp == 0x01))
1014:src/hostmsg.c ****       more_msg = 1;
1015:src/hostmsg.c ****     else if ((tmp != 0x01) && tmp) {
1016:src/hostmsg.c ****       RSP_DATA.w_rspcode = 'I'*256+'P';
1017:src/hostmsg.c ****       return TRANS_FAIL;
1018:src/hostmsg.c ****     }*/
1019:src/hostmsg.c ****   }
1020:src/hostmsg.c **** 
1021:src/hostmsg.c **** 
1022:src/hostmsg.c **** 
1023:src/hostmsg.c **** 
1024:src/hostmsg.c ****   /* 04. amount */
1025:src/hostmsg.c ****   if (bitmap[0] & 0x10) {
 1921              		.loc 1 1025 0
 1922 01a8 9DF81830 		ldrb	r3, [sp, #24]	@ zero_extendqisi2
 1923 01ac D806     		lsls	r0, r3, #27
 1924 01ae 08D5     		bpl	.L307
1026:src/hostmsg.c ****  memset(field, 0, sizeof(field));
 1925              		.loc 1 1026 0
 1926 01b0 BF48     		ldr	r0, .L452+4
 1927 01b2 0021     		movs	r1, #0
 1928 01b4 4FF49672 		mov	r2, #300
 1929 01b8 FFF7FEFF 		bl	memset
 1930              	.LVL235:
1027:src/hostmsg.c ****   
1028:src/hostmsg.c ****     //RSP_DATA.dd_amount = BcdBin8b(get_pptr(),6);
1029:src/hostmsg.c **** 
1030:src/hostmsg.c ****       print_field(12,4);
 1931              		.loc 1 1030 0
 1932 01bc 0C20     		movs	r0, #12
 1933 01be FFF7FEFF 		bl	print_field.isra.0
 1934              	.LVL236:
 1935              	.L307:
ARM GAS  C:\Users\AHMED~1.ELE\AppData\Local\Temp\cc0wYKcg.s 			page 54


1031:src/hostmsg.c ****       
1032:src/hostmsg.c ****   //    compress(RSP_DATA.dd_amount, field, 6);
1033:src/hostmsg.c ****       
1034:src/hostmsg.c ****  //   inc_pptr(12);
1035:src/hostmsg.c ****   }
1036:src/hostmsg.c **** 
1037:src/hostmsg.c **** 
1038:src/hostmsg.c ****    /* 05. Settlement amount */
1039:src/hostmsg.c ****   if (bitmap[0] & 0x08) {
 1936              		.loc 1 1039 0
 1937 01c2 9DF81830 		ldrb	r3, [sp, #24]	@ zero_extendqisi2
 1938 01c6 1907     		lsls	r1, r3, #28
 1939 01c8 08D5     		bpl	.L308
1040:src/hostmsg.c ****     //RSP_DATA.dd_amount = BcdBin8b(get_pptr(),6);
1041:src/hostmsg.c ****        memset(field, 0, sizeof(field));
 1940              		.loc 1 1041 0
 1941 01ca B948     		ldr	r0, .L452+4
 1942 01cc 0021     		movs	r1, #0
 1943 01ce 4FF49672 		mov	r2, #300
 1944 01d2 FFF7FEFF 		bl	memset
 1945              	.LVL237:
1042:src/hostmsg.c ****          print_field(12,5);
 1946              		.loc 1 1042 0
 1947 01d6 0C20     		movs	r0, #12
 1948 01d8 FFF7FEFF 		bl	print_field.isra.0
 1949              	.LVL238:
 1950              	.L308:
1043:src/hostmsg.c ****       
1044:src/hostmsg.c ****  //   inc_pptr(12);
1045:src/hostmsg.c ****   }
1046:src/hostmsg.c ****      /* 06. Transmission date and time */
1047:src/hostmsg.c ****   if (bitmap[0] & 0x04) {
 1951              		.loc 1 1047 0
 1952 01dc 9DF81830 		ldrb	r3, [sp, #24]	@ zero_extendqisi2
 1953 01e0 5A07     		lsls	r2, r3, #29
 1954 01e2 08D5     		bpl	.L309
1048:src/hostmsg.c ****     //RSP_DATA.dd_amount = BcdBin8b(get_pptr(),6);
1049:src/hostmsg.c ****        memset(field, 0, sizeof(field));
 1955              		.loc 1 1049 0
 1956 01e4 B248     		ldr	r0, .L452+4
 1957 01e6 0021     		movs	r1, #0
 1958 01e8 4FF49672 		mov	r2, #300
 1959 01ec FFF7FEFF 		bl	memset
 1960              	.LVL239:
1050:src/hostmsg.c ****       print_field(12,6);
 1961              		.loc 1 1050 0
 1962 01f0 0C20     		movs	r0, #12
 1963 01f2 FFF7FEFF 		bl	print_field.isra.0
 1964              	.LVL240:
 1965              	.L309:
1051:src/hostmsg.c ****       
1052:src/hostmsg.c ****    // inc_pptr(12);
1053:src/hostmsg.c ****   }
1054:src/hostmsg.c **** 
1055:src/hostmsg.c ****      /* 07. Transmission date and time */
1056:src/hostmsg.c ****   if (bitmap[0] & 0x02) {
 1966              		.loc 1 1056 0
ARM GAS  C:\Users\AHMED~1.ELE\AppData\Local\Temp\cc0wYKcg.s 			page 55


 1967 01f6 9DF81830 		ldrb	r3, [sp, #24]	@ zero_extendqisi2
 1968 01fa 9B07     		lsls	r3, r3, #30
 1969 01fc 08D5     		bpl	.L310
1057:src/hostmsg.c ****        memset(field, 0, sizeof(field));
 1970              		.loc 1 1057 0
 1971 01fe AC48     		ldr	r0, .L452+4
 1972 0200 0021     		movs	r1, #0
 1973 0202 4FF49672 		mov	r2, #300
 1974 0206 FFF7FEFF 		bl	memset
 1975              	.LVL241:
1058:src/hostmsg.c ****      print_field(10,7);
 1976              		.loc 1 1058 0
 1977 020a 0A20     		movs	r0, #10
 1978 020c FFF7FEFF 		bl	print_field.isra.0
 1979              	.LVL242:
 1980              	.L310:
1059:src/hostmsg.c ****       
1060:src/hostmsg.c ****   }
1061:src/hostmsg.c **** 
1062:src/hostmsg.c ****    
1063:src/hostmsg.c **** 
1064:src/hostmsg.c ****   /* 11. check system trace no */
1065:src/hostmsg.c ****   if (bitmap[1] & 0x20) {
 1981              		.loc 1 1065 0
 1982 0210 9DF81930 		ldrb	r3, [sp, #25]	@ zero_extendqisi2
 1983 0214 9E06     		lsls	r6, r3, #26
 1984 0216 08D5     		bpl	.L311
1066:src/hostmsg.c ****    /* if (TX_DATA.b_trans != TRANS_UPLOAD) {
1067:src/hostmsg.c ****       if (!Match(TX_DATA.sb_trace_no, 6)) {
1068:src/hostmsg.c ****         RSP_DATA.w_rspcode = 'I'*256+'S';
1069:src/hostmsg.c ****         return TRANS_FAIL;
1070:src/hostmsg.c ****       }
1071:src/hostmsg.c ****     } else*/
1072:src/hostmsg.c ****    //   compress(RSP_DATA.dd_amount, get_pptr(), 3);
1073:src/hostmsg.c ****    //   SprintfMW(buf, "%06X", RSP_DATA.dd_amount);
1074:src/hostmsg.c ****    //   APM_WaitKey(9000, 0);
1075:src/hostmsg.c ****       
1076:src/hostmsg.c ****       memset(field, 0, sizeof(field));
 1985              		.loc 1 1076 0
 1986 0218 A548     		ldr	r0, .L452+4
 1987 021a 0021     		movs	r1, #0
 1988 021c 4FF49672 		mov	r2, #300
 1989 0220 FFF7FEFF 		bl	memset
 1990              	.LVL243:
1077:src/hostmsg.c ****       print_field(6,11);
 1991              		.loc 1 1077 0
 1992 0224 0620     		movs	r0, #6
 1993 0226 FFF7FEFF 		bl	print_field.isra.0
 1994              	.LVL244:
 1995              	.L311:
1078:src/hostmsg.c ****   }
1079:src/hostmsg.c **** 
1080:src/hostmsg.c ****   /* 12. trans time */
1081:src/hostmsg.c ****   if (bitmap[1] & 0x10) {
 1996              		.loc 1 1081 0
 1997 022a 9DF81930 		ldrb	r3, [sp, #25]	@ zero_extendqisi2
 1998 022e 03F01003 		and	r3, r3, #16
ARM GAS  C:\Users\AHMED~1.ELE\AppData\Local\Temp\cc0wYKcg.s 			page 56


 1999 0232 03F0FF06 		and	r6, r3, #255
 2000 0236 73B1     		cbz	r3, .L312
 2001              	.LVL245:
1082:src/hostmsg.c ****     sync_datetime |= 0x10;
1083:src/hostmsg.c ****        memset(field, 0, sizeof(field));
 2002              		.loc 1 1083 0
 2003 0238 0021     		movs	r1, #0
 2004 023a 4FF49672 		mov	r2, #300
 2005 023e 9C48     		ldr	r0, .L452+4
 2006 0240 FFF7FEFF 		bl	memset
 2007              	.LVL246:
1084:src/hostmsg.c ****       
1085:src/hostmsg.c ****       print_field(12,12);
 2008              		.loc 1 1085 0
 2009 0244 0C20     		movs	r0, #12
 2010 0246 FFF7FEFF 		bl	print_field.isra.0
 2011              	.LVL247:
1086:src/hostmsg.c ****       
1087:src/hostmsg.c ****        memcpy(&RSP_DATA.s_dtg.b_hour, field, 12);
 2012              		.loc 1 1087 0
 2013 024a 9B48     		ldr	r0, .L452+12
 2014 024c 9849     		ldr	r1, .L452+4
 2015 024e 0C22     		movs	r2, #12
 2016 0250 FFF7FEFF 		bl	memcpy
 2017              	.LVL248:
1082:src/hostmsg.c ****        memset(field, 0, sizeof(field));
 2018              		.loc 1 1082 0
 2019 0254 1026     		movs	r6, #16
 2020              	.LVL249:
 2021              	.L312:
1088:src/hostmsg.c ****       
1089:src/hostmsg.c ****    // get_mem(&RSP_DATA.s_dtg.b_hour, 12);
1090:src/hostmsg.c ****   }
1091:src/hostmsg.c **** 
1092:src/hostmsg.c ****   /* 13. trans date */
1093:src/hostmsg.c ****   if (bitmap[1] & 0x08) {
 2022              		.loc 1 1093 0
 2023 0256 9DF81930 		ldrb	r3, [sp, #25]	@ zero_extendqisi2
 2024 025a 1D07     		lsls	r5, r3, #28
 2025 025c 0FD5     		bpl	.L313
1094:src/hostmsg.c ****     sync_datetime |= 0x08;
1095:src/hostmsg.c ****        memset(field, 0, sizeof(field));
 2026              		.loc 1 1095 0
 2027 025e 0021     		movs	r1, #0
 2028 0260 4FF49672 		mov	r2, #300
 2029 0264 9248     		ldr	r0, .L452+4
 2030 0266 FFF7FEFF 		bl	memset
 2031              	.LVL250:
1096:src/hostmsg.c ****          print_field(2,13);
 2032              		.loc 1 1096 0
 2033 026a 0220     		movs	r0, #2
 2034 026c FFF7FEFF 		bl	print_field.isra.0
 2035              	.LVL251:
1097:src/hostmsg.c ****       
1098:src/hostmsg.c ****        memcpy(&RSP_DATA.s_dtg.b_month, field, 2);
 2036              		.loc 1 1098 0
 2037 0270 9248     		ldr	r0, .L452+16
ARM GAS  C:\Users\AHMED~1.ELE\AppData\Local\Temp\cc0wYKcg.s 			page 57


 2038 0272 8F49     		ldr	r1, .L452+4
 2039 0274 0222     		movs	r2, #2
1094:src/hostmsg.c ****        memset(field, 0, sizeof(field));
 2040              		.loc 1 1094 0
 2041 0276 46F00806 		orr	r6, r6, #8
 2042              	.LVL252:
 2043              		.loc 1 1098 0
 2044 027a FFF7FEFF 		bl	memcpy
 2045              	.LVL253:
 2046              	.L313:
1099:src/hostmsg.c ****       
1100:src/hostmsg.c ****   //  get_mem(&RSP_DATA.s_dtg.b_month, 2);
1101:src/hostmsg.c ****   }
1102:src/hostmsg.c **** 
1103:src/hostmsg.c ****   /* 14. expiry date */
1104:src/hostmsg.c ****   if (bitmap[1] & 0x04) {
 2047              		.loc 1 1104 0
 2048 027e 9DF81930 		ldrb	r3, [sp, #25]	@ zero_extendqisi2
 2049 0282 5807     		lsls	r0, r3, #29
 2050 0284 0DD5     		bpl	.L314
1105:src/hostmsg.c ****        memset(field, 0, sizeof(field));
 2051              		.loc 1 1105 0
 2052 0286 0021     		movs	r1, #0
 2053 0288 4FF49672 		mov	r2, #300
 2054 028c 8848     		ldr	r0, .L452+4
 2055 028e FFF7FEFF 		bl	memset
 2056              	.LVL254:
1106:src/hostmsg.c ****        print_field(4,14);
 2057              		.loc 1 1106 0
 2058 0292 0420     		movs	r0, #4
 2059 0294 FFF7FEFF 		bl	print_field.isra.0
 2060              	.LVL255:
1107:src/hostmsg.c ****              compress(RSP_DATA.sb_exp_date, field, 2);
 2061              		.loc 1 1107 0
 2062 0298 8948     		ldr	r0, .L452+20
 2063 029a 8549     		ldr	r1, .L452+4
 2064 029c 0222     		movs	r2, #2
 2065 029e FFF7FEFF 		bl	compress
 2066              	.LVL256:
 2067              	.L314:
1108:src/hostmsg.c ****      //  inc_pptr(4);
1109:src/hostmsg.c ****   }
1110:src/hostmsg.c ****     
1111:src/hostmsg.c ****     
1112:src/hostmsg.c ****     /* 15. MSettlement date */
1113:src/hostmsg.c ****     if (bitmap[1] & 0x02) {
 2068              		.loc 1 1113 0
 2069 02a2 9DF81930 		ldrb	r3, [sp, #25]	@ zero_extendqisi2
 2070 02a6 9907     		lsls	r1, r3, #30
 2071 02a8 08D5     		bpl	.L315
1114:src/hostmsg.c ****          memset(field, 0, sizeof(field));
 2072              		.loc 1 1114 0
 2073 02aa 8148     		ldr	r0, .L452+4
 2074 02ac 0021     		movs	r1, #0
 2075 02ae 4FF49672 		mov	r2, #300
 2076 02b2 FFF7FEFF 		bl	memset
 2077              	.LVL257:
ARM GAS  C:\Users\AHMED~1.ELE\AppData\Local\Temp\cc0wYKcg.s 			page 58


1115:src/hostmsg.c ****        print_field(6,15);
 2078              		.loc 1 1115 0
 2079 02b6 0620     		movs	r0, #6
 2080 02b8 FFF7FEFF 		bl	print_field.isra.0
 2081              	.LVL258:
 2082              	.L315:
1116:src/hostmsg.c ****         
1117:src/hostmsg.c ****       //  inc_pptr(6);
1118:src/hostmsg.c ****     }
1119:src/hostmsg.c **** 
1120:src/hostmsg.c ****    /* 17. Capture date */
1121:src/hostmsg.c ****   if (bitmap[2] & 0x80) {
 2083              		.loc 1 1121 0
 2084 02bc 9DF91A30 		ldrsb	r3, [sp, #26]
 2085 02c0 002B     		cmp	r3, #0
 2086 02c2 08DA     		bge	.L316
1122:src/hostmsg.c ****        memset(field, 0, sizeof(field));
 2087              		.loc 1 1122 0
 2088 02c4 7A48     		ldr	r0, .L452+4
 2089 02c6 0021     		movs	r1, #0
 2090 02c8 4FF49672 		mov	r2, #300
 2091 02cc FFF7FEFF 		bl	memset
 2092              	.LVL259:
1123:src/hostmsg.c ****        print_field(4,17);
 2093              		.loc 1 1123 0
 2094 02d0 0420     		movs	r0, #4
 2095 02d2 FFF7FEFF 		bl	print_field.isra.0
 2096              	.LVL260:
 2097              	.L316:
1124:src/hostmsg.c ****       
1125:src/hostmsg.c ****    // inc_pptr(4);
1126:src/hostmsg.c ****   }
1127:src/hostmsg.c **** 
1128:src/hostmsg.c ****    /* 22. POS Entry mode */
1129:src/hostmsg.c ****   if (bitmap[2] & 0x04) {
 2098              		.loc 1 1129 0
 2099 02d6 9DF81A30 		ldrb	r3, [sp, #26]	@ zero_extendqisi2
 2100 02da 5A07     		lsls	r2, r3, #29
 2101 02dc 08D5     		bpl	.L317
1130:src/hostmsg.c ****        memset(field, 0, sizeof(field));
 2102              		.loc 1 1130 0
 2103 02de 7448     		ldr	r0, .L452+4
 2104 02e0 0021     		movs	r1, #0
 2105 02e2 4FF49672 		mov	r2, #300
 2106 02e6 FFF7FEFF 		bl	memset
 2107              	.LVL261:
1131:src/hostmsg.c ****       print_field(12,22);
 2108              		.loc 1 1131 0
 2109 02ea 0C20     		movs	r0, #12
 2110 02ec FFF7FEFF 		bl	print_field.isra.0
 2111              	.LVL262:
 2112              	.L317:
1132:src/hostmsg.c ****    // inc_pptr(12);
1133:src/hostmsg.c ****   }
1134:src/hostmsg.c ****    /* 23. Pan Sequence Number */
1135:src/hostmsg.c ****   if (bitmap[2] & 0x02) {
 2113              		.loc 1 1135 0
ARM GAS  C:\Users\AHMED~1.ELE\AppData\Local\Temp\cc0wYKcg.s 			page 59


 2114 02f0 9DF81A30 		ldrb	r3, [sp, #26]	@ zero_extendqisi2
 2115 02f4 9B07     		lsls	r3, r3, #30
 2116 02f6 08D5     		bpl	.L318
1136:src/hostmsg.c ****        memset(field, 0, sizeof(field));
 2117              		.loc 1 1136 0
 2118 02f8 6D48     		ldr	r0, .L452+4
 2119 02fa 0021     		movs	r1, #0
 2120 02fc 4FF49672 		mov	r2, #300
 2121 0300 FFF7FEFF 		bl	memset
 2122              	.LVL263:
1137:src/hostmsg.c ****       print_field(3,23);
 2123              		.loc 1 1137 0
 2124 0304 0320     		movs	r0, #3
 2125 0306 FFF7FEFF 		bl	print_field.isra.0
 2126              	.LVL264:
 2127              	.L318:
1138:src/hostmsg.c ****    // inc_pptr(3);
1139:src/hostmsg.c ****   }
1140:src/hostmsg.c ****   /* 24. bypass netword id */
1141:src/hostmsg.c ****   if (bitmap[2] & 0x01) {
 2128              		.loc 1 1141 0
 2129 030a 9DF81A30 		ldrb	r3, [sp, #26]	@ zero_extendqisi2
 2130 030e DD07     		lsls	r5, r3, #31
 2131 0310 08D5     		bpl	.L319
1142:src/hostmsg.c ****        memset(field, 0, sizeof(field));
 2132              		.loc 1 1142 0
 2133 0312 6748     		ldr	r0, .L452+4
 2134 0314 0021     		movs	r1, #0
 2135 0316 4FF49672 		mov	r2, #300
 2136 031a FFF7FEFF 		bl	memset
 2137              	.LVL265:
1143:src/hostmsg.c ****       print_field(3,24);
 2138              		.loc 1 1143 0
 2139 031e 0320     		movs	r0, #3
 2140 0320 FFF7FEFF 		bl	print_field.isra.0
 2141              	.LVL266:
 2142              	.L319:
1144:src/hostmsg.c ****    // inc_pptr(3);
1145:src/hostmsg.c ****   }
1146:src/hostmsg.c **** 
1147:src/hostmsg.c ****   /* 25. Message reason code */
1148:src/hostmsg.c ****   if (bitmap[3] & 0x80) {
 2143              		.loc 1 1148 0
 2144 0324 9DF91B30 		ldrsb	r3, [sp, #27]
 2145 0328 002B     		cmp	r3, #0
 2146 032a 08DA     		bge	.L320
1149:src/hostmsg.c ****        memset(field, 0, sizeof(field));
 2147              		.loc 1 1149 0
 2148 032c 6048     		ldr	r0, .L452+4
 2149 032e 0021     		movs	r1, #0
 2150 0330 4FF49672 		mov	r2, #300
 2151 0334 FFF7FEFF 		bl	memset
 2152              	.LVL267:
1150:src/hostmsg.c ****       print_field(4,25);
 2153              		.loc 1 1150 0
 2154 0338 0420     		movs	r0, #4
 2155 033a FFF7FEFF 		bl	print_field.isra.0
ARM GAS  C:\Users\AHMED~1.ELE\AppData\Local\Temp\cc0wYKcg.s 			page 60


 2156              	.LVL268:
 2157              	.L320:
1151:src/hostmsg.c ****    // inc_pptr(4);
1152:src/hostmsg.c ****   }
1153:src/hostmsg.c **** 
1154:src/hostmsg.c ****    /* 26. Merchant business code */
1155:src/hostmsg.c ****   if (bitmap[3] & 0x40) {
 2158              		.loc 1 1155 0
 2159 033e 9DF81B30 		ldrb	r3, [sp, #27]	@ zero_extendqisi2
 2160 0342 5806     		lsls	r0, r3, #25
 2161 0344 08D5     		bpl	.L321
1156:src/hostmsg.c ****        memset(field, 0, sizeof(field));
 2162              		.loc 1 1156 0
 2163 0346 5A48     		ldr	r0, .L452+4
 2164 0348 0021     		movs	r1, #0
 2165 034a 4FF49672 		mov	r2, #300
 2166 034e FFF7FEFF 		bl	memset
 2167              	.LVL269:
1157:src/hostmsg.c ****        print_field(4,26);
 2168              		.loc 1 1157 0
 2169 0352 0420     		movs	r0, #4
 2170 0354 FFF7FEFF 		bl	print_field.isra.0
 2171              	.LVL270:
 2172              	.L321:
1158:src/hostmsg.c ****   //  inc_pptr(4);
1159:src/hostmsg.c ****   }
1160:src/hostmsg.c **** 
1161:src/hostmsg.c ****    /* 32.Acquiring institution identification code */
1162:src/hostmsg.c ****   if (bitmap[3] & 0x01) {
 2173              		.loc 1 1162 0
 2174 0358 9DF81B30 		ldrb	r3, [sp, #27]	@ zero_extendqisi2
 2175 035c D907     		lsls	r1, r3, #31
 2176 035e 0BD5     		bpl	.L322
1163:src/hostmsg.c ****        memset(field, 0, sizeof(field));
 2177              		.loc 1 1163 0
 2178 0360 0021     		movs	r1, #0
 2179 0362 4FF49672 		mov	r2, #300
 2180 0366 5248     		ldr	r0, .L452+4
 2181 0368 FFF7FEFF 		bl	memset
 2182              	.LVL271:
1164:src/hostmsg.c ****       var_i = bcd2bin(get_byte());
 2183              		.loc 1 1164 0
 2184 036c FFF7FEFF 		bl	get_byte
 2185              	.LVL272:
 2186 0370 FFF7FEFF 		bl	bcd2bin
 2187              	.LVL273:
1165:src/hostmsg.c ****       print_field(var_i,32);
 2188              		.loc 1 1165 0
 2189 0374 FFF7FEFF 		bl	print_field.isra.0
 2190              	.LVL274:
 2191              	.L322:
1166:src/hostmsg.c ****    // inc_pptr(6);
1167:src/hostmsg.c ****   }
1168:src/hostmsg.c ****     
1169:src/hostmsg.c ****     /* 34.Primary account number extension */
1170:src/hostmsg.c ****     if (bitmap[4] & 0x40) {
 2192              		.loc 1 1170 0
ARM GAS  C:\Users\AHMED~1.ELE\AppData\Local\Temp\cc0wYKcg.s 			page 61


 2193 0378 9DF81C30 		ldrb	r3, [sp, #28]	@ zero_extendqisi2
 2194 037c 5A06     		lsls	r2, r3, #25
 2195 037e 0BD5     		bpl	.L323
1171:src/hostmsg.c ****          memset(field, 0, sizeof(field));
 2196              		.loc 1 1171 0
 2197 0380 0021     		movs	r1, #0
 2198 0382 4FF49672 		mov	r2, #300
 2199 0386 4A48     		ldr	r0, .L452+4
 2200 0388 FFF7FEFF 		bl	memset
 2201              	.LVL275:
1172:src/hostmsg.c ****         var_i = bcd2bin(get_byte());
 2202              		.loc 1 1172 0
 2203 038c FFF7FEFF 		bl	get_byte
 2204              	.LVL276:
 2205 0390 FFF7FEFF 		bl	bcd2bin
 2206              	.LVL277:
1173:src/hostmsg.c ****         print_field(var_i,34);
 2207              		.loc 1 1173 0
 2208 0394 FFF7FEFF 		bl	print_field.isra.0
 2209              	.LVL278:
 2210              	.L323:
1174:src/hostmsg.c ****         // inc_pptr(6);
1175:src/hostmsg.c ****     }
1176:src/hostmsg.c **** 
1177:src/hostmsg.c ****    /* 35. 	Track 2 data */
1178:src/hostmsg.c ****   if (bitmap[4] & 0x20) {
 2211              		.loc 1 1178 0
 2212 0398 9DF81C30 		ldrb	r3, [sp, #28]	@ zero_extendqisi2
 2213 039c 9B06     		lsls	r3, r3, #26
 2214 039e 0BD5     		bpl	.L324
1179:src/hostmsg.c ****        memset(field, 0, sizeof(field));
 2215              		.loc 1 1179 0
 2216 03a0 0021     		movs	r1, #0
 2217 03a2 4FF49672 		mov	r2, #300
 2218 03a6 4248     		ldr	r0, .L452+4
 2219 03a8 FFF7FEFF 		bl	memset
 2220              	.LVL279:
1180:src/hostmsg.c ****       var_i = bcd2bin(get_byte());
 2221              		.loc 1 1180 0
 2222 03ac FFF7FEFF 		bl	get_byte
 2223              	.LVL280:
 2224 03b0 FFF7FEFF 		bl	bcd2bin
 2225              	.LVL281:
1181:src/hostmsg.c ****       print_field(var_i,35);
 2226              		.loc 1 1181 0
 2227 03b4 FFF7FEFF 		bl	print_field.isra.0
 2228              	.LVL282:
 2229              	.L324:
1182:src/hostmsg.c ****   }
1183:src/hostmsg.c **** 
1184:src/hostmsg.c ****   /* 37. retrieval reference number */
1185:src/hostmsg.c ****   if (bitmap[4] & 0x08) {
 2230              		.loc 1 1185 0
 2231 03b8 9DF81C30 		ldrb	r3, [sp, #28]	@ zero_extendqisi2
 2232 03bc 1D07     		lsls	r5, r3, #28
 2233 03be 0DD5     		bpl	.L325
1186:src/hostmsg.c ****        memset(field, 0, sizeof(field));
ARM GAS  C:\Users\AHMED~1.ELE\AppData\Local\Temp\cc0wYKcg.s 			page 62


 2234              		.loc 1 1186 0
 2235 03c0 0021     		movs	r1, #0
 2236 03c2 4FF49672 		mov	r2, #300
 2237 03c6 3A48     		ldr	r0, .L452+4
 2238 03c8 FFF7FEFF 		bl	memset
 2239              	.LVL283:
1187:src/hostmsg.c **** 	//    compress(RSP_DATA.sb_rrn, get_pptr(), 6);
1188:src/hostmsg.c ****     //   inc_pptr(12);
1189:src/hostmsg.c **** 
1190:src/hostmsg.c ****       print_field(12,37);
 2240              		.loc 1 1190 0
 2241 03cc 0C20     		movs	r0, #12
 2242 03ce FFF7FEFF 		bl	print_field.isra.0
 2243              	.LVL284:
1191:src/hostmsg.c ****       
1192:src/hostmsg.c ****        memcpy(RSP_DATA.sb_rrn, field, 12);
 2244              		.loc 1 1192 0
 2245 03d2 3C48     		ldr	r0, .L452+24
 2246 03d4 3649     		ldr	r1, .L452+4
 2247 03d6 0C22     		movs	r2, #12
 2248 03d8 FFF7FEFF 		bl	memcpy
 2249              	.LVL285:
 2250              	.L325:
1193:src/hostmsg.c ****       
1194:src/hostmsg.c ****       
1195:src/hostmsg.c ****       
1196:src/hostmsg.c ****  //   get_mem(RSP_DATA.sb_rrn, 12);
1197:src/hostmsg.c ****   }
1198:src/hostmsg.c **** 
1199:src/hostmsg.c **** 
1200:src/hostmsg.c **** 
1201:src/hostmsg.c ****   /* 38. auth code */
1202:src/hostmsg.c ****   memset(RSP_DATA.sb_auth_code, ' ', 6);
 2251              		.loc 1 1202 0
 2252 03dc 3A48     		ldr	r0, .L452+28
 2253 03de 2021     		movs	r1, #32
 2254 03e0 0622     		movs	r2, #6
 2255 03e2 FFF7FEFF 		bl	memset
 2256              	.LVL286:
1203:src/hostmsg.c ****   if (bitmap[4] & 0x04) {
 2257              		.loc 1 1203 0
 2258 03e6 9DF81C30 		ldrb	r3, [sp, #28]	@ zero_extendqisi2
 2259 03ea 5807     		lsls	r0, r3, #29
 2260 03ec 0DD5     		bpl	.L326
1204:src/hostmsg.c ****     
1205:src/hostmsg.c ****       memset(field, 0, sizeof(field));
 2261              		.loc 1 1205 0
 2262 03ee 0021     		movs	r1, #0
 2263 03f0 4FF49672 		mov	r2, #300
 2264 03f4 2E48     		ldr	r0, .L452+4
 2265 03f6 FFF7FEFF 		bl	memset
 2266              	.LVL287:
1206:src/hostmsg.c ****       
1207:src/hostmsg.c ****       print_field(6,38);
 2267              		.loc 1 1207 0
 2268 03fa 0620     		movs	r0, #6
 2269 03fc FFF7FEFF 		bl	print_field.isra.0
ARM GAS  C:\Users\AHMED~1.ELE\AppData\Local\Temp\cc0wYKcg.s 			page 63


 2270              	.LVL288:
1208:src/hostmsg.c ****       
1209:src/hostmsg.c ****       memcpy(RSP_DATA.sb_auth_code, field, 6);
 2271              		.loc 1 1209 0
 2272 0400 3148     		ldr	r0, .L452+28
 2273 0402 2B49     		ldr	r1, .L452+4
 2274 0404 0622     		movs	r2, #6
 2275 0406 FFF7FEFF 		bl	memcpy
 2276              	.LVL289:
 2277              	.L326:
1210:src/hostmsg.c ****       
1211:src/hostmsg.c **** 	//    compress(RSP_DATA.sb_auth_code, get_pptr(), 3);
1212:src/hostmsg.c ****     //   inc_pptr(6);
1213:src/hostmsg.c ****   //  get_mem(RSP_DATA.sb_auth_code, 6);
1214:src/hostmsg.c ****   }
1215:src/hostmsg.c **** 
1216:src/hostmsg.c ****     
1217:src/hostmsg.c **** 
1218:src/hostmsg.c ****   /* 39. 	Action code  */
1219:src/hostmsg.c ****   RSP_DATA.w_rspcode = '0'*256+'0'; // upload response does not have response code
 2278              		.loc 1 1219 0
 2279 040a 43F23003 		movw	r3, #12336
 2280 040e A7F81637 		strh	r3, [r7, #1814]	@ movhi
1220:src/hostmsg.c ****   if (bitmap[4] & 0x02) {
 2281              		.loc 1 1220 0
 2282 0412 9DF81C30 		ldrb	r3, [sp, #28]	@ zero_extendqisi2
 2283 0416 9907     		lsls	r1, r3, #30
 2284 0418 0DD5     		bpl	.L327
1221:src/hostmsg.c ****     memset(field, 0, sizeof(field));
 2285              		.loc 1 1221 0
 2286 041a 0021     		movs	r1, #0
 2287 041c 4FF49672 		mov	r2, #300
 2288 0420 2348     		ldr	r0, .L452+4
 2289 0422 FFF7FEFF 		bl	memset
 2290              	.LVL290:
1222:src/hostmsg.c ****       
1223:src/hostmsg.c ****      print_field(3,39);
 2291              		.loc 1 1223 0
 2292 0426 0320     		movs	r0, #3
 2293 0428 FFF7FEFF 		bl	print_field.isra.0
 2294              	.LVL291:
1224:src/hostmsg.c ****       
1225:src/hostmsg.c ****       memcpy(RSP_DATA.Actioncode, field, 3);
 2295              		.loc 1 1225 0
 2296 042c 2748     		ldr	r0, .L452+32
 2297 042e 2049     		ldr	r1, .L452+4
 2298 0430 0322     		movs	r2, #3
 2299 0432 FFF7FEFF 		bl	memcpy
 2300              	.LVL292:
 2301              	.L327:
1226:src/hostmsg.c ****     
1227:src/hostmsg.c **** 
1228:src/hostmsg.c ****     // Delay1Sec(3, 0);
1229:src/hostmsg.c ****   }
1230:src/hostmsg.c **** 
1231:src/hostmsg.c ****   /* 41. 	Card acceptor device identification */
1232:src/hostmsg.c ****   if (bitmap[5] & 0x80) {
ARM GAS  C:\Users\AHMED~1.ELE\AppData\Local\Temp\cc0wYKcg.s 			page 64


 2302              		.loc 1 1232 0
 2303 0436 9DF91D30 		ldrsb	r3, [sp, #29]
 2304 043a 002B     		cmp	r3, #0
 2305 043c 08DA     		bge	.L328
1233:src/hostmsg.c ****        memset(field, 0, sizeof(field));
 2306              		.loc 1 1233 0
 2307 043e 1C48     		ldr	r0, .L452+4
 2308 0440 0021     		movs	r1, #0
 2309 0442 4FF49672 		mov	r2, #300
 2310 0446 FFF7FEFF 		bl	memset
 2311              	.LVL293:
1234:src/hostmsg.c ****     //if (!Match(STIS_ACQ_TBL(0).sb_term_id, 8)) {
1235:src/hostmsg.c ****     //  RSP_DATA.w_rspcode = 'I'*256+'T';
1236:src/hostmsg.c ****     //  return TRANS_FAIL;
1237:src/hostmsg.c ****     //}
1238:src/hostmsg.c ****       print_field(8,41);
 2312              		.loc 1 1238 0
 2313 044a 0820     		movs	r0, #8
 2314 044c FFF7FEFF 		bl	print_field.isra.0
 2315              	.LVL294:
 2316              	.L328:
1239:src/hostmsg.c ****       
1240:src/hostmsg.c **** 
1241:src/hostmsg.c **** 	// inc_pptr(15);
1242:src/hostmsg.c ****   }
1243:src/hostmsg.c **** 
1244:src/hostmsg.c **** 
1245:src/hostmsg.c ****  /* 42.Card acceptor identification */
1246:src/hostmsg.c ****   if (bitmap[5] & 0x40) {
 2317              		.loc 1 1246 0
 2318 0450 9DF81D30 		ldrb	r3, [sp, #29]	@ zero_extendqisi2
 2319 0454 5A06     		lsls	r2, r3, #25
 2320 0456 08D5     		bpl	.L329
1247:src/hostmsg.c ****        memset(field, 0, sizeof(field));
 2321              		.loc 1 1247 0
 2322 0458 1548     		ldr	r0, .L452+4
 2323 045a 0021     		movs	r1, #0
 2324 045c 4FF49672 		mov	r2, #300
 2325 0460 FFF7FEFF 		bl	memset
 2326              	.LVL295:
1248:src/hostmsg.c ****         print_field(15,42);
 2327              		.loc 1 1248 0
 2328 0464 0F20     		movs	r0, #15
 2329 0466 FFF7FEFF 		bl	print_field.isra.0
 2330              	.LVL296:
 2331              	.L329:
1249:src/hostmsg.c **** 	// inc_pptr(15);
1250:src/hostmsg.c ****   }
1251:src/hostmsg.c **** 
1252:src/hostmsg.c ****  
1253:src/hostmsg.c ****    /* 43.	Card acceptor name and address */
1254:src/hostmsg.c ****   if (bitmap[5] & 0x20) {
 2332              		.loc 1 1254 0
 2333 046a 9DF81D30 		ldrb	r3, [sp, #29]	@ zero_extendqisi2
 2334 046e 9B06     		lsls	r3, r3, #26
 2335 0470 0BD5     		bpl	.L330
1255:src/hostmsg.c ****        memset(field, 0, sizeof(field));
ARM GAS  C:\Users\AHMED~1.ELE\AppData\Local\Temp\cc0wYKcg.s 			page 65


 2336              		.loc 1 1255 0
 2337 0472 0021     		movs	r1, #0
 2338 0474 4FF49672 		mov	r2, #300
 2339 0478 0D48     		ldr	r0, .L452+4
 2340 047a FFF7FEFF 		bl	memset
 2341              	.LVL297:
1256:src/hostmsg.c ****       var_i = bcd2bin(get_byte());
 2342              		.loc 1 1256 0
 2343 047e FFF7FEFF 		bl	get_byte
 2344              	.LVL298:
 2345 0482 FFF7FEFF 		bl	bcd2bin
 2346              	.LVL299:
1257:src/hostmsg.c ****       print_field(var_i,43);
 2347              		.loc 1 1257 0
 2348 0486 FFF7FEFF 		bl	print_field.isra.0
 2349              	.LVL300:
 2350              	.L330:
1258:src/hostmsg.c ****   }
1259:src/hostmsg.c ****     
1260:src/hostmsg.c ****     /* 44.   Additional response data */
1261:src/hostmsg.c ****     if (bitmap[5] & 0x10) {
 2351              		.loc 1 1261 0
 2352 048a 9DF81D30 		ldrb	r3, [sp, #29]	@ zero_extendqisi2
 2353 048e DF06     		lsls	r7, r3, #27
 2354 0490 1ED5     		bpl	.L331
1262:src/hostmsg.c ****          memset(field, 0, sizeof(field));
 2355              		.loc 1 1262 0
 2356 0492 0021     		movs	r1, #0
 2357 0494 4FF49672 		mov	r2, #300
 2358 0498 0548     		ldr	r0, .L452+4
 2359 049a FFF7FEFF 		bl	memset
 2360              	.LVL301:
1263:src/hostmsg.c ****          var_i = bcd2bin(get_word());
 2361              		.loc 1 1263 0
 2362 049e FFF7FEFF 		bl	get_word
 2363              	.LVL302:
 2364 04a2 FFF7FEFF 		bl	bcd2bin
 2365              	.LVL303:
1264:src/hostmsg.c **** 
1265:src/hostmsg.c ****         print_field(var_i,44);
 2366              		.loc 1 1265 0
 2367 04a6 FFF7FEFF 		bl	print_field.isra.0
 2368              	.LVL304:
 2369 04aa 11E0     		b	.L453
 2370              	.L454:
 2371              		.align	2
 2372              	.L452:
 2373 04ac BA060000 		.word	gGTS+1722
 2374 04b0 00000000 		.word	field
 2375 04b4 A8060000 		.word	gGTS+1704
 2376 04b8 30070000 		.word	gGTS+1840
 2377 04bc 2E070000 		.word	gGTS+1838
 2378 04c0 C4060000 		.word	gGTS+1732
 2379 04c4 19070000 		.word	gGTS+1817
 2380 04c8 0F070000 		.word	gGTS+1807
 2381 04cc EF080000 		.word	gGTS+2287
 2382              	.L453:
ARM GAS  C:\Users\AHMED~1.ELE\AppData\Local\Temp\cc0wYKcg.s 			page 66


 2383              	.LVL305:
 2384              	.L331:
1266:src/hostmsg.c ****     }
1267:src/hostmsg.c **** 
1268:src/hostmsg.c ****    /* 48.	Provite Additional Data */
1269:src/hostmsg.c ****   if (bitmap[5] & 0x01) {
 2385              		.loc 1 1269 0
 2386 04d0 9DF81D30 		ldrb	r3, [sp, #29]	@ zero_extendqisi2
 2387 04d4 DD07     		lsls	r5, r3, #31
 2388 04d6 12D5     		bpl	.L332
1270:src/hostmsg.c ****        memset(field, 0, sizeof(field));
 2389              		.loc 1 1270 0
 2390 04d8 0021     		movs	r1, #0
 2391 04da 4FF49672 		mov	r2, #300
 2392 04de 9348     		ldr	r0, .L455
 2393 04e0 FFF7FEFF 		bl	memset
 2394              	.LVL306:
1271:src/hostmsg.c ****       var_i = bcd2bin(get_word());
 2395              		.loc 1 1271 0
 2396 04e4 FFF7FEFF 		bl	get_word
 2397              	.LVL307:
 2398 04e8 FFF7FEFF 		bl	bcd2bin
 2399              	.LVL308:
1272:src/hostmsg.c ****       memset(RSP_DATA.sb_pan, 0xFF, 10);
 2400              		.loc 1 1272 0
 2401 04ec FF21     		movs	r1, #255
 2402 04ee 0A22     		movs	r2, #10
1271:src/hostmsg.c ****       var_i = bcd2bin(get_word());
 2403              		.loc 1 1271 0
 2404 04f0 0546     		mov	r5, r0
 2405              	.LVL309:
 2406              		.loc 1 1272 0
 2407 04f2 8F48     		ldr	r0, .L455+4
 2408              	.LVL310:
 2409 04f4 FFF7FEFF 		bl	memset
 2410              	.LVL311:
1273:src/hostmsg.c ****       print_field(var_i,48);
 2411              		.loc 1 1273 0
 2412 04f8 2846     		mov	r0, r5
 2413 04fa FFF7FEFF 		bl	print_field.isra.0
 2414              	.LVL312:
 2415              	.L332:
1274:src/hostmsg.c ****   }
1275:src/hostmsg.c **** 
1276:src/hostmsg.c ****    /* 49.	Transaction currency code */
1277:src/hostmsg.c ****   if (bitmap[6] & 0x80) {
 2416              		.loc 1 1277 0
 2417 04fe 9DF91E30 		ldrsb	r3, [sp, #30]
 2418 0502 002B     		cmp	r3, #0
 2419 0504 08DA     		bge	.L333
1278:src/hostmsg.c ****        memset(field, 0, sizeof(field));
 2420              		.loc 1 1278 0
 2421 0506 8948     		ldr	r0, .L455
 2422 0508 0021     		movs	r1, #0
 2423 050a 4FF49672 		mov	r2, #300
 2424 050e FFF7FEFF 		bl	memset
 2425              	.LVL313:
ARM GAS  C:\Users\AHMED~1.ELE\AppData\Local\Temp\cc0wYKcg.s 			page 67


1279:src/hostmsg.c ****           print_field(3,49);
 2426              		.loc 1 1279 0
 2427 0512 0320     		movs	r0, #3
 2428 0514 FFF7FEFF 		bl	print_field.isra.0
 2429              	.LVL314:
 2430              	.L333:
1280:src/hostmsg.c **** 	// inc_pptr(3);
1281:src/hostmsg.c ****   }
1282:src/hostmsg.c **** 
1283:src/hostmsg.c ****    /* 50 .Settlement currency code */
1284:src/hostmsg.c ****   if (bitmap[6] & 0x40) {
 2431              		.loc 1 1284 0
 2432 0518 9DF81E30 		ldrb	r3, [sp, #30]	@ zero_extendqisi2
 2433 051c 5806     		lsls	r0, r3, #25
 2434 051e 08D5     		bpl	.L334
1285:src/hostmsg.c ****        memset(field, 0, sizeof(field));
 2435              		.loc 1 1285 0
 2436 0520 8248     		ldr	r0, .L455
 2437 0522 0021     		movs	r1, #0
 2438 0524 4FF49672 		mov	r2, #300
 2439 0528 FFF7FEFF 		bl	memset
 2440              	.LVL315:
1286:src/hostmsg.c ****        print_field(3,50);
 2441              		.loc 1 1286 0
 2442 052c 0320     		movs	r0, #3
 2443 052e FFF7FEFF 		bl	print_field.isra.0
 2444              	.LVL316:
 2445              	.L334:
1287:src/hostmsg.c **** 	// inc_pptr(3);
1288:src/hostmsg.c ****   }
1289:src/hostmsg.c **** 
1290:src/hostmsg.c ****     /* 52 .	Pin Data */
1291:src/hostmsg.c ****   if (bitmap[6] & 0x10) {
 2446              		.loc 1 1291 0
 2447 0532 9DF81E30 		ldrb	r3, [sp, #30]	@ zero_extendqisi2
 2448 0536 D906     		lsls	r1, r3, #27
 2449 0538 08D5     		bpl	.L335
1292:src/hostmsg.c ****        memset(field, 0, sizeof(field));
 2450              		.loc 1 1292 0
 2451 053a 7C48     		ldr	r0, .L455
 2452 053c 0021     		movs	r1, #0
 2453 053e 4FF49672 		mov	r2, #300
 2454 0542 FFF7FEFF 		bl	memset
 2455              	.LVL317:
1293:src/hostmsg.c ****       print_field(8,52);
 2456              		.loc 1 1293 0
 2457 0546 0820     		movs	r0, #8
 2458 0548 FFF7FEFF 		bl	print_field.isra.0
 2459              	.LVL318:
 2460              	.L335:
1294:src/hostmsg.c **** 	// inc_pptr(3);
1295:src/hostmsg.c ****   }
1296:src/hostmsg.c **** 
1297:src/hostmsg.c ****     /* 53 .	Security data*/
1298:src/hostmsg.c ****   if (bitmap[6] & 0x08) {
 2461              		.loc 1 1298 0
 2462 054c 9DF81E30 		ldrb	r3, [sp, #30]	@ zero_extendqisi2
ARM GAS  C:\Users\AHMED~1.ELE\AppData\Local\Temp\cc0wYKcg.s 			page 68


 2463 0550 1A07     		lsls	r2, r3, #28
 2464 0552 12D5     		bpl	.L336
1299:src/hostmsg.c ****        memset(field, 0, sizeof(field));
 2465              		.loc 1 1299 0
 2466 0554 0021     		movs	r1, #0
 2467 0556 4FF49672 		mov	r2, #300
 2468 055a 7448     		ldr	r0, .L455
 2469 055c FFF7FEFF 		bl	memset
 2470              	.LVL319:
1300:src/hostmsg.c ****       var_i = bcd2bin(get_byte());
 2471              		.loc 1 1300 0
 2472 0560 FFF7FEFF 		bl	get_byte
 2473              	.LVL320:
 2474 0564 FFF7FEFF 		bl	bcd2bin
 2475              	.LVL321:
1301:src/hostmsg.c ****       memset(RSP_DATA.sb_pan, 0xFF, 10);
 2476              		.loc 1 1301 0
 2477 0568 FF21     		movs	r1, #255
 2478 056a 0A22     		movs	r2, #10
1300:src/hostmsg.c ****       var_i = bcd2bin(get_byte());
 2479              		.loc 1 1300 0
 2480 056c 0546     		mov	r5, r0
 2481              	.LVL322:
 2482              		.loc 1 1301 0
 2483 056e 7048     		ldr	r0, .L455+4
 2484              	.LVL323:
 2485 0570 FFF7FEFF 		bl	memset
 2486              	.LVL324:
1302:src/hostmsg.c ****       print_field(var_i,53);
 2487              		.loc 1 1302 0
 2488 0574 2846     		mov	r0, r5
 2489 0576 FFF7FEFF 		bl	print_field.isra.0
 2490              	.LVL325:
 2491              	.L336:
1303:src/hostmsg.c ****   }
1304:src/hostmsg.c **** 
1305:src/hostmsg.c **** 
1306:src/hostmsg.c ****   /* 54. additional amount */
1307:src/hostmsg.c ****   RSP_DATA.dd_tip=0;
 2492              		.loc 1 1307 0
 2493 057a 6E4B     		ldr	r3, .L455+8
 2494 057c 0020     		movs	r0, #0
 2495 057e 0021     		movs	r1, #0
 2496 0580 C3E90001 		strd	r0, [r3]
1308:src/hostmsg.c ****   if (bitmap[6] & 0x04) {
 2497              		.loc 1 1308 0
 2498 0584 9DF81E30 		ldrb	r3, [sp, #30]	@ zero_extendqisi2
 2499 0588 5B07     		lsls	r3, r3, #29
 2500 058a 12D5     		bpl	.L337
1309:src/hostmsg.c ****        memset(field, 0, sizeof(field));
 2501              		.loc 1 1309 0
 2502 058c 0021     		movs	r1, #0
 2503 058e 4FF49672 		mov	r2, #300
 2504 0592 6648     		ldr	r0, .L455
 2505 0594 FFF7FEFF 		bl	memset
 2506              	.LVL326:
1310:src/hostmsg.c ****       var_i = bcd2bin(get_word());
ARM GAS  C:\Users\AHMED~1.ELE\AppData\Local\Temp\cc0wYKcg.s 			page 69


 2507              		.loc 1 1310 0
 2508 0598 FFF7FEFF 		bl	get_word
 2509              	.LVL327:
 2510 059c FFF7FEFF 		bl	bcd2bin
 2511              	.LVL328:
1311:src/hostmsg.c ****       memset(RSP_DATA.sb_pan, 0xFF, 10);
 2512              		.loc 1 1311 0
 2513 05a0 FF21     		movs	r1, #255
 2514 05a2 0A22     		movs	r2, #10
1310:src/hostmsg.c ****       var_i = bcd2bin(get_word());
 2515              		.loc 1 1310 0
 2516 05a4 0546     		mov	r5, r0
 2517              	.LVL329:
 2518              		.loc 1 1311 0
 2519 05a6 6248     		ldr	r0, .L455+4
 2520              	.LVL330:
 2521 05a8 FFF7FEFF 		bl	memset
 2522              	.LVL331:
1312:src/hostmsg.c ****       print_field(var_i,54);
 2523              		.loc 1 1312 0
 2524 05ac 2846     		mov	r0, r5
 2525 05ae FFF7FEFF 		bl	print_field.isra.0
 2526              	.LVL332:
 2527              	.L337:
1313:src/hostmsg.c ****       
1314:src/hostmsg.c **** 	//  var_i = bcd2bin(get_word());
1315:src/hostmsg.c **** 	//  get_mem(RSP_DATA.dd_tip, var_i);
1316:src/hostmsg.c ****   }
1317:src/hostmsg.c **** 
1318:src/hostmsg.c ****   /* 55. EMV relative data */
1319:src/hostmsg.c ****   RSP_DATA.s_icc_data.w_misc_len = 0;
1320:src/hostmsg.c ****   if (bitmap[6] & 0x02) {
 2528              		.loc 1 1320 0
 2529 05b2 9DF81E30 		ldrb	r3, [sp, #30]	@ zero_extendqisi2
1319:src/hostmsg.c ****   if (bitmap[6] & 0x02) {
 2530              		.loc 1 1319 0
 2531 05b6 604D     		ldr	r5, .L455+12
 2532 05b8 0021     		movs	r1, #0
 2533              		.loc 1 1320 0
 2534 05ba 9F07     		lsls	r7, r3, #30
1319:src/hostmsg.c ****   if (bitmap[6] & 0x02) {
 2535              		.loc 1 1319 0
 2536 05bc A5F85C17 		strh	r1, [r5, #1884]	@ movhi
 2537              		.loc 1 1320 0
 2538 05c0 11D5     		bpl	.L338
1321:src/hostmsg.c ****        memset(field, 0, sizeof(field));
 2539              		.loc 1 1321 0
 2540 05c2 4FF49672 		mov	r2, #300
 2541 05c6 5948     		ldr	r0, .L455
 2542 05c8 FFF7FEFF 		bl	memset
 2543              	.LVL333:
1322:src/hostmsg.c ****       
1323:src/hostmsg.c ****       var_i = bcd2bin(get_word());
 2544              		.loc 1 1323 0
 2545 05cc FFF7FEFF 		bl	get_word
 2546              	.LVL334:
 2547 05d0 FFF7FEFF 		bl	bcd2bin
ARM GAS  C:\Users\AHMED~1.ELE\AppData\Local\Temp\cc0wYKcg.s 			page 70


 2548              	.LVL335:
1324:src/hostmsg.c ****       memset(RSP_DATA.sb_pan, 0xFF, 10);
 2549              		.loc 1 1324 0
 2550 05d4 FF21     		movs	r1, #255
 2551 05d6 0A22     		movs	r2, #10
1323:src/hostmsg.c ****       memset(RSP_DATA.sb_pan, 0xFF, 10);
 2552              		.loc 1 1323 0
 2553 05d8 0746     		mov	r7, r0
 2554              	.LVL336:
 2555              		.loc 1 1324 0
 2556 05da 5548     		ldr	r0, .L455+4
 2557              	.LVL337:
 2558 05dc FFF7FEFF 		bl	memset
 2559              	.LVL338:
1325:src/hostmsg.c ****       print_field(var_i,55);
 2560              		.loc 1 1325 0
 2561 05e0 3846     		mov	r0, r7
 2562 05e2 FFF7FEFF 		bl	print_field.isra.0
 2563              	.LVL339:
 2564              	.L338:
1326:src/hostmsg.c ****       
1327:src/hostmsg.c **** //    RSP_DATA.s_icc_data.w_misc_len  = bcd2bin(get_word());
1328:src/hostmsg.c ****  //   if (RSP_DATA.s_icc_data.w_misc_len > sizeof(RSP_DATA.s_icc_data.sb_misc_content)) {
1329:src/hostmsg.c ****  //     RSP_DATA.w_rspcode = '9'*256 + '6';
1330:src/hostmsg.c ****  //     return(TRANS_FAIL);
1331:src/hostmsg.c ****   //  }
1332:src/hostmsg.c ****   //  get_mem(RSP_DATA.s_icc_data.sb_misc_content, RSP_DATA.s_icc_data.w_misc_len);
1333:src/hostmsg.c ****   }
1334:src/hostmsg.c ****     
1335:src/hostmsg.c ****     
1336:src/hostmsg.c ****     /* 56. Original data elements*/
1337:src/hostmsg.c ****     if (bitmap[6] & 0x02) {
 2565              		.loc 1 1337 0
 2566 05e6 9DF81E30 		ldrb	r3, [sp, #30]	@ zero_extendqisi2
 2567 05ea 9807     		lsls	r0, r3, #30
 2568 05ec 0BD5     		bpl	.L339
1338:src/hostmsg.c ****          memset(field, 0, sizeof(field));
 2569              		.loc 1 1338 0
 2570 05ee 0021     		movs	r1, #0
 2571 05f0 4FF49672 		mov	r2, #300
 2572 05f4 4D48     		ldr	r0, .L455
 2573 05f6 FFF7FEFF 		bl	memset
 2574              	.LVL340:
1339:src/hostmsg.c ****         var_i = bcd2bin(get_byte());
 2575              		.loc 1 1339 0
 2576 05fa FFF7FEFF 		bl	get_byte
 2577              	.LVL341:
 2578 05fe FFF7FEFF 		bl	bcd2bin
 2579              	.LVL342:
1340:src/hostmsg.c **** 
1341:src/hostmsg.c ****         print_field(var_i,56);
 2580              		.loc 1 1341 0
 2581 0602 FFF7FEFF 		bl	print_field.isra.0
 2582              	.LVL343:
 2583              	.L339:
1342:src/hostmsg.c ****         
1343:src/hostmsg.c ****       
ARM GAS  C:\Users\AHMED~1.ELE\AppData\Local\Temp\cc0wYKcg.s 			page 71


1344:src/hostmsg.c ****     }
1345:src/hostmsg.c **** 
1346:src/hostmsg.c ****   /* 62. Redemption number */
1347:src/hostmsg.c ****   if (bitmap[7] & 0x04) {
 2584              		.loc 1 1347 0
 2585 0606 9DF81F30 		ldrb	r3, [sp, #31]	@ zero_extendqisi2
 2586 060a 5907     		lsls	r1, r3, #29
 2587 060c 12D5     		bpl	.L340
1348:src/hostmsg.c ****        memset(field, 0, sizeof(field));
 2588              		.loc 1 1348 0
 2589 060e 0021     		movs	r1, #0
 2590 0610 4FF49672 		mov	r2, #300
 2591 0614 4548     		ldr	r0, .L455
 2592 0616 FFF7FEFF 		bl	memset
 2593              	.LVL344:
1349:src/hostmsg.c ****       var_i = bcd2bin(get_word());
 2594              		.loc 1 1349 0
 2595 061a FFF7FEFF 		bl	get_word
 2596              	.LVL345:
 2597 061e FFF7FEFF 		bl	bcd2bin
 2598              	.LVL346:
1350:src/hostmsg.c ****       memset(RSP_DATA.sb_pan, 0xFF, 10);
 2599              		.loc 1 1350 0
 2600 0622 FF21     		movs	r1, #255
 2601 0624 0A22     		movs	r2, #10
1349:src/hostmsg.c ****       var_i = bcd2bin(get_word());
 2602              		.loc 1 1349 0
 2603 0626 0746     		mov	r7, r0
 2604              	.LVL347:
 2605              		.loc 1 1350 0
 2606 0628 4148     		ldr	r0, .L455+4
 2607              	.LVL348:
 2608 062a FFF7FEFF 		bl	memset
 2609              	.LVL349:
1351:src/hostmsg.c ****       print_field(var_i,62);
 2610              		.loc 1 1351 0
 2611 062e 3846     		mov	r0, r7
 2612 0630 FFF7FEFF 		bl	print_field.isra.0
 2613              	.LVL350:
 2614              	.L340:
1352:src/hostmsg.c ****       
1353:src/hostmsg.c ****       
1354:src/hostmsg.c ****  //   memset(RSP_DATA.sb_roc_no, 0xFF, 3);
1355:src/hostmsg.c ****   //  var_i = bcd2bin(get_word());
1356:src/hostmsg.c ****    // if ((var_i == 6) && (peek_byte() != ' '))
1357:src/hostmsg.c ****     //  compress(RSP_DATA.sb_roc_no, get_pptr(), 3);
1358:src/hostmsg.c ****    // inc_pptr(var_i);
1359:src/hostmsg.c ****   }
1360:src/hostmsg.c **** 
1361:src/hostmsg.c ****   /* 63. Versions */
1362:src/hostmsg.c ****   if (bitmap[7] & 0x02) {
 2615              		.loc 1 1362 0
 2616 0634 9DF81F30 		ldrb	r3, [sp, #31]	@ zero_extendqisi2
 2617 0638 9A07     		lsls	r2, r3, #30
 2618 063a 12D5     		bpl	.L341
1363:src/hostmsg.c ****        memset(field, 0, sizeof(field));
 2619              		.loc 1 1363 0
ARM GAS  C:\Users\AHMED~1.ELE\AppData\Local\Temp\cc0wYKcg.s 			page 72


 2620 063c 0021     		movs	r1, #0
 2621 063e 4FF49672 		mov	r2, #300
 2622 0642 3A48     		ldr	r0, .L455
 2623 0644 FFF7FEFF 		bl	memset
 2624              	.LVL351:
1364:src/hostmsg.c **** //    var_i = bcd2bin(get_word());
1365:src/hostmsg.c **** //    RSP_DATA.text[0] = (BYTE)((var_i > 69) ? 69 : var_i);
1366:src/hostmsg.c ****  //   get_mem(&RSP_DATA.text[1], RSP_DATA.text[0]);
1367:src/hostmsg.c ****       
1368:src/hostmsg.c ****       var_i = bcd2bin(get_word());
 2625              		.loc 1 1368 0
 2626 0648 FFF7FEFF 		bl	get_word
 2627              	.LVL352:
 2628 064c FFF7FEFF 		bl	bcd2bin
 2629              	.LVL353:
1369:src/hostmsg.c ****       memset(RSP_DATA.sb_pan, 0xFF, 10);
 2630              		.loc 1 1369 0
 2631 0650 FF21     		movs	r1, #255
 2632 0652 0A22     		movs	r2, #10
1368:src/hostmsg.c ****       memset(RSP_DATA.sb_pan, 0xFF, 10);
 2633              		.loc 1 1368 0
 2634 0654 0746     		mov	r7, r0
 2635              	.LVL354:
 2636              		.loc 1 1369 0
 2637 0656 3648     		ldr	r0, .L455+4
 2638              	.LVL355:
 2639 0658 FFF7FEFF 		bl	memset
 2640              	.LVL356:
1370:src/hostmsg.c ****       print_field(var_i,63);
 2641              		.loc 1 1370 0
 2642 065c 3846     		mov	r0, r7
 2643 065e FFF7FEFF 		bl	print_field.isra.0
 2644              	.LVL357:
 2645              	.L341:
1371:src/hostmsg.c ****       
1372:src/hostmsg.c ****   }
1373:src/hostmsg.c ****     
1374:src/hostmsg.c ****     /* 64. Message Authentication Code */
1375:src/hostmsg.c ****     if (bitmap[7] & 0x01) {
 2646              		.loc 1 1375 0
 2647 0662 9DF81F30 		ldrb	r3, [sp, #31]	@ zero_extendqisi2
 2648 0666 DB07     		lsls	r3, r3, #31
 2649 0668 08D5     		bpl	.L342
1376:src/hostmsg.c ****  memset(field, 0, sizeof(field));
 2650              		.loc 1 1376 0
 2651 066a 3048     		ldr	r0, .L455
 2652 066c 0021     		movs	r1, #0
 2653 066e 4FF49672 		mov	r2, #300
 2654 0672 FFF7FEFF 		bl	memset
 2655              	.LVL358:
1377:src/hostmsg.c ****     print_field(8,64);
 2656              		.loc 1 1377 0
 2657 0676 0820     		movs	r0, #8
 2658 0678 FFF7FEFF 		bl	print_field.isra.0
 2659              	.LVL359:
 2660              	.L342:
1378:src/hostmsg.c ****         
ARM GAS  C:\Users\AHMED~1.ELE\AppData\Local\Temp\cc0wYKcg.s 			page 73


1379:src/hostmsg.c ****     }
1380:src/hostmsg.c **** 
1381:src/hostmsg.c ****   if (sync_datetime == 0x18) // Date/time receive from Host.
 2661              		.loc 1 1381 0
 2662 067c 182E     		cmp	r6, #24
 2663 067e 2FD1     		bne	.L343
 2664              	.LBB8:
 2665              	.LBB9:
 160:src/hostmsg.c ****   RSP_DATA.s_dtg.b_century = dtg.b_century;
 2666              		.loc 1 160 0
 2667 0680 08A8     		add	r0, sp, #32
 2668 0682 FFF7FEFF 		bl	ReadRTC
 2669              	.LVL360:
 161:src/hostmsg.c ****   RSP_DATA.s_dtg.b_year = dtg.b_year;
 2670              		.loc 1 161 0
 2671 0686 9DF82030 		ldrb	r3, [sp, #32]	@ zero_extendqisi2
 164:src/hostmsg.c ****     bcdsub(&RSP_DATA.s_dtg.b_year,&tmp,1);
 2672              		.loc 1 164 0
 2673 068a 95F82E27 		ldrb	r2, [r5, #1838]	@ zero_extendqisi2
 161:src/hostmsg.c ****   RSP_DATA.s_dtg.b_year = dtg.b_year;
 2674              		.loc 1 161 0
 2675 068e 85F82C37 		strb	r3, [r5, #1836]
 162:src/hostmsg.c ****   tmp = 1;
 2676              		.loc 1 162 0
 2677 0692 9DF82130 		ldrb	r3, [sp, #33]	@ zero_extendqisi2
 164:src/hostmsg.c ****     bcdsub(&RSP_DATA.s_dtg.b_year,&tmp,1);
 2678              		.loc 1 164 0
 2679 0696 122A     		cmp	r2, #18
 162:src/hostmsg.c ****   tmp = 1;
 2680              		.loc 1 162 0
 2681 0698 85F82D37 		strb	r3, [r5, #1837]
 163:src/hostmsg.c ****   if ((RSP_DATA.s_dtg.b_month == 0x12) && (dtg.b_month == 0x01))
 2682              		.loc 1 163 0
 2683 069c 4FF00103 		mov	r3, #1
 2684 06a0 8DF80F30 		strb	r3, [sp, #15]
 164:src/hostmsg.c ****     bcdsub(&RSP_DATA.s_dtg.b_year,&tmp,1);
 2685              		.loc 1 164 0
 2686 06a4 09D1     		bne	.L344
 2687 06a6 9DF82220 		ldrb	r2, [sp, #34]	@ zero_extendqisi2
 2688 06aa 9A42     		cmp	r2, r3
 2689 06ac 10D1     		bne	.L345
 165:src/hostmsg.c ****   else
 2690              		.loc 1 165 0
 2691 06ae 0DF10F01 		add	r1, sp, #15
 2692 06b2 2248     		ldr	r0, .L455+16
 2693 06b4 FFF7FEFF 		bl	bcdsub
 2694              	.LVL361:
 2695 06b8 0AE0     		b	.L345
 2696              	.L344:
 167:src/hostmsg.c ****       bcdadd(&RSP_DATA.s_dtg.b_year,&tmp,1);
 2697              		.loc 1 167 0
 2698 06ba 012A     		cmp	r2, #1
 2699 06bc 08D1     		bne	.L345
 2700 06be 9DF82230 		ldrb	r3, [sp, #34]	@ zero_extendqisi2
 2701 06c2 122B     		cmp	r3, #18
 2702 06c4 04D1     		bne	.L345
 168:src/hostmsg.c ****   ByteCopy((BYTE *)&dtg, (BYTE *)&RSP_DATA.s_dtg, sizeof(struct DATETIME));
ARM GAS  C:\Users\AHMED~1.ELE\AppData\Local\Temp\cc0wYKcg.s 			page 74


 2703              		.loc 1 168 0
 2704 06c6 1D48     		ldr	r0, .L455+16
 2705 06c8 0DF10F01 		add	r1, sp, #15
 2706 06cc FFF7FEFF 		bl	bcdadd
 2707              	.LVL362:
 2708              	.L345:
 169:src/hostmsg.c ****   SetRTC(&dtg);
 2709              		.loc 1 169 0
 2710 06d0 08A8     		add	r0, sp, #32
 2711 06d2 1B49     		ldr	r1, .L455+20
 2712 06d4 0822     		movs	r2, #8
 2713 06d6 FFF7FEFF 		bl	ByteCopy
 2714              	.LVL363:
 170:src/hostmsg.c **** }
 2715              		.loc 1 170 0
 2716 06da 08A8     		add	r0, sp, #32
 2717 06dc FFF7FEFF 		bl	SetRTC
 2718              	.LVL364:
 2719              	.L343:
 2720              	.LBE9:
 2721              	.LBE8:
1382:src/hostmsg.c ****     SyncHostDtg();
1383:src/hostmsg.c ****   if ((RSP_DATA.w_rspcode == '0'*256+'0') ||
 2722              		.loc 1 1383 0
 2723 06e0 B5F81637 		ldrh	r3, [r5, #1814]
 2724 06e4 43F23002 		movw	r2, #12336
 2725 06e8 23F00801 		bic	r1, r3, #8
 2726 06ec 9142     		cmp	r1, r2
 2727 06ee 03D0     		beq	.L346
1384:src/hostmsg.c ****       (RSP_DATA.w_rspcode == '0'*256+'8') ||
 2728              		.loc 1 1384 0
 2729 06f0 43F63801 		movw	r1, #14392
 2730 06f4 8B42     		cmp	r3, r1
 2731 06f6 05D1     		bne	.L347
 2732              	.L346:
1385:src/hostmsg.c ****       (RSP_DATA.w_rspcode == '8'*256+'8') )
1386:src/hostmsg.c ****   {
1387:src/hostmsg.c ****     STIS_ACQ_TBL(0).b_status = UP;
 2733              		.loc 1 1387 0
 2734 06f8 124B     		ldr	r3, .L455+24
 2735 06fa 0022     		movs	r2, #0
 2736 06fc 1B68     		ldr	r3, [r3]
 2737 06fe 83F8F023 		strb	r2, [r3, #1008]
1388:src/hostmsg.c ****     if (more_msg)
1389:src/hostmsg.c ****       return MORE_RSP;
1390:src/hostmsg.c ****     return TRANS_ACP;
 2738              		.loc 1 1390 0
 2739 0702 10E0     		b	.L302
 2740              	.L347:
1391:src/hostmsg.c ****   }
1392:src/hostmsg.c ****   else if (RSP_DATA.w_rspcode == 'Z'*256+'1') {
 2741              		.loc 1 1392 0
 2742 0704 45F63121 		movw	r1, #23089
 2743 0708 8B42     		cmp	r3, r1
 2744 070a 4FF00103 		mov	r3, #1
 2745 070e 09D1     		bne	.L350
1393:src/hostmsg.c ****     RSP_DATA.w_rspcode = '0'*256+'0';
ARM GAS  C:\Users\AHMED~1.ELE\AppData\Local\Temp\cc0wYKcg.s 			page 75


 2746              		.loc 1 1393 0
 2747 0710 0949     		ldr	r1, .L455+12
 2748 0712 A1F81627 		strh	r2, [r1, #1814]	@ movhi
1394:src/hostmsg.c ****     STIS_ACQ_TBL(0).b_status = DOWN;
 2749              		.loc 1 1394 0
 2750 0716 0B4A     		ldr	r2, .L455+24
 2751 0718 1268     		ldr	r2, [r2]
 2752 071a 82F8F033 		strb	r3, [r2, #1008]
1395:src/hostmsg.c ****     return TRANS_ACP;
 2753              		.loc 1 1395 0
 2754 071e 02E0     		b	.L302
 2755              	.LVL365:
 2756              	.L348:
 961:src/hostmsg.c **** 
 2757              		.loc 1 961 0
 2758 0720 FF24     		movs	r4, #255
 2759 0722 00E0     		b	.L302
 2760              	.LVL366:
 2761              	.L350:
1396:src/hostmsg.c ****   }
1397:src/hostmsg.c ****   else
1398:src/hostmsg.c ****     return TRANS_REJ;
 2762              		.loc 1 1398 0
 2763 0724 1C46     		mov	r4, r3
 2764              	.LVL367:
 2765              	.L302:
1399:src/hostmsg.c **** }
 2766              		.loc 1 1399 0
 2767 0726 2046     		mov	r0, r4
 2768 0728 0BB0     		add	sp, sp, #44
 2769              		.cfi_def_cfa_offset 20
 2770              		@ sp needed
 2771 072a F0BD     		pop	{r4, r5, r6, r7, pc}
 2772              	.L456:
 2773              		.align	2
 2774              	.L455:
 2775 072c 00000000 		.word	field
 2776 0730 BA060000 		.word	gGTS+1722
 2777 0734 D0060000 		.word	gGTS+1744
 2778 0738 00000000 		.word	gGTS
 2779 073c 2D070000 		.word	gGTS+1837
 2780 0740 2C070000 		.word	gGTS+1836
 2781 0744 00000000 		.word	gGDS
 2782              		.cfi_endproc
 2783              	.LFE7:
 2784              		.size	CheckHostRsp, .-CheckHostRsp
 2785              		.comm	field,300,1
 2786              		.section	.rodata
 2787              		.set	.LANCHOR0,. + 0
 2788              	.LC1:
 2789 0000 00000000 		.ascii	"\000\000\000\000\000\000\000"
 2789      000000
 2790              	.LC26:
 2791 0007 00000000 		.ascii	"\000\000\000\000\000\000\000\000\000"
 2791      00000000 
 2791      00
 2792              		.section	.rodata.str1.1,"aMS",%progbits,1
ARM GAS  C:\Users\AHMED~1.ELE\AppData\Local\Temp\cc0wYKcg.s 			page 76


 2793              	.LC0:
 2794 0000 25303458 		.ascii	"%04X\000"
 2794      00
 2795              	.LC2:
 2796 0005 30303000 		.ascii	"000\000"
 2797              	.LC3:
 2798 0009 31303100 		.ascii	"101\000"
 2799              	.LC4:
 2800 000d 34303000 		.ascii	"400\000"
 2801              	.LC5:
 2802 0011 38323100 		.ascii	"821\000"
 2803              	.LC6:
 2804 0015 35303000 		.ascii	"500\000"
 2805              	.LC7:
 2806 0019 33303000 		.ascii	"300\000"
 2807              	.LC8:
 2808 001d 33303100 		.ascii	"301\000"
 2809              	.LC9:
 2810 0021 32303000 		.ascii	"200\000"
 2811              	.LC10:
 2812 0025 34383134 		.ascii	"4814\000"
 2812      00
 2813              	.LC11:
 2814 002a 30313132 		.ascii	"011200\000"
 2814      303000
 2815              	.LC12:
 2816 0031 30303030 		.ascii	"00000000\000"
 2816      30303030 
 2816      00
 2817              	.LC13:
 2818 003a 30303030 		.ascii	"000000\000"
 2818      303000
 2819              	.LC14:
 2820 0041 36323330 		.ascii	"62301764\000"
 2820      31373634 
 2820      00
 2821              	.LC15:
 2822 004a 34373430 		.ascii	"4740001005     \000"
 2822      30303130 
 2822      30352020 
 2822      20202000 
 2823              	.LC16:
 2824 005a 02303300 		.ascii	"\00203\000"
 2825              	.LC17:
 2826 005e 02303000 		.ascii	"\00200\000"
 2827              	.LC18:
 2828 0062 50313000 		.ascii	"P10\000"
 2829              	.LC19:
 2830 0066 30333200 		.ascii	"032\000"
 2831              	.LC20:
 2832 006a 41353534 		.ascii	"A554A96459E368BF60B927E9F4AD14E9\000"
 2832      41393634 
 2832      35394533 
 2832      36384246 
 2832      36304239 
 2833              	.LC21:
 2834 008b 38313800 		.ascii	"818\000"
ARM GAS  C:\Users\AHMED~1.ELE\AppData\Local\Temp\cc0wYKcg.s 			page 77


 2835              	.LC22:
 2836 008f 30303030 		.ascii	"0000000000000000\000"
 2836      30303030 
 2836      30303030 
 2836      30303030 
 2836      00
 2837              	.LC23:
 2838 00a0 30313031 		.ascii	"010100000\000"
 2838      30303030 
 2838      3000
 2839              	.LC24:
 2840 00aa 303400   		.ascii	"04\000"
 2841              	.LC25:
 2842 00ad 4300     		.ascii	"C\000"
 2843              	.LC27:
 2844 00af 30303030 		.ascii	"00000001\000"
 2844      30303031 
 2844      00
 2845              	.LC28:
 2846 00b8 2A00     		.ascii	"*\000"
 2847              	.LC29:
 2848 00ba 30303030 		.ascii	"000000000\000"
 2848      30303030 
 2848      3000
 2849              	.LC30:
 2850 00c4 3000     		.ascii	"0\000"
 2851              	.LC31:
 2852 00c6 3100     		.ascii	"1\000"
 2853              	.LC32:
 2854 00c8 3F00     		.ascii	"?\000"
 2855              	.LC33:
 2856 00ca 5452414E 		.ascii	"TRANSACTION\000"
 2856      53414354 
 2856      494F4E00 
 2857              	.LC34:
 2858 00d6 25303464 		.ascii	"%04d\000"
 2858      00
 2859              	.LC35:
 2860 00db 54784D73 		.ascii	"TxMsg\000"
 2860      6700
 2861              	.LC36:
 2862 00e1 52784D73 		.ascii	"RxMsg\000"
 2862      6700
 2863              	.LC37:
 2864 00e7 25303258 		.ascii	"%02X:%02X:%02X:%02X\000"
 2864      3A253032 
 2864      583A2530 
 2864      32583A25 
 2864      30325800 
 2865              		.text
 2866              	.Letext0:
 2867              		.file 2 "c:\\devtools\\gcc_v49_2014q4\\lib\\gcc\\arm-none-eabi\\4.9.3\\include\\stddef.h"
 2868              		.file 3 "../LibA5T1000/common.h"
 2869              		.file 4 "../LibA5T1000/emv2dll.h"
 2870              		.file 5 "../LibA5T1000/emvcl2dll.h"
 2871              		.file 6 "../LibA5T1000/ecrdll.h"
 2872              		.file 7 "../LibA5T1000/midware.h"
ARM GAS  C:\Users\AHMED~1.ELE\AppData\Local\Temp\cc0wYKcg.s 			page 78


 2873              		.file 8 "../LibA5T1000/system.h"
 2874              		.file 9 "../LibA5T1000/apm.h"
 2875              		.file 10 "src/sysutil.h"
 2876              		.file 11 "src/corevar.h"
 2877              		.file 12 "src/constant.h"
 2878              		.file 13 "src/message.h"
 2879              		.file 14 "src/tranutil.h"
 2880              		.file 15 "../LibA5T1000/util.h"
 2881              		.file 16 "src/chkoptn.h"
 2882              		.file 17 "c:\\devtools\\gcc_v49_2014q4\\arm-none-eabi\\include\\stdio.h"
 2883              		.file 18 "c:\\devtools\\gcc_v49_2014q4\\arm-none-eabi\\include\\string.h"
 2884              		.file 19 "src/auxcom.h"
 2885              		.file 20 "<built-in>"
 2886              		.section	.debug_info,"",%progbits
 2887              	.Ldebug_info0:
 2888 0000 BE4E0000 		.4byte	0x4ebe
 2889 0004 0400     		.2byte	0x4
 2890 0006 00000000 		.4byte	.Ldebug_abbrev0
 2891 000a 04       		.byte	0x4
 2892 000b 01       		.uleb128 0x1
 2893 000c 94310000 		.4byte	.LASF1081
 2894 0010 01       		.byte	0x1
 2895 0011 E53C0000 		.4byte	.LASF1082
 2896 0015 1A360000 		.4byte	.LASF1083
 2897 0019 00000000 		.4byte	.Ldebug_ranges0+0
 2898 001d 00000000 		.4byte	0
 2899 0021 00000000 		.4byte	.Ldebug_line0
 2900 0025 02       		.uleb128 0x2
 2901 0026 01       		.byte	0x1
 2902 0027 06       		.byte	0x6
 2903 0028 7E350000 		.4byte	.LASF0
 2904 002c 02       		.uleb128 0x2
 2905 002d 01       		.byte	0x1
 2906 002e 08       		.byte	0x8
 2907 002f 8E200000 		.4byte	.LASF1
 2908 0033 02       		.uleb128 0x2
 2909 0034 02       		.byte	0x2
 2910 0035 05       		.byte	0x5
 2911 0036 592B0000 		.4byte	.LASF2
 2912 003a 02       		.uleb128 0x2
 2913 003b 02       		.byte	0x2
 2914 003c 07       		.byte	0x7
 2915 003d BF1C0000 		.4byte	.LASF3
 2916 0041 02       		.uleb128 0x2
 2917 0042 04       		.byte	0x4
 2918 0043 05       		.byte	0x5
 2919 0044 262E0000 		.4byte	.LASF4
 2920 0048 02       		.uleb128 0x2
 2921 0049 04       		.byte	0x4
 2922 004a 07       		.byte	0x7
 2923 004b 24010000 		.4byte	.LASF5
 2924 004f 02       		.uleb128 0x2
 2925 0050 08       		.byte	0x8
 2926 0051 05       		.byte	0x5
 2927 0052 2C000000 		.4byte	.LASF6
 2928 0056 02       		.uleb128 0x2
 2929 0057 08       		.byte	0x8
ARM GAS  C:\Users\AHMED~1.ELE\AppData\Local\Temp\cc0wYKcg.s 			page 79


 2930 0058 07       		.byte	0x7
 2931 0059 13380000 		.4byte	.LASF7
 2932 005d 03       		.uleb128 0x3
 2933 005e 04       		.byte	0x4
 2934 005f 05       		.byte	0x5
 2935 0060 696E7400 		.ascii	"int\000"
 2936 0064 02       		.uleb128 0x2
 2937 0065 04       		.byte	0x4
 2938 0066 07       		.byte	0x7
 2939 0067 0A430000 		.4byte	.LASF8
 2940 006b 04       		.uleb128 0x4
 2941 006c A1090000 		.4byte	.LASF11
 2942 0070 02       		.byte	0x2
 2943 0071 D4       		.byte	0xd4
 2944 0072 64000000 		.4byte	0x64
 2945 0076 05       		.uleb128 0x5
 2946 0077 04       		.byte	0x4
 2947 0078 02       		.uleb128 0x2
 2948 0079 04       		.byte	0x4
 2949 007a 07       		.byte	0x7
 2950 007b 3B300000 		.4byte	.LASF9
 2951 007f 06       		.uleb128 0x6
 2952 0080 04       		.byte	0x4
 2953 0081 85000000 		.4byte	0x85
 2954 0085 02       		.uleb128 0x2
 2955 0086 01       		.byte	0x1
 2956 0087 06       		.byte	0x6
 2957 0088 8C3B0000 		.4byte	.LASF10
 2958 008c 06       		.uleb128 0x6
 2959 008d 04       		.byte	0x4
 2960 008e 92000000 		.4byte	0x92
 2961 0092 07       		.uleb128 0x7
 2962 0093 85000000 		.4byte	0x85
 2963 0097 04       		.uleb128 0x4
 2964 0098 8B040000 		.4byte	.LASF12
 2965 009c 03       		.byte	0x3
 2966 009d 0D       		.byte	0xd
 2967 009e 2C000000 		.4byte	0x2c
 2968 00a2 04       		.uleb128 0x4
 2969 00a3 BB370000 		.4byte	.LASF13
 2970 00a7 03       		.byte	0x3
 2971 00a8 0E       		.byte	0xe
 2972 00a9 2C000000 		.4byte	0x2c
 2973 00ad 04       		.uleb128 0x4
 2974 00ae 4E1B0000 		.4byte	.LASF14
 2975 00b2 03       		.byte	0x3
 2976 00b3 0F       		.byte	0xf
 2977 00b4 3A000000 		.4byte	0x3a
 2978 00b8 04       		.uleb128 0x4
 2979 00b9 D2200000 		.4byte	.LASF15
 2980 00bd 03       		.byte	0x3
 2981 00be 10       		.byte	0x10
 2982 00bf 64000000 		.4byte	0x64
 2983 00c3 04       		.uleb128 0x4
 2984 00c4 241D0000 		.4byte	.LASF16
 2985 00c8 03       		.byte	0x3
 2986 00c9 11       		.byte	0x11
ARM GAS  C:\Users\AHMED~1.ELE\AppData\Local\Temp\cc0wYKcg.s 			page 80


 2987 00ca 56000000 		.4byte	0x56
 2988 00ce 06       		.uleb128 0x6
 2989 00cf 04       		.byte	0x4
 2990 00d0 D4000000 		.4byte	0xd4
 2991 00d4 07       		.uleb128 0x7
 2992 00d5 A2000000 		.4byte	0xa2
 2993 00d9 08       		.uleb128 0x8
 2994 00da A2000000 		.4byte	0xa2
 2995 00de E9000000 		.4byte	0xe9
 2996 00e2 09       		.uleb128 0x9
 2997 00e3 78000000 		.4byte	0x78
 2998 00e7 01       		.byte	0x1
 2999 00e8 00       		.byte	0
 3000 00e9 06       		.uleb128 0x6
 3001 00ea 04       		.byte	0x4
 3002 00eb A2000000 		.4byte	0xa2
 3003 00ef 08       		.uleb128 0x8
 3004 00f0 A2000000 		.4byte	0xa2
 3005 00f4 FF000000 		.4byte	0xff
 3006 00f8 09       		.uleb128 0x9
 3007 00f9 78000000 		.4byte	0x78
 3008 00fd 03       		.byte	0x3
 3009 00fe 00       		.byte	0
 3010 00ff 0A       		.uleb128 0xa
 3011 0100 08       		.byte	0x8
 3012 0101 04       		.byte	0x4
 3013 0102 58       		.byte	0x58
 3014 0103 20010000 		.4byte	0x120
 3015 0107 0B       		.uleb128 0xb
 3016 0108 993E0000 		.4byte	.LASF17
 3017 010c 04       		.byte	0x4
 3018 010d 59       		.byte	0x59
 3019 010e AD000000 		.4byte	0xad
 3020 0112 00       		.byte	0
 3021 0113 0B       		.uleb128 0xb
 3022 0114 C1210000 		.4byte	.LASF18
 3023 0118 04       		.byte	0x4
 3024 0119 5A       		.byte	0x5a
 3025 011a E9000000 		.4byte	0xe9
 3026 011e 04       		.byte	0x4
 3027 011f 00       		.byte	0
 3028 0120 04       		.uleb128 0x4
 3029 0121 B5340000 		.4byte	.LASF19
 3030 0125 04       		.byte	0x4
 3031 0126 5B       		.byte	0x5b
 3032 0127 FF000000 		.4byte	0xff
 3033 012b 0C       		.uleb128 0xc
 3034 012c 544C00   		.ascii	"TL\000"
 3035 012f 04       		.byte	0x4
 3036 0130 AD       		.byte	0xad
 3037 0131 2C000000 		.4byte	0x2c
 3038 0135 0A       		.uleb128 0xa
 3039 0136 08       		.byte	0x8
 3040 0137 04       		.byte	0x4
 3041 0138 B0       		.byte	0xb0
 3042 0139 62010000 		.4byte	0x162
 3043 013d 0B       		.uleb128 0xb
ARM GAS  C:\Users\AHMED~1.ELE\AppData\Local\Temp\cc0wYKcg.s 			page 81


 3044 013e F1120000 		.4byte	.LASF20
 3045 0142 04       		.byte	0x4
 3046 0143 B1       		.byte	0xb1
 3047 0144 AD000000 		.4byte	0xad
 3048 0148 00       		.byte	0
 3049 0149 0B       		.uleb128 0xb
 3050 014a 12040000 		.4byte	.LASF21
 3051 014e 04       		.byte	0x4
 3052 014f B2       		.byte	0xb2
 3053 0150 2B010000 		.4byte	0x12b
 3054 0154 02       		.byte	0x2
 3055 0155 0B       		.uleb128 0xb
 3056 0156 AF340000 		.4byte	.LASF22
 3057 015a 04       		.byte	0x4
 3058 015b B3       		.byte	0xb3
 3059 015c E9000000 		.4byte	0xe9
 3060 0160 04       		.byte	0x4
 3061 0161 00       		.byte	0
 3062 0162 04       		.uleb128 0x4
 3063 0163 CC340000 		.4byte	.LASF23
 3064 0167 04       		.byte	0x4
 3065 0168 B4       		.byte	0xb4
 3066 0169 35010000 		.4byte	0x135
 3067 016d 08       		.uleb128 0x8
 3068 016e A2000000 		.4byte	0xa2
 3069 0172 7D010000 		.4byte	0x17d
 3070 0176 09       		.uleb128 0x9
 3071 0177 78000000 		.4byte	0x78
 3072 017b 04       		.byte	0x4
 3073 017c 00       		.byte	0
 3074 017d 08       		.uleb128 0x8
 3075 017e A2000000 		.4byte	0xa2
 3076 0182 8D010000 		.4byte	0x18d
 3077 0186 09       		.uleb128 0x9
 3078 0187 78000000 		.4byte	0x78
 3079 018b 02       		.byte	0x2
 3080 018c 00       		.byte	0
 3081 018d 08       		.uleb128 0x8
 3082 018e A2000000 		.4byte	0xa2
 3083 0192 9D010000 		.4byte	0x19d
 3084 0196 09       		.uleb128 0x9
 3085 0197 78000000 		.4byte	0x78
 3086 019b 7F       		.byte	0x7f
 3087 019c 00       		.byte	0
 3088 019d 08       		.uleb128 0x8
 3089 019e A2000000 		.4byte	0xa2
 3090 01a2 AD010000 		.4byte	0x1ad
 3091 01a6 09       		.uleb128 0x9
 3092 01a7 78000000 		.4byte	0x78
 3093 01ab 09       		.byte	0x9
 3094 01ac 00       		.byte	0
 3095 01ad 08       		.uleb128 0x8
 3096 01ae A2000000 		.4byte	0xa2
 3097 01b2 BD010000 		.4byte	0x1bd
 3098 01b6 09       		.uleb128 0x9
 3099 01b7 78000000 		.4byte	0x78
 3100 01bb 1F       		.byte	0x1f
ARM GAS  C:\Users\AHMED~1.ELE\AppData\Local\Temp\cc0wYKcg.s 			page 82


 3101 01bc 00       		.byte	0
 3102 01bd 08       		.uleb128 0x8
 3103 01be A2000000 		.4byte	0xa2
 3104 01c2 CD010000 		.4byte	0x1cd
 3105 01c6 09       		.uleb128 0x9
 3106 01c7 78000000 		.4byte	0x78
 3107 01cb 0F       		.byte	0xf
 3108 01cc 00       		.byte	0
 3109 01cd 08       		.uleb128 0x8
 3110 01ce A2000000 		.4byte	0xa2
 3111 01d2 DD010000 		.4byte	0x1dd
 3112 01d6 09       		.uleb128 0x9
 3113 01d7 78000000 		.4byte	0x78
 3114 01db 07       		.byte	0x7
 3115 01dc 00       		.byte	0
 3116 01dd 08       		.uleb128 0x8
 3117 01de A2000000 		.4byte	0xa2
 3118 01e2 ED010000 		.4byte	0x1ed
 3119 01e6 09       		.uleb128 0x9
 3120 01e7 78000000 		.4byte	0x78
 3121 01eb 13       		.byte	0x13
 3122 01ec 00       		.byte	0
 3123 01ed 0D       		.uleb128 0xd
 3124 01ee D20D0000 		.4byte	.LASF1084
 3125 01f2 02       		.byte	0x2
 3126 01f3 08       		.byte	0x8
 3127 01f4 9A04     		.2byte	0x49a
 3128 01f6 AA0E0000 		.4byte	0xeaa
 3129 01fa 0E       		.uleb128 0xe
 3130 01fb 1E3D0000 		.4byte	.LASF24
 3131 01ff 00       		.sleb128 0
 3132 0200 0E       		.uleb128 0xe
 3133 0201 76090000 		.4byte	.LASF25
 3134 0205 01       		.sleb128 1
 3135 0206 0E       		.uleb128 0xe
 3136 0207 9D040000 		.4byte	.LASF26
 3137 020b 02       		.sleb128 2
 3138 020c 0E       		.uleb128 0xe
 3139 020d 670D0000 		.4byte	.LASF27
 3140 0211 03       		.sleb128 3
 3141 0212 0E       		.uleb128 0xe
 3142 0213 561E0000 		.4byte	.LASF28
 3143 0217 04       		.sleb128 4
 3144 0218 0E       		.uleb128 0xe
 3145 0219 D2210000 		.4byte	.LASF29
 3146 021d 05       		.sleb128 5
 3147 021e 0E       		.uleb128 0xe
 3148 021f 5B150000 		.4byte	.LASF30
 3149 0223 06       		.sleb128 6
 3150 0224 0E       		.uleb128 0xe
 3151 0225 700B0000 		.4byte	.LASF31
 3152 0229 07       		.sleb128 7
 3153 022a 0E       		.uleb128 0xe
 3154 022b 27200000 		.4byte	.LASF32
 3155 022f 08       		.sleb128 8
 3156 0230 0E       		.uleb128 0xe
 3157 0231 9D170000 		.4byte	.LASF33
ARM GAS  C:\Users\AHMED~1.ELE\AppData\Local\Temp\cc0wYKcg.s 			page 83


 3158 0235 09       		.sleb128 9
 3159 0236 0E       		.uleb128 0xe
 3160 0237 513C0000 		.4byte	.LASF34
 3161 023b 0A       		.sleb128 10
 3162 023c 0E       		.uleb128 0xe
 3163 023d C0200000 		.4byte	.LASF35
 3164 0241 0B       		.sleb128 11
 3165 0242 0E       		.uleb128 0xe
 3166 0243 440D0000 		.4byte	.LASF36
 3167 0247 0C       		.sleb128 12
 3168 0248 0E       		.uleb128 0xe
 3169 0249 6F290000 		.4byte	.LASF37
 3170 024d 0D       		.sleb128 13
 3171 024e 0E       		.uleb128 0xe
 3172 024f A3410000 		.4byte	.LASF38
 3173 0253 0E       		.sleb128 14
 3174 0254 0E       		.uleb128 0xe
 3175 0255 56090000 		.4byte	.LASF39
 3176 0259 0F       		.sleb128 15
 3177 025a 0E       		.uleb128 0xe
 3178 025b F0270000 		.4byte	.LASF40
 3179 025f 10       		.sleb128 16
 3180 0260 0E       		.uleb128 0xe
 3181 0261 022D0000 		.4byte	.LASF41
 3182 0265 11       		.sleb128 17
 3183 0266 0E       		.uleb128 0xe
 3184 0267 E7010000 		.4byte	.LASF42
 3185 026b 12       		.sleb128 18
 3186 026c 0E       		.uleb128 0xe
 3187 026d 6F270000 		.4byte	.LASF43
 3188 0271 13       		.sleb128 19
 3189 0272 0E       		.uleb128 0xe
 3190 0273 8B1E0000 		.4byte	.LASF44
 3191 0277 14       		.sleb128 20
 3192 0278 0E       		.uleb128 0xe
 3193 0279 090A0000 		.4byte	.LASF45
 3194 027d 15       		.sleb128 21
 3195 027e 0E       		.uleb128 0xe
 3196 027f C6020000 		.4byte	.LASF46
 3197 0283 16       		.sleb128 22
 3198 0284 0E       		.uleb128 0xe
 3199 0285 28030000 		.4byte	.LASF47
 3200 0289 17       		.sleb128 23
 3201 028a 0E       		.uleb128 0xe
 3202 028b FC020000 		.4byte	.LASF48
 3203 028f 18       		.sleb128 24
 3204 0290 0E       		.uleb128 0xe
 3205 0291 DE360000 		.4byte	.LASF49
 3206 0295 19       		.sleb128 25
 3207 0296 0E       		.uleb128 0xe
 3208 0297 DF020000 		.4byte	.LASF50
 3209 029b 1A       		.sleb128 26
 3210 029c 0E       		.uleb128 0xe
 3211 029d 18030000 		.4byte	.LASF51
 3212 02a1 1B       		.sleb128 27
 3213 02a2 0E       		.uleb128 0xe
 3214 02a3 EE360000 		.4byte	.LASF52
ARM GAS  C:\Users\AHMED~1.ELE\AppData\Local\Temp\cc0wYKcg.s 			page 84


 3215 02a7 1C       		.sleb128 28
 3216 02a8 0E       		.uleb128 0xe
 3217 02a9 50180000 		.4byte	.LASF53
 3218 02ad 1D       		.sleb128 29
 3219 02ae 0E       		.uleb128 0xe
 3220 02af C42F0000 		.4byte	.LASF54
 3221 02b3 1E       		.sleb128 30
 3222 02b4 0E       		.uleb128 0xe
 3223 02b5 572C0000 		.4byte	.LASF55
 3224 02b9 1F       		.sleb128 31
 3225 02ba 0E       		.uleb128 0xe
 3226 02bb A41C0000 		.4byte	.LASF56
 3227 02bf 20       		.sleb128 32
 3228 02c0 0E       		.uleb128 0xe
 3229 02c1 2E250000 		.4byte	.LASF57
 3230 02c5 21       		.sleb128 33
 3231 02c6 0E       		.uleb128 0xe
 3232 02c7 750C0000 		.4byte	.LASF58
 3233 02cb 22       		.sleb128 34
 3234 02cc 0E       		.uleb128 0xe
 3235 02cd 11290000 		.4byte	.LASF59
 3236 02d1 23       		.sleb128 35
 3237 02d2 0E       		.uleb128 0xe
 3238 02d3 6F2F0000 		.4byte	.LASF60
 3239 02d7 24       		.sleb128 36
 3240 02d8 0E       		.uleb128 0xe
 3241 02d9 D22B0000 		.4byte	.LASF61
 3242 02dd 25       		.sleb128 37
 3243 02de 0E       		.uleb128 0xe
 3244 02df 29110000 		.4byte	.LASF62
 3245 02e3 26       		.sleb128 38
 3246 02e4 0E       		.uleb128 0xe
 3247 02e5 B1380000 		.4byte	.LASF63
 3248 02e9 27       		.sleb128 39
 3249 02ea 0E       		.uleb128 0xe
 3250 02eb B1230000 		.4byte	.LASF64
 3251 02ef 28       		.sleb128 40
 3252 02f0 0E       		.uleb128 0xe
 3253 02f1 46140000 		.4byte	.LASF65
 3254 02f5 29       		.sleb128 41
 3255 02f6 0E       		.uleb128 0xe
 3256 02f7 B2330000 		.4byte	.LASF66
 3257 02fb 2A       		.sleb128 42
 3258 02fc 0E       		.uleb128 0xe
 3259 02fd 68040000 		.4byte	.LASF67
 3260 0301 2B       		.sleb128 43
 3261 0302 0E       		.uleb128 0xe
 3262 0303 0F2A0000 		.4byte	.LASF68
 3263 0307 2C       		.sleb128 44
 3264 0308 0E       		.uleb128 0xe
 3265 0309 9B1E0000 		.4byte	.LASF69
 3266 030d 2D       		.sleb128 45
 3267 030e 0E       		.uleb128 0xe
 3268 030f 18080000 		.4byte	.LASF70
 3269 0313 2E       		.sleb128 46
 3270 0314 0E       		.uleb128 0xe
 3271 0315 F51C0000 		.4byte	.LASF71
ARM GAS  C:\Users\AHMED~1.ELE\AppData\Local\Temp\cc0wYKcg.s 			page 85


 3272 0319 2F       		.sleb128 47
 3273 031a 0E       		.uleb128 0xe
 3274 031b D2110000 		.4byte	.LASF72
 3275 031f 30       		.sleb128 48
 3276 0320 0E       		.uleb128 0xe
 3277 0321 083A0000 		.4byte	.LASF73
 3278 0325 31       		.sleb128 49
 3279 0326 0E       		.uleb128 0xe
 3280 0327 4F0E0000 		.4byte	.LASF74
 3281 032b 32       		.sleb128 50
 3282 032c 0E       		.uleb128 0xe
 3283 032d 232C0000 		.4byte	.LASF75
 3284 0331 33       		.sleb128 51
 3285 0332 0E       		.uleb128 0xe
 3286 0333 B2410000 		.4byte	.LASF76
 3287 0337 34       		.sleb128 52
 3288 0338 0E       		.uleb128 0xe
 3289 0339 6D3F0000 		.4byte	.LASF77
 3290 033d 35       		.sleb128 53
 3291 033e 0E       		.uleb128 0xe
 3292 033f 9F340000 		.4byte	.LASF78
 3293 0343 36       		.sleb128 54
 3294 0344 0E       		.uleb128 0xe
 3295 0345 3C190000 		.4byte	.LASF79
 3296 0349 37       		.sleb128 55
 3297 034a 0E       		.uleb128 0xe
 3298 034b 0B180000 		.4byte	.LASF80
 3299 034f 38       		.sleb128 56
 3300 0350 0E       		.uleb128 0xe
 3301 0351 960C0000 		.4byte	.LASF81
 3302 0355 39       		.sleb128 57
 3303 0356 0E       		.uleb128 0xe
 3304 0357 2D0B0000 		.4byte	.LASF82
 3305 035b 3A       		.sleb128 58
 3306 035c 0E       		.uleb128 0xe
 3307 035d E0080000 		.4byte	.LASF83
 3308 0361 3B       		.sleb128 59
 3309 0362 0E       		.uleb128 0xe
 3310 0363 2E260000 		.4byte	.LASF84
 3311 0367 3C       		.sleb128 60
 3312 0368 0E       		.uleb128 0xe
 3313 0369 623C0000 		.4byte	.LASF85
 3314 036d 3D       		.sleb128 61
 3315 036e 0E       		.uleb128 0xe
 3316 036f 09110000 		.4byte	.LASF86
 3317 0373 3E       		.sleb128 62
 3318 0374 0E       		.uleb128 0xe
 3319 0375 D9050000 		.4byte	.LASF87
 3320 0379 3F       		.sleb128 63
 3321 037a 0E       		.uleb128 0xe
 3322 037b 8B2B0000 		.4byte	.LASF88
 3323 037f C000     		.sleb128 64
 3324 0381 0E       		.uleb128 0xe
 3325 0382 3A120000 		.4byte	.LASF89
 3326 0386 C100     		.sleb128 65
 3327 0388 0E       		.uleb128 0xe
 3328 0389 AA060000 		.4byte	.LASF90
ARM GAS  C:\Users\AHMED~1.ELE\AppData\Local\Temp\cc0wYKcg.s 			page 86


 3329 038d C200     		.sleb128 66
 3330 038f 0E       		.uleb128 0xe
 3331 0390 C1230000 		.4byte	.LASF91
 3332 0394 C300     		.sleb128 67
 3333 0396 0E       		.uleb128 0xe
 3334 0397 B12C0000 		.4byte	.LASF92
 3335 039b C400     		.sleb128 68
 3336 039d 0E       		.uleb128 0xe
 3337 039e 3B140000 		.4byte	.LASF93
 3338 03a2 C500     		.sleb128 69
 3339 03a4 0E       		.uleb128 0xe
 3340 03a5 8B410000 		.4byte	.LASF94
 3341 03a9 C600     		.sleb128 70
 3342 03ab 0E       		.uleb128 0xe
 3343 03ac D3290000 		.4byte	.LASF95
 3344 03b0 C700     		.sleb128 71
 3345 03b2 0E       		.uleb128 0xe
 3346 03b3 BF3B0000 		.4byte	.LASF96
 3347 03b7 C800     		.sleb128 72
 3348 03b9 0E       		.uleb128 0xe
 3349 03ba A6080000 		.4byte	.LASF97
 3350 03be C900     		.sleb128 73
 3351 03c0 0E       		.uleb128 0xe
 3352 03c1 913B0000 		.4byte	.LASF98
 3353 03c5 CA00     		.sleb128 74
 3354 03c7 0E       		.uleb128 0xe
 3355 03c8 4C1E0000 		.4byte	.LASF99
 3356 03cc CB00     		.sleb128 75
 3357 03ce 0E       		.uleb128 0xe
 3358 03cf B3250000 		.4byte	.LASF100
 3359 03d3 CC00     		.sleb128 76
 3360 03d5 0E       		.uleb128 0xe
 3361 03d6 9F250000 		.4byte	.LASF101
 3362 03da CD00     		.sleb128 77
 3363 03dc 0E       		.uleb128 0xe
 3364 03dd 79080000 		.4byte	.LASF102
 3365 03e1 CE00     		.sleb128 78
 3366 03e3 0E       		.uleb128 0xe
 3367 03e4 341E0000 		.4byte	.LASF103
 3368 03e8 CF00     		.sleb128 79
 3369 03ea 0E       		.uleb128 0xe
 3370 03eb C5250000 		.4byte	.LASF104
 3371 03ef D000     		.sleb128 80
 3372 03f1 0E       		.uleb128 0xe
 3373 03f2 95220000 		.4byte	.LASF105
 3374 03f6 D100     		.sleb128 81
 3375 03f8 0E       		.uleb128 0xe
 3376 03f9 00130000 		.4byte	.LASF106
 3377 03fd D200     		.sleb128 82
 3378 03ff 0E       		.uleb128 0xe
 3379 0400 061D0000 		.4byte	.LASF107
 3380 0404 D300     		.sleb128 83
 3381 0406 0E       		.uleb128 0xe
 3382 0407 44250000 		.4byte	.LASF108
 3383 040b D400     		.sleb128 84
 3384 040d 0E       		.uleb128 0xe
 3385 040e A70B0000 		.4byte	.LASF109
ARM GAS  C:\Users\AHMED~1.ELE\AppData\Local\Temp\cc0wYKcg.s 			page 87


 3386 0412 D500     		.sleb128 85
 3387 0414 0E       		.uleb128 0xe
 3388 0415 BB060000 		.4byte	.LASF110
 3389 0419 D600     		.sleb128 86
 3390 041b 0E       		.uleb128 0xe
 3391 041c B1090000 		.4byte	.LASF111
 3392 0420 D700     		.sleb128 87
 3393 0422 0E       		.uleb128 0xe
 3394 0423 352D0000 		.4byte	.LASF112
 3395 0427 D800     		.sleb128 88
 3396 0429 0E       		.uleb128 0xe
 3397 042a 553B0000 		.4byte	.LASF113
 3398 042e D900     		.sleb128 89
 3399 0430 0E       		.uleb128 0xe
 3400 0431 5F0B0000 		.4byte	.LASF114
 3401 0435 DA00     		.sleb128 90
 3402 0437 0E       		.uleb128 0xe
 3403 0438 B32D0000 		.4byte	.LASF115
 3404 043c DB00     		.sleb128 91
 3405 043e 0E       		.uleb128 0xe
 3406 043f FD0A0000 		.4byte	.LASF116
 3407 0443 DC00     		.sleb128 92
 3408 0445 0E       		.uleb128 0xe
 3409 0446 F1090000 		.4byte	.LASF117
 3410 044a DD00     		.sleb128 93
 3411 044c 0E       		.uleb128 0xe
 3412 044d FA2F0000 		.4byte	.LASF118
 3413 0451 DE00     		.sleb128 94
 3414 0453 0E       		.uleb128 0xe
 3415 0454 79040000 		.4byte	.LASF119
 3416 0458 DF00     		.sleb128 95
 3417 045a 0E       		.uleb128 0xe
 3418 045b 6A160000 		.4byte	.LASF120
 3419 045f E000     		.sleb128 96
 3420 0461 0E       		.uleb128 0xe
 3421 0462 F20E0000 		.4byte	.LASF121
 3422 0466 E100     		.sleb128 97
 3423 0468 0E       		.uleb128 0xe
 3424 0469 96100000 		.4byte	.LASF122
 3425 046d E200     		.sleb128 98
 3426 046f 0E       		.uleb128 0xe
 3427 0470 41400000 		.4byte	.LASF123
 3428 0474 E300     		.sleb128 99
 3429 0476 0E       		.uleb128 0xe
 3430 0477 D8040000 		.4byte	.LASF124
 3431 047b E400     		.sleb128 100
 3432 047d 0E       		.uleb128 0xe
 3433 047e 7A3B0000 		.4byte	.LASF125
 3434 0482 E500     		.sleb128 101
 3435 0484 0E       		.uleb128 0xe
 3436 0485 8E0A0000 		.4byte	.LASF126
 3437 0489 E600     		.sleb128 102
 3438 048b 0E       		.uleb128 0xe
 3439 048c A8130000 		.4byte	.LASF127
 3440 0490 E700     		.sleb128 103
 3441 0492 0E       		.uleb128 0xe
 3442 0493 661E0000 		.4byte	.LASF128
ARM GAS  C:\Users\AHMED~1.ELE\AppData\Local\Temp\cc0wYKcg.s 			page 88


 3443 0497 E800     		.sleb128 104
 3444 0499 0E       		.uleb128 0xe
 3445 049a 122D0000 		.4byte	.LASF129
 3446 049e E900     		.sleb128 105
 3447 04a0 0E       		.uleb128 0xe
 3448 04a1 BC1E0000 		.4byte	.LASF130
 3449 04a5 EA00     		.sleb128 106
 3450 04a7 0E       		.uleb128 0xe
 3451 04a8 7F0F0000 		.4byte	.LASF131
 3452 04ac EB00     		.sleb128 107
 3453 04ae 0E       		.uleb128 0xe
 3454 04af 063D0000 		.4byte	.LASF132
 3455 04b3 EC00     		.sleb128 108
 3456 04b5 0E       		.uleb128 0xe
 3457 04b6 43150000 		.4byte	.LASF133
 3458 04ba ED00     		.sleb128 109
 3459 04bc 0E       		.uleb128 0xe
 3460 04bd 4B0C0000 		.4byte	.LASF134
 3461 04c1 EE00     		.sleb128 110
 3462 04c3 0E       		.uleb128 0xe
 3463 04c4 36100000 		.4byte	.LASF135
 3464 04c8 EF00     		.sleb128 111
 3465 04ca 0E       		.uleb128 0xe
 3466 04cb 41180000 		.4byte	.LASF136
 3467 04cf F000     		.sleb128 112
 3468 04d1 0E       		.uleb128 0xe
 3469 04d2 E1340000 		.4byte	.LASF137
 3470 04d6 F100     		.sleb128 113
 3471 04d8 0E       		.uleb128 0xe
 3472 04d9 B8000000 		.4byte	.LASF138
 3473 04dd F200     		.sleb128 114
 3474 04df 0E       		.uleb128 0xe
 3475 04e0 A62A0000 		.4byte	.LASF139
 3476 04e4 F300     		.sleb128 115
 3477 04e6 0E       		.uleb128 0xe
 3478 04e7 43000000 		.4byte	.LASF140
 3479 04eb F400     		.sleb128 116
 3480 04ed 0E       		.uleb128 0xe
 3481 04ee C0160000 		.4byte	.LASF141
 3482 04f2 F500     		.sleb128 117
 3483 04f4 0E       		.uleb128 0xe
 3484 04f5 43420000 		.4byte	.LASF142
 3485 04f9 F600     		.sleb128 118
 3486 04fb 0E       		.uleb128 0xe
 3487 04fc C6120000 		.4byte	.LASF143
 3488 0500 F700     		.sleb128 119
 3489 0502 0E       		.uleb128 0xe
 3490 0503 29140000 		.4byte	.LASF144
 3491 0507 F800     		.sleb128 120
 3492 0509 0E       		.uleb128 0xe
 3493 050a 83100000 		.4byte	.LASF145
 3494 050e F900     		.sleb128 121
 3495 0510 0E       		.uleb128 0xe
 3496 0511 0D140000 		.4byte	.LASF146
 3497 0515 FA00     		.sleb128 122
 3498 0517 0E       		.uleb128 0xe
 3499 0518 D7380000 		.4byte	.LASF147
ARM GAS  C:\Users\AHMED~1.ELE\AppData\Local\Temp\cc0wYKcg.s 			page 89


 3500 051c FB00     		.sleb128 123
 3501 051e 0E       		.uleb128 0xe
 3502 051f 751D0000 		.4byte	.LASF148
 3503 0523 FC00     		.sleb128 124
 3504 0525 0E       		.uleb128 0xe
 3505 0526 D53A0000 		.4byte	.LASF149
 3506 052a FD00     		.sleb128 125
 3507 052c 0E       		.uleb128 0xe
 3508 052d 82310000 		.4byte	.LASF150
 3509 0531 FE00     		.sleb128 126
 3510 0533 0E       		.uleb128 0xe
 3511 0534 D9410000 		.4byte	.LASF151
 3512 0538 FF00     		.sleb128 127
 3513 053a 0E       		.uleb128 0xe
 3514 053b DF2E0000 		.4byte	.LASF152
 3515 053f 8001     		.sleb128 128
 3516 0541 0E       		.uleb128 0xe
 3517 0542 1A0B0000 		.4byte	.LASF153
 3518 0546 8101     		.sleb128 129
 3519 0548 0E       		.uleb128 0xe
 3520 0549 FC1B0000 		.4byte	.LASF154
 3521 054d 8201     		.sleb128 130
 3522 054f 0E       		.uleb128 0xe
 3523 0550 77340000 		.4byte	.LASF155
 3524 0554 8301     		.sleb128 131
 3525 0556 0E       		.uleb128 0xe
 3526 0557 6B150000 		.4byte	.LASF156
 3527 055b 8401     		.sleb128 132
 3528 055d 0E       		.uleb128 0xe
 3529 055e 2C0E0000 		.4byte	.LASF157
 3530 0562 8501     		.sleb128 133
 3531 0564 0E       		.uleb128 0xe
 3532 0565 952D0000 		.4byte	.LASF158
 3533 0569 8601     		.sleb128 134
 3534 056b 0E       		.uleb128 0xe
 3535 056c C1090000 		.4byte	.LASF159
 3536 0570 8701     		.sleb128 135
 3537 0572 0E       		.uleb128 0xe
 3538 0573 57260000 		.4byte	.LASF160
 3539 0577 8801     		.sleb128 136
 3540 0579 0E       		.uleb128 0xe
 3541 057a A5210000 		.4byte	.LASF161
 3542 057e 8901     		.sleb128 137
 3543 0580 0E       		.uleb128 0xe
 3544 0581 00140000 		.4byte	.LASF162
 3545 0585 8A01     		.sleb128 138
 3546 0587 0E       		.uleb128 0xe
 3547 0588 170C0000 		.4byte	.LASF163
 3548 058c 8B01     		.sleb128 139
 3549 058e 0E       		.uleb128 0xe
 3550 058f 4B3E0000 		.4byte	.LASF164
 3551 0593 8C01     		.sleb128 140
 3552 0595 0E       		.uleb128 0xe
 3553 0596 54240000 		.4byte	.LASF165
 3554 059a 8D01     		.sleb128 141
 3555 059c 0E       		.uleb128 0xe
 3556 059d 2F2E0000 		.4byte	.LASF166
ARM GAS  C:\Users\AHMED~1.ELE\AppData\Local\Temp\cc0wYKcg.s 			page 90


 3557 05a1 8E01     		.sleb128 142
 3558 05a3 0E       		.uleb128 0xe
 3559 05a4 BD2A0000 		.4byte	.LASF167
 3560 05a8 8F01     		.sleb128 143
 3561 05aa 0E       		.uleb128 0xe
 3562 05ab 3D360000 		.4byte	.LASF168
 3563 05af 9001     		.sleb128 144
 3564 05b1 0E       		.uleb128 0xe
 3565 05b2 89270000 		.4byte	.LASF169
 3566 05b6 9101     		.sleb128 145
 3567 05b8 0E       		.uleb128 0xe
 3568 05b9 26160000 		.4byte	.LASF170
 3569 05bd 9201     		.sleb128 146
 3570 05bf 0E       		.uleb128 0xe
 3571 05c0 F20C0000 		.4byte	.LASF171
 3572 05c4 9301     		.sleb128 147
 3573 05c6 0E       		.uleb128 0xe
 3574 05c7 F0320000 		.4byte	.LASF172
 3575 05cb 9401     		.sleb128 148
 3576 05cd 0E       		.uleb128 0xe
 3577 05ce AB400000 		.4byte	.LASF173
 3578 05d2 9501     		.sleb128 149
 3579 05d4 0E       		.uleb128 0xe
 3580 05d5 D21C0000 		.4byte	.LASF174
 3581 05d9 9601     		.sleb128 150
 3582 05db 0E       		.uleb128 0xe
 3583 05dc CE230000 		.4byte	.LASF175
 3584 05e0 9701     		.sleb128 151
 3585 05e2 0E       		.uleb128 0xe
 3586 05e3 43310000 		.4byte	.LASF176
 3587 05e7 9801     		.sleb128 152
 3588 05e9 0E       		.uleb128 0xe
 3589 05ea 67190000 		.4byte	.LASF177
 3590 05ee 9901     		.sleb128 153
 3591 05f0 0E       		.uleb128 0xe
 3592 05f1 E1290000 		.4byte	.LASF178
 3593 05f5 9A01     		.sleb128 154
 3594 05f7 0E       		.uleb128 0xe
 3595 05f8 74050000 		.4byte	.LASF179
 3596 05fc 9B01     		.sleb128 155
 3597 05fe 0E       		.uleb128 0xe
 3598 05ff CE0E0000 		.4byte	.LASF180
 3599 0603 9C01     		.sleb128 156
 3600 0605 0E       		.uleb128 0xe
 3601 0606 76130000 		.4byte	.LASF181
 3602 060a 9D01     		.sleb128 157
 3603 060c 0E       		.uleb128 0xe
 3604 060d 57230000 		.4byte	.LASF182
 3605 0611 9E01     		.sleb128 158
 3606 0613 0E       		.uleb128 0xe
 3607 0614 F7390000 		.4byte	.LASF183
 3608 0618 9F01     		.sleb128 159
 3609 061a 0E       		.uleb128 0xe
 3610 061b D7010000 		.4byte	.LASF184
 3611 061f A001     		.sleb128 160
 3612 0621 0E       		.uleb128 0xe
 3613 0622 47350000 		.4byte	.LASF185
ARM GAS  C:\Users\AHMED~1.ELE\AppData\Local\Temp\cc0wYKcg.s 			page 91


 3614 0626 A101     		.sleb128 161
 3615 0628 0E       		.uleb128 0xe
 3616 0629 3F080000 		.4byte	.LASF186
 3617 062d A201     		.sleb128 162
 3618 062f 0E       		.uleb128 0xe
 3619 0630 9F110000 		.4byte	.LASF187
 3620 0634 A301     		.sleb128 163
 3621 0636 0E       		.uleb128 0xe
 3622 0637 50390000 		.4byte	.LASF188
 3623 063b A401     		.sleb128 164
 3624 063d 0E       		.uleb128 0xe
 3625 063e E42A0000 		.4byte	.LASF189
 3626 0642 A501     		.sleb128 165
 3627 0644 0E       		.uleb128 0xe
 3628 0645 3E220000 		.4byte	.LASF190
 3629 0649 A601     		.sleb128 166
 3630 064b 0E       		.uleb128 0xe
 3631 064c 430F0000 		.4byte	.LASF191
 3632 0650 A701     		.sleb128 167
 3633 0652 0E       		.uleb128 0xe
 3634 0653 32060000 		.4byte	.LASF192
 3635 0657 A801     		.sleb128 168
 3636 0659 0E       		.uleb128 0xe
 3637 065a 280A0000 		.4byte	.LASF193
 3638 065e A901     		.sleb128 169
 3639 0660 0E       		.uleb128 0xe
 3640 0661 981D0000 		.4byte	.LASF194
 3641 0665 AA01     		.sleb128 170
 3642 0667 0E       		.uleb128 0xe
 3643 0668 C30F0000 		.4byte	.LASF195
 3644 066c AB01     		.sleb128 171
 3645 066e 0E       		.uleb128 0xe
 3646 066f ED260000 		.4byte	.LASF196
 3647 0673 AC01     		.sleb128 172
 3648 0675 0E       		.uleb128 0xe
 3649 0676 BD150000 		.4byte	.LASF197
 3650 067a AD01     		.sleb128 173
 3651 067c 0E       		.uleb128 0xe
 3652 067d 8A110000 		.4byte	.LASF198
 3653 0681 AE01     		.sleb128 174
 3654 0683 0E       		.uleb128 0xe
 3655 0684 53250000 		.4byte	.LASF199
 3656 0688 AF01     		.sleb128 175
 3657 068a 0E       		.uleb128 0xe
 3658 068b 902F0000 		.4byte	.LASF200
 3659 068f B001     		.sleb128 176
 3660 0691 0E       		.uleb128 0xe
 3661 0692 E3240000 		.4byte	.LASF201
 3662 0696 B101     		.sleb128 177
 3663 0698 0E       		.uleb128 0xe
 3664 0699 FF000000 		.4byte	.LASF202
 3665 069d B201     		.sleb128 178
 3666 069f 0E       		.uleb128 0xe
 3667 06a0 871D0000 		.4byte	.LASF203
 3668 06a4 B301     		.sleb128 179
 3669 06a6 0E       		.uleb128 0xe
 3670 06a7 7A2B0000 		.4byte	.LASF204
ARM GAS  C:\Users\AHMED~1.ELE\AppData\Local\Temp\cc0wYKcg.s 			page 92


 3671 06ab B401     		.sleb128 180
 3672 06ad 0E       		.uleb128 0xe
 3673 06ae 1E390000 		.4byte	.LASF205
 3674 06b2 B501     		.sleb128 181
 3675 06b4 0E       		.uleb128 0xe
 3676 06b5 13150000 		.4byte	.LASF206
 3677 06b9 B601     		.sleb128 182
 3678 06bb 0E       		.uleb128 0xe
 3679 06bc 72100000 		.4byte	.LASF207
 3680 06c0 B701     		.sleb128 183
 3681 06c2 0E       		.uleb128 0xe
 3682 06c3 45430000 		.4byte	.LASF208
 3683 06c7 B801     		.sleb128 184
 3684 06c9 0E       		.uleb128 0xe
 3685 06ca B03F0000 		.4byte	.LASF209
 3686 06ce B901     		.sleb128 185
 3687 06d0 0E       		.uleb128 0xe
 3688 06d1 5C120000 		.4byte	.LASF210
 3689 06d5 BA01     		.sleb128 186
 3690 06d7 0E       		.uleb128 0xe
 3691 06d8 9A010000 		.4byte	.LASF211
 3692 06dc BB01     		.sleb128 187
 3693 06de 0E       		.uleb128 0xe
 3694 06df D0130000 		.4byte	.LASF212
 3695 06e3 BC01     		.sleb128 188
 3696 06e5 0E       		.uleb128 0xe
 3697 06e6 712C0000 		.4byte	.LASF213
 3698 06ea BD01     		.sleb128 189
 3699 06ec 0E       		.uleb128 0xe
 3700 06ed 050F0000 		.4byte	.LASF214
 3701 06f1 BE01     		.sleb128 190
 3702 06f3 0E       		.uleb128 0xe
 3703 06f4 981F0000 		.4byte	.LASF215
 3704 06f8 BF01     		.sleb128 191
 3705 06fa 0E       		.uleb128 0xe
 3706 06fb 7C160000 		.4byte	.LASF216
 3707 06ff C001     		.sleb128 192
 3708 0701 0E       		.uleb128 0xe
 3709 0702 E63E0000 		.4byte	.LASF217
 3710 0706 C101     		.sleb128 193
 3711 0708 0E       		.uleb128 0xe
 3712 0709 BF180000 		.4byte	.LASF218
 3713 070d C201     		.sleb128 194
 3714 070f 0E       		.uleb128 0xe
 3715 0710 5F330000 		.4byte	.LASF219
 3716 0714 C301     		.sleb128 195
 3717 0716 0E       		.uleb128 0xe
 3718 0717 32210000 		.4byte	.LASF220
 3719 071b C401     		.sleb128 196
 3720 071d 0E       		.uleb128 0xe
 3721 071e CC180000 		.4byte	.LASF221
 3722 0722 C501     		.sleb128 197
 3723 0724 0E       		.uleb128 0xe
 3724 0725 700E0000 		.4byte	.LASF222
 3725 0729 C601     		.sleb128 198
 3726 072b 0E       		.uleb128 0xe
 3727 072c FF2E0000 		.4byte	.LASF223
ARM GAS  C:\Users\AHMED~1.ELE\AppData\Local\Temp\cc0wYKcg.s 			page 93


 3728 0730 C701     		.sleb128 199
 3729 0732 0E       		.uleb128 0xe
 3730 0733 791E0000 		.4byte	.LASF224
 3731 0737 C801     		.sleb128 200
 3732 0739 0E       		.uleb128 0xe
 3733 073a DA070000 		.4byte	.LASF225
 3734 073e C901     		.sleb128 201
 3735 0740 0E       		.uleb128 0xe
 3736 0741 A5390000 		.4byte	.LASF226
 3737 0745 CA01     		.sleb128 202
 3738 0747 0E       		.uleb128 0xe
 3739 0748 DE260000 		.4byte	.LASF227
 3740 074c CB01     		.sleb128 203
 3741 074e 0E       		.uleb128 0xe
 3742 074f 48200000 		.4byte	.LASF228
 3743 0753 CC01     		.sleb128 204
 3744 0755 0E       		.uleb128 0xe
 3745 0756 98270000 		.4byte	.LASF229
 3746 075a CD01     		.sleb128 205
 3747 075c 0E       		.uleb128 0xe
 3748 075d 903A0000 		.4byte	.LASF230
 3749 0761 CE01     		.sleb128 206
 3750 0763 0E       		.uleb128 0xe
 3751 0764 AF180000 		.4byte	.LASF231
 3752 0768 CF01     		.sleb128 207
 3753 076a 0E       		.uleb128 0xe
 3754 076b ED070000 		.4byte	.LASF232
 3755 076f D001     		.sleb128 208
 3756 0771 0E       		.uleb128 0xe
 3757 0772 360F0000 		.4byte	.LASF233
 3758 0776 D101     		.sleb128 209
 3759 0778 0E       		.uleb128 0xe
 3760 0779 E42C0000 		.4byte	.LASF234
 3761 077d D201     		.sleb128 210
 3762 077f 0E       		.uleb128 0xe
 3763 0780 D0300000 		.4byte	.LASF235
 3764 0784 D301     		.sleb128 211
 3765 0786 0E       		.uleb128 0xe
 3766 0787 000D0000 		.4byte	.LASF236
 3767 078b D401     		.sleb128 212
 3768 078d 0E       		.uleb128 0xe
 3769 078e 80210000 		.4byte	.LASF237
 3770 0792 D501     		.sleb128 213
 3771 0794 0E       		.uleb128 0xe
 3772 0795 9F030000 		.4byte	.LASF238
 3773 0799 D601     		.sleb128 214
 3774 079b 0E       		.uleb128 0xe
 3775 079c 60270000 		.4byte	.LASF239
 3776 07a0 D701     		.sleb128 215
 3777 07a2 0E       		.uleb128 0xe
 3778 07a3 E6100000 		.4byte	.LASF240
 3779 07a7 D801     		.sleb128 216
 3780 07a9 0E       		.uleb128 0xe
 3781 07aa 482C0000 		.4byte	.LASF241
 3782 07ae D901     		.sleb128 217
 3783 07b0 0E       		.uleb128 0xe
 3784 07b1 B1320000 		.4byte	.LASF242
ARM GAS  C:\Users\AHMED~1.ELE\AppData\Local\Temp\cc0wYKcg.s 			page 94


 3785 07b5 DA01     		.sleb128 218
 3786 07b7 0E       		.uleb128 0xe
 3787 07b8 33160000 		.4byte	.LASF243
 3788 07bc DB01     		.sleb128 219
 3789 07be 0E       		.uleb128 0xe
 3790 07bf 61010000 		.4byte	.LASF244
 3791 07c3 DC01     		.sleb128 220
 3792 07c5 0E       		.uleb128 0xe
 3793 07c6 C3330000 		.4byte	.LASF245
 3794 07ca DD01     		.sleb128 221
 3795 07cc 0E       		.uleb128 0xe
 3796 07cd 19420000 		.4byte	.LASF246
 3797 07d1 DE01     		.sleb128 222
 3798 07d3 0E       		.uleb128 0xe
 3799 07d4 81120000 		.4byte	.LASF247
 3800 07d8 DF01     		.sleb128 223
 3801 07da 0E       		.uleb128 0xe
 3802 07db 11170000 		.4byte	.LASF248
 3803 07df E001     		.sleb128 224
 3804 07e1 0E       		.uleb128 0xe
 3805 07e2 813A0000 		.4byte	.LASF249
 3806 07e6 E101     		.sleb128 225
 3807 07e8 0E       		.uleb128 0xe
 3808 07e9 0E1C0000 		.4byte	.LASF250
 3809 07ed E201     		.sleb128 226
 3810 07ef 0E       		.uleb128 0xe
 3811 07f0 70010000 		.4byte	.LASF251
 3812 07f4 E301     		.sleb128 227
 3813 07f6 0E       		.uleb128 0xe
 3814 07f7 ED000000 		.4byte	.LASF252
 3815 07fb E401     		.sleb128 228
 3816 07fd 0E       		.uleb128 0xe
 3817 07fe 5F100000 		.4byte	.LASF253
 3818 0802 E501     		.sleb128 229
 3819 0804 0E       		.uleb128 0xe
 3820 0805 CC060000 		.4byte	.LASF254
 3821 0809 E601     		.sleb128 230
 3822 080b 0E       		.uleb128 0xe
 3823 080c C1170000 		.4byte	.LASF255
 3824 0810 E701     		.sleb128 231
 3825 0812 0E       		.uleb128 0xe
 3826 0813 4E290000 		.4byte	.LASF256
 3827 0817 E801     		.sleb128 232
 3828 0819 0E       		.uleb128 0xe
 3829 081a DF190000 		.4byte	.LASF257
 3830 081e E901     		.sleb128 233
 3831 0820 0E       		.uleb128 0xe
 3832 0821 893C0000 		.4byte	.LASF258
 3833 0825 EA01     		.sleb128 234
 3834 0827 0E       		.uleb128 0xe
 3835 0828 D0250000 		.4byte	.LASF259
 3836 082c EB01     		.sleb128 235
 3837 082e 0E       		.uleb128 0xe
 3838 082f F9300000 		.4byte	.LASF260
 3839 0833 EC01     		.sleb128 236
 3840 0835 0E       		.uleb128 0xe
 3841 0836 D0360000 		.4byte	.LASF261
ARM GAS  C:\Users\AHMED~1.ELE\AppData\Local\Temp\cc0wYKcg.s 			page 95


 3842 083a ED01     		.sleb128 237
 3843 083c 0E       		.uleb128 0xe
 3844 083d 62290000 		.4byte	.LASF262
 3845 0841 EE01     		.sleb128 238
 3846 0843 0E       		.uleb128 0xe
 3847 0844 02230000 		.4byte	.LASF263
 3848 0848 EF01     		.sleb128 239
 3849 084a 0E       		.uleb128 0xe
 3850 084b 45280000 		.4byte	.LASF264
 3851 084f F001     		.sleb128 240
 3852 0851 0E       		.uleb128 0xe
 3853 0852 EA1A0000 		.4byte	.LASF265
 3854 0856 F101     		.sleb128 241
 3855 0858 0E       		.uleb128 0xe
 3856 0859 3C3F0000 		.4byte	.LASF266
 3857 085d F201     		.sleb128 242
 3858 085f 0E       		.uleb128 0xe
 3859 0860 D3100000 		.4byte	.LASF267
 3860 0864 F301     		.sleb128 243
 3861 0866 0E       		.uleb128 0xe
 3862 0867 AB1F0000 		.4byte	.LASF268
 3863 086b F401     		.sleb128 244
 3864 086d 0E       		.uleb128 0xe
 3865 086e 28300000 		.4byte	.LASF269
 3866 0872 F501     		.sleb128 245
 3867 0874 0E       		.uleb128 0xe
 3868 0875 DD320000 		.4byte	.LASF270
 3869 0879 F601     		.sleb128 246
 3870 087b 0E       		.uleb128 0xe
 3871 087c 812A0000 		.4byte	.LASF271
 3872 0880 F701     		.sleb128 247
 3873 0882 0E       		.uleb128 0xe
 3874 0883 A70C0000 		.4byte	.LASF272
 3875 0887 F801     		.sleb128 248
 3876 0889 0E       		.uleb128 0xe
 3877 088a 07160000 		.4byte	.LASF273
 3878 088e F901     		.sleb128 249
 3879 0890 0E       		.uleb128 0xe
 3880 0891 A7360000 		.4byte	.LASF274
 3881 0895 FA01     		.sleb128 250
 3882 0897 0E       		.uleb128 0xe
 3883 0898 78190000 		.4byte	.LASF275
 3884 089c FB01     		.sleb128 251
 3885 089e 0E       		.uleb128 0xe
 3886 089f F0030000 		.4byte	.LASF276
 3887 08a3 FC01     		.sleb128 252
 3888 08a5 0E       		.uleb128 0xe
 3889 08a6 54280000 		.4byte	.LASF277
 3890 08aa FD01     		.sleb128 253
 3891 08ac 0E       		.uleb128 0xe
 3892 08ad 7B330000 		.4byte	.LASF278
 3893 08b1 FE01     		.sleb128 254
 3894 08b3 0E       		.uleb128 0xe
 3895 08b4 67380000 		.4byte	.LASF279
 3896 08b8 FF01     		.sleb128 255
 3897 08ba 0E       		.uleb128 0xe
 3898 08bb 9C200000 		.4byte	.LASF280
ARM GAS  C:\Users\AHMED~1.ELE\AppData\Local\Temp\cc0wYKcg.s 			page 96


 3899 08bf 8002     		.sleb128 256
 3900 08c1 0E       		.uleb128 0xe
 3901 08c2 1D100000 		.4byte	.LASF281
 3902 08c6 8102     		.sleb128 257
 3903 08c8 0E       		.uleb128 0xe
 3904 08c9 133C0000 		.4byte	.LASF282
 3905 08cd 8202     		.sleb128 258
 3906 08cf 0E       		.uleb128 0xe
 3907 08d0 2B1D0000 		.4byte	.LASF283
 3908 08d4 8302     		.sleb128 259
 3909 08d6 0E       		.uleb128 0xe
 3910 08d7 6F120000 		.4byte	.LASF284
 3911 08db 8402     		.sleb128 260
 3912 08dd 0E       		.uleb128 0xe
 3913 08de 503D0000 		.4byte	.LASF285
 3914 08e2 8502     		.sleb128 261
 3915 08e4 0E       		.uleb128 0xe
 3916 08e5 0E0E0000 		.4byte	.LASF286
 3917 08e9 8602     		.sleb128 262
 3918 08eb 0E       		.uleb128 0xe
 3919 08ec 01270000 		.4byte	.LASF287
 3920 08f0 8702     		.sleb128 263
 3921 08f2 0E       		.uleb128 0xe
 3922 08f3 0B1B0000 		.4byte	.LASF288
 3923 08f7 8802     		.sleb128 264
 3924 08f9 0E       		.uleb128 0xe
 3925 08fa 97140000 		.4byte	.LASF289
 3926 08fe 8902     		.sleb128 265
 3927 0900 0E       		.uleb128 0xe
 3928 0901 2A420000 		.4byte	.LASF290
 3929 0905 8A02     		.sleb128 266
 3930 0907 0E       		.uleb128 0xe
 3931 0908 85360000 		.4byte	.LASF291
 3932 090c 8B02     		.sleb128 267
 3933 090e 0E       		.uleb128 0xe
 3934 090f E1140000 		.4byte	.LASF292
 3935 0913 8C02     		.sleb128 268
 3936 0915 0E       		.uleb128 0xe
 3937 0916 0D100000 		.4byte	.LASF293
 3938 091a 8D02     		.sleb128 269
 3939 091c 0E       		.uleb128 0xe
 3940 091d 19090000 		.4byte	.LASF294
 3941 0921 8E02     		.sleb128 270
 3942 0923 0E       		.uleb128 0xe
 3943 0924 E31F0000 		.4byte	.LASF295
 3944 0928 8F02     		.sleb128 271
 3945 092a 0E       		.uleb128 0xe
 3946 092b 342C0000 		.4byte	.LASF296
 3947 092f 9002     		.sleb128 272
 3948 0931 0E       		.uleb128 0xe
 3949 0932 76410000 		.4byte	.LASF297
 3950 0936 9102     		.sleb128 273
 3951 0938 0E       		.uleb128 0xe
 3952 0939 E6180000 		.4byte	.LASF298
 3953 093d 9202     		.sleb128 274
 3954 093f 0E       		.uleb128 0xe
 3955 0940 D10B0000 		.4byte	.LASF299
ARM GAS  C:\Users\AHMED~1.ELE\AppData\Local\Temp\cc0wYKcg.s 			page 97


 3956 0944 9302     		.sleb128 275
 3957 0946 0E       		.uleb128 0xe
 3958 0947 12010000 		.4byte	.LASF300
 3959 094b 9402     		.sleb128 276
 3960 094d 0E       		.uleb128 0xe
 3961 094e 13250000 		.4byte	.LASF301
 3962 0952 9502     		.sleb128 277
 3963 0954 0E       		.uleb128 0xe
 3964 0955 5F2A0000 		.4byte	.LASF302
 3965 0959 9602     		.sleb128 278
 3966 095b 0E       		.uleb128 0xe
 3967 095c 73240000 		.4byte	.LASF303
 3968 0960 9702     		.sleb128 279
 3969 0962 0E       		.uleb128 0xe
 3970 0963 6B300000 		.4byte	.LASF304
 3971 0967 9802     		.sleb128 280
 3972 0969 0E       		.uleb128 0xe
 3973 096a 652D0000 		.4byte	.LASF305
 3974 096e 9902     		.sleb128 281
 3975 0970 0E       		.uleb128 0xe
 3976 0971 CE370000 		.4byte	.LASF306
 3977 0975 9A02     		.sleb128 282
 3978 0977 0E       		.uleb128 0xe
 3979 0978 2A3E0000 		.4byte	.LASF307
 3980 097c 9B02     		.sleb128 283
 3981 097e 0E       		.uleb128 0xe
 3982 097f DE060000 		.4byte	.LASF308
 3983 0983 9C02     		.sleb128 284
 3984 0985 0E       		.uleb128 0xe
 3985 0986 EC220000 		.4byte	.LASF309
 3986 098a 9D02     		.sleb128 285
 3987 098c 0E       		.uleb128 0xe
 3988 098d 46060000 		.4byte	.LASF310
 3989 0991 9E02     		.sleb128 286
 3990 0993 0E       		.uleb128 0xe
 3991 0994 97240000 		.4byte	.LASF311
 3992 0998 9F02     		.sleb128 287
 3993 099a 0E       		.uleb128 0xe
 3994 099b FA1F0000 		.4byte	.LASF312
 3995 099f A002     		.sleb128 288
 3996 09a1 0E       		.uleb128 0xe
 3997 09a2 AA300000 		.4byte	.LASF313
 3998 09a6 A102     		.sleb128 289
 3999 09a8 0E       		.uleb128 0xe
 4000 09a9 452E0000 		.4byte	.LASF314
 4001 09ad A202     		.sleb128 290
 4002 09af 0E       		.uleb128 0xe
 4003 09b0 542D0000 		.4byte	.LASF315
 4004 09b4 A302     		.sleb128 291
 4005 09b6 0E       		.uleb128 0xe
 4006 09b7 A00A0000 		.4byte	.LASF316
 4007 09bb A402     		.sleb128 292
 4008 09bd 0E       		.uleb128 0xe
 4009 09be 7D1C0000 		.4byte	.LASF317
 4010 09c2 A502     		.sleb128 293
 4011 09c4 0E       		.uleb128 0xe
 4012 09c5 650A0000 		.4byte	.LASF318
ARM GAS  C:\Users\AHMED~1.ELE\AppData\Local\Temp\cc0wYKcg.s 			page 98


 4013 09c9 A602     		.sleb128 294
 4014 09cb 0E       		.uleb128 0xe
 4015 09cc 3F260000 		.4byte	.LASF319
 4016 09d0 A702     		.sleb128 295
 4017 09d2 0E       		.uleb128 0xe
 4018 09d3 051F0000 		.4byte	.LASF320
 4019 09d7 A802     		.sleb128 296
 4020 09d9 0E       		.uleb128 0xe
 4021 09da 89160000 		.4byte	.LASF321
 4022 09de A902     		.sleb128 297
 4023 09e0 0E       		.uleb128 0xe
 4024 09e1 90120000 		.4byte	.LASF322
 4025 09e5 AA02     		.sleb128 298
 4026 09e7 0E       		.uleb128 0xe
 4027 09e8 33280000 		.4byte	.LASF323
 4028 09ec AB02     		.sleb128 299
 4029 09ee 0E       		.uleb128 0xe
 4030 09ef BB340000 		.4byte	.LASF324
 4031 09f3 AC02     		.sleb128 300
 4032 09f5 0E       		.uleb128 0xe
 4033 09f6 E0230000 		.4byte	.LASF325
 4034 09fa AD02     		.sleb128 301
 4035 09fc 0E       		.uleb128 0xe
 4036 09fd 8E1B0000 		.4byte	.LASF326
 4037 0a01 AE02     		.sleb128 302
 4038 0a03 0E       		.uleb128 0xe
 4039 0a04 F33C0000 		.4byte	.LASF327
 4040 0a08 AF02     		.sleb128 303
 4041 0a0a 0E       		.uleb128 0xe
 4042 0a0b DF270000 		.4byte	.LASF328
 4043 0a0f B002     		.sleb128 304
 4044 0a11 0E       		.uleb128 0xe
 4045 0a12 56380000 		.4byte	.LASF329
 4046 0a16 B102     		.sleb128 305
 4047 0a18 0E       		.uleb128 0xe
 4048 0a19 673B0000 		.4byte	.LASF330
 4049 0a1d B202     		.sleb128 306
 4050 0a1f 0E       		.uleb128 0xe
 4051 0a20 240F0000 		.4byte	.LASF331
 4052 0a24 B302     		.sleb128 307
 4053 0a26 0E       		.uleb128 0xe
 4054 0a27 5D0C0000 		.4byte	.LASF332
 4055 0a2b B402     		.sleb128 308
 4056 0a2d 0E       		.uleb128 0xe
 4057 0a2e A1120000 		.4byte	.LASF333
 4058 0a32 B502     		.sleb128 309
 4059 0a34 0E       		.uleb128 0xe
 4060 0a35 AE010000 		.4byte	.LASF334
 4061 0a39 B602     		.sleb128 310
 4062 0a3b 0E       		.uleb128 0xe
 4063 0a3c AB190000 		.4byte	.LASF335
 4064 0a40 B702     		.sleb128 311
 4065 0a42 0E       		.uleb128 0xe
 4066 0a43 27410000 		.4byte	.LASF336
 4067 0a47 B802     		.sleb128 312
 4068 0a49 0E       		.uleb128 0xe
 4069 0a4a EB400000 		.4byte	.LASF337
ARM GAS  C:\Users\AHMED~1.ELE\AppData\Local\Temp\cc0wYKcg.s 			page 99


 4070 0a4e B902     		.sleb128 313
 4071 0a50 0E       		.uleb128 0xe
 4072 0a51 633A0000 		.4byte	.LASF338
 4073 0a55 BA02     		.sleb128 314
 4074 0a57 0E       		.uleb128 0xe
 4075 0a58 F3160000 		.4byte	.LASF339
 4076 0a5c BB02     		.sleb128 315
 4077 0a5e 0E       		.uleb128 0xe
 4078 0a5f FA0F0000 		.4byte	.LASF340
 4079 0a63 BC02     		.sleb128 316
 4080 0a65 0E       		.uleb128 0xe
 4081 0a66 8B0B0000 		.4byte	.LASF341
 4082 0a6a BD02     		.sleb128 317
 4083 0a6c 0E       		.uleb128 0xe
 4084 0a6d F3290000 		.4byte	.LASF342
 4085 0a71 BE02     		.sleb128 318
 4086 0a73 0E       		.uleb128 0xe
 4087 0a74 7D3F0000 		.4byte	.LASF343
 4088 0a78 BF02     		.sleb128 319
 4089 0a7a 0E       		.uleb128 0xe
 4090 0a7b 1E1C0000 		.4byte	.LASF344
 4091 0a7f C002     		.sleb128 320
 4092 0a81 0E       		.uleb128 0xe
 4093 0a82 3D410000 		.4byte	.LASF345
 4094 0a86 C102     		.sleb128 321
 4095 0a88 0E       		.uleb128 0xe
 4096 0a89 C01F0000 		.4byte	.LASF346
 4097 0a8d C202     		.sleb128 322
 4098 0a8f 0E       		.uleb128 0xe
 4099 0a90 88150000 		.4byte	.LASF347
 4100 0a94 C302     		.sleb128 323
 4101 0a96 0E       		.uleb128 0xe
 4102 0a97 2E370000 		.4byte	.LASF348
 4103 0a9b C402     		.sleb128 324
 4104 0a9d 0E       		.uleb128 0xe
 4105 0a9e 983F0000 		.4byte	.LASF349
 4106 0aa2 C502     		.sleb128 325
 4107 0aa4 0E       		.uleb128 0xe
 4108 0aa5 64340000 		.4byte	.LASF350
 4109 0aa9 C602     		.sleb128 326
 4110 0aab 0E       		.uleb128 0xe
 4111 0aac 75070000 		.4byte	.LASF351
 4112 0ab0 C702     		.sleb128 327
 4113 0ab2 0E       		.uleb128 0xe
 4114 0ab3 E8130000 		.4byte	.LASF352
 4115 0ab7 C802     		.sleb128 328
 4116 0ab9 0E       		.uleb128 0xe
 4117 0aba B7130000 		.4byte	.LASF353
 4118 0abe C902     		.sleb128 329
 4119 0ac0 0E       		.uleb128 0xe
 4120 0ac1 AE110000 		.4byte	.LASF354
 4121 0ac5 CA02     		.sleb128 330
 4122 0ac7 0E       		.uleb128 0xe
 4123 0ac8 48070000 		.4byte	.LASF355
 4124 0acc CB02     		.sleb128 331
 4125 0ace 0E       		.uleb128 0xe
 4126 0acf 2F3C0000 		.4byte	.LASF356
ARM GAS  C:\Users\AHMED~1.ELE\AppData\Local\Temp\cc0wYKcg.s 			page 100


 4127 0ad3 CC02     		.sleb128 332
 4128 0ad5 0E       		.uleb128 0xe
 4129 0ad6 14350000 		.4byte	.LASF357
 4130 0ada CD02     		.sleb128 333
 4131 0adc 0E       		.uleb128 0xe
 4132 0add 792E0000 		.4byte	.LASF358
 4133 0ae1 CE02     		.sleb128 334
 4134 0ae3 0E       		.uleb128 0xe
 4135 0ae4 09370000 		.4byte	.LASF359
 4136 0ae8 CF02     		.sleb128 335
 4137 0aea 0E       		.uleb128 0xe
 4138 0aeb 7B300000 		.4byte	.LASF360
 4139 0aef D002     		.sleb128 336
 4140 0af1 0E       		.uleb128 0xe
 4141 0af2 19190000 		.4byte	.LASF361
 4142 0af6 D102     		.sleb128 337
 4143 0af8 0E       		.uleb128 0xe
 4144 0af9 19110000 		.4byte	.LASF362
 4145 0afd D202     		.sleb128 338
 4146 0aff 0E       		.uleb128 0xe
 4147 0b00 350D0000 		.4byte	.LASF363
 4148 0b04 D302     		.sleb128 339
 4149 0b06 0E       		.uleb128 0xe
 4150 0b07 CE3C0000 		.4byte	.LASF364
 4151 0b0b D402     		.sleb128 340
 4152 0b0d 0E       		.uleb128 0xe
 4153 0b0e 03120000 		.4byte	.LASF365
 4154 0b12 D502     		.sleb128 341
 4155 0b14 0E       		.uleb128 0xe
 4156 0b15 E0420000 		.4byte	.LASF366
 4157 0b19 D602     		.sleb128 342
 4158 0b1b 0E       		.uleb128 0xe
 4159 0b1c D51A0000 		.4byte	.LASF367
 4160 0b20 D702     		.sleb128 343
 4161 0b22 0E       		.uleb128 0xe
 4162 0b23 F8170000 		.4byte	.LASF368
 4163 0b27 D802     		.sleb128 344
 4164 0b29 0E       		.uleb128 0xe
 4165 0b2a A33C0000 		.4byte	.LASF369
 4166 0b2e D902     		.sleb128 345
 4167 0b30 0E       		.uleb128 0xe
 4168 0b31 DB2D0000 		.4byte	.LASF370
 4169 0b35 DA02     		.sleb128 346
 4170 0b37 0E       		.uleb128 0xe
 4171 0b38 2E180000 		.4byte	.LASF371
 4172 0b3c DB02     		.sleb128 347
 4173 0b3e 0E       		.uleb128 0xe
 4174 0b3f 211E0000 		.4byte	.LASF372
 4175 0b43 DC02     		.sleb128 348
 4176 0b45 0E       		.uleb128 0xe
 4177 0b46 BA350000 		.4byte	.LASF373
 4178 0b4a DD02     		.sleb128 349
 4179 0b4c 0E       		.uleb128 0xe
 4180 0b4d 33330000 		.4byte	.LASF374
 4181 0b51 DE02     		.sleb128 350
 4182 0b53 0E       		.uleb128 0xe
 4183 0b54 EB380000 		.4byte	.LASF375
ARM GAS  C:\Users\AHMED~1.ELE\AppData\Local\Temp\cc0wYKcg.s 			page 101


 4184 0b58 DF02     		.sleb128 351
 4185 0b5a 0E       		.uleb128 0xe
 4186 0b5b A6100000 		.4byte	.LASF376
 4187 0b5f E002     		.sleb128 352
 4188 0b61 0E       		.uleb128 0xe
 4189 0b62 D2340000 		.4byte	.LASF377
 4190 0b66 E102     		.sleb128 353
 4191 0b68 0E       		.uleb128 0xe
 4192 0b69 FC010000 		.4byte	.LASF378
 4193 0b6d E202     		.sleb128 354
 4194 0b6f 0E       		.uleb128 0xe
 4195 0b70 E0250000 		.4byte	.LASF379
 4196 0b74 E302     		.sleb128 355
 4197 0b76 0E       		.uleb128 0xe
 4198 0b77 653E0000 		.4byte	.LASF380
 4199 0b7b E402     		.sleb128 356
 4200 0b7d 0E       		.uleb128 0xe
 4201 0b7e 60050000 		.4byte	.LASF381
 4202 0b82 E502     		.sleb128 357
 4203 0b84 0E       		.uleb128 0xe
 4204 0b85 C2240000 		.4byte	.LASF382
 4205 0b89 E602     		.sleb128 358
 4206 0b8b 0E       		.uleb128 0xe
 4207 0b8c 1D280000 		.4byte	.LASF383
 4208 0b90 E702     		.sleb128 359
 4209 0b92 0E       		.uleb128 0xe
 4210 0b93 EE210000 		.4byte	.LASF384
 4211 0b97 E802     		.sleb128 360
 4212 0b99 0E       		.uleb128 0xe
 4213 0b9a 90380000 		.4byte	.LASF385
 4214 0b9e E902     		.sleb128 361
 4215 0ba0 0E       		.uleb128 0xe
 4216 0ba1 FE280000 		.4byte	.LASF386
 4217 0ba5 EA02     		.sleb128 362
 4218 0ba7 0E       		.uleb128 0xe
 4219 0ba8 A1380000 		.4byte	.LASF387
 4220 0bac EB02     		.sleb128 363
 4221 0bae 0E       		.uleb128 0xe
 4222 0baf 812C0000 		.4byte	.LASF388
 4223 0bb3 EC02     		.sleb128 364
 4224 0bb5 0E       		.uleb128 0xe
 4225 0bb6 053B0000 		.4byte	.LASF389
 4226 0bba ED02     		.sleb128 365
 4227 0bbc 0E       		.uleb128 0xe
 4228 0bbd 2C090000 		.4byte	.LASF390
 4229 0bc1 EE02     		.sleb128 366
 4230 0bc3 0E       		.uleb128 0xe
 4231 0bc4 342A0000 		.4byte	.LASF391
 4232 0bc8 EF02     		.sleb128 367
 4233 0bca 0E       		.uleb128 0xe
 4234 0bcb C0370000 		.4byte	.LASF392
 4235 0bcf F002     		.sleb128 368
 4236 0bd1 0E       		.uleb128 0xe
 4237 0bd2 A52F0000 		.4byte	.LASF393
 4238 0bd6 F102     		.sleb128 369
 4239 0bd8 0E       		.uleb128 0xe
 4240 0bd9 08340000 		.4byte	.LASF394
ARM GAS  C:\Users\AHMED~1.ELE\AppData\Local\Temp\cc0wYKcg.s 			page 102


 4241 0bdd F202     		.sleb128 370
 4242 0bdf 0E       		.uleb128 0xe
 4243 0be0 31430000 		.4byte	.LASF395
 4244 0be4 F302     		.sleb128 371
 4245 0be6 0E       		.uleb128 0xe
 4246 0be7 D2080000 		.4byte	.LASF396
 4247 0beb F402     		.sleb128 372
 4248 0bed 0E       		.uleb128 0xe
 4249 0bee 7D320000 		.4byte	.LASF397
 4250 0bf2 F502     		.sleb128 373
 4251 0bf4 0E       		.uleb128 0xe
 4252 0bf5 681F0000 		.4byte	.LASF398
 4253 0bf9 F602     		.sleb128 374
 4254 0bfb 0E       		.uleb128 0xe
 4255 0bfc 63220000 		.4byte	.LASF399
 4256 0c00 F702     		.sleb128 375
 4257 0c02 0E       		.uleb128 0xe
 4258 0c03 293F0000 		.4byte	.LASF400
 4259 0c07 F802     		.sleb128 376
 4260 0c09 0E       		.uleb128 0xe
 4261 0c0a C23A0000 		.4byte	.LASF401
 4262 0c0e F902     		.sleb128 377
 4263 0c10 0E       		.uleb128 0xe
 4264 0c11 0C020000 		.4byte	.LASF402
 4265 0c15 FA02     		.sleb128 378
 4266 0c17 0E       		.uleb128 0xe
 4267 0c18 57140000 		.4byte	.LASF403
 4268 0c1c FB02     		.sleb128 379
 4269 0c1e 0E       		.uleb128 0xe
 4270 0c1f F1250000 		.4byte	.LASF404
 4271 0c23 FC02     		.sleb128 380
 4272 0c25 0E       		.uleb128 0xe
 4273 0c26 4B400000 		.4byte	.LASF405
 4274 0c2a FD02     		.sleb128 381
 4275 0c2c 0E       		.uleb128 0xe
 4276 0c2d 7A200000 		.4byte	.LASF406
 4277 0c31 FE02     		.sleb128 382
 4278 0c33 0E       		.uleb128 0xe
 4279 0c34 403B0000 		.4byte	.LASF407
 4280 0c38 FF02     		.sleb128 383
 4281 0c3a 0E       		.uleb128 0xe
 4282 0c3b FD370000 		.4byte	.LASF408
 4283 0c3f 8003     		.sleb128 384
 4284 0c41 0E       		.uleb128 0xe
 4285 0c42 C3400000 		.4byte	.LASF409
 4286 0c46 8103     		.sleb128 385
 4287 0c48 0E       		.uleb128 0xe
 4288 0c49 422F0000 		.4byte	.LASF410
 4289 0c4d 8203     		.sleb128 386
 4290 0c4f 0E       		.uleb128 0xe
 4291 0c50 750A0000 		.4byte	.LASF411
 4292 0c54 8303     		.sleb128 387
 4293 0c56 0E       		.uleb128 0xe
 4294 0c57 DF120000 		.4byte	.LASF412
 4295 0c5b 8403     		.sleb128 388
 4296 0c5d 0E       		.uleb128 0xe
 4297 0c5e 98230000 		.4byte	.LASF413
ARM GAS  C:\Users\AHMED~1.ELE\AppData\Local\Temp\cc0wYKcg.s 			page 103


 4298 0c62 8503     		.sleb128 389
 4299 0c64 0E       		.uleb128 0xe
 4300 0c65 85400000 		.4byte	.LASF414
 4301 0c69 8603     		.sleb128 390
 4302 0c6b 0E       		.uleb128 0xe
 4303 0c6c 94300000 		.4byte	.LASF415
 4304 0c70 8703     		.sleb128 391
 4305 0c72 0E       		.uleb128 0xe
 4306 0c73 F3040000 		.4byte	.LASF416
 4307 0c77 8803     		.sleb128 392
 4308 0c79 0E       		.uleb128 0xe
 4309 0c7a E1370000 		.4byte	.LASF417
 4310 0c7e 8903     		.sleb128 393
 4311 0c80 0E       		.uleb128 0xe
 4312 0c81 B23A0000 		.4byte	.LASF418
 4313 0c85 8A03     		.sleb128 394
 4314 0c87 0E       		.uleb128 0xe
 4315 0c88 E40A0000 		.4byte	.LASF419
 4316 0c8c 8B03     		.sleb128 395
 4317 0c8e 0E       		.uleb128 0xe
 4318 0c8f 8C340000 		.4byte	.LASF420
 4319 0c93 8C03     		.sleb128 396
 4320 0c95 0E       		.uleb128 0xe
 4321 0c96 21170000 		.4byte	.LASF421
 4322 0c9a 8D03     		.sleb128 397
 4323 0c9c 0E       		.uleb128 0xe
 4324 0c9d E9150000 		.4byte	.LASF422
 4325 0ca1 8E03     		.sleb128 398
 4326 0ca3 0E       		.uleb128 0xe
 4327 0ca4 65170000 		.4byte	.LASF423
 4328 0ca8 8F03     		.sleb128 399
 4329 0caa 0E       		.uleb128 0xe
 4330 0cab 1F0E0000 		.4byte	.LASF424
 4331 0caf 9003     		.sleb128 400
 4332 0cb1 0E       		.uleb128 0xe
 4333 0cb2 6F370000 		.4byte	.LASF425
 4334 0cb6 9103     		.sleb128 401
 4335 0cb8 0E       		.uleb128 0xe
 4336 0cb9 F72A0000 		.4byte	.LASF426
 4337 0cbd 9203     		.sleb128 402
 4338 0cbf 0E       		.uleb128 0xe
 4339 0cc0 14000000 		.4byte	.LASF427
 4340 0cc4 9303     		.sleb128 403
 4341 0cc6 0E       		.uleb128 0xe
 4342 0cc7 91030000 		.4byte	.LASF428
 4343 0ccb 9403     		.sleb128 404
 4344 0ccd 0E       		.uleb128 0xe
 4345 0cce 81380000 		.4byte	.LASF429
 4346 0cd2 9503     		.sleb128 405
 4347 0cd4 0E       		.uleb128 0xe
 4348 0cd5 CD320000 		.4byte	.LASF430
 4349 0cd9 9603     		.sleb128 406
 4350 0cdb 0E       		.uleb128 0xe
 4351 0cdc D22A0000 		.4byte	.LASF431
 4352 0ce0 9703     		.sleb128 407
 4353 0ce2 0E       		.uleb128 0xe
 4354 0ce3 FF270000 		.4byte	.LASF432
ARM GAS  C:\Users\AHMED~1.ELE\AppData\Local\Temp\cc0wYKcg.s 			page 104


 4355 0ce7 9803     		.sleb128 408
 4356 0ce9 0E       		.uleb128 0xe
 4357 0cea C1110000 		.4byte	.LASF433
 4358 0cee 9903     		.sleb128 409
 4359 0cf0 0E       		.uleb128 0xe
 4360 0cf1 733C0000 		.4byte	.LASF434
 4361 0cf5 9A03     		.sleb128 410
 4362 0cf7 0E       		.uleb128 0xe
 4363 0cf8 42270000 		.4byte	.LASF435
 4364 0cfc 9B03     		.sleb128 411
 4365 0cfe 0E       		.uleb128 0xe
 4366 0cff 331C0000 		.4byte	.LASF436
 4367 0d03 9C03     		.sleb128 412
 4368 0d05 0E       		.uleb128 0xe
 4369 0d06 D43E0000 		.4byte	.LASF437
 4370 0d0a 9D03     		.sleb128 413
 4371 0d0c 0E       		.uleb128 0xe
 4372 0d0d 1E3E0000 		.4byte	.LASF438
 4373 0d11 9E03     		.sleb128 414
 4374 0d13 0E       		.uleb128 0xe
 4375 0d14 FC200000 		.4byte	.LASF439
 4376 0d18 9F03     		.sleb128 415
 4377 0d1a 0E       		.uleb128 0xe
 4378 0d1b DD000000 		.4byte	.LASF440
 4379 0d1f A003     		.sleb128 416
 4380 0d21 0E       		.uleb128 0xe
 4381 0d22 B63C0000 		.4byte	.LASF441
 4382 0d26 A103     		.sleb128 417
 4383 0d28 0E       		.uleb128 0xe
 4384 0d29 0C030000 		.4byte	.LASF442
 4385 0d2d A203     		.sleb128 418
 4386 0d2f 0E       		.uleb128 0xe
 4387 0d30 212F0000 		.4byte	.LASF443
 4388 0d34 A303     		.sleb128 419
 4389 0d36 0E       		.uleb128 0xe
 4390 0d37 83000000 		.4byte	.LASF444
 4391 0d3b A403     		.sleb128 420
 4392 0d3d 0E       		.uleb128 0xe
 4393 0d3e 93090000 		.4byte	.LASF445
 4394 0d42 A503     		.sleb128 421
 4395 0d44 0E       		.uleb128 0xe
 4396 0d45 5B160000 		.4byte	.LASF446
 4397 0d49 A603     		.sleb128 422
 4398 0d4b 0E       		.uleb128 0xe
 4399 0d4c 89020000 		.4byte	.LASF447
 4400 0d50 A703     		.sleb128 423
 4401 0d52 0E       		.uleb128 0xe
 4402 0d53 25120000 		.4byte	.LASF448
 4403 0d57 A803     		.sleb128 424
 4404 0d59 0E       		.uleb128 0xe
 4405 0d5a 00000000 		.4byte	.LASF449
 4406 0d5e A903     		.sleb128 425
 4407 0d60 0E       		.uleb128 0xe
 4408 0d61 49110000 		.4byte	.LASF450
 4409 0d65 AA03     		.sleb128 426
 4410 0d67 0E       		.uleb128 0xe
 4411 0d68 41050000 		.4byte	.LASF451
ARM GAS  C:\Users\AHMED~1.ELE\AppData\Local\Temp\cc0wYKcg.s 			page 105


 4412 0d6c AB03     		.sleb128 427
 4413 0d6e 0E       		.uleb128 0xe
 4414 0d6f E0300000 		.4byte	.LASF452
 4415 0d73 AC03     		.sleb128 428
 4416 0d75 0E       		.uleb128 0xe
 4417 0d76 67230000 		.4byte	.LASF453
 4418 0d7a AD03     		.sleb128 429
 4419 0d7c 0E       		.uleb128 0xe
 4420 0d7d E30D0000 		.4byte	.LASF454
 4421 0d81 AE03     		.sleb128 430
 4422 0d83 0E       		.uleb128 0xe
 4423 0d84 A3070000 		.4byte	.LASF455
 4424 0d88 AF03     		.sleb128 431
 4425 0d8a 0E       		.uleb128 0xe
 4426 0d8b 531B0000 		.4byte	.LASF456
 4427 0d8f B003     		.sleb128 432
 4428 0d91 0E       		.uleb128 0xe
 4429 0d92 47230000 		.4byte	.LASF457
 4430 0d96 B103     		.sleb128 433
 4431 0d98 0E       		.uleb128 0xe
 4432 0d99 FF3F0000 		.4byte	.LASF458
 4433 0d9d B203     		.sleb128 434
 4434 0d9f 0E       		.uleb128 0xe
 4435 0da0 42090000 		.4byte	.LASF459
 4436 0da4 B303     		.sleb128 435
 4437 0da6 0E       		.uleb128 0xe
 4438 0da7 8B250000 		.4byte	.LASF460
 4439 0dab B403     		.sleb128 436
 4440 0dad 0E       		.uleb128 0xe
 4441 0dae 6F000000 		.4byte	.LASF461
 4442 0db2 B503     		.sleb128 437
 4443 0db4 0E       		.uleb128 0xe
 4444 0db5 6A400000 		.4byte	.LASF462
 4445 0db9 B603     		.sleb128 438
 4446 0dbb 0E       		.uleb128 0xe
 4447 0dbc 04070000 		.4byte	.LASF463
 4448 0dc0 B703     		.sleb128 439
 4449 0dc2 0E       		.uleb128 0xe
 4450 0dc3 63320000 		.4byte	.LASF464
 4451 0dc7 B803     		.sleb128 440
 4452 0dc9 0E       		.uleb128 0xe
 4453 0dca 2E400000 		.4byte	.LASF465
 4454 0dce B903     		.sleb128 441
 4455 0dd0 0E       		.uleb128 0xe
 4456 0dd1 04260000 		.4byte	.LASF466
 4457 0dd5 BA03     		.sleb128 442
 4458 0dd7 0E       		.uleb128 0xe
 4459 0dd8 EB1E0000 		.4byte	.LASF467
 4460 0ddc BB03     		.sleb128 443
 4461 0dde 0E       		.uleb128 0xe
 4462 0ddf 20020000 		.4byte	.LASF468
 4463 0de3 BC03     		.sleb128 444
 4464 0de5 0E       		.uleb128 0xe
 4465 0de6 C2010000 		.4byte	.LASF469
 4466 0dea BD03     		.sleb128 445
 4467 0dec 0E       		.uleb128 0xe
 4468 0ded B2120000 		.4byte	.LASF470
ARM GAS  C:\Users\AHMED~1.ELE\AppData\Local\Temp\cc0wYKcg.s 			page 106


 4469 0df1 BE03     		.sleb128 446
 4470 0df3 0E       		.uleb128 0xe
 4471 0df4 C9140000 		.4byte	.LASF471
 4472 0df8 BF03     		.sleb128 447
 4473 0dfa 0E       		.uleb128 0xe
 4474 0dfb 7C060000 		.4byte	.LASF472
 4475 0dff C003     		.sleb128 448
 4476 0e01 0E       		.uleb128 0xe
 4477 0e02 A0150000 		.4byte	.LASF473
 4478 0e06 C103     		.sleb128 449
 4479 0e08 0E       		.uleb128 0xe
 4480 0e09 DE2F0000 		.4byte	.LASF474
 4481 0e0d C203     		.sleb128 450
 4482 0e0f 0E       		.uleb128 0xe
 4483 0e10 1A0D0000 		.4byte	.LASF475
 4484 0e14 C303     		.sleb128 451
 4485 0e16 0E       		.uleb128 0xe
 4486 0e17 18330000 		.4byte	.LASF476
 4487 0e1b C403     		.sleb128 452
 4488 0e1d 0E       		.uleb128 0xe
 4489 0e1e 321B0000 		.4byte	.LASF477
 4490 0e22 C503     		.sleb128 453
 4491 0e24 0E       		.uleb128 0xe
 4492 0e25 422A0000 		.4byte	.LASF478
 4493 0e29 C603     		.sleb128 454
 4494 0e2b 0E       		.uleb128 0xe
 4495 0e2c C6270000 		.4byte	.LASF479
 4496 0e30 C703     		.sleb128 455
 4497 0e32 0E       		.uleb128 0xe
 4498 0e33 97420000 		.4byte	.LASF480
 4499 0e37 C803     		.sleb128 456
 4500 0e39 0E       		.uleb128 0xe
 4501 0e3a F3340000 		.4byte	.LASF481
 4502 0e3e C903     		.sleb128 457
 4503 0e40 0E       		.uleb128 0xe
 4504 0e41 87190000 		.4byte	.LASF482
 4505 0e45 CA03     		.sleb128 458
 4506 0e47 0E       		.uleb128 0xe
 4507 0e48 9A320000 		.4byte	.LASF483
 4508 0e4c CB03     		.sleb128 459
 4509 0e4e 0E       		.uleb128 0xe
 4510 0e4f 23130000 		.4byte	.LASF484
 4511 0e53 CC03     		.sleb128 460
 4512 0e55 0E       		.uleb128 0xe
 4513 0e56 AF040000 		.4byte	.LASF485
 4514 0e5a CD03     		.sleb128 461
 4515 0e5c 0E       		.uleb128 0xe
 4516 0e5d D53F0000 		.4byte	.LASF486
 4517 0e61 CE03     		.sleb128 462
 4518 0e63 0E       		.uleb128 0xe
 4519 0e64 7D370000 		.4byte	.LASF487
 4520 0e68 CF03     		.sleb128 463
 4521 0e6a 0E       		.uleb128 0xe
 4522 0e6b 69140000 		.4byte	.LASF488
 4523 0e6f D003     		.sleb128 464
 4524 0e71 0E       		.uleb128 0xe
 4525 0e72 1C210000 		.4byte	.LASF489
ARM GAS  C:\Users\AHMED~1.ELE\AppData\Local\Temp\cc0wYKcg.s 			page 107


 4526 0e76 D103     		.sleb128 465
 4527 0e78 0E       		.uleb128 0xe
 4528 0e79 9F1B0000 		.4byte	.LASF490
 4529 0e7d D203     		.sleb128 466
 4530 0e7f 0E       		.uleb128 0xe
 4531 0e80 0D220000 		.4byte	.LASF491
 4532 0e84 D303     		.sleb128 467
 4533 0e86 0E       		.uleb128 0xe
 4534 0e87 D02C0000 		.4byte	.LASF492
 4535 0e8b D403     		.sleb128 468
 4536 0e8d 0E       		.uleb128 0xe
 4537 0e8e 7F230000 		.4byte	.LASF493
 4538 0e92 D503     		.sleb128 469
 4539 0e94 0E       		.uleb128 0xe
 4540 0e95 B4220000 		.4byte	.LASF494
 4541 0e99 D603     		.sleb128 470
 4542 0e9b 0E       		.uleb128 0xe
 4543 0e9c 7B2D0000 		.4byte	.LASF495
 4544 0ea0 D703     		.sleb128 471
 4545 0ea2 0E       		.uleb128 0xe
 4546 0ea3 68200000 		.4byte	.LASF496
 4547 0ea7 D803     		.sleb128 472
 4548 0ea9 00       		.byte	0
 4549 0eaa 08       		.uleb128 0x8
 4550 0eab A2000000 		.4byte	0xa2
 4551 0eaf BA0E0000 		.4byte	0xeba
 4552 0eb3 09       		.uleb128 0x9
 4553 0eb4 78000000 		.4byte	0x78
 4554 0eb8 06       		.byte	0x6
 4555 0eb9 00       		.byte	0
 4556 0eba 06       		.uleb128 0x6
 4557 0ebb 04       		.byte	0x4
 4558 0ebc C00E0000 		.4byte	0xec0
 4559 0ec0 0F       		.uleb128 0xf
 4560 0ec1 08       		.uleb128 0x8
 4561 0ec2 A2000000 		.4byte	0xa2
 4562 0ec6 D10E0000 		.4byte	0xed1
 4563 0eca 09       		.uleb128 0x9
 4564 0ecb 78000000 		.4byte	0x78
 4565 0ecf 05       		.byte	0x5
 4566 0ed0 00       		.byte	0
 4567 0ed1 10       		.uleb128 0x10
 4568 0ed2 02       		.byte	0x2
 4569 0ed3 08       		.byte	0x8
 4570 0ed4 DD18     		.2byte	0x18dd
 4571 0ed6 FA0E0000 		.4byte	0xefa
 4572 0eda 0E       		.uleb128 0xe
 4573 0edb AB270000 		.4byte	.LASF497
 4574 0edf 00       		.sleb128 0
 4575 0ee0 0E       		.uleb128 0xe
 4576 0ee1 1C1A0000 		.4byte	.LASF498
 4577 0ee5 01       		.sleb128 1
 4578 0ee6 0E       		.uleb128 0xe
 4579 0ee7 2B0C0000 		.4byte	.LASF499
 4580 0eeb 02       		.sleb128 2
 4581 0eec 0E       		.uleb128 0xe
 4582 0eed F5230000 		.4byte	.LASF500
ARM GAS  C:\Users\AHMED~1.ELE\AppData\Local\Temp\cc0wYKcg.s 			page 108


 4583 0ef1 03       		.sleb128 3
 4584 0ef2 0E       		.uleb128 0xe
 4585 0ef3 943D0000 		.4byte	.LASF501
 4586 0ef7 8002     		.sleb128 256
 4587 0ef9 00       		.byte	0
 4588 0efa 11       		.uleb128 0x11
 4589 0efb 08       		.byte	0x8
 4590 0efc 05       		.byte	0x5
 4591 0efd 2B01     		.2byte	0x12b
 4592 0eff 1E0F0000 		.4byte	0xf1e
 4593 0f03 12       		.uleb128 0x12
 4594 0f04 993E0000 		.4byte	.LASF17
 4595 0f08 05       		.byte	0x5
 4596 0f09 2C01     		.2byte	0x12c
 4597 0f0b AD000000 		.4byte	0xad
 4598 0f0f 00       		.byte	0
 4599 0f10 12       		.uleb128 0x12
 4600 0f11 AE170000 		.4byte	.LASF502
 4601 0f15 05       		.byte	0x5
 4602 0f16 2D01     		.2byte	0x12d
 4603 0f18 E9000000 		.4byte	0xe9
 4604 0f1c 04       		.byte	0x4
 4605 0f1d 00       		.byte	0
 4606 0f1e 13       		.uleb128 0x13
 4607 0f1f 3C090000 		.4byte	.LASF503
 4608 0f23 05       		.byte	0x5
 4609 0f24 2E01     		.2byte	0x12e
 4610 0f26 FA0E0000 		.4byte	0xefa
 4611 0f2a 14       		.uleb128 0x14
 4612 0f2b 1D310000 		.4byte	.LASF507
 4613 0f2f 0406     		.2byte	0x604
 4614 0f31 06       		.byte	0x6
 4615 0f32 22       		.byte	0x22
 4616 0f33 5C0F0000 		.4byte	0xf5c
 4617 0f37 0B       		.uleb128 0xb
 4618 0f38 C0020000 		.4byte	.LASF504
 4619 0f3c 06       		.byte	0x6
 4620 0f3d 23       		.byte	0x23
 4621 0f3e A2000000 		.4byte	0xa2
 4622 0f42 00       		.byte	0
 4623 0f43 0B       		.uleb128 0xb
 4624 0f44 80030000 		.4byte	.LASF505
 4625 0f48 06       		.byte	0x6
 4626 0f49 24       		.byte	0x24
 4627 0f4a A2000000 		.4byte	0xa2
 4628 0f4e 01       		.byte	0x1
 4629 0f4f 0B       		.uleb128 0xb
 4630 0f50 8B0C0000 		.4byte	.LASF506
 4631 0f54 06       		.byte	0x6
 4632 0f55 25       		.byte	0x25
 4633 0f56 5C0F0000 		.4byte	0xf5c
 4634 0f5a 02       		.byte	0x2
 4635 0f5b 00       		.byte	0
 4636 0f5c 08       		.uleb128 0x8
 4637 0f5d A2000000 		.4byte	0xa2
 4638 0f61 6D0F0000 		.4byte	0xf6d
 4639 0f65 15       		.uleb128 0x15
ARM GAS  C:\Users\AHMED~1.ELE\AppData\Local\Temp\cc0wYKcg.s 			page 109


 4640 0f66 78000000 		.4byte	0x78
 4641 0f6a FF05     		.2byte	0x5ff
 4642 0f6c 00       		.byte	0
 4643 0f6d 08       		.uleb128 0x8
 4644 0f6e A2000000 		.4byte	0xa2
 4645 0f72 7E0F0000 		.4byte	0xf7e
 4646 0f76 15       		.uleb128 0x15
 4647 0f77 78000000 		.4byte	0x78
 4648 0f7b 2B01     		.2byte	0x12b
 4649 0f7d 00       		.byte	0
 4650 0f7e 16       		.uleb128 0x16
 4651 0f7f 86030000 		.4byte	.LASF508
 4652 0f83 A0       		.byte	0xa0
 4653 0f84 07       		.byte	0x7
 4654 0f85 3002     		.2byte	0x230
 4655 0f87 A60F0000 		.4byte	0xfa6
 4656 0f8b 12       		.uleb128 0x12
 4657 0f8c E83D0000 		.4byte	.LASF509
 4658 0f90 07       		.byte	0x7
 4659 0f91 3102     		.2byte	0x231
 4660 0f93 A2000000 		.4byte	0xa2
 4661 0f97 00       		.byte	0
 4662 0f98 12       		.uleb128 0x12
 4663 0f99 8B0C0000 		.4byte	.LASF506
 4664 0f9d 07       		.byte	0x7
 4665 0f9e 3202     		.2byte	0x232
 4666 0fa0 A60F0000 		.4byte	0xfa6
 4667 0fa4 01       		.byte	0x1
 4668 0fa5 00       		.byte	0
 4669 0fa6 08       		.uleb128 0x8
 4670 0fa7 A2000000 		.4byte	0xa2
 4671 0fab B60F0000 		.4byte	0xfb6
 4672 0faf 09       		.uleb128 0x9
 4673 0fb0 78000000 		.4byte	0x78
 4674 0fb4 9D       		.byte	0x9d
 4675 0fb5 00       		.byte	0
 4676 0fb6 16       		.uleb128 0x16
 4677 0fb7 59340000 		.4byte	.LASF510
 4678 0fbb 54       		.byte	0x54
 4679 0fbc 07       		.byte	0x7
 4680 0fbd 3902     		.2byte	0x239
 4681 0fbf DE0F0000 		.4byte	0xfde
 4682 0fc3 12       		.uleb128 0x12
 4683 0fc4 E83D0000 		.4byte	.LASF509
 4684 0fc8 07       		.byte	0x7
 4685 0fc9 3A02     		.2byte	0x23a
 4686 0fcb A2000000 		.4byte	0xa2
 4687 0fcf 00       		.byte	0
 4688 0fd0 12       		.uleb128 0x12
 4689 0fd1 8B0C0000 		.4byte	.LASF506
 4690 0fd5 07       		.byte	0x7
 4691 0fd6 3B02     		.2byte	0x23b
 4692 0fd8 DE0F0000 		.4byte	0xfde
 4693 0fdc 01       		.byte	0x1
 4694 0fdd 00       		.byte	0
 4695 0fde 08       		.uleb128 0x8
 4696 0fdf A2000000 		.4byte	0xa2
ARM GAS  C:\Users\AHMED~1.ELE\AppData\Local\Temp\cc0wYKcg.s 			page 110


 4697 0fe3 EE0F0000 		.4byte	0xfee
 4698 0fe7 09       		.uleb128 0x9
 4699 0fe8 78000000 		.4byte	0x78
 4700 0fec 4F       		.byte	0x4f
 4701 0fed 00       		.byte	0
 4702 0fee 17       		.uleb128 0x17
 4703 0fef 01       		.byte	0x1
 4704 0ff0 09       		.byte	0x9
 4705 0ff1 40       		.byte	0x40
 4706 0ff2 41110000 		.4byte	0x1141
 4707 0ff6 0E       		.uleb128 0xe
 4708 0ff7 27290000 		.4byte	.LASF511
 4709 0ffb 00       		.sleb128 0
 4710 0ffc 0E       		.uleb128 0xe
 4711 0ffd 90390000 		.4byte	.LASF512
 4712 1001 01       		.sleb128 1
 4713 1002 0E       		.uleb128 0xe
 4714 1003 161E0000 		.4byte	.LASF513
 4715 1007 02       		.sleb128 2
 4716 1008 0E       		.uleb128 0xe
 4717 1009 743E0000 		.4byte	.LASF514
 4718 100d 03       		.sleb128 3
 4719 100e 0E       		.uleb128 0xe
 4720 100f 65350000 		.4byte	.LASF515
 4721 1013 04       		.sleb128 4
 4722 1014 0E       		.uleb128 0xe
 4723 1015 C01B0000 		.4byte	.LASF516
 4724 1019 05       		.sleb128 5
 4725 101a 0E       		.uleb128 0xe
 4726 101b 53270000 		.4byte	.LASF517
 4727 101f 06       		.sleb128 6
 4728 1020 0E       		.uleb128 0xe
 4729 1021 8A140000 		.4byte	.LASF518
 4730 1025 07       		.sleb128 7
 4731 1026 0E       		.uleb128 0xe
 4732 1027 63210000 		.4byte	.LASF519
 4733 102b 08       		.sleb128 8
 4734 102c 0E       		.uleb128 0xe
 4735 102d 471C0000 		.4byte	.LASF520
 4736 1031 09       		.sleb128 9
 4737 1032 0E       		.uleb128 0xe
 4738 1033 3D3E0000 		.4byte	.LASF521
 4739 1037 0A       		.sleb128 10
 4740 1038 0E       		.uleb128 0xe
 4741 1039 A6280000 		.4byte	.LASF522
 4742 103d 0B       		.sleb128 11
 4743 103e 0E       		.uleb128 0xe
 4744 103f D2420000 		.4byte	.LASF523
 4745 1043 0C       		.sleb128 12
 4746 1044 0E       		.uleb128 0xe
 4747 1045 0F280000 		.4byte	.LASF524
 4748 1049 0D       		.sleb128 13
 4749 104a 0E       		.uleb128 0xe
 4750 104b 9D2B0000 		.4byte	.LASF525
 4751 104f 0E       		.sleb128 14
 4752 1050 0E       		.uleb128 0xe
 4753 1051 B73D0000 		.4byte	.LASF526
ARM GAS  C:\Users\AHMED~1.ELE\AppData\Local\Temp\cc0wYKcg.s 			page 111


 4754 1055 0F       		.sleb128 15
 4755 1056 0E       		.uleb128 0xe
 4756 1057 E10C0000 		.4byte	.LASF527
 4757 105b 10       		.sleb128 16
 4758 105c 0E       		.uleb128 0xe
 4759 105d 0C3F0000 		.4byte	.LASF528
 4760 1061 11       		.sleb128 17
 4761 1062 0E       		.uleb128 0xe
 4762 1063 2B340000 		.4byte	.LASF529
 4763 1067 12       		.sleb128 18
 4764 1068 0E       		.uleb128 0xe
 4765 1069 183A0000 		.4byte	.LASF530
 4766 106d 13       		.sleb128 19
 4767 106e 0E       		.uleb128 0xe
 4768 106f 17260000 		.4byte	.LASF531
 4769 1073 14       		.sleb128 20
 4770 1074 0E       		.uleb128 0xe
 4771 1075 EB3B0000 		.4byte	.LASF532
 4772 1079 15       		.sleb128 21
 4773 107a 0E       		.uleb128 0xe
 4774 107b 4B120000 		.4byte	.LASF533
 4775 107f 16       		.sleb128 22
 4776 1080 0E       		.uleb128 0xe
 4777 1081 38230000 		.4byte	.LASF534
 4778 1085 17       		.sleb128 23
 4779 1086 0E       		.uleb128 0xe
 4780 1087 BC030000 		.4byte	.LASF535
 4781 108b 18       		.sleb128 24
 4782 108c 0E       		.uleb128 0xe
 4783 108d 09330000 		.4byte	.LASF536
 4784 1091 19       		.sleb128 25
 4785 1092 0E       		.uleb128 0xe
 4786 1093 FF140000 		.4byte	.LASF537
 4787 1097 1A       		.sleb128 26
 4788 1098 0E       		.uleb128 0xe
 4789 1099 86050000 		.4byte	.LASF538
 4790 109d 1B       		.sleb128 27
 4791 109e 0E       		.uleb128 0xe
 4792 109f 1F230000 		.4byte	.LASF539
 4793 10a3 1C       		.sleb128 28
 4794 10a4 0E       		.uleb128 0xe
 4795 10a5 FB420000 		.4byte	.LASF540
 4796 10a9 1D       		.sleb128 29
 4797 10aa 0E       		.uleb128 0xe
 4798 10ab 3B380000 		.4byte	.LASF541
 4799 10af 1E       		.sleb128 30
 4800 10b0 0E       		.uleb128 0xe
 4801 10b1 2E1F0000 		.4byte	.LASF542
 4802 10b5 1F       		.sleb128 31
 4803 10b6 0E       		.uleb128 0xe
 4804 10b7 43330000 		.4byte	.LASF543
 4805 10bb 20       		.sleb128 32
 4806 10bc 0E       		.uleb128 0xe
 4807 10bd 9B080000 		.4byte	.LASF544
 4808 10c1 21       		.sleb128 33
 4809 10c2 0E       		.uleb128 0xe
 4810 10c3 8C2E0000 		.4byte	.LASF545
ARM GAS  C:\Users\AHMED~1.ELE\AppData\Local\Temp\cc0wYKcg.s 			page 112


 4811 10c7 22       		.sleb128 34
 4812 10c8 0E       		.uleb128 0xe
 4813 10c9 3F170000 		.4byte	.LASF546
 4814 10cd 23       		.sleb128 35
 4815 10ce 0E       		.uleb128 0xe
 4816 10cf F3110000 		.4byte	.LASF547
 4817 10d3 24       		.sleb128 36
 4818 10d4 0E       		.uleb128 0xe
 4819 10d5 E10E0000 		.4byte	.LASF548
 4820 10d9 25       		.sleb128 37
 4821 10da 0E       		.uleb128 0xe
 4822 10db F1080000 		.4byte	.LASF549
 4823 10df 26       		.sleb128 38
 4824 10e0 0E       		.uleb128 0xe
 4825 10e1 DC220000 		.4byte	.LASF550
 4826 10e5 27       		.sleb128 39
 4827 10e6 0E       		.uleb128 0xe
 4828 10e7 C3080000 		.4byte	.LASF551
 4829 10eb 28       		.sleb128 40
 4830 10ec 0E       		.uleb128 0xe
 4831 10ed E1160000 		.4byte	.LASF552
 4832 10f1 29       		.sleb128 41
 4833 10f2 0E       		.uleb128 0xe
 4834 10f3 AE050000 		.4byte	.LASF553
 4835 10f7 2A       		.sleb128 42
 4836 10f8 0E       		.uleb128 0xe
 4837 10f9 70210000 		.4byte	.LASF554
 4838 10fd 2B       		.sleb128 43
 4839 10fe 0E       		.uleb128 0xe
 4840 10ff 581F0000 		.4byte	.LASF555
 4841 1103 2C       		.sleb128 44
 4842 1104 0E       		.uleb128 0xe
 4843 1105 48340000 		.4byte	.LASF556
 4844 1109 2D       		.sleb128 45
 4845 110a 0E       		.uleb128 0xe
 4846 110b 15120000 		.4byte	.LASF557
 4847 110f 2E       		.sleb128 46
 4848 1110 0E       		.uleb128 0xe
 4849 1111 D8200000 		.4byte	.LASF558
 4850 1115 2F       		.sleb128 47
 4851 1116 0E       		.uleb128 0xe
 4852 1117 A42E0000 		.4byte	.LASF559
 4853 111b 30       		.sleb128 48
 4854 111c 0E       		.uleb128 0xe
 4855 111d 6C260000 		.4byte	.LASF560
 4856 1121 31       		.sleb128 49
 4857 1122 0E       		.uleb128 0xe
 4858 1123 A8260000 		.4byte	.LASF561
 4859 1127 32       		.sleb128 50
 4860 1128 0E       		.uleb128 0xe
 4861 1129 4B040000 		.4byte	.LASF562
 4862 112d 33       		.sleb128 51
 4863 112e 0E       		.uleb128 0xe
 4864 112f 7F290000 		.4byte	.LASF563
 4865 1133 34       		.sleb128 52
 4866 1134 0E       		.uleb128 0xe
 4867 1135 B72F0000 		.4byte	.LASF564
ARM GAS  C:\Users\AHMED~1.ELE\AppData\Local\Temp\cc0wYKcg.s 			page 113


 4868 1139 35       		.sleb128 53
 4869 113a 0E       		.uleb128 0xe
 4870 113b 02090000 		.4byte	.LASF565
 4871 113f 36       		.sleb128 54
 4872 1140 00       		.byte	0
 4873 1141 18       		.uleb128 0x18
 4874 1142 753D0000 		.4byte	.LASF566
 4875 1146 040C     		.2byte	0xc04
 4876 1148 09       		.byte	0x9
 4877 1149 1E01     		.2byte	0x11e
 4878 114b 6A110000 		.4byte	0x116a
 4879 114f 12       		.uleb128 0x12
 4880 1150 993E0000 		.4byte	.LASF17
 4881 1154 09       		.byte	0x9
 4882 1155 1F01     		.2byte	0x11f
 4883 1157 AD000000 		.4byte	0xad
 4884 115b 00       		.byte	0
 4885 115c 12       		.uleb128 0x12
 4886 115d 72060000 		.4byte	.LASF567
 4887 1161 09       		.byte	0x9
 4888 1162 2001     		.2byte	0x120
 4889 1164 6A110000 		.4byte	0x116a
 4890 1168 02       		.byte	0x2
 4891 1169 00       		.byte	0
 4892 116a 08       		.uleb128 0x8
 4893 116b A2000000 		.4byte	0xa2
 4894 116f 7B110000 		.4byte	0x117b
 4895 1173 15       		.uleb128 0x15
 4896 1174 78000000 		.4byte	0x78
 4897 1178 FF0B     		.2byte	0xbff
 4898 117a 00       		.byte	0
 4899 117b 18       		.uleb128 0x18
 4900 117c 9B390000 		.4byte	.LASF568
 4901 1180 7001     		.2byte	0x170
 4902 1182 09       		.byte	0x9
 4903 1183 6401     		.2byte	0x164
 4904 1185 97140000 		.4byte	0x1497
 4905 1189 12       		.uleb128 0x12
 4906 118a 8B130000 		.4byte	.LASF569
 4907 118e 09       		.byte	0x9
 4908 118f 6501     		.2byte	0x165
 4909 1191 A2000000 		.4byte	0xa2
 4910 1195 00       		.byte	0
 4911 1196 12       		.uleb128 0x12
 4912 1197 FC070000 		.4byte	.LASF570
 4913 119b 09       		.byte	0x9
 4914 119c 6601     		.2byte	0x166
 4915 119e A2000000 		.4byte	0xa2
 4916 11a2 01       		.byte	0x1
 4917 11a3 12       		.uleb128 0x12
 4918 11a4 A73A0000 		.4byte	.LASF571
 4919 11a8 09       		.byte	0x9
 4920 11a9 6701     		.2byte	0x167
 4921 11ab 97140000 		.4byte	0x1497
 4922 11af 02       		.byte	0x2
 4923 11b0 12       		.uleb128 0x12
 4924 11b1 233C0000 		.4byte	.LASF572
ARM GAS  C:\Users\AHMED~1.ELE\AppData\Local\Temp\cc0wYKcg.s 			page 114


 4925 11b5 09       		.byte	0x9
 4926 11b6 6801     		.2byte	0x168
 4927 11b8 A2000000 		.4byte	0xa2
 4928 11bc 0B       		.byte	0xb
 4929 11bd 12       		.uleb128 0x12
 4930 11be 81010000 		.4byte	.LASF573
 4931 11c2 09       		.byte	0x9
 4932 11c3 6901     		.2byte	0x169
 4933 11c5 A7140000 		.4byte	0x14a7
 4934 11c9 0C       		.byte	0xc
 4935 11ca 12       		.uleb128 0x12
 4936 11cb 03390000 		.4byte	.LASF574
 4937 11cf 09       		.byte	0x9
 4938 11d0 6A01     		.2byte	0x16a
 4939 11d2 A2000000 		.4byte	0xa2
 4940 11d6 18       		.byte	0x18
 4941 11d7 12       		.uleb128 0x12
 4942 11d8 F2140000 		.4byte	.LASF575
 4943 11dc 09       		.byte	0x9
 4944 11dd 6B01     		.2byte	0x16b
 4945 11df A2000000 		.4byte	0xa2
 4946 11e3 19       		.byte	0x19
 4947 11e4 12       		.uleb128 0x12
 4948 11e5 26040000 		.4byte	.LASF576
 4949 11e9 09       		.byte	0x9
 4950 11ea 6C01     		.2byte	0x16c
 4951 11ec A7140000 		.4byte	0x14a7
 4952 11f0 1A       		.byte	0x1a
 4953 11f1 12       		.uleb128 0x12
 4954 11f2 FB1A0000 		.4byte	.LASF577
 4955 11f6 09       		.byte	0x9
 4956 11f7 6D01     		.2byte	0x16d
 4957 11f9 A2000000 		.4byte	0xa2
 4958 11fd 26       		.byte	0x26
 4959 11fe 12       		.uleb128 0x12
 4960 11ff 970F0000 		.4byte	.LASF578
 4961 1203 09       		.byte	0x9
 4962 1204 6E01     		.2byte	0x16e
 4963 1206 A2000000 		.4byte	0xa2
 4964 120a 27       		.byte	0x27
 4965 120b 12       		.uleb128 0x12
 4966 120c 52050000 		.4byte	.LASF579
 4967 1210 09       		.byte	0x9
 4968 1211 6F01     		.2byte	0x16f
 4969 1213 A2000000 		.4byte	0xa2
 4970 1217 28       		.byte	0x28
 4971 1218 12       		.uleb128 0x12
 4972 1219 632B0000 		.4byte	.LASF580
 4973 121d 09       		.byte	0x9
 4974 121e 7001     		.2byte	0x170
 4975 1220 A2000000 		.4byte	0xa2
 4976 1224 29       		.byte	0x29
 4977 1225 12       		.uleb128 0x12
 4978 1226 D2330000 		.4byte	.LASF581
 4979 122a 09       		.byte	0x9
 4980 122b 7101     		.2byte	0x171
 4981 122d EF000000 		.4byte	0xef
ARM GAS  C:\Users\AHMED~1.ELE\AppData\Local\Temp\cc0wYKcg.s 			page 115


 4982 1231 2A       		.byte	0x2a
 4983 1232 12       		.uleb128 0x12
 4984 1233 36020000 		.4byte	.LASF582
 4985 1237 09       		.byte	0x9
 4986 1238 7201     		.2byte	0x172
 4987 123a 7D010000 		.4byte	0x17d
 4988 123e 2E       		.byte	0x2e
 4989 123f 12       		.uleb128 0x12
 4990 1240 F6120000 		.4byte	.LASF583
 4991 1244 09       		.byte	0x9
 4992 1245 7301     		.2byte	0x173
 4993 1247 7D010000 		.4byte	0x17d
 4994 124b 31       		.byte	0x31
 4995 124c 12       		.uleb128 0x12
 4996 124d CE260000 		.4byte	.LASF584
 4997 1251 09       		.byte	0x9
 4998 1252 7401     		.2byte	0x174
 4999 1254 EF000000 		.4byte	0xef
 5000 1258 34       		.byte	0x34
 5001 1259 12       		.uleb128 0x12
 5002 125a FA240000 		.4byte	.LASF585
 5003 125e 09       		.byte	0x9
 5004 125f 7501     		.2byte	0x175
 5005 1261 D9000000 		.4byte	0xd9
 5006 1265 38       		.byte	0x38
 5007 1266 12       		.uleb128 0x12
 5008 1267 1A160000 		.4byte	.LASF586
 5009 126b 09       		.byte	0x9
 5010 126c 7601     		.2byte	0x176
 5011 126e D9000000 		.4byte	0xd9
 5012 1272 3A       		.byte	0x3a
 5013 1273 12       		.uleb128 0x12
 5014 1274 1C070000 		.4byte	.LASF587
 5015 1278 09       		.byte	0x9
 5016 1279 7701     		.2byte	0x177
 5017 127b A2000000 		.4byte	0xa2
 5018 127f 3C       		.byte	0x3c
 5019 1280 12       		.uleb128 0x12
 5020 1281 AE1A0000 		.4byte	.LASF588
 5021 1285 09       		.byte	0x9
 5022 1286 7801     		.2byte	0x178
 5023 1288 A2000000 		.4byte	0xa2
 5024 128c 3D       		.byte	0x3d
 5025 128d 12       		.uleb128 0x12
 5026 128e F3060000 		.4byte	.LASF589
 5027 1292 09       		.byte	0x9
 5028 1293 7901     		.2byte	0x179
 5029 1295 A2000000 		.4byte	0xa2
 5030 1299 3E       		.byte	0x3e
 5031 129a 12       		.uleb128 0x12
 5032 129b 81090000 		.4byte	.LASF590
 5033 129f 09       		.byte	0x9
 5034 12a0 7A01     		.2byte	0x17a
 5035 12a2 AD000000 		.4byte	0xad
 5036 12a6 40       		.byte	0x40
 5037 12a7 12       		.uleb128 0x12
 5038 12a8 563E0000 		.4byte	.LASF591
ARM GAS  C:\Users\AHMED~1.ELE\AppData\Local\Temp\cc0wYKcg.s 			page 116


 5039 12ac 09       		.byte	0x9
 5040 12ad 7B01     		.2byte	0x17b
 5041 12af AD000000 		.4byte	0xad
 5042 12b3 42       		.byte	0x42
 5043 12b4 12       		.uleb128 0x12
 5044 12b5 1C180000 		.4byte	.LASF592
 5045 12b9 09       		.byte	0x9
 5046 12ba 7C01     		.2byte	0x17c
 5047 12bc C3000000 		.4byte	0xc3
 5048 12c0 48       		.byte	0x48
 5049 12c1 12       		.uleb128 0x12
 5050 12c2 EE0F0000 		.4byte	.LASF593
 5051 12c6 09       		.byte	0x9
 5052 12c7 7D01     		.2byte	0x17d
 5053 12c9 A2000000 		.4byte	0xa2
 5054 12cd 50       		.byte	0x50
 5055 12ce 12       		.uleb128 0x12
 5056 12cf CE410000 		.4byte	.LASF594
 5057 12d3 09       		.byte	0x9
 5058 12d4 7E01     		.2byte	0x17e
 5059 12d6 A2000000 		.4byte	0xa2
 5060 12da 51       		.byte	0x51
 5061 12db 12       		.uleb128 0x12
 5062 12dc 803E0000 		.4byte	.LASF595
 5063 12e0 09       		.byte	0x9
 5064 12e1 8001     		.2byte	0x180
 5065 12e3 A2000000 		.4byte	0xa2
 5066 12e7 52       		.byte	0x52
 5067 12e8 12       		.uleb128 0x12
 5068 12e9 CE220000 		.4byte	.LASF596
 5069 12ed 09       		.byte	0x9
 5070 12ee 8101     		.2byte	0x181
 5071 12f0 D9000000 		.4byte	0xd9
 5072 12f4 53       		.byte	0x53
 5073 12f5 12       		.uleb128 0x12
 5074 12f6 7D270000 		.4byte	.LASF597
 5075 12fa 09       		.byte	0x9
 5076 12fb 8201     		.2byte	0x182
 5077 12fd EF000000 		.4byte	0xef
 5078 1301 55       		.byte	0x55
 5079 1302 12       		.uleb128 0x12
 5080 1303 53330000 		.4byte	.LASF598
 5081 1307 09       		.byte	0x9
 5082 1308 8301     		.2byte	0x183
 5083 130a C3000000 		.4byte	0xc3
 5084 130e 60       		.byte	0x60
 5085 130f 12       		.uleb128 0x12
 5086 1310 0C310000 		.4byte	.LASF599
 5087 1314 09       		.byte	0x9
 5088 1315 8401     		.2byte	0x184
 5089 1317 D9000000 		.4byte	0xd9
 5090 131b 68       		.byte	0x68
 5091 131c 12       		.uleb128 0x12
 5092 131d 36390000 		.4byte	.LASF600
 5093 1321 09       		.byte	0x9
 5094 1322 8501     		.2byte	0x185
 5095 1324 EF000000 		.4byte	0xef
ARM GAS  C:\Users\AHMED~1.ELE\AppData\Local\Temp\cc0wYKcg.s 			page 117


 5096 1328 6A       		.byte	0x6a
 5097 1329 12       		.uleb128 0x12
 5098 132a 17040000 		.4byte	.LASF601
 5099 132e 09       		.byte	0x9
 5100 132f 8601     		.2byte	0x186
 5101 1331 C3000000 		.4byte	0xc3
 5102 1335 70       		.byte	0x70
 5103 1336 12       		.uleb128 0x12
 5104 1337 63280000 		.4byte	.LASF602
 5105 133b 09       		.byte	0x9
 5106 133c 8701     		.2byte	0x187
 5107 133e D9000000 		.4byte	0xd9
 5108 1342 78       		.byte	0x78
 5109 1343 12       		.uleb128 0x12
 5110 1344 A9160000 		.4byte	.LASF603
 5111 1348 09       		.byte	0x9
 5112 1349 8801     		.2byte	0x188
 5113 134b EF000000 		.4byte	0xef
 5114 134f 7A       		.byte	0x7a
 5115 1350 12       		.uleb128 0x12
 5116 1351 83240000 		.4byte	.LASF604
 5117 1355 09       		.byte	0x9
 5118 1356 8901     		.2byte	0x189
 5119 1358 C3000000 		.4byte	0xc3
 5120 135c 80       		.byte	0x80
 5121 135d 12       		.uleb128 0x12
 5122 135e 12270000 		.4byte	.LASF605
 5123 1362 09       		.byte	0x9
 5124 1363 8A01     		.2byte	0x18a
 5125 1365 D9000000 		.4byte	0xd9
 5126 1369 88       		.byte	0x88
 5127 136a 12       		.uleb128 0x12
 5128 136b AD350000 		.4byte	.LASF606
 5129 136f 09       		.byte	0x9
 5130 1370 8B01     		.2byte	0x18b
 5131 1372 EF000000 		.4byte	0xef
 5132 1376 8A       		.byte	0x8a
 5133 1377 12       		.uleb128 0x12
 5134 1378 9D000000 		.4byte	.LASF607
 5135 137c 09       		.byte	0x9
 5136 137d 8C01     		.2byte	0x18c
 5137 137f C3000000 		.4byte	0xc3
 5138 1383 90       		.byte	0x90
 5139 1384 12       		.uleb128 0x12
 5140 1385 44240000 		.4byte	.LASF608
 5141 1389 09       		.byte	0x9
 5142 138a 8D01     		.2byte	0x18d
 5143 138c D9000000 		.4byte	0xd9
 5144 1390 98       		.byte	0x98
 5145 1391 12       		.uleb128 0x12
 5146 1392 3C1D0000 		.4byte	.LASF609
 5147 1396 09       		.byte	0x9
 5148 1397 8E01     		.2byte	0x18e
 5149 1399 EF000000 		.4byte	0xef
 5150 139d 9A       		.byte	0x9a
 5151 139e 12       		.uleb128 0x12
 5152 139f AD2B0000 		.4byte	.LASF610
ARM GAS  C:\Users\AHMED~1.ELE\AppData\Local\Temp\cc0wYKcg.s 			page 118


 5153 13a3 09       		.byte	0x9
 5154 13a4 8F01     		.2byte	0x18f
 5155 13a6 C3000000 		.4byte	0xc3
 5156 13aa A0       		.byte	0xa0
 5157 13ab 12       		.uleb128 0x12
 5158 13ac 3B1F0000 		.4byte	.LASF611
 5159 13b0 09       		.byte	0x9
 5160 13b1 9001     		.2byte	0x190
 5161 13b3 AD010000 		.4byte	0x1ad
 5162 13b7 A8       		.byte	0xa8
 5163 13b8 12       		.uleb128 0x12
 5164 13b9 FE360000 		.4byte	.LASF612
 5165 13bd 09       		.byte	0x9
 5166 13be 9101     		.2byte	0x191
 5167 13c0 AD010000 		.4byte	0x1ad
 5168 13c4 C8       		.byte	0xc8
 5169 13c5 12       		.uleb128 0x12
 5170 13c6 B6240000 		.4byte	.LASF613
 5171 13ca 09       		.byte	0x9
 5172 13cb 9201     		.2byte	0x192
 5173 13cd AD010000 		.4byte	0x1ad
 5174 13d1 E8       		.byte	0xe8
 5175 13d2 19       		.uleb128 0x19
 5176 13d3 992E0000 		.4byte	.LASF614
 5177 13d7 09       		.byte	0x9
 5178 13d8 9301     		.2byte	0x193
 5179 13da AD010000 		.4byte	0x1ad
 5180 13de 0801     		.2byte	0x108
 5181 13e0 19       		.uleb128 0x19
 5182 13e1 91080000 		.4byte	.LASF615
 5183 13e5 09       		.byte	0x9
 5184 13e6 9401     		.2byte	0x194
 5185 13e8 EF000000 		.4byte	0xef
 5186 13ec 2801     		.2byte	0x128
 5187 13ee 19       		.uleb128 0x19
 5188 13ef CE3B0000 		.4byte	.LASF616
 5189 13f3 09       		.byte	0x9
 5190 13f4 9501     		.2byte	0x195
 5191 13f6 D9000000 		.4byte	0xd9
 5192 13fa 2C01     		.2byte	0x12c
 5193 13fc 19       		.uleb128 0x19
 5194 13fd 1A0A0000 		.4byte	.LASF617
 5195 1401 09       		.byte	0x9
 5196 1402 9601     		.2byte	0x196
 5197 1404 B7140000 		.4byte	0x14b7
 5198 1408 2E01     		.2byte	0x12e
 5199 140a 19       		.uleb128 0x19
 5200 140b 6B1C0000 		.4byte	.LASF618
 5201 140f 09       		.byte	0x9
 5202 1410 9701     		.2byte	0x197
 5203 1412 A7140000 		.4byte	0x14a7
 5204 1416 4701     		.2byte	0x147
 5205 1418 19       		.uleb128 0x19
 5206 1419 55020000 		.4byte	.LASF619
 5207 141d 09       		.byte	0x9
 5208 141e 9801     		.2byte	0x198
 5209 1420 A2000000 		.4byte	0xa2
ARM GAS  C:\Users\AHMED~1.ELE\AppData\Local\Temp\cc0wYKcg.s 			page 119


 5210 1424 5301     		.2byte	0x153
 5211 1426 19       		.uleb128 0x19
 5212 1427 26350000 		.4byte	.LASF620
 5213 142b 09       		.byte	0x9
 5214 142c 9901     		.2byte	0x199
 5215 142e A2000000 		.4byte	0xa2
 5216 1432 5401     		.2byte	0x154
 5217 1434 19       		.uleb128 0x19
 5218 1435 56040000 		.4byte	.LASF621
 5219 1439 09       		.byte	0x9
 5220 143a 9A01     		.2byte	0x19a
 5221 143c A7140000 		.4byte	0x14a7
 5222 1440 5501     		.2byte	0x155
 5223 1442 19       		.uleb128 0x19
 5224 1443 81280000 		.4byte	.LASF622
 5225 1447 09       		.byte	0x9
 5226 1448 9B01     		.2byte	0x19b
 5227 144a A2000000 		.4byte	0xa2
 5228 144e 6101     		.2byte	0x161
 5229 1450 19       		.uleb128 0x19
 5230 1451 C22E0000 		.4byte	.LASF623
 5231 1455 09       		.byte	0x9
 5232 1456 9C01     		.2byte	0x19c
 5233 1458 A2000000 		.4byte	0xa2
 5234 145c 6201     		.2byte	0x162
 5235 145e 19       		.uleb128 0x19
 5236 145f DB1E0000 		.4byte	.LASF624
 5237 1463 09       		.byte	0x9
 5238 1464 9D01     		.2byte	0x19d
 5239 1466 A2000000 		.4byte	0xa2
 5240 146a 6301     		.2byte	0x163
 5241 146c 19       		.uleb128 0x19
 5242 146d 59410000 		.4byte	.LASF625
 5243 1471 09       		.byte	0x9
 5244 1472 9E01     		.2byte	0x19e
 5245 1474 AD000000 		.4byte	0xad
 5246 1478 6401     		.2byte	0x164
 5247 147a 19       		.uleb128 0x19
 5248 147b DF090000 		.4byte	.LASF626
 5249 147f 09       		.byte	0x9
 5250 1480 9F01     		.2byte	0x19f
 5251 1482 A2000000 		.4byte	0xa2
 5252 1486 6601     		.2byte	0x166
 5253 1488 19       		.uleb128 0x19
 5254 1489 C3140000 		.4byte	.LASF627
 5255 148d 09       		.byte	0x9
 5256 148e A101     		.2byte	0x1a1
 5257 1490 B8000000 		.4byte	0xb8
 5258 1494 6801     		.2byte	0x168
 5259 1496 00       		.byte	0
 5260 1497 08       		.uleb128 0x8
 5261 1498 A2000000 		.4byte	0xa2
 5262 149c A7140000 		.4byte	0x14a7
 5263 14a0 09       		.uleb128 0x9
 5264 14a1 78000000 		.4byte	0x78
 5265 14a5 08       		.byte	0x8
 5266 14a6 00       		.byte	0
ARM GAS  C:\Users\AHMED~1.ELE\AppData\Local\Temp\cc0wYKcg.s 			page 120


 5267 14a7 08       		.uleb128 0x8
 5268 14a8 A2000000 		.4byte	0xa2
 5269 14ac B7140000 		.4byte	0x14b7
 5270 14b0 09       		.uleb128 0x9
 5271 14b1 78000000 		.4byte	0x78
 5272 14b5 0B       		.byte	0xb
 5273 14b6 00       		.byte	0
 5274 14b7 08       		.uleb128 0x8
 5275 14b8 A2000000 		.4byte	0xa2
 5276 14bc C7140000 		.4byte	0x14c7
 5277 14c0 09       		.uleb128 0x9
 5278 14c1 78000000 		.4byte	0x78
 5279 14c5 18       		.byte	0x18
 5280 14c6 00       		.byte	0
 5281 14c7 18       		.uleb128 0x18
 5282 14c8 38050000 		.4byte	.LASF628
 5283 14cc 8801     		.2byte	0x188
 5284 14ce 09       		.byte	0x9
 5285 14cf AC01     		.2byte	0x1ac
 5286 14d1 6F160000 		.4byte	0x166f
 5287 14d5 12       		.uleb128 0x12
 5288 14d6 C8260000 		.4byte	.LASF629
 5289 14da 09       		.byte	0x9
 5290 14db AD01     		.2byte	0x1ad
 5291 14dd A2000000 		.4byte	0xa2
 5292 14e1 00       		.byte	0
 5293 14e2 12       		.uleb128 0x12
 5294 14e3 F9330000 		.4byte	.LASF630
 5295 14e7 09       		.byte	0x9
 5296 14e8 AE01     		.2byte	0x1ae
 5297 14ea A2000000 		.4byte	0xa2
 5298 14ee 01       		.byte	0x1
 5299 14ef 12       		.uleb128 0x12
 5300 14f0 A03B0000 		.4byte	.LASF631
 5301 14f4 09       		.byte	0x9
 5302 14f5 AF01     		.2byte	0x1af
 5303 14f7 A2000000 		.4byte	0xa2
 5304 14fb 02       		.byte	0x2
 5305 14fc 12       		.uleb128 0x12
 5306 14fd A83B0000 		.4byte	.LASF632
 5307 1501 09       		.byte	0x9
 5308 1502 B001     		.2byte	0x1b0
 5309 1504 A2000000 		.4byte	0xa2
 5310 1508 03       		.byte	0x3
 5311 1509 12       		.uleb128 0x12
 5312 150a B52E0000 		.4byte	.LASF633
 5313 150e 09       		.byte	0x9
 5314 150f B101     		.2byte	0x1b1
 5315 1511 C10E0000 		.4byte	0xec1
 5316 1515 04       		.byte	0x4
 5317 1516 12       		.uleb128 0x12
 5318 1517 AA0E0000 		.4byte	.LASF634
 5319 151b 09       		.byte	0x9
 5320 151c B201     		.2byte	0x1b2
 5321 151e A2000000 		.4byte	0xa2
 5322 1522 0A       		.byte	0xa
 5323 1523 12       		.uleb128 0x12
ARM GAS  C:\Users\AHMED~1.ELE\AppData\Local\Temp\cc0wYKcg.s 			page 121


 5324 1524 860D0000 		.4byte	.LASF635
 5325 1528 09       		.byte	0x9
 5326 1529 B301     		.2byte	0x1b3
 5327 152b D9000000 		.4byte	0xd9
 5328 152f 0B       		.byte	0xb
 5329 1530 12       		.uleb128 0x12
 5330 1531 821A0000 		.4byte	.LASF636
 5331 1535 09       		.byte	0x9
 5332 1536 B401     		.2byte	0x1b4
 5333 1538 A7140000 		.4byte	0x14a7
 5334 153c 0D       		.byte	0xd
 5335 153d 12       		.uleb128 0x12
 5336 153e 12410000 		.4byte	.LASF637
 5337 1542 09       		.byte	0x9
 5338 1543 B501     		.2byte	0x1b5
 5339 1545 EF000000 		.4byte	0xef
 5340 1549 19       		.byte	0x19
 5341 154a 12       		.uleb128 0x12
 5342 154b 0E2F0000 		.4byte	.LASF638
 5343 154f 09       		.byte	0x9
 5344 1550 B601     		.2byte	0x1b6
 5345 1552 6F160000 		.4byte	0x166f
 5346 1556 1D       		.byte	0x1d
 5347 1557 12       		.uleb128 0x12
 5348 1558 75310000 		.4byte	.LASF639
 5349 155c 09       		.byte	0x9
 5350 155d B701     		.2byte	0x1b7
 5351 155f 7F160000 		.4byte	0x167f
 5352 1563 4B       		.byte	0x4b
 5353 1564 12       		.uleb128 0x12
 5354 1565 590F0000 		.4byte	.LASF640
 5355 1569 09       		.byte	0x9
 5356 156a B801     		.2byte	0x1b8
 5357 156c A2000000 		.4byte	0xa2
 5358 1570 62       		.byte	0x62
 5359 1571 12       		.uleb128 0x12
 5360 1572 143B0000 		.4byte	.LASF641
 5361 1576 09       		.byte	0x9
 5362 1577 B901     		.2byte	0x1b9
 5363 1579 A2000000 		.4byte	0xa2
 5364 157d 63       		.byte	0x63
 5365 157e 12       		.uleb128 0x12
 5366 157f 37290000 		.4byte	.LASF642
 5367 1583 09       		.byte	0x9
 5368 1584 BA01     		.2byte	0x1ba
 5369 1586 A2000000 		.4byte	0xa2
 5370 158a 64       		.byte	0x64
 5371 158b 12       		.uleb128 0x12
 5372 158c B03B0000 		.4byte	.LASF643
 5373 1590 09       		.byte	0x9
 5374 1591 BB01     		.2byte	0x1bb
 5375 1593 A2000000 		.4byte	0xa2
 5376 1597 65       		.byte	0x65
 5377 1598 12       		.uleb128 0x12
 5378 1599 06360000 		.4byte	.LASF644
 5379 159d 09       		.byte	0x9
 5380 159e BC01     		.2byte	0x1bc
ARM GAS  C:\Users\AHMED~1.ELE\AppData\Local\Temp\cc0wYKcg.s 			page 122


 5381 15a0 A2000000 		.4byte	0xa2
 5382 15a4 66       		.byte	0x66
 5383 15a5 12       		.uleb128 0x12
 5384 15a6 F8180000 		.4byte	.LASF645
 5385 15aa 09       		.byte	0x9
 5386 15ab BD01     		.2byte	0x1bd
 5387 15ad 7D010000 		.4byte	0x17d
 5388 15b1 67       		.byte	0x67
 5389 15b2 12       		.uleb128 0x12
 5390 15b3 54310000 		.4byte	.LASF646
 5391 15b7 09       		.byte	0x9
 5392 15b8 BE01     		.2byte	0x1be
 5393 15ba A2000000 		.4byte	0xa2
 5394 15be 6A       		.byte	0x6a
 5395 15bf 12       		.uleb128 0x12
 5396 15c0 E2390000 		.4byte	.LASF647
 5397 15c4 09       		.byte	0x9
 5398 15c5 BF01     		.2byte	0x1bf
 5399 15c7 DD010000 		.4byte	0x1dd
 5400 15cb 6B       		.byte	0x6b
 5401 15cc 12       		.uleb128 0x12
 5402 15cd 101A0000 		.4byte	.LASF648
 5403 15d1 09       		.byte	0x9
 5404 15d2 C001     		.2byte	0x1c0
 5405 15d4 8F160000 		.4byte	0x168f
 5406 15d8 7F       		.byte	0x7f
 5407 15d9 12       		.uleb128 0x12
 5408 15da 160F0000 		.4byte	.LASF649
 5409 15de 09       		.byte	0x9
 5410 15df C101     		.2byte	0x1c1
 5411 15e1 BD010000 		.4byte	0x1bd
 5412 15e5 9D       		.byte	0x9d
 5413 15e6 12       		.uleb128 0x12
 5414 15e7 74030000 		.4byte	.LASF650
 5415 15eb 09       		.byte	0x9
 5416 15ec C201     		.2byte	0x1c2
 5417 15ee BD010000 		.4byte	0x1bd
 5418 15f2 AD       		.byte	0xad
 5419 15f3 12       		.uleb128 0x12
 5420 15f4 EF020000 		.4byte	.LASF651
 5421 15f8 09       		.byte	0x9
 5422 15f9 C301     		.2byte	0x1c3
 5423 15fb AD010000 		.4byte	0x1ad
 5424 15ff BD       		.byte	0xbd
 5425 1600 12       		.uleb128 0x12
 5426 1601 EE3D0000 		.4byte	.LASF652
 5427 1605 09       		.byte	0x9
 5428 1606 C401     		.2byte	0x1c4
 5429 1608 AD010000 		.4byte	0x1ad
 5430 160c DD       		.byte	0xdd
 5431 160d 12       		.uleb128 0x12
 5432 160e 090C0000 		.4byte	.LASF653
 5433 1612 09       		.byte	0x9
 5434 1613 C501     		.2byte	0x1c5
 5435 1615 AD010000 		.4byte	0x1ad
 5436 1619 FD       		.byte	0xfd
 5437 161a 19       		.uleb128 0x19
ARM GAS  C:\Users\AHMED~1.ELE\AppData\Local\Temp\cc0wYKcg.s 			page 123


 5438 161b 38030000 		.4byte	.LASF654
 5439 161f 09       		.byte	0x9
 5440 1620 C601     		.2byte	0x1c6
 5441 1622 AD010000 		.4byte	0x1ad
 5442 1626 1D01     		.2byte	0x11d
 5443 1628 19       		.uleb128 0x19
 5444 1629 2E230000 		.4byte	.LASF655
 5445 162d 09       		.byte	0x9
 5446 162e C701     		.2byte	0x1c7
 5447 1630 AD010000 		.4byte	0x1ad
 5448 1634 3D01     		.2byte	0x13d
 5449 1636 19       		.uleb128 0x19
 5450 1637 083C0000 		.4byte	.LASF656
 5451 163b 09       		.byte	0x9
 5452 163c C801     		.2byte	0x1c8
 5453 163e AD010000 		.4byte	0x1ad
 5454 1642 5D01     		.2byte	0x15d
 5455 1644 19       		.uleb128 0x19
 5456 1645 34190000 		.4byte	.LASF657
 5457 1649 09       		.byte	0x9
 5458 164a C901     		.2byte	0x1c9
 5459 164c EF000000 		.4byte	0xef
 5460 1650 7D01     		.2byte	0x17d
 5461 1652 19       		.uleb128 0x19
 5462 1653 CA1E0000 		.4byte	.LASF658
 5463 1657 09       		.byte	0x9
 5464 1658 CA01     		.2byte	0x1ca
 5465 165a D9000000 		.4byte	0xd9
 5466 165e 8101     		.2byte	0x181
 5467 1660 19       		.uleb128 0x19
 5468 1661 C3140000 		.4byte	.LASF627
 5469 1665 09       		.byte	0x9
 5470 1666 CB01     		.2byte	0x1cb
 5471 1668 AD000000 		.4byte	0xad
 5472 166c 8401     		.2byte	0x184
 5473 166e 00       		.byte	0
 5474 166f 08       		.uleb128 0x8
 5475 1670 A2000000 		.4byte	0xa2
 5476 1674 7F160000 		.4byte	0x167f
 5477 1678 09       		.uleb128 0x9
 5478 1679 78000000 		.4byte	0x78
 5479 167d 2D       		.byte	0x2d
 5480 167e 00       		.byte	0
 5481 167f 08       		.uleb128 0x8
 5482 1680 A2000000 		.4byte	0xa2
 5483 1684 8F160000 		.4byte	0x168f
 5484 1688 09       		.uleb128 0x9
 5485 1689 78000000 		.4byte	0x78
 5486 168d 16       		.byte	0x16
 5487 168e 00       		.byte	0
 5488 168f 08       		.uleb128 0x8
 5489 1690 A2000000 		.4byte	0xa2
 5490 1694 9F160000 		.4byte	0x169f
 5491 1698 09       		.uleb128 0x9
 5492 1699 78000000 		.4byte	0x78
 5493 169d 1D       		.byte	0x1d
 5494 169e 00       		.byte	0
ARM GAS  C:\Users\AHMED~1.ELE\AppData\Local\Temp\cc0wYKcg.s 			page 124


 5495 169f 16       		.uleb128 0x16
 5496 16a0 1F2A0000 		.4byte	.LASF659
 5497 16a4 24       		.byte	0x24
 5498 16a5 09       		.byte	0x9
 5499 16a6 CE01     		.2byte	0x1ce
 5500 16a8 08170000 		.4byte	0x1708
 5501 16ac 12       		.uleb128 0x12
 5502 16ad 84220000 		.4byte	.LASF660
 5503 16b1 09       		.byte	0x9
 5504 16b2 CF01     		.2byte	0x1cf
 5505 16b4 6D010000 		.4byte	0x16d
 5506 16b8 00       		.byte	0
 5507 16b9 12       		.uleb128 0x12
 5508 16ba ED2D0000 		.4byte	.LASF661
 5509 16be 09       		.byte	0x9
 5510 16bf D001     		.2byte	0x1d0
 5511 16c1 6D010000 		.4byte	0x16d
 5512 16c5 05       		.byte	0x5
 5513 16c6 12       		.uleb128 0x12
 5514 16c7 B5210000 		.4byte	.LASF662
 5515 16cb 09       		.byte	0x9
 5516 16cc D101     		.2byte	0x1d1
 5517 16ce A2000000 		.4byte	0xa2
 5518 16d2 0A       		.byte	0xa
 5519 16d3 12       		.uleb128 0x12
 5520 16d4 89420000 		.4byte	.LASF663
 5521 16d8 09       		.byte	0x9
 5522 16d9 D201     		.2byte	0x1d2
 5523 16db A2000000 		.4byte	0xa2
 5524 16df 0B       		.byte	0xb
 5525 16e0 12       		.uleb128 0x12
 5526 16e1 5D360000 		.4byte	.LASF664
 5527 16e5 09       		.byte	0x9
 5528 16e6 D301     		.2byte	0x1d3
 5529 16e8 A2000000 		.4byte	0xa2
 5530 16ec 0C       		.byte	0xc
 5531 16ed 12       		.uleb128 0x12
 5532 16ee 101A0000 		.4byte	.LASF648
 5533 16f2 09       		.byte	0x9
 5534 16f3 D401     		.2byte	0x1d4
 5535 16f5 DD010000 		.4byte	0x1dd
 5536 16f9 0D       		.byte	0xd
 5537 16fa 12       		.uleb128 0x12
 5538 16fb C3140000 		.4byte	.LASF627
 5539 16ff 09       		.byte	0x9
 5540 1700 D501     		.2byte	0x1d5
 5541 1702 AD000000 		.4byte	0xad
 5542 1706 22       		.byte	0x22
 5543 1707 00       		.byte	0
 5544 1708 16       		.uleb128 0x16
 5545 1709 A62C0000 		.4byte	.LASF665
 5546 170d 38       		.byte	0x38
 5547 170e 09       		.byte	0x9
 5548 170f D801     		.2byte	0x1d8
 5549 1711 8B170000 		.4byte	0x178b
 5550 1715 12       		.uleb128 0x12
 5551 1716 86130000 		.4byte	.LASF666
ARM GAS  C:\Users\AHMED~1.ELE\AppData\Local\Temp\cc0wYKcg.s 			page 125


 5552 171a 09       		.byte	0x9
 5553 171b D901     		.2byte	0x1d9
 5554 171d A2000000 		.4byte	0xa2
 5555 1721 00       		.byte	0
 5556 1722 12       		.uleb128 0x12
 5557 1723 CB1D0000 		.4byte	.LASF667
 5558 1727 09       		.byte	0x9
 5559 1728 DA01     		.2byte	0x1da
 5560 172a 9D010000 		.4byte	0x19d
 5561 172e 01       		.byte	0x1
 5562 172f 12       		.uleb128 0x12
 5563 1730 53030000 		.4byte	.LASF668
 5564 1734 09       		.byte	0x9
 5565 1735 DB01     		.2byte	0x1db
 5566 1737 A7140000 		.4byte	0x14a7
 5567 173b 0B       		.byte	0xb
 5568 173c 12       		.uleb128 0x12
 5569 173d 12410000 		.4byte	.LASF637
 5570 1741 09       		.byte	0x9
 5571 1742 DC01     		.2byte	0x1dc
 5572 1744 EF000000 		.4byte	0xef
 5573 1748 17       		.byte	0x17
 5574 1749 12       		.uleb128 0x12
 5575 174a 30040000 		.4byte	.LASF669
 5576 174e 09       		.byte	0x9
 5577 174f DD01     		.2byte	0x1dd
 5578 1751 A2000000 		.4byte	0xa2
 5579 1755 1B       		.byte	0x1b
 5580 1756 12       		.uleb128 0x12
 5581 1757 CB050000 		.4byte	.LASF670
 5582 175b 09       		.byte	0x9
 5583 175c DE01     		.2byte	0x1de
 5584 175e D9000000 		.4byte	0xd9
 5585 1762 1C       		.byte	0x1c
 5586 1763 12       		.uleb128 0x12
 5587 1764 F93B0000 		.4byte	.LASF671
 5588 1768 09       		.byte	0x9
 5589 1769 DF01     		.2byte	0x1df
 5590 176b D9000000 		.4byte	0xd9
 5591 176f 1E       		.byte	0x1e
 5592 1770 12       		.uleb128 0x12
 5593 1771 101A0000 		.4byte	.LASF648
 5594 1775 09       		.byte	0x9
 5595 1776 E001     		.2byte	0x1e0
 5596 1778 DD010000 		.4byte	0x1dd
 5597 177c 20       		.byte	0x20
 5598 177d 12       		.uleb128 0x12
 5599 177e C3140000 		.4byte	.LASF627
 5600 1782 09       		.byte	0x9
 5601 1783 E101     		.2byte	0x1e1
 5602 1785 AD000000 		.4byte	0xad
 5603 1789 34       		.byte	0x34
 5604 178a 00       		.byte	0
 5605 178b 16       		.uleb128 0x16
 5606 178c 472D0000 		.4byte	.LASF672
 5607 1790 AC       		.byte	0xac
 5608 1791 09       		.byte	0x9
ARM GAS  C:\Users\AHMED~1.ELE\AppData\Local\Temp\cc0wYKcg.s 			page 126


 5609 1792 EC01     		.2byte	0x1ec
 5610 1794 53190000 		.4byte	0x1953
 5611 1798 12       		.uleb128 0x12
 5612 1799 86130000 		.4byte	.LASF666
 5613 179d 09       		.byte	0x9
 5614 179e ED01     		.2byte	0x1ed
 5615 17a0 A2000000 		.4byte	0xa2
 5616 17a4 00       		.byte	0
 5617 17a5 12       		.uleb128 0x12
 5618 17a6 45390000 		.4byte	.LASF673
 5619 17aa 09       		.byte	0x9
 5620 17ab EE01     		.2byte	0x1ee
 5621 17ad 9D010000 		.4byte	0x19d
 5622 17b1 01       		.byte	0x1
 5623 17b2 12       		.uleb128 0x12
 5624 17b3 A61A0000 		.4byte	.LASF674
 5625 17b7 09       		.byte	0x9
 5626 17b8 EF01     		.2byte	0x1ef
 5627 17ba 9D010000 		.4byte	0x19d
 5628 17be 0B       		.byte	0xb
 5629 17bf 12       		.uleb128 0x12
 5630 17c0 1F2B0000 		.4byte	.LASF675
 5631 17c4 09       		.byte	0x9
 5632 17c5 F001     		.2byte	0x1f0
 5633 17c7 A7140000 		.4byte	0x14a7
 5634 17cb 15       		.byte	0x15
 5635 17cc 12       		.uleb128 0x12
 5636 17cd 5B110000 		.4byte	.LASF676
 5637 17d1 09       		.byte	0x9
 5638 17d2 F101     		.2byte	0x1f1
 5639 17d4 A2000000 		.4byte	0xa2
 5640 17d8 21       		.byte	0x21
 5641 17d9 12       		.uleb128 0x12
 5642 17da DF1B0000 		.4byte	.LASF677
 5643 17de 09       		.byte	0x9
 5644 17df F201     		.2byte	0x1f2
 5645 17e1 A2000000 		.4byte	0xa2
 5646 17e5 22       		.byte	0x22
 5647 17e6 12       		.uleb128 0x12
 5648 17e7 A40F0000 		.4byte	.LASF678
 5649 17eb 09       		.byte	0x9
 5650 17ec F301     		.2byte	0x1f3
 5651 17ee A7140000 		.4byte	0x14a7
 5652 17f2 23       		.byte	0x23
 5653 17f3 12       		.uleb128 0x12
 5654 17f4 7E260000 		.4byte	.LASF679
 5655 17f8 09       		.byte	0x9
 5656 17f9 F401     		.2byte	0x1f4
 5657 17fb A2000000 		.4byte	0xa2
 5658 17ff 2F       		.byte	0x2f
 5659 1800 12       		.uleb128 0x12
 5660 1801 AD020000 		.4byte	.LASF680
 5661 1805 09       		.byte	0x9
 5662 1806 F501     		.2byte	0x1f5
 5663 1808 A2000000 		.4byte	0xa2
 5664 180c 30       		.byte	0x30
 5665 180d 12       		.uleb128 0x12
ARM GAS  C:\Users\AHMED~1.ELE\AppData\Local\Temp\cc0wYKcg.s 			page 127


 5666 180e 9B020000 		.4byte	.LASF681
 5667 1812 09       		.byte	0x9
 5668 1813 F601     		.2byte	0x1f6
 5669 1815 A7140000 		.4byte	0x14a7
 5670 1819 31       		.byte	0x31
 5671 181a 12       		.uleb128 0x12
 5672 181b 2B2F0000 		.4byte	.LASF682
 5673 181f 09       		.byte	0x9
 5674 1820 F701     		.2byte	0x1f7
 5675 1822 A2000000 		.4byte	0xa2
 5676 1826 3D       		.byte	0x3d
 5677 1827 12       		.uleb128 0x12
 5678 1828 54370000 		.4byte	.LASF683
 5679 182c 09       		.byte	0x9
 5680 182d F801     		.2byte	0x1f8
 5681 182f A2000000 		.4byte	0xa2
 5682 1833 3E       		.byte	0x3e
 5683 1834 12       		.uleb128 0x12
 5684 1835 A9140000 		.4byte	.LASF684
 5685 1839 09       		.byte	0x9
 5686 183a F901     		.2byte	0x1f9
 5687 183c A7140000 		.4byte	0x14a7
 5688 1840 3F       		.byte	0x3f
 5689 1841 12       		.uleb128 0x12
 5690 1842 5F130000 		.4byte	.LASF685
 5691 1846 09       		.byte	0x9
 5692 1847 FA01     		.2byte	0x1fa
 5693 1849 A2000000 		.4byte	0xa2
 5694 184d 4B       		.byte	0x4b
 5695 184e 12       		.uleb128 0x12
 5696 184f 6D250000 		.4byte	.LASF686
 5697 1853 09       		.byte	0x9
 5698 1854 FB01     		.2byte	0x1fb
 5699 1856 A2000000 		.4byte	0xa2
 5700 185a 4C       		.byte	0x4c
 5701 185b 12       		.uleb128 0x12
 5702 185c 88180000 		.4byte	.LASF687
 5703 1860 09       		.byte	0x9
 5704 1861 FC01     		.2byte	0x1fc
 5705 1863 A2000000 		.4byte	0xa2
 5706 1867 4D       		.byte	0x4d
 5707 1868 12       		.uleb128 0x12
 5708 1869 12410000 		.4byte	.LASF637
 5709 186d 09       		.byte	0x9
 5710 186e FD01     		.2byte	0x1fd
 5711 1870 EF000000 		.4byte	0xef
 5712 1874 4E       		.byte	0x4e
 5713 1875 12       		.uleb128 0x12
 5714 1876 132C0000 		.4byte	.LASF688
 5715 187a 09       		.byte	0x9
 5716 187b FE01     		.2byte	0x1fe
 5717 187d D9000000 		.4byte	0xd9
 5718 1881 52       		.byte	0x52
 5719 1882 12       		.uleb128 0x12
 5720 1883 A73A0000 		.4byte	.LASF571
 5721 1887 09       		.byte	0x9
 5722 1888 FF01     		.2byte	0x1ff
ARM GAS  C:\Users\AHMED~1.ELE\AppData\Local\Temp\cc0wYKcg.s 			page 128


 5723 188a CD010000 		.4byte	0x1cd
 5724 188e 54       		.byte	0x54
 5725 188f 12       		.uleb128 0x12
 5726 1890 F32C0000 		.4byte	.LASF689
 5727 1894 09       		.byte	0x9
 5728 1895 0002     		.2byte	0x200
 5729 1897 53190000 		.4byte	0x1953
 5730 189b 5C       		.byte	0x5c
 5731 189c 12       		.uleb128 0x12
 5732 189d 570A0000 		.4byte	.LASF690
 5733 18a1 09       		.byte	0x9
 5734 18a2 0102     		.2byte	0x201
 5735 18a4 A2000000 		.4byte	0xa2
 5736 18a8 6B       		.byte	0x6b
 5737 18a9 12       		.uleb128 0x12
 5738 18aa 471F0000 		.4byte	.LASF691
 5739 18ae 09       		.byte	0x9
 5740 18af 0202     		.2byte	0x202
 5741 18b1 7D010000 		.4byte	0x17d
 5742 18b5 6C       		.byte	0x6c
 5743 18b6 12       		.uleb128 0x12
 5744 18b7 02250000 		.4byte	.LASF692
 5745 18bb 09       		.byte	0x9
 5746 18bc 0302     		.2byte	0x203
 5747 18be 7D010000 		.4byte	0x17d
 5748 18c2 6F       		.byte	0x6f
 5749 18c3 12       		.uleb128 0x12
 5750 18c4 16060000 		.4byte	.LASF693
 5751 18c8 09       		.byte	0x9
 5752 18c9 0402     		.2byte	0x204
 5753 18cb 7F160000 		.4byte	0x167f
 5754 18cf 72       		.byte	0x72
 5755 18d0 12       		.uleb128 0x12
 5756 18d1 F7100000 		.4byte	.LASF694
 5757 18d5 09       		.byte	0x9
 5758 18d6 0502     		.2byte	0x205
 5759 18d8 A2000000 		.4byte	0xa2
 5760 18dc 89       		.byte	0x89
 5761 18dd 12       		.uleb128 0x12
 5762 18de 101A0000 		.4byte	.LASF648
 5763 18e2 09       		.byte	0x9
 5764 18e3 0602     		.2byte	0x206
 5765 18e5 63190000 		.4byte	0x1963
 5766 18e9 8A       		.byte	0x8a
 5767 18ea 12       		.uleb128 0x12
 5768 18eb C6210000 		.4byte	.LASF695
 5769 18ef 09       		.byte	0x9
 5770 18f0 0702     		.2byte	0x207
 5771 18f2 A2000000 		.4byte	0xa2
 5772 18f6 9F       		.byte	0x9f
 5773 18f7 12       		.uleb128 0x12
 5774 18f8 E93A0000 		.4byte	.LASF696
 5775 18fc 09       		.byte	0x9
 5776 18fd 0802     		.2byte	0x208
 5777 18ff A2000000 		.4byte	0xa2
 5778 1903 A0       		.byte	0xa0
 5779 1904 12       		.uleb128 0x12
ARM GAS  C:\Users\AHMED~1.ELE\AppData\Local\Temp\cc0wYKcg.s 			page 129


 5780 1905 25310000 		.4byte	.LASF697
 5781 1909 09       		.byte	0x9
 5782 190a 0902     		.2byte	0x209
 5783 190c A2000000 		.4byte	0xa2
 5784 1910 A1       		.byte	0xa1
 5785 1911 12       		.uleb128 0x12
 5786 1912 CE260000 		.4byte	.LASF584
 5787 1916 09       		.byte	0x9
 5788 1917 0A02     		.2byte	0x20a
 5789 1919 EF000000 		.4byte	0xef
 5790 191d A2       		.byte	0xa2
 5791 191e 12       		.uleb128 0x12
 5792 191f FA240000 		.4byte	.LASF585
 5793 1923 09       		.byte	0x9
 5794 1924 0B02     		.2byte	0x20b
 5795 1926 D9000000 		.4byte	0xd9
 5796 192a A6       		.byte	0xa6
 5797 192b 12       		.uleb128 0x12
 5798 192c 682C0000 		.4byte	.LASF698
 5799 1930 09       		.byte	0x9
 5800 1931 0C02     		.2byte	0x20c
 5801 1933 A2000000 		.4byte	0xa2
 5802 1937 A8       		.byte	0xa8
 5803 1938 12       		.uleb128 0x12
 5804 1939 93040000 		.4byte	.LASF699
 5805 193d 09       		.byte	0x9
 5806 193e 0D02     		.2byte	0x20d
 5807 1940 A2000000 		.4byte	0xa2
 5808 1944 A9       		.byte	0xa9
 5809 1945 12       		.uleb128 0x12
 5810 1946 C3140000 		.4byte	.LASF627
 5811 194a 09       		.byte	0x9
 5812 194b 0E02     		.2byte	0x20e
 5813 194d AD000000 		.4byte	0xad
 5814 1951 AA       		.byte	0xaa
 5815 1952 00       		.byte	0
 5816 1953 08       		.uleb128 0x8
 5817 1954 A2000000 		.4byte	0xa2
 5818 1958 63190000 		.4byte	0x1963
 5819 195c 09       		.uleb128 0x9
 5820 195d 78000000 		.4byte	0x78
 5821 1961 0E       		.byte	0xe
 5822 1962 00       		.byte	0
 5823 1963 08       		.uleb128 0x8
 5824 1964 A2000000 		.4byte	0xa2
 5825 1968 73190000 		.4byte	0x1973
 5826 196c 09       		.uleb128 0x9
 5827 196d 78000000 		.4byte	0x78
 5828 1971 14       		.byte	0x14
 5829 1972 00       		.byte	0
 5830 1973 16       		.uleb128 0x16
 5831 1974 62300000 		.4byte	.LASF700
 5832 1978 1C       		.byte	0x1c
 5833 1979 09       		.byte	0x9
 5834 197a 1102     		.2byte	0x211
 5835 197c B5190000 		.4byte	0x19b5
 5836 1980 12       		.uleb128 0x12
ARM GAS  C:\Users\AHMED~1.ELE\AppData\Local\Temp\cc0wYKcg.s 			page 130


 5837 1981 82180000 		.4byte	.LASF701
 5838 1985 09       		.byte	0x9
 5839 1986 1202     		.2byte	0x212
 5840 1988 A2000000 		.4byte	0xa2
 5841 198c 00       		.byte	0
 5842 198d 12       		.uleb128 0x12
 5843 198e 1B340000 		.4byte	.LASF702
 5844 1992 09       		.byte	0x9
 5845 1993 1302     		.2byte	0x213
 5846 1995 D9000000 		.4byte	0xd9
 5847 1999 01       		.byte	0x1
 5848 199a 12       		.uleb128 0x12
 5849 199b 47010000 		.4byte	.LASF703
 5850 199f 09       		.byte	0x9
 5851 19a0 1402     		.2byte	0x214
 5852 19a2 DD010000 		.4byte	0x1dd
 5853 19a6 03       		.byte	0x3
 5854 19a7 12       		.uleb128 0x12
 5855 19a8 C3140000 		.4byte	.LASF627
 5856 19ac 09       		.byte	0x9
 5857 19ad 1502     		.2byte	0x215
 5858 19af AD000000 		.4byte	0xad
 5859 19b3 18       		.byte	0x18
 5860 19b4 00       		.byte	0
 5861 19b5 1A       		.uleb128 0x1a
 5862 19b6 87390000 		.4byte	.LASF704
 5863 19ba 08       		.byte	0x8
 5864 19bb 0A       		.byte	0xa
 5865 19bc 3A       		.byte	0x3a
 5866 19bd 161A0000 		.4byte	0x1a16
 5867 19c1 0B       		.uleb128 0xb
 5868 19c2 55130000 		.4byte	.LASF705
 5869 19c6 0A       		.byte	0xa
 5870 19c7 3B       		.byte	0x3b
 5871 19c8 A2000000 		.4byte	0xa2
 5872 19cc 00       		.byte	0
 5873 19cd 0B       		.uleb128 0xb
 5874 19ce 65260000 		.4byte	.LASF706
 5875 19d2 0A       		.byte	0xa
 5876 19d3 3C       		.byte	0x3c
 5877 19d4 A2000000 		.4byte	0xa2
 5878 19d8 01       		.byte	0x1
 5879 19d9 0B       		.uleb128 0xb
 5880 19da AD420000 		.4byte	.LASF707
 5881 19de 0A       		.byte	0xa
 5882 19df 3D       		.byte	0x3d
 5883 19e0 A2000000 		.4byte	0xa2
 5884 19e4 02       		.byte	0x2
 5885 19e5 0B       		.uleb128 0xb
 5886 19e6 90210000 		.4byte	.LASF708
 5887 19ea 0A       		.byte	0xa
 5888 19eb 3E       		.byte	0x3e
 5889 19ec A2000000 		.4byte	0xa2
 5890 19f0 03       		.byte	0x3
 5891 19f1 0B       		.uleb128 0xb
 5892 19f2 4F010000 		.4byte	.LASF709
 5893 19f6 0A       		.byte	0xa
ARM GAS  C:\Users\AHMED~1.ELE\AppData\Local\Temp\cc0wYKcg.s 			page 131


 5894 19f7 3F       		.byte	0x3f
 5895 19f8 A2000000 		.4byte	0xa2
 5896 19fc 04       		.byte	0x4
 5897 19fd 0B       		.uleb128 0xb
 5898 19fe 3A000000 		.4byte	.LASF710
 5899 1a02 0A       		.byte	0xa
 5900 1a03 40       		.byte	0x40
 5901 1a04 A2000000 		.4byte	0xa2
 5902 1a08 05       		.byte	0x5
 5903 1a09 0B       		.uleb128 0xb
 5904 1a0a 3E010000 		.4byte	.LASF711
 5905 1a0e 0A       		.byte	0xa
 5906 1a0f 41       		.byte	0x41
 5907 1a10 A2000000 		.4byte	0xa2
 5908 1a14 06       		.byte	0x6
 5909 1a15 00       		.byte	0
 5910 1a16 14       		.uleb128 0x14
 5911 1a17 0F3E0000 		.4byte	.LASF712
 5912 1a1b 7401     		.2byte	0x174
 5913 1a1d 0B       		.byte	0xb
 5914 1a1e 5C       		.byte	0x5c
 5915 1a1f 841A0000 		.4byte	0x1a84
 5916 1a23 0B       		.uleb128 0xb
 5917 1a24 45290000 		.4byte	.LASF713
 5918 1a28 0B       		.byte	0xb
 5919 1a29 5D       		.byte	0x5d
 5920 1a2a BD010000 		.4byte	0x1bd
 5921 1a2e 00       		.byte	0
 5922 1a2f 0B       		.uleb128 0xb
 5923 1a30 7F020000 		.4byte	.LASF714
 5924 1a34 0B       		.byte	0xb
 5925 1a35 5E       		.byte	0x5e
 5926 1a36 A2000000 		.4byte	0xa2
 5927 1a3a 10       		.byte	0x10
 5928 1a3b 0B       		.uleb128 0xb
 5929 1a3c 91230000 		.4byte	.LASF715
 5930 1a40 0B       		.byte	0xb
 5931 1a41 5F       		.byte	0x5f
 5932 1a42 AA0E0000 		.4byte	0xeaa
 5933 1a46 11       		.byte	0x11
 5934 1a47 0B       		.uleb128 0xb
 5935 1a48 D70C0000 		.4byte	.LASF716
 5936 1a4c 0B       		.byte	0xb
 5937 1a4d 60       		.byte	0x60
 5938 1a4e 6D010000 		.4byte	0x16d
 5939 1a52 18       		.byte	0x18
 5940 1a53 0B       		.uleb128 0xb
 5941 1a54 100D0000 		.4byte	.LASF717
 5942 1a58 0B       		.byte	0xb
 5943 1a59 61       		.byte	0x61
 5944 1a5a D9000000 		.4byte	0xd9
 5945 1a5e 1D       		.byte	0x1d
 5946 1a5f 0B       		.uleb128 0xb
 5947 1a60 D81D0000 		.4byte	.LASF718
 5948 1a64 0B       		.byte	0xb
 5949 1a65 62       		.byte	0x62
 5950 1a66 CD010000 		.4byte	0x1cd
ARM GAS  C:\Users\AHMED~1.ELE\AppData\Local\Temp\cc0wYKcg.s 			page 132


 5951 1a6a 1F       		.byte	0x1f
 5952 1a6b 0B       		.uleb128 0xb
 5953 1a6c C0050000 		.4byte	.LASF719
 5954 1a70 0B       		.byte	0xb
 5955 1a71 63       		.byte	0x63
 5956 1a72 AD000000 		.4byte	0xad
 5957 1a76 28       		.byte	0x28
 5958 1a77 0B       		.uleb128 0xb
 5959 1a78 62390000 		.4byte	.LASF720
 5960 1a7c 0B       		.byte	0xb
 5961 1a7d 64       		.byte	0x64
 5962 1a7e 841A0000 		.4byte	0x1a84
 5963 1a82 2A       		.byte	0x2a
 5964 1a83 00       		.byte	0
 5965 1a84 08       		.uleb128 0x8
 5966 1a85 A2000000 		.4byte	0xa2
 5967 1a89 951A0000 		.4byte	0x1a95
 5968 1a8d 15       		.uleb128 0x15
 5969 1a8e 78000000 		.4byte	0x78
 5970 1a92 4901     		.2byte	0x149
 5971 1a94 00       		.byte	0
 5972 1a95 14       		.uleb128 0x14
 5973 1a96 C3410000 		.4byte	.LASF721
 5974 1a9a 0002     		.2byte	0x200
 5975 1a9c 0B       		.byte	0xb
 5976 1a9d 67       		.byte	0x67
 5977 1a9e D01B0000 		.4byte	0x1bd0
 5978 1aa2 0B       		.uleb128 0xb
 5979 1aa3 6C030000 		.4byte	.LASF722
 5980 1aa7 0B       		.byte	0xb
 5981 1aa8 68       		.byte	0x68
 5982 1aa9 A2000000 		.4byte	0xa2
 5983 1aad 00       		.byte	0
 5984 1aae 0B       		.uleb128 0xb
 5985 1aaf 91170000 		.4byte	.LASF723
 5986 1ab3 0B       		.byte	0xb
 5987 1ab4 68       		.byte	0x68
 5988 1ab5 A2000000 		.4byte	0xa2
 5989 1ab9 01       		.byte	0x1
 5990 1aba 0B       		.uleb128 0xb
 5991 1abb 96210000 		.4byte	.LASF724
 5992 1abf 0B       		.byte	0xb
 5993 1ac0 68       		.byte	0x68
 5994 1ac1 A2000000 		.4byte	0xa2
 5995 1ac5 02       		.byte	0x2
 5996 1ac6 0B       		.uleb128 0xb
 5997 1ac7 36020000 		.4byte	.LASF582
 5998 1acb 0B       		.byte	0xb
 5999 1acc 68       		.byte	0x68
 6000 1acd 7D010000 		.4byte	0x17d
 6001 1ad1 03       		.byte	0x3
 6002 1ad2 0B       		.uleb128 0xb
 6003 1ad3 611C0000 		.4byte	.LASF725
 6004 1ad7 0B       		.byte	0xb
 6005 1ad8 68       		.byte	0x68
 6006 1ad9 A2000000 		.4byte	0xa2
 6007 1add 06       		.byte	0x6
ARM GAS  C:\Users\AHMED~1.ELE\AppData\Local\Temp\cc0wYKcg.s 			page 133


 6008 1ade 0B       		.uleb128 0xb
 6009 1adf F6120000 		.4byte	.LASF583
 6010 1ae3 0B       		.byte	0xb
 6011 1ae4 68       		.byte	0x68
 6012 1ae5 7D010000 		.4byte	0x17d
 6013 1ae9 07       		.byte	0x7
 6014 1aea 0B       		.uleb128 0xb
 6015 1aeb 722E0000 		.4byte	.LASF726
 6016 1aef 0B       		.byte	0xb
 6017 1af0 68       		.byte	0x68
 6018 1af1 9D010000 		.4byte	0x19d
 6019 1af5 0A       		.byte	0xa
 6020 1af6 0B       		.uleb128 0xb
 6021 1af7 973C0000 		.4byte	.LASF727
 6022 1afb 0B       		.byte	0xb
 6023 1afc 68       		.byte	0x68
 6024 1afd D9000000 		.4byte	0xd9
 6025 1b01 14       		.byte	0x14
 6026 1b02 0B       		.uleb128 0xb
 6027 1b03 C53C0000 		.4byte	.LASF728
 6028 1b07 0B       		.byte	0xb
 6029 1b08 68       		.byte	0x68
 6030 1b09 A2000000 		.4byte	0xa2
 6031 1b0d 16       		.byte	0x16
 6032 1b0e 0B       		.uleb128 0xb
 6033 1b0f 98350000 		.4byte	.LASF729
 6034 1b13 0B       		.byte	0xb
 6035 1b14 68       		.byte	0x68
 6036 1b15 C3000000 		.4byte	0xc3
 6037 1b19 18       		.byte	0x18
 6038 1b1a 0B       		.uleb128 0xb
 6039 1b1b 27260000 		.4byte	.LASF730
 6040 1b1f 0B       		.byte	0xb
 6041 1b20 68       		.byte	0x68
 6042 1b21 C3000000 		.4byte	0xc3
 6043 1b25 20       		.byte	0x20
 6044 1b26 0B       		.uleb128 0xb
 6045 1b27 671D0000 		.4byte	.LASF731
 6046 1b2b 0B       		.byte	0xb
 6047 1b2c 68       		.byte	0x68
 6048 1b2d C3000000 		.4byte	0xc3
 6049 1b31 28       		.byte	0x28
 6050 1b32 0B       		.uleb128 0xb
 6051 1b33 34170000 		.4byte	.LASF732
 6052 1b37 0B       		.byte	0xb
 6053 1b38 68       		.byte	0x68
 6054 1b39 EF000000 		.4byte	0xef
 6055 1b3d 30       		.byte	0x30
 6056 1b3e 0B       		.uleb128 0xb
 6057 1b3f 10400000 		.4byte	.LASF733
 6058 1b43 0B       		.byte	0xb
 6059 1b44 68       		.byte	0x68
 6060 1b45 A2000000 		.4byte	0xa2
 6061 1b49 34       		.byte	0x34
 6062 1b4a 0B       		.uleb128 0xb
 6063 1b4b 6F350000 		.4byte	.LASF734
 6064 1b4f 0B       		.byte	0xb
ARM GAS  C:\Users\AHMED~1.ELE\AppData\Local\Temp\cc0wYKcg.s 			page 134


 6065 1b50 68       		.byte	0x68
 6066 1b51 D01B0000 		.4byte	0x1bd0
 6067 1b55 35       		.byte	0x35
 6068 1b56 0B       		.uleb128 0xb
 6069 1b57 13390000 		.4byte	.LASF735
 6070 1b5b 0B       		.byte	0xb
 6071 1b5c 68       		.byte	0x68
 6072 1b5d BD010000 		.4byte	0x1bd
 6073 1b61 4F       		.byte	0x4f
 6074 1b62 0B       		.uleb128 0xb
 6075 1b63 303D0000 		.4byte	.LASF736
 6076 1b67 0B       		.byte	0xb
 6077 1b68 68       		.byte	0x68
 6078 1b69 C10E0000 		.4byte	0xec1
 6079 1b6d 5F       		.byte	0x5f
 6080 1b6e 0B       		.uleb128 0xb
 6081 1b6f B3280000 		.4byte	.LASF737
 6082 1b73 0B       		.byte	0xb
 6083 1b74 68       		.byte	0x68
 6084 1b75 AD000000 		.4byte	0xad
 6085 1b79 66       		.byte	0x66
 6086 1b7a 0B       		.uleb128 0xb
 6087 1b7b 76220000 		.4byte	.LASF738
 6088 1b7f 0B       		.byte	0xb
 6089 1b80 68       		.byte	0x68
 6090 1b81 A2000000 		.4byte	0xa2
 6091 1b85 68       		.byte	0x68
 6092 1b86 0B       		.uleb128 0xb
 6093 1b87 B13E0000 		.4byte	.LASF739
 6094 1b8b 0B       		.byte	0xb
 6095 1b8c 68       		.byte	0x68
 6096 1b8d A7140000 		.4byte	0x14a7
 6097 1b91 69       		.byte	0x69
 6098 1b92 0B       		.uleb128 0xb
 6099 1b93 70330000 		.4byte	.LASF740
 6100 1b97 0B       		.byte	0xb
 6101 1b98 68       		.byte	0x68
 6102 1b99 AD000000 		.4byte	0xad
 6103 1b9d 76       		.byte	0x76
 6104 1b9e 0B       		.uleb128 0xb
 6105 1b9f 171D0000 		.4byte	.LASF741
 6106 1ba3 0B       		.byte	0xb
 6107 1ba4 68       		.byte	0x68
 6108 1ba5 AD000000 		.4byte	0xad
 6109 1ba9 78       		.byte	0x78
 6110 1baa 0B       		.uleb128 0xb
 6111 1bab 71110000 		.4byte	.LASF742
 6112 1baf 0B       		.byte	0xb
 6113 1bb0 68       		.byte	0x68
 6114 1bb1 B5190000 		.4byte	0x19b5
 6115 1bb5 7C       		.byte	0x7c
 6116 1bb6 0B       		.uleb128 0xb
 6117 1bb7 56010000 		.4byte	.LASF743
 6118 1bbb 0B       		.byte	0xb
 6119 1bbc 68       		.byte	0x68
 6120 1bbd 161A0000 		.4byte	0x1a16
 6121 1bc1 84       		.byte	0x84
ARM GAS  C:\Users\AHMED~1.ELE\AppData\Local\Temp\cc0wYKcg.s 			page 135


 6122 1bc2 1B       		.uleb128 0x1b
 6123 1bc3 C3140000 		.4byte	.LASF627
 6124 1bc7 0B       		.byte	0xb
 6125 1bc8 69       		.byte	0x69
 6126 1bc9 AD000000 		.4byte	0xad
 6127 1bcd F801     		.2byte	0x1f8
 6128 1bcf 00       		.byte	0
 6129 1bd0 08       		.uleb128 0x8
 6130 1bd1 A2000000 		.4byte	0xa2
 6131 1bd5 E01B0000 		.4byte	0x1be0
 6132 1bd9 09       		.uleb128 0x9
 6133 1bda 78000000 		.4byte	0x78
 6134 1bde 19       		.byte	0x19
 6135 1bdf 00       		.byte	0
 6136 1be0 14       		.uleb128 0x14
 6137 1be1 74280000 		.4byte	.LASF744
 6138 1be5 F801     		.2byte	0x1f8
 6139 1be7 0B       		.byte	0xb
 6140 1be8 6C       		.byte	0x6c
 6141 1be9 0E1D0000 		.4byte	0x1d0e
 6142 1bed 0B       		.uleb128 0xb
 6143 1bee 6C030000 		.4byte	.LASF722
 6144 1bf2 0B       		.byte	0xb
 6145 1bf3 6D       		.byte	0x6d
 6146 1bf4 A2000000 		.4byte	0xa2
 6147 1bf8 00       		.byte	0
 6148 1bf9 0B       		.uleb128 0xb
 6149 1bfa 91170000 		.4byte	.LASF723
 6150 1bfe 0B       		.byte	0xb
 6151 1bff 6D       		.byte	0x6d
 6152 1c00 A2000000 		.4byte	0xa2
 6153 1c04 01       		.byte	0x1
 6154 1c05 0B       		.uleb128 0xb
 6155 1c06 96210000 		.4byte	.LASF724
 6156 1c0a 0B       		.byte	0xb
 6157 1c0b 6D       		.byte	0x6d
 6158 1c0c A2000000 		.4byte	0xa2
 6159 1c10 02       		.byte	0x2
 6160 1c11 0B       		.uleb128 0xb
 6161 1c12 36020000 		.4byte	.LASF582
 6162 1c16 0B       		.byte	0xb
 6163 1c17 6D       		.byte	0x6d
 6164 1c18 7D010000 		.4byte	0x17d
 6165 1c1c 03       		.byte	0x3
 6166 1c1d 0B       		.uleb128 0xb
 6167 1c1e 611C0000 		.4byte	.LASF725
 6168 1c22 0B       		.byte	0xb
 6169 1c23 6D       		.byte	0x6d
 6170 1c24 A2000000 		.4byte	0xa2
 6171 1c28 06       		.byte	0x6
 6172 1c29 0B       		.uleb128 0xb
 6173 1c2a F6120000 		.4byte	.LASF583
 6174 1c2e 0B       		.byte	0xb
 6175 1c2f 6D       		.byte	0x6d
 6176 1c30 7D010000 		.4byte	0x17d
 6177 1c34 07       		.byte	0x7
 6178 1c35 0B       		.uleb128 0xb
ARM GAS  C:\Users\AHMED~1.ELE\AppData\Local\Temp\cc0wYKcg.s 			page 136


 6179 1c36 722E0000 		.4byte	.LASF726
 6180 1c3a 0B       		.byte	0xb
 6181 1c3b 6D       		.byte	0x6d
 6182 1c3c 9D010000 		.4byte	0x19d
 6183 1c40 0A       		.byte	0xa
 6184 1c41 0B       		.uleb128 0xb
 6185 1c42 973C0000 		.4byte	.LASF727
 6186 1c46 0B       		.byte	0xb
 6187 1c47 6D       		.byte	0x6d
 6188 1c48 D9000000 		.4byte	0xd9
 6189 1c4c 14       		.byte	0x14
 6190 1c4d 0B       		.uleb128 0xb
 6191 1c4e C53C0000 		.4byte	.LASF728
 6192 1c52 0B       		.byte	0xb
 6193 1c53 6D       		.byte	0x6d
 6194 1c54 A2000000 		.4byte	0xa2
 6195 1c58 16       		.byte	0x16
 6196 1c59 0B       		.uleb128 0xb
 6197 1c5a 98350000 		.4byte	.LASF729
 6198 1c5e 0B       		.byte	0xb
 6199 1c5f 6D       		.byte	0x6d
 6200 1c60 C3000000 		.4byte	0xc3
 6201 1c64 18       		.byte	0x18
 6202 1c65 0B       		.uleb128 0xb
 6203 1c66 27260000 		.4byte	.LASF730
 6204 1c6a 0B       		.byte	0xb
 6205 1c6b 6D       		.byte	0x6d
 6206 1c6c C3000000 		.4byte	0xc3
 6207 1c70 20       		.byte	0x20
 6208 1c71 0B       		.uleb128 0xb
 6209 1c72 671D0000 		.4byte	.LASF731
 6210 1c76 0B       		.byte	0xb
 6211 1c77 6D       		.byte	0x6d
 6212 1c78 C3000000 		.4byte	0xc3
 6213 1c7c 28       		.byte	0x28
 6214 1c7d 0B       		.uleb128 0xb
 6215 1c7e 34170000 		.4byte	.LASF732
 6216 1c82 0B       		.byte	0xb
 6217 1c83 6D       		.byte	0x6d
 6218 1c84 EF000000 		.4byte	0xef
 6219 1c88 30       		.byte	0x30
 6220 1c89 0B       		.uleb128 0xb
 6221 1c8a 10400000 		.4byte	.LASF733
 6222 1c8e 0B       		.byte	0xb
 6223 1c8f 6D       		.byte	0x6d
 6224 1c90 A2000000 		.4byte	0xa2
 6225 1c94 34       		.byte	0x34
 6226 1c95 0B       		.uleb128 0xb
 6227 1c96 6F350000 		.4byte	.LASF734
 6228 1c9a 0B       		.byte	0xb
 6229 1c9b 6D       		.byte	0x6d
 6230 1c9c D01B0000 		.4byte	0x1bd0
 6231 1ca0 35       		.byte	0x35
 6232 1ca1 0B       		.uleb128 0xb
 6233 1ca2 13390000 		.4byte	.LASF735
 6234 1ca6 0B       		.byte	0xb
 6235 1ca7 6D       		.byte	0x6d
ARM GAS  C:\Users\AHMED~1.ELE\AppData\Local\Temp\cc0wYKcg.s 			page 137


 6236 1ca8 BD010000 		.4byte	0x1bd
 6237 1cac 4F       		.byte	0x4f
 6238 1cad 0B       		.uleb128 0xb
 6239 1cae 303D0000 		.4byte	.LASF736
 6240 1cb2 0B       		.byte	0xb
 6241 1cb3 6D       		.byte	0x6d
 6242 1cb4 C10E0000 		.4byte	0xec1
 6243 1cb8 5F       		.byte	0x5f
 6244 1cb9 0B       		.uleb128 0xb
 6245 1cba B3280000 		.4byte	.LASF737
 6246 1cbe 0B       		.byte	0xb
 6247 1cbf 6D       		.byte	0x6d
 6248 1cc0 AD000000 		.4byte	0xad
 6249 1cc4 66       		.byte	0x66
 6250 1cc5 0B       		.uleb128 0xb
 6251 1cc6 76220000 		.4byte	.LASF738
 6252 1cca 0B       		.byte	0xb
 6253 1ccb 6D       		.byte	0x6d
 6254 1ccc A2000000 		.4byte	0xa2
 6255 1cd0 68       		.byte	0x68
 6256 1cd1 0B       		.uleb128 0xb
 6257 1cd2 B13E0000 		.4byte	.LASF739
 6258 1cd6 0B       		.byte	0xb
 6259 1cd7 6D       		.byte	0x6d
 6260 1cd8 A7140000 		.4byte	0x14a7
 6261 1cdc 69       		.byte	0x69
 6262 1cdd 0B       		.uleb128 0xb
 6263 1cde 70330000 		.4byte	.LASF740
 6264 1ce2 0B       		.byte	0xb
 6265 1ce3 6D       		.byte	0x6d
 6266 1ce4 AD000000 		.4byte	0xad
 6267 1ce8 76       		.byte	0x76
 6268 1ce9 0B       		.uleb128 0xb
 6269 1cea 171D0000 		.4byte	.LASF741
 6270 1cee 0B       		.byte	0xb
 6271 1cef 6D       		.byte	0x6d
 6272 1cf0 AD000000 		.4byte	0xad
 6273 1cf4 78       		.byte	0x78
 6274 1cf5 0B       		.uleb128 0xb
 6275 1cf6 71110000 		.4byte	.LASF742
 6276 1cfa 0B       		.byte	0xb
 6277 1cfb 6D       		.byte	0x6d
 6278 1cfc B5190000 		.4byte	0x19b5
 6279 1d00 7C       		.byte	0x7c
 6280 1d01 0B       		.uleb128 0xb
 6281 1d02 56010000 		.4byte	.LASF743
 6282 1d06 0B       		.byte	0xb
 6283 1d07 6D       		.byte	0x6d
 6284 1d08 161A0000 		.4byte	0x1a16
 6285 1d0c 84       		.byte	0x84
 6286 1d0d 00       		.byte	0
 6287 1d0e 14       		.uleb128 0x14
 6288 1d0f 17430000 		.4byte	.LASF745
 6289 1d13 0802     		.2byte	0x208
 6290 1d15 0B       		.byte	0xb
 6291 1d16 70       		.byte	0x70
 6292 1d17 561E0000 		.4byte	0x1e56
ARM GAS  C:\Users\AHMED~1.ELE\AppData\Local\Temp\cc0wYKcg.s 			page 138


 6293 1d1b 0B       		.uleb128 0xb
 6294 1d1c 6C030000 		.4byte	.LASF722
 6295 1d20 0B       		.byte	0xb
 6296 1d21 71       		.byte	0x71
 6297 1d22 A2000000 		.4byte	0xa2
 6298 1d26 00       		.byte	0
 6299 1d27 0B       		.uleb128 0xb
 6300 1d28 91170000 		.4byte	.LASF723
 6301 1d2c 0B       		.byte	0xb
 6302 1d2d 71       		.byte	0x71
 6303 1d2e A2000000 		.4byte	0xa2
 6304 1d32 01       		.byte	0x1
 6305 1d33 0B       		.uleb128 0xb
 6306 1d34 96210000 		.4byte	.LASF724
 6307 1d38 0B       		.byte	0xb
 6308 1d39 71       		.byte	0x71
 6309 1d3a A2000000 		.4byte	0xa2
 6310 1d3e 02       		.byte	0x2
 6311 1d3f 0B       		.uleb128 0xb
 6312 1d40 36020000 		.4byte	.LASF582
 6313 1d44 0B       		.byte	0xb
 6314 1d45 71       		.byte	0x71
 6315 1d46 7D010000 		.4byte	0x17d
 6316 1d4a 03       		.byte	0x3
 6317 1d4b 0B       		.uleb128 0xb
 6318 1d4c 611C0000 		.4byte	.LASF725
 6319 1d50 0B       		.byte	0xb
 6320 1d51 71       		.byte	0x71
 6321 1d52 A2000000 		.4byte	0xa2
 6322 1d56 06       		.byte	0x6
 6323 1d57 0B       		.uleb128 0xb
 6324 1d58 F6120000 		.4byte	.LASF583
 6325 1d5c 0B       		.byte	0xb
 6326 1d5d 71       		.byte	0x71
 6327 1d5e 7D010000 		.4byte	0x17d
 6328 1d62 07       		.byte	0x7
 6329 1d63 0B       		.uleb128 0xb
 6330 1d64 722E0000 		.4byte	.LASF726
 6331 1d68 0B       		.byte	0xb
 6332 1d69 71       		.byte	0x71
 6333 1d6a 9D010000 		.4byte	0x19d
 6334 1d6e 0A       		.byte	0xa
 6335 1d6f 0B       		.uleb128 0xb
 6336 1d70 973C0000 		.4byte	.LASF727
 6337 1d74 0B       		.byte	0xb
 6338 1d75 71       		.byte	0x71
 6339 1d76 D9000000 		.4byte	0xd9
 6340 1d7a 14       		.byte	0x14
 6341 1d7b 0B       		.uleb128 0xb
 6342 1d7c C53C0000 		.4byte	.LASF728
 6343 1d80 0B       		.byte	0xb
 6344 1d81 71       		.byte	0x71
 6345 1d82 A2000000 		.4byte	0xa2
 6346 1d86 16       		.byte	0x16
 6347 1d87 0B       		.uleb128 0xb
 6348 1d88 98350000 		.4byte	.LASF729
 6349 1d8c 0B       		.byte	0xb
ARM GAS  C:\Users\AHMED~1.ELE\AppData\Local\Temp\cc0wYKcg.s 			page 139


 6350 1d8d 71       		.byte	0x71
 6351 1d8e C3000000 		.4byte	0xc3
 6352 1d92 18       		.byte	0x18
 6353 1d93 0B       		.uleb128 0xb
 6354 1d94 27260000 		.4byte	.LASF730
 6355 1d98 0B       		.byte	0xb
 6356 1d99 71       		.byte	0x71
 6357 1d9a C3000000 		.4byte	0xc3
 6358 1d9e 20       		.byte	0x20
 6359 1d9f 0B       		.uleb128 0xb
 6360 1da0 671D0000 		.4byte	.LASF731
 6361 1da4 0B       		.byte	0xb
 6362 1da5 71       		.byte	0x71
 6363 1da6 C3000000 		.4byte	0xc3
 6364 1daa 28       		.byte	0x28
 6365 1dab 0B       		.uleb128 0xb
 6366 1dac 34170000 		.4byte	.LASF732
 6367 1db0 0B       		.byte	0xb
 6368 1db1 71       		.byte	0x71
 6369 1db2 EF000000 		.4byte	0xef
 6370 1db6 30       		.byte	0x30
 6371 1db7 0B       		.uleb128 0xb
 6372 1db8 10400000 		.4byte	.LASF733
 6373 1dbc 0B       		.byte	0xb
 6374 1dbd 71       		.byte	0x71
 6375 1dbe A2000000 		.4byte	0xa2
 6376 1dc2 34       		.byte	0x34
 6377 1dc3 0B       		.uleb128 0xb
 6378 1dc4 6F350000 		.4byte	.LASF734
 6379 1dc8 0B       		.byte	0xb
 6380 1dc9 71       		.byte	0x71
 6381 1dca D01B0000 		.4byte	0x1bd0
 6382 1dce 35       		.byte	0x35
 6383 1dcf 0B       		.uleb128 0xb
 6384 1dd0 13390000 		.4byte	.LASF735
 6385 1dd4 0B       		.byte	0xb
 6386 1dd5 71       		.byte	0x71
 6387 1dd6 BD010000 		.4byte	0x1bd
 6388 1dda 4F       		.byte	0x4f
 6389 1ddb 0B       		.uleb128 0xb
 6390 1ddc 303D0000 		.4byte	.LASF736
 6391 1de0 0B       		.byte	0xb
 6392 1de1 71       		.byte	0x71
 6393 1de2 C10E0000 		.4byte	0xec1
 6394 1de6 5F       		.byte	0x5f
 6395 1de7 0B       		.uleb128 0xb
 6396 1de8 B3280000 		.4byte	.LASF737
 6397 1dec 0B       		.byte	0xb
 6398 1ded 71       		.byte	0x71
 6399 1dee AD000000 		.4byte	0xad
 6400 1df2 66       		.byte	0x66
 6401 1df3 0B       		.uleb128 0xb
 6402 1df4 76220000 		.4byte	.LASF738
 6403 1df8 0B       		.byte	0xb
 6404 1df9 71       		.byte	0x71
 6405 1dfa A2000000 		.4byte	0xa2
 6406 1dfe 68       		.byte	0x68
ARM GAS  C:\Users\AHMED~1.ELE\AppData\Local\Temp\cc0wYKcg.s 			page 140


 6407 1dff 0B       		.uleb128 0xb
 6408 1e00 B13E0000 		.4byte	.LASF739
 6409 1e04 0B       		.byte	0xb
 6410 1e05 71       		.byte	0x71
 6411 1e06 A7140000 		.4byte	0x14a7
 6412 1e0a 69       		.byte	0x69
 6413 1e0b 0B       		.uleb128 0xb
 6414 1e0c 70330000 		.4byte	.LASF740
 6415 1e10 0B       		.byte	0xb
 6416 1e11 71       		.byte	0x71
 6417 1e12 AD000000 		.4byte	0xad
 6418 1e16 76       		.byte	0x76
 6419 1e17 0B       		.uleb128 0xb
 6420 1e18 171D0000 		.4byte	.LASF741
 6421 1e1c 0B       		.byte	0xb
 6422 1e1d 71       		.byte	0x71
 6423 1e1e AD000000 		.4byte	0xad
 6424 1e22 78       		.byte	0x78
 6425 1e23 0B       		.uleb128 0xb
 6426 1e24 71110000 		.4byte	.LASF742
 6427 1e28 0B       		.byte	0xb
 6428 1e29 71       		.byte	0x71
 6429 1e2a B5190000 		.4byte	0x19b5
 6430 1e2e 7C       		.byte	0x7c
 6431 1e2f 0B       		.uleb128 0xb
 6432 1e30 56010000 		.4byte	.LASF743
 6433 1e34 0B       		.byte	0xb
 6434 1e35 71       		.byte	0x71
 6435 1e36 161A0000 		.4byte	0x1a16
 6436 1e3a 84       		.byte	0x84
 6437 1e3b 1B       		.uleb128 0x1b
 6438 1e3c 34380000 		.4byte	.LASF746
 6439 1e40 0B       		.byte	0xb
 6440 1e41 72       		.byte	0x72
 6441 1e42 A2000000 		.4byte	0xa2
 6442 1e46 F801     		.2byte	0x1f8
 6443 1e48 1B       		.uleb128 0x1b
 6444 1e49 722A0000 		.4byte	.LASF747
 6445 1e4d 0B       		.byte	0xb
 6446 1e4e 73       		.byte	0x73
 6447 1e4f C3000000 		.4byte	0xc3
 6448 1e53 0002     		.2byte	0x200
 6449 1e55 00       		.byte	0
 6450 1e56 1A       		.uleb128 0x1a
 6451 1e57 1E370000 		.4byte	.LASF748
 6452 1e5b 10       		.byte	0x10
 6453 1e5c 0B       		.byte	0xb
 6454 1e5d 76       		.byte	0x76
 6455 1e5e 7B1E0000 		.4byte	0x1e7b
 6456 1e62 0B       		.uleb128 0xb
 6457 1e63 ED1C0000 		.4byte	.LASF749
 6458 1e67 0B       		.byte	0xb
 6459 1e68 77       		.byte	0x77
 6460 1e69 AD000000 		.4byte	0xad
 6461 1e6d 00       		.byte	0
 6462 1e6e 0B       		.uleb128 0xb
 6463 1e6f 98350000 		.4byte	.LASF729
ARM GAS  C:\Users\AHMED~1.ELE\AppData\Local\Temp\cc0wYKcg.s 			page 141


 6464 1e73 0B       		.byte	0xb
 6465 1e74 78       		.byte	0x78
 6466 1e75 C3000000 		.4byte	0xc3
 6467 1e79 08       		.byte	0x8
 6468 1e7a 00       		.byte	0
 6469 1e7b 1A       		.uleb128 0x1a
 6470 1e7c 62180000 		.4byte	.LASF750
 6471 1e80 68       		.byte	0x68
 6472 1e81 0B       		.byte	0xb
 6473 1e82 7B       		.byte	0x7b
 6474 1e83 DC1E0000 		.4byte	0x1edc
 6475 1e87 0B       		.uleb128 0xb
 6476 1e88 29070000 		.4byte	.LASF751
 6477 1e8c 0B       		.byte	0xb
 6478 1e8d 7C       		.byte	0x7c
 6479 1e8e B8000000 		.4byte	0xb8
 6480 1e92 00       		.byte	0
 6481 1e93 0B       		.uleb128 0xb
 6482 1e94 E21C0000 		.4byte	.LASF752
 6483 1e98 0B       		.byte	0xb
 6484 1e99 7D       		.byte	0x7d
 6485 1e9a 561E0000 		.4byte	0x1e56
 6486 1e9e 08       		.byte	0x8
 6487 1e9f 0B       		.uleb128 0xb
 6488 1ea0 561C0000 		.4byte	.LASF753
 6489 1ea4 0B       		.byte	0xb
 6490 1ea5 7E       		.byte	0x7e
 6491 1ea6 561E0000 		.4byte	0x1e56
 6492 1eaa 18       		.byte	0x18
 6493 1eab 0B       		.uleb128 0xb
 6494 1eac D61F0000 		.4byte	.LASF754
 6495 1eb0 0B       		.byte	0xb
 6496 1eb1 7F       		.byte	0x7f
 6497 1eb2 561E0000 		.4byte	0x1e56
 6498 1eb6 28       		.byte	0x28
 6499 1eb7 0B       		.uleb128 0xb
 6500 1eb8 C0190000 		.4byte	.LASF755
 6501 1ebc 0B       		.byte	0xb
 6502 1ebd 80       		.byte	0x80
 6503 1ebe 561E0000 		.4byte	0x1e56
 6504 1ec2 38       		.byte	0x38
 6505 1ec3 0B       		.uleb128 0xb
 6506 1ec4 BD280000 		.4byte	.LASF756
 6507 1ec8 0B       		.byte	0xb
 6508 1ec9 81       		.byte	0x81
 6509 1eca 561E0000 		.4byte	0x1e56
 6510 1ece 48       		.byte	0x48
 6511 1ecf 0B       		.uleb128 0xb
 6512 1ed0 FB320000 		.4byte	.LASF757
 6513 1ed4 0B       		.byte	0xb
 6514 1ed5 82       		.byte	0x82
 6515 1ed6 561E0000 		.4byte	0x1e56
 6516 1eda 58       		.byte	0x58
 6517 1edb 00       		.byte	0
 6518 1edc 14       		.uleb128 0x14
 6519 1edd 5D0D0000 		.4byte	.LASF758
 6520 1ee1 5805     		.2byte	0x558
ARM GAS  C:\Users\AHMED~1.ELE\AppData\Local\Temp\cc0wYKcg.s 			page 142


 6521 1ee3 0B       		.byte	0xb
 6522 1ee4 87       		.byte	0x87
 6523 1ee5 2A1F0000 		.4byte	0x1f2a
 6524 1ee9 0B       		.uleb128 0xb
 6525 1eea 27060000 		.4byte	.LASF759
 6526 1eee 0B       		.byte	0xb
 6527 1eef 88       		.byte	0x88
 6528 1ef0 C7140000 		.4byte	0x14c7
 6529 1ef4 00       		.byte	0
 6530 1ef5 1B       		.uleb128 0x1b
 6531 1ef6 8F320000 		.4byte	.LASF760
 6532 1efa 0B       		.byte	0xb
 6533 1efb 89       		.byte	0x89
 6534 1efc 2A1F0000 		.4byte	0x1f2a
 6535 1f00 8801     		.2byte	0x188
 6536 1f02 1B       		.uleb128 0x1b
 6537 1f03 69420000 		.4byte	.LASF761
 6538 1f07 0B       		.byte	0xb
 6539 1f08 8A       		.byte	0x8a
 6540 1f09 3A1F0000 		.4byte	0x1f3a
 6541 1f0d 4803     		.2byte	0x348
 6542 1f0f 1B       		.uleb128 0x1b
 6543 1f10 F3190000 		.4byte	.LASF762
 6544 1f14 0B       		.byte	0xb
 6545 1f15 8B       		.byte	0x8b
 6546 1f16 4A1F0000 		.4byte	0x1f4a
 6547 1f1a A004     		.2byte	0x4a0
 6548 1f1c 1B       		.uleb128 0x1b
 6549 1f1d 6F2B0000 		.4byte	.LASF763
 6550 1f21 0B       		.byte	0xb
 6551 1f22 8C       		.byte	0x8c
 6552 1f23 5A1F0000 		.4byte	0x1f5a
 6553 1f27 1005     		.2byte	0x510
 6554 1f29 00       		.byte	0
 6555 1f2a 08       		.uleb128 0x8
 6556 1f2b 73190000 		.4byte	0x1973
 6557 1f2f 3A1F0000 		.4byte	0x1f3a
 6558 1f33 09       		.uleb128 0x9
 6559 1f34 78000000 		.4byte	0x78
 6560 1f38 0F       		.byte	0xf
 6561 1f39 00       		.byte	0
 6562 1f3a 08       		.uleb128 0x8
 6563 1f3b 8B170000 		.4byte	0x178b
 6564 1f3f 4A1F0000 		.4byte	0x1f4a
 6565 1f43 09       		.uleb128 0x9
 6566 1f44 78000000 		.4byte	0x78
 6567 1f48 01       		.byte	0x1
 6568 1f49 00       		.byte	0
 6569 1f4a 08       		.uleb128 0x8
 6570 1f4b 08170000 		.4byte	0x1708
 6571 1f4f 5A1F0000 		.4byte	0x1f5a
 6572 1f53 09       		.uleb128 0x9
 6573 1f54 78000000 		.4byte	0x78
 6574 1f58 01       		.byte	0x1
 6575 1f59 00       		.byte	0
 6576 1f5a 08       		.uleb128 0x8
 6577 1f5b 9F160000 		.4byte	0x169f
ARM GAS  C:\Users\AHMED~1.ELE\AppData\Local\Temp\cc0wYKcg.s 			page 143


 6578 1f5f 6A1F0000 		.4byte	0x1f6a
 6579 1f63 09       		.uleb128 0x9
 6580 1f64 78000000 		.4byte	0x78
 6581 1f68 01       		.byte	0x1
 6582 1f69 00       		.byte	0
 6583 1f6a 1A       		.uleb128 0x1a
 6584 1f6b F3420000 		.4byte	.LASF764
 6585 1f6f 04       		.byte	0x4
 6586 1f70 0B       		.byte	0xb
 6587 1f71 8F       		.byte	0x8f
 6588 1f72 8F1F0000 		.4byte	0x1f8f
 6589 1f76 0B       		.uleb128 0xb
 6590 1f77 23150000 		.4byte	.LASF765
 6591 1f7b 0B       		.byte	0xb
 6592 1f7c 90       		.byte	0x90
 6593 1f7d A2000000 		.4byte	0xa2
 6594 1f81 00       		.byte	0
 6595 1f82 0B       		.uleb128 0xb
 6596 1f83 2E280000 		.4byte	.LASF766
 6597 1f87 0B       		.byte	0xb
 6598 1f88 91       		.byte	0x91
 6599 1f89 A2000000 		.4byte	0xa2
 6600 1f8d 01       		.byte	0x1
 6601 1f8e 00       		.byte	0
 6602 1f8f 14       		.uleb128 0x14
 6603 1f90 BB140000 		.4byte	.LASF767
 6604 1f94 040C     		.2byte	0xc04
 6605 1f96 0B       		.byte	0xb
 6606 1f97 9C       		.byte	0x9c
 6607 1f98 B51F0000 		.4byte	0x1fb5
 6608 1f9c 0B       		.uleb128 0xb
 6609 1f9d 830E0000 		.4byte	.LASF768
 6610 1fa1 0B       		.byte	0xb
 6611 1fa2 9D       		.byte	0x9d
 6612 1fa3 B8000000 		.4byte	0xb8
 6613 1fa7 00       		.byte	0
 6614 1fa8 0B       		.uleb128 0xb
 6615 1fa9 8B0C0000 		.4byte	.LASF506
 6616 1fad 0B       		.byte	0xb
 6617 1fae 9E       		.byte	0x9e
 6618 1faf 6A110000 		.4byte	0x116a
 6619 1fb3 04       		.byte	0x4
 6620 1fb4 00       		.byte	0
 6621 1fb5 1C       		.uleb128 0x1c
 6622 1fb6 47445300 		.ascii	"GDS\000"
 6623 1fba 6042     		.2byte	0x4260
 6624 1fbc 0B       		.byte	0xb
 6625 1fbd A2       		.byte	0xa2
 6626 1fbe C6200000 		.4byte	0x20c6
 6627 1fc2 0B       		.uleb128 0xb
 6628 1fc3 01220000 		.4byte	.LASF769
 6629 1fc7 0B       		.byte	0xb
 6630 1fc8 A4       		.byte	0xa4
 6631 1fc9 DC1E0000 		.4byte	0x1edc
 6632 1fcd 00       		.byte	0
 6633 1fce 1B       		.uleb128 0x1b
 6634 1fcf C30A0000 		.4byte	.LASF770
ARM GAS  C:\Users\AHMED~1.ELE\AppData\Local\Temp\cc0wYKcg.s 			page 144


 6635 1fd3 0B       		.byte	0xb
 6636 1fd4 A5       		.byte	0xa5
 6637 1fd5 7B110000 		.4byte	0x117b
 6638 1fd9 5805     		.2byte	0x558
 6639 1fdb 1B       		.uleb128 0x1b
 6640 1fdc 2C270000 		.4byte	.LASF771
 6641 1fe0 0B       		.byte	0xb
 6642 1fe1 A7       		.byte	0xa7
 6643 1fe2 951A0000 		.4byte	0x1a95
 6644 1fe6 C806     		.2byte	0x6c8
 6645 1fe8 1B       		.uleb128 0x1b
 6646 1fe9 DC180000 		.4byte	.LASF772
 6647 1fed 0B       		.byte	0xb
 6648 1fee A8       		.byte	0xa8
 6649 1fef E01B0000 		.4byte	0x1be0
 6650 1ff3 C808     		.2byte	0x8c8
 6651 1ff5 1B       		.uleb128 0x1b
 6652 1ff6 CD3D0000 		.4byte	.LASF773
 6653 1ffa 0B       		.byte	0xb
 6654 1ffb A9       		.byte	0xa9
 6655 1ffc 0E1D0000 		.4byte	0x1d0e
 6656 2000 C00A     		.2byte	0xac0
 6657 2002 1B       		.uleb128 0x1b
 6658 2003 11200000 		.4byte	.LASF774
 6659 2007 0B       		.byte	0xb
 6660 2008 AA       		.byte	0xaa
 6661 2009 7B1E0000 		.4byte	0x1e7b
 6662 200d C80C     		.2byte	0xcc8
 6663 200f 1B       		.uleb128 0x1b
 6664 2010 0E420000 		.4byte	.LASF775
 6665 2014 0B       		.byte	0xb
 6666 2015 AB       		.byte	0xab
 6667 2016 7B1E0000 		.4byte	0x1e7b
 6668 201a 300D     		.2byte	0xd30
 6669 201c 1B       		.uleb128 0x1b
 6670 201d D30F0000 		.4byte	.LASF776
 6671 2021 0B       		.byte	0xb
 6672 2022 AC       		.byte	0xac
 6673 2023 8F1F0000 		.4byte	0x1f8f
 6674 2027 980D     		.2byte	0xd98
 6675 2029 1B       		.uleb128 0x1b
 6676 202a 8F0F0000 		.4byte	.LASF777
 6677 202e 0B       		.byte	0xb
 6678 202f AD       		.byte	0xad
 6679 2030 41110000 		.4byte	0x1141
 6680 2034 9C19     		.2byte	0x199c
 6681 2036 1B       		.uleb128 0x1b
 6682 2037 01330000 		.4byte	.LASF778
 6683 203b 0B       		.byte	0xb
 6684 203c AE       		.byte	0xae
 6685 203d 41110000 		.4byte	0x1141
 6686 2041 A025     		.2byte	0x25a0
 6687 2043 1B       		.uleb128 0x1b
 6688 2044 483C0000 		.4byte	.LASF779
 6689 2048 0B       		.byte	0xb
 6690 2049 AF       		.byte	0xaf
 6691 204a C6200000 		.4byte	0x20c6
ARM GAS  C:\Users\AHMED~1.ELE\AppData\Local\Temp\cc0wYKcg.s 			page 145


 6692 204e A431     		.2byte	0x31a4
 6693 2050 1B       		.uleb128 0x1b
 6694 2051 3F1C0000 		.4byte	.LASF780
 6695 2055 0B       		.byte	0xb
 6696 2056 B0       		.byte	0xb0
 6697 2057 20010000 		.4byte	0x120
 6698 205b 8037     		.2byte	0x3780
 6699 205d 1B       		.uleb128 0x1b
 6700 205e 67360000 		.4byte	.LASF781
 6701 2062 0B       		.byte	0xb
 6702 2063 B1       		.byte	0xb1
 6703 2064 20010000 		.4byte	0x120
 6704 2068 8837     		.2byte	0x3788
 6705 206a 1B       		.uleb128 0x1b
 6706 206b C82C0000 		.4byte	.LASF782
 6707 206f 0B       		.byte	0xb
 6708 2070 B2       		.byte	0xb2
 6709 2071 1E0F0000 		.4byte	0xf1e
 6710 2075 9037     		.2byte	0x3790
 6711 2077 1B       		.uleb128 0x1b
 6712 2078 EA040000 		.4byte	.LASF783
 6713 207c 0B       		.byte	0xb
 6714 207d B3       		.byte	0xb3
 6715 207e 1E0F0000 		.4byte	0xf1e
 6716 2082 9837     		.2byte	0x3798
 6717 2084 1B       		.uleb128 0x1b
 6718 2085 773A0000 		.4byte	.LASF784
 6719 2089 0B       		.byte	0xb
 6720 208a B4       		.byte	0xb4
 6721 208b D7200000 		.4byte	0x20d7
 6722 208f A037     		.2byte	0x37a0
 6723 2091 1B       		.uleb128 0x1b
 6724 2092 A3180000 		.4byte	.LASF785
 6725 2096 0B       		.byte	0xb
 6726 2097 B5       		.byte	0xb5
 6727 2098 97000000 		.4byte	0x97
 6728 209c 503C     		.2byte	0x3c50
 6729 209e 1B       		.uleb128 0x1b
 6730 209f AD3D0000 		.4byte	.LASF786
 6731 20a3 0B       		.byte	0xb
 6732 20a4 B6       		.byte	0xb6
 6733 20a5 6A1F0000 		.4byte	0x1f6a
 6734 20a9 543C     		.2byte	0x3c54
 6735 20ab 1B       		.uleb128 0x1b
 6736 20ac 21270000 		.4byte	.LASF787
 6737 20b0 0B       		.byte	0xb
 6738 20b1 B7       		.byte	0xb7
 6739 20b2 2A0F0000 		.4byte	0xf2a
 6740 20b6 583C     		.2byte	0x3c58
 6741 20b8 1B       		.uleb128 0x1b
 6742 20b9 2A380000 		.4byte	.LASF788
 6743 20bd 0B       		.byte	0xb
 6744 20be B8       		.byte	0xb8
 6745 20bf 5D000000 		.4byte	0x5d
 6746 20c3 5C42     		.2byte	0x425c
 6747 20c5 00       		.byte	0
 6748 20c6 08       		.uleb128 0x8
ARM GAS  C:\Users\AHMED~1.ELE\AppData\Local\Temp\cc0wYKcg.s 			page 146


 6749 20c7 A2000000 		.4byte	0xa2
 6750 20cb D7200000 		.4byte	0x20d7
 6751 20cf 15       		.uleb128 0x15
 6752 20d0 78000000 		.4byte	0x78
 6753 20d4 DB05     		.2byte	0x5db
 6754 20d6 00       		.byte	0
 6755 20d7 08       		.uleb128 0x8
 6756 20d8 62010000 		.4byte	0x162
 6757 20dc E7200000 		.4byte	0x20e7
 6758 20e0 09       		.uleb128 0x9
 6759 20e1 78000000 		.4byte	0x78
 6760 20e5 95       		.byte	0x95
 6761 20e6 00       		.byte	0
 6762 20e7 17       		.uleb128 0x17
 6763 20e8 01       		.byte	0x1
 6764 20e9 0C       		.byte	0xc
 6765 20ea 33       		.byte	0x33
 6766 20eb 99210000 		.4byte	0x2199
 6767 20ef 0E       		.uleb128 0xe
 6768 20f0 FE0B0000 		.4byte	.LASF789
 6769 20f4 00       		.sleb128 0
 6770 20f5 0E       		.uleb128 0xe
 6771 20f6 69070000 		.4byte	.LASF790
 6772 20fa 01       		.sleb128 1
 6773 20fb 0E       		.uleb128 0xe
 6774 20fc D4120000 		.4byte	.LASF791
 6775 2100 02       		.sleb128 2
 6776 2101 0E       		.uleb128 0xe
 6777 2102 FA350000 		.4byte	.LASF792
 6778 2106 03       		.sleb128 3
 6779 2107 0E       		.uleb128 0xe
 6780 2108 A52D0000 		.4byte	.LASF793
 6781 210c 04       		.sleb128 4
 6782 210d 0E       		.uleb128 0xe
 6783 210e CE000000 		.4byte	.LASF794
 6784 2112 05       		.sleb128 5
 6785 2113 0E       		.uleb128 0xe
 6786 2114 96000000 		.4byte	.LASF795
 6787 2118 06       		.sleb128 6
 6788 2119 0E       		.uleb128 0xe
 6789 211a 9C160000 		.4byte	.LASF796
 6790 211e 07       		.sleb128 7
 6791 211f 0E       		.uleb128 0xe
 6792 2120 AE030000 		.4byte	.LASF797
 6793 2124 08       		.sleb128 8
 6794 2125 0E       		.uleb128 0xe
 6795 2126 3B1A0000 		.4byte	.LASF798
 6796 212a 09       		.sleb128 9
 6797 212b 0E       		.uleb128 0xe
 6798 212c 8D290000 		.4byte	.LASF799
 6799 2130 0A       		.sleb128 10
 6800 2131 0E       		.uleb128 0xe
 6801 2132 B51E0000 		.4byte	.LASF800
 6802 2136 0B       		.sleb128 11
 6803 2137 0E       		.uleb128 0xe
 6804 2138 1C1B0000 		.4byte	.LASF801
 6805 213c 0C       		.sleb128 12
ARM GAS  C:\Users\AHMED~1.ELE\AppData\Local\Temp\cc0wYKcg.s 			page 147


 6806 213d 0E       		.uleb128 0xe
 6807 213e D6160000 		.4byte	.LASF802
 6808 2142 0D       		.sleb128 13
 6809 2143 0E       		.uleb128 0xe
 6810 2144 09170000 		.4byte	.LASF803
 6811 2148 0E       		.sleb128 14
 6812 2149 0E       		.uleb128 0xe
 6813 214a DF130000 		.4byte	.LASF804
 6814 214e 0F       		.sleb128 15
 6815 214f 0E       		.uleb128 0xe
 6816 2150 39270000 		.4byte	.LASF805
 6817 2154 10       		.sleb128 16
 6818 2155 0E       		.uleb128 0xe
 6819 2156 97290000 		.4byte	.LASF806
 6820 215a 11       		.sleb128 17
 6821 215b 0E       		.uleb128 0xe
 6822 215c E30B0000 		.4byte	.LASF807
 6823 2160 12       		.sleb128 18
 6824 2161 0E       		.uleb128 0xe
 6825 2162 8B010000 		.4byte	.LASF808
 6826 2166 13       		.sleb128 19
 6827 2167 0E       		.uleb128 0xe
 6828 2168 3C0A0000 		.4byte	.LASF809
 6829 216c 14       		.sleb128 20
 6830 216d 0E       		.uleb128 0xe
 6831 216e 5E1D0000 		.4byte	.LASF810
 6832 2172 15       		.sleb128 21
 6833 2173 0E       		.uleb128 0xe
 6834 2174 1C200000 		.4byte	.LASF811
 6835 2178 16       		.sleb128 22
 6836 2179 0E       		.uleb128 0xe
 6837 217a D6020000 		.4byte	.LASF812
 6838 217e 17       		.sleb128 23
 6839 217f 0E       		.uleb128 0xe
 6840 2180 4E190000 		.4byte	.LASF813
 6841 2184 18       		.sleb128 24
 6842 2185 0E       		.uleb128 0xe
 6843 2186 95360000 		.4byte	.LASF814
 6844 218a 19       		.sleb128 25
 6845 218b 0E       		.uleb128 0xe
 6846 218c ED350000 		.4byte	.LASF815
 6847 2190 1A       		.sleb128 26
 6848 2191 0E       		.uleb128 0xe
 6849 2192 5B420000 		.4byte	.LASF816
 6850 2196 FF01     		.sleb128 255
 6851 2198 00       		.byte	0
 6852 2199 1A       		.uleb128 0x1a
 6853 219a CB040000 		.4byte	.LASF817
 6854 219e 18       		.byte	0x18
 6855 219f 0C       		.byte	0xc
 6856 21a0 52       		.byte	0x52
 6857 21a1 FA210000 		.4byte	0x21fa
 6858 21a5 0B       		.uleb128 0xb
 6859 21a6 AB240000 		.4byte	.LASF818
 6860 21aa 0C       		.byte	0xc
 6861 21ab 53       		.byte	0x53
 6862 21ac AD000000 		.4byte	0xad
ARM GAS  C:\Users\AHMED~1.ELE\AppData\Local\Temp\cc0wYKcg.s 			page 148


 6863 21b0 00       		.byte	0
 6864 21b1 0B       		.uleb128 0xb
 6865 21b2 0C080000 		.4byte	.LASF819
 6866 21b6 0C       		.byte	0xc
 6867 21b7 54       		.byte	0x54
 6868 21b8 BD010000 		.4byte	0x1bd
 6869 21bc 02       		.byte	0x2
 6870 21bd 0B       		.uleb128 0xb
 6871 21be 75380000 		.4byte	.LASF820
 6872 21c2 0C       		.byte	0xc
 6873 21c3 55       		.byte	0x55
 6874 21c4 A2000000 		.4byte	0xa2
 6875 21c8 12       		.byte	0x12
 6876 21c9 0B       		.uleb128 0xb
 6877 21ca 97370000 		.4byte	.LASF821
 6878 21ce 0C       		.byte	0xc
 6879 21cf 56       		.byte	0x56
 6880 21d0 A2000000 		.4byte	0xa2
 6881 21d4 13       		.byte	0x13
 6882 21d5 0B       		.uleb128 0xb
 6883 21d6 34380000 		.4byte	.LASF746
 6884 21da 0C       		.byte	0xc
 6885 21db 57       		.byte	0x57
 6886 21dc A2000000 		.4byte	0xa2
 6887 21e0 14       		.byte	0x14
 6888 21e1 0B       		.uleb128 0xb
 6889 21e2 C1320000 		.4byte	.LASF822
 6890 21e6 0C       		.byte	0xc
 6891 21e7 58       		.byte	0x58
 6892 21e8 A2000000 		.4byte	0xa2
 6893 21ec 15       		.byte	0x15
 6894 21ed 0B       		.uleb128 0xb
 6895 21ee 682C0000 		.4byte	.LASF698
 6896 21f2 0C       		.byte	0xc
 6897 21f3 59       		.byte	0x59
 6898 21f4 A2000000 		.4byte	0xa2
 6899 21f8 16       		.byte	0x16
 6900 21f9 00       		.byte	0
 6901 21fa 17       		.uleb128 0x17
 6902 21fb 01       		.byte	0x1
 6903 21fc 0D       		.byte	0xd
 6904 21fd 34       		.byte	0x34
 6905 21fe CF250000 		.4byte	0x25cf
 6906 2202 0E       		.uleb128 0xe
 6907 2203 4E0B0000 		.4byte	.LASF823
 6908 2207 00       		.sleb128 0
 6909 2208 0E       		.uleb128 0xe
 6910 2209 CF0A0000 		.4byte	.LASF824
 6911 220d 01       		.sleb128 1
 6912 220e 0E       		.uleb128 0xe
 6913 220f 450A0000 		.4byte	.LASF825
 6914 2213 02       		.sleb128 2
 6915 2214 0E       		.uleb128 0xe
 6916 2215 8A330000 		.4byte	.LASF826
 6917 2219 03       		.sleb128 3
 6918 221a 0E       		.uleb128 0xe
 6919 221b 5E400000 		.4byte	.LASF827
ARM GAS  C:\Users\AHMED~1.ELE\AppData\Local\Temp\cc0wYKcg.s 			page 149


 6920 221f 04       		.sleb128 4
 6921 2220 0E       		.uleb128 0xe
 6922 2221 F82B0000 		.4byte	.LASF828
 6923 2225 05       		.sleb128 5
 6924 2226 0E       		.uleb128 0xe
 6925 2227 B50F0000 		.4byte	.LASF829
 6926 222b 06       		.sleb128 6
 6927 222c 0E       		.uleb128 0xe
 6928 222d 042C0000 		.4byte	.LASF830
 6929 2231 07       		.sleb128 7
 6930 2232 0E       		.uleb128 0xe
 6931 2233 12130000 		.4byte	.LASF831
 6932 2237 08       		.sleb128 8
 6933 2238 0E       		.uleb128 0xe
 6934 2239 9A2C0000 		.4byte	.LASF832
 6935 223d 09       		.sleb128 9
 6936 223e 0E       		.uleb128 0xe
 6937 223f 642E0000 		.4byte	.LASF833
 6938 2243 0A       		.sleb128 10
 6939 2244 0E       		.uleb128 0xe
 6940 2245 8A350000 		.4byte	.LASF834
 6941 2249 0B       		.sleb128 11
 6942 224a 0E       		.uleb128 0xe
 6943 224b CD030000 		.4byte	.LASF835
 6944 224f 0C       		.sleb128 12
 6945 2250 0E       		.uleb128 0xe
 6946 2251 E82B0000 		.4byte	.LASF836
 6947 2255 0D       		.sleb128 13
 6948 2256 0E       		.uleb128 0xe
 6949 2257 CE350000 		.4byte	.LASF837
 6950 225b 0E       		.sleb128 14
 6951 225c 0E       		.uleb128 0xe
 6952 225d 66090000 		.4byte	.LASF838
 6953 2261 0F       		.sleb128 15
 6954 2262 0E       		.uleb128 0xe
 6955 2263 53170000 		.4byte	.LASF839
 6956 2267 10       		.sleb128 16
 6957 2268 0E       		.uleb128 0xe
 6958 2269 DC280000 		.4byte	.LASF840
 6959 226d 11       		.sleb128 17
 6960 226e 0E       		.uleb128 0xe
 6961 226f 82170000 		.4byte	.LASF841
 6962 2273 12       		.sleb128 18
 6963 2274 0E       		.uleb128 0xe
 6964 2275 59060000 		.4byte	.LASF842
 6965 2279 13       		.sleb128 19
 6966 227a 0E       		.uleb128 0xe
 6967 227b B9070000 		.4byte	.LASF843
 6968 227f 14       		.sleb128 20
 6969 2280 0E       		.uleb128 0xe
 6970 2281 06060000 		.4byte	.LASF844
 6971 2285 15       		.sleb128 21
 6972 2286 0E       		.uleb128 0xe
 6973 2287 EA410000 		.4byte	.LASF845
 6974 228b 16       		.sleb128 22
 6975 228c 0E       		.uleb128 0xe
 6976 228d 41130000 		.4byte	.LASF846
ARM GAS  C:\Users\AHMED~1.ELE\AppData\Local\Temp\cc0wYKcg.s 			page 150


 6977 2291 17       		.sleb128 23
 6978 2292 0E       		.uleb128 0xe
 6979 2293 5D000000 		.4byte	.LASF847
 6980 2297 18       		.sleb128 24
 6981 2298 0E       		.uleb128 0xe
 6982 2299 D4170000 		.4byte	.LASF848
 6983 229d 19       		.sleb128 25
 6984 229e 0E       		.uleb128 0xe
 6985 229f FA410000 		.4byte	.LASF849
 6986 22a3 1A       		.sleb128 26
 6987 22a4 0E       		.uleb128 0xe
 6988 22a5 15300000 		.4byte	.LASF850
 6989 22a9 1B       		.sleb128 27
 6990 22aa 0E       		.uleb128 0xe
 6991 22ab 36200000 		.4byte	.LASF851
 6992 22af 1C       		.sleb128 28
 6993 22b0 0E       		.uleb128 0xe
 6994 22b1 761F0000 		.4byte	.LASF852
 6995 22b5 1D       		.sleb128 29
 6996 22b6 0E       		.uleb128 0xe
 6997 22b7 D7150000 		.4byte	.LASF853
 6998 22bb 1E       		.sleb128 30
 6999 22bc 0E       		.uleb128 0xe
 7000 22bd 282A0000 		.4byte	.LASF854
 7001 22c1 1F       		.sleb128 31
 7002 22c2 0E       		.uleb128 0xe
 7003 22c3 24050000 		.4byte	.LASF855
 7004 22c7 20       		.sleb128 32
 7005 22c8 0E       		.uleb128 0xe
 7006 22c9 4A1A0000 		.4byte	.LASF856
 7007 22cd 21       		.sleb128 33
 7008 22ce 0E       		.uleb128 0xe
 7009 22cf 890E0000 		.4byte	.LASF857
 7010 22d3 22       		.sleb128 34
 7011 22d4 0E       		.uleb128 0xe
 7012 22d5 78420000 		.4byte	.LASF858
 7013 22d9 23       		.sleb128 35
 7014 22da 0E       		.uleb128 0xe
 7015 22db 1D400000 		.4byte	.LASF859
 7016 22df 24       		.sleb128 36
 7017 22e0 0E       		.uleb128 0xe
 7018 22e1 C4380000 		.4byte	.LASF860
 7019 22e5 25       		.sleb128 37
 7020 22e6 0E       		.uleb128 0xe
 7021 22e7 C72D0000 		.4byte	.LASF861
 7022 22eb 26       		.sleb128 38
 7023 22ec 0E       		.uleb128 0xe
 7024 22ed 97130000 		.4byte	.LASF862
 7025 22f1 27       		.sleb128 39
 7026 22f2 0E       		.uleb128 0xe
 7027 22f3 BE300000 		.4byte	.LASF863
 7028 22f7 28       		.sleb128 40
 7029 22f8 0E       		.uleb128 0xe
 7030 22f9 67080000 		.4byte	.LASF864
 7031 22fd 29       		.sleb128 41
 7032 22fe 0E       		.uleb128 0xe
 7033 22ff 58200000 		.4byte	.LASF865
ARM GAS  C:\Users\AHMED~1.ELE\AppData\Local\Temp\cc0wYKcg.s 			page 151


 7034 2303 2A       		.sleb128 42
 7035 2304 0E       		.uleb128 0xe
 7036 2305 02410000 		.4byte	.LASF866
 7037 2309 2B       		.sleb128 43
 7038 230a 0E       		.uleb128 0xe
 7039 230b DA3B0000 		.4byte	.LASF867
 7040 230f 2C       		.sleb128 44
 7041 2310 0E       		.uleb128 0xe
 7042 2311 6D020000 		.4byte	.LASF868
 7043 2315 2D       		.sleb128 45
 7044 2316 0E       		.uleb128 0xe
 7045 2317 B90B0000 		.4byte	.LASF869
 7046 231b 2E       		.sleb128 46
 7047 231c 0E       		.uleb128 0xe
 7048 231d 152E0000 		.4byte	.LASF870
 7049 2321 2F       		.sleb128 47
 7050 2322 0E       		.uleb128 0xe
 7051 2323 57350000 		.4byte	.LASF871
 7052 2327 30       		.sleb128 48
 7053 2328 0E       		.uleb128 0xe
 7054 2329 6C1B0000 		.4byte	.LASF872
 7055 232d 31       		.sleb128 49
 7056 232e 0E       		.uleb128 0xe
 7057 232f C0100000 		.4byte	.LASF873
 7058 2333 32       		.sleb128 50
 7059 2334 0E       		.uleb128 0xe
 7060 2335 5C3F0000 		.4byte	.LASF874
 7061 2339 33       		.sleb128 51
 7062 233a 0E       		.uleb128 0xe
 7063 233b FA3E0000 		.4byte	.LASF875
 7064 233f 34       		.sleb128 52
 7065 2340 0E       		.uleb128 0xe
 7066 2341 640F0000 		.4byte	.LASF876
 7067 2345 35       		.sleb128 53
 7068 2346 0E       		.uleb128 0xe
 7069 2347 20430000 		.4byte	.LASF877
 7070 234b 36       		.sleb128 54
 7071 234c 0E       		.uleb128 0xe
 7072 234d B5260000 		.4byte	.LASF878
 7073 2351 37       		.sleb128 55
 7074 2352 0E       		.uleb128 0xe
 7075 2353 AA000000 		.4byte	.LASF879
 7076 2357 38       		.sleb128 56
 7077 2358 0E       		.uleb128 0xe
 7078 2359 DE350000 		.4byte	.LASF880
 7079 235d 39       		.sleb128 57
 7080 235e 0E       		.uleb128 0xe
 7081 235f 302B0000 		.4byte	.LASF881
 7082 2363 3A       		.sleb128 58
 7083 2364 0E       		.uleb128 0xe
 7084 2365 D63D0000 		.4byte	.LASF882
 7085 2369 3B       		.sleb128 59
 7086 236a 0E       		.uleb128 0xe
 7087 236b 5A2F0000 		.4byte	.LASF883
 7088 236f 3C       		.sleb128 60
 7089 2370 0E       		.uleb128 0xe
 7090 2371 4F3A0000 		.4byte	.LASF884
ARM GAS  C:\Users\AHMED~1.ELE\AppData\Local\Temp\cc0wYKcg.s 			page 152


 7091 2375 3D       		.sleb128 61
 7092 2376 0E       		.uleb128 0xe
 7093 2377 001A0000 		.4byte	.LASF885
 7094 237b 3E       		.sleb128 62
 7095 237c 0E       		.uleb128 0xe
 7096 237d C1420000 		.4byte	.LASF886
 7097 2381 3F       		.sleb128 63
 7098 2382 0E       		.uleb128 0xe
 7099 2383 600E0000 		.4byte	.LASF887
 7100 2387 C000     		.sleb128 64
 7101 2389 0E       		.uleb128 0xe
 7102 238a 57190000 		.4byte	.LASF888
 7103 238e C100     		.sleb128 65
 7104 2390 0E       		.uleb128 0xe
 7105 2391 D0240000 		.4byte	.LASF889
 7106 2395 C200     		.sleb128 66
 7107 2397 0E       		.uleb128 0xe
 7108 2398 09190000 		.4byte	.LASF890
 7109 239c C300     		.sleb128 67
 7110 239e 0E       		.uleb128 0xe
 7111 239f E3110000 		.4byte	.LASF891
 7112 23a3 C400     		.sleb128 68
 7113 23a5 0E       		.uleb128 0xe
 7114 23a6 DC0F0000 		.4byte	.LASF892
 7115 23aa C500     		.sleb128 69
 7116 23ac 0E       		.uleb128 0xe
 7117 23ad 28150000 		.4byte	.LASF893
 7118 23b1 C600     		.sleb128 70
 7119 23b3 0E       		.uleb128 0xe
 7120 23b4 EB200000 		.4byte	.LASF894
 7121 23b8 C700     		.sleb128 71
 7122 23ba 0E       		.uleb128 0xe
 7123 23bb 51080000 		.4byte	.LASF895
 7124 23bf C800     		.sleb128 72
 7125 23c1 0E       		.uleb128 0xe
 7126 23c2 3B0E0000 		.4byte	.LASF896
 7127 23c6 C900     		.sleb128 73
 7128 23c8 0E       		.uleb128 0xe
 7129 23c9 C23F0000 		.4byte	.LASF897
 7130 23cd CA00     		.sleb128 74
 7131 23cf 0E       		.uleb128 0xe
 7132 23d0 F53A0000 		.4byte	.LASF898
 7133 23d4 CB00     		.sleb128 75
 7134 23d6 0E       		.uleb128 0xe
 7135 23d7 41210000 		.4byte	.LASF899
 7136 23db CC00     		.sleb128 76
 7137 23dd 0E       		.uleb128 0xe
 7138 23de CF390000 		.4byte	.LASF900
 7139 23e2 CD00     		.sleb128 77
 7140 23e4 0E       		.uleb128 0xe
 7141 23e5 FB3D0000 		.4byte	.LASF901
 7142 23e9 CE00     		.sleb128 78
 7143 23eb 0E       		.uleb128 0xe
 7144 23ec 48380000 		.4byte	.LASF902
 7145 23f0 CF00     		.sleb128 79
 7146 23f2 0E       		.uleb128 0xe
 7147 23f3 263A0000 		.4byte	.LASF903
ARM GAS  C:\Users\AHMED~1.ELE\AppData\Local\Temp\cc0wYKcg.s 			page 153


 7148 23f7 D000     		.sleb128 80
 7149 23f9 0E       		.uleb128 0xe
 7150 23fa 3D3D0000 		.4byte	.LASF904
 7151 23fe D100     		.sleb128 81
 7152 2400 0E       		.uleb128 0xe
 7153 2401 202D0000 		.4byte	.LASF905
 7154 2405 D200     		.sleb128 82
 7155 2407 0E       		.uleb128 0xe
 7156 2408 2E220000 		.4byte	.LASF906
 7157 240c D300     		.sleb128 83
 7158 240e 0E       		.uleb128 0xe
 7159 240f B30A0000 		.4byte	.LASF907
 7160 2413 D400     		.sleb128 84
 7161 2415 0E       		.uleb128 0xe
 7162 2416 3D0B0000 		.4byte	.LASF908
 7163 241a D500     		.sleb128 85
 7164 241c 0E       		.uleb128 0xe
 7165 241d 72390000 		.4byte	.LASF909
 7166 2421 D600     		.sleb128 86
 7167 2423 0E       		.uleb128 0xe
 7168 2424 63310000 		.4byte	.LASF910
 7169 2428 D700     		.sleb128 87
 7170 242a 0E       		.uleb128 0xe
 7171 242b 613D0000 		.4byte	.LASF911
 7172 242f D800     		.sleb128 88
 7173 2431 0E       		.uleb128 0xe
 7174 2432 3B3A0000 		.4byte	.LASF912
 7175 2436 D900     		.sleb128 89
 7176 2438 0E       		.uleb128 0xe
 7177 2439 52210000 		.4byte	.LASF913
 7178 243d DA00     		.sleb128 90
 7179 243f 0E       		.uleb128 0xe
 7180 2440 C20C0000 		.4byte	.LASF914
 7181 2444 DB00     		.sleb128 91
 7182 2446 0E       		.uleb128 0xe
 7183 2447 FF2D0000 		.4byte	.LASF915
 7184 244b DC00     		.sleb128 92
 7185 244d 0E       		.uleb128 0xe
 7186 244e 70360000 		.4byte	.LASF916
 7187 2452 DD00     		.sleb128 93
 7188 2454 0E       		.uleb128 0xe
 7189 2455 8B070000 		.4byte	.LASF917
 7190 2459 DE00     		.sleb128 94
 7191 245b 0E       		.uleb128 0xe
 7192 245c B91D0000 		.4byte	.LASF918
 7193 2460 DF00     		.sleb128 95
 7194 2462 0E       		.uleb128 0xe
 7195 2463 12240000 		.4byte	.LASF919
 7196 2467 E000     		.sleb128 96
 7197 2469 0E       		.uleb128 0xe
 7198 246a B80E0000 		.4byte	.LASF920
 7199 246e E100     		.sleb128 97
 7200 2470 0E       		.uleb128 0xe
 7201 2471 273B0000 		.4byte	.LASF921
 7202 2475 E200     		.sleb128 98
 7203 2477 0E       		.uleb128 0xe
 7204 2478 DA330000 		.4byte	.LASF922
ARM GAS  C:\Users\AHMED~1.ELE\AppData\Local\Temp\cc0wYKcg.s 			page 154


 7205 247c E300     		.sleb128 99
 7206 247e 0E       		.uleb128 0xe
 7207 247f 2A080000 		.4byte	.LASF923
 7208 2483 E400     		.sleb128 100
 7209 2485 0E       		.uleb128 0xe
 7210 2486 CB280000 		.4byte	.LASF924
 7211 248a E500     		.sleb128 101
 7212 248c 0E       		.uleb128 0xe
 7213 248d 952A0000 		.4byte	.LASF925
 7214 2491 E600     		.sleb128 102
 7215 2493 0E       		.uleb128 0xe
 7216 2494 44370000 		.4byte	.LASF926
 7217 2498 E700     		.sleb128 103
 7218 249a 0E       		.uleb128 0xe
 7219 249b EF3F0000 		.4byte	.LASF927
 7220 249f E800     		.sleb128 104
 7221 24a1 0E       		.uleb128 0xe
 7222 24a2 C8070000 		.4byte	.LASF928
 7223 24a6 E900     		.sleb128 105
 7224 24a8 0E       		.uleb128 0xe
 7225 24a9 BC1A0000 		.4byte	.LASF929
 7226 24ad EA00     		.sleb128 106
 7227 24af 0E       		.uleb128 0xe
 7228 24b0 77110000 		.4byte	.LASF930
 7229 24b4 EB00     		.sleb128 107
 7230 24b6 0E       		.uleb128 0xe
 7231 24b7 42020000 		.4byte	.LASF931
 7232 24bb EC00     		.sleb128 108
 7233 24bd 0E       		.uleb128 0xe
 7234 24be 0A2B0000 		.4byte	.LASF932
 7235 24c2 ED00     		.sleb128 109
 7236 24c4 0E       		.uleb128 0xe
 7237 24c5 920D0000 		.4byte	.LASF933
 7238 24c9 EE00     		.sleb128 110
 7239 24cb 0E       		.uleb128 0xe
 7240 24cc A20D0000 		.4byte	.LASF934
 7241 24d0 EF00     		.sleb128 111
 7242 24d2 0E       		.uleb128 0xe
 7243 24d3 B20D0000 		.4byte	.LASF935
 7244 24d7 F000     		.sleb128 112
 7245 24d9 0E       		.uleb128 0xe
 7246 24da C20D0000 		.4byte	.LASF936
 7247 24de F100     		.sleb128 113
 7248 24e0 0E       		.uleb128 0xe
 7249 24e1 BE290000 		.4byte	.LASF937
 7250 24e5 F200     		.sleb128 114
 7251 24e7 0E       		.uleb128 0xe
 7252 24e8 E9050000 		.4byte	.LASF938
 7253 24ec F300     		.sleb128 115
 7254 24ee 0E       		.uleb128 0xe
 7255 24ef 6F180000 		.4byte	.LASF939
 7256 24f3 F400     		.sleb128 116
 7257 24f5 0E       		.uleb128 0xe
 7258 24f6 A8370000 		.4byte	.LASF940
 7259 24fa F500     		.sleb128 117
 7260 24fc 0E       		.uleb128 0xe
 7261 24fd 970E0000 		.4byte	.LASF941
ARM GAS  C:\Users\AHMED~1.ELE\AppData\Local\Temp\cc0wYKcg.s 			page 155


 7262 2501 F600     		.sleb128 118
 7263 2503 0E       		.uleb128 0xe
 7264 2504 DB030000 		.4byte	.LASF942
 7265 2508 F700     		.sleb128 119
 7266 250a 0E       		.uleb128 0xe
 7267 250b 7D1B0000 		.4byte	.LASF943
 7268 250f F800     		.sleb128 120
 7269 2511 0E       		.uleb128 0xe
 7270 2512 C23E0000 		.4byte	.LASF944
 7271 2516 F900     		.sleb128 121
 7272 2518 0E       		.uleb128 0xe
 7273 2519 1A1F0000 		.4byte	.LASF945
 7274 251d FA00     		.sleb128 122
 7275 251f 0E       		.uleb128 0xe
 7276 2520 B9390000 		.4byte	.LASF946
 7277 2524 FB00     		.sleb128 123
 7278 2526 0E       		.uleb128 0xe
 7279 2527 E4170000 		.4byte	.LASF947
 7280 252b FC00     		.sleb128 124
 7281 252d 0E       		.uleb128 0xe
 7282 252e B9360000 		.4byte	.LASF948
 7283 2532 FD00     		.sleb128 125
 7284 2534 0E       		.uleb128 0xe
 7285 2535 D6400000 		.4byte	.LASF949
 7286 2539 FE00     		.sleb128 126
 7287 253b 0E       		.uleb128 0xe
 7288 253c 760D0000 		.4byte	.LASF950
 7289 2540 FF00     		.sleb128 127
 7290 2542 0E       		.uleb128 0xe
 7291 2543 8A3E0000 		.4byte	.LASF951
 7292 2547 8001     		.sleb128 128
 7293 2549 0E       		.uleb128 0xe
 7294 254a A4220000 		.4byte	.LASF952
 7295 254e 8101     		.sleb128 129
 7296 2550 0E       		.uleb128 0xe
 7297 2551 33310000 		.4byte	.LASF953
 7298 2555 8201     		.sleb128 130
 7299 2557 0E       		.uleb128 0xe
 7300 2558 00040000 		.4byte	.LASF954
 7301 255c 8301     		.sleb128 131
 7302 255e 0E       		.uleb128 0xe
 7303 255f 94260000 		.4byte	.LASF955
 7304 2563 8401     		.sleb128 132
 7305 2565 0E       		.uleb128 0xe
 7306 2566 9E3E0000 		.4byte	.LASF956
 7307 256a 8501     		.sleb128 133
 7308 256c 0E       		.uleb128 0xe
 7309 256d 43160000 		.4byte	.LASF957
 7310 2571 8601     		.sleb128 134
 7311 2573 0E       		.uleb128 0xe
 7312 2574 48100000 		.4byte	.LASF958
 7313 2578 8701     		.sleb128 135
 7314 257a 0E       		.uleb128 0xe
 7315 257b A4330000 		.4byte	.LASF959
 7316 257f 8801     		.sleb128 136
 7317 2581 0E       		.uleb128 0xe
 7318 2582 11050000 		.4byte	.LASF960
ARM GAS  C:\Users\AHMED~1.ELE\AppData\Local\Temp\cc0wYKcg.s 			page 156


 7319 2586 8901     		.sleb128 137
 7320 2588 0E       		.uleb128 0xe
 7321 2589 95050000 		.4byte	.LASF961
 7322 258d 8A01     		.sleb128 138
 7323 258f 0E       		.uleb128 0xe
 7324 2590 AD200000 		.4byte	.LASF962
 7325 2594 8B01     		.sleb128 139
 7326 2596 0E       		.uleb128 0xe
 7327 2597 8A1F0000 		.4byte	.LASF963
 7328 259b 8C01     		.sleb128 140
 7329 259d 0E       		.uleb128 0xe
 7330 259e 412B0000 		.4byte	.LASF964
 7331 25a2 8D01     		.sleb128 141
 7332 25a4 0E       		.uleb128 0xe
 7333 25a5 7D3D0000 		.4byte	.LASF965
 7334 25a9 8E01     		.sleb128 142
 7335 25ab 0E       		.uleb128 0xe
 7336 25ac 0B210000 		.4byte	.LASF966
 7337 25b0 8F01     		.sleb128 143
 7338 25b2 0E       		.uleb128 0xe
 7339 25b3 FB0D0000 		.4byte	.LASF967
 7340 25b7 9001     		.sleb128 144
 7341 25b9 0E       		.uleb128 0xe
 7342 25ba 4D300000 		.4byte	.LASF968
 7343 25be 9101     		.sleb128 145
 7344 25c0 0E       		.uleb128 0xe
 7345 25c1 99280000 		.4byte	.LASF969
 7346 25c5 9201     		.sleb128 146
 7347 25c7 0E       		.uleb128 0xe
 7348 25c8 842F0000 		.4byte	.LASF970
 7349 25cc 9301     		.sleb128 147
 7350 25ce 00       		.byte	0
 7351 25cf 14       		.uleb128 0x14
 7352 25d0 F2370000 		.4byte	.LASF971
 7353 25d4 A804     		.2byte	0x4a8
 7354 25d6 0E       		.byte	0xe
 7355 25d7 33       		.byte	0x33
 7356 25d8 AA280000 		.4byte	0x28aa
 7357 25dc 0B       		.uleb128 0xb
 7358 25dd 6C030000 		.4byte	.LASF722
 7359 25e1 0E       		.byte	0xe
 7360 25e2 34       		.byte	0x34
 7361 25e3 A2000000 		.4byte	0xa2
 7362 25e7 00       		.byte	0
 7363 25e8 0B       		.uleb128 0xb
 7364 25e9 91170000 		.4byte	.LASF723
 7365 25ed 0E       		.byte	0xe
 7366 25ee 34       		.byte	0x34
 7367 25ef A2000000 		.4byte	0xa2
 7368 25f3 01       		.byte	0x1
 7369 25f4 0B       		.uleb128 0xb
 7370 25f5 96210000 		.4byte	.LASF724
 7371 25f9 0E       		.byte	0xe
 7372 25fa 34       		.byte	0x34
 7373 25fb A2000000 		.4byte	0xa2
 7374 25ff 02       		.byte	0x2
 7375 2600 0B       		.uleb128 0xb
ARM GAS  C:\Users\AHMED~1.ELE\AppData\Local\Temp\cc0wYKcg.s 			page 157


 7376 2601 36020000 		.4byte	.LASF582
 7377 2605 0E       		.byte	0xe
 7378 2606 34       		.byte	0x34
 7379 2607 7D010000 		.4byte	0x17d
 7380 260b 03       		.byte	0x3
 7381 260c 0B       		.uleb128 0xb
 7382 260d 611C0000 		.4byte	.LASF725
 7383 2611 0E       		.byte	0xe
 7384 2612 34       		.byte	0x34
 7385 2613 A2000000 		.4byte	0xa2
 7386 2617 06       		.byte	0x6
 7387 2618 0B       		.uleb128 0xb
 7388 2619 F6120000 		.4byte	.LASF583
 7389 261d 0E       		.byte	0xe
 7390 261e 34       		.byte	0x34
 7391 261f 7D010000 		.4byte	0x17d
 7392 2623 07       		.byte	0x7
 7393 2624 0B       		.uleb128 0xb
 7394 2625 722E0000 		.4byte	.LASF726
 7395 2629 0E       		.byte	0xe
 7396 262a 34       		.byte	0x34
 7397 262b 9D010000 		.4byte	0x19d
 7398 262f 0A       		.byte	0xa
 7399 2630 0B       		.uleb128 0xb
 7400 2631 973C0000 		.4byte	.LASF727
 7401 2635 0E       		.byte	0xe
 7402 2636 34       		.byte	0x34
 7403 2637 D9000000 		.4byte	0xd9
 7404 263b 14       		.byte	0x14
 7405 263c 0B       		.uleb128 0xb
 7406 263d C53C0000 		.4byte	.LASF728
 7407 2641 0E       		.byte	0xe
 7408 2642 34       		.byte	0x34
 7409 2643 A2000000 		.4byte	0xa2
 7410 2647 16       		.byte	0x16
 7411 2648 0B       		.uleb128 0xb
 7412 2649 98350000 		.4byte	.LASF729
 7413 264d 0E       		.byte	0xe
 7414 264e 34       		.byte	0x34
 7415 264f C3000000 		.4byte	0xc3
 7416 2653 18       		.byte	0x18
 7417 2654 0B       		.uleb128 0xb
 7418 2655 27260000 		.4byte	.LASF730
 7419 2659 0E       		.byte	0xe
 7420 265a 34       		.byte	0x34
 7421 265b C3000000 		.4byte	0xc3
 7422 265f 20       		.byte	0x20
 7423 2660 0B       		.uleb128 0xb
 7424 2661 671D0000 		.4byte	.LASF731
 7425 2665 0E       		.byte	0xe
 7426 2666 34       		.byte	0x34
 7427 2667 C3000000 		.4byte	0xc3
 7428 266b 28       		.byte	0x28
 7429 266c 0B       		.uleb128 0xb
 7430 266d 34170000 		.4byte	.LASF732
 7431 2671 0E       		.byte	0xe
 7432 2672 34       		.byte	0x34
ARM GAS  C:\Users\AHMED~1.ELE\AppData\Local\Temp\cc0wYKcg.s 			page 158


 7433 2673 EF000000 		.4byte	0xef
 7434 2677 30       		.byte	0x30
 7435 2678 0B       		.uleb128 0xb
 7436 2679 10400000 		.4byte	.LASF733
 7437 267d 0E       		.byte	0xe
 7438 267e 34       		.byte	0x34
 7439 267f A2000000 		.4byte	0xa2
 7440 2683 34       		.byte	0x34
 7441 2684 0B       		.uleb128 0xb
 7442 2685 6F350000 		.4byte	.LASF734
 7443 2689 0E       		.byte	0xe
 7444 268a 34       		.byte	0x34
 7445 268b D01B0000 		.4byte	0x1bd0
 7446 268f 35       		.byte	0x35
 7447 2690 0B       		.uleb128 0xb
 7448 2691 13390000 		.4byte	.LASF735
 7449 2695 0E       		.byte	0xe
 7450 2696 34       		.byte	0x34
 7451 2697 BD010000 		.4byte	0x1bd
 7452 269b 4F       		.byte	0x4f
 7453 269c 0B       		.uleb128 0xb
 7454 269d 303D0000 		.4byte	.LASF736
 7455 26a1 0E       		.byte	0xe
 7456 26a2 34       		.byte	0x34
 7457 26a3 C10E0000 		.4byte	0xec1
 7458 26a7 5F       		.byte	0x5f
 7459 26a8 0B       		.uleb128 0xb
 7460 26a9 B3280000 		.4byte	.LASF737
 7461 26ad 0E       		.byte	0xe
 7462 26ae 34       		.byte	0x34
 7463 26af AD000000 		.4byte	0xad
 7464 26b3 66       		.byte	0x66
 7465 26b4 0B       		.uleb128 0xb
 7466 26b5 76220000 		.4byte	.LASF738
 7467 26b9 0E       		.byte	0xe
 7468 26ba 34       		.byte	0x34
 7469 26bb A2000000 		.4byte	0xa2
 7470 26bf 68       		.byte	0x68
 7471 26c0 0B       		.uleb128 0xb
 7472 26c1 B13E0000 		.4byte	.LASF739
 7473 26c5 0E       		.byte	0xe
 7474 26c6 34       		.byte	0x34
 7475 26c7 A7140000 		.4byte	0x14a7
 7476 26cb 69       		.byte	0x69
 7477 26cc 0B       		.uleb128 0xb
 7478 26cd 70330000 		.4byte	.LASF740
 7479 26d1 0E       		.byte	0xe
 7480 26d2 34       		.byte	0x34
 7481 26d3 AD000000 		.4byte	0xad
 7482 26d7 76       		.byte	0x76
 7483 26d8 0B       		.uleb128 0xb
 7484 26d9 171D0000 		.4byte	.LASF741
 7485 26dd 0E       		.byte	0xe
 7486 26de 34       		.byte	0x34
 7487 26df AD000000 		.4byte	0xad
 7488 26e3 78       		.byte	0x78
 7489 26e4 0B       		.uleb128 0xb
ARM GAS  C:\Users\AHMED~1.ELE\AppData\Local\Temp\cc0wYKcg.s 			page 159


 7490 26e5 71110000 		.4byte	.LASF742
 7491 26e9 0E       		.byte	0xe
 7492 26ea 34       		.byte	0x34
 7493 26eb B5190000 		.4byte	0x19b5
 7494 26ef 7C       		.byte	0x7c
 7495 26f0 0B       		.uleb128 0xb
 7496 26f1 56010000 		.4byte	.LASF743
 7497 26f5 0E       		.byte	0xe
 7498 26f6 34       		.byte	0x34
 7499 26f7 161A0000 		.4byte	0x1a16
 7500 26fb 84       		.byte	0x84
 7501 26fc 1B       		.uleb128 0x1b
 7502 26fd 393B0000 		.4byte	.LASF972
 7503 2701 0E       		.byte	0xe
 7504 2702 35       		.byte	0x35
 7505 2703 CD010000 		.4byte	0x1cd
 7506 2707 F801     		.2byte	0x1f8
 7507 2709 1B       		.uleb128 0x1b
 7508 270a 24370000 		.4byte	.LASF973
 7509 270e 0E       		.byte	0xe
 7510 270f 36       		.byte	0x36
 7511 2710 7E0F0000 		.4byte	0xf7e
 7512 2714 0002     		.2byte	0x200
 7513 2716 1B       		.uleb128 0x1b
 7514 2717 15230000 		.4byte	.LASF974
 7515 271b 0E       		.byte	0xe
 7516 271c 37       		.byte	0x37
 7517 271d B60F0000 		.4byte	0xfb6
 7518 2721 A002     		.2byte	0x2a0
 7519 2723 1B       		.uleb128 0x1b
 7520 2724 52360000 		.4byte	.LASF975
 7521 2728 0E       		.byte	0xe
 7522 2729 38       		.byte	0x38
 7523 272a AD000000 		.4byte	0xad
 7524 272e F402     		.2byte	0x2f4
 7525 2730 1B       		.uleb128 0x1b
 7526 2731 B4080000 		.4byte	.LASF976
 7527 2735 0E       		.byte	0xe
 7528 2736 39       		.byte	0x39
 7529 2737 A2000000 		.4byte	0xa2
 7530 273b F602     		.2byte	0x2f6
 7531 273d 1B       		.uleb128 0x1b
 7532 273e B4170000 		.4byte	.LASF977
 7533 2742 0E       		.byte	0xe
 7534 2743 3A       		.byte	0x3a
 7535 2744 EF000000 		.4byte	0xef
 7536 2748 F702     		.2byte	0x2f7
 7537 274a 1B       		.uleb128 0x1b
 7538 274b D7190000 		.4byte	.LASF978
 7539 274f 0E       		.byte	0xe
 7540 2750 3B       		.byte	0x3b
 7541 2751 8D010000 		.4byte	0x18d
 7542 2755 FB02     		.2byte	0x2fb
 7543 2757 1B       		.uleb128 0x1b
 7544 2758 11090000 		.4byte	.LASF979
 7545 275c 0E       		.byte	0xe
 7546 275d 3C       		.byte	0x3c
ARM GAS  C:\Users\AHMED~1.ELE\AppData\Local\Temp\cc0wYKcg.s 			page 160


 7547 275e 8D010000 		.4byte	0x18d
 7548 2762 7B03     		.2byte	0x37b
 7549 2764 1B       		.uleb128 0x1b
 7550 2765 571A0000 		.4byte	.LASF980
 7551 2769 0E       		.byte	0xe
 7552 276a 3D       		.byte	0x3d
 7553 276b D9000000 		.4byte	0xd9
 7554 276f FB03     		.2byte	0x3fb
 7555 2771 1B       		.uleb128 0x1b
 7556 2772 5F1A0000 		.4byte	.LASF981
 7557 2776 0E       		.byte	0xe
 7558 2777 3E       		.byte	0x3e
 7559 2778 BD010000 		.4byte	0x1bd
 7560 277c FD03     		.2byte	0x3fd
 7561 277e 1B       		.uleb128 0x1b
 7562 277f 671A0000 		.4byte	.LASF982
 7563 2783 0E       		.byte	0xe
 7564 2784 3F       		.byte	0x3f
 7565 2785 63190000 		.4byte	0x1963
 7566 2789 0D04     		.2byte	0x40d
 7567 278b 1B       		.uleb128 0x1b
 7568 278c 7A1A0000 		.4byte	.LASF983
 7569 2790 0E       		.byte	0xe
 7570 2791 40       		.byte	0x40
 7571 2792 D9000000 		.4byte	0xd9
 7572 2796 2204     		.2byte	0x422
 7573 2798 1B       		.uleb128 0x1b
 7574 2799 8E1A0000 		.4byte	.LASF984
 7575 279d 0E       		.byte	0xe
 7576 279e 41       		.byte	0x41
 7577 279f BD010000 		.4byte	0x1bd
 7578 27a3 2404     		.2byte	0x424
 7579 27a5 1B       		.uleb128 0x1b
 7580 27a6 961A0000 		.4byte	.LASF985
 7581 27aa 0E       		.byte	0xe
 7582 27ab 42       		.byte	0x42
 7583 27ac 6D010000 		.4byte	0x16d
 7584 27b0 3404     		.2byte	0x434
 7585 27b2 1B       		.uleb128 0x1b
 7586 27b3 9E1A0000 		.4byte	.LASF986
 7587 27b7 0E       		.byte	0xe
 7588 27b8 43       		.byte	0x43
 7589 27b9 7D010000 		.4byte	0x17d
 7590 27bd 3904     		.2byte	0x439
 7591 27bf 1B       		.uleb128 0x1b
 7592 27c0 120B0000 		.4byte	.LASF987
 7593 27c4 0E       		.byte	0xe
 7594 27c5 44       		.byte	0x44
 7595 27c6 A2000000 		.4byte	0xa2
 7596 27ca 3C04     		.2byte	0x43c
 7597 27cc 1B       		.uleb128 0x1b
 7598 27cd 81250000 		.4byte	.LASF988
 7599 27d1 0E       		.byte	0xe
 7600 27d2 45       		.byte	0x45
 7601 27d3 D9000000 		.4byte	0xd9
 7602 27d7 3D04     		.2byte	0x43d
 7603 27d9 1B       		.uleb128 0x1b
ARM GAS  C:\Users\AHMED~1.ELE\AppData\Local\Temp\cc0wYKcg.s 			page 161


 7604 27da CB1B0000 		.4byte	.LASF989
 7605 27de 0E       		.byte	0xe
 7606 27df 46       		.byte	0x46
 7607 27e0 C10E0000 		.4byte	0xec1
 7608 27e4 3F04     		.2byte	0x43f
 7609 27e6 1B       		.uleb128 0x1b
 7610 27e7 D51B0000 		.4byte	.LASF990
 7611 27eb 0E       		.byte	0xe
 7612 27ec 47       		.byte	0x47
 7613 27ed C10E0000 		.4byte	0xec1
 7614 27f1 4504     		.2byte	0x445
 7615 27f3 1B       		.uleb128 0x1b
 7616 27f4 F21B0000 		.4byte	.LASF991
 7617 27f8 0E       		.byte	0xe
 7618 27f9 48       		.byte	0x48
 7619 27fa D9000000 		.4byte	0xd9
 7620 27fe 4B04     		.2byte	0x44b
 7621 2800 1B       		.uleb128 0x1b
 7622 2801 901C0000 		.4byte	.LASF992
 7623 2805 0E       		.byte	0xe
 7624 2806 49       		.byte	0x49
 7625 2807 AD010000 		.4byte	0x1ad
 7626 280b 4D04     		.2byte	0x44d
 7627 280d 1B       		.uleb128 0x1b
 7628 280e 9A1C0000 		.4byte	.LASF993
 7629 2812 0E       		.byte	0xe
 7630 2813 4A       		.byte	0x4a
 7631 2814 D9000000 		.4byte	0xd9
 7632 2818 6D04     		.2byte	0x46d
 7633 281a 1B       		.uleb128 0x1b
 7634 281b B51C0000 		.4byte	.LASF994
 7635 281f 0E       		.byte	0xe
 7636 2820 4B       		.byte	0x4b
 7637 2821 CD010000 		.4byte	0x1cd
 7638 2825 6F04     		.2byte	0x46f
 7639 2827 1B       		.uleb128 0x1b
 7640 2828 96060000 		.4byte	.LASF995
 7641 282c 0E       		.byte	0xe
 7642 282d 4C       		.byte	0x4c
 7643 282e AA280000 		.4byte	0x28aa
 7644 2832 7704     		.2byte	0x477
 7645 2834 1B       		.uleb128 0x1b
 7646 2835 4A1D0000 		.4byte	.LASF996
 7647 2839 0E       		.byte	0xe
 7648 283a 4D       		.byte	0x4d
 7649 283b CD010000 		.4byte	0x1cd
 7650 283f 8A04     		.2byte	0x48a
 7651 2841 1B       		.uleb128 0x1b
 7652 2842 541D0000 		.4byte	.LASF997
 7653 2846 0E       		.byte	0xe
 7654 2847 4E       		.byte	0x4e
 7655 2848 A2000000 		.4byte	0xa2
 7656 284c 9204     		.2byte	0x492
 7657 284e 1B       		.uleb128 0x1b
 7658 284f E41D0000 		.4byte	.LASF998
 7659 2853 0E       		.byte	0xe
 7660 2854 4F       		.byte	0x4f
ARM GAS  C:\Users\AHMED~1.ELE\AppData\Local\Temp\cc0wYKcg.s 			page 162


 7661 2855 7D010000 		.4byte	0x17d
 7662 2859 9304     		.2byte	0x493
 7663 285b 1B       		.uleb128 0x1b
 7664 285c EE1D0000 		.4byte	.LASF999
 7665 2860 0E       		.byte	0xe
 7666 2861 50       		.byte	0x50
 7667 2862 EF000000 		.4byte	0xef
 7668 2866 9604     		.2byte	0x496
 7669 2868 1B       		.uleb128 0x1b
 7670 2869 F81D0000 		.4byte	.LASF1000
 7671 286d 0E       		.byte	0xe
 7672 286e 51       		.byte	0x51
 7673 286f A2000000 		.4byte	0xa2
 7674 2873 9A04     		.2byte	0x49a
 7675 2875 1B       		.uleb128 0x1b
 7676 2876 021E0000 		.4byte	.LASF1001
 7677 287a 0E       		.byte	0xe
 7678 287b 52       		.byte	0x52
 7679 287c D9000000 		.4byte	0xd9
 7680 2880 9B04     		.2byte	0x49b
 7681 2882 1B       		.uleb128 0x1b
 7682 2883 0C1E0000 		.4byte	.LASF1002
 7683 2887 0E       		.byte	0xe
 7684 2888 53       		.byte	0x53
 7685 2889 EF000000 		.4byte	0xef
 7686 288d 9D04     		.2byte	0x49d
 7687 288f 1B       		.uleb128 0x1b
 7688 2890 AB1E0000 		.4byte	.LASF1003
 7689 2894 0E       		.byte	0xe
 7690 2895 54       		.byte	0x54
 7691 2896 EF000000 		.4byte	0xef
 7692 289a A104     		.2byte	0x4a1
 7693 289c 1B       		.uleb128 0x1b
 7694 289d D4260000 		.4byte	.LASF1004
 7695 28a1 0E       		.byte	0xe
 7696 28a2 55       		.byte	0x55
 7697 28a3 A2000000 		.4byte	0xa2
 7698 28a7 A504     		.2byte	0x4a5
 7699 28a9 00       		.byte	0
 7700 28aa 08       		.uleb128 0x8
 7701 28ab A2000000 		.4byte	0xa2
 7702 28af BA280000 		.4byte	0x28ba
 7703 28b3 09       		.uleb128 0x9
 7704 28b4 78000000 		.4byte	0x78
 7705 28b8 12       		.byte	0x12
 7706 28b9 00       		.byte	0
 7707 28ba 14       		.uleb128 0x14
 7708 28bb 36010000 		.4byte	.LASF1005
 7709 28bf 0802     		.2byte	0x208
 7710 28c1 0E       		.byte	0xe
 7711 28c2 58       		.byte	0x58
 7712 28c3 1C2A0000 		.4byte	0x2a1c
 7713 28c7 0B       		.uleb128 0xb
 7714 28c8 6C030000 		.4byte	.LASF722
 7715 28cc 0E       		.byte	0xe
 7716 28cd 59       		.byte	0x59
 7717 28ce A2000000 		.4byte	0xa2
ARM GAS  C:\Users\AHMED~1.ELE\AppData\Local\Temp\cc0wYKcg.s 			page 163


 7718 28d2 00       		.byte	0
 7719 28d3 0B       		.uleb128 0xb
 7720 28d4 91170000 		.4byte	.LASF723
 7721 28d8 0E       		.byte	0xe
 7722 28d9 59       		.byte	0x59
 7723 28da A2000000 		.4byte	0xa2
 7724 28de 01       		.byte	0x1
 7725 28df 0B       		.uleb128 0xb
 7726 28e0 96210000 		.4byte	.LASF724
 7727 28e4 0E       		.byte	0xe
 7728 28e5 59       		.byte	0x59
 7729 28e6 A2000000 		.4byte	0xa2
 7730 28ea 02       		.byte	0x2
 7731 28eb 0B       		.uleb128 0xb
 7732 28ec 36020000 		.4byte	.LASF582
 7733 28f0 0E       		.byte	0xe
 7734 28f1 59       		.byte	0x59
 7735 28f2 7D010000 		.4byte	0x17d
 7736 28f6 03       		.byte	0x3
 7737 28f7 0B       		.uleb128 0xb
 7738 28f8 611C0000 		.4byte	.LASF725
 7739 28fc 0E       		.byte	0xe
 7740 28fd 59       		.byte	0x59
 7741 28fe A2000000 		.4byte	0xa2
 7742 2902 06       		.byte	0x6
 7743 2903 0B       		.uleb128 0xb
 7744 2904 F6120000 		.4byte	.LASF583
 7745 2908 0E       		.byte	0xe
 7746 2909 59       		.byte	0x59
 7747 290a 7D010000 		.4byte	0x17d
 7748 290e 07       		.byte	0x7
 7749 290f 0B       		.uleb128 0xb
 7750 2910 722E0000 		.4byte	.LASF726
 7751 2914 0E       		.byte	0xe
 7752 2915 59       		.byte	0x59
 7753 2916 9D010000 		.4byte	0x19d
 7754 291a 0A       		.byte	0xa
 7755 291b 0B       		.uleb128 0xb
 7756 291c 973C0000 		.4byte	.LASF727
 7757 2920 0E       		.byte	0xe
 7758 2921 59       		.byte	0x59
 7759 2922 D9000000 		.4byte	0xd9
 7760 2926 14       		.byte	0x14
 7761 2927 0B       		.uleb128 0xb
 7762 2928 C53C0000 		.4byte	.LASF728
 7763 292c 0E       		.byte	0xe
 7764 292d 59       		.byte	0x59
 7765 292e A2000000 		.4byte	0xa2
 7766 2932 16       		.byte	0x16
 7767 2933 0B       		.uleb128 0xb
 7768 2934 98350000 		.4byte	.LASF729
 7769 2938 0E       		.byte	0xe
 7770 2939 59       		.byte	0x59
 7771 293a C3000000 		.4byte	0xc3
 7772 293e 18       		.byte	0x18
 7773 293f 0B       		.uleb128 0xb
 7774 2940 27260000 		.4byte	.LASF730
ARM GAS  C:\Users\AHMED~1.ELE\AppData\Local\Temp\cc0wYKcg.s 			page 164


 7775 2944 0E       		.byte	0xe
 7776 2945 59       		.byte	0x59
 7777 2946 C3000000 		.4byte	0xc3
 7778 294a 20       		.byte	0x20
 7779 294b 0B       		.uleb128 0xb
 7780 294c 671D0000 		.4byte	.LASF731
 7781 2950 0E       		.byte	0xe
 7782 2951 59       		.byte	0x59
 7783 2952 C3000000 		.4byte	0xc3
 7784 2956 28       		.byte	0x28
 7785 2957 0B       		.uleb128 0xb
 7786 2958 34170000 		.4byte	.LASF732
 7787 295c 0E       		.byte	0xe
 7788 295d 59       		.byte	0x59
 7789 295e EF000000 		.4byte	0xef
 7790 2962 30       		.byte	0x30
 7791 2963 0B       		.uleb128 0xb
 7792 2964 10400000 		.4byte	.LASF733
 7793 2968 0E       		.byte	0xe
 7794 2969 59       		.byte	0x59
 7795 296a A2000000 		.4byte	0xa2
 7796 296e 34       		.byte	0x34
 7797 296f 0B       		.uleb128 0xb
 7798 2970 6F350000 		.4byte	.LASF734
 7799 2974 0E       		.byte	0xe
 7800 2975 59       		.byte	0x59
 7801 2976 D01B0000 		.4byte	0x1bd0
 7802 297a 35       		.byte	0x35
 7803 297b 0B       		.uleb128 0xb
 7804 297c 13390000 		.4byte	.LASF735
 7805 2980 0E       		.byte	0xe
 7806 2981 59       		.byte	0x59
 7807 2982 BD010000 		.4byte	0x1bd
 7808 2986 4F       		.byte	0x4f
 7809 2987 0B       		.uleb128 0xb
 7810 2988 303D0000 		.4byte	.LASF736
 7811 298c 0E       		.byte	0xe
 7812 298d 59       		.byte	0x59
 7813 298e C10E0000 		.4byte	0xec1
 7814 2992 5F       		.byte	0x5f
 7815 2993 0B       		.uleb128 0xb
 7816 2994 B3280000 		.4byte	.LASF737
 7817 2998 0E       		.byte	0xe
 7818 2999 59       		.byte	0x59
 7819 299a AD000000 		.4byte	0xad
 7820 299e 66       		.byte	0x66
 7821 299f 0B       		.uleb128 0xb
 7822 29a0 76220000 		.4byte	.LASF738
 7823 29a4 0E       		.byte	0xe
 7824 29a5 59       		.byte	0x59
 7825 29a6 A2000000 		.4byte	0xa2
 7826 29aa 68       		.byte	0x68
 7827 29ab 0B       		.uleb128 0xb
 7828 29ac B13E0000 		.4byte	.LASF739
 7829 29b0 0E       		.byte	0xe
 7830 29b1 59       		.byte	0x59
 7831 29b2 A7140000 		.4byte	0x14a7
ARM GAS  C:\Users\AHMED~1.ELE\AppData\Local\Temp\cc0wYKcg.s 			page 165


 7832 29b6 69       		.byte	0x69
 7833 29b7 0B       		.uleb128 0xb
 7834 29b8 70330000 		.4byte	.LASF740
 7835 29bc 0E       		.byte	0xe
 7836 29bd 59       		.byte	0x59
 7837 29be AD000000 		.4byte	0xad
 7838 29c2 76       		.byte	0x76
 7839 29c3 0B       		.uleb128 0xb
 7840 29c4 171D0000 		.4byte	.LASF741
 7841 29c8 0E       		.byte	0xe
 7842 29c9 59       		.byte	0x59
 7843 29ca AD000000 		.4byte	0xad
 7844 29ce 78       		.byte	0x78
 7845 29cf 0B       		.uleb128 0xb
 7846 29d0 71110000 		.4byte	.LASF742
 7847 29d4 0E       		.byte	0xe
 7848 29d5 59       		.byte	0x59
 7849 29d6 B5190000 		.4byte	0x19b5
 7850 29da 7C       		.byte	0x7c
 7851 29db 0B       		.uleb128 0xb
 7852 29dc 56010000 		.4byte	.LASF743
 7853 29e0 0E       		.byte	0xe
 7854 29e1 59       		.byte	0x59
 7855 29e2 161A0000 		.4byte	0x1a16
 7856 29e6 84       		.byte	0x84
 7857 29e7 1B       		.uleb128 0x1b
 7858 29e8 393B0000 		.4byte	.LASF972
 7859 29ec 0E       		.byte	0xe
 7860 29ed 5A       		.byte	0x5a
 7861 29ee CD010000 		.4byte	0x1cd
 7862 29f2 F801     		.2byte	0x1f8
 7863 29f4 1B       		.uleb128 0x1b
 7864 29f5 3E040000 		.4byte	.LASF1006
 7865 29f9 0E       		.byte	0xe
 7866 29fa 5B       		.byte	0x5b
 7867 29fb 7D010000 		.4byte	0x17d
 7868 29ff 0002     		.2byte	0x200
 7869 2a01 1B       		.uleb128 0x1b
 7870 2a02 ED330000 		.4byte	.LASF1007
 7871 2a06 0E       		.byte	0xe
 7872 2a07 5C       		.byte	0x5c
 7873 2a08 A2000000 		.4byte	0xa2
 7874 2a0c 0302     		.2byte	0x203
 7875 2a0e 1B       		.uleb128 0x1b
 7876 2a0f 38070000 		.4byte	.LASF1008
 7877 2a13 0E       		.byte	0xe
 7878 2a14 5D       		.byte	0x5d
 7879 2a15 7D010000 		.4byte	0x17d
 7880 2a19 0402     		.2byte	0x204
 7881 2a1b 00       		.byte	0
 7882 2a1c 14       		.uleb128 0x14
 7883 2a1d FD050000 		.4byte	.LASF1009
 7884 2a21 4802     		.2byte	0x248
 7885 2a23 0E       		.byte	0xe
 7886 2a24 60       		.byte	0x60
 7887 2a25 712B0000 		.4byte	0x2b71
 7888 2a29 0B       		.uleb128 0xb
ARM GAS  C:\Users\AHMED~1.ELE\AppData\Local\Temp\cc0wYKcg.s 			page 166


 7889 2a2a 6C030000 		.4byte	.LASF722
 7890 2a2e 0E       		.byte	0xe
 7891 2a2f 61       		.byte	0x61
 7892 2a30 A2000000 		.4byte	0xa2
 7893 2a34 00       		.byte	0
 7894 2a35 0B       		.uleb128 0xb
 7895 2a36 91170000 		.4byte	.LASF723
 7896 2a3a 0E       		.byte	0xe
 7897 2a3b 61       		.byte	0x61
 7898 2a3c A2000000 		.4byte	0xa2
 7899 2a40 01       		.byte	0x1
 7900 2a41 0B       		.uleb128 0xb
 7901 2a42 96210000 		.4byte	.LASF724
 7902 2a46 0E       		.byte	0xe
 7903 2a47 61       		.byte	0x61
 7904 2a48 A2000000 		.4byte	0xa2
 7905 2a4c 02       		.byte	0x2
 7906 2a4d 0B       		.uleb128 0xb
 7907 2a4e 36020000 		.4byte	.LASF582
 7908 2a52 0E       		.byte	0xe
 7909 2a53 61       		.byte	0x61
 7910 2a54 7D010000 		.4byte	0x17d
 7911 2a58 03       		.byte	0x3
 7912 2a59 0B       		.uleb128 0xb
 7913 2a5a 611C0000 		.4byte	.LASF725
 7914 2a5e 0E       		.byte	0xe
 7915 2a5f 61       		.byte	0x61
 7916 2a60 A2000000 		.4byte	0xa2
 7917 2a64 06       		.byte	0x6
 7918 2a65 0B       		.uleb128 0xb
 7919 2a66 F6120000 		.4byte	.LASF583
 7920 2a6a 0E       		.byte	0xe
 7921 2a6b 61       		.byte	0x61
 7922 2a6c 7D010000 		.4byte	0x17d
 7923 2a70 07       		.byte	0x7
 7924 2a71 0B       		.uleb128 0xb
 7925 2a72 722E0000 		.4byte	.LASF726
 7926 2a76 0E       		.byte	0xe
 7927 2a77 61       		.byte	0x61
 7928 2a78 9D010000 		.4byte	0x19d
 7929 2a7c 0A       		.byte	0xa
 7930 2a7d 0B       		.uleb128 0xb
 7931 2a7e 973C0000 		.4byte	.LASF727
 7932 2a82 0E       		.byte	0xe
 7933 2a83 61       		.byte	0x61
 7934 2a84 D9000000 		.4byte	0xd9
 7935 2a88 14       		.byte	0x14
 7936 2a89 0B       		.uleb128 0xb
 7937 2a8a C53C0000 		.4byte	.LASF728
 7938 2a8e 0E       		.byte	0xe
 7939 2a8f 61       		.byte	0x61
 7940 2a90 A2000000 		.4byte	0xa2
 7941 2a94 16       		.byte	0x16
 7942 2a95 0B       		.uleb128 0xb
 7943 2a96 98350000 		.4byte	.LASF729
 7944 2a9a 0E       		.byte	0xe
 7945 2a9b 61       		.byte	0x61
ARM GAS  C:\Users\AHMED~1.ELE\AppData\Local\Temp\cc0wYKcg.s 			page 167


 7946 2a9c C3000000 		.4byte	0xc3
 7947 2aa0 18       		.byte	0x18
 7948 2aa1 0B       		.uleb128 0xb
 7949 2aa2 27260000 		.4byte	.LASF730
 7950 2aa6 0E       		.byte	0xe
 7951 2aa7 61       		.byte	0x61
 7952 2aa8 C3000000 		.4byte	0xc3
 7953 2aac 20       		.byte	0x20
 7954 2aad 0B       		.uleb128 0xb
 7955 2aae 671D0000 		.4byte	.LASF731
 7956 2ab2 0E       		.byte	0xe
 7957 2ab3 61       		.byte	0x61
 7958 2ab4 C3000000 		.4byte	0xc3
 7959 2ab8 28       		.byte	0x28
 7960 2ab9 0B       		.uleb128 0xb
 7961 2aba 34170000 		.4byte	.LASF732
 7962 2abe 0E       		.byte	0xe
 7963 2abf 61       		.byte	0x61
 7964 2ac0 EF000000 		.4byte	0xef
 7965 2ac4 30       		.byte	0x30
 7966 2ac5 0B       		.uleb128 0xb
 7967 2ac6 10400000 		.4byte	.LASF733
 7968 2aca 0E       		.byte	0xe
 7969 2acb 61       		.byte	0x61
 7970 2acc A2000000 		.4byte	0xa2
 7971 2ad0 34       		.byte	0x34
 7972 2ad1 0B       		.uleb128 0xb
 7973 2ad2 6F350000 		.4byte	.LASF734
 7974 2ad6 0E       		.byte	0xe
 7975 2ad7 61       		.byte	0x61
 7976 2ad8 D01B0000 		.4byte	0x1bd0
 7977 2adc 35       		.byte	0x35
 7978 2add 0B       		.uleb128 0xb
 7979 2ade 13390000 		.4byte	.LASF735
 7980 2ae2 0E       		.byte	0xe
 7981 2ae3 61       		.byte	0x61
 7982 2ae4 BD010000 		.4byte	0x1bd
 7983 2ae8 4F       		.byte	0x4f
 7984 2ae9 0B       		.uleb128 0xb
 7985 2aea 303D0000 		.4byte	.LASF736
 7986 2aee 0E       		.byte	0xe
 7987 2aef 61       		.byte	0x61
 7988 2af0 C10E0000 		.4byte	0xec1
 7989 2af4 5F       		.byte	0x5f
 7990 2af5 0B       		.uleb128 0xb
 7991 2af6 B3280000 		.4byte	.LASF737
 7992 2afa 0E       		.byte	0xe
 7993 2afb 61       		.byte	0x61
 7994 2afc AD000000 		.4byte	0xad
 7995 2b00 66       		.byte	0x66
 7996 2b01 0B       		.uleb128 0xb
 7997 2b02 76220000 		.4byte	.LASF738
 7998 2b06 0E       		.byte	0xe
 7999 2b07 61       		.byte	0x61
 8000 2b08 A2000000 		.4byte	0xa2
 8001 2b0c 68       		.byte	0x68
 8002 2b0d 0B       		.uleb128 0xb
ARM GAS  C:\Users\AHMED~1.ELE\AppData\Local\Temp\cc0wYKcg.s 			page 168


 8003 2b0e B13E0000 		.4byte	.LASF739
 8004 2b12 0E       		.byte	0xe
 8005 2b13 61       		.byte	0x61
 8006 2b14 A7140000 		.4byte	0x14a7
 8007 2b18 69       		.byte	0x69
 8008 2b19 0B       		.uleb128 0xb
 8009 2b1a 70330000 		.4byte	.LASF740
 8010 2b1e 0E       		.byte	0xe
 8011 2b1f 61       		.byte	0x61
 8012 2b20 AD000000 		.4byte	0xad
 8013 2b24 76       		.byte	0x76
 8014 2b25 0B       		.uleb128 0xb
 8015 2b26 171D0000 		.4byte	.LASF741
 8016 2b2a 0E       		.byte	0xe
 8017 2b2b 61       		.byte	0x61
 8018 2b2c AD000000 		.4byte	0xad
 8019 2b30 78       		.byte	0x78
 8020 2b31 0B       		.uleb128 0xb
 8021 2b32 71110000 		.4byte	.LASF742
 8022 2b36 0E       		.byte	0xe
 8023 2b37 61       		.byte	0x61
 8024 2b38 B5190000 		.4byte	0x19b5
 8025 2b3c 7C       		.byte	0x7c
 8026 2b3d 0B       		.uleb128 0xb
 8027 2b3e 56010000 		.4byte	.LASF743
 8028 2b42 0E       		.byte	0xe
 8029 2b43 61       		.byte	0x61
 8030 2b44 161A0000 		.4byte	0x1a16
 8031 2b48 84       		.byte	0x84
 8032 2b49 1B       		.uleb128 0x1b
 8033 2b4a 61030000 		.4byte	.LASF1010
 8034 2b4e 0E       		.byte	0xe
 8035 2b4f 62       		.byte	0x62
 8036 2b50 A2000000 		.4byte	0xa2
 8037 2b54 F801     		.2byte	0x1f8
 8038 2b56 1B       		.uleb128 0x1b
 8039 2b57 92290000 		.4byte	.LASF1011
 8040 2b5b 0E       		.byte	0xe
 8041 2b5c 63       		.byte	0x63
 8042 2b5d 712B0000 		.4byte	0x2b71
 8043 2b61 F901     		.2byte	0x1f9
 8044 2b63 1B       		.uleb128 0x1b
 8045 2b64 F3280000 		.4byte	.LASF1012
 8046 2b68 0E       		.byte	0xe
 8047 2b69 64       		.byte	0x64
 8048 2b6a 7D010000 		.4byte	0x17d
 8049 2b6e 3F02     		.2byte	0x23f
 8050 2b70 00       		.byte	0
 8051 2b71 08       		.uleb128 0x8
 8052 2b72 A2000000 		.4byte	0xa2
 8053 2b76 812B0000 		.4byte	0x2b81
 8054 2b7a 09       		.uleb128 0x9
 8055 2b7b 78000000 		.4byte	0x78
 8056 2b7f 45       		.byte	0x45
 8057 2b80 00       		.byte	0
 8058 2b81 14       		.uleb128 0x14
 8059 2b82 A2350000 		.4byte	.LASF1013
ARM GAS  C:\Users\AHMED~1.ELE\AppData\Local\Temp\cc0wYKcg.s 			page 169


 8060 2b86 F808     		.2byte	0x8f8
 8061 2b88 0E       		.byte	0xe
 8062 2b89 6A       		.byte	0x6a
 8063 2b8a B52B0000 		.4byte	0x2bb5
 8064 2b8e 0B       		.uleb128 0xb
 8065 2b8f 82140000 		.4byte	.LASF1014
 8066 2b93 0E       		.byte	0xe
 8067 2b94 6B       		.byte	0x6b
 8068 2b95 CF250000 		.4byte	0x25cf
 8069 2b99 00       		.byte	0
 8070 2b9a 1B       		.uleb128 0x1b
 8071 2b9b B83E0000 		.4byte	.LASF1015
 8072 2b9f 0E       		.byte	0xe
 8073 2ba0 6C       		.byte	0x6c
 8074 2ba1 BA280000 		.4byte	0x28ba
 8075 2ba5 A804     		.2byte	0x4a8
 8076 2ba7 1B       		.uleb128 0x1b
 8077 2ba8 F30B0000 		.4byte	.LASF1016
 8078 2bac 0E       		.byte	0xe
 8079 2bad 6D       		.byte	0x6d
 8080 2bae 1C2A0000 		.4byte	0x2a1c
 8081 2bb2 B006     		.2byte	0x6b0
 8082 2bb4 00       		.byte	0
 8083 2bb5 1D       		.uleb128 0x1d
 8084 2bb6 9F400000 		.4byte	.LASF1030
 8085 2bba 01       		.byte	0x1
 8086 2bbb 42       		.byte	0x42
 8087 2bbc 01       		.byte	0x1
 8088 2bbd E12B0000 		.4byte	0x2be1
 8089 2bc1 1E       		.uleb128 0x1e
 8090 2bc2 CC0B0000 		.4byte	.LASF1017
 8091 2bc6 01       		.byte	0x1
 8092 2bc7 42       		.byte	0x42
 8093 2bc8 5D000000 		.4byte	0x5d
 8094 2bcc 1F       		.uleb128 0x1f
 8095 2bcd 6E756D00 		.ascii	"num\000"
 8096 2bd1 01       		.byte	0x1
 8097 2bd2 42       		.byte	0x42
 8098 2bd3 5D000000 		.4byte	0x5d
 8099 2bd7 20       		.uleb128 0x20
 8100 2bd8 6900     		.ascii	"i\000"
 8101 2bda 01       		.byte	0x1
 8102 2bdb 46       		.byte	0x46
 8103 2bdc 5D000000 		.4byte	0x5d
 8104 2be0 00       		.byte	0
 8105 2be1 21       		.uleb128 0x21
 8106 2be2 B52B0000 		.4byte	0x2bb5
 8107 2be6 00000000 		.4byte	.LFB8
 8108 2bea 0C000000 		.4byte	.LFE8-.LFB8
 8109 2bee 01       		.uleb128 0x1
 8110 2bef 9C       		.byte	0x9c
 8111 2bf0 2A2C0000 		.4byte	0x2c2a
 8112 2bf4 22       		.uleb128 0x22
 8113 2bf5 C12B0000 		.4byte	0x2bc1
 8114 2bf9 00000000 		.4byte	.LLST0
 8115 2bfd 23       		.uleb128 0x23
 8116 2bfe CC2B0000 		.4byte	0x2bcc
ARM GAS  C:\Users\AHMED~1.ELE\AppData\Local\Temp\cc0wYKcg.s 			page 170


 8117 2c02 06       		.uleb128 0x6
 8118 2c03 FA       		.byte	0xfa
 8119 2c04 CC2B0000 		.4byte	0x2bcc
 8120 2c08 9F       		.byte	0x9f
 8121 2c09 24       		.uleb128 0x24
 8122 2c0a D72B0000 		.4byte	0x2bd7
 8123 2c0e 00       		.byte	0
 8124 2c0f 25       		.uleb128 0x25
 8125 2c10 08000000 		.4byte	.LVL2
 8126 2c14 1E4B0000 		.4byte	0x4b1e
 8127 2c18 26       		.uleb128 0x26
 8128 2c19 01       		.uleb128 0x1
 8129 2c1a 51       		.byte	0x51
 8130 2c1b 03       		.uleb128 0x3
 8131 2c1c F3       		.byte	0xf3
 8132 2c1d 01       		.uleb128 0x1
 8133 2c1e 50       		.byte	0x50
 8134 2c1f 26       		.uleb128 0x26
 8135 2c20 01       		.uleb128 0x1
 8136 2c21 50       		.byte	0x50
 8137 2c22 05       		.uleb128 0x5
 8138 2c23 03       		.byte	0x3
 8139 2c24 00000000 		.4byte	field
 8140 2c28 00       		.byte	0
 8141 2c29 00       		.byte	0
 8142 2c2a 27       		.uleb128 0x27
 8143 2c2b D2090000 		.4byte	.LASF1020
 8144 2c2f 01       		.byte	0x1
 8145 2c30 B5       		.byte	0xb5
 8146 2c31 00000000 		.4byte	.LFB5
 8147 2c35 3C000000 		.4byte	.LFE5-.LFB5
 8148 2c39 01       		.uleb128 0x1
 8149 2c3a 9C       		.byte	0x9c
 8150 2c3b 5C2C0000 		.4byte	0x2c5c
 8151 2c3f 28       		.uleb128 0x28
 8152 2c40 D41E0000 		.4byte	.LASF1018
 8153 2c44 01       		.byte	0x1
 8154 2c45 B5       		.byte	0xb5
 8155 2c46 A2000000 		.4byte	0xa2
 8156 2c4a 01       		.uleb128 0x1
 8157 2c4b 50       		.byte	0x50
 8158 2c4c 29       		.uleb128 0x29
 8159 2c4d 37130000 		.4byte	.LASF1019
 8160 2c51 01       		.byte	0x1
 8161 2c52 B5       		.byte	0xb5
 8162 2c53 A2000000 		.4byte	0xa2
 8163 2c57 2C000000 		.4byte	.LLST1
 8164 2c5b 00       		.byte	0
 8165 2c5c 27       		.uleb128 0x27
 8166 2c5d E2210000 		.4byte	.LASF1021
 8167 2c61 01       		.byte	0x1
 8168 2c62 D6       		.byte	0xd6
 8169 2c63 00000000 		.4byte	.LFB6
 8170 2c67 0C0A0000 		.4byte	.LFE6-.LFB6
 8171 2c6b 01       		.uleb128 0x1
 8172 2c6c 9C       		.byte	0x9c
 8173 2c6d 2A3C0000 		.4byte	0x3c2a
ARM GAS  C:\Users\AHMED~1.ELE\AppData\Local\Temp\cc0wYKcg.s 			page 171


 8174 2c71 2A       		.uleb128 0x2a
 8175 2c72 9C330000 		.4byte	.LASF1022
 8176 2c76 01       		.byte	0x1
 8177 2c77 D8       		.byte	0xd8
 8178 2c78 E9000000 		.4byte	0xe9
 8179 2c7c 4A000000 		.4byte	.LLST2
 8180 2c80 2A       		.uleb128 0x2a
 8181 2c81 6B410000 		.4byte	.LASF1023
 8182 2c85 01       		.byte	0x1
 8183 2c86 D8       		.byte	0xd8
 8184 2c87 E9000000 		.4byte	0xe9
 8185 2c8b 68000000 		.4byte	.LLST3
 8186 2c8f 2B       		.uleb128 0x2b
 8187 2c90 3E340000 		.4byte	.LASF1024
 8188 2c94 01       		.byte	0x1
 8189 2c95 D9       		.byte	0xd9
 8190 2c96 BD010000 		.4byte	0x1bd
 8191 2c9a 03       		.uleb128 0x3
 8192 2c9b 91       		.byte	0x91
 8193 2c9c B47E     		.sleb128 -204
 8194 2c9e 2A       		.uleb128 0x2a
 8195 2c9f C62B0000 		.4byte	.LASF1025
 8196 2ca3 01       		.byte	0x1
 8197 2ca4 DA       		.byte	0xda
 8198 2ca5 A2000000 		.4byte	0xa2
 8199 2ca9 86000000 		.4byte	.LLST4
 8200 2cad 2A       		.uleb128 0x2a
 8201 2cae CC2B0000 		.4byte	.LASF1026
 8202 2cb2 01       		.byte	0x1
 8203 2cb3 DA       		.byte	0xda
 8204 2cb4 A2000000 		.4byte	0xa2
 8205 2cb8 C8000000 		.4byte	.LLST5
 8206 2cbc 2C       		.uleb128 0x2c
 8207 2cbd 62756600 		.ascii	"buf\000"
 8208 2cc1 01       		.byte	0x1
 8209 2cc2 DB       		.byte	0xdb
 8210 2cc3 8D010000 		.4byte	0x18d
 8211 2cc7 03       		.uleb128 0x3
 8212 2cc8 91       		.byte	0x91
 8213 2cc9 E07E     		.sleb128 -160
 8214 2ccb 2C       		.uleb128 0x2c
 8215 2ccc 746D7000 		.ascii	"tmp\000"
 8216 2cd0 01       		.byte	0x1
 8217 2cd1 DB       		.byte	0xdb
 8218 2cd2 9D010000 		.4byte	0x19d
 8219 2cd6 03       		.uleb128 0x3
 8220 2cd7 91       		.byte	0x91
 8221 2cd8 987E     		.sleb128 -232
 8222 2cda 2B       		.uleb128 0x2b
 8223 2cdb 9C410000 		.4byte	.LASF1027
 8224 2cdf 01       		.byte	0x1
 8225 2ce0 DB       		.byte	0xdb
 8226 2ce1 EF000000 		.4byte	0xef
 8227 2ce5 03       		.uleb128 0x3
 8228 2ce6 91       		.byte	0x91
 8229 2ce7 947E     		.sleb128 -236
 8230 2ce9 2B       		.uleb128 0x2b
ARM GAS  C:\Users\AHMED~1.ELE\AppData\Local\Temp\cc0wYKcg.s 			page 172


 8231 2cea 762D0000 		.4byte	.LASF1028
 8232 2cee 01       		.byte	0x1
 8233 2cef DC       		.byte	0xdc
 8234 2cf0 73190000 		.4byte	0x1973
 8235 2cf4 03       		.uleb128 0x3
 8236 2cf5 91       		.byte	0x91
 8237 2cf6 C47E     		.sleb128 -188
 8238 2cf8 2B       		.uleb128 0x2b
 8239 2cf9 810B0000 		.4byte	.LASF1029
 8240 2cfd 01       		.byte	0x1
 8241 2cfe DD       		.byte	0xdd
 8242 2cff 2A3C0000 		.4byte	0x3c2a
 8243 2d03 03       		.uleb128 0x3
 8244 2d04 91       		.byte	0x91
 8245 2d05 A47E     		.sleb128 -220
 8246 2d07 2D       		.uleb128 0x2d
 8247 2d08 0A000000 		.4byte	.LVL5
 8248 2d0c 384B0000 		.4byte	0x4b38
 8249 2d10 2D       		.uleb128 0x2d
 8250 2d11 10000000 		.4byte	.LVL6
 8251 2d15 434B0000 		.4byte	0x4b43
 8252 2d19 2E       		.uleb128 0x2e
 8253 2d1a 16000000 		.4byte	.LVL7
 8254 2d1e 544B0000 		.4byte	0x4b54
 8255 2d22 2D2D0000 		.4byte	0x2d2d
 8256 2d26 26       		.uleb128 0x26
 8257 2d27 01       		.uleb128 0x1
 8258 2d28 50       		.byte	0x50
 8259 2d29 02       		.uleb128 0x2
 8260 2d2a 08       		.byte	0x8
 8261 2d2b 49       		.byte	0x49
 8262 2d2c 00       		.byte	0
 8263 2d2d 2E       		.uleb128 0x2e
 8264 2d2e 1C000000 		.4byte	.LVL8
 8265 2d32 544B0000 		.4byte	0x4b54
 8266 2d36 412D0000 		.4byte	0x2d41
 8267 2d3a 26       		.uleb128 0x26
 8268 2d3b 01       		.uleb128 0x1
 8269 2d3c 50       		.byte	0x50
 8270 2d3d 02       		.uleb128 0x2
 8271 2d3e 08       		.byte	0x8
 8272 2d3f 53       		.byte	0x53
 8273 2d40 00       		.byte	0
 8274 2d41 2E       		.uleb128 0x2e
 8275 2d42 22000000 		.4byte	.LVL9
 8276 2d46 544B0000 		.4byte	0x4b54
 8277 2d4a 552D0000 		.4byte	0x2d55
 8278 2d4e 26       		.uleb128 0x26
 8279 2d4f 01       		.uleb128 0x1
 8280 2d50 50       		.byte	0x50
 8281 2d51 02       		.uleb128 0x2
 8282 2d52 08       		.byte	0x8
 8283 2d53 4F       		.byte	0x4f
 8284 2d54 00       		.byte	0
 8285 2d55 2D       		.uleb128 0x2d
 8286 2d56 28000000 		.4byte	.LVL10
 8287 2d5a 694B0000 		.4byte	0x4b69
ARM GAS  C:\Users\AHMED~1.ELE\AppData\Local\Temp\cc0wYKcg.s 			page 173


 8288 2d5e 2E       		.uleb128 0x2e
 8289 2d5f 32000000 		.4byte	.LVL13
 8290 2d63 744B0000 		.4byte	0x4b74
 8291 2d67 712D0000 		.4byte	0x2d71
 8292 2d6b 26       		.uleb128 0x26
 8293 2d6c 01       		.uleb128 0x1
 8294 2d6d 50       		.byte	0x50
 8295 2d6e 01       		.uleb128 0x1
 8296 2d6f 34       		.byte	0x34
 8297 2d70 00       		.byte	0
 8298 2d71 2E       		.uleb128 0x2e
 8299 2d72 38000000 		.4byte	.LVL14
 8300 2d76 544B0000 		.4byte	0x4b54
 8301 2d7a 852D0000 		.4byte	0x2d85
 8302 2d7e 26       		.uleb128 0x26
 8303 2d7f 01       		.uleb128 0x1
 8304 2d80 50       		.byte	0x50
 8305 2d81 02       		.uleb128 0x2
 8306 2d82 08       		.byte	0x8
 8307 2d83 32       		.byte	0x32
 8308 2d84 00       		.byte	0
 8309 2d85 2E       		.uleb128 0x2e
 8310 2d86 3E000000 		.4byte	.LVL15
 8311 2d8a 544B0000 		.4byte	0x4b54
 8312 2d8e 992D0000 		.4byte	0x2d99
 8313 2d92 26       		.uleb128 0x26
 8314 2d93 01       		.uleb128 0x1
 8315 2d94 50       		.byte	0x50
 8316 2d95 02       		.uleb128 0x2
 8317 2d96 08       		.byte	0x8
 8318 2d97 31       		.byte	0x31
 8319 2d98 00       		.byte	0
 8320 2d99 2E       		.uleb128 0x2e
 8321 2d9a 44000000 		.4byte	.LVL16
 8322 2d9e 544B0000 		.4byte	0x4b54
 8323 2da2 AD2D0000 		.4byte	0x2dad
 8324 2da6 26       		.uleb128 0x26
 8325 2da7 01       		.uleb128 0x1
 8326 2da8 50       		.byte	0x50
 8327 2da9 02       		.uleb128 0x2
 8328 2daa 08       		.byte	0x8
 8329 2dab 31       		.byte	0x31
 8330 2dac 00       		.byte	0
 8331 2dad 2E       		.uleb128 0x2e
 8332 2dae 4A000000 		.4byte	.LVL17
 8333 2db2 544B0000 		.4byte	0x4b54
 8334 2db6 C12D0000 		.4byte	0x2dc1
 8335 2dba 26       		.uleb128 0x26
 8336 2dbb 01       		.uleb128 0x1
 8337 2dbc 50       		.byte	0x50
 8338 2dbd 02       		.uleb128 0x2
 8339 2dbe 08       		.byte	0x8
 8340 2dbf 31       		.byte	0x31
 8341 2dc0 00       		.byte	0
 8342 2dc1 2E       		.uleb128 0x2e
 8343 2dc2 50000000 		.4byte	.LVL18
 8344 2dc6 544B0000 		.4byte	0x4b54
ARM GAS  C:\Users\AHMED~1.ELE\AppData\Local\Temp\cc0wYKcg.s 			page 174


 8345 2dca D52D0000 		.4byte	0x2dd5
 8346 2dce 26       		.uleb128 0x26
 8347 2dcf 01       		.uleb128 0x1
 8348 2dd0 50       		.byte	0x50
 8349 2dd1 02       		.uleb128 0x2
 8350 2dd2 08       		.byte	0x8
 8351 2dd3 30       		.byte	0x30
 8352 2dd4 00       		.byte	0
 8353 2dd5 2E       		.uleb128 0x2e
 8354 2dd6 56000000 		.4byte	.LVL19
 8355 2dda 544B0000 		.4byte	0x4b54
 8356 2dde E92D0000 		.4byte	0x2de9
 8357 2de2 26       		.uleb128 0x26
 8358 2de3 01       		.uleb128 0x1
 8359 2de4 50       		.byte	0x50
 8360 2de5 02       		.uleb128 0x2
 8361 2de6 08       		.byte	0x8
 8362 2de7 35       		.byte	0x35
 8363 2de8 00       		.byte	0
 8364 2de9 2E       		.uleb128 0x2e
 8365 2dea 5C000000 		.4byte	.LVL20
 8366 2dee 544B0000 		.4byte	0x4b54
 8367 2df2 FD2D0000 		.4byte	0x2dfd
 8368 2df6 26       		.uleb128 0x26
 8369 2df7 01       		.uleb128 0x1
 8370 2df8 50       		.byte	0x50
 8371 2df9 02       		.uleb128 0x2
 8372 2dfa 08       		.byte	0x8
 8373 2dfb 30       		.byte	0x30
 8374 2dfc 00       		.byte	0
 8375 2dfd 2E       		.uleb128 0x2e
 8376 2dfe 62000000 		.4byte	.LVL21
 8377 2e02 544B0000 		.4byte	0x4b54
 8378 2e06 112E0000 		.4byte	0x2e11
 8379 2e0a 26       		.uleb128 0x26
 8380 2e0b 01       		.uleb128 0x1
 8381 2e0c 50       		.byte	0x50
 8382 2e0d 02       		.uleb128 0x2
 8383 2e0e 08       		.byte	0x8
 8384 2e0f 30       		.byte	0x30
 8385 2e10 00       		.byte	0
 8386 2e11 2E       		.uleb128 0x2e
 8387 2e12 68000000 		.4byte	.LVL22
 8388 2e16 544B0000 		.4byte	0x4b54
 8389 2e1a 252E0000 		.4byte	0x2e25
 8390 2e1e 26       		.uleb128 0x26
 8391 2e1f 01       		.uleb128 0x1
 8392 2e20 50       		.byte	0x50
 8393 2e21 02       		.uleb128 0x2
 8394 2e22 08       		.byte	0x8
 8395 2e23 30       		.byte	0x30
 8396 2e24 00       		.byte	0
 8397 2e25 2E       		.uleb128 0x2e
 8398 2e26 78000000 		.4byte	.LVL23
 8399 2e2a 894B0000 		.4byte	0x4b89
 8400 2e2e 432E0000 		.4byte	0x2e43
 8401 2e32 26       		.uleb128 0x26
ARM GAS  C:\Users\AHMED~1.ELE\AppData\Local\Temp\cc0wYKcg.s 			page 175


 8402 2e33 01       		.uleb128 0x1
 8403 2e34 51       		.byte	0x51
 8404 2e35 05       		.uleb128 0x5
 8405 2e36 03       		.byte	0x3
 8406 2e37 00000000 		.4byte	.LC0
 8407 2e3b 26       		.uleb128 0x26
 8408 2e3c 01       		.uleb128 0x1
 8409 2e3d 50       		.byte	0x50
 8410 2e3e 03       		.uleb128 0x3
 8411 2e3f 91       		.byte	0x91
 8412 2e40 E07E     		.sleb128 -160
 8413 2e42 00       		.byte	0
 8414 2e43 2E       		.uleb128 0x2e
 8415 2e44 80000000 		.4byte	.LVL24
 8416 2e48 A44B0000 		.4byte	0x4ba4
 8417 2e4c 5D2E0000 		.4byte	0x2e5d
 8418 2e50 26       		.uleb128 0x26
 8419 2e51 01       		.uleb128 0x1
 8420 2e52 51       		.byte	0x51
 8421 2e53 01       		.uleb128 0x1
 8422 2e54 34       		.byte	0x34
 8423 2e55 26       		.uleb128 0x26
 8424 2e56 01       		.uleb128 0x1
 8425 2e57 50       		.byte	0x50
 8426 2e58 03       		.uleb128 0x3
 8427 2e59 91       		.byte	0x91
 8428 2e5a E07E     		.sleb128 -160
 8429 2e5c 00       		.byte	0
 8430 2e5d 2E       		.uleb128 0x2e
 8431 2e5e 92000000 		.4byte	.LVL25
 8432 2e62 BA4B0000 		.4byte	0x4bba
 8433 2e66 772E0000 		.4byte	0x2e77
 8434 2e6a 26       		.uleb128 0x26
 8435 2e6b 01       		.uleb128 0x1
 8436 2e6c 52       		.byte	0x52
 8437 2e6d 01       		.uleb128 0x1
 8438 2e6e 40       		.byte	0x40
 8439 2e6f 26       		.uleb128 0x26
 8440 2e70 01       		.uleb128 0x1
 8441 2e71 50       		.byte	0x50
 8442 2e72 03       		.uleb128 0x3
 8443 2e73 91       		.byte	0x91
 8444 2e74 B47E     		.sleb128 -204
 8445 2e76 00       		.byte	0
 8446 2e77 2D       		.uleb128 0x2d
 8447 2e78 96000000 		.4byte	.LVL26
 8448 2e7c 694B0000 		.4byte	0x4b69
 8449 2e80 2E       		.uleb128 0x2e
 8450 2e81 AA000000 		.4byte	.LVL29
 8451 2e85 744B0000 		.4byte	0x4b74
 8452 2e89 B22E0000 		.4byte	0x2eb2
 8453 2e8d 26       		.uleb128 0x26
 8454 2e8e 01       		.uleb128 0x1
 8455 2e8f 50       		.byte	0x50
 8456 2e90 20       		.uleb128 0x20
 8457 2e91 38       		.byte	0x38
 8458 2e92 40       		.byte	0x40
ARM GAS  C:\Users\AHMED~1.ELE\AppData\Local\Temp\cc0wYKcg.s 			page 176


 8459 2e93 76       		.byte	0x76
 8460 2e94 00       		.sleb128 0
 8461 2e95 79       		.byte	0x79
 8462 2e96 00       		.sleb128 0
 8463 2e97 09       		.byte	0x9
 8464 2e98 FC       		.byte	0xfc
 8465 2e99 24       		.byte	0x24
 8466 2e9a 33       		.byte	0x33
 8467 2e9b 25       		.byte	0x25
 8468 2e9c 30       		.byte	0x30
 8469 2e9d 2E       		.byte	0x2e
 8470 2e9e 28       		.byte	0x28
 8471 2e9f 0100     		.2byte	0x1
 8472 2ea1 16       		.byte	0x16
 8473 2ea2 13       		.byte	0x13
 8474 2ea3 79       		.byte	0x79
 8475 2ea4 00       		.sleb128 0
 8476 2ea5 09       		.byte	0x9
 8477 2ea6 FC       		.byte	0xfc
 8478 2ea7 24       		.byte	0x24
 8479 2ea8 33       		.byte	0x33
 8480 2ea9 25       		.byte	0x25
 8481 2eaa 30       		.byte	0x30
 8482 2eab 29       		.byte	0x29
 8483 2eac 28       		.byte	0x28
 8484 2ead 0100     		.2byte	0x1
 8485 2eaf 16       		.byte	0x16
 8486 2eb0 13       		.byte	0x13
 8487 2eb1 00       		.byte	0
 8488 2eb2 2E       		.uleb128 0x2e
 8489 2eb3 B4000000 		.4byte	.LVL30
 8490 2eb7 D74B0000 		.4byte	0x4bd7
 8491 2ebb CE2E0000 		.4byte	0x2ece
 8492 2ebf 26       		.uleb128 0x26
 8493 2ec0 01       		.uleb128 0x1
 8494 2ec1 52       		.byte	0x52
 8495 2ec2 01       		.uleb128 0x1
 8496 2ec3 36       		.byte	0x36
 8497 2ec4 26       		.uleb128 0x26
 8498 2ec5 01       		.uleb128 0x1
 8499 2ec6 51       		.byte	0x51
 8500 2ec7 05       		.uleb128 0x5
 8501 2ec8 03       		.byte	0x3
 8502 2ec9 00000000 		.4byte	.LANCHOR0
 8503 2ecd 00       		.byte	0
 8504 2ece 2D       		.uleb128 0x2d
 8505 2ecf BC000000 		.4byte	.LVL31
 8506 2ed3 F64B0000 		.4byte	0x4bf6
 8507 2ed7 2E       		.uleb128 0x2e
 8508 2ed8 C4000000 		.4byte	.LVL32
 8509 2edc 0D4C0000 		.4byte	0x4c0d
 8510 2ee0 F12E0000 		.4byte	0x2ef1
 8511 2ee4 26       		.uleb128 0x26
 8512 2ee5 01       		.uleb128 0x1
 8513 2ee6 51       		.byte	0x51
 8514 2ee7 03       		.uleb128 0x3
 8515 2ee8 91       		.byte	0x91
ARM GAS  C:\Users\AHMED~1.ELE\AppData\Local\Temp\cc0wYKcg.s 			page 177


 8516 2ee9 A47E     		.sleb128 -220
 8517 2eeb 26       		.uleb128 0x26
 8518 2eec 01       		.uleb128 0x1
 8519 2eed 50       		.byte	0x50
 8520 2eee 01       		.uleb128 0x1
 8521 2eef 42       		.byte	0x42
 8522 2ef0 00       		.byte	0
 8523 2ef1 2E       		.uleb128 0x2e
 8524 2ef2 D4000000 		.4byte	.LVL33
 8525 2ef6 274C0000 		.4byte	0x4c27
 8526 2efa 0A2F0000 		.4byte	0x2f0a
 8527 2efe 26       		.uleb128 0x26
 8528 2eff 01       		.uleb128 0x1
 8529 2f00 52       		.byte	0x52
 8530 2f01 01       		.uleb128 0x1
 8531 2f02 3A       		.byte	0x3a
 8532 2f03 26       		.uleb128 0x26
 8533 2f04 01       		.uleb128 0x1
 8534 2f05 51       		.byte	0x51
 8535 2f06 02       		.uleb128 0x2
 8536 2f07 08       		.byte	0x8
 8537 2f08 FF       		.byte	0xff
 8538 2f09 00       		.byte	0
 8539 2f0a 2E       		.uleb128 0x2e
 8540 2f0b 04010000 		.4byte	.LVL39
 8541 2f0f 464C0000 		.4byte	0x4c46
 8542 2f13 1E2F0000 		.4byte	0x2f1e
 8543 2f17 26       		.uleb128 0x26
 8544 2f18 01       		.uleb128 0x1
 8545 2f19 50       		.byte	0x50
 8546 2f1a 02       		.uleb128 0x2
 8547 2f1b 75       		.byte	0x75
 8548 2f1c 00       		.sleb128 0
 8549 2f1d 00       		.byte	0
 8550 2f1e 2D       		.uleb128 0x2d
 8551 2f1f 0A010000 		.4byte	.LVL40
 8552 2f23 544B0000 		.4byte	0x4b54
 8553 2f27 2E       		.uleb128 0x2e
 8554 2f28 14010000 		.4byte	.LVL41
 8555 2f2c 5B4C0000 		.4byte	0x4c5b
 8556 2f30 422F0000 		.4byte	0x2f42
 8557 2f34 26       		.uleb128 0x26
 8558 2f35 01       		.uleb128 0x1
 8559 2f36 52       		.byte	0x52
 8560 2f37 02       		.uleb128 0x2
 8561 2f38 78       		.byte	0x78
 8562 2f39 00       		.sleb128 0
 8563 2f3a 26       		.uleb128 0x26
 8564 2f3b 01       		.uleb128 0x1
 8565 2f3c 50       		.byte	0x50
 8566 2f3d 03       		.uleb128 0x3
 8567 2f3e 91       		.byte	0x91
 8568 2f3f E07E     		.sleb128 -160
 8569 2f41 00       		.byte	0
 8570 2f42 2E       		.uleb128 0x2e
 8571 2f43 1C010000 		.4byte	.LVL42
 8572 2f47 A44B0000 		.4byte	0x4ba4
ARM GAS  C:\Users\AHMED~1.ELE\AppData\Local\Temp\cc0wYKcg.s 			page 178


 8573 2f4b 5D2F0000 		.4byte	0x2f5d
 8574 2f4f 26       		.uleb128 0x26
 8575 2f50 01       		.uleb128 0x1
 8576 2f51 51       		.byte	0x51
 8577 2f52 02       		.uleb128 0x2
 8578 2f53 75       		.byte	0x75
 8579 2f54 00       		.sleb128 0
 8580 2f55 26       		.uleb128 0x26
 8581 2f56 01       		.uleb128 0x1
 8582 2f57 50       		.byte	0x50
 8583 2f58 03       		.uleb128 0x3
 8584 2f59 91       		.byte	0x91
 8585 2f5a E07E     		.sleb128 -160
 8586 2f5c 00       		.byte	0
 8587 2f5d 2E       		.uleb128 0x2e
 8588 2f5e 2A010000 		.4byte	.LVL43
 8589 2f62 764C0000 		.4byte	0x4c76
 8590 2f66 702F0000 		.4byte	0x2f70
 8591 2f6a 26       		.uleb128 0x26
 8592 2f6b 01       		.uleb128 0x1
 8593 2f6c 51       		.byte	0x51
 8594 2f6d 01       		.uleb128 0x1
 8595 2f6e 33       		.byte	0x33
 8596 2f6f 00       		.byte	0
 8597 2f70 2E       		.uleb128 0x2e
 8598 2f71 44010000 		.4byte	.LVL44
 8599 2f75 8C4C0000 		.4byte	0x4c8c
 8600 2f79 852F0000 		.4byte	0x2f85
 8601 2f7d 26       		.uleb128 0x26
 8602 2f7e 01       		.uleb128 0x1
 8603 2f7f 50       		.byte	0x50
 8604 2f80 03       		.uleb128 0x3
 8605 2f81 91       		.byte	0x91
 8606 2f82 987E     		.sleb128 -232
 8607 2f84 00       		.byte	0
 8608 2f85 2E       		.uleb128 0x2e
 8609 2f86 56010000 		.4byte	.LVL45
 8610 2f8a 764C0000 		.4byte	0x4c76
 8611 2f8e 9F2F0000 		.4byte	0x2f9f
 8612 2f92 26       		.uleb128 0x26
 8613 2f93 01       		.uleb128 0x1
 8614 2f94 51       		.byte	0x51
 8615 2f95 01       		.uleb128 0x1
 8616 2f96 36       		.byte	0x36
 8617 2f97 26       		.uleb128 0x26
 8618 2f98 01       		.uleb128 0x1
 8619 2f99 50       		.byte	0x50
 8620 2f9a 03       		.uleb128 0x3
 8621 2f9b 91       		.byte	0x91
 8622 2f9c 9C7E     		.sleb128 -228
 8623 2f9e 00       		.byte	0
 8624 2f9f 2E       		.uleb128 0x2e
 8625 2fa0 66010000 		.4byte	.LVL46
 8626 2fa4 A44B0000 		.4byte	0x4ba4
 8627 2fa8 B92F0000 		.4byte	0x2fb9
 8628 2fac 26       		.uleb128 0x26
 8629 2fad 01       		.uleb128 0x1
ARM GAS  C:\Users\AHMED~1.ELE\AppData\Local\Temp\cc0wYKcg.s 			page 179


 8630 2fae 51       		.byte	0x51
 8631 2faf 01       		.uleb128 0x1
 8632 2fb0 3A       		.byte	0x3a
 8633 2fb1 26       		.uleb128 0x26
 8634 2fb2 01       		.uleb128 0x1
 8635 2fb3 50       		.byte	0x50
 8636 2fb4 03       		.uleb128 0x3
 8637 2fb5 91       		.byte	0x91
 8638 2fb6 A67E     		.sleb128 -218
 8639 2fb8 00       		.byte	0
 8640 2fb9 2E       		.uleb128 0x2e
 8641 2fba 76010000 		.4byte	.LVL47
 8642 2fbe 764C0000 		.4byte	0x4c76
 8643 2fc2 CC2F0000 		.4byte	0x2fcc
 8644 2fc6 26       		.uleb128 0x26
 8645 2fc7 01       		.uleb128 0x1
 8646 2fc8 51       		.byte	0x51
 8647 2fc9 01       		.uleb128 0x1
 8648 2fca 33       		.byte	0x33
 8649 2fcb 00       		.byte	0
 8650 2fcc 2E       		.uleb128 0x2e
 8651 2fcd 84010000 		.4byte	.LVL48
 8652 2fd1 A44B0000 		.4byte	0x4ba4
 8653 2fd5 E62F0000 		.4byte	0x2fe6
 8654 2fd9 26       		.uleb128 0x26
 8655 2fda 01       		.uleb128 0x1
 8656 2fdb 51       		.byte	0x51
 8657 2fdc 01       		.uleb128 0x1
 8658 2fdd 3C       		.byte	0x3c
 8659 2fde 26       		.uleb128 0x26
 8660 2fdf 01       		.uleb128 0x1
 8661 2fe0 50       		.byte	0x50
 8662 2fe1 03       		.uleb128 0x3
 8663 2fe2 91       		.byte	0x91
 8664 2fe3 A67E     		.sleb128 -218
 8665 2fe5 00       		.byte	0
 8666 2fe6 2E       		.uleb128 0x2e
 8667 2fe7 90010000 		.4byte	.LVL49
 8668 2feb 764C0000 		.4byte	0x4c76
 8669 2fef F92F0000 		.4byte	0x2ff9
 8670 2ff3 26       		.uleb128 0x26
 8671 2ff4 01       		.uleb128 0x1
 8672 2ff5 51       		.byte	0x51
 8673 2ff6 01       		.uleb128 0x1
 8674 2ff7 32       		.byte	0x32
 8675 2ff8 00       		.byte	0
 8676 2ff9 2E       		.uleb128 0x2e
 8677 2ffa A0010000 		.4byte	.LVL50
 8678 2ffe A44B0000 		.4byte	0x4ba4
 8679 3002 13300000 		.4byte	0x3013
 8680 3006 26       		.uleb128 0x26
 8681 3007 01       		.uleb128 0x1
 8682 3008 51       		.byte	0x51
 8683 3009 01       		.uleb128 0x1
 8684 300a 32       		.byte	0x32
 8685 300b 26       		.uleb128 0x26
 8686 300c 01       		.uleb128 0x1
ARM GAS  C:\Users\AHMED~1.ELE\AppData\Local\Temp\cc0wYKcg.s 			page 180


 8687 300d 50       		.byte	0x50
 8688 300e 03       		.uleb128 0x3
 8689 300f 91       		.byte	0x91
 8690 3010 A87E     		.sleb128 -216
 8691 3012 00       		.byte	0
 8692 3013 2E       		.uleb128 0x2e
 8693 3014 AA010000 		.4byte	.LVL51
 8694 3018 A44B0000 		.4byte	0x4ba4
 8695 301c 2D300000 		.4byte	0x302d
 8696 3020 26       		.uleb128 0x26
 8697 3021 01       		.uleb128 0x1
 8698 3022 51       		.byte	0x51
 8699 3023 01       		.uleb128 0x1
 8700 3024 32       		.byte	0x32
 8701 3025 26       		.uleb128 0x26
 8702 3026 01       		.uleb128 0x1
 8703 3027 50       		.byte	0x50
 8704 3028 03       		.uleb128 0x3
 8705 3029 91       		.byte	0x91
 8706 302a AA7E     		.sleb128 -214
 8707 302c 00       		.byte	0
 8708 302d 2E       		.uleb128 0x2e
 8709 302e B4010000 		.4byte	.LVL52
 8710 3032 544B0000 		.4byte	0x4b54
 8711 3036 41300000 		.4byte	0x3041
 8712 303a 26       		.uleb128 0x26
 8713 303b 01       		.uleb128 0x1
 8714 303c 50       		.byte	0x50
 8715 303d 02       		.uleb128 0x2
 8716 303e 08       		.byte	0x8
 8717 303f 38       		.byte	0x38
 8718 3040 00       		.byte	0
 8719 3041 2E       		.uleb128 0x2e
 8720 3042 BA010000 		.4byte	.LVL53
 8721 3046 544B0000 		.4byte	0x4b54
 8722 304a 55300000 		.4byte	0x3055
 8723 304e 26       		.uleb128 0x26
 8724 304f 01       		.uleb128 0x1
 8725 3050 50       		.byte	0x50
 8726 3051 02       		.uleb128 0x2
 8727 3052 08       		.byte	0x8
 8728 3053 31       		.byte	0x31
 8729 3054 00       		.byte	0
 8730 3055 2E       		.uleb128 0x2e
 8731 3056 C0010000 		.4byte	.LVL54
 8732 305a 544B0000 		.4byte	0x4b54
 8733 305e 69300000 		.4byte	0x3069
 8734 3062 26       		.uleb128 0x26
 8735 3063 01       		.uleb128 0x1
 8736 3064 50       		.byte	0x50
 8737 3065 02       		.uleb128 0x2
 8738 3066 08       		.byte	0x8
 8739 3067 30       		.byte	0x30
 8740 3068 00       		.byte	0
 8741 3069 2E       		.uleb128 0x2e
 8742 306a C6010000 		.4byte	.LVL55
 8743 306e 544B0000 		.4byte	0x4b54
ARM GAS  C:\Users\AHMED~1.ELE\AppData\Local\Temp\cc0wYKcg.s 			page 181


 8744 3072 7D300000 		.4byte	0x307d
 8745 3076 26       		.uleb128 0x26
 8746 3077 01       		.uleb128 0x1
 8747 3078 50       		.byte	0x50
 8748 3079 02       		.uleb128 0x2
 8749 307a 08       		.byte	0x8
 8750 307b 31       		.byte	0x31
 8751 307c 00       		.byte	0
 8752 307d 2E       		.uleb128 0x2e
 8753 307e CC010000 		.4byte	.LVL56
 8754 3082 544B0000 		.4byte	0x4b54
 8755 3086 91300000 		.4byte	0x3091
 8756 308a 26       		.uleb128 0x26
 8757 308b 01       		.uleb128 0x1
 8758 308c 50       		.byte	0x50
 8759 308d 02       		.uleb128 0x2
 8760 308e 08       		.byte	0x8
 8761 308f 30       		.byte	0x30
 8762 3090 00       		.byte	0
 8763 3091 2E       		.uleb128 0x2e
 8764 3092 D2010000 		.4byte	.LVL57
 8765 3096 544B0000 		.4byte	0x4b54
 8766 309a A5300000 		.4byte	0x30a5
 8767 309e 26       		.uleb128 0x26
 8768 309f 01       		.uleb128 0x1
 8769 30a0 50       		.byte	0x50
 8770 30a1 02       		.uleb128 0x2
 8771 30a2 08       		.byte	0x8
 8772 30a3 31       		.byte	0x31
 8773 30a4 00       		.byte	0
 8774 30a5 2D       		.uleb128 0x2d
 8775 30a6 02020000 		.4byte	.LVL58
 8776 30aa 544B0000 		.4byte	0x4b54
 8777 30ae 2E       		.uleb128 0x2e
 8778 30af 0C020000 		.4byte	.LVL59
 8779 30b3 544B0000 		.4byte	0x4b54
 8780 30b7 C2300000 		.4byte	0x30c2
 8781 30bb 26       		.uleb128 0x26
 8782 30bc 01       		.uleb128 0x1
 8783 30bd 50       		.byte	0x50
 8784 30be 02       		.uleb128 0x2
 8785 30bf 08       		.byte	0x8
 8786 30c0 35       		.byte	0x35
 8787 30c1 00       		.byte	0
 8788 30c2 2D       		.uleb128 0x2d
 8789 30c3 12020000 		.4byte	.LVL60
 8790 30c7 544B0000 		.4byte	0x4b54
 8791 30cb 2E       		.uleb128 0x2e
 8792 30cc 18020000 		.4byte	.LVL61
 8793 30d0 544B0000 		.4byte	0x4b54
 8794 30d4 DF300000 		.4byte	0x30df
 8795 30d8 26       		.uleb128 0x26
 8796 30d9 01       		.uleb128 0x1
 8797 30da 50       		.byte	0x50
 8798 30db 02       		.uleb128 0x2
 8799 30dc 08       		.byte	0x8
 8800 30dd 30       		.byte	0x30
ARM GAS  C:\Users\AHMED~1.ELE\AppData\Local\Temp\cc0wYKcg.s 			page 182


 8801 30de 00       		.byte	0
 8802 30df 2E       		.uleb128 0x2e
 8803 30e0 1E020000 		.4byte	.LVL62
 8804 30e4 544B0000 		.4byte	0x4b54
 8805 30e8 F3300000 		.4byte	0x30f3
 8806 30ec 26       		.uleb128 0x26
 8807 30ed 01       		.uleb128 0x1
 8808 30ee 50       		.byte	0x50
 8809 30ef 02       		.uleb128 0x2
 8810 30f0 08       		.byte	0x8
 8811 30f1 31       		.byte	0x31
 8812 30f2 00       		.byte	0
 8813 30f3 2E       		.uleb128 0x2e
 8814 30f4 24020000 		.4byte	.LVL63
 8815 30f8 544B0000 		.4byte	0x4b54
 8816 30fc 07310000 		.4byte	0x3107
 8817 3100 26       		.uleb128 0x26
 8818 3101 01       		.uleb128 0x1
 8819 3102 50       		.byte	0x50
 8820 3103 02       		.uleb128 0x2
 8821 3104 08       		.byte	0x8
 8822 3105 34       		.byte	0x34
 8823 3106 00       		.byte	0
 8824 3107 2E       		.uleb128 0x2e
 8825 3108 2A020000 		.4byte	.LVL64
 8826 310c 544B0000 		.4byte	0x4b54
 8827 3110 1B310000 		.4byte	0x311b
 8828 3114 26       		.uleb128 0x26
 8829 3115 01       		.uleb128 0x1
 8830 3116 50       		.byte	0x50
 8831 3117 02       		.uleb128 0x2
 8832 3118 08       		.byte	0x8
 8833 3119 63       		.byte	0x63
 8834 311a 00       		.byte	0
 8835 311b 2E       		.uleb128 0x2e
 8836 311c 3A020000 		.4byte	.LVL65
 8837 3120 A44B0000 		.4byte	0x4ba4
 8838 3124 37310000 		.4byte	0x3137
 8839 3128 26       		.uleb128 0x26
 8840 3129 01       		.uleb128 0x1
 8841 312a 51       		.byte	0x51
 8842 312b 01       		.uleb128 0x1
 8843 312c 33       		.byte	0x33
 8844 312d 26       		.uleb128 0x26
 8845 312e 01       		.uleb128 0x1
 8846 312f 50       		.byte	0x50
 8847 3130 05       		.uleb128 0x5
 8848 3131 03       		.byte	0x3
 8849 3132 05000000 		.4byte	.LC2
 8850 3136 00       		.byte	0
 8851 3137 2E       		.uleb128 0x2e
 8852 3138 78020000 		.4byte	.LVL66
 8853 313c A44B0000 		.4byte	0x4ba4
 8854 3140 4A310000 		.4byte	0x314a
 8855 3144 26       		.uleb128 0x26
 8856 3145 01       		.uleb128 0x1
 8857 3146 51       		.byte	0x51
ARM GAS  C:\Users\AHMED~1.ELE\AppData\Local\Temp\cc0wYKcg.s 			page 183


 8858 3147 01       		.uleb128 0x1
 8859 3148 33       		.byte	0x33
 8860 3149 00       		.byte	0
 8861 314a 2E       		.uleb128 0x2e
 8862 314b 88020000 		.4byte	.LVL67
 8863 314f A44B0000 		.4byte	0x4ba4
 8864 3153 66310000 		.4byte	0x3166
 8865 3157 26       		.uleb128 0x26
 8866 3158 01       		.uleb128 0x1
 8867 3159 51       		.byte	0x51
 8868 315a 01       		.uleb128 0x1
 8869 315b 34       		.byte	0x34
 8870 315c 26       		.uleb128 0x26
 8871 315d 01       		.uleb128 0x1
 8872 315e 50       		.byte	0x50
 8873 315f 05       		.uleb128 0x5
 8874 3160 03       		.byte	0x3
 8875 3161 25000000 		.4byte	.LC10
 8876 3165 00       		.byte	0
 8877 3166 2E       		.uleb128 0x2e
 8878 3167 92020000 		.4byte	.LVL68
 8879 316b 544B0000 		.4byte	0x4b54
 8880 316f 79310000 		.4byte	0x3179
 8881 3173 26       		.uleb128 0x26
 8882 3174 01       		.uleb128 0x1
 8883 3175 50       		.byte	0x50
 8884 3176 01       		.uleb128 0x1
 8885 3177 36       		.byte	0x36
 8886 3178 00       		.byte	0
 8887 3179 2E       		.uleb128 0x2e
 8888 317a 9A020000 		.4byte	.LVL69
 8889 317e A44B0000 		.4byte	0x4ba4
 8890 3182 95310000 		.4byte	0x3195
 8891 3186 26       		.uleb128 0x26
 8892 3187 01       		.uleb128 0x1
 8893 3188 51       		.byte	0x51
 8894 3189 01       		.uleb128 0x1
 8895 318a 36       		.byte	0x36
 8896 318b 26       		.uleb128 0x26
 8897 318c 01       		.uleb128 0x1
 8898 318d 50       		.byte	0x50
 8899 318e 05       		.uleb128 0x5
 8900 318f 03       		.byte	0x3
 8901 3190 2A000000 		.4byte	.LC11
 8902 3194 00       		.byte	0
 8903 3195 2E       		.uleb128 0x2e
 8904 3196 A8020000 		.4byte	.LVL70
 8905 319a 544B0000 		.4byte	0x4b54
 8906 319e A8310000 		.4byte	0x31a8
 8907 31a2 26       		.uleb128 0x26
 8908 31a3 01       		.uleb128 0x1
 8909 31a4 50       		.byte	0x50
 8910 31a5 01       		.uleb128 0x1
 8911 31a6 38       		.byte	0x38
 8912 31a7 00       		.byte	0
 8913 31a8 2E       		.uleb128 0x2e
 8914 31a9 B0020000 		.4byte	.LVL71
ARM GAS  C:\Users\AHMED~1.ELE\AppData\Local\Temp\cc0wYKcg.s 			page 184


 8915 31ad A44B0000 		.4byte	0x4ba4
 8916 31b1 C4310000 		.4byte	0x31c4
 8917 31b5 26       		.uleb128 0x26
 8918 31b6 01       		.uleb128 0x1
 8919 31b7 51       		.byte	0x51
 8920 31b8 01       		.uleb128 0x1
 8921 31b9 38       		.byte	0x38
 8922 31ba 26       		.uleb128 0x26
 8923 31bb 01       		.uleb128 0x1
 8924 31bc 50       		.byte	0x50
 8925 31bd 05       		.uleb128 0x5
 8926 31be 03       		.byte	0x3
 8927 31bf 31000000 		.4byte	.LC12
 8928 31c3 00       		.byte	0
 8929 31c4 2D       		.uleb128 0x2d
 8930 31c5 BE020000 		.4byte	.LVL72
 8931 31c9 464C0000 		.4byte	0x4c46
 8932 31cd 2D       		.uleb128 0x2d
 8933 31ce C4020000 		.4byte	.LVL73
 8934 31d2 544B0000 		.4byte	0x4b54
 8935 31d6 2D       		.uleb128 0x2d
 8936 31d7 CE020000 		.4byte	.LVL74
 8937 31db A44B0000 		.4byte	0x4ba4
 8938 31df 2E       		.uleb128 0x2e
 8939 31e0 44030000 		.4byte	.LVL75
 8940 31e4 764C0000 		.4byte	0x4c76
 8941 31e8 F2310000 		.4byte	0x31f2
 8942 31ec 26       		.uleb128 0x26
 8943 31ed 01       		.uleb128 0x1
 8944 31ee 51       		.byte	0x51
 8945 31ef 01       		.uleb128 0x1
 8946 31f0 33       		.byte	0x33
 8947 31f1 00       		.byte	0
 8948 31f2 2E       		.uleb128 0x2e
 8949 31f3 4C030000 		.4byte	.LVL76
 8950 31f7 A44B0000 		.4byte	0x4ba4
 8951 31fb 0E320000 		.4byte	0x320e
 8952 31ff 26       		.uleb128 0x26
 8953 3200 01       		.uleb128 0x1
 8954 3201 51       		.byte	0x51
 8955 3202 01       		.uleb128 0x1
 8956 3203 36       		.byte	0x36
 8957 3204 26       		.uleb128 0x26
 8958 3205 01       		.uleb128 0x1
 8959 3206 50       		.byte	0x50
 8960 3207 05       		.uleb128 0x5
 8961 3208 03       		.byte	0x3
 8962 3209 3A000000 		.4byte	.LC13
 8963 320d 00       		.byte	0
 8964 320e 2E       		.uleb128 0x2e
 8965 320f 58030000 		.4byte	.LVL77
 8966 3213 A44B0000 		.4byte	0x4ba4
 8967 3217 21320000 		.4byte	0x3221
 8968 321b 26       		.uleb128 0x26
 8969 321c 01       		.uleb128 0x1
 8970 321d 51       		.byte	0x51
 8971 321e 01       		.uleb128 0x1
ARM GAS  C:\Users\AHMED~1.ELE\AppData\Local\Temp\cc0wYKcg.s 			page 185


 8972 321f 36       		.byte	0x36
 8973 3220 00       		.byte	0
 8974 3221 2E       		.uleb128 0x2e
 8975 3222 68030000 		.4byte	.LVL78
 8976 3226 A44B0000 		.4byte	0x4ba4
 8977 322a 3D320000 		.4byte	0x323d
 8978 322e 26       		.uleb128 0x26
 8979 322f 01       		.uleb128 0x1
 8980 3230 51       		.byte	0x51
 8981 3231 01       		.uleb128 0x1
 8982 3232 38       		.byte	0x38
 8983 3233 26       		.uleb128 0x26
 8984 3234 01       		.uleb128 0x1
 8985 3235 50       		.byte	0x50
 8986 3236 05       		.uleb128 0x5
 8987 3237 03       		.byte	0x3
 8988 3238 41000000 		.4byte	.LC14
 8989 323c 00       		.byte	0
 8990 323d 2E       		.uleb128 0x2e
 8991 323e 74030000 		.4byte	.LVL79
 8992 3242 A44B0000 		.4byte	0x4ba4
 8993 3246 59320000 		.4byte	0x3259
 8994 324a 26       		.uleb128 0x26
 8995 324b 01       		.uleb128 0x1
 8996 324c 51       		.byte	0x51
 8997 324d 01       		.uleb128 0x1
 8998 324e 3F       		.byte	0x3f
 8999 324f 26       		.uleb128 0x26
 9000 3250 01       		.uleb128 0x1
 9001 3251 50       		.byte	0x50
 9002 3252 05       		.uleb128 0x5
 9003 3253 03       		.byte	0x3
 9004 3254 4A000000 		.4byte	.LC15
 9005 3258 00       		.byte	0
 9006 3259 2E       		.uleb128 0x2e
 9007 325a 7E030000 		.4byte	.LVL80
 9008 325e 544B0000 		.4byte	0x4b54
 9009 3262 6C320000 		.4byte	0x326c
 9010 3266 26       		.uleb128 0x26
 9011 3267 01       		.uleb128 0x1
 9012 3268 50       		.byte	0x50
 9013 3269 01       		.uleb128 0x1
 9014 326a 41       		.byte	0x41
 9015 326b 00       		.byte	0
 9016 326c 2E       		.uleb128 0x2e
 9017 326d 84030000 		.4byte	.LVL81
 9018 3271 544B0000 		.4byte	0x4b54
 9019 3275 80320000 		.4byte	0x3280
 9020 3279 26       		.uleb128 0x26
 9021 327a 01       		.uleb128 0x1
 9022 327b 50       		.byte	0x50
 9023 327c 02       		.uleb128 0x2
 9024 327d 08       		.byte	0x8
 9025 327e 31       		.byte	0x31
 9026 327f 00       		.byte	0
 9027 3280 2E       		.uleb128 0x2e
 9028 3281 8A030000 		.4byte	.LVL82
ARM GAS  C:\Users\AHMED~1.ELE\AppData\Local\Temp\cc0wYKcg.s 			page 186


 9029 3285 544B0000 		.4byte	0x4b54
 9030 3289 94320000 		.4byte	0x3294
 9031 328d 26       		.uleb128 0x26
 9032 328e 01       		.uleb128 0x1
 9033 328f 50       		.byte	0x50
 9034 3290 02       		.uleb128 0x2
 9035 3291 08       		.byte	0x8
 9036 3292 32       		.byte	0x32
 9037 3293 00       		.byte	0
 9038 3294 2E       		.uleb128 0x2e
 9039 3295 90030000 		.4byte	.LVL83
 9040 3299 544B0000 		.4byte	0x4b54
 9041 329d A8320000 		.4byte	0x32a8
 9042 32a1 26       		.uleb128 0x26
 9043 32a2 01       		.uleb128 0x1
 9044 32a3 50       		.byte	0x50
 9045 32a4 02       		.uleb128 0x2
 9046 32a5 08       		.byte	0x8
 9047 32a6 33       		.byte	0x33
 9048 32a7 00       		.byte	0
 9049 32a8 2E       		.uleb128 0x2e
 9050 32a9 96030000 		.4byte	.LVL84
 9051 32ad 544B0000 		.4byte	0x4b54
 9052 32b1 BC320000 		.4byte	0x32bc
 9053 32b5 26       		.uleb128 0x26
 9054 32b6 01       		.uleb128 0x1
 9055 32b7 50       		.byte	0x50
 9056 32b8 02       		.uleb128 0x2
 9057 32b9 08       		.byte	0x8
 9058 32ba 34       		.byte	0x34
 9059 32bb 00       		.byte	0
 9060 32bc 2E       		.uleb128 0x2e
 9061 32bd 9C030000 		.4byte	.LVL85
 9062 32c1 544B0000 		.4byte	0x4b54
 9063 32c5 D0320000 		.4byte	0x32d0
 9064 32c9 26       		.uleb128 0x26
 9065 32ca 01       		.uleb128 0x1
 9066 32cb 50       		.byte	0x50
 9067 32cc 02       		.uleb128 0x2
 9068 32cd 08       		.byte	0x8
 9069 32ce 35       		.byte	0x35
 9070 32cf 00       		.byte	0
 9071 32d0 2E       		.uleb128 0x2e
 9072 32d1 A2030000 		.4byte	.LVL86
 9073 32d5 544B0000 		.4byte	0x4b54
 9074 32d9 E4320000 		.4byte	0x32e4
 9075 32dd 26       		.uleb128 0x26
 9076 32de 01       		.uleb128 0x1
 9077 32df 50       		.byte	0x50
 9078 32e0 02       		.uleb128 0x2
 9079 32e1 08       		.byte	0x8
 9080 32e2 36       		.byte	0x36
 9081 32e3 00       		.byte	0
 9082 32e4 2E       		.uleb128 0x2e
 9083 32e5 A8030000 		.4byte	.LVL87
 9084 32e9 544B0000 		.4byte	0x4b54
 9085 32ed F8320000 		.4byte	0x32f8
ARM GAS  C:\Users\AHMED~1.ELE\AppData\Local\Temp\cc0wYKcg.s 			page 187


 9086 32f1 26       		.uleb128 0x26
 9087 32f2 01       		.uleb128 0x1
 9088 32f3 50       		.byte	0x50
 9089 32f4 02       		.uleb128 0x2
 9090 32f5 08       		.byte	0x8
 9091 32f6 37       		.byte	0x37
 9092 32f7 00       		.byte	0
 9093 32f8 2E       		.uleb128 0x2e
 9094 32f9 AE030000 		.4byte	.LVL88
 9095 32fd 544B0000 		.4byte	0x4b54
 9096 3301 0C330000 		.4byte	0x330c
 9097 3305 26       		.uleb128 0x26
 9098 3306 01       		.uleb128 0x1
 9099 3307 50       		.byte	0x50
 9100 3308 02       		.uleb128 0x2
 9101 3309 08       		.byte	0x8
 9102 330a 38       		.byte	0x38
 9103 330b 00       		.byte	0
 9104 330c 2E       		.uleb128 0x2e
 9105 330d B4030000 		.4byte	.LVL89
 9106 3311 544B0000 		.4byte	0x4b54
 9107 3315 20330000 		.4byte	0x3320
 9108 3319 26       		.uleb128 0x26
 9109 331a 01       		.uleb128 0x1
 9110 331b 50       		.byte	0x50
 9111 331c 02       		.uleb128 0x2
 9112 331d 08       		.byte	0x8
 9113 331e 45       		.byte	0x45
 9114 331f 00       		.byte	0
 9115 3320 2E       		.uleb128 0x2e
 9116 3321 BA030000 		.4byte	.LVL90
 9117 3325 544B0000 		.4byte	0x4b54
 9118 3329 34330000 		.4byte	0x3334
 9119 332d 26       		.uleb128 0x26
 9120 332e 01       		.uleb128 0x1
 9121 332f 50       		.byte	0x50
 9122 3330 02       		.uleb128 0x2
 9123 3331 08       		.byte	0x8
 9124 3332 47       		.byte	0x47
 9125 3333 00       		.byte	0
 9126 3334 2E       		.uleb128 0x2e
 9127 3335 C0030000 		.4byte	.LVL91
 9128 3339 544B0000 		.4byte	0x4b54
 9129 333d 48330000 		.4byte	0x3348
 9130 3341 26       		.uleb128 0x26
 9131 3342 01       		.uleb128 0x1
 9132 3343 50       		.byte	0x50
 9133 3344 02       		.uleb128 0x2
 9134 3345 08       		.byte	0x8
 9135 3346 59       		.byte	0x59
 9136 3347 00       		.byte	0
 9137 3348 2D       		.uleb128 0x2d
 9138 3349 F8030000 		.4byte	.LVL92
 9139 334d A24C0000 		.4byte	0x4ca2
 9140 3351 2D       		.uleb128 0x2d
 9141 3352 18040000 		.4byte	.LVL93
 9142 3356 B34C0000 		.4byte	0x4cb3
ARM GAS  C:\Users\AHMED~1.ELE\AppData\Local\Temp\cc0wYKcg.s 			page 188


 9143 335a 2D       		.uleb128 0x2d
 9144 335b 24040000 		.4byte	.LVL94
 9145 335f 464C0000 		.4byte	0x4c46
 9146 3363 2D       		.uleb128 0x2d
 9147 3364 2A040000 		.4byte	.LVL95
 9148 3368 544B0000 		.4byte	0x4b54
 9149 336c 2D       		.uleb128 0x2d
 9150 336d 34040000 		.4byte	.LVL96
 9151 3371 764C0000 		.4byte	0x4c76
 9152 3375 2E       		.uleb128 0x2e
 9153 3376 42040000 		.4byte	.LVL97
 9154 337a 544B0000 		.4byte	0x4b54
 9155 337e 88330000 		.4byte	0x3388
 9156 3382 26       		.uleb128 0x26
 9157 3383 01       		.uleb128 0x1
 9158 3384 50       		.byte	0x50
 9159 3385 01       		.uleb128 0x1
 9160 3386 30       		.byte	0x30
 9161 3387 00       		.byte	0
 9162 3388 2E       		.uleb128 0x2e
 9163 3389 48040000 		.4byte	.LVL98
 9164 338d 544B0000 		.4byte	0x4b54
 9165 3391 9C330000 		.4byte	0x339c
 9166 3395 26       		.uleb128 0x26
 9167 3396 01       		.uleb128 0x1
 9168 3397 50       		.byte	0x50
 9169 3398 02       		.uleb128 0x2
 9170 3399 08       		.byte	0x8
 9171 339a 38       		.byte	0x38
 9172 339b 00       		.byte	0
 9173 339c 2E       		.uleb128 0x2e
 9174 339d 50040000 		.4byte	.LVL99
 9175 33a1 A44B0000 		.4byte	0x4ba4
 9176 33a5 B8330000 		.4byte	0x33b8
 9177 33a9 26       		.uleb128 0x26
 9178 33aa 01       		.uleb128 0x1
 9179 33ab 51       		.byte	0x51
 9180 33ac 01       		.uleb128 0x1
 9181 33ad 33       		.byte	0x33
 9182 33ae 26       		.uleb128 0x26
 9183 33af 01       		.uleb128 0x1
 9184 33b0 50       		.byte	0x50
 9185 33b1 05       		.uleb128 0x5
 9186 33b2 03       		.byte	0x3
 9187 33b3 62000000 		.4byte	.LC18
 9188 33b7 00       		.byte	0
 9189 33b8 2E       		.uleb128 0x2e
 9190 33b9 58040000 		.4byte	.LVL100
 9191 33bd A44B0000 		.4byte	0x4ba4
 9192 33c1 D4330000 		.4byte	0x33d4
 9193 33c5 26       		.uleb128 0x26
 9194 33c6 01       		.uleb128 0x1
 9195 33c7 51       		.byte	0x51
 9196 33c8 01       		.uleb128 0x1
 9197 33c9 33       		.byte	0x33
 9198 33ca 26       		.uleb128 0x26
 9199 33cb 01       		.uleb128 0x1
ARM GAS  C:\Users\AHMED~1.ELE\AppData\Local\Temp\cc0wYKcg.s 			page 189


 9200 33cc 50       		.byte	0x50
 9201 33cd 05       		.uleb128 0x5
 9202 33ce 03       		.byte	0x3
 9203 33cf 66000000 		.4byte	.LC19
 9204 33d3 00       		.byte	0
 9205 33d4 2E       		.uleb128 0x2e
 9206 33d5 60040000 		.4byte	.LVL101
 9207 33d9 A44B0000 		.4byte	0x4ba4
 9208 33dd F1330000 		.4byte	0x33f1
 9209 33e1 26       		.uleb128 0x26
 9210 33e2 01       		.uleb128 0x1
 9211 33e3 51       		.byte	0x51
 9212 33e4 02       		.uleb128 0x2
 9213 33e5 08       		.byte	0x8
 9214 33e6 20       		.byte	0x20
 9215 33e7 26       		.uleb128 0x26
 9216 33e8 01       		.uleb128 0x1
 9217 33e9 50       		.byte	0x50
 9218 33ea 05       		.uleb128 0x5
 9219 33eb 03       		.byte	0x3
 9220 33ec 6A000000 		.4byte	.LC20
 9221 33f0 00       		.byte	0
 9222 33f1 2E       		.uleb128 0x2e
 9223 33f2 70040000 		.4byte	.LVL102
 9224 33f6 A44B0000 		.4byte	0x4ba4
 9225 33fa 0D340000 		.4byte	0x340d
 9226 33fe 26       		.uleb128 0x26
 9227 33ff 01       		.uleb128 0x1
 9228 3400 51       		.byte	0x51
 9229 3401 01       		.uleb128 0x1
 9230 3402 33       		.byte	0x33
 9231 3403 26       		.uleb128 0x26
 9232 3404 01       		.uleb128 0x1
 9233 3405 50       		.byte	0x50
 9234 3406 05       		.uleb128 0x5
 9235 3407 03       		.byte	0x3
 9236 3408 8B000000 		.4byte	.LC21
 9237 340c 00       		.byte	0
 9238 340d 2E       		.uleb128 0x2e
 9239 340e 7C040000 		.4byte	.LVL103
 9240 3412 A44B0000 		.4byte	0x4ba4
 9241 3416 29340000 		.4byte	0x3429
 9242 341a 26       		.uleb128 0x26
 9243 341b 01       		.uleb128 0x1
 9244 341c 51       		.byte	0x51
 9245 341d 01       		.uleb128 0x1
 9246 341e 33       		.byte	0x33
 9247 341f 26       		.uleb128 0x26
 9248 3420 01       		.uleb128 0x1
 9249 3421 50       		.byte	0x50
 9250 3422 05       		.uleb128 0x5
 9251 3423 03       		.byte	0x3
 9252 3424 8B000000 		.4byte	.LC21
 9253 3428 00       		.byte	0
 9254 3429 2E       		.uleb128 0x2e
 9255 342a 88040000 		.4byte	.LVL104
 9256 342e A44B0000 		.4byte	0x4ba4
ARM GAS  C:\Users\AHMED~1.ELE\AppData\Local\Temp\cc0wYKcg.s 			page 190


 9257 3432 45340000 		.4byte	0x3445
 9258 3436 26       		.uleb128 0x26
 9259 3437 01       		.uleb128 0x1
 9260 3438 51       		.byte	0x51
 9261 3439 01       		.uleb128 0x1
 9262 343a 40       		.byte	0x40
 9263 343b 26       		.uleb128 0x26
 9264 343c 01       		.uleb128 0x1
 9265 343d 50       		.byte	0x50
 9266 343e 05       		.uleb128 0x5
 9267 343f 03       		.byte	0x3
 9268 3440 8F000000 		.4byte	.LC22
 9269 3444 00       		.byte	0
 9270 3445 2E       		.uleb128 0x2e
 9271 3446 92040000 		.4byte	.LVL105
 9272 344a 544B0000 		.4byte	0x4b54
 9273 344e 58340000 		.4byte	0x3458
 9274 3452 26       		.uleb128 0x26
 9275 3453 01       		.uleb128 0x1
 9276 3454 50       		.byte	0x50
 9277 3455 01       		.uleb128 0x1
 9278 3456 39       		.byte	0x39
 9279 3457 00       		.byte	0
 9280 3458 2E       		.uleb128 0x2e
 9281 3459 9A040000 		.4byte	.LVL106
 9282 345d A44B0000 		.4byte	0x4ba4
 9283 3461 74340000 		.4byte	0x3474
 9284 3465 26       		.uleb128 0x26
 9285 3466 01       		.uleb128 0x1
 9286 3467 51       		.byte	0x51
 9287 3468 01       		.uleb128 0x1
 9288 3469 39       		.byte	0x39
 9289 346a 26       		.uleb128 0x26
 9290 346b 01       		.uleb128 0x1
 9291 346c 50       		.byte	0x50
 9292 346d 05       		.uleb128 0x5
 9293 346e 03       		.byte	0x3
 9294 346f A0000000 		.4byte	.LC23
 9295 3473 00       		.byte	0
 9296 3474 2E       		.uleb128 0x2e
 9297 3475 A4040000 		.4byte	.LVL107
 9298 3479 BE4C0000 		.4byte	0x4cbe
 9299 347d 88340000 		.4byte	0x3488
 9300 3481 26       		.uleb128 0x26
 9301 3482 01       		.uleb128 0x1
 9302 3483 50       		.byte	0x50
 9303 3484 02       		.uleb128 0x2
 9304 3485 08       		.byte	0x8
 9305 3486 20       		.byte	0x20
 9306 3487 00       		.byte	0
 9307 3488 2E       		.uleb128 0x2e
 9308 3489 AC040000 		.4byte	.LVL108
 9309 348d A44B0000 		.4byte	0x4ba4
 9310 3491 A4340000 		.4byte	0x34a4
 9311 3495 26       		.uleb128 0x26
 9312 3496 01       		.uleb128 0x1
 9313 3497 51       		.byte	0x51
ARM GAS  C:\Users\AHMED~1.ELE\AppData\Local\Temp\cc0wYKcg.s 			page 191


 9314 3498 01       		.uleb128 0x1
 9315 3499 32       		.byte	0x32
 9316 349a 26       		.uleb128 0x26
 9317 349b 01       		.uleb128 0x1
 9318 349c 50       		.byte	0x50
 9319 349d 05       		.uleb128 0x5
 9320 349e 03       		.byte	0x3
 9321 349f AA000000 		.4byte	.LC24
 9322 34a3 00       		.byte	0
 9323 34a4 2E       		.uleb128 0x2e
 9324 34a5 B4040000 		.4byte	.LVL109
 9325 34a9 A44B0000 		.4byte	0x4ba4
 9326 34ad C0340000 		.4byte	0x34c0
 9327 34b1 26       		.uleb128 0x26
 9328 34b2 01       		.uleb128 0x1
 9329 34b3 51       		.byte	0x51
 9330 34b4 01       		.uleb128 0x1
 9331 34b5 32       		.byte	0x32
 9332 34b6 26       		.uleb128 0x26
 9333 34b7 01       		.uleb128 0x1
 9334 34b8 50       		.byte	0x50
 9335 34b9 05       		.uleb128 0x5
 9336 34ba 03       		.byte	0x3
 9337 34bb AA000000 		.4byte	.LC24
 9338 34bf 00       		.byte	0
 9339 34c0 2E       		.uleb128 0x2e
 9340 34c1 BC040000 		.4byte	.LVL110
 9341 34c5 A44B0000 		.4byte	0x4ba4
 9342 34c9 DC340000 		.4byte	0x34dc
 9343 34cd 26       		.uleb128 0x26
 9344 34ce 01       		.uleb128 0x1
 9345 34cf 51       		.byte	0x51
 9346 34d0 01       		.uleb128 0x1
 9347 34d1 33       		.byte	0x33
 9348 34d2 26       		.uleb128 0x26
 9349 34d3 01       		.uleb128 0x1
 9350 34d4 50       		.byte	0x50
 9351 34d5 05       		.uleb128 0x5
 9352 34d6 03       		.byte	0x3
 9353 34d7 8B000000 		.4byte	.LC21
 9354 34db 00       		.byte	0
 9355 34dc 2E       		.uleb128 0x2e
 9356 34dd C4040000 		.4byte	.LVL111
 9357 34e1 A44B0000 		.4byte	0x4ba4
 9358 34e5 F8340000 		.4byte	0x34f8
 9359 34e9 26       		.uleb128 0x26
 9360 34ea 01       		.uleb128 0x1
 9361 34eb 51       		.byte	0x51
 9362 34ec 01       		.uleb128 0x1
 9363 34ed 31       		.byte	0x31
 9364 34ee 26       		.uleb128 0x26
 9365 34ef 01       		.uleb128 0x1
 9366 34f0 50       		.byte	0x50
 9367 34f1 05       		.uleb128 0x5
 9368 34f2 03       		.byte	0x3
 9369 34f3 AD000000 		.4byte	.LC25
 9370 34f7 00       		.byte	0
ARM GAS  C:\Users\AHMED~1.ELE\AppData\Local\Temp\cc0wYKcg.s 			page 192


 9371 34f8 2E       		.uleb128 0x2e
 9372 34f9 CE040000 		.4byte	.LVL112
 9373 34fd D34C0000 		.4byte	0x4cd3
 9374 3501 17350000 		.4byte	0x3517
 9375 3505 26       		.uleb128 0x26
 9376 3506 01       		.uleb128 0x1
 9377 3507 52       		.byte	0x52
 9378 3508 01       		.uleb128 0x1
 9379 3509 3A       		.byte	0x3a
 9380 350a 26       		.uleb128 0x26
 9381 350b 01       		.uleb128 0x1
 9382 350c 51       		.byte	0x51
 9383 350d 01       		.uleb128 0x1
 9384 350e 30       		.byte	0x30
 9385 350f 26       		.uleb128 0x26
 9386 3510 01       		.uleb128 0x1
 9387 3511 50       		.byte	0x50
 9388 3512 03       		.uleb128 0x3
 9389 3513 91       		.byte	0x91
 9390 3514 987E     		.sleb128 -232
 9391 3516 00       		.byte	0
 9392 3517 2E       		.uleb128 0x2e
 9393 3518 E2040000 		.4byte	.LVL113
 9394 351c 8C4C0000 		.4byte	0x4c8c
 9395 3520 2C350000 		.4byte	0x352c
 9396 3524 26       		.uleb128 0x26
 9397 3525 01       		.uleb128 0x1
 9398 3526 50       		.byte	0x50
 9399 3527 03       		.uleb128 0x3
 9400 3528 91       		.byte	0x91
 9401 3529 987E     		.sleb128 -232
 9402 352b 00       		.byte	0
 9403 352c 2E       		.uleb128 0x2e
 9404 352d F4040000 		.4byte	.LVL114
 9405 3531 764C0000 		.4byte	0x4c76
 9406 3535 46350000 		.4byte	0x3546
 9407 3539 26       		.uleb128 0x26
 9408 353a 01       		.uleb128 0x1
 9409 353b 51       		.byte	0x51
 9410 353c 01       		.uleb128 0x1
 9411 353d 36       		.byte	0x36
 9412 353e 26       		.uleb128 0x26
 9413 353f 01       		.uleb128 0x1
 9414 3540 50       		.byte	0x50
 9415 3541 03       		.uleb128 0x3
 9416 3542 91       		.byte	0x91
 9417 3543 9C7E     		.sleb128 -228
 9418 3545 00       		.byte	0
 9419 3546 2D       		.uleb128 0x2d
 9420 3547 04050000 		.4byte	.LVL115
 9421 354b 464C0000 		.4byte	0x4c46
 9422 354f 2D       		.uleb128 0x2d
 9423 3550 08050000 		.4byte	.LVL116
 9424 3554 BE4C0000 		.4byte	0x4cbe
 9425 3558 2D       		.uleb128 0x2d
 9426 3559 14050000 		.4byte	.LVL117
 9427 355d F04C0000 		.4byte	0x4cf0
ARM GAS  C:\Users\AHMED~1.ELE\AppData\Local\Temp\cc0wYKcg.s 			page 193


 9428 3561 2E       		.uleb128 0x2e
 9429 3562 38050000 		.4byte	.LVL118
 9430 3566 BE4C0000 		.4byte	0x4cbe
 9431 356a 74350000 		.4byte	0x3574
 9432 356e 26       		.uleb128 0x26
 9433 356f 01       		.uleb128 0x1
 9434 3570 50       		.byte	0x50
 9435 3571 01       		.uleb128 0x1
 9436 3572 34       		.byte	0x34
 9437 3573 00       		.byte	0
 9438 3574 2D       		.uleb128 0x2d
 9439 3575 40050000 		.4byte	.LVL119
 9440 3579 A44B0000 		.4byte	0x4ba4
 9441 357d 2E       		.uleb128 0x2e
 9442 357e 64050000 		.4byte	.LVL120
 9443 3582 BE4C0000 		.4byte	0x4cbe
 9444 3586 90350000 		.4byte	0x3590
 9445 358a 26       		.uleb128 0x26
 9446 358b 01       		.uleb128 0x1
 9447 358c 50       		.byte	0x50
 9448 358d 01       		.uleb128 0x1
 9449 358e 36       		.byte	0x36
 9450 358f 00       		.byte	0
 9451 3590 2E       		.uleb128 0x2e
 9452 3591 7C050000 		.4byte	.LVL121
 9453 3595 BE4C0000 		.4byte	0x4cbe
 9454 3599 A4350000 		.4byte	0x35a4
 9455 359d 26       		.uleb128 0x26
 9456 359e 01       		.uleb128 0x1
 9457 359f 50       		.byte	0x50
 9458 35a0 02       		.uleb128 0x2
 9459 35a1 08       		.byte	0x8
 9460 35a2 22       		.byte	0x22
 9461 35a3 00       		.byte	0
 9462 35a4 2E       		.uleb128 0x2e
 9463 35a5 9E050000 		.4byte	.LVL122
 9464 35a9 764C0000 		.4byte	0x4c76
 9465 35ad BE350000 		.4byte	0x35be
 9466 35b1 26       		.uleb128 0x26
 9467 35b2 01       		.uleb128 0x1
 9468 35b3 51       		.byte	0x51
 9469 35b4 01       		.uleb128 0x1
 9470 35b5 32       		.byte	0x32
 9471 35b6 26       		.uleb128 0x26
 9472 35b7 01       		.uleb128 0x1
 9473 35b8 50       		.byte	0x50
 9474 35b9 03       		.uleb128 0x3
 9475 35ba 91       		.byte	0x91
 9476 35bb 987E     		.sleb128 -232
 9477 35bd 00       		.byte	0
 9478 35be 2E       		.uleb128 0x2e
 9479 35bf A6050000 		.4byte	.LVL123
 9480 35c3 764C0000 		.4byte	0x4c76
 9481 35c7 D1350000 		.4byte	0x35d1
 9482 35cb 26       		.uleb128 0x26
 9483 35cc 01       		.uleb128 0x1
 9484 35cd 51       		.byte	0x51
ARM GAS  C:\Users\AHMED~1.ELE\AppData\Local\Temp\cc0wYKcg.s 			page 194


 9485 35ce 01       		.uleb128 0x1
 9486 35cf 33       		.byte	0x33
 9487 35d0 00       		.byte	0
 9488 35d1 2E       		.uleb128 0x2e
 9489 35d2 AC050000 		.4byte	.LVL124
 9490 35d6 FB4C0000 		.4byte	0x4cfb
 9491 35da E5350000 		.4byte	0x35e5
 9492 35de 26       		.uleb128 0x26
 9493 35df 01       		.uleb128 0x1
 9494 35e0 50       		.byte	0x50
 9495 35e1 02       		.uleb128 0x2
 9496 35e2 78       		.byte	0x78
 9497 35e3 00       		.sleb128 0
 9498 35e4 00       		.byte	0
 9499 35e5 2E       		.uleb128 0x2e
 9500 35e6 B8050000 		.4byte	.LVL125
 9501 35ea BE4C0000 		.4byte	0x4cbe
 9502 35ee F8350000 		.4byte	0x35f8
 9503 35f2 26       		.uleb128 0x26
 9504 35f3 01       		.uleb128 0x1
 9505 35f4 50       		.byte	0x50
 9506 35f5 01       		.uleb128 0x1
 9507 35f6 42       		.byte	0x42
 9508 35f7 00       		.byte	0
 9509 35f8 2E       		.uleb128 0x2e
 9510 35f9 C2050000 		.4byte	.LVL126
 9511 35fd 8C4C0000 		.4byte	0x4c8c
 9512 3601 0D360000 		.4byte	0x360d
 9513 3605 26       		.uleb128 0x26
 9514 3606 01       		.uleb128 0x1
 9515 3607 50       		.byte	0x50
 9516 3608 03       		.uleb128 0x3
 9517 3609 91       		.byte	0x91
 9518 360a 987E     		.sleb128 -232
 9519 360c 00       		.byte	0
 9520 360d 2D       		.uleb128 0x2d
 9521 360e CA050000 		.4byte	.LVL127
 9522 3612 764C0000 		.4byte	0x4c76
 9523 3616 2E       		.uleb128 0x2e
 9524 3617 EA050000 		.4byte	.LVL128
 9525 361b BE4C0000 		.4byte	0x4cbe
 9526 361f 29360000 		.4byte	0x3629
 9527 3623 26       		.uleb128 0x26
 9528 3624 01       		.uleb128 0x1
 9529 3625 50       		.byte	0x50
 9530 3626 01       		.uleb128 0x1
 9531 3627 38       		.byte	0x38
 9532 3628 00       		.byte	0
 9533 3629 2E       		.uleb128 0x2e
 9534 362a 04060000 		.4byte	.LVL130
 9535 362e 0C4D0000 		.4byte	0x4d0c
 9536 3632 4E360000 		.4byte	0x364e
 9537 3636 26       		.uleb128 0x26
 9538 3637 01       		.uleb128 0x1
 9539 3638 53       		.byte	0x53
 9540 3639 03       		.uleb128 0x3
 9541 363a 91       		.byte	0x91
ARM GAS  C:\Users\AHMED~1.ELE\AppData\Local\Temp\cc0wYKcg.s 			page 195


 9542 363b C47E     		.sleb128 -188
 9543 363d 26       		.uleb128 0x26
 9544 363e 01       		.uleb128 0x1
 9545 363f 51       		.byte	0x51
 9546 3640 01       		.uleb128 0x1
 9547 3641 47       		.byte	0x47
 9548 3642 26       		.uleb128 0x26
 9549 3643 01       		.uleb128 0x1
 9550 3644 50       		.byte	0x50
 9551 3645 01       		.uleb128 0x1
 9552 3646 40       		.byte	0x40
 9553 3647 26       		.uleb128 0x26
 9554 3648 02       		.uleb128 0x2
 9555 3649 7D       		.byte	0x7d
 9556 364a 00       		.sleb128 0
 9557 364b 01       		.uleb128 0x1
 9558 364c 30       		.byte	0x30
 9559 364d 00       		.byte	0
 9560 364e 2E       		.uleb128 0x2e
 9561 364f 0E060000 		.4byte	.LVL131
 9562 3653 A44B0000 		.4byte	0x4ba4
 9563 3657 68360000 		.4byte	0x3668
 9564 365b 26       		.uleb128 0x26
 9565 365c 01       		.uleb128 0x1
 9566 365d 51       		.byte	0x51
 9567 365e 01       		.uleb128 0x1
 9568 365f 32       		.byte	0x32
 9569 3660 26       		.uleb128 0x26
 9570 3661 01       		.uleb128 0x1
 9571 3662 50       		.byte	0x50
 9572 3663 03       		.uleb128 0x3
 9573 3664 91       		.byte	0x91
 9574 3665 C57E     		.sleb128 -187
 9575 3667 00       		.byte	0
 9576 3668 2E       		.uleb128 0x2e
 9577 3669 72060000 		.4byte	.LVL132
 9578 366d FB4C0000 		.4byte	0x4cfb
 9579 3671 7B360000 		.4byte	0x367b
 9580 3675 26       		.uleb128 0x26
 9581 3676 01       		.uleb128 0x1
 9582 3677 50       		.byte	0x50
 9583 3678 01       		.uleb128 0x1
 9584 3679 32       		.byte	0x32
 9585 367a 00       		.byte	0
 9586 367b 2E       		.uleb128 0x2e
 9587 367c 86060000 		.4byte	.LVL134
 9588 3680 BE4C0000 		.4byte	0x4cbe
 9589 3684 8F360000 		.4byte	0x368f
 9590 3688 26       		.uleb128 0x26
 9591 3689 01       		.uleb128 0x1
 9592 368a 50       		.byte	0x50
 9593 368b 02       		.uleb128 0x2
 9594 368c 08       		.byte	0x8
 9595 368d 20       		.byte	0x20
 9596 368e 00       		.byte	0
 9597 368f 2E       		.uleb128 0x2e
 9598 3690 8E060000 		.4byte	.LVL135
ARM GAS  C:\Users\AHMED~1.ELE\AppData\Local\Temp\cc0wYKcg.s 			page 196


 9599 3694 764C0000 		.4byte	0x4c76
 9600 3698 A2360000 		.4byte	0x36a2
 9601 369c 26       		.uleb128 0x26
 9602 369d 01       		.uleb128 0x1
 9603 369e 51       		.byte	0x51
 9604 369f 01       		.uleb128 0x1
 9605 36a0 3A       		.byte	0x3a
 9606 36a1 00       		.byte	0
 9607 36a2 2E       		.uleb128 0x2e
 9608 36a3 98060000 		.4byte	.LVL136
 9609 36a7 BE4C0000 		.4byte	0x4cbe
 9610 36ab B6360000 		.4byte	0x36b6
 9611 36af 26       		.uleb128 0x26
 9612 36b0 01       		.uleb128 0x1
 9613 36b1 50       		.byte	0x50
 9614 36b2 02       		.uleb128 0x2
 9615 36b3 08       		.byte	0x8
 9616 36b4 25       		.byte	0x25
 9617 36b5 00       		.byte	0
 9618 36b6 2E       		.uleb128 0x2e
 9619 36b7 A0060000 		.4byte	.LVL137
 9620 36bb 354D0000 		.4byte	0x4d35
 9621 36bf CF360000 		.4byte	0x36cf
 9622 36c3 26       		.uleb128 0x26
 9623 36c4 01       		.uleb128 0x1
 9624 36c5 51       		.byte	0x51
 9625 36c6 01       		.uleb128 0x1
 9626 36c7 49       		.byte	0x49
 9627 36c8 26       		.uleb128 0x26
 9628 36c9 01       		.uleb128 0x1
 9629 36ca 50       		.byte	0x50
 9630 36cb 02       		.uleb128 0x2
 9631 36cc 08       		.byte	0x8
 9632 36cd 30       		.byte	0x30
 9633 36ce 00       		.byte	0
 9634 36cf 2E       		.uleb128 0x2e
 9635 36d0 AC060000 		.4byte	.LVL138
 9636 36d4 A44B0000 		.4byte	0x4ba4
 9637 36d8 EB360000 		.4byte	0x36eb
 9638 36dc 26       		.uleb128 0x26
 9639 36dd 01       		.uleb128 0x1
 9640 36de 51       		.byte	0x51
 9641 36df 01       		.uleb128 0x1
 9642 36e0 38       		.byte	0x38
 9643 36e1 26       		.uleb128 0x26
 9644 36e2 01       		.uleb128 0x1
 9645 36e3 50       		.byte	0x50
 9646 36e4 05       		.uleb128 0x5
 9647 36e5 03       		.byte	0x3
 9648 36e6 07000000 		.4byte	.LANCHOR0+7
 9649 36ea 00       		.byte	0
 9650 36eb 2E       		.uleb128 0x2e
 9651 36ec BC060000 		.4byte	.LVL139
 9652 36f0 A44B0000 		.4byte	0x4ba4
 9653 36f4 07370000 		.4byte	0x3707
 9654 36f8 26       		.uleb128 0x26
 9655 36f9 01       		.uleb128 0x1
ARM GAS  C:\Users\AHMED~1.ELE\AppData\Local\Temp\cc0wYKcg.s 			page 197


 9656 36fa 51       		.byte	0x51
 9657 36fb 01       		.uleb128 0x1
 9658 36fc 38       		.byte	0x38
 9659 36fd 26       		.uleb128 0x26
 9660 36fe 01       		.uleb128 0x1
 9661 36ff 50       		.byte	0x50
 9662 3700 05       		.uleb128 0x5
 9663 3701 03       		.byte	0x3
 9664 3702 AF000000 		.4byte	.LC27
 9665 3706 00       		.byte	0
 9666 3707 2E       		.uleb128 0x2e
 9667 3708 DA060000 		.4byte	.LVL140
 9668 370c BE4C0000 		.4byte	0x4cbe
 9669 3710 1C370000 		.4byte	0x371c
 9670 3714 26       		.uleb128 0x26
 9671 3715 01       		.uleb128 0x1
 9672 3716 50       		.byte	0x50
 9673 3717 03       		.uleb128 0x3
 9674 3718 0A       		.byte	0xa
 9675 3719 0301     		.2byte	0x103
 9676 371b 00       		.byte	0
 9677 371c 2E       		.uleb128 0x2e
 9678 371d EE060000 		.4byte	.LVL141
 9679 3721 894B0000 		.4byte	0x4b89
 9680 3725 3A370000 		.4byte	0x373a
 9681 3729 26       		.uleb128 0x26
 9682 372a 01       		.uleb128 0x1
 9683 372b 51       		.byte	0x51
 9684 372c 05       		.uleb128 0x5
 9685 372d 03       		.byte	0x3
 9686 372e 00000000 		.4byte	.LC0
 9687 3732 26       		.uleb128 0x26
 9688 3733 01       		.uleb128 0x1
 9689 3734 50       		.byte	0x50
 9690 3735 03       		.uleb128 0x3
 9691 3736 91       		.byte	0x91
 9692 3737 E07E     		.sleb128 -160
 9693 3739 00       		.byte	0
 9694 373a 2E       		.uleb128 0x2e
 9695 373b F6060000 		.4byte	.LVL142
 9696 373f A44B0000 		.4byte	0x4ba4
 9697 3743 54370000 		.4byte	0x3754
 9698 3747 26       		.uleb128 0x26
 9699 3748 01       		.uleb128 0x1
 9700 3749 51       		.byte	0x51
 9701 374a 01       		.uleb128 0x1
 9702 374b 34       		.byte	0x34
 9703 374c 26       		.uleb128 0x26
 9704 374d 01       		.uleb128 0x1
 9705 374e 50       		.byte	0x50
 9706 374f 03       		.uleb128 0x3
 9707 3750 91       		.byte	0x91
 9708 3751 E07E     		.sleb128 -160
 9709 3753 00       		.byte	0
 9710 3754 2E       		.uleb128 0x2e
 9711 3755 FE060000 		.4byte	.LVL143
 9712 3759 764C0000 		.4byte	0x4c76
ARM GAS  C:\Users\AHMED~1.ELE\AppData\Local\Temp\cc0wYKcg.s 			page 198


 9713 375d 67370000 		.4byte	0x3767
 9714 3761 26       		.uleb128 0x26
 9715 3762 01       		.uleb128 0x1
 9716 3763 51       		.byte	0x51
 9717 3764 01       		.uleb128 0x1
 9718 3765 33       		.byte	0x33
 9719 3766 00       		.byte	0
 9720 3767 2E       		.uleb128 0x2e
 9721 3768 06070000 		.4byte	.LVL144
 9722 376c 764C0000 		.4byte	0x4c76
 9723 3770 7A370000 		.4byte	0x377a
 9724 3774 26       		.uleb128 0x26
 9725 3775 01       		.uleb128 0x1
 9726 3776 51       		.byte	0x51
 9727 3777 01       		.uleb128 0x1
 9728 3778 33       		.byte	0x33
 9729 3779 00       		.byte	0
 9730 377a 2E       		.uleb128 0x2e
 9731 377b 10070000 		.4byte	.LVL145
 9732 377f 274C0000 		.4byte	0x4c27
 9733 3783 93370000 		.4byte	0x3793
 9734 3787 26       		.uleb128 0x26
 9735 3788 01       		.uleb128 0x1
 9736 3789 52       		.byte	0x52
 9737 378a 01       		.uleb128 0x1
 9738 378b 3A       		.byte	0x3a
 9739 378c 26       		.uleb128 0x26
 9740 378d 01       		.uleb128 0x1
 9741 378e 51       		.byte	0x51
 9742 378f 02       		.uleb128 0x2
 9743 3790 08       		.byte	0x8
 9744 3791 FF       		.byte	0xff
 9745 3792 00       		.byte	0
 9746 3793 2E       		.uleb128 0x2e
 9747 3794 40070000 		.4byte	.LVL151
 9748 3798 464C0000 		.4byte	0x4c46
 9749 379c A7370000 		.4byte	0x37a7
 9750 37a0 26       		.uleb128 0x26
 9751 37a1 01       		.uleb128 0x1
 9752 37a2 50       		.byte	0x50
 9753 37a3 02       		.uleb128 0x2
 9754 37a4 75       		.byte	0x75
 9755 37a5 00       		.sleb128 0
 9756 37a6 00       		.byte	0
 9757 37a7 2D       		.uleb128 0x2d
 9758 37a8 46070000 		.4byte	.LVL152
 9759 37ac 544B0000 		.4byte	0x4b54
 9760 37b0 2E       		.uleb128 0x2e
 9761 37b1 50070000 		.4byte	.LVL153
 9762 37b5 5B4C0000 		.4byte	0x4c5b
 9763 37b9 CB370000 		.4byte	0x37cb
 9764 37bd 26       		.uleb128 0x26
 9765 37be 01       		.uleb128 0x1
 9766 37bf 52       		.byte	0x52
 9767 37c0 02       		.uleb128 0x2
 9768 37c1 78       		.byte	0x78
 9769 37c2 00       		.sleb128 0
ARM GAS  C:\Users\AHMED~1.ELE\AppData\Local\Temp\cc0wYKcg.s 			page 199


 9770 37c3 26       		.uleb128 0x26
 9771 37c4 01       		.uleb128 0x1
 9772 37c5 50       		.byte	0x50
 9773 37c6 03       		.uleb128 0x3
 9774 37c7 91       		.byte	0x91
 9775 37c8 E07E     		.sleb128 -160
 9776 37ca 00       		.byte	0
 9777 37cb 2E       		.uleb128 0x2e
 9778 37cc 58070000 		.4byte	.LVL154
 9779 37d0 A44B0000 		.4byte	0x4ba4
 9780 37d4 E6370000 		.4byte	0x37e6
 9781 37d8 26       		.uleb128 0x26
 9782 37d9 01       		.uleb128 0x1
 9783 37da 51       		.byte	0x51
 9784 37db 02       		.uleb128 0x2
 9785 37dc 75       		.byte	0x75
 9786 37dd 00       		.sleb128 0
 9787 37de 26       		.uleb128 0x26
 9788 37df 01       		.uleb128 0x1
 9789 37e0 50       		.byte	0x50
 9790 37e1 03       		.uleb128 0x3
 9791 37e2 91       		.byte	0x91
 9792 37e3 E07E     		.sleb128 -160
 9793 37e5 00       		.byte	0
 9794 37e6 2E       		.uleb128 0x2e
 9795 37e7 60070000 		.4byte	.LVL155
 9796 37eb A44B0000 		.4byte	0x4ba4
 9797 37ef 02380000 		.4byte	0x3802
 9798 37f3 26       		.uleb128 0x26
 9799 37f4 01       		.uleb128 0x1
 9800 37f5 51       		.byte	0x51
 9801 37f6 01       		.uleb128 0x1
 9802 37f7 31       		.byte	0x31
 9803 37f8 26       		.uleb128 0x26
 9804 37f9 01       		.uleb128 0x1
 9805 37fa 50       		.byte	0x50
 9806 37fb 05       		.uleb128 0x5
 9807 37fc 03       		.byte	0x3
 9808 37fd B8000000 		.4byte	.LC28
 9809 3801 00       		.byte	0
 9810 3802 2E       		.uleb128 0x2e
 9811 3803 74070000 		.4byte	.LVL156
 9812 3807 8C4C0000 		.4byte	0x4c8c
 9813 380b 17380000 		.4byte	0x3817
 9814 380f 26       		.uleb128 0x26
 9815 3810 01       		.uleb128 0x1
 9816 3811 50       		.byte	0x50
 9817 3812 03       		.uleb128 0x3
 9818 3813 91       		.byte	0x91
 9819 3814 987E     		.sleb128 -232
 9820 3816 00       		.byte	0
 9821 3817 2E       		.uleb128 0x2e
 9822 3818 88070000 		.4byte	.LVL158
 9823 381c 764C0000 		.4byte	0x4c76
 9824 3820 30380000 		.4byte	0x3830
 9825 3824 26       		.uleb128 0x26
 9826 3825 01       		.uleb128 0x1
ARM GAS  C:\Users\AHMED~1.ELE\AppData\Local\Temp\cc0wYKcg.s 			page 200


 9827 3826 51       		.byte	0x51
 9828 3827 01       		.uleb128 0x1
 9829 3828 36       		.byte	0x36
 9830 3829 26       		.uleb128 0x26
 9831 382a 01       		.uleb128 0x1
 9832 382b 50       		.byte	0x50
 9833 382c 02       		.uleb128 0x2
 9834 382d 75       		.byte	0x75
 9835 382e 00       		.sleb128 0
 9836 382f 00       		.byte	0
 9837 3830 2E       		.uleb128 0x2e
 9838 3831 90070000 		.4byte	.LVL159
 9839 3835 A44B0000 		.4byte	0x4ba4
 9840 3839 4C380000 		.4byte	0x384c
 9841 383d 26       		.uleb128 0x26
 9842 383e 01       		.uleb128 0x1
 9843 383f 51       		.byte	0x51
 9844 3840 01       		.uleb128 0x1
 9845 3841 33       		.byte	0x33
 9846 3842 26       		.uleb128 0x26
 9847 3843 01       		.uleb128 0x1
 9848 3844 50       		.byte	0x50
 9849 3845 05       		.uleb128 0x5
 9850 3846 03       		.byte	0x3
 9851 3847 8B000000 		.4byte	.LC21
 9852 384b 00       		.byte	0
 9853 384c 2E       		.uleb128 0x2e
 9854 384d A4070000 		.4byte	.LVL160
 9855 3851 8C4C0000 		.4byte	0x4c8c
 9856 3855 61380000 		.4byte	0x3861
 9857 3859 26       		.uleb128 0x26
 9858 385a 01       		.uleb128 0x1
 9859 385b 50       		.byte	0x50
 9860 385c 03       		.uleb128 0x3
 9861 385d 91       		.byte	0x91
 9862 385e 987E     		.sleb128 -232
 9863 3860 00       		.byte	0
 9864 3861 2E       		.uleb128 0x2e
 9865 3862 B6070000 		.4byte	.LVL161
 9866 3866 764C0000 		.4byte	0x4c76
 9867 386a 7A380000 		.4byte	0x387a
 9868 386e 26       		.uleb128 0x26
 9869 386f 01       		.uleb128 0x1
 9870 3870 51       		.byte	0x51
 9871 3871 01       		.uleb128 0x1
 9872 3872 36       		.byte	0x36
 9873 3873 26       		.uleb128 0x26
 9874 3874 01       		.uleb128 0x1
 9875 3875 50       		.byte	0x50
 9876 3876 02       		.uleb128 0x2
 9877 3877 75       		.byte	0x75
 9878 3878 00       		.sleb128 0
 9879 3879 00       		.byte	0
 9880 387a 2E       		.uleb128 0x2e
 9881 387b C2070000 		.4byte	.LVL162
 9882 387f A44B0000 		.4byte	0x4ba4
 9883 3883 96380000 		.4byte	0x3896
ARM GAS  C:\Users\AHMED~1.ELE\AppData\Local\Temp\cc0wYKcg.s 			page 201


 9884 3887 26       		.uleb128 0x26
 9885 3888 01       		.uleb128 0x1
 9886 3889 51       		.byte	0x51
 9887 388a 01       		.uleb128 0x1
 9888 388b 33       		.byte	0x33
 9889 388c 26       		.uleb128 0x26
 9890 388d 01       		.uleb128 0x1
 9891 388e 50       		.byte	0x50
 9892 388f 05       		.uleb128 0x5
 9893 3890 03       		.byte	0x3
 9894 3891 8B000000 		.4byte	.LC21
 9895 3895 00       		.byte	0
 9896 3896 2E       		.uleb128 0x2e
 9897 3897 CE070000 		.4byte	.LVL164
 9898 389b A44B0000 		.4byte	0x4ba4
 9899 389f AF380000 		.4byte	0x38af
 9900 38a3 26       		.uleb128 0x26
 9901 38a4 01       		.uleb128 0x1
 9902 38a5 51       		.byte	0x51
 9903 38a6 01       		.uleb128 0x1
 9904 38a7 32       		.byte	0x32
 9905 38a8 26       		.uleb128 0x26
 9906 38a9 01       		.uleb128 0x1
 9907 38aa 50       		.byte	0x50
 9908 38ab 02       		.uleb128 0x2
 9909 38ac 79       		.byte	0x79
 9910 38ad 00       		.sleb128 0
 9911 38ae 00       		.byte	0
 9912 38af 2E       		.uleb128 0x2e
 9913 38b0 D6070000 		.4byte	.LVL165
 9914 38b4 A44B0000 		.4byte	0x4ba4
 9915 38b8 C8380000 		.4byte	0x38c8
 9916 38bc 26       		.uleb128 0x26
 9917 38bd 01       		.uleb128 0x1
 9918 38be 51       		.byte	0x51
 9919 38bf 01       		.uleb128 0x1
 9920 38c0 32       		.byte	0x32
 9921 38c1 26       		.uleb128 0x26
 9922 38c2 01       		.uleb128 0x1
 9923 38c3 50       		.byte	0x50
 9924 38c4 02       		.uleb128 0x2
 9925 38c5 78       		.byte	0x78
 9926 38c6 00       		.sleb128 0
 9927 38c7 00       		.byte	0
 9928 38c8 2E       		.uleb128 0x2e
 9929 38c9 E0070000 		.4byte	.LVL166
 9930 38cd A44B0000 		.4byte	0x4ba4
 9931 38d1 E2380000 		.4byte	0x38e2
 9932 38d5 26       		.uleb128 0x26
 9933 38d6 01       		.uleb128 0x1
 9934 38d7 51       		.byte	0x51
 9935 38d8 01       		.uleb128 0x1
 9936 38d9 32       		.byte	0x32
 9937 38da 26       		.uleb128 0x26
 9938 38db 01       		.uleb128 0x1
 9939 38dc 50       		.byte	0x50
 9940 38dd 03       		.uleb128 0x3
ARM GAS  C:\Users\AHMED~1.ELE\AppData\Local\Temp\cc0wYKcg.s 			page 202


 9941 38de 91       		.byte	0x91
 9942 38df A67E     		.sleb128 -218
 9943 38e1 00       		.byte	0
 9944 38e2 2E       		.uleb128 0x2e
 9945 38e3 E8070000 		.4byte	.LVL167
 9946 38e7 764C0000 		.4byte	0x4c76
 9947 38eb F5380000 		.4byte	0x38f5
 9948 38ef 26       		.uleb128 0x26
 9949 38f0 01       		.uleb128 0x1
 9950 38f1 51       		.byte	0x51
 9951 38f2 01       		.uleb128 0x1
 9952 38f3 33       		.byte	0x33
 9953 38f4 00       		.byte	0
 9954 38f5 2E       		.uleb128 0x2e
 9955 38f6 F0070000 		.4byte	.LVL168
 9956 38fa A44B0000 		.4byte	0x4ba4
 9957 38fe 11390000 		.4byte	0x3911
 9958 3902 26       		.uleb128 0x26
 9959 3903 01       		.uleb128 0x1
 9960 3904 51       		.byte	0x51
 9961 3905 01       		.uleb128 0x1
 9962 3906 39       		.byte	0x39
 9963 3907 26       		.uleb128 0x26
 9964 3908 01       		.uleb128 0x1
 9965 3909 50       		.byte	0x50
 9966 390a 05       		.uleb128 0x5
 9967 390b 03       		.byte	0x3
 9968 390c BA000000 		.4byte	.LC29
 9969 3910 00       		.byte	0
 9970 3911 2E       		.uleb128 0x2e
 9971 3912 F8070000 		.4byte	.LVL169
 9972 3916 A44B0000 		.4byte	0x4ba4
 9973 391a 2A390000 		.4byte	0x392a
 9974 391e 26       		.uleb128 0x26
 9975 391f 01       		.uleb128 0x1
 9976 3920 51       		.byte	0x51
 9977 3921 01       		.uleb128 0x1
 9978 3922 32       		.byte	0x32
 9979 3923 26       		.uleb128 0x26
 9980 3924 01       		.uleb128 0x1
 9981 3925 50       		.byte	0x50
 9982 3926 02       		.uleb128 0x2
 9983 3927 79       		.byte	0x79
 9984 3928 00       		.sleb128 0
 9985 3929 00       		.byte	0
 9986 392a 2E       		.uleb128 0x2e
 9987 392b 00080000 		.4byte	.LVL170
 9988 392f A44B0000 		.4byte	0x4ba4
 9989 3933 43390000 		.4byte	0x3943
 9990 3937 26       		.uleb128 0x26
 9991 3938 01       		.uleb128 0x1
 9992 3939 51       		.byte	0x51
 9993 393a 01       		.uleb128 0x1
 9994 393b 32       		.byte	0x32
 9995 393c 26       		.uleb128 0x26
 9996 393d 01       		.uleb128 0x1
 9997 393e 50       		.byte	0x50
ARM GAS  C:\Users\AHMED~1.ELE\AppData\Local\Temp\cc0wYKcg.s 			page 203


 9998 393f 02       		.uleb128 0x2
 9999 3940 78       		.byte	0x78
 10000 3941 00       		.sleb128 0
 10001 3942 00       		.byte	0
 10002 3943 2E       		.uleb128 0x2e
 10003 3944 14080000 		.4byte	.LVL171
 10004 3948 8C4C0000 		.4byte	0x4c8c
 10005 394c 58390000 		.4byte	0x3958
 10006 3950 26       		.uleb128 0x26
 10007 3951 01       		.uleb128 0x1
 10008 3952 50       		.byte	0x50
 10009 3953 03       		.uleb128 0x3
 10010 3954 91       		.byte	0x91
 10011 3955 987E     		.sleb128 -232
 10012 3957 00       		.byte	0
 10013 3958 2E       		.uleb128 0x2e
 10014 3959 5A080000 		.4byte	.LVL172
 10015 395d 764C0000 		.4byte	0x4c76
 10016 3961 71390000 		.4byte	0x3971
 10017 3965 26       		.uleb128 0x26
 10018 3966 01       		.uleb128 0x1
 10019 3967 51       		.byte	0x51
 10020 3968 01       		.uleb128 0x1
 10021 3969 36       		.byte	0x36
 10022 396a 26       		.uleb128 0x26
 10023 396b 01       		.uleb128 0x1
 10024 396c 50       		.byte	0x50
 10025 396d 02       		.uleb128 0x2
 10026 396e 75       		.byte	0x75
 10027 396f 00       		.sleb128 0
 10028 3970 00       		.byte	0
 10029 3971 2E       		.uleb128 0x2e
 10030 3972 6C080000 		.4byte	.LVL173
 10031 3976 A44B0000 		.4byte	0x4ba4
 10032 397a 84390000 		.4byte	0x3984
 10033 397e 26       		.uleb128 0x26
 10034 397f 01       		.uleb128 0x1
 10035 3980 51       		.byte	0x51
 10036 3981 01       		.uleb128 0x1
 10037 3982 31       		.byte	0x31
 10038 3983 00       		.byte	0
 10039 3984 2E       		.uleb128 0x2e
 10040 3985 74080000 		.4byte	.LVL174
 10041 3989 A44B0000 		.4byte	0x4ba4
 10042 398d A0390000 		.4byte	0x39a0
 10043 3991 26       		.uleb128 0x26
 10044 3992 01       		.uleb128 0x1
 10045 3993 51       		.byte	0x51
 10046 3994 01       		.uleb128 0x1
 10047 3995 31       		.byte	0x31
 10048 3996 26       		.uleb128 0x26
 10049 3997 01       		.uleb128 0x1
 10050 3998 50       		.byte	0x50
 10051 3999 05       		.uleb128 0x5
 10052 399a 03       		.byte	0x3
 10053 399b C8000000 		.4byte	.LC32
 10054 399f 00       		.byte	0
ARM GAS  C:\Users\AHMED~1.ELE\AppData\Local\Temp\cc0wYKcg.s 			page 204


 10055 39a0 2E       		.uleb128 0x2e
 10056 39a1 86080000 		.4byte	.LVL175
 10057 39a5 A44B0000 		.4byte	0x4ba4
 10058 39a9 BA390000 		.4byte	0x39ba
 10059 39ad 26       		.uleb128 0x26
 10060 39ae 01       		.uleb128 0x1
 10061 39af 51       		.byte	0x51
 10062 39b0 01       		.uleb128 0x1
 10063 39b1 36       		.byte	0x36
 10064 39b2 26       		.uleb128 0x26
 10065 39b3 01       		.uleb128 0x1
 10066 39b4 50       		.byte	0x50
 10067 39b5 03       		.uleb128 0x3
 10068 39b6 91       		.byte	0x91
 10069 39b7 A67E     		.sleb128 -218
 10070 39b9 00       		.byte	0
 10071 39ba 2E       		.uleb128 0x2e
 10072 39bb 9E080000 		.4byte	.LVL176
 10073 39bf 8C4C0000 		.4byte	0x4c8c
 10074 39c3 CF390000 		.4byte	0x39cf
 10075 39c7 26       		.uleb128 0x26
 10076 39c8 01       		.uleb128 0x1
 10077 39c9 50       		.byte	0x50
 10078 39ca 03       		.uleb128 0x3
 10079 39cb 91       		.byte	0x91
 10080 39cc 987E     		.sleb128 -232
 10081 39ce 00       		.byte	0
 10082 39cf 2E       		.uleb128 0x2e
 10083 39d0 A6080000 		.4byte	.LVL177
 10084 39d4 764C0000 		.4byte	0x4c76
 10085 39d8 E9390000 		.4byte	0x39e9
 10086 39dc 26       		.uleb128 0x26
 10087 39dd 01       		.uleb128 0x1
 10088 39de 51       		.byte	0x51
 10089 39df 01       		.uleb128 0x1
 10090 39e0 35       		.byte	0x35
 10091 39e1 26       		.uleb128 0x26
 10092 39e2 01       		.uleb128 0x1
 10093 39e3 50       		.byte	0x50
 10094 39e4 03       		.uleb128 0x3
 10095 39e5 91       		.byte	0x91
 10096 39e6 9C7E     		.sleb128 -228
 10097 39e8 00       		.byte	0
 10098 39e9 2E       		.uleb128 0x2e
 10099 39ea BA080000 		.4byte	.LVL178
 10100 39ee 8C4C0000 		.4byte	0x4c8c
 10101 39f2 FE390000 		.4byte	0x39fe
 10102 39f6 26       		.uleb128 0x26
 10103 39f7 01       		.uleb128 0x1
 10104 39f8 50       		.byte	0x50
 10105 39f9 03       		.uleb128 0x3
 10106 39fa 91       		.byte	0x91
 10107 39fb 987E     		.sleb128 -232
 10108 39fd 00       		.byte	0
 10109 39fe 2E       		.uleb128 0x2e
 10110 39ff C2080000 		.4byte	.LVL179
 10111 3a03 764C0000 		.4byte	0x4c76
ARM GAS  C:\Users\AHMED~1.ELE\AppData\Local\Temp\cc0wYKcg.s 			page 205


 10112 3a07 183A0000 		.4byte	0x3a18
 10113 3a0b 26       		.uleb128 0x26
 10114 3a0c 01       		.uleb128 0x1
 10115 3a0d 51       		.byte	0x51
 10116 3a0e 01       		.uleb128 0x1
 10117 3a0f 35       		.byte	0x35
 10118 3a10 26       		.uleb128 0x26
 10119 3a11 01       		.uleb128 0x1
 10120 3a12 50       		.byte	0x50
 10121 3a13 03       		.uleb128 0x3
 10122 3a14 91       		.byte	0x91
 10123 3a15 9C7E     		.sleb128 -228
 10124 3a17 00       		.byte	0
 10125 3a18 2E       		.uleb128 0x2e
 10126 3a19 D6080000 		.4byte	.LVL180
 10127 3a1d 8C4C0000 		.4byte	0x4c8c
 10128 3a21 2D3A0000 		.4byte	0x3a2d
 10129 3a25 26       		.uleb128 0x26
 10130 3a26 01       		.uleb128 0x1
 10131 3a27 50       		.byte	0x50
 10132 3a28 03       		.uleb128 0x3
 10133 3a29 91       		.byte	0x91
 10134 3a2a 987E     		.sleb128 -232
 10135 3a2c 00       		.byte	0
 10136 3a2d 2E       		.uleb128 0x2e
 10137 3a2e DE080000 		.4byte	.LVL181
 10138 3a32 764C0000 		.4byte	0x4c76
 10139 3a36 473A0000 		.4byte	0x3a47
 10140 3a3a 26       		.uleb128 0x26
 10141 3a3b 01       		.uleb128 0x1
 10142 3a3c 51       		.byte	0x51
 10143 3a3d 01       		.uleb128 0x1
 10144 3a3e 35       		.byte	0x35
 10145 3a3f 26       		.uleb128 0x26
 10146 3a40 01       		.uleb128 0x1
 10147 3a41 50       		.byte	0x50
 10148 3a42 03       		.uleb128 0x3
 10149 3a43 91       		.byte	0x91
 10150 3a44 9C7E     		.sleb128 -228
 10151 3a46 00       		.byte	0
 10152 3a47 2E       		.uleb128 0x2e
 10153 3a48 F2080000 		.4byte	.LVL182
 10154 3a4c 8C4C0000 		.4byte	0x4c8c
 10155 3a50 5C3A0000 		.4byte	0x3a5c
 10156 3a54 26       		.uleb128 0x26
 10157 3a55 01       		.uleb128 0x1
 10158 3a56 50       		.byte	0x50
 10159 3a57 03       		.uleb128 0x3
 10160 3a58 91       		.byte	0x91
 10161 3a59 987E     		.sleb128 -232
 10162 3a5b 00       		.byte	0
 10163 3a5c 2E       		.uleb128 0x2e
 10164 3a5d FA080000 		.4byte	.LVL183
 10165 3a61 764C0000 		.4byte	0x4c76
 10166 3a65 763A0000 		.4byte	0x3a76
 10167 3a69 26       		.uleb128 0x26
 10168 3a6a 01       		.uleb128 0x1
ARM GAS  C:\Users\AHMED~1.ELE\AppData\Local\Temp\cc0wYKcg.s 			page 206


 10169 3a6b 51       		.byte	0x51
 10170 3a6c 01       		.uleb128 0x1
 10171 3a6d 35       		.byte	0x35
 10172 3a6e 26       		.uleb128 0x26
 10173 3a6f 01       		.uleb128 0x1
 10174 3a70 50       		.byte	0x50
 10175 3a71 03       		.uleb128 0x3
 10176 3a72 91       		.byte	0x91
 10177 3a73 9C7E     		.sleb128 -228
 10178 3a75 00       		.byte	0
 10179 3a76 2E       		.uleb128 0x2e
 10180 3a77 12090000 		.4byte	.LVL184
 10181 3a7b 8C4C0000 		.4byte	0x4c8c
 10182 3a7f 8B3A0000 		.4byte	0x3a8b
 10183 3a83 26       		.uleb128 0x26
 10184 3a84 01       		.uleb128 0x1
 10185 3a85 50       		.byte	0x50
 10186 3a86 03       		.uleb128 0x3
 10187 3a87 91       		.byte	0x91
 10188 3a88 987E     		.sleb128 -232
 10189 3a8a 00       		.byte	0
 10190 3a8b 2E       		.uleb128 0x2e
 10191 3a8c 1A090000 		.4byte	.LVL185
 10192 3a90 764C0000 		.4byte	0x4c76
 10193 3a94 A53A0000 		.4byte	0x3aa5
 10194 3a98 26       		.uleb128 0x26
 10195 3a99 01       		.uleb128 0x1
 10196 3a9a 51       		.byte	0x51
 10197 3a9b 01       		.uleb128 0x1
 10198 3a9c 35       		.byte	0x35
 10199 3a9d 26       		.uleb128 0x26
 10200 3a9e 01       		.uleb128 0x1
 10201 3a9f 50       		.byte	0x50
 10202 3aa0 03       		.uleb128 0x3
 10203 3aa1 91       		.byte	0x91
 10204 3aa2 9C7E     		.sleb128 -228
 10205 3aa4 00       		.byte	0
 10206 3aa5 2E       		.uleb128 0x2e
 10207 3aa6 2E090000 		.4byte	.LVL186
 10208 3aaa 8C4C0000 		.4byte	0x4c8c
 10209 3aae BA3A0000 		.4byte	0x3aba
 10210 3ab2 26       		.uleb128 0x26
 10211 3ab3 01       		.uleb128 0x1
 10212 3ab4 50       		.byte	0x50
 10213 3ab5 03       		.uleb128 0x3
 10214 3ab6 91       		.byte	0x91
 10215 3ab7 987E     		.sleb128 -232
 10216 3ab9 00       		.byte	0
 10217 3aba 2E       		.uleb128 0x2e
 10218 3abb 36090000 		.4byte	.LVL187
 10219 3abf 764C0000 		.4byte	0x4c76
 10220 3ac3 D43A0000 		.4byte	0x3ad4
 10221 3ac7 26       		.uleb128 0x26
 10222 3ac8 01       		.uleb128 0x1
 10223 3ac9 51       		.byte	0x51
 10224 3aca 01       		.uleb128 0x1
 10225 3acb 35       		.byte	0x35
ARM GAS  C:\Users\AHMED~1.ELE\AppData\Local\Temp\cc0wYKcg.s 			page 207


 10226 3acc 26       		.uleb128 0x26
 10227 3acd 01       		.uleb128 0x1
 10228 3ace 50       		.byte	0x50
 10229 3acf 03       		.uleb128 0x3
 10230 3ad0 91       		.byte	0x91
 10231 3ad1 9C7E     		.sleb128 -228
 10232 3ad3 00       		.byte	0
 10233 3ad4 2E       		.uleb128 0x2e
 10234 3ad5 42090000 		.4byte	.LVL188
 10235 3ad9 A44B0000 		.4byte	0x4ba4
 10236 3add F03A0000 		.4byte	0x3af0
 10237 3ae1 26       		.uleb128 0x26
 10238 3ae2 01       		.uleb128 0x1
 10239 3ae3 51       		.byte	0x51
 10240 3ae4 01       		.uleb128 0x1
 10241 3ae5 40       		.byte	0x40
 10242 3ae6 26       		.uleb128 0x26
 10243 3ae7 01       		.uleb128 0x1
 10244 3ae8 50       		.byte	0x50
 10245 3ae9 05       		.uleb128 0x5
 10246 3aea 03       		.byte	0x3
 10247 3aeb 8F000000 		.4byte	.LC22
 10248 3aef 00       		.byte	0
 10249 3af0 2E       		.uleb128 0x2e
 10250 3af1 4E090000 		.4byte	.LVL189
 10251 3af5 A44B0000 		.4byte	0x4ba4
 10252 3af9 0C3B0000 		.4byte	0x3b0c
 10253 3afd 26       		.uleb128 0x26
 10254 3afe 01       		.uleb128 0x1
 10255 3aff 51       		.byte	0x51
 10256 3b00 01       		.uleb128 0x1
 10257 3b01 40       		.byte	0x40
 10258 3b02 26       		.uleb128 0x26
 10259 3b03 01       		.uleb128 0x1
 10260 3b04 50       		.byte	0x50
 10261 3b05 05       		.uleb128 0x5
 10262 3b06 03       		.byte	0x3
 10263 3b07 8F000000 		.4byte	.LC22
 10264 3b0b 00       		.byte	0
 10265 3b0c 2E       		.uleb128 0x2e
 10266 3b0d 5A090000 		.4byte	.LVL190
 10267 3b11 A44B0000 		.4byte	0x4ba4
 10268 3b15 283B0000 		.4byte	0x3b28
 10269 3b19 26       		.uleb128 0x26
 10270 3b1a 01       		.uleb128 0x1
 10271 3b1b 51       		.byte	0x51
 10272 3b1c 01       		.uleb128 0x1
 10273 3b1d 40       		.byte	0x40
 10274 3b1e 26       		.uleb128 0x26
 10275 3b1f 01       		.uleb128 0x1
 10276 3b20 50       		.byte	0x50
 10277 3b21 05       		.uleb128 0x5
 10278 3b22 03       		.byte	0x3
 10279 3b23 8F000000 		.4byte	.LC22
 10280 3b27 00       		.byte	0
 10281 3b28 2E       		.uleb128 0x2e
 10282 3b29 6A090000 		.4byte	.LVL191
ARM GAS  C:\Users\AHMED~1.ELE\AppData\Local\Temp\cc0wYKcg.s 			page 208


 10283 3b2d A44B0000 		.4byte	0x4ba4
 10284 3b31 443B0000 		.4byte	0x3b44
 10285 3b35 26       		.uleb128 0x26
 10286 3b36 01       		.uleb128 0x1
 10287 3b37 51       		.byte	0x51
 10288 3b38 01       		.uleb128 0x1
 10289 3b39 40       		.byte	0x40
 10290 3b3a 26       		.uleb128 0x26
 10291 3b3b 01       		.uleb128 0x1
 10292 3b3c 50       		.byte	0x50
 10293 3b3d 05       		.uleb128 0x5
 10294 3b3e 03       		.byte	0x3
 10295 3b3f 8F000000 		.4byte	.LC22
 10296 3b43 00       		.byte	0
 10297 3b44 2E       		.uleb128 0x2e
 10298 3b45 72090000 		.4byte	.LVL192
 10299 3b49 A44B0000 		.4byte	0x4ba4
 10300 3b4d 603B0000 		.4byte	0x3b60
 10301 3b51 26       		.uleb128 0x26
 10302 3b52 01       		.uleb128 0x1
 10303 3b53 51       		.byte	0x51
 10304 3b54 01       		.uleb128 0x1
 10305 3b55 40       		.byte	0x40
 10306 3b56 26       		.uleb128 0x26
 10307 3b57 01       		.uleb128 0x1
 10308 3b58 50       		.byte	0x50
 10309 3b59 05       		.uleb128 0x5
 10310 3b5a 03       		.byte	0x3
 10311 3b5b 8F000000 		.4byte	.LC22
 10312 3b5f 00       		.byte	0
 10313 3b60 2E       		.uleb128 0x2e
 10314 3b61 80090000 		.4byte	.LVL193
 10315 3b65 544B0000 		.4byte	0x4b54
 10316 3b69 733B0000 		.4byte	0x3b73
 10317 3b6d 26       		.uleb128 0x26
 10318 3b6e 01       		.uleb128 0x1
 10319 3b6f 50       		.byte	0x50
 10320 3b70 01       		.uleb128 0x1
 10321 3b71 41       		.byte	0x41
 10322 3b72 00       		.byte	0
 10323 3b73 2E       		.uleb128 0x2e
 10324 3b74 88090000 		.4byte	.LVL194
 10325 3b78 A44B0000 		.4byte	0x4ba4
 10326 3b7c 8F3B0000 		.4byte	0x3b8f
 10327 3b80 26       		.uleb128 0x26
 10328 3b81 01       		.uleb128 0x1
 10329 3b82 51       		.byte	0x51
 10330 3b83 01       		.uleb128 0x1
 10331 3b84 3B       		.byte	0x3b
 10332 3b85 26       		.uleb128 0x26
 10333 3b86 01       		.uleb128 0x1
 10334 3b87 50       		.byte	0x50
 10335 3b88 05       		.uleb128 0x5
 10336 3b89 03       		.byte	0x3
 10337 3b8a CA000000 		.4byte	.LC33
 10338 3b8e 00       		.byte	0
 10339 3b8f 2E       		.uleb128 0x2e
ARM GAS  C:\Users\AHMED~1.ELE\AppData\Local\Temp\cc0wYKcg.s 			page 209


 10340 3b90 98090000 		.4byte	.LVL195
 10341 3b94 A44B0000 		.4byte	0x4ba4
 10342 3b98 AB3B0000 		.4byte	0x3bab
 10343 3b9c 26       		.uleb128 0x26
 10344 3b9d 01       		.uleb128 0x1
 10345 3b9e 51       		.byte	0x51
 10346 3b9f 01       		.uleb128 0x1
 10347 3ba0 38       		.byte	0x38
 10348 3ba1 26       		.uleb128 0x26
 10349 3ba2 01       		.uleb128 0x1
 10350 3ba3 50       		.byte	0x50
 10351 3ba4 05       		.uleb128 0x5
 10352 3ba5 03       		.byte	0x3
 10353 3ba6 07000000 		.4byte	.LANCHOR0+7
 10354 3baa 00       		.byte	0
 10355 3bab 2D       		.uleb128 0x2d
 10356 3bac 9C090000 		.4byte	.LVL196
 10357 3bb0 384B0000 		.4byte	0x4b38
 10358 3bb4 2D       		.uleb128 0x2d
 10359 3bb5 A0090000 		.4byte	.LVL197
 10360 3bb9 4B4D0000 		.4byte	0x4d4b
 10361 3bbd 2E       		.uleb128 0x2e
 10362 3bbe B2090000 		.4byte	.LVL198
 10363 3bc2 894B0000 		.4byte	0x4b89
 10364 3bc6 DB3B0000 		.4byte	0x3bdb
 10365 3bca 26       		.uleb128 0x26
 10366 3bcb 01       		.uleb128 0x1
 10367 3bcc 51       		.byte	0x51
 10368 3bcd 05       		.uleb128 0x5
 10369 3bce 03       		.byte	0x3
 10370 3bcf D6000000 		.4byte	.LC34
 10371 3bd3 26       		.uleb128 0x26
 10372 3bd4 01       		.uleb128 0x1
 10373 3bd5 50       		.byte	0x50
 10374 3bd6 03       		.uleb128 0x3
 10375 3bd7 91       		.byte	0x91
 10376 3bd8 947E     		.sleb128 -236
 10377 3bda 00       		.byte	0
 10378 3bdb 2E       		.uleb128 0x2e
 10379 3bdc BC090000 		.4byte	.LVL199
 10380 3be0 BA4B0000 		.4byte	0x4bba
 10381 3be4 FB3B0000 		.4byte	0x3bfb
 10382 3be8 26       		.uleb128 0x26
 10383 3be9 01       		.uleb128 0x1
 10384 3bea 52       		.byte	0x52
 10385 3beb 01       		.uleb128 0x1
 10386 3bec 34       		.byte	0x34
 10387 3bed 26       		.uleb128 0x26
 10388 3bee 01       		.uleb128 0x1
 10389 3bef 51       		.byte	0x51
 10390 3bf0 03       		.uleb128 0x3
 10391 3bf1 91       		.byte	0x91
 10392 3bf2 947E     		.sleb128 -236
 10393 3bf4 26       		.uleb128 0x26
 10394 3bf5 01       		.uleb128 0x1
 10395 3bf6 50       		.byte	0x50
 10396 3bf7 02       		.uleb128 0x2
ARM GAS  C:\Users\AHMED~1.ELE\AppData\Local\Temp\cc0wYKcg.s 			page 210


 10397 3bf8 77       		.byte	0x77
 10398 3bf9 00       		.sleb128 0
 10399 3bfa 00       		.byte	0
 10400 3bfb 2E       		.uleb128 0x2e
 10401 3bfc D0090000 		.4byte	.LVL200
 10402 3c00 BA4B0000 		.4byte	0x4bba
 10403 3c04 163C0000 		.4byte	0x3c16
 10404 3c08 26       		.uleb128 0x26
 10405 3c09 01       		.uleb128 0x1
 10406 3c0a 51       		.byte	0x51
 10407 3c0b 03       		.uleb128 0x3
 10408 3c0c 91       		.byte	0x91
 10409 3c0d B47E     		.sleb128 -204
 10410 3c0f 26       		.uleb128 0x26
 10411 3c10 01       		.uleb128 0x1
 10412 3c11 50       		.byte	0x50
 10413 3c12 02       		.uleb128 0x2
 10414 3c13 76       		.byte	0x76
 10415 3c14 00       		.sleb128 0
 10416 3c15 00       		.byte	0
 10417 3c16 2F       		.uleb128 0x2f
 10418 3c17 E2090000 		.4byte	.LVL201
 10419 3c1b 5C4D0000 		.4byte	0x4d5c
 10420 3c1f 26       		.uleb128 0x26
 10421 3c20 01       		.uleb128 0x1
 10422 3c21 50       		.byte	0x50
 10423 3c22 05       		.uleb128 0x5
 10424 3c23 03       		.byte	0x3
 10425 3c24 DB000000 		.4byte	.LC35
 10426 3c28 00       		.byte	0
 10427 3c29 00       		.byte	0
 10428 3c2a 08       		.uleb128 0x8
 10429 3c2b A2000000 		.4byte	0xa2
 10430 3c2f 3A3C0000 		.4byte	0x3c3a
 10431 3c33 09       		.uleb128 0x9
 10432 3c34 78000000 		.4byte	0x78
 10433 3c38 0D       		.byte	0xd
 10434 3c39 00       		.byte	0
 10435 3c3a 30       		.uleb128 0x30
 10436 3c3b 3B350000 		.4byte	.LASF1085
 10437 3c3f 01       		.byte	0x1
 10438 3c40 61       		.byte	0x61
 10439 3c41 A2000000 		.4byte	0xa2
 10440 3c45 01       		.byte	0x1
 10441 3c46 563C0000 		.4byte	0x3c56
 10442 3c4a 20       		.uleb128 0x20
 10443 3c4b 64746700 		.ascii	"dtg\000"
 10444 3c4f 01       		.byte	0x1
 10445 3c50 63       		.byte	0x63
 10446 3c51 B5190000 		.4byte	0x19b5
 10447 3c55 00       		.byte	0
 10448 3c56 1D       		.uleb128 0x1d
 10449 3c57 F32E0000 		.4byte	.LASF1031
 10450 3c5b 01       		.byte	0x1
 10451 3c5c 9B       		.byte	0x9b
 10452 3c5d 01       		.byte	0x1
 10453 3c5e 793C0000 		.4byte	0x3c79
ARM GAS  C:\Users\AHMED~1.ELE\AppData\Local\Temp\cc0wYKcg.s 			page 211


 10454 3c62 20       		.uleb128 0x20
 10455 3c63 746D7000 		.ascii	"tmp\000"
 10456 3c67 01       		.byte	0x1
 10457 3c68 9D       		.byte	0x9d
 10458 3c69 A2000000 		.4byte	0xa2
 10459 3c6d 20       		.uleb128 0x20
 10460 3c6e 64746700 		.ascii	"dtg\000"
 10461 3c72 01       		.byte	0x1
 10462 3c73 9E       		.byte	0x9e
 10463 3c74 B5190000 		.4byte	0x19b5
 10464 3c78 00       		.byte	0
 10465 3c79 31       		.uleb128 0x31
 10466 3c7a 37240000 		.4byte	.LASF1086
 10467 3c7e 01       		.byte	0x1
 10468 3c7f A003     		.2byte	0x3a0
 10469 3c81 A2000000 		.4byte	0xa2
 10470 3c85 00000000 		.4byte	.LFB7
 10471 3c89 48070000 		.4byte	.LFE7-.LFB7
 10472 3c8d 01       		.uleb128 0x1
 10473 3c8e 9C       		.byte	0x9c
 10474 3c8f D14A0000 		.4byte	0x4ad1
 10475 3c93 32       		.uleb128 0x32
 10476 3c94 C62B0000 		.4byte	.LASF1025
 10477 3c98 01       		.byte	0x1
 10478 3c99 A203     		.2byte	0x3a2
 10479 3c9b B8000000 		.4byte	0xb8
 10480 3c9f 1A010000 		.4byte	.LLST6
 10481 3ca3 33       		.uleb128 0x33
 10482 3ca4 1B3F0000 		.4byte	.LASF1032
 10483 3ca8 01       		.byte	0x1
 10484 3ca9 A303     		.2byte	0x3a3
 10485 3cab EF000000 		.4byte	0xef
 10486 3caf 02       		.uleb128 0x2
 10487 3cb0 91       		.byte	0x91
 10488 3cb1 50       		.sleb128 -48
 10489 3cb2 34       		.uleb128 0x34
 10490 3cb3 62756600 		.ascii	"buf\000"
 10491 3cb7 01       		.byte	0x1
 10492 3cb8 A403     		.2byte	0x3a4
 10493 3cba EF000000 		.4byte	0xef
 10494 3cbe 02       		.uleb128 0x2
 10495 3cbf 91       		.byte	0x91
 10496 3cc0 54       		.sleb128 -44
 10497 3cc1 35       		.uleb128 0x35
 10498 3cc2 183E0000 		.4byte	.LASF1033
 10499 3cc6 01       		.byte	0x1
 10500 3cc7 A503     		.2byte	0x3a5
 10501 3cc9 A7140000 		.4byte	0x14a7
 10502 3ccd 33       		.uleb128 0x33
 10503 3cce C63D0000 		.4byte	.LASF1034
 10504 3cd2 01       		.byte	0x1
 10505 3cd3 A603     		.2byte	0x3a6
 10506 3cd5 CD010000 		.4byte	0x1cd
 10507 3cd9 02       		.uleb128 0x2
 10508 3cda 91       		.byte	0x91
 10509 3cdb 58       		.sleb128 -40
 10510 3cdc 36       		.uleb128 0x36
ARM GAS  C:\Users\AHMED~1.ELE\AppData\Local\Temp\cc0wYKcg.s 			page 212


 10511 3cdd 6900     		.ascii	"i\000"
 10512 3cdf 01       		.byte	0x1
 10513 3ce0 AA03     		.2byte	0x3aa
 10514 3ce2 5D000000 		.4byte	0x5d
 10515 3ce6 00       		.byte	0
 10516 3ce7 37       		.uleb128 0x37
 10517 3ce8 746D7000 		.ascii	"tmp\000"
 10518 3cec 01       		.byte	0x1
 10519 3ced AC03     		.2byte	0x3ac
 10520 3cef A2000000 		.4byte	0xa2
 10521 3cf3 32       		.uleb128 0x32
 10522 3cf4 291B0000 		.4byte	.LASF1035
 10523 3cf8 01       		.byte	0x1
 10524 3cf9 AD03     		.2byte	0x3ad
 10525 3cfb 97000000 		.4byte	0x97
 10526 3cff FE010000 		.4byte	.LLST7
 10527 3d03 32       		.uleb128 0x32
 10528 3d04 55220000 		.4byte	.LASF1036
 10529 3d08 01       		.byte	0x1
 10530 3d09 AD03     		.2byte	0x3ad
 10531 3d0b 97000000 		.4byte	0x97
 10532 3d0f 12020000 		.4byte	.LLST8
 10533 3d13 38       		.uleb128 0x38
 10534 3d14 3A3C0000 		.4byte	0x3c3a
 10535 3d18 1E000000 		.4byte	.LBB6
 10536 3d1c 50000000 		.4byte	.LBE6-.LBB6
 10537 3d20 01       		.byte	0x1
 10538 3d21 B303     		.2byte	0x3b3
 10539 3d23 AE3D0000 		.4byte	0x3dae
 10540 3d27 39       		.uleb128 0x39
 10541 3d28 1E000000 		.4byte	.LBB7
 10542 3d2c 50000000 		.4byte	.LBE7-.LBB7
 10543 3d30 3A       		.uleb128 0x3a
 10544 3d31 4A3C0000 		.4byte	0x3c4a
 10545 3d35 02       		.uleb128 0x2
 10546 3d36 91       		.byte	0x91
 10547 3d37 60       		.sleb128 -32
 10548 3d38 2E       		.uleb128 0x2e
 10549 3d39 28000000 		.4byte	.LVL207
 10550 3d3d F64B0000 		.4byte	0x4bf6
 10551 3d41 4C3D0000 		.4byte	0x3d4c
 10552 3d45 26       		.uleb128 0x26
 10553 3d46 01       		.uleb128 0x1
 10554 3d47 50       		.byte	0x50
 10555 3d48 02       		.uleb128 0x2
 10556 3d49 91       		.byte	0x91
 10557 3d4a 60       		.sleb128 -32
 10558 3d4b 00       		.byte	0
 10559 3d4c 2E       		.uleb128 0x2e
 10560 3d4d 32000000 		.4byte	.LVL208
 10561 3d51 BA4B0000 		.4byte	0x4bba
 10562 3d55 653D0000 		.4byte	0x3d65
 10563 3d59 26       		.uleb128 0x26
 10564 3d5a 01       		.uleb128 0x1
 10565 3d5b 52       		.byte	0x52
 10566 3d5c 01       		.uleb128 0x1
 10567 3d5d 36       		.byte	0x36
ARM GAS  C:\Users\AHMED~1.ELE\AppData\Local\Temp\cc0wYKcg.s 			page 213


 10568 3d5e 26       		.uleb128 0x26
 10569 3d5f 01       		.uleb128 0x1
 10570 3d60 51       		.byte	0x51
 10571 3d61 02       		.uleb128 0x2
 10572 3d62 74       		.byte	0x74
 10573 3d63 00       		.sleb128 0
 10574 3d64 00       		.byte	0
 10575 3d65 2E       		.uleb128 0x2e
 10576 3d66 3C000000 		.4byte	.LVL209
 10577 3d6a 774D0000 		.4byte	0x4d77
 10578 3d6e 7E3D0000 		.4byte	0x3d7e
 10579 3d72 26       		.uleb128 0x26
 10580 3d73 01       		.uleb128 0x1
 10581 3d74 52       		.byte	0x52
 10582 3d75 01       		.uleb128 0x1
 10583 3d76 36       		.byte	0x36
 10584 3d77 26       		.uleb128 0x26
 10585 3d78 01       		.uleb128 0x1
 10586 3d79 51       		.byte	0x51
 10587 3d7a 02       		.uleb128 0x2
 10588 3d7b 08       		.byte	0x8
 10589 3d7c 30       		.byte	0x30
 10590 3d7d 00       		.byte	0
 10591 3d7e 2E       		.uleb128 0x2e
 10592 3d7f 46000000 		.4byte	.LVL210
 10593 3d83 5B4C0000 		.4byte	0x4c5b
 10594 3d87 973D0000 		.4byte	0x3d97
 10595 3d8b 26       		.uleb128 0x26
 10596 3d8c 01       		.uleb128 0x1
 10597 3d8d 52       		.byte	0x52
 10598 3d8e 01       		.uleb128 0x1
 10599 3d8f 36       		.byte	0x36
 10600 3d90 26       		.uleb128 0x26
 10601 3d91 01       		.uleb128 0x1
 10602 3d92 51       		.byte	0x51
 10603 3d93 02       		.uleb128 0x2
 10604 3d94 74       		.byte	0x74
 10605 3d95 00       		.sleb128 0
 10606 3d96 00       		.byte	0
 10607 3d97 2F       		.uleb128 0x2f
 10608 3d98 6E000000 		.4byte	.LVL211
 10609 3d9c 774D0000 		.4byte	0x4d77
 10610 3da0 26       		.uleb128 0x26
 10611 3da1 01       		.uleb128 0x1
 10612 3da2 52       		.byte	0x52
 10613 3da3 01       		.uleb128 0x1
 10614 3da4 44       		.byte	0x44
 10615 3da5 26       		.uleb128 0x26
 10616 3da6 01       		.uleb128 0x1
 10617 3da7 51       		.byte	0x51
 10618 3da8 02       		.uleb128 0x2
 10619 3da9 08       		.byte	0x8
 10620 3daa 20       		.byte	0x20
 10621 3dab 00       		.byte	0
 10622 3dac 00       		.byte	0
 10623 3dad 00       		.byte	0
 10624 3dae 38       		.uleb128 0x38
ARM GAS  C:\Users\AHMED~1.ELE\AppData\Local\Temp\cc0wYKcg.s 			page 214


 10625 3daf 563C0000 		.4byte	0x3c56
 10626 3db3 80060000 		.4byte	.LBB8
 10627 3db7 60000000 		.4byte	.LBE8-.LBB8
 10628 3dbb 01       		.byte	0x1
 10629 3dbc 6605     		.2byte	0x566
 10630 3dbe 423E0000 		.4byte	0x3e42
 10631 3dc2 39       		.uleb128 0x39
 10632 3dc3 80060000 		.4byte	.LBB9
 10633 3dc7 60000000 		.4byte	.LBE9-.LBB9
 10634 3dcb 3A       		.uleb128 0x3a
 10635 3dcc 623C0000 		.4byte	0x3c62
 10636 3dd0 02       		.uleb128 0x2
 10637 3dd1 91       		.byte	0x91
 10638 3dd2 4F       		.sleb128 -49
 10639 3dd3 3A       		.uleb128 0x3a
 10640 3dd4 6D3C0000 		.4byte	0x3c6d
 10641 3dd8 02       		.uleb128 0x2
 10642 3dd9 91       		.byte	0x91
 10643 3dda 60       		.sleb128 -32
 10644 3ddb 2E       		.uleb128 0x2e
 10645 3ddc 86060000 		.4byte	.LVL360
 10646 3de0 F64B0000 		.4byte	0x4bf6
 10647 3de4 EF3D0000 		.4byte	0x3def
 10648 3de8 26       		.uleb128 0x26
 10649 3de9 01       		.uleb128 0x1
 10650 3dea 50       		.byte	0x50
 10651 3deb 02       		.uleb128 0x2
 10652 3dec 91       		.byte	0x91
 10653 3ded 60       		.sleb128 -32
 10654 3dee 00       		.byte	0
 10655 3def 2E       		.uleb128 0x2e
 10656 3df0 B8060000 		.4byte	.LVL361
 10657 3df4 964D0000 		.4byte	0x4d96
 10658 3df8 033E0000 		.4byte	0x3e03
 10659 3dfc 26       		.uleb128 0x26
 10660 3dfd 01       		.uleb128 0x1
 10661 3dfe 51       		.byte	0x51
 10662 3dff 02       		.uleb128 0x2
 10663 3e00 91       		.byte	0x91
 10664 3e01 4F       		.sleb128 -49
 10665 3e02 00       		.byte	0
 10666 3e03 2E       		.uleb128 0x2e
 10667 3e04 D0060000 		.4byte	.LVL362
 10668 3e08 B54D0000 		.4byte	0x4db5
 10669 3e0c 173E0000 		.4byte	0x3e17
 10670 3e10 26       		.uleb128 0x26
 10671 3e11 01       		.uleb128 0x1
 10672 3e12 51       		.byte	0x51
 10673 3e13 02       		.uleb128 0x2
 10674 3e14 91       		.byte	0x91
 10675 3e15 4F       		.sleb128 -49
 10676 3e16 00       		.byte	0
 10677 3e17 2E       		.uleb128 0x2e
 10678 3e18 DA060000 		.4byte	.LVL363
 10679 3e1c D44D0000 		.4byte	0x4dd4
 10680 3e20 303E0000 		.4byte	0x3e30
 10681 3e24 26       		.uleb128 0x26
ARM GAS  C:\Users\AHMED~1.ELE\AppData\Local\Temp\cc0wYKcg.s 			page 215


 10682 3e25 01       		.uleb128 0x1
 10683 3e26 52       		.byte	0x52
 10684 3e27 01       		.uleb128 0x1
 10685 3e28 38       		.byte	0x38
 10686 3e29 26       		.uleb128 0x26
 10687 3e2a 01       		.uleb128 0x1
 10688 3e2b 50       		.byte	0x50
 10689 3e2c 02       		.uleb128 0x2
 10690 3e2d 91       		.byte	0x91
 10691 3e2e 60       		.sleb128 -32
 10692 3e2f 00       		.byte	0
 10693 3e30 2F       		.uleb128 0x2f
 10694 3e31 E0060000 		.4byte	.LVL364
 10695 3e35 EF4D0000 		.4byte	0x4def
 10696 3e39 26       		.uleb128 0x26
 10697 3e3a 01       		.uleb128 0x1
 10698 3e3b 50       		.byte	0x50
 10699 3e3c 02       		.uleb128 0x2
 10700 3e3d 91       		.byte	0x91
 10701 3e3e 60       		.sleb128 -32
 10702 3e3f 00       		.byte	0
 10703 3e40 00       		.byte	0
 10704 3e41 00       		.byte	0
 10705 3e42 2E       		.uleb128 0x2e
 10706 3e43 0A000000 		.4byte	.LVL204
 10707 3e47 004E0000 		.4byte	0x4e00
 10708 3e4b 553E0000 		.4byte	0x3e55
 10709 3e4f 26       		.uleb128 0x26
 10710 3e50 01       		.uleb128 0x1
 10711 3e51 50       		.byte	0x50
 10712 3e52 01       		.uleb128 0x1
 10713 3e53 33       		.byte	0x33
 10714 3e54 00       		.byte	0
 10715 3e55 2E       		.uleb128 0x2e
 10716 3e56 16000000 		.4byte	.LVL205
 10717 3e5a 154E0000 		.4byte	0x4e15
 10718 3e5e 713E0000 		.4byte	0x3e71
 10719 3e62 26       		.uleb128 0x26
 10720 3e63 01       		.uleb128 0x1
 10721 3e64 52       		.byte	0x52
 10722 3e65 03       		.uleb128 0x3
 10723 3e66 0A       		.byte	0xa
 10724 3e67 0210     		.2byte	0x1002
 10725 3e69 26       		.uleb128 0x26
 10726 3e6a 01       		.uleb128 0x1
 10727 3e6b 51       		.byte	0x51
 10728 3e6c 03       		.uleb128 0x3
 10729 3e6d 0A       		.byte	0xa
 10730 3e6e 0005     		.2byte	0x500
 10731 3e70 00       		.byte	0
 10732 3e71 2D       		.uleb128 0x2d
 10733 3e72 1A000000 		.4byte	.LVL206
 10734 3e76 304E0000 		.4byte	0x4e30
 10735 3e7a 2E       		.uleb128 0x2e
 10736 3e7b 84000000 		.4byte	.LVL212
 10737 3e7f 5C4D0000 		.4byte	0x4d5c
 10738 3e83 913E0000 		.4byte	0x3e91
ARM GAS  C:\Users\AHMED~1.ELE\AppData\Local\Temp\cc0wYKcg.s 			page 216


 10739 3e87 26       		.uleb128 0x26
 10740 3e88 01       		.uleb128 0x1
 10741 3e89 50       		.byte	0x50
 10742 3e8a 05       		.uleb128 0x5
 10743 3e8b 03       		.byte	0x3
 10744 3e8c E1000000 		.4byte	.LC36
 10745 3e90 00       		.byte	0
 10746 3e91 2D       		.uleb128 0x2d
 10747 3e92 88000000 		.4byte	.LVL213
 10748 3e96 384B0000 		.4byte	0x4b38
 10749 3e9a 2D       		.uleb128 0x2d
 10750 3e9b 8C000000 		.4byte	.LVL214
 10751 3e9f 3B4E0000 		.4byte	0x4e3b
 10752 3ea3 2E       		.uleb128 0x2e
 10753 3ea4 92000000 		.4byte	.LVL215
 10754 3ea8 744B0000 		.4byte	0x4b74
 10755 3eac B63E0000 		.4byte	0x3eb6
 10756 3eb0 26       		.uleb128 0x26
 10757 3eb1 01       		.uleb128 0x1
 10758 3eb2 50       		.byte	0x50
 10759 3eb3 01       		.uleb128 0x1
 10760 3eb4 3E       		.byte	0x3e
 10761 3eb5 00       		.byte	0
 10762 3eb6 2D       		.uleb128 0x2d
 10763 3eb7 96000000 		.4byte	.LVL216
 10764 3ebb 4C4E0000 		.4byte	0x4e4c
 10765 3ebf 2D       		.uleb128 0x2d
 10766 3ec0 9E000000 		.4byte	.LVL217
 10767 3ec4 4C4E0000 		.4byte	0x4e4c
 10768 3ec8 2D       		.uleb128 0x2d
 10769 3ec9 A6000000 		.4byte	.LVL218
 10770 3ecd 4C4E0000 		.4byte	0x4e4c
 10771 3ed1 2D       		.uleb128 0x2d
 10772 3ed2 AE000000 		.4byte	.LVL219
 10773 3ed6 4C4E0000 		.4byte	0x4e4c
 10774 3eda 2E       		.uleb128 0x2e
 10775 3edb EC000000 		.4byte	.LVL220
 10776 3edf 894B0000 		.4byte	0x4b89
 10777 3ee3 F73E0000 		.4byte	0x3ef7
 10778 3ee7 26       		.uleb128 0x26
 10779 3ee8 01       		.uleb128 0x1
 10780 3ee9 51       		.byte	0x51
 10781 3eea 05       		.uleb128 0x5
 10782 3eeb 03       		.byte	0x3
 10783 3eec 00000000 		.4byte	.LC0
 10784 3ef0 26       		.uleb128 0x26
 10785 3ef1 01       		.uleb128 0x1
 10786 3ef2 50       		.byte	0x50
 10787 3ef3 02       		.uleb128 0x2
 10788 3ef4 91       		.byte	0x91
 10789 3ef5 54       		.sleb128 -44
 10790 3ef6 00       		.byte	0
 10791 3ef7 2E       		.uleb128 0x2e
 10792 3ef8 F2000000 		.4byte	.LVL221
 10793 3efc 574E0000 		.4byte	0x4e57
 10794 3f00 0A3F0000 		.4byte	0x3f0a
 10795 3f04 26       		.uleb128 0x26
ARM GAS  C:\Users\AHMED~1.ELE\AppData\Local\Temp\cc0wYKcg.s 			page 217


 10796 3f05 01       		.uleb128 0x1
 10797 3f06 50       		.byte	0x50
 10798 3f07 01       		.uleb128 0x1
 10799 3f08 3C       		.byte	0x3c
 10800 3f09 00       		.byte	0
 10801 3f0a 2E       		.uleb128 0x2e
 10802 3f0b 0A010000 		.4byte	.LVL222
 10803 3f0f 704E0000 		.4byte	0x4e70
 10804 3f13 213F0000 		.4byte	0x3f21
 10805 3f17 26       		.uleb128 0x26
 10806 3f18 01       		.uleb128 0x1
 10807 3f19 50       		.byte	0x50
 10808 3f1a 05       		.uleb128 0x5
 10809 3f1b 03       		.byte	0x3
 10810 3f1c E7000000 		.4byte	.LC37
 10811 3f20 00       		.byte	0
 10812 3f21 2E       		.uleb128 0x2e
 10813 3f22 1A010000 		.4byte	.LVL223
 10814 3f26 0C4D0000 		.4byte	0x4d0c
 10815 3f2a 4B3F0000 		.4byte	0x3f4b
 10816 3f2e 26       		.uleb128 0x26
 10817 3f2f 01       		.uleb128 0x1
 10818 3f30 53       		.byte	0x53
 10819 3f31 01       		.uleb128 0x1
 10820 3f32 30       		.byte	0x30
 10821 3f33 26       		.uleb128 0x26
 10822 3f34 01       		.uleb128 0x1
 10823 3f35 52       		.byte	0x52
 10824 3f36 03       		.uleb128 0x3
 10825 3f37 0A       		.byte	0xa
 10826 3f38 2823     		.2byte	0x2328
 10827 3f3a 26       		.uleb128 0x26
 10828 3f3b 01       		.uleb128 0x1
 10829 3f3c 51       		.byte	0x51
 10830 3f3d 01       		.uleb128 0x1
 10831 3f3e 33       		.byte	0x33
 10832 3f3f 26       		.uleb128 0x26
 10833 3f40 01       		.uleb128 0x1
 10834 3f41 50       		.byte	0x50
 10835 3f42 01       		.uleb128 0x1
 10836 3f43 40       		.byte	0x40
 10837 3f44 26       		.uleb128 0x26
 10838 3f45 02       		.uleb128 0x2
 10839 3f46 7D       		.byte	0x7d
 10840 3f47 00       		.sleb128 0
 10841 3f48 01       		.uleb128 0x1
 10842 3f49 30       		.byte	0x30
 10843 3f4a 00       		.byte	0
 10844 3f4b 2E       		.uleb128 0x2e
 10845 3f4c 24010000 		.4byte	.LVL224
 10846 3f50 D74B0000 		.4byte	0x4bd7
 10847 3f54 6A3F0000 		.4byte	0x3f6a
 10848 3f58 26       		.uleb128 0x26
 10849 3f59 01       		.uleb128 0x1
 10850 3f5a 52       		.byte	0x52
 10851 3f5b 01       		.uleb128 0x1
 10852 3f5c 34       		.byte	0x34
ARM GAS  C:\Users\AHMED~1.ELE\AppData\Local\Temp\cc0wYKcg.s 			page 218


 10853 3f5d 26       		.uleb128 0x26
 10854 3f5e 01       		.uleb128 0x1
 10855 3f5f 51       		.byte	0x51
 10856 3f60 02       		.uleb128 0x2
 10857 3f61 91       		.byte	0x91
 10858 3f62 54       		.sleb128 -44
 10859 3f63 26       		.uleb128 0x26
 10860 3f64 01       		.uleb128 0x1
 10861 3f65 50       		.byte	0x50
 10862 3f66 02       		.uleb128 0x2
 10863 3f67 91       		.byte	0x91
 10864 3f68 50       		.sleb128 -48
 10865 3f69 00       		.byte	0
 10866 3f6a 2E       		.uleb128 0x2e
 10867 3f6b 60010000 		.4byte	.LVL225
 10868 3f6f 1E4B0000 		.4byte	0x4b1e
 10869 3f73 833F0000 		.4byte	0x3f83
 10870 3f77 26       		.uleb128 0x26
 10871 3f78 01       		.uleb128 0x1
 10872 3f79 51       		.byte	0x51
 10873 3f7a 01       		.uleb128 0x1
 10874 3f7b 38       		.byte	0x38
 10875 3f7c 26       		.uleb128 0x26
 10876 3f7d 01       		.uleb128 0x1
 10877 3f7e 50       		.byte	0x50
 10878 3f7f 02       		.uleb128 0x2
 10879 3f80 91       		.byte	0x91
 10880 3f81 58       		.sleb128 -40
 10881 3f82 00       		.byte	0
 10882 3f83 2D       		.uleb128 0x2d
 10883 3f84 6C010000 		.4byte	.LVL226
 10884 3f88 4C4E0000 		.4byte	0x4e4c
 10885 3f8c 2D       		.uleb128 0x2d
 10886 3f8d 70010000 		.4byte	.LVL227
 10887 3f91 864E0000 		.4byte	0x4e86
 10888 3f95 2E       		.uleb128 0x2e
 10889 3f96 7C010000 		.4byte	.LVL230
 10890 3f9a 774D0000 		.4byte	0x4d77
 10891 3f9e AE3F0000 		.4byte	0x3fae
 10892 3fa2 26       		.uleb128 0x26
 10893 3fa3 01       		.uleb128 0x1
 10894 3fa4 52       		.byte	0x52
 10895 3fa5 01       		.uleb128 0x1
 10896 3fa6 3A       		.byte	0x3a
 10897 3fa7 26       		.uleb128 0x26
 10898 3fa8 01       		.uleb128 0x1
 10899 3fa9 51       		.byte	0x51
 10900 3faa 02       		.uleb128 0x2
 10901 3fab 08       		.byte	0x8
 10902 3fac FF       		.byte	0xff
 10903 3fad 00       		.byte	0
 10904 3fae 2E       		.uleb128 0x2e
 10905 3faf 84010000 		.4byte	.LVL231
 10906 3fb3 1E4B0000 		.4byte	0x4b1e
 10907 3fb7 C23F0000 		.4byte	0x3fc2
 10908 3fbb 26       		.uleb128 0x26
 10909 3fbc 01       		.uleb128 0x1
ARM GAS  C:\Users\AHMED~1.ELE\AppData\Local\Temp\cc0wYKcg.s 			page 219


 10910 3fbd 51       		.byte	0x51
 10911 3fbe 02       		.uleb128 0x2
 10912 3fbf 75       		.byte	0x75
 10913 3fc0 00       		.sleb128 0
 10914 3fc1 00       		.byte	0
 10915 3fc2 2E       		.uleb128 0x2e
 10916 3fc3 98010000 		.4byte	.LVL232
 10917 3fc7 D34C0000 		.4byte	0x4cd3
 10918 3fcb E53F0000 		.4byte	0x3fe5
 10919 3fcf 26       		.uleb128 0x26
 10920 3fd0 01       		.uleb128 0x1
 10921 3fd1 52       		.byte	0x52
 10922 3fd2 03       		.uleb128 0x3
 10923 3fd3 0A       		.byte	0xa
 10924 3fd4 2C01     		.2byte	0x12c
 10925 3fd6 26       		.uleb128 0x26
 10926 3fd7 01       		.uleb128 0x1
 10927 3fd8 51       		.byte	0x51
 10928 3fd9 01       		.uleb128 0x1
 10929 3fda 30       		.byte	0x30
 10930 3fdb 26       		.uleb128 0x26
 10931 3fdc 01       		.uleb128 0x1
 10932 3fdd 50       		.byte	0x50
 10933 3fde 05       		.uleb128 0x5
 10934 3fdf 03       		.byte	0x3
 10935 3fe0 00000000 		.4byte	field
 10936 3fe4 00       		.byte	0
 10937 3fe5 2E       		.uleb128 0x2e
 10938 3fe6 9E010000 		.4byte	.LVL233
 10939 3fea E12B0000 		.4byte	0x2be1
 10940 3fee FF3F0000 		.4byte	0x3fff
 10941 3ff2 26       		.uleb128 0x26
 10942 3ff3 01       		.uleb128 0x1
 10943 3ff4 50       		.byte	0x50
 10944 3ff5 01       		.uleb128 0x1
 10945 3ff6 36       		.byte	0x36
 10946 3ff7 3B       		.uleb128 0x3b
 10947 3ff8 CC2B0000 		.4byte	0x2bcc
 10948 3ffc 01       		.uleb128 0x1
 10949 3ffd 33       		.byte	0x33
 10950 3ffe 00       		.byte	0
 10951 3fff 2E       		.uleb128 0x2e
 10952 4000 A8010000 		.4byte	.LVL234
 10953 4004 BA4B0000 		.4byte	0x4bba
 10954 4008 1B400000 		.4byte	0x401b
 10955 400c 26       		.uleb128 0x26
 10956 400d 01       		.uleb128 0x1
 10957 400e 52       		.byte	0x52
 10958 400f 01       		.uleb128 0x1
 10959 4010 33       		.byte	0x33
 10960 4011 26       		.uleb128 0x26
 10961 4012 01       		.uleb128 0x1
 10962 4013 51       		.byte	0x51
 10963 4014 05       		.uleb128 0x5
 10964 4015 03       		.byte	0x3
 10965 4016 00000000 		.4byte	field
 10966 401a 00       		.byte	0
ARM GAS  C:\Users\AHMED~1.ELE\AppData\Local\Temp\cc0wYKcg.s 			page 220


 10967 401b 2E       		.uleb128 0x2e
 10968 401c BC010000 		.4byte	.LVL235
 10969 4020 D34C0000 		.4byte	0x4cd3
 10970 4024 3E400000 		.4byte	0x403e
 10971 4028 26       		.uleb128 0x26
 10972 4029 01       		.uleb128 0x1
 10973 402a 52       		.byte	0x52
 10974 402b 03       		.uleb128 0x3
 10975 402c 0A       		.byte	0xa
 10976 402d 2C01     		.2byte	0x12c
 10977 402f 26       		.uleb128 0x26
 10978 4030 01       		.uleb128 0x1
 10979 4031 51       		.byte	0x51
 10980 4032 01       		.uleb128 0x1
 10981 4033 30       		.byte	0x30
 10982 4034 26       		.uleb128 0x26
 10983 4035 01       		.uleb128 0x1
 10984 4036 50       		.byte	0x50
 10985 4037 05       		.uleb128 0x5
 10986 4038 03       		.byte	0x3
 10987 4039 00000000 		.4byte	field
 10988 403d 00       		.byte	0
 10989 403e 2E       		.uleb128 0x2e
 10990 403f C2010000 		.4byte	.LVL236
 10991 4043 E12B0000 		.4byte	0x2be1
 10992 4047 58400000 		.4byte	0x4058
 10993 404b 26       		.uleb128 0x26
 10994 404c 01       		.uleb128 0x1
 10995 404d 50       		.byte	0x50
 10996 404e 01       		.uleb128 0x1
 10997 404f 3C       		.byte	0x3c
 10998 4050 3B       		.uleb128 0x3b
 10999 4051 CC2B0000 		.4byte	0x2bcc
 11000 4055 01       		.uleb128 0x1
 11001 4056 34       		.byte	0x34
 11002 4057 00       		.byte	0
 11003 4058 2E       		.uleb128 0x2e
 11004 4059 D6010000 		.4byte	.LVL237
 11005 405d D34C0000 		.4byte	0x4cd3
 11006 4061 7B400000 		.4byte	0x407b
 11007 4065 26       		.uleb128 0x26
 11008 4066 01       		.uleb128 0x1
 11009 4067 52       		.byte	0x52
 11010 4068 03       		.uleb128 0x3
 11011 4069 0A       		.byte	0xa
 11012 406a 2C01     		.2byte	0x12c
 11013 406c 26       		.uleb128 0x26
 11014 406d 01       		.uleb128 0x1
 11015 406e 51       		.byte	0x51
 11016 406f 01       		.uleb128 0x1
 11017 4070 30       		.byte	0x30
 11018 4071 26       		.uleb128 0x26
 11019 4072 01       		.uleb128 0x1
 11020 4073 50       		.byte	0x50
 11021 4074 05       		.uleb128 0x5
 11022 4075 03       		.byte	0x3
 11023 4076 00000000 		.4byte	field
ARM GAS  C:\Users\AHMED~1.ELE\AppData\Local\Temp\cc0wYKcg.s 			page 221


 11024 407a 00       		.byte	0
 11025 407b 2E       		.uleb128 0x2e
 11026 407c DC010000 		.4byte	.LVL238
 11027 4080 E12B0000 		.4byte	0x2be1
 11028 4084 95400000 		.4byte	0x4095
 11029 4088 26       		.uleb128 0x26
 11030 4089 01       		.uleb128 0x1
 11031 408a 50       		.byte	0x50
 11032 408b 01       		.uleb128 0x1
 11033 408c 3C       		.byte	0x3c
 11034 408d 3B       		.uleb128 0x3b
 11035 408e CC2B0000 		.4byte	0x2bcc
 11036 4092 01       		.uleb128 0x1
 11037 4093 35       		.byte	0x35
 11038 4094 00       		.byte	0
 11039 4095 2E       		.uleb128 0x2e
 11040 4096 F0010000 		.4byte	.LVL239
 11041 409a D34C0000 		.4byte	0x4cd3
 11042 409e B8400000 		.4byte	0x40b8
 11043 40a2 26       		.uleb128 0x26
 11044 40a3 01       		.uleb128 0x1
 11045 40a4 52       		.byte	0x52
 11046 40a5 03       		.uleb128 0x3
 11047 40a6 0A       		.byte	0xa
 11048 40a7 2C01     		.2byte	0x12c
 11049 40a9 26       		.uleb128 0x26
 11050 40aa 01       		.uleb128 0x1
 11051 40ab 51       		.byte	0x51
 11052 40ac 01       		.uleb128 0x1
 11053 40ad 30       		.byte	0x30
 11054 40ae 26       		.uleb128 0x26
 11055 40af 01       		.uleb128 0x1
 11056 40b0 50       		.byte	0x50
 11057 40b1 05       		.uleb128 0x5
 11058 40b2 03       		.byte	0x3
 11059 40b3 00000000 		.4byte	field
 11060 40b7 00       		.byte	0
 11061 40b8 2E       		.uleb128 0x2e
 11062 40b9 F6010000 		.4byte	.LVL240
 11063 40bd E12B0000 		.4byte	0x2be1
 11064 40c1 D2400000 		.4byte	0x40d2
 11065 40c5 26       		.uleb128 0x26
 11066 40c6 01       		.uleb128 0x1
 11067 40c7 50       		.byte	0x50
 11068 40c8 01       		.uleb128 0x1
 11069 40c9 3C       		.byte	0x3c
 11070 40ca 3B       		.uleb128 0x3b
 11071 40cb CC2B0000 		.4byte	0x2bcc
 11072 40cf 01       		.uleb128 0x1
 11073 40d0 36       		.byte	0x36
 11074 40d1 00       		.byte	0
 11075 40d2 2E       		.uleb128 0x2e
 11076 40d3 0A020000 		.4byte	.LVL241
 11077 40d7 D34C0000 		.4byte	0x4cd3
 11078 40db F5400000 		.4byte	0x40f5
 11079 40df 26       		.uleb128 0x26
 11080 40e0 01       		.uleb128 0x1
ARM GAS  C:\Users\AHMED~1.ELE\AppData\Local\Temp\cc0wYKcg.s 			page 222


 11081 40e1 52       		.byte	0x52
 11082 40e2 03       		.uleb128 0x3
 11083 40e3 0A       		.byte	0xa
 11084 40e4 2C01     		.2byte	0x12c
 11085 40e6 26       		.uleb128 0x26
 11086 40e7 01       		.uleb128 0x1
 11087 40e8 51       		.byte	0x51
 11088 40e9 01       		.uleb128 0x1
 11089 40ea 30       		.byte	0x30
 11090 40eb 26       		.uleb128 0x26
 11091 40ec 01       		.uleb128 0x1
 11092 40ed 50       		.byte	0x50
 11093 40ee 05       		.uleb128 0x5
 11094 40ef 03       		.byte	0x3
 11095 40f0 00000000 		.4byte	field
 11096 40f4 00       		.byte	0
 11097 40f5 2E       		.uleb128 0x2e
 11098 40f6 10020000 		.4byte	.LVL242
 11099 40fa E12B0000 		.4byte	0x2be1
 11100 40fe 0F410000 		.4byte	0x410f
 11101 4102 26       		.uleb128 0x26
 11102 4103 01       		.uleb128 0x1
 11103 4104 50       		.byte	0x50
 11104 4105 01       		.uleb128 0x1
 11105 4106 3A       		.byte	0x3a
 11106 4107 3B       		.uleb128 0x3b
 11107 4108 CC2B0000 		.4byte	0x2bcc
 11108 410c 01       		.uleb128 0x1
 11109 410d 37       		.byte	0x37
 11110 410e 00       		.byte	0
 11111 410f 2E       		.uleb128 0x2e
 11112 4110 24020000 		.4byte	.LVL243
 11113 4114 D34C0000 		.4byte	0x4cd3
 11114 4118 32410000 		.4byte	0x4132
 11115 411c 26       		.uleb128 0x26
 11116 411d 01       		.uleb128 0x1
 11117 411e 52       		.byte	0x52
 11118 411f 03       		.uleb128 0x3
 11119 4120 0A       		.byte	0xa
 11120 4121 2C01     		.2byte	0x12c
 11121 4123 26       		.uleb128 0x26
 11122 4124 01       		.uleb128 0x1
 11123 4125 51       		.byte	0x51
 11124 4126 01       		.uleb128 0x1
 11125 4127 30       		.byte	0x30
 11126 4128 26       		.uleb128 0x26
 11127 4129 01       		.uleb128 0x1
 11128 412a 50       		.byte	0x50
 11129 412b 05       		.uleb128 0x5
 11130 412c 03       		.byte	0x3
 11131 412d 00000000 		.4byte	field
 11132 4131 00       		.byte	0
 11133 4132 2E       		.uleb128 0x2e
 11134 4133 2A020000 		.4byte	.LVL244
 11135 4137 E12B0000 		.4byte	0x2be1
 11136 413b 4C410000 		.4byte	0x414c
 11137 413f 26       		.uleb128 0x26
ARM GAS  C:\Users\AHMED~1.ELE\AppData\Local\Temp\cc0wYKcg.s 			page 223


 11138 4140 01       		.uleb128 0x1
 11139 4141 50       		.byte	0x50
 11140 4142 01       		.uleb128 0x1
 11141 4143 36       		.byte	0x36
 11142 4144 3B       		.uleb128 0x3b
 11143 4145 CC2B0000 		.4byte	0x2bcc
 11144 4149 01       		.uleb128 0x1
 11145 414a 3B       		.byte	0x3b
 11146 414b 00       		.byte	0
 11147 414c 2E       		.uleb128 0x2e
 11148 414d 44020000 		.4byte	.LVL246
 11149 4151 D34C0000 		.4byte	0x4cd3
 11150 4155 6F410000 		.4byte	0x416f
 11151 4159 26       		.uleb128 0x26
 11152 415a 01       		.uleb128 0x1
 11153 415b 52       		.byte	0x52
 11154 415c 03       		.uleb128 0x3
 11155 415d 0A       		.byte	0xa
 11156 415e 2C01     		.2byte	0x12c
 11157 4160 26       		.uleb128 0x26
 11158 4161 01       		.uleb128 0x1
 11159 4162 51       		.byte	0x51
 11160 4163 01       		.uleb128 0x1
 11161 4164 30       		.byte	0x30
 11162 4165 26       		.uleb128 0x26
 11163 4166 01       		.uleb128 0x1
 11164 4167 50       		.byte	0x50
 11165 4168 05       		.uleb128 0x5
 11166 4169 03       		.byte	0x3
 11167 416a 00000000 		.4byte	field
 11168 416e 00       		.byte	0
 11169 416f 2E       		.uleb128 0x2e
 11170 4170 4A020000 		.4byte	.LVL247
 11171 4174 E12B0000 		.4byte	0x2be1
 11172 4178 89410000 		.4byte	0x4189
 11173 417c 26       		.uleb128 0x26
 11174 417d 01       		.uleb128 0x1
 11175 417e 50       		.byte	0x50
 11176 417f 01       		.uleb128 0x1
 11177 4180 3C       		.byte	0x3c
 11178 4181 3B       		.uleb128 0x3b
 11179 4182 CC2B0000 		.4byte	0x2bcc
 11180 4186 01       		.uleb128 0x1
 11181 4187 3C       		.byte	0x3c
 11182 4188 00       		.byte	0
 11183 4189 2E       		.uleb128 0x2e
 11184 418a 54020000 		.4byte	.LVL248
 11185 418e BA4B0000 		.4byte	0x4bba
 11186 4192 A5410000 		.4byte	0x41a5
 11187 4196 26       		.uleb128 0x26
 11188 4197 01       		.uleb128 0x1
 11189 4198 52       		.byte	0x52
 11190 4199 01       		.uleb128 0x1
 11191 419a 3C       		.byte	0x3c
 11192 419b 26       		.uleb128 0x26
 11193 419c 01       		.uleb128 0x1
 11194 419d 51       		.byte	0x51
ARM GAS  C:\Users\AHMED~1.ELE\AppData\Local\Temp\cc0wYKcg.s 			page 224


 11195 419e 05       		.uleb128 0x5
 11196 419f 03       		.byte	0x3
 11197 41a0 00000000 		.4byte	field
 11198 41a4 00       		.byte	0
 11199 41a5 2E       		.uleb128 0x2e
 11200 41a6 6A020000 		.4byte	.LVL250
 11201 41aa D34C0000 		.4byte	0x4cd3
 11202 41ae C8410000 		.4byte	0x41c8
 11203 41b2 26       		.uleb128 0x26
 11204 41b3 01       		.uleb128 0x1
 11205 41b4 52       		.byte	0x52
 11206 41b5 03       		.uleb128 0x3
 11207 41b6 0A       		.byte	0xa
 11208 41b7 2C01     		.2byte	0x12c
 11209 41b9 26       		.uleb128 0x26
 11210 41ba 01       		.uleb128 0x1
 11211 41bb 51       		.byte	0x51
 11212 41bc 01       		.uleb128 0x1
 11213 41bd 30       		.byte	0x30
 11214 41be 26       		.uleb128 0x26
 11215 41bf 01       		.uleb128 0x1
 11216 41c0 50       		.byte	0x50
 11217 41c1 05       		.uleb128 0x5
 11218 41c2 03       		.byte	0x3
 11219 41c3 00000000 		.4byte	field
 11220 41c7 00       		.byte	0
 11221 41c8 2E       		.uleb128 0x2e
 11222 41c9 70020000 		.4byte	.LVL251
 11223 41cd E12B0000 		.4byte	0x2be1
 11224 41d1 DB410000 		.4byte	0x41db
 11225 41d5 26       		.uleb128 0x26
 11226 41d6 01       		.uleb128 0x1
 11227 41d7 50       		.byte	0x50
 11228 41d8 01       		.uleb128 0x1
 11229 41d9 32       		.byte	0x32
 11230 41da 00       		.byte	0
 11231 41db 2E       		.uleb128 0x2e
 11232 41dc 7E020000 		.4byte	.LVL253
 11233 41e0 BA4B0000 		.4byte	0x4bba
 11234 41e4 F7410000 		.4byte	0x41f7
 11235 41e8 26       		.uleb128 0x26
 11236 41e9 01       		.uleb128 0x1
 11237 41ea 52       		.byte	0x52
 11238 41eb 01       		.uleb128 0x1
 11239 41ec 32       		.byte	0x32
 11240 41ed 26       		.uleb128 0x26
 11241 41ee 01       		.uleb128 0x1
 11242 41ef 51       		.byte	0x51
 11243 41f0 05       		.uleb128 0x5
 11244 41f1 03       		.byte	0x3
 11245 41f2 00000000 		.4byte	field
 11246 41f6 00       		.byte	0
 11247 41f7 2E       		.uleb128 0x2e
 11248 41f8 92020000 		.4byte	.LVL254
 11249 41fc D34C0000 		.4byte	0x4cd3
 11250 4200 1A420000 		.4byte	0x421a
 11251 4204 26       		.uleb128 0x26
ARM GAS  C:\Users\AHMED~1.ELE\AppData\Local\Temp\cc0wYKcg.s 			page 225


 11252 4205 01       		.uleb128 0x1
 11253 4206 52       		.byte	0x52
 11254 4207 03       		.uleb128 0x3
 11255 4208 0A       		.byte	0xa
 11256 4209 2C01     		.2byte	0x12c
 11257 420b 26       		.uleb128 0x26
 11258 420c 01       		.uleb128 0x1
 11259 420d 51       		.byte	0x51
 11260 420e 01       		.uleb128 0x1
 11261 420f 30       		.byte	0x30
 11262 4210 26       		.uleb128 0x26
 11263 4211 01       		.uleb128 0x1
 11264 4212 50       		.byte	0x50
 11265 4213 05       		.uleb128 0x5
 11266 4214 03       		.byte	0x3
 11267 4215 00000000 		.4byte	field
 11268 4219 00       		.byte	0
 11269 421a 2E       		.uleb128 0x2e
 11270 421b 98020000 		.4byte	.LVL255
 11271 421f E12B0000 		.4byte	0x2be1
 11272 4223 34420000 		.4byte	0x4234
 11273 4227 26       		.uleb128 0x26
 11274 4228 01       		.uleb128 0x1
 11275 4229 50       		.byte	0x50
 11276 422a 01       		.uleb128 0x1
 11277 422b 34       		.byte	0x34
 11278 422c 3B       		.uleb128 0x3b
 11279 422d CC2B0000 		.4byte	0x2bcc
 11280 4231 01       		.uleb128 0x1
 11281 4232 3E       		.byte	0x3e
 11282 4233 00       		.byte	0
 11283 4234 2E       		.uleb128 0x2e
 11284 4235 A2020000 		.4byte	.LVL256
 11285 4239 9B4E0000 		.4byte	0x4e9b
 11286 423d 50420000 		.4byte	0x4250
 11287 4241 26       		.uleb128 0x26
 11288 4242 01       		.uleb128 0x1
 11289 4243 52       		.byte	0x52
 11290 4244 01       		.uleb128 0x1
 11291 4245 32       		.byte	0x32
 11292 4246 26       		.uleb128 0x26
 11293 4247 01       		.uleb128 0x1
 11294 4248 51       		.byte	0x51
 11295 4249 05       		.uleb128 0x5
 11296 424a 03       		.byte	0x3
 11297 424b 00000000 		.4byte	field
 11298 424f 00       		.byte	0
 11299 4250 2E       		.uleb128 0x2e
 11300 4251 B6020000 		.4byte	.LVL257
 11301 4255 D34C0000 		.4byte	0x4cd3
 11302 4259 73420000 		.4byte	0x4273
 11303 425d 26       		.uleb128 0x26
 11304 425e 01       		.uleb128 0x1
 11305 425f 52       		.byte	0x52
 11306 4260 03       		.uleb128 0x3
 11307 4261 0A       		.byte	0xa
 11308 4262 2C01     		.2byte	0x12c
ARM GAS  C:\Users\AHMED~1.ELE\AppData\Local\Temp\cc0wYKcg.s 			page 226


 11309 4264 26       		.uleb128 0x26
 11310 4265 01       		.uleb128 0x1
 11311 4266 51       		.byte	0x51
 11312 4267 01       		.uleb128 0x1
 11313 4268 30       		.byte	0x30
 11314 4269 26       		.uleb128 0x26
 11315 426a 01       		.uleb128 0x1
 11316 426b 50       		.byte	0x50
 11317 426c 05       		.uleb128 0x5
 11318 426d 03       		.byte	0x3
 11319 426e 00000000 		.4byte	field
 11320 4272 00       		.byte	0
 11321 4273 2E       		.uleb128 0x2e
 11322 4274 BC020000 		.4byte	.LVL258
 11323 4278 E12B0000 		.4byte	0x2be1
 11324 427c 8D420000 		.4byte	0x428d
 11325 4280 26       		.uleb128 0x26
 11326 4281 01       		.uleb128 0x1
 11327 4282 50       		.byte	0x50
 11328 4283 01       		.uleb128 0x1
 11329 4284 36       		.byte	0x36
 11330 4285 3B       		.uleb128 0x3b
 11331 4286 CC2B0000 		.4byte	0x2bcc
 11332 428a 01       		.uleb128 0x1
 11333 428b 3F       		.byte	0x3f
 11334 428c 00       		.byte	0
 11335 428d 2E       		.uleb128 0x2e
 11336 428e D0020000 		.4byte	.LVL259
 11337 4292 D34C0000 		.4byte	0x4cd3
 11338 4296 B0420000 		.4byte	0x42b0
 11339 429a 26       		.uleb128 0x26
 11340 429b 01       		.uleb128 0x1
 11341 429c 52       		.byte	0x52
 11342 429d 03       		.uleb128 0x3
 11343 429e 0A       		.byte	0xa
 11344 429f 2C01     		.2byte	0x12c
 11345 42a1 26       		.uleb128 0x26
 11346 42a2 01       		.uleb128 0x1
 11347 42a3 51       		.byte	0x51
 11348 42a4 01       		.uleb128 0x1
 11349 42a5 30       		.byte	0x30
 11350 42a6 26       		.uleb128 0x26
 11351 42a7 01       		.uleb128 0x1
 11352 42a8 50       		.byte	0x50
 11353 42a9 05       		.uleb128 0x5
 11354 42aa 03       		.byte	0x3
 11355 42ab 00000000 		.4byte	field
 11356 42af 00       		.byte	0
 11357 42b0 2E       		.uleb128 0x2e
 11358 42b1 D6020000 		.4byte	.LVL260
 11359 42b5 E12B0000 		.4byte	0x2be1
 11360 42b9 CA420000 		.4byte	0x42ca
 11361 42bd 26       		.uleb128 0x26
 11362 42be 01       		.uleb128 0x1
 11363 42bf 50       		.byte	0x50
 11364 42c0 01       		.uleb128 0x1
 11365 42c1 34       		.byte	0x34
ARM GAS  C:\Users\AHMED~1.ELE\AppData\Local\Temp\cc0wYKcg.s 			page 227


 11366 42c2 3B       		.uleb128 0x3b
 11367 42c3 CC2B0000 		.4byte	0x2bcc
 11368 42c7 01       		.uleb128 0x1
 11369 42c8 41       		.byte	0x41
 11370 42c9 00       		.byte	0
 11371 42ca 2E       		.uleb128 0x2e
 11372 42cb EA020000 		.4byte	.LVL261
 11373 42cf D34C0000 		.4byte	0x4cd3
 11374 42d3 ED420000 		.4byte	0x42ed
 11375 42d7 26       		.uleb128 0x26
 11376 42d8 01       		.uleb128 0x1
 11377 42d9 52       		.byte	0x52
 11378 42da 03       		.uleb128 0x3
 11379 42db 0A       		.byte	0xa
 11380 42dc 2C01     		.2byte	0x12c
 11381 42de 26       		.uleb128 0x26
 11382 42df 01       		.uleb128 0x1
 11383 42e0 51       		.byte	0x51
 11384 42e1 01       		.uleb128 0x1
 11385 42e2 30       		.byte	0x30
 11386 42e3 26       		.uleb128 0x26
 11387 42e4 01       		.uleb128 0x1
 11388 42e5 50       		.byte	0x50
 11389 42e6 05       		.uleb128 0x5
 11390 42e7 03       		.byte	0x3
 11391 42e8 00000000 		.4byte	field
 11392 42ec 00       		.byte	0
 11393 42ed 2E       		.uleb128 0x2e
 11394 42ee F0020000 		.4byte	.LVL262
 11395 42f2 E12B0000 		.4byte	0x2be1
 11396 42f6 07430000 		.4byte	0x4307
 11397 42fa 26       		.uleb128 0x26
 11398 42fb 01       		.uleb128 0x1
 11399 42fc 50       		.byte	0x50
 11400 42fd 01       		.uleb128 0x1
 11401 42fe 3C       		.byte	0x3c
 11402 42ff 3B       		.uleb128 0x3b
 11403 4300 CC2B0000 		.4byte	0x2bcc
 11404 4304 01       		.uleb128 0x1
 11405 4305 46       		.byte	0x46
 11406 4306 00       		.byte	0
 11407 4307 2E       		.uleb128 0x2e
 11408 4308 04030000 		.4byte	.LVL263
 11409 430c D34C0000 		.4byte	0x4cd3
 11410 4310 2A430000 		.4byte	0x432a
 11411 4314 26       		.uleb128 0x26
 11412 4315 01       		.uleb128 0x1
 11413 4316 52       		.byte	0x52
 11414 4317 03       		.uleb128 0x3
 11415 4318 0A       		.byte	0xa
 11416 4319 2C01     		.2byte	0x12c
 11417 431b 26       		.uleb128 0x26
 11418 431c 01       		.uleb128 0x1
 11419 431d 51       		.byte	0x51
 11420 431e 01       		.uleb128 0x1
 11421 431f 30       		.byte	0x30
 11422 4320 26       		.uleb128 0x26
ARM GAS  C:\Users\AHMED~1.ELE\AppData\Local\Temp\cc0wYKcg.s 			page 228


 11423 4321 01       		.uleb128 0x1
 11424 4322 50       		.byte	0x50
 11425 4323 05       		.uleb128 0x5
 11426 4324 03       		.byte	0x3
 11427 4325 00000000 		.4byte	field
 11428 4329 00       		.byte	0
 11429 432a 2E       		.uleb128 0x2e
 11430 432b 0A030000 		.4byte	.LVL264
 11431 432f E12B0000 		.4byte	0x2be1
 11432 4333 44430000 		.4byte	0x4344
 11433 4337 26       		.uleb128 0x26
 11434 4338 01       		.uleb128 0x1
 11435 4339 50       		.byte	0x50
 11436 433a 01       		.uleb128 0x1
 11437 433b 33       		.byte	0x33
 11438 433c 3B       		.uleb128 0x3b
 11439 433d CC2B0000 		.4byte	0x2bcc
 11440 4341 01       		.uleb128 0x1
 11441 4342 47       		.byte	0x47
 11442 4343 00       		.byte	0
 11443 4344 2E       		.uleb128 0x2e
 11444 4345 1E030000 		.4byte	.LVL265
 11445 4349 D34C0000 		.4byte	0x4cd3
 11446 434d 67430000 		.4byte	0x4367
 11447 4351 26       		.uleb128 0x26
 11448 4352 01       		.uleb128 0x1
 11449 4353 52       		.byte	0x52
 11450 4354 03       		.uleb128 0x3
 11451 4355 0A       		.byte	0xa
 11452 4356 2C01     		.2byte	0x12c
 11453 4358 26       		.uleb128 0x26
 11454 4359 01       		.uleb128 0x1
 11455 435a 51       		.byte	0x51
 11456 435b 01       		.uleb128 0x1
 11457 435c 30       		.byte	0x30
 11458 435d 26       		.uleb128 0x26
 11459 435e 01       		.uleb128 0x1
 11460 435f 50       		.byte	0x50
 11461 4360 05       		.uleb128 0x5
 11462 4361 03       		.byte	0x3
 11463 4362 00000000 		.4byte	field
 11464 4366 00       		.byte	0
 11465 4367 2E       		.uleb128 0x2e
 11466 4368 24030000 		.4byte	.LVL266
 11467 436c E12B0000 		.4byte	0x2be1
 11468 4370 81430000 		.4byte	0x4381
 11469 4374 26       		.uleb128 0x26
 11470 4375 01       		.uleb128 0x1
 11471 4376 50       		.byte	0x50
 11472 4377 01       		.uleb128 0x1
 11473 4378 33       		.byte	0x33
 11474 4379 3B       		.uleb128 0x3b
 11475 437a CC2B0000 		.4byte	0x2bcc
 11476 437e 01       		.uleb128 0x1
 11477 437f 48       		.byte	0x48
 11478 4380 00       		.byte	0
 11479 4381 2E       		.uleb128 0x2e
ARM GAS  C:\Users\AHMED~1.ELE\AppData\Local\Temp\cc0wYKcg.s 			page 229


 11480 4382 38030000 		.4byte	.LVL267
 11481 4386 D34C0000 		.4byte	0x4cd3
 11482 438a A4430000 		.4byte	0x43a4
 11483 438e 26       		.uleb128 0x26
 11484 438f 01       		.uleb128 0x1
 11485 4390 52       		.byte	0x52
 11486 4391 03       		.uleb128 0x3
 11487 4392 0A       		.byte	0xa
 11488 4393 2C01     		.2byte	0x12c
 11489 4395 26       		.uleb128 0x26
 11490 4396 01       		.uleb128 0x1
 11491 4397 51       		.byte	0x51
 11492 4398 01       		.uleb128 0x1
 11493 4399 30       		.byte	0x30
 11494 439a 26       		.uleb128 0x26
 11495 439b 01       		.uleb128 0x1
 11496 439c 50       		.byte	0x50
 11497 439d 05       		.uleb128 0x5
 11498 439e 03       		.byte	0x3
 11499 439f 00000000 		.4byte	field
 11500 43a3 00       		.byte	0
 11501 43a4 2E       		.uleb128 0x2e
 11502 43a5 3E030000 		.4byte	.LVL268
 11503 43a9 E12B0000 		.4byte	0x2be1
 11504 43ad BE430000 		.4byte	0x43be
 11505 43b1 26       		.uleb128 0x26
 11506 43b2 01       		.uleb128 0x1
 11507 43b3 50       		.byte	0x50
 11508 43b4 01       		.uleb128 0x1
 11509 43b5 34       		.byte	0x34
 11510 43b6 3B       		.uleb128 0x3b
 11511 43b7 CC2B0000 		.4byte	0x2bcc
 11512 43bb 01       		.uleb128 0x1
 11513 43bc 49       		.byte	0x49
 11514 43bd 00       		.byte	0
 11515 43be 2E       		.uleb128 0x2e
 11516 43bf 52030000 		.4byte	.LVL269
 11517 43c3 D34C0000 		.4byte	0x4cd3
 11518 43c7 E1430000 		.4byte	0x43e1
 11519 43cb 26       		.uleb128 0x26
 11520 43cc 01       		.uleb128 0x1
 11521 43cd 52       		.byte	0x52
 11522 43ce 03       		.uleb128 0x3
 11523 43cf 0A       		.byte	0xa
 11524 43d0 2C01     		.2byte	0x12c
 11525 43d2 26       		.uleb128 0x26
 11526 43d3 01       		.uleb128 0x1
 11527 43d4 51       		.byte	0x51
 11528 43d5 01       		.uleb128 0x1
 11529 43d6 30       		.byte	0x30
 11530 43d7 26       		.uleb128 0x26
 11531 43d8 01       		.uleb128 0x1
 11532 43d9 50       		.byte	0x50
 11533 43da 05       		.uleb128 0x5
 11534 43db 03       		.byte	0x3
 11535 43dc 00000000 		.4byte	field
 11536 43e0 00       		.byte	0
ARM GAS  C:\Users\AHMED~1.ELE\AppData\Local\Temp\cc0wYKcg.s 			page 230


 11537 43e1 2E       		.uleb128 0x2e
 11538 43e2 58030000 		.4byte	.LVL270
 11539 43e6 E12B0000 		.4byte	0x2be1
 11540 43ea FB430000 		.4byte	0x43fb
 11541 43ee 26       		.uleb128 0x26
 11542 43ef 01       		.uleb128 0x1
 11543 43f0 50       		.byte	0x50
 11544 43f1 01       		.uleb128 0x1
 11545 43f2 34       		.byte	0x34
 11546 43f3 3B       		.uleb128 0x3b
 11547 43f4 CC2B0000 		.4byte	0x2bcc
 11548 43f8 01       		.uleb128 0x1
 11549 43f9 4A       		.byte	0x4a
 11550 43fa 00       		.byte	0
 11551 43fb 2E       		.uleb128 0x2e
 11552 43fc 6C030000 		.4byte	.LVL271
 11553 4400 D34C0000 		.4byte	0x4cd3
 11554 4404 1E440000 		.4byte	0x441e
 11555 4408 26       		.uleb128 0x26
 11556 4409 01       		.uleb128 0x1
 11557 440a 52       		.byte	0x52
 11558 440b 03       		.uleb128 0x3
 11559 440c 0A       		.byte	0xa
 11560 440d 2C01     		.2byte	0x12c
 11561 440f 26       		.uleb128 0x26
 11562 4410 01       		.uleb128 0x1
 11563 4411 51       		.byte	0x51
 11564 4412 01       		.uleb128 0x1
 11565 4413 30       		.byte	0x30
 11566 4414 26       		.uleb128 0x26
 11567 4415 01       		.uleb128 0x1
 11568 4416 50       		.byte	0x50
 11569 4417 05       		.uleb128 0x5
 11570 4418 03       		.byte	0x3
 11571 4419 00000000 		.4byte	field
 11572 441d 00       		.byte	0
 11573 441e 2D       		.uleb128 0x2d
 11574 441f 70030000 		.4byte	.LVL272
 11575 4423 4C4E0000 		.4byte	0x4e4c
 11576 4427 2D       		.uleb128 0x2d
 11577 4428 74030000 		.4byte	.LVL273
 11578 442c 864E0000 		.4byte	0x4e86
 11579 4430 2E       		.uleb128 0x2e
 11580 4431 78030000 		.4byte	.LVL274
 11581 4435 E12B0000 		.4byte	0x2be1
 11582 4439 46440000 		.4byte	0x4446
 11583 443d 3B       		.uleb128 0x3b
 11584 443e CC2B0000 		.4byte	0x2bcc
 11585 4442 02       		.uleb128 0x2
 11586 4443 08       		.byte	0x8
 11587 4444 20       		.byte	0x20
 11588 4445 00       		.byte	0
 11589 4446 2E       		.uleb128 0x2e
 11590 4447 8C030000 		.4byte	.LVL275
 11591 444b D34C0000 		.4byte	0x4cd3
 11592 444f 69440000 		.4byte	0x4469
 11593 4453 26       		.uleb128 0x26
ARM GAS  C:\Users\AHMED~1.ELE\AppData\Local\Temp\cc0wYKcg.s 			page 231


 11594 4454 01       		.uleb128 0x1
 11595 4455 52       		.byte	0x52
 11596 4456 03       		.uleb128 0x3
 11597 4457 0A       		.byte	0xa
 11598 4458 2C01     		.2byte	0x12c
 11599 445a 26       		.uleb128 0x26
 11600 445b 01       		.uleb128 0x1
 11601 445c 51       		.byte	0x51
 11602 445d 01       		.uleb128 0x1
 11603 445e 30       		.byte	0x30
 11604 445f 26       		.uleb128 0x26
 11605 4460 01       		.uleb128 0x1
 11606 4461 50       		.byte	0x50
 11607 4462 05       		.uleb128 0x5
 11608 4463 03       		.byte	0x3
 11609 4464 00000000 		.4byte	field
 11610 4468 00       		.byte	0
 11611 4469 2D       		.uleb128 0x2d
 11612 446a 90030000 		.4byte	.LVL276
 11613 446e 4C4E0000 		.4byte	0x4e4c
 11614 4472 2D       		.uleb128 0x2d
 11615 4473 94030000 		.4byte	.LVL277
 11616 4477 864E0000 		.4byte	0x4e86
 11617 447b 2E       		.uleb128 0x2e
 11618 447c 98030000 		.4byte	.LVL278
 11619 4480 E12B0000 		.4byte	0x2be1
 11620 4484 91440000 		.4byte	0x4491
 11621 4488 3B       		.uleb128 0x3b
 11622 4489 CC2B0000 		.4byte	0x2bcc
 11623 448d 02       		.uleb128 0x2
 11624 448e 08       		.byte	0x8
 11625 448f 22       		.byte	0x22
 11626 4490 00       		.byte	0
 11627 4491 2E       		.uleb128 0x2e
 11628 4492 AC030000 		.4byte	.LVL279
 11629 4496 D34C0000 		.4byte	0x4cd3
 11630 449a B4440000 		.4byte	0x44b4
 11631 449e 26       		.uleb128 0x26
 11632 449f 01       		.uleb128 0x1
 11633 44a0 52       		.byte	0x52
 11634 44a1 03       		.uleb128 0x3
 11635 44a2 0A       		.byte	0xa
 11636 44a3 2C01     		.2byte	0x12c
 11637 44a5 26       		.uleb128 0x26
 11638 44a6 01       		.uleb128 0x1
 11639 44a7 51       		.byte	0x51
 11640 44a8 01       		.uleb128 0x1
 11641 44a9 30       		.byte	0x30
 11642 44aa 26       		.uleb128 0x26
 11643 44ab 01       		.uleb128 0x1
 11644 44ac 50       		.byte	0x50
 11645 44ad 05       		.uleb128 0x5
 11646 44ae 03       		.byte	0x3
 11647 44af 00000000 		.4byte	field
 11648 44b3 00       		.byte	0
 11649 44b4 2D       		.uleb128 0x2d
 11650 44b5 B0030000 		.4byte	.LVL280
ARM GAS  C:\Users\AHMED~1.ELE\AppData\Local\Temp\cc0wYKcg.s 			page 232


 11651 44b9 4C4E0000 		.4byte	0x4e4c
 11652 44bd 2D       		.uleb128 0x2d
 11653 44be B4030000 		.4byte	.LVL281
 11654 44c2 864E0000 		.4byte	0x4e86
 11655 44c6 2E       		.uleb128 0x2e
 11656 44c7 B8030000 		.4byte	.LVL282
 11657 44cb E12B0000 		.4byte	0x2be1
 11658 44cf DC440000 		.4byte	0x44dc
 11659 44d3 3B       		.uleb128 0x3b
 11660 44d4 CC2B0000 		.4byte	0x2bcc
 11661 44d8 02       		.uleb128 0x2
 11662 44d9 08       		.byte	0x8
 11663 44da 23       		.byte	0x23
 11664 44db 00       		.byte	0
 11665 44dc 2E       		.uleb128 0x2e
 11666 44dd CC030000 		.4byte	.LVL283
 11667 44e1 D34C0000 		.4byte	0x4cd3
 11668 44e5 FF440000 		.4byte	0x44ff
 11669 44e9 26       		.uleb128 0x26
 11670 44ea 01       		.uleb128 0x1
 11671 44eb 52       		.byte	0x52
 11672 44ec 03       		.uleb128 0x3
 11673 44ed 0A       		.byte	0xa
 11674 44ee 2C01     		.2byte	0x12c
 11675 44f0 26       		.uleb128 0x26
 11676 44f1 01       		.uleb128 0x1
 11677 44f2 51       		.byte	0x51
 11678 44f3 01       		.uleb128 0x1
 11679 44f4 30       		.byte	0x30
 11680 44f5 26       		.uleb128 0x26
 11681 44f6 01       		.uleb128 0x1
 11682 44f7 50       		.byte	0x50
 11683 44f8 05       		.uleb128 0x5
 11684 44f9 03       		.byte	0x3
 11685 44fa 00000000 		.4byte	field
 11686 44fe 00       		.byte	0
 11687 44ff 2E       		.uleb128 0x2e
 11688 4500 D2030000 		.4byte	.LVL284
 11689 4504 E12B0000 		.4byte	0x2be1
 11690 4508 1A450000 		.4byte	0x451a
 11691 450c 26       		.uleb128 0x26
 11692 450d 01       		.uleb128 0x1
 11693 450e 50       		.byte	0x50
 11694 450f 01       		.uleb128 0x1
 11695 4510 3C       		.byte	0x3c
 11696 4511 3B       		.uleb128 0x3b
 11697 4512 CC2B0000 		.4byte	0x2bcc
 11698 4516 02       		.uleb128 0x2
 11699 4517 08       		.byte	0x8
 11700 4518 25       		.byte	0x25
 11701 4519 00       		.byte	0
 11702 451a 2E       		.uleb128 0x2e
 11703 451b DC030000 		.4byte	.LVL285
 11704 451f BA4B0000 		.4byte	0x4bba
 11705 4523 36450000 		.4byte	0x4536
 11706 4527 26       		.uleb128 0x26
 11707 4528 01       		.uleb128 0x1
ARM GAS  C:\Users\AHMED~1.ELE\AppData\Local\Temp\cc0wYKcg.s 			page 233


 11708 4529 52       		.byte	0x52
 11709 452a 01       		.uleb128 0x1
 11710 452b 3C       		.byte	0x3c
 11711 452c 26       		.uleb128 0x26
 11712 452d 01       		.uleb128 0x1
 11713 452e 51       		.byte	0x51
 11714 452f 05       		.uleb128 0x5
 11715 4530 03       		.byte	0x3
 11716 4531 00000000 		.4byte	field
 11717 4535 00       		.byte	0
 11718 4536 2E       		.uleb128 0x2e
 11719 4537 E6030000 		.4byte	.LVL286
 11720 453b 774D0000 		.4byte	0x4d77
 11721 453f 4F450000 		.4byte	0x454f
 11722 4543 26       		.uleb128 0x26
 11723 4544 01       		.uleb128 0x1
 11724 4545 52       		.byte	0x52
 11725 4546 01       		.uleb128 0x1
 11726 4547 36       		.byte	0x36
 11727 4548 26       		.uleb128 0x26
 11728 4549 01       		.uleb128 0x1
 11729 454a 51       		.byte	0x51
 11730 454b 02       		.uleb128 0x2
 11731 454c 08       		.byte	0x8
 11732 454d 20       		.byte	0x20
 11733 454e 00       		.byte	0
 11734 454f 2E       		.uleb128 0x2e
 11735 4550 FA030000 		.4byte	.LVL287
 11736 4554 D34C0000 		.4byte	0x4cd3
 11737 4558 72450000 		.4byte	0x4572
 11738 455c 26       		.uleb128 0x26
 11739 455d 01       		.uleb128 0x1
 11740 455e 52       		.byte	0x52
 11741 455f 03       		.uleb128 0x3
 11742 4560 0A       		.byte	0xa
 11743 4561 2C01     		.2byte	0x12c
 11744 4563 26       		.uleb128 0x26
 11745 4564 01       		.uleb128 0x1
 11746 4565 51       		.byte	0x51
 11747 4566 01       		.uleb128 0x1
 11748 4567 30       		.byte	0x30
 11749 4568 26       		.uleb128 0x26
 11750 4569 01       		.uleb128 0x1
 11751 456a 50       		.byte	0x50
 11752 456b 05       		.uleb128 0x5
 11753 456c 03       		.byte	0x3
 11754 456d 00000000 		.4byte	field
 11755 4571 00       		.byte	0
 11756 4572 2E       		.uleb128 0x2e
 11757 4573 00040000 		.4byte	.LVL288
 11758 4577 E12B0000 		.4byte	0x2be1
 11759 457b 8D450000 		.4byte	0x458d
 11760 457f 26       		.uleb128 0x26
 11761 4580 01       		.uleb128 0x1
 11762 4581 50       		.byte	0x50
 11763 4582 01       		.uleb128 0x1
 11764 4583 36       		.byte	0x36
ARM GAS  C:\Users\AHMED~1.ELE\AppData\Local\Temp\cc0wYKcg.s 			page 234


 11765 4584 3B       		.uleb128 0x3b
 11766 4585 CC2B0000 		.4byte	0x2bcc
 11767 4589 02       		.uleb128 0x2
 11768 458a 08       		.byte	0x8
 11769 458b 26       		.byte	0x26
 11770 458c 00       		.byte	0
 11771 458d 2E       		.uleb128 0x2e
 11772 458e 0A040000 		.4byte	.LVL289
 11773 4592 BA4B0000 		.4byte	0x4bba
 11774 4596 A9450000 		.4byte	0x45a9
 11775 459a 26       		.uleb128 0x26
 11776 459b 01       		.uleb128 0x1
 11777 459c 52       		.byte	0x52
 11778 459d 01       		.uleb128 0x1
 11779 459e 36       		.byte	0x36
 11780 459f 26       		.uleb128 0x26
 11781 45a0 01       		.uleb128 0x1
 11782 45a1 51       		.byte	0x51
 11783 45a2 05       		.uleb128 0x5
 11784 45a3 03       		.byte	0x3
 11785 45a4 00000000 		.4byte	field
 11786 45a8 00       		.byte	0
 11787 45a9 2E       		.uleb128 0x2e
 11788 45aa 26040000 		.4byte	.LVL290
 11789 45ae D34C0000 		.4byte	0x4cd3
 11790 45b2 CC450000 		.4byte	0x45cc
 11791 45b6 26       		.uleb128 0x26
 11792 45b7 01       		.uleb128 0x1
 11793 45b8 52       		.byte	0x52
 11794 45b9 03       		.uleb128 0x3
 11795 45ba 0A       		.byte	0xa
 11796 45bb 2C01     		.2byte	0x12c
 11797 45bd 26       		.uleb128 0x26
 11798 45be 01       		.uleb128 0x1
 11799 45bf 51       		.byte	0x51
 11800 45c0 01       		.uleb128 0x1
 11801 45c1 30       		.byte	0x30
 11802 45c2 26       		.uleb128 0x26
 11803 45c3 01       		.uleb128 0x1
 11804 45c4 50       		.byte	0x50
 11805 45c5 05       		.uleb128 0x5
 11806 45c6 03       		.byte	0x3
 11807 45c7 00000000 		.4byte	field
 11808 45cb 00       		.byte	0
 11809 45cc 2E       		.uleb128 0x2e
 11810 45cd 2C040000 		.4byte	.LVL291
 11811 45d1 E12B0000 		.4byte	0x2be1
 11812 45d5 E7450000 		.4byte	0x45e7
 11813 45d9 26       		.uleb128 0x26
 11814 45da 01       		.uleb128 0x1
 11815 45db 50       		.byte	0x50
 11816 45dc 01       		.uleb128 0x1
 11817 45dd 33       		.byte	0x33
 11818 45de 3B       		.uleb128 0x3b
 11819 45df CC2B0000 		.4byte	0x2bcc
 11820 45e3 02       		.uleb128 0x2
 11821 45e4 08       		.byte	0x8
ARM GAS  C:\Users\AHMED~1.ELE\AppData\Local\Temp\cc0wYKcg.s 			page 235


 11822 45e5 27       		.byte	0x27
 11823 45e6 00       		.byte	0
 11824 45e7 2E       		.uleb128 0x2e
 11825 45e8 36040000 		.4byte	.LVL292
 11826 45ec BA4B0000 		.4byte	0x4bba
 11827 45f0 03460000 		.4byte	0x4603
 11828 45f4 26       		.uleb128 0x26
 11829 45f5 01       		.uleb128 0x1
 11830 45f6 52       		.byte	0x52
 11831 45f7 01       		.uleb128 0x1
 11832 45f8 33       		.byte	0x33
 11833 45f9 26       		.uleb128 0x26
 11834 45fa 01       		.uleb128 0x1
 11835 45fb 51       		.byte	0x51
 11836 45fc 05       		.uleb128 0x5
 11837 45fd 03       		.byte	0x3
 11838 45fe 00000000 		.4byte	field
 11839 4602 00       		.byte	0
 11840 4603 2E       		.uleb128 0x2e
 11841 4604 4A040000 		.4byte	.LVL293
 11842 4608 D34C0000 		.4byte	0x4cd3
 11843 460c 26460000 		.4byte	0x4626
 11844 4610 26       		.uleb128 0x26
 11845 4611 01       		.uleb128 0x1
 11846 4612 52       		.byte	0x52
 11847 4613 03       		.uleb128 0x3
 11848 4614 0A       		.byte	0xa
 11849 4615 2C01     		.2byte	0x12c
 11850 4617 26       		.uleb128 0x26
 11851 4618 01       		.uleb128 0x1
 11852 4619 51       		.byte	0x51
 11853 461a 01       		.uleb128 0x1
 11854 461b 30       		.byte	0x30
 11855 461c 26       		.uleb128 0x26
 11856 461d 01       		.uleb128 0x1
 11857 461e 50       		.byte	0x50
 11858 461f 05       		.uleb128 0x5
 11859 4620 03       		.byte	0x3
 11860 4621 00000000 		.4byte	field
 11861 4625 00       		.byte	0
 11862 4626 2E       		.uleb128 0x2e
 11863 4627 50040000 		.4byte	.LVL294
 11864 462b E12B0000 		.4byte	0x2be1
 11865 462f 41460000 		.4byte	0x4641
 11866 4633 26       		.uleb128 0x26
 11867 4634 01       		.uleb128 0x1
 11868 4635 50       		.byte	0x50
 11869 4636 01       		.uleb128 0x1
 11870 4637 38       		.byte	0x38
 11871 4638 3B       		.uleb128 0x3b
 11872 4639 CC2B0000 		.4byte	0x2bcc
 11873 463d 02       		.uleb128 0x2
 11874 463e 08       		.byte	0x8
 11875 463f 29       		.byte	0x29
 11876 4640 00       		.byte	0
 11877 4641 2E       		.uleb128 0x2e
 11878 4642 64040000 		.4byte	.LVL295
ARM GAS  C:\Users\AHMED~1.ELE\AppData\Local\Temp\cc0wYKcg.s 			page 236


 11879 4646 D34C0000 		.4byte	0x4cd3
 11880 464a 64460000 		.4byte	0x4664
 11881 464e 26       		.uleb128 0x26
 11882 464f 01       		.uleb128 0x1
 11883 4650 52       		.byte	0x52
 11884 4651 03       		.uleb128 0x3
 11885 4652 0A       		.byte	0xa
 11886 4653 2C01     		.2byte	0x12c
 11887 4655 26       		.uleb128 0x26
 11888 4656 01       		.uleb128 0x1
 11889 4657 51       		.byte	0x51
 11890 4658 01       		.uleb128 0x1
 11891 4659 30       		.byte	0x30
 11892 465a 26       		.uleb128 0x26
 11893 465b 01       		.uleb128 0x1
 11894 465c 50       		.byte	0x50
 11895 465d 05       		.uleb128 0x5
 11896 465e 03       		.byte	0x3
 11897 465f 00000000 		.4byte	field
 11898 4663 00       		.byte	0
 11899 4664 2E       		.uleb128 0x2e
 11900 4665 6A040000 		.4byte	.LVL296
 11901 4669 E12B0000 		.4byte	0x2be1
 11902 466d 7F460000 		.4byte	0x467f
 11903 4671 26       		.uleb128 0x26
 11904 4672 01       		.uleb128 0x1
 11905 4673 50       		.byte	0x50
 11906 4674 01       		.uleb128 0x1
 11907 4675 3F       		.byte	0x3f
 11908 4676 3B       		.uleb128 0x3b
 11909 4677 CC2B0000 		.4byte	0x2bcc
 11910 467b 02       		.uleb128 0x2
 11911 467c 08       		.byte	0x8
 11912 467d 2A       		.byte	0x2a
 11913 467e 00       		.byte	0
 11914 467f 2E       		.uleb128 0x2e
 11915 4680 7E040000 		.4byte	.LVL297
 11916 4684 D34C0000 		.4byte	0x4cd3
 11917 4688 A2460000 		.4byte	0x46a2
 11918 468c 26       		.uleb128 0x26
 11919 468d 01       		.uleb128 0x1
 11920 468e 52       		.byte	0x52
 11921 468f 03       		.uleb128 0x3
 11922 4690 0A       		.byte	0xa
 11923 4691 2C01     		.2byte	0x12c
 11924 4693 26       		.uleb128 0x26
 11925 4694 01       		.uleb128 0x1
 11926 4695 51       		.byte	0x51
 11927 4696 01       		.uleb128 0x1
 11928 4697 30       		.byte	0x30
 11929 4698 26       		.uleb128 0x26
 11930 4699 01       		.uleb128 0x1
 11931 469a 50       		.byte	0x50
 11932 469b 05       		.uleb128 0x5
 11933 469c 03       		.byte	0x3
 11934 469d 00000000 		.4byte	field
 11935 46a1 00       		.byte	0
ARM GAS  C:\Users\AHMED~1.ELE\AppData\Local\Temp\cc0wYKcg.s 			page 237


 11936 46a2 2D       		.uleb128 0x2d
 11937 46a3 82040000 		.4byte	.LVL298
 11938 46a7 4C4E0000 		.4byte	0x4e4c
 11939 46ab 2D       		.uleb128 0x2d
 11940 46ac 86040000 		.4byte	.LVL299
 11941 46b0 864E0000 		.4byte	0x4e86
 11942 46b4 2E       		.uleb128 0x2e
 11943 46b5 8A040000 		.4byte	.LVL300
 11944 46b9 E12B0000 		.4byte	0x2be1
 11945 46bd CA460000 		.4byte	0x46ca
 11946 46c1 3B       		.uleb128 0x3b
 11947 46c2 CC2B0000 		.4byte	0x2bcc
 11948 46c6 02       		.uleb128 0x2
 11949 46c7 08       		.byte	0x8
 11950 46c8 2B       		.byte	0x2b
 11951 46c9 00       		.byte	0
 11952 46ca 2E       		.uleb128 0x2e
 11953 46cb 9E040000 		.4byte	.LVL301
 11954 46cf D34C0000 		.4byte	0x4cd3
 11955 46d3 ED460000 		.4byte	0x46ed
 11956 46d7 26       		.uleb128 0x26
 11957 46d8 01       		.uleb128 0x1
 11958 46d9 52       		.byte	0x52
 11959 46da 03       		.uleb128 0x3
 11960 46db 0A       		.byte	0xa
 11961 46dc 2C01     		.2byte	0x12c
 11962 46de 26       		.uleb128 0x26
 11963 46df 01       		.uleb128 0x1
 11964 46e0 51       		.byte	0x51
 11965 46e1 01       		.uleb128 0x1
 11966 46e2 30       		.byte	0x30
 11967 46e3 26       		.uleb128 0x26
 11968 46e4 01       		.uleb128 0x1
 11969 46e5 50       		.byte	0x50
 11970 46e6 05       		.uleb128 0x5
 11971 46e7 03       		.byte	0x3
 11972 46e8 00000000 		.4byte	field
 11973 46ec 00       		.byte	0
 11974 46ed 2D       		.uleb128 0x2d
 11975 46ee A2040000 		.4byte	.LVL302
 11976 46f2 B64E0000 		.4byte	0x4eb6
 11977 46f6 2D       		.uleb128 0x2d
 11978 46f7 A6040000 		.4byte	.LVL303
 11979 46fb 864E0000 		.4byte	0x4e86
 11980 46ff 2E       		.uleb128 0x2e
 11981 4700 AA040000 		.4byte	.LVL304
 11982 4704 E12B0000 		.4byte	0x2be1
 11983 4708 15470000 		.4byte	0x4715
 11984 470c 3B       		.uleb128 0x3b
 11985 470d CC2B0000 		.4byte	0x2bcc
 11986 4711 02       		.uleb128 0x2
 11987 4712 08       		.byte	0x8
 11988 4713 2C       		.byte	0x2c
 11989 4714 00       		.byte	0
 11990 4715 2E       		.uleb128 0x2e
 11991 4716 E4040000 		.4byte	.LVL306
 11992 471a D34C0000 		.4byte	0x4cd3
ARM GAS  C:\Users\AHMED~1.ELE\AppData\Local\Temp\cc0wYKcg.s 			page 238


 11993 471e 38470000 		.4byte	0x4738
 11994 4722 26       		.uleb128 0x26
 11995 4723 01       		.uleb128 0x1
 11996 4724 52       		.byte	0x52
 11997 4725 03       		.uleb128 0x3
 11998 4726 0A       		.byte	0xa
 11999 4727 2C01     		.2byte	0x12c
 12000 4729 26       		.uleb128 0x26
 12001 472a 01       		.uleb128 0x1
 12002 472b 51       		.byte	0x51
 12003 472c 01       		.uleb128 0x1
 12004 472d 30       		.byte	0x30
 12005 472e 26       		.uleb128 0x26
 12006 472f 01       		.uleb128 0x1
 12007 4730 50       		.byte	0x50
 12008 4731 05       		.uleb128 0x5
 12009 4732 03       		.byte	0x3
 12010 4733 00000000 		.4byte	field
 12011 4737 00       		.byte	0
 12012 4738 2D       		.uleb128 0x2d
 12013 4739 E8040000 		.4byte	.LVL307
 12014 473d B64E0000 		.4byte	0x4eb6
 12015 4741 2D       		.uleb128 0x2d
 12016 4742 EC040000 		.4byte	.LVL308
 12017 4746 864E0000 		.4byte	0x4e86
 12018 474a 2E       		.uleb128 0x2e
 12019 474b F8040000 		.4byte	.LVL311
 12020 474f 774D0000 		.4byte	0x4d77
 12021 4753 63470000 		.4byte	0x4763
 12022 4757 26       		.uleb128 0x26
 12023 4758 01       		.uleb128 0x1
 12024 4759 52       		.byte	0x52
 12025 475a 01       		.uleb128 0x1
 12026 475b 3A       		.byte	0x3a
 12027 475c 26       		.uleb128 0x26
 12028 475d 01       		.uleb128 0x1
 12029 475e 51       		.byte	0x51
 12030 475f 02       		.uleb128 0x2
 12031 4760 08       		.byte	0x8
 12032 4761 FF       		.byte	0xff
 12033 4762 00       		.byte	0
 12034 4763 2E       		.uleb128 0x2e
 12035 4764 FE040000 		.4byte	.LVL312
 12036 4768 E12B0000 		.4byte	0x2be1
 12037 476c 7F470000 		.4byte	0x477f
 12038 4770 26       		.uleb128 0x26
 12039 4771 01       		.uleb128 0x1
 12040 4772 50       		.byte	0x50
 12041 4773 02       		.uleb128 0x2
 12042 4774 75       		.byte	0x75
 12043 4775 00       		.sleb128 0
 12044 4776 3B       		.uleb128 0x3b
 12045 4777 CC2B0000 		.4byte	0x2bcc
 12046 477b 02       		.uleb128 0x2
 12047 477c 08       		.byte	0x8
 12048 477d 30       		.byte	0x30
 12049 477e 00       		.byte	0
ARM GAS  C:\Users\AHMED~1.ELE\AppData\Local\Temp\cc0wYKcg.s 			page 239


 12050 477f 2E       		.uleb128 0x2e
 12051 4780 12050000 		.4byte	.LVL313
 12052 4784 D34C0000 		.4byte	0x4cd3
 12053 4788 A2470000 		.4byte	0x47a2
 12054 478c 26       		.uleb128 0x26
 12055 478d 01       		.uleb128 0x1
 12056 478e 52       		.byte	0x52
 12057 478f 03       		.uleb128 0x3
 12058 4790 0A       		.byte	0xa
 12059 4791 2C01     		.2byte	0x12c
 12060 4793 26       		.uleb128 0x26
 12061 4794 01       		.uleb128 0x1
 12062 4795 51       		.byte	0x51
 12063 4796 01       		.uleb128 0x1
 12064 4797 30       		.byte	0x30
 12065 4798 26       		.uleb128 0x26
 12066 4799 01       		.uleb128 0x1
 12067 479a 50       		.byte	0x50
 12068 479b 05       		.uleb128 0x5
 12069 479c 03       		.byte	0x3
 12070 479d 00000000 		.4byte	field
 12071 47a1 00       		.byte	0
 12072 47a2 2E       		.uleb128 0x2e
 12073 47a3 18050000 		.4byte	.LVL314
 12074 47a7 E12B0000 		.4byte	0x2be1
 12075 47ab BD470000 		.4byte	0x47bd
 12076 47af 26       		.uleb128 0x26
 12077 47b0 01       		.uleb128 0x1
 12078 47b1 50       		.byte	0x50
 12079 47b2 01       		.uleb128 0x1
 12080 47b3 33       		.byte	0x33
 12081 47b4 3B       		.uleb128 0x3b
 12082 47b5 CC2B0000 		.4byte	0x2bcc
 12083 47b9 02       		.uleb128 0x2
 12084 47ba 08       		.byte	0x8
 12085 47bb 31       		.byte	0x31
 12086 47bc 00       		.byte	0
 12087 47bd 2E       		.uleb128 0x2e
 12088 47be 2C050000 		.4byte	.LVL315
 12089 47c2 D34C0000 		.4byte	0x4cd3
 12090 47c6 E0470000 		.4byte	0x47e0
 12091 47ca 26       		.uleb128 0x26
 12092 47cb 01       		.uleb128 0x1
 12093 47cc 52       		.byte	0x52
 12094 47cd 03       		.uleb128 0x3
 12095 47ce 0A       		.byte	0xa
 12096 47cf 2C01     		.2byte	0x12c
 12097 47d1 26       		.uleb128 0x26
 12098 47d2 01       		.uleb128 0x1
 12099 47d3 51       		.byte	0x51
 12100 47d4 01       		.uleb128 0x1
 12101 47d5 30       		.byte	0x30
 12102 47d6 26       		.uleb128 0x26
 12103 47d7 01       		.uleb128 0x1
 12104 47d8 50       		.byte	0x50
 12105 47d9 05       		.uleb128 0x5
 12106 47da 03       		.byte	0x3
ARM GAS  C:\Users\AHMED~1.ELE\AppData\Local\Temp\cc0wYKcg.s 			page 240


 12107 47db 00000000 		.4byte	field
 12108 47df 00       		.byte	0
 12109 47e0 2E       		.uleb128 0x2e
 12110 47e1 32050000 		.4byte	.LVL316
 12111 47e5 E12B0000 		.4byte	0x2be1
 12112 47e9 FB470000 		.4byte	0x47fb
 12113 47ed 26       		.uleb128 0x26
 12114 47ee 01       		.uleb128 0x1
 12115 47ef 50       		.byte	0x50
 12116 47f0 01       		.uleb128 0x1
 12117 47f1 33       		.byte	0x33
 12118 47f2 3B       		.uleb128 0x3b
 12119 47f3 CC2B0000 		.4byte	0x2bcc
 12120 47f7 02       		.uleb128 0x2
 12121 47f8 08       		.byte	0x8
 12122 47f9 32       		.byte	0x32
 12123 47fa 00       		.byte	0
 12124 47fb 2E       		.uleb128 0x2e
 12125 47fc 46050000 		.4byte	.LVL317
 12126 4800 D34C0000 		.4byte	0x4cd3
 12127 4804 1E480000 		.4byte	0x481e
 12128 4808 26       		.uleb128 0x26
 12129 4809 01       		.uleb128 0x1
 12130 480a 52       		.byte	0x52
 12131 480b 03       		.uleb128 0x3
 12132 480c 0A       		.byte	0xa
 12133 480d 2C01     		.2byte	0x12c
 12134 480f 26       		.uleb128 0x26
 12135 4810 01       		.uleb128 0x1
 12136 4811 51       		.byte	0x51
 12137 4812 01       		.uleb128 0x1
 12138 4813 30       		.byte	0x30
 12139 4814 26       		.uleb128 0x26
 12140 4815 01       		.uleb128 0x1
 12141 4816 50       		.byte	0x50
 12142 4817 05       		.uleb128 0x5
 12143 4818 03       		.byte	0x3
 12144 4819 00000000 		.4byte	field
 12145 481d 00       		.byte	0
 12146 481e 2E       		.uleb128 0x2e
 12147 481f 4C050000 		.4byte	.LVL318
 12148 4823 E12B0000 		.4byte	0x2be1
 12149 4827 39480000 		.4byte	0x4839
 12150 482b 26       		.uleb128 0x26
 12151 482c 01       		.uleb128 0x1
 12152 482d 50       		.byte	0x50
 12153 482e 01       		.uleb128 0x1
 12154 482f 38       		.byte	0x38
 12155 4830 3B       		.uleb128 0x3b
 12156 4831 CC2B0000 		.4byte	0x2bcc
 12157 4835 02       		.uleb128 0x2
 12158 4836 08       		.byte	0x8
 12159 4837 34       		.byte	0x34
 12160 4838 00       		.byte	0
 12161 4839 2E       		.uleb128 0x2e
 12162 483a 60050000 		.4byte	.LVL319
 12163 483e D34C0000 		.4byte	0x4cd3
ARM GAS  C:\Users\AHMED~1.ELE\AppData\Local\Temp\cc0wYKcg.s 			page 241


 12164 4842 5C480000 		.4byte	0x485c
 12165 4846 26       		.uleb128 0x26
 12166 4847 01       		.uleb128 0x1
 12167 4848 52       		.byte	0x52
 12168 4849 03       		.uleb128 0x3
 12169 484a 0A       		.byte	0xa
 12170 484b 2C01     		.2byte	0x12c
 12171 484d 26       		.uleb128 0x26
 12172 484e 01       		.uleb128 0x1
 12173 484f 51       		.byte	0x51
 12174 4850 01       		.uleb128 0x1
 12175 4851 30       		.byte	0x30
 12176 4852 26       		.uleb128 0x26
 12177 4853 01       		.uleb128 0x1
 12178 4854 50       		.byte	0x50
 12179 4855 05       		.uleb128 0x5
 12180 4856 03       		.byte	0x3
 12181 4857 00000000 		.4byte	field
 12182 485b 00       		.byte	0
 12183 485c 2D       		.uleb128 0x2d
 12184 485d 64050000 		.4byte	.LVL320
 12185 4861 4C4E0000 		.4byte	0x4e4c
 12186 4865 2D       		.uleb128 0x2d
 12187 4866 68050000 		.4byte	.LVL321
 12188 486a 864E0000 		.4byte	0x4e86
 12189 486e 2E       		.uleb128 0x2e
 12190 486f 74050000 		.4byte	.LVL324
 12191 4873 774D0000 		.4byte	0x4d77
 12192 4877 87480000 		.4byte	0x4887
 12193 487b 26       		.uleb128 0x26
 12194 487c 01       		.uleb128 0x1
 12195 487d 52       		.byte	0x52
 12196 487e 01       		.uleb128 0x1
 12197 487f 3A       		.byte	0x3a
 12198 4880 26       		.uleb128 0x26
 12199 4881 01       		.uleb128 0x1
 12200 4882 51       		.byte	0x51
 12201 4883 02       		.uleb128 0x2
 12202 4884 08       		.byte	0x8
 12203 4885 FF       		.byte	0xff
 12204 4886 00       		.byte	0
 12205 4887 2E       		.uleb128 0x2e
 12206 4888 7A050000 		.4byte	.LVL325
 12207 488c E12B0000 		.4byte	0x2be1
 12208 4890 A3480000 		.4byte	0x48a3
 12209 4894 26       		.uleb128 0x26
 12210 4895 01       		.uleb128 0x1
 12211 4896 50       		.byte	0x50
 12212 4897 02       		.uleb128 0x2
 12213 4898 75       		.byte	0x75
 12214 4899 00       		.sleb128 0
 12215 489a 3B       		.uleb128 0x3b
 12216 489b CC2B0000 		.4byte	0x2bcc
 12217 489f 02       		.uleb128 0x2
 12218 48a0 08       		.byte	0x8
 12219 48a1 35       		.byte	0x35
 12220 48a2 00       		.byte	0
ARM GAS  C:\Users\AHMED~1.ELE\AppData\Local\Temp\cc0wYKcg.s 			page 242


 12221 48a3 2E       		.uleb128 0x2e
 12222 48a4 98050000 		.4byte	.LVL326
 12223 48a8 D34C0000 		.4byte	0x4cd3
 12224 48ac C6480000 		.4byte	0x48c6
 12225 48b0 26       		.uleb128 0x26
 12226 48b1 01       		.uleb128 0x1
 12227 48b2 52       		.byte	0x52
 12228 48b3 03       		.uleb128 0x3
 12229 48b4 0A       		.byte	0xa
 12230 48b5 2C01     		.2byte	0x12c
 12231 48b7 26       		.uleb128 0x26
 12232 48b8 01       		.uleb128 0x1
 12233 48b9 51       		.byte	0x51
 12234 48ba 01       		.uleb128 0x1
 12235 48bb 30       		.byte	0x30
 12236 48bc 26       		.uleb128 0x26
 12237 48bd 01       		.uleb128 0x1
 12238 48be 50       		.byte	0x50
 12239 48bf 05       		.uleb128 0x5
 12240 48c0 03       		.byte	0x3
 12241 48c1 00000000 		.4byte	field
 12242 48c5 00       		.byte	0
 12243 48c6 2D       		.uleb128 0x2d
 12244 48c7 9C050000 		.4byte	.LVL327
 12245 48cb B64E0000 		.4byte	0x4eb6
 12246 48cf 2D       		.uleb128 0x2d
 12247 48d0 A0050000 		.4byte	.LVL328
 12248 48d4 864E0000 		.4byte	0x4e86
 12249 48d8 2E       		.uleb128 0x2e
 12250 48d9 AC050000 		.4byte	.LVL331
 12251 48dd 774D0000 		.4byte	0x4d77
 12252 48e1 F1480000 		.4byte	0x48f1
 12253 48e5 26       		.uleb128 0x26
 12254 48e6 01       		.uleb128 0x1
 12255 48e7 52       		.byte	0x52
 12256 48e8 01       		.uleb128 0x1
 12257 48e9 3A       		.byte	0x3a
 12258 48ea 26       		.uleb128 0x26
 12259 48eb 01       		.uleb128 0x1
 12260 48ec 51       		.byte	0x51
 12261 48ed 02       		.uleb128 0x2
 12262 48ee 08       		.byte	0x8
 12263 48ef FF       		.byte	0xff
 12264 48f0 00       		.byte	0
 12265 48f1 2E       		.uleb128 0x2e
 12266 48f2 B2050000 		.4byte	.LVL332
 12267 48f6 E12B0000 		.4byte	0x2be1
 12268 48fa 0D490000 		.4byte	0x490d
 12269 48fe 26       		.uleb128 0x26
 12270 48ff 01       		.uleb128 0x1
 12271 4900 50       		.byte	0x50
 12272 4901 02       		.uleb128 0x2
 12273 4902 75       		.byte	0x75
 12274 4903 00       		.sleb128 0
 12275 4904 3B       		.uleb128 0x3b
 12276 4905 CC2B0000 		.4byte	0x2bcc
 12277 4909 02       		.uleb128 0x2
ARM GAS  C:\Users\AHMED~1.ELE\AppData\Local\Temp\cc0wYKcg.s 			page 243


 12278 490a 08       		.byte	0x8
 12279 490b 36       		.byte	0x36
 12280 490c 00       		.byte	0
 12281 490d 2E       		.uleb128 0x2e
 12282 490e CC050000 		.4byte	.LVL333
 12283 4912 D34C0000 		.4byte	0x4cd3
 12284 4916 30490000 		.4byte	0x4930
 12285 491a 26       		.uleb128 0x26
 12286 491b 01       		.uleb128 0x1
 12287 491c 52       		.byte	0x52
 12288 491d 03       		.uleb128 0x3
 12289 491e 0A       		.byte	0xa
 12290 491f 2C01     		.2byte	0x12c
 12291 4921 26       		.uleb128 0x26
 12292 4922 01       		.uleb128 0x1
 12293 4923 51       		.byte	0x51
 12294 4924 01       		.uleb128 0x1
 12295 4925 30       		.byte	0x30
 12296 4926 26       		.uleb128 0x26
 12297 4927 01       		.uleb128 0x1
 12298 4928 50       		.byte	0x50
 12299 4929 05       		.uleb128 0x5
 12300 492a 03       		.byte	0x3
 12301 492b 00000000 		.4byte	field
 12302 492f 00       		.byte	0
 12303 4930 2D       		.uleb128 0x2d
 12304 4931 D0050000 		.4byte	.LVL334
 12305 4935 B64E0000 		.4byte	0x4eb6
 12306 4939 2D       		.uleb128 0x2d
 12307 493a D4050000 		.4byte	.LVL335
 12308 493e 864E0000 		.4byte	0x4e86
 12309 4942 2E       		.uleb128 0x2e
 12310 4943 E0050000 		.4byte	.LVL338
 12311 4947 774D0000 		.4byte	0x4d77
 12312 494b 5B490000 		.4byte	0x495b
 12313 494f 26       		.uleb128 0x26
 12314 4950 01       		.uleb128 0x1
 12315 4951 52       		.byte	0x52
 12316 4952 01       		.uleb128 0x1
 12317 4953 3A       		.byte	0x3a
 12318 4954 26       		.uleb128 0x26
 12319 4955 01       		.uleb128 0x1
 12320 4956 51       		.byte	0x51
 12321 4957 02       		.uleb128 0x2
 12322 4958 08       		.byte	0x8
 12323 4959 FF       		.byte	0xff
 12324 495a 00       		.byte	0
 12325 495b 2E       		.uleb128 0x2e
 12326 495c E6050000 		.4byte	.LVL339
 12327 4960 E12B0000 		.4byte	0x2be1
 12328 4964 77490000 		.4byte	0x4977
 12329 4968 26       		.uleb128 0x26
 12330 4969 01       		.uleb128 0x1
 12331 496a 50       		.byte	0x50
 12332 496b 02       		.uleb128 0x2
 12333 496c 77       		.byte	0x77
 12334 496d 00       		.sleb128 0
ARM GAS  C:\Users\AHMED~1.ELE\AppData\Local\Temp\cc0wYKcg.s 			page 244


 12335 496e 3B       		.uleb128 0x3b
 12336 496f CC2B0000 		.4byte	0x2bcc
 12337 4973 02       		.uleb128 0x2
 12338 4974 08       		.byte	0x8
 12339 4975 37       		.byte	0x37
 12340 4976 00       		.byte	0
 12341 4977 2E       		.uleb128 0x2e
 12342 4978 FA050000 		.4byte	.LVL340
 12343 497c D34C0000 		.4byte	0x4cd3
 12344 4980 9A490000 		.4byte	0x499a
 12345 4984 26       		.uleb128 0x26
 12346 4985 01       		.uleb128 0x1
 12347 4986 52       		.byte	0x52
 12348 4987 03       		.uleb128 0x3
 12349 4988 0A       		.byte	0xa
 12350 4989 2C01     		.2byte	0x12c
 12351 498b 26       		.uleb128 0x26
 12352 498c 01       		.uleb128 0x1
 12353 498d 51       		.byte	0x51
 12354 498e 01       		.uleb128 0x1
 12355 498f 30       		.byte	0x30
 12356 4990 26       		.uleb128 0x26
 12357 4991 01       		.uleb128 0x1
 12358 4992 50       		.byte	0x50
 12359 4993 05       		.uleb128 0x5
 12360 4994 03       		.byte	0x3
 12361 4995 00000000 		.4byte	field
 12362 4999 00       		.byte	0
 12363 499a 2D       		.uleb128 0x2d
 12364 499b FE050000 		.4byte	.LVL341
 12365 499f 4C4E0000 		.4byte	0x4e4c
 12366 49a3 2D       		.uleb128 0x2d
 12367 49a4 02060000 		.4byte	.LVL342
 12368 49a8 864E0000 		.4byte	0x4e86
 12369 49ac 2E       		.uleb128 0x2e
 12370 49ad 06060000 		.4byte	.LVL343
 12371 49b1 E12B0000 		.4byte	0x2be1
 12372 49b5 C2490000 		.4byte	0x49c2
 12373 49b9 3B       		.uleb128 0x3b
 12374 49ba CC2B0000 		.4byte	0x2bcc
 12375 49be 02       		.uleb128 0x2
 12376 49bf 08       		.byte	0x8
 12377 49c0 38       		.byte	0x38
 12378 49c1 00       		.byte	0
 12379 49c2 2E       		.uleb128 0x2e
 12380 49c3 1A060000 		.4byte	.LVL344
 12381 49c7 D34C0000 		.4byte	0x4cd3
 12382 49cb E5490000 		.4byte	0x49e5
 12383 49cf 26       		.uleb128 0x26
 12384 49d0 01       		.uleb128 0x1
 12385 49d1 52       		.byte	0x52
 12386 49d2 03       		.uleb128 0x3
 12387 49d3 0A       		.byte	0xa
 12388 49d4 2C01     		.2byte	0x12c
 12389 49d6 26       		.uleb128 0x26
 12390 49d7 01       		.uleb128 0x1
 12391 49d8 51       		.byte	0x51
ARM GAS  C:\Users\AHMED~1.ELE\AppData\Local\Temp\cc0wYKcg.s 			page 245


 12392 49d9 01       		.uleb128 0x1
 12393 49da 30       		.byte	0x30
 12394 49db 26       		.uleb128 0x26
 12395 49dc 01       		.uleb128 0x1
 12396 49dd 50       		.byte	0x50
 12397 49de 05       		.uleb128 0x5
 12398 49df 03       		.byte	0x3
 12399 49e0 00000000 		.4byte	field
 12400 49e4 00       		.byte	0
 12401 49e5 2D       		.uleb128 0x2d
 12402 49e6 1E060000 		.4byte	.LVL345
 12403 49ea B64E0000 		.4byte	0x4eb6
 12404 49ee 2D       		.uleb128 0x2d
 12405 49ef 22060000 		.4byte	.LVL346
 12406 49f3 864E0000 		.4byte	0x4e86
 12407 49f7 2E       		.uleb128 0x2e
 12408 49f8 2E060000 		.4byte	.LVL349
 12409 49fc 774D0000 		.4byte	0x4d77
 12410 4a00 104A0000 		.4byte	0x4a10
 12411 4a04 26       		.uleb128 0x26
 12412 4a05 01       		.uleb128 0x1
 12413 4a06 52       		.byte	0x52
 12414 4a07 01       		.uleb128 0x1
 12415 4a08 3A       		.byte	0x3a
 12416 4a09 26       		.uleb128 0x26
 12417 4a0a 01       		.uleb128 0x1
 12418 4a0b 51       		.byte	0x51
 12419 4a0c 02       		.uleb128 0x2
 12420 4a0d 08       		.byte	0x8
 12421 4a0e FF       		.byte	0xff
 12422 4a0f 00       		.byte	0
 12423 4a10 2E       		.uleb128 0x2e
 12424 4a11 34060000 		.4byte	.LVL350
 12425 4a15 E12B0000 		.4byte	0x2be1
 12426 4a19 2C4A0000 		.4byte	0x4a2c
 12427 4a1d 26       		.uleb128 0x26
 12428 4a1e 01       		.uleb128 0x1
 12429 4a1f 50       		.byte	0x50
 12430 4a20 02       		.uleb128 0x2
 12431 4a21 77       		.byte	0x77
 12432 4a22 00       		.sleb128 0
 12433 4a23 3B       		.uleb128 0x3b
 12434 4a24 CC2B0000 		.4byte	0x2bcc
 12435 4a28 02       		.uleb128 0x2
 12436 4a29 08       		.byte	0x8
 12437 4a2a 3E       		.byte	0x3e
 12438 4a2b 00       		.byte	0
 12439 4a2c 2E       		.uleb128 0x2e
 12440 4a2d 48060000 		.4byte	.LVL351
 12441 4a31 D34C0000 		.4byte	0x4cd3
 12442 4a35 4F4A0000 		.4byte	0x4a4f
 12443 4a39 26       		.uleb128 0x26
 12444 4a3a 01       		.uleb128 0x1
 12445 4a3b 52       		.byte	0x52
 12446 4a3c 03       		.uleb128 0x3
 12447 4a3d 0A       		.byte	0xa
 12448 4a3e 2C01     		.2byte	0x12c
ARM GAS  C:\Users\AHMED~1.ELE\AppData\Local\Temp\cc0wYKcg.s 			page 246


 12449 4a40 26       		.uleb128 0x26
 12450 4a41 01       		.uleb128 0x1
 12451 4a42 51       		.byte	0x51
 12452 4a43 01       		.uleb128 0x1
 12453 4a44 30       		.byte	0x30
 12454 4a45 26       		.uleb128 0x26
 12455 4a46 01       		.uleb128 0x1
 12456 4a47 50       		.byte	0x50
 12457 4a48 05       		.uleb128 0x5
 12458 4a49 03       		.byte	0x3
 12459 4a4a 00000000 		.4byte	field
 12460 4a4e 00       		.byte	0
 12461 4a4f 2D       		.uleb128 0x2d
 12462 4a50 4C060000 		.4byte	.LVL352
 12463 4a54 B64E0000 		.4byte	0x4eb6
 12464 4a58 2D       		.uleb128 0x2d
 12465 4a59 50060000 		.4byte	.LVL353
 12466 4a5d 864E0000 		.4byte	0x4e86
 12467 4a61 2E       		.uleb128 0x2e
 12468 4a62 5C060000 		.4byte	.LVL356
 12469 4a66 774D0000 		.4byte	0x4d77
 12470 4a6a 7A4A0000 		.4byte	0x4a7a
 12471 4a6e 26       		.uleb128 0x26
 12472 4a6f 01       		.uleb128 0x1
 12473 4a70 52       		.byte	0x52
 12474 4a71 01       		.uleb128 0x1
 12475 4a72 3A       		.byte	0x3a
 12476 4a73 26       		.uleb128 0x26
 12477 4a74 01       		.uleb128 0x1
 12478 4a75 51       		.byte	0x51
 12479 4a76 02       		.uleb128 0x2
 12480 4a77 08       		.byte	0x8
 12481 4a78 FF       		.byte	0xff
 12482 4a79 00       		.byte	0
 12483 4a7a 2E       		.uleb128 0x2e
 12484 4a7b 62060000 		.4byte	.LVL357
 12485 4a7f E12B0000 		.4byte	0x2be1
 12486 4a83 964A0000 		.4byte	0x4a96
 12487 4a87 26       		.uleb128 0x26
 12488 4a88 01       		.uleb128 0x1
 12489 4a89 50       		.byte	0x50
 12490 4a8a 02       		.uleb128 0x2
 12491 4a8b 77       		.byte	0x77
 12492 4a8c 00       		.sleb128 0
 12493 4a8d 3B       		.uleb128 0x3b
 12494 4a8e CC2B0000 		.4byte	0x2bcc
 12495 4a92 02       		.uleb128 0x2
 12496 4a93 08       		.byte	0x8
 12497 4a94 3F       		.byte	0x3f
 12498 4a95 00       		.byte	0
 12499 4a96 2E       		.uleb128 0x2e
 12500 4a97 76060000 		.4byte	.LVL358
 12501 4a9b D34C0000 		.4byte	0x4cd3
 12502 4a9f B94A0000 		.4byte	0x4ab9
 12503 4aa3 26       		.uleb128 0x26
 12504 4aa4 01       		.uleb128 0x1
 12505 4aa5 52       		.byte	0x52
ARM GAS  C:\Users\AHMED~1.ELE\AppData\Local\Temp\cc0wYKcg.s 			page 247


 12506 4aa6 03       		.uleb128 0x3
 12507 4aa7 0A       		.byte	0xa
 12508 4aa8 2C01     		.2byte	0x12c
 12509 4aaa 26       		.uleb128 0x26
 12510 4aab 01       		.uleb128 0x1
 12511 4aac 51       		.byte	0x51
 12512 4aad 01       		.uleb128 0x1
 12513 4aae 30       		.byte	0x30
 12514 4aaf 26       		.uleb128 0x26
 12515 4ab0 01       		.uleb128 0x1
 12516 4ab1 50       		.byte	0x50
 12517 4ab2 05       		.uleb128 0x5
 12518 4ab3 03       		.byte	0x3
 12519 4ab4 00000000 		.4byte	field
 12520 4ab8 00       		.byte	0
 12521 4ab9 2F       		.uleb128 0x2f
 12522 4aba 7C060000 		.4byte	.LVL359
 12523 4abe E12B0000 		.4byte	0x2be1
 12524 4ac2 26       		.uleb128 0x26
 12525 4ac3 01       		.uleb128 0x1
 12526 4ac4 50       		.byte	0x50
 12527 4ac5 01       		.uleb128 0x1
 12528 4ac6 38       		.byte	0x38
 12529 4ac7 3B       		.uleb128 0x3b
 12530 4ac8 CC2B0000 		.4byte	0x2bcc
 12531 4acc 02       		.uleb128 0x2
 12532 4acd 08       		.byte	0x8
 12533 4ace 40       		.byte	0x40
 12534 4acf 00       		.byte	0
 12535 4ad0 00       		.byte	0
 12536 4ad1 3C       		.uleb128 0x3c
 12537 4ad2 671B0000 		.4byte	.LASF1037
 12538 4ad6 0B       		.byte	0xb
 12539 4ad7 BA       		.byte	0xba
 12540 4ad8 DC4A0000 		.4byte	0x4adc
 12541 4adc 06       		.uleb128 0x6
 12542 4add 04       		.byte	0x4
 12543 4ade B51F0000 		.4byte	0x1fb5
 12544 4ae2 08       		.uleb128 0x8
 12545 4ae3 99210000 		.4byte	0x2199
 12546 4ae7 F24A0000 		.4byte	0x4af2
 12547 4aeb 09       		.uleb128 0x9
 12548 4aec 78000000 		.4byte	0x78
 12549 4af0 19       		.byte	0x19
 12550 4af1 00       		.byte	0
 12551 4af2 3C       		.uleb128 0x3c
 12552 4af3 AC1D0000 		.4byte	.LASF1038
 12553 4af7 0C       		.byte	0xc
 12554 4af8 5C       		.byte	0x5c
 12555 4af9 FD4A0000 		.4byte	0x4afd
 12556 4afd 07       		.uleb128 0x7
 12557 4afe E24A0000 		.4byte	0x4ae2
 12558 4b02 3C       		.uleb128 0x3c
 12559 4b03 92240000 		.4byte	.LASF1039
 12560 4b07 0E       		.byte	0xe
 12561 4b08 6F       		.byte	0x6f
 12562 4b09 812B0000 		.4byte	0x2b81
ARM GAS  C:\Users\AHMED~1.ELE\AppData\Local\Temp\cc0wYKcg.s 			page 248


 12563 4b0d 3D       		.uleb128 0x3d
 12564 4b0e F43E0000 		.4byte	.LASF1040
 12565 4b12 01       		.byte	0x1
 12566 4b13 35       		.byte	0x35
 12567 4b14 6D0F0000 		.4byte	0xf6d
 12568 4b18 05       		.uleb128 0x5
 12569 4b19 03       		.byte	0x3
 12570 4b1a 00000000 		.4byte	field
 12571 4b1e 3E       		.uleb128 0x3e
 12572 4b1f B8160000 		.4byte	.LASF1041
 12573 4b23 0F       		.byte	0xf
 12574 4b24 20       		.byte	0x20
 12575 4b25 B8000000 		.4byte	0xb8
 12576 4b29 384B0000 		.4byte	0x4b38
 12577 4b2d 3F       		.uleb128 0x3f
 12578 4b2e E9000000 		.4byte	0xe9
 12579 4b32 3F       		.uleb128 0x3f
 12580 4b33 B8000000 		.4byte	0xb8
 12581 4b37 00       		.byte	0
 12582 4b38 40       		.uleb128 0x40
 12583 4b39 9E060000 		.4byte	.LASF1043
 12584 4b3d 10       		.byte	0x10
 12585 4b3e 43       		.byte	0x43
 12586 4b3f 97000000 		.4byte	0x97
 12587 4b43 41       		.uleb128 0x41
 12588 4b44 740F0000 		.4byte	.LASF1047
 12589 4b48 0B       		.byte	0xb
 12590 4b49 E1       		.byte	0xe1
 12591 4b4a 544B0000 		.4byte	0x4b54
 12592 4b4e 3F       		.uleb128 0x3f
 12593 4b4f 97000000 		.4byte	0x97
 12594 4b53 00       		.byte	0
 12595 4b54 3E       		.uleb128 0x3e
 12596 4b55 99180000 		.4byte	.LASF1042
 12597 4b59 0F       		.byte	0xf
 12598 4b5a 06       		.byte	0x6
 12599 4b5b B8000000 		.4byte	0xb8
 12600 4b5f 694B0000 		.4byte	0x4b69
 12601 4b63 3F       		.uleb128 0x3f
 12602 4b64 B8000000 		.4byte	0xb8
 12603 4b68 00       		.byte	0
 12604 4b69 40       		.uleb128 0x40
 12605 4b6a 540D0000 		.4byte	.LASF1044
 12606 4b6e 0F       		.byte	0xf
 12607 4b6f 15       		.byte	0x15
 12608 4b70 E9000000 		.4byte	0xe9
 12609 4b74 3E       		.uleb128 0x3e
 12610 4b75 912C0000 		.4byte	.LASF1045
 12611 4b79 0F       		.byte	0xf
 12612 4b7a 12       		.byte	0x12
 12613 4b7b B8000000 		.4byte	0xb8
 12614 4b7f 894B0000 		.4byte	0x4b89
 12615 4b83 3F       		.uleb128 0x3f
 12616 4b84 B8000000 		.4byte	0xb8
 12617 4b88 00       		.byte	0
 12618 4b89 3E       		.uleb128 0x3e
 12619 4b8a 21140000 		.4byte	.LASF1046
ARM GAS  C:\Users\AHMED~1.ELE\AppData\Local\Temp\cc0wYKcg.s 			page 249


 12620 4b8e 11       		.byte	0x11
 12621 4b8f DD       		.byte	0xdd
 12622 4b90 5D000000 		.4byte	0x5d
 12623 4b94 A44B0000 		.4byte	0x4ba4
 12624 4b98 3F       		.uleb128 0x3f
 12625 4b99 7F000000 		.4byte	0x7f
 12626 4b9d 3F       		.uleb128 0x3f
 12627 4b9e 8C000000 		.4byte	0x8c
 12628 4ba2 42       		.uleb128 0x42
 12629 4ba3 00       		.byte	0
 12630 4ba4 41       		.uleb128 0x41
 12631 4ba5 25250000 		.4byte	.LASF1048
 12632 4ba9 0F       		.byte	0xf
 12633 4baa 08       		.byte	0x8
 12634 4bab BA4B0000 		.4byte	0x4bba
 12635 4baf 3F       		.uleb128 0x3f
 12636 4bb0 E9000000 		.4byte	0xe9
 12637 4bb4 3F       		.uleb128 0x3f
 12638 4bb5 B8000000 		.4byte	0xb8
 12639 4bb9 00       		.byte	0
 12640 4bba 43       		.uleb128 0x43
 12641 4bbb 4C170000 		.4byte	.LASF1049
 12642 4bbf 76000000 		.4byte	0x76
 12643 4bc3 D74B0000 		.4byte	0x4bd7
 12644 4bc7 3F       		.uleb128 0x3f
 12645 4bc8 76000000 		.4byte	0x76
 12646 4bcc 3F       		.uleb128 0x3f
 12647 4bcd BA0E0000 		.4byte	0xeba
 12648 4bd1 3F       		.uleb128 0x3f
 12649 4bd2 78000000 		.4byte	0x78
 12650 4bd6 00       		.byte	0
 12651 4bd7 3E       		.uleb128 0x3e
 12652 4bd8 3C150000 		.4byte	.LASF1050
 12653 4bdc 12       		.byte	0x12
 12654 4bdd 16       		.byte	0x16
 12655 4bde 5D000000 		.4byte	0x5d
 12656 4be2 F64B0000 		.4byte	0x4bf6
 12657 4be6 3F       		.uleb128 0x3f
 12658 4be7 BA0E0000 		.4byte	0xeba
 12659 4beb 3F       		.uleb128 0x3f
 12660 4bec BA0E0000 		.4byte	0xeba
 12661 4bf0 3F       		.uleb128 0x3f
 12662 4bf1 6B000000 		.4byte	0x6b
 12663 4bf5 00       		.byte	0
 12664 4bf6 41       		.uleb128 0x41
 12665 4bf7 9F3A0000 		.4byte	.LASF1051
 12666 4bfb 0A       		.byte	0xa
 12667 4bfc 44       		.byte	0x44
 12668 4bfd 074C0000 		.4byte	0x4c07
 12669 4c01 3F       		.uleb128 0x3f
 12670 4c02 074C0000 		.4byte	0x4c07
 12671 4c06 00       		.byte	0
 12672 4c07 06       		.uleb128 0x6
 12673 4c08 04       		.byte	0x4
 12674 4c09 B5190000 		.4byte	0x19b5
 12675 4c0d 3E       		.uleb128 0x3e
 12676 4c0e A2290000 		.4byte	.LASF1052
ARM GAS  C:\Users\AHMED~1.ELE\AppData\Local\Temp\cc0wYKcg.s 			page 250


 12677 4c12 08       		.byte	0x8
 12678 4c13 A2       		.byte	0xa2
 12679 4c14 B8000000 		.4byte	0xb8
 12680 4c18 274C0000 		.4byte	0x4c27
 12681 4c1c 3F       		.uleb128 0x3f
 12682 4c1d B8000000 		.4byte	0xb8
 12683 4c21 3F       		.uleb128 0x3f
 12684 4c22 B8000000 		.4byte	0xb8
 12685 4c26 00       		.byte	0
 12686 4c27 3E       		.uleb128 0x3e
 12687 4c28 542B0000 		.4byte	.LASF1053
 12688 4c2c 0F       		.byte	0xf
 12689 4c2d 24       		.byte	0x24
 12690 4c2e B8000000 		.4byte	0xb8
 12691 4c32 464C0000 		.4byte	0x4c46
 12692 4c36 3F       		.uleb128 0x3f
 12693 4c37 E9000000 		.4byte	0xe9
 12694 4c3b 3F       		.uleb128 0x3f
 12695 4c3c B8000000 		.4byte	0xb8
 12696 4c40 3F       		.uleb128 0x3f
 12697 4c41 B8000000 		.4byte	0xb8
 12698 4c45 00       		.byte	0
 12699 4c46 3E       		.uleb128 0x3e
 12700 4c47 D72E0000 		.4byte	.LASF1054
 12701 4c4b 0F       		.byte	0xf
 12702 4c4c 53       		.byte	0x53
 12703 4c4d B8000000 		.4byte	0xb8
 12704 4c51 5B4C0000 		.4byte	0x4c5b
 12705 4c55 3F       		.uleb128 0x3f
 12706 4c56 B8000000 		.4byte	0xb8
 12707 4c5a 00       		.byte	0
 12708 4c5b 41       		.uleb128 0x41
 12709 4c5c 0E350000 		.4byte	.LASF1055
 12710 4c60 0F       		.byte	0xf
 12711 4c61 29       		.byte	0x29
 12712 4c62 764C0000 		.4byte	0x4c76
 12713 4c66 3F       		.uleb128 0x3f
 12714 4c67 E9000000 		.4byte	0xe9
 12715 4c6b 3F       		.uleb128 0x3f
 12716 4c6c E9000000 		.4byte	0xe9
 12717 4c70 3F       		.uleb128 0x3f
 12718 4c71 B8000000 		.4byte	0xb8
 12719 4c75 00       		.byte	0
 12720 4c76 41       		.uleb128 0x41
 12721 4c77 68240000 		.4byte	.LASF1056
 12722 4c7b 0F       		.byte	0xf
 12723 4c7c 21       		.byte	0x21
 12724 4c7d 8C4C0000 		.4byte	0x4c8c
 12725 4c81 3F       		.uleb128 0x3f
 12726 4c82 E9000000 		.4byte	0xe9
 12727 4c86 3F       		.uleb128 0x3f
 12728 4c87 B8000000 		.4byte	0xb8
 12729 4c8b 00       		.byte	0
 12730 4c8c 41       		.uleb128 0x41
 12731 4c8d A8090000 		.4byte	.LASF1057
 12732 4c91 0F       		.byte	0xf
 12733 4c92 57       		.byte	0x57
ARM GAS  C:\Users\AHMED~1.ELE\AppData\Local\Temp\cc0wYKcg.s 			page 251


 12734 4c93 A24C0000 		.4byte	0x4ca2
 12735 4c97 3F       		.uleb128 0x3f
 12736 4c98 E9000000 		.4byte	0xe9
 12737 4c9c 3F       		.uleb128 0x3f
 12738 4c9d 56000000 		.4byte	0x56
 12739 4ca1 00       		.byte	0
 12740 4ca2 41       		.uleb128 0x41
 12741 4ca3 3A420000 		.4byte	.LASF1058
 12742 4ca7 0F       		.byte	0xf
 12743 4ca8 0C       		.byte	0xc
 12744 4ca9 B34C0000 		.4byte	0x4cb3
 12745 4cad 3F       		.uleb128 0x3f
 12746 4cae 7F000000 		.4byte	0x7f
 12747 4cb2 00       		.byte	0
 12748 4cb3 40       		.uleb128 0x40
 12749 4cb4 46030000 		.4byte	.LASF1059
 12750 4cb8 10       		.byte	0x10
 12751 4cb9 5C       		.byte	0x5c
 12752 4cba 97000000 		.4byte	0x97
 12753 4cbe 3E       		.uleb128 0x3e
 12754 4cbf 1D410000 		.4byte	.LASF1060
 12755 4cc3 0F       		.byte	0xf
 12756 4cc4 18       		.byte	0x18
 12757 4cc5 B8000000 		.4byte	0xb8
 12758 4cc9 D34C0000 		.4byte	0x4cd3
 12759 4ccd 3F       		.uleb128 0x3f
 12760 4cce B8000000 		.4byte	0xb8
 12761 4cd2 00       		.byte	0
 12762 4cd3 43       		.uleb128 0x43
 12763 4cd4 F5010000 		.4byte	.LASF1061
 12764 4cd8 76000000 		.4byte	0x76
 12765 4cdc F04C0000 		.4byte	0x4cf0
 12766 4ce0 3F       		.uleb128 0x3f
 12767 4ce1 76000000 		.4byte	0x76
 12768 4ce5 3F       		.uleb128 0x3f
 12769 4ce6 5D000000 		.4byte	0x5d
 12770 4cea 3F       		.uleb128 0x3f
 12771 4ceb 78000000 		.4byte	0x78
 12772 4cef 00       		.byte	0
 12773 4cf0 40       		.uleb128 0x40
 12774 4cf1 CC190000 		.4byte	.LASF1062
 12775 4cf5 10       		.byte	0x10
 12776 4cf6 41       		.byte	0x41
 12777 4cf7 97000000 		.4byte	0x97
 12778 4cfb 41       		.uleb128 0x41
 12779 4cfc 513F0000 		.4byte	.LASF1063
 12780 4d00 0F       		.byte	0xf
 12781 4d01 0A       		.byte	0xa
 12782 4d02 0C4D0000 		.4byte	0x4d0c
 12783 4d06 3F       		.uleb128 0x3f
 12784 4d07 B8000000 		.4byte	0xb8
 12785 4d0b 00       		.byte	0
 12786 4d0c 3E       		.uleb128 0x3e
 12787 4d0d 2A240000 		.4byte	.LASF1064
 12788 4d11 08       		.byte	0x8
 12789 4d12 A0       		.byte	0xa0
 12790 4d13 B8000000 		.4byte	0xb8
ARM GAS  C:\Users\AHMED~1.ELE\AppData\Local\Temp\cc0wYKcg.s 			page 252


 12791 4d17 354D0000 		.4byte	0x4d35
 12792 4d1b 3F       		.uleb128 0x3f
 12793 4d1c B8000000 		.4byte	0xb8
 12794 4d20 3F       		.uleb128 0x3f
 12795 4d21 B8000000 		.4byte	0xb8
 12796 4d25 3F       		.uleb128 0x3f
 12797 4d26 B8000000 		.4byte	0xb8
 12798 4d2a 3F       		.uleb128 0x3f
 12799 4d2b B8000000 		.4byte	0xb8
 12800 4d2f 3F       		.uleb128 0x3f
 12801 4d30 B8000000 		.4byte	0xb8
 12802 4d34 00       		.byte	0
 12803 4d35 41       		.uleb128 0x41
 12804 4d36 6F1A0000 		.4byte	.LASF1065
 12805 4d3a 0F       		.byte	0xf
 12806 4d3b 07       		.byte	0x7
 12807 4d3c 4B4D0000 		.4byte	0x4d4b
 12808 4d40 3F       		.uleb128 0x3f
 12809 4d41 B8000000 		.4byte	0xb8
 12810 4d45 3F       		.uleb128 0x3f
 12811 4d46 B8000000 		.4byte	0xb8
 12812 4d4a 00       		.byte	0
 12813 4d4b 41       		.uleb128 0x41
 12814 4d4c BB2C0000 		.4byte	.LASF1066
 12815 4d50 0B       		.byte	0xb
 12816 4d51 E2       		.byte	0xe2
 12817 4d52 5C4D0000 		.4byte	0x4d5c
 12818 4d56 3F       		.uleb128 0x3f
 12819 4d57 97000000 		.4byte	0x97
 12820 4d5b 00       		.byte	0
 12821 4d5c 41       		.uleb128 0x41
 12822 4d5d B83B0000 		.4byte	.LASF1067
 12823 4d61 13       		.byte	0x13
 12824 4d62 27       		.byte	0x27
 12825 4d63 774D0000 		.4byte	0x4d77
 12826 4d67 3F       		.uleb128 0x3f
 12827 4d68 E9000000 		.4byte	0xe9
 12828 4d6c 3F       		.uleb128 0x3f
 12829 4d6d E9000000 		.4byte	0xe9
 12830 4d71 3F       		.uleb128 0x3f
 12831 4d72 B8000000 		.4byte	0xb8
 12832 4d76 00       		.byte	0
 12833 4d77 3E       		.uleb128 0x3e
 12834 4d78 F5010000 		.4byte	.LASF1061
 12835 4d7c 12       		.byte	0x12
 12836 4d7d 19       		.byte	0x19
 12837 4d7e 76000000 		.4byte	0x76
 12838 4d82 964D0000 		.4byte	0x4d96
 12839 4d86 3F       		.uleb128 0x3f
 12840 4d87 76000000 		.4byte	0x76
 12841 4d8b 3F       		.uleb128 0x3f
 12842 4d8c 5D000000 		.4byte	0x5d
 12843 4d90 3F       		.uleb128 0x3f
 12844 4d91 6B000000 		.4byte	0x6b
 12845 4d95 00       		.byte	0
 12846 4d96 3E       		.uleb128 0x3e
 12847 4d97 223F0000 		.4byte	.LASF1068
ARM GAS  C:\Users\AHMED~1.ELE\AppData\Local\Temp\cc0wYKcg.s 			page 253


 12848 4d9b 0F       		.byte	0xf
 12849 4d9c 4D       		.byte	0x4d
 12850 4d9d B8000000 		.4byte	0xb8
 12851 4da1 B54D0000 		.4byte	0x4db5
 12852 4da5 3F       		.uleb128 0x3f
 12853 4da6 E9000000 		.4byte	0xe9
 12854 4daa 3F       		.uleb128 0x3f
 12855 4dab E9000000 		.4byte	0xe9
 12856 4daf 3F       		.uleb128 0x3f
 12857 4db0 B8000000 		.4byte	0xb8
 12858 4db4 00       		.byte	0
 12859 4db5 3E       		.uleb128 0x3e
 12860 4db6 68370000 		.4byte	.LASF1069
 12861 4dba 0F       		.byte	0xf
 12862 4dbb 4C       		.byte	0x4c
 12863 4dbc B8000000 		.4byte	0xb8
 12864 4dc0 D44D0000 		.4byte	0x4dd4
 12865 4dc4 3F       		.uleb128 0x3f
 12866 4dc5 E9000000 		.4byte	0xe9
 12867 4dc9 3F       		.uleb128 0x3f
 12868 4dca E9000000 		.4byte	0xe9
 12869 4dce 3F       		.uleb128 0x3f
 12870 4dcf B8000000 		.4byte	0xb8
 12871 4dd3 00       		.byte	0
 12872 4dd4 41       		.uleb128 0x41
 12873 4dd5 7F150000 		.4byte	.LASF1070
 12874 4dd9 0A       		.byte	0xa
 12875 4dda 59       		.byte	0x59
 12876 4ddb EF4D0000 		.4byte	0x4def
 12877 4ddf 3F       		.uleb128 0x3f
 12878 4de0 E9000000 		.4byte	0xe9
 12879 4de4 3F       		.uleb128 0x3f
 12880 4de5 E9000000 		.4byte	0xe9
 12881 4de9 3F       		.uleb128 0x3f
 12882 4dea B8000000 		.4byte	0xb8
 12883 4dee 00       		.byte	0
 12884 4def 41       		.uleb128 0x41
 12885 4df0 1A2F0000 		.4byte	.LASF1071
 12886 4df4 0A       		.byte	0xa
 12887 4df5 43       		.byte	0x43
 12888 4df6 004E0000 		.4byte	0x4e00
 12889 4dfa 3F       		.uleb128 0x3f
 12890 4dfb 074C0000 		.4byte	0x4c07
 12891 4dff 00       		.byte	0
 12892 4e00 3E       		.uleb128 0x3e
 12893 4e01 B60C0000 		.4byte	.LASF1072
 12894 4e05 0D       		.byte	0xd
 12895 4e06 E7       		.byte	0xe7
 12896 4e07 E9000000 		.4byte	0xe9
 12897 4e0b 154E0000 		.4byte	0x4e15
 12898 4e0f 3F       		.uleb128 0x3f
 12899 4e10 B8000000 		.4byte	0xb8
 12900 4e14 00       		.byte	0
 12901 4e15 41       		.uleb128 0x41
 12902 4e16 B5420000 		.4byte	.LASF1073
 12903 4e1a 0A       		.byte	0xa
 12904 4e1b 54       		.byte	0x54
ARM GAS  C:\Users\AHMED~1.ELE\AppData\Local\Temp\cc0wYKcg.s 			page 254


 12905 4e1c 304E0000 		.4byte	0x4e30
 12906 4e20 3F       		.uleb128 0x3f
 12907 4e21 CE000000 		.4byte	0xce
 12908 4e25 3F       		.uleb128 0x3f
 12909 4e26 B8000000 		.4byte	0xb8
 12910 4e2a 3F       		.uleb128 0x3f
 12911 4e2b B8000000 		.4byte	0xb8
 12912 4e2f 00       		.byte	0
 12913 4e30 40       		.uleb128 0x40
 12914 4e31 552E0000 		.4byte	.LASF1074
 12915 4e35 0B       		.byte	0xb
 12916 4e36 EC       		.byte	0xec
 12917 4e37 97000000 		.4byte	0x97
 12918 4e3b 41       		.uleb128 0x41
 12919 4e3c BB2B0000 		.4byte	.LASF1075
 12920 4e40 0B       		.byte	0xb
 12921 4e41 E3       		.byte	0xe3
 12922 4e42 4C4E0000 		.4byte	0x4e4c
 12923 4e46 3F       		.uleb128 0x3f
 12924 4e47 97000000 		.4byte	0x97
 12925 4e4b 00       		.byte	0
 12926 4e4c 40       		.uleb128 0x40
 12927 4e4d 44300000 		.4byte	.LASF1076
 12928 4e51 0F       		.byte	0xf
 12929 4e52 0D       		.byte	0xd
 12930 4e53 B8000000 		.4byte	0xb8
 12931 4e57 44       		.uleb128 0x44
 12932 4e58 AC290000 		.4byte	.LASF1087
 12933 4e5c 14       		.byte	0x14
 12934 4e5d 00       		.byte	0
 12935 4e5e 61070000 		.4byte	.LASF1088
 12936 4e62 5D000000 		.4byte	0x5d
 12937 4e66 704E0000 		.4byte	0x4e70
 12938 4e6a 3F       		.uleb128 0x3f
 12939 4e6b 5D000000 		.4byte	0x5d
 12940 4e6f 00       		.byte	0
 12941 4e70 3E       		.uleb128 0x3e
 12942 4e71 6B060000 		.4byte	.LASF1077
 12943 4e75 11       		.byte	0x11
 12944 4e76 B1       		.byte	0xb1
 12945 4e77 5D000000 		.4byte	0x5d
 12946 4e7b 864E0000 		.4byte	0x4e86
 12947 4e7f 3F       		.uleb128 0x3f
 12948 4e80 8C000000 		.4byte	0x8c
 12949 4e84 42       		.uleb128 0x42
 12950 4e85 00       		.byte	0
 12951 4e86 3E       		.uleb128 0x3e
 12952 4e87 0C000000 		.4byte	.LASF1078
 12953 4e8b 0F       		.byte	0xf
 12954 4e8c 4A       		.byte	0x4a
 12955 4e8d B8000000 		.4byte	0xb8
 12956 4e91 9B4E0000 		.4byte	0x4e9b
 12957 4e95 3F       		.uleb128 0x3f
 12958 4e96 B8000000 		.4byte	0xb8
 12959 4e9a 00       		.byte	0
 12960 4e9b 41       		.uleb128 0x41
 12961 4e9c A5050000 		.4byte	.LASF1079
ARM GAS  C:\Users\AHMED~1.ELE\AppData\Local\Temp\cc0wYKcg.s 			page 255


 12962 4ea0 0F       		.byte	0xf
 12963 4ea1 28       		.byte	0x28
 12964 4ea2 B64E0000 		.4byte	0x4eb6
 12965 4ea6 3F       		.uleb128 0x3f
 12966 4ea7 E9000000 		.4byte	0xe9
 12967 4eab 3F       		.uleb128 0x3f
 12968 4eac E9000000 		.4byte	0xe9
 12969 4eb0 3F       		.uleb128 0x3f
 12970 4eb1 B8000000 		.4byte	0xb8
 12971 4eb5 00       		.byte	0
 12972 4eb6 40       		.uleb128 0x40
 12973 4eb7 1A2C0000 		.4byte	.LASF1080
 12974 4ebb 0F       		.byte	0xf
 12975 4ebc 0E       		.byte	0xe
 12976 4ebd B8000000 		.4byte	0xb8
 12977 4ec1 00       		.byte	0
 12978              		.section	.debug_abbrev,"",%progbits
 12979              	.Ldebug_abbrev0:
 12980 0000 01       		.uleb128 0x1
 12981 0001 11       		.uleb128 0x11
 12982 0002 01       		.byte	0x1
 12983 0003 25       		.uleb128 0x25
 12984 0004 0E       		.uleb128 0xe
 12985 0005 13       		.uleb128 0x13
 12986 0006 0B       		.uleb128 0xb
 12987 0007 03       		.uleb128 0x3
 12988 0008 0E       		.uleb128 0xe
 12989 0009 1B       		.uleb128 0x1b
 12990 000a 0E       		.uleb128 0xe
 12991 000b 55       		.uleb128 0x55
 12992 000c 17       		.uleb128 0x17
 12993 000d 11       		.uleb128 0x11
 12994 000e 01       		.uleb128 0x1
 12995 000f 10       		.uleb128 0x10
 12996 0010 17       		.uleb128 0x17
 12997 0011 00       		.byte	0
 12998 0012 00       		.byte	0
 12999 0013 02       		.uleb128 0x2
 13000 0014 24       		.uleb128 0x24
 13001 0015 00       		.byte	0
 13002 0016 0B       		.uleb128 0xb
 13003 0017 0B       		.uleb128 0xb
 13004 0018 3E       		.uleb128 0x3e
 13005 0019 0B       		.uleb128 0xb
 13006 001a 03       		.uleb128 0x3
 13007 001b 0E       		.uleb128 0xe
 13008 001c 00       		.byte	0
 13009 001d 00       		.byte	0
 13010 001e 03       		.uleb128 0x3
 13011 001f 24       		.uleb128 0x24
 13012 0020 00       		.byte	0
 13013 0021 0B       		.uleb128 0xb
 13014 0022 0B       		.uleb128 0xb
 13015 0023 3E       		.uleb128 0x3e
 13016 0024 0B       		.uleb128 0xb
 13017 0025 03       		.uleb128 0x3
 13018 0026 08       		.uleb128 0x8
ARM GAS  C:\Users\AHMED~1.ELE\AppData\Local\Temp\cc0wYKcg.s 			page 256


 13019 0027 00       		.byte	0
 13020 0028 00       		.byte	0
 13021 0029 04       		.uleb128 0x4
 13022 002a 16       		.uleb128 0x16
 13023 002b 00       		.byte	0
 13024 002c 03       		.uleb128 0x3
 13025 002d 0E       		.uleb128 0xe
 13026 002e 3A       		.uleb128 0x3a
 13027 002f 0B       		.uleb128 0xb
 13028 0030 3B       		.uleb128 0x3b
 13029 0031 0B       		.uleb128 0xb
 13030 0032 49       		.uleb128 0x49
 13031 0033 13       		.uleb128 0x13
 13032 0034 00       		.byte	0
 13033 0035 00       		.byte	0
 13034 0036 05       		.uleb128 0x5
 13035 0037 0F       		.uleb128 0xf
 13036 0038 00       		.byte	0
 13037 0039 0B       		.uleb128 0xb
 13038 003a 0B       		.uleb128 0xb
 13039 003b 00       		.byte	0
 13040 003c 00       		.byte	0
 13041 003d 06       		.uleb128 0x6
 13042 003e 0F       		.uleb128 0xf
 13043 003f 00       		.byte	0
 13044 0040 0B       		.uleb128 0xb
 13045 0041 0B       		.uleb128 0xb
 13046 0042 49       		.uleb128 0x49
 13047 0043 13       		.uleb128 0x13
 13048 0044 00       		.byte	0
 13049 0045 00       		.byte	0
 13050 0046 07       		.uleb128 0x7
 13051 0047 26       		.uleb128 0x26
 13052 0048 00       		.byte	0
 13053 0049 49       		.uleb128 0x49
 13054 004a 13       		.uleb128 0x13
 13055 004b 00       		.byte	0
 13056 004c 00       		.byte	0
 13057 004d 08       		.uleb128 0x8
 13058 004e 01       		.uleb128 0x1
 13059 004f 01       		.byte	0x1
 13060 0050 49       		.uleb128 0x49
 13061 0051 13       		.uleb128 0x13
 13062 0052 01       		.uleb128 0x1
 13063 0053 13       		.uleb128 0x13
 13064 0054 00       		.byte	0
 13065 0055 00       		.byte	0
 13066 0056 09       		.uleb128 0x9
 13067 0057 21       		.uleb128 0x21
 13068 0058 00       		.byte	0
 13069 0059 49       		.uleb128 0x49
 13070 005a 13       		.uleb128 0x13
 13071 005b 2F       		.uleb128 0x2f
 13072 005c 0B       		.uleb128 0xb
 13073 005d 00       		.byte	0
 13074 005e 00       		.byte	0
 13075 005f 0A       		.uleb128 0xa
ARM GAS  C:\Users\AHMED~1.ELE\AppData\Local\Temp\cc0wYKcg.s 			page 257


 13076 0060 13       		.uleb128 0x13
 13077 0061 01       		.byte	0x1
 13078 0062 0B       		.uleb128 0xb
 13079 0063 0B       		.uleb128 0xb
 13080 0064 3A       		.uleb128 0x3a
 13081 0065 0B       		.uleb128 0xb
 13082 0066 3B       		.uleb128 0x3b
 13083 0067 0B       		.uleb128 0xb
 13084 0068 01       		.uleb128 0x1
 13085 0069 13       		.uleb128 0x13
 13086 006a 00       		.byte	0
 13087 006b 00       		.byte	0
 13088 006c 0B       		.uleb128 0xb
 13089 006d 0D       		.uleb128 0xd
 13090 006e 00       		.byte	0
 13091 006f 03       		.uleb128 0x3
 13092 0070 0E       		.uleb128 0xe
 13093 0071 3A       		.uleb128 0x3a
 13094 0072 0B       		.uleb128 0xb
 13095 0073 3B       		.uleb128 0x3b
 13096 0074 0B       		.uleb128 0xb
 13097 0075 49       		.uleb128 0x49
 13098 0076 13       		.uleb128 0x13
 13099 0077 38       		.uleb128 0x38
 13100 0078 0B       		.uleb128 0xb
 13101 0079 00       		.byte	0
 13102 007a 00       		.byte	0
 13103 007b 0C       		.uleb128 0xc
 13104 007c 16       		.uleb128 0x16
 13105 007d 00       		.byte	0
 13106 007e 03       		.uleb128 0x3
 13107 007f 08       		.uleb128 0x8
 13108 0080 3A       		.uleb128 0x3a
 13109 0081 0B       		.uleb128 0xb
 13110 0082 3B       		.uleb128 0x3b
 13111 0083 0B       		.uleb128 0xb
 13112 0084 49       		.uleb128 0x49
 13113 0085 13       		.uleb128 0x13
 13114 0086 00       		.byte	0
 13115 0087 00       		.byte	0
 13116 0088 0D       		.uleb128 0xd
 13117 0089 04       		.uleb128 0x4
 13118 008a 01       		.byte	0x1
 13119 008b 03       		.uleb128 0x3
 13120 008c 0E       		.uleb128 0xe
 13121 008d 0B       		.uleb128 0xb
 13122 008e 0B       		.uleb128 0xb
 13123 008f 3A       		.uleb128 0x3a
 13124 0090 0B       		.uleb128 0xb
 13125 0091 3B       		.uleb128 0x3b
 13126 0092 05       		.uleb128 0x5
 13127 0093 01       		.uleb128 0x1
 13128 0094 13       		.uleb128 0x13
 13129 0095 00       		.byte	0
 13130 0096 00       		.byte	0
 13131 0097 0E       		.uleb128 0xe
 13132 0098 28       		.uleb128 0x28
ARM GAS  C:\Users\AHMED~1.ELE\AppData\Local\Temp\cc0wYKcg.s 			page 258


 13133 0099 00       		.byte	0
 13134 009a 03       		.uleb128 0x3
 13135 009b 0E       		.uleb128 0xe
 13136 009c 1C       		.uleb128 0x1c
 13137 009d 0D       		.uleb128 0xd
 13138 009e 00       		.byte	0
 13139 009f 00       		.byte	0
 13140 00a0 0F       		.uleb128 0xf
 13141 00a1 26       		.uleb128 0x26
 13142 00a2 00       		.byte	0
 13143 00a3 00       		.byte	0
 13144 00a4 00       		.byte	0
 13145 00a5 10       		.uleb128 0x10
 13146 00a6 04       		.uleb128 0x4
 13147 00a7 01       		.byte	0x1
 13148 00a8 0B       		.uleb128 0xb
 13149 00a9 0B       		.uleb128 0xb
 13150 00aa 3A       		.uleb128 0x3a
 13151 00ab 0B       		.uleb128 0xb
 13152 00ac 3B       		.uleb128 0x3b
 13153 00ad 05       		.uleb128 0x5
 13154 00ae 01       		.uleb128 0x1
 13155 00af 13       		.uleb128 0x13
 13156 00b0 00       		.byte	0
 13157 00b1 00       		.byte	0
 13158 00b2 11       		.uleb128 0x11
 13159 00b3 13       		.uleb128 0x13
 13160 00b4 01       		.byte	0x1
 13161 00b5 0B       		.uleb128 0xb
 13162 00b6 0B       		.uleb128 0xb
 13163 00b7 3A       		.uleb128 0x3a
 13164 00b8 0B       		.uleb128 0xb
 13165 00b9 3B       		.uleb128 0x3b
 13166 00ba 05       		.uleb128 0x5
 13167 00bb 01       		.uleb128 0x1
 13168 00bc 13       		.uleb128 0x13
 13169 00bd 00       		.byte	0
 13170 00be 00       		.byte	0
 13171 00bf 12       		.uleb128 0x12
 13172 00c0 0D       		.uleb128 0xd
 13173 00c1 00       		.byte	0
 13174 00c2 03       		.uleb128 0x3
 13175 00c3 0E       		.uleb128 0xe
 13176 00c4 3A       		.uleb128 0x3a
 13177 00c5 0B       		.uleb128 0xb
 13178 00c6 3B       		.uleb128 0x3b
 13179 00c7 05       		.uleb128 0x5
 13180 00c8 49       		.uleb128 0x49
 13181 00c9 13       		.uleb128 0x13
 13182 00ca 38       		.uleb128 0x38
 13183 00cb 0B       		.uleb128 0xb
 13184 00cc 00       		.byte	0
 13185 00cd 00       		.byte	0
 13186 00ce 13       		.uleb128 0x13
 13187 00cf 16       		.uleb128 0x16
 13188 00d0 00       		.byte	0
 13189 00d1 03       		.uleb128 0x3
ARM GAS  C:\Users\AHMED~1.ELE\AppData\Local\Temp\cc0wYKcg.s 			page 259


 13190 00d2 0E       		.uleb128 0xe
 13191 00d3 3A       		.uleb128 0x3a
 13192 00d4 0B       		.uleb128 0xb
 13193 00d5 3B       		.uleb128 0x3b
 13194 00d6 05       		.uleb128 0x5
 13195 00d7 49       		.uleb128 0x49
 13196 00d8 13       		.uleb128 0x13
 13197 00d9 00       		.byte	0
 13198 00da 00       		.byte	0
 13199 00db 14       		.uleb128 0x14
 13200 00dc 13       		.uleb128 0x13
 13201 00dd 01       		.byte	0x1
 13202 00de 03       		.uleb128 0x3
 13203 00df 0E       		.uleb128 0xe
 13204 00e0 0B       		.uleb128 0xb
 13205 00e1 05       		.uleb128 0x5
 13206 00e2 3A       		.uleb128 0x3a
 13207 00e3 0B       		.uleb128 0xb
 13208 00e4 3B       		.uleb128 0x3b
 13209 00e5 0B       		.uleb128 0xb
 13210 00e6 01       		.uleb128 0x1
 13211 00e7 13       		.uleb128 0x13
 13212 00e8 00       		.byte	0
 13213 00e9 00       		.byte	0
 13214 00ea 15       		.uleb128 0x15
 13215 00eb 21       		.uleb128 0x21
 13216 00ec 00       		.byte	0
 13217 00ed 49       		.uleb128 0x49
 13218 00ee 13       		.uleb128 0x13
 13219 00ef 2F       		.uleb128 0x2f
 13220 00f0 05       		.uleb128 0x5
 13221 00f1 00       		.byte	0
 13222 00f2 00       		.byte	0
 13223 00f3 16       		.uleb128 0x16
 13224 00f4 13       		.uleb128 0x13
 13225 00f5 01       		.byte	0x1
 13226 00f6 03       		.uleb128 0x3
 13227 00f7 0E       		.uleb128 0xe
 13228 00f8 0B       		.uleb128 0xb
 13229 00f9 0B       		.uleb128 0xb
 13230 00fa 3A       		.uleb128 0x3a
 13231 00fb 0B       		.uleb128 0xb
 13232 00fc 3B       		.uleb128 0x3b
 13233 00fd 05       		.uleb128 0x5
 13234 00fe 01       		.uleb128 0x1
 13235 00ff 13       		.uleb128 0x13
 13236 0100 00       		.byte	0
 13237 0101 00       		.byte	0
 13238 0102 17       		.uleb128 0x17
 13239 0103 04       		.uleb128 0x4
 13240 0104 01       		.byte	0x1
 13241 0105 0B       		.uleb128 0xb
 13242 0106 0B       		.uleb128 0xb
 13243 0107 3A       		.uleb128 0x3a
 13244 0108 0B       		.uleb128 0xb
 13245 0109 3B       		.uleb128 0x3b
 13246 010a 0B       		.uleb128 0xb
ARM GAS  C:\Users\AHMED~1.ELE\AppData\Local\Temp\cc0wYKcg.s 			page 260


 13247 010b 01       		.uleb128 0x1
 13248 010c 13       		.uleb128 0x13
 13249 010d 00       		.byte	0
 13250 010e 00       		.byte	0
 13251 010f 18       		.uleb128 0x18
 13252 0110 13       		.uleb128 0x13
 13253 0111 01       		.byte	0x1
 13254 0112 03       		.uleb128 0x3
 13255 0113 0E       		.uleb128 0xe
 13256 0114 0B       		.uleb128 0xb
 13257 0115 05       		.uleb128 0x5
 13258 0116 3A       		.uleb128 0x3a
 13259 0117 0B       		.uleb128 0xb
 13260 0118 3B       		.uleb128 0x3b
 13261 0119 05       		.uleb128 0x5
 13262 011a 01       		.uleb128 0x1
 13263 011b 13       		.uleb128 0x13
 13264 011c 00       		.byte	0
 13265 011d 00       		.byte	0
 13266 011e 19       		.uleb128 0x19
 13267 011f 0D       		.uleb128 0xd
 13268 0120 00       		.byte	0
 13269 0121 03       		.uleb128 0x3
 13270 0122 0E       		.uleb128 0xe
 13271 0123 3A       		.uleb128 0x3a
 13272 0124 0B       		.uleb128 0xb
 13273 0125 3B       		.uleb128 0x3b
 13274 0126 05       		.uleb128 0x5
 13275 0127 49       		.uleb128 0x49
 13276 0128 13       		.uleb128 0x13
 13277 0129 38       		.uleb128 0x38
 13278 012a 05       		.uleb128 0x5
 13279 012b 00       		.byte	0
 13280 012c 00       		.byte	0
 13281 012d 1A       		.uleb128 0x1a
 13282 012e 13       		.uleb128 0x13
 13283 012f 01       		.byte	0x1
 13284 0130 03       		.uleb128 0x3
 13285 0131 0E       		.uleb128 0xe
 13286 0132 0B       		.uleb128 0xb
 13287 0133 0B       		.uleb128 0xb
 13288 0134 3A       		.uleb128 0x3a
 13289 0135 0B       		.uleb128 0xb
 13290 0136 3B       		.uleb128 0x3b
 13291 0137 0B       		.uleb128 0xb
 13292 0138 01       		.uleb128 0x1
 13293 0139 13       		.uleb128 0x13
 13294 013a 00       		.byte	0
 13295 013b 00       		.byte	0
 13296 013c 1B       		.uleb128 0x1b
 13297 013d 0D       		.uleb128 0xd
 13298 013e 00       		.byte	0
 13299 013f 03       		.uleb128 0x3
 13300 0140 0E       		.uleb128 0xe
 13301 0141 3A       		.uleb128 0x3a
 13302 0142 0B       		.uleb128 0xb
 13303 0143 3B       		.uleb128 0x3b
ARM GAS  C:\Users\AHMED~1.ELE\AppData\Local\Temp\cc0wYKcg.s 			page 261


 13304 0144 0B       		.uleb128 0xb
 13305 0145 49       		.uleb128 0x49
 13306 0146 13       		.uleb128 0x13
 13307 0147 38       		.uleb128 0x38
 13308 0148 05       		.uleb128 0x5
 13309 0149 00       		.byte	0
 13310 014a 00       		.byte	0
 13311 014b 1C       		.uleb128 0x1c
 13312 014c 13       		.uleb128 0x13
 13313 014d 01       		.byte	0x1
 13314 014e 03       		.uleb128 0x3
 13315 014f 08       		.uleb128 0x8
 13316 0150 0B       		.uleb128 0xb
 13317 0151 05       		.uleb128 0x5
 13318 0152 3A       		.uleb128 0x3a
 13319 0153 0B       		.uleb128 0xb
 13320 0154 3B       		.uleb128 0x3b
 13321 0155 0B       		.uleb128 0xb
 13322 0156 01       		.uleb128 0x1
 13323 0157 13       		.uleb128 0x13
 13324 0158 00       		.byte	0
 13325 0159 00       		.byte	0
 13326 015a 1D       		.uleb128 0x1d
 13327 015b 2E       		.uleb128 0x2e
 13328 015c 01       		.byte	0x1
 13329 015d 03       		.uleb128 0x3
 13330 015e 0E       		.uleb128 0xe
 13331 015f 3A       		.uleb128 0x3a
 13332 0160 0B       		.uleb128 0xb
 13333 0161 3B       		.uleb128 0x3b
 13334 0162 0B       		.uleb128 0xb
 13335 0163 27       		.uleb128 0x27
 13336 0164 19       		.uleb128 0x19
 13337 0165 20       		.uleb128 0x20
 13338 0166 0B       		.uleb128 0xb
 13339 0167 01       		.uleb128 0x1
 13340 0168 13       		.uleb128 0x13
 13341 0169 00       		.byte	0
 13342 016a 00       		.byte	0
 13343 016b 1E       		.uleb128 0x1e
 13344 016c 05       		.uleb128 0x5
 13345 016d 00       		.byte	0
 13346 016e 03       		.uleb128 0x3
 13347 016f 0E       		.uleb128 0xe
 13348 0170 3A       		.uleb128 0x3a
 13349 0171 0B       		.uleb128 0xb
 13350 0172 3B       		.uleb128 0x3b
 13351 0173 0B       		.uleb128 0xb
 13352 0174 49       		.uleb128 0x49
 13353 0175 13       		.uleb128 0x13
 13354 0176 00       		.byte	0
 13355 0177 00       		.byte	0
 13356 0178 1F       		.uleb128 0x1f
 13357 0179 05       		.uleb128 0x5
 13358 017a 00       		.byte	0
 13359 017b 03       		.uleb128 0x3
 13360 017c 08       		.uleb128 0x8
ARM GAS  C:\Users\AHMED~1.ELE\AppData\Local\Temp\cc0wYKcg.s 			page 262


 13361 017d 3A       		.uleb128 0x3a
 13362 017e 0B       		.uleb128 0xb
 13363 017f 3B       		.uleb128 0x3b
 13364 0180 0B       		.uleb128 0xb
 13365 0181 49       		.uleb128 0x49
 13366 0182 13       		.uleb128 0x13
 13367 0183 00       		.byte	0
 13368 0184 00       		.byte	0
 13369 0185 20       		.uleb128 0x20
 13370 0186 34       		.uleb128 0x34
 13371 0187 00       		.byte	0
 13372 0188 03       		.uleb128 0x3
 13373 0189 08       		.uleb128 0x8
 13374 018a 3A       		.uleb128 0x3a
 13375 018b 0B       		.uleb128 0xb
 13376 018c 3B       		.uleb128 0x3b
 13377 018d 0B       		.uleb128 0xb
 13378 018e 49       		.uleb128 0x49
 13379 018f 13       		.uleb128 0x13
 13380 0190 00       		.byte	0
 13381 0191 00       		.byte	0
 13382 0192 21       		.uleb128 0x21
 13383 0193 2E       		.uleb128 0x2e
 13384 0194 01       		.byte	0x1
 13385 0195 31       		.uleb128 0x31
 13386 0196 13       		.uleb128 0x13
 13387 0197 11       		.uleb128 0x11
 13388 0198 01       		.uleb128 0x1
 13389 0199 12       		.uleb128 0x12
 13390 019a 06       		.uleb128 0x6
 13391 019b 40       		.uleb128 0x40
 13392 019c 18       		.uleb128 0x18
 13393 019d 9742     		.uleb128 0x2117
 13394 019f 19       		.uleb128 0x19
 13395 01a0 01       		.uleb128 0x1
 13396 01a1 13       		.uleb128 0x13
 13397 01a2 00       		.byte	0
 13398 01a3 00       		.byte	0
 13399 01a4 22       		.uleb128 0x22
 13400 01a5 05       		.uleb128 0x5
 13401 01a6 00       		.byte	0
 13402 01a7 31       		.uleb128 0x31
 13403 01a8 13       		.uleb128 0x13
 13404 01a9 02       		.uleb128 0x2
 13405 01aa 17       		.uleb128 0x17
 13406 01ab 00       		.byte	0
 13407 01ac 00       		.byte	0
 13408 01ad 23       		.uleb128 0x23
 13409 01ae 05       		.uleb128 0x5
 13410 01af 00       		.byte	0
 13411 01b0 31       		.uleb128 0x31
 13412 01b1 13       		.uleb128 0x13
 13413 01b2 02       		.uleb128 0x2
 13414 01b3 18       		.uleb128 0x18
 13415 01b4 00       		.byte	0
 13416 01b5 00       		.byte	0
 13417 01b6 24       		.uleb128 0x24
ARM GAS  C:\Users\AHMED~1.ELE\AppData\Local\Temp\cc0wYKcg.s 			page 263


 13418 01b7 34       		.uleb128 0x34
 13419 01b8 00       		.byte	0
 13420 01b9 31       		.uleb128 0x31
 13421 01ba 13       		.uleb128 0x13
 13422 01bb 1C       		.uleb128 0x1c
 13423 01bc 0B       		.uleb128 0xb
 13424 01bd 00       		.byte	0
 13425 01be 00       		.byte	0
 13426 01bf 25       		.uleb128 0x25
 13427 01c0 898201   		.uleb128 0x4109
 13428 01c3 01       		.byte	0x1
 13429 01c4 11       		.uleb128 0x11
 13430 01c5 01       		.uleb128 0x1
 13431 01c6 9542     		.uleb128 0x2115
 13432 01c8 19       		.uleb128 0x19
 13433 01c9 31       		.uleb128 0x31
 13434 01ca 13       		.uleb128 0x13
 13435 01cb 00       		.byte	0
 13436 01cc 00       		.byte	0
 13437 01cd 26       		.uleb128 0x26
 13438 01ce 8A8201   		.uleb128 0x410a
 13439 01d1 00       		.byte	0
 13440 01d2 02       		.uleb128 0x2
 13441 01d3 18       		.uleb128 0x18
 13442 01d4 9142     		.uleb128 0x2111
 13443 01d6 18       		.uleb128 0x18
 13444 01d7 00       		.byte	0
 13445 01d8 00       		.byte	0
 13446 01d9 27       		.uleb128 0x27
 13447 01da 2E       		.uleb128 0x2e
 13448 01db 01       		.byte	0x1
 13449 01dc 3F       		.uleb128 0x3f
 13450 01dd 19       		.uleb128 0x19
 13451 01de 03       		.uleb128 0x3
 13452 01df 0E       		.uleb128 0xe
 13453 01e0 3A       		.uleb128 0x3a
 13454 01e1 0B       		.uleb128 0xb
 13455 01e2 3B       		.uleb128 0x3b
 13456 01e3 0B       		.uleb128 0xb
 13457 01e4 27       		.uleb128 0x27
 13458 01e5 19       		.uleb128 0x19
 13459 01e6 11       		.uleb128 0x11
 13460 01e7 01       		.uleb128 0x1
 13461 01e8 12       		.uleb128 0x12
 13462 01e9 06       		.uleb128 0x6
 13463 01ea 40       		.uleb128 0x40
 13464 01eb 18       		.uleb128 0x18
 13465 01ec 9742     		.uleb128 0x2117
 13466 01ee 19       		.uleb128 0x19
 13467 01ef 01       		.uleb128 0x1
 13468 01f0 13       		.uleb128 0x13
 13469 01f1 00       		.byte	0
 13470 01f2 00       		.byte	0
 13471 01f3 28       		.uleb128 0x28
 13472 01f4 05       		.uleb128 0x5
 13473 01f5 00       		.byte	0
 13474 01f6 03       		.uleb128 0x3
ARM GAS  C:\Users\AHMED~1.ELE\AppData\Local\Temp\cc0wYKcg.s 			page 264


 13475 01f7 0E       		.uleb128 0xe
 13476 01f8 3A       		.uleb128 0x3a
 13477 01f9 0B       		.uleb128 0xb
 13478 01fa 3B       		.uleb128 0x3b
 13479 01fb 0B       		.uleb128 0xb
 13480 01fc 49       		.uleb128 0x49
 13481 01fd 13       		.uleb128 0x13
 13482 01fe 02       		.uleb128 0x2
 13483 01ff 18       		.uleb128 0x18
 13484 0200 00       		.byte	0
 13485 0201 00       		.byte	0
 13486 0202 29       		.uleb128 0x29
 13487 0203 05       		.uleb128 0x5
 13488 0204 00       		.byte	0
 13489 0205 03       		.uleb128 0x3
 13490 0206 0E       		.uleb128 0xe
 13491 0207 3A       		.uleb128 0x3a
 13492 0208 0B       		.uleb128 0xb
 13493 0209 3B       		.uleb128 0x3b
 13494 020a 0B       		.uleb128 0xb
 13495 020b 49       		.uleb128 0x49
 13496 020c 13       		.uleb128 0x13
 13497 020d 02       		.uleb128 0x2
 13498 020e 17       		.uleb128 0x17
 13499 020f 00       		.byte	0
 13500 0210 00       		.byte	0
 13501 0211 2A       		.uleb128 0x2a
 13502 0212 34       		.uleb128 0x34
 13503 0213 00       		.byte	0
 13504 0214 03       		.uleb128 0x3
 13505 0215 0E       		.uleb128 0xe
 13506 0216 3A       		.uleb128 0x3a
 13507 0217 0B       		.uleb128 0xb
 13508 0218 3B       		.uleb128 0x3b
 13509 0219 0B       		.uleb128 0xb
 13510 021a 49       		.uleb128 0x49
 13511 021b 13       		.uleb128 0x13
 13512 021c 02       		.uleb128 0x2
 13513 021d 17       		.uleb128 0x17
 13514 021e 00       		.byte	0
 13515 021f 00       		.byte	0
 13516 0220 2B       		.uleb128 0x2b
 13517 0221 34       		.uleb128 0x34
 13518 0222 00       		.byte	0
 13519 0223 03       		.uleb128 0x3
 13520 0224 0E       		.uleb128 0xe
 13521 0225 3A       		.uleb128 0x3a
 13522 0226 0B       		.uleb128 0xb
 13523 0227 3B       		.uleb128 0x3b
 13524 0228 0B       		.uleb128 0xb
 13525 0229 49       		.uleb128 0x49
 13526 022a 13       		.uleb128 0x13
 13527 022b 02       		.uleb128 0x2
 13528 022c 18       		.uleb128 0x18
 13529 022d 00       		.byte	0
 13530 022e 00       		.byte	0
 13531 022f 2C       		.uleb128 0x2c
ARM GAS  C:\Users\AHMED~1.ELE\AppData\Local\Temp\cc0wYKcg.s 			page 265


 13532 0230 34       		.uleb128 0x34
 13533 0231 00       		.byte	0
 13534 0232 03       		.uleb128 0x3
 13535 0233 08       		.uleb128 0x8
 13536 0234 3A       		.uleb128 0x3a
 13537 0235 0B       		.uleb128 0xb
 13538 0236 3B       		.uleb128 0x3b
 13539 0237 0B       		.uleb128 0xb
 13540 0238 49       		.uleb128 0x49
 13541 0239 13       		.uleb128 0x13
 13542 023a 02       		.uleb128 0x2
 13543 023b 18       		.uleb128 0x18
 13544 023c 00       		.byte	0
 13545 023d 00       		.byte	0
 13546 023e 2D       		.uleb128 0x2d
 13547 023f 898201   		.uleb128 0x4109
 13548 0242 00       		.byte	0
 13549 0243 11       		.uleb128 0x11
 13550 0244 01       		.uleb128 0x1
 13551 0245 31       		.uleb128 0x31
 13552 0246 13       		.uleb128 0x13
 13553 0247 00       		.byte	0
 13554 0248 00       		.byte	0
 13555 0249 2E       		.uleb128 0x2e
 13556 024a 898201   		.uleb128 0x4109
 13557 024d 01       		.byte	0x1
 13558 024e 11       		.uleb128 0x11
 13559 024f 01       		.uleb128 0x1
 13560 0250 31       		.uleb128 0x31
 13561 0251 13       		.uleb128 0x13
 13562 0252 01       		.uleb128 0x1
 13563 0253 13       		.uleb128 0x13
 13564 0254 00       		.byte	0
 13565 0255 00       		.byte	0
 13566 0256 2F       		.uleb128 0x2f
 13567 0257 898201   		.uleb128 0x4109
 13568 025a 01       		.byte	0x1
 13569 025b 11       		.uleb128 0x11
 13570 025c 01       		.uleb128 0x1
 13571 025d 31       		.uleb128 0x31
 13572 025e 13       		.uleb128 0x13
 13573 025f 00       		.byte	0
 13574 0260 00       		.byte	0
 13575 0261 30       		.uleb128 0x30
 13576 0262 2E       		.uleb128 0x2e
 13577 0263 01       		.byte	0x1
 13578 0264 03       		.uleb128 0x3
 13579 0265 0E       		.uleb128 0xe
 13580 0266 3A       		.uleb128 0x3a
 13581 0267 0B       		.uleb128 0xb
 13582 0268 3B       		.uleb128 0x3b
 13583 0269 0B       		.uleb128 0xb
 13584 026a 27       		.uleb128 0x27
 13585 026b 19       		.uleb128 0x19
 13586 026c 49       		.uleb128 0x49
 13587 026d 13       		.uleb128 0x13
 13588 026e 20       		.uleb128 0x20
ARM GAS  C:\Users\AHMED~1.ELE\AppData\Local\Temp\cc0wYKcg.s 			page 266


 13589 026f 0B       		.uleb128 0xb
 13590 0270 01       		.uleb128 0x1
 13591 0271 13       		.uleb128 0x13
 13592 0272 00       		.byte	0
 13593 0273 00       		.byte	0
 13594 0274 31       		.uleb128 0x31
 13595 0275 2E       		.uleb128 0x2e
 13596 0276 01       		.byte	0x1
 13597 0277 3F       		.uleb128 0x3f
 13598 0278 19       		.uleb128 0x19
 13599 0279 03       		.uleb128 0x3
 13600 027a 0E       		.uleb128 0xe
 13601 027b 3A       		.uleb128 0x3a
 13602 027c 0B       		.uleb128 0xb
 13603 027d 3B       		.uleb128 0x3b
 13604 027e 05       		.uleb128 0x5
 13605 027f 27       		.uleb128 0x27
 13606 0280 19       		.uleb128 0x19
 13607 0281 49       		.uleb128 0x49
 13608 0282 13       		.uleb128 0x13
 13609 0283 11       		.uleb128 0x11
 13610 0284 01       		.uleb128 0x1
 13611 0285 12       		.uleb128 0x12
 13612 0286 06       		.uleb128 0x6
 13613 0287 40       		.uleb128 0x40
 13614 0288 18       		.uleb128 0x18
 13615 0289 9742     		.uleb128 0x2117
 13616 028b 19       		.uleb128 0x19
 13617 028c 01       		.uleb128 0x1
 13618 028d 13       		.uleb128 0x13
 13619 028e 00       		.byte	0
 13620 028f 00       		.byte	0
 13621 0290 32       		.uleb128 0x32
 13622 0291 34       		.uleb128 0x34
 13623 0292 00       		.byte	0
 13624 0293 03       		.uleb128 0x3
 13625 0294 0E       		.uleb128 0xe
 13626 0295 3A       		.uleb128 0x3a
 13627 0296 0B       		.uleb128 0xb
 13628 0297 3B       		.uleb128 0x3b
 13629 0298 05       		.uleb128 0x5
 13630 0299 49       		.uleb128 0x49
 13631 029a 13       		.uleb128 0x13
 13632 029b 02       		.uleb128 0x2
 13633 029c 17       		.uleb128 0x17
 13634 029d 00       		.byte	0
 13635 029e 00       		.byte	0
 13636 029f 33       		.uleb128 0x33
 13637 02a0 34       		.uleb128 0x34
 13638 02a1 00       		.byte	0
 13639 02a2 03       		.uleb128 0x3
 13640 02a3 0E       		.uleb128 0xe
 13641 02a4 3A       		.uleb128 0x3a
 13642 02a5 0B       		.uleb128 0xb
 13643 02a6 3B       		.uleb128 0x3b
 13644 02a7 05       		.uleb128 0x5
 13645 02a8 49       		.uleb128 0x49
ARM GAS  C:\Users\AHMED~1.ELE\AppData\Local\Temp\cc0wYKcg.s 			page 267


 13646 02a9 13       		.uleb128 0x13
 13647 02aa 02       		.uleb128 0x2
 13648 02ab 18       		.uleb128 0x18
 13649 02ac 00       		.byte	0
 13650 02ad 00       		.byte	0
 13651 02ae 34       		.uleb128 0x34
 13652 02af 34       		.uleb128 0x34
 13653 02b0 00       		.byte	0
 13654 02b1 03       		.uleb128 0x3
 13655 02b2 08       		.uleb128 0x8
 13656 02b3 3A       		.uleb128 0x3a
 13657 02b4 0B       		.uleb128 0xb
 13658 02b5 3B       		.uleb128 0x3b
 13659 02b6 05       		.uleb128 0x5
 13660 02b7 49       		.uleb128 0x49
 13661 02b8 13       		.uleb128 0x13
 13662 02b9 02       		.uleb128 0x2
 13663 02ba 18       		.uleb128 0x18
 13664 02bb 00       		.byte	0
 13665 02bc 00       		.byte	0
 13666 02bd 35       		.uleb128 0x35
 13667 02be 34       		.uleb128 0x34
 13668 02bf 00       		.byte	0
 13669 02c0 03       		.uleb128 0x3
 13670 02c1 0E       		.uleb128 0xe
 13671 02c2 3A       		.uleb128 0x3a
 13672 02c3 0B       		.uleb128 0xb
 13673 02c4 3B       		.uleb128 0x3b
 13674 02c5 05       		.uleb128 0x5
 13675 02c6 49       		.uleb128 0x49
 13676 02c7 13       		.uleb128 0x13
 13677 02c8 00       		.byte	0
 13678 02c9 00       		.byte	0
 13679 02ca 36       		.uleb128 0x36
 13680 02cb 34       		.uleb128 0x34
 13681 02cc 00       		.byte	0
 13682 02cd 03       		.uleb128 0x3
 13683 02ce 08       		.uleb128 0x8
 13684 02cf 3A       		.uleb128 0x3a
 13685 02d0 0B       		.uleb128 0xb
 13686 02d1 3B       		.uleb128 0x3b
 13687 02d2 05       		.uleb128 0x5
 13688 02d3 49       		.uleb128 0x49
 13689 02d4 13       		.uleb128 0x13
 13690 02d5 1C       		.uleb128 0x1c
 13691 02d6 0B       		.uleb128 0xb
 13692 02d7 00       		.byte	0
 13693 02d8 00       		.byte	0
 13694 02d9 37       		.uleb128 0x37
 13695 02da 34       		.uleb128 0x34
 13696 02db 00       		.byte	0
 13697 02dc 03       		.uleb128 0x3
 13698 02dd 08       		.uleb128 0x8
 13699 02de 3A       		.uleb128 0x3a
 13700 02df 0B       		.uleb128 0xb
 13701 02e0 3B       		.uleb128 0x3b
 13702 02e1 05       		.uleb128 0x5
ARM GAS  C:\Users\AHMED~1.ELE\AppData\Local\Temp\cc0wYKcg.s 			page 268


 13703 02e2 49       		.uleb128 0x49
 13704 02e3 13       		.uleb128 0x13
 13705 02e4 00       		.byte	0
 13706 02e5 00       		.byte	0
 13707 02e6 38       		.uleb128 0x38
 13708 02e7 1D       		.uleb128 0x1d
 13709 02e8 01       		.byte	0x1
 13710 02e9 31       		.uleb128 0x31
 13711 02ea 13       		.uleb128 0x13
 13712 02eb 11       		.uleb128 0x11
 13713 02ec 01       		.uleb128 0x1
 13714 02ed 12       		.uleb128 0x12
 13715 02ee 06       		.uleb128 0x6
 13716 02ef 58       		.uleb128 0x58
 13717 02f0 0B       		.uleb128 0xb
 13718 02f1 59       		.uleb128 0x59
 13719 02f2 05       		.uleb128 0x5
 13720 02f3 01       		.uleb128 0x1
 13721 02f4 13       		.uleb128 0x13
 13722 02f5 00       		.byte	0
 13723 02f6 00       		.byte	0
 13724 02f7 39       		.uleb128 0x39
 13725 02f8 0B       		.uleb128 0xb
 13726 02f9 01       		.byte	0x1
 13727 02fa 11       		.uleb128 0x11
 13728 02fb 01       		.uleb128 0x1
 13729 02fc 12       		.uleb128 0x12
 13730 02fd 06       		.uleb128 0x6
 13731 02fe 00       		.byte	0
 13732 02ff 00       		.byte	0
 13733 0300 3A       		.uleb128 0x3a
 13734 0301 34       		.uleb128 0x34
 13735 0302 00       		.byte	0
 13736 0303 31       		.uleb128 0x31
 13737 0304 13       		.uleb128 0x13
 13738 0305 02       		.uleb128 0x2
 13739 0306 18       		.uleb128 0x18
 13740 0307 00       		.byte	0
 13741 0308 00       		.byte	0
 13742 0309 3B       		.uleb128 0x3b
 13743 030a 8A8201   		.uleb128 0x410a
 13744 030d 00       		.byte	0
 13745 030e 31       		.uleb128 0x31
 13746 030f 13       		.uleb128 0x13
 13747 0310 9142     		.uleb128 0x2111
 13748 0312 18       		.uleb128 0x18
 13749 0313 00       		.byte	0
 13750 0314 00       		.byte	0
 13751 0315 3C       		.uleb128 0x3c
 13752 0316 34       		.uleb128 0x34
 13753 0317 00       		.byte	0
 13754 0318 03       		.uleb128 0x3
 13755 0319 0E       		.uleb128 0xe
 13756 031a 3A       		.uleb128 0x3a
 13757 031b 0B       		.uleb128 0xb
 13758 031c 3B       		.uleb128 0x3b
 13759 031d 0B       		.uleb128 0xb
ARM GAS  C:\Users\AHMED~1.ELE\AppData\Local\Temp\cc0wYKcg.s 			page 269


 13760 031e 49       		.uleb128 0x49
 13761 031f 13       		.uleb128 0x13
 13762 0320 3F       		.uleb128 0x3f
 13763 0321 19       		.uleb128 0x19
 13764 0322 3C       		.uleb128 0x3c
 13765 0323 19       		.uleb128 0x19
 13766 0324 00       		.byte	0
 13767 0325 00       		.byte	0
 13768 0326 3D       		.uleb128 0x3d
 13769 0327 34       		.uleb128 0x34
 13770 0328 00       		.byte	0
 13771 0329 03       		.uleb128 0x3
 13772 032a 0E       		.uleb128 0xe
 13773 032b 3A       		.uleb128 0x3a
 13774 032c 0B       		.uleb128 0xb
 13775 032d 3B       		.uleb128 0x3b
 13776 032e 0B       		.uleb128 0xb
 13777 032f 49       		.uleb128 0x49
 13778 0330 13       		.uleb128 0x13
 13779 0331 3F       		.uleb128 0x3f
 13780 0332 19       		.uleb128 0x19
 13781 0333 02       		.uleb128 0x2
 13782 0334 18       		.uleb128 0x18
 13783 0335 00       		.byte	0
 13784 0336 00       		.byte	0
 13785 0337 3E       		.uleb128 0x3e
 13786 0338 2E       		.uleb128 0x2e
 13787 0339 01       		.byte	0x1
 13788 033a 3F       		.uleb128 0x3f
 13789 033b 19       		.uleb128 0x19
 13790 033c 03       		.uleb128 0x3
 13791 033d 0E       		.uleb128 0xe
 13792 033e 3A       		.uleb128 0x3a
 13793 033f 0B       		.uleb128 0xb
 13794 0340 3B       		.uleb128 0x3b
 13795 0341 0B       		.uleb128 0xb
 13796 0342 27       		.uleb128 0x27
 13797 0343 19       		.uleb128 0x19
 13798 0344 49       		.uleb128 0x49
 13799 0345 13       		.uleb128 0x13
 13800 0346 3C       		.uleb128 0x3c
 13801 0347 19       		.uleb128 0x19
 13802 0348 01       		.uleb128 0x1
 13803 0349 13       		.uleb128 0x13
 13804 034a 00       		.byte	0
 13805 034b 00       		.byte	0
 13806 034c 3F       		.uleb128 0x3f
 13807 034d 05       		.uleb128 0x5
 13808 034e 00       		.byte	0
 13809 034f 49       		.uleb128 0x49
 13810 0350 13       		.uleb128 0x13
 13811 0351 00       		.byte	0
 13812 0352 00       		.byte	0
 13813 0353 40       		.uleb128 0x40
 13814 0354 2E       		.uleb128 0x2e
 13815 0355 00       		.byte	0
 13816 0356 3F       		.uleb128 0x3f
ARM GAS  C:\Users\AHMED~1.ELE\AppData\Local\Temp\cc0wYKcg.s 			page 270


 13817 0357 19       		.uleb128 0x19
 13818 0358 03       		.uleb128 0x3
 13819 0359 0E       		.uleb128 0xe
 13820 035a 3A       		.uleb128 0x3a
 13821 035b 0B       		.uleb128 0xb
 13822 035c 3B       		.uleb128 0x3b
 13823 035d 0B       		.uleb128 0xb
 13824 035e 27       		.uleb128 0x27
 13825 035f 19       		.uleb128 0x19
 13826 0360 49       		.uleb128 0x49
 13827 0361 13       		.uleb128 0x13
 13828 0362 3C       		.uleb128 0x3c
 13829 0363 19       		.uleb128 0x19
 13830 0364 00       		.byte	0
 13831 0365 00       		.byte	0
 13832 0366 41       		.uleb128 0x41
 13833 0367 2E       		.uleb128 0x2e
 13834 0368 01       		.byte	0x1
 13835 0369 3F       		.uleb128 0x3f
 13836 036a 19       		.uleb128 0x19
 13837 036b 03       		.uleb128 0x3
 13838 036c 0E       		.uleb128 0xe
 13839 036d 3A       		.uleb128 0x3a
 13840 036e 0B       		.uleb128 0xb
 13841 036f 3B       		.uleb128 0x3b
 13842 0370 0B       		.uleb128 0xb
 13843 0371 27       		.uleb128 0x27
 13844 0372 19       		.uleb128 0x19
 13845 0373 3C       		.uleb128 0x3c
 13846 0374 19       		.uleb128 0x19
 13847 0375 01       		.uleb128 0x1
 13848 0376 13       		.uleb128 0x13
 13849 0377 00       		.byte	0
 13850 0378 00       		.byte	0
 13851 0379 42       		.uleb128 0x42
 13852 037a 18       		.uleb128 0x18
 13853 037b 00       		.byte	0
 13854 037c 00       		.byte	0
 13855 037d 00       		.byte	0
 13856 037e 43       		.uleb128 0x43
 13857 037f 2E       		.uleb128 0x2e
 13858 0380 01       		.byte	0x1
 13859 0381 3F       		.uleb128 0x3f
 13860 0382 19       		.uleb128 0x19
 13861 0383 03       		.uleb128 0x3
 13862 0384 0E       		.uleb128 0xe
 13863 0385 27       		.uleb128 0x27
 13864 0386 19       		.uleb128 0x19
 13865 0387 49       		.uleb128 0x49
 13866 0388 13       		.uleb128 0x13
 13867 0389 34       		.uleb128 0x34
 13868 038a 19       		.uleb128 0x19
 13869 038b 3C       		.uleb128 0x3c
 13870 038c 19       		.uleb128 0x19
 13871 038d 01       		.uleb128 0x1
 13872 038e 13       		.uleb128 0x13
 13873 038f 00       		.byte	0
ARM GAS  C:\Users\AHMED~1.ELE\AppData\Local\Temp\cc0wYKcg.s 			page 271


 13874 0390 00       		.byte	0
 13875 0391 44       		.uleb128 0x44
 13876 0392 2E       		.uleb128 0x2e
 13877 0393 01       		.byte	0x1
 13878 0394 3F       		.uleb128 0x3f
 13879 0395 19       		.uleb128 0x19
 13880 0396 03       		.uleb128 0x3
 13881 0397 0E       		.uleb128 0xe
 13882 0398 3A       		.uleb128 0x3a
 13883 0399 0B       		.uleb128 0xb
 13884 039a 3B       		.uleb128 0x3b
 13885 039b 0B       		.uleb128 0xb
 13886 039c 6E       		.uleb128 0x6e
 13887 039d 0E       		.uleb128 0xe
 13888 039e 27       		.uleb128 0x27
 13889 039f 19       		.uleb128 0x19
 13890 03a0 49       		.uleb128 0x49
 13891 03a1 13       		.uleb128 0x13
 13892 03a2 3C       		.uleb128 0x3c
 13893 03a3 19       		.uleb128 0x19
 13894 03a4 01       		.uleb128 0x1
 13895 03a5 13       		.uleb128 0x13
 13896 03a6 00       		.byte	0
 13897 03a7 00       		.byte	0
 13898 03a8 00       		.byte	0
 13899              		.section	.debug_loc,"",%progbits
 13900              	.Ldebug_loc0:
 13901              	.LLST0:
 13902 0000 00000000 		.4byte	.LVL0
 13903 0004 04000000 		.4byte	.LVL1
 13904 0008 0100     		.2byte	0x1
 13905 000a 50       		.byte	0x50
 13906 000b 04000000 		.4byte	.LVL1
 13907 000f 07000000 		.4byte	.LVL2-1
 13908 0013 0100     		.2byte	0x1
 13909 0015 51       		.byte	0x51
 13910 0016 07000000 		.4byte	.LVL2-1
 13911 001a 0C000000 		.4byte	.LFE8
 13912 001e 0400     		.2byte	0x4
 13913 0020 F3       		.byte	0xf3
 13914 0021 01       		.uleb128 0x1
 13915 0022 50       		.byte	0x50
 13916 0023 9F       		.byte	0x9f
 13917 0024 00000000 		.4byte	0
 13918 0028 00000000 		.4byte	0
 13919              	.LLST1:
 13920 002c 00000000 		.4byte	.LVL3
 13921 0030 28000000 		.4byte	.LVL4
 13922 0034 0100     		.2byte	0x1
 13923 0036 51       		.byte	0x51
 13924 0037 28000000 		.4byte	.LVL4
 13925 003b 3C000000 		.4byte	.LFE5
 13926 003f 0100     		.2byte	0x1
 13927 0041 51       		.byte	0x51
 13928 0042 00000000 		.4byte	0
 13929 0046 00000000 		.4byte	0
 13930              	.LLST2:
ARM GAS  C:\Users\AHMED~1.ELE\AppData\Local\Temp\cc0wYKcg.s 			page 272


 13931 004a 2C000000 		.4byte	.LVL11
 13932 004e 2E000000 		.4byte	.LVL12
 13933 0052 0100     		.2byte	0x1
 13934 0054 50       		.byte	0x50
 13935 0055 2E000000 		.4byte	.LVL12
 13936 0059 E8090000 		.4byte	.LVL202
 13937 005d 0100     		.2byte	0x1
 13938 005f 57       		.byte	0x57
 13939 0060 00000000 		.4byte	0
 13940 0064 00000000 		.4byte	0
 13941              	.LLST3:
 13942 0068 A0000000 		.4byte	.LVL27
 13943 006c A4000000 		.4byte	.LVL28
 13944 0070 0100     		.2byte	0x1
 13945 0072 50       		.byte	0x50
 13946 0073 A4000000 		.4byte	.LVL28
 13947 0077 E8090000 		.4byte	.LVL202
 13948 007b 0100     		.2byte	0x1
 13949 007d 56       		.byte	0x56
 13950 007e 00000000 		.4byte	0
 13951 0082 00000000 		.4byte	0
 13952              	.LLST4:
 13953 0086 D8000000 		.4byte	.LVL34
 13954 008a 1C010000 		.4byte	.LVL42
 13955 008e 0100     		.2byte	0x1
 13956 0090 58       		.byte	0x58
 13957 0091 EA050000 		.4byte	.LVL128
 13958 0095 EC050000 		.4byte	.LVL129
 13959 0099 0200     		.2byte	0x2
 13960 009b 30       		.byte	0x30
 13961 009c 9F       		.byte	0x9f
 13962 009d EC050000 		.4byte	.LVL129
 13963 00a1 72060000 		.4byte	.LVL132
 13964 00a5 0100     		.2byte	0x1
 13965 00a7 54       		.byte	0x54
 13966 00a8 72060000 		.4byte	.LVL132
 13967 00ac 74060000 		.4byte	.LVL133
 13968 00b0 0300     		.2byte	0x3
 13969 00b2 74       		.byte	0x74
 13970 00b3 01       		.sleb128 1
 13971 00b4 9F       		.byte	0x9f
 13972 00b5 14070000 		.4byte	.LVL146
 13973 00b9 C6070000 		.4byte	.LVL163
 13974 00bd 0100     		.2byte	0x1
 13975 00bf 58       		.byte	0x58
 13976 00c0 00000000 		.4byte	0
 13977 00c4 00000000 		.4byte	0
 13978              	.LLST5:
 13979 00c8 F0000000 		.4byte	.LVL36
 13980 00cc FC000000 		.4byte	.LVL37
 13981 00d0 0100     		.2byte	0x1
 13982 00d2 55       		.byte	0x55
 13983 00d3 FC000000 		.4byte	.LVL37
 13984 00d7 FE000000 		.4byte	.LVL38
 13985 00db 0500     		.2byte	0x5
 13986 00dd 78       		.byte	0x78
 13987 00de 00       		.sleb128 0
ARM GAS  C:\Users\AHMED~1.ELE\AppData\Local\Temp\cc0wYKcg.s 			page 273


 13988 00df 31       		.byte	0x31
 13989 00e0 24       		.byte	0x24
 13990 00e1 9F       		.byte	0x9f
 13991 00e2 FE000000 		.4byte	.LVL38
 13992 00e6 1C010000 		.4byte	.LVL42
 13993 00ea 0100     		.2byte	0x1
 13994 00ec 55       		.byte	0x55
 13995 00ed 2C070000 		.4byte	.LVL148
 13996 00f1 38070000 		.4byte	.LVL149
 13997 00f5 0100     		.2byte	0x1
 13998 00f7 55       		.byte	0x55
 13999 00f8 38070000 		.4byte	.LVL149
 14000 00fc 3A070000 		.4byte	.LVL150
 14001 0100 0500     		.2byte	0x5
 14002 0102 78       		.byte	0x78
 14003 0103 00       		.sleb128 0
 14004 0104 31       		.byte	0x31
 14005 0105 24       		.byte	0x24
 14006 0106 9F       		.byte	0x9f
 14007 0107 3A070000 		.4byte	.LVL150
 14008 010b 80070000 		.4byte	.LVL157
 14009 010f 0100     		.2byte	0x1
 14010 0111 55       		.byte	0x55
 14011 0112 00000000 		.4byte	0
 14012 0116 00000000 		.4byte	0
 14013              	.LLST6:
 14014 011a 76010000 		.4byte	.LVL228
 14015 011e 78010000 		.4byte	.LVL229
 14016 0122 0100     		.2byte	0x1
 14017 0124 50       		.byte	0x50
 14018 0125 78010000 		.4byte	.LVL229
 14019 0129 84010000 		.4byte	.LVL231
 14020 012d 0100     		.2byte	0x1
 14021 012f 55       		.byte	0x55
 14022 0130 74030000 		.4byte	.LVL273
 14023 0134 77030000 		.4byte	.LVL274-1
 14024 0138 0100     		.2byte	0x1
 14025 013a 50       		.byte	0x50
 14026 013b 94030000 		.4byte	.LVL277
 14027 013f 97030000 		.4byte	.LVL278-1
 14028 0143 0100     		.2byte	0x1
 14029 0145 50       		.byte	0x50
 14030 0146 B4030000 		.4byte	.LVL281
 14031 014a B7030000 		.4byte	.LVL282-1
 14032 014e 0100     		.2byte	0x1
 14033 0150 50       		.byte	0x50
 14034 0151 86040000 		.4byte	.LVL299
 14035 0155 89040000 		.4byte	.LVL300-1
 14036 0159 0100     		.2byte	0x1
 14037 015b 50       		.byte	0x50
 14038 015c A6040000 		.4byte	.LVL303
 14039 0160 CF040000 		.4byte	.LVL305-1
 14040 0164 0100     		.2byte	0x1
 14041 0166 50       		.byte	0x50
 14042 0167 F2040000 		.4byte	.LVL309
 14043 016b F4040000 		.4byte	.LVL310
 14044 016f 0100     		.2byte	0x1
ARM GAS  C:\Users\AHMED~1.ELE\AppData\Local\Temp\cc0wYKcg.s 			page 274


 14045 0171 50       		.byte	0x50
 14046 0172 F4040000 		.4byte	.LVL310
 14047 0176 FE040000 		.4byte	.LVL312
 14048 017a 0100     		.2byte	0x1
 14049 017c 55       		.byte	0x55
 14050 017d 6E050000 		.4byte	.LVL322
 14051 0181 70050000 		.4byte	.LVL323
 14052 0185 0100     		.2byte	0x1
 14053 0187 50       		.byte	0x50
 14054 0188 70050000 		.4byte	.LVL323
 14055 018c 7A050000 		.4byte	.LVL325
 14056 0190 0100     		.2byte	0x1
 14057 0192 55       		.byte	0x55
 14058 0193 A6050000 		.4byte	.LVL329
 14059 0197 A8050000 		.4byte	.LVL330
 14060 019b 0100     		.2byte	0x1
 14061 019d 50       		.byte	0x50
 14062 019e A8050000 		.4byte	.LVL330
 14063 01a2 B2050000 		.4byte	.LVL332
 14064 01a6 0100     		.2byte	0x1
 14065 01a8 55       		.byte	0x55
 14066 01a9 DA050000 		.4byte	.LVL336
 14067 01ad DC050000 		.4byte	.LVL337
 14068 01b1 0100     		.2byte	0x1
 14069 01b3 50       		.byte	0x50
 14070 01b4 DC050000 		.4byte	.LVL337
 14071 01b8 E6050000 		.4byte	.LVL339
 14072 01bc 0100     		.2byte	0x1
 14073 01be 57       		.byte	0x57
 14074 01bf 02060000 		.4byte	.LVL342
 14075 01c3 05060000 		.4byte	.LVL343-1
 14076 01c7 0100     		.2byte	0x1
 14077 01c9 50       		.byte	0x50
 14078 01ca 28060000 		.4byte	.LVL347
 14079 01ce 2A060000 		.4byte	.LVL348
 14080 01d2 0100     		.2byte	0x1
 14081 01d4 50       		.byte	0x50
 14082 01d5 2A060000 		.4byte	.LVL348
 14083 01d9 34060000 		.4byte	.LVL350
 14084 01dd 0100     		.2byte	0x1
 14085 01df 57       		.byte	0x57
 14086 01e0 56060000 		.4byte	.LVL354
 14087 01e4 58060000 		.4byte	.LVL355
 14088 01e8 0100     		.2byte	0x1
 14089 01ea 50       		.byte	0x50
 14090 01eb 58060000 		.4byte	.LVL355
 14091 01ef 62060000 		.4byte	.LVL357
 14092 01f3 0100     		.2byte	0x1
 14093 01f5 57       		.byte	0x57
 14094 01f6 00000000 		.4byte	0
 14095 01fa 00000000 		.4byte	0
 14096              	.LLST7:
 14097 01fe 8C000000 		.4byte	.LVL214
 14098 0202 26070000 		.4byte	.LVL367
 14099 0206 0200     		.2byte	0x2
 14100 0208 30       		.byte	0x30
 14101 0209 9F       		.byte	0x9f
ARM GAS  C:\Users\AHMED~1.ELE\AppData\Local\Temp\cc0wYKcg.s 			page 275


 14102 020a 00000000 		.4byte	0
 14103 020e 00000000 		.4byte	0
 14104              	.LLST8:
 14105 0212 8C000000 		.4byte	.LVL214
 14106 0216 38020000 		.4byte	.LVL245
 14107 021a 0200     		.2byte	0x2
 14108 021c 30       		.byte	0x30
 14109 021d 9F       		.byte	0x9f
 14110 021e 38020000 		.4byte	.LVL245
 14111 0222 56020000 		.4byte	.LVL249
 14112 0226 0200     		.2byte	0x2
 14113 0228 40       		.byte	0x40
 14114 0229 9F       		.byte	0x9f
 14115 022a 56020000 		.4byte	.LVL249
 14116 022e 20070000 		.4byte	.LVL365
 14117 0232 0100     		.2byte	0x1
 14118 0234 56       		.byte	0x56
 14119 0235 20070000 		.4byte	.LVL365
 14120 0239 24070000 		.4byte	.LVL366
 14121 023d 0200     		.2byte	0x2
 14122 023f 30       		.byte	0x30
 14123 0240 9F       		.byte	0x9f
 14124 0241 24070000 		.4byte	.LVL366
 14125 0245 26070000 		.4byte	.LVL367
 14126 0249 0100     		.2byte	0x1
 14127 024b 56       		.byte	0x56
 14128 024c 00000000 		.4byte	0
 14129 0250 00000000 		.4byte	0
 14130              		.section	.debug_aranges,"",%progbits
 14131 0000 34000000 		.4byte	0x34
 14132 0004 0200     		.2byte	0x2
 14133 0006 00000000 		.4byte	.Ldebug_info0
 14134 000a 04       		.byte	0x4
 14135 000b 00       		.byte	0
 14136 000c 0000     		.2byte	0
 14137 000e 0000     		.2byte	0
 14138 0010 00000000 		.4byte	.LFB8
 14139 0014 0C000000 		.4byte	.LFE8-.LFB8
 14140 0018 00000000 		.4byte	.LFB5
 14141 001c 3C000000 		.4byte	.LFE5-.LFB5
 14142 0020 00000000 		.4byte	.LFB6
 14143 0024 0C0A0000 		.4byte	.LFE6-.LFB6
 14144 0028 00000000 		.4byte	.LFB7
 14145 002c 48070000 		.4byte	.LFE7-.LFB7
 14146 0030 00000000 		.4byte	0
 14147 0034 00000000 		.4byte	0
 14148              		.section	.debug_ranges,"",%progbits
 14149              	.Ldebug_ranges0:
 14150 0000 00000000 		.4byte	.LFB8
 14151 0004 0C000000 		.4byte	.LFE8
 14152 0008 00000000 		.4byte	.LFB5
 14153 000c 3C000000 		.4byte	.LFE5
 14154 0010 00000000 		.4byte	.LFB6
 14155 0014 0C0A0000 		.4byte	.LFE6
 14156 0018 00000000 		.4byte	.LFB7
 14157 001c 48070000 		.4byte	.LFE7
 14158 0020 00000000 		.4byte	0
ARM GAS  C:\Users\AHMED~1.ELE\AppData\Local\Temp\cc0wYKcg.s 			page 276


 14159 0024 00000000 		.4byte	0
 14160              		.section	.debug_line,"",%progbits
 14161              	.Ldebug_line0:
 14162 0000 83040000 		.section	.debug_str,"MS",%progbits,1
 14162      02008F01 
 14162      00000201 
 14162      FB0E0D00 
 14162      01010101 
 14163              	.LASF449:
 14164 0000 4F535F46 		.ascii	"OS_FN_POWER\000"
 14164      4E5F504F 
 14164      57455200 
 14165              	.LASF1078:
 14166 000c 62636432 		.ascii	"bcd2bin\000"
 14166      62696E00 
 14167              	.LASF427:
 14168 0014 4F535F46 		.ascii	"OS_FN_GPRS_GET_GPS_INFO\000"
 14168      4E5F4750 
 14168      52535F47 
 14168      45545F47 
 14168      50535F49 
 14169              	.LASF6:
 14170 002c 6C6F6E67 		.ascii	"long long int\000"
 14170      206C6F6E 
 14170      6720696E 
 14170      7400
 14171              	.LASF710:
 14172 003a 625F6D69 		.ascii	"b_minute\000"
 14172      6E757465 
 14172      00
 14173              	.LASF140:
 14174 0043 4F535F46 		.ascii	"OS_FN_KEY_SAVE_TMK_CBC_NC\000"
 14174      4E5F4B45 
 14174      595F5341 
 14174      56455F54 
 14174      4D4B5F43 
 14175              	.LASF847:
 14176 005d 4544435F 		.ascii	"EDC_IN_ENTER_TIPS\000"
 14176      494E5F45 
 14176      4E544552 
 14176      5F544950 
 14176      5300
 14177              	.LASF461:
 14178 006f 4F535F46 		.ascii	"OS_FN_FPRT_INFO_GET\000"
 14178      4E5F4650 
 14178      52545F49 
 14178      4E464F5F 
 14178      47455400 
 14179              	.LASF444:
 14180 0083 4F535F46 		.ascii	"OS_FN_DMK_KVC_READ\000"
 14180      4E5F444D 
 14180      4B5F4B56 
 14180      435F5245 
 14180      414400
 14181              	.LASF795:
 14182 0096 52454655 		.ascii	"REFUND\000"
 14182      4E4400
ARM GAS  C:\Users\AHMED~1.ELE\AppData\Local\Temp\cc0wYKcg.s 			page 277


 14183              	.LASF607:
 14184 009d 73625F78 		.ascii	"sb_xapp_size\000"
 14184      6170705F 
 14184      73697A65 
 14184      00
 14185              	.LASF879:
 14186 00aa 4544435F 		.ascii	"EDC_FN_NO_REV\000"
 14186      464E5F4E 
 14186      4F5F5245 
 14186      5600
 14187              	.LASF138:
 14188 00b8 4F535F46 		.ascii	"OS_FN_KEY_SAVE_TMK_NC\000"
 14188      4E5F4B45 
 14188      595F5341 
 14188      56455F54 
 14188      4D4B5F4E 
 14189              	.LASF794:
 14190 00ce 4F4E4C5F 		.ascii	"ONL_REFUND_MNL\000"
 14190      52454655 
 14190      4E445F4D 
 14190      4E4C00
 14191              	.LASF440:
 14192 00dd 4F535F46 		.ascii	"OS_FN_HD_CONFIG\000"
 14192      4E5F4844 
 14192      5F434F4E 
 14192      46494700 
 14193              	.LASF252:
 14194 00ed 4F535F46 		.ascii	"OS_FN_USBSER_OPEN\000"
 14194      4E5F5553 
 14194      42534552 
 14194      5F4F5045 
 14194      4E00
 14195              	.LASF202:
 14196 00ff 4F535F46 		.ascii	"OS_FN_FILE_READDIR\000"
 14196      4E5F4649 
 14196      4C455F52 
 14196      45414444 
 14196      495200
 14197              	.LASF300:
 14198 0112 4F535F46 		.ascii	"OS_FN_GPRS_STATUS\000"
 14198      4E5F4750 
 14198      52535F53 
 14198      54415455 
 14198      5300
 14199              	.LASF5:
 14200 0124 6C6F6E67 		.ascii	"long unsigned int\000"
 14200      20756E73 
 14200      69676E65 
 14200      6420696E 
 14200      7400
 14201              	.LASF1005:
 14202 0136 54585F44 		.ascii	"TX_DATA\000"
 14202      41544100 
 14203              	.LASF711:
 14204 013e 625F7365 		.ascii	"b_second\000"
 14204      636F6E64 
 14204      00
ARM GAS  C:\Users\AHMED~1.ELE\AppData\Local\Temp\cc0wYKcg.s 			page 278


 14205              	.LASF703:
 14206 0147 73625F74 		.ascii	"sb_text\000"
 14206      65787400 
 14207              	.LASF709:
 14208 014f 625F686F 		.ascii	"b_hour\000"
 14208      757200
 14209              	.LASF743:
 14210 0156 735F6963 		.ascii	"s_icc_data\000"
 14210      635F6461 
 14210      746100
 14211              	.LASF244:
 14212 0161 4F535F46 		.ascii	"OS_FN_MSR_GETC\000"
 14212      4E5F4D53 
 14212      525F4745 
 14212      544300
 14213              	.LASF251:
 14214 0170 4F535F46 		.ascii	"OS_FN_LPT_STATUS\000"
 14214      4E5F4C50 
 14214      545F5354 
 14214      41545553 
 14214      00
 14215              	.LASF573:
 14216 0181 73625F70 		.ascii	"sb_pri_no\000"
 14216      72695F6E 
 14216      6F00
 14217              	.LASF808:
 14218 018b 4553414C 		.ascii	"ESALE_COMPLETE\000"
 14218      455F434F 
 14218      4D504C45 
 14218      544500
 14219              	.LASF211:
 14220 019a 4F535F46 		.ascii	"OS_FN_CONFIG_UPDATE\000"
 14220      4E5F434F 
 14220      4E464947 
 14220      5F555044 
 14220      41544500 
 14221              	.LASF334:
 14222 01ae 4F535F46 		.ascii	"OS_FN_CLICC_EMV_LV1\000"
 14222      4E5F434C 
 14222      4943435F 
 14222      454D565F 
 14222      4C563100 
 14223              	.LASF469:
 14224 01c2 4F535F46 		.ascii	"OS_FN_GCM_AES_FINISH\000"
 14224      4E5F4743 
 14224      4D5F4145 
 14224      535F4649 
 14224      4E495348 
 14225              	.LASF184:
 14226 01d7 4F535F46 		.ascii	"OS_FN_FILE_PUTC\000"
 14226      4E5F4649 
 14226      4C455F50 
 14226      55544300 
 14227              	.LASF42:
 14228 01e7 4F535F46 		.ascii	"OS_FN_RTC_GET\000"
 14228      4E5F5254 
 14228      435F4745 
ARM GAS  C:\Users\AHMED~1.ELE\AppData\Local\Temp\cc0wYKcg.s 			page 279


 14228      5400
 14229              	.LASF1061:
 14230 01f5 6D656D73 		.ascii	"memset\000"
 14230      657400
 14231              	.LASF378:
 14232 01fc 4F535F46 		.ascii	"OS_FN_MIF_CLOSE\000"
 14232      4E5F4D49 
 14232      465F434C 
 14232      4F534500 
 14233              	.LASF402:
 14234 020c 4F535F46 		.ascii	"OS_FN_BARCODE_CLOSE\000"
 14234      4E5F4241 
 14234      52434F44 
 14234      455F434C 
 14234      4F534500 
 14235              	.LASF468:
 14236 0220 4F535F46 		.ascii	"OS_FN_GCM_AES_PROCESS\000"
 14236      4E5F4743 
 14236      4D5F4145 
 14236      535F5052 
 14236      4F434553 
 14237              	.LASF582:
 14238 0236 73625F74 		.ascii	"sb_trace_no\000"
 14238      72616365 
 14238      5F6E6F00 
 14239              	.LASF931:
 14240 0242 4544435F 		.ascii	"EDC_RSP_DATA_ERROR\000"
 14240      5253505F 
 14240      44415441 
 14240      5F455252 
 14240      4F5200
 14241              	.LASF619:
 14242 0255 625F6368 		.ascii	"b_checkin_pri_conn_time\000"
 14242      65636B69 
 14242      6E5F7072 
 14242      695F636F 
 14242      6E6E5F74 
 14243              	.LASF868:
 14244 026d 4544435F 		.ascii	"EDC_AJ_TXN_VOIDED\000"
 14244      414A5F54 
 14244      584E5F56 
 14244      4F494445 
 14244      4400
 14245              	.LASF714:
 14246 027f 625F6169 		.ascii	"b_aid_len\000"
 14246      645F6C65 
 14246      6E00
 14247              	.LASF447:
 14248 0289 4F535F46 		.ascii	"OS_FN_RMB_CONTROL\000"
 14248      4E5F524D 
 14248      425F434F 
 14248      4E54524F 
 14248      4C00
 14249              	.LASF681:
 14250 029b 73625F70 		.ascii	"sb_pri_settle_tel\000"
 14250      72695F73 
 14250      6574746C 
ARM GAS  C:\Users\AHMED~1.ELE\AppData\Local\Temp\cc0wYKcg.s 			page 280


 14250      655F7465 
 14250      6C00
 14251              	.LASF680:
 14252 02ad 625F7365 		.ascii	"b_sec_trans_redial\000"
 14252      635F7472 
 14252      616E735F 
 14252      72656469 
 14252      616C00
 14253              	.LASF504:
 14254 02c0 625F636C 		.ascii	"b_cla\000"
 14254      6100
 14255              	.LASF46:
 14256 02c6 4F535F46 		.ascii	"OS_FN_DISP_PUTC\000"
 14256      4E5F4449 
 14256      53505F50 
 14256      55544300 
 14257              	.LASF812:
 14258 02d6 54455354 		.ascii	"TEST_MSG\000"
 14258      5F4D5347 
 14258      00
 14259              	.LASF50:
 14260 02df 4F535F46 		.ascii	"OS_FN_DISP_PUTG\000"
 14260      4E5F4449 
 14260      53505F50 
 14260      55544700 
 14261              	.LASF651:
 14262 02ef 61706E5F 		.ascii	"apn_username\000"
 14262      75736572 
 14262      6E616D65 
 14262      00
 14263              	.LASF48:
 14264 02fc 4F535F46 		.ascii	"OS_FN_DISP_PUTN\000"
 14264      4E5F4449 
 14264      53505F50 
 14264      55544E00 
 14265              	.LASF442:
 14266 030c 4F535F46 		.ascii	"OS_FN_DUMMY\000"
 14266      4E5F4455 
 14266      4D4D5900 
 14267              	.LASF51:
 14268 0318 4F535F46 		.ascii	"OS_FN_DISP_PUTP\000"
 14268      4E5F4449 
 14268      53505F50 
 14268      55545000 
 14269              	.LASF47:
 14270 0328 4F535F46 		.ascii	"OS_FN_DISP_PUTS\000"
 14270      4E5F4449 
 14270      53505F50 
 14270      55545300 
 14271              	.LASF654:
 14272 0338 61706E32 		.ascii	"apn2_password\000"
 14272      5F706173 
 14272      73776F72 
 14272      6400
 14273              	.LASF1059:
 14274 0346 54726163 		.ascii	"Track1Enable\000"
 14274      6B31456E 
ARM GAS  C:\Users\AHMED~1.ELE\AppData\Local\Temp\cc0wYKcg.s 			page 281


 14274      61626C65 
 14274      00
 14275              	.LASF668:
 14276 0353 73625F72 		.ascii	"sb_ref_tel_no\000"
 14276      65665F74 
 14276      656C5F6E 
 14276      6F00
 14277              	.LASF1010:
 14278 0361 625F7265 		.ascii	"b_response\000"
 14278      73706F6E 
 14278      736500
 14279              	.LASF722:
 14280 036c 625F7472 		.ascii	"b_trans\000"
 14280      616E7300 
 14281              	.LASF650:
 14282 0374 73625F70 		.ascii	"sb_psw_void\000"
 14282      73775F76 
 14282      6F696400 
 14283              	.LASF505:
 14284 0380 625F636D 		.ascii	"b_cmd\000"
 14284      6400
 14285              	.LASF508:
 14286 0386 4D575F54 		.ascii	"MW_TRK1BUF\000"
 14286      524B3142 
 14286      554600
 14287              	.LASF428:
 14288 0391 4F535F46 		.ascii	"OS_FN_GPS_CMD\000"
 14288      4E5F4750 
 14288      535F434D 
 14288      4400
 14289              	.LASF238:
 14290 039f 4F535F46 		.ascii	"OS_FN_LAN_READ\000"
 14290      4E5F4C41 
 14290      4E5F5245 
 14290      414400
 14291              	.LASF797:
 14292 03ae 53414C45 		.ascii	"SALE_COMPLETE\000"
 14292      5F434F4D 
 14292      504C4554 
 14292      4500
 14293              	.LASF535:
 14294 03bc 41504D5F 		.ascii	"APM_GETLOGOCOUNT\000"
 14294      4745544C 
 14294      4F474F43 
 14294      4F554E54 
 14294      00
 14295              	.LASF835:
 14296 03cd 4544435F 		.ascii	"EDC_CN_SETTLE\000"
 14296      434E5F53 
 14296      4554544C 
 14296      4500
 14297              	.LASF942:
 14298 03db 4544435F 		.ascii	"EDC_RSP_CARD_BLOCKED\000"
 14298      5253505F 
 14298      43415244 
 14298      5F424C4F 
 14298      434B4544 
ARM GAS  C:\Users\AHMED~1.ELE\AppData\Local\Temp\cc0wYKcg.s 			page 282


 14299              	.LASF276:
 14300 03f0 4F535F46 		.ascii	"OS_FN_MDM_CLOSE\000"
 14300      4E5F4D44 
 14300      4D5F434C 
 14300      4F534500 
 14301              	.LASF954:
 14302 0400 4544435F 		.ascii	"EDC_SE_SALE_TOTAL\000"
 14302      53455F53 
 14302      414C455F 
 14302      544F5441 
 14302      4C00
 14303              	.LASF21:
 14304 0412 734C656E 		.ascii	"sLen\000"
 14304      00
 14305              	.LASF601:
 14306 0417 73625F65 		.ascii	"sb_emvapp_size\000"
 14306      6D766170 
 14306      705F7369 
 14306      7A6500
 14307              	.LASF576:
 14308 0426 73625F73 		.ascii	"sb_sec_no\000"
 14308      65635F6E 
 14308      6F00
 14309              	.LASF669:
 14310 0430 625F6465 		.ascii	"b_default_acc\000"
 14310      6661756C 
 14310      745F6163 
 14310      6300
 14311              	.LASF1006:
 14312 043e 73625F70 		.ascii	"sb_proc_code\000"
 14312      726F635F 
 14312      636F6465 
 14312      00
 14313              	.LASF562:
 14314 044b 41504D5F 		.ascii	"APM_SELAPP\000"
 14314      53454C41 
 14314      505000
 14315              	.LASF621:
 14316 0456 73625F63 		.ascii	"sb_checkin_sec_no\000"
 14316      6865636B 
 14316      696E5F73 
 14316      65635F6E 
 14316      6F00
 14317              	.LASF67:
 14318 0468 4F535F46 		.ascii	"OS_FN_COM1_TXRDY\000"
 14318      4E5F434F 
 14318      4D315F54 
 14318      58524459 
 14318      00
 14319              	.LASF119:
 14320 0479 4F535F46 		.ascii	"OS_FN_SM2_ENCRYPT\000"
 14320      4E5F534D 
 14320      325F454E 
 14320      43525950 
 14320      5400
 14321              	.LASF12:
 14322 048b 424F4F4C 		.ascii	"BOOLEAN\000"
ARM GAS  C:\Users\AHMED~1.ELE\AppData\Local\Temp\cc0wYKcg.s 			page 283


 14322      45414E00 
 14323              	.LASF699:
 14324 0493 625F7065 		.ascii	"b_pending\000"
 14324      6E64696E 
 14324      6700
 14325              	.LASF26:
 14326 049d 4F535F46 		.ascii	"OS_FN_RAND_UPDATE\000"
 14326      4E5F5241 
 14326      4E445F55 
 14326      50444154 
 14326      4500
 14327              	.LASF485:
 14328 04af 4F535F46 		.ascii	"OS_FN_GPRS_IS_HL6RD_OLD_FRM\000"
 14328      4E5F4750 
 14328      52535F49 
 14328      535F484C 
 14328      3652445F 
 14329              	.LASF817:
 14330 04cb 5452414E 		.ascii	"TRANS_BITMAP\000"
 14330      535F4249 
 14330      544D4150 
 14330      00
 14331              	.LASF124:
 14332 04d8 4F535F46 		.ascii	"OS_FN_SM4_SET_KEY\000"
 14332      4E5F534D 
 14332      345F5345 
 14332      545F4B45 
 14332      5900
 14333              	.LASF783:
 14334 04ea 735F4354 		.ascii	"s_CTLOut\000"
 14334      4C4F7574 
 14334      00
 14335              	.LASF416:
 14336 04f3 4F535F46 		.ascii	"OS_FN_NFC_SEND_FELICA_COMMAND\000"
 14336      4E5F4E46 
 14336      435F5345 
 14336      4E445F46 
 14336      454C4943 
 14337              	.LASF960:
 14338 0511 4544435F 		.ascii	"EDC_EMV_PROCESSING\000"
 14338      454D565F 
 14338      50524F43 
 14338      45535349 
 14338      4E4700
 14339              	.LASF855:
 14340 0524 4544435F 		.ascii	"EDC_IN_INVALID_CARD\000"
 14340      494E5F49 
 14340      4E56414C 
 14340      49445F43 
 14340      41524400 
 14341              	.LASF628:
 14342 0538 5445524D 		.ascii	"TERM_CFG\000"
 14342      5F434647 
 14342      00
 14343              	.LASF451:
 14344 0541 4F535F46 		.ascii	"OS_FN_DMK_INJECT\000"
 14344      4E5F444D 
ARM GAS  C:\Users\AHMED~1.ELE\AppData\Local\Temp\cc0wYKcg.s 			page 284


 14344      4B5F494E 
 14344      4A454354 
 14344      00
 14345              	.LASF579:
 14346 0552 625F6173 		.ascii	"b_async_delay\000"
 14346      796E635F 
 14346      64656C61 
 14346      7900
 14347              	.LASF381:
 14348 0560 4F535F46 		.ascii	"OS_FN_MIF_CARD_TYPE\000"
 14348      4E5F4D49 
 14348      465F4341 
 14348      52445F54 
 14348      59504500 
 14349              	.LASF179:
 14350 0574 4F535F46 		.ascii	"OS_FN_FILE_DELETE\000"
 14350      4E5F4649 
 14350      4C455F44 
 14350      454C4554 
 14350      4500
 14351              	.LASF538:
 14352 0586 41504D5F 		.ascii	"APM_GETEXPARAM\000"
 14352      47455445 
 14352      58504152 
 14352      414D00
 14353              	.LASF961:
 14354 0595 4544435F 		.ascii	"EDC_EMV_SEL_APP\000"
 14354      454D565F 
 14354      53454C5F 
 14354      41505000 
 14355              	.LASF1079:
 14356 05a5 636F6D70 		.ascii	"compress\000"
 14356      72657373 
 14356      00
 14357              	.LASF553:
 14358 05ae 41504D5F 		.ascii	"APM_GET_BATCH_REC\000"
 14358      4745545F 
 14358      42415443 
 14358      485F5245 
 14358      4300
 14359              	.LASF719:
 14360 05c0 775F6D69 		.ascii	"w_misc_len\000"
 14360      73635F6C 
 14360      656E00
 14361              	.LASF670:
 14362 05cb 73625F70 		.ascii	"sb_pan_format\000"
 14362      616E5F66 
 14362      6F726D61 
 14362      7400
 14363              	.LASF87:
 14364 05d9 4F535F46 		.ascii	"OS_FN_COM3_SEND\000"
 14364      4E5F434F 
 14364      4D335F53 
 14364      454E4400 
 14365              	.LASF938:
 14366 05e9 4544435F 		.ascii	"EDC_RSP_NO_DIALTONE\000"
 14366      5253505F 
ARM GAS  C:\Users\AHMED~1.ELE\AppData\Local\Temp\cc0wYKcg.s 			page 285


 14366      4E4F5F44 
 14366      49414C54 
 14366      4F4E4500 
 14367              	.LASF1009:
 14368 05fd 5253505F 		.ascii	"RSP_DATA\000"
 14368      44415441 
 14368      00
 14369              	.LASF844:
 14370 0606 4544435F 		.ascii	"EDC_IN_APP_CODE\000"
 14370      494E5F41 
 14370      50505F43 
 14370      4F444500 
 14371              	.LASF693:
 14372 0616 73625F76 		.ascii	"sb_visa1_term_id\000"
 14372      69736131 
 14372      5F746572 
 14372      6D5F6964 
 14372      00
 14373              	.LASF759:
 14374 0627 735F7465 		.ascii	"s_term_cfg\000"
 14374      726D5F63 
 14374      666700
 14375              	.LASF192:
 14376 0632 4F535F46 		.ascii	"OS_FN_FILE_ACTIVATE\000"
 14376      4E5F4649 
 14376      4C455F41 
 14376      43544956 
 14376      41544500 
 14377              	.LASF310:
 14378 0646 4F535F46 		.ascii	"OS_FN_GPRS_SMS_ACK\000"
 14378      4E5F4750 
 14378      52535F53 
 14378      4D535F41 
 14378      434B00
 14379              	.LASF842:
 14380 0659 4544435F 		.ascii	"EDC_IN_SWIPE_CARD\000"
 14380      494E5F53 
 14380      57495045 
 14380      5F434152 
 14380      4400
 14381              	.LASF1077:
 14382 066b 7072696E 		.ascii	"printf\000"
 14382      746600
 14383              	.LASF567:
 14384 0672 7362436F 		.ascii	"sbContent\000"
 14384      6E74656E 
 14384      7400
 14385              	.LASF472:
 14386 067c 4F535F46 		.ascii	"OS_FN_WIFI_SOCKET_CONNECT\000"
 14386      4E5F5749 
 14386      46495F53 
 14386      4F434B45 
 14386      545F434F 
 14387              	.LASF995:
 14388 0696 6669656C 		.ascii	"field57\000"
 14388      64353700 
 14389              	.LASF1043:
ARM GAS  C:\Users\AHMED~1.ELE\AppData\Local\Temp\cc0wYKcg.s 			page 286


 14390 069e 45787472 		.ascii	"ExtraMsgLen\000"
 14390      614D7367 
 14390      4C656E00 
 14391              	.LASF90:
 14392 06aa 4F535F46 		.ascii	"OS_FN_COM3_SSEND\000"
 14392      4E5F434F 
 14392      4D335F53 
 14392      53454E44 
 14392      00
 14393              	.LASF110:
 14394 06bb 4F535F46 		.ascii	"OS_FN_SHA_FINISH\000"
 14394      4E5F5348 
 14394      415F4649 
 14394      4E495348 
 14394      00
 14395              	.LASF254:
 14396 06cc 4F535F46 		.ascii	"OS_FN_USBSER_READ\000"
 14396      4E5F5553 
 14396      42534552 
 14396      5F524541 
 14396      4400
 14397              	.LASF308:
 14398 06de 4F535F46 		.ascii	"OS_FN_GPRS_READ_USSD\000"
 14398      4E5F4750 
 14398      52535F52 
 14398      4541445F 
 14398      55535344 
 14399              	.LASF589:
 14400 06f3 625F7265 		.ascii	"b_return_timeout\000"
 14400      7475726E 
 14400      5F74696D 
 14400      656F7574 
 14400      00
 14401              	.LASF463:
 14402 0704 4F535F46 		.ascii	"OS_FN_ECC_PUBKEY_VERIFY\000"
 14402      4E5F4543 
 14402      435F5055 
 14402      424B4559 
 14402      5F564552 
 14403              	.LASF587:
 14404 071c 625F656D 		.ascii	"b_emv_enable\000"
 14404      765F656E 
 14404      61626C65 
 14404      00
 14405              	.LASF751:
 14406 0729 645F6164 		.ascii	"d_adjust_count\000"
 14406      6A757374 
 14406      5F636F75 
 14406      6E7400
 14407              	.LASF1008:
 14408 0738 73625F6F 		.ascii	"sb_org_trace_no\000"
 14408      72675F74 
 14408      72616365 
 14408      5F6E6F00 
 14409              	.LASF355:
 14410 0748 4F535F46 		.ascii	"OS_FN_DEVICE_SEARCH_INIT\000"
 14410      4E5F4445 
ARM GAS  C:\Users\AHMED~1.ELE\AppData\Local\Temp\cc0wYKcg.s 			page 287


 14410      56494345 
 14410      5F534541 
 14410      5243485F 
 14411              	.LASF1088:
 14412 0761 70757463 		.ascii	"putchar\000"
 14412      68617200 
 14413              	.LASF790:
 14414 0769 41555448 		.ascii	"AUTH_MANUAL\000"
 14414      5F4D414E 
 14414      55414C00 
 14415              	.LASF351:
 14416 0775 4F535F46 		.ascii	"OS_FN_DEVICE_REGISTER\000"
 14416      4E5F4445 
 14416      56494345 
 14416      5F524547 
 14416      49535445 
 14417              	.LASF917:
 14418 078b 4544435F 		.ascii	"EDC_RSP_BATCH_NOT_FOUND\000"
 14418      5253505F 
 14418      42415443 
 14418      485F4E4F 
 14418      545F464F 
 14419              	.LASF455:
 14420 07a3 4F535F46 		.ascii	"OS_FN_LPT_RESET_COUNT\000"
 14420      4E5F4C50 
 14420      545F5245 
 14420      5345545F 
 14420      434F554E 
 14421              	.LASF843:
 14422 07b9 4544435F 		.ascii	"EDC_IN_CORRECT\000"
 14422      494E5F43 
 14422      4F525245 
 14422      435400
 14423              	.LASF928:
 14424 07c8 4544435F 		.ascii	"EDC_RSP_CTL_OCARD\000"
 14424      5253505F 
 14424      43544C5F 
 14424      4F434152 
 14424      4400
 14425              	.LASF225:
 14426 07da 4F535F46 		.ascii	"OS_FN_MMC_BLK_READ\000"
 14426      4E5F4D4D 
 14426      435F424C 
 14426      4B5F5245 
 14426      414400
 14427              	.LASF232:
 14428 07ed 4F535F46 		.ascii	"OS_FN_SLE_HIST\000"
 14428      4E5F534C 
 14428      455F4849 
 14428      535400
 14429              	.LASF570:
 14430 07fc 625F6469 		.ascii	"b_disp_contrast\000"
 14430      73705F63 
 14430      6F6E7472 
 14430      61737400 
 14431              	.LASF819:
 14432 080c 73625F74 		.ascii	"sb_txbitmap\000"
ARM GAS  C:\Users\AHMED~1.ELE\AppData\Local\Temp\cc0wYKcg.s 			page 288


 14432      78626974 
 14432      6D617000 
 14433              	.LASF70:
 14434 0818 4F535F46 		.ascii	"OS_FN_COM1_STATUS\000"
 14434      4E5F434F 
 14434      4D315F53 
 14434      54415455 
 14434      5300
 14435              	.LASF923:
 14436 082a 4544435F 		.ascii	"EDC_RSP_OTHER_REASON\000"
 14436      5253505F 
 14436      4F544845 
 14436      525F5245 
 14436      41534F4E 
 14437              	.LASF186:
 14438 083f 4F535F46 		.ascii	"OS_FN_FILE_LENGTH\000"
 14438      4E5F4649 
 14438      4C455F4C 
 14438      454E4754 
 14438      4800
 14439              	.LASF895:
 14440 0851 4544435F 		.ascii	"EDC_RSP_INVALID_MERCH\000"
 14440      5253505F 
 14440      494E5641 
 14440      4C49445F 
 14440      4D455243 
 14441              	.LASF864:
 14442 0867 4544435F 		.ascii	"EDC_AJ_ENTER_NTIP\000"
 14442      414A5F45 
 14442      4E544552 
 14442      5F4E5449 
 14442      5000
 14443              	.LASF102:
 14444 0879 4F535F46 		.ascii	"OS_FN_AES_ENCRYPT_BLOCK\000"
 14444      4E5F4145 
 14444      535F454E 
 14444      43525950 
 14444      545F424C 
 14445              	.LASF615:
 14446 0891 73625F70 		.ascii	"sb_ppp_ip\000"
 14446      70705F69 
 14446      7000
 14447              	.LASF544:
 14448 089b 41504D5F 		.ascii	"APM_SETROC\000"
 14448      53455452 
 14448      4F4300
 14449              	.LASF97:
 14450 08a6 4F535F46 		.ascii	"OS_FN_NEW_DES\000"
 14450      4E5F4E45 
 14450      575F4445 
 14450      5300
 14451              	.LASF976:
 14452 08b4 625F6361 		.ascii	"b_card_expired\000"
 14452      72645F65 
 14452      78706972 
 14452      656400
 14453              	.LASF551:
ARM GAS  C:\Users\AHMED~1.ELE\AppData\Local\Temp\cc0wYKcg.s 			page 289


 14454 08c3 41504D5F 		.ascii	"APM_BATCH_FULL\000"
 14454      42415443 
 14454      485F4655 
 14454      4C4C00
 14455              	.LASF396:
 14456 08d2 4F535F46 		.ascii	"OS_FN_MIF_SNO\000"
 14456      4E5F4D49 
 14456      465F534E 
 14456      4F00
 14457              	.LASF83:
 14458 08e0 4F535F46 		.ascii	"OS_FN_COM3_CLOSE\000"
 14458      4E5F434F 
 14458      4D335F43 
 14458      4C4F5345 
 14458      00
 14459              	.LASF549:
 14460 08f1 41504D5F 		.ascii	"APM_TERMDATA_UPD\000"
 14460      5445524D 
 14460      44415441 
 14460      5F555044 
 14460      00
 14461              	.LASF565:
 14462 0902 41504D5F 		.ascii	"APM_FUNC_COUNT\000"
 14462      46554E43 
 14462      5F434F55 
 14462      4E5400
 14463              	.LASF979:
 14464 0911 6669656C 		.ascii	"field72\000"
 14464      64373200 
 14465              	.LASF294:
 14466 0919 4F535F46 		.ascii	"OS_FN_BATT_CONTROL\000"
 14466      4E5F4241 
 14466      54545F43 
 14466      4F4E5452 
 14466      4F4C00
 14467              	.LASF390:
 14468 092c 4F535F46 		.ascii	"OS_FN_MIF_WRITE\000"
 14468      4E5F4D49 
 14468      465F5752 
 14468      49544500 
 14469              	.LASF503:
 14470 093c 434C5F49 		.ascii	"CL_IO\000"
 14470      4F00
 14471              	.LASF459:
 14472 0942 4F535F46 		.ascii	"OS_FN_FPRT_SCAN_IMG\000"
 14472      4E5F4650 
 14472      52545F53 
 14472      43414E5F 
 14472      494D4700 
 14473              	.LASF39:
 14474 0956 4F535F46 		.ascii	"OS_FN_BUZ_CLOSE\000"
 14474      4E5F4255 
 14474      5A5F434C 
 14474      4F534500 
 14475              	.LASF838:
 14476 0966 4544435F 		.ascii	"EDC_CN_SETT_ADV\000"
 14476      434E5F53 
ARM GAS  C:\Users\AHMED~1.ELE\AppData\Local\Temp\cc0wYKcg.s 			page 290


 14476      4554545F 
 14476      41445600 
 14477              	.LASF25:
 14478 0976 4F535F46 		.ascii	"OS_FN_RAND\000"
 14478      4E5F5241 
 14478      4E4400
 14479              	.LASF590:
 14480 0981 775F7472 		.ascii	"w_training_status\000"
 14480      61696E69 
 14480      6E675F73 
 14480      74617475 
 14480      7300
 14481              	.LASF445:
 14482 0993 4F535F46 		.ascii	"OS_FN_DLL_REQ\000"
 14482      4E5F444C 
 14482      4C5F5245 
 14482      5100
 14483              	.LASF11:
 14484 09a1 73697A65 		.ascii	"size_t\000"
 14484      5F7400
 14485              	.LASF1057:
 14486 09a8 6462696E 		.ascii	"dbin2bcd\000"
 14486      32626364 
 14486      00
 14487              	.LASF111:
 14488 09b1 4F535F46 		.ascii	"OS_FN_RC4_SETUP\000"
 14488      4E5F5243 
 14488      345F5345 
 14488      54555000 
 14489              	.LASF159:
 14490 09c1 4F535F46 		.ascii	"OS_FN_LED_STATUS\000"
 14490      4E5F4C45 
 14490      445F5354 
 14490      41545553 
 14490      00
 14491              	.LASF1020:
 14492 09d2 5061636B 		.ascii	"PackProcCode\000"
 14492      50726F63 
 14492      436F6465 
 14492      00
 14493              	.LASF626:
 14494 09df 625F6170 		.ascii	"b_app_list_upload\000"
 14494      705F6C69 
 14494      73745F75 
 14494      706C6F61 
 14494      6400
 14495              	.LASF117:
 14496 09f1 4F535F46 		.ascii	"OS_FN_SM2_GET_SIGNATURE\000"
 14496      4E5F534D 
 14496      325F4745 
 14496      545F5349 
 14496      474E4154 
 14497              	.LASF45:
 14498 0a09 4F535F46 		.ascii	"OS_FN_DISP_CLOSE\000"
 14498      4E5F4449 
 14498      53505F43 
 14498      4C4F5345 
ARM GAS  C:\Users\AHMED~1.ELE\AppData\Local\Temp\cc0wYKcg.s 			page 291


 14498      00
 14499              	.LASF617:
 14500 0a1a 73625F73 		.ascii	"sb_server_key\000"
 14500      65727665 
 14500      725F6B65 
 14500      7900
 14501              	.LASF193:
 14502 0a28 4F535F46 		.ascii	"OS_FN_FILE_GET_NAME\000"
 14502      4E5F4649 
 14502      4C455F47 
 14502      45545F4E 
 14502      414D4500 
 14503              	.LASF809:
 14504 0a3c 53414C45 		.ascii	"SALE_CTL\000"
 14504      5F43544C 
 14504      00
 14505              	.LASF825:
 14506 0a45 4544435F 		.ascii	"EDC_CO_REMOVE_ICC\000"
 14506      434F5F52 
 14506      454D4F56 
 14506      455F4943 
 14506      4300
 14507              	.LASF690:
 14508 0a57 625F7469 		.ascii	"b_timeout_val\000"
 14508      6D656F75 
 14508      745F7661 
 14508      6C00
 14509              	.LASF318:
 14510 0a65 4F535F46 		.ascii	"OS_FN_TPAD_CPOS\000"
 14510      4E5F5450 
 14510      41445F43 
 14510      504F5300 
 14511              	.LASF411:
 14512 0a75 4F535F46 		.ascii	"OS_FN_WIFI_RECV_RESPONSE\000"
 14512      4E5F5749 
 14512      46495F52 
 14512      4543565F 
 14512      52455350 
 14513              	.LASF126:
 14514 0a8e 4F535F46 		.ascii	"OS_FN_SM4_DECRYPT\000"
 14514      4E5F534D 
 14514      345F4445 
 14514      43525950 
 14514      5400
 14515              	.LASF316:
 14516 0aa0 4F535F46 		.ascii	"OS_FN_TPAD_ADD_OBJ\000"
 14516      4E5F5450 
 14516      41445F41 
 14516      44445F4F 
 14516      424A00
 14517              	.LASF907:
 14518 0ab3 4544435F 		.ascii	"EDC_RSP_CALL_CC\000"
 14518      5253505F 
 14518      43414C4C 
 14518      5F434300 
 14519              	.LASF770:
 14520 0ac3 735F7465 		.ascii	"s_term_data\000"
ARM GAS  C:\Users\AHMED~1.ELE\AppData\Local\Temp\cc0wYKcg.s 			page 292


 14520      726D5F64 
 14520      61746100 
 14521              	.LASF824:
 14522 0acf 4544435F 		.ascii	"EDC_CO_SWIPE_INS_TAP\000"
 14522      434F5F53 
 14522      57495045 
 14522      5F494E53 
 14522      5F544150 
 14523              	.LASF419:
 14524 0ae4 4F535F46 		.ascii	"OS_FN_NFC_GET_VALID_RESP\000"
 14524      4E5F4E46 
 14524      435F4745 
 14524      545F5641 
 14524      4C49445F 
 14525              	.LASF116:
 14526 0afd 4F535F46 		.ascii	"OS_FN_SM2_FREE_CURVE\000"
 14526      4E5F534D 
 14526      325F4652 
 14526      45455F43 
 14526      55525645 
 14527              	.LASF987:
 14528 0b12 6669656C 		.ascii	"field9C\000"
 14528      64394300 
 14529              	.LASF153:
 14530 0b1a 4F535F46 		.ascii	"OS_FN_BUFMAN_ALLOC\000"
 14530      4E5F4255 
 14530      464D414E 
 14530      5F414C4C 
 14530      4F4300
 14531              	.LASF82:
 14532 0b2d 4F535F46 		.ascii	"OS_FN_COM3_OPEN\000"
 14532      4E5F434F 
 14532      4D335F4F 
 14532      50454E00 
 14533              	.LASF908:
 14534 0b3d 4544435F 		.ascii	"EDC_RSP_DECLINED\000"
 14534      5253505F 
 14534      4445434C 
 14534      494E4544 
 14534      00
 14535              	.LASF823:
 14536 0b4e 4544435F 		.ascii	"EDC_CO_SWIPE_INS\000"
 14536      434F5F53 
 14536      57495045 
 14536      5F494E53 
 14536      00
 14537              	.LASF114:
 14538 0b5f 4F535F46 		.ascii	"OS_FN_MD4_FINISH\000"
 14538      4E5F4D44 
 14538      345F4649 
 14538      4E495348 
 14538      00
 14539              	.LASF31:
 14540 0b70 4F535F46 		.ascii	"OS_FN_KBD_GETKEY\000"
 14540      4E5F4B42 
 14540      445F4745 
 14540      544B4559 
ARM GAS  C:\Users\AHMED~1.ELE\AppData\Local\Temp\cc0wYKcg.s 			page 293


 14540      00
 14541              	.LASF1029:
 14542 0b81 64617465 		.ascii	"date_time\000"
 14542      5F74696D 
 14542      6500
 14543              	.LASF341:
 14544 0b8b 4F535F46 		.ascii	"OS_FN_USBHOST_SUBMIT_BUFFER\000"
 14544      4E5F5553 
 14544      42484F53 
 14544      545F5355 
 14544      424D4954 
 14545              	.LASF109:
 14546 0ba7 4F535F46 		.ascii	"OS_FN_SHA_PROCESS\000"
 14546      4E5F5348 
 14546      415F5052 
 14546      4F434553 
 14546      5300
 14547              	.LASF869:
 14548 0bb9 4544435F 		.ascii	"EDC_AJ_CLOSE_BATCH\000"
 14548      414A5F43 
 14548      4C4F5345 
 14548      5F424154 
 14548      434800
 14549              	.LASF1017:
 14550 0bcc 614C656E 		.ascii	"aLen\000"
 14550      00
 14551              	.LASF299:
 14552 0bd1 4F535F46 		.ascii	"OS_FN_GPRS_SIGNAL\000"
 14552      4E5F4750 
 14552      52535F53 
 14552      49474E41 
 14552      4C00
 14553              	.LASF807:
 14554 0be3 4553414C 		.ascii	"ESALE_UNDER_LMT\000"
 14554      455F554E 
 14554      4445525F 
 14554      4C4D5400 
 14555              	.LASF1016:
 14556 0bf3 735F7273 		.ascii	"s_rsp_data\000"
 14556      705F6461 
 14556      746100
 14557              	.LASF789:
 14558 0bfe 41555448 		.ascii	"AUTH_SWIPE\000"
 14558      5F535749 
 14558      504500
 14559              	.LASF653:
 14560 0c09 61706E32 		.ascii	"apn2_username\000"
 14560      5F757365 
 14560      726E616D 
 14560      6500
 14561              	.LASF163:
 14562 0c17 4F535F46 		.ascii	"OS_FN_GET_CHALLENGE\000"
 14562      4E5F4745 
 14562      545F4348 
 14562      414C4C45 
 14562      4E474500 
 14563              	.LASF499:
ARM GAS  C:\Users\AHMED~1.ELE\AppData\Local\Temp\cc0wYKcg.s 			page 294


 14564 0c2b 55534246 		.ascii	"USBFPRT_GENERAL_INFO_IMG_HEIGHT\000"
 14564      5052545F 
 14564      47454E45 
 14564      52414C5F 
 14564      494E464F 
 14565              	.LASF134:
 14566 0c4b 4F535F46 		.ascii	"OS_FN_KEY_CUP_MAC\000"
 14566      4E5F4B45 
 14566      595F4355 
 14566      505F4D41 
 14566      4300
 14567              	.LASF332:
 14568 0c5d 4F535F46 		.ascii	"OS_FN_CLICC_SENDCOMMAND\000"
 14568      4E5F434C 
 14568      4943435F 
 14568      53454E44 
 14568      434F4D4D 
 14569              	.LASF58:
 14570 0c75 4F535F46 		.ascii	"OS_FN_DISP_BL_CONTROL\000"
 14570      4E5F4449 
 14570      53505F42 
 14570      4C5F434F 
 14570      4E54524F 
 14571              	.LASF506:
 14572 0c8b 73625F63 		.ascii	"sb_content\000"
 14572      6F6E7465 
 14572      6E7400
 14573              	.LASF81:
 14574 0c96 4F535F46 		.ascii	"OS_FN_COM2_SSEND\000"
 14574      4E5F434F 
 14574      4D325F53 
 14574      53454E44 
 14574      00
 14575              	.LASF272:
 14576 0ca7 4F535F46 		.ascii	"OS_FN_FL_CREAD\000"
 14576      4E5F464C 
 14576      5F435245 
 14576      414400
 14577              	.LASF1072:
 14578 0cb6 47657443 		.ascii	"GetConstMsg\000"
 14578      6F6E7374 
 14578      4D736700 
 14579              	.LASF914:
 14580 0cc2 4544435F 		.ascii	"EDC_RSP_TOT_MISMATCH\000"
 14580      5253505F 
 14580      544F545F 
 14580      4D49534D 
 14580      41544348 
 14581              	.LASF716:
 14582 0cd7 73625F74 		.ascii	"sb_tag_95\000"
 14582      61675F39 
 14582      3500
 14583              	.LASF527:
 14584 0ce1 41504D5F 		.ascii	"APM_GETCARDCOUNT\000"
 14584      47455443 
 14584      41524443 
 14584      4F554E54 
ARM GAS  C:\Users\AHMED~1.ELE\AppData\Local\Temp\cc0wYKcg.s 			page 295


 14584      00
 14585              	.LASF171:
 14586 0cf2 4F535F46 		.ascii	"OS_FN_REALLOC\000"
 14586      4E5F5245 
 14586      414C4C4F 
 14586      4300
 14587              	.LASF236:
 14588 0d00 4F535F46 		.ascii	"OS_FN_LAN_RXRDY\000"
 14588      4E5F4C41 
 14588      4E5F5258 
 14588      52445900 
 14589              	.LASF717:
 14590 0d10 73625F74 		.ascii	"sb_tag_9b\000"
 14590      61675F39 
 14590      6200
 14591              	.LASF475:
 14592 0d1a 4F535F46 		.ascii	"OS_FN_WIFI_SOCKET_SEND_TCP\000"
 14592      4E5F5749 
 14592      46495F53 
 14592      4F434B45 
 14592      545F5345 
 14593              	.LASF363:
 14594 0d35 4F535F46 		.ascii	"OS_FN_BUS_STOP\000"
 14594      4E5F4255 
 14594      535F5354 
 14594      4F5000
 14595              	.LASF36:
 14596 0d44 4F535F46 		.ascii	"OS_FN_TIMER_SET\000"
 14596      4E5F5449 
 14596      4D45525F 
 14596      53455400 
 14597              	.LASF1044:
 14598 0d54 6765745F 		.ascii	"get_pptr\000"
 14598      70707472 
 14598      00
 14599              	.LASF758:
 14600 0d5d 53544953 		.ascii	"STIS_DATA\000"
 14600      5F444154 
 14600      4100
 14601              	.LASF27:
 14602 0d67 4F535F46 		.ascii	"OS_FN_KBD_OPEN\000"
 14602      4E5F4B42 
 14602      445F4F50 
 14602      454E00
 14603              	.LASF950:
 14604 0d76 4544435F 		.ascii	"EDC_RSP_CALL_IC\000"
 14604      5253505F 
 14604      43414C4C 
 14604      5F494300 
 14605              	.LASF635:
 14606 0d86 73625F70 		.ascii	"sb_password\000"
 14606      61737377 
 14606      6F726400 
 14607              	.LASF933:
 14608 0d92 4544435F 		.ascii	"EDC_RSP_CALL_IP\000"
 14608      5253505F 
 14608      43414C4C 
ARM GAS  C:\Users\AHMED~1.ELE\AppData\Local\Temp\cc0wYKcg.s 			page 296


 14608      5F495000 
 14609              	.LASF934:
 14610 0da2 4544435F 		.ascii	"EDC_RSP_CALL_IR\000"
 14610      5253505F 
 14610      43414C4C 
 14610      5F495200 
 14611              	.LASF935:
 14612 0db2 4544435F 		.ascii	"EDC_RSP_CALL_IS\000"
 14612      5253505F 
 14612      43414C4C 
 14612      5F495300 
 14613              	.LASF936:
 14614 0dc2 4544435F 		.ascii	"EDC_RSP_CALL_IT\000"
 14614      5253505F 
 14614      43414C4C 
 14614      5F495400 
 14615              	.LASF1084:
 14616 0dd2 73797374 		.ascii	"system_call_list\000"
 14616      656D5F63 
 14616      616C6C5F 
 14616      6C697374 
 14616      00
 14617              	.LASF454:
 14618 0de3 4F535F46 		.ascii	"OS_FN_DTIMER_LATCH_TIME\000"
 14618      4E5F4454 
 14618      494D4552 
 14618      5F4C4154 
 14618      43485F54 
 14619              	.LASF967:
 14620 0dfb 4544435F 		.ascii	"EDC_CTL_AMT_EXCEED\000"
 14620      43544C5F 
 14620      414D545F 
 14620      45584345 
 14620      454400
 14621              	.LASF286:
 14622 0e0e 4F535F46 		.ascii	"OS_FN_MCOM_TXRDY\000"
 14622      4E5F4D43 
 14622      4F4D5F54 
 14622      58524459 
 14622      00
 14623              	.LASF424:
 14624 0e1f 4F535F46 		.ascii	"OS_FN_GPS_ON\000"
 14624      4E5F4750 
 14624      535F4F4E 
 14624      00
 14625              	.LASF157:
 14626 0e2c 4F535F46 		.ascii	"OS_FN_LED_OPEN\000"
 14626      4E5F4C45 
 14626      445F4F50 
 14626      454E00
 14627              	.LASF896:
 14628 0e3b 4544435F 		.ascii	"EDC_RSP_PICKUP_CARD\000"
 14628      5253505F 
 14628      5049434B 
 14628      55505F43 
 14628      41524400 
 14629              	.LASF74:
ARM GAS  C:\Users\AHMED~1.ELE\AppData\Local\Temp\cc0wYKcg.s 			page 297


 14630 0e4f 4F535F46 		.ascii	"OS_FN_COM2_CLOSE\000"
 14630      4E5F434F 
 14630      4D325F43 
 14630      4C4F5345 
 14630      00
 14631              	.LASF887:
 14632 0e60 4544435F 		.ascii	"EDC_PN_HIGHTEMP\000"
 14632      504E5F48 
 14632      49474854 
 14632      454D5000 
 14633              	.LASF222:
 14634 0e70 4F535F46 		.ascii	"OS_FN_MMC_BLK_SIZE\000"
 14634      4E5F4D4D 
 14634      435F424C 
 14634      4B5F5349 
 14634      5A4500
 14635              	.LASF768:
 14636 0e83 645F6C65 		.ascii	"d_len\000"
 14636      6E00
 14637              	.LASF857:
 14638 0e89 4544435F 		.ascii	"EDC_IN_ECRREF\000"
 14638      494E5F45 
 14638      43525245 
 14638      4600
 14639              	.LASF941:
 14640 0e97 4544435F 		.ascii	"EDC_RSP_READ_ERROR\000"
 14640      5253505F 
 14640      52454144 
 14640      5F455252 
 14640      4F5200
 14641              	.LASF634:
 14642 0eaa 625F6469 		.ascii	"b_dial_option\000"
 14642      616C5F6F 
 14642      7074696F 
 14642      6E00
 14643              	.LASF920:
 14644 0eb8 4544435F 		.ascii	"EDC_RSP_SYS_NOT_AVAIL\000"
 14644      5253505F 
 14644      5359535F 
 14644      4E4F545F 
 14644      41564149 
 14645              	.LASF180:
 14646 0ece 4F535F46 		.ascii	"OS_FN_FILE_FLUSHED\000"
 14646      4E5F4649 
 14646      4C455F46 
 14646      4C555348 
 14646      454400
 14647              	.LASF548:
 14648 0ee1 41504D5F 		.ascii	"APM_TERMDATA_CLR\000"
 14648      5445524D 
 14648      44415441 
 14648      5F434C52 
 14648      00
 14649              	.LASF121:
 14650 0ef2 4F535F46 		.ascii	"OS_FN_SM2_GET_MESS\000"
 14650      4E5F534D 
 14650      325F4745 
ARM GAS  C:\Users\AHMED~1.ELE\AppData\Local\Temp\cc0wYKcg.s 			page 298


 14650      545F4D45 
 14650      535300
 14651              	.LASF214:
 14652 0f05 4F535F46 		.ascii	"OS_FN_SAM_SELECT\000"
 14652      4E5F5341 
 14652      4D5F5345 
 14652      4C454354 
 14652      00
 14653              	.LASF649:
 14654 0f16 73625F70 		.ascii	"sb_psw_refund\000"
 14654      73775F72 
 14654      6566756E 
 14654      6400
 14655              	.LASF331:
 14656 0f24 4F535F46 		.ascii	"OS_FN_CLICC_CLOSE\000"
 14656      4E5F434C 
 14656      4943435F 
 14656      434C4F53 
 14656      4500
 14657              	.LASF233:
 14658 0f36 4F535F46 		.ascii	"OS_FN_SLE_IO\000"
 14658      4E5F534C 
 14658      455F494F 
 14658      00
 14659              	.LASF191:
 14660 0f43 4F535F46 		.ascii	"OS_FN_FILE_DEACTIVATE\000"
 14660      4E5F4649 
 14660      4C455F44 
 14660      45414354 
 14660      49564154 
 14661              	.LASF640:
 14662 0f59 625F6375 		.ascii	"b_currency\000"
 14662      7272656E 
 14662      637900
 14663              	.LASF876:
 14664 0f64 4544435F 		.ascii	"EDC_FN_CARD_REC\000"
 14664      464E5F43 
 14664      4152445F 
 14664      52454300 
 14665              	.LASF1047:
 14666 0f74 54784275 		.ascii	"TxBufSetup\000"
 14666      66536574 
 14666      757000
 14667              	.LASF131:
 14668 0f7f 4F535F46 		.ascii	"OS_FN_KEY_FLUSH\000"
 14668      4E5F4B45 
 14668      595F464C 
 14668      55534800 
 14669              	.LASF777:
 14670 0f8f 735F5478 		.ascii	"s_TxBuf\000"
 14670      42756600 
 14671              	.LASF578:
 14672 0f97 625F7365 		.ascii	"b_sec_redial\000"
 14672      635F7265 
 14672      6469616C 
 14672      00
 14673              	.LASF678:
ARM GAS  C:\Users\AHMED~1.ELE\AppData\Local\Temp\cc0wYKcg.s 			page 299


 14674 0fa4 73625F73 		.ascii	"sb_sec_trans_tel\000"
 14674      65635F74 
 14674      72616E73 
 14674      5F74656C 
 14674      00
 14675              	.LASF829:
 14676 0fb5 4544435F 		.ascii	"EDC_CN_REFUND\000"
 14676      434E5F52 
 14676      4546554E 
 14676      4400
 14677              	.LASF195:
 14678 0fc3 4F535F46 		.ascii	"OS_FN_FILE_AUTH\000"
 14678      4E5F4649 
 14678      4C455F41 
 14678      55544800 
 14679              	.LASF776:
 14680 0fd3 735F4D73 		.ascii	"s_MsgBuf\000"
 14680      67427566 
 14680      00
 14681              	.LASF892:
 14682 0fdc 4544435F 		.ascii	"EDC_RSP_COMPLETED\000"
 14682      5253505F 
 14682      434F4D50 
 14682      4C455445 
 14682      4400
 14683              	.LASF593:
 14684 0fee 625F7070 		.ascii	"b_ppad_port\000"
 14684      61645F70 
 14684      6F727400 
 14685              	.LASF340:
 14686 0ffa 4F535F46 		.ascii	"OS_FN_CLICC_LED_ON\000"
 14686      4E5F434C 
 14686      4943435F 
 14686      4C45445F 
 14686      4F4E00
 14687              	.LASF293:
 14688 100d 4F535F46 		.ascii	"OS_FN_BATT_TEMP\000"
 14688      4E5F4241 
 14688      54545F54 
 14688      454D5000 
 14689              	.LASF281:
 14690 101d 4F535F46 		.ascii	"OS_FN_MDM_LAST_CONN_STAT\000"
 14690      4E5F4D44 
 14690      4D5F4C41 
 14690      53545F43 
 14690      4F4E4E5F 
 14691              	.LASF135:
 14692 1036 4F535F46 		.ascii	"OS_FN_KEY_CBC_MAC\000"
 14692      4E5F4B45 
 14692      595F4342 
 14692      435F4D41 
 14692      4300
 14693              	.LASF958:
 14694 1048 4544435F 		.ascii	"EDC_SE_ENTER_REF_TOTAL\000"
 14694      53455F45 
 14694      4E544552 
 14694      5F524546 
ARM GAS  C:\Users\AHMED~1.ELE\AppData\Local\Temp\cc0wYKcg.s 			page 300


 14694      5F544F54 
 14695              	.LASF253:
 14696 105f 4F535F46 		.ascii	"OS_FN_USBSER_CLOSE\000"
 14696      4E5F5553 
 14696      42534552 
 14696      5F434C4F 
 14696      534500
 14697              	.LASF207:
 14698 1072 4F535F46 		.ascii	"OS_FN_FILE_IOCTL\000"
 14698      4E5F4649 
 14698      4C455F49 
 14698      4F43544C 
 14698      00
 14699              	.LASF145:
 14700 1083 4F535F46 		.ascii	"OS_FN_THREAD_CLOSE\000"
 14700      4E5F5448 
 14700      52454144 
 14700      5F434C4F 
 14700      534500
 14701              	.LASF122:
 14702 1096 4F535F46 		.ascii	"OS_FN_SM3_ASCII\000"
 14702      4E5F534D 
 14702      335F4153 
 14702      43494900 
 14703              	.LASF376:
 14704 10a6 4F535F46 		.ascii	"OS_FN_TAMPER_RESET_STATUS\000"
 14704      4E5F5441 
 14704      4D504552 
 14704      5F524553 
 14704      45545F53 
 14705              	.LASF873:
 14706 10c0 4544435F 		.ascii	"EDC_FN_START_BATCH\000"
 14706      464E5F53 
 14706      54415254 
 14706      5F424154 
 14706      434800
 14707              	.LASF267:
 14708 10d3 4F535F46 		.ascii	"OS_FN_FL_ERASE_END\000"
 14708      4E5F464C 
 14708      5F455241 
 14708      53455F45 
 14708      4E4400
 14709              	.LASF240:
 14710 10e6 4F535F46 		.ascii	"OS_FN_LAN_STATUS\000"
 14710      4E5F4C41 
 14710      4E5F5354 
 14710      41545553 
 14710      00
 14711              	.LASF694:
 14712 10f7 625F7365 		.ascii	"b_settle_mdm_mode\000"
 14712      74746C65 
 14712      5F6D646D 
 14712      5F6D6F64 
 14712      6500
 14713              	.LASF86:
 14714 1109 4F535F46 		.ascii	"OS_FN_COM3_READ\000"
 14714      4E5F434F 
ARM GAS  C:\Users\AHMED~1.ELE\AppData\Local\Temp\cc0wYKcg.s 			page 301


 14714      4D335F52 
 14714      45414400 
 14715              	.LASF362:
 14716 1119 4F535F46 		.ascii	"OS_FN_BUS_START\000"
 14716      4E5F4255 
 14716      535F5354 
 14716      41525400 
 14717              	.LASF62:
 14718 1129 4F535F46 		.ascii	"OS_FN_DISP_ICON_SET_SIGNAL_TYPE\000"
 14718      4E5F4449 
 14718      53505F49 
 14718      434F4E5F 
 14718      5345545F 
 14719              	.LASF450:
 14720 1149 4F535F46 		.ascii	"OS_FN_CLICC_DEBUG\000"
 14720      4E5F434C 
 14720      4943435F 
 14720      44454255 
 14720      4700
 14721              	.LASF676:
 14722 115b 625F7072 		.ascii	"b_pri_trans_conn_time\000"
 14722      695F7472 
 14722      616E735F 
 14722      636F6E6E 
 14722      5F74696D 
 14723              	.LASF742:
 14724 1171 735F6474 		.ascii	"s_dtg\000"
 14724      6700
 14725              	.LASF930:
 14726 1177 4544435F 		.ascii	"EDC_RSP_TXN_CANCEL\000"
 14726      5253505F 
 14726      54584E5F 
 14726      43414E43 
 14726      454C00
 14727              	.LASF198:
 14728 118a 4F535F46 		.ascii	"OS_FN_FILE_FREESPACE\000"
 14728      4E5F4649 
 14728      4C455F46 
 14728      52454553 
 14728      50414345 
 14729              	.LASF187:
 14730 119f 4F535F46 		.ascii	"OS_FN_FILE_END\000"
 14730      4E5F4649 
 14730      4C455F45 
 14730      4E4400
 14731              	.LASF354:
 14732 11ae 4F535F46 		.ascii	"OS_FN_DEVICE_IOCTL\000"
 14732      4E5F4445 
 14732      56494345 
 14732      5F494F43 
 14732      544C00
 14733              	.LASF433:
 14734 11c1 4F535F46 		.ascii	"OS_FN_BREG_WRITE\000"
 14734      4E5F4252 
 14734      45475F57 
 14734      52495445 
 14734      00
ARM GAS  C:\Users\AHMED~1.ELE\AppData\Local\Temp\cc0wYKcg.s 			page 302


 14735              	.LASF72:
 14736 11d2 4F535F46 		.ascii	"OS_FN_COM1_SSEND\000"
 14736      4E5F434F 
 14736      4D315F53 
 14736      53454E44 
 14736      00
 14737              	.LASF891:
 14738 11e3 4544435F 		.ascii	"EDC_PN_LOW_BATT\000"
 14738      504E5F4C 
 14738      4F575F42 
 14738      41545400 
 14739              	.LASF547:
 14740 11f3 41504D5F 		.ascii	"APM_STIS_ADDTBL\000"
 14740      53544953 
 14740      5F414444 
 14740      54424C00 
 14741              	.LASF365:
 14742 1203 4F535F46 		.ascii	"OS_FN_NETDEV_OPEN\000"
 14742      4E5F4E45 
 14742      54444556 
 14742      5F4F5045 
 14742      4E00
 14743              	.LASF557:
 14744 1215 41504D5F 		.ascii	"APM_UPD_BAT_REC\000"
 14744      5550445F 
 14744      4241545F 
 14744      52454300 
 14745              	.LASF448:
 14746 1225 4F535F46 		.ascii	"OS_FN_APPCALL_RETURN\000"
 14746      4E5F4150 
 14746      5043414C 
 14746      4C5F5245 
 14746      5455524E 
 14747              	.LASF89:
 14748 123a 4F535F46 		.ascii	"OS_FN_COM3_SREAD\000"
 14748      4E5F434F 
 14748      4D335F53 
 14748      52454144 
 14748      00
 14749              	.LASF533:
 14750 124b 41504D5F 		.ascii	"APM_GETDESCCOUNT\000"
 14750      47455444 
 14750      45534343 
 14750      4F554E54 
 14750      00
 14751              	.LASF210:
 14752 125c 4F535F46 		.ascii	"OS_FN_CONFIG_WRITE\000"
 14752      4E5F434F 
 14752      4E464947 
 14752      5F575249 
 14752      544500
 14753              	.LASF284:
 14754 126f 4F535F46 		.ascii	"OS_FN_MCOM_PERMIT\000"
 14754      4E5F4D43 
 14754      4F4D5F50 
 14754      45524D49 
 14754      5400
ARM GAS  C:\Users\AHMED~1.ELE\AppData\Local\Temp\cc0wYKcg.s 			page 303


 14755              	.LASF247:
 14756 1281 4F535F46 		.ascii	"OS_FN_LPT_OPEN\000"
 14756      4E5F4C50 
 14756      545F4F50 
 14756      454E00
 14757              	.LASF322:
 14758 1290 4F535F46 		.ascii	"OS_FN_CODEC_OPEN\000"
 14758      4E5F434F 
 14758      4445435F 
 14758      4F50454E 
 14758      00
 14759              	.LASF333:
 14760 12a1 4F535F46 		.ascii	"OS_FN_CLICC_CTRL\000"
 14760      4E5F434C 
 14760      4943435F 
 14760      4354524C 
 14760      00
 14761              	.LASF470:
 14762 12b2 4F535F46 		.ascii	"OS_FN_GCM_AES_CLOSE\000"
 14762      4E5F4743 
 14762      4D5F4145 
 14762      535F434C 
 14762      4F534500 
 14763              	.LASF143:
 14764 12c6 4F535F46 		.ascii	"OS_FN_PCI_DSS\000"
 14764      4E5F5043 
 14764      495F4453 
 14764      5300
 14765              	.LASF791:
 14766 12d4 53414C45 		.ascii	"SALE_SWIPE\000"
 14766      5F535749 
 14766      504500
 14767              	.LASF412:
 14768 12df 4F535F46 		.ascii	"OS_FN_WIFI_STATUS\000"
 14768      4E5F5749 
 14768      46495F53 
 14768      54415455 
 14768      5300
 14769              	.LASF20:
 14770 12f1 77546167 		.ascii	"wTag\000"
 14770      00
 14771              	.LASF583:
 14772 12f6 73625F72 		.ascii	"sb_roc_no\000"
 14772      6F635F6E 
 14772      6F00
 14773              	.LASF106:
 14774 1300 4F535F46 		.ascii	"OS_FN_MD5_PROCESS\000"
 14774      4E5F4D44 
 14774      355F5052 
 14774      4F434553 
 14774      5300
 14775              	.LASF831:
 14776 1312 4544435F 		.ascii	"EDC_CN_SALE_COMP\000"
 14776      434E5F53 
 14776      414C455F 
 14776      434F4D50 
 14776      00
ARM GAS  C:\Users\AHMED~1.ELE\AppData\Local\Temp\cc0wYKcg.s 			page 304


 14777              	.LASF484:
 14778 1323 4F535F46 		.ascii	"OS_FN_GPRS_IS_HL6RD\000"
 14778      4E5F4750 
 14778      52535F49 
 14778      535F484C 
 14778      36524400 
 14779              	.LASF1019:
 14780 1337 6150726F 		.ascii	"aProcCode\000"
 14780      63436F64 
 14780      6500
 14781              	.LASF846:
 14782 1341 4544435F 		.ascii	"EDC_IN_ENTER_AMOUNT\000"
 14782      494E5F45 
 14782      4E544552 
 14782      5F414D4F 
 14782      554E5400 
 14783              	.LASF705:
 14784 1355 625F6365 		.ascii	"b_century\000"
 14784      6E747572 
 14784      7900
 14785              	.LASF685:
 14786 135f 625F7365 		.ascii	"b_sec_settle_conn_time\000"
 14786      635F7365 
 14786      74746C65 
 14786      5F636F6E 
 14786      6E5F7469 
 14787              	.LASF181:
 14788 1376 4F535F46 		.ascii	"OS_FN_FILE_SEEK\000"
 14788      4E5F4649 
 14788      4C455F53 
 14788      45454B00 
 14789              	.LASF666:
 14790 1386 625F6964 		.ascii	"b_id\000"
 14790      00
 14791              	.LASF569:
 14792 138b 625F7374 		.ascii	"b_stis_mode\000"
 14792      69735F6D 
 14792      6F646500 
 14793              	.LASF862:
 14794 1397 4544435F 		.ascii	"EDC_AJ_NOT_ALLOW\000"
 14794      414A5F4E 
 14794      4F545F41 
 14794      4C4C4F57 
 14794      00
 14795              	.LASF127:
 14796 13a8 4F535F46 		.ascii	"OS_FN_KEY_SAVE\000"
 14796      4E5F4B45 
 14796      595F5341 
 14796      564500
 14797              	.LASF353:
 14798 13b7 4F535F46 		.ascii	"OS_FN_DEVICE_ALLOC_MEDIA\000"
 14798      4E5F4445 
 14798      56494345 
 14798      5F414C4C 
 14798      4F435F4D 
 14799              	.LASF212:
 14800 13d0 4F535F46 		.ascii	"OS_FN_SAM_OPEN\000"
ARM GAS  C:\Users\AHMED~1.ELE\AppData\Local\Temp\cc0wYKcg.s 			page 305


 14800      4E5F5341 
 14800      4D5F4F50 
 14800      454E00
 14801              	.LASF804:
 14802 13df 53414C45 		.ascii	"SALE_ICC\000"
 14802      5F494343 
 14802      00
 14803              	.LASF352:
 14804 13e8 4F535F46 		.ascii	"OS_FN_DEVICE_UNREGISTER\000"
 14804      4E5F4445 
 14804      56494345 
 14804      5F554E52 
 14804      45474953 
 14805              	.LASF162:
 14806 1400 4F535F46 		.ascii	"OS_FN_LED_ON\000"
 14806      4E5F4C45 
 14806      445F4F4E 
 14806      00
 14807              	.LASF146:
 14808 140d 4F535F46 		.ascii	"OS_FN_THREAD_CREATE\000"
 14808      4E5F5448 
 14808      52454144 
 14808      5F435245 
 14808      41544500 
 14809              	.LASF1046:
 14810 1421 73707269 		.ascii	"sprintf\000"
 14810      6E746600 
 14811              	.LASF144:
 14812 1429 4F535F46 		.ascii	"OS_FN_THREAD_OPEN\000"
 14812      4E5F5448 
 14812      52454144 
 14812      5F4F5045 
 14812      4E00
 14813              	.LASF93:
 14814 143b 4F535F46 		.ascii	"OS_FN_DES2\000"
 14814      4E5F4445 
 14814      533200
 14815              	.LASF65:
 14816 1446 4F535F46 		.ascii	"OS_FN_COM1_CLOSE\000"
 14816      4E5F434F 
 14816      4D315F43 
 14816      4C4F5345 
 14816      00
 14817              	.LASF403:
 14818 1457 4F535F46 		.ascii	"OS_FN_BARCODE_CMD\000"
 14818      4E5F4241 
 14818      52434F44 
 14818      455F434D 
 14818      4400
 14819              	.LASF488:
 14820 1469 4F535F46 		.ascii	"OS_FN_DISP_PUTS_ANYWHERE\000"
 14820      4E5F4449 
 14820      53505F50 
 14820      5554535F 
 14820      414E5957 
 14821              	.LASF1014:
 14822 1482 735F696E 		.ascii	"s_input\000"
ARM GAS  C:\Users\AHMED~1.ELE\AppData\Local\Temp\cc0wYKcg.s 			page 306


 14822      70757400 
 14823              	.LASF518:
 14824 148a 41504D5F 		.ascii	"APM_GETKBDTO\000"
 14824      4745544B 
 14824      4244544F 
 14824      00
 14825              	.LASF289:
 14826 1497 4F535F46 		.ascii	"OS_FN_MCOM_STATUS\000"
 14826      4E5F4D43 
 14826      4F4D5F53 
 14826      54415455 
 14826      5300
 14827              	.LASF684:
 14828 14a9 73625F73 		.ascii	"sb_sec_settle_tel\000"
 14828      65635F73 
 14828      6574746C 
 14828      655F7465 
 14828      6C00
 14829              	.LASF767:
 14830 14bb 4D53475F 		.ascii	"MSG_BUF\000"
 14830      42554600 
 14831              	.LASF627:
 14832 14c3 775F6372 		.ascii	"w_crc\000"
 14832      6300
 14833              	.LASF471:
 14834 14c9 4F535F46 		.ascii	"OS_FN_SYS_THREAD_CREATE\000"
 14834      4E5F5359 
 14834      535F5448 
 14834      52454144 
 14834      5F435245 
 14835              	.LASF292:
 14836 14e1 4F535F46 		.ascii	"OS_FN_BATT_LEVEL\000"
 14836      4E5F4241 
 14836      54545F4C 
 14836      4556454C 
 14836      00
 14837              	.LASF575:
 14838 14f2 625F7072 		.ascii	"b_pri_redial\000"
 14838      695F7265 
 14838      6469616C 
 14838      00
 14839              	.LASF537:
 14840 14ff 41504D5F 		.ascii	"APM_GETEXPARAMCOUNT\000"
 14840      47455445 
 14840      58504152 
 14840      414D434F 
 14840      554E5400 
 14841              	.LASF206:
 14842 1513 4F535F46 		.ascii	"OS_FN_FILE_SYNC\000"
 14842      4E5F4649 
 14842      4C455F53 
 14842      594E4300 
 14843              	.LASF765:
 14844 1523 625F6D6D 		.ascii	"b_mm\000"
 14844      00
 14845              	.LASF893:
 14846 1528 4544435F 		.ascii	"EDC_RSP_CALL_ISSUER\000"
ARM GAS  C:\Users\AHMED~1.ELE\AppData\Local\Temp\cc0wYKcg.s 			page 307


 14846      5253505F 
 14846      43414C4C 
 14846      5F495353 
 14846      55455200 
 14847              	.LASF1050:
 14848 153c 6D656D63 		.ascii	"memcmp\000"
 14848      6D7000
 14849              	.LASF133:
 14850 1543 4F535F46 		.ascii	"OS_FN_KEY_DUKPT_MAC_CAL\000"
 14850      4E5F4B45 
 14850      595F4455 
 14850      4B50545F 
 14850      4D41435F 
 14851              	.LASF30:
 14852 155b 4F535F46 		.ascii	"OS_FN_KBD_SCODE\000"
 14852      4E5F4B42 
 14852      445F5343 
 14852      4F444500 
 14853              	.LASF156:
 14854 156b 4F535F46 		.ascii	"OS_FN_BUFMAN_SHRINK\000"
 14854      4E5F4255 
 14854      464D414E 
 14854      5F534852 
 14854      494E4B00 
 14855              	.LASF1070:
 14856 157f 42797465 		.ascii	"ByteCopy\000"
 14856      436F7079 
 14856      00
 14857              	.LASF347:
 14858 1588 4F535F46 		.ascii	"OS_FN_USBHOST_DEVICEMAP\000"
 14858      4E5F5553 
 14858      42484F53 
 14858      545F4445 
 14858      56494345 
 14859              	.LASF473:
 14860 15a0 4F535F46 		.ascii	"OS_FN_WIFI_SOCKET_DISCONNECT\000"
 14860      4E5F5749 
 14860      46495F53 
 14860      4F434B45 
 14860      545F4449 
 14861              	.LASF197:
 14862 15bd 4F535F46 		.ascii	"OS_FN_FILE_GET_FREE_SPACE\000"
 14862      4E5F4649 
 14862      4C455F47 
 14862      45545F46 
 14862      5245455F 
 14863              	.LASF853:
 14864 15d7 4544435F 		.ascii	"EDC_IN_ENTER_DESC\000"
 14864      494E5F45 
 14864      4E544552 
 14864      5F444553 
 14864      4300
 14865              	.LASF422:
 14866 15e9 4F535F46 		.ascii	"OS_FN_NFC_IC_REG_DIRECT_WRITE\000"
 14866      4E5F4E46 
 14866      435F4943 
 14866      5F524547 
ARM GAS  C:\Users\AHMED~1.ELE\AppData\Local\Temp\cc0wYKcg.s 			page 308


 14866      5F444952 
 14867              	.LASF273:
 14868 1607 4F535F46 		.ascii	"OS_FN_FL_CREAD_END\000"
 14868      4E5F464C 
 14868      5F435245 
 14868      41445F45 
 14868      4E4400
 14869              	.LASF586:
 14870 161a 73625F69 		.ascii	"sb_init_nii\000"
 14870      6E69745F 
 14870      6E696900 
 14871              	.LASF170:
 14872 1626 4F535F46 		.ascii	"OS_FN_MALLOC\000"
 14872      4E5F4D41 
 14872      4C4C4F43 
 14872      00
 14873              	.LASF243:
 14874 1633 4F535F46 		.ascii	"OS_FN_MSR_RXLEN\000"
 14874      4E5F4D53 
 14874      525F5258 
 14874      4C454E00 
 14875              	.LASF957:
 14876 1643 4544435F 		.ascii	"EDC_SE_ENTER_SALE_TOTAL\000"
 14876      53455F45 
 14876      4E544552 
 14876      5F53414C 
 14876      455F544F 
 14877              	.LASF446:
 14878 165b 4F535F46 		.ascii	"OS_FN_GET_MCLK\000"
 14878      4E5F4745 
 14878      545F4D43 
 14878      4C4B00
 14879              	.LASF120:
 14880 166a 4F535F46 		.ascii	"OS_FN_SM2_DECRYPT\000"
 14880      4E5F534D 
 14880      325F4445 
 14880      43525950 
 14880      5400
 14881              	.LASF216:
 14882 167c 4F535F46 		.ascii	"OS_FN_SAM_ON\000"
 14882      4E5F5341 
 14882      4D5F4F4E 
 14882      00
 14883              	.LASF321:
 14884 1689 4F535F46 		.ascii	"OS_FN_TPAD_RAW_POS\000"
 14884      4E5F5450 
 14884      41445F52 
 14884      41575F50 
 14884      4F5300
 14885              	.LASF796:
 14886 169c 53414C45 		.ascii	"SALE_OFFLINE\000"
 14886      5F4F4646 
 14886      4C494E45 
 14886      00
 14887              	.LASF603:
 14888 16a9 73625F65 		.ascii	"sb_emvkey_date\000"
 14888      6D766B65 
ARM GAS  C:\Users\AHMED~1.ELE\AppData\Local\Temp\cc0wYKcg.s 			page 309


 14888      795F6461 
 14888      746500
 14889              	.LASF1041:
 14890 16b8 6765745F 		.ascii	"get_mem\000"
 14890      6D656D00 
 14891              	.LASF141:
 14892 16c0 4F535F46 		.ascii	"OS_FN_PCI_DSS_GET_KVC\000"
 14892      4E5F5043 
 14892      495F4453 
 14892      535F4745 
 14892      545F4B56 
 14893              	.LASF802:
 14894 16d6 53455454 		.ascii	"SETTLEMENT\000"
 14894      4C454D45 
 14894      4E5400
 14895              	.LASF552:
 14896 16e1 41504D5F 		.ascii	"APM_GET_REC_COUNT\000"
 14896      4745545F 
 14896      5245435F 
 14896      434F554E 
 14896      5400
 14897              	.LASF339:
 14898 16f3 4F535F46 		.ascii	"OS_FN_CLICC_LED_CLEAR\000"
 14898      4E5F434C 
 14898      4943435F 
 14898      4C45445F 
 14898      434C4541 
 14899              	.LASF803:
 14900 1709 4544435F 		.ascii	"EDC_REV\000"
 14900      52455600 
 14901              	.LASF248:
 14902 1711 4F535F46 		.ascii	"OS_FN_LPT_CLOSE\000"
 14902      4E5F4C50 
 14902      545F434C 
 14902      4F534500 
 14903              	.LASF421:
 14904 1721 4F535F46 		.ascii	"OS_FN_NFC_INFO_SET\000"
 14904      4E5F4E46 
 14904      435F494E 
 14904      464F5F53 
 14904      455400
 14905              	.LASF732:
 14906 1734 73625F70 		.ascii	"sb_product\000"
 14906      726F6475 
 14906      637400
 14907              	.LASF546:
 14908 173f 41504D5F 		.ascii	"APM_STIS_CLR\000"
 14908      53544953 
 14908      5F434C52 
 14908      00
 14909              	.LASF1049:
 14910 174c 6D656D63 		.ascii	"memcpy\000"
 14910      707900
 14911              	.LASF839:
 14912 1753 4544435F 		.ascii	"EDC_CN_TRANS_LAST\000"
 14912      434E5F54 
 14912      52414E53 
ARM GAS  C:\Users\AHMED~1.ELE\AppData\Local\Temp\cc0wYKcg.s 			page 310


 14912      5F4C4153 
 14912      5400
 14913              	.LASF423:
 14914 1765 4F535F46 		.ascii	"OS_FN_NFC_IC_REG_DIRECT_READ\000"
 14914      4E5F4E46 
 14914      435F4943 
 14914      5F524547 
 14914      5F444952 
 14915              	.LASF841:
 14916 1782 4544435F 		.ascii	"EDC_IN_USE_ICC\000"
 14916      494E5F55 
 14916      53455F49 
 14916      434300
 14917              	.LASF723:
 14918 1791 625F7472 		.ascii	"b_trans_old\000"
 14918      616E735F 
 14918      6F6C6400 
 14919              	.LASF33:
 14920 179d 4F535F46 		.ascii	"OS_FN_KBD_UNLOCK\000"
 14920      4E5F4B42 
 14920      445F554E 
 14920      4C4F434B 
 14920      00
 14921              	.LASF502:
 14922 17ae 70624D73 		.ascii	"pbMsg\000"
 14922      6700
 14923              	.LASF977:
 14924 17b4 73625F61 		.ascii	"sb_amex_4DBC\000"
 14924      6D65785F 
 14924      34444243 
 14924      00
 14925              	.LASF255:
 14926 17c1 4F535F46 		.ascii	"OS_FN_USBSER_WRITE\000"
 14926      4E5F5553 
 14926      42534552 
 14926      5F575249 
 14926      544500
 14927              	.LASF848:
 14928 17d4 4544435F 		.ascii	"EDC_IN_INV_TIPS\000"
 14928      494E5F49 
 14928      4E565F54 
 14928      49505300 
 14929              	.LASF947:
 14930 17e4 4544435F 		.ascii	"EDC_RSP_VERIFY_SIGN\000"
 14930      5253505F 
 14930      56455249 
 14930      46595F53 
 14930      49474E00 
 14931              	.LASF368:
 14932 17f8 4F535F46 		.ascii	"OS_FN_NETDEV_EVENT\000"
 14932      4E5F4E45 
 14932      54444556 
 14932      5F455645 
 14932      4E5400
 14933              	.LASF80:
 14934 180b 4F535F46 		.ascii	"OS_FN_COM2_SREAD\000"
 14934      4E5F434F 
ARM GAS  C:\Users\AHMED~1.ELE\AppData\Local\Temp\cc0wYKcg.s 			page 311


 14934      4D325F53 
 14934      52454144 
 14934      00
 14935              	.LASF592:
 14936 181c 64645F64 		.ascii	"dd_default_amount\000"
 14936      65666175 
 14936      6C745F61 
 14936      6D6F756E 
 14936      7400
 14937              	.LASF371:
 14938 182e 4F535F46 		.ascii	"OS_FN_USBKBD_CLOSE\000"
 14938      4E5F5553 
 14938      424B4244 
 14938      5F434C4F 
 14938      534500
 14939              	.LASF136:
 14940 1841 4F535F46 		.ascii	"OS_FN_KEY_HASH\000"
 14940      4E5F4B45 
 14940      595F4841 
 14940      534800
 14941              	.LASF53:
 14942 1850 4F535F46 		.ascii	"OS_FN_DISP_LENGTH\000"
 14942      4E5F4449 
 14942      53505F4C 
 14942      454E4754 
 14942      4800
 14943              	.LASF750:
 14944 1862 544F5441 		.ascii	"TOTAL_STRUCT\000"
 14944      4C5F5354 
 14944      52554354 
 14944      00
 14945              	.LASF939:
 14946 186f 4544435F 		.ascii	"EDC_RSP_LINE_OCCUP\000"
 14946      5253505F 
 14946      4C494E45 
 14946      5F4F4343 
 14946      555000
 14947              	.LASF701:
 14948 1882 625F6B65 		.ascii	"b_key\000"
 14948      7900
 14949              	.LASF687:
 14950 1888 625F7472 		.ascii	"b_trans_mdm_mode\000"
 14950      616E735F 
 14950      6D646D5F 
 14950      6D6F6465 
 14950      00
 14951              	.LASF1042:
 14952 1899 7061636B 		.ascii	"pack_byte\000"
 14952      5F627974 
 14952      6500
 14953              	.LASF785:
 14954 18a3 625F6469 		.ascii	"b_disp_chgd\000"
 14954      73705F63 
 14954      68676400 
 14955              	.LASF231:
 14956 18af 4F535F46 		.ascii	"OS_FN_SLE_CLOSE\000"
 14956      4E5F534C 
ARM GAS  C:\Users\AHMED~1.ELE\AppData\Local\Temp\cc0wYKcg.s 			page 312


 14956      455F434C 
 14956      4F534500 
 14957              	.LASF218:
 14958 18bf 4F535F46 		.ascii	"OS_FN_SAM_T1\000"
 14958      4E5F5341 
 14958      4D5F5431 
 14958      00
 14959              	.LASF221:
 14960 18cc 4F535F46 		.ascii	"OS_FN_MMC_CLOSE\000"
 14960      4E5F4D4D 
 14960      435F434C 
 14960      4F534500 
 14961              	.LASF772:
 14962 18dc 735F6163 		.ascii	"s_acq_rev\000"
 14962      715F7265 
 14962      7600
 14963              	.LASF298:
 14964 18e6 4F535F46 		.ascii	"OS_FN_ADC_CH_READ\000"
 14964      4E5F4144 
 14964      435F4348 
 14964      5F524541 
 14964      4400
 14965              	.LASF645:
 14966 18f8 73625F63 		.ascii	"sb_currency_name\000"
 14966      75727265 
 14966      6E63795F 
 14966      6E616D65 
 14966      00
 14967              	.LASF890:
 14968 1909 4544435F 		.ascii	"EDC_PN_PLS_WAIT\000"
 14968      504E5F50 
 14968      4C535F57 
 14968      41495400 
 14969              	.LASF361:
 14970 1919 4F535F46 		.ascii	"OS_FN_INTERRUPT_UNREGISTER\000"
 14970      4E5F494E 
 14970      54455252 
 14970      5550545F 
 14970      554E5245 
 14971              	.LASF657:
 14972 1934 61706E32 		.ascii	"apn2_ip\000"
 14972      5F697000 
 14973              	.LASF79:
 14974 193c 4F535F46 		.ascii	"OS_FN_COM2_STATUS\000"
 14974      4E5F434F 
 14974      4D325F53 
 14974      54415455 
 14974      5300
 14975              	.LASF813:
 14976 194e 53455454 		.ascii	"SETT_ADV\000"
 14976      5F414456 
 14976      00
 14977              	.LASF888:
 14978 1957 4544435F 		.ascii	"EDC_PN_NO_PAPER\000"
 14978      504E5F4E 
 14978      4F5F5041 
 14978      50455200 
ARM GAS  C:\Users\AHMED~1.ELE\AppData\Local\Temp\cc0wYKcg.s 			page 313


 14979              	.LASF177:
 14980 1967 4F535F46 		.ascii	"OS_FN_FILE_EXIST\000"
 14980      4E5F4649 
 14980      4C455F45 
 14980      58495354 
 14980      00
 14981              	.LASF275:
 14982 1978 4F535F46 		.ascii	"OS_FN_MDM_OPEN\000"
 14982      4E5F4D44 
 14982      4D5F4F50 
 14982      454E00
 14983              	.LASF482:
 14984 1987 4F535F46 		.ascii	"OS_FN_IMG_SENSOR_GET_FRAME_COMPLETE\000"
 14984      4E5F494D 
 14984      475F5345 
 14984      4E534F52 
 14984      5F474554 
 14985              	.LASF335:
 14986 19ab 4F535F46 		.ascii	"OS_FN_CLICC_LED_OPEN\000"
 14986      4E5F434C 
 14986      4943435F 
 14986      4C45445F 
 14986      4F50454E 
 14987              	.LASF755:
 14988 19c0 735F766F 		.ascii	"s_void_sale\000"
 14988      69645F73 
 14988      616C6500 
 14989              	.LASF1062:
 14990 19cc 50726F6D 		.ascii	"Prompt4DBC\000"
 14990      70743444 
 14990      424300
 14991              	.LASF978:
 14992 19d7 6669656C 		.ascii	"field71\000"
 14992      64373100 
 14993              	.LASF257:
 14994 19df 4F535F46 		.ascii	"OS_FN_USBSER_ENABLE\000"
 14994      4E5F5553 
 14994      42534552 
 14994      5F454E41 
 14994      424C4500 
 14995              	.LASF762:
 14996 19f3 735F6973 		.ascii	"s_issuer_tbl\000"
 14996      73756572 
 14996      5F74626C 
 14996      00
 14997              	.LASF885:
 14998 1a00 4544435F 		.ascii	"EDC_PN_PRINTING\000"
 14998      504E5F50 
 14998      52494E54 
 14998      494E4700 
 14999              	.LASF648:
 15000 1a10 73625F72 		.ascii	"sb_reserved\000"
 15000      65736572 
 15000      76656400 
 15001              	.LASF498:
 15002 1a1c 55534246 		.ascii	"USBFPRT_GENERAL_INFO_IMG_WIDTH\000"
 15002      5052545F 
ARM GAS  C:\Users\AHMED~1.ELE\AppData\Local\Temp\cc0wYKcg.s 			page 314


 15002      47454E45 
 15002      52414C5F 
 15002      494E464F 
 15003              	.LASF798:
 15004 1a3b 53414C45 		.ascii	"SALE_UNDER_LMT\000"
 15004      5F554E44 
 15004      45525F4C 
 15004      4D5400
 15005              	.LASF856:
 15006 1a4a 4544435F 		.ascii	"EDC_IN_TRACE\000"
 15006      494E5F54 
 15006      52414345 
 15006      00
 15007              	.LASF980:
 15008 1a57 6669656C 		.ascii	"field82\000"
 15008      64383200 
 15009              	.LASF981:
 15010 1a5f 6669656C 		.ascii	"field84\000"
 15010      64383400 
 15011              	.LASF982:
 15012 1a67 6669656C 		.ascii	"field86\000"
 15012      64383600 
 15013              	.LASF1065:
 15014 1a6f 7061636B 		.ascii	"pack_nbyte\000"
 15014      5F6E6279 
 15014      746500
 15015              	.LASF983:
 15016 1a7a 6669656C 		.ascii	"field8A\000"
 15016      64384100 
 15017              	.LASF636:
 15018 1a82 73625F68 		.ascii	"sb_help_tel\000"
 15018      656C705F 
 15018      74656C00 
 15019              	.LASF984:
 15020 1a8e 6669656C 		.ascii	"field91\000"
 15020      64393100 
 15021              	.LASF985:
 15022 1a96 6669656C 		.ascii	"field95\000"
 15022      64393500 
 15023              	.LASF986:
 15024 1a9e 6669656C 		.ascii	"field9A\000"
 15024      64394100 
 15025              	.LASF674:
 15026 1aa6 73625F6E 		.ascii	"sb_name\000"
 15026      616D6500 
 15027              	.LASF588:
 15028 1aae 625F6465 		.ascii	"b_default_app\000"
 15028      6661756C 
 15028      745F6170 
 15028      7000
 15029              	.LASF929:
 15030 1abc 4544435F 		.ascii	"EDC_RSP_CTL_REFER_MOBILE\000"
 15030      5253505F 
 15030      43544C5F 
 15030      52454645 
 15030      525F4D4F 
 15031              	.LASF367:
ARM GAS  C:\Users\AHMED~1.ELE\AppData\Local\Temp\cc0wYKcg.s 			page 315


 15032 1ad5 4F535F46 		.ascii	"OS_FN_NETDEV_GETLINK\000"
 15032      4E5F4E45 
 15032      54444556 
 15032      5F474554 
 15032      4C494E4B 
 15033              	.LASF265:
 15034 1aea 4F535F46 		.ascii	"OS_FN_FL_PGM_END\000"
 15034      4E5F464C 
 15034      5F50474D 
 15034      5F454E44 
 15034      00
 15035              	.LASF577:
 15036 1afb 625F7365 		.ascii	"b_sec_conn_time\000"
 15036      635F636F 
 15036      6E6E5F74 
 15036      696D6500 
 15037              	.LASF288:
 15038 1b0b 4F535F46 		.ascii	"OS_FN_MCOM_SSEND\000"
 15038      4E5F4D43 
 15038      4F4D5F53 
 15038      53454E44 
 15038      00
 15039              	.LASF801:
 15040 1b1c 5452414E 		.ascii	"TRANS_UPLOAD\000"
 15040      535F5550 
 15040      4C4F4144 
 15040      00
 15041              	.LASF1035:
 15042 1b29 6D6F7265 		.ascii	"more_msg\000"
 15042      5F6D7367 
 15042      00
 15043              	.LASF477:
 15044 1b32 4F535F46 		.ascii	"OS_FN_WIFI_GET_DEVICE_STATE\000"
 15044      4E5F5749 
 15044      46495F47 
 15044      45545F44 
 15044      45564943 
 15045              	.LASF14:
 15046 1b4e 574F5244 		.ascii	"WORD\000"
 15046      00
 15047              	.LASF456:
 15048 1b53 4F535F46 		.ascii	"OS_FN_LPT_GET_COUNT\000"
 15048      4E5F4C50 
 15048      545F4745 
 15048      545F434F 
 15048      554E5400 
 15049              	.LASF1037:
 15050 1b67 67474453 		.ascii	"gGDS\000"
 15050      00
 15051              	.LASF872:
 15052 1b6c 4544435F 		.ascii	"EDC_VD_NOT_ALLOW\000"
 15052      56445F4E 
 15052      4F545F41 
 15052      4C4C4F57 
 15052      00
 15053              	.LASF943:
 15054 1b7d 4544435F 		.ascii	"EDC_RSP_SWIPT_AE\000"
ARM GAS  C:\Users\AHMED~1.ELE\AppData\Local\Temp\cc0wYKcg.s 			page 316


 15054      5253505F 
 15054      53574950 
 15054      545F4145 
 15054      00
 15055              	.LASF326:
 15056 1b8e 4F535F46 		.ascii	"OS_FN_CODEC_STOP\000"
 15056      4E5F434F 
 15056      4445435F 
 15056      53544F50 
 15056      00
 15057              	.LASF490:
 15058 1b9f 4F535F46 		.ascii	"OS_FN_WIFI_GET_REGULATORY_DOMAIN\000"
 15058      4E5F5749 
 15058      46495F47 
 15058      45545F52 
 15058      4547554C 
 15059              	.LASF516:
 15060 1bc0 41504D5F 		.ascii	"APM_GETKBD\000"
 15060      4745544B 
 15060      424400
 15061              	.LASF989:
 15062 1bcb 6669656C 		.ascii	"field9F02\000"
 15062      64394630 
 15062      3200
 15063              	.LASF990:
 15064 1bd5 6669656C 		.ascii	"field9F03\000"
 15064      64394630 
 15064      3300
 15065              	.LASF677:
 15066 1bdf 625F7072 		.ascii	"b_pri_trans_redial\000"
 15066      695F7472 
 15066      616E735F 
 15066      72656469 
 15066      616C00
 15067              	.LASF991:
 15068 1bf2 6669656C 		.ascii	"field9F09\000"
 15068      64394630 
 15068      3900
 15069              	.LASF154:
 15070 1bfc 4F535F46 		.ascii	"OS_FN_BUFMAN_FREE\000"
 15070      4E5F4255 
 15070      464D414E 
 15070      5F465245 
 15070      4500
 15071              	.LASF250:
 15072 1c0e 4F535F46 		.ascii	"OS_FN_LPT_PUTDW\000"
 15072      4E5F4C50 
 15072      545F5055 
 15072      54445700 
 15073              	.LASF344:
 15074 1c1e 4F535F46 		.ascii	"OS_FN_USBHOST_STATUS\000"
 15074      4E5F5553 
 15074      42484F53 
 15074      545F5354 
 15074      41545553 
 15075              	.LASF436:
 15076 1c33 4F535F46 		.ascii	"OS_FN_SLEEP\000"
ARM GAS  C:\Users\AHMED~1.ELE\AppData\Local\Temp\cc0wYKcg.s 			page 317


 15076      4E5F534C 
 15076      45455000 
 15077              	.LASF780:
 15078 1c3f 735F454D 		.ascii	"s_EMVIn\000"
 15078      56496E00 
 15079              	.LASF520:
 15080 1c47 41504D5F 		.ascii	"APM_PRECONNECT\000"
 15080      50524543 
 15080      4F4E4E45 
 15080      435400
 15081              	.LASF753:
 15082 1c56 735F7469 		.ascii	"s_tips_tot\000"
 15082      70735F74 
 15082      6F7400
 15083              	.LASF725:
 15084 1c61 625F6163 		.ascii	"b_acc_ind\000"
 15084      635F696E 
 15084      6400
 15085              	.LASF618:
 15086 1c6b 73625F63 		.ascii	"sb_checkin_pri_no\000"
 15086      6865636B 
 15086      696E5F70 
 15086      72695F6E 
 15086      6F00
 15087              	.LASF317:
 15088 1c7d 4F535F46 		.ascii	"OS_FN_TPAD_DEL_OBJ\000"
 15088      4E5F5450 
 15088      41445F44 
 15088      454C5F4F 
 15088      424A00
 15089              	.LASF992:
 15090 1c90 6669656C 		.ascii	"field9F10\000"
 15090      64394631 
 15090      3000
 15091              	.LASF993:
 15092 1c9a 6669656C 		.ascii	"field9F1A\000"
 15092      64394631 
 15092      4100
 15093              	.LASF56:
 15094 1ca4 4F535F46 		.ascii	"OS_FN_DISP_BACKC\000"
 15094      4E5F4449 
 15094      53505F42 
 15094      41434B43 
 15094      00
 15095              	.LASF994:
 15096 1cb5 6669656C 		.ascii	"field9F1E\000"
 15096      64394631 
 15096      4500
 15097              	.LASF3:
 15098 1cbf 73686F72 		.ascii	"short unsigned int\000"
 15098      7420756E 
 15098      7369676E 
 15098      65642069 
 15098      6E7400
 15099              	.LASF174:
 15100 1cd2 4F535F46 		.ascii	"OS_FN_FILE_OPEN\000"
 15100      4E5F4649 
ARM GAS  C:\Users\AHMED~1.ELE\AppData\Local\Temp\cc0wYKcg.s 			page 318


 15100      4C455F4F 
 15100      50454E00 
 15101              	.LASF752:
 15102 1ce2 735F7361 		.ascii	"s_sale_tot\000"
 15102      6C655F74 
 15102      6F7400
 15103              	.LASF749:
 15104 1ced 775F636F 		.ascii	"w_count\000"
 15104      756E7400 
 15105              	.LASF71:
 15106 1cf5 4F535F46 		.ascii	"OS_FN_COM1_SREAD\000"
 15106      4E5F434F 
 15106      4D315F53 
 15106      52454144 
 15106      00
 15107              	.LASF107:
 15108 1d06 4F535F46 		.ascii	"OS_FN_MD5_FINISH\000"
 15108      4E5F4D44 
 15108      355F4649 
 15108      4E495348 
 15108      00
 15109              	.LASF741:
 15110 1d17 775F6973 		.ascii	"w_issuer_idx\000"
 15110      73756572 
 15110      5F696478 
 15110      00
 15111              	.LASF16:
 15112 1d24 4444574F 		.ascii	"DDWORD\000"
 15112      524400
 15113              	.LASF283:
 15114 1d2b 4F535F46 		.ascii	"OS_FN_MCOM_CLOSE\000"
 15114      4E5F4D43 
 15114      4F4D5F43 
 15114      4C4F5345 
 15114      00
 15115              	.LASF609:
 15116 1d3c 73625F6C 		.ascii	"sb_lxapp_date\000"
 15116      78617070 
 15116      5F646174 
 15116      6500
 15117              	.LASF996:
 15118 1d4a 6669656C 		.ascii	"field9F26\000"
 15118      64394632 
 15118      3600
 15119              	.LASF997:
 15120 1d54 6669656C 		.ascii	"field9F27\000"
 15120      64394632 
 15120      3700
 15121              	.LASF810:
 15122 1d5e 41555448 		.ascii	"AUTH_CTL\000"
 15122      5F43544C 
 15122      00
 15123              	.LASF731:
 15124 1d67 64645F6F 		.ascii	"dd_org_amount\000"
 15124      72675F61 
 15124      6D6F756E 
 15124      7400
ARM GAS  C:\Users\AHMED~1.ELE\AppData\Local\Temp\cc0wYKcg.s 			page 319


 15125              	.LASF148:
 15126 1d75 4F535F46 		.ascii	"OS_FN_THREAD_LOCK\000"
 15126      4E5F5448 
 15126      52454144 
 15126      5F4C4F43 
 15126      4B00
 15127              	.LASF203:
 15128 1d87 4F535F46 		.ascii	"OS_FN_FILE_MKDIR\000"
 15128      4E5F4649 
 15128      4C455F4D 
 15128      4B444952 
 15128      00
 15129              	.LASF194:
 15130 1d98 4F535F46 		.ascii	"OS_FN_FILE_TRUNCATE\000"
 15130      4E5F4649 
 15130      4C455F54 
 15130      52554E43 
 15130      41544500 
 15131              	.LASF1038:
 15132 1dac 4B547261 		.ascii	"KTransBitmap\000"
 15132      6E734269 
 15132      746D6170 
 15132      00
 15133              	.LASF918:
 15134 1db9 4544435F 		.ascii	"EDC_RSP_CALL_AMEX\000"
 15134      5253505F 
 15134      43414C4C 
 15134      5F414D45 
 15134      5800
 15135              	.LASF667:
 15136 1dcb 73625F63 		.ascii	"sb_card_name\000"
 15136      6172645F 
 15136      6E616D65 
 15136      00
 15137              	.LASF718:
 15138 1dd8 73625F74 		.ascii	"sb_tag_9f26\000"
 15138      61675F39 
 15138      66323600 
 15139              	.LASF998:
 15140 1de4 6669656C 		.ascii	"field9F33\000"
 15140      64394633 
 15140      3300
 15141              	.LASF999:
 15142 1dee 6669656C 		.ascii	"field9F34\000"
 15142      64394633 
 15142      3400
 15143              	.LASF1000:
 15144 1df8 6669656C 		.ascii	"field9F35\000"
 15144      64394633 
 15144      3500
 15145              	.LASF1001:
 15146 1e02 6669656C 		.ascii	"field9F36\000"
 15146      64394633 
 15146      3600
 15147              	.LASF1002:
 15148 1e0c 6669656C 		.ascii	"field9F37\000"
 15148      64394633 
ARM GAS  C:\Users\AHMED~1.ELE\AppData\Local\Temp\cc0wYKcg.s 			page 320


 15148      3700
 15149              	.LASF513:
 15150 1e16 41504D5F 		.ascii	"APM_GETKEY\000"
 15150      4745544B 
 15150      455900
 15151              	.LASF372:
 15152 1e21 4F535F46 		.ascii	"OS_FN_USBKBD_INKEY\000"
 15152      4E5F5553 
 15152      424B4244 
 15152      5F494E4B 
 15152      455900
 15153              	.LASF103:
 15154 1e34 4F535F46 		.ascii	"OS_FN_AES_DECRYPT_BLOCK\000"
 15154      4E5F4145 
 15154      535F4445 
 15154      43525950 
 15154      545F424C 
 15155              	.LASF99:
 15156 1e4c 4F535F46 		.ascii	"OS_FN_RSA\000"
 15156      4E5F5253 
 15156      4100
 15157              	.LASF28:
 15158 1e56 4F535F46 		.ascii	"OS_FN_KBD_CLOSE\000"
 15158      4E5F4B42 
 15158      445F434C 
 15158      4F534500 
 15159              	.LASF128:
 15160 1e66 4F535F46 		.ascii	"OS_FN_KEY_SAVE_TMK\000"
 15160      4E5F4B45 
 15160      595F5341 
 15160      56455F54 
 15160      4D4B00
 15161              	.LASF224:
 15162 1e79 4F535F46 		.ascii	"OS_FN_MMC_PSTATUS\000"
 15162      4E5F4D4D 
 15162      435F5053 
 15162      54415455 
 15162      5300
 15163              	.LASF44:
 15164 1e8b 4F535F46 		.ascii	"OS_FN_DISP_OPEN\000"
 15164      4E5F4449 
 15164      53505F4F 
 15164      50454E00 
 15165              	.LASF69:
 15166 1e9b 4F535F46 		.ascii	"OS_FN_COM1_SEND\000"
 15166      4E5F434F 
 15166      4D315F53 
 15166      454E4400 
 15167              	.LASF1003:
 15168 1eab 6669656C 		.ascii	"field9F41\000"
 15168      64394634 
 15168      3100
 15169              	.LASF800:
 15170 1eb5 41444A55 		.ascii	"ADJUST\000"
 15170      535400
 15171              	.LASF130:
 15172 1ebc 4F535F46 		.ascii	"OS_FN_KEY_RSA\000"
ARM GAS  C:\Users\AHMED~1.ELE\AppData\Local\Temp\cc0wYKcg.s 			page 321


 15172      4E5F4B45 
 15172      595F5253 
 15172      4100
 15173              	.LASF658:
 15174 1eca 61706E32 		.ascii	"apn2_port\000"
 15174      5F706F72 
 15174      7400
 15175              	.LASF1018:
 15176 1ed4 61547261 		.ascii	"aTrans\000"
 15176      6E7300
 15177              	.LASF624:
 15178 1edb 625F696E 		.ascii	"b_init_fallback\000"
 15178      69745F66 
 15178      616C6C62 
 15178      61636B00 
 15179              	.LASF467:
 15180 1eeb 4F535F46 		.ascii	"OS_FN_GCM_AES_PROCESS_AAD\000"
 15180      4E5F4743 
 15180      4D5F4145 
 15180      535F5052 
 15180      4F434553 
 15181              	.LASF320:
 15182 1f05 4F535F46 		.ascii	"OS_FN_TPAD_CALIBRATE\000"
 15182      4E5F5450 
 15182      41445F43 
 15182      414C4942 
 15182      52415445 
 15183              	.LASF945:
 15184 1f1a 4544435F 		.ascii	"EDC_RSP_RSP_TXN_ACP\000"
 15184      5253505F 
 15184      5253505F 
 15184      54584E5F 
 15184      41435000 
 15185              	.LASF542:
 15186 1f2e 41504D5F 		.ascii	"APM_SETBATCH\000"
 15186      53455442 
 15186      41544348 
 15186      00
 15187              	.LASF611:
 15188 1f3b 73625F66 		.ascii	"sb_ftp_user\000"
 15188      74705F75 
 15188      73657200 
 15189              	.LASF691:
 15190 1f47 73625F63 		.ascii	"sb_curr_batch_no\000"
 15190      7572725F 
 15190      62617463 
 15190      685F6E6F 
 15190      00
 15191              	.LASF555:
 15192 1f58 41504D5F 		.ascii	"APM_CLR_REV_REC\000"
 15192      434C525F 
 15192      5245565F 
 15192      52454300 
 15193              	.LASF398:
 15194 1f68 4F535F46 		.ascii	"OS_FN_MIF_GET\000"
 15194      4E5F4D49 
 15194      465F4745 
ARM GAS  C:\Users\AHMED~1.ELE\AppData\Local\Temp\cc0wYKcg.s 			page 322


 15194      5400
 15195              	.LASF852:
 15196 1f76 4544435F 		.ascii	"EDC_IN_CARD_EXPIRED\000"
 15196      494E5F43 
 15196      4152445F 
 15196      45585049 
 15196      52454400 
 15197              	.LASF963:
 15198 1f8a 4544435F 		.ascii	"EDC_CTL_FATAL\000"
 15198      43544C5F 
 15198      46415441 
 15198      4C00
 15199              	.LASF215:
 15200 1f98 4F535F46 		.ascii	"OS_FN_SAM_INSERTED\000"
 15200      4E5F5341 
 15200      4D5F494E 
 15200      53455254 
 15200      454400
 15201              	.LASF268:
 15202 1fab 4F535F46 		.ascii	"OS_FN_FL_COPYB_START\000"
 15202      4E5F464C 
 15202      5F434F50 
 15202      59425F53 
 15202      54415254 
 15203              	.LASF346:
 15204 1fc0 4F535F46 		.ascii	"OS_FN_USBHOST_DEVINFO\000"
 15204      4E5F5553 
 15204      42484F53 
 15204      545F4445 
 15204      56494E46 
 15205              	.LASF754:
 15206 1fd6 735F7265 		.ascii	"s_refund_tot\000"
 15206      66756E64 
 15206      5F746F74 
 15206      00
 15207              	.LASF295:
 15208 1fe3 4F535F46 		.ascii	"OS_FN_BATT_CHARGE_MODE\000"
 15208      4E5F4241 
 15208      54545F43 
 15208      48415247 
 15208      455F4D4F 
 15209              	.LASF312:
 15210 1ffa 4F535F46 		.ascii	"OS_FN_GPRS_SMS_CONTROL\000"
 15210      4E5F4750 
 15210      52535F53 
 15210      4D535F43 
 15210      4F4E5452 
 15211              	.LASF774:
 15212 2011 735F7465 		.ascii	"s_term_tot\000"
 15212      726D5F74 
 15212      6F7400
 15213              	.LASF811:
 15214 201c 52454655 		.ascii	"REFUND_CTL\000"
 15214      4E445F43 
 15214      544C00
 15215              	.LASF32:
 15216 2027 4F535F46 		.ascii	"OS_FN_KBD_LOCK\000"
ARM GAS  C:\Users\AHMED~1.ELE\AppData\Local\Temp\cc0wYKcg.s 			page 323


 15216      4E5F4B42 
 15216      445F4C4F 
 15216      434B00
 15217              	.LASF851:
 15218 2036 4544435F 		.ascii	"EDC_IN_INV_EXPIRE\000"
 15218      494E5F49 
 15218      4E565F45 
 15218      58504952 
 15218      4500
 15219              	.LASF228:
 15220 2048 4F535F46 		.ascii	"OS_FN_MMC_WRITE\000"
 15220      4E5F4D4D 
 15220      435F5752 
 15220      49544500 
 15221              	.LASF865:
 15222 2058 4544435F 		.ascii	"EDC_AJ_BASE_AMT\000"
 15222      414A5F42 
 15222      4153455F 
 15222      414D5400 
 15223              	.LASF496:
 15224 2068 454E445F 		.ascii	"END_OF_OS_FN_LIST\000"
 15224      4F465F4F 
 15224      535F464E 
 15224      5F4C4953 
 15224      5400
 15225              	.LASF406:
 15226 207a 4F535F46 		.ascii	"OS_FN_BARCODE_ABORT\000"
 15226      4E5F4241 
 15226      52434F44 
 15226      455F4142 
 15226      4F525400 
 15227              	.LASF1:
 15228 208e 756E7369 		.ascii	"unsigned char\000"
 15228      676E6564 
 15228      20636861 
 15228      7200
 15229              	.LASF280:
 15230 209c 4F535F46 		.ascii	"OS_FN_MDM_STATUS\000"
 15230      4E5F4D44 
 15230      4D5F5354 
 15230      41545553 
 15230      00
 15231              	.LASF962:
 15232 20ad 4544435F 		.ascii	"EDC_EMV_CANNOT_SEL\000"
 15232      454D565F 
 15232      43414E4E 
 15232      4F545F53 
 15232      454C00
 15233              	.LASF35:
 15234 20c0 4F535F46 		.ascii	"OS_FN_TIMER_CLOSE\000"
 15234      4E5F5449 
 15234      4D45525F 
 15234      434C4F53 
 15234      4500
 15235              	.LASF15:
 15236 20d2 44574F52 		.ascii	"DWORD\000"
 15236      4400
ARM GAS  C:\Users\AHMED~1.ELE\AppData\Local\Temp\cc0wYKcg.s 			page 324


 15237              	.LASF558:
 15238 20d8 41504D5F 		.ascii	"APM_TRACE_IN_BATCH\000"
 15238      54524143 
 15238      455F494E 
 15238      5F424154 
 15238      434800
 15239              	.LASF894:
 15240 20eb 4544435F 		.ascii	"EDC_RSP_REFERRAL\000"
 15240      5253505F 
 15240      52454645 
 15240      5252414C 
 15240      00
 15241              	.LASF439:
 15242 20fc 4F535F46 		.ascii	"OS_FN_FREE_RUN\000"
 15242      4E5F4652 
 15242      45455F52 
 15242      554E00
 15243              	.LASF966:
 15244 210b 4544435F 		.ascii	"EDC_CTL_TAP_CARD\000"
 15244      43544C5F 
 15244      5441505F 
 15244      43415244 
 15244      00
 15245              	.LASF489:
 15246 211c 4F535F46 		.ascii	"OS_FN_BATT_CHARGE_NOW\000"
 15246      4E5F4241 
 15246      54545F43 
 15246      48415247 
 15246      455F4E4F 
 15247              	.LASF220:
 15248 2132 4F535F46 		.ascii	"OS_FN_MMC_OPEN\000"
 15248      4E5F4D4D 
 15248      435F4F50 
 15248      454E00
 15249              	.LASF899:
 15250 2141 4544435F 		.ascii	"EDC_RSP_BAD_PROC\000"
 15250      5253505F 
 15250      4241445F 
 15250      50524F43 
 15250      00
 15251              	.LASF913:
 15252 2152 4544435F 		.ascii	"EDC_RSP_BAD_PROD\000"
 15252      5253505F 
 15252      4241445F 
 15252      50524F44 
 15252      00
 15253              	.LASF519:
 15254 2163 41504D5F 		.ascii	"APM_PACKCOMM\000"
 15254      5041434B 
 15254      434F4D4D 
 15254      00
 15255              	.LASF554:
 15256 2170 41504D5F 		.ascii	"APM_GET_REV_REC\000"
 15256      4745545F 
 15256      5245565F 
 15256      52454300 
 15257              	.LASF237:
ARM GAS  C:\Users\AHMED~1.ELE\AppData\Local\Temp\cc0wYKcg.s 			page 325


 15258 2180 4F535F46 		.ascii	"OS_FN_LAN_TXRDY\000"
 15258      4E5F4C41 
 15258      4E5F5458 
 15258      52445900 
 15259              	.LASF708:
 15260 2190 625F6461 		.ascii	"b_day\000"
 15260      7900
 15261              	.LASF724:
 15262 2196 625F7472 		.ascii	"b_trans_status\000"
 15262      616E735F 
 15262      73746174 
 15262      757300
 15263              	.LASF161:
 15264 21a5 4F535F46 		.ascii	"OS_FN_LED_CLEAR\000"
 15264      4E5F4C45 
 15264      445F434C 
 15264      45415200 
 15265              	.LASF662:
 15266 21b5 625F6973 		.ascii	"b_issuer_id\000"
 15266      73756572 
 15266      5F696400 
 15267              	.LASF18:
 15268 21c1 624D7367 		.ascii	"bMsg\000"
 15268      00
 15269              	.LASF695:
 15270 21c6 625F686F 		.ascii	"b_host_type\000"
 15270      73745F74 
 15270      79706500 
 15271              	.LASF29:
 15272 21d2 4F535F46 		.ascii	"OS_FN_KBD_INKEY\000"
 15272      4E5F4B42 
 15272      445F494E 
 15272      4B455900 
 15273              	.LASF1021:
 15274 21e2 5061636B 		.ascii	"PackHostMsg\000"
 15274      486F7374 
 15274      4D736700 
 15275              	.LASF384:
 15276 21ee 4F535F46 		.ascii	"OS_FN_MIF_ANTICOLL\000"
 15276      4E5F4D49 
 15276      465F414E 
 15276      5449434F 
 15276      4C4C00
 15277              	.LASF769:
 15278 2201 735F7374 		.ascii	"s_stis_data\000"
 15278      69735F64 
 15278      61746100 
 15279              	.LASF491:
 15280 220d 4F535F46 		.ascii	"OS_FN_WIFI_SET_REGULATORY_DOMAIN\000"
 15280      4E5F5749 
 15280      46495F53 
 15280      45545F52 
 15280      4547554C 
 15281              	.LASF906:
 15282 222e 4544435F 		.ascii	"EDC_RSP_CALL_LC\000"
 15282      5253505F 
 15282      43414C4C 
ARM GAS  C:\Users\AHMED~1.ELE\AppData\Local\Temp\cc0wYKcg.s 			page 326


 15282      5F4C4300 
 15283              	.LASF190:
 15284 223e 4F535F46 		.ascii	"OS_FN_FILE_DSEARCH_ALL\000"
 15284      4E5F4649 
 15284      4C455F44 
 15284      53454152 
 15284      43485F41 
 15285              	.LASF1036:
 15286 2255 73796E63 		.ascii	"sync_datetime\000"
 15286      5F646174 
 15286      6574696D 
 15286      6500
 15287              	.LASF399:
 15288 2263 4F535F46 		.ascii	"OS_FN_MIF_INFO_SET\000"
 15288      4E5F4D49 
 15288      465F494E 
 15288      464F5F53 
 15288      455400
 15289              	.LASF738:
 15290 2276 625F5069 		.ascii	"b_PinVerified\000"
 15290      6E566572 
 15290      69666965 
 15290      6400
 15291              	.LASF660:
 15292 2284 73625F70 		.ascii	"sb_pan_range_low\000"
 15292      616E5F72 
 15292      616E6765 
 15292      5F6C6F77 
 15292      00
 15293              	.LASF105:
 15294 2295 4F535F46 		.ascii	"OS_FN_MD5_INIT\000"
 15294      4E5F4D44 
 15294      355F494E 
 15294      495400
 15295              	.LASF952:
 15296 22a4 4544435F 		.ascii	"EDC_SE_BUS_DATE\000"
 15296      53455F42 
 15296      55535F44 
 15296      41544500 
 15297              	.LASF494:
 15298 22b4 4F535F46 		.ascii	"OS_FN_IMG_SENSOR_SET_MODE\000"
 15298      4E5F494D 
 15298      475F5345 
 15298      4E534F52 
 15298      5F534554 
 15299              	.LASF596:
 15300 22ce 73625F65 		.ascii	"sb_edc_chksum\000"
 15300      64635F63 
 15300      686B7375 
 15300      6D00
 15301              	.LASF550:
 15302 22dc 41504D5F 		.ascii	"APM_BATCH_CLEAR\000"
 15302      42415443 
 15302      485F434C 
 15302      45415200 
 15303              	.LASF309:
 15304 22ec 4F535F46 		.ascii	"OS_FN_GPRS_SMS_DECODE\000"
ARM GAS  C:\Users\AHMED~1.ELE\AppData\Local\Temp\cc0wYKcg.s 			page 327


 15304      4E5F4750 
 15304      52535F53 
 15304      4D535F44 
 15304      45434F44 
 15305              	.LASF263:
 15306 2302 4F535F46 		.ascii	"OS_FN_FL_PGM_START\000"
 15306      4E5F464C 
 15306      5F50474D 
 15306      5F535441 
 15306      525400
 15307              	.LASF974:
 15308 2315 735F7472 		.ascii	"s_trk2buf\000"
 15308      6B326275 
 15308      6600
 15309              	.LASF539:
 15310 231f 41504D5F 		.ascii	"APM_GETPENDING\000"
 15310      47455450 
 15310      454E4449 
 15310      4E4700
 15311              	.LASF655:
 15312 232e 61706E63 		.ascii	"apnconfig\000"
 15312      6F6E6669 
 15312      6700
 15313              	.LASF534:
 15314 2338 41504D5F 		.ascii	"APM_GETDESCTBL\000"
 15314      47455444 
 15314      45534354 
 15314      424C00
 15315              	.LASF457:
 15316 2347 4F535F46 		.ascii	"OS_FN_FPRT_OPEN\000"
 15316      4E5F4650 
 15316      52545F4F 
 15316      50454E00 
 15317              	.LASF182:
 15318 2357 4F535F46 		.ascii	"OS_FN_FILE_READ\000"
 15318      4E5F4649 
 15318      4C455F52 
 15318      45414400 
 15319              	.LASF453:
 15320 2367 4F535F46 		.ascii	"OS_FN_DTIMER_LATCH_STOP\000"
 15320      4E5F4454 
 15320      494D4552 
 15320      5F4C4154 
 15320      43485F53 
 15321              	.LASF493:
 15322 237f 4F535F46 		.ascii	"OS_FN_BATT_LEVEL2\000"
 15322      4E5F4241 
 15322      54545F4C 
 15322      4556454C 
 15322      3200
 15323              	.LASF715:
 15324 2391 73625F61 		.ascii	"sb_aid\000"
 15324      696400
 15325              	.LASF413:
 15326 2398 4F535F46 		.ascii	"OS_FN_WIFI_PROFILES_READ\000"
 15326      4E5F5749 
 15326      46495F50 
ARM GAS  C:\Users\AHMED~1.ELE\AppData\Local\Temp\cc0wYKcg.s 			page 328


 15326      524F4649 
 15326      4C45535F 
 15327              	.LASF64:
 15328 23b1 4F535F46 		.ascii	"OS_FN_COM1_OPEN\000"
 15328      4E5F434F 
 15328      4D315F4F 
 15328      50454E00 
 15329              	.LASF91:
 15330 23c1 4F535F46 		.ascii	"OS_FN_DESKEY\000"
 15330      4E5F4445 
 15330      534B4559 
 15330      00
 15331              	.LASF175:
 15332 23ce 4F535F46 		.ascii	"OS_FN_FILE_CREATE\000"
 15332      4E5F4649 
 15332      4C455F43 
 15332      52454154 
 15332      4500
 15333              	.LASF325:
 15334 23e0 4F535F46 		.ascii	"OS_FN_CODEC_PLAY_RAM\000"
 15334      4E5F434F 
 15334      4445435F 
 15334      504C4159 
 15334      5F52414D 
 15335              	.LASF500:
 15336 23f5 55534246 		.ascii	"USBFPRT_GENERAL_INFO_IMG_BPP\000"
 15336      5052545F 
 15336      47454E45 
 15336      52414C5F 
 15336      494E464F 
 15337              	.LASF919:
 15338 2412 4544435F 		.ascii	"EDC_RSP_BAD_TERMINAL_ID\000"
 15338      5253505F 
 15338      4241445F 
 15338      5445524D 
 15338      494E414C 
 15339              	.LASF1064:
 15340 242a 6C69625F 		.ascii	"lib_app_call\000"
 15340      6170705F 
 15340      63616C6C 
 15340      00
 15341              	.LASF1086:
 15342 2437 43686563 		.ascii	"CheckHostRsp\000"
 15342      6B486F73 
 15342      74527370 
 15342      00
 15343              	.LASF608:
 15344 2444 73625F6C 		.ascii	"sb_lxapp_chksum\000"
 15344      78617070 
 15344      5F63686B 
 15344      73756D00 
 15345              	.LASF165:
 15346 2454 4F535F46 		.ascii	"OS_FN_APP_SEARCH_ID\000"
 15346      4E5F4150 
 15346      505F5345 
 15346      41524348 
 15346      5F494400 
ARM GAS  C:\Users\AHMED~1.ELE\AppData\Local\Temp\cc0wYKcg.s 			page 329


 15347              	.LASF1056:
 15348 2468 73706C69 		.ascii	"split_data\000"
 15348      745F6461 
 15348      746100
 15349              	.LASF303:
 15350 2473 4F535F46 		.ascii	"OS_FN_GPRS_SEND\000"
 15350      4E5F4750 
 15350      52535F53 
 15350      454E4400 
 15351              	.LASF604:
 15352 2483 73625F65 		.ascii	"sb_emvkey_size\000"
 15352      6D766B65 
 15352      795F7369 
 15352      7A6500
 15353              	.LASF1039:
 15354 2492 67475453 		.ascii	"gGTS\000"
 15354      00
 15355              	.LASF311:
 15356 2497 4F535F46 		.ascii	"OS_FN_GPRS_SMS_SEND\000"
 15356      4E5F4750 
 15356      52535F53 
 15356      4D535F53 
 15356      454E4400 
 15357              	.LASF818:
 15358 24ab 775F7478 		.ascii	"w_txmsg_id\000"
 15358      6D73675F 
 15358      696400
 15359              	.LASF613:
 15360 24b6 73625F70 		.ascii	"sb_ppp_user\000"
 15360      70705F75 
 15360      73657200 
 15361              	.LASF382:
 15362 24c2 4F535F46 		.ascii	"OS_FN_MIF_TAG\000"
 15362      4E5F4D49 
 15362      465F5441 
 15362      4700
 15363              	.LASF889:
 15364 24d0 4544435F 		.ascii	"EDC_PN_PLS_REPRINT\000"
 15364      504E5F50 
 15364      4C535F52 
 15364      45505249 
 15364      4E5400
 15365              	.LASF201:
 15366 24e3 4F535F46 		.ascii	"OS_FN_FILE_INIT_SEARCH\000"
 15366      4E5F4649 
 15366      4C455F49 
 15366      4E49545F 
 15366      53454152 
 15367              	.LASF585:
 15368 24fa 73625F70 		.ascii	"sb_port\000"
 15368      6F727400 
 15369              	.LASF692:
 15370 2502 73625F6E 		.ascii	"sb_next_batch_no\000"
 15370      6578745F 
 15370      62617463 
 15370      685F6E6F 
 15370      00
ARM GAS  C:\Users\AHMED~1.ELE\AppData\Local\Temp\cc0wYKcg.s 			page 330


 15371              	.LASF301:
 15372 2513 4F535F46 		.ascii	"OS_FN_GPRS_AT_CMD\000"
 15372      4E5F4750 
 15372      52535F41 
 15372      545F434D 
 15372      4400
 15373              	.LASF1048:
 15374 2525 7061636B 		.ascii	"pack_mem\000"
 15374      5F6D656D 
 15374      00
 15375              	.LASF57:
 15376 252e 4F535F46 		.ascii	"OS_FN_DISP_BRIGHTNESS\000"
 15376      4E5F4449 
 15376      53505F42 
 15376      52494748 
 15376      544E4553 
 15377              	.LASF108:
 15378 2544 4F535F46 		.ascii	"OS_FN_SHA_INIT\000"
 15378      4E5F5348 
 15378      415F494E 
 15378      495400
 15379              	.LASF199:
 15380 2553 4F535F46 		.ascii	"OS_FN_FILE_GET_SYSTEMINFO\000"
 15380      4E5F4649 
 15380      4C455F47 
 15380      45545F53 
 15380      59535445 
 15381              	.LASF686:
 15382 256d 625F7365 		.ascii	"b_sec_settle_redial\000"
 15382      635F7365 
 15382      74746C65 
 15382      5F726564 
 15382      69616C00 
 15383              	.LASF988:
 15384 2581 6669656C 		.ascii	"field5F2A\000"
 15384      64354632 
 15384      4100
 15385              	.LASF460:
 15386 258b 4F535F46 		.ascii	"OS_FN_FPRT_INFO_SET\000"
 15386      4E5F4650 
 15386      52545F49 
 15386      4E464F5F 
 15386      53455400 
 15387              	.LASF101:
 15388 259f 4F535F46 		.ascii	"OS_FN_AES_SETUP_KEY\000"
 15388      4E5F4145 
 15388      535F5345 
 15388      5455505F 
 15388      4B455900 
 15389              	.LASF100:
 15390 25b3 4F535F46 		.ascii	"OS_FN_RSA_PRIVATE\000"
 15390      4E5F5253 
 15390      415F5052 
 15390      49564154 
 15390      4500
 15391              	.LASF104:
 15392 25c5 4F535F46 		.ascii	"OS_FN_SHA1\000"
ARM GAS  C:\Users\AHMED~1.ELE\AppData\Local\Temp\cc0wYKcg.s 			page 331


 15392      4E5F5348 
 15392      413100
 15393              	.LASF259:
 15394 25d0 4F535F46 		.ascii	"OS_FN_FL_STATUS\000"
 15394      4E5F464C 
 15394      5F535441 
 15394      54555300 
 15395              	.LASF379:
 15396 25e0 4F535F46 		.ascii	"OS_FN_MIF_CANCEL\000"
 15396      4E5F4D49 
 15396      465F4341 
 15396      4E43454C 
 15396      00
 15397              	.LASF404:
 15398 25f1 4F535F46 		.ascii	"OS_FN_BARCODE_SCAN\000"
 15398      4E5F4241 
 15398      52434F44 
 15398      455F5343 
 15398      414E00
 15399              	.LASF466:
 15400 2604 4F535F46 		.ascii	"OS_FN_GCM_AES_INIT\000"
 15400      4E5F4743 
 15400      4D5F4145 
 15400      535F494E 
 15400      495400
 15401              	.LASF531:
 15402 2617 41504D5F 		.ascii	"APM_GETACQCOUNT\000"
 15402      47455441 
 15402      4351434F 
 15402      554E5400 
 15403              	.LASF730:
 15404 2627 64645F74 		.ascii	"dd_tip\000"
 15404      697000
 15405              	.LASF84:
 15406 262e 4F535F46 		.ascii	"OS_FN_COM3_RXRDY\000"
 15406      4E5F434F 
 15406      4D335F52 
 15406      58524459 
 15406      00
 15407              	.LASF319:
 15408 263f 4F535F46 		.ascii	"OS_FN_TPAD_ALERT_RETURN\000"
 15408      4E5F5450 
 15408      41445F41 
 15408      4C455254 
 15408      5F524554 
 15409              	.LASF160:
 15410 2657 4F535F46 		.ascii	"OS_FN_LED_SET\000"
 15410      4E5F4C45 
 15410      445F5345 
 15410      5400
 15411              	.LASF706:
 15412 2665 625F7965 		.ascii	"b_year\000"
 15412      617200
 15413              	.LASF560:
 15414 266c 41504D5F 		.ascii	"APM_GETACCESSCODE\000"
 15414      47455441 
 15414      43434553 
ARM GAS  C:\Users\AHMED~1.ELE\AppData\Local\Temp\cc0wYKcg.s 			page 332


 15414      53434F44 
 15414      4500
 15415              	.LASF679:
 15416 267e 625F7365 		.ascii	"b_sec_trans_conn_time\000"
 15416      635F7472 
 15416      616E735F 
 15416      636F6E6E 
 15416      5F74696D 
 15417              	.LASF955:
 15418 2694 4544435F 		.ascii	"EDC_SE_REFUND_TOTAL\000"
 15418      53455F52 
 15418      4546554E 
 15418      445F544F 
 15418      54414C00 
 15419              	.LASF561:
 15420 26a8 41504D5F 		.ascii	"APM_SELYESNO\000"
 15420      53454C59 
 15420      45534E4F 
 15420      00
 15421              	.LASF878:
 15422 26b5 4544435F 		.ascii	"EDC_FN_BATCH_ERASE\000"
 15422      464E5F42 
 15422      41544348 
 15422      5F455241 
 15422      534500
 15423              	.LASF629:
 15424 26c8 625F646C 		.ascii	"b_dll\000"
 15424      6C00
 15425              	.LASF584:
 15426 26ce 73625F69 		.ascii	"sb_ip\000"
 15426      7000
 15427              	.LASF1004:
 15428 26d4 6669656C 		.ascii	"field9F53\000"
 15428      64394635 
 15428      3300
 15429              	.LASF227:
 15430 26de 4F535F46 		.ascii	"OS_FN_MMC_READ\000"
 15430      4E5F4D4D 
 15430      435F5245 
 15430      414400
 15431              	.LASF196:
 15432 26ed 4F535F46 		.ascii	"OS_FN_FILE_SET_LOCK\000"
 15432      4E5F4649 
 15432      4C455F53 
 15432      45545F4C 
 15432      4F434B00 
 15433              	.LASF287:
 15434 2701 4F535F46 		.ascii	"OS_FN_MCOM_SREAD\000"
 15434      4E5F4D43 
 15434      4F4D5F53 
 15434      52454144 
 15434      00
 15435              	.LASF605:
 15436 2712 73625F78 		.ascii	"sb_xapp_chksum\000"
 15436      6170705F 
 15436      63686B73 
 15436      756D00
ARM GAS  C:\Users\AHMED~1.ELE\AppData\Local\Temp\cc0wYKcg.s 			page 333


 15437              	.LASF787:
 15438 2721 735F6563 		.ascii	"s_ecr_data\000"
 15438      725F6461 
 15438      746100
 15439              	.LASF771:
 15440 272c 735F7265 		.ascii	"s_record_buf\000"
 15440      636F7264 
 15440      5F627566 
 15440      00
 15441              	.LASF805:
 15442 2739 41555448 		.ascii	"AUTH_ICC\000"
 15442      5F494343 
 15442      00
 15443              	.LASF435:
 15444 2742 4F535F46 		.ascii	"OS_FN_GET_CALLID\000"
 15444      4E5F4745 
 15444      545F4341 
 15444      4C4C4944 
 15444      00
 15445              	.LASF517:
 15446 2753 41504D5F 		.ascii	"APM_SETKBDTO\000"
 15446      5345544B 
 15446      4244544F 
 15446      00
 15447              	.LASF239:
 15448 2760 4F535F46 		.ascii	"OS_FN_LAN_SEND\000"
 15448      4E5F4C41 
 15448      4E5F5345 
 15448      4E4400
 15449              	.LASF43:
 15450 276f 4F535F46 		.ascii	"OS_FN_RTC_SET\000"
 15450      4E5F5254 
 15450      435F5345 
 15450      5400
 15451              	.LASF597:
 15452 277d 73625F65 		.ascii	"sb_edc_date\000"
 15452      64635F64 
 15452      61746500 
 15453              	.LASF169:
 15454 2789 4F535F46 		.ascii	"OS_FN_APP_INFO\000"
 15454      4E5F4150 
 15454      505F494E 
 15454      464F00
 15455              	.LASF229:
 15456 2798 4F535F46 		.ascii	"OS_FN_MMC_INSERTED\000"
 15456      4E5F4D4D 
 15456      435F494E 
 15456      53455254 
 15456      454400
 15457              	.LASF497:
 15458 27ab 55534246 		.ascii	"USBFPRT_GENERAL_INFO_MODEL\000"
 15458      5052545F 
 15458      47454E45 
 15458      52414C5F 
 15458      494E464F 
 15459              	.LASF479:
 15460 27c6 4F535F46 		.ascii	"OS_FN_WIFI_SOCKET_LISTEN\000"
ARM GAS  C:\Users\AHMED~1.ELE\AppData\Local\Temp\cc0wYKcg.s 			page 334


 15460      4E5F5749 
 15460      46495F53 
 15460      4F434B45 
 15460      545F4C49 
 15461              	.LASF328:
 15462 27df 4F535F46 		.ascii	"OS_FN_CLICC_OPEN\000"
 15462      4E5F434C 
 15462      4943435F 
 15462      4F50454E 
 15462      00
 15463              	.LASF40:
 15464 27f0 4F535F46 		.ascii	"OS_FN_BUZ_BEEP\000"
 15464      4E5F4255 
 15464      5A5F4245 
 15464      455000
 15465              	.LASF432:
 15466 27ff 4F535F46 		.ascii	"OS_FN_BREG_READ\000"
 15466      4E5F4252 
 15466      45475F52 
 15466      45414400 
 15467              	.LASF524:
 15468 280f 41504D5F 		.ascii	"APM_RESETCOMM\000"
 15468      52455345 
 15468      54434F4D 
 15468      4D00
 15469              	.LASF383:
 15470 281d 4F535F46 		.ascii	"OS_FN_MIF_STATUS\000"
 15470      4E5F4D49 
 15470      465F5354 
 15470      41545553 
 15470      00
 15471              	.LASF766:
 15472 282e 625F6464 		.ascii	"b_dd\000"
 15472      00
 15473              	.LASF323:
 15474 2833 4F535F46 		.ascii	"OS_FN_CODEC_CLOSE\000"
 15474      4E5F434F 
 15474      4445435F 
 15474      434C4F53 
 15474      4500
 15475              	.LASF264:
 15476 2845 4F535F46 		.ascii	"OS_FN_FL_WRITE\000"
 15476      4E5F464C 
 15476      5F575249 
 15476      544500
 15477              	.LASF277:
 15478 2854 4F535F46 		.ascii	"OS_FN_MDM_DIAL\000"
 15478      4E5F4D44 
 15478      4D5F4449 
 15478      414C00
 15479              	.LASF602:
 15480 2863 73625F65 		.ascii	"sb_emvkey_chksum\000"
 15480      6D766B65 
 15480      795F6368 
 15480      6B73756D 
 15480      00
 15481              	.LASF744:
ARM GAS  C:\Users\AHMED~1.ELE\AppData\Local\Temp\cc0wYKcg.s 			page 335


 15482 2874 41435155 		.ascii	"ACQUIRER_REV\000"
 15482      49524552 
 15482      5F524556 
 15482      00
 15483              	.LASF622:
 15484 2881 625F6368 		.ascii	"b_checkin_sec_conn_time\000"
 15484      65636B69 
 15484      6E5F7365 
 15484      635F636F 
 15484      6E6E5F74 
 15485              	.LASF969:
 15486 2899 4544435F 		.ascii	"EDC_NET_INIT\000"
 15486      4E45545F 
 15486      494E4954 
 15486      00
 15487              	.LASF522:
 15488 28a6 41504D5F 		.ascii	"APM_SENDRCVD\000"
 15488      53454E44 
 15488      52435644 
 15488      00
 15489              	.LASF737:
 15490 28b3 775F7273 		.ascii	"w_rspcode\000"
 15490      70636F64 
 15490      6500
 15491              	.LASF756:
 15492 28bd 735F766F 		.ascii	"s_void_refund\000"
 15492      69645F72 
 15492      6566756E 
 15492      6400
 15493              	.LASF924:
 15494 28cb 4544435F 		.ascii	"EDC_RSP_APP_CODE\000"
 15494      5253505F 
 15494      4150505F 
 15494      434F4445 
 15494      00
 15495              	.LASF840:
 15496 28dc 4544435F 		.ascii	"EDC_IN_CHK_DIGIT_ERROR\000"
 15496      494E5F43 
 15496      484B5F44 
 15496      49474954 
 15496      5F455252 
 15497              	.LASF1012:
 15498 28f3 41637469 		.ascii	"Actioncode\000"
 15498      6F6E636F 
 15498      646500
 15499              	.LASF386:
 15500 28fe 4F535F46 		.ascii	"OS_FN_MIF_LOAD_KEY\000"
 15500      4E5F4D49 
 15500      465F4C4F 
 15500      41445F4B 
 15500      455900
 15501              	.LASF59:
 15502 2911 4F535F46 		.ascii	"OS_FN_DISP_ICON_COLOR\000"
 15502      4E5F4449 
 15502      53505F49 
 15502      434F4E5F 
 15502      434F4C4F 
ARM GAS  C:\Users\AHMED~1.ELE\AppData\Local\Temp\cc0wYKcg.s 			page 336


 15503              	.LASF511:
 15504 2927 41504D5F 		.ascii	"APM_GETHWHANDLE\000"
 15504      47455448 
 15504      5748414E 
 15504      444C4500 
 15505              	.LASF642:
 15506 2937 625F6465 		.ascii	"b_decimal_pos\000"
 15506      63696D61 
 15506      6C5F706F 
 15506      7300
 15507              	.LASF713:
 15508 2945 73625F6C 		.ascii	"sb_label\000"
 15508      6162656C 
 15508      00
 15509              	.LASF256:
 15510 294e 4F535F46 		.ascii	"OS_FN_USBSER_STATUS\000"
 15510      4E5F5553 
 15510      42534552 
 15510      5F535441 
 15510      54555300 
 15511              	.LASF262:
 15512 2962 4F535F46 		.ascii	"OS_FN_FL_PGM\000"
 15512      4E5F464C 
 15512      5F50474D 
 15512      00
 15513              	.LASF37:
 15514 296f 4F535F46 		.ascii	"OS_FN_TIMER_GET\000"
 15514      4E5F5449 
 15514      4D45525F 
 15514      47455400 
 15515              	.LASF563:
 15516 297f 41504D5F 		.ascii	"APM_MERCHFUNC\000"
 15516      4D455243 
 15516      4846554E 
 15516      4300
 15517              	.LASF799:
 15518 298d 564F4944 		.ascii	"VOID\000"
 15518      00
 15519              	.LASF1011:
 15520 2992 74657874 		.ascii	"text\000"
 15520      00
 15521              	.LASF806:
 15522 2997 52454655 		.ascii	"REFUND_ICC\000"
 15522      4E445F49 
 15522      434300
 15523              	.LASF1052:
 15524 29a2 7379735F 		.ascii	"sys_func1\000"
 15524      66756E63 
 15524      3100
 15525              	.LASF1087:
 15526 29ac 5F5F6275 		.ascii	"__builtin_putchar\000"
 15526      696C7469 
 15526      6E5F7075 
 15526      74636861 
 15526      7200
 15527              	.LASF937:
 15528 29be 4544435F 		.ascii	"EDC_RSP_TRY_AGAIN_LC\000"
ARM GAS  C:\Users\AHMED~1.ELE\AppData\Local\Temp\cc0wYKcg.s 			page 337


 15528      5253505F 
 15528      5452595F 
 15528      41474149 
 15528      4E5F4C43 
 15529              	.LASF95:
 15530 29d3 4F535F46 		.ascii	"OS_FN_COM_DES\000"
 15530      4E5F434F 
 15530      4D5F4445 
 15530      5300
 15531              	.LASF178:
 15532 29e1 4F535F46 		.ascii	"OS_FN_FILE_RENAME\000"
 15532      4E5F4649 
 15532      4C455F52 
 15532      454E414D 
 15532      4500
 15533              	.LASF342:
 15534 29f3 4F535F46 		.ascii	"OS_FN_USBHOST_UNLINK_BUFFER\000"
 15534      4E5F5553 
 15534      42484F53 
 15534      545F554E 
 15534      4C494E4B 
 15535              	.LASF68:
 15536 2a0f 4F535F46 		.ascii	"OS_FN_COM1_READ\000"
 15536      4E5F434F 
 15536      4D315F52 
 15536      45414400 
 15537              	.LASF659:
 15538 2a1f 43415244 		.ascii	"CARD_TBL\000"
 15538      5F54424C 
 15538      00
 15539              	.LASF854:
 15540 2a28 4544435F 		.ascii	"EDC_IN_4DBC\000"
 15540      494E5F34 
 15540      44424300 
 15541              	.LASF391:
 15542 2a34 4F535F46 		.ascii	"OS_FN_MIF_INC\000"
 15542      4E5F4D49 
 15542      465F494E 
 15542      4300
 15543              	.LASF478:
 15544 2a42 4F535F46 		.ascii	"OS_FN_WIFI_SOCKET_GET_STATUS\000"
 15544      4E5F5749 
 15544      46495F53 
 15544      4F434B45 
 15544      545F4745 
 15545              	.LASF302:
 15546 2a5f 4F535F46 		.ascii	"OS_FN_GPRS_AT_RESP\000"
 15546      4E5F4750 
 15546      52535F41 
 15546      545F5245 
 15546      535000
 15547              	.LASF747:
 15548 2a72 64645F62 		.ascii	"dd_base_amount\000"
 15548      6173655F 
 15548      616D6F75 
 15548      6E7400
 15549              	.LASF271:
ARM GAS  C:\Users\AHMED~1.ELE\AppData\Local\Temp\cc0wYKcg.s 			page 338


 15550 2a81 4F535F46 		.ascii	"OS_FN_FL_CREAD_RAND\000"
 15550      4E5F464C 
 15550      5F435245 
 15550      41445F52 
 15550      414E4400 
 15551              	.LASF925:
 15552 2a95 4544435F 		.ascii	"EDC_RSP_LOW_BATT\000"
 15552      5253505F 
 15552      4C4F575F 
 15552      42415454 
 15552      00
 15553              	.LASF139:
 15554 2aa6 4F535F46 		.ascii	"OS_FN_KEY_SAVE_TMK_CBC\000"
 15554      4E5F4B45 
 15554      595F5341 
 15554      56455F54 
 15554      4D4B5F43 
 15555              	.LASF167:
 15556 2abd 4F535F46 		.ascii	"OS_FN_APP_GET_VIRGIN\000"
 15556      4E5F4150 
 15556      505F4745 
 15556      545F5649 
 15556      5247494E 
 15557              	.LASF431:
 15558 2ad2 4F535F46 		.ascii	"OS_FN_GPS_ENABLED\000"
 15558      4E5F4750 
 15558      535F454E 
 15558      41424C45 
 15558      4400
 15559              	.LASF189:
 15560 2ae4 4F535F46 		.ascii	"OS_FN_FILE_DSEARCH\000"
 15560      4E5F4649 
 15560      4C455F44 
 15560      53454152 
 15560      434800
 15561              	.LASF426:
 15562 2af7 4F535F46 		.ascii	"OS_FN_GPS_GET_INFO\000"
 15562      4E5F4750 
 15562      535F4745 
 15562      545F494E 
 15562      464F00
 15563              	.LASF932:
 15564 2b0a 4544435F 		.ascii	"EDC_RSP_TRY_AGAIN_NC\000"
 15564      5253505F 
 15564      5452595F 
 15564      41474149 
 15564      4E5F4E43 
 15565              	.LASF675:
 15566 2b1f 73625F70 		.ascii	"sb_pri_trans_tel\000"
 15566      72695F74 
 15566      72616E73 
 15566      5F74656C 
 15566      00
 15567              	.LASF881:
 15568 2b30 4544435F 		.ascii	"EDC_FN_REV_CLEAR\000"
 15568      464E5F52 
 15568      45565F43 
ARM GAS  C:\Users\AHMED~1.ELE\AppData\Local\Temp\cc0wYKcg.s 			page 339


 15568      4C454152 
 15568      00
 15569              	.LASF964:
 15570 2b41 4544435F 		.ascii	"EDC_CTL_PROCESSING\000"
 15570      43544C5F 
 15570      50524F43 
 15570      45535349 
 15570      4E4700
 15571              	.LASF1053:
 15572 2b54 666E6462 		.ascii	"fndb\000"
 15572      00
 15573              	.LASF2:
 15574 2b59 73686F72 		.ascii	"short int\000"
 15574      7420696E 
 15574      7400
 15575              	.LASF580:
 15576 2b63 625F6469 		.ascii	"b_dial_mode\000"
 15576      616C5F6D 
 15576      6F646500 
 15577              	.LASF763:
 15578 2b6f 735F6361 		.ascii	"s_card_tbl\000"
 15578      72645F74 
 15578      626C00
 15579              	.LASF204:
 15580 2b7a 4F535F46 		.ascii	"OS_FN_FILE_RMDIR\000"
 15580      4E5F4649 
 15580      4C455F52 
 15580      4D444952 
 15580      00
 15581              	.LASF88:
 15582 2b8b 4F535F46 		.ascii	"OS_FN_COM3_STATUS\000"
 15582      4E5F434F 
 15582      4D335F53 
 15582      54415455 
 15582      5300
 15583              	.LASF525:
 15584 2b9d 41504D5F 		.ascii	"APM_GETTERMDATA\000"
 15584      47455454 
 15584      45524D44 
 15584      41544100 
 15585              	.LASF610:
 15586 2bad 73625F6C 		.ascii	"sb_lxapp_size\000"
 15586      78617070 
 15586      5F73697A 
 15586      6500
 15587              	.LASF1075:
 15588 2bbb 52784275 		.ascii	"RxBufSetup\000"
 15588      66536574 
 15588      757000
 15589              	.LASF1025:
 15590 2bc6 7661725F 		.ascii	"var_i\000"
 15590      6900
 15591              	.LASF1026:
 15592 2bcc 7661725F 		.ascii	"var_j\000"
 15592      6A00
 15593              	.LASF61:
 15594 2bd2 4F535F46 		.ascii	"OS_FN_DISP_ICON_TEXTC\000"
ARM GAS  C:\Users\AHMED~1.ELE\AppData\Local\Temp\cc0wYKcg.s 			page 340


 15594      4E5F4449 
 15594      53505F49 
 15594      434F4E5F 
 15594      54455854 
 15595              	.LASF836:
 15596 2be8 4544435F 		.ascii	"EDC_CN_REVERSAL\000"
 15596      434E5F52 
 15596      45564552 
 15596      53414C00 
 15597              	.LASF828:
 15598 2bf8 4544435F 		.ascii	"EDC_CN_SALE\000"
 15598      434E5F53 
 15598      414C4500 
 15599              	.LASF830:
 15600 2c04 4544435F 		.ascii	"EDC_CN_OFFLINE\000"
 15600      434E5F4F 
 15600      46464C49 
 15600      4E4500
 15601              	.LASF688:
 15602 2c13 73625F6E 		.ascii	"sb_nii\000"
 15602      696900
 15603              	.LASF1080:
 15604 2c1a 6765745F 		.ascii	"get_word\000"
 15604      776F7264 
 15604      00
 15605              	.LASF75:
 15606 2c23 4F535F46 		.ascii	"OS_FN_COM2_RXRDY\000"
 15606      4E5F434F 
 15606      4D325F52 
 15606      58524459 
 15606      00
 15607              	.LASF296:
 15608 2c34 4F535F46 		.ascii	"OS_FN_ADC_CH_ENABLE\000"
 15608      4E5F4144 
 15608      435F4348 
 15608      5F454E41 
 15608      424C4500 
 15609              	.LASF241:
 15610 2c48 4F535F46 		.ascii	"OS_FN_MSR_OPEN\000"
 15610      4E5F4D53 
 15610      525F4F50 
 15610      454E00
 15611              	.LASF55:
 15612 2c57 4F535F46 		.ascii	"OS_FN_DISP_TEXTC\000"
 15612      4E5F4449 
 15612      53505F54 
 15612      45585443 
 15612      00
 15613              	.LASF698:
 15614 2c68 625F7374 		.ascii	"b_status\000"
 15614      61747573 
 15614      00
 15615              	.LASF213:
 15616 2c71 4F535F46 		.ascii	"OS_FN_SAM_CLOSE\000"
 15616      4E5F5341 
 15616      4D5F434C 
 15616      4F534500 
ARM GAS  C:\Users\AHMED~1.ELE\AppData\Local\Temp\cc0wYKcg.s 			page 341


 15617              	.LASF388:
 15618 2c81 4F535F46 		.ascii	"OS_FN_MIF_AUTH2\000"
 15618      4E5F4D49 
 15618      465F4155 
 15618      54483200 
 15619              	.LASF1045:
 15620 2c91 696E635F 		.ascii	"inc_pptr\000"
 15620      70707472 
 15620      00
 15621              	.LASF832:
 15622 2c9a 4544435F 		.ascii	"EDC_CN_VOID\000"
 15622      434E5F56 
 15622      4F494400 
 15623              	.LASF665:
 15624 2ca6 49535355 		.ascii	"ISSUER_TBL\000"
 15624      45525F54 
 15624      424C00
 15625              	.LASF92:
 15626 2cb1 4F535F46 		.ascii	"OS_FN_DES\000"
 15626      4E5F4445 
 15626      5300
 15627              	.LASF1066:
 15628 2cbb 5061636B 		.ascii	"PackTxBufLen\000"
 15628      54784275 
 15628      664C656E 
 15628      00
 15629              	.LASF782:
 15630 2cc8 735F4354 		.ascii	"s_CTLIn\000"
 15630      4C496E00 
 15631              	.LASF492:
 15632 2cd0 4F535F46 		.ascii	"OS_FN_TAMPER_UNLOCK\000"
 15632      4E5F5441 
 15632      4D504552 
 15632      5F554E4C 
 15632      4F434B00 
 15633              	.LASF234:
 15634 2ce4 4F535F46 		.ascii	"OS_FN_LAN_OPEN\000"
 15634      4E5F4C41 
 15634      4E5F4F50 
 15634      454E00
 15635              	.LASF689:
 15636 2cf3 73625F61 		.ascii	"sb_acceptor_id\000"
 15636      63636570 
 15636      746F725F 
 15636      696400
 15637              	.LASF41:
 15638 2d02 4F535F46 		.ascii	"OS_FN_BUZ_STATE\000"
 15638      4E5F4255 
 15638      5A5F5354 
 15638      41544500 
 15639              	.LASF129:
 15640 2d12 4F535F46 		.ascii	"OS_FN_KEY_DES\000"
 15640      4E5F4B45 
 15640      595F4445 
 15640      5300
 15641              	.LASF905:
 15642 2d20 4544435F 		.ascii	"EDC_RSP_UNKNOWN_CARD\000"
ARM GAS  C:\Users\AHMED~1.ELE\AppData\Local\Temp\cc0wYKcg.s 			page 342


 15642      5253505F 
 15642      554E4B4E 
 15642      4F574E5F 
 15642      43415244 
 15643              	.LASF112:
 15644 2d35 4F535F46 		.ascii	"OS_FN_RC4_ENCRYPT\000"
 15644      4E5F5243 
 15644      345F454E 
 15644      43525950 
 15644      5400
 15645              	.LASF672:
 15646 2d47 41435155 		.ascii	"ACQUIRER_TBL\000"
 15646      49524552 
 15646      5F54424C 
 15646      00
 15647              	.LASF315:
 15648 2d54 4F535F46 		.ascii	"OS_FN_TPAD_CLOSE\000"
 15648      4E5F5450 
 15648      41445F43 
 15648      4C4F5345 
 15648      00
 15649              	.LASF305:
 15650 2d65 4F535F46 		.ascii	"OS_FN_GPRS_RESET\000"
 15650      4E5F4750 
 15650      52535F52 
 15650      45534554 
 15650      00
 15651              	.LASF1028:
 15652 2d76 70726F64 		.ascii	"prod\000"
 15652      00
 15653              	.LASF495:
 15654 2d7b 4F535F46 		.ascii	"OS_FN_GPS_GET_DETAIL_INFO\000"
 15654      4E5F4750 
 15654      535F4745 
 15654      545F4445 
 15654      5441494C 
 15655              	.LASF158:
 15656 2d95 4F535F46 		.ascii	"OS_FN_LED_CLOSE\000"
 15656      4E5F4C45 
 15656      445F434C 
 15656      4F534500 
 15657              	.LASF793:
 15658 2da5 4F4E4C5F 		.ascii	"ONL_REFUND_SW\000"
 15658      52454655 
 15658      4E445F53 
 15658      5700
 15659              	.LASF115:
 15660 2db3 4F535F46 		.ascii	"OS_FN_SM2_SET_CURVE\000"
 15660      4E5F534D 
 15660      325F5345 
 15660      545F4355 
 15660      52564500 
 15661              	.LASF861:
 15662 2dc7 4544435F 		.ascii	"EDC_AJ_TOTAL_PROMPT\000"
 15662      414A5F54 
 15662      4F54414C 
 15662      5F50524F 
ARM GAS  C:\Users\AHMED~1.ELE\AppData\Local\Temp\cc0wYKcg.s 			page 343


 15662      4D505400 
 15663              	.LASF370:
 15664 2ddb 4F535F46 		.ascii	"OS_FN_USBKBD_OPEN\000"
 15664      4E5F5553 
 15664      424B4244 
 15664      5F4F5045 
 15664      4E00
 15665              	.LASF661:
 15666 2ded 73625F70 		.ascii	"sb_pan_range_high\000"
 15666      616E5F72 
 15666      616E6765 
 15666      5F686967 
 15666      6800
 15667              	.LASF915:
 15668 2dff 4544435F 		.ascii	"EDC_RSP_ROC_NOT_FOUND\000"
 15668      5253505F 
 15668      524F435F 
 15668      4E4F545F 
 15668      464F554E 
 15669              	.LASF870:
 15670 2e15 4544435F 		.ascii	"EDC_AJ_COMPLETED\000"
 15670      414A5F43 
 15670      4F4D504C 
 15670      45544544 
 15670      00
 15671              	.LASF4:
 15672 2e26 6C6F6E67 		.ascii	"long int\000"
 15672      20696E74 
 15672      00
 15673              	.LASF166:
 15674 2e2f 4F535F46 		.ascii	"OS_FN_APP_SEARCH_NAME\000"
 15674      4E5F4150 
 15674      505F5345 
 15674      41524348 
 15674      5F4E414D 
 15675              	.LASF314:
 15676 2e45 4F535F46 		.ascii	"OS_FN_TPAD_OPEN\000"
 15676      4E5F5450 
 15676      41445F4F 
 15676      50454E00 
 15677              	.LASF1074:
 15678 2e55 54726169 		.ascii	"TrainingModeON\000"
 15678      6E696E67 
 15678      4D6F6465 
 15678      4F4E00
 15679              	.LASF833:
 15680 2e64 4544435F 		.ascii	"EDC_CN_ADJUST\000"
 15680      434E5F41 
 15680      444A5553 
 15680      5400
 15681              	.LASF726:
 15682 2e72 73625F70 		.ascii	"sb_pan\000"
 15682      616E00
 15683              	.LASF358:
 15684 2e79 4F535F46 		.ascii	"OS_FN_DEVICE_MOUNT\000"
 15684      4E5F4445 
 15684      56494345 
ARM GAS  C:\Users\AHMED~1.ELE\AppData\Local\Temp\cc0wYKcg.s 			page 344


 15684      5F4D4F55 
 15684      4E5400
 15685              	.LASF545:
 15686 2e8c 41504D5F 		.ascii	"APM_SETTRACE\000"
 15686      53455454 
 15686      52414345 
 15686      00
 15687              	.LASF614:
 15688 2e99 73625F70 		.ascii	"sb_ppp_pwd\000"
 15688      70705F70 
 15688      776400
 15689              	.LASF559:
 15690 2ea4 41504D5F 		.ascii	"APM_TRACE_IN_REV\000"
 15690      54524143 
 15690      455F494E 
 15690      5F524556 
 15690      00
 15691              	.LASF633:
 15692 2eb5 73625F64 		.ascii	"sb_date_time\000"
 15692      6174655F 
 15692      74696D65 
 15692      00
 15693              	.LASF623:
 15694 2ec2 625F6368 		.ascii	"b_checkin_sec_redial\000"
 15694      65636B69 
 15694      6E5F7365 
 15694      635F7265 
 15694      6469616C 
 15695              	.LASF1054:
 15696 2ed7 62696E32 		.ascii	"bin2bcd\000"
 15696      62636400 
 15697              	.LASF152:
 15698 2edf 4F535F46 		.ascii	"OS_FN_THREAD_RETURN\000"
 15698      4E5F5448 
 15698      52454144 
 15698      5F524554 
 15698      55524E00 
 15699              	.LASF1031:
 15700 2ef3 53796E63 		.ascii	"SyncHostDtg\000"
 15700      486F7374 
 15700      44746700 
 15701              	.LASF223:
 15702 2eff 4F535F46 		.ascii	"OS_FN_MMC_SIZE\000"
 15702      4E5F4D4D 
 15702      435F5349 
 15702      5A4500
 15703              	.LASF638:
 15704 2f0e 73625F6E 		.ascii	"sb_name_loc\000"
 15704      616D655F 
 15704      6C6F6300 
 15705              	.LASF1071:
 15706 2f1a 53657452 		.ascii	"SetRTC\000"
 15706      544300
 15707              	.LASF443:
 15708 2f21 4F535F46 		.ascii	"OS_FN_OFF\000"
 15708      4E5F4F46 
 15708      4600
ARM GAS  C:\Users\AHMED~1.ELE\AppData\Local\Temp\cc0wYKcg.s 			page 345


 15709              	.LASF682:
 15710 2f2b 625F7072 		.ascii	"b_pri_settle_conn_time\000"
 15710      695F7365 
 15710      74746C65 
 15710      5F636F6E 
 15710      6E5F7469 
 15711              	.LASF410:
 15712 2f42 4F535F46 		.ascii	"OS_FN_WIFI_SEND_COMMAND\000"
 15712      4E5F5749 
 15712      46495F53 
 15712      454E445F 
 15712      434F4D4D 
 15713              	.LASF883:
 15714 2f5a 4544435F 		.ascii	"EDC_FN_REPRINT_BATCH\000"
 15714      464E5F52 
 15714      45505249 
 15714      4E545F42 
 15714      41544348 
 15715              	.LASF60:
 15716 2f6f 4F535F46 		.ascii	"OS_FN_DISP_ICON_PUTC\000"
 15716      4E5F4449 
 15716      53505F49 
 15716      434F4E5F 
 15716      50555443 
 15717              	.LASF970:
 15718 2f84 4544435F 		.ascii	"EDC_MSG_END\000"
 15718      4D53475F 
 15718      454E4400 
 15719              	.LASF200:
 15720 2f90 4F535F46 		.ascii	"OS_FN_FILE_FTRUNCATE\000"
 15720      4E5F4649 
 15720      4C455F46 
 15720      5452554E 
 15720      43415445 
 15721              	.LASF393:
 15722 2fa5 4F535F46 		.ascii	"OS_FN_MIF_RESTORE\000"
 15722      4E5F4D49 
 15722      465F5245 
 15722      53544F52 
 15722      4500
 15723              	.LASF564:
 15724 2fb7 41504D5F 		.ascii	"APM_PWRSLEEP\000"
 15724      50575253 
 15724      4C454550 
 15724      00
 15725              	.LASF54:
 15726 2fc4 4F535F46 		.ascii	"OS_FN_DISP_GET_LCD_BUFFER\000"
 15726      4E5F4449 
 15726      53505F47 
 15726      45545F4C 
 15726      43445F42 
 15727              	.LASF474:
 15728 2fde 4F535F46 		.ascii	"OS_FN_WIFI_SOCKET_GET_STATE\000"
 15728      4E5F5749 
 15728      46495F53 
 15728      4F434B45 
 15728      545F4745 
ARM GAS  C:\Users\AHMED~1.ELE\AppData\Local\Temp\cc0wYKcg.s 			page 346


 15729              	.LASF118:
 15730 2ffa 4F535F46 		.ascii	"OS_FN_SM2_VERIFY_SIGNATURE\000"
 15730      4E5F534D 
 15730      325F5645 
 15730      52494659 
 15730      5F534947 
 15731              	.LASF850:
 15732 3015 4544435F 		.ascii	"EDC_IN_EXPIRY_DATE\000"
 15732      494E5F45 
 15732      58504952 
 15732      595F4441 
 15732      544500
 15733              	.LASF269:
 15734 3028 4F535F46 		.ascii	"OS_FN_FL_COPYB_PGM\000"
 15734      4E5F464C 
 15734      5F434F50 
 15734      59425F50 
 15734      474D00
 15735              	.LASF9:
 15736 303b 73697A65 		.ascii	"sizetype\000"
 15736      74797065 
 15736      00
 15737              	.LASF1076:
 15738 3044 6765745F 		.ascii	"get_byte\000"
 15738      62797465 
 15738      00
 15739              	.LASF968:
 15740 304d 4544435F 		.ascii	"EDC_CTL_CARD_READ_OK\000"
 15740      43544C5F 
 15740      43415244 
 15740      5F524541 
 15740      445F4F4B 
 15741              	.LASF700:
 15742 3062 44455343 		.ascii	"DESC_TBL\000"
 15742      5F54424C 
 15742      00
 15743              	.LASF304:
 15744 306b 4F535F46 		.ascii	"OS_FN_GPRS_READ\000"
 15744      4E5F4750 
 15744      52535F52 
 15744      45414400 
 15745              	.LASF360:
 15746 307b 4F535F46 		.ascii	"OS_FN_INTERRUPT_REGISTER\000"
 15746      4E5F494E 
 15746      54455252 
 15746      5550545F 
 15746      52454749 
 15747              	.LASF415:
 15748 3094 4F535F46 		.ascii	"OS_FN_NFC_OPEN_FELICA\000"
 15748      4E5F4E46 
 15748      435F4F50 
 15748      454E5F46 
 15748      454C4943 
 15749              	.LASF313:
 15750 30aa 4F535F46 		.ascii	"OS_FN_GPRS_SMS_READ\000"
 15750      4E5F4750 
 15750      52535F53 
ARM GAS  C:\Users\AHMED~1.ELE\AppData\Local\Temp\cc0wYKcg.s 			page 347


 15750      4D535F52 
 15750      45414400 
 15751              	.LASF863:
 15752 30be 4544435F 		.ascii	"EDC_AJ_ENTER_NAMT\000"
 15752      414A5F45 
 15752      4E544552 
 15752      5F4E414D 
 15752      5400
 15753              	.LASF235:
 15754 30d0 4F535F46 		.ascii	"OS_FN_LAN_CLOSE\000"
 15754      4E5F4C41 
 15754      4E5F434C 
 15754      4F534500 
 15755              	.LASF452:
 15756 30e0 4F535F46 		.ascii	"OS_FN_DTIMER_LATCH_START\000"
 15756      4E5F4454 
 15756      494D4552 
 15756      5F4C4154 
 15756      43485F53 
 15757              	.LASF260:
 15758 30f9 4F535F46 		.ascii	"OS_FN_FL_PAGE_READ\000"
 15758      4E5F464C 
 15758      5F504147 
 15758      455F5245 
 15758      414400
 15759              	.LASF599:
 15760 310c 73625F65 		.ascii	"sb_emvapp_chksum\000"
 15760      6D766170 
 15760      705F6368 
 15760      6B73756D 
 15760      00
 15761              	.LASF507:
 15762 311d 45435244 		.ascii	"ECRDATA\000"
 15762      41544100 
 15763              	.LASF697:
 15764 3125 625F7373 		.ascii	"b_ssl_key_idx\000"
 15764      6C5F6B65 
 15764      795F6964 
 15764      7800
 15765              	.LASF953:
 15766 3133 4544435F 		.ascii	"EDC_SE_NO_BATCH\000"
 15766      53455F4E 
 15766      4F5F4241 
 15766      54434800 
 15767              	.LASF176:
 15768 3143 4F535F46 		.ascii	"OS_FN_FILE_CLOSE\000"
 15768      4E5F4649 
 15768      4C455F43 
 15768      4C4F5345 
 15768      00
 15769              	.LASF646:
 15770 3154 625F6C6F 		.ascii	"b_local_option\000"
 15770      63616C5F 
 15770      6F707469 
 15770      6F6E00
 15771              	.LASF910:
 15772 3163 4544435F 		.ascii	"EDC_RSP_PIN_ERROR\000"
ARM GAS  C:\Users\AHMED~1.ELE\AppData\Local\Temp\cc0wYKcg.s 			page 348


 15772      5253505F 
 15772      50494E5F 
 15772      4552524F 
 15772      5200
 15773              	.LASF639:
 15774 3175 73625F64 		.ascii	"sb_dflt_name\000"
 15774      666C745F 
 15774      6E616D65 
 15774      00
 15775              	.LASF150:
 15776 3182 4F535F46 		.ascii	"OS_FN_THREAD_PUSH\000"
 15776      4E5F5448 
 15776      52454144 
 15776      5F505553 
 15776      4800
 15777              	.LASF1081:
 15778 3194 474E5520 		.ascii	"GNU C 4.9.3 20141119 (release) [ARM/embedded-4_9-br"
 15778      4320342E 
 15778      392E3320 
 15778      32303134 
 15778      31313139 
 15779 31c7 616E6368 		.ascii	"anch revision 218278] -mthumb -mcpu=cortex-a5 -mthu"
 15779      20726576 
 15779      6973696F 
 15779      6E203231 
 15779      38323738 
 15780 31fa 6D622D69 		.ascii	"mb-interwork -mstructure-size-boundary=32 -mno-unal"
 15780      6E746572 
 15780      776F726B 
 15780      202D6D73 
 15780      74727563 
 15781 322d 69676E65 		.ascii	"igned-access -g -Os -ffunction-sections -fsigned-ch"
 15781      642D6163 
 15781      63657373 
 15781      202D6720 
 15781      2D4F7320 
 15782 3260 617200   		.ascii	"ar\000"
 15783              	.LASF464:
 15784 3263 4F535F46 		.ascii	"OS_FN_ECC_SCALAR_MULTIPLY\000"
 15784      4E5F4543 
 15784      435F5343 
 15784      414C4152 
 15784      5F4D554C 
 15785              	.LASF397:
 15786 327d 4F535F46 		.ascii	"OS_FN_MIF_SENDCMD\000"
 15786      4E5F4D49 
 15786      465F5345 
 15786      4E44434D 
 15786      4400
 15787              	.LASF760:
 15788 328f 735F6465 		.ascii	"s_desc_tbl\000"
 15788      73635F74 
 15788      626C00
 15789              	.LASF483:
 15790 329a 4F535F46 		.ascii	"OS_FN_IMG_SENSOR_CLOSE\000"
 15790      4E5F494D 
 15790      475F5345 
ARM GAS  C:\Users\AHMED~1.ELE\AppData\Local\Temp\cc0wYKcg.s 			page 349


 15790      4E534F52 
 15790      5F434C4F 
 15791              	.LASF242:
 15792 32b1 4F535F46 		.ascii	"OS_FN_MSR_CLOSE\000"
 15792      4E5F4D53 
 15792      525F434C 
 15792      4F534500 
 15793              	.LASF822:
 15794 32c1 625F7361 		.ascii	"b_sale_flag\000"
 15794      6C655F66 
 15794      6C616700 
 15795              	.LASF430:
 15796 32cd 4F535F46 		.ascii	"OS_FN_GPS_RESET\000"
 15796      4E5F4750 
 15796      535F5245 
 15796      53455400 
 15797              	.LASF270:
 15798 32dd 4F535F46 		.ascii	"OS_FN_FL_COPYB_END\000"
 15798      4E5F464C 
 15798      5F434F50 
 15798      59425F45 
 15798      4E4400
 15799              	.LASF172:
 15800 32f0 4F535F46 		.ascii	"OS_FN_FREE\000"
 15800      4E5F4652 
 15800      454500
 15801              	.LASF757:
 15802 32fb 735F414C 		.ascii	"s_ALL\000"
 15802      4C00
 15803              	.LASF778:
 15804 3301 735F5278 		.ascii	"s_RxMsg\000"
 15804      4D736700 
 15805              	.LASF536:
 15806 3309 41504D5F 		.ascii	"APM_GETLOGOTBL\000"
 15806      4745544C 
 15806      4F474F54 
 15806      424C00
 15807              	.LASF476:
 15808 3318 4F535F46 		.ascii	"OS_FN_WIFI_SOCKET_SEND_UDP\000"
 15808      4E5F5749 
 15808      46495F53 
 15808      4F434B45 
 15808      545F5345 
 15809              	.LASF374:
 15810 3333 4F535F46 		.ascii	"OS_FN_TAMPER_ON\000"
 15810      4E5F5441 
 15810      4D504552 
 15810      5F4F4E00 
 15811              	.LASF543:
 15812 3343 41504D5F 		.ascii	"APM_SELACQUIRER\000"
 15812      53454C41 
 15812      43515549 
 15812      52455200 
 15813              	.LASF598:
 15814 3353 73625F65 		.ascii	"sb_edc_size\000"
 15814      64635F73 
 15814      697A6500 
ARM GAS  C:\Users\AHMED~1.ELE\AppData\Local\Temp\cc0wYKcg.s 			page 350


 15815              	.LASF219:
 15816 335f 4F535F46 		.ascii	"OS_FN_SAM_CHANGE\000"
 15816      4E5F5341 
 15816      4D5F4348 
 15816      414E4745 
 15816      00
 15817              	.LASF740:
 15818 3370 775F686F 		.ascii	"w_host_idx\000"
 15818      73745F69 
 15818      647800
 15819              	.LASF278:
 15820 337b 4F535F46 		.ascii	"OS_FN_MDM_DISC\000"
 15820      4E5F4D44 
 15820      4D5F4449 
 15820      534300
 15821              	.LASF826:
 15822 338a 4544435F 		.ascii	"EDC_CO_PROCESSING\000"
 15822      434F5F50 
 15822      524F4345 
 15822      5353494E 
 15822      4700
 15823              	.LASF1022:
 15824 339c 6C656E5F 		.ascii	"len_ptr\000"
 15824      70747200 
 15825              	.LASF959:
 15826 33a4 4544435F 		.ascii	"EDC_EMV_FATAL\000"
 15826      454D565F 
 15826      46415441 
 15826      4C00
 15827              	.LASF66:
 15828 33b2 4F535F46 		.ascii	"OS_FN_COM1_RXRDY\000"
 15828      4E5F434F 
 15828      4D315F52 
 15828      58524459 
 15828      00
 15829              	.LASF245:
 15830 33c3 4F535F46 		.ascii	"OS_FN_MSR_READ\000"
 15830      4E5F4D53 
 15830      525F5245 
 15830      414400
 15831              	.LASF581:
 15832 33d2 73625F70 		.ascii	"sb_pabx\000"
 15832      61627800 
 15833              	.LASF922:
 15834 33da 4544435F 		.ascii	"EDC_RSP_BATCH_XFER\000"
 15834      5253505F 
 15834      42415443 
 15834      485F5846 
 15834      455200
 15835              	.LASF1007:
 15836 33ed 625F6F72 		.ascii	"b_org_trans\000"
 15836      675F7472 
 15836      616E7300 
 15837              	.LASF630:
 15838 33f9 625F696E 		.ascii	"b_init_control\000"
 15838      69745F63 
 15838      6F6E7472 
ARM GAS  C:\Users\AHMED~1.ELE\AppData\Local\Temp\cc0wYKcg.s 			page 351


 15838      6F6C00
 15839              	.LASF394:
 15840 3408 4F535F46 		.ascii	"OS_FN_MIF_TRANSFER\000"
 15840      4E5F4D49 
 15840      465F5452 
 15840      414E5346 
 15840      455200
 15841              	.LASF702:
 15842 341b 73625F68 		.ascii	"sb_host_tx_code\000"
 15842      6F73745F 
 15842      74785F63 
 15842      6F646500 
 15843              	.LASF529:
 15844 342b 41504D5F 		.ascii	"APM_GETISSUERCOUNT\000"
 15844      47455449 
 15844      53535545 
 15844      52434F55 
 15844      4E5400
 15845              	.LASF1024:
 15846 343e 74785F62 		.ascii	"tx_bitmap\000"
 15846      69746D61 
 15846      7000
 15847              	.LASF556:
 15848 3448 41504D5F 		.ascii	"APM_SAVE_BAT_REC\000"
 15848      53415645 
 15848      5F424154 
 15848      5F524543 
 15848      00
 15849              	.LASF510:
 15850 3459 4D575F54 		.ascii	"MW_TRK2BUF\000"
 15850      524B3242 
 15850      554600
 15851              	.LASF350:
 15852 3464 4F535F46 		.ascii	"OS_FN_DEVICE_ALLOC\000"
 15852      4E5F4445 
 15852      56494345 
 15852      5F414C4C 
 15852      4F4300
 15853              	.LASF155:
 15854 3477 4F535F46 		.ascii	"OS_FN_BUFMAN_REALLOC\000"
 15854      4E5F4255 
 15854      464D414E 
 15854      5F524541 
 15854      4C4C4F43 
 15855              	.LASF420:
 15856 348c 4F535F46 		.ascii	"OS_FN_NFC_INFO_GET\000"
 15856      4E5F4E46 
 15856      435F494E 
 15856      464F5F47 
 15856      455400
 15857              	.LASF78:
 15858 349f 4F535F46 		.ascii	"OS_FN_COM2_SEND\000"
 15858      4E5F434F 
 15858      4D325F53 
 15858      454E4400 
 15859              	.LASF22:
 15860 34af 70624C6F 		.ascii	"pbLoc\000"
ARM GAS  C:\Users\AHMED~1.ELE\AppData\Local\Temp\cc0wYKcg.s 			page 352


 15860      6300
 15861              	.LASF19:
 15862 34b5 73494F5F 		.ascii	"sIO_t\000"
 15862      7400
 15863              	.LASF324:
 15864 34bb 4F535F46 		.ascii	"OS_FN_CODEC_PLAY\000"
 15864      4E5F434F 
 15864      4445435F 
 15864      504C4159 
 15864      00
 15865              	.LASF23:
 15866 34cc 544C4953 		.ascii	"TLIST\000"
 15866      5400
 15867              	.LASF377:
 15868 34d2 4F535F46 		.ascii	"OS_FN_MIF_OPEN\000"
 15868      4E5F4D49 
 15868      465F4F50 
 15868      454E00
 15869              	.LASF137:
 15870 34e1 4F535F46 		.ascii	"OS_FN_KEY_SAVE_NC\000"
 15870      4E5F4B45 
 15870      595F5341 
 15870      56455F4E 
 15870      4300
 15871              	.LASF481:
 15872 34f3 4F535F46 		.ascii	"OS_FN_IMG_SENSOR_GET_FRAME\000"
 15872      4E5F494D 
 15872      475F5345 
 15872      4E534F52 
 15872      5F474554 
 15873              	.LASF1055:
 15874 350e 73706C69 		.ascii	"split\000"
 15874      7400
 15875              	.LASF357:
 15876 3514 4F535F46 		.ascii	"OS_FN_DEVICE_OPEN\000"
 15876      4E5F4445 
 15876      56494345 
 15876      5F4F5045 
 15876      4E00
 15877              	.LASF620:
 15878 3526 625F6368 		.ascii	"b_checkin_pri_redial\000"
 15878      65636B69 
 15878      6E5F7072 
 15878      695F7265 
 15878      6469616C 
 15879              	.LASF1085:
 15880 353b 54726169 		.ascii	"TrainingRsp\000"
 15880      6E696E67 
 15880      52737000 
 15881              	.LASF185:
 15882 3547 4F535F46 		.ascii	"OS_FN_FILE_GETC\000"
 15882      4E5F4649 
 15882      4C455F47 
 15882      45544300 
 15883              	.LASF871:
 15884 3557 4544435F 		.ascii	"EDC_VD_VOIDED\000"
 15884      56445F56 
ARM GAS  C:\Users\AHMED~1.ELE\AppData\Local\Temp\cc0wYKcg.s 			page 353


 15884      4F494445 
 15884      4400
 15885              	.LASF515:
 15886 3565 41504D5F 		.ascii	"APM_YESNO\000"
 15886      5945534E 
 15886      4F00
 15887              	.LASF734:
 15888 356f 73625F68 		.ascii	"sb_holder_name\000"
 15888      6F6C6465 
 15888      725F6E61 
 15888      6D6500
 15889              	.LASF0:
 15890 357e 7369676E 		.ascii	"signed char\000"
 15890      65642063 
 15890      68617200 
 15891              	.LASF834:
 15892 358a 4544435F 		.ascii	"EDC_CN_UPLOAD\000"
 15892      434E5F55 
 15892      504C4F41 
 15892      4400
 15893              	.LASF729:
 15894 3598 64645F61 		.ascii	"dd_amount\000"
 15894      6D6F756E 
 15894      7400
 15895              	.LASF1013:
 15896 35a2 5452414E 		.ascii	"TRANS_DATA\000"
 15896      535F4441 
 15896      544100
 15897              	.LASF606:
 15898 35ad 73625F78 		.ascii	"sb_xapp_date\000"
 15898      6170705F 
 15898      64617465 
 15898      00
 15899              	.LASF373:
 15900 35ba 4F535F46 		.ascii	"OS_FN_USBKBD_GETKEY\000"
 15900      4E5F5553 
 15900      424B4244 
 15900      5F474554 
 15900      4B455900 
 15901              	.LASF837:
 15902 35ce 4544435F 		.ascii	"EDC_CN_TEST_MSG\000"
 15902      434E5F54 
 15902      4553545F 
 15902      4D534700 
 15903              	.LASF880:
 15904 35de 4544435F 		.ascii	"EDC_FN_CLR_REV\000"
 15904      464E5F43 
 15904      4C525F52 
 15904      455600
 15905              	.LASF815:
 15906 35ed 4D41585F 		.ascii	"MAX_TXN_TYPE\000"
 15906      54584E5F 
 15906      54595045 
 15906      00
 15907              	.LASF792:
 15908 35fa 53414C45 		.ascii	"SALE_MANUAL\000"
 15908      5F4D414E 
ARM GAS  C:\Users\AHMED~1.ELE\AppData\Local\Temp\cc0wYKcg.s 			page 354


 15908      55414C00 
 15909              	.LASF644:
 15910 3606 625F7365 		.ascii	"b_settle_amount_len\000"
 15910      74746C65 
 15910      5F616D6F 
 15910      756E745F 
 15910      6C656E00 
 15911              	.LASF1083:
 15912 361a 443A5C42 		.ascii	"D:\\Bank Miser\\Core\\S_MISR\\APP\\MISR\000"
 15912      616E6B20 
 15912      4D697365 
 15912      725C436F 
 15912      72655C53 
 15913              	.LASF168:
 15914 363d 4F535F46 		.ascii	"OS_FN_APP_CLR_VIRGIN\000"
 15914      4E5F4150 
 15914      505F434C 
 15914      525F5649 
 15914      5247494E 
 15915              	.LASF975:
 15916 3652 775F6361 		.ascii	"w_card_idx\000"
 15916      72645F69 
 15916      647800
 15917              	.LASF664:
 15918 365d 625F7061 		.ascii	"b_pan_len\000"
 15918      6E5F6C65 
 15918      6E00
 15919              	.LASF781:
 15920 3667 735F454D 		.ascii	"s_EMVOut\000"
 15920      564F7574 
 15920      00
 15921              	.LASF916:
 15922 3670 4544435F 		.ascii	"EDC_RSP_BAD_BATCH_NO\000"
 15922      5253505F 
 15922      4241445F 
 15922      42415443 
 15922      485F4E4F 
 15923              	.LASF291:
 15924 3685 4F535F46 		.ascii	"OS_FN_MCOM_SEND\000"
 15924      4E5F4D43 
 15924      4F4D5F53 
 15924      454E4400 
 15925              	.LASF814:
 15926 3695 5452414E 		.ascii	"TRANS_UPLOAD_LAST\000"
 15926      535F5550 
 15926      4C4F4144 
 15926      5F4C4153 
 15926      5400
 15927              	.LASF274:
 15928 36a7 4F535F46 		.ascii	"OS_FN_FL_COPYBACK\000"
 15928      4E5F464C 
 15928      5F434F50 
 15928      59424143 
 15928      4B00
 15929              	.LASF948:
 15930 36b9 4544435F 		.ascii	"EDC_RSP_UNSUPPORT_CARD\000"
 15930      5253505F 
ARM GAS  C:\Users\AHMED~1.ELE\AppData\Local\Temp\cc0wYKcg.s 			page 355


 15930      554E5355 
 15930      50504F52 
 15930      545F4341 
 15931              	.LASF261:
 15932 36d0 4F535F46 		.ascii	"OS_FN_FL_PAGE\000"
 15932      4E5F464C 
 15932      5F504147 
 15932      4500
 15933              	.LASF49:
 15934 36de 4F535F46 		.ascii	"OS_FN_DISP_GETG\000"
 15934      4E5F4449 
 15934      53505F47 
 15934      45544700 
 15935              	.LASF52:
 15936 36ee 4F535F46 		.ascii	"OS_FN_DISP_GETP\000"
 15936      4E5F4449 
 15936      53505F47 
 15936      45545000 
 15937              	.LASF612:
 15938 36fe 73625F66 		.ascii	"sb_ftp_pwd\000"
 15938      74705F70 
 15938      776400
 15939              	.LASF359:
 15940 3709 4F535F46 		.ascii	"OS_FN_DEVICE_UNMOUNT\000"
 15940      4E5F4445 
 15940      56494345 
 15940      5F554E4D 
 15940      4F554E54 
 15941              	.LASF748:
 15942 371e 544F5441 		.ascii	"TOTAL\000"
 15942      4C00
 15943              	.LASF973:
 15944 3724 735F7472 		.ascii	"s_trk1buf\000"
 15944      6B316275 
 15944      6600
 15945              	.LASF348:
 15946 372e 4F535F46 		.ascii	"OS_FN_DRIVER_REGISTER\000"
 15946      4E5F4452 
 15946      49564552 
 15946      5F524547 
 15946      49535445 
 15947              	.LASF926:
 15948 3744 4544435F 		.ascii	"EDC_RSP_CTL_TOI\000"
 15948      5253505F 
 15948      43544C5F 
 15948      544F4900 
 15949              	.LASF683:
 15950 3754 625F7072 		.ascii	"b_pri_settle_redial\000"
 15950      695F7365 
 15950      74746C65 
 15950      5F726564 
 15950      69616C00 
 15951              	.LASF1069:
 15952 3768 62636461 		.ascii	"bcdadd\000"
 15952      646400
 15953              	.LASF425:
 15954 376f 4F535F46 		.ascii	"OS_FN_GPS_OFF\000"
ARM GAS  C:\Users\AHMED~1.ELE\AppData\Local\Temp\cc0wYKcg.s 			page 356


 15954      4E5F4750 
 15954      535F4F46 
 15954      4600
 15955              	.LASF487:
 15956 377d 4F535F46 		.ascii	"OS_FN_IMG_SENSOR_LED_OPEN\000"
 15956      4E5F494D 
 15956      475F5345 
 15956      4E534F52 
 15956      5F4C4544 
 15957              	.LASF821:
 15958 3797 625F636F 		.ascii	"b_condition_code\000"
 15958      6E646974 
 15958      696F6E5F 
 15958      636F6465 
 15958      00
 15959              	.LASF940:
 15960 37a8 4544435F 		.ascii	"EDC_RSP_SWIPE_CARD\000"
 15960      5253505F 
 15960      53574950 
 15960      455F4341 
 15960      524400
 15961              	.LASF13:
 15962 37bb 42595445 		.ascii	"BYTE\000"
 15962      00
 15963              	.LASF392:
 15964 37c0 4F535F46 		.ascii	"OS_FN_MIF_DEC\000"
 15964      4E5F4D49 
 15964      465F4445 
 15964      4300
 15965              	.LASF306:
 15966 37ce 4F535F46 		.ascii	"OS_FN_GPRS_CONTROL\000"
 15966      4E5F4750 
 15966      52535F43 
 15966      4F4E5452 
 15966      4F4C00
 15967              	.LASF417:
 15968 37e1 4F535F46 		.ascii	"OS_FN_NFC_CANCEL\000"
 15968      4E5F4E46 
 15968      435F4341 
 15968      4E43454C 
 15968      00
 15969              	.LASF971:
 15970 37f2 494E5055 		.ascii	"INPUT_DATA\000"
 15970      545F4441 
 15970      544100
 15971              	.LASF408:
 15972 37fd 4F535F46 		.ascii	"OS_FN_BARCODE_ENABLED\000"
 15972      4E5F4241 
 15972      52434F44 
 15972      455F454E 
 15972      41424C45 
 15973              	.LASF7:
 15974 3813 6C6F6E67 		.ascii	"long long unsigned int\000"
 15974      206C6F6E 
 15974      6720756E 
 15974      7369676E 
 15974      65642069 
ARM GAS  C:\Users\AHMED~1.ELE\AppData\Local\Temp\cc0wYKcg.s 			page 357


 15975              	.LASF788:
 15976 382a 695F6563 		.ascii	"i_ecr_len\000"
 15976      725F6C65 
 15976      6E00
 15977              	.LASF746:
 15978 3834 625F7479 		.ascii	"b_type\000"
 15978      706500
 15979              	.LASF541:
 15980 383b 41504D5F 		.ascii	"APM_GETBATCH\000"
 15980      47455442 
 15980      41544348 
 15980      00
 15981              	.LASF902:
 15982 3848 4544435F 		.ascii	"EDC_RSP_RETRY\000"
 15982      5253505F 
 15982      52455452 
 15982      5900
 15983              	.LASF329:
 15984 3856 4F535F46 		.ascii	"OS_FN_CLICC_POLL\000"
 15984      4E5F434C 
 15984      4943435F 
 15984      504F4C4C 
 15984      00
 15985              	.LASF279:
 15986 3867 4F535F46 		.ascii	"OS_FN_MDM_CID\000"
 15986      4E5F4D44 
 15986      4D5F4349 
 15986      4400
 15987              	.LASF820:
 15988 3875 625F7072 		.ascii	"b_proc_code\000"
 15988      6F635F63 
 15988      6F646500 
 15989              	.LASF429:
 15990 3881 4F535F46 		.ascii	"OS_FN_GPS_RESP\000"
 15990      4E5F4750 
 15990      535F5245 
 15990      535000
 15991              	.LASF385:
 15992 3890 4F535F46 		.ascii	"OS_FN_MIF_SELECT\000"
 15992      4E5F4D49 
 15992      465F5345 
 15992      4C454354 
 15992      00
 15993              	.LASF387:
 15994 38a1 4F535F46 		.ascii	"OS_FN_MIF_AUTH1\000"
 15994      4E5F4D49 
 15994      465F4155 
 15994      54483100 
 15995              	.LASF63:
 15996 38b1 4F535F46 		.ascii	"OS_FN_DISP_OVERLAY\000"
 15996      4E5F4449 
 15996      53505F4F 
 15996      5645524C 
 15996      415900
 15997              	.LASF860:
 15998 38c4 4544435F 		.ascii	"EDC_TU_CLOSE_BATCH\000"
 15998      54555F43 
ARM GAS  C:\Users\AHMED~1.ELE\AppData\Local\Temp\cc0wYKcg.s 			page 358


 15998      4C4F5345 
 15998      5F424154 
 15998      434800
 15999              	.LASF147:
 16000 38d7 4F535F46 		.ascii	"OS_FN_THREAD_DELETE\000"
 16000      4E5F5448 
 16000      52454144 
 16000      5F44454C 
 16000      45544500 
 16001              	.LASF375:
 16002 38eb 4F535F46 		.ascii	"OS_FN_TAMPER_GET_STATUS\000"
 16002      4E5F5441 
 16002      4D504552 
 16002      5F474554 
 16002      5F535441 
 16003              	.LASF574:
 16004 3903 625F7072 		.ascii	"b_pri_conn_time\000"
 16004      695F636F 
 16004      6E6E5F74 
 16004      696D6500 
 16005              	.LASF735:
 16006 3913 73625F65 		.ascii	"sb_ecr_ref\000"
 16006      63725F72 
 16006      656600
 16007              	.LASF205:
 16008 391e 4F535F46 		.ascii	"OS_FN_FILE_GET_LONGNAME\000"
 16008      4E5F4649 
 16008      4C455F47 
 16008      45545F4C 
 16008      4F4E474E 
 16009              	.LASF600:
 16010 3936 73625F65 		.ascii	"sb_emvapp_date\000"
 16010      6D766170 
 16010      705F6461 
 16010      746500
 16011              	.LASF673:
 16012 3945 73625F70 		.ascii	"sb_program\000"
 16012      726F6772 
 16012      616D00
 16013              	.LASF188:
 16014 3950 4F535F46 		.ascii	"OS_FN_FILE_SEARCH\000"
 16014      4E5F4649 
 16014      4C455F53 
 16014      45415243 
 16014      4800
 16015              	.LASF720:
 16016 3962 73625F6D 		.ascii	"sb_misc_content\000"
 16016      6973635F 
 16016      636F6E74 
 16016      656E7400 
 16017              	.LASF909:
 16018 3972 4544435F 		.ascii	"EDC_RSP_CARD_EXPIRED\000"
 16018      5253505F 
 16018      43415244 
 16018      5F455850 
 16018      49524544 
 16019              	.LASF704:
ARM GAS  C:\Users\AHMED~1.ELE\AppData\Local\Temp\cc0wYKcg.s 			page 359


 16020 3987 44415445 		.ascii	"DATETIME\000"
 16020      54494D45 
 16020      00
 16021              	.LASF512:
 16022 3990 41504D5F 		.ascii	"APM_CLRKEY\000"
 16022      434C524B 
 16022      455900
 16023              	.LASF568:
 16024 399b 5445524D 		.ascii	"TERM_DATA\000"
 16024      5F444154 
 16024      4100
 16025              	.LASF226:
 16026 39a5 4F535F46 		.ascii	"OS_FN_MMC_BLK_WRITE\000"
 16026      4E5F4D4D 
 16026      435F424C 
 16026      4B5F5752 
 16026      49544500 
 16027              	.LASF946:
 16028 39b9 4544435F 		.ascii	"EDC_RSP_TRY_AGAING_TO\000"
 16028      5253505F 
 16028      5452595F 
 16028      41474149 
 16028      4E475F54 
 16029              	.LASF900:
 16030 39cf 4544435F 		.ascii	"EDC_RSP_BAD_AMOUNT\000"
 16030      5253505F 
 16030      4241445F 
 16030      414D4F55 
 16030      4E5400
 16031              	.LASF647:
 16032 39e2 73625F61 		.ascii	"sb_additional_prompt\000"
 16032      64646974 
 16032      696F6E61 
 16032      6C5F7072 
 16032      6F6D7074 
 16033              	.LASF183:
 16034 39f7 4F535F46 		.ascii	"OS_FN_FILE_WRITE\000"
 16034      4E5F4649 
 16034      4C455F57 
 16034      52495445 
 16034      00
 16035              	.LASF73:
 16036 3a08 4F535F46 		.ascii	"OS_FN_COM2_OPEN\000"
 16036      4E5F434F 
 16036      4D325F4F 
 16036      50454E00 
 16037              	.LASF530:
 16038 3a18 41504D5F 		.ascii	"APM_GETISSUER\000"
 16038      47455449 
 16038      53535545 
 16038      5200
 16039              	.LASF903:
 16040 3a26 4544435F 		.ascii	"EDC_RSP_INVALID_TERM\000"
 16040      5253505F 
 16040      494E5641 
 16040      4C49445F 
 16040      5445524D 
ARM GAS  C:\Users\AHMED~1.ELE\AppData\Local\Temp\cc0wYKcg.s 			page 360


 16041              	.LASF912:
 16042 3a3b 4544435F 		.ascii	"EDC_RSP_CONTACT_ACQ\000"
 16042      5253505F 
 16042      434F4E54 
 16042      4143545F 
 16042      41435100 
 16043              	.LASF884:
 16044 3a4f 4544435F 		.ascii	"EDC_FN_PRINT_REPORT\000"
 16044      464E5F50 
 16044      52494E54 
 16044      5F524550 
 16044      4F525400 
 16045              	.LASF338:
 16046 3a63 4F535F46 		.ascii	"OS_FN_CLICC_LED_SET\000"
 16046      4E5F434C 
 16046      4943435F 
 16046      4C45445F 
 16046      53455400 
 16047              	.LASF784:
 16048 3a77 735F5461 		.ascii	"s_TagList\000"
 16048      674C6973 
 16048      7400
 16049              	.LASF249:
 16050 3a81 4F535F46 		.ascii	"OS_FN_LPT_PUTC\000"
 16050      4E5F4C50 
 16050      545F5055 
 16050      544300
 16051              	.LASF230:
 16052 3a90 4F535F46 		.ascii	"OS_FN_SLE_OPEN\000"
 16052      4E5F534C 
 16052      455F4F50 
 16052      454E00
 16053              	.LASF1051:
 16054 3a9f 52656164 		.ascii	"ReadRTC\000"
 16054      52544300 
 16055              	.LASF571:
 16056 3aa7 73625F74 		.ascii	"sb_term_id\000"
 16056      65726D5F 
 16056      696400
 16057              	.LASF418:
 16058 3ab2 4F535F46 		.ascii	"OS_FN_NFC_CLOSE\000"
 16058      4E5F4E46 
 16058      435F434C 
 16058      4F534500 
 16059              	.LASF401:
 16060 3ac2 4F535F46 		.ascii	"OS_FN_BARCODE_OPEN\000"
 16060      4E5F4241 
 16060      52434F44 
 16060      455F4F50 
 16060      454E00
 16061              	.LASF149:
 16062 3ad5 4F535F46 		.ascii	"OS_FN_THREAD_UNLOCK\000"
 16062      4E5F5448 
 16062      52454144 
 16062      5F554E4C 
 16062      4F434B00 
 16063              	.LASF696:
ARM GAS  C:\Users\AHMED~1.ELE\AppData\Local\Temp\cc0wYKcg.s 			page 361


 16064 3ae9 625F7265 		.ascii	"b_reserved1\000"
 16064      73657276 
 16064      65643100 
 16065              	.LASF898:
 16066 3af5 4544435F 		.ascii	"EDC_RSP_APPV_ID\000"
 16066      5253505F 
 16066      41505056 
 16066      5F494400 
 16067              	.LASF389:
 16068 3b05 4F535F46 		.ascii	"OS_FN_MIF_READ\000"
 16068      4E5F4D49 
 16068      465F5245 
 16068      414400
 16069              	.LASF641:
 16070 3b14 625F7472 		.ascii	"b_trans_amount_len\000"
 16070      616E735F 
 16070      616D6F75 
 16070      6E745F6C 
 16070      656E00
 16071              	.LASF921:
 16072 3b27 4544435F 		.ascii	"EDC_RSP_DUP_TRACE\000"
 16072      5253505F 
 16072      4455505F 
 16072      54524143 
 16072      4500
 16073              	.LASF972:
 16074 3b39 73625F70 		.ascii	"sb_pin\000"
 16074      696E00
 16075              	.LASF407:
 16076 3b40 4F535F46 		.ascii	"OS_FN_BARCODE_STATUS\000"
 16076      4E5F4241 
 16076      52434F44 
 16076      455F5354 
 16076      41545553 
 16077              	.LASF113:
 16078 3b55 4F535F46 		.ascii	"OS_FN_MD4_PROCESS\000"
 16078      4E5F4D44 
 16078      345F5052 
 16078      4F434553 
 16078      5300
 16079              	.LASF330:
 16080 3b67 4F535F46 		.ascii	"OS_FN_CLICC_REMOVE\000"
 16080      4E5F434C 
 16080      4943435F 
 16080      52454D4F 
 16080      564500
 16081              	.LASF125:
 16082 3b7a 4F535F46 		.ascii	"OS_FN_SM4_ENCRYPT\000"
 16082      4E5F534D 
 16082      345F454E 
 16082      43525950 
 16082      5400
 16083              	.LASF10:
 16084 3b8c 63686172 		.ascii	"char\000"
 16084      00
 16085              	.LASF98:
 16086 3b91 4F535F46 		.ascii	"OS_FN_NEW_DES2\000"
ARM GAS  C:\Users\AHMED~1.ELE\AppData\Local\Temp\cc0wYKcg.s 			page 362


 16086      4E5F4E45 
 16086      575F4445 
 16086      533200
 16087              	.LASF631:
 16088 3ba0 625F7273 		.ascii	"b_rsvd0\000"
 16088      76643000 
 16089              	.LASF632:
 16090 3ba8 625F7273 		.ascii	"b_rsvd1\000"
 16090      76643100 
 16091              	.LASF643:
 16092 3bb0 625F7273 		.ascii	"b_rsvd2\000"
 16092      76643200 
 16093              	.LASF1067:
 16094 3bb8 64626748 		.ascii	"dbgHex\000"
 16094      657800
 16095              	.LASF96:
 16096 3bbf 4F535F46 		.ascii	"OS_FN_COM_DES2\000"
 16096      4E5F434F 
 16096      4D5F4445 
 16096      533200
 16097              	.LASF616:
 16098 3bce 73625F70 		.ascii	"sb_ppp_port\000"
 16098      70705F70 
 16098      6F727400 
 16099              	.LASF867:
 16100 3bda 4544435F 		.ascii	"EDC_AJ_OVERLIMIT\000"
 16100      414A5F4F 
 16100      5645524C 
 16100      494D4954 
 16100      00
 16101              	.LASF532:
 16102 3beb 41504D5F 		.ascii	"APM_GETACQTBL\000"
 16102      47455441 
 16102      43515442 
 16102      4C00
 16103              	.LASF671:
 16104 3bf9 73625F66 		.ascii	"sb_floor_limit\000"
 16104      6C6F6F72 
 16104      5F6C696D 
 16104      697400
 16105              	.LASF656:
 16106 3c08 61706E63 		.ascii	"apnconfig2\000"
 16106      6F6E6669 
 16106      673200
 16107              	.LASF282:
 16108 3c13 4F535F46 		.ascii	"OS_FN_MCOM_OPEN\000"
 16108      4E5F4D43 
 16108      4F4D5F4F 
 16108      50454E00 
 16109              	.LASF572:
 16110 3c23 625F696E 		.ascii	"b_init_mode\000"
 16110      69745F6D 
 16110      6F646500 
 16111              	.LASF356:
 16112 3c2f 4F535F46 		.ascii	"OS_FN_DEVICE_SEARCH_NEXT\000"
 16112      4E5F4445 
 16112      56494345 
ARM GAS  C:\Users\AHMED~1.ELE\AppData\Local\Temp\cc0wYKcg.s 			page 363


 16112      5F534541 
 16112      5243485F 
 16113              	.LASF779:
 16114 3c48 73625F49 		.ascii	"sb_IOBuf\000"
 16114      4F427566 
 16114      00
 16115              	.LASF34:
 16116 3c51 4F535F46 		.ascii	"OS_FN_TIMER_OPEN\000"
 16116      4E5F5449 
 16116      4D45525F 
 16116      4F50454E 
 16116      00
 16117              	.LASF85:
 16118 3c62 4F535F46 		.ascii	"OS_FN_COM3_TXRDY\000"
 16118      4E5F434F 
 16118      4D335F54 
 16118      58524459 
 16118      00
 16119              	.LASF434:
 16120 3c73 4F535F46 		.ascii	"OS_FN_APPDL_WRITE_APP\000"
 16120      4E5F4150 
 16120      50444C5F 
 16120      57524954 
 16120      455F4150 
 16121              	.LASF258:
 16122 3c89 4F535F46 		.ascii	"OS_FN_FL_INFO\000"
 16122      4E5F464C 
 16122      5F494E46 
 16122      4F00
 16123              	.LASF727:
 16124 3c97 73625F65 		.ascii	"sb_exp_date\000"
 16124      78705F64 
 16124      61746500 
 16125              	.LASF369:
 16126 3ca3 4F535F46 		.ascii	"OS_FN_NETDEV_IOCTL\000"
 16126      4E5F4E45 
 16126      54444556 
 16126      5F494F43 
 16126      544C00
 16127              	.LASF441:
 16128 3cb6 4F535F46 		.ascii	"OS_FN_RDLL_APP\000"
 16128      4E5F5244 
 16128      4C4C5F41 
 16128      505000
 16129              	.LASF728:
 16130 3cc5 63757272 		.ascii	"currency\000"
 16130      656E6379 
 16130      00
 16131              	.LASF364:
 16132 3cce 4F535F46 		.ascii	"OS_FN_USBOTG_GET_STATE\000"
 16132      4E5F5553 
 16132      424F5447 
 16132      5F474554 
 16132      5F535441 
 16133              	.LASF1082:
 16134 3ce5 7372632F 		.ascii	"src/hostmsg.c\000"
 16134      686F7374 
ARM GAS  C:\Users\AHMED~1.ELE\AppData\Local\Temp\cc0wYKcg.s 			page 364


 16134      6D73672E 
 16134      6300
 16135              	.LASF327:
 16136 3cf3 4F535F46 		.ascii	"OS_FN_CODEC_STATUS\000"
 16136      4E5F434F 
 16136      4445435F 
 16136      53544154 
 16136      555300
 16137              	.LASF132:
 16138 3d06 4F535F46 		.ascii	"OS_FN_KEY_DUKPT_ENCRYPT\000"
 16138      4E5F4B45 
 16138      595F4455 
 16138      4B50545F 
 16138      454E4352 
 16139              	.LASF24:
 16140 3d1e 4F535F46 		.ascii	"OS_FN_GET_VERSION\000"
 16140      4E5F4745 
 16140      545F5645 
 16140      5253494F 
 16140      4E00
 16141              	.LASF736:
 16142 3d30 73625F61 		.ascii	"sb_auth_code\000"
 16142      7574685F 
 16142      636F6465 
 16142      00
 16143              	.LASF904:
 16144 3d3d 4544435F 		.ascii	"EDC_RSP_EDIT_ERROR\000"
 16144      5253505F 
 16144      45444954 
 16144      5F455252 
 16144      4F5200
 16145              	.LASF285:
 16146 3d50 4F535F46 		.ascii	"OS_FN_MCOM_RXRDY\000"
 16146      4E5F4D43 
 16146      4F4D5F52 
 16146      58524459 
 16146      00
 16147              	.LASF911:
 16148 3d61 4544435F 		.ascii	"EDC_RSP_INV_SERVICE\000"
 16148      5253505F 
 16148      494E565F 
 16148      53455256 
 16148      49434500 
 16149              	.LASF566:
 16150 3d75 434F4D4D 		.ascii	"COMMBUF\000"
 16150      42554600 
 16151              	.LASF965:
 16152 3d7d 4544435F 		.ascii	"EDC_CTL_PREPROCESS_ERR\000"
 16152      43544C5F 
 16152      50524550 
 16152      524F4345 
 16152      53535F45 
 16153              	.LASF501:
 16154 3d94 55534246 		.ascii	"USBFPRT_GENERAL_INFO_END\000"
 16154      5052545F 
 16154      47454E45 
 16154      52414C5F 
ARM GAS  C:\Users\AHMED~1.ELE\AppData\Local\Temp\cc0wYKcg.s 			page 365


 16154      494E464F 
 16155              	.LASF786:
 16156 3dad 735F6273 		.ascii	"s_bs_date\000"
 16156      5F646174 
 16156      6500
 16157              	.LASF526:
 16158 3db7 41504D5F 		.ascii	"APM_GETTERMCFG\000"
 16158      47455454 
 16158      45524D43 
 16158      464700
 16159              	.LASF1034:
 16160 3dc6 6269746D 		.ascii	"bitmap\000"
 16160      617000
 16161              	.LASF773:
 16162 3dcd 735F705F 		.ascii	"s_p_data\000"
 16162      64617461 
 16162      00
 16163              	.LASF882:
 16164 3dd6 4544435F 		.ascii	"EDC_FN_DISP_BATCH\000"
 16164      464E5F44 
 16164      4953505F 
 16164      42415443 
 16164      4800
 16165              	.LASF509:
 16166 3de8 625F6C65 		.ascii	"b_len\000"
 16166      6E00
 16167              	.LASF652:
 16168 3dee 61706E5F 		.ascii	"apn_password\000"
 16168      70617373 
 16168      776F7264 
 16168      00
 16169              	.LASF901:
 16170 3dfb 4544435F 		.ascii	"EDC_RSP_INVALID_ACC\000"
 16170      5253505F 
 16170      494E5641 
 16170      4C49445F 
 16170      41434300 
 16171              	.LASF712:
 16172 3e0f 4943435F 		.ascii	"ICC_DATA\000"
 16172      44415441 
 16172      00
 16173              	.LASF1033:
 16174 3e18 776F7264 		.ascii	"words\000"
 16174      7300
 16175              	.LASF438:
 16176 3e1e 4F535F46 		.ascii	"OS_FN_RESET\000"
 16176      4E5F5245 
 16176      53455400 
 16177              	.LASF307:
 16178 3e2a 4F535F46 		.ascii	"OS_FN_GPRS_GET_CID\000"
 16178      4E5F4750 
 16178      52535F47 
 16178      45545F43 
 16178      494400
 16179              	.LASF521:
 16180 3e3d 41504D5F 		.ascii	"APM_CONNECTOK\000"
 16180      434F4E4E 
ARM GAS  C:\Users\AHMED~1.ELE\AppData\Local\Temp\cc0wYKcg.s 			page 366


 16180      4543544F 
 16180      4B00
 16181              	.LASF164:
 16182 3e4b 4F535F46 		.ascii	"OS_FN_AUTH\000"
 16182      4E5F4155 
 16182      544800
 16183              	.LASF591:
 16184 3e56 775F6465 		.ascii	"w_debug_status\000"
 16184      6275675F 
 16184      73746174 
 16184      757300
 16185              	.LASF380:
 16186 3e65 4F535F46 		.ascii	"OS_FN_MIF_HALT\000"
 16186      4E5F4D49 
 16186      465F4841 
 16186      4C5400
 16187              	.LASF514:
 16188 3e74 41504D5F 		.ascii	"APM_WAITKEY\000"
 16188      57414954 
 16188      4B455900 
 16189              	.LASF595:
 16190 3e80 625F6563 		.ascii	"b_ecr_ssl\000"
 16190      725F7373 
 16190      6C00
 16191              	.LASF951:
 16192 3e8a 4544435F 		.ascii	"EDC_RSP_NO_REC\000"
 16192      5253505F 
 16192      4E4F5F52 
 16192      454300
 16193              	.LASF17:
 16194 3e99 774C656E 		.ascii	"wLen\000"
 16194      00
 16195              	.LASF956:
 16196 3e9e 4544435F 		.ascii	"EDC_SE_TOTAL_WRONG\000"
 16196      53455F54 
 16196      4F54414C 
 16196      5F57524F 
 16196      4E4700
 16197              	.LASF739:
 16198 3eb1 73625F72 		.ascii	"sb_rrn\000"
 16198      726E00
 16199              	.LASF1015:
 16200 3eb8 735F7478 		.ascii	"s_tx_data\000"
 16200      5F646174 
 16200      6100
 16201              	.LASF944:
 16202 3ec2 4544435F 		.ascii	"EDC_RSP_SYS_ERROR\000"
 16202      5253505F 
 16202      5359535F 
 16202      4552524F 
 16202      5200
 16203              	.LASF437:
 16204 3ed4 4F535F46 		.ascii	"OS_FN_POWER_SLEEP\000"
 16204      4E5F504F 
 16204      5745525F 
 16204      534C4545 
 16204      5000
ARM GAS  C:\Users\AHMED~1.ELE\AppData\Local\Temp\cc0wYKcg.s 			page 367


 16205              	.LASF217:
 16206 3ee6 4F535F46 		.ascii	"OS_FN_SAM_OFF\000"
 16206      4E5F5341 
 16206      4D5F4F46 
 16206      4600
 16207              	.LASF1040:
 16208 3ef4 6669656C 		.ascii	"field\000"
 16208      6400
 16209              	.LASF875:
 16210 3efa 4544435F 		.ascii	"EDC_FN_CARD_TOTAL\000"
 16210      464E5F43 
 16210      4152445F 
 16210      544F5441 
 16210      4C00
 16211              	.LASF528:
 16212 3f0c 41504D5F 		.ascii	"APM_GETCARDTBL\000"
 16212      47455443 
 16212      41524454 
 16212      424C00
 16213              	.LASF1032:
 16214 3f1b 6D73675F 		.ascii	"msg_id\000"
 16214      696400
 16215              	.LASF1068:
 16216 3f22 62636473 		.ascii	"bcdsub\000"
 16216      756200
 16217              	.LASF400:
 16218 3f29 4F535F46 		.ascii	"OS_FN_MIF_INFO_GET\000"
 16218      4E5F4D49 
 16218      465F494E 
 16218      464F5F47 
 16218      455400
 16219              	.LASF266:
 16220 3f3c 4F535F46 		.ascii	"OS_FN_FL_ERASE_START\000"
 16220      4E5F464C 
 16220      5F455241 
 16220      53455F53 
 16220      54415254 
 16221              	.LASF1063:
 16222 3f51 7061636B 		.ascii	"pack_space\000"
 16222      5F737061 
 16222      636500
 16223              	.LASF874:
 16224 3f5c 4544435F 		.ascii	"EDC_FN_END_BATCH\000"
 16224      464E5F45 
 16224      4E445F42 
 16224      41544348 
 16224      00
 16225              	.LASF77:
 16226 3f6d 4F535F46 		.ascii	"OS_FN_COM2_READ\000"
 16226      4E5F434F 
 16226      4D325F52 
 16226      45414400 
 16227              	.LASF343:
 16228 3f7d 4F535F46 		.ascii	"OS_FN_USBHOST_RESET_DEVICE\000"
 16228      4E5F5553 
 16228      42484F53 
 16228      545F5245 
ARM GAS  C:\Users\AHMED~1.ELE\AppData\Local\Temp\cc0wYKcg.s 			page 368


 16228      5345545F 
 16229              	.LASF349:
 16230 3f98 4F535F46 		.ascii	"OS_FN_DRIVER_UNREGISTER\000"
 16230      4E5F4452 
 16230      49564552 
 16230      5F554E52 
 16230      45474953 
 16231              	.LASF209:
 16232 3fb0 4F535F46 		.ascii	"OS_FN_CONFIG_READ\000"
 16232      4E5F434F 
 16232      4E464947 
 16232      5F524541 
 16232      4400
 16233              	.LASF897:
 16234 3fc2 4544435F 		.ascii	"EDC_RSP_NOT_HONOUR\000"
 16234      5253505F 
 16234      4E4F545F 
 16234      484F4E4F 
 16234      555200
 16235              	.LASF486:
 16236 3fd5 4F535F46 		.ascii	"OS_FN_GPRS_SET_PIN_STATUS\000"
 16236      4E5F4750 
 16236      52535F53 
 16236      45545F50 
 16236      494E5F53 
 16237              	.LASF927:
 16238 3fef 4544435F 		.ascii	"EDC_RSP_CTL_DDA\000"
 16238      5253505F 
 16238      43544C5F 
 16238      44444100 
 16239              	.LASF458:
 16240 3fff 4F535F46 		.ascii	"OS_FN_FPRT_CLOSE\000"
 16240      4E5F4650 
 16240      52545F43 
 16240      4C4F5345 
 16240      00
 16241              	.LASF733:
 16242 4010 625F656E 		.ascii	"b_entry_mode\000"
 16242      7472795F 
 16242      6D6F6465 
 16242      00
 16243              	.LASF859:
 16244 401d 4544435F 		.ascii	"EDC_TU_NOT_ALLOW\000"
 16244      54555F4E 
 16244      4F545F41 
 16244      4C4C4F57 
 16244      00
 16245              	.LASF465:
 16246 402e 4F535F46 		.ascii	"OS_FN_GCM_AES_OPEN\000"
 16246      4E5F4743 
 16246      4D5F4145 
 16246      535F4F50 
 16246      454E00
 16247              	.LASF123:
 16248 4041 4F535F46 		.ascii	"OS_FN_SM3\000"
 16248      4E5F534D 
 16248      3300
ARM GAS  C:\Users\AHMED~1.ELE\AppData\Local\Temp\cc0wYKcg.s 			page 369


 16249              	.LASF405:
 16250 404b 4F535F46 		.ascii	"OS_FN_BARCODE_READ\000"
 16250      4E5F4241 
 16250      52434F44 
 16250      455F5245 
 16250      414400
 16251              	.LASF827:
 16252 405e 4544435F 		.ascii	"EDC_CN_AUTH\000"
 16252      434E5F41 
 16252      55544800 
 16253              	.LASF462:
 16254 406a 4F535F46 		.ascii	"OS_FN_ECC_KEYPAIR_GENERATE\000"
 16254      4E5F4543 
 16254      435F4B45 
 16254      59504149 
 16254      525F4745 
 16255              	.LASF414:
 16256 4085 4F535F46 		.ascii	"OS_FN_WIFI_PROFILES_WRITE\000"
 16256      4E5F5749 
 16256      46495F50 
 16256      524F4649 
 16256      4C45535F 
 16257              	.LASF1030:
 16258 409f 7072696E 		.ascii	"print_field\000"
 16258      745F6669 
 16258      656C6400 
 16259              	.LASF173:
 16260 40ab 4F535F46 		.ascii	"OS_FN_FILE_CREATE_OWNER\000"
 16260      4E5F4649 
 16260      4C455F43 
 16260      52454154 
 16260      455F4F57 
 16261              	.LASF409:
 16262 40c3 4F535F46 		.ascii	"OS_FN_WIFI_CONTROL\000"
 16262      4E5F5749 
 16262      46495F43 
 16262      4F4E5452 
 16262      4F4C00
 16263              	.LASF949:
 16264 40d6 4544435F 		.ascii	"EDC_RSP_INVALID_CARD\000"
 16264      5253505F 
 16264      494E5641 
 16264      4C49445F 
 16264      43415244 
 16265              	.LASF337:
 16266 40eb 4F535F46 		.ascii	"OS_FN_CLICC_LED_STATUS\000"
 16266      4E5F434C 
 16266      4943435F 
 16266      4C45445F 
 16266      53544154 
 16267              	.LASF866:
 16268 4102 4544435F 		.ascii	"EDC_AJ_TIPS_AMT\000"
 16268      414A5F54 
 16268      4950535F 
 16268      414D5400 
 16269              	.LASF637:
 16270 4112 73625F6F 		.ascii	"sb_options\000"
ARM GAS  C:\Users\AHMED~1.ELE\AppData\Local\Temp\cc0wYKcg.s 			page 370


 16270      7074696F 
 16270      6E7300
 16271              	.LASF1060:
 16272 411d 7061636B 		.ascii	"pack_word\000"
 16272      5F776F72 
 16272      6400
 16273              	.LASF336:
 16274 4127 4F535F46 		.ascii	"OS_FN_CLICC_LED_CLOSE\000"
 16274      4E5F434C 
 16274      4943435F 
 16274      4C45445F 
 16274      434C4F53 
 16275              	.LASF345:
 16276 413d 4F535F46 		.ascii	"OS_FN_USBHOST_RHPORT_STATUS\000"
 16276      4E5F5553 
 16276      42484F53 
 16276      545F5248 
 16276      504F5254 
 16277              	.LASF625:
 16278 4159 775F6170 		.ascii	"w_app_list_chksum\000"
 16278      705F6C69 
 16278      73745F63 
 16278      686B7375 
 16278      6D00
 16279              	.LASF1023:
 16280 416b 6269746D 		.ascii	"bitmap_ptr\000"
 16280      61705F70 
 16280      747200
 16281              	.LASF297:
 16282 4176 4F535F46 		.ascii	"OS_FN_ADC_CH_DISABLE\000"
 16282      4E5F4144 
 16282      435F4348 
 16282      5F444953 
 16282      41424C45 
 16283              	.LASF94:
 16284 418b 4F535F46 		.ascii	"OS_FN_COM_DESKEY\000"
 16284      4E5F434F 
 16284      4D5F4445 
 16284      534B4559 
 16284      00
 16285              	.LASF1027:
 16286 419c 6C656E67 		.ascii	"length\000"
 16286      746800
 16287              	.LASF38:
 16288 41a3 4F535F46 		.ascii	"OS_FN_BUZ_OPEN\000"
 16288      4E5F4255 
 16288      5A5F4F50 
 16288      454E00
 16289              	.LASF76:
 16290 41b2 4F535F46 		.ascii	"OS_FN_COM2_TXRDY\000"
 16290      4E5F434F 
 16290      4D325F54 
 16290      58524459 
 16290      00
 16291              	.LASF721:
 16292 41c3 54584E5F 		.ascii	"TXN_RECORD\000"
 16292      5245434F 
ARM GAS  C:\Users\AHMED~1.ELE\AppData\Local\Temp\cc0wYKcg.s 			page 371


 16292      524400
 16293              	.LASF594:
 16294 41ce 625F6563 		.ascii	"b_ecr_port\000"
 16294      725F706F 
 16294      727400
 16295              	.LASF151:
 16296 41d9 4F535F46 		.ascii	"OS_FN_THREAD_POP\000"
 16296      4E5F5448 
 16296      52454144 
 16296      5F504F50 
 16296      00
 16297              	.LASF845:
 16298 41ea 4544435F 		.ascii	"EDC_IN_BASE_AMT\000"
 16298      494E5F42 
 16298      4153455F 
 16298      414D5400 
 16299              	.LASF849:
 16300 41fa 4544435F 		.ascii	"EDC_IN_TOTAL_PROMPT\000"
 16300      494E5F54 
 16300      4F54414C 
 16300      5F50524F 
 16300      4D505400 
 16301              	.LASF775:
 16302 420e 745F7465 		.ascii	"t_term_tot\000"
 16302      726D5F74 
 16302      6F7400
 16303              	.LASF246:
 16304 4219 4F535F46 		.ascii	"OS_FN_MSR_STATUS\000"
 16304      4E5F4D53 
 16304      525F5354 
 16304      41545553 
 16304      00
 16305              	.LASF290:
 16306 422a 4F535F46 		.ascii	"OS_FN_MCOM_READ\000"
 16306      4E5F4D43 
 16306      4F4D5F52 
 16306      45414400 
 16307              	.LASF1058:
 16308 423a 7061636B 		.ascii	"pack_str\000"
 16308      5F737472 
 16308      00
 16309              	.LASF142:
 16310 4243 4F535F46 		.ascii	"OS_FN_PCI_DSS_REGEN_KEY\000"
 16310      4E5F5043 
 16310      495F4453 
 16310      535F5245 
 16310      47454E5F 
 16311              	.LASF816:
 16312 425b 44454641 		.ascii	"DEFAULT_TRANS\000"
 16312      554C545F 
 16312      5452414E 
 16312      5300
 16313              	.LASF761:
 16314 4269 735F6163 		.ascii	"s_acquirer_tbl\000"
 16314      71756972 
 16314      65725F74 
 16314      626C00
ARM GAS  C:\Users\AHMED~1.ELE\AppData\Local\Temp\cc0wYKcg.s 			page 372


 16315              	.LASF858:
 16316 4278 4544435F 		.ascii	"EDC_IN_CUR_ERROR\000"
 16316      494E5F43 
 16316      55525F45 
 16316      52524F52 
 16316      00
 16317              	.LASF663:
 16318 4289 625F6163 		.ascii	"b_acquirer_id\000"
 16318      71756972 
 16318      65725F69 
 16318      6400
 16319              	.LASF480:
 16320 4297 4F535F46 		.ascii	"OS_FN_IMG_SENSOR_OPEN\000"
 16320      4E5F494D 
 16320      475F5345 
 16320      4E534F52 
 16320      5F4F5045 
 16321              	.LASF707:
 16322 42ad 625F6D6F 		.ascii	"b_month\000"
 16322      6E746800 
 16323              	.LASF1073:
 16324 42b5 44697370 		.ascii	"Disp2x16Msg\000"
 16324      32783136 
 16324      4D736700 
 16325              	.LASF886:
 16326 42c1 4544435F 		.ascii	"EDC_PN_MANUALCUT\000"
 16326      504E5F4D 
 16326      414E5541 
 16326      4C435554 
 16326      00
 16327              	.LASF523:
 16328 42d2 41504D5F 		.ascii	"APM_FLUSHCOMM\000"
 16328      464C5553 
 16328      48434F4D 
 16328      4D00
 16329              	.LASF366:
 16330 42e0 4F535F46 		.ascii	"OS_FN_NETDEV_CLOSE\000"
 16330      4E5F4E45 
 16330      54444556 
 16330      5F434C4F 
 16330      534500
 16331              	.LASF764:
 16332 42f3 42535F44 		.ascii	"BS_DATE\000"
 16332      41544500 
 16333              	.LASF540:
 16334 42fb 41504D5F 		.ascii	"APM_SETPENDING\000"
 16334      53455450 
 16334      454E4449 
 16334      4E4700
 16335              	.LASF8:
 16336 430a 756E7369 		.ascii	"unsigned int\000"
 16336      676E6564 
 16336      20696E74 
 16336      00
 16337              	.LASF745:
 16338 4317 50524E5F 		.ascii	"PRN_DATA\000"
 16338      44415441 
ARM GAS  C:\Users\AHMED~1.ELE\AppData\Local\Temp\cc0wYKcg.s 			page 373


 16338      00
 16339              	.LASF877:
 16340 4320 4544435F 		.ascii	"EDC_FN_CLR_BATCH\000"
 16340      464E5F43 
 16340      4C525F42 
 16340      41544348 
 16340      00
 16341              	.LASF395:
 16342 4331 4F535F46 		.ascii	"OS_FN_MIF_DEC_TRANS\000"
 16342      4E5F4D49 
 16342      465F4445 
 16342      435F5452 
 16342      414E5300 
 16343              	.LASF208:
 16344 4345 4F535F46 		.ascii	"OS_FN_CONFIG_LENGTH\000"
 16344      4E5F434F 
 16344      4E464947 
 16344      5F4C454E 
 16344      47544800 
 16345              		.ident	"GCC: (GNU Tools for ARM Embedded Processors) 4.9.3 20141119 (release) [ARM/embedded-4_9-br
ARM GAS  C:\Users\AHMED~1.ELE\AppData\Local\Temp\cc0wYKcg.s 			page 374


DEFINED SYMBOLS
                            *ABS*:00000000 hostmsg.c
C:\Users\AHMED~1.ELE\AppData\Local\Temp\cc0wYKcg.s:19     .text.print_field.isra.0:00000000 $t
C:\Users\AHMED~1.ELE\AppData\Local\Temp\cc0wYKcg.s:23     .text.print_field.isra.0:00000000 print_field.isra.0
C:\Users\AHMED~1.ELE\AppData\Local\Temp\cc0wYKcg.s:42     .text.print_field.isra.0:00000008 $d
                            *COM*:0000012c field
C:\Users\AHMED~1.ELE\AppData\Local\Temp\cc0wYKcg.s:47     .text.PackProcCode:00000000 $t
C:\Users\AHMED~1.ELE\AppData\Local\Temp\cc0wYKcg.s:52     .text.PackProcCode:00000000 PackProcCode
C:\Users\AHMED~1.ELE\AppData\Local\Temp\cc0wYKcg.s:103    .text.PackProcCode:00000034 $d
C:\Users\AHMED~1.ELE\AppData\Local\Temp\cc0wYKcg.s:109    .text.PackHostMsg:00000000 $t
C:\Users\AHMED~1.ELE\AppData\Local\Temp\cc0wYKcg.s:114    .text.PackHostMsg:00000000 PackHostMsg
C:\Users\AHMED~1.ELE\AppData\Local\Temp\cc0wYKcg.s:605    .text.PackHostMsg:000002d0 $d
C:\Users\AHMED~1.ELE\AppData\Local\Temp\cc0wYKcg.s:630    .text.PackHostMsg:0000032c $t
C:\Users\AHMED~1.ELE\AppData\Local\Temp\cc0wYKcg.s:1095   .text.PackHostMsg:00000610 $d
C:\Users\AHMED~1.ELE\AppData\Local\Temp\cc0wYKcg.s:1120   .text.PackHostMsg:0000066c $t
C:\Users\AHMED~1.ELE\AppData\Local\Temp\cc0wYKcg.s:1382   .text.PackHostMsg:00000818 $d
C:\Users\AHMED~1.ELE\AppData\Local\Temp\cc0wYKcg.s:1397   .text.PackHostMsg:0000084c $t
C:\Users\AHMED~1.ELE\AppData\Local\Temp\cc0wYKcg.s:1650   .text.PackHostMsg:000009e8 $d
C:\Users\AHMED~1.ELE\AppData\Local\Temp\cc0wYKcg.s:1663   .text.CheckHostRsp:00000000 $t
C:\Users\AHMED~1.ELE\AppData\Local\Temp\cc0wYKcg.s:1668   .text.CheckHostRsp:00000000 CheckHostRsp
C:\Users\AHMED~1.ELE\AppData\Local\Temp\cc0wYKcg.s:1859   .text.CheckHostRsp:00000134 $d
C:\Users\AHMED~1.ELE\AppData\Local\Temp\cc0wYKcg.s:1870   .text.CheckHostRsp:00000158 $t
C:\Users\AHMED~1.ELE\AppData\Local\Temp\cc0wYKcg.s:2373   .text.CheckHostRsp:000004ac $d
C:\Users\AHMED~1.ELE\AppData\Local\Temp\cc0wYKcg.s:2386   .text.CheckHostRsp:000004d0 $t
C:\Users\AHMED~1.ELE\AppData\Local\Temp\cc0wYKcg.s:2775   .text.CheckHostRsp:0000072c $d
                     .debug_frame:00000010 $d

UNDEFINED SYMBOLS
get_mem
KTransBitmap
gGTS
ExtraMsgLen
TxBufSetup
pack_byte
get_pptr
inc_pptr
sprintf
pack_mem
memcpy
memcmp
ReadRTC
sys_func1
fndb
bin2bcd
split
split_data
dbin2bcd
pack_str
Track1Enable
pack_word
memset
Prompt4DBC
pack_space
lib_app_call
gGDS
pack_nbyte
PackTxBufLen
ARM GAS  C:\Users\AHMED~1.ELE\AppData\Local\Temp\cc0wYKcg.s 			page 375


dbgHex
GetConstMsg
Disp2x16Msg
TrainingModeON
RxBufSetup
get_byte
putchar
printf
bcd2bin
compress
get_word
bcdsub
bcdadd
ByteCopy
SetRTC
