ARM GAS  C:\Users\AHMED~1.ELE\AppData\Local\Temp\ccWApJgZ.s 			page 1


   1              		.syntax unified
   2              		.cpu cortex-a5
   3              		.fpu softvfp
   4              		.eabi_attribute 20, 1
   5              		.eabi_attribute 21, 1
   6              		.eabi_attribute 23, 3
   7              		.eabi_attribute 24, 1
   8              		.eabi_attribute 25, 1
   9              		.eabi_attribute 26, 1
  10              		.eabi_attribute 30, 4
  11              		.eabi_attribute 34, 0
  12              		.eabi_attribute 18, 4
  13              		.thumb
  14              		.file	"hostmsg.c"
  15              		.text
  16              	.Ltext0:
  17              		.cfi_sections	.debug_frame
  18              		.section	.text.PackProcCode,"ax",%progbits
  19              		.align	1
  20              		.global	PackProcCode
  21              		.thumb
  22              		.thumb_func
  23              		.type	PackProcCode, %function
  24              	PackProcCode:
  25              	.LFB4:
  26              		.file 1 "src/hostmsg.c"
   1:src/hostmsg.c **** //-----------------------------------------------------------------------------
   2:src/hostmsg.c **** //  File          : hostmsg.c
   3:src/hostmsg.c **** //  Module        :
   4:src/hostmsg.c **** //  Description   : Include routines to Pack/Unpack Host Message.
   5:src/hostmsg.c **** //  Author        : Lewis
   6:src/hostmsg.c **** //  Notes         :
   7:src/hostmsg.c **** //
   8:src/hostmsg.c **** // ============================================================================
   9:src/hostmsg.c **** // | Naming conventions                                                       |
  10:src/hostmsg.c **** // | ~~~~~~~~~~~~~~~~~~                                                       |
  11:src/hostmsg.c **** // |        Struct define : Leading T                                         |
  12:src/hostmsg.c **** // |         Struct/Array : Leading s                                         |
  13:src/hostmsg.c **** // |             Constant : Leading K                                         |
  14:src/hostmsg.c **** // |      Global Variable : Leading g  (variable use outside one C file)      |
  15:src/hostmsg.c **** // |                                                                          |
  16:src/hostmsg.c **** // |   BYTE( 8 Bits) size : Leading b                                         |
  17:src/hostmsg.c **** // |   CHAR( 8 Bits) size : Leading c                                         |
  18:src/hostmsg.c **** // |   WORD(16 Bits) size : Leading w                                         |
  19:src/hostmsg.c **** // |  DWORD(32 Bits) size : Leading d                                         |
  20:src/hostmsg.c **** // |    int(32 Bits) size : Leading i                                         |
  21:src/hostmsg.c **** // | DDWORD(64 Bits) size : Leading dd                                        |
  22:src/hostmsg.c **** // |              Pointer : Leading p                                         |
  23:src/hostmsg.c **** // |                                                                          |
  24:src/hostmsg.c **** // |    Function argument : Leading a                                         |
  25:src/hostmsg.c **** // |       Local Variable : All lower case                                    |
  26:src/hostmsg.c **** // |                                                                          |
  27:src/hostmsg.c **** // | Examples:                                                                |
  28:src/hostmsg.c **** // |                Array : Leading s, (sb = arrary of byte, etc)             |
  29:src/hostmsg.c **** // |              Pointer : Leading p, (pb = pointer of byte, etc)            |
  30:src/hostmsg.c **** // ============================================================================
  31:src/hostmsg.c **** //
ARM GAS  C:\Users\AHMED~1.ELE\AppData\Local\Temp\ccWApJgZ.s 			page 2


  32:src/hostmsg.c **** //  Date          Who         Action
  33:src/hostmsg.c **** //  ------------  ----------- -------------------------------------------------
  34:src/hostmsg.c **** //  29 Sept 2008  Lewis       Initial Version.
  35:src/hostmsg.c **** //-----------------------------------------------------------------------------
  36:src/hostmsg.c **** #include <stdio.h>
  37:src/hostmsg.c **** #include <string.h>
  38:src/hostmsg.c **** #include "corevar.h"
  39:src/hostmsg.c **** #include "chkoptn.h"
  40:src/hostmsg.c **** #include "constant.h"
  41:src/hostmsg.c **** #include "record.h"
  42:src/hostmsg.c **** #include "message.h"
  43:src/hostmsg.c **** #include "tranutil.h"
  44:src/hostmsg.c **** #include "util.h"
  45:src/hostmsg.c **** #include "sysutil.h"
  46:src/hostmsg.c **** #include "emvtrans.h"
  47:src/hostmsg.c **** #include "hostmsg.h"
  48:src/hostmsg.c **** #include "auxcom.h"
  49:src/hostmsg.c **** #include "coremain.h"
  50:src/hostmsg.c **** 
  51:src/hostmsg.c **** //*****************************************************************************
  52:src/hostmsg.c **** //  Function        : TrainiingRsp
  53:src/hostmsg.c **** //  Description     : Generate training response.
  54:src/hostmsg.c **** //  Input           : N/A
  55:src/hostmsg.c **** //  Return          : Transaction status
  56:src/hostmsg.c **** //  Note            : N/A
  57:src/hostmsg.c **** //  Globals Changed : N/A
  58:src/hostmsg.c **** //*****************************************************************************
  59:src/hostmsg.c **** static BYTE TrainingRsp(void)
  60:src/hostmsg.c **** {
  61:src/hostmsg.c ****   struct DATETIME dtg;
  62:src/hostmsg.c **** 
  63:src/hostmsg.c ****   ReadRTC(&dtg);
  64:src/hostmsg.c ****   memcpy(&RSP_DATA.s_dtg.b_year, &dtg.b_year, 6);
  65:src/hostmsg.c ****   memset(RSP_DATA.sb_auth_code, '0', sizeof(RSP_DATA.sb_auth_code));
  66:src/hostmsg.c ****   split(RSP_DATA.sb_rrn, &dtg.b_year, 6);
  67:src/hostmsg.c ****   RSP_DATA.b_response = TRANS_ACP;
  68:src/hostmsg.c ****   RSP_DATA.w_rspcode = '0'*256+'0';
  69:src/hostmsg.c ****   RSP_DATA.dd_amount = 0;
  70:src/hostmsg.c ****   memset(&RSP_DATA.text[21], ' ', 20);
  71:src/hostmsg.c ****   return TRANS_ACP;
  72:src/hostmsg.c **** }
  73:src/hostmsg.c **** //*****************************************************************************
  74:src/hostmsg.c **** //  Function        : Match
  75:src/hostmsg.c **** //  Description     : Compare current pointer to buffer.
  76:src/hostmsg.c **** //  Input           : aPtr;    // pointer to buffer needs to Match.
  77:src/hostmsg.c **** //                    aLen;    // no. of byte to Match.
  78:src/hostmsg.c **** //  Return          : N/A
  79:src/hostmsg.c **** //  Note            : N/A
  80:src/hostmsg.c **** //  Globals Changed : N/A
  81:src/hostmsg.c **** //*****************************************************************************
  82:src/hostmsg.c **** static BOOLEAN Match(void *aPtr, BYTE aLen)
  83:src/hostmsg.c **** {
  84:src/hostmsg.c ****   BOOLEAN result;
  85:src/hostmsg.c **** 
  86:src/hostmsg.c ****   result = (memcmp(aPtr, get_pptr(), aLen) == 0);
  87:src/hostmsg.c ****   inc_pptr(aLen);
  88:src/hostmsg.c ****   return(result);
ARM GAS  C:\Users\AHMED~1.ELE\AppData\Local\Temp\ccWApJgZ.s 			page 3


  89:src/hostmsg.c **** }
  90:src/hostmsg.c **** //*****************************************************************************
  91:src/hostmsg.c **** //  Function        : BcdBin8b
  92:src/hostmsg.c **** //  Description     : Convert max 6 bytes of bcd number to DDWORD.
  93:src/hostmsg.c **** //  Input           : aSrc;        // pointer src bcd number
  94:src/hostmsg.c **** //                    aLen;        // no. of byte of the bcd number to be conv.
  95:src/hostmsg.c **** //  Return          : N/A
  96:src/hostmsg.c **** //  Note            : N/A
  97:src/hostmsg.c **** //  Globals Changed : N/A
  98:src/hostmsg.c **** //*****************************************************************************
  99:src/hostmsg.c **** static DDWORD BcdBin8b(void *aSrc,BYTE aLen)
 100:src/hostmsg.c **** {
 101:src/hostmsg.c ****   BYTE buffer[12];
 102:src/hostmsg.c **** 
 103:src/hostmsg.c ****   if (aLen < 7) {
 104:src/hostmsg.c ****     split(buffer,aSrc,aLen);
 105:src/hostmsg.c ****     return decbin4b(buffer,(BYTE)(aLen*2));
 106:src/hostmsg.c ****   }
 107:src/hostmsg.c ****   return 0;
 108:src/hostmsg.c **** }
 109:src/hostmsg.c **** //*****************************************************************************
 110:src/hostmsg.c **** //  Function        : SyncHostDtg
 111:src/hostmsg.c **** //  Description     : Sync RTC with HOST date & time.
 112:src/hostmsg.c **** //  Input           : N/A
 113:src/hostmsg.c **** //  Return          : N/A
 114:src/hostmsg.c **** //  Note            : N/A
 115:src/hostmsg.c **** //  Globals Changed : N/A
 116:src/hostmsg.c **** //*****************************************************************************
 117:src/hostmsg.c **** static void SyncHostDtg(void)
 118:src/hostmsg.c **** {
 119:src/hostmsg.c ****   BYTE tmp;
 120:src/hostmsg.c ****   struct DATETIME dtg;
 121:src/hostmsg.c **** 
 122:src/hostmsg.c ****   ReadRTC(&dtg);
 123:src/hostmsg.c ****   RSP_DATA.s_dtg.b_century = dtg.b_century;
 124:src/hostmsg.c ****   RSP_DATA.s_dtg.b_year = dtg.b_year;
 125:src/hostmsg.c ****   tmp = 1;
 126:src/hostmsg.c ****   if ((RSP_DATA.s_dtg.b_month == 0x12) && (dtg.b_month == 0x01))
 127:src/hostmsg.c ****     bcdsub(&RSP_DATA.s_dtg.b_year,&tmp,1);
 128:src/hostmsg.c ****   else
 129:src/hostmsg.c ****     if ((RSP_DATA.s_dtg.b_month == 0x01) && (dtg.b_month == 0x12))
 130:src/hostmsg.c ****       bcdadd(&RSP_DATA.s_dtg.b_year,&tmp,1);
 131:src/hostmsg.c ****   ByteCopy((BYTE *)&dtg, (BYTE *)&RSP_DATA.s_dtg, sizeof(struct DATETIME));
 132:src/hostmsg.c ****   SetRTC(&dtg);
 133:src/hostmsg.c **** }
 134:src/hostmsg.c **** //*****************************************************************************
 135:src/hostmsg.c **** //  Function        : PackProcCode
 136:src/hostmsg.c **** //  Description     : Pack the processing code for input transaction type,
 137:src/hostmsg.c **** //  Input           : aTrans;      // transaction type
 138:src/hostmsg.c **** //                    aProcCode;   // 2nd byte of processing code
 139:src/hostmsg.c **** //  Return          : N/A
 140:src/hostmsg.c **** //  Note            : when aProcCode != 0xFF => use INPUT.b_acc_ind
 141:src/hostmsg.c **** //  Globals Changed : TX_DATA.sb_proc_code[];
 142:src/hostmsg.c **** //*****************************************************************************
 143:src/hostmsg.c **** void PackProcCode(BYTE aTrans, BYTE aProcCode)
 144:src/hostmsg.c **** {
  27              		.loc 1 144 0
ARM GAS  C:\Users\AHMED~1.ELE\AppData\Local\Temp\ccWApJgZ.s 			page 4


  28              		.cfi_startproc
  29              		@ args = 0, pretend = 0, frame = 0
  30              		@ frame_needed = 0, uses_anonymous_args = 0
  31              		@ link register save eliminated.
  32              	.LVL0:
 145:src/hostmsg.c ****    TX_DATA.sb_proc_code[0] = KTransBitmap[aTrans].b_proc_code;
  33              		.loc 1 145 0
  34 0000 0C4A     		ldr	r2, .L11
  35 0002 1823     		movs	r3, #24
 146:src/hostmsg.c **** 
 147:src/hostmsg.c ****   if (aTrans == ADJUST)
  36              		.loc 1 147 0
  37 0004 0B28     		cmp	r0, #11
 145:src/hostmsg.c ****    TX_DATA.sb_proc_code[0] = KTransBitmap[aTrans].b_proc_code;
  38              		.loc 1 145 0
  39 0006 03FB0023 		mla	r3, r3, r0, r2
  40 000a 9A7C     		ldrb	r2, [r3, #18]	@ zero_extendqisi2
  41 000c 0A4B     		ldr	r3, .L11+4
  42              		.loc 1 147 0
  43 000e 01D1     		bne	.L2
 148:src/hostmsg.c ****     TX_DATA.sb_proc_code[0] = 2;
  44              		.loc 1 148 0
  45 0010 0222     		movs	r2, #2
  46 0012 04E0     		b	.L9
  47              	.L2:
 149:src/hostmsg.c ****   else
 150:src/hostmsg.c ****     if ((aTrans <= AUTH_MANUAL) || (aTrans == AUTH_ICC))  // !2005-09-21
  48              		.loc 1 150 0
  49 0014 0128     		cmp	r0, #1
  50 0016 01D9     		bls	.L4
  51              		.loc 1 150 0 is_stmt 0 discriminator 1
  52 0018 1028     		cmp	r0, #16
  53 001a 00D1     		bne	.L9
  54              	.L4:
 151:src/hostmsg.c ****       TX_DATA.sb_proc_code[0] = 0x30;
  55              		.loc 1 151 0 is_stmt 1
  56 001c 3022     		movs	r2, #48
  57              	.L9:
 152:src/hostmsg.c **** 
 153:src/hostmsg.c ****   if (aProcCode == 0xFF)
  58              		.loc 1 153 0
  59 001e FF29     		cmp	r1, #255
 151:src/hostmsg.c ****       TX_DATA.sb_proc_code[0] = 0x30;
  60              		.loc 1 151 0
  61 0020 83F80025 		strb	r2, [r3, #1280]
 154:src/hostmsg.c ****     aProcCode = INPUT.b_acc_ind;
  62              		.loc 1 154 0
  63 0024 08BF     		it	eq
  64 0026 5979     		ldrbeq	r1, [r3, #5]	@ zero_extendqisi2
  65              	.LVL1:
 155:src/hostmsg.c **** 
 156:src/hostmsg.c ****   TX_DATA.sb_proc_code[1] = aProcCode;
 157:src/hostmsg.c ****   TX_DATA.sb_proc_code[2] = 0;
  66              		.loc 1 157 0
  67 0028 0022     		movs	r2, #0
 156:src/hostmsg.c ****   TX_DATA.sb_proc_code[2] = 0;
  68              		.loc 1 156 0
ARM GAS  C:\Users\AHMED~1.ELE\AppData\Local\Temp\ccWApJgZ.s 			page 5


  69 002a 83F80115 		strb	r1, [r3, #1281]
  70              		.loc 1 157 0
  71 002e 83F80225 		strb	r2, [r3, #1282]
  72 0032 7047     		bx	lr
  73              	.L12:
  74              		.align	2
  75              	.L11:
  76 0034 00000000 		.word	KTransBitmap
  77 0038 00000000 		.word	gGTS
  78              		.cfi_endproc
  79              	.LFE4:
  80              		.size	PackProcCode, .-PackProcCode
  81              		.section	.text.PackHostMsg,"ax",%progbits
  82              		.align	1
  83              		.global	PackHostMsg
  84              		.thumb
  85              		.thumb_func
  86              		.type	PackHostMsg, %function
  87              	PackHostMsg:
  88              	.LFB5:
 158:src/hostmsg.c **** }
 159:src/hostmsg.c **** /*********************************************************************/
 160:src/hostmsg.c **** /*  This procedure fills stxbuf with information required according  */
 161:src/hostmsg.c **** /*  to the BOOLEAN map of the trans.                                 */
 162:src/hostmsg.c **** /*  02. primary account number   03. processing code                 */
 163:src/hostmsg.c **** /*  04. amount, transaction      11. system trace number             */
 164:src/hostmsg.c **** /*  12. local transaction time   13. local transaction date          */
 165:src/hostmsg.c **** /*  14. card expiration date     22. entry mode                      */
 166:src/hostmsg.c **** /*  24. netword int'l id.        25. condition code                  */
 167:src/hostmsg.c **** /*  35. track 2 data             37. retrieval reference number      */
 168:src/hostmsg.c **** /*  38. authorization id.        39. response code                   */
 169:src/hostmsg.c **** /*  41. terminal id              42. card acceptor id                */
 170:src/hostmsg.c **** /*  44. additional resp data     45. track 1 data                    */
 171:src/hostmsg.c **** /*  52. PIN                                                          */
 172:src/hostmsg.c **** /*  54. additional amount        60. private - org. amount           */
 173:src/hostmsg.c **** /*  61. product code             62. private - invoice no            */
 174:src/hostmsg.c **** /*  63. settlement totals        64. MAC                             */
 175:src/hostmsg.c **** /*********************************************************************/
 176:src/hostmsg.c **** void PackHostMsg(void)
 177:src/hostmsg.c **** {
  89              		.loc 1 177 0
  90              		.cfi_startproc
  91              		@ args = 0, pretend = 0, frame = 0
  92              		@ frame_needed = 0, uses_anonymous_args = 0
  93 0000 08B5     		push	{r3, lr}
  94              		.cfi_def_cfa_offset 8
  95              		.cfi_offset 3, -8
  96              		.cfi_offset 14, -4
 178:src/hostmsg.c ****    BYTE *len_ptr, *bitmap_ptr;
 179:src/hostmsg.c ****   BYTE tx_bitmap[16];
 180:src/hostmsg.c ****   BYTE var_i, var_j;
 181:src/hostmsg.c ****   BYTE buf[128], tmp[10];  // request by dbin2bcd
 182:src/hostmsg.c ****   struct DESC_TBL prod;
 183:src/hostmsg.c **** 
 184:src/hostmsg.c ****   TxBufSetup(ExtraMsgLen());
  97              		.loc 1 184 0
  98 0002 FFF7FEFF 		bl	ExtraMsgLen
ARM GAS  C:\Users\AHMED~1.ELE\AppData\Local\Temp\ccWApJgZ.s 			page 6


  99              	.LVL2:
 100 0006 FFF7FEFF 		bl	TxBufSetup
 101              	.LVL3:
 185:src/hostmsg.c **** 
 186:src/hostmsg.c **** pack_byte(0x49);pack_byte(0x53);pack_byte(0x4F);pack_byte(0x30);pack_byte(0x34);pack_byte(0x36);pac
 102              		.loc 1 186 0
 103 000a 4920     		movs	r0, #73
 104 000c FFF7FEFF 		bl	pack_byte
 105              	.LVL4:
 106 0010 5320     		movs	r0, #83
 107 0012 FFF7FEFF 		bl	pack_byte
 108              	.LVL5:
 109 0016 4F20     		movs	r0, #79
 110 0018 FFF7FEFF 		bl	pack_byte
 111              	.LVL6:
 112 001c 3020     		movs	r0, #48
 113 001e FFF7FEFF 		bl	pack_byte
 114              	.LVL7:
 115 0022 3420     		movs	r0, #52
 116 0024 FFF7FEFF 		bl	pack_byte
 117              	.LVL8:
 118 0028 3620     		movs	r0, #54
 119 002a FFF7FEFF 		bl	pack_byte
 120              	.LVL9:
 121 002e 3520     		movs	r0, #53
 122 0030 FFF7FEFF 		bl	pack_byte
 123              	.LVL10:
 124 0034 3220     		movs	r0, #50
 125 0036 FFF7FEFF 		bl	pack_byte
 126              	.LVL11:
 127 003a 3120     		movs	r0, #49
 128 003c FFF7FEFF 		bl	pack_byte
 129              	.LVL12:
 130 0040 3120     		movs	r0, #49
 131 0042 FFF7FEFF 		bl	pack_byte
 132              	.LVL13:
 133 0046 3120     		movs	r0, #49
 134 0048 FFF7FEFF 		bl	pack_byte
 135              	.LVL14:
 136 004c 3020     		movs	r0, #48
 137 004e FFF7FEFF 		bl	pack_byte
 138              	.LVL15:
 139 0052 3520     		movs	r0, #53
 140 0054 FFF7FEFF 		bl	pack_byte
 141              	.LVL16:
 142 0058 3020     		movs	r0, #48
 143 005a FFF7FEFF 		bl	pack_byte
 144              	.LVL17:
 145 005e 3020     		movs	r0, #48
 146 0060 FFF7FEFF 		bl	pack_byte
 147              	.LVL18:
 148 0064 3020     		movs	r0, #48
 149 0066 FFF7FEFF 		bl	pack_byte
 150              	.LVL19:
 151 006a 3120     		movs	r0, #49
 152 006c FFF7FEFF 		bl	pack_byte
 153              	.LVL20:
ARM GAS  C:\Users\AHMED~1.ELE\AppData\Local\Temp\ccWApJgZ.s 			page 7


 154 0070 3220     		movs	r0, #50
 155 0072 FFF7FEFF 		bl	pack_byte
 156              	.LVL21:
 157 0076 3020     		movs	r0, #48
 158 0078 FFF7FEFF 		bl	pack_byte
 159              	.LVL22:
 160 007c 3020     		movs	r0, #48
 161 007e FFF7FEFF 		bl	pack_byte
 162              	.LVL23:
 163 0082 F220     		movs	r0, #242
 164 0084 FFF7FEFF 		bl	pack_byte
 165              	.LVL24:
 166 0088 3420     		movs	r0, #52
 167 008a FFF7FEFF 		bl	pack_byte
 168              	.LVL25:
 169 008e 8720     		movs	r0, #135
 170 0090 FFF7FEFF 		bl	pack_byte
 171              	.LVL26:
 172 0094 4120     		movs	r0, #65
 173 0096 FFF7FEFF 		bl	pack_byte
 174              	.LVL27:
 175 009a 6820     		movs	r0, #104
 176 009c FFF7FEFF 		bl	pack_byte
 177              	.LVL28:
 178 00a0 E120     		movs	r0, #225
 179 00a2 FFF7FEFF 		bl	pack_byte
 180              	.LVL29:
 181 00a6 9A20     		movs	r0, #154
 182 00a8 FFF7FEFF 		bl	pack_byte
 183              	.LVL30:
 184 00ac 0320     		movs	r0, #3
 185 00ae FFF7FEFF 		bl	pack_byte
 186              	.LVL31:
 187 00b2 0120     		movs	r0, #1
 188 00b4 FFF7FEFF 		bl	pack_byte
 189              	.LVL32:
 190 00b8 0020     		movs	r0, #0
 191 00ba FFF7FEFF 		bl	pack_byte
 192              	.LVL33:
 193 00be 0020     		movs	r0, #0
 194 00c0 FFF7FEFF 		bl	pack_byte
 195              	.LVL34:
 196 00c4 0020     		movs	r0, #0
 197 00c6 FFF7FEFF 		bl	pack_byte
 198              	.LVL35:
 199 00ca 0020     		movs	r0, #0
 200 00cc FFF7FEFF 		bl	pack_byte
 201              	.LVL36:
 202 00d0 0020     		movs	r0, #0
 203 00d2 FFF7FEFF 		bl	pack_byte
 204              	.LVL37:
 205 00d6 0020     		movs	r0, #0
 206 00d8 FFF7FEFF 		bl	pack_byte
 207              	.LVL38:
 208 00dc 0020     		movs	r0, #0
 209 00de FFF7FEFF 		bl	pack_byte
 210              	.LVL39:
ARM GAS  C:\Users\AHMED~1.ELE\AppData\Local\Temp\ccWApJgZ.s 			page 8


 211 00e2 1620     		movs	r0, #22
 212 00e4 FFF7FEFF 		bl	pack_byte
 213              	.LVL40:
 214 00e8 3420     		movs	r0, #52
 215 00ea FFF7FEFF 		bl	pack_byte
 216              	.LVL41:
 217 00ee 3220     		movs	r0, #50
 218 00f0 FFF7FEFF 		bl	pack_byte
 219              	.LVL42:
 220 00f4 3220     		movs	r0, #50
 221 00f6 FFF7FEFF 		bl	pack_byte
 222              	.LVL43:
 223 00fa 3320     		movs	r0, #51
 224 00fc FFF7FEFF 		bl	pack_byte
 225              	.LVL44:
 226 0100 3320     		movs	r0, #51
 227 0102 FFF7FEFF 		bl	pack_byte
 228              	.LVL45:
 229 0106 3020     		movs	r0, #48
 230 0108 FFF7FEFF 		bl	pack_byte
 231              	.LVL46:
 232 010c 3120     		movs	r0, #49
 233 010e FFF7FEFF 		bl	pack_byte
 234              	.LVL47:
 235 0112 3320     		movs	r0, #51
 236 0114 FFF7FEFF 		bl	pack_byte
 237              	.LVL48:
 238 0118 3620     		movs	r0, #54
 239 011a FFF7FEFF 		bl	pack_byte
 240              	.LVL49:
 241 011e 3520     		movs	r0, #53
 242 0120 FFF7FEFF 		bl	pack_byte
 243              	.LVL50:
 244 0124 3920     		movs	r0, #57
 245 0126 FFF7FEFF 		bl	pack_byte
 246              	.LVL51:
 247 012a 3820     		movs	r0, #56
 248 012c FFF7FEFF 		bl	pack_byte
 249              	.LVL52:
 250 0130 3420     		movs	r0, #52
 251 0132 FFF7FEFF 		bl	pack_byte
 252              	.LVL53:
 253 0136 3820     		movs	r0, #56
 254 0138 FFF7FEFF 		bl	pack_byte
 255              	.LVL54:
 256 013c 3120     		movs	r0, #49
 257 013e FFF7FEFF 		bl	pack_byte
 258              	.LVL55:
 259 0142 3920     		movs	r0, #57
 260 0144 FFF7FEFF 		bl	pack_byte
 261              	.LVL56:
 262 0148 3020     		movs	r0, #48
 263 014a FFF7FEFF 		bl	pack_byte
 264              	.LVL57:
 265 014e 3020     		movs	r0, #48
 266 0150 FFF7FEFF 		bl	pack_byte
 267              	.LVL58:
ARM GAS  C:\Users\AHMED~1.ELE\AppData\Local\Temp\ccWApJgZ.s 			page 9


 268 0154 3020     		movs	r0, #48
 269 0156 FFF7FEFF 		bl	pack_byte
 270              	.LVL59:
 271 015a 3020     		movs	r0, #48
 272 015c FFF7FEFF 		bl	pack_byte
 273              	.LVL60:
 274 0160 3020     		movs	r0, #48
 275 0162 FFF7FEFF 		bl	pack_byte
 276              	.LVL61:
 277 0166 3020     		movs	r0, #48
 278 0168 FFF7FEFF 		bl	pack_byte
 279              	.LVL62:
 280 016c 3020     		movs	r0, #48
 281 016e FFF7FEFF 		bl	pack_byte
 282              	.LVL63:
 283 0172 3020     		movs	r0, #48
 284 0174 FFF7FEFF 		bl	pack_byte
 285              	.LVL64:
 286 0178 3020     		movs	r0, #48
 287 017a FFF7FEFF 		bl	pack_byte
 288              	.LVL65:
 289 017e 3020     		movs	r0, #48
 290 0180 FFF7FEFF 		bl	pack_byte
 291              	.LVL66:
 292 0184 3020     		movs	r0, #48
 293 0186 FFF7FEFF 		bl	pack_byte
 294              	.LVL67:
 295 018a 3020     		movs	r0, #48
 296 018c FFF7FEFF 		bl	pack_byte
 297              	.LVL68:
 298 0190 3020     		movs	r0, #48
 299 0192 FFF7FEFF 		bl	pack_byte
 300              	.LVL69:
 301 0196 3020     		movs	r0, #48
 302 0198 FFF7FEFF 		bl	pack_byte
 303              	.LVL70:
 304 019c 3120     		movs	r0, #49
 305 019e FFF7FEFF 		bl	pack_byte
 306              	.LVL71:
 307 01a2 3420     		movs	r0, #52
 308 01a4 FFF7FEFF 		bl	pack_byte
 309              	.LVL72:
 310 01a8 3020     		movs	r0, #48
 311 01aa FFF7FEFF 		bl	pack_byte
 312              	.LVL73:
 313 01ae 3020     		movs	r0, #48
 314 01b0 FFF7FEFF 		bl	pack_byte
 315              	.LVL74:
 316 01b4 3120     		movs	r0, #49
 317 01b6 FFF7FEFF 		bl	pack_byte
 318              	.LVL75:
 319 01ba 3620     		movs	r0, #54
 320 01bc FFF7FEFF 		bl	pack_byte
 321              	.LVL76:
 322 01c0 3020     		movs	r0, #48
 323 01c2 FFF7FEFF 		bl	pack_byte
 324              	.LVL77:
ARM GAS  C:\Users\AHMED~1.ELE\AppData\Local\Temp\ccWApJgZ.s 			page 10


 325 01c6 3520     		movs	r0, #53
 326 01c8 FFF7FEFF 		bl	pack_byte
 327              	.LVL78:
 328 01cc 3220     		movs	r0, #50
 329 01ce FFF7FEFF 		bl	pack_byte
 330              	.LVL79:
 331 01d2 3320     		movs	r0, #51
 332 01d4 FFF7FEFF 		bl	pack_byte
 333              	.LVL80:
 334 01d8 3120     		movs	r0, #49
 335 01da FFF7FEFF 		bl	pack_byte
 336              	.LVL81:
 337 01de 3120     		movs	r0, #49
 338 01e0 FFF7FEFF 		bl	pack_byte
 339              	.LVL82:
 340 01e4 3220     		movs	r0, #50
 341 01e6 FFF7FEFF 		bl	pack_byte
 342              	.LVL83:
 343 01ea 3720     		movs	r0, #55
 344 01ec FFF7FEFF 		bl	pack_byte
 345              	.LVL84:
 346 01f0 3020     		movs	r0, #48
 347 01f2 FFF7FEFF 		bl	pack_byte
 348              	.LVL85:
 349 01f6 3020     		movs	r0, #48
 350 01f8 FFF7FEFF 		bl	pack_byte
 351              	.LVL86:
 352 01fc 3020     		movs	r0, #48
 353 01fe FFF7FEFF 		bl	pack_byte
 354              	.LVL87:
 355 0202 3120     		movs	r0, #49
 356 0204 FFF7FEFF 		bl	pack_byte
 357              	.LVL88:
 358 0208 3120     		movs	r0, #49
 359 020a FFF7FEFF 		bl	pack_byte
 360              	.LVL89:
 361 020e 3820     		movs	r0, #56
 362 0210 FFF7FEFF 		bl	pack_byte
 363              	.LVL90:
 364 0214 3120     		movs	r0, #49
 365 0216 FFF7FEFF 		bl	pack_byte
 366              	.LVL91:
 367 021a 3620     		movs	r0, #54
 368 021c FFF7FEFF 		bl	pack_byte
 369              	.LVL92:
 370 0220 3020     		movs	r0, #48
 371 0222 FFF7FEFF 		bl	pack_byte
 372              	.LVL93:
 373 0226 3520     		movs	r0, #53
 374 0228 FFF7FEFF 		bl	pack_byte
 375              	.LVL94:
 376 022c 3220     		movs	r0, #50
 377 022e FFF7FEFF 		bl	pack_byte
 378              	.LVL95:
 379 0232 3320     		movs	r0, #51
 380 0234 FFF7FEFF 		bl	pack_byte
 381              	.LVL96:
ARM GAS  C:\Users\AHMED~1.ELE\AppData\Local\Temp\ccWApJgZ.s 			page 11


 382 0238 3120     		movs	r0, #49
 383 023a FFF7FEFF 		bl	pack_byte
 384              	.LVL97:
 385 023e 3120     		movs	r0, #49
 386 0240 FFF7FEFF 		bl	pack_byte
 387              	.LVL98:
 388 0244 3220     		movs	r0, #50
 389 0246 FFF7FEFF 		bl	pack_byte
 390              	.LVL99:
 391 024a 3720     		movs	r0, #55
 392 024c FFF7FEFF 		bl	pack_byte
 393              	.LVL100:
 394 0250 3520     		movs	r0, #53
 395 0252 FFF7FEFF 		bl	pack_byte
 396              	.LVL101:
 397 0256 3820     		movs	r0, #56
 398 0258 FFF7FEFF 		bl	pack_byte
 399              	.LVL102:
 400 025c 3220     		movs	r0, #50
 401 025e FFF7FEFF 		bl	pack_byte
 402              	.LVL103:
 403 0262 3120     		movs	r0, #49
 404 0264 FFF7FEFF 		bl	pack_byte
 405              	.LVL104:
 406 0268 3020     		movs	r0, #48
 407 026a FFF7FEFF 		bl	pack_byte
 408              	.LVL105:
 409 026e 3320     		movs	r0, #51
 410 0270 FFF7FEFF 		bl	pack_byte
 411              	.LVL106:
 412 0274 3020     		movs	r0, #48
 413 0276 FFF7FEFF 		bl	pack_byte
 414              	.LVL107:
 415 027a 3520     		movs	r0, #53
 416 027c FFF7FEFF 		bl	pack_byte
 417              	.LVL108:
 418 0280 3220     		movs	r0, #50
 419 0282 FFF7FEFF 		bl	pack_byte
 420              	.LVL109:
 421 0286 3320     		movs	r0, #51
 422 0288 FFF7FEFF 		bl	pack_byte
 423              	.LVL110:
 424 028c 3820     		movs	r0, #56
 425 028e FFF7FEFF 		bl	pack_byte
 426              	.LVL111:
 427 0292 3120     		movs	r0, #49
 428 0294 FFF7FEFF 		bl	pack_byte
 429              	.LVL112:
 430 0298 3020     		movs	r0, #48
 431 029a FFF7FEFF 		bl	pack_byte
 432              	.LVL113:
 433 029e 3120     		movs	r0, #49
 434 02a0 FFF7FEFF 		bl	pack_byte
 435              	.LVL114:
 436 02a4 3020     		movs	r0, #48
 437 02a6 FFF7FEFF 		bl	pack_byte
 438              	.LVL115:
ARM GAS  C:\Users\AHMED~1.ELE\AppData\Local\Temp\ccWApJgZ.s 			page 12


 439 02aa 3120     		movs	r0, #49
 440 02ac FFF7FEFF 		bl	pack_byte
 441              	.LVL116:
 442 02b0 3520     		movs	r0, #53
 443 02b2 FFF7FEFF 		bl	pack_byte
 444              	.LVL117:
 445 02b6 3120     		movs	r0, #49
 446 02b8 FFF7FEFF 		bl	pack_byte
 447              	.LVL118:
 448 02bc 3020     		movs	r0, #48
 449 02be FFF7FEFF 		bl	pack_byte
 450              	.LVL119:
 451 02c2 3120     		movs	r0, #49
 452 02c4 FFF7FEFF 		bl	pack_byte
 453              	.LVL120:
 454 02c8 3420     		movs	r0, #52
 455 02ca FFF7FEFF 		bl	pack_byte
 456              	.LVL121:
 457 02ce 6320     		movs	r0, #99
 458 02d0 FFF7FEFF 		bl	pack_byte
 459              	.LVL122:
 460 02d4 3020     		movs	r0, #48
 461 02d6 FFF7FEFF 		bl	pack_byte
 462              	.LVL123:
 463 02da 3020     		movs	r0, #48
 464 02dc FFF7FEFF 		bl	pack_byte
 465              	.LVL124:
 466 02e0 3020     		movs	r0, #48
 467 02e2 FFF7FEFF 		bl	pack_byte
 468              	.LVL125:
 469 02e6 3220     		movs	r0, #50
 470 02e8 FFF7FEFF 		bl	pack_byte
 471              	.LVL126:
 472 02ec 3020     		movs	r0, #48
 473 02ee FFF7FEFF 		bl	pack_byte
 474              	.LVL127:
 475 02f2 3020     		movs	r0, #48
 476 02f4 FFF7FEFF 		bl	pack_byte
 477              	.LVL128:
 478 02f8 3420     		movs	r0, #52
 479 02fa FFF7FEFF 		bl	pack_byte
 480              	.LVL129:
 481 02fe 3820     		movs	r0, #56
 482 0300 FFF7FEFF 		bl	pack_byte
 483              	.LVL130:
 484 0304 3120     		movs	r0, #49
 485 0306 FFF7FEFF 		bl	pack_byte
 486              	.LVL131:
 487 030a 3420     		movs	r0, #52
 488 030c FFF7FEFF 		bl	pack_byte
 489              	.LVL132:
 490 0310 0620     		movs	r0, #6
 491 0312 FFF7FEFF 		bl	pack_byte
 492              	.LVL133:
 493 0316 3020     		movs	r0, #48
 494 0318 FFF7FEFF 		bl	pack_byte
 495              	.LVL134:
ARM GAS  C:\Users\AHMED~1.ELE\AppData\Local\Temp\ccWApJgZ.s 			page 13


 496 031c 3120     		movs	r0, #49
 497 031e FFF7FEFF 		bl	pack_byte
 498              	.LVL135:
 499 0322 3120     		movs	r0, #49
 500 0324 FFF7FEFF 		bl	pack_byte
 501              	.LVL136:
 502 0328 3220     		movs	r0, #50
 503 032a FFF7FEFF 		bl	pack_byte
 504              	.LVL137:
 505 032e 3020     		movs	r0, #48
 506 0330 FFF7FEFF 		bl	pack_byte
 507              	.LVL138:
 508 0334 3020     		movs	r0, #48
 509 0336 FFF7FEFF 		bl	pack_byte
 510              	.LVL139:
 511 033a 0820     		movs	r0, #8
 512 033c FFF7FEFF 		bl	pack_byte
 513              	.LVL140:
 514 0340 3020     		movs	r0, #48
 515 0342 FFF7FEFF 		bl	pack_byte
 516              	.LVL141:
 517 0346 3020     		movs	r0, #48
 518 0348 FFF7FEFF 		bl	pack_byte
 519              	.LVL142:
 520 034c 3020     		movs	r0, #48
 521 034e FFF7FEFF 		bl	pack_byte
 522              	.LVL143:
 523 0352 3020     		movs	r0, #48
 524 0354 FFF7FEFF 		bl	pack_byte
 525              	.LVL144:
 526 0358 3020     		movs	r0, #48
 527 035a FFF7FEFF 		bl	pack_byte
 528              	.LVL145:
 529 035e 3020     		movs	r0, #48
 530 0360 FFF7FEFF 		bl	pack_byte
 531              	.LVL146:
 532 0364 3020     		movs	r0, #48
 533 0366 FFF7FEFF 		bl	pack_byte
 534              	.LVL147:
 535 036a 3020     		movs	r0, #48
 536 036c FFF7FEFF 		bl	pack_byte
 537              	.LVL148:
 538 0370 3220     		movs	r0, #50
 539 0372 FFF7FEFF 		bl	pack_byte
 540              	.LVL149:
 541 0376 3420     		movs	r0, #52
 542 0378 FFF7FEFF 		bl	pack_byte
 543              	.LVL150:
 544 037c 3220     		movs	r0, #50
 545 037e FFF7FEFF 		bl	pack_byte
 546              	.LVL151:
 547 0382 3220     		movs	r0, #50
 548 0384 FFF7FEFF 		bl	pack_byte
 549              	.LVL152:
 550 0388 3320     		movs	r0, #51
 551 038a FFF7FEFF 		bl	pack_byte
 552              	.LVL153:
ARM GAS  C:\Users\AHMED~1.ELE\AppData\Local\Temp\ccWApJgZ.s 			page 14


 553 038e 3320     		movs	r0, #51
 554 0390 FFF7FEFF 		bl	pack_byte
 555              	.LVL154:
 556 0394 3020     		movs	r0, #48
 557 0396 FFF7FEFF 		bl	pack_byte
 558              	.LVL155:
 559 039a 3120     		movs	r0, #49
 560 039c FFF7FEFF 		bl	pack_byte
 561              	.LVL156:
 562 03a0 3320     		movs	r0, #51
 563 03a2 FFF7FEFF 		bl	pack_byte
 564              	.LVL157:
 565 03a6 3620     		movs	r0, #54
 566 03a8 FFF7FEFF 		bl	pack_byte
 567              	.LVL158:
 568 03ac 3520     		movs	r0, #53
 569 03ae FFF7FEFF 		bl	pack_byte
 570              	.LVL159:
 571 03b2 3920     		movs	r0, #57
 572 03b4 FFF7FEFF 		bl	pack_byte
 573              	.LVL160:
 574 03b8 3820     		movs	r0, #56
 575 03ba FFF7FEFF 		bl	pack_byte
 576              	.LVL161:
 577 03be 3420     		movs	r0, #52
 578 03c0 FFF7FEFF 		bl	pack_byte
 579              	.LVL162:
 580 03c4 3820     		movs	r0, #56
 581 03c6 FFF7FEFF 		bl	pack_byte
 582              	.LVL163:
 583 03ca 3120     		movs	r0, #49
 584 03cc FFF7FEFF 		bl	pack_byte
 585              	.LVL164:
 586 03d0 3920     		movs	r0, #57
 587 03d2 FFF7FEFF 		bl	pack_byte
 588              	.LVL165:
 589 03d6 3D20     		movs	r0, #61
 590 03d8 FFF7FEFF 		bl	pack_byte
 591              	.LVL166:
 592 03dc 3220     		movs	r0, #50
 593 03de FFF7FEFF 		bl	pack_byte
 594              	.LVL167:
 595 03e2 3120     		movs	r0, #49
 596 03e4 FFF7FEFF 		bl	pack_byte
 597              	.LVL168:
 598 03e8 3020     		movs	r0, #48
 599 03ea FFF7FEFF 		bl	pack_byte
 600              	.LVL169:
 601 03ee 3320     		movs	r0, #51
 602 03f0 FFF7FEFF 		bl	pack_byte
 603              	.LVL170:
 604 03f4 3220     		movs	r0, #50
 605 03f6 FFF7FEFF 		bl	pack_byte
 606              	.LVL171:
 607 03fa 3220     		movs	r0, #50
 608 03fc FFF7FEFF 		bl	pack_byte
 609              	.LVL172:
ARM GAS  C:\Users\AHMED~1.ELE\AppData\Local\Temp\ccWApJgZ.s 			page 15


 610 0400 3620     		movs	r0, #54
 611 0402 FFF7FEFF 		bl	pack_byte
 612              	.LVL173:
 613 0406 3120     		movs	r0, #49
 614 0408 FFF7FEFF 		bl	pack_byte
 615              	.LVL174:
 616 040c 3020     		movs	r0, #48
 617 040e FFF7FEFF 		bl	pack_byte
 618              	.LVL175:
 619 0412 3020     		movs	r0, #48
 620 0414 FFF7FEFF 		bl	pack_byte
 621              	.LVL176:
 622 0418 3020     		movs	r0, #48
 623 041a FFF7FEFF 		bl	pack_byte
 624              	.LVL177:
 625 041e 3020     		movs	r0, #48
 626 0420 FFF7FEFF 		bl	pack_byte
 627              	.LVL178:
 628 0424 3920     		movs	r0, #57
 629 0426 FFF7FEFF 		bl	pack_byte
 630              	.LVL179:
 631 042a 3220     		movs	r0, #50
 632 042c FFF7FEFF 		bl	pack_byte
 633              	.LVL180:
 634 0430 3420     		movs	r0, #52
 635 0432 FFF7FEFF 		bl	pack_byte
 636              	.LVL181:
 637 0436 3020     		movs	r0, #48
 638 0438 FFF7FEFF 		bl	pack_byte
 639              	.LVL182:
 640 043c 3020     		movs	r0, #48
 641 043e FFF7FEFF 		bl	pack_byte
 642              	.LVL183:
 643 0442 3020     		movs	r0, #48
 644 0444 FFF7FEFF 		bl	pack_byte
 645              	.LVL184:
 646 0448 3120     		movs	r0, #49
 647 044a FFF7FEFF 		bl	pack_byte
 648              	.LVL185:
 649 044e 3120     		movs	r0, #49
 650 0450 FFF7FEFF 		bl	pack_byte
 651              	.LVL186:
 652 0454 3820     		movs	r0, #56
 653 0456 FFF7FEFF 		bl	pack_byte
 654              	.LVL187:
 655 045a 3020     		movs	r0, #48
 656 045c FFF7FEFF 		bl	pack_byte
 657              	.LVL188:
 658 0460 3020     		movs	r0, #48
 659 0462 FFF7FEFF 		bl	pack_byte
 660              	.LVL189:
 661 0466 3020     		movs	r0, #48
 662 0468 FFF7FEFF 		bl	pack_byte
 663              	.LVL190:
 664 046c 3020     		movs	r0, #48
 665 046e FFF7FEFF 		bl	pack_byte
 666              	.LVL191:
ARM GAS  C:\Users\AHMED~1.ELE\AppData\Local\Temp\ccWApJgZ.s 			page 16


 667 0472 3020     		movs	r0, #48
 668 0474 FFF7FEFF 		bl	pack_byte
 669              	.LVL192:
 670 0478 3020     		movs	r0, #48
 671 047a FFF7FEFF 		bl	pack_byte
 672              	.LVL193:
 673 047e 3220     		movs	r0, #50
 674 0480 FFF7FEFF 		bl	pack_byte
 675              	.LVL194:
 676 0484 3820     		movs	r0, #56
 677 0486 FFF7FEFF 		bl	pack_byte
 678              	.LVL195:
 679 048a 3120     		movs	r0, #49
 680 048c FFF7FEFF 		bl	pack_byte
 681              	.LVL196:
 682 0490 3720     		movs	r0, #55
 683 0492 FFF7FEFF 		bl	pack_byte
 684              	.LVL197:
 685 0496 3420     		movs	r0, #52
 686 0498 FFF7FEFF 		bl	pack_byte
 687              	.LVL198:
 688 049c 3920     		movs	r0, #57
 689 049e FFF7FEFF 		bl	pack_byte
 690              	.LVL199:
 691 04a2 3720     		movs	r0, #55
 692 04a4 FFF7FEFF 		bl	pack_byte
 693              	.LVL200:
 694 04a8 3920     		movs	r0, #57
 695 04aa FFF7FEFF 		bl	pack_byte
 696              	.LVL201:
 697 04ae 3120     		movs	r0, #49
 698 04b0 FFF7FEFF 		bl	pack_byte
 699              	.LVL202:
 700 04b4 3220     		movs	r0, #50
 701 04b6 FFF7FEFF 		bl	pack_byte
 702              	.LVL203:
 703 04ba 3720     		movs	r0, #55
 704 04bc FFF7FEFF 		bl	pack_byte
 705              	.LVL204:
 706 04c0 3020     		movs	r0, #48
 707 04c2 FFF7FEFF 		bl	pack_byte
 708              	.LVL205:
 709 04c6 3720     		movs	r0, #55
 710 04c8 FFF7FEFF 		bl	pack_byte
 711              	.LVL206:
 712 04cc 3220     		movs	r0, #50
 713 04ce FFF7FEFF 		bl	pack_byte
 714              	.LVL207:
 715 04d2 3820     		movs	r0, #56
 716 04d4 FFF7FEFF 		bl	pack_byte
 717              	.LVL208:
 718 04d8 3020     		movs	r0, #48
 719 04da FFF7FEFF 		bl	pack_byte
 720              	.LVL209:
 721 04de 3020     		movs	r0, #48
 722 04e0 FFF7FEFF 		bl	pack_byte
 723              	.LVL210:
ARM GAS  C:\Users\AHMED~1.ELE\AppData\Local\Temp\ccWApJgZ.s 			page 17


 724 04e4 3720     		movs	r0, #55
 725 04e6 FFF7FEFF 		bl	pack_byte
 726              	.LVL211:
 727 04ea 2020     		movs	r0, #32
 728 04ec FFF7FEFF 		bl	pack_byte
 729              	.LVL212:
 730 04f0 2020     		movs	r0, #32
 731 04f2 FFF7FEFF 		bl	pack_byte
 732              	.LVL213:
 733 04f6 2020     		movs	r0, #32
 734 04f8 FFF7FEFF 		bl	pack_byte
 735              	.LVL214:
 736 04fc 2020     		movs	r0, #32
 737 04fe FFF7FEFF 		bl	pack_byte
 738              	.LVL215:
 739 0502 2020     		movs	r0, #32
 740 0504 FFF7FEFF 		bl	pack_byte
 741              	.LVL216:
 742 0508 1120     		movs	r0, #17
 743 050a FFF7FEFF 		bl	pack_byte
 744              	.LVL217:
 745 050e 3120     		movs	r0, #49
 746 0510 FFF7FEFF 		bl	pack_byte
 747              	.LVL218:
 748 0514 3220     		movs	r0, #50
 749 0516 FFF7FEFF 		bl	pack_byte
 750              	.LVL219:
 751 051a 3320     		movs	r0, #51
 752 051c FFF7FEFF 		bl	pack_byte
 753              	.LVL220:
 754 0520 3420     		movs	r0, #52
 755 0522 FFF7FEFF 		bl	pack_byte
 756              	.LVL221:
 757 0526 3520     		movs	r0, #53
 758 0528 FFF7FEFF 		bl	pack_byte
 759              	.LVL222:
 760 052c 3620     		movs	r0, #54
 761 052e FFF7FEFF 		bl	pack_byte
 762              	.LVL223:
 763 0532 3720     		movs	r0, #55
 764 0534 FFF7FEFF 		bl	pack_byte
 765              	.LVL224:
 766 0538 3820     		movs	r0, #56
 767 053a FFF7FEFF 		bl	pack_byte
 768              	.LVL225:
 769 053e 4520     		movs	r0, #69
 770 0540 FFF7FEFF 		bl	pack_byte
 771              	.LVL226:
 772 0544 4720     		movs	r0, #71
 773 0546 FFF7FEFF 		bl	pack_byte
 774              	.LVL227:
 775 054a 5920     		movs	r0, #89
 776 054c FFF7FEFF 		bl	pack_byte
 777              	.LVL228:
 778 0550 0020     		movs	r0, #0
 779 0552 FFF7FEFF 		bl	pack_byte
 780              	.LVL229:
ARM GAS  C:\Users\AHMED~1.ELE\AppData\Local\Temp\ccWApJgZ.s 			page 18


 781 0556 3820     		movs	r0, #56
 782 0558 FFF7FEFF 		bl	pack_byte
 783              	.LVL230:
 784 055c 5020     		movs	r0, #80
 785 055e FFF7FEFF 		bl	pack_byte
 786              	.LVL231:
 787 0562 3120     		movs	r0, #49
 788 0564 FFF7FEFF 		bl	pack_byte
 789              	.LVL232:
 790 0568 3020     		movs	r0, #48
 791 056a FFF7FEFF 		bl	pack_byte
 792              	.LVL233:
 793 056e 3020     		movs	r0, #48
 794 0570 FFF7FEFF 		bl	pack_byte
 795              	.LVL234:
 796 0574 3320     		movs	r0, #51
 797 0576 FFF7FEFF 		bl	pack_byte
 798              	.LVL235:
 799 057a 3220     		movs	r0, #50
 800 057c FFF7FEFF 		bl	pack_byte
 801              	.LVL236:
 802 0580 4120     		movs	r0, #65
 803 0582 FFF7FEFF 		bl	pack_byte
 804              	.LVL237:
 805 0586 3520     		movs	r0, #53
 806 0588 FFF7FEFF 		bl	pack_byte
 807              	.LVL238:
 808 058c 3520     		movs	r0, #53
 809 058e FFF7FEFF 		bl	pack_byte
 810              	.LVL239:
 811 0592 3420     		movs	r0, #52
 812 0594 FFF7FEFF 		bl	pack_byte
 813              	.LVL240:
 814 0598 4120     		movs	r0, #65
 815 059a FFF7FEFF 		bl	pack_byte
 816              	.LVL241:
 817 059e 3920     		movs	r0, #57
 818 05a0 FFF7FEFF 		bl	pack_byte
 819              	.LVL242:
 820 05a4 3620     		movs	r0, #54
 821 05a6 FFF7FEFF 		bl	pack_byte
 822              	.LVL243:
 823 05aa 3420     		movs	r0, #52
 824 05ac FFF7FEFF 		bl	pack_byte
 825              	.LVL244:
 826 05b0 3520     		movs	r0, #53
 827 05b2 FFF7FEFF 		bl	pack_byte
 828              	.LVL245:
 829 05b6 3920     		movs	r0, #57
 830 05b8 FFF7FEFF 		bl	pack_byte
 831              	.LVL246:
 832 05bc 4520     		movs	r0, #69
 833 05be FFF7FEFF 		bl	pack_byte
 834              	.LVL247:
 835 05c2 3320     		movs	r0, #51
 836 05c4 FFF7FEFF 		bl	pack_byte
 837              	.LVL248:
ARM GAS  C:\Users\AHMED~1.ELE\AppData\Local\Temp\ccWApJgZ.s 			page 19


 838 05c8 3620     		movs	r0, #54
 839 05ca FFF7FEFF 		bl	pack_byte
 840              	.LVL249:
 841 05ce 3820     		movs	r0, #56
 842 05d0 FFF7FEFF 		bl	pack_byte
 843              	.LVL250:
 844 05d4 4220     		movs	r0, #66
 845 05d6 FFF7FEFF 		bl	pack_byte
 846              	.LVL251:
 847 05da 4620     		movs	r0, #70
 848 05dc FFF7FEFF 		bl	pack_byte
 849              	.LVL252:
 850 05e0 3620     		movs	r0, #54
 851 05e2 FFF7FEFF 		bl	pack_byte
 852              	.LVL253:
 853 05e6 3020     		movs	r0, #48
 854 05e8 FFF7FEFF 		bl	pack_byte
 855              	.LVL254:
 856 05ec 4220     		movs	r0, #66
 857 05ee FFF7FEFF 		bl	pack_byte
 858              	.LVL255:
 859 05f2 3920     		movs	r0, #57
 860 05f4 FFF7FEFF 		bl	pack_byte
 861              	.LVL256:
 862 05f8 3220     		movs	r0, #50
 863 05fa FFF7FEFF 		bl	pack_byte
 864              	.LVL257:
 865 05fe 3720     		movs	r0, #55
 866 0600 FFF7FEFF 		bl	pack_byte
 867              	.LVL258:
 868 0604 4520     		movs	r0, #69
 869 0606 FFF7FEFF 		bl	pack_byte
 870              	.LVL259:
 871 060a 3920     		movs	r0, #57
 872 060c FFF7FEFF 		bl	pack_byte
 873              	.LVL260:
 874 0610 4620     		movs	r0, #70
 875 0612 FFF7FEFF 		bl	pack_byte
 876              	.LVL261:
 877 0616 3420     		movs	r0, #52
 878 0618 FFF7FEFF 		bl	pack_byte
 879              	.LVL262:
 880 061c 4120     		movs	r0, #65
 881 061e FFF7FEFF 		bl	pack_byte
 882              	.LVL263:
 883 0622 4420     		movs	r0, #68
 884 0624 FFF7FEFF 		bl	pack_byte
 885              	.LVL264:
 886 0628 3120     		movs	r0, #49
 887 062a FFF7FEFF 		bl	pack_byte
 888              	.LVL265:
 889 062e 3420     		movs	r0, #52
 890 0630 FFF7FEFF 		bl	pack_byte
 891              	.LVL266:
 892 0634 4520     		movs	r0, #69
 893 0636 FFF7FEFF 		bl	pack_byte
 894              	.LVL267:
ARM GAS  C:\Users\AHMED~1.ELE\AppData\Local\Temp\ccWApJgZ.s 			page 20


 895 063a 3920     		movs	r0, #57
 896 063c FFF7FEFF 		bl	pack_byte
 897              	.LVL268:
 898 0640 3820     		movs	r0, #56
 899 0642 FFF7FEFF 		bl	pack_byte
 900              	.LVL269:
 901 0646 3120     		movs	r0, #49
 902 0648 FFF7FEFF 		bl	pack_byte
 903              	.LVL270:
 904 064c 3820     		movs	r0, #56
 905 064e FFF7FEFF 		bl	pack_byte
 906              	.LVL271:
 907 0652 2D20     		movs	r0, #45
 908 0654 FFF7FEFF 		bl	pack_byte
 909              	.LVL272:
 910 0658 6B20     		movs	r0, #107
 911 065a FFF7FEFF 		bl	pack_byte
 912              	.LVL273:
 913 065e A920     		movs	r0, #169
 914 0660 FFF7FEFF 		bl	pack_byte
 915              	.LVL274:
 916 0664 3C20     		movs	r0, #60
 917 0666 FFF7FEFF 		bl	pack_byte
 918              	.LVL275:
 919 066a E920     		movs	r0, #233
 920 066c FFF7FEFF 		bl	pack_byte
 921              	.LVL276:
 922 0670 CF20     		movs	r0, #207
 923 0672 FFF7FEFF 		bl	pack_byte
 924              	.LVL277:
 925 0676 1820     		movs	r0, #24
 926 0678 FFF7FEFF 		bl	pack_byte
 927              	.LVL278:
 928 067c 4520     		movs	r0, #69
 929 067e FFF7FEFF 		bl	pack_byte
 930              	.LVL279:
 931 0682 0920     		movs	r0, #9
 932 0684 FFF7FEFF 		bl	pack_byte
 933              	.LVL280:
 934 0688 3020     		movs	r0, #48
 935 068a FFF7FEFF 		bl	pack_byte
 936              	.LVL281:
 937 068e 3120     		movs	r0, #49
 938 0690 FFF7FEFF 		bl	pack_byte
 939              	.LVL282:
 940 0694 3020     		movs	r0, #48
 941 0696 FFF7FEFF 		bl	pack_byte
 942              	.LVL283:
 943 069a 3120     		movs	r0, #49
 944 069c FFF7FEFF 		bl	pack_byte
 945              	.LVL284:
 946 06a0 3020     		movs	r0, #48
 947 06a2 FFF7FEFF 		bl	pack_byte
 948              	.LVL285:
 949 06a6 3020     		movs	r0, #48
 950 06a8 FFF7FEFF 		bl	pack_byte
 951              	.LVL286:
ARM GAS  C:\Users\AHMED~1.ELE\AppData\Local\Temp\ccWApJgZ.s 			page 21


 952 06ac 3020     		movs	r0, #48
 953 06ae FFF7FEFF 		bl	pack_byte
 954              	.LVL287:
 955 06b2 3020     		movs	r0, #48
 956 06b4 FFF7FEFF 		bl	pack_byte
 957              	.LVL288:
 958 06b8 3020     		movs	r0, #48
 959 06ba FFF7FEFF 		bl	pack_byte
 960              	.LVL289:
 961 06be 0120     		movs	r0, #1
 962 06c0 FFF7FEFF 		bl	pack_byte
 963              	.LVL290:
 964 06c4 4020     		movs	r0, #64
 965 06c6 FFF7FEFF 		bl	pack_byte
 966              	.LVL291:
 967 06ca 5F20     		movs	r0, #95
 968 06cc FFF7FEFF 		bl	pack_byte
 969              	.LVL292:
 970 06d0 2A20     		movs	r0, #42
 971 06d2 FFF7FEFF 		bl	pack_byte
 972              	.LVL293:
 973 06d6 0220     		movs	r0, #2
 974 06d8 FFF7FEFF 		bl	pack_byte
 975              	.LVL294:
 976 06dc 0820     		movs	r0, #8
 977 06de FFF7FEFF 		bl	pack_byte
 978              	.LVL295:
 979 06e2 1820     		movs	r0, #24
 980 06e4 FFF7FEFF 		bl	pack_byte
 981              	.LVL296:
 982 06e8 8220     		movs	r0, #130
 983 06ea FFF7FEFF 		bl	pack_byte
 984              	.LVL297:
 985 06ee 0220     		movs	r0, #2
 986 06f0 FFF7FEFF 		bl	pack_byte
 987              	.LVL298:
 988 06f4 3C20     		movs	r0, #60
 989 06f6 FFF7FEFF 		bl	pack_byte
 990              	.LVL299:
 991 06fa 0020     		movs	r0, #0
 992 06fc FFF7FEFF 		bl	pack_byte
 993              	.LVL300:
 994 0700 8420     		movs	r0, #132
 995 0702 FFF7FEFF 		bl	pack_byte
 996              	.LVL301:
 997 0706 0720     		movs	r0, #7
 998 0708 FFF7FEFF 		bl	pack_byte
 999              	.LVL302:
 1000 070c A020     		movs	r0, #160
 1001 070e FFF7FEFF 		bl	pack_byte
 1002              	.LVL303:
 1003 0712 0020     		movs	r0, #0
 1004 0714 FFF7FEFF 		bl	pack_byte
 1005              	.LVL304:
 1006 0718 0020     		movs	r0, #0
 1007 071a FFF7FEFF 		bl	pack_byte
 1008              	.LVL305:
ARM GAS  C:\Users\AHMED~1.ELE\AppData\Local\Temp\ccWApJgZ.s 			page 22


 1009 071e 0020     		movs	r0, #0
 1010 0720 FFF7FEFF 		bl	pack_byte
 1011              	.LVL306:
 1012 0724 0320     		movs	r0, #3
 1013 0726 FFF7FEFF 		bl	pack_byte
 1014              	.LVL307:
 1015 072a 1020     		movs	r0, #16
 1016 072c FFF7FEFF 		bl	pack_byte
 1017              	.LVL308:
 1018 0730 1020     		movs	r0, #16
 1019 0732 FFF7FEFF 		bl	pack_byte
 1020              	.LVL309:
 1021 0736 9520     		movs	r0, #149
 1022 0738 FFF7FEFF 		bl	pack_byte
 1023              	.LVL310:
 1024 073c 0520     		movs	r0, #5
 1025 073e FFF7FEFF 		bl	pack_byte
 1026              	.LVL311:
 1027 0742 0820     		movs	r0, #8
 1028 0744 FFF7FEFF 		bl	pack_byte
 1029              	.LVL312:
 1030 0748 A020     		movs	r0, #160
 1031 074a FFF7FEFF 		bl	pack_byte
 1032              	.LVL313:
 1033 074e 2420     		movs	r0, #36
 1034 0750 FFF7FEFF 		bl	pack_byte
 1035              	.LVL314:
 1036 0754 8020     		movs	r0, #128
 1037 0756 FFF7FEFF 		bl	pack_byte
 1038              	.LVL315:
 1039 075a 0020     		movs	r0, #0
 1040 075c FFF7FEFF 		bl	pack_byte
 1041              	.LVL316:
 1042 0760 9A20     		movs	r0, #154
 1043 0762 FFF7FEFF 		bl	pack_byte
 1044              	.LVL317:
 1045 0766 0320     		movs	r0, #3
 1046 0768 FFF7FEFF 		bl	pack_byte
 1047              	.LVL318:
 1048 076c 1620     		movs	r0, #22
 1049 076e FFF7FEFF 		bl	pack_byte
 1050              	.LVL319:
 1051 0772 0520     		movs	r0, #5
 1052 0774 FFF7FEFF 		bl	pack_byte
 1053              	.LVL320:
 1054 0778 2320     		movs	r0, #35
 1055 077a FFF7FEFF 		bl	pack_byte
 1056              	.LVL321:
 1057 077e 9C20     		movs	r0, #156
 1058 0780 FFF7FEFF 		bl	pack_byte
 1059              	.LVL322:
 1060 0784 0120     		movs	r0, #1
 1061 0786 FFF7FEFF 		bl	pack_byte
 1062              	.LVL323:
 1063 078a 0020     		movs	r0, #0
 1064 078c FFF7FEFF 		bl	pack_byte
 1065              	.LVL324:
ARM GAS  C:\Users\AHMED~1.ELE\AppData\Local\Temp\ccWApJgZ.s 			page 23


 1066 0790 9F20     		movs	r0, #159
 1067 0792 FFF7FEFF 		bl	pack_byte
 1068              	.LVL325:
 1069 0796 0220     		movs	r0, #2
 1070 0798 FFF7FEFF 		bl	pack_byte
 1071              	.LVL326:
 1072 079c 0620     		movs	r0, #6
 1073 079e FFF7FEFF 		bl	pack_byte
 1074              	.LVL327:
 1075 07a2 0020     		movs	r0, #0
 1076 07a4 FFF7FEFF 		bl	pack_byte
 1077              	.LVL328:
 1078 07a8 0020     		movs	r0, #0
 1079 07aa FFF7FEFF 		bl	pack_byte
 1080              	.LVL329:
 1081 07ae 0020     		movs	r0, #0
 1082 07b0 FFF7FEFF 		bl	pack_byte
 1083              	.LVL330:
 1084 07b4 0020     		movs	r0, #0
 1085 07b6 FFF7FEFF 		bl	pack_byte
 1086              	.LVL331:
 1087 07ba 1420     		movs	r0, #20
 1088 07bc FFF7FEFF 		bl	pack_byte
 1089              	.LVL332:
 1090 07c0 0020     		movs	r0, #0
 1091 07c2 FFF7FEFF 		bl	pack_byte
 1092              	.LVL333:
 1093 07c6 9F20     		movs	r0, #159
 1094 07c8 FFF7FEFF 		bl	pack_byte
 1095              	.LVL334:
 1096 07cc 0320     		movs	r0, #3
 1097 07ce FFF7FEFF 		bl	pack_byte
 1098              	.LVL335:
 1099 07d2 0620     		movs	r0, #6
 1100 07d4 FFF7FEFF 		bl	pack_byte
 1101              	.LVL336:
 1102 07d8 0020     		movs	r0, #0
 1103 07da FFF7FEFF 		bl	pack_byte
 1104              	.LVL337:
 1105 07de 0020     		movs	r0, #0
 1106 07e0 FFF7FEFF 		bl	pack_byte
 1107              	.LVL338:
 1108 07e4 0020     		movs	r0, #0
 1109 07e6 FFF7FEFF 		bl	pack_byte
 1110              	.LVL339:
 1111 07ea 0020     		movs	r0, #0
 1112 07ec FFF7FEFF 		bl	pack_byte
 1113              	.LVL340:
 1114 07f0 0020     		movs	r0, #0
 1115 07f2 FFF7FEFF 		bl	pack_byte
 1116              	.LVL341:
 1117 07f6 0020     		movs	r0, #0
 1118 07f8 FFF7FEFF 		bl	pack_byte
 1119              	.LVL342:
 1120 07fc 9F20     		movs	r0, #159
 1121 07fe FFF7FEFF 		bl	pack_byte
 1122              	.LVL343:
ARM GAS  C:\Users\AHMED~1.ELE\AppData\Local\Temp\ccWApJgZ.s 			page 24


 1123 0802 0920     		movs	r0, #9
 1124 0804 FFF7FEFF 		bl	pack_byte
 1125              	.LVL344:
 1126 0808 0220     		movs	r0, #2
 1127 080a FFF7FEFF 		bl	pack_byte
 1128              	.LVL345:
 1129 080e 0020     		movs	r0, #0
 1130 0810 FFF7FEFF 		bl	pack_byte
 1131              	.LVL346:
 1132 0814 8C20     		movs	r0, #140
 1133 0816 FFF7FEFF 		bl	pack_byte
 1134              	.LVL347:
 1135 081a 9F20     		movs	r0, #159
 1136 081c FFF7FEFF 		bl	pack_byte
 1137              	.LVL348:
 1138 0820 1020     		movs	r0, #16
 1139 0822 FFF7FEFF 		bl	pack_byte
 1140              	.LVL349:
 1141 0826 0720     		movs	r0, #7
 1142 0828 FFF7FEFF 		bl	pack_byte
 1143              	.LVL350:
 1144 082c 0620     		movs	r0, #6
 1145 082e FFF7FEFF 		bl	pack_byte
 1146              	.LVL351:
 1147 0832 0120     		movs	r0, #1
 1148 0834 FFF7FEFF 		bl	pack_byte
 1149              	.LVL352:
 1150 0838 0A20     		movs	r0, #10
 1151 083a FFF7FEFF 		bl	pack_byte
 1152              	.LVL353:
 1153 083e 0320     		movs	r0, #3
 1154 0840 FFF7FEFF 		bl	pack_byte
 1155              	.LVL354:
 1156 0844 A020     		movs	r0, #160
 1157 0846 FFF7FEFF 		bl	pack_byte
 1158              	.LVL355:
 1159 084a E820     		movs	r0, #232
 1160 084c FFF7FEFF 		bl	pack_byte
 1161              	.LVL356:
 1162 0850 0020     		movs	r0, #0
 1163 0852 FFF7FEFF 		bl	pack_byte
 1164              	.LVL357:
 1165 0856 9F20     		movs	r0, #159
 1166 0858 FFF7FEFF 		bl	pack_byte
 1167              	.LVL358:
 1168 085c 1A20     		movs	r0, #26
 1169 085e FFF7FEFF 		bl	pack_byte
 1170              	.LVL359:
 1171 0862 0220     		movs	r0, #2
 1172 0864 FFF7FEFF 		bl	pack_byte
 1173              	.LVL360:
 1174 0868 0820     		movs	r0, #8
 1175 086a FFF7FEFF 		bl	pack_byte
 1176              	.LVL361:
 1177 086e 1820     		movs	r0, #24
 1178 0870 FFF7FEFF 		bl	pack_byte
 1179              	.LVL362:
ARM GAS  C:\Users\AHMED~1.ELE\AppData\Local\Temp\ccWApJgZ.s 			page 25


 1180 0874 9F20     		movs	r0, #159
 1181 0876 FFF7FEFF 		bl	pack_byte
 1182              	.LVL363:
 1183 087a 1E20     		movs	r0, #30
 1184 087c FFF7FEFF 		bl	pack_byte
 1185              	.LVL364:
 1186 0880 0820     		movs	r0, #8
 1187 0882 FFF7FEFF 		bl	pack_byte
 1188              	.LVL365:
 1189 0886 3020     		movs	r0, #48
 1190 0888 FFF7FEFF 		bl	pack_byte
 1191              	.LVL366:
 1192 088c 3020     		movs	r0, #48
 1193 088e FFF7FEFF 		bl	pack_byte
 1194              	.LVL367:
 1195 0892 3020     		movs	r0, #48
 1196 0894 FFF7FEFF 		bl	pack_byte
 1197              	.LVL368:
 1198 0898 3020     		movs	r0, #48
 1199 089a FFF7FEFF 		bl	pack_byte
 1200              	.LVL369:
 1201 089e 3020     		movs	r0, #48
 1202 08a0 FFF7FEFF 		bl	pack_byte
 1203              	.LVL370:
 1204 08a4 3020     		movs	r0, #48
 1205 08a6 FFF7FEFF 		bl	pack_byte
 1206              	.LVL371:
 1207 08aa 3020     		movs	r0, #48
 1208 08ac FFF7FEFF 		bl	pack_byte
 1209              	.LVL372:
 1210 08b0 3020     		movs	r0, #48
 1211 08b2 FFF7FEFF 		bl	pack_byte
 1212              	.LVL373:
 1213 08b6 9F20     		movs	r0, #159
 1214 08b8 FFF7FEFF 		bl	pack_byte
 1215              	.LVL374:
 1216 08bc 2620     		movs	r0, #38
 1217 08be FFF7FEFF 		bl	pack_byte
 1218              	.LVL375:
 1219 08c2 0820     		movs	r0, #8
 1220 08c4 FFF7FEFF 		bl	pack_byte
 1221              	.LVL376:
 1222 08c8 9B20     		movs	r0, #155
 1223 08ca FFF7FEFF 		bl	pack_byte
 1224              	.LVL377:
 1225 08ce 1720     		movs	r0, #23
 1226 08d0 FFF7FEFF 		bl	pack_byte
 1227              	.LVL378:
 1228 08d4 7120     		movs	r0, #113
 1229 08d6 FFF7FEFF 		bl	pack_byte
 1230              	.LVL379:
 1231 08da FB20     		movs	r0, #251
 1232 08dc FFF7FEFF 		bl	pack_byte
 1233              	.LVL380:
 1234 08e0 4120     		movs	r0, #65
 1235 08e2 FFF7FEFF 		bl	pack_byte
 1236              	.LVL381:
ARM GAS  C:\Users\AHMED~1.ELE\AppData\Local\Temp\ccWApJgZ.s 			page 26


 1237 08e6 D520     		movs	r0, #213
 1238 08e8 FFF7FEFF 		bl	pack_byte
 1239              	.LVL382:
 1240 08ec D720     		movs	r0, #215
 1241 08ee FFF7FEFF 		bl	pack_byte
 1242              	.LVL383:
 1243 08f2 A520     		movs	r0, #165
 1244 08f4 FFF7FEFF 		bl	pack_byte
 1245              	.LVL384:
 1246 08f8 9F20     		movs	r0, #159
 1247 08fa FFF7FEFF 		bl	pack_byte
 1248              	.LVL385:
 1249 08fe 2720     		movs	r0, #39
 1250 0900 FFF7FEFF 		bl	pack_byte
 1251              	.LVL386:
 1252 0904 0120     		movs	r0, #1
 1253 0906 FFF7FEFF 		bl	pack_byte
 1254              	.LVL387:
 1255 090a 8020     		movs	r0, #128
 1256 090c FFF7FEFF 		bl	pack_byte
 1257              	.LVL388:
 1258 0910 9F20     		movs	r0, #159
 1259 0912 FFF7FEFF 		bl	pack_byte
 1260              	.LVL389:
 1261 0916 3320     		movs	r0, #51
 1262 0918 FFF7FEFF 		bl	pack_byte
 1263              	.LVL390:
 1264 091c 0320     		movs	r0, #3
 1265 091e FFF7FEFF 		bl	pack_byte
 1266              	.LVL391:
 1267 0922 E020     		movs	r0, #224
 1268 0924 FFF7FEFF 		bl	pack_byte
 1269              	.LVL392:
 1270 0928 F820     		movs	r0, #248
 1271 092a FFF7FEFF 		bl	pack_byte
 1272              	.LVL393:
 1273 092e C820     		movs	r0, #200
 1274 0930 FFF7FEFF 		bl	pack_byte
 1275              	.LVL394:
 1276 0934 9F20     		movs	r0, #159
 1277 0936 FFF7FEFF 		bl	pack_byte
 1278              	.LVL395:
 1279 093a 3420     		movs	r0, #52
 1280 093c FFF7FEFF 		bl	pack_byte
 1281              	.LVL396:
 1282 0940 0320     		movs	r0, #3
 1283 0942 FFF7FEFF 		bl	pack_byte
 1284              	.LVL397:
 1285 0946 4220     		movs	r0, #66
 1286 0948 FFF7FEFF 		bl	pack_byte
 1287              	.LVL398:
 1288 094c 0320     		movs	r0, #3
 1289 094e FFF7FEFF 		bl	pack_byte
 1290              	.LVL399:
 1291 0952 0020     		movs	r0, #0
 1292 0954 FFF7FEFF 		bl	pack_byte
 1293              	.LVL400:
ARM GAS  C:\Users\AHMED~1.ELE\AppData\Local\Temp\ccWApJgZ.s 			page 27


 1294 0958 9F20     		movs	r0, #159
 1295 095a FFF7FEFF 		bl	pack_byte
 1296              	.LVL401:
 1297 095e 3520     		movs	r0, #53
 1298 0960 FFF7FEFF 		bl	pack_byte
 1299              	.LVL402:
 1300 0964 0120     		movs	r0, #1
 1301 0966 FFF7FEFF 		bl	pack_byte
 1302              	.LVL403:
 1303 096a 2220     		movs	r0, #34
 1304 096c FFF7FEFF 		bl	pack_byte
 1305              	.LVL404:
 1306 0970 9F20     		movs	r0, #159
 1307 0972 FFF7FEFF 		bl	pack_byte
 1308              	.LVL405:
 1309 0976 3620     		movs	r0, #54
 1310 0978 FFF7FEFF 		bl	pack_byte
 1311              	.LVL406:
 1312 097c 0220     		movs	r0, #2
 1313 097e FFF7FEFF 		bl	pack_byte
 1314              	.LVL407:
 1315 0982 0020     		movs	r0, #0
 1316 0984 FFF7FEFF 		bl	pack_byte
 1317              	.LVL408:
 1318 0988 4520     		movs	r0, #69
 1319 098a FFF7FEFF 		bl	pack_byte
 1320              	.LVL409:
 1321 098e 9F20     		movs	r0, #159
 1322 0990 FFF7FEFF 		bl	pack_byte
 1323              	.LVL410:
 1324 0994 3720     		movs	r0, #55
 1325 0996 FFF7FEFF 		bl	pack_byte
 1326              	.LVL411:
 1327 099a 0420     		movs	r0, #4
 1328 099c FFF7FEFF 		bl	pack_byte
 1329              	.LVL412:
 1330 09a0 9A20     		movs	r0, #154
 1331 09a2 FFF7FEFF 		bl	pack_byte
 1332              	.LVL413:
 1333 09a6 6620     		movs	r0, #102
 1334 09a8 FFF7FEFF 		bl	pack_byte
 1335              	.LVL414:
 1336 09ac 1B20     		movs	r0, #27
 1337 09ae FFF7FEFF 		bl	pack_byte
 1338              	.LVL415:
 1339 09b2 9D20     		movs	r0, #157
 1340 09b4 FFF7FEFF 		bl	pack_byte
 1341              	.LVL416:
 1342 09b8 9F20     		movs	r0, #159
 1343 09ba FFF7FEFF 		bl	pack_byte
 1344              	.LVL417:
 1345 09be 4120     		movs	r0, #65
 1346 09c0 FFF7FEFF 		bl	pack_byte
 1347              	.LVL418:
 1348 09c4 0420     		movs	r0, #4
 1349 09c6 FFF7FEFF 		bl	pack_byte
 1350              	.LVL419:
ARM GAS  C:\Users\AHMED~1.ELE\AppData\Local\Temp\ccWApJgZ.s 			page 28


 1351 09ca 0020     		movs	r0, #0
 1352 09cc FFF7FEFF 		bl	pack_byte
 1353              	.LVL420:
 1354 09d0 0020     		movs	r0, #0
 1355 09d2 FFF7FEFF 		bl	pack_byte
 1356              	.LVL421:
 1357 09d6 0020     		movs	r0, #0
 1358 09d8 FFF7FEFF 		bl	pack_byte
 1359              	.LVL422:
 1360 09dc 0120     		movs	r0, #1
 1361 09de FFF7FEFF 		bl	pack_byte
 1362              	.LVL423:
 1363 09e2 9F20     		movs	r0, #159
 1364 09e4 FFF7FEFF 		bl	pack_byte
 1365              	.LVL424:
 1366 09e8 5320     		movs	r0, #83
 1367 09ea FFF7FEFF 		bl	pack_byte
 1368              	.LVL425:
 1369 09ee 0120     		movs	r0, #1
 1370 09f0 FFF7FEFF 		bl	pack_byte
 1371              	.LVL426:
 1372 09f4 5220     		movs	r0, #82
 1373 09f6 FFF7FEFF 		bl	pack_byte
 1374              	.LVL427:
 1375 09fa 5F20     		movs	r0, #95
 1376 09fc FFF7FEFF 		bl	pack_byte
 1377              	.LVL428:
 1378 0a00 3420     		movs	r0, #52
 1379 0a02 FFF7FEFF 		bl	pack_byte
 1380              	.LVL429:
 1381 0a06 0120     		movs	r0, #1
 1382 0a08 FFF7FEFF 		bl	pack_byte
 1383              	.LVL430:
 1384 0a0c 0020     		movs	r0, #0
 1385 0a0e FFF7FEFF 		bl	pack_byte
 1386              	.LVL431:
 1387 0a12 0020     		movs	r0, #0
 1388 0a14 FFF7FEFF 		bl	pack_byte
 1389              	.LVL432:
 1390 0a18 2520     		movs	r0, #37
 1391 0a1a FFF7FEFF 		bl	pack_byte
 1392              	.LVL433:
 1393 0a1e 3020     		movs	r0, #48
 1394 0a20 FFF7FEFF 		bl	pack_byte
 1395              	.LVL434:
 1396 0a24 3020     		movs	r0, #48
 1397 0a26 FFF7FEFF 		bl	pack_byte
 1398              	.LVL435:
 1399 0a2a 3020     		movs	r0, #48
 1400 0a2c FFF7FEFF 		bl	pack_byte
 1401              	.LVL436:
 1402 0a30 3020     		movs	r0, #48
 1403 0a32 FFF7FEFF 		bl	pack_byte
 1404              	.LVL437:
 1405 0a36 3020     		movs	r0, #48
 1406 0a38 FFF7FEFF 		bl	pack_byte
 1407              	.LVL438:
ARM GAS  C:\Users\AHMED~1.ELE\AppData\Local\Temp\ccWApJgZ.s 			page 29


 1408 0a3c 3020     		movs	r0, #48
 1409 0a3e FFF7FEFF 		bl	pack_byte
 1410              	.LVL439:
 1411 0a42 3020     		movs	r0, #48
 1412 0a44 FFF7FEFF 		bl	pack_byte
 1413              	.LVL440:
 1414 0a48 3020     		movs	r0, #48
 1415 0a4a FFF7FEFF 		bl	pack_byte
 1416              	.LVL441:
 1417 0a4e 3020     		movs	r0, #48
 1418 0a50 FFF7FEFF 		bl	pack_byte
 1419              	.LVL442:
 1420 0a54 3020     		movs	r0, #48
 1421 0a56 FFF7FEFF 		bl	pack_byte
 1422              	.LVL443:
 1423 0a5a 3020     		movs	r0, #48
 1424 0a5c FFF7FEFF 		bl	pack_byte
 1425              	.LVL444:
 1426 0a60 3020     		movs	r0, #48
 1427 0a62 FFF7FEFF 		bl	pack_byte
 1428              	.LVL445:
 1429 0a66 3020     		movs	r0, #48
 1430 0a68 FFF7FEFF 		bl	pack_byte
 1431              	.LVL446:
 1432 0a6c 3020     		movs	r0, #48
 1433 0a6e FFF7FEFF 		bl	pack_byte
 1434              	.LVL447:
 1435 0a72 3020     		movs	r0, #48
 1436 0a74 FFF7FEFF 		bl	pack_byte
 1437              	.LVL448:
 1438 0a78 3020     		movs	r0, #48
 1439 0a7a FFF7FEFF 		bl	pack_byte
 1440              	.LVL449:
 1441 0a7e 3020     		movs	r0, #48
 1442 0a80 FFF7FEFF 		bl	pack_byte
 1443              	.LVL450:
 1444 0a84 3020     		movs	r0, #48
 1445 0a86 FFF7FEFF 		bl	pack_byte
 1446              	.LVL451:
 1447 0a8a 3020     		movs	r0, #48
 1448 0a8c FFF7FEFF 		bl	pack_byte
 1449              	.LVL452:
 1450 0a90 3020     		movs	r0, #48
 1451 0a92 FFF7FEFF 		bl	pack_byte
 1452              	.LVL453:
 1453 0a96 3020     		movs	r0, #48
 1454 0a98 FFF7FEFF 		bl	pack_byte
 1455              	.LVL454:
 1456 0a9c 3020     		movs	r0, #48
 1457 0a9e FFF7FEFF 		bl	pack_byte
 1458              	.LVL455:
 1459 0aa2 3020     		movs	r0, #48
 1460 0aa4 FFF7FEFF 		bl	pack_byte
 1461              	.LVL456:
 1462 0aa8 3020     		movs	r0, #48
 1463 0aaa FFF7FEFF 		bl	pack_byte
 1464              	.LVL457:
ARM GAS  C:\Users\AHMED~1.ELE\AppData\Local\Temp\ccWApJgZ.s 			page 30


 1465 0aae 3020     		movs	r0, #48
 1466 0ab0 FFF7FEFF 		bl	pack_byte
 1467              	.LVL458:
 1468 0ab4 0020     		movs	r0, #0
 1469 0ab6 FFF7FEFF 		bl	pack_byte
 1470              	.LVL459:
 1471 0aba 0020     		movs	r0, #0
 1472 0abc FFF7FEFF 		bl	pack_byte
 1473              	.LVL460:
 1474 0ac0 0020     		movs	r0, #0
 1475 0ac2 FFF7FEFF 		bl	pack_byte
 1476              	.LVL461:
 1477 0ac6 0020     		movs	r0, #0
 1478 0ac8 FFF7FEFF 		bl	pack_byte
 1479              	.LVL462:
 1480 0acc 0020     		movs	r0, #0
 1481 0ace FFF7FEFF 		bl	pack_byte
 1482              	.LVL463:
 1483 0ad2 0020     		movs	r0, #0
 1484 0ad4 FFF7FEFF 		bl	pack_byte
 1485              	.LVL464:
 1486 0ad8 0020     		movs	r0, #0
 1487 0ada FFF7FEFF 		bl	pack_byte
 1488              	.LVL465:
 1489 0ade 0020     		movs	r0, #0
 1490 0ae0 FFF7FEFF 		bl	pack_byte
 1491              	.LVL466:
 1492 0ae4 0020     		movs	r0, #0
 1493 0ae6 FFF7FEFF 		bl	pack_byte
 1494              	.LVL467:
 1495 0aea 0020     		movs	r0, #0
 1496 0aec FFF7FEFF 		bl	pack_byte
 1497              	.LVL468:
 187:src/hostmsg.c **** 	  
 188:src/hostmsg.c ****  //  pack_mem("ISO0433211105000", 16);
 189:src/hostmsg.c ****  //  
 190:src/hostmsg.c ****  // /* PowerCard header */
 191:src/hostmsg.c ****  //// pack_mem("ISO", 3);
 192:src/hostmsg.c ****  // len_ptr = get_pptr();     // 4-byte length
 193:src/hostmsg.c ****  // inc_pptr(16);
 194:src/hostmsg.c ****  //// inc_pptr(4);
 195:src/hostmsg.c ****  //// pack_byte('2');           // POS
 196:src/hostmsg.c ****  //// SprintfMW(buf, "%02X%02X0", SOFT_VERSION, SOFT_SUBVERSION);   // SW Version
 197:src/hostmsg.c ****  //// pack_mem(buf, 5);
 198:src/hostmsg.c ****  //// pack_mem("000", 3);       // single message
 199:src/hostmsg.c ****  // 
 200:src/hostmsg.c ****  // /* msg type id */
 201:src/hostmsg.c ****  // SprintfMW(buf, "%04X", KTransBitmap[TX_DATA.b_trans].w_txmsg_id);
 202:src/hostmsg.c ****  // pack_mem(buf, 4);
 203:src/hostmsg.c ****  // 
 204:src/hostmsg.c ****  // /* bitmap */
 205:src/hostmsg.c ****  // memcpy(tx_bitmap, KTransBitmap[TX_DATA.b_trans].sb_txbitmap, 16);
 206:src/hostmsg.c ****  // bitmap_ptr = get_pptr();
 207:src/hostmsg.c ****  // if (tx_bitmap[0] & 0x80)
 208:src/hostmsg.c ****  //   inc_pptr(16);
 209:src/hostmsg.c ****  // else
 210:src/hostmsg.c ****  //   inc_pptr(8);
ARM GAS  C:\Users\AHMED~1.ELE\AppData\Local\Temp\ccWApJgZ.s 			page 31


 211:src/hostmsg.c **** 
 212:src/hostmsg.c ****  // // Send PAN and expire date if TRK2 not available of ICC trans.
 213:src/hostmsg.c ****  // if ((TX_DATA.b_trans >= SALE_ICC) && (TX_DATA.b_trans <= AUTH_ICC)) {
 214:src/hostmsg.c ****  //   if (INPUT.s_trk2buf.b_len == 0) {
 215:src/hostmsg.c ****  //     tx_bitmap[0] |= 0x40;
 216:src/hostmsg.c ****  //     tx_bitmap[1] |= 0x04;
 217:src/hostmsg.c ****  //     tx_bitmap[4] &= ~0x20;
 218:src/hostmsg.c ****  //   }
 219:src/hostmsg.c ****  // }
 220:src/hostmsg.c **** 
 221:src/hostmsg.c ****  // if (memcmp(&TX_DATA.s_dtg.b_year, "\x00\x00\x00\x00\x00\x00", 6) == 0)
 222:src/hostmsg.c ****  //   ReadRTC(&TX_DATA.s_dtg);
 223:src/hostmsg.c **** 
 224:src/hostmsg.c ****  // /* 02. primary account number */
 225:src/hostmsg.c ****  // if (tx_bitmap[0] & 0x40) {
 226:src/hostmsg.c ****  //   var_i = (BYTE)fndb(TX_DATA.sb_pan, 0xff, 10);
 227:src/hostmsg.c ****  //   if (var_i == 0xff)
 228:src/hostmsg.c ****  //     var_i = 10;
 229:src/hostmsg.c ****  //   var_j = var_i * 2;
 230:src/hostmsg.c ****  //   if ((TX_DATA.sb_pan[var_i-1] & 0x0f) == 0x0f) {
 231:src/hostmsg.c ****  //     var_j -= 1;
 232:src/hostmsg.c ****  //     //if ((STIS_ACQ_TBL(0).sb_nii[0]*256+STIS_ACQ_TBL(0).sb_nii[1]) == 0x016)
 233:src/hostmsg.c ****  //     //  TX_DATA.sb_pan[var_i - 1] &= 0xf0;
 234:src/hostmsg.c ****  //   }
 235:src/hostmsg.c ****  //   pack_byte((BYTE)bin2bcd(var_j));
 236:src/hostmsg.c ****  //   split(buf, TX_DATA.sb_pan, var_i);
 237:src/hostmsg.c ****  //   pack_mem(buf, var_j);                     // PAN in ascii format
 238:src/hostmsg.c ****  // }
 239:src/hostmsg.c **** 
 240:src/hostmsg.c ****  // /* 03. processing code */
 241:src/hostmsg.c ****  // if (tx_bitmap[0] & 0x20) {
 242:src/hostmsg.c ****  //   split_data(TX_DATA.sb_proc_code, 3);
 243:src/hostmsg.c ****  // }
 244:src/hostmsg.c **** 
 245:src/hostmsg.c ****  // /* 04. amount, transaction */
 246:src/hostmsg.c ****  // if (tx_bitmap[0] & 0x10) {
 247:src/hostmsg.c ****  //   if (TX_DATA.b_trans != VOID)
 248:src/hostmsg.c ****  //     dbin2bcd(tmp,TX_DATA.dd_amount);
 249:src/hostmsg.c ****  //   else
 250:src/hostmsg.c ****  //     memset(&tmp[4], 0, 6);
 251:src/hostmsg.c ****  //   split_data(&tmp[4], 6);
 252:src/hostmsg.c ****  // }
 253:src/hostmsg.c **** 
 254:src/hostmsg.c ****  // /* 07. transmission date & time */
 255:src/hostmsg.c ****  // if (tx_bitmap[1] & 0x10) {
 256:src/hostmsg.c ****  //   split_data(&TX_DATA.s_dtg.b_year, 5);
 257:src/hostmsg.c ****  // }
 258:src/hostmsg.c **** 
 259:src/hostmsg.c ****  // /* 11. systems trace audit number */
 260:src/hostmsg.c ****  // if (tx_bitmap[1] & 0x20) {
 261:src/hostmsg.c ****  //   split_data(TX_DATA.sb_trace_no, 3);
 262:src/hostmsg.c ****  // }
 263:src/hostmsg.c **** 
 264:src/hostmsg.c ****  // /* 12. local transaction date & time */
 265:src/hostmsg.c ****  // if (tx_bitmap[1] & 0x10) {
 266:src/hostmsg.c ****  //   split_data(&TX_DATA.s_dtg.b_year, 6);
 267:src/hostmsg.c ****  // }
ARM GAS  C:\Users\AHMED~1.ELE\AppData\Local\Temp\ccWApJgZ.s 			page 32


 268:src/hostmsg.c **** 
 269:src/hostmsg.c ****  // /* 14. expiry date */
 270:src/hostmsg.c ****  // if (tx_bitmap[1] & 0x04) {
 271:src/hostmsg.c ****  //   split_data(TX_DATA.sb_exp_date, 2);
 272:src/hostmsg.c ****  // }
 273:src/hostmsg.c **** 
 274:src/hostmsg.c ****  // /* 17. capture date (MMDD) */
 275:src/hostmsg.c ****  // if (tx_bitmap[2] & 0x80) {
 276:src/hostmsg.c ****  //   split_data(&TX_DATA.s_dtg.b_month, 2);
 277:src/hostmsg.c ****  // }
 278:src/hostmsg.c **** 
 279:src/hostmsg.c ****  // /* 22. Entry mode */
 280:src/hostmsg.c ****  // if (tx_bitmap[2] & 0x04) {
 281:src/hostmsg.c ****  //   pack_byte('8');       // manual / swipe / EMV
 282:src/hostmsg.c ****  //   pack_byte('1');       // PIN authentication
 283:src/hostmsg.c ****  //   pack_byte('0');       // no card capture
 284:src/hostmsg.c ****  //   pack_byte('1');       // attended
 285:src/hostmsg.c ****  //   pack_byte('0');       // cardholder present
 286:src/hostmsg.c ****  //   pack_byte('1');       // card present
 287:src/hostmsg.c ****  //   switch (TX_DATA.b_entry_mode) {
 288:src/hostmsg.c ****  //     case MANUAL:
 289:src/hostmsg.c ****  //     case MANUAL_4DBC:
 290:src/hostmsg.c ****  //       pack_byte('1');
 291:src/hostmsg.c ****  //       pack_byte('5');   // signature
 292:src/hostmsg.c ****  //       break;
 293:src/hostmsg.c ****  //     case SWIPE:
 294:src/hostmsg.c ****  //     case SWIPE_4DBC:
 295:src/hostmsg.c ****  //       pack_byte('2');
 296:src/hostmsg.c ****  //       pack_byte('5');   // signature
 297:src/hostmsg.c ****  //       break;
 298:src/hostmsg.c ****  //     case FALLBACK:
 299:src/hostmsg.c ****  //     case FALLBACK_4DBC:
 300:src/hostmsg.c ****  //       pack_byte('8');
 301:src/hostmsg.c ****  //       pack_byte('5');   // signature
 302:src/hostmsg.c ****  //       break;
 303:src/hostmsg.c ****  //     default :
 304:src/hostmsg.c ****  //       pack_byte('5');   // chip reading
 305:src/hostmsg.c ****  //       pack_byte('1');   // PIN verified
 306:src/hostmsg.c ****  //       break;
 307:src/hostmsg.c ****  //   }
 308:src/hostmsg.c ****  //   pack_byte('0');       // cardholder auth entity
 309:src/hostmsg.c ****  //   pack_byte('1');       // rewrite capability
 310:src/hostmsg.c ****  //   pack_byte('4');       // display & printing
 311:src/hostmsg.c ****  //   pack_byte('c');       // 12-digit PIN
 312:src/hostmsg.c ****  // }
 313:src/hostmsg.c **** 
 314:src/hostmsg.c ****  // /* 23. pan sequence number */
 315:src/hostmsg.c ****  // if (tx_bitmap[2] & 0x02) {
 316:src/hostmsg.c ****  //   pack_mem("001", 3);                       //testing only
 317:src/hostmsg.c ****  // }
 318:src/hostmsg.c **** 
 319:src/hostmsg.c ****  // /* 24. function code */
 320:src/hostmsg.c ****  // if (tx_bitmap[2] & 0x01) {
 321:src/hostmsg.c ****  //   if ((TX_DATA.b_trans == AUTH_SWIPE) || (TX_DATA.b_trans == AUTH_MANUAL))
 322:src/hostmsg.c ****  //     pack_mem("101", 3);
 323:src/hostmsg.c ****  //   else if (TX_DATA.b_trans == EDC_REV)
 324:src/hostmsg.c ****  //     pack_mem("400", 3);
ARM GAS  C:\Users\AHMED~1.ELE\AppData\Local\Temp\ccWApJgZ.s 			page 33


 325:src/hostmsg.c ****  //   else if (TX_DATA.b_trans == SETTLEMENT)
 326:src/hostmsg.c ****  //     pack_mem("880", 3);
 327:src/hostmsg.c ****  //   else
 328:src/hostmsg.c ****  //     pack_mem("200", 3);
 329:src/hostmsg.c ****  // }
 330:src/hostmsg.c **** 
 331:src/hostmsg.c ****  // /* 26. merchant business code */
 332:src/hostmsg.c ****  // if (tx_bitmap[3] & 0x40) {
 333:src/hostmsg.c ****  //   pack_mem("5814", 4);                      //testing only
 334:src/hostmsg.c ****  // }
 335:src/hostmsg.c **** 
 336:src/hostmsg.c ****  // /* 32. acquirer id */
 337:src/hostmsg.c ****  // if (tx_bitmap[3] & 0x01) {
 338:src/hostmsg.c ****  //   pack_byte(0x06);
 339:src/hostmsg.c ****  //   pack_mem("011200", 6);                    //testing only
 340:src/hostmsg.c ****  // }
 341:src/hostmsg.c **** 
 342:src/hostmsg.c ****  // /* 34. pan extension */
 343:src/hostmsg.c ****  // if (tx_bitmap[4] & 0x40) {
 344:src/hostmsg.c ****  //   pack_byte(0x08);
 345:src/hostmsg.c ****  //   pack_mem("00000000", 8);                  //testing only
 346:src/hostmsg.c ****  // }
 347:src/hostmsg.c **** 
 348:src/hostmsg.c ****  // /* 35. track 2 data */
 349:src/hostmsg.c ****  // if (tx_bitmap[4] & 0x20) {
 350:src/hostmsg.c ****  //   if (INPUT.s_trk2buf.b_len) {
 351:src/hostmsg.c ****  //     pack_byte((BYTE)bin2bcd(INPUT.s_trk2buf.b_len));
 352:src/hostmsg.c ****  //     pack_mem(INPUT.s_trk2buf.sb_content, INPUT.s_trk2buf.b_len);
 353:src/hostmsg.c ****  //   } else
 354:src/hostmsg.c ****  //     tx_bitmap[4] &= ~0x20;
 355:src/hostmsg.c ****  // }
 356:src/hostmsg.c **** 
 357:src/hostmsg.c ****  // /* 37. RRN */
 358:src/hostmsg.c ****  // if (tx_bitmap[4] & 0x08) {
 359:src/hostmsg.c ****  //   if ((TX_DATA.b_trans == EDC_REV) && (TX_DATA.b_org_trans != VOID))
 360:src/hostmsg.c ****  //     tx_bitmap[4] &= ~0x08; /* not applicable, clear BIT */
 361:src/hostmsg.c ****  //   else {
 362:src/hostmsg.c ****  //     if (memcmp(TX_DATA.sb_rrn, "\x00\x00\x00\x00\x00\x00\x00\x00\x00\x00\x00\x00", 12))
 363:src/hostmsg.c ****  //       pack_mem(TX_DATA.sb_rrn, 12);
 364:src/hostmsg.c ****  //     else
 365:src/hostmsg.c ****  //       tx_bitmap[4] &= ~0x08; /* not applicable, clear BIT */
 366:src/hostmsg.c ****  //   }
 367:src/hostmsg.c ****  // }
 368:src/hostmsg.c **** 
 369:src/hostmsg.c ****  // /* 38. authorization code */
 370:src/hostmsg.c ****  // if (tx_bitmap[4] & 0x04) {
 371:src/hostmsg.c ****  //   pack_mem(TX_DATA.sb_auth_code, 6);
 372:src/hostmsg.c ****  // }
 373:src/hostmsg.c ****  // 
 374:src/hostmsg.c ****  // /* 41. terminal identification */
 375:src/hostmsg.c ****  // if (tx_bitmap[5] & 0x80) {
 376:src/hostmsg.c ****  //   pack_mem(STIS_ACQ_TBL(0).sb_term_id, 8);
 377:src/hostmsg.c ****  // }
 378:src/hostmsg.c **** 
 379:src/hostmsg.c ****  // /* 42. card acceptor identification */
 380:src/hostmsg.c ****  // if (tx_bitmap[5] & 0x40) {
 381:src/hostmsg.c ****  //   pack_mem(STIS_ACQ_TBL(0).sb_acceptor_id, 15);
ARM GAS  C:\Users\AHMED~1.ELE\AppData\Local\Temp\ccWApJgZ.s 			page 34


 382:src/hostmsg.c ****  // }
 383:src/hostmsg.c **** 
 384:src/hostmsg.c ****  // /* 43. card acceptor name & address */
 385:src/hostmsg.c ****  // if (tx_bitmap[5] & 0x20) {
 386:src/hostmsg.c ****  //   pack_byte((BYTE)bin2bcd(sizeof(STIS_TERM_CFG.sb_name_loc)));
 387:src/hostmsg.c ****  //   pack_mem(STIS_TERM_CFG.sb_name_loc, sizeof(STIS_TERM_CFG.sb_name_loc));
 388:src/hostmsg.c ****  // }
 389:src/hostmsg.c ****  // 
 390:src/hostmsg.c ****  // /* 44. additional resp. data */
 391:src/hostmsg.c ****  // if (tx_bitmap[5] & 0x10) { /* indicates under floor limit approval */
 392:src/hostmsg.c ****  //   if (TX_DATA.b_trans == TRANS_UPLOAD) {
 393:src/hostmsg.c ****  //     if ((TX_DATA.b_org_trans == REFUND) ||
 394:src/hostmsg.c ****  //         (TX_DATA.b_org_trans == SALE_OFFLINE) ||
 395:src/hostmsg.c ****  //         (TX_DATA.b_org_trans == SALE_COMPLETE) ||
 396:src/hostmsg.c ****  //         (TX_DATA.b_org_trans == SALE_UNDER_LMT) ||
 397:src/hostmsg.c ****  //         (TX_DATA.b_org_trans == ESALE_COMPLETE) ||
 398:src/hostmsg.c ****  //         (TX_DATA.b_org_trans == ESALE_UNDER_LMT)
 399:src/hostmsg.c ****  //        )
 400:src/hostmsg.c ****  //       tx_bitmap[5] &= ~0x10; /* not applicable, clear bit */
 401:src/hostmsg.c ****  //   }
 402:src/hostmsg.c ****  //   else /* indicates under floor limit approval */
 403:src/hostmsg.c ****  //     if ((TX_DATA.b_org_trans == SALE_UNDER_LMT) ||(TX_DATA.b_org_trans == ESALE_UNDER_LMT))
 404:src/hostmsg.c ****  //       pack_str("\x02\x30\x33");
 405:src/hostmsg.c ****  //     else
 406:src/hostmsg.c ****  //       pack_str("\x02\x30\x30");
 407:src/hostmsg.c ****  // }
 408:src/hostmsg.c **** 
 409:src/hostmsg.c ****  // /* 45. track 1 data */
 410:src/hostmsg.c ****  // if (tx_bitmap[5] & 0x08) {
 411:src/hostmsg.c ****  //   // Send Track1 when available
 412:src/hostmsg.c ****  //   if ((INPUT.s_trk1buf.b_len==0)||!Track1Enable())
 413:src/hostmsg.c ****  //     tx_bitmap[5] &= ~0x08;
 414:src/hostmsg.c ****  //   else {
 415:src/hostmsg.c ****  //     pack_byte((BYTE)bin2bcd(INPUT.s_trk1buf.b_len));
 416:src/hostmsg.c ****  //     split_data(INPUT.s_trk1buf.sb_content, INPUT.s_trk1buf.b_len);
 417:src/hostmsg.c ****  //   }
 418:src/hostmsg.c ****  // }
 419:src/hostmsg.c **** 
 420:src/hostmsg.c ****  // /* 48. additional resp. data */
 421:src/hostmsg.c ****  // if (tx_bitmap[5] & 0x01) {
 422:src/hostmsg.c ****  //   pack_mem("0038", 4);                                //Total length of TLVs
 423:src/hostmsg.c ****  //   pack_mem("P10", 3);                                 //Tag P10 - PIN encryption key
 424:src/hostmsg.c ****  //   pack_mem("032", 3);                                 //length of data
 425:src/hostmsg.c ****  //   pack_mem("A554A96459E368BF60B927E9F4AD14E9", 32);   //testing only
 426:src/hostmsg.c ****  // }
 427:src/hostmsg.c **** 
 428:src/hostmsg.c ****  // /* 49. transaction currency code */
 429:src/hostmsg.c ****  // if (tx_bitmap[6] & 0x80) {
 430:src/hostmsg.c ****  //   pack_mem("818", 3);                       //testing only (EGP)
 431:src/hostmsg.c ****  // }
 432:src/hostmsg.c **** 
 433:src/hostmsg.c ****  // /* 52. pin block */
 434:src/hostmsg.c ****  // if (tx_bitmap[6] & 0x10) {
 435:src/hostmsg.c ****  //   if (memcmp(TX_DATA.sb_pin, "\x00\x00\x00\x00\x00\x00\x00\x00", 8))
 436:src/hostmsg.c ****  //     pack_mem (TX_DATA.sb_pin, 8);
 437:src/hostmsg.c ****  //   else
 438:src/hostmsg.c ****  //     tx_bitmap[6] &= ~0x10; /* not applicable, clear BIT */
ARM GAS  C:\Users\AHMED~1.ELE\AppData\Local\Temp\ccWApJgZ.s 			page 35


 439:src/hostmsg.c ****  // }
 440:src/hostmsg.c **** 
 441:src/hostmsg.c ****  // /* 53. security data */
 442:src/hostmsg.c ****  // if (tx_bitmap[6] & 0x08) {
 443:src/hostmsg.c ****  //   pack_byte(0x10);
 444:src/hostmsg.c ****  //   pack_mem("0101000000", 10);               //testing only (encrypted by TPK, ANSI format)
 445:src/hostmsg.c ****  // }
 446:src/hostmsg.c **** 
 447:src/hostmsg.c ****  // /* 54. additional amount */
 448:src/hostmsg.c ****  // if (tx_bitmap[6] & 0x04) {
 449:src/hostmsg.c ****  //   if (TX_DATA.dd_tip !=0) {
 450:src/hostmsg.c ****  //     pack_word(0x0020);
 451:src/hostmsg.c ****  //     pack_mem("04", 2);                  // account type   //testing only
 452:src/hostmsg.c ****  //     pack_mem("04", 2);                  // account type   //testing only
 453:src/hostmsg.c ****  //     pack_mem("818", 3);                 // currency code  //testing only
 454:src/hostmsg.c ****  //     pack_mem("C", 1);                   // credit         //testing only
 455:src/hostmsg.c ****  //     dbin2bcd(tmp,TX_DATA.dd_tip);
 456:src/hostmsg.c ****  //     split_data(&tmp[4],6);
 457:src/hostmsg.c ****  //   }
 458:src/hostmsg.c ****  //   else
 459:src/hostmsg.c ****  //     tx_bitmap[6] &= ~0x04; /* no tip, clear BIT */
 460:src/hostmsg.c ****  // }
 461:src/hostmsg.c **** 
 462:src/hostmsg.c ****  // /* 55. EMV data */
 463:src/hostmsg.c ****  // if (tx_bitmap[6] & 0x02) {
 464:src/hostmsg.c ****  //   // EMVEDC data higher priority
 465:src/hostmsg.c ****  //   if (TX_DATA.s_icc_data.w_misc_len) {
 466:src/hostmsg.c ****  //     pack_word(bin2bcd(TX_DATA.s_icc_data.w_misc_len));
 467:src/hostmsg.c ****  //     pack_mem(TX_DATA.s_icc_data.sb_misc_content, TX_DATA.s_icc_data.w_misc_len);
 468:src/hostmsg.c ****  //   }
 469:src/hostmsg.c ****  //   else
 470:src/hostmsg.c ****  //     if (Prompt4DBC() &&
 471:src/hostmsg.c ****  //         (KTransBitmap[TX_DATA.b_trans].w_txmsg_id!=0x0220) &&
 472:src/hostmsg.c ****  //         (KTransBitmap[TX_DATA.b_trans].w_txmsg_id!=0x0400) &&
 473:src/hostmsg.c ****  //         (KTransBitmap[TX_DATA.b_trans].w_txmsg_id!=0x0320)) {
 474:src/hostmsg.c ****  //       pack_word(0x0004);
 475:src/hostmsg.c ****  //       pack_mem(INPUT.sb_amex_4DBC, 4);
 476:src/hostmsg.c ****  //     }
 477:src/hostmsg.c ****  //     else
 478:src/hostmsg.c ****  //       tx_bitmap[6] &= ~0x02; // no 4DBC
 479:src/hostmsg.c ****  // }
 480:src/hostmsg.c **** 
 481:src/hostmsg.c ****  // /* 60. reserved private */
 482:src/hostmsg.c ****  // if (tx_bitmap[7] & 0x10) {
 483:src/hostmsg.c ****  //   if (TX_DATA.b_trans == SETTLEMENT) {
 484:src/hostmsg.c ****  //     pack_word(0x0006); /* length */
 485:src/hostmsg.c ****  //     split_data(STIS_ACQ_TBL(0).sb_curr_batch_no, 3);
 486:src/hostmsg.c ****  //   }
 487:src/hostmsg.c ****  //   else
 488:src/hostmsg.c ****  //     if (TX_DATA.b_trans == TRANS_UPLOAD) {
 489:src/hostmsg.c ****  //       pack_word(0x0022);
 490:src/hostmsg.c ****  //       tmp [0] = (BYTE)(KTransBitmap[TX_DATA.b_org_trans].w_txmsg_id >> 8);
 491:src/hostmsg.c ****  //       tmp [1] = (BYTE)(KTransBitmap[TX_DATA.b_org_trans].w_txmsg_id &0xF);
 492:src/hostmsg.c ****  //       split_data(tmp, 2);
 493:src/hostmsg.c ****  //       split_data(TX_DATA.sb_org_trace_no, 3);
 494:src/hostmsg.c ****  //       pack_space(12);
 495:src/hostmsg.c ****  //     }
ARM GAS  C:\Users\AHMED~1.ELE\AppData\Local\Temp\ccWApJgZ.s 			page 36


 496:src/hostmsg.c ****  //     else { /* adjust original amount */
 497:src/hostmsg.c ****  //       pack_word(0x0012);
 498:src/hostmsg.c ****  //       dbin2bcd(tmp,TX_DATA.dd_org_amount);
 499:src/hostmsg.c ****  //       split_data(&tmp[4], 6);
 500:src/hostmsg.c ****  //     }
 501:src/hostmsg.c ****  // }
 502:src/hostmsg.c **** 
 503:src/hostmsg.c ****  // /* 61. private - product codes */
 504:src/hostmsg.c ****  // if (tx_bitmap[7] & 0x08) {
 505:src/hostmsg.c ****  //   if (TX_DATA.sb_product[0] == 0xFF)
 506:src/hostmsg.c ****  //     tx_bitmap[7] &= ~0x08; /* clear BIT */
 507:src/hostmsg.c ****  //   else {
 508:src/hostmsg.c ****  //     pack_word(0x0008); /* length */
 509:src/hostmsg.c ****  //     for (var_i = 0; var_i != 4; var_i++) {
 510:src/hostmsg.c ****  //       if (TX_DATA.sb_product[var_i] != 0xFF) {
 511:src/hostmsg.c ****  //         APM_GetDescTbl(TX_DATA.sb_product[var_i], &prod);
 512:src/hostmsg.c ****  //         pack_mem((BYTE *)&prod.sb_host_tx_code, 2);
 513:src/hostmsg.c ****  //       }
 514:src/hostmsg.c ****  //       else
 515:src/hostmsg.c ****  //         pack_space(2);
 516:src/hostmsg.c ****  //     }
 517:src/hostmsg.c ****  //   }
 518:src/hostmsg.c ****  // }
 519:src/hostmsg.c **** 
 520:src/hostmsg.c ****  // /* 62. private - ROC number of financial/SOC number of settlement */
 521:src/hostmsg.c ****  // if (tx_bitmap[7] & 0x04) {
 522:src/hostmsg.c ****  //   pack_word(0x0006); /* length */
 523:src/hostmsg.c ****  //   split_data(TX_DATA.sb_roc_no, 3);
 524:src/hostmsg.c ****  // }
 525:src/hostmsg.c **** 
 526:src/hostmsg.c ****  // /* 63. versions */
 527:src/hostmsg.c ****  // if (tx_bitmap[7] & 0x02) {
 528:src/hostmsg.c ****  //   pack_word(0x0025);
 529:src/hostmsg.c ****  //   pack_nbyte('0', 25);                              //testing only
 530:src/hostmsg.c ****  // }
 531:src/hostmsg.c **** 
 532:src/hostmsg.c ****  // /* 64. MAC */
 533:src/hostmsg.c ****  // if (tx_bitmap[7] & 0x01) {
 534:src/hostmsg.c ****  //   pack_mem("\x00\x00\x00\x00\x00\x00\x00\x00", 8);  //testing only
 535:src/hostmsg.c ****  // }
 536:src/hostmsg.c **** 
 537:src/hostmsg.c ****  // /* 72. Data Record */
 538:src/hostmsg.c ****  // if (tx_bitmap[8] & 0x01) {
 539:src/hostmsg.c ****  //   if ((TX_DATA.b_trans == AUTH_SWIPE) || (TX_DATA.b_trans == AUTH_MANUAL)) {
 540:src/hostmsg.c ****  //     pack_word(0x0040); /* length */
 541:src/hostmsg.c ****  //     pack_mem("6013260019010000001259708402000000036575", 40);   //testing only
 542:src/hostmsg.c ****  //   }
 543:src/hostmsg.c ****  // }
 544:src/hostmsg.c ****  // 
 545:src/hostmsg.c ****  // SprintfMW(buf, "%04d", get_distance());
 546:src/hostmsg.c ****  // memcpy(len_ptr, buf, 4);
 547:src/hostmsg.c ****  // if (tx_bitmap[0] & 0x80)
 548:src/hostmsg.c ****  //   memcpy(bitmap_ptr, tx_bitmap, 16);
 549:src/hostmsg.c ****  // else
 550:src/hostmsg.c ****  //   memcpy(bitmap_ptr, tx_bitmap, 8);
 551:src/hostmsg.c ****     PackTxBufLen(ExtraMsgLen());
 1498              		.loc 1 551 0
ARM GAS  C:\Users\AHMED~1.ELE\AppData\Local\Temp\ccWApJgZ.s 			page 37


 1499 0af0 FFF7FEFF 		bl	ExtraMsgLen
 1500              	.LVL469:
 1501 0af4 FFF7FEFF 		bl	PackTxBufLen
 1502              	.LVL470:
 552:src/hostmsg.c ****   dbgHex("TxMsg", TX_BUF.sbContent, TX_BUF.wLen);         /* JJJ */
 1503              		.loc 1 552 0
 1504 0af8 054B     		ldr	r3, .L14
 1505 0afa 0648     		ldr	r0, .L14+4
 1506 0afc 1B68     		ldr	r3, [r3]
 1507 0afe 03F5CC53 		add	r3, r3, #6528
 1508 0b02 03F11E01 		add	r1, r3, #30
 1509 0b06 9A8B     		ldrh	r2, [r3, #28]
 553:src/hostmsg.c **** }
 1510              		.loc 1 553 0
 1511 0b08 BDE80840 		pop	{r3, lr}
 1512              		.cfi_restore 14
 1513              		.cfi_restore 3
 1514              		.cfi_def_cfa_offset 0
 552:src/hostmsg.c ****   dbgHex("TxMsg", TX_BUF.sbContent, TX_BUF.wLen);         /* JJJ */
 1515              		.loc 1 552 0
 1516 0b0c FFF7FEBF 		b	dbgHex
 1517              	.LVL471:
 1518              	.L15:
 1519              		.align	2
 1520              	.L14:
 1521 0b10 00000000 		.word	gGDS
 1522 0b14 00000000 		.word	.LC0
 1523              		.cfi_endproc
 1524              	.LFE5:
 1525              		.size	PackHostMsg, .-PackHostMsg
 1526              		.section	.text.CheckHostRsp,"ax",%progbits
 1527              		.align	1
 1528              		.global	CheckHostRsp
 1529              		.thumb
 1530              		.thumb_func
 1531              		.type	CheckHostRsp, %function
 1532              	CheckHostRsp:
 1533              	.LFB6:
 554:src/hostmsg.c **** /******************************************************************/
 555:src/hostmsg.c **** /*  This procedure extracts or checks items in response message.  */
 556:src/hostmsg.c **** /*  Enter with type of message to be retrieved:                   */
 557:src/hostmsg.c **** /*  02. P.A.N.                                                    */
 558:src/hostmsg.c **** /*  03. Processing code          04. amount                       */
 559:src/hostmsg.c **** /*  11. system trace number      12. trans time                   */
 560:src/hostmsg.c **** /*  13. trans date               14. expiry date                  */
 561:src/hostmsg.c **** /*  15. settlement date                                           */
 562:src/hostmsg.c **** /*  22. pos entry mode           24. network id                   */
 563:src/hostmsg.c **** /*  25. pos condition code                                        */
 564:src/hostmsg.c **** /*  32.                          37. retrieval reference number   */
 565:src/hostmsg.c **** /*  38. auth code                39. response code                */
 566:src/hostmsg.c **** /*  41. terminal id              42. card acceptor id             */
 567:src/hostmsg.c **** /*  48. CITI instalment info.                                     */
 568:src/hostmsg.c **** /*  54. additional amount        60. init. param / original trans */
 569:src/hostmsg.c **** /*  61. product descriptor code  62. record of charge number      */
 570:src/hostmsg.c **** /******************************************************************/
 571:src/hostmsg.c **** BYTE CheckHostRsp(void)
 572:src/hostmsg.c **** {
ARM GAS  C:\Users\AHMED~1.ELE\AppData\Local\Temp\ccWApJgZ.s 			page 38


 1534              		.loc 1 572 0
 1535              		.cfi_startproc
 1536              		@ args = 0, pretend = 0, frame = 32
 1537              		@ frame_needed = 0, uses_anonymous_args = 0
 1538 0000 2DE9F04F 		push	{r4, r5, r6, r7, r8, r9, r10, fp, lr}
 1539              		.cfi_def_cfa_offset 36
 1540              		.cfi_offset 4, -36
 1541              		.cfi_offset 5, -32
 1542              		.cfi_offset 6, -28
 1543              		.cfi_offset 7, -24
 1544              		.cfi_offset 8, -20
 1545              		.cfi_offset 9, -16
 1546              		.cfi_offset 10, -12
 1547              		.cfi_offset 11, -8
 1548              		.cfi_offset 14, -4
 573:src/hostmsg.c ****   DWORD var_i;
 574:src/hostmsg.c ****   WORD msg_id;
 575:src/hostmsg.c ****   BYTE bitmap[8];
 576:src/hostmsg.c ****   BYTE tmp;
 577:src/hostmsg.c ****   BOOLEAN more_msg, sync_datetime;
 578:src/hostmsg.c **** 
 579:src/hostmsg.c ****   Disp2x16Msg(GetConstMsg(EDC_CO_PROCESSING), MW_LINE5, MW_CENTER|MW_BIGFONT);
 1549              		.loc 1 579 0
 1550 0004 0320     		movs	r0, #3
 572:src/hostmsg.c ****   DWORD var_i;
 1551              		.loc 1 572 0
 1552 0006 89B0     		sub	sp, sp, #36
 1553              		.cfi_def_cfa_offset 72
 1554              		.loc 1 579 0
 1555 0008 FFF7FEFF 		bl	GetConstMsg
 1556              	.LVL472:
 1557 000c 4FF4A061 		mov	r1, #1280
 1558 0010 41F20202 		movw	r2, #4098
 1559 0014 FFF7FEFF 		bl	Disp2x16Msg
 1560              	.LVL473:
 580:src/hostmsg.c ****   if (TrainingModeON())
 1561              		.loc 1 580 0
 1562 0018 FFF7FEFF 		bl	TrainingModeON
 1563              	.LVL474:
 1564 001c 0446     		mov	r4, r0
 1565 001e 40B3     		cbz	r0, .L17
 1566              	.LBB18:
 1567              	.LBB19:
  64:src/hostmsg.c ****   memset(RSP_DATA.sb_auth_code, '0', sizeof(RSP_DATA.sb_auth_code));
 1568              		.loc 1 64 0
 1569 0020 0DF11504 		add	r4, sp, #21
  63:src/hostmsg.c ****   memcpy(&RSP_DATA.s_dtg.b_year, &dtg.b_year, 6);
 1570              		.loc 1 63 0
 1571 0024 05A8     		add	r0, sp, #20
 1572 0026 FFF7FEFF 		bl	ReadRTC
 1573              	.LVL475:
  64:src/hostmsg.c ****   memset(RSP_DATA.sb_auth_code, '0', sizeof(RSP_DATA.sb_auth_code));
 1574              		.loc 1 64 0
 1575 002a 2146     		mov	r1, r4
 1576 002c 0622     		movs	r2, #6
 1577 002e B548     		ldr	r0, .L118
 1578 0030 FFF7FEFF 		bl	memcpy
ARM GAS  C:\Users\AHMED~1.ELE\AppData\Local\Temp\ccWApJgZ.s 			page 39


 1579              	.LVL476:
  65:src/hostmsg.c ****   split(RSP_DATA.sb_rrn, &dtg.b_year, 6);
 1580              		.loc 1 65 0
 1581 0034 3021     		movs	r1, #48
 1582 0036 0622     		movs	r2, #6
 1583 0038 B348     		ldr	r0, .L118+4
 1584 003a FFF7FEFF 		bl	memset
 1585              	.LVL477:
  66:src/hostmsg.c ****   RSP_DATA.b_response = TRANS_ACP;
 1586              		.loc 1 66 0
 1587 003e 2146     		mov	r1, r4
 1588 0040 B248     		ldr	r0, .L118+8
 1589 0042 0622     		movs	r2, #6
 1590 0044 FFF7FEFF 		bl	split
 1591              	.LVL478:
  67:src/hostmsg.c ****   RSP_DATA.w_rspcode = '0'*256+'0';
 1592              		.loc 1 67 0
 1593 0048 0024     		movs	r4, #0
 1594 004a B14B     		ldr	r3, .L118+12
  68:src/hostmsg.c ****   RSP_DATA.dd_amount = 0;
 1595              		.loc 1 68 0
 1596 004c 43F23002 		movw	r2, #12336
  67:src/hostmsg.c ****   RSP_DATA.w_rspcode = '0'*256+'0';
 1597              		.loc 1 67 0
 1598 0050 83F80047 		strb	r4, [r3, #1792]
  68:src/hostmsg.c ****   RSP_DATA.dd_amount = 0;
 1599              		.loc 1 68 0
 1600 0054 A3F86E25 		strh	r2, [r3, #1390]	@ movhi
  69:src/hostmsg.c ****   memset(&RSP_DATA.text[21], ' ', 20);
 1601              		.loc 1 69 0
 1602 0058 0020     		movs	r0, #0
 1603 005a 03F5A463 		add	r3, r3, #1312
 1604 005e 0021     		movs	r1, #0
  70:src/hostmsg.c ****   return TRANS_ACP;
 1605              		.loc 1 70 0
 1606 0060 1422     		movs	r2, #20
  69:src/hostmsg.c ****   memset(&RSP_DATA.text[21], ' ', 20);
 1607              		.loc 1 69 0
 1608 0062 C3E90001 		strd	r0, [r3]
  70:src/hostmsg.c ****   return TRANS_ACP;
 1609              		.loc 1 70 0
 1610 0066 03F5FB70 		add	r0, r3, #502
 1611 006a 2021     		movs	r1, #32
 1612 006c FFF7FEFF 		bl	memset
 1613              	.LVL479:
 1614              	.LBE19:
 1615              	.LBE18:
 581:src/hostmsg.c ****     return TrainingRsp();
 1616              		.loc 1 581 0
 1617 0070 F2E1     		b	.L18
 1618              	.L17:
 582:src/hostmsg.c **** 
 583:src/hostmsg.c ****   dbgHex("RxMsg", RX_BUF.sbContent, RX_BUF.wLen);         /* JJJ */
 1619              		.loc 1 583 0
 1620 0072 A84E     		ldr	r6, .L118+16
 1621 0074 A848     		ldr	r0, .L118+20
 1622 0076 3368     		ldr	r3, [r6]
ARM GAS  C:\Users\AHMED~1.ELE\AppData\Local\Temp\ccWApJgZ.s 			page 40


 1623 0078 03F51653 		add	r3, r3, #9600
 1624 007c 03F12201 		add	r1, r3, #34
 1625 0080 1A8C     		ldrh	r2, [r3, #32]
 1626 0082 FFF7FEFF 		bl	dbgHex
 1627              	.LVL480:
 584:src/hostmsg.c ****   RxBufSetup(ExtraMsgLen());
 1628              		.loc 1 584 0
 1629 0086 FFF7FEFF 		bl	ExtraMsgLen
 1630              	.LVL481:
 1631 008a FFF7FEFF 		bl	RxBufSetup
 1632              	.LVL482:
 585:src/hostmsg.c ****   more_msg = sync_datetime = 0;
 586:src/hostmsg.c ****   inc_pptr(5); // 5 BYTE TO MSGID
 1633              		.loc 1 586 0
 1634 008e 0520     		movs	r0, #5
 1635 0090 FFF7FEFF 		bl	inc_pptr
 1636              	.LVL483:
 587:src/hostmsg.c **** 
 588:src/hostmsg.c ****   if ((msg_id=get_word()) == 0x0820)
 1637              		.loc 1 588 0
 1638 0094 FFF7FEFF 		bl	get_word
 1639              	.LVL484:
 1640 0098 80B2     		uxth	r0, r0
 1641 009a B0F5026F 		cmp	r0, #2080
 1642 009e 00F0D881 		beq	.L57
 589:src/hostmsg.c ****     return 0xff; /* please wait message */
 590:src/hostmsg.c ****   if ((KTransBitmap[TX_DATA.b_trans].w_txmsg_id + 0x10) != msg_id) {
 1643              		.loc 1 590 0
 1644 00a2 9B4B     		ldr	r3, .L118+12
 1645 00a4 1822     		movs	r2, #24
 1646 00a6 93F80013 		ldrb	r1, [r3, #768]	@ zero_extendqisi2
 1647 00aa 1D46     		mov	r5, r3
 1648 00ac 4A43     		muls	r2, r1, r2
 1649 00ae 9B49     		ldr	r1, .L118+24
 1650 00b0 8A5A     		ldrh	r2, [r1, r2]
 1651 00b2 1032     		adds	r2, r2, #16
 1652 00b4 8242     		cmp	r2, r0
 1653 00b6 02D0     		beq	.L19
 591:src/hostmsg.c ****     RSP_DATA.w_rspcode = 'I'*256+'R';
 1654              		.loc 1 591 0
 1655 00b8 44F65212 		movw	r2, #18770
 1656 00bc 6FE0     		b	.L116
 1657              	.L19:
 592:src/hostmsg.c ****     return TRANS_FAIL;
 593:src/hostmsg.c ****   }
 594:src/hostmsg.c **** 
 595:src/hostmsg.c ****   get_mem(bitmap, 8);
 1658              		.loc 1 595 0
 1659 00be 03A8     		add	r0, sp, #12
 1660              	.LVL485:
 1661 00c0 0821     		movs	r1, #8
 1662 00c2 FFF7FEFF 		bl	get_mem
 1663              	.LVL486:
 596:src/hostmsg.c **** 
 597:src/hostmsg.c ****   /* 02. pan */
 598:src/hostmsg.c ****   if (bitmap[0] & 0x40) {
 1664              		.loc 1 598 0
ARM GAS  C:\Users\AHMED~1.ELE\AppData\Local\Temp\ccWApJgZ.s 			page 41


 1665 00c6 9DF80C30 		ldrb	r3, [sp, #12]	@ zero_extendqisi2
 1666 00ca 5F06     		lsls	r7, r3, #25
 1667 00cc 0ED5     		bpl	.L20
 599:src/hostmsg.c ****     var_i = bcd2bin(get_byte());
 1668              		.loc 1 599 0
 1669 00ce FFF7FEFF 		bl	get_byte
 1670              	.LVL487:
 1671 00d2 FFF7FEFF 		bl	bcd2bin
 1672              	.LVL488:
 600:src/hostmsg.c ****     memset(RSP_DATA.sb_pan, 0xFF, 10);
 1673              		.loc 1 600 0
 1674 00d6 FF21     		movs	r1, #255
 1675 00d8 0A22     		movs	r2, #10
 599:src/hostmsg.c ****     var_i = bcd2bin(get_byte());
 1676              		.loc 1 599 0
 1677 00da 0746     		mov	r7, r0
 1678              	.LVL489:
 1679              		.loc 1 600 0
 1680 00dc 9048     		ldr	r0, .L118+28
 1681              	.LVL490:
 1682 00de FFF7FEFF 		bl	memset
 1683              	.LVL491:
 601:src/hostmsg.c ****     get_mem(RSP_DATA.sb_pan, ((var_i+1)/2));
 1684              		.loc 1 601 0
 1685 00e2 791C     		adds	r1, r7, #1
 1686 00e4 8E48     		ldr	r0, .L118+28
 1687 00e6 4908     		lsrs	r1, r1, #1
 1688 00e8 FFF7FEFF 		bl	get_mem
 1689              	.LVL492:
 1690              	.L20:
 602:src/hostmsg.c ****   }
 603:src/hostmsg.c **** 
 604:src/hostmsg.c ****   /* 03. processing code */
 605:src/hostmsg.c ****   if (bitmap[0] & 0x20) {
 1691              		.loc 1 605 0
 1692 00ec 9DF80C30 		ldrb	r3, [sp, #12]	@ zero_extendqisi2
 1693 00f0 9806     		lsls	r0, r3, #26
 1694 00f2 22D5     		bpl	.L21
 606:src/hostmsg.c ****     if (memcmp(get_pptr(), TX_DATA.sb_proc_code, 2)!=0) {
 1695              		.loc 1 606 0
 1696 00f4 FFF7FEFF 		bl	get_pptr
 1697              	.LVL493:
 1698 00f8 8A49     		ldr	r1, .L118+32
 1699 00fa 0222     		movs	r2, #2
 1700 00fc FFF7FEFF 		bl	memcmp
 1701              	.LVL494:
 1702 0100 68B1     		cbz	r0, .L22
 607:src/hostmsg.c ****       if ((TX_DATA.b_trans != SETTLEMENT)|| (memcmp(get_pptr(),KSetlPCode2,2)!=0)) {
 1703              		.loc 1 607 0
 1704 0102 95F80033 		ldrb	r3, [r5, #768]	@ zero_extendqisi2
 1705 0106 0D2B     		cmp	r3, #13
 1706 0108 06D1     		bne	.L24
 1707              		.loc 1 607 0 is_stmt 0 discriminator 1
 1708 010a FFF7FEFF 		bl	get_pptr
 1709              	.LVL495:
 1710 010e 8649     		ldr	r1, .L118+36
 1711 0110 0222     		movs	r2, #2
ARM GAS  C:\Users\AHMED~1.ELE\AppData\Local\Temp\ccWApJgZ.s 			page 42


 1712 0112 FFF7FEFF 		bl	memcmp
 1713              	.LVL496:
 1714 0116 10B1     		cbz	r0, .L22
 1715              	.L24:
 608:src/hostmsg.c ****         RSP_DATA.w_rspcode = 'I'*256+'P';
 1716              		.loc 1 608 0 is_stmt 1
 1717 0118 44F65013 		movw	r3, #18768
 1718 011c ABE0     		b	.L117
 1719              	.L22:
 609:src/hostmsg.c ****         return TRANS_FAIL;
 610:src/hostmsg.c ****       }
 611:src/hostmsg.c ****     }
 612:src/hostmsg.c ****     inc_pptr(2);
 1720              		.loc 1 612 0
 1721 011e 0220     		movs	r0, #2
 1722 0120 FFF7FEFF 		bl	inc_pptr
 1723              	.LVL497:
 613:src/hostmsg.c ****     tmp = get_byte();
 1724              		.loc 1 613 0
 1725 0124 FFF7FEFF 		bl	get_byte
 1726              	.LVL498:
 614:src/hostmsg.c ****     if ((TX_DATA.b_trans == TRANS_UPLOAD) && (tmp == 0x01))
 1727              		.loc 1 614 0
 1728 0128 95F80033 		ldrb	r3, [r5, #768]	@ zero_extendqisi2
 1729 012c 0C2B     		cmp	r3, #12
 613:src/hostmsg.c ****     tmp = get_byte();
 1730              		.loc 1 613 0
 1731 012e C0B2     		uxtb	r0, r0
 1732              	.LVL499:
 1733              		.loc 1 614 0
 1734 0130 01D1     		bne	.L26
 1735              		.loc 1 614 0 is_stmt 0 discriminator 1
 1736 0132 0128     		cmp	r0, #1
 1737 0134 03D0     		beq	.L58
 1738              	.L26:
 615:src/hostmsg.c ****       more_msg = 1;
 616:src/hostmsg.c ****     else if ((tmp != 0x01) && tmp) {
 1739              		.loc 1 616 0 is_stmt 1
 1740 0136 0128     		cmp	r0, #1
 1741 0138 EED8     		bhi	.L24
 1742              	.LVL500:
 1743              	.L21:
 585:src/hostmsg.c ****   inc_pptr(5); // 5 BYTE TO MSGID
 1744              		.loc 1 585 0
 1745 013a 0027     		movs	r7, #0
 1746 013c 00E0     		b	.L27
 1747              	.LVL501:
 1748              	.L58:
 615:src/hostmsg.c ****       more_msg = 1;
 1749              		.loc 1 615 0
 1750 013e 0746     		mov	r7, r0
 1751              	.LVL502:
 1752              	.L27:
 617:src/hostmsg.c ****       RSP_DATA.w_rspcode = 'I'*256+'P';
 618:src/hostmsg.c ****       return TRANS_FAIL;
 619:src/hostmsg.c ****     }
 620:src/hostmsg.c ****   }
ARM GAS  C:\Users\AHMED~1.ELE\AppData\Local\Temp\ccWApJgZ.s 			page 43


 621:src/hostmsg.c **** 
 622:src/hostmsg.c ****   /* 04. amount */
 623:src/hostmsg.c ****   if (bitmap[0] & 0x10) {
 1753              		.loc 1 623 0
 1754 0140 9DF80C30 		ldrb	r3, [sp, #12]	@ zero_extendqisi2
 1755 0144 D906     		lsls	r1, r3, #27
 1756 0146 11D5     		bpl	.L28
 624:src/hostmsg.c ****     RSP_DATA.dd_amount = BcdBin8b(get_pptr(),6);
 1757              		.loc 1 624 0
 1758 0148 FFF7FEFF 		bl	get_pptr
 1759              	.LVL503:
 1760              	.LBB20:
 1761              	.LBB21:
 1762              	.LBB22:
 1763              	.LBB23:
 104:src/hostmsg.c ****     return decbin4b(buffer,(BYTE)(aLen*2));
 1764              		.loc 1 104 0
 1765 014c 0622     		movs	r2, #6
 1766              	.LBE23:
 1767              	.LBE22:
 1768              	.LBE21:
 1769              	.LBE20:
 1770              		.loc 1 624 0
 1771 014e 0146     		mov	r1, r0
 1772              	.LVL504:
 1773              	.LBB27:
 1774              	.LBB26:
 1775              	.LBB25:
 1776              	.LBB24:
 104:src/hostmsg.c ****     return decbin4b(buffer,(BYTE)(aLen*2));
 1777              		.loc 1 104 0
 1778 0150 05A8     		add	r0, sp, #20
 1779              	.LVL505:
 1780 0152 FFF7FEFF 		bl	split
 1781              	.LVL506:
 105:src/hostmsg.c ****   }
 1782              		.loc 1 105 0
 1783 0156 0C21     		movs	r1, #12
 1784 0158 05A8     		add	r0, sp, #20
 1785 015a FFF7FEFF 		bl	decbin4b
 1786              	.LVL507:
 1787 015e 0021     		movs	r1, #0
 1788 0160 724B     		ldr	r3, .L118+40
 1789 0162 C3E90001 		strd	r0, [r3]
 1790              	.LBE24:
 1791              	.LBE25:
 1792              	.LBE26:
 1793              	.LBE27:
 625:src/hostmsg.c ****     inc_pptr(6);
 1794              		.loc 1 625 0
 1795 0166 0620     		movs	r0, #6
 1796 0168 FFF7FEFF 		bl	inc_pptr
 1797              	.LVL508:
 1798              	.L28:
 626:src/hostmsg.c ****   }
 627:src/hostmsg.c **** 
 628:src/hostmsg.c ****   /* 11. check system trace no */
ARM GAS  C:\Users\AHMED~1.ELE\AppData\Local\Temp\ccWApJgZ.s 			page 44


 629:src/hostmsg.c ****   if (bitmap[1] & 0x20) {
 1799              		.loc 1 629 0
 1800 016c 9DF80D30 		ldrb	r3, [sp, #13]	@ zero_extendqisi2
 1801 0170 9A06     		lsls	r2, r3, #26
 1802 0172 1AD5     		bpl	.L30
 630:src/hostmsg.c ****     if (TX_DATA.b_trans != TRANS_UPLOAD) {
 1803              		.loc 1 630 0
 1804 0174 95F80033 		ldrb	r3, [r5, #768]	@ zero_extendqisi2
 1805 0178 0C2B     		cmp	r3, #12
 1806 017a 13D0     		beq	.L31
 1807              	.LVL509:
 1808              	.LBB28:
 1809              	.LBB29:
  86:src/hostmsg.c ****   inc_pptr(aLen);
 1810              		.loc 1 86 0
 1811 017c FFF7FEFF 		bl	get_pptr
 1812              	.LVL510:
 1813 0180 0322     		movs	r2, #3
 1814 0182 0146     		mov	r1, r0
 1815 0184 6A48     		ldr	r0, .L118+44
 1816              	.LVL511:
 1817 0186 FFF7FEFF 		bl	memcmp
 1818              	.LVL512:
 1819 018a 8046     		mov	r8, r0
 1820              	.LVL513:
  87:src/hostmsg.c ****   return(result);
 1821              		.loc 1 87 0
 1822 018c 0320     		movs	r0, #3
 1823              	.LVL514:
 1824 018e FFF7FEFF 		bl	inc_pptr
 1825              	.LVL515:
 1826              	.LBE29:
 1827              	.LBE28:
 631:src/hostmsg.c ****       if (!Match(TX_DATA.sb_trace_no, 3)) {
 1828              		.loc 1 631 0
 1829 0192 B8F1000F 		cmp	r8, #0
 1830 0196 08D0     		beq	.L30
 632:src/hostmsg.c ****         RSP_DATA.w_rspcode = 'I'*256+'S';
 1831              		.loc 1 632 0
 1832 0198 44F65312 		movw	r2, #18771
 1833 019c 5C4B     		ldr	r3, .L118+12
 1834              	.LVL516:
 1835              	.L116:
 1836 019e A3F86E25 		strh	r2, [r3, #1390]	@ movhi
 1837 01a2 ADE0     		b	.L115
 1838              	.LVL517:
 1839              	.L31:
 633:src/hostmsg.c ****         return TRANS_FAIL;
 634:src/hostmsg.c ****       }
 635:src/hostmsg.c ****     } else
 636:src/hostmsg.c ****       inc_pptr(3);
 1840              		.loc 1 636 0
 1841 01a4 0320     		movs	r0, #3
 1842 01a6 FFF7FEFF 		bl	inc_pptr
 1843              	.LVL518:
 1844              	.L30:
 637:src/hostmsg.c ****   }
ARM GAS  C:\Users\AHMED~1.ELE\AppData\Local\Temp\ccWApJgZ.s 			page 45


 638:src/hostmsg.c **** 
 639:src/hostmsg.c ****   /* 12. trans time */
 640:src/hostmsg.c ****   if (bitmap[1] & 0x10) {
 1845              		.loc 1 640 0
 1846 01aa 9DF80D30 		ldrb	r3, [sp, #13]	@ zero_extendqisi2
 1847 01ae 03F01003 		and	r3, r3, #16
 1848 01b2 03F0FF08 		and	r8, r3, #255
 1849 01b6 2BB1     		cbz	r3, .L33
 1850              	.LVL519:
 641:src/hostmsg.c ****     sync_datetime |= 0x10;
 642:src/hostmsg.c ****     get_mem(&RSP_DATA.s_dtg.b_hour, 3);
 1851              		.loc 1 642 0
 1852 01b8 5E48     		ldr	r0, .L118+48
 1853 01ba 0321     		movs	r1, #3
 1854 01bc FFF7FEFF 		bl	get_mem
 1855              	.LVL520:
 641:src/hostmsg.c ****     sync_datetime |= 0x10;
 1856              		.loc 1 641 0
 1857 01c0 4FF01008 		mov	r8, #16
 1858              	.LVL521:
 1859              	.L33:
 643:src/hostmsg.c ****   }
 644:src/hostmsg.c **** 
 645:src/hostmsg.c ****   /* 13. trans date */
 646:src/hostmsg.c ****   if (bitmap[1] & 0x08) {
 1860              		.loc 1 646 0
 1861 01c4 9DF80D30 		ldrb	r3, [sp, #13]	@ zero_extendqisi2
 1862 01c8 1B07     		lsls	r3, r3, #28
 1863 01ca 05D5     		bpl	.L34
 647:src/hostmsg.c ****     sync_datetime |= 0x08;
 648:src/hostmsg.c ****     get_mem(&RSP_DATA.s_dtg.b_month, 2);
 1864              		.loc 1 648 0
 1865 01cc 5A48     		ldr	r0, .L118+52
 1866 01ce 0221     		movs	r1, #2
 647:src/hostmsg.c ****     sync_datetime |= 0x08;
 1867              		.loc 1 647 0
 1868 01d0 48F00808 		orr	r8, r8, #8
 1869              	.LVL522:
 1870              		.loc 1 648 0
 1871 01d4 FFF7FEFF 		bl	get_mem
 1872              	.LVL523:
 1873              	.L34:
 649:src/hostmsg.c ****   }
 650:src/hostmsg.c **** 
 651:src/hostmsg.c ****   /* 14. expiry date */
 652:src/hostmsg.c ****   if (bitmap[1] & 0x04) {
 1874              		.loc 1 652 0
 1875 01d8 9DF80D30 		ldrb	r3, [sp, #13]	@ zero_extendqisi2
 1876 01dc 5807     		lsls	r0, r3, #29
 1877 01de 03D5     		bpl	.L35
 653:src/hostmsg.c ****     get_mem(RSP_DATA.sb_exp_date, 2);
 1878              		.loc 1 653 0
 1879 01e0 5648     		ldr	r0, .L118+56
 1880 01e2 0221     		movs	r1, #2
 1881 01e4 FFF7FEFF 		bl	get_mem
 1882              	.LVL524:
 1883              	.L35:
ARM GAS  C:\Users\AHMED~1.ELE\AppData\Local\Temp\ccWApJgZ.s 			page 46


 654:src/hostmsg.c ****   }
 655:src/hostmsg.c **** 
 656:src/hostmsg.c ****   /* 24. bypass netword id */
 657:src/hostmsg.c ****   if (bitmap[2] & 0x01) {
 1884              		.loc 1 657 0
 1885 01e8 9DF80E30 		ldrb	r3, [sp, #14]	@ zero_extendqisi2
 1886 01ec D907     		lsls	r1, r3, #31
 1887 01ee 02D5     		bpl	.L36
 658:src/hostmsg.c ****     inc_pptr(2);
 1888              		.loc 1 658 0
 1889 01f0 0220     		movs	r0, #2
 1890 01f2 FFF7FEFF 		bl	inc_pptr
 1891              	.LVL525:
 1892              	.L36:
 659:src/hostmsg.c ****   }
 660:src/hostmsg.c **** 
 661:src/hostmsg.c ****   /* 25. pos condition code */
 662:src/hostmsg.c ****   if (bitmap[3] & 0x80) {
 1893              		.loc 1 662 0
 1894 01f6 9DF90F30 		ldrsb	r3, [sp, #15]
 1895 01fa 002B     		cmp	r3, #0
 1896 01fc 02DA     		bge	.L37
 663:src/hostmsg.c ****     inc_pptr(1);
 1897              		.loc 1 663 0
 1898 01fe 0120     		movs	r0, #1
 1899 0200 FFF7FEFF 		bl	inc_pptr
 1900              	.LVL526:
 1901              	.L37:
 664:src/hostmsg.c ****   }
 665:src/hostmsg.c **** 
 666:src/hostmsg.c ****   /* 37. retrieval reference number */
 667:src/hostmsg.c ****   if (bitmap[4] & 0x08) {
 1902              		.loc 1 667 0
 1903 0204 9DF81030 		ldrb	r3, [sp, #16]	@ zero_extendqisi2
 1904 0208 1A07     		lsls	r2, r3, #28
 1905 020a 03D5     		bpl	.L38
 668:src/hostmsg.c ****     get_mem(RSP_DATA.sb_rrn, 12);
 1906              		.loc 1 668 0
 1907 020c 3F48     		ldr	r0, .L118+8
 1908 020e 0C21     		movs	r1, #12
 1909 0210 FFF7FEFF 		bl	get_mem
 1910              	.LVL527:
 1911              	.L38:
 669:src/hostmsg.c ****   }
 670:src/hostmsg.c **** 
 671:src/hostmsg.c ****   /* 38. auth code */
 672:src/hostmsg.c ****   memset(RSP_DATA.sb_auth_code, ' ', 6);
 1912              		.loc 1 672 0
 1913 0214 3C48     		ldr	r0, .L118+4
 1914 0216 2021     		movs	r1, #32
 1915 0218 0622     		movs	r2, #6
 1916 021a FFF7FEFF 		bl	memset
 1917              	.LVL528:
 673:src/hostmsg.c ****   if (bitmap[4] & 0x04) {
 1918              		.loc 1 673 0
 1919 021e 9DF81030 		ldrb	r3, [sp, #16]	@ zero_extendqisi2
 1920 0222 5B07     		lsls	r3, r3, #29
ARM GAS  C:\Users\AHMED~1.ELE\AppData\Local\Temp\ccWApJgZ.s 			page 47


 1921 0224 03D5     		bpl	.L39
 674:src/hostmsg.c ****     get_mem(RSP_DATA.sb_auth_code, 6);
 1922              		.loc 1 674 0
 1923 0226 3848     		ldr	r0, .L118+4
 1924 0228 0621     		movs	r1, #6
 1925 022a FFF7FEFF 		bl	get_mem
 1926              	.LVL529:
 1927              	.L39:
 675:src/hostmsg.c ****   }
 676:src/hostmsg.c **** 
 677:src/hostmsg.c ****   /* 39. response code  */
 678:src/hostmsg.c ****   RSP_DATA.w_rspcode = '0'*256+'0'; // upload response does not have response code
 1928              		.loc 1 678 0
 1929 022e 43F23003 		movw	r3, #12336
 1930 0232 A5F86E35 		strh	r3, [r5, #1390]	@ movhi
 679:src/hostmsg.c ****   if (bitmap[4] & 0x02) {
 1931              		.loc 1 679 0
 1932 0236 9DF81030 		ldrb	r3, [sp, #16]	@ zero_extendqisi2
 1933 023a 9807     		lsls	r0, r3, #30
 1934 023c 04D5     		bpl	.L40
 680:src/hostmsg.c ****     RSP_DATA.w_rspcode=get_word();
 1935              		.loc 1 680 0
 1936 023e FFF7FEFF 		bl	get_word
 1937              	.LVL530:
 1938 0242 334B     		ldr	r3, .L118+12
 1939 0244 A3F86E05 		strh	r0, [r3, #1390]	@ movhi
 1940              	.L40:
 681:src/hostmsg.c **** //     printf("\x1b\xc0%02x: %c%c", RSP_DATA.w_rspcode, RSP_DATA.w_rspcode>>8, RSP_DATA.w_rspcode&0
 682:src/hostmsg.c **** //     Delay1Sec(3, 0);
 683:src/hostmsg.c ****   }
 684:src/hostmsg.c **** 
 685:src/hostmsg.c ****   /* 41. term id */
 686:src/hostmsg.c ****   if (bitmap[5] & 0x80) {
 1941              		.loc 1 686 0
 1942 0248 9DF91130 		ldrsb	r3, [sp, #17]
 1943 024c 002B     		cmp	r3, #0
 1944 024e 15DA     		bge	.L41
 687:src/hostmsg.c ****     if (!Match(STIS_ACQ_TBL(0).sb_term_id, 8)) {
 1945              		.loc 1 687 0
 1946 0250 3068     		ldr	r0, [r6]
 1947 0252 00F56779 		add	r9, r0, #924
 1948              	.LVL531:
 1949              	.LBB30:
 1950              	.LBB31:
  86:src/hostmsg.c ****   inc_pptr(aLen);
 1951              		.loc 1 86 0
 1952 0256 FFF7FEFF 		bl	get_pptr
 1953              	.LVL532:
 1954 025a 0822     		movs	r2, #8
 1955 025c 0146     		mov	r1, r0
 1956 025e 4846     		mov	r0, r9
 1957 0260 FFF7FEFF 		bl	memcmp
 1958              	.LVL533:
 1959 0264 8146     		mov	r9, r0
 1960              	.LVL534:
  87:src/hostmsg.c ****   return(result);
 1961              		.loc 1 87 0
ARM GAS  C:\Users\AHMED~1.ELE\AppData\Local\Temp\ccWApJgZ.s 			page 48


 1962 0266 0820     		movs	r0, #8
 1963              	.LVL535:
 1964 0268 FFF7FEFF 		bl	inc_pptr
 1965              	.LVL536:
 1966              	.LBE31:
 1967              	.LBE30:
 1968              		.loc 1 687 0
 1969 026c B9F1000F 		cmp	r9, #0
 1970 0270 04D0     		beq	.L41
 688:src/hostmsg.c ****       RSP_DATA.w_rspcode = 'I'*256+'T';
 1971              		.loc 1 688 0
 1972 0272 44F65413 		movw	r3, #18772
 1973              	.LVL537:
 1974              	.L117:
 1975 0276 A5F86E35 		strh	r3, [r5, #1390]	@ movhi
 1976 027a 41E0     		b	.L115
 1977              	.LVL538:
 1978              	.L41:
 689:src/hostmsg.c ****       return TRANS_FAIL;
 690:src/hostmsg.c ****     }
 691:src/hostmsg.c ****   }
 692:src/hostmsg.c **** 
 693:src/hostmsg.c ****   /* 54. additional amount */
 694:src/hostmsg.c ****   RSP_DATA.dd_tip=0;
 695:src/hostmsg.c ****   if (bitmap[6] & 0x04) {
 1979              		.loc 1 695 0
 1980 027c 9DF81210 		ldrb	r1, [sp, #18]	@ zero_extendqisi2
 694:src/hostmsg.c ****   if (bitmap[6] & 0x04) {
 1981              		.loc 1 694 0
 1982 0280 0022     		movs	r2, #0
 1983 0282 2F4B     		ldr	r3, .L118+60
 1984 0284 9346     		mov	fp, r2
 1985              		.loc 1 695 0
 1986 0286 11F0040F 		tst	r1, #4
 694:src/hostmsg.c ****   if (bitmap[6] & 0x04) {
 1987              		.loc 1 694 0
 1988 028a 83E80408 		stmia	r3, {r2, fp}
 1989 028e 9946     		mov	r9, r3
 1990              		.loc 1 695 0
 1991 0290 1FD0     		beq	.L42
 1992 0292 0192     		str	r2, [sp, #4]
 696:src/hostmsg.c ****     RSP_DATA.dd_tip = BcdBin8b(get_pptr(),(BYTE)(bcd2bin(get_word())/2));
 1993              		.loc 1 696 0
 1994 0294 FFF7FEFF 		bl	get_pptr
 1995              	.LVL539:
 1996 0298 0090     		str	r0, [sp]
 1997 029a FFF7FEFF 		bl	get_word
 1998              	.LVL540:
 1999 029e FFF7FEFF 		bl	bcd2bin
 2000              	.LVL541:
 2001              	.LBB32:
 2002              	.LBB33:
 103:src/hostmsg.c ****     split(buffer,aSrc,aLen);
 2003              		.loc 1 103 0
 2004 02a2 9DE80600 		ldmia	sp, {r1, r2}
 2005              	.LBE33:
 2006              	.LBE32:
ARM GAS  C:\Users\AHMED~1.ELE\AppData\Local\Temp\ccWApJgZ.s 			page 49


 2007              		.loc 1 696 0
 2008 02a6 C0F3470A 		ubfx	r10, r0, #1, #8
 2009              	.LVL542:
 2010              	.LBB37:
 2011              	.LBB36:
 103:src/hostmsg.c ****     split(buffer,aSrc,aLen);
 2012              		.loc 1 103 0
 2013 02aa BAF1060F 		cmp	r10, #6
 2014 02ae 0CD8     		bhi	.L60
 2015              	.LVL543:
 2016              	.LBB34:
 2017              	.LBB35:
 104:src/hostmsg.c ****     return decbin4b(buffer,(BYTE)(aLen*2));
 2018              		.loc 1 104 0
 2019 02b0 05A8     		add	r0, sp, #20
 2020 02b2 5246     		mov	r2, r10
 2021 02b4 FFF7FEFF 		bl	split
 2022              	.LVL544:
 105:src/hostmsg.c ****   }
 2023              		.loc 1 105 0
 2024 02b8 4FEA4A01 		lsl	r1, r10, #1
 2025 02bc 01F0FE01 		and	r1, r1, #254
 2026 02c0 05A8     		add	r0, sp, #20
 2027 02c2 FFF7FEFF 		bl	decbin4b
 2028              	.LVL545:
 2029 02c6 0021     		movs	r1, #0
 2030 02c8 01E0     		b	.L43
 2031              	.LVL546:
 2032              	.L60:
 2033              	.LBE35:
 2034              	.LBE34:
 107:src/hostmsg.c **** }
 2035              		.loc 1 107 0
 2036 02ca 1046     		mov	r0, r2
 2037 02cc 5946     		mov	r1, fp
 2038              	.LVL547:
 2039              	.L43:
 2040              	.LBE36:
 2041              	.LBE37:
 2042              		.loc 1 696 0
 2043 02ce C9E90001 		strd	r0, [r9]
 2044              	.LVL548:
 2045              	.L42:
 697:src/hostmsg.c ****   }
 698:src/hostmsg.c **** 
 699:src/hostmsg.c ****   /* 55. EMV relative data */
 700:src/hostmsg.c ****   RSP_DATA.s_icc_data.w_misc_len = 0;
 2046              		.loc 1 700 0
 2047 02d2 0023     		movs	r3, #0
 2048 02d4 DFF83890 		ldr	r9, .L118+12
 2049 02d8 A5F8B435 		strh	r3, [r5, #1460]	@ movhi
 701:src/hostmsg.c ****   if (bitmap[6] & 0x02) {
 2050              		.loc 1 701 0
 2051 02dc 9DF81230 		ldrb	r3, [sp, #18]	@ zero_extendqisi2
 2052 02e0 9907     		lsls	r1, r3, #30
 2053 02e2 32D5     		bpl	.L44
 702:src/hostmsg.c ****     RSP_DATA.s_icc_data.w_misc_len  = bcd2bin(get_word());
ARM GAS  C:\Users\AHMED~1.ELE\AppData\Local\Temp\ccWApJgZ.s 			page 50


 2054              		.loc 1 702 0
 2055 02e4 FFF7FEFF 		bl	get_word
 2056              	.LVL549:
 2057 02e8 FFF7FEFF 		bl	bcd2bin
 2058              	.LVL550:
 2059 02ec 81B2     		uxth	r1, r0
 703:src/hostmsg.c ****     if (RSP_DATA.s_icc_data.w_misc_len > sizeof(RSP_DATA.s_icc_data.sb_misc_content)) {
 2060              		.loc 1 703 0
 2061 02ee B1F5A57F 		cmp	r1, #330
 702:src/hostmsg.c ****     RSP_DATA.s_icc_data.w_misc_len  = bcd2bin(get_word());
 2062              		.loc 1 702 0
 2063 02f2 A9F8B415 		strh	r1, [r9, #1460]	@ movhi
 2064              		.loc 1 703 0
 2065 02f6 25D9     		bls	.L45
 704:src/hostmsg.c ****       RSP_DATA.w_rspcode = '9'*256 + '6';
 2066              		.loc 1 704 0
 2067 02f8 43F63613 		movw	r3, #14646
 2068 02fc A9F86E35 		strh	r3, [r9, #1390]	@ movhi
 2069              	.LVL551:
 2070              	.L115:
 705:src/hostmsg.c ****       return(TRANS_FAIL);
 2071              		.loc 1 705 0
 2072 0300 0224     		movs	r4, #2
 2073 0302 A9E0     		b	.L18
 2074              	.L119:
 2075              		.align	2
 2076              	.L118:
 2077 0304 85050000 		.word	gGTS+1413
 2078 0308 67050000 		.word	gGTS+1383
 2079 030c 71050000 		.word	gGTS+1393
 2080 0310 00000000 		.word	gGTS
 2081 0314 00000000 		.word	gGDS
 2082 0318 06000000 		.word	.LC1
 2083 031c 00000000 		.word	KTransBitmap
 2084 0320 11050000 		.word	gGTS+1297
 2085 0324 00050000 		.word	gGTS+1280
 2086 0328 00000000 		.word	KSetlPCode2
 2087 032c 20050000 		.word	gGTS+1312
 2088 0330 02030000 		.word	gGTS+770
 2089 0334 88050000 		.word	gGTS+1416
 2090 0338 86050000 		.word	gGTS+1414
 2091 033c 1B050000 		.word	gGTS+1307
 2092 0340 28050000 		.word	gGTS+1320
 2093              	.LVL552:
 2094              	.L45:
 706:src/hostmsg.c ****     }
 707:src/hostmsg.c ****     get_mem(RSP_DATA.s_icc_data.sb_misc_content, RSP_DATA.s_icc_data.w_misc_len);
 2095              		.loc 1 707 0
 2096 0344 4648     		ldr	r0, .L120
 2097 0346 FFF7FEFF 		bl	get_mem
 2098              	.LVL553:
 2099              	.L44:
 708:src/hostmsg.c ****   }
 709:src/hostmsg.c **** 
 710:src/hostmsg.c ****   /* 62. private field */
 711:src/hostmsg.c ****   if (bitmap[7] & 0x04) {
 2100              		.loc 1 711 0
ARM GAS  C:\Users\AHMED~1.ELE\AppData\Local\Temp\ccWApJgZ.s 			page 51


 2101 034a 9DF81330 		ldrb	r3, [sp, #19]	@ zero_extendqisi2
 2102 034e 5A07     		lsls	r2, r3, #29
 2103 0350 19D5     		bpl	.L46
 712:src/hostmsg.c ****     memset(RSP_DATA.sb_roc_no, 0xFF, 3);
 2104              		.loc 1 712 0
 2105 0352 FF21     		movs	r1, #255
 2106 0354 0322     		movs	r2, #3
 2107 0356 4348     		ldr	r0, .L120+4
 2108 0358 FFF7FEFF 		bl	memset
 2109              	.LVL554:
 713:src/hostmsg.c ****     var_i = bcd2bin(get_word());
 2110              		.loc 1 713 0
 2111 035c FFF7FEFF 		bl	get_word
 2112              	.LVL555:
 2113 0360 FFF7FEFF 		bl	bcd2bin
 2114              	.LVL556:
 714:src/hostmsg.c ****     if ((var_i == 6) && (peek_byte() != ' '))
 2115              		.loc 1 714 0
 2116 0364 0628     		cmp	r0, #6
 713:src/hostmsg.c ****     var_i = bcd2bin(get_word());
 2117              		.loc 1 713 0
 2118 0366 8146     		mov	r9, r0
 2119              	.LVL557:
 2120              		.loc 1 714 0
 2121 0368 0AD1     		bne	.L48
 2122              		.loc 1 714 0 is_stmt 0 discriminator 1
 2123 036a FFF7FEFF 		bl	peek_byte
 2124              	.LVL558:
 2125 036e 2028     		cmp	r0, #32
 2126 0370 06D0     		beq	.L48
 715:src/hostmsg.c ****       compress(RSP_DATA.sb_roc_no, get_pptr(), 3);
 2127              		.loc 1 715 0 is_stmt 1
 2128 0372 FFF7FEFF 		bl	get_pptr
 2129              	.LVL559:
 2130 0376 0322     		movs	r2, #3
 2131 0378 0146     		mov	r1, r0
 2132 037a 3A48     		ldr	r0, .L120+4
 2133 037c FFF7FEFF 		bl	compress
 2134              	.LVL560:
 2135              	.L48:
 716:src/hostmsg.c ****     inc_pptr(var_i);
 2136              		.loc 1 716 0
 2137 0380 4846     		mov	r0, r9
 2138 0382 FFF7FEFF 		bl	inc_pptr
 2139              	.LVL561:
 2140              	.L46:
 717:src/hostmsg.c ****   }
 718:src/hostmsg.c **** 
 719:src/hostmsg.c ****   /* 63. private field */
 720:src/hostmsg.c ****   if ((bitmap[7] & 0x02) != 0) {
 2141              		.loc 1 720 0
 2142 0386 9DF81330 		ldrb	r3, [sp, #19]	@ zero_extendqisi2
 2143 038a 9B07     		lsls	r3, r3, #30
 2144 038c 0CD5     		bpl	.L50
 721:src/hostmsg.c ****     var_i = bcd2bin(get_word());
 2145              		.loc 1 721 0
 2146 038e FFF7FEFF 		bl	get_word
ARM GAS  C:\Users\AHMED~1.ELE\AppData\Local\Temp\ccWApJgZ.s 			page 52


 2147              	.LVL562:
 2148 0392 FFF7FEFF 		bl	bcd2bin
 2149              	.LVL563:
 722:src/hostmsg.c ****     RSP_DATA.text[0] = (BYTE)((var_i > 69) ? 69 : var_i);
 2150              		.loc 1 722 0
 2151 0396 4528     		cmp	r0, #69
 2152 0398 94BF     		ite	ls
 2153 039a C1B2     		uxtbls	r1, r0
 2154 039c 4521     		movhi	r1, #69
 723:src/hostmsg.c ****     get_mem(&RSP_DATA.text[1], RSP_DATA.text[0]);
 2155              		.loc 1 723 0
 2156 039e 3248     		ldr	r0, .L120+8
 2157              	.LVL564:
 722:src/hostmsg.c ****     RSP_DATA.text[0] = (BYTE)((var_i > 69) ? 69 : var_i);
 2158              		.loc 1 722 0
 2159 03a0 85F80117 		strb	r1, [r5, #1793]
 2160              		.loc 1 723 0
 2161 03a4 FFF7FEFF 		bl	get_mem
 2162              	.LVL565:
 2163              	.L50:
 724:src/hostmsg.c ****   }
 725:src/hostmsg.c **** 
 726:src/hostmsg.c ****   if (sync_datetime == 0x18) // Date/time receive from Host.
 2164              		.loc 1 726 0
 2165 03a8 B8F1180F 		cmp	r8, #24
 2166 03ac 2FD1     		bne	.L52
 2167              	.LBB38:
 2168              	.LBB39:
 122:src/hostmsg.c ****   RSP_DATA.s_dtg.b_century = dtg.b_century;
 2169              		.loc 1 122 0
 2170 03ae 05A8     		add	r0, sp, #20
 2171 03b0 FFF7FEFF 		bl	ReadRTC
 2172              	.LVL566:
 123:src/hostmsg.c ****   RSP_DATA.s_dtg.b_year = dtg.b_year;
 2173              		.loc 1 123 0
 2174 03b4 9DF81430 		ldrb	r3, [sp, #20]	@ zero_extendqisi2
 126:src/hostmsg.c ****     bcdsub(&RSP_DATA.s_dtg.b_year,&tmp,1);
 2175              		.loc 1 126 0
 2176 03b8 95F88625 		ldrb	r2, [r5, #1414]	@ zero_extendqisi2
 123:src/hostmsg.c ****   RSP_DATA.s_dtg.b_year = dtg.b_year;
 2177              		.loc 1 123 0
 2178 03bc 85F88435 		strb	r3, [r5, #1412]
 124:src/hostmsg.c ****   tmp = 1;
 2179              		.loc 1 124 0
 2180 03c0 9DF81530 		ldrb	r3, [sp, #21]	@ zero_extendqisi2
 126:src/hostmsg.c ****     bcdsub(&RSP_DATA.s_dtg.b_year,&tmp,1);
 2181              		.loc 1 126 0
 2182 03c4 122A     		cmp	r2, #18
 124:src/hostmsg.c ****   tmp = 1;
 2183              		.loc 1 124 0
 2184 03c6 85F88535 		strb	r3, [r5, #1413]
 125:src/hostmsg.c ****   if ((RSP_DATA.s_dtg.b_month == 0x12) && (dtg.b_month == 0x01))
 2185              		.loc 1 125 0
 2186 03ca 4FF00103 		mov	r3, #1
 2187 03ce 8DF80B30 		strb	r3, [sp, #11]
 126:src/hostmsg.c ****     bcdsub(&RSP_DATA.s_dtg.b_year,&tmp,1);
 2188              		.loc 1 126 0
ARM GAS  C:\Users\AHMED~1.ELE\AppData\Local\Temp\ccWApJgZ.s 			page 53


 2189 03d2 09D1     		bne	.L53
 2190 03d4 9DF81620 		ldrb	r2, [sp, #22]	@ zero_extendqisi2
 2191 03d8 9A42     		cmp	r2, r3
 2192 03da 10D1     		bne	.L54
 127:src/hostmsg.c ****   else
 2193              		.loc 1 127 0
 2194 03dc 0DF10B01 		add	r1, sp, #11
 2195 03e0 2248     		ldr	r0, .L120+12
 2196 03e2 FFF7FEFF 		bl	bcdsub
 2197              	.LVL567:
 2198 03e6 0AE0     		b	.L54
 2199              	.L53:
 129:src/hostmsg.c ****       bcdadd(&RSP_DATA.s_dtg.b_year,&tmp,1);
 2200              		.loc 1 129 0
 2201 03e8 012A     		cmp	r2, #1
 2202 03ea 08D1     		bne	.L54
 2203 03ec 9DF81630 		ldrb	r3, [sp, #22]	@ zero_extendqisi2
 2204 03f0 122B     		cmp	r3, #18
 2205 03f2 04D1     		bne	.L54
 130:src/hostmsg.c ****   ByteCopy((BYTE *)&dtg, (BYTE *)&RSP_DATA.s_dtg, sizeof(struct DATETIME));
 2206              		.loc 1 130 0
 2207 03f4 1D48     		ldr	r0, .L120+12
 2208 03f6 0DF10B01 		add	r1, sp, #11
 2209 03fa FFF7FEFF 		bl	bcdadd
 2210              	.LVL568:
 2211              	.L54:
 131:src/hostmsg.c ****   SetRTC(&dtg);
 2212              		.loc 1 131 0
 2213 03fe 05A8     		add	r0, sp, #20
 2214 0400 1B49     		ldr	r1, .L120+16
 2215 0402 0822     		movs	r2, #8
 2216 0404 FFF7FEFF 		bl	ByteCopy
 2217              	.LVL569:
 132:src/hostmsg.c **** }
 2218              		.loc 1 132 0
 2219 0408 05A8     		add	r0, sp, #20
 2220 040a FFF7FEFF 		bl	SetRTC
 2221              	.LVL570:
 2222              	.L52:
 2223              	.LBE39:
 2224              	.LBE38:
 727:src/hostmsg.c ****     SyncHostDtg();
 728:src/hostmsg.c ****   if ((RSP_DATA.w_rspcode == '0'*256+'0') ||
 2225              		.loc 1 728 0
 2226 040e B5F86E35 		ldrh	r3, [r5, #1390]
 2227 0412 43F23002 		movw	r2, #12336
 2228 0416 23F00801 		bic	r1, r3, #8
 2229 041a 9142     		cmp	r1, r2
 2230 041c 03D0     		beq	.L55
 729:src/hostmsg.c ****       (RSP_DATA.w_rspcode == '0'*256+'8') ||
 2231              		.loc 1 729 0
 2232 041e 43F63801 		movw	r1, #14392
 2233 0422 8B42     		cmp	r3, r1
 2234 0424 08D1     		bne	.L56
 2235              	.L55:
 730:src/hostmsg.c ****       (RSP_DATA.w_rspcode == '8'*256+'8') )
 731:src/hostmsg.c ****   {
ARM GAS  C:\Users\AHMED~1.ELE\AppData\Local\Temp\ccWApJgZ.s 			page 54


 732:src/hostmsg.c ****     STIS_ACQ_TBL(0).b_status = UP;
 2236              		.loc 1 732 0
 2237 0426 0022     		movs	r2, #0
 2238 0428 3368     		ldr	r3, [r6]
 733:src/hostmsg.c ****     if (more_msg)
 734:src/hostmsg.c ****       return MORE_RSP;
 2239              		.loc 1 734 0
 2240 042a 9742     		cmp	r7, r2
 2241 042c 14BF     		ite	ne
 2242 042e 0424     		movne	r4, #4
 2243 0430 1446     		moveq	r4, r2
 732:src/hostmsg.c ****     if (more_msg)
 2244              		.loc 1 732 0
 2245 0432 83F8F023 		strb	r2, [r3, #1008]
 2246 0436 0FE0     		b	.L18
 2247              	.L56:
 735:src/hostmsg.c ****     return TRANS_ACP;
 736:src/hostmsg.c ****   }
 737:src/hostmsg.c ****   else if (RSP_DATA.w_rspcode == 'Z'*256+'1') {
 2248              		.loc 1 737 0
 2249 0438 45F63121 		movw	r1, #23089
 2250 043c 8B42     		cmp	r3, r1
 2251 043e 4FF00103 		mov	r3, #1
 2252 0442 08D1     		bne	.L63
 738:src/hostmsg.c ****     RSP_DATA.w_rspcode = '0'*256+'0';
 2253              		.loc 1 738 0
 2254 0444 0B49     		ldr	r1, .L120+20
 2255 0446 A1F86E25 		strh	r2, [r1, #1390]	@ movhi
 739:src/hostmsg.c ****     STIS_ACQ_TBL(0).b_status = DOWN;
 2256              		.loc 1 739 0
 2257 044a 3268     		ldr	r2, [r6]
 2258 044c 82F8F033 		strb	r3, [r2, #1008]
 740:src/hostmsg.c ****     return TRANS_ACP;
 2259              		.loc 1 740 0
 2260 0450 02E0     		b	.L18
 2261              	.LVL571:
 2262              	.L57:
 589:src/hostmsg.c ****   if ((KTransBitmap[TX_DATA.b_trans].w_txmsg_id + 0x10) != msg_id) {
 2263              		.loc 1 589 0
 2264 0452 FF24     		movs	r4, #255
 2265 0454 00E0     		b	.L18
 2266              	.LVL572:
 2267              	.L63:
 741:src/hostmsg.c ****   }
 742:src/hostmsg.c ****   else
 743:src/hostmsg.c ****     return TRANS_REJ;
 2268              		.loc 1 743 0
 2269 0456 1C46     		mov	r4, r3
 2270              	.LVL573:
 2271              	.L18:
 744:src/hostmsg.c **** }
 2272              		.loc 1 744 0
 2273 0458 2046     		mov	r0, r4
 2274 045a 09B0     		add	sp, sp, #36
 2275              		.cfi_def_cfa_offset 36
 2276              		@ sp needed
 2277 045c BDE8F08F 		pop	{r4, r5, r6, r7, r8, r9, r10, fp, pc}
ARM GAS  C:\Users\AHMED~1.ELE\AppData\Local\Temp\ccWApJgZ.s 			page 55


 2278              	.L121:
 2279              		.align	2
 2280              	.L120:
 2281 0460 B6050000 		.word	gGTS+1462
 2282 0464 0E050000 		.word	gGTS+1294
 2283 0468 02070000 		.word	gGTS+1794
 2284 046c 85050000 		.word	gGTS+1413
 2285 0470 84050000 		.word	gGTS+1412
 2286 0474 00000000 		.word	gGTS
 2287              		.cfi_endproc
 2288              	.LFE6:
 2289              		.size	CheckHostRsp, .-CheckHostRsp
 2290              		.section	.rodata.str1.1,"aMS",%progbits,1
 2291              	.LC0:
 2292 0000 54784D73 		.ascii	"TxMsg\000"
 2292      6700
 2293              	.LC1:
 2294 0006 52784D73 		.ascii	"RxMsg\000"
 2294      6700
 2295              		.text
 2296              	.Letext0:
 2297              		.file 2 "c:\\devtools\\gcc_v49_2014q4\\lib\\gcc\\arm-none-eabi\\4.9.3\\include\\stddef.h"
 2298              		.file 3 "../LibA5T1000/common.h"
 2299              		.file 4 "../LibA5T1000/emv2dll.h"
 2300              		.file 5 "../LibA5T1000/emvcl2dll.h"
 2301              		.file 6 "../LibA5T1000/ecrdll.h"
 2302              		.file 7 "../LibA5T1000/midware.h"
 2303              		.file 8 "../LibA5T1000/apm.h"
 2304              		.file 9 "src/sysutil.h"
 2305              		.file 10 "src/corevar.h"
 2306              		.file 11 "src/constant.h"
 2307              		.file 12 "src/message.h"
 2308              		.file 13 "src/tranutil.h"
 2309              		.file 14 "src/auxcom.h"
 2310              		.file 15 "../LibA5T1000/util.h"
 2311              		.file 16 "c:\\devtools\\gcc_v49_2014q4\\arm-none-eabi\\include\\string.h"
 2312              		.file 17 "src/chkoptn.h"
 2313              		.section	.debug_info,"",%progbits
 2314              	.Ldebug_info0:
 2315 0000 C1490000 		.4byte	0x49c1
 2316 0004 0400     		.2byte	0x4
 2317 0006 00000000 		.4byte	.Ldebug_abbrev0
 2318 000a 04       		.byte	0x4
 2319 000b 01       		.uleb128 0x1
 2320 000c 750C0000 		.4byte	.LASF503
 2321 0010 01       		.byte	0x1
 2322 0011 C2050000 		.4byte	.LASF504
 2323 0015 54030000 		.4byte	.LASF505
 2324 0019 30000000 		.4byte	.Ldebug_ranges0+0x30
 2325 001d 00000000 		.4byte	0
 2326 0021 00000000 		.4byte	.Ldebug_line0
 2327 0025 02       		.uleb128 0x2
 2328 0026 01       		.byte	0x1
 2329 0027 06       		.byte	0x6
 2330 0028 0F010000 		.4byte	.LASF0
 2331 002c 02       		.uleb128 0x2
 2332 002d 01       		.byte	0x1
ARM GAS  C:\Users\AHMED~1.ELE\AppData\Local\Temp\ccWApJgZ.s 			page 56


 2333 002e 08       		.byte	0x8
 2334 002f D4060000 		.4byte	.LASF1
 2335 0033 02       		.uleb128 0x2
 2336 0034 02       		.byte	0x2
 2337 0035 05       		.byte	0x5
 2338 0036 46160000 		.4byte	.LASF2
 2339 003a 02       		.uleb128 0x2
 2340 003b 02       		.byte	0x2
 2341 003c 07       		.byte	0x7
 2342 003d 71190000 		.4byte	.LASF3
 2343 0041 02       		.uleb128 0x2
 2344 0042 04       		.byte	0x4
 2345 0043 05       		.byte	0x5
 2346 0044 12110000 		.4byte	.LASF4
 2347 0048 02       		.uleb128 0x2
 2348 0049 04       		.byte	0x4
 2349 004a 07       		.byte	0x7
 2350 004b BC0B0000 		.4byte	.LASF5
 2351 004f 02       		.uleb128 0x2
 2352 0050 08       		.byte	0x8
 2353 0051 05       		.byte	0x5
 2354 0052 5E0E0000 		.4byte	.LASF6
 2355 0056 02       		.uleb128 0x2
 2356 0057 08       		.byte	0x8
 2357 0058 07       		.byte	0x7
 2358 0059 EE120000 		.4byte	.LASF7
 2359 005d 03       		.uleb128 0x3
 2360 005e 04       		.byte	0x4
 2361 005f 05       		.byte	0x5
 2362 0060 696E7400 		.ascii	"int\000"
 2363 0064 02       		.uleb128 0x2
 2364 0065 04       		.byte	0x4
 2365 0066 07       		.byte	0x7
 2366 0067 890F0000 		.4byte	.LASF8
 2367 006b 04       		.uleb128 0x4
 2368 006c FD180000 		.4byte	.LASF11
 2369 0070 02       		.byte	0x2
 2370 0071 D4       		.byte	0xd4
 2371 0072 64000000 		.4byte	0x64
 2372 0076 05       		.uleb128 0x5
 2373 0077 04       		.byte	0x4
 2374 0078 02       		.uleb128 0x2
 2375 0079 04       		.byte	0x4
 2376 007a 07       		.byte	0x7
 2377 007b 57000000 		.4byte	.LASF9
 2378 007f 02       		.uleb128 0x2
 2379 0080 01       		.byte	0x1
 2380 0081 06       		.byte	0x6
 2381 0082 1F080000 		.4byte	.LASF10
 2382 0086 04       		.uleb128 0x4
 2383 0087 D7080000 		.4byte	.LASF12
 2384 008b 03       		.byte	0x3
 2385 008c 0D       		.byte	0xd
 2386 008d 2C000000 		.4byte	0x2c
 2387 0091 04       		.uleb128 0x4
 2388 0092 B0030000 		.4byte	.LASF13
 2389 0096 03       		.byte	0x3
ARM GAS  C:\Users\AHMED~1.ELE\AppData\Local\Temp\ccWApJgZ.s 			page 57


 2390 0097 0E       		.byte	0xe
 2391 0098 2C000000 		.4byte	0x2c
 2392 009c 04       		.uleb128 0x4
 2393 009d 5B120000 		.4byte	.LASF14
 2394 00a1 03       		.byte	0x3
 2395 00a2 0F       		.byte	0xf
 2396 00a3 3A000000 		.4byte	0x3a
 2397 00a7 04       		.uleb128 0x4
 2398 00a8 8D110000 		.4byte	.LASF15
 2399 00ac 03       		.byte	0x3
 2400 00ad 10       		.byte	0x10
 2401 00ae 64000000 		.4byte	0x64
 2402 00b2 04       		.uleb128 0x4
 2403 00b3 220B0000 		.4byte	.LASF16
 2404 00b7 03       		.byte	0x3
 2405 00b8 11       		.byte	0x11
 2406 00b9 56000000 		.4byte	0x56
 2407 00bd 06       		.uleb128 0x6
 2408 00be 04       		.byte	0x4
 2409 00bf C3000000 		.4byte	0xc3
 2410 00c3 07       		.uleb128 0x7
 2411 00c4 91000000 		.4byte	0x91
 2412 00c8 08       		.uleb128 0x8
 2413 00c9 91000000 		.4byte	0x91
 2414 00cd D8000000 		.4byte	0xd8
 2415 00d1 09       		.uleb128 0x9
 2416 00d2 78000000 		.4byte	0x78
 2417 00d6 01       		.byte	0x1
 2418 00d7 00       		.byte	0
 2419 00d8 06       		.uleb128 0x6
 2420 00d9 04       		.byte	0x4
 2421 00da 91000000 		.4byte	0x91
 2422 00de 08       		.uleb128 0x8
 2423 00df 91000000 		.4byte	0x91
 2424 00e3 EE000000 		.4byte	0xee
 2425 00e7 09       		.uleb128 0x9
 2426 00e8 78000000 		.4byte	0x78
 2427 00ec 03       		.byte	0x3
 2428 00ed 00       		.byte	0
 2429 00ee 0A       		.uleb128 0xa
 2430 00ef 08       		.byte	0x8
 2431 00f0 04       		.byte	0x4
 2432 00f1 58       		.byte	0x58
 2433 00f2 0F010000 		.4byte	0x10f
 2434 00f6 0B       		.uleb128 0xb
 2435 00f7 6F050000 		.4byte	.LASF17
 2436 00fb 04       		.byte	0x4
 2437 00fc 59       		.byte	0x59
 2438 00fd 9C000000 		.4byte	0x9c
 2439 0101 00       		.byte	0
 2440 0102 0B       		.uleb128 0xb
 2441 0103 C0180000 		.4byte	.LASF18
 2442 0107 04       		.byte	0x4
 2443 0108 5A       		.byte	0x5a
 2444 0109 D8000000 		.4byte	0xd8
 2445 010d 04       		.byte	0x4
 2446 010e 00       		.byte	0
ARM GAS  C:\Users\AHMED~1.ELE\AppData\Local\Temp\ccWApJgZ.s 			page 58


 2447 010f 04       		.uleb128 0x4
 2448 0110 40010000 		.4byte	.LASF19
 2449 0114 04       		.byte	0x4
 2450 0115 5B       		.byte	0x5b
 2451 0116 EE000000 		.4byte	0xee
 2452 011a 0C       		.uleb128 0xc
 2453 011b 544C00   		.ascii	"TL\000"
 2454 011e 04       		.byte	0x4
 2455 011f AD       		.byte	0xad
 2456 0120 2C000000 		.4byte	0x2c
 2457 0124 0A       		.uleb128 0xa
 2458 0125 08       		.byte	0x8
 2459 0126 04       		.byte	0x4
 2460 0127 B0       		.byte	0xb0
 2461 0128 51010000 		.4byte	0x151
 2462 012c 0B       		.uleb128 0xb
 2463 012d 6D120000 		.4byte	.LASF20
 2464 0131 04       		.byte	0x4
 2465 0132 B1       		.byte	0xb1
 2466 0133 9C000000 		.4byte	0x9c
 2467 0137 00       		.byte	0
 2468 0138 0B       		.uleb128 0xb
 2469 0139 DE040000 		.4byte	.LASF21
 2470 013d 04       		.byte	0x4
 2471 013e B2       		.byte	0xb2
 2472 013f 1A010000 		.4byte	0x11a
 2473 0143 02       		.byte	0x2
 2474 0144 0B       		.uleb128 0xb
 2475 0145 EF130000 		.4byte	.LASF22
 2476 0149 04       		.byte	0x4
 2477 014a B3       		.byte	0xb3
 2478 014b D8000000 		.4byte	0xd8
 2479 014f 04       		.byte	0x4
 2480 0150 00       		.byte	0
 2481 0151 04       		.uleb128 0x4
 2482 0152 1B0C0000 		.4byte	.LASF23
 2483 0156 04       		.byte	0x4
 2484 0157 B4       		.byte	0xb4
 2485 0158 24010000 		.4byte	0x124
 2486 015c 08       		.uleb128 0x8
 2487 015d 91000000 		.4byte	0x91
 2488 0161 6C010000 		.4byte	0x16c
 2489 0165 09       		.uleb128 0x9
 2490 0166 78000000 		.4byte	0x78
 2491 016a 04       		.byte	0x4
 2492 016b 00       		.byte	0
 2493 016c 08       		.uleb128 0x8
 2494 016d 91000000 		.4byte	0x91
 2495 0171 7C010000 		.4byte	0x17c
 2496 0175 09       		.uleb128 0x9
 2497 0176 78000000 		.4byte	0x78
 2498 017a 02       		.byte	0x2
 2499 017b 00       		.byte	0
 2500 017c 08       		.uleb128 0x8
 2501 017d 91000000 		.4byte	0x91
 2502 0181 8C010000 		.4byte	0x18c
 2503 0185 09       		.uleb128 0x9
ARM GAS  C:\Users\AHMED~1.ELE\AppData\Local\Temp\ccWApJgZ.s 			page 59


 2504 0186 78000000 		.4byte	0x78
 2505 018a 7F       		.byte	0x7f
 2506 018b 00       		.byte	0
 2507 018c 08       		.uleb128 0x8
 2508 018d 91000000 		.4byte	0x91
 2509 0191 9C010000 		.4byte	0x19c
 2510 0195 09       		.uleb128 0x9
 2511 0196 78000000 		.4byte	0x78
 2512 019a 09       		.byte	0x9
 2513 019b 00       		.byte	0
 2514 019c 08       		.uleb128 0x8
 2515 019d 91000000 		.4byte	0x91
 2516 01a1 AC010000 		.4byte	0x1ac
 2517 01a5 09       		.uleb128 0x9
 2518 01a6 78000000 		.4byte	0x78
 2519 01aa 1F       		.byte	0x1f
 2520 01ab 00       		.byte	0
 2521 01ac 08       		.uleb128 0x8
 2522 01ad 91000000 		.4byte	0x91
 2523 01b1 BC010000 		.4byte	0x1bc
 2524 01b5 09       		.uleb128 0x9
 2525 01b6 78000000 		.4byte	0x78
 2526 01ba 0F       		.byte	0xf
 2527 01bb 00       		.byte	0
 2528 01bc 08       		.uleb128 0x8
 2529 01bd 91000000 		.4byte	0x91
 2530 01c1 CC010000 		.4byte	0x1cc
 2531 01c5 09       		.uleb128 0x9
 2532 01c6 78000000 		.4byte	0x78
 2533 01ca 07       		.byte	0x7
 2534 01cb 00       		.byte	0
 2535 01cc 08       		.uleb128 0x8
 2536 01cd 91000000 		.4byte	0x91
 2537 01d1 DC010000 		.4byte	0x1dc
 2538 01d5 09       		.uleb128 0x9
 2539 01d6 78000000 		.4byte	0x78
 2540 01da 13       		.byte	0x13
 2541 01db 00       		.byte	0
 2542 01dc 08       		.uleb128 0x8
 2543 01dd 91000000 		.4byte	0x91
 2544 01e1 EC010000 		.4byte	0x1ec
 2545 01e5 09       		.uleb128 0x9
 2546 01e6 78000000 		.4byte	0x78
 2547 01ea 06       		.byte	0x6
 2548 01eb 00       		.byte	0
 2549 01ec 06       		.uleb128 0x6
 2550 01ed 04       		.byte	0x4
 2551 01ee F2010000 		.4byte	0x1f2
 2552 01f2 0D       		.uleb128 0xd
 2553 01f3 08       		.uleb128 0x8
 2554 01f4 91000000 		.4byte	0x91
 2555 01f8 03020000 		.4byte	0x203
 2556 01fc 09       		.uleb128 0x9
 2557 01fd 78000000 		.4byte	0x78
 2558 0201 05       		.byte	0x5
 2559 0202 00       		.byte	0
 2560 0203 0E       		.uleb128 0xe
ARM GAS  C:\Users\AHMED~1.ELE\AppData\Local\Temp\ccWApJgZ.s 			page 60


 2561 0204 08       		.byte	0x8
 2562 0205 05       		.byte	0x5
 2563 0206 2B01     		.2byte	0x12b
 2564 0208 27020000 		.4byte	0x227
 2565 020c 0F       		.uleb128 0xf
 2566 020d 6F050000 		.4byte	.LASF17
 2567 0211 05       		.byte	0x5
 2568 0212 2C01     		.2byte	0x12c
 2569 0214 9C000000 		.4byte	0x9c
 2570 0218 00       		.byte	0
 2571 0219 0F       		.uleb128 0xf
 2572 021a E1010000 		.4byte	.LASF24
 2573 021e 05       		.byte	0x5
 2574 021f 2D01     		.2byte	0x12d
 2575 0221 D8000000 		.4byte	0xd8
 2576 0225 04       		.byte	0x4
 2577 0226 00       		.byte	0
 2578 0227 10       		.uleb128 0x10
 2579 0228 F3040000 		.4byte	.LASF25
 2580 022c 05       		.byte	0x5
 2581 022d 2E01     		.2byte	0x12e
 2582 022f 03020000 		.4byte	0x203
 2583 0233 11       		.uleb128 0x11
 2584 0234 68020000 		.4byte	.LASF29
 2585 0238 0406     		.2byte	0x604
 2586 023a 06       		.byte	0x6
 2587 023b 22       		.byte	0x22
 2588 023c 65020000 		.4byte	0x265
 2589 0240 0B       		.uleb128 0xb
 2590 0241 F7180000 		.4byte	.LASF26
 2591 0245 06       		.byte	0x6
 2592 0246 23       		.byte	0x23
 2593 0247 91000000 		.4byte	0x91
 2594 024b 00       		.byte	0
 2595 024c 0B       		.uleb128 0xb
 2596 024d FA190000 		.4byte	.LASF27
 2597 0251 06       		.byte	0x6
 2598 0252 24       		.byte	0x24
 2599 0253 91000000 		.4byte	0x91
 2600 0257 01       		.byte	0x1
 2601 0258 0B       		.uleb128 0xb
 2602 0259 15030000 		.4byte	.LASF28
 2603 025d 06       		.byte	0x6
 2604 025e 25       		.byte	0x25
 2605 025f 65020000 		.4byte	0x265
 2606 0263 02       		.byte	0x2
 2607 0264 00       		.byte	0
 2608 0265 08       		.uleb128 0x8
 2609 0266 91000000 		.4byte	0x91
 2610 026a 76020000 		.4byte	0x276
 2611 026e 12       		.uleb128 0x12
 2612 026f 78000000 		.4byte	0x78
 2613 0273 FF05     		.2byte	0x5ff
 2614 0275 00       		.byte	0
 2615 0276 13       		.uleb128 0x13
 2616 0277 D7090000 		.4byte	.LASF30
 2617 027b A0       		.byte	0xa0
ARM GAS  C:\Users\AHMED~1.ELE\AppData\Local\Temp\ccWApJgZ.s 			page 61


 2618 027c 07       		.byte	0x7
 2619 027d 3002     		.2byte	0x230
 2620 027f 9E020000 		.4byte	0x29e
 2621 0283 0F       		.uleb128 0xf
 2622 0284 AC0E0000 		.4byte	.LASF31
 2623 0288 07       		.byte	0x7
 2624 0289 3102     		.2byte	0x231
 2625 028b 91000000 		.4byte	0x91
 2626 028f 00       		.byte	0
 2627 0290 0F       		.uleb128 0xf
 2628 0291 15030000 		.4byte	.LASF28
 2629 0295 07       		.byte	0x7
 2630 0296 3202     		.2byte	0x232
 2631 0298 9E020000 		.4byte	0x29e
 2632 029c 01       		.byte	0x1
 2633 029d 00       		.byte	0
 2634 029e 08       		.uleb128 0x8
 2635 029f 91000000 		.4byte	0x91
 2636 02a3 AE020000 		.4byte	0x2ae
 2637 02a7 09       		.uleb128 0x9
 2638 02a8 78000000 		.4byte	0x78
 2639 02ac 9D       		.byte	0x9d
 2640 02ad 00       		.byte	0
 2641 02ae 13       		.uleb128 0x13
 2642 02af CE0B0000 		.4byte	.LASF32
 2643 02b3 54       		.byte	0x54
 2644 02b4 07       		.byte	0x7
 2645 02b5 3902     		.2byte	0x239
 2646 02b7 D6020000 		.4byte	0x2d6
 2647 02bb 0F       		.uleb128 0xf
 2648 02bc AC0E0000 		.4byte	.LASF31
 2649 02c0 07       		.byte	0x7
 2650 02c1 3A02     		.2byte	0x23a
 2651 02c3 91000000 		.4byte	0x91
 2652 02c7 00       		.byte	0
 2653 02c8 0F       		.uleb128 0xf
 2654 02c9 15030000 		.4byte	.LASF28
 2655 02cd 07       		.byte	0x7
 2656 02ce 3B02     		.2byte	0x23b
 2657 02d0 D6020000 		.4byte	0x2d6
 2658 02d4 01       		.byte	0x1
 2659 02d5 00       		.byte	0
 2660 02d6 08       		.uleb128 0x8
 2661 02d7 91000000 		.4byte	0x91
 2662 02db E6020000 		.4byte	0x2e6
 2663 02df 09       		.uleb128 0x9
 2664 02e0 78000000 		.4byte	0x78
 2665 02e4 4F       		.byte	0x4f
 2666 02e5 00       		.byte	0
 2667 02e6 14       		.uleb128 0x14
 2668 02e7 350E0000 		.4byte	.LASF33
 2669 02eb 040C     		.2byte	0xc04
 2670 02ed 08       		.byte	0x8
 2671 02ee 1E01     		.2byte	0x11e
 2672 02f0 0F030000 		.4byte	0x30f
 2673 02f4 0F       		.uleb128 0xf
 2674 02f5 6F050000 		.4byte	.LASF17
ARM GAS  C:\Users\AHMED~1.ELE\AppData\Local\Temp\ccWApJgZ.s 			page 62


 2675 02f9 08       		.byte	0x8
 2676 02fa 1F01     		.2byte	0x11f
 2677 02fc 9C000000 		.4byte	0x9c
 2678 0300 00       		.byte	0
 2679 0301 0F       		.uleb128 0xf
 2680 0302 8D180000 		.4byte	.LASF34
 2681 0306 08       		.byte	0x8
 2682 0307 2001     		.2byte	0x120
 2683 0309 0F030000 		.4byte	0x30f
 2684 030d 02       		.byte	0x2
 2685 030e 00       		.byte	0
 2686 030f 08       		.uleb128 0x8
 2687 0310 91000000 		.4byte	0x91
 2688 0314 20030000 		.4byte	0x320
 2689 0318 12       		.uleb128 0x12
 2690 0319 78000000 		.4byte	0x78
 2691 031d FF0B     		.2byte	0xbff
 2692 031f 00       		.byte	0
 2693 0320 14       		.uleb128 0x14
 2694 0321 A3140000 		.4byte	.LASF35
 2695 0325 7001     		.2byte	0x170
 2696 0327 08       		.byte	0x8
 2697 0328 6401     		.2byte	0x164
 2698 032a 3C060000 		.4byte	0x63c
 2699 032e 0F       		.uleb128 0xf
 2700 032f 35130000 		.4byte	.LASF36
 2701 0333 08       		.byte	0x8
 2702 0334 6501     		.2byte	0x165
 2703 0336 91000000 		.4byte	0x91
 2704 033a 00       		.byte	0
 2705 033b 0F       		.uleb128 0xf
 2706 033c 6A1A0000 		.4byte	.LASF37
 2707 0340 08       		.byte	0x8
 2708 0341 6601     		.2byte	0x166
 2709 0343 91000000 		.4byte	0x91
 2710 0347 01       		.byte	0x1
 2711 0348 0F       		.uleb128 0xf
 2712 0349 3E110000 		.4byte	.LASF38
 2713 034d 08       		.byte	0x8
 2714 034e 6701     		.2byte	0x167
 2715 0350 3C060000 		.4byte	0x63c
 2716 0354 02       		.byte	0x2
 2717 0355 0F       		.uleb128 0xf
 2718 0356 251A0000 		.4byte	.LASF39
 2719 035a 08       		.byte	0x8
 2720 035b 6801     		.2byte	0x168
 2721 035d 91000000 		.4byte	0x91
 2722 0361 0B       		.byte	0xb
 2723 0362 0F       		.uleb128 0xf
 2724 0363 18050000 		.4byte	.LASF40
 2725 0367 08       		.byte	0x8
 2726 0368 6901     		.2byte	0x169
 2727 036a 4C060000 		.4byte	0x64c
 2728 036e 0C       		.byte	0xc
 2729 036f 0F       		.uleb128 0xf
 2730 0370 95190000 		.4byte	.LASF41
 2731 0374 08       		.byte	0x8
ARM GAS  C:\Users\AHMED~1.ELE\AppData\Local\Temp\ccWApJgZ.s 			page 63


 2732 0375 6A01     		.2byte	0x16a
 2733 0377 91000000 		.4byte	0x91
 2734 037b 18       		.byte	0x18
 2735 037c 0F       		.uleb128 0xf
 2736 037d AC0D0000 		.4byte	.LASF42
 2737 0381 08       		.byte	0x8
 2738 0382 6B01     		.2byte	0x16b
 2739 0384 91000000 		.4byte	0x91
 2740 0388 19       		.byte	0x19
 2741 0389 0F       		.uleb128 0xf
 2742 038a 40090000 		.4byte	.LASF43
 2743 038e 08       		.byte	0x8
 2744 038f 6C01     		.2byte	0x16c
 2745 0391 4C060000 		.4byte	0x64c
 2746 0395 1A       		.byte	0x1a
 2747 0396 0F       		.uleb128 0xf
 2748 0397 F9090000 		.4byte	.LASF44
 2749 039b 08       		.byte	0x8
 2750 039c 6D01     		.2byte	0x16d
 2751 039e 91000000 		.4byte	0x91
 2752 03a2 26       		.byte	0x26
 2753 03a3 0F       		.uleb128 0xf
 2754 03a4 74180000 		.4byte	.LASF45
 2755 03a8 08       		.byte	0x8
 2756 03a9 6E01     		.2byte	0x16e
 2757 03ab 91000000 		.4byte	0x91
 2758 03af 27       		.byte	0x27
 2759 03b0 0F       		.uleb128 0xf
 2760 03b1 66180000 		.4byte	.LASF46
 2761 03b5 08       		.byte	0x8
 2762 03b6 6F01     		.2byte	0x16f
 2763 03b8 91000000 		.4byte	0x91
 2764 03bc 28       		.byte	0x28
 2765 03bd 0F       		.uleb128 0xf
 2766 03be F50A0000 		.4byte	.LASF47
 2767 03c2 08       		.byte	0x8
 2768 03c3 7001     		.2byte	0x170
 2769 03c5 91000000 		.4byte	0x91
 2770 03c9 29       		.byte	0x29
 2771 03ca 0F       		.uleb128 0xf
 2772 03cb 0E1B0000 		.4byte	.LASF48
 2773 03cf 08       		.byte	0x8
 2774 03d0 7101     		.2byte	0x171
 2775 03d2 DE000000 		.4byte	0xde
 2776 03d6 2A       		.byte	0x2a
 2777 03d7 0F       		.uleb128 0xf
 2778 03d8 09060000 		.4byte	.LASF49
 2779 03dc 08       		.byte	0x8
 2780 03dd 7201     		.2byte	0x172
 2781 03df 6C010000 		.4byte	0x16c
 2782 03e3 2E       		.byte	0x2e
 2783 03e4 0F       		.uleb128 0xf
 2784 03e5 D4040000 		.4byte	.LASF50
 2785 03e9 08       		.byte	0x8
 2786 03ea 7301     		.2byte	0x173
 2787 03ec 6C010000 		.4byte	0x16c
 2788 03f0 31       		.byte	0x31
ARM GAS  C:\Users\AHMED~1.ELE\AppData\Local\Temp\ccWApJgZ.s 			page 64


 2789 03f1 0F       		.uleb128 0xf
 2790 03f2 B1060000 		.4byte	.LASF51
 2791 03f6 08       		.byte	0x8
 2792 03f7 7401     		.2byte	0x174
 2793 03f9 DE000000 		.4byte	0xde
 2794 03fd 34       		.byte	0x34
 2795 03fe 0F       		.uleb128 0xf
 2796 03ff 05050000 		.4byte	.LASF52
 2797 0403 08       		.byte	0x8
 2798 0404 7501     		.2byte	0x175
 2799 0406 C8000000 		.4byte	0xc8
 2800 040a 38       		.byte	0x38
 2801 040b 0F       		.uleb128 0xf
 2802 040c 6E0D0000 		.4byte	.LASF53
 2803 0410 08       		.byte	0x8
 2804 0411 7601     		.2byte	0x176
 2805 0413 C8000000 		.4byte	0xc8
 2806 0417 3A       		.byte	0x3a
 2807 0418 0F       		.uleb128 0xf
 2808 0419 C7040000 		.4byte	.LASF54
 2809 041d 08       		.byte	0x8
 2810 041e 7701     		.2byte	0x177
 2811 0420 91000000 		.4byte	0x91
 2812 0424 3C       		.byte	0x3c
 2813 0425 0F       		.uleb128 0xf
 2814 0426 500E0000 		.4byte	.LASF55
 2815 042a 08       		.byte	0x8
 2816 042b 7801     		.2byte	0x178
 2817 042d 91000000 		.4byte	0x91
 2818 0431 3D       		.byte	0x3d
 2819 0432 0F       		.uleb128 0xf
 2820 0433 46000000 		.4byte	.LASF56
 2821 0437 08       		.byte	0x8
 2822 0438 7901     		.2byte	0x179
 2823 043a 91000000 		.4byte	0x91
 2824 043e 3E       		.byte	0x3e
 2825 043f 0F       		.uleb128 0xf
 2826 0440 06040000 		.4byte	.LASF57
 2827 0444 08       		.byte	0x8
 2828 0445 7A01     		.2byte	0x17a
 2829 0447 9C000000 		.4byte	0x9c
 2830 044b 40       		.byte	0x40
 2831 044c 0F       		.uleb128 0xf
 2832 044d C00E0000 		.4byte	.LASF58
 2833 0451 08       		.byte	0x8
 2834 0452 7B01     		.2byte	0x17b
 2835 0454 9C000000 		.4byte	0x9c
 2836 0458 42       		.byte	0x42
 2837 0459 0F       		.uleb128 0xf
 2838 045a 910D0000 		.4byte	.LASF59
 2839 045e 08       		.byte	0x8
 2840 045f 7C01     		.2byte	0x17c
 2841 0461 B2000000 		.4byte	0xb2
 2842 0465 48       		.byte	0x48
 2843 0466 0F       		.uleb128 0xf
 2844 0467 81180000 		.4byte	.LASF60
 2845 046b 08       		.byte	0x8
ARM GAS  C:\Users\AHMED~1.ELE\AppData\Local\Temp\ccWApJgZ.s 			page 65


 2846 046c 7D01     		.2byte	0x17d
 2847 046e 91000000 		.4byte	0x91
 2848 0472 50       		.byte	0x50
 2849 0473 0F       		.uleb128 0xf
 2850 0474 F4100000 		.4byte	.LASF61
 2851 0478 08       		.byte	0x8
 2852 0479 7E01     		.2byte	0x17e
 2853 047b 91000000 		.4byte	0x91
 2854 047f 51       		.byte	0x51
 2855 0480 0F       		.uleb128 0xf
 2856 0481 11120000 		.4byte	.LASF62
 2857 0485 08       		.byte	0x8
 2858 0486 8001     		.2byte	0x180
 2859 0488 91000000 		.4byte	0x91
 2860 048c 52       		.byte	0x52
 2861 048d 0F       		.uleb128 0xf
 2862 048e CE0F0000 		.4byte	.LASF63
 2863 0492 08       		.byte	0x8
 2864 0493 8101     		.2byte	0x181
 2865 0495 C8000000 		.4byte	0xc8
 2866 0499 53       		.byte	0x53
 2867 049a 0F       		.uleb128 0xf
 2868 049b 8A070000 		.4byte	.LASF64
 2869 049f 08       		.byte	0x8
 2870 04a0 8201     		.2byte	0x182
 2871 04a2 DE000000 		.4byte	0xde
 2872 04a6 55       		.byte	0x55
 2873 04a7 0F       		.uleb128 0xf
 2874 04a8 170E0000 		.4byte	.LASF65
 2875 04ac 08       		.byte	0x8
 2876 04ad 8301     		.2byte	0x183
 2877 04af B2000000 		.4byte	0xb2
 2878 04b3 60       		.byte	0x60
 2879 04b4 0F       		.uleb128 0xf
 2880 04b5 70020000 		.4byte	.LASF66
 2881 04b9 08       		.byte	0x8
 2882 04ba 8401     		.2byte	0x184
 2883 04bc C8000000 		.4byte	0xc8
 2884 04c0 68       		.byte	0x68
 2885 04c1 0F       		.uleb128 0xf
 2886 04c2 C5060000 		.4byte	.LASF67
 2887 04c6 08       		.byte	0x8
 2888 04c7 8501     		.2byte	0x185
 2889 04c9 DE000000 		.4byte	0xde
 2890 04cd 6A       		.byte	0x6a
 2891 04ce 0F       		.uleb128 0xf
 2892 04cf 2F110000 		.4byte	.LASF68
 2893 04d3 08       		.byte	0x8
 2894 04d4 8601     		.2byte	0x186
 2895 04d6 B2000000 		.4byte	0xb2
 2896 04da 70       		.byte	0x70
 2897 04db 0F       		.uleb128 0xf
 2898 04dc DC0F0000 		.4byte	.LASF69
 2899 04e0 08       		.byte	0x8
 2900 04e1 8701     		.2byte	0x187
 2901 04e3 C8000000 		.4byte	0xc8
 2902 04e7 78       		.byte	0x78
ARM GAS  C:\Users\AHMED~1.ELE\AppData\Local\Temp\ccWApJgZ.s 			page 66


 2903 04e8 0F       		.uleb128 0xf
 2904 04e9 470F0000 		.4byte	.LASF70
 2905 04ed 08       		.byte	0x8
 2906 04ee 8801     		.2byte	0x188
 2907 04f0 DE000000 		.4byte	0xde
 2908 04f4 7A       		.byte	0x7a
 2909 04f5 0F       		.uleb128 0xf
 2910 04f6 B3190000 		.4byte	.LASF71
 2911 04fa 08       		.byte	0x8
 2912 04fb 8901     		.2byte	0x189
 2913 04fd B2000000 		.4byte	0xb2
 2914 0501 80       		.byte	0x80
 2915 0502 0F       		.uleb128 0xf
 2916 0503 5C0C0000 		.4byte	.LASF72
 2917 0507 08       		.byte	0x8
 2918 0508 8A01     		.2byte	0x18a
 2919 050a C8000000 		.4byte	0xc8
 2920 050e 88       		.byte	0x88
 2921 050f 0F       		.uleb128 0xf
 2922 0510 FF070000 		.4byte	.LASF73
 2923 0514 08       		.byte	0x8
 2924 0515 8B01     		.2byte	0x18b
 2925 0517 DE000000 		.4byte	0xde
 2926 051b 8A       		.byte	0x8a
 2927 051c 0F       		.uleb128 0xf
 2928 051d 60120000 		.4byte	.LASF74
 2929 0521 08       		.byte	0x8
 2930 0522 8C01     		.2byte	0x18c
 2931 0524 B2000000 		.4byte	0xb2
 2932 0528 90       		.byte	0x90
 2933 0529 0F       		.uleb128 0xf
 2934 052a BD020000 		.4byte	.LASF75
 2935 052e 08       		.byte	0x8
 2936 052f 8D01     		.2byte	0x18d
 2937 0531 C8000000 		.4byte	0xc8
 2938 0535 98       		.byte	0x98
 2939 0536 0F       		.uleb128 0xf
 2940 0537 7E030000 		.4byte	.LASF76
 2941 053b 08       		.byte	0x8
 2942 053c 8E01     		.2byte	0x18e
 2943 053e DE000000 		.4byte	0xde
 2944 0542 9A       		.byte	0x9a
 2945 0543 0F       		.uleb128 0xf
 2946 0544 B20E0000 		.4byte	.LASF77
 2947 0548 08       		.byte	0x8
 2948 0549 8F01     		.2byte	0x18f
 2949 054b B2000000 		.4byte	0xb2
 2950 054f A0       		.byte	0xa0
 2951 0550 0F       		.uleb128 0xf
 2952 0551 2F010000 		.4byte	.LASF78
 2953 0555 08       		.byte	0x8
 2954 0556 9001     		.2byte	0x190
 2955 0558 9C010000 		.4byte	0x19c
 2956 055c A8       		.byte	0xa8
 2957 055d 0F       		.uleb128 0xf
 2958 055e 2C020000 		.4byte	.LASF79
 2959 0562 08       		.byte	0x8
ARM GAS  C:\Users\AHMED~1.ELE\AppData\Local\Temp\ccWApJgZ.s 			page 67


 2960 0563 9101     		.2byte	0x191
 2961 0565 9C010000 		.4byte	0x19c
 2962 0569 C8       		.byte	0xc8
 2963 056a 0F       		.uleb128 0xf
 2964 056b CF0E0000 		.4byte	.LASF80
 2965 056f 08       		.byte	0x8
 2966 0570 9201     		.2byte	0x192
 2967 0572 9C010000 		.4byte	0x19c
 2968 0576 E8       		.byte	0xe8
 2969 0577 15       		.uleb128 0x15
 2970 0578 5A080000 		.4byte	.LASF81
 2971 057c 08       		.byte	0x8
 2972 057d 9301     		.2byte	0x193
 2973 057f 9C010000 		.4byte	0x19c
 2974 0583 0801     		.2byte	0x108
 2975 0585 15       		.uleb128 0x15
 2976 0586 32170000 		.4byte	.LASF82
 2977 058a 08       		.byte	0x8
 2978 058b 9401     		.2byte	0x194
 2979 058d DE000000 		.4byte	0xde
 2980 0591 2801     		.2byte	0x128
 2981 0593 15       		.uleb128 0x15
 2982 0594 67110000 		.4byte	.LASF83
 2983 0598 08       		.byte	0x8
 2984 0599 9501     		.2byte	0x195
 2985 059b C8000000 		.4byte	0xc8
 2986 059f 2C01     		.2byte	0x12c
 2987 05a1 15       		.uleb128 0x15
 2988 05a2 D90B0000 		.4byte	.LASF84
 2989 05a6 08       		.byte	0x8
 2990 05a7 9601     		.2byte	0x196
 2991 05a9 5C060000 		.4byte	0x65c
 2992 05ad 2E01     		.2byte	0x12e
 2993 05af 15       		.uleb128 0x15
 2994 05b0 9E050000 		.4byte	.LASF85
 2995 05b4 08       		.byte	0x8
 2996 05b5 9701     		.2byte	0x197
 2997 05b7 4C060000 		.4byte	0x64c
 2998 05bb 4701     		.2byte	0x147
 2999 05bd 15       		.uleb128 0x15
 3000 05be 0A0B0000 		.4byte	.LASF86
 3001 05c2 08       		.byte	0x8
 3002 05c3 9801     		.2byte	0x198
 3003 05c5 91000000 		.4byte	0x91
 3004 05c9 5301     		.2byte	0x153
 3005 05cb 15       		.uleb128 0x15
 3006 05cc 4A090000 		.4byte	.LASF87
 3007 05d0 08       		.byte	0x8
 3008 05d1 9901     		.2byte	0x199
 3009 05d3 91000000 		.4byte	0x91
 3010 05d7 5401     		.2byte	0x154
 3011 05d9 15       		.uleb128 0x15
 3012 05da E2090000 		.4byte	.LASF88
 3013 05de 08       		.byte	0x8
 3014 05df 9A01     		.2byte	0x19a
 3015 05e1 4C060000 		.4byte	0x64c
 3016 05e5 5501     		.2byte	0x155
ARM GAS  C:\Users\AHMED~1.ELE\AppData\Local\Temp\ccWApJgZ.s 			page 68


 3017 05e7 15       		.uleb128 0x15
 3018 05e8 95150000 		.4byte	.LASF89
 3019 05ec 08       		.byte	0x8
 3020 05ed 9B01     		.2byte	0x19b
 3021 05ef 91000000 		.4byte	0x91
 3022 05f3 6101     		.2byte	0x161
 3023 05f5 15       		.uleb128 0x15
 3024 05f6 38150000 		.4byte	.LASF90
 3025 05fa 08       		.byte	0x8
 3026 05fb 9C01     		.2byte	0x19c
 3027 05fd 91000000 		.4byte	0x91
 3028 0601 6201     		.2byte	0x162
 3029 0603 15       		.uleb128 0x15
 3030 0604 72140000 		.4byte	.LASF91
 3031 0608 08       		.byte	0x8
 3032 0609 9D01     		.2byte	0x19d
 3033 060b 91000000 		.4byte	0x91
 3034 060f 6301     		.2byte	0x163
 3035 0611 15       		.uleb128 0x15
 3036 0612 04190000 		.4byte	.LASF92
 3037 0616 08       		.byte	0x8
 3038 0617 9E01     		.2byte	0x19e
 3039 0619 9C000000 		.4byte	0x9c
 3040 061d 6401     		.2byte	0x164
 3041 061f 15       		.uleb128 0x15
 3042 0620 A90A0000 		.4byte	.LASF93
 3043 0624 08       		.byte	0x8
 3044 0625 9F01     		.2byte	0x19f
 3045 0627 91000000 		.4byte	0x91
 3046 062b 6601     		.2byte	0x166
 3047 062d 15       		.uleb128 0x15
 3048 062e 89050000 		.4byte	.LASF94
 3049 0632 08       		.byte	0x8
 3050 0633 A101     		.2byte	0x1a1
 3051 0635 A7000000 		.4byte	0xa7
 3052 0639 6801     		.2byte	0x168
 3053 063b 00       		.byte	0
 3054 063c 08       		.uleb128 0x8
 3055 063d 91000000 		.4byte	0x91
 3056 0641 4C060000 		.4byte	0x64c
 3057 0645 09       		.uleb128 0x9
 3058 0646 78000000 		.4byte	0x78
 3059 064a 08       		.byte	0x8
 3060 064b 00       		.byte	0
 3061 064c 08       		.uleb128 0x8
 3062 064d 91000000 		.4byte	0x91
 3063 0651 5C060000 		.4byte	0x65c
 3064 0655 09       		.uleb128 0x9
 3065 0656 78000000 		.4byte	0x78
 3066 065a 0B       		.byte	0xb
 3067 065b 00       		.byte	0
 3068 065c 08       		.uleb128 0x8
 3069 065d 91000000 		.4byte	0x91
 3070 0661 6C060000 		.4byte	0x66c
 3071 0665 09       		.uleb128 0x9
 3072 0666 78000000 		.4byte	0x78
 3073 066a 18       		.byte	0x18
ARM GAS  C:\Users\AHMED~1.ELE\AppData\Local\Temp\ccWApJgZ.s 			page 69


 3074 066b 00       		.byte	0
 3075 066c 14       		.uleb128 0x14
 3076 066d 3E0F0000 		.4byte	.LASF95
 3077 0671 8801     		.2byte	0x188
 3078 0673 08       		.byte	0x8
 3079 0674 AC01     		.2byte	0x1ac
 3080 0676 14080000 		.4byte	0x814
 3081 067a 0F       		.uleb128 0xf
 3082 067b 9F030000 		.4byte	.LASF96
 3083 067f 08       		.byte	0x8
 3084 0680 AD01     		.2byte	0x1ad
 3085 0682 91000000 		.4byte	0x91
 3086 0686 00       		.byte	0
 3087 0687 0F       		.uleb128 0xf
 3088 0688 6D0B0000 		.4byte	.LASF97
 3089 068c 08       		.byte	0x8
 3090 068d AE01     		.2byte	0x1ae
 3091 068f 91000000 		.4byte	0x91
 3092 0693 01       		.byte	0x1
 3093 0694 0F       		.uleb128 0xf
 3094 0695 DF080000 		.4byte	.LASF98
 3095 0699 08       		.byte	0x8
 3096 069a AF01     		.2byte	0x1af
 3097 069c 91000000 		.4byte	0x91
 3098 06a0 02       		.byte	0x2
 3099 06a1 0F       		.uleb128 0xf
 3100 06a2 E7080000 		.4byte	.LASF99
 3101 06a6 08       		.byte	0x8
 3102 06a7 B001     		.2byte	0x1b0
 3103 06a9 91000000 		.4byte	0x91
 3104 06ad 03       		.byte	0x3
 3105 06ae 0F       		.uleb128 0xf
 3106 06af F80E0000 		.4byte	.LASF100
 3107 06b3 08       		.byte	0x8
 3108 06b4 B101     		.2byte	0x1b1
 3109 06b6 F3010000 		.4byte	0x1f3
 3110 06ba 04       		.byte	0x4
 3111 06bb 0F       		.uleb128 0xf
 3112 06bc 3E060000 		.4byte	.LASF101
 3113 06c0 08       		.byte	0x8
 3114 06c1 B201     		.2byte	0x1b2
 3115 06c3 91000000 		.4byte	0x91
 3116 06c7 0A       		.byte	0xa
 3117 06c8 0F       		.uleb128 0xf
 3118 06c9 8B040000 		.4byte	.LASF102
 3119 06cd 08       		.byte	0x8
 3120 06ce B301     		.2byte	0x1b3
 3121 06d0 C8000000 		.4byte	0xc8
 3122 06d4 0B       		.byte	0xb
 3123 06d5 0F       		.uleb128 0xf
 3124 06d6 9E180000 		.4byte	.LASF103
 3125 06da 08       		.byte	0x8
 3126 06db B401     		.2byte	0x1b4
 3127 06dd 4C060000 		.4byte	0x64c
 3128 06e1 0D       		.byte	0xd
 3129 06e2 0F       		.uleb128 0xf
 3130 06e3 64050000 		.4byte	.LASF104
ARM GAS  C:\Users\AHMED~1.ELE\AppData\Local\Temp\ccWApJgZ.s 			page 70


 3131 06e7 08       		.byte	0x8
 3132 06e8 B501     		.2byte	0x1b5
 3133 06ea DE000000 		.4byte	0xde
 3134 06ee 19       		.byte	0x19
 3135 06ef 0F       		.uleb128 0xf
 3136 06f0 22100000 		.4byte	.LASF105
 3137 06f4 08       		.byte	0x8
 3138 06f5 B601     		.2byte	0x1b6
 3139 06f7 14080000 		.4byte	0x814
 3140 06fb 1D       		.byte	0x1d
 3141 06fc 0F       		.uleb128 0xf
 3142 06fd 4F0C0000 		.4byte	.LASF106
 3143 0701 08       		.byte	0x8
 3144 0702 B701     		.2byte	0x1b7
 3145 0704 24080000 		.4byte	0x824
 3146 0708 4B       		.byte	0x4b
 3147 0709 0F       		.uleb128 0xf
 3148 070a 2C0A0000 		.4byte	.LASF107
 3149 070e 08       		.byte	0x8
 3150 070f B801     		.2byte	0x1b8
 3151 0711 91000000 		.4byte	0x91
 3152 0715 62       		.byte	0x62
 3153 0716 0F       		.uleb128 0xf
 3154 0717 B3000000 		.4byte	.LASF108
 3155 071b 08       		.byte	0x8
 3156 071c B901     		.2byte	0x1b9
 3157 071e 91000000 		.4byte	0x91
 3158 0722 63       		.byte	0x63
 3159 0723 0F       		.uleb128 0xf
 3160 0724 1D1B0000 		.4byte	.LASF109
 3161 0728 08       		.byte	0x8
 3162 0729 BA01     		.2byte	0x1ba
 3163 072b 91000000 		.4byte	0x91
 3164 072f 64       		.byte	0x64
 3165 0730 0F       		.uleb128 0xf
 3166 0731 EF080000 		.4byte	.LASF110
 3167 0735 08       		.byte	0x8
 3168 0736 BB01     		.2byte	0x1bb
 3169 0738 91000000 		.4byte	0x91
 3170 073c 65       		.byte	0x65
 3171 073d 0F       		.uleb128 0xf
 3172 073e F5050000 		.4byte	.LASF111
 3173 0742 08       		.byte	0x8
 3174 0743 BC01     		.2byte	0x1bc
 3175 0745 91000000 		.4byte	0x91
 3176 0749 66       		.byte	0x66
 3177 074a 0F       		.uleb128 0xf
 3178 074b 0A0C0000 		.4byte	.LASF112
 3179 074f 08       		.byte	0x8
 3180 0750 BD01     		.2byte	0x1bd
 3181 0752 6C010000 		.4byte	0x16c
 3182 0756 67       		.byte	0x67
 3183 0757 0F       		.uleb128 0xf
 3184 0758 64160000 		.4byte	.LASF113
 3185 075c 08       		.byte	0x8
 3186 075d BE01     		.2byte	0x1be
 3187 075f 91000000 		.4byte	0x91
ARM GAS  C:\Users\AHMED~1.ELE\AppData\Local\Temp\ccWApJgZ.s 			page 71


 3188 0763 6A       		.byte	0x6a
 3189 0764 0F       		.uleb128 0xf
 3190 0765 C1030000 		.4byte	.LASF114
 3191 0769 08       		.byte	0x8
 3192 076a BF01     		.2byte	0x1bf
 3193 076c CC010000 		.4byte	0x1cc
 3194 0770 6B       		.byte	0x6b
 3195 0771 0F       		.uleb128 0xf
 3196 0772 58070000 		.4byte	.LASF115
 3197 0776 08       		.byte	0x8
 3198 0777 C001     		.2byte	0x1c0
 3199 0779 34080000 		.4byte	0x834
 3200 077d 7F       		.byte	0x7f
 3201 077e 0F       		.uleb128 0xf
 3202 077f 15070000 		.4byte	.LASF116
 3203 0783 08       		.byte	0x8
 3204 0784 C101     		.2byte	0x1c1
 3205 0786 AC010000 		.4byte	0x1ac
 3206 078a 9D       		.byte	0x9d
 3207 078b 0F       		.uleb128 0xf
 3208 078c C90D0000 		.4byte	.LASF117
 3209 0790 08       		.byte	0x8
 3210 0791 C201     		.2byte	0x1c2
 3211 0793 AC010000 		.4byte	0x1ac
 3212 0797 AD       		.byte	0xad
 3213 0798 0F       		.uleb128 0xf
 3214 0799 59180000 		.4byte	.LASF118
 3215 079d 08       		.byte	0x8
 3216 079e C301     		.2byte	0x1c3
 3217 07a0 9C010000 		.4byte	0x19c
 3218 07a4 BD       		.byte	0xbd
 3219 07a5 0F       		.uleb128 0xf
 3220 07a6 D50D0000 		.4byte	.LASF119
 3221 07aa 08       		.byte	0x8
 3222 07ab C401     		.2byte	0x1c4
 3223 07ad 9C010000 		.4byte	0x19c
 3224 07b1 DD       		.byte	0xdd
 3225 07b2 0F       		.uleb128 0xf
 3226 07b3 16190000 		.4byte	.LASF120
 3227 07b7 08       		.byte	0x8
 3228 07b8 C501     		.2byte	0x1c5
 3229 07ba 9C010000 		.4byte	0x19c
 3230 07be FD       		.byte	0xfd
 3231 07bf 15       		.uleb128 0x15
 3232 07c0 2A160000 		.4byte	.LASF121
 3233 07c4 08       		.byte	0x8
 3234 07c5 C601     		.2byte	0x1c6
 3235 07c7 9C010000 		.4byte	0x19c
 3236 07cb 1D01     		.2byte	0x11d
 3237 07cd 15       		.uleb128 0x15
 3238 07ce AD140000 		.4byte	.LASF122
 3239 07d2 08       		.byte	0x8
 3240 07d3 C701     		.2byte	0x1c7
 3241 07d5 9C010000 		.4byte	0x19c
 3242 07d9 3D01     		.2byte	0x13d
 3243 07db 15       		.uleb128 0x15
 3244 07dc 500D0000 		.4byte	.LASF123
ARM GAS  C:\Users\AHMED~1.ELE\AppData\Local\Temp\ccWApJgZ.s 			page 72


 3245 07e0 08       		.byte	0x8
 3246 07e1 C801     		.2byte	0x1c8
 3247 07e3 9C010000 		.4byte	0x19c
 3248 07e7 5D01     		.2byte	0x15d
 3249 07e9 15       		.uleb128 0x15
 3250 07ea E6120000 		.4byte	.LASF124
 3251 07ee 08       		.byte	0x8
 3252 07ef C901     		.2byte	0x1c9
 3253 07f1 DE000000 		.4byte	0xde
 3254 07f5 7D01     		.2byte	0x17d
 3255 07f7 15       		.uleb128 0x15
 3256 07f8 33000000 		.4byte	.LASF125
 3257 07fc 08       		.byte	0x8
 3258 07fd CA01     		.2byte	0x1ca
 3259 07ff C8000000 		.4byte	0xc8
 3260 0803 8101     		.2byte	0x181
 3261 0805 15       		.uleb128 0x15
 3262 0806 89050000 		.4byte	.LASF94
 3263 080a 08       		.byte	0x8
 3264 080b CB01     		.2byte	0x1cb
 3265 080d 9C000000 		.4byte	0x9c
 3266 0811 8401     		.2byte	0x184
 3267 0813 00       		.byte	0
 3268 0814 08       		.uleb128 0x8
 3269 0815 91000000 		.4byte	0x91
 3270 0819 24080000 		.4byte	0x824
 3271 081d 09       		.uleb128 0x9
 3272 081e 78000000 		.4byte	0x78
 3273 0822 2D       		.byte	0x2d
 3274 0823 00       		.byte	0
 3275 0824 08       		.uleb128 0x8
 3276 0825 91000000 		.4byte	0x91
 3277 0829 34080000 		.4byte	0x834
 3278 082d 09       		.uleb128 0x9
 3279 082e 78000000 		.4byte	0x78
 3280 0832 16       		.byte	0x16
 3281 0833 00       		.byte	0
 3282 0834 08       		.uleb128 0x8
 3283 0835 91000000 		.4byte	0x91
 3284 0839 44080000 		.4byte	0x844
 3285 083d 09       		.uleb128 0x9
 3286 083e 78000000 		.4byte	0x78
 3287 0842 1D       		.byte	0x1d
 3288 0843 00       		.byte	0
 3289 0844 13       		.uleb128 0x13
 3290 0845 F80F0000 		.4byte	.LASF126
 3291 0849 24       		.byte	0x24
 3292 084a 08       		.byte	0x8
 3293 084b CE01     		.2byte	0x1ce
 3294 084d AD080000 		.4byte	0x8ad
 3295 0851 0F       		.uleb128 0xf
 3296 0852 A0060000 		.4byte	.LASF127
 3297 0856 08       		.byte	0x8
 3298 0857 CF01     		.2byte	0x1cf
 3299 0859 5C010000 		.4byte	0x15c
 3300 085d 00       		.byte	0
 3301 085e 0F       		.uleb128 0xf
ARM GAS  C:\Users\AHMED~1.ELE\AppData\Local\Temp\ccWApJgZ.s 			page 73


 3302 085f 230E0000 		.4byte	.LASF128
 3303 0863 08       		.byte	0x8
 3304 0864 D001     		.2byte	0x1d0
 3305 0866 5C010000 		.4byte	0x15c
 3306 086a 05       		.byte	0x5
 3307 086b 0F       		.uleb128 0xf
 3308 086c 440D0000 		.4byte	.LASF129
 3309 0870 08       		.byte	0x8
 3310 0871 D101     		.2byte	0x1d1
 3311 0873 91000000 		.4byte	0x91
 3312 0877 0A       		.byte	0xa
 3313 0878 0F       		.uleb128 0xf
 3314 0879 EA020000 		.4byte	.LASF130
 3315 087d 08       		.byte	0x8
 3316 087e D201     		.2byte	0x1d2
 3317 0880 91000000 		.4byte	0x91
 3318 0884 0B       		.byte	0xb
 3319 0885 0F       		.uleb128 0xf
 3320 0886 AD150000 		.4byte	.LASF131
 3321 088a 08       		.byte	0x8
 3322 088b D301     		.2byte	0x1d3
 3323 088d 91000000 		.4byte	0x91
 3324 0891 0C       		.byte	0xc
 3325 0892 0F       		.uleb128 0xf
 3326 0893 58070000 		.4byte	.LASF115
 3327 0897 08       		.byte	0x8
 3328 0898 D401     		.2byte	0x1d4
 3329 089a CC010000 		.4byte	0x1cc
 3330 089e 0D       		.byte	0xd
 3331 089f 0F       		.uleb128 0xf
 3332 08a0 89050000 		.4byte	.LASF94
 3333 08a4 08       		.byte	0x8
 3334 08a5 D501     		.2byte	0x1d5
 3335 08a7 9C000000 		.4byte	0x9c
 3336 08ab 22       		.byte	0x22
 3337 08ac 00       		.byte	0
 3338 08ad 13       		.uleb128 0x13
 3339 08ae A5030000 		.4byte	.LASF132
 3340 08b2 38       		.byte	0x38
 3341 08b3 08       		.byte	0x8
 3342 08b4 D801     		.2byte	0x1d8
 3343 08b6 30090000 		.4byte	0x930
 3344 08ba 0F       		.uleb128 0xf
 3345 08bb 1E060000 		.4byte	.LASF133
 3346 08bf 08       		.byte	0x8
 3347 08c0 D901     		.2byte	0x1d9
 3348 08c2 91000000 		.4byte	0x91
 3349 08c6 00       		.byte	0
 3350 08c7 0F       		.uleb128 0xf
 3351 08c8 85170000 		.4byte	.LASF134
 3352 08cc 08       		.byte	0x8
 3353 08cd DA01     		.2byte	0x1da
 3354 08cf 8C010000 		.4byte	0x18c
 3355 08d3 01       		.byte	0x1
 3356 08d4 0F       		.uleb128 0xf
 3357 08d5 AF040000 		.4byte	.LASF135
 3358 08d9 08       		.byte	0x8
ARM GAS  C:\Users\AHMED~1.ELE\AppData\Local\Temp\ccWApJgZ.s 			page 74


 3359 08da DB01     		.2byte	0x1db
 3360 08dc 4C060000 		.4byte	0x64c
 3361 08e0 0B       		.byte	0xb
 3362 08e1 0F       		.uleb128 0xf
 3363 08e2 64050000 		.4byte	.LASF104
 3364 08e6 08       		.byte	0x8
 3365 08e7 DC01     		.2byte	0x1dc
 3366 08e9 DE000000 		.4byte	0xde
 3367 08ed 17       		.byte	0x17
 3368 08ee 0F       		.uleb128 0xf
 3369 08ef 8E010000 		.4byte	.LASF136
 3370 08f3 08       		.byte	0x8
 3371 08f4 DD01     		.2byte	0x1dd
 3372 08f6 91000000 		.4byte	0x91
 3373 08fa 1B       		.byte	0x1b
 3374 08fb 0F       		.uleb128 0xf
 3375 08fc 00000000 		.4byte	.LASF137
 3376 0900 08       		.byte	0x8
 3377 0901 DE01     		.2byte	0x1de
 3378 0903 C8000000 		.4byte	0xc8
 3379 0907 1C       		.byte	0x1c
 3380 0908 0F       		.uleb128 0xf
 3381 0909 9B1A0000 		.4byte	.LASF138
 3382 090d 08       		.byte	0x8
 3383 090e DF01     		.2byte	0x1df
 3384 0910 C8000000 		.4byte	0xc8
 3385 0914 1E       		.byte	0x1e
 3386 0915 0F       		.uleb128 0xf
 3387 0916 58070000 		.4byte	.LASF115
 3388 091a 08       		.byte	0x8
 3389 091b E001     		.2byte	0x1e0
 3390 091d CC010000 		.4byte	0x1cc
 3391 0921 20       		.byte	0x20
 3392 0922 0F       		.uleb128 0xf
 3393 0923 89050000 		.4byte	.LASF94
 3394 0927 08       		.byte	0x8
 3395 0928 E101     		.2byte	0x1e1
 3396 092a 9C000000 		.4byte	0x9c
 3397 092e 34       		.byte	0x34
 3398 092f 00       		.byte	0
 3399 0930 13       		.uleb128 0x13
 3400 0931 280F0000 		.4byte	.LASF139
 3401 0935 AC       		.byte	0xac
 3402 0936 08       		.byte	0x8
 3403 0937 EC01     		.2byte	0x1ec
 3404 0939 F80A0000 		.4byte	0xaf8
 3405 093d 0F       		.uleb128 0xf
 3406 093e 1E060000 		.4byte	.LASF133
 3407 0942 08       		.byte	0x8
 3408 0943 ED01     		.2byte	0x1ed
 3409 0945 91000000 		.4byte	0x91
 3410 0949 00       		.byte	0
 3411 094a 0F       		.uleb128 0xf
 3412 094b 7C0B0000 		.4byte	.LASF140
 3413 094f 08       		.byte	0x8
 3414 0950 EE01     		.2byte	0x1ee
 3415 0952 8C010000 		.4byte	0x18c
ARM GAS  C:\Users\AHMED~1.ELE\AppData\Local\Temp\ccWApJgZ.s 			page 75


 3416 0956 01       		.byte	0x1
 3417 0957 0F       		.uleb128 0xf
 3418 0958 410B0000 		.4byte	.LASF141
 3419 095c 08       		.byte	0x8
 3420 095d EF01     		.2byte	0x1ef
 3421 095f 8C010000 		.4byte	0x18c
 3422 0963 0B       		.byte	0xb
 3423 0964 0F       		.uleb128 0xf
 3424 0965 C40A0000 		.4byte	.LASF142
 3425 0969 08       		.byte	0x8
 3426 096a F001     		.2byte	0x1f0
 3427 096c 4C060000 		.4byte	0x64c
 3428 0970 15       		.byte	0x15
 3429 0971 0F       		.uleb128 0xf
 3430 0972 65080000 		.4byte	.LASF143
 3431 0976 08       		.byte	0x8
 3432 0977 F101     		.2byte	0x1f1
 3433 0979 91000000 		.4byte	0x91
 3434 097d 21       		.byte	0x21
 3435 097e 0F       		.uleb128 0xf
 3436 097f A90F0000 		.4byte	.LASF144
 3437 0983 08       		.byte	0x8
 3438 0984 F201     		.2byte	0x1f2
 3439 0986 91000000 		.4byte	0x91
 3440 098a 22       		.byte	0x22
 3441 098b 0F       		.uleb128 0xf
 3442 098c E20D0000 		.4byte	.LASF145
 3443 0990 08       		.byte	0x8
 3444 0991 F301     		.2byte	0x1f3
 3445 0993 4C060000 		.4byte	0x64c
 3446 0997 23       		.byte	0x23
 3447 0998 0F       		.uleb128 0xf
 3448 0999 081A0000 		.4byte	.LASF146
 3449 099d 08       		.byte	0x8
 3450 099e F401     		.2byte	0x1f4
 3451 09a0 91000000 		.4byte	0x91
 3452 09a4 2F       		.byte	0x2f
 3453 09a5 0F       		.uleb128 0xf
 3454 09a6 15150000 		.4byte	.LASF147
 3455 09aa 08       		.byte	0x8
 3456 09ab F501     		.2byte	0x1f5
 3457 09ad 91000000 		.4byte	0x91
 3458 09b1 30       		.byte	0x30
 3459 09b2 0F       		.uleb128 0xf
 3460 09b3 92170000 		.4byte	.LASF148
 3461 09b7 08       		.byte	0x8
 3462 09b8 F601     		.2byte	0x1f6
 3463 09ba 4C060000 		.4byte	0x64c
 3464 09be 31       		.byte	0x31
 3465 09bf 0F       		.uleb128 0xf
 3466 09c0 EF030000 		.4byte	.LASF149
 3467 09c4 08       		.byte	0x8
 3468 09c5 F701     		.2byte	0x1f7
 3469 09c7 91000000 		.4byte	0x91
 3470 09cb 3D       		.byte	0x3d
 3471 09cc 0F       		.uleb128 0xf
 3472 09cd 50160000 		.4byte	.LASF150
ARM GAS  C:\Users\AHMED~1.ELE\AppData\Local\Temp\ccWApJgZ.s 			page 76


 3473 09d1 08       		.byte	0x8
 3474 09d2 F801     		.2byte	0x1f8
 3475 09d4 91000000 		.4byte	0x91
 3476 09d8 3E       		.byte	0x3e
 3477 09d9 0F       		.uleb128 0xf
 3478 09da 5F170000 		.4byte	.LASF151
 3479 09de 08       		.byte	0x8
 3480 09df F901     		.2byte	0x1f9
 3481 09e1 4C060000 		.4byte	0x64c
 3482 09e5 3F       		.byte	0x3f
 3483 09e6 0F       		.uleb128 0xf
 3484 09e7 E8070000 		.4byte	.LASF152
 3485 09eb 08       		.byte	0x8
 3486 09ec FA01     		.2byte	0x1fa
 3487 09ee 91000000 		.4byte	0x91
 3488 09f2 4B       		.byte	0x4b
 3489 09f3 0F       		.uleb128 0xf
 3490 09f4 90130000 		.4byte	.LASF153
 3491 09f8 08       		.byte	0x8
 3492 09f9 FB01     		.2byte	0x1fb
 3493 09fb 91000000 		.4byte	0x91
 3494 09ff 4C       		.byte	0x4c
 3495 0a00 0F       		.uleb128 0xf
 3496 0a01 04070000 		.4byte	.LASF154
 3497 0a05 08       		.byte	0x8
 3498 0a06 FC01     		.2byte	0x1fc
 3499 0a08 91000000 		.4byte	0x91
 3500 0a0c 4D       		.byte	0x4d
 3501 0a0d 0F       		.uleb128 0xf
 3502 0a0e 64050000 		.4byte	.LASF104
 3503 0a12 08       		.byte	0x8
 3504 0a13 FD01     		.2byte	0x1fd
 3505 0a15 DE000000 		.4byte	0xde
 3506 0a19 4E       		.byte	0x4e
 3507 0a1a 0F       		.uleb128 0xf
 3508 0a1b 89100000 		.4byte	.LASF155
 3509 0a1f 08       		.byte	0x8
 3510 0a20 FE01     		.2byte	0x1fe
 3511 0a22 C8000000 		.4byte	0xc8
 3512 0a26 52       		.byte	0x52
 3513 0a27 0F       		.uleb128 0xf
 3514 0a28 3E110000 		.4byte	.LASF38
 3515 0a2c 08       		.byte	0x8
 3516 0a2d FF01     		.2byte	0x1ff
 3517 0a2f BC010000 		.4byte	0x1bc
 3518 0a33 54       		.byte	0x54
 3519 0a34 0F       		.uleb128 0xf
 3520 0a35 F7010000 		.4byte	.LASF156
 3521 0a39 08       		.byte	0x8
 3522 0a3a 0002     		.2byte	0x200
 3523 0a3c F80A0000 		.4byte	0xaf8
 3524 0a40 5C       		.byte	0x5c
 3525 0a41 0F       		.uleb128 0xf
 3526 0a42 7F150000 		.4byte	.LASF157
 3527 0a46 08       		.byte	0x8
 3528 0a47 0102     		.2byte	0x201
 3529 0a49 91000000 		.4byte	0x91
ARM GAS  C:\Users\AHMED~1.ELE\AppData\Local\Temp\ccWApJgZ.s 			page 77


 3530 0a4d 6B       		.byte	0x6b
 3531 0a4e 0F       		.uleb128 0xf
 3532 0a4f 441A0000 		.4byte	.LASF158
 3533 0a53 08       		.byte	0x8
 3534 0a54 0202     		.2byte	0x202
 3535 0a56 6C010000 		.4byte	0x16c
 3536 0a5a 6C       		.byte	0x6c
 3537 0a5b 0F       		.uleb128 0xf
 3538 0a5c 98020000 		.4byte	.LASF159
 3539 0a60 08       		.byte	0x8
 3540 0a61 0302     		.2byte	0x203
 3541 0a63 6C010000 		.4byte	0x16c
 3542 0a67 6F       		.byte	0x6f
 3543 0a68 0F       		.uleb128 0xf
 3544 0a69 68000000 		.4byte	.LASF160
 3545 0a6d 08       		.byte	0x8
 3546 0a6e 0402     		.2byte	0x204
 3547 0a70 24080000 		.4byte	0x824
 3548 0a74 72       		.byte	0x72
 3549 0a75 0F       		.uleb128 0xf
 3550 0a76 23140000 		.4byte	.LASF161
 3551 0a7a 08       		.byte	0x8
 3552 0a7b 0502     		.2byte	0x205
 3553 0a7d 91000000 		.4byte	0x91
 3554 0a81 89       		.byte	0x89
 3555 0a82 0F       		.uleb128 0xf
 3556 0a83 58070000 		.4byte	.LASF115
 3557 0a87 08       		.byte	0x8
 3558 0a88 0602     		.2byte	0x206
 3559 0a8a 080B0000 		.4byte	0xb08
 3560 0a8e 8A       		.byte	0x8a
 3561 0a8f 0F       		.uleb128 0xf
 3562 0a90 77040000 		.4byte	.LASF162
 3563 0a94 08       		.byte	0x8
 3564 0a95 0702     		.2byte	0x207
 3565 0a97 91000000 		.4byte	0x91
 3566 0a9b 9F       		.byte	0x9f
 3567 0a9c 0F       		.uleb128 0xf
 3568 0a9d 3A0C0000 		.4byte	.LASF163
 3569 0aa1 08       		.byte	0x8
 3570 0aa2 0802     		.2byte	0x208
 3571 0aa4 91000000 		.4byte	0x91
 3572 0aa8 A0       		.byte	0xa0
 3573 0aa9 0F       		.uleb128 0xf
 3574 0aaa 1E0A0000 		.4byte	.LASF164
 3575 0aae 08       		.byte	0x8
 3576 0aaf 0902     		.2byte	0x209
 3577 0ab1 91000000 		.4byte	0x91
 3578 0ab5 A1       		.byte	0xa1
 3579 0ab6 0F       		.uleb128 0xf
 3580 0ab7 B1060000 		.4byte	.LASF51
 3581 0abb 08       		.byte	0x8
 3582 0abc 0A02     		.2byte	0x20a
 3583 0abe DE000000 		.4byte	0xde
 3584 0ac2 A2       		.byte	0xa2
 3585 0ac3 0F       		.uleb128 0xf
 3586 0ac4 05050000 		.4byte	.LASF52
ARM GAS  C:\Users\AHMED~1.ELE\AppData\Local\Temp\ccWApJgZ.s 			page 78


 3587 0ac8 08       		.byte	0x8
 3588 0ac9 0B02     		.2byte	0x20b
 3589 0acb C8000000 		.4byte	0xc8
 3590 0acf A6       		.byte	0xa6
 3591 0ad0 0F       		.uleb128 0xf
 3592 0ad1 3D000000 		.4byte	.LASF165
 3593 0ad5 08       		.byte	0x8
 3594 0ad6 0C02     		.2byte	0x20c
 3595 0ad8 91000000 		.4byte	0x91
 3596 0adc A8       		.byte	0xa8
 3597 0add 0F       		.uleb128 0xf
 3598 0ade F1000000 		.4byte	.LASF166
 3599 0ae2 08       		.byte	0x8
 3600 0ae3 0D02     		.2byte	0x20d
 3601 0ae5 91000000 		.4byte	0x91
 3602 0ae9 A9       		.byte	0xa9
 3603 0aea 0F       		.uleb128 0xf
 3604 0aeb 89050000 		.4byte	.LASF94
 3605 0aef 08       		.byte	0x8
 3606 0af0 0E02     		.2byte	0x20e
 3607 0af2 9C000000 		.4byte	0x9c
 3608 0af6 AA       		.byte	0xaa
 3609 0af7 00       		.byte	0
 3610 0af8 08       		.uleb128 0x8
 3611 0af9 91000000 		.4byte	0x91
 3612 0afd 080B0000 		.4byte	0xb08
 3613 0b01 09       		.uleb128 0x9
 3614 0b02 78000000 		.4byte	0x78
 3615 0b06 0E       		.byte	0xe
 3616 0b07 00       		.byte	0
 3617 0b08 08       		.uleb128 0x8
 3618 0b09 91000000 		.4byte	0x91
 3619 0b0d 180B0000 		.4byte	0xb18
 3620 0b11 09       		.uleb128 0x9
 3621 0b12 78000000 		.4byte	0x78
 3622 0b16 14       		.byte	0x14
 3623 0b17 00       		.byte	0
 3624 0b18 13       		.uleb128 0x13
 3625 0b19 990E0000 		.4byte	.LASF167
 3626 0b1d 1C       		.byte	0x1c
 3627 0b1e 08       		.byte	0x8
 3628 0b1f 1102     		.2byte	0x211
 3629 0b21 5A0B0000 		.4byte	0xb5a
 3630 0b25 0F       		.uleb128 0xf
 3631 0b26 F7080000 		.4byte	.LASF168
 3632 0b2a 08       		.byte	0x8
 3633 0b2b 1202     		.2byte	0x212
 3634 0b2d 91000000 		.4byte	0x91
 3635 0b31 00       		.byte	0
 3636 0b32 0F       		.uleb128 0xf
 3637 0b33 7A1A0000 		.4byte	.LASF169
 3638 0b37 08       		.byte	0x8
 3639 0b38 1302     		.2byte	0x213
 3640 0b3a C8000000 		.4byte	0xc8
 3641 0b3e 01       		.byte	0x1
 3642 0b3f 0F       		.uleb128 0xf
 3643 0b40 7D0A0000 		.4byte	.LASF170
ARM GAS  C:\Users\AHMED~1.ELE\AppData\Local\Temp\ccWApJgZ.s 			page 79


 3644 0b44 08       		.byte	0x8
 3645 0b45 1402     		.2byte	0x214
 3646 0b47 CC010000 		.4byte	0x1cc
 3647 0b4b 03       		.byte	0x3
 3648 0b4c 0F       		.uleb128 0xf
 3649 0b4d 89050000 		.4byte	.LASF94
 3650 0b51 08       		.byte	0x8
 3651 0b52 1502     		.2byte	0x215
 3652 0b54 9C000000 		.4byte	0x9c
 3653 0b58 18       		.byte	0x18
 3654 0b59 00       		.byte	0
 3655 0b5a 16       		.uleb128 0x16
 3656 0b5b E6050000 		.4byte	.LASF171
 3657 0b5f 08       		.byte	0x8
 3658 0b60 09       		.byte	0x9
 3659 0b61 3A       		.byte	0x3a
 3660 0b62 BB0B0000 		.4byte	0xbbb
 3661 0b66 0B       		.uleb128 0xb
 3662 0b67 5A130000 		.4byte	.LASF172
 3663 0b6b 09       		.byte	0x9
 3664 0b6c 3B       		.byte	0x3b
 3665 0b6d 91000000 		.4byte	0x91
 3666 0b71 00       		.byte	0
 3667 0b72 0B       		.uleb128 0xb
 3668 0b73 08010000 		.4byte	.LASF173
 3669 0b77 09       		.byte	0x9
 3670 0b78 3C       		.byte	0x3c
 3671 0b79 91000000 		.4byte	0x91
 3672 0b7d 01       		.byte	0x1
 3673 0b7e 0B       		.uleb128 0xb
 3674 0b7f 0E000000 		.4byte	.LASF174
 3675 0b83 09       		.byte	0x9
 3676 0b84 3D       		.byte	0x3d
 3677 0b85 91000000 		.4byte	0x91
 3678 0b89 02       		.byte	0x2
 3679 0b8a 0B       		.uleb128 0xb
 3680 0b8b 4D150000 		.4byte	.LASF175
 3681 0b8f 09       		.byte	0x9
 3682 0b90 3E       		.byte	0x3e
 3683 0b91 91000000 		.4byte	0x91
 3684 0b95 03       		.byte	0x3
 3685 0b96 0B       		.uleb128 0xb
 3686 0b97 77030000 		.4byte	.LASF176
 3687 0b9b 09       		.byte	0x9
 3688 0b9c 3F       		.byte	0x3f
 3689 0b9d 91000000 		.4byte	0x91
 3690 0ba1 04       		.byte	0x4
 3691 0ba2 0B       		.uleb128 0xb
 3692 0ba3 01030000 		.4byte	.LASF177
 3693 0ba7 09       		.byte	0x9
 3694 0ba8 40       		.byte	0x40
 3695 0ba9 91000000 		.4byte	0x91
 3696 0bad 05       		.byte	0x5
 3697 0bae 0B       		.uleb128 0xb
 3698 0baf F8020000 		.4byte	.LASF178
 3699 0bb3 09       		.byte	0x9
 3700 0bb4 41       		.byte	0x41
ARM GAS  C:\Users\AHMED~1.ELE\AppData\Local\Temp\ccWApJgZ.s 			page 80


 3701 0bb5 91000000 		.4byte	0x91
 3702 0bb9 06       		.byte	0x6
 3703 0bba 00       		.byte	0
 3704 0bbb 11       		.uleb128 0x11
 3705 0bbc 01180000 		.4byte	.LASF179
 3706 0bc0 7401     		.2byte	0x174
 3707 0bc2 0A       		.byte	0xa
 3708 0bc3 5B       		.byte	0x5b
 3709 0bc4 290C0000 		.4byte	0xc29
 3710 0bc8 0B       		.uleb128 0xb
 3711 0bc9 A30D0000 		.4byte	.LASF180
 3712 0bcd 0A       		.byte	0xa
 3713 0bce 5C       		.byte	0x5c
 3714 0bcf AC010000 		.4byte	0x1ac
 3715 0bd3 00       		.byte	0
 3716 0bd4 0B       		.uleb128 0xb
 3717 0bd5 8E020000 		.4byte	.LASF181
 3718 0bd9 0A       		.byte	0xa
 3719 0bda 5D       		.byte	0x5d
 3720 0bdb 91000000 		.4byte	0x91
 3721 0bdf 10       		.byte	0x10
 3722 0be0 0B       		.uleb128 0xb
 3723 0be1 551A0000 		.4byte	.LASF182
 3724 0be5 0A       		.byte	0xa
 3725 0be6 5E       		.byte	0x5e
 3726 0be7 DC010000 		.4byte	0x1dc
 3727 0beb 11       		.byte	0x11
 3728 0bec 0B       		.uleb128 0xb
 3729 0bed F5150000 		.4byte	.LASF183
 3730 0bf1 0A       		.byte	0xa
 3731 0bf2 5F       		.byte	0x5f
 3732 0bf3 5C010000 		.4byte	0x15c
 3733 0bf7 18       		.byte	0x18
 3734 0bf8 0B       		.uleb128 0xb
 3735 0bf9 98160000 		.4byte	.LASF184
 3736 0bfd 0A       		.byte	0xa
 3737 0bfe 60       		.byte	0x60
 3738 0bff C8000000 		.4byte	0xc8
 3739 0c03 1D       		.byte	0x1d
 3740 0c04 0B       		.uleb128 0xb
 3741 0c05 2E050000 		.4byte	.LASF185
 3742 0c09 0A       		.byte	0xa
 3743 0c0a 61       		.byte	0x61
 3744 0c0b BC010000 		.4byte	0x1bc
 3745 0c0f 1F       		.byte	0x1f
 3746 0c10 0B       		.uleb128 0xb
 3747 0c11 ED0F0000 		.4byte	.LASF186
 3748 0c15 0A       		.byte	0xa
 3749 0c16 62       		.byte	0x62
 3750 0c17 9C000000 		.4byte	0x9c
 3751 0c1b 28       		.byte	0x28
 3752 0c1c 0B       		.uleb128 0xb
 3753 0c1d 2A0C0000 		.4byte	.LASF187
 3754 0c21 0A       		.byte	0xa
 3755 0c22 63       		.byte	0x63
 3756 0c23 290C0000 		.4byte	0xc29
 3757 0c27 2A       		.byte	0x2a
ARM GAS  C:\Users\AHMED~1.ELE\AppData\Local\Temp\ccWApJgZ.s 			page 81


 3758 0c28 00       		.byte	0
 3759 0c29 08       		.uleb128 0x8
 3760 0c2a 91000000 		.4byte	0x91
 3761 0c2e 3A0C0000 		.4byte	0xc3a
 3762 0c32 12       		.uleb128 0x12
 3763 0c33 78000000 		.4byte	0x78
 3764 0c37 4901     		.2byte	0x149
 3765 0c39 00       		.byte	0
 3766 0c3a 11       		.uleb128 0x11
 3767 0c3b 6C0E0000 		.4byte	.LASF188
 3768 0c3f 0002     		.2byte	0x200
 3769 0c41 0A       		.byte	0xa
 3770 0c42 66       		.byte	0x66
 3771 0c43 690D0000 		.4byte	0xd69
 3772 0c47 0B       		.uleb128 0xb
 3773 0c48 73110000 		.4byte	.LASF189
 3774 0c4c 0A       		.byte	0xa
 3775 0c4d 67       		.byte	0x67
 3776 0c4e 91000000 		.4byte	0x91
 3777 0c52 00       		.byte	0
 3778 0c53 0B       		.uleb128 0xb
 3779 0c54 91060000 		.4byte	.LASF190
 3780 0c58 0A       		.byte	0xa
 3781 0c59 67       		.byte	0x67
 3782 0c5a 91000000 		.4byte	0x91
 3783 0c5e 01       		.byte	0x1
 3784 0c5f 0B       		.uleb128 0xb
 3785 0c60 09060000 		.4byte	.LASF49
 3786 0c64 0A       		.byte	0xa
 3787 0c65 67       		.byte	0x67
 3788 0c66 6C010000 		.4byte	0x16c
 3789 0c6a 02       		.byte	0x2
 3790 0c6b 0B       		.uleb128 0xb
 3791 0c6c 18100000 		.4byte	.LASF191
 3792 0c70 0A       		.byte	0xa
 3793 0c71 67       		.byte	0x67
 3794 0c72 91000000 		.4byte	0x91
 3795 0c76 05       		.byte	0x5
 3796 0c77 0B       		.uleb128 0xb
 3797 0c78 D4040000 		.4byte	.LASF50
 3798 0c7c 0A       		.byte	0xa
 3799 0c7d 67       		.byte	0x67
 3800 0c7e 6C010000 		.4byte	0x16c
 3801 0c82 06       		.byte	0x6
 3802 0c83 0B       		.uleb128 0xb
 3803 0c84 64140000 		.4byte	.LASF192
 3804 0c88 0A       		.byte	0xa
 3805 0c89 67       		.byte	0x67
 3806 0c8a 8C010000 		.4byte	0x18c
 3807 0c8e 09       		.byte	0x9
 3808 0c8f 0B       		.uleb128 0xb
 3809 0c90 D3170000 		.4byte	.LASF193
 3810 0c94 0A       		.byte	0xa
 3811 0c95 67       		.byte	0x67
 3812 0c96 C8000000 		.4byte	0xc8
 3813 0c9a 13       		.byte	0x13
 3814 0c9b 0B       		.uleb128 0xb
ARM GAS  C:\Users\AHMED~1.ELE\AppData\Local\Temp\ccWApJgZ.s 			page 82


 3815 0c9c BF1A0000 		.4byte	.LASF194
 3816 0ca0 0A       		.byte	0xa
 3817 0ca1 67       		.byte	0x67
 3818 0ca2 91000000 		.4byte	0x91
 3819 0ca6 15       		.byte	0x15
 3820 0ca7 0B       		.uleb128 0xb
 3821 0ca8 A2160000 		.4byte	.LASF195
 3822 0cac 0A       		.byte	0xa
 3823 0cad 67       		.byte	0x67
 3824 0cae B2000000 		.4byte	0xb2
 3825 0cb2 18       		.byte	0x18
 3826 0cb3 0B       		.uleb128 0xb
 3827 0cb4 1B120000 		.4byte	.LASF196
 3828 0cb8 0A       		.byte	0xa
 3829 0cb9 67       		.byte	0x67
 3830 0cba B2000000 		.4byte	0xb2
 3831 0cbe 20       		.byte	0x20
 3832 0cbf 0B       		.uleb128 0xb
 3833 0cc0 7C070000 		.4byte	.LASF197
 3834 0cc4 0A       		.byte	0xa
 3835 0cc5 67       		.byte	0x67
 3836 0cc6 B2000000 		.4byte	0xb2
 3837 0cca 28       		.byte	0x28
 3838 0ccb 0B       		.uleb128 0xb
 3839 0ccc 5E0F0000 		.4byte	.LASF198
 3840 0cd0 0A       		.byte	0xa
 3841 0cd1 67       		.byte	0x67
 3842 0cd2 DE000000 		.4byte	0xde
 3843 0cd6 30       		.byte	0x30
 3844 0cd7 0B       		.uleb128 0xb
 3845 0cd8 EB0E0000 		.4byte	.LASF199
 3846 0cdc 0A       		.byte	0xa
 3847 0cdd 67       		.byte	0x67
 3848 0cde 91000000 		.4byte	0x91
 3849 0ce2 34       		.byte	0x34
 3850 0ce3 0B       		.uleb128 0xb
 3851 0ce4 B7150000 		.4byte	.LASF200
 3852 0ce8 0A       		.byte	0xa
 3853 0ce9 67       		.byte	0x67
 3854 0cea 690D0000 		.4byte	0xd69
 3855 0cee 35       		.byte	0x35
 3856 0cef 0B       		.uleb128 0xb
 3857 0cf0 5C110000 		.4byte	.LASF201
 3858 0cf4 0A       		.byte	0xa
 3859 0cf5 67       		.byte	0x67
 3860 0cf6 AC010000 		.4byte	0x1ac
 3861 0cfa 4F       		.byte	0x4f
 3862 0cfb 0B       		.uleb128 0xb
 3863 0cfc 04120000 		.4byte	.LASF202
 3864 0d00 0A       		.byte	0xa
 3865 0d01 67       		.byte	0x67
 3866 0d02 F3010000 		.4byte	0x1f3
 3867 0d06 5F       		.byte	0x5f
 3868 0d07 0B       		.uleb128 0xb
 3869 0d08 C3140000 		.4byte	.LASF203
 3870 0d0c 0A       		.byte	0xa
 3871 0d0d 67       		.byte	0x67
ARM GAS  C:\Users\AHMED~1.ELE\AppData\Local\Temp\ccWApJgZ.s 			page 83


 3872 0d0e 9C000000 		.4byte	0x9c
 3873 0d12 66       		.byte	0x66
 3874 0d13 0B       		.uleb128 0xb
 3875 0d14 B7010000 		.4byte	.LASF204
 3876 0d18 0A       		.byte	0xa
 3877 0d19 67       		.byte	0x67
 3878 0d1a 91000000 		.4byte	0x91
 3879 0d1e 68       		.byte	0x68
 3880 0d1f 0B       		.uleb128 0xb
 3881 0d20 41130000 		.4byte	.LASF205
 3882 0d24 0A       		.byte	0xa
 3883 0d25 67       		.byte	0x67
 3884 0d26 4C060000 		.4byte	0x64c
 3885 0d2a 69       		.byte	0x69
 3886 0d2b 0B       		.uleb128 0xb
 3887 0d2c 0A030000 		.4byte	.LASF206
 3888 0d30 0A       		.byte	0xa
 3889 0d31 67       		.byte	0x67
 3890 0d32 9C000000 		.4byte	0x9c
 3891 0d36 76       		.byte	0x76
 3892 0d37 0B       		.uleb128 0xb
 3893 0d38 8E0B0000 		.4byte	.LASF207
 3894 0d3c 0A       		.byte	0xa
 3895 0d3d 67       		.byte	0x67
 3896 0d3e 9C000000 		.4byte	0x9c
 3897 0d42 78       		.byte	0x78
 3898 0d43 0B       		.uleb128 0xb
 3899 0d44 12020000 		.4byte	.LASF208
 3900 0d48 0A       		.byte	0xa
 3901 0d49 67       		.byte	0x67
 3902 0d4a 5A0B0000 		.4byte	0xb5a
 3903 0d4e 7C       		.byte	0x7c
 3904 0d4f 0B       		.uleb128 0xb
 3905 0d50 21020000 		.4byte	.LASF209
 3906 0d54 0A       		.byte	0xa
 3907 0d55 67       		.byte	0x67
 3908 0d56 BB0B0000 		.4byte	0xbbb
 3909 0d5a 84       		.byte	0x84
 3910 0d5b 17       		.uleb128 0x17
 3911 0d5c 89050000 		.4byte	.LASF94
 3912 0d60 0A       		.byte	0xa
 3913 0d61 68       		.byte	0x68
 3914 0d62 9C000000 		.4byte	0x9c
 3915 0d66 F801     		.2byte	0x1f8
 3916 0d68 00       		.byte	0
 3917 0d69 08       		.uleb128 0x8
 3918 0d6a 91000000 		.4byte	0x91
 3919 0d6e 790D0000 		.4byte	0xd79
 3920 0d72 09       		.uleb128 0x9
 3921 0d73 78000000 		.4byte	0x78
 3922 0d77 19       		.byte	0x19
 3923 0d78 00       		.byte	0
 3924 0d79 11       		.uleb128 0x11
 3925 0d7a 40070000 		.4byte	.LASF210
 3926 0d7e F801     		.2byte	0x1f8
 3927 0d80 0A       		.byte	0xa
 3928 0d81 6B       		.byte	0x6b
ARM GAS  C:\Users\AHMED~1.ELE\AppData\Local\Temp\ccWApJgZ.s 			page 84


 3929 0d82 9B0E0000 		.4byte	0xe9b
 3930 0d86 0B       		.uleb128 0xb
 3931 0d87 73110000 		.4byte	.LASF189
 3932 0d8b 0A       		.byte	0xa
 3933 0d8c 6C       		.byte	0x6c
 3934 0d8d 91000000 		.4byte	0x91
 3935 0d91 00       		.byte	0
 3936 0d92 0B       		.uleb128 0xb
 3937 0d93 91060000 		.4byte	.LASF190
 3938 0d97 0A       		.byte	0xa
 3939 0d98 6C       		.byte	0x6c
 3940 0d99 91000000 		.4byte	0x91
 3941 0d9d 01       		.byte	0x1
 3942 0d9e 0B       		.uleb128 0xb
 3943 0d9f 09060000 		.4byte	.LASF49
 3944 0da3 0A       		.byte	0xa
 3945 0da4 6C       		.byte	0x6c
 3946 0da5 6C010000 		.4byte	0x16c
 3947 0da9 02       		.byte	0x2
 3948 0daa 0B       		.uleb128 0xb
 3949 0dab 18100000 		.4byte	.LASF191
 3950 0daf 0A       		.byte	0xa
 3951 0db0 6C       		.byte	0x6c
 3952 0db1 91000000 		.4byte	0x91
 3953 0db5 05       		.byte	0x5
 3954 0db6 0B       		.uleb128 0xb
 3955 0db7 D4040000 		.4byte	.LASF50
 3956 0dbb 0A       		.byte	0xa
 3957 0dbc 6C       		.byte	0x6c
 3958 0dbd 6C010000 		.4byte	0x16c
 3959 0dc1 06       		.byte	0x6
 3960 0dc2 0B       		.uleb128 0xb
 3961 0dc3 64140000 		.4byte	.LASF192
 3962 0dc7 0A       		.byte	0xa
 3963 0dc8 6C       		.byte	0x6c
 3964 0dc9 8C010000 		.4byte	0x18c
 3965 0dcd 09       		.byte	0x9
 3966 0dce 0B       		.uleb128 0xb
 3967 0dcf D3170000 		.4byte	.LASF193
 3968 0dd3 0A       		.byte	0xa
 3969 0dd4 6C       		.byte	0x6c
 3970 0dd5 C8000000 		.4byte	0xc8
 3971 0dd9 13       		.byte	0x13
 3972 0dda 0B       		.uleb128 0xb
 3973 0ddb BF1A0000 		.4byte	.LASF194
 3974 0ddf 0A       		.byte	0xa
 3975 0de0 6C       		.byte	0x6c
 3976 0de1 91000000 		.4byte	0x91
 3977 0de5 15       		.byte	0x15
 3978 0de6 0B       		.uleb128 0xb
 3979 0de7 A2160000 		.4byte	.LASF195
 3980 0deb 0A       		.byte	0xa
 3981 0dec 6C       		.byte	0x6c
 3982 0ded B2000000 		.4byte	0xb2
 3983 0df1 18       		.byte	0x18
 3984 0df2 0B       		.uleb128 0xb
 3985 0df3 1B120000 		.4byte	.LASF196
ARM GAS  C:\Users\AHMED~1.ELE\AppData\Local\Temp\ccWApJgZ.s 			page 85


 3986 0df7 0A       		.byte	0xa
 3987 0df8 6C       		.byte	0x6c
 3988 0df9 B2000000 		.4byte	0xb2
 3989 0dfd 20       		.byte	0x20
 3990 0dfe 0B       		.uleb128 0xb
 3991 0dff 7C070000 		.4byte	.LASF197
 3992 0e03 0A       		.byte	0xa
 3993 0e04 6C       		.byte	0x6c
 3994 0e05 B2000000 		.4byte	0xb2
 3995 0e09 28       		.byte	0x28
 3996 0e0a 0B       		.uleb128 0xb
 3997 0e0b 5E0F0000 		.4byte	.LASF198
 3998 0e0f 0A       		.byte	0xa
 3999 0e10 6C       		.byte	0x6c
 4000 0e11 DE000000 		.4byte	0xde
 4001 0e15 30       		.byte	0x30
 4002 0e16 0B       		.uleb128 0xb
 4003 0e17 EB0E0000 		.4byte	.LASF199
 4004 0e1b 0A       		.byte	0xa
 4005 0e1c 6C       		.byte	0x6c
 4006 0e1d 91000000 		.4byte	0x91
 4007 0e21 34       		.byte	0x34
 4008 0e22 0B       		.uleb128 0xb
 4009 0e23 B7150000 		.4byte	.LASF200
 4010 0e27 0A       		.byte	0xa
 4011 0e28 6C       		.byte	0x6c
 4012 0e29 690D0000 		.4byte	0xd69
 4013 0e2d 35       		.byte	0x35
 4014 0e2e 0B       		.uleb128 0xb
 4015 0e2f 5C110000 		.4byte	.LASF201
 4016 0e33 0A       		.byte	0xa
 4017 0e34 6C       		.byte	0x6c
 4018 0e35 AC010000 		.4byte	0x1ac
 4019 0e39 4F       		.byte	0x4f
 4020 0e3a 0B       		.uleb128 0xb
 4021 0e3b 04120000 		.4byte	.LASF202
 4022 0e3f 0A       		.byte	0xa
 4023 0e40 6C       		.byte	0x6c
 4024 0e41 F3010000 		.4byte	0x1f3
 4025 0e45 5F       		.byte	0x5f
 4026 0e46 0B       		.uleb128 0xb
 4027 0e47 C3140000 		.4byte	.LASF203
 4028 0e4b 0A       		.byte	0xa
 4029 0e4c 6C       		.byte	0x6c
 4030 0e4d 9C000000 		.4byte	0x9c
 4031 0e51 66       		.byte	0x66
 4032 0e52 0B       		.uleb128 0xb
 4033 0e53 B7010000 		.4byte	.LASF204
 4034 0e57 0A       		.byte	0xa
 4035 0e58 6C       		.byte	0x6c
 4036 0e59 91000000 		.4byte	0x91
 4037 0e5d 68       		.byte	0x68
 4038 0e5e 0B       		.uleb128 0xb
 4039 0e5f 41130000 		.4byte	.LASF205
 4040 0e63 0A       		.byte	0xa
 4041 0e64 6C       		.byte	0x6c
 4042 0e65 4C060000 		.4byte	0x64c
ARM GAS  C:\Users\AHMED~1.ELE\AppData\Local\Temp\ccWApJgZ.s 			page 86


 4043 0e69 69       		.byte	0x69
 4044 0e6a 0B       		.uleb128 0xb
 4045 0e6b 0A030000 		.4byte	.LASF206
 4046 0e6f 0A       		.byte	0xa
 4047 0e70 6C       		.byte	0x6c
 4048 0e71 9C000000 		.4byte	0x9c
 4049 0e75 76       		.byte	0x76
 4050 0e76 0B       		.uleb128 0xb
 4051 0e77 8E0B0000 		.4byte	.LASF207
 4052 0e7b 0A       		.byte	0xa
 4053 0e7c 6C       		.byte	0x6c
 4054 0e7d 9C000000 		.4byte	0x9c
 4055 0e81 78       		.byte	0x78
 4056 0e82 0B       		.uleb128 0xb
 4057 0e83 12020000 		.4byte	.LASF208
 4058 0e87 0A       		.byte	0xa
 4059 0e88 6C       		.byte	0x6c
 4060 0e89 5A0B0000 		.4byte	0xb5a
 4061 0e8d 7C       		.byte	0x7c
 4062 0e8e 0B       		.uleb128 0xb
 4063 0e8f 21020000 		.4byte	.LASF209
 4064 0e93 0A       		.byte	0xa
 4065 0e94 6C       		.byte	0x6c
 4066 0e95 BB0B0000 		.4byte	0xbbb
 4067 0e99 84       		.byte	0x84
 4068 0e9a 00       		.byte	0
 4069 0e9b 11       		.uleb128 0x11
 4070 0e9c FF150000 		.4byte	.LASF211
 4071 0ea0 0802     		.2byte	0x208
 4072 0ea2 0A       		.byte	0xa
 4073 0ea3 6F       		.byte	0x6f
 4074 0ea4 D70F0000 		.4byte	0xfd7
 4075 0ea8 0B       		.uleb128 0xb
 4076 0ea9 73110000 		.4byte	.LASF189
 4077 0ead 0A       		.byte	0xa
 4078 0eae 70       		.byte	0x70
 4079 0eaf 91000000 		.4byte	0x91
 4080 0eb3 00       		.byte	0
 4081 0eb4 0B       		.uleb128 0xb
 4082 0eb5 91060000 		.4byte	.LASF190
 4083 0eb9 0A       		.byte	0xa
 4084 0eba 70       		.byte	0x70
 4085 0ebb 91000000 		.4byte	0x91
 4086 0ebf 01       		.byte	0x1
 4087 0ec0 0B       		.uleb128 0xb
 4088 0ec1 09060000 		.4byte	.LASF49
 4089 0ec5 0A       		.byte	0xa
 4090 0ec6 70       		.byte	0x70
 4091 0ec7 6C010000 		.4byte	0x16c
 4092 0ecb 02       		.byte	0x2
 4093 0ecc 0B       		.uleb128 0xb
 4094 0ecd 18100000 		.4byte	.LASF191
 4095 0ed1 0A       		.byte	0xa
 4096 0ed2 70       		.byte	0x70
 4097 0ed3 91000000 		.4byte	0x91
 4098 0ed7 05       		.byte	0x5
 4099 0ed8 0B       		.uleb128 0xb
ARM GAS  C:\Users\AHMED~1.ELE\AppData\Local\Temp\ccWApJgZ.s 			page 87


 4100 0ed9 D4040000 		.4byte	.LASF50
 4101 0edd 0A       		.byte	0xa
 4102 0ede 70       		.byte	0x70
 4103 0edf 6C010000 		.4byte	0x16c
 4104 0ee3 06       		.byte	0x6
 4105 0ee4 0B       		.uleb128 0xb
 4106 0ee5 64140000 		.4byte	.LASF192
 4107 0ee9 0A       		.byte	0xa
 4108 0eea 70       		.byte	0x70
 4109 0eeb 8C010000 		.4byte	0x18c
 4110 0eef 09       		.byte	0x9
 4111 0ef0 0B       		.uleb128 0xb
 4112 0ef1 D3170000 		.4byte	.LASF193
 4113 0ef5 0A       		.byte	0xa
 4114 0ef6 70       		.byte	0x70
 4115 0ef7 C8000000 		.4byte	0xc8
 4116 0efb 13       		.byte	0x13
 4117 0efc 0B       		.uleb128 0xb
 4118 0efd BF1A0000 		.4byte	.LASF194
 4119 0f01 0A       		.byte	0xa
 4120 0f02 70       		.byte	0x70
 4121 0f03 91000000 		.4byte	0x91
 4122 0f07 15       		.byte	0x15
 4123 0f08 0B       		.uleb128 0xb
 4124 0f09 A2160000 		.4byte	.LASF195
 4125 0f0d 0A       		.byte	0xa
 4126 0f0e 70       		.byte	0x70
 4127 0f0f B2000000 		.4byte	0xb2
 4128 0f13 18       		.byte	0x18
 4129 0f14 0B       		.uleb128 0xb
 4130 0f15 1B120000 		.4byte	.LASF196
 4131 0f19 0A       		.byte	0xa
 4132 0f1a 70       		.byte	0x70
 4133 0f1b B2000000 		.4byte	0xb2
 4134 0f1f 20       		.byte	0x20
 4135 0f20 0B       		.uleb128 0xb
 4136 0f21 7C070000 		.4byte	.LASF197
 4137 0f25 0A       		.byte	0xa
 4138 0f26 70       		.byte	0x70
 4139 0f27 B2000000 		.4byte	0xb2
 4140 0f2b 28       		.byte	0x28
 4141 0f2c 0B       		.uleb128 0xb
 4142 0f2d 5E0F0000 		.4byte	.LASF198
 4143 0f31 0A       		.byte	0xa
 4144 0f32 70       		.byte	0x70
 4145 0f33 DE000000 		.4byte	0xde
 4146 0f37 30       		.byte	0x30
 4147 0f38 0B       		.uleb128 0xb
 4148 0f39 EB0E0000 		.4byte	.LASF199
 4149 0f3d 0A       		.byte	0xa
 4150 0f3e 70       		.byte	0x70
 4151 0f3f 91000000 		.4byte	0x91
 4152 0f43 34       		.byte	0x34
 4153 0f44 0B       		.uleb128 0xb
 4154 0f45 B7150000 		.4byte	.LASF200
 4155 0f49 0A       		.byte	0xa
 4156 0f4a 70       		.byte	0x70
ARM GAS  C:\Users\AHMED~1.ELE\AppData\Local\Temp\ccWApJgZ.s 			page 88


 4157 0f4b 690D0000 		.4byte	0xd69
 4158 0f4f 35       		.byte	0x35
 4159 0f50 0B       		.uleb128 0xb
 4160 0f51 5C110000 		.4byte	.LASF201
 4161 0f55 0A       		.byte	0xa
 4162 0f56 70       		.byte	0x70
 4163 0f57 AC010000 		.4byte	0x1ac
 4164 0f5b 4F       		.byte	0x4f
 4165 0f5c 0B       		.uleb128 0xb
 4166 0f5d 04120000 		.4byte	.LASF202
 4167 0f61 0A       		.byte	0xa
 4168 0f62 70       		.byte	0x70
 4169 0f63 F3010000 		.4byte	0x1f3
 4170 0f67 5F       		.byte	0x5f
 4171 0f68 0B       		.uleb128 0xb
 4172 0f69 C3140000 		.4byte	.LASF203
 4173 0f6d 0A       		.byte	0xa
 4174 0f6e 70       		.byte	0x70
 4175 0f6f 9C000000 		.4byte	0x9c
 4176 0f73 66       		.byte	0x66
 4177 0f74 0B       		.uleb128 0xb
 4178 0f75 B7010000 		.4byte	.LASF204
 4179 0f79 0A       		.byte	0xa
 4180 0f7a 70       		.byte	0x70
 4181 0f7b 91000000 		.4byte	0x91
 4182 0f7f 68       		.byte	0x68
 4183 0f80 0B       		.uleb128 0xb
 4184 0f81 41130000 		.4byte	.LASF205
 4185 0f85 0A       		.byte	0xa
 4186 0f86 70       		.byte	0x70
 4187 0f87 4C060000 		.4byte	0x64c
 4188 0f8b 69       		.byte	0x69
 4189 0f8c 0B       		.uleb128 0xb
 4190 0f8d 0A030000 		.4byte	.LASF206
 4191 0f91 0A       		.byte	0xa
 4192 0f92 70       		.byte	0x70
 4193 0f93 9C000000 		.4byte	0x9c
 4194 0f97 76       		.byte	0x76
 4195 0f98 0B       		.uleb128 0xb
 4196 0f99 8E0B0000 		.4byte	.LASF207
 4197 0f9d 0A       		.byte	0xa
 4198 0f9e 70       		.byte	0x70
 4199 0f9f 9C000000 		.4byte	0x9c
 4200 0fa3 78       		.byte	0x78
 4201 0fa4 0B       		.uleb128 0xb
 4202 0fa5 12020000 		.4byte	.LASF208
 4203 0fa9 0A       		.byte	0xa
 4204 0faa 70       		.byte	0x70
 4205 0fab 5A0B0000 		.4byte	0xb5a
 4206 0faf 7C       		.byte	0x7c
 4207 0fb0 0B       		.uleb128 0xb
 4208 0fb1 21020000 		.4byte	.LASF209
 4209 0fb5 0A       		.byte	0xa
 4210 0fb6 70       		.byte	0x70
 4211 0fb7 BB0B0000 		.4byte	0xbbb
 4212 0fbb 84       		.byte	0x84
 4213 0fbc 17       		.uleb128 0x17
ARM GAS  C:\Users\AHMED~1.ELE\AppData\Local\Temp\ccWApJgZ.s 			page 89


 4214 0fbd DB000000 		.4byte	.LASF212
 4215 0fc1 0A       		.byte	0xa
 4216 0fc2 71       		.byte	0x71
 4217 0fc3 91000000 		.4byte	0x91
 4218 0fc7 F801     		.2byte	0x1f8
 4219 0fc9 17       		.uleb128 0x17
 4220 0fca CD020000 		.4byte	.LASF213
 4221 0fce 0A       		.byte	0xa
 4222 0fcf 72       		.byte	0x72
 4223 0fd0 B2000000 		.4byte	0xb2
 4224 0fd4 0002     		.2byte	0x200
 4225 0fd6 00       		.byte	0
 4226 0fd7 16       		.uleb128 0x16
 4227 0fd8 690F0000 		.4byte	.LASF214
 4228 0fdc 10       		.byte	0x10
 4229 0fdd 0A       		.byte	0xa
 4230 0fde 75       		.byte	0x75
 4231 0fdf FC0F0000 		.4byte	0xffc
 4232 0fe3 0B       		.uleb128 0xb
 4233 0fe4 83040000 		.4byte	.LASF215
 4234 0fe8 0A       		.byte	0xa
 4235 0fe9 76       		.byte	0x76
 4236 0fea 9C000000 		.4byte	0x9c
 4237 0fee 00       		.byte	0
 4238 0fef 0B       		.uleb128 0xb
 4239 0ff0 A2160000 		.4byte	.LASF195
 4240 0ff4 0A       		.byte	0xa
 4241 0ff5 77       		.byte	0x77
 4242 0ff6 B2000000 		.4byte	0xb2
 4243 0ffa 08       		.byte	0x8
 4244 0ffb 00       		.byte	0
 4245 0ffc 16       		.uleb128 0x16
 4246 0ffd 73130000 		.4byte	.LASF216
 4247 1001 68       		.byte	0x68
 4248 1002 0A       		.byte	0xa
 4249 1003 7A       		.byte	0x7a
 4250 1004 5D100000 		.4byte	0x105d
 4251 1008 0B       		.uleb128 0xb
 4252 1009 CE180000 		.4byte	.LASF217
 4253 100d 0A       		.byte	0xa
 4254 100e 7B       		.byte	0x7b
 4255 100f A7000000 		.4byte	0xa7
 4256 1013 00       		.byte	0
 4257 1014 0B       		.uleb128 0xb
 4258 1015 490B0000 		.4byte	.LASF218
 4259 1019 0A       		.byte	0xa
 4260 101a 7C       		.byte	0x7c
 4261 101b D70F0000 		.4byte	0xfd7
 4262 101f 08       		.byte	0x8
 4263 1020 0B       		.uleb128 0xb
 4264 1021 9E0A0000 		.4byte	.LASF219
 4265 1025 0A       		.byte	0xa
 4266 1026 7D       		.byte	0x7d
 4267 1027 D70F0000 		.4byte	0xfd7
 4268 102b 18       		.byte	0x18
 4269 102c 0B       		.uleb128 0xb
 4270 102d AA010000 		.4byte	.LASF220
ARM GAS  C:\Users\AHMED~1.ELE\AppData\Local\Temp\ccWApJgZ.s 			page 90


 4271 1031 0A       		.byte	0xa
 4272 1032 7E       		.byte	0x7e
 4273 1033 D70F0000 		.4byte	0xfd7
 4274 1037 28       		.byte	0x28
 4275 1038 0B       		.uleb128 0xb
 4276 1039 06020000 		.4byte	.LASF221
 4277 103d 0A       		.byte	0xa
 4278 103e 7F       		.byte	0x7f
 4279 103f D70F0000 		.4byte	0xfd7
 4280 1043 38       		.byte	0x38
 4281 1044 0B       		.uleb128 0xb
 4282 1045 5C1A0000 		.4byte	.LASF222
 4283 1049 0A       		.byte	0xa
 4284 104a 80       		.byte	0x80
 4285 104b D70F0000 		.4byte	0xfd7
 4286 104f 48       		.byte	0x48
 4287 1050 0B       		.uleb128 0xb
 4288 1051 E0120000 		.4byte	.LASF223
 4289 1055 0A       		.byte	0xa
 4290 1056 81       		.byte	0x81
 4291 1057 D70F0000 		.4byte	0xfd7
 4292 105b 58       		.byte	0x58
 4293 105c 00       		.byte	0
 4294 105d 11       		.uleb128 0x11
 4295 105e B2120000 		.4byte	.LASF224
 4296 1062 5805     		.2byte	0x558
 4297 1064 0A       		.byte	0xa
 4298 1065 86       		.byte	0x86
 4299 1066 AB100000 		.4byte	0x10ab
 4300 106a 0B       		.uleb128 0xb
 4301 106b FF100000 		.4byte	.LASF225
 4302 106f 0A       		.byte	0xa
 4303 1070 87       		.byte	0x87
 4304 1071 6C060000 		.4byte	0x66c
 4305 1075 00       		.byte	0
 4306 1076 17       		.uleb128 0x17
 4307 1077 7E0F0000 		.4byte	.LASF226
 4308 107b 0A       		.byte	0xa
 4309 107c 88       		.byte	0x88
 4310 107d AB100000 		.4byte	0x10ab
 4311 1081 8801     		.2byte	0x188
 4312 1083 17       		.uleb128 0x17
 4313 1084 770E0000 		.4byte	.LASF227
 4314 1088 0A       		.byte	0xa
 4315 1089 89       		.byte	0x89
 4316 108a BB100000 		.4byte	0x10bb
 4317 108e 4803     		.2byte	0x348
 4318 1090 17       		.uleb128 0x17
 4319 1091 97040000 		.4byte	.LASF228
 4320 1095 0A       		.byte	0xa
 4321 1096 8A       		.byte	0x8a
 4322 1097 CB100000 		.4byte	0x10cb
 4323 109b A004     		.2byte	0x4a0
 4324 109d 17       		.uleb128 0x17
 4325 109e AE110000 		.4byte	.LASF229
 4326 10a2 0A       		.byte	0xa
 4327 10a3 8B       		.byte	0x8b
ARM GAS  C:\Users\AHMED~1.ELE\AppData\Local\Temp\ccWApJgZ.s 			page 91


 4328 10a4 DB100000 		.4byte	0x10db
 4329 10a8 1005     		.2byte	0x510
 4330 10aa 00       		.byte	0
 4331 10ab 08       		.uleb128 0x8
 4332 10ac 180B0000 		.4byte	0xb18
 4333 10b0 BB100000 		.4byte	0x10bb
 4334 10b4 09       		.uleb128 0x9
 4335 10b5 78000000 		.4byte	0x78
 4336 10b9 0F       		.byte	0xf
 4337 10ba 00       		.byte	0
 4338 10bb 08       		.uleb128 0x8
 4339 10bc 30090000 		.4byte	0x930
 4340 10c0 CB100000 		.4byte	0x10cb
 4341 10c4 09       		.uleb128 0x9
 4342 10c5 78000000 		.4byte	0x78
 4343 10c9 01       		.byte	0x1
 4344 10ca 00       		.byte	0
 4345 10cb 08       		.uleb128 0x8
 4346 10cc AD080000 		.4byte	0x8ad
 4347 10d0 DB100000 		.4byte	0x10db
 4348 10d4 09       		.uleb128 0x9
 4349 10d5 78000000 		.4byte	0x78
 4350 10d9 01       		.byte	0x1
 4351 10da 00       		.byte	0
 4352 10db 08       		.uleb128 0x8
 4353 10dc 44080000 		.4byte	0x844
 4354 10e0 EB100000 		.4byte	0x10eb
 4355 10e4 09       		.uleb128 0x9
 4356 10e5 78000000 		.4byte	0x78
 4357 10e9 01       		.byte	0x1
 4358 10ea 00       		.byte	0
 4359 10eb 16       		.uleb128 0x16
 4360 10ec 290B0000 		.4byte	.LASF230
 4361 10f0 04       		.byte	0x4
 4362 10f1 0A       		.byte	0xa
 4363 10f2 8E       		.byte	0x8e
 4364 10f3 10110000 		.4byte	0x1110
 4365 10f7 0B       		.uleb128 0xb
 4366 10f8 F4090000 		.4byte	.LASF231
 4367 10fc 0A       		.byte	0xa
 4368 10fd 8F       		.byte	0x8f
 4369 10fe 91000000 		.4byte	0x91
 4370 1102 00       		.byte	0
 4371 1103 0B       		.uleb128 0xb
 4372 1104 3B010000 		.4byte	.LASF232
 4373 1108 0A       		.byte	0xa
 4374 1109 90       		.byte	0x90
 4375 110a 91000000 		.4byte	0x91
 4376 110e 01       		.byte	0x1
 4377 110f 00       		.byte	0
 4378 1110 11       		.uleb128 0x11
 4379 1111 3C170000 		.4byte	.LASF233
 4380 1115 040C     		.2byte	0xc04
 4381 1117 0A       		.byte	0xa
 4382 1118 9B       		.byte	0x9b
 4383 1119 36110000 		.4byte	0x1136
 4384 111d 0B       		.uleb128 0xb
ARM GAS  C:\Users\AHMED~1.ELE\AppData\Local\Temp\ccWApJgZ.s 			page 92


 4385 111e EF050000 		.4byte	.LASF234
 4386 1122 0A       		.byte	0xa
 4387 1123 9C       		.byte	0x9c
 4388 1124 A7000000 		.4byte	0xa7
 4389 1128 00       		.byte	0
 4390 1129 0B       		.uleb128 0xb
 4391 112a 15030000 		.4byte	.LASF28
 4392 112e 0A       		.byte	0xa
 4393 112f 9D       		.byte	0x9d
 4394 1130 0F030000 		.4byte	0x30f
 4395 1134 04       		.byte	0x4
 4396 1135 00       		.byte	0
 4397 1136 18       		.uleb128 0x18
 4398 1137 47445300 		.ascii	"GDS\000"
 4399 113b 6042     		.2byte	0x4260
 4400 113d 0A       		.byte	0xa
 4401 113e A1       		.byte	0xa1
 4402 113f 47120000 		.4byte	0x1247
 4403 1143 0B       		.uleb128 0xb
 4404 1144 B5030000 		.4byte	.LASF235
 4405 1148 0A       		.byte	0xa
 4406 1149 A3       		.byte	0xa3
 4407 114a 5D100000 		.4byte	0x105d
 4408 114e 00       		.byte	0
 4409 114f 17       		.uleb128 0x17
 4410 1150 53100000 		.4byte	.LASF236
 4411 1154 0A       		.byte	0xa
 4412 1155 A4       		.byte	0xa4
 4413 1156 20030000 		.4byte	0x320
 4414 115a 5805     		.2byte	0x558
 4415 115c 17       		.uleb128 0x17
 4416 115d C81A0000 		.4byte	.LASF237
 4417 1161 0A       		.byte	0xa
 4418 1162 A6       		.byte	0xa6
 4419 1163 3A0C0000 		.4byte	0xc3a
 4420 1167 C806     		.2byte	0x6c8
 4421 1169 17       		.uleb128 0x17
 4422 116a 50130000 		.4byte	.LASF238
 4423 116e 0A       		.byte	0xa
 4424 116f A7       		.byte	0xa7
 4425 1170 790D0000 		.4byte	0xd79
 4426 1174 C808     		.2byte	0x8c8
 4427 1176 17       		.uleb128 0x17
 4428 1177 15060000 		.4byte	.LASF239
 4429 117b 0A       		.byte	0xa
 4430 117c A8       		.byte	0xa8
 4431 117d 9B0E0000 		.4byte	0xe9b
 4432 1181 C00A     		.2byte	0xac0
 4433 1183 17       		.uleb128 0x17
 4434 1184 92090000 		.4byte	.LASF240
 4435 1188 0A       		.byte	0xa
 4436 1189 A9       		.byte	0xa9
 4437 118a FC0F0000 		.4byte	0xffc
 4438 118e C80C     		.2byte	0xcc8
 4439 1190 17       		.uleb128 0x17
 4440 1191 8F080000 		.4byte	.LASF241
 4441 1195 0A       		.byte	0xa
ARM GAS  C:\Users\AHMED~1.ELE\AppData\Local\Temp\ccWApJgZ.s 			page 93


 4442 1196 AA       		.byte	0xaa
 4443 1197 FC0F0000 		.4byte	0xffc
 4444 119b 300D     		.2byte	0xd30
 4445 119d 17       		.uleb128 0x17
 4446 119e 9A080000 		.4byte	.LASF242
 4447 11a2 0A       		.byte	0xa
 4448 11a3 AB       		.byte	0xab
 4449 11a4 10110000 		.4byte	0x1110
 4450 11a8 980D     		.2byte	0xd98
 4451 11aa 17       		.uleb128 0x17
 4452 11ab CD140000 		.4byte	.LASF243
 4453 11af 0A       		.byte	0xa
 4454 11b0 AC       		.byte	0xac
 4455 11b1 E6020000 		.4byte	0x2e6
 4456 11b5 9C19     		.2byte	0x199c
 4457 11b7 17       		.uleb128 0x17
 4458 11b8 560F0000 		.4byte	.LASF244
 4459 11bc 0A       		.byte	0xa
 4460 11bd AD       		.byte	0xad
 4461 11be E6020000 		.4byte	0x2e6
 4462 11c2 A025     		.2byte	0x25a0
 4463 11c4 17       		.uleb128 0x17
 4464 11c5 56170000 		.4byte	.LASF245
 4465 11c9 0A       		.byte	0xa
 4466 11ca AE       		.byte	0xae
 4467 11cb 47120000 		.4byte	0x1247
 4468 11cf A431     		.2byte	0x31a4
 4469 11d1 17       		.uleb128 0x17
 4470 11d2 001A0000 		.4byte	.LASF246
 4471 11d6 0A       		.byte	0xa
 4472 11d7 AF       		.byte	0xaf
 4473 11d8 0F010000 		.4byte	0x10f
 4474 11dc 8037     		.2byte	0x3780
 4475 11de 17       		.uleb128 0x17
 4476 11df 40120000 		.4byte	.LASF247
 4477 11e3 0A       		.byte	0xa
 4478 11e4 B0       		.byte	0xb0
 4479 11e5 0F010000 		.4byte	0x10f
 4480 11e9 8837     		.2byte	0x3788
 4481 11eb 17       		.uleb128 0x17
 4482 11ec 8D150000 		.4byte	.LASF248
 4483 11f0 0A       		.byte	0xa
 4484 11f1 B1       		.byte	0xb1
 4485 11f2 27020000 		.4byte	0x227
 4486 11f6 9037     		.2byte	0x3790
 4487 11f8 17       		.uleb128 0x17
 4488 11f9 53150000 		.4byte	.LASF249
 4489 11fd 0A       		.byte	0xa
 4490 11fe B2       		.byte	0xb2
 4491 11ff 27020000 		.4byte	0x227
 4492 1203 9837     		.2byte	0x3798
 4493 1205 17       		.uleb128 0x17
 4494 1206 5C150000 		.4byte	.LASF250
 4495 120a 0A       		.byte	0xa
 4496 120b B3       		.byte	0xb3
 4497 120c 58120000 		.4byte	0x1258
 4498 1210 A037     		.2byte	0x37a0
ARM GAS  C:\Users\AHMED~1.ELE\AppData\Local\Temp\ccWApJgZ.s 			page 94


 4499 1212 17       		.uleb128 0x17
 4500 1213 A7000000 		.4byte	.LASF251
 4501 1217 0A       		.byte	0xa
 4502 1218 B4       		.byte	0xb4
 4503 1219 86000000 		.4byte	0x86
 4504 121d 503C     		.2byte	0x3c50
 4505 121f 17       		.uleb128 0x17
 4506 1220 6B0C0000 		.4byte	.LASF252
 4507 1224 0A       		.byte	0xa
 4508 1225 B5       		.byte	0xb5
 4509 1226 EB100000 		.4byte	0x10eb
 4510 122a 543C     		.2byte	0x3c54
 4511 122c 17       		.uleb128 0x17
 4512 122d D6010000 		.4byte	.LASF253
 4513 1231 0A       		.byte	0xa
 4514 1232 B6       		.byte	0xb6
 4515 1233 33020000 		.4byte	0x233
 4516 1237 583C     		.2byte	0x3c58
 4517 1239 17       		.uleb128 0x17
 4518 123a 23090000 		.4byte	.LASF254
 4519 123e 0A       		.byte	0xa
 4520 123f B7       		.byte	0xb7
 4521 1240 5D000000 		.4byte	0x5d
 4522 1244 5C42     		.2byte	0x425c
 4523 1246 00       		.byte	0
 4524 1247 08       		.uleb128 0x8
 4525 1248 91000000 		.4byte	0x91
 4526 124c 58120000 		.4byte	0x1258
 4527 1250 12       		.uleb128 0x12
 4528 1251 78000000 		.4byte	0x78
 4529 1255 DB05     		.2byte	0x5db
 4530 1257 00       		.byte	0
 4531 1258 08       		.uleb128 0x8
 4532 1259 51010000 		.4byte	0x151
 4533 125d 68120000 		.4byte	0x1268
 4534 1261 09       		.uleb128 0x9
 4535 1262 78000000 		.4byte	0x78
 4536 1266 95       		.byte	0x95
 4537 1267 00       		.byte	0
 4538 1268 19       		.uleb128 0x19
 4539 1269 01       		.byte	0x1
 4540 126a 0B       		.byte	0xb
 4541 126b 33       		.byte	0x33
 4542 126c 0E130000 		.4byte	0x130e
 4543 1270 1A       		.uleb128 0x1a
 4544 1271 F9110000 		.4byte	.LASF255
 4545 1275 00       		.sleb128 0
 4546 1276 1A       		.uleb128 0x1a
 4547 1277 EE190000 		.4byte	.LASF256
 4548 127b 01       		.sleb128 1
 4549 127c 1A       		.uleb128 0x1a
 4550 127d 23070000 		.4byte	.LASF257
 4551 1281 02       		.sleb128 2
 4552 1282 1A       		.uleb128 0x1a
 4553 1283 66150000 		.4byte	.LASF258
 4554 1287 03       		.sleb128 3
 4555 1288 1A       		.uleb128 0x1a
ARM GAS  C:\Users\AHMED~1.ELE\AppData\Local\Temp\ccWApJgZ.s 			page 95


 4556 1289 3F040000 		.4byte	.LASF259
 4557 128d 04       		.sleb128 4
 4558 128e 1A       		.uleb128 0x1a
 4559 128f 590A0000 		.4byte	.LASF260
 4560 1293 05       		.sleb128 5
 4561 1294 1A       		.uleb128 0x1a
 4562 1295 1E1A0000 		.4byte	.LASF261
 4563 1299 06       		.sleb128 6
 4564 129a 1A       		.uleb128 0x1a
 4565 129b C5080000 		.4byte	.LASF262
 4566 129f 07       		.sleb128 7
 4567 12a0 1A       		.uleb128 0x1a
 4568 12a1 38160000 		.4byte	.LASF263
 4569 12a5 08       		.sleb128 8
 4570 12a6 1A       		.uleb128 0x1a
 4571 12a7 5F060000 		.4byte	.LASF264
 4572 12ab 09       		.sleb128 9
 4573 12ac 1A       		.uleb128 0x1a
 4574 12ad A4170000 		.4byte	.LASF265
 4575 12b1 0A       		.sleb128 10
 4576 12b2 1A       		.uleb128 0x1a
 4577 12b3 97180000 		.4byte	.LASF266
 4578 12b7 0B       		.sleb128 11
 4579 12b8 1A       		.uleb128 0x1a
 4580 12b9 E2060000 		.4byte	.LASF267
 4581 12bd 0C       		.sleb128 12
 4582 12be 1A       		.uleb128 0x1a
 4583 12bf 4D070000 		.4byte	.LASF268
 4584 12c3 0D       		.sleb128 13
 4585 12c4 1A       		.uleb128 0x1a
 4586 12c5 0A110000 		.4byte	.LASF269
 4587 12c9 0E       		.sleb128 14
 4588 12ca 1A       		.uleb128 0x1a
 4589 12cb D1130000 		.4byte	.LASF270
 4590 12cf 0F       		.sleb128 15
 4591 12d0 1A       		.uleb128 0x1a
 4592 12d1 BB0A0000 		.4byte	.LASF271
 4593 12d5 10       		.sleb128 16
 4594 12d6 1A       		.uleb128 0x1a
 4595 12d7 72120000 		.4byte	.LASF272
 4596 12db 11       		.sleb128 17
 4597 12dc 1A       		.uleb128 0x1a
 4598 12dd E7010000 		.4byte	.LASF273
 4599 12e1 12       		.sleb128 18
 4600 12e2 1A       		.uleb128 0x1a
 4601 12e3 F1140000 		.4byte	.LASF274
 4602 12e7 13       		.sleb128 19
 4603 12e8 1A       		.uleb128 0x1a
 4604 12e9 18020000 		.4byte	.LASF275
 4605 12ed 14       		.sleb128 20
 4606 12ee 1A       		.uleb128 0x1a
 4607 12ef E6130000 		.4byte	.LASF276
 4608 12f3 15       		.sleb128 21
 4609 12f4 1A       		.uleb128 0x1a
 4610 12f5 23060000 		.4byte	.LASF277
 4611 12f9 16       		.sleb128 22
 4612 12fa 1A       		.uleb128 0x1a
ARM GAS  C:\Users\AHMED~1.ELE\AppData\Local\Temp\ccWApJgZ.s 			page 96


 4613 12fb E9160000 		.4byte	.LASF278
 4614 12ff 17       		.sleb128 23
 4615 1300 1A       		.uleb128 0x1a
 4616 1301 72150000 		.4byte	.LASF279
 4617 1305 18       		.sleb128 24
 4618 1306 1A       		.uleb128 0x1a
 4619 1307 9C010000 		.4byte	.LASF280
 4620 130b FF01     		.sleb128 255
 4621 130d 00       		.byte	0
 4622 130e 16       		.uleb128 0x16
 4623 130f 16090000 		.4byte	.LASF281
 4624 1313 18       		.byte	0x18
 4625 1314 0B       		.byte	0xb
 4626 1315 50       		.byte	0x50
 4627 1316 6F130000 		.4byte	0x136f
 4628 131a 0B       		.uleb128 0xb
 4629 131b A4040000 		.4byte	.LASF282
 4630 131f 0B       		.byte	0xb
 4631 1320 51       		.byte	0x51
 4632 1321 9C000000 		.4byte	0x9c
 4633 1325 00       		.byte	0
 4634 1326 0B       		.uleb128 0xb
 4635 1327 F9040000 		.4byte	.LASF283
 4636 132b 0B       		.byte	0xb
 4637 132c 52       		.byte	0x52
 4638 132d AC010000 		.4byte	0x1ac
 4639 1331 02       		.byte	0x2
 4640 1332 0B       		.uleb128 0xb
 4641 1333 1C0F0000 		.4byte	.LASF284
 4642 1337 0B       		.byte	0xb
 4643 1338 53       		.byte	0x53
 4644 1339 91000000 		.4byte	0x91
 4645 133d 12       		.byte	0x12
 4646 133e 0B       		.uleb128 0xb
 4647 133f 46010000 		.4byte	.LASF285
 4648 1343 0B       		.byte	0xb
 4649 1344 54       		.byte	0x54
 4650 1345 91000000 		.4byte	0x91
 4651 1349 13       		.byte	0x13
 4652 134a 0B       		.uleb128 0xb
 4653 134b DB000000 		.4byte	.LASF212
 4654 134f 0B       		.byte	0xb
 4655 1350 55       		.byte	0x55
 4656 1351 91000000 		.4byte	0x91
 4657 1355 14       		.byte	0x14
 4658 1356 0B       		.uleb128 0xb
 4659 1357 DA110000 		.4byte	.LASF286
 4660 135b 0B       		.byte	0xb
 4661 135c 56       		.byte	0x56
 4662 135d 91000000 		.4byte	0x91
 4663 1361 15       		.byte	0x15
 4664 1362 0B       		.uleb128 0xb
 4665 1363 3D000000 		.4byte	.LASF165
 4666 1367 0B       		.byte	0xb
 4667 1368 57       		.byte	0x57
 4668 1369 91000000 		.4byte	0x91
 4669 136d 16       		.byte	0x16
ARM GAS  C:\Users\AHMED~1.ELE\AppData\Local\Temp\ccWApJgZ.s 			page 97


 4670 136e 00       		.byte	0
 4671 136f 19       		.uleb128 0x19
 4672 1370 01       		.byte	0x1
 4673 1371 0C       		.byte	0xc
 4674 1372 34       		.byte	0x34
 4675 1373 36170000 		.4byte	0x1736
 4676 1377 1A       		.uleb128 0x1a
 4677 1378 2E040000 		.4byte	.LASF287
 4678 137c 00       		.sleb128 0
 4679 137d 1A       		.uleb128 0x1a
 4680 137e 74050000 		.4byte	.LASF288
 4681 1382 01       		.sleb128 1
 4682 1383 1A       		.uleb128 0x1a
 4683 1384 5F190000 		.4byte	.LASF289
 4684 1388 02       		.sleb128 2
 4685 1389 1A       		.uleb128 0x1a
 4686 138a BC0F0000 		.4byte	.LASF290
 4687 138e 03       		.sleb128 3
 4688 138f 1A       		.uleb128 0x1a
 4689 1390 82010000 		.4byte	.LASF291
 4690 1394 04       		.sleb128 4
 4691 1395 1A       		.uleb128 0x1a
 4692 1396 F2160000 		.4byte	.LASF292
 4693 139a 05       		.sleb128 5
 4694 139b 1A       		.uleb128 0x1a
 4695 139c DF170000 		.4byte	.LASF293
 4696 13a0 06       		.sleb128 6
 4697 13a1 1A       		.uleb128 0x1a
 4698 13a2 6F0F0000 		.4byte	.LASF294
 4699 13a6 07       		.sleb128 7
 4700 13a7 1A       		.uleb128 0x1a
 4701 13a8 78100000 		.4byte	.LASF295
 4702 13ac 08       		.sleb128 8
 4703 13ad 1A       		.uleb128 0x1a
 4704 13ae 27000000 		.4byte	.LASF296
 4705 13b2 09       		.sleb128 9
 4706 13b3 1A       		.uleb128 0x1a
 4707 13b4 20040000 		.4byte	.LASF297
 4708 13b8 0A       		.sleb128 10
 4709 13b9 1A       		.uleb128 0x1a
 4710 13ba 4E140000 		.4byte	.LASF298
 4711 13be 0B       		.sleb128 11
 4712 13bf 1A       		.uleb128 0x1a
 4713 13c0 A3080000 		.4byte	.LASF299
 4714 13c4 0C       		.sleb128 12
 4715 13c5 1A       		.uleb128 0x1a
 4716 13c6 C3110000 		.4byte	.LASF300
 4717 13ca 0D       		.sleb128 13
 4718 13cb 1A       		.uleb128 0x1a
 4719 13cc 420A0000 		.4byte	.LASF301
 4720 13d0 0E       		.sleb128 14
 4721 13d1 1A       		.uleb128 0x1a
 4722 13d2 9B120000 		.4byte	.LASF302
 4723 13d6 0F       		.sleb128 15
 4724 13d7 1A       		.uleb128 0x1a
 4725 13d8 FE0D0000 		.4byte	.LASF303
 4726 13dc 10       		.sleb128 16
ARM GAS  C:\Users\AHMED~1.ELE\AppData\Local\Temp\ccWApJgZ.s 			page 98


 4727 13dd 1A       		.uleb128 0x1a
 4728 13de 06100000 		.4byte	.LASF304
 4729 13e2 11       		.sleb128 17
 4730 13e3 1A       		.uleb128 0x1a
 4731 13e4 43020000 		.4byte	.LASF305
 4732 13e8 12       		.sleb128 18
 4733 13e9 1A       		.uleb128 0x1a
 4734 13ea 2E100000 		.4byte	.LASF306
 4735 13ee 13       		.sleb128 19
 4736 13ef 1A       		.uleb128 0x1a
 4737 13f0 DB0E0000 		.4byte	.LASF307
 4738 13f4 14       		.sleb128 20
 4739 13f5 1A       		.uleb128 0x1a
 4740 13f6 7B080000 		.4byte	.LASF308
 4741 13fa 15       		.sleb128 21
 4742 13fb 1A       		.uleb128 0x1a
 4743 13fc 49120000 		.4byte	.LASF309
 4744 1400 16       		.sleb128 22
 4745 1401 1A       		.uleb128 0x1a
 4746 1402 85000000 		.4byte	.LASF310
 4747 1406 17       		.sleb128 23
 4748 1407 1A       		.uleb128 0x1a
 4749 1408 1B110000 		.4byte	.LASF311
 4750 140c 18       		.sleb128 24
 4751 140d 1A       		.uleb128 0x1a
 4752 140e 5B0D0000 		.4byte	.LASF312
 4753 1412 19       		.sleb128 25
 4754 1413 1A       		.uleb128 0x1a
 4755 1414 2E120000 		.4byte	.LASF313
 4756 1418 1A       		.sleb128 26
 4757 1419 1A       		.uleb128 0x1a
 4758 141a 71170000 		.4byte	.LASF314
 4759 141e 1B       		.sleb128 27
 4760 141f 1A       		.uleb128 0x1a
 4761 1420 44170000 		.4byte	.LASF315
 4762 1424 1C       		.sleb128 28
 4763 1425 1A       		.uleb128 0x1a
 4764 1426 E5140000 		.4byte	.LASF316
 4765 142a 1D       		.sleb128 29
 4766 142b 1A       		.uleb128 0x1a
 4767 142c B1080000 		.4byte	.LASF317
 4768 1430 1E       		.sleb128 30
 4769 1431 1A       		.uleb128 0x1a
 4770 1432 FB000000 		.4byte	.LASF318
 4771 1436 1F       		.sleb128 31
 4772 1437 1A       		.uleb128 0x1a
 4773 1438 D50A0000 		.4byte	.LASF319
 4774 143c 20       		.sleb128 32
 4775 143d 1A       		.uleb128 0x1a
 4776 143e D5050000 		.4byte	.LASF320
 4777 1442 21       		.sleb128 33
 4778 1443 1A       		.uleb128 0x1a
 4779 1444 C5010000 		.4byte	.LASF321
 4780 1448 22       		.sleb128 34
 4781 1449 1A       		.uleb128 0x1a
 4782 144a 3D0E0000 		.4byte	.LASF322
 4783 144e 23       		.sleb128 35
ARM GAS  C:\Users\AHMED~1.ELE\AppData\Local\Temp\ccWApJgZ.s 			page 99


 4784 144f 1A       		.uleb128 0x1a
 4785 1450 1B010000 		.4byte	.LASF323
 4786 1454 24       		.sleb128 36
 4787 1455 1A       		.uleb128 0x1a
 4788 1456 A0100000 		.4byte	.LASF324
 4789 145a 25       		.sleb128 37
 4790 145b 1A       		.uleb128 0x1a
 4791 145c B0050000 		.4byte	.LASF325
 4792 1460 26       		.sleb128 38
 4793 1461 1A       		.uleb128 0x1a
 4794 1462 32180000 		.4byte	.LASF326
 4795 1466 27       		.sleb128 39
 4796 1467 1A       		.uleb128 0x1a
 4797 1468 2E060000 		.4byte	.LASF327
 4798 146c 28       		.sleb128 40
 4799 146d 1A       		.uleb128 0x1a
 4800 146e 19130000 		.4byte	.LASF328
 4801 1472 29       		.sleb128 41
 4802 1473 1A       		.uleb128 0x1a
 4803 1474 16000000 		.4byte	.LASF329
 4804 1478 2A       		.sleb128 42
 4805 1479 1A       		.uleb128 0x1a
 4806 147a 4D190000 		.4byte	.LASF330
 4807 147e 2B       		.sleb128 43
 4808 147f 1A       		.uleb128 0x1a
 4809 1480 6E060000 		.4byte	.LASF331
 4810 1484 2C       		.sleb128 44
 4811 1485 1A       		.uleb128 0x1a
 4812 1486 D51A0000 		.4byte	.LASF332
 4813 148a 2D       		.sleb128 45
 4814 148b 1A       		.uleb128 0x1a
 4815 148c FC0B0000 		.4byte	.LASF333
 4816 1490 2E       		.sleb128 46
 4817 1491 1A       		.uleb128 0x1a
 4818 1492 21170000 		.4byte	.LASF334
 4819 1496 2F       		.sleb128 47
 4820 1497 1A       		.uleb128 0x1a
 4821 1498 49110000 		.4byte	.LASF335
 4822 149c 30       		.sleb128 48
 4823 149d 1A       		.uleb128 0x1a
 4824 149e 92140000 		.4byte	.LASF336
 4825 14a2 31       		.sleb128 49
 4826 14a3 1A       		.uleb128 0x1a
 4827 14a4 42030000 		.4byte	.LASF337
 4828 14a8 32       		.sleb128 50
 4829 14a9 1A       		.uleb128 0x1a
 4830 14aa 6D010000 		.4byte	.LASF338
 4831 14ae 33       		.sleb128 51
 4832 14af 1A       		.uleb128 0x1a
 4833 14b0 B9090000 		.4byte	.LASF339
 4834 14b4 34       		.sleb128 52
 4835 14b5 1A       		.uleb128 0x1a
 4836 14b6 2D090000 		.4byte	.LASF340
 4837 14ba 35       		.sleb128 53
 4838 14bb 1A       		.uleb128 0x1a
 4839 14bc A5190000 		.4byte	.LASF341
 4840 14c0 36       		.sleb128 54
ARM GAS  C:\Users\AHMED~1.ELE\AppData\Local\Temp\ccWApJgZ.s 			page 100


 4841 14c1 1A       		.uleb128 0x1a
 4842 14c2 64130000 		.4byte	.LASF342
 4843 14c6 37       		.sleb128 55
 4844 14c7 1A       		.uleb128 0x1a
 4845 14c8 20030000 		.4byte	.LASF343
 4846 14cc 38       		.sleb128 56
 4847 14cd 1A       		.uleb128 0x1a
 4848 14ce E30A0000 		.4byte	.LASF344
 4849 14d2 39       		.sleb128 57
 4850 14d3 1A       		.uleb128 0x1a
 4851 14d4 E70B0000 		.4byte	.LASF345
 4852 14d8 3A       		.sleb128 58
 4853 14d9 1A       		.uleb128 0x1a
 4854 14da 84160000 		.4byte	.LASF346
 4855 14de 3B       		.sleb128 59
 4856 14df 1A       		.uleb128 0x1a
 4857 14e0 28150000 		.4byte	.LASF347
 4858 14e4 3C       		.sleb128 60
 4859 14e5 1A       		.uleb128 0x1a
 4860 14e6 84190000 		.4byte	.LASF348
 4861 14ea 3D       		.sleb128 61
 4862 14eb 1A       		.uleb128 0x1a
 4863 14ec 7A0D0000 		.4byte	.LASF349
 4864 14f0 3E       		.sleb128 62
 4865 14f1 1A       		.uleb128 0x1a
 4866 14f2 850A0000 		.4byte	.LASF350
 4867 14f6 3F       		.sleb128 63
 4868 14f7 1A       		.uleb128 0x1a
 4869 14f8 E6110000 		.4byte	.LASF351
 4870 14fc C000     		.sleb128 64
 4871 14fe 1A       		.uleb128 0x1a
 4872 14ff 80130000 		.4byte	.LASF352
 4873 1503 C100     		.sleb128 65
 4874 1505 1A       		.uleb128 0x1a
 4875 1506 11170000 		.4byte	.LASF353
 4876 150a C200     		.sleb128 66
 4877 150c 1A       		.uleb128 0x1a
 4878 150d 95000000 		.4byte	.LASF354
 4879 1511 C300     		.sleb128 67
 4880 1513 1A       		.uleb128 0x1a
 4881 1514 70090000 		.4byte	.LASF355
 4882 1518 C400     		.sleb128 68
 4883 151a 1A       		.uleb128 0x1a
 4884 151b 0A180000 		.4byte	.LASF356
 4885 151f C500     		.sleb128 69
 4886 1521 1A       		.uleb128 0x1a
 4887 1522 57010000 		.4byte	.LASF357
 4888 1526 C600     		.sleb128 70
 4889 1528 1A       		.uleb128 0x1a
 4890 1529 BF170000 		.4byte	.LASF358
 4891 152d C700     		.sleb128 71
 4892 152f 1A       		.uleb128 0x1a
 4893 1530 FE160000 		.4byte	.LASF359
 4894 1534 C800     		.sleb128 72
 4895 1536 1A       		.uleb128 0x1a
 4896 1537 B90D0000 		.4byte	.LASF360
 4897 153b C900     		.sleb128 73
ARM GAS  C:\Users\AHMED~1.ELE\AppData\Local\Temp\ccWApJgZ.s 			page 101


 4898 153d 1A       		.uleb128 0x1a
 4899 153e A4130000 		.4byte	.LASF361
 4900 1542 CA00     		.sleb128 74
 4901 1544 1A       		.uleb128 0x1a
 4902 1545 F5130000 		.4byte	.LASF362
 4903 1549 CB00     		.sleb128 75
 4904 154b 1A       		.uleb128 0x1a
 4905 154c A9020000 		.4byte	.LASF363
 4906 1550 CC00     		.sleb128 76
 4907 1552 1A       		.uleb128 0x1a
 4908 1553 090A0000 		.4byte	.LASF364
 4909 1557 CD00     		.sleb128 77
 4910 1559 1A       		.uleb128 0x1a
 4911 155a AA1A0000 		.4byte	.LASF365
 4912 155e CE00     		.sleb128 78
 4913 1560 1A       		.uleb128 0x1a
 4914 1561 E1100000 		.4byte	.LASF366
 4915 1565 CF00     		.sleb128 79
 4916 1567 1A       		.uleb128 0x1a
 4917 1568 680A0000 		.4byte	.LASF367
 4918 156c D000     		.sleb128 80
 4919 156e 1A       		.uleb128 0x1a
 4920 156f D0120000 		.4byte	.LASF368
 4921 1573 D100     		.sleb128 81
 4922 1575 1A       		.uleb128 0x1a
 4923 1576 310B0000 		.4byte	.LASF369
 4924 157a D200     		.sleb128 82
 4925 157c 1A       		.uleb128 0x1a
 4926 157d D8160000 		.4byte	.LASF370
 4927 1581 D300     		.sleb128 83
 4928 1583 1A       		.uleb128 0x1a
 4929 1584 62040000 		.4byte	.LASF371
 4930 1588 D400     		.sleb128 84
 4931 158a 1A       		.uleb128 0x1a
 4932 158b 2E070000 		.4byte	.LASF372
 4933 158f D500     		.sleb128 85
 4934 1591 1A       		.uleb128 0x1a
 4935 1592 39190000 		.4byte	.LASF373
 4936 1596 D600     		.sleb128 86
 4937 1598 1A       		.uleb128 0x1a
 4938 1599 A5090000 		.4byte	.LASF374
 4939 159d D700     		.sleb128 87
 4940 159f 1A       		.uleb128 0x1a
 4941 15a0 B5130000 		.4byte	.LASF375
 4942 15a4 D800     		.sleb128 88
 4943 15a6 1A       		.uleb128 0x1a
 4944 15a7 31080000 		.4byte	.LASF376
 4945 15ab D900     		.sleb128 89
 4946 15ad 1A       		.uleb128 0x1a
 4947 15ae 52020000 		.4byte	.LASF377
 4948 15b2 DA00     		.sleb128 90
 4949 15b4 1A       		.uleb128 0x1a
 4950 15b5 EF060000 		.4byte	.LASF378
 4951 15b9 DB00     		.sleb128 91
 4952 15bb 1A       		.uleb128 0x1a
 4953 15bc D6190000 		.4byte	.LASF379
 4954 15c0 DC00     		.sleb128 92
ARM GAS  C:\Users\AHMED~1.ELE\AppData\Local\Temp\ccWApJgZ.s 			page 102


 4955 15c2 1A       		.uleb128 0x1a
 4956 15c3 BF070000 		.4byte	.LASF380
 4957 15c7 DD00     		.sleb128 93
 4958 15c9 1A       		.uleb128 0x1a
 4959 15ca 64070000 		.4byte	.LASF381
 4960 15ce DE00     		.sleb128 94
 4961 15d0 1A       		.uleb128 0x1a
 4962 15d1 AA180000 		.4byte	.LASF382
 4963 15d5 DF00     		.sleb128 95
 4964 15d7 1A       		.uleb128 0x1a
 4965 15d8 AD070000 		.4byte	.LASF383
 4966 15dc E000     		.sleb128 96
 4967 15de 1A       		.uleb128 0x1a
 4968 15df 8C030000 		.4byte	.LASF384
 4969 15e3 E100     		.sleb128 97
 4970 15e5 1A       		.uleb128 0x1a
 4971 15e6 4D040000 		.4byte	.LASF385
 4972 15ea E200     		.sleb128 98
 4973 15ec 1A       		.uleb128 0x1a
 4974 15ed 8A1A0000 		.4byte	.LASF386
 4975 15f1 E300     		.sleb128 99
 4976 15f3 1A       		.uleb128 0x1a
 4977 15f4 3D140000 		.4byte	.LASF387
 4978 15f8 E400     		.sleb128 100
 4979 15fa 1A       		.uleb128 0x1a
 4980 15fb E5150000 		.4byte	.LASF388
 4981 15ff E500     		.sleb128 101
 4982 1601 1A       		.uleb128 0x1a
 4983 1602 81060000 		.4byte	.LASF389
 4984 1606 E600     		.sleb128 102
 4985 1608 1A       		.uleb128 0x1a
 4986 1609 D6030000 		.4byte	.LASF390
 4987 160d E700     		.sleb128 103
 4988 160f 1A       		.uleb128 0x1a
 4989 1610 540B0000 		.4byte	.LASF391
 4990 1614 E800     		.sleb128 104
 4991 1616 1A       		.uleb128 0x1a
 4992 1617 D2150000 		.4byte	.LASF392
 4993 161b E900     		.sleb128 105
 4994 161d 1A       		.uleb128 0x1a
 4995 161e AC160000 		.4byte	.LASF393
 4996 1622 EA00     		.sleb128 106
 4997 1624 1A       		.uleb128 0x1a
 4998 1625 E61A0000 		.4byte	.LASF394
 4999 1629 EB00     		.sleb128 107
 5000 162b 1A       		.uleb128 0x1a
 5001 162c 90100000 		.4byte	.LASF395
 5002 1630 EC00     		.sleb128 108
 5003 1632 1A       		.uleb128 0x1a
 5004 1633 B1100000 		.4byte	.LASF396
 5005 1637 ED00     		.sleb128 109
 5006 1639 1A       		.uleb128 0x1a
 5007 163a C1100000 		.4byte	.LASF397
 5008 163e EE00     		.sleb128 110
 5009 1640 1A       		.uleb128 0x1a
 5010 1641 D1100000 		.4byte	.LASF398
 5011 1645 EF00     		.sleb128 111
ARM GAS  C:\Users\AHMED~1.ELE\AppData\Local\Temp\ccWApJgZ.s 			page 103


 5012 1647 1A       		.uleb128 0x1a
 5013 1648 24190000 		.4byte	.LASF399
 5014 164c F000     		.sleb128 112
 5015 164e 1A       		.uleb128 0x1a
 5016 164f 05130000 		.4byte	.LASF400
 5017 1653 F100     		.sleb128 113
 5018 1655 1A       		.uleb128 0x1a
 5019 1656 0C080000 		.4byte	.LASF401
 5020 165a F200     		.sleb128 114
 5021 165c 1A       		.uleb128 0x1a
 5022 165d 960F0000 		.4byte	.LASF402
 5023 1661 F300     		.sleb128 115
 5024 1663 1A       		.uleb128 0x1a
 5025 1664 311A0000 		.4byte	.LASF403
 5026 1668 F400     		.sleb128 116
 5027 166a 1A       		.uleb128 0x1a
 5028 166b C6000000 		.4byte	.LASF404
 5029 166f F500     		.sleb128 117
 5030 1671 1A       		.uleb128 0x1a
 5031 1672 73160000 		.4byte	.LASF405
 5032 1676 F600     		.sleb128 118
 5033 1678 1A       		.uleb128 0x1a
 5034 1679 C6160000 		.4byte	.LASF406
 5035 167d F700     		.sleb128 119
 5036 167f 1A       		.uleb128 0x1a
 5037 1680 A80B0000 		.4byte	.LASF407
 5038 1684 F800     		.sleb128 120
 5039 1686 1A       		.uleb128 0x1a
 5040 1687 A9170000 		.4byte	.LASF408
 5041 168b F900     		.sleb128 121
 5042 168d 1A       		.uleb128 0x1a
 5043 168e C2190000 		.4byte	.LASF409
 5044 1692 FA00     		.sleb128 122
 5045 1694 1A       		.uleb128 0x1a
 5046 1695 96070000 		.4byte	.LASF410
 5047 1699 FB00     		.sleb128 123
 5048 169b 1A       		.uleb128 0x1a
 5049 169c 3E100000 		.4byte	.LASF411
 5050 16a0 FC00     		.sleb128 124
 5051 16a2 1A       		.uleb128 0x1a
 5052 16a3 5F100000 		.4byte	.LASF412
 5053 16a7 FD00     		.sleb128 125
 5054 16a9 1A       		.uleb128 0x1a
 5055 16aa 8F050000 		.4byte	.LASF413
 5056 16ae FE00     		.sleb128 126
 5057 16b0 1A       		.uleb128 0x1a
 5058 16b1 22180000 		.4byte	.LASF414
 5059 16b5 FF00     		.sleb128 127
 5060 16b7 1A       		.uleb128 0x1a
 5061 16b8 E3040000 		.4byte	.LASF415
 5062 16bc 8001     		.sleb128 128
 5063 16be 1A       		.uleb128 0x1a
 5064 16bf 7B110000 		.4byte	.LASF416
 5065 16c3 8101     		.sleb128 129
 5066 16c5 1A       		.uleb128 0x1a
 5067 16c6 ED170000 		.4byte	.LASF417
 5068 16ca 8201     		.sleb128 130
ARM GAS  C:\Users\AHMED~1.ELE\AppData\Local\Temp\ccWApJgZ.s 			page 104


 5069 16cc 1A       		.uleb128 0x1a
 5070 16cd 51050000 		.4byte	.LASF418
 5071 16d1 8301     		.sleb128 131
 5072 16d3 1A       		.uleb128 0x1a
 5073 16d4 12160000 		.4byte	.LASF419
 5074 16d8 8401     		.sleb128 132
 5075 16da 1A       		.uleb128 0x1a
 5076 16db D1070000 		.4byte	.LASF420
 5077 16df 8501     		.sleb128 133
 5078 16e1 1A       		.uleb128 0x1a
 5079 16e2 B7060000 		.4byte	.LASF421
 5080 16e6 8601     		.sleb128 134
 5081 16e8 1A       		.uleb128 0x1a
 5082 16e9 FD080000 		.4byte	.LASF422
 5083 16ed 8701     		.sleb128 135
 5084 16ef 1A       		.uleb128 0x1a
 5085 16f0 7D120000 		.4byte	.LASF423
 5086 16f4 8801     		.sleb128 136
 5087 16f6 1A       		.uleb128 0x1a
 5088 16f7 4C060000 		.4byte	.LASF424
 5089 16fb 8901     		.sleb128 137
 5090 16fd 1A       		.uleb128 0x1a
 5091 16fe A0110000 		.4byte	.LASF425
 5092 1702 8A01     		.sleb128 138
 5093 1704 1A       		.uleb128 0x1a
 5094 1705 FB1A0000 		.4byte	.LASF426
 5095 1709 8B01     		.sleb128 139
 5096 170b 1A       		.uleb128 0x1a
 5097 170c 3A050000 		.4byte	.LASF427
 5098 1710 8C01     		.sleb128 140
 5099 1712 1A       		.uleb128 0x1a
 5100 1713 31030000 		.4byte	.LASF428
 5101 1717 8D01     		.sleb128 141
 5102 1719 1A       		.uleb128 0x1a
 5103 171a 860E0000 		.4byte	.LASF429
 5104 171e 8E01     		.sleb128 142
 5105 1720 1A       		.uleb128 0x1a
 5106 1721 44180000 		.4byte	.LASF430
 5107 1725 8F01     		.sleb128 143
 5108 1727 1A       		.uleb128 0x1a
 5109 1728 24080000 		.4byte	.LASF431
 5110 172c 9001     		.sleb128 144
 5111 172e 1A       		.uleb128 0x1a
 5112 172f DA130000 		.4byte	.LASF432
 5113 1733 9101     		.sleb128 145
 5114 1735 00       		.byte	0
 5115 1736 11       		.uleb128 0x11
 5116 1737 87140000 		.4byte	.LASF433
 5117 173b 0003     		.2byte	0x300
 5118 173d 0D       		.byte	0xd
 5119 173e 33       		.byte	0x33
 5120 173f A6180000 		.4byte	0x18a6
 5121 1743 0B       		.uleb128 0xb
 5122 1744 73110000 		.4byte	.LASF189
 5123 1748 0D       		.byte	0xd
 5124 1749 34       		.byte	0x34
 5125 174a 91000000 		.4byte	0x91
ARM GAS  C:\Users\AHMED~1.ELE\AppData\Local\Temp\ccWApJgZ.s 			page 105


 5126 174e 00       		.byte	0
 5127 174f 0B       		.uleb128 0xb
 5128 1750 91060000 		.4byte	.LASF190
 5129 1754 0D       		.byte	0xd
 5130 1755 34       		.byte	0x34
 5131 1756 91000000 		.4byte	0x91
 5132 175a 01       		.byte	0x1
 5133 175b 0B       		.uleb128 0xb
 5134 175c 09060000 		.4byte	.LASF49
 5135 1760 0D       		.byte	0xd
 5136 1761 34       		.byte	0x34
 5137 1762 6C010000 		.4byte	0x16c
 5138 1766 02       		.byte	0x2
 5139 1767 0B       		.uleb128 0xb
 5140 1768 18100000 		.4byte	.LASF191
 5141 176c 0D       		.byte	0xd
 5142 176d 34       		.byte	0x34
 5143 176e 91000000 		.4byte	0x91
 5144 1772 05       		.byte	0x5
 5145 1773 0B       		.uleb128 0xb
 5146 1774 D4040000 		.4byte	.LASF50
 5147 1778 0D       		.byte	0xd
 5148 1779 34       		.byte	0x34
 5149 177a 6C010000 		.4byte	0x16c
 5150 177e 06       		.byte	0x6
 5151 177f 0B       		.uleb128 0xb
 5152 1780 64140000 		.4byte	.LASF192
 5153 1784 0D       		.byte	0xd
 5154 1785 34       		.byte	0x34
 5155 1786 8C010000 		.4byte	0x18c
 5156 178a 09       		.byte	0x9
 5157 178b 0B       		.uleb128 0xb
 5158 178c D3170000 		.4byte	.LASF193
 5159 1790 0D       		.byte	0xd
 5160 1791 34       		.byte	0x34
 5161 1792 C8000000 		.4byte	0xc8
 5162 1796 13       		.byte	0x13
 5163 1797 0B       		.uleb128 0xb
 5164 1798 BF1A0000 		.4byte	.LASF194
 5165 179c 0D       		.byte	0xd
 5166 179d 34       		.byte	0x34
 5167 179e 91000000 		.4byte	0x91
 5168 17a2 15       		.byte	0x15
 5169 17a3 0B       		.uleb128 0xb
 5170 17a4 A2160000 		.4byte	.LASF195
 5171 17a8 0D       		.byte	0xd
 5172 17a9 34       		.byte	0x34
 5173 17aa B2000000 		.4byte	0xb2
 5174 17ae 18       		.byte	0x18
 5175 17af 0B       		.uleb128 0xb
 5176 17b0 1B120000 		.4byte	.LASF196
 5177 17b4 0D       		.byte	0xd
 5178 17b5 34       		.byte	0x34
 5179 17b6 B2000000 		.4byte	0xb2
 5180 17ba 20       		.byte	0x20
 5181 17bb 0B       		.uleb128 0xb
 5182 17bc 7C070000 		.4byte	.LASF197
ARM GAS  C:\Users\AHMED~1.ELE\AppData\Local\Temp\ccWApJgZ.s 			page 106


 5183 17c0 0D       		.byte	0xd
 5184 17c1 34       		.byte	0x34
 5185 17c2 B2000000 		.4byte	0xb2
 5186 17c6 28       		.byte	0x28
 5187 17c7 0B       		.uleb128 0xb
 5188 17c8 5E0F0000 		.4byte	.LASF198
 5189 17cc 0D       		.byte	0xd
 5190 17cd 34       		.byte	0x34
 5191 17ce DE000000 		.4byte	0xde
 5192 17d2 30       		.byte	0x30
 5193 17d3 0B       		.uleb128 0xb
 5194 17d4 EB0E0000 		.4byte	.LASF199
 5195 17d8 0D       		.byte	0xd
 5196 17d9 34       		.byte	0x34
 5197 17da 91000000 		.4byte	0x91
 5198 17de 34       		.byte	0x34
 5199 17df 0B       		.uleb128 0xb
 5200 17e0 B7150000 		.4byte	.LASF200
 5201 17e4 0D       		.byte	0xd
 5202 17e5 34       		.byte	0x34
 5203 17e6 690D0000 		.4byte	0xd69
 5204 17ea 35       		.byte	0x35
 5205 17eb 0B       		.uleb128 0xb
 5206 17ec 5C110000 		.4byte	.LASF201
 5207 17f0 0D       		.byte	0xd
 5208 17f1 34       		.byte	0x34
 5209 17f2 AC010000 		.4byte	0x1ac
 5210 17f6 4F       		.byte	0x4f
 5211 17f7 0B       		.uleb128 0xb
 5212 17f8 04120000 		.4byte	.LASF202
 5213 17fc 0D       		.byte	0xd
 5214 17fd 34       		.byte	0x34
 5215 17fe F3010000 		.4byte	0x1f3
 5216 1802 5F       		.byte	0x5f
 5217 1803 0B       		.uleb128 0xb
 5218 1804 C3140000 		.4byte	.LASF203
 5219 1808 0D       		.byte	0xd
 5220 1809 34       		.byte	0x34
 5221 180a 9C000000 		.4byte	0x9c
 5222 180e 66       		.byte	0x66
 5223 180f 0B       		.uleb128 0xb
 5224 1810 B7010000 		.4byte	.LASF204
 5225 1814 0D       		.byte	0xd
 5226 1815 34       		.byte	0x34
 5227 1816 91000000 		.4byte	0x91
 5228 181a 68       		.byte	0x68
 5229 181b 0B       		.uleb128 0xb
 5230 181c 41130000 		.4byte	.LASF205
 5231 1820 0D       		.byte	0xd
 5232 1821 34       		.byte	0x34
 5233 1822 4C060000 		.4byte	0x64c
 5234 1826 69       		.byte	0x69
 5235 1827 0B       		.uleb128 0xb
 5236 1828 0A030000 		.4byte	.LASF206
 5237 182c 0D       		.byte	0xd
 5238 182d 34       		.byte	0x34
 5239 182e 9C000000 		.4byte	0x9c
ARM GAS  C:\Users\AHMED~1.ELE\AppData\Local\Temp\ccWApJgZ.s 			page 107


 5240 1832 76       		.byte	0x76
 5241 1833 0B       		.uleb128 0xb
 5242 1834 8E0B0000 		.4byte	.LASF207
 5243 1838 0D       		.byte	0xd
 5244 1839 34       		.byte	0x34
 5245 183a 9C000000 		.4byte	0x9c
 5246 183e 78       		.byte	0x78
 5247 183f 0B       		.uleb128 0xb
 5248 1840 12020000 		.4byte	.LASF208
 5249 1844 0D       		.byte	0xd
 5250 1845 34       		.byte	0x34
 5251 1846 5A0B0000 		.4byte	0xb5a
 5252 184a 7C       		.byte	0x7c
 5253 184b 0B       		.uleb128 0xb
 5254 184c 21020000 		.4byte	.LASF209
 5255 1850 0D       		.byte	0xd
 5256 1851 34       		.byte	0x34
 5257 1852 BB0B0000 		.4byte	0xbbb
 5258 1856 84       		.byte	0x84
 5259 1857 17       		.uleb128 0x17
 5260 1858 DC020000 		.4byte	.LASF434
 5261 185c 0D       		.byte	0xd
 5262 185d 35       		.byte	0x35
 5263 185e BC010000 		.4byte	0x1bc
 5264 1862 F801     		.2byte	0x1f8
 5265 1864 17       		.uleb128 0x17
 5266 1865 08160000 		.4byte	.LASF435
 5267 1869 0D       		.byte	0xd
 5268 186a 36       		.byte	0x36
 5269 186b 76020000 		.4byte	0x276
 5270 186f 0002     		.2byte	0x200
 5271 1871 17       		.uleb128 0x17
 5272 1872 B9110000 		.4byte	.LASF436
 5273 1876 0D       		.byte	0xd
 5274 1877 37       		.byte	0x37
 5275 1878 AE020000 		.4byte	0x2ae
 5276 187c A002     		.2byte	0x2a0
 5277 187e 17       		.uleb128 0x17
 5278 187f 0A150000 		.4byte	.LASF437
 5279 1883 0D       		.byte	0xd
 5280 1884 38       		.byte	0x38
 5281 1885 9C000000 		.4byte	0x9c
 5282 1889 F402     		.2byte	0x2f4
 5283 188b 17       		.uleb128 0x17
 5284 188c E2000000 		.4byte	.LASF438
 5285 1890 0D       		.byte	0xd
 5286 1891 39       		.byte	0x39
 5287 1892 91000000 		.4byte	0x91
 5288 1896 F602     		.2byte	0x2f6
 5289 1898 17       		.uleb128 0x17
 5290 1899 9B0B0000 		.4byte	.LASF439
 5291 189d 0D       		.byte	0xd
 5292 189e 3A       		.byte	0x3a
 5293 189f DE000000 		.4byte	0xde
 5294 18a3 F702     		.2byte	0x2f7
 5295 18a5 00       		.byte	0
 5296 18a6 11       		.uleb128 0x11
ARM GAS  C:\Users\AHMED~1.ELE\AppData\Local\Temp\ccWApJgZ.s 			page 108


 5297 18a7 9D090000 		.4byte	.LASF440
 5298 18ab 0802     		.2byte	0x208
 5299 18ad 0D       		.byte	0xd
 5300 18ae 3D       		.byte	0x3d
 5301 18af FC190000 		.4byte	0x19fc
 5302 18b3 0B       		.uleb128 0xb
 5303 18b4 73110000 		.4byte	.LASF189
 5304 18b8 0D       		.byte	0xd
 5305 18b9 3E       		.byte	0x3e
 5306 18ba 91000000 		.4byte	0x91
 5307 18be 00       		.byte	0
 5308 18bf 0B       		.uleb128 0xb
 5309 18c0 91060000 		.4byte	.LASF190
 5310 18c4 0D       		.byte	0xd
 5311 18c5 3E       		.byte	0x3e
 5312 18c6 91000000 		.4byte	0x91
 5313 18ca 01       		.byte	0x1
 5314 18cb 0B       		.uleb128 0xb
 5315 18cc 09060000 		.4byte	.LASF49
 5316 18d0 0D       		.byte	0xd
 5317 18d1 3E       		.byte	0x3e
 5318 18d2 6C010000 		.4byte	0x16c
 5319 18d6 02       		.byte	0x2
 5320 18d7 0B       		.uleb128 0xb
 5321 18d8 18100000 		.4byte	.LASF191
 5322 18dc 0D       		.byte	0xd
 5323 18dd 3E       		.byte	0x3e
 5324 18de 91000000 		.4byte	0x91
 5325 18e2 05       		.byte	0x5
 5326 18e3 0B       		.uleb128 0xb
 5327 18e4 D4040000 		.4byte	.LASF50
 5328 18e8 0D       		.byte	0xd
 5329 18e9 3E       		.byte	0x3e
 5330 18ea 6C010000 		.4byte	0x16c
 5331 18ee 06       		.byte	0x6
 5332 18ef 0B       		.uleb128 0xb
 5333 18f0 64140000 		.4byte	.LASF192
 5334 18f4 0D       		.byte	0xd
 5335 18f5 3E       		.byte	0x3e
 5336 18f6 8C010000 		.4byte	0x18c
 5337 18fa 09       		.byte	0x9
 5338 18fb 0B       		.uleb128 0xb
 5339 18fc D3170000 		.4byte	.LASF193
 5340 1900 0D       		.byte	0xd
 5341 1901 3E       		.byte	0x3e
 5342 1902 C8000000 		.4byte	0xc8
 5343 1906 13       		.byte	0x13
 5344 1907 0B       		.uleb128 0xb
 5345 1908 BF1A0000 		.4byte	.LASF194
 5346 190c 0D       		.byte	0xd
 5347 190d 3E       		.byte	0x3e
 5348 190e 91000000 		.4byte	0x91
 5349 1912 15       		.byte	0x15
 5350 1913 0B       		.uleb128 0xb
 5351 1914 A2160000 		.4byte	.LASF195
 5352 1918 0D       		.byte	0xd
 5353 1919 3E       		.byte	0x3e
ARM GAS  C:\Users\AHMED~1.ELE\AppData\Local\Temp\ccWApJgZ.s 			page 109


 5354 191a B2000000 		.4byte	0xb2
 5355 191e 18       		.byte	0x18
 5356 191f 0B       		.uleb128 0xb
 5357 1920 1B120000 		.4byte	.LASF196
 5358 1924 0D       		.byte	0xd
 5359 1925 3E       		.byte	0x3e
 5360 1926 B2000000 		.4byte	0xb2
 5361 192a 20       		.byte	0x20
 5362 192b 0B       		.uleb128 0xb
 5363 192c 7C070000 		.4byte	.LASF197
 5364 1930 0D       		.byte	0xd
 5365 1931 3E       		.byte	0x3e
 5366 1932 B2000000 		.4byte	0xb2
 5367 1936 28       		.byte	0x28
 5368 1937 0B       		.uleb128 0xb
 5369 1938 5E0F0000 		.4byte	.LASF198
 5370 193c 0D       		.byte	0xd
 5371 193d 3E       		.byte	0x3e
 5372 193e DE000000 		.4byte	0xde
 5373 1942 30       		.byte	0x30
 5374 1943 0B       		.uleb128 0xb
 5375 1944 EB0E0000 		.4byte	.LASF199
 5376 1948 0D       		.byte	0xd
 5377 1949 3E       		.byte	0x3e
 5378 194a 91000000 		.4byte	0x91
 5379 194e 34       		.byte	0x34
 5380 194f 0B       		.uleb128 0xb
 5381 1950 B7150000 		.4byte	.LASF200
 5382 1954 0D       		.byte	0xd
 5383 1955 3E       		.byte	0x3e
 5384 1956 690D0000 		.4byte	0xd69
 5385 195a 35       		.byte	0x35
 5386 195b 0B       		.uleb128 0xb
 5387 195c 5C110000 		.4byte	.LASF201
 5388 1960 0D       		.byte	0xd
 5389 1961 3E       		.byte	0x3e
 5390 1962 AC010000 		.4byte	0x1ac
 5391 1966 4F       		.byte	0x4f
 5392 1967 0B       		.uleb128 0xb
 5393 1968 04120000 		.4byte	.LASF202
 5394 196c 0D       		.byte	0xd
 5395 196d 3E       		.byte	0x3e
 5396 196e F3010000 		.4byte	0x1f3
 5397 1972 5F       		.byte	0x5f
 5398 1973 0B       		.uleb128 0xb
 5399 1974 C3140000 		.4byte	.LASF203
 5400 1978 0D       		.byte	0xd
 5401 1979 3E       		.byte	0x3e
 5402 197a 9C000000 		.4byte	0x9c
 5403 197e 66       		.byte	0x66
 5404 197f 0B       		.uleb128 0xb
 5405 1980 B7010000 		.4byte	.LASF204
 5406 1984 0D       		.byte	0xd
 5407 1985 3E       		.byte	0x3e
 5408 1986 91000000 		.4byte	0x91
 5409 198a 68       		.byte	0x68
 5410 198b 0B       		.uleb128 0xb
ARM GAS  C:\Users\AHMED~1.ELE\AppData\Local\Temp\ccWApJgZ.s 			page 110


 5411 198c 41130000 		.4byte	.LASF205
 5412 1990 0D       		.byte	0xd
 5413 1991 3E       		.byte	0x3e
 5414 1992 4C060000 		.4byte	0x64c
 5415 1996 69       		.byte	0x69
 5416 1997 0B       		.uleb128 0xb
 5417 1998 0A030000 		.4byte	.LASF206
 5418 199c 0D       		.byte	0xd
 5419 199d 3E       		.byte	0x3e
 5420 199e 9C000000 		.4byte	0x9c
 5421 19a2 76       		.byte	0x76
 5422 19a3 0B       		.uleb128 0xb
 5423 19a4 8E0B0000 		.4byte	.LASF207
 5424 19a8 0D       		.byte	0xd
 5425 19a9 3E       		.byte	0x3e
 5426 19aa 9C000000 		.4byte	0x9c
 5427 19ae 78       		.byte	0x78
 5428 19af 0B       		.uleb128 0xb
 5429 19b0 12020000 		.4byte	.LASF208
 5430 19b4 0D       		.byte	0xd
 5431 19b5 3E       		.byte	0x3e
 5432 19b6 5A0B0000 		.4byte	0xb5a
 5433 19ba 7C       		.byte	0x7c
 5434 19bb 0B       		.uleb128 0xb
 5435 19bc 21020000 		.4byte	.LASF209
 5436 19c0 0D       		.byte	0xd
 5437 19c1 3E       		.byte	0x3e
 5438 19c2 BB0B0000 		.4byte	0xbbb
 5439 19c6 84       		.byte	0x84
 5440 19c7 17       		.uleb128 0x17
 5441 19c8 DC020000 		.4byte	.LASF434
 5442 19cc 0D       		.byte	0xd
 5443 19cd 3F       		.byte	0x3f
 5444 19ce BC010000 		.4byte	0x1bc
 5445 19d2 F801     		.2byte	0x1f8
 5446 19d4 17       		.uleb128 0x17
 5447 19d5 81020000 		.4byte	.LASF441
 5448 19d9 0D       		.byte	0xd
 5449 19da 40       		.byte	0x40
 5450 19db 6C010000 		.4byte	0x16c
 5451 19df 0002     		.2byte	0x200
 5452 19e1 17       		.uleb128 0x17
 5453 19e2 22120000 		.4byte	.LASF442
 5454 19e6 0D       		.byte	0xd
 5455 19e7 41       		.byte	0x41
 5456 19e8 91000000 		.4byte	0x91
 5457 19ec 0302     		.2byte	0x203
 5458 19ee 17       		.uleb128 0x17
 5459 19ef D5140000 		.4byte	.LASF443
 5460 19f3 0D       		.byte	0xd
 5461 19f4 42       		.byte	0x42
 5462 19f5 6C010000 		.4byte	0x16c
 5463 19f9 0402     		.2byte	0x204
 5464 19fb 00       		.byte	0
 5465 19fc 11       		.uleb128 0x11
 5466 19fd 950A0000 		.4byte	.LASF444
 5467 1a01 4002     		.2byte	0x240
ARM GAS  C:\Users\AHMED~1.ELE\AppData\Local\Temp\ccWApJgZ.s 			page 111


 5468 1a03 0D       		.byte	0xd
 5469 1a04 45       		.byte	0x45
 5470 1a05 381B0000 		.4byte	0x1b38
 5471 1a09 0B       		.uleb128 0xb
 5472 1a0a 73110000 		.4byte	.LASF189
 5473 1a0e 0D       		.byte	0xd
 5474 1a0f 46       		.byte	0x46
 5475 1a10 91000000 		.4byte	0x91
 5476 1a14 00       		.byte	0
 5477 1a15 0B       		.uleb128 0xb
 5478 1a16 91060000 		.4byte	.LASF190
 5479 1a1a 0D       		.byte	0xd
 5480 1a1b 46       		.byte	0x46
 5481 1a1c 91000000 		.4byte	0x91
 5482 1a20 01       		.byte	0x1
 5483 1a21 0B       		.uleb128 0xb
 5484 1a22 09060000 		.4byte	.LASF49
 5485 1a26 0D       		.byte	0xd
 5486 1a27 46       		.byte	0x46
 5487 1a28 6C010000 		.4byte	0x16c
 5488 1a2c 02       		.byte	0x2
 5489 1a2d 0B       		.uleb128 0xb
 5490 1a2e 18100000 		.4byte	.LASF191
 5491 1a32 0D       		.byte	0xd
 5492 1a33 46       		.byte	0x46
 5493 1a34 91000000 		.4byte	0x91
 5494 1a38 05       		.byte	0x5
 5495 1a39 0B       		.uleb128 0xb
 5496 1a3a D4040000 		.4byte	.LASF50
 5497 1a3e 0D       		.byte	0xd
 5498 1a3f 46       		.byte	0x46
 5499 1a40 6C010000 		.4byte	0x16c
 5500 1a44 06       		.byte	0x6
 5501 1a45 0B       		.uleb128 0xb
 5502 1a46 64140000 		.4byte	.LASF192
 5503 1a4a 0D       		.byte	0xd
 5504 1a4b 46       		.byte	0x46
 5505 1a4c 8C010000 		.4byte	0x18c
 5506 1a50 09       		.byte	0x9
 5507 1a51 0B       		.uleb128 0xb
 5508 1a52 D3170000 		.4byte	.LASF193
 5509 1a56 0D       		.byte	0xd
 5510 1a57 46       		.byte	0x46
 5511 1a58 C8000000 		.4byte	0xc8
 5512 1a5c 13       		.byte	0x13
 5513 1a5d 0B       		.uleb128 0xb
 5514 1a5e BF1A0000 		.4byte	.LASF194
 5515 1a62 0D       		.byte	0xd
 5516 1a63 46       		.byte	0x46
 5517 1a64 91000000 		.4byte	0x91
 5518 1a68 15       		.byte	0x15
 5519 1a69 0B       		.uleb128 0xb
 5520 1a6a A2160000 		.4byte	.LASF195
 5521 1a6e 0D       		.byte	0xd
 5522 1a6f 46       		.byte	0x46
 5523 1a70 B2000000 		.4byte	0xb2
 5524 1a74 18       		.byte	0x18
ARM GAS  C:\Users\AHMED~1.ELE\AppData\Local\Temp\ccWApJgZ.s 			page 112


 5525 1a75 0B       		.uleb128 0xb
 5526 1a76 1B120000 		.4byte	.LASF196
 5527 1a7a 0D       		.byte	0xd
 5528 1a7b 46       		.byte	0x46
 5529 1a7c B2000000 		.4byte	0xb2
 5530 1a80 20       		.byte	0x20
 5531 1a81 0B       		.uleb128 0xb
 5532 1a82 7C070000 		.4byte	.LASF197
 5533 1a86 0D       		.byte	0xd
 5534 1a87 46       		.byte	0x46
 5535 1a88 B2000000 		.4byte	0xb2
 5536 1a8c 28       		.byte	0x28
 5537 1a8d 0B       		.uleb128 0xb
 5538 1a8e 5E0F0000 		.4byte	.LASF198
 5539 1a92 0D       		.byte	0xd
 5540 1a93 46       		.byte	0x46
 5541 1a94 DE000000 		.4byte	0xde
 5542 1a98 30       		.byte	0x30
 5543 1a99 0B       		.uleb128 0xb
 5544 1a9a EB0E0000 		.4byte	.LASF199
 5545 1a9e 0D       		.byte	0xd
 5546 1a9f 46       		.byte	0x46
 5547 1aa0 91000000 		.4byte	0x91
 5548 1aa4 34       		.byte	0x34
 5549 1aa5 0B       		.uleb128 0xb
 5550 1aa6 B7150000 		.4byte	.LASF200
 5551 1aaa 0D       		.byte	0xd
 5552 1aab 46       		.byte	0x46
 5553 1aac 690D0000 		.4byte	0xd69
 5554 1ab0 35       		.byte	0x35
 5555 1ab1 0B       		.uleb128 0xb
 5556 1ab2 5C110000 		.4byte	.LASF201
 5557 1ab6 0D       		.byte	0xd
 5558 1ab7 46       		.byte	0x46
 5559 1ab8 AC010000 		.4byte	0x1ac
 5560 1abc 4F       		.byte	0x4f
 5561 1abd 0B       		.uleb128 0xb
 5562 1abe 04120000 		.4byte	.LASF202
 5563 1ac2 0D       		.byte	0xd
 5564 1ac3 46       		.byte	0x46
 5565 1ac4 F3010000 		.4byte	0x1f3
 5566 1ac8 5F       		.byte	0x5f
 5567 1ac9 0B       		.uleb128 0xb
 5568 1aca C3140000 		.4byte	.LASF203
 5569 1ace 0D       		.byte	0xd
 5570 1acf 46       		.byte	0x46
 5571 1ad0 9C000000 		.4byte	0x9c
 5572 1ad4 66       		.byte	0x66
 5573 1ad5 0B       		.uleb128 0xb
 5574 1ad6 B7010000 		.4byte	.LASF204
 5575 1ada 0D       		.byte	0xd
 5576 1adb 46       		.byte	0x46
 5577 1adc 91000000 		.4byte	0x91
 5578 1ae0 68       		.byte	0x68
 5579 1ae1 0B       		.uleb128 0xb
 5580 1ae2 41130000 		.4byte	.LASF205
 5581 1ae6 0D       		.byte	0xd
ARM GAS  C:\Users\AHMED~1.ELE\AppData\Local\Temp\ccWApJgZ.s 			page 113


 5582 1ae7 46       		.byte	0x46
 5583 1ae8 4C060000 		.4byte	0x64c
 5584 1aec 69       		.byte	0x69
 5585 1aed 0B       		.uleb128 0xb
 5586 1aee 0A030000 		.4byte	.LASF206
 5587 1af2 0D       		.byte	0xd
 5588 1af3 46       		.byte	0x46
 5589 1af4 9C000000 		.4byte	0x9c
 5590 1af8 76       		.byte	0x76
 5591 1af9 0B       		.uleb128 0xb
 5592 1afa 8E0B0000 		.4byte	.LASF207
 5593 1afe 0D       		.byte	0xd
 5594 1aff 46       		.byte	0x46
 5595 1b00 9C000000 		.4byte	0x9c
 5596 1b04 78       		.byte	0x78
 5597 1b05 0B       		.uleb128 0xb
 5598 1b06 12020000 		.4byte	.LASF208
 5599 1b0a 0D       		.byte	0xd
 5600 1b0b 46       		.byte	0x46
 5601 1b0c 5A0B0000 		.4byte	0xb5a
 5602 1b10 7C       		.byte	0x7c
 5603 1b11 0B       		.uleb128 0xb
 5604 1b12 21020000 		.4byte	.LASF209
 5605 1b16 0D       		.byte	0xd
 5606 1b17 46       		.byte	0x46
 5607 1b18 BB0B0000 		.4byte	0xbbb
 5608 1b1c 84       		.byte	0x84
 5609 1b1d 17       		.uleb128 0x17
 5610 1b1e EC180000 		.4byte	.LASF445
 5611 1b22 0D       		.byte	0xd
 5612 1b23 47       		.byte	0x47
 5613 1b24 91000000 		.4byte	0x91
 5614 1b28 F801     		.2byte	0x1f8
 5615 1b2a 17       		.uleb128 0x17
 5616 1b2b 6B090000 		.4byte	.LASF446
 5617 1b2f 0D       		.byte	0xd
 5618 1b30 48       		.byte	0x48
 5619 1b31 381B0000 		.4byte	0x1b38
 5620 1b35 F901     		.2byte	0x1f9
 5621 1b37 00       		.byte	0
 5622 1b38 08       		.uleb128 0x8
 5623 1b39 91000000 		.4byte	0x91
 5624 1b3d 481B0000 		.4byte	0x1b48
 5625 1b41 09       		.uleb128 0x9
 5626 1b42 78000000 		.4byte	0x78
 5627 1b46 45       		.byte	0x45
 5628 1b47 00       		.byte	0
 5629 1b48 11       		.uleb128 0x11
 5630 1b49 0D050000 		.4byte	.LASF447
 5631 1b4d 4807     		.2byte	0x748
 5632 1b4f 0D       		.byte	0xd
 5633 1b50 4E       		.byte	0x4e
 5634 1b51 7C1B0000 		.4byte	0x1b7c
 5635 1b55 0B       		.uleb128 0xb
 5636 1b56 35140000 		.4byte	.LASF448
 5637 1b5a 0D       		.byte	0xd
 5638 1b5b 4F       		.byte	0x4f
ARM GAS  C:\Users\AHMED~1.ELE\AppData\Local\Temp\ccWApJgZ.s 			page 114


 5639 1b5c 36170000 		.4byte	0x1736
 5640 1b60 00       		.byte	0
 5641 1b61 17       		.uleb128 0x17
 5642 1b62 120F0000 		.4byte	.LASF449
 5643 1b66 0D       		.byte	0xd
 5644 1b67 50       		.byte	0x50
 5645 1b68 A6180000 		.4byte	0x18a6
 5646 1b6c 0003     		.2byte	0x300
 5647 1b6e 17       		.uleb128 0x17
 5648 1b6f C5120000 		.4byte	.LASF450
 5649 1b73 0D       		.byte	0xd
 5650 1b74 51       		.byte	0x51
 5651 1b75 FC190000 		.4byte	0x19fc
 5652 1b79 0805     		.2byte	0x508
 5653 1b7b 00       		.byte	0
 5654 1b7c 1B       		.uleb128 0x1b
 5655 1b7d 6F100000 		.4byte	.LASF464
 5656 1b81 01       		.byte	0x1
 5657 1b82 63       		.byte	0x63
 5658 1b83 B2000000 		.4byte	0xb2
 5659 1b87 01       		.byte	0x1
 5660 1b88 AE1B0000 		.4byte	0x1bae
 5661 1b8c 1C       		.uleb128 0x1c
 5662 1b8d 01100000 		.4byte	.LASF451
 5663 1b91 01       		.byte	0x1
 5664 1b92 63       		.byte	0x63
 5665 1b93 76000000 		.4byte	0x76
 5666 1b97 1C       		.uleb128 0x1c
 5667 1b98 82140000 		.4byte	.LASF452
 5668 1b9c 01       		.byte	0x1
 5669 1b9d 63       		.byte	0x63
 5670 1b9e 91000000 		.4byte	0x91
 5671 1ba2 1D       		.uleb128 0x1d
 5672 1ba3 520A0000 		.4byte	.LASF457
 5673 1ba7 01       		.byte	0x1
 5674 1ba8 65       		.byte	0x65
 5675 1ba9 4C060000 		.4byte	0x64c
 5676 1bad 00       		.byte	0
 5677 1bae 1E       		.uleb128 0x1e
 5678 1baf 050F0000 		.4byte	.LASF455
 5679 1bb3 01       		.byte	0x1
 5680 1bb4 8F       		.byte	0x8f
 5681 1bb5 00000000 		.4byte	.LFB4
 5682 1bb9 3C000000 		.4byte	.LFE4-.LFB4
 5683 1bbd 01       		.uleb128 0x1
 5684 1bbe 9C       		.byte	0x9c
 5685 1bbf E01B0000 		.4byte	0x1be0
 5686 1bc3 1F       		.uleb128 0x1f
 5687 1bc4 870B0000 		.4byte	.LASF453
 5688 1bc8 01       		.byte	0x1
 5689 1bc9 8F       		.byte	0x8f
 5690 1bca 91000000 		.4byte	0x91
 5691 1bce 01       		.uleb128 0x1
 5692 1bcf 50       		.byte	0x50
 5693 1bd0 20       		.uleb128 0x20
 5694 1bd1 00150000 		.4byte	.LASF454
 5695 1bd5 01       		.byte	0x1
ARM GAS  C:\Users\AHMED~1.ELE\AppData\Local\Temp\ccWApJgZ.s 			page 115


 5696 1bd6 8F       		.byte	0x8f
 5697 1bd7 91000000 		.4byte	0x91
 5698 1bdb 00000000 		.4byte	.LLST0
 5699 1bdf 00       		.byte	0
 5700 1be0 1E       		.uleb128 0x1e
 5701 1be1 22050000 		.4byte	.LASF456
 5702 1be5 01       		.byte	0x1
 5703 1be6 B0       		.byte	0xb0
 5704 1be7 00000000 		.4byte	.LFB5
 5705 1beb 180B0000 		.4byte	.LFE5-.LFB5
 5706 1bef 01       		.uleb128 0x1
 5707 1bf0 9C       		.byte	0x9c
 5708 1bf1 75400000 		.4byte	0x4075
 5709 1bf5 1D       		.uleb128 0x1d
 5710 1bf6 60000000 		.4byte	.LASF458
 5711 1bfa 01       		.byte	0x1
 5712 1bfb B2       		.byte	0xb2
 5713 1bfc D8000000 		.4byte	0xd8
 5714 1c00 1D       		.uleb128 0x1d
 5715 1c01 F30D0000 		.4byte	.LASF459
 5716 1c05 01       		.byte	0x1
 5717 1c06 B2       		.byte	0xb2
 5718 1c07 D8000000 		.4byte	0xd8
 5719 1c0b 1D       		.uleb128 0x1d
 5720 1c0c 0D0E0000 		.4byte	.LASF460
 5721 1c10 01       		.byte	0x1
 5722 1c11 B3       		.byte	0xb3
 5723 1c12 AC010000 		.4byte	0x1ac
 5724 1c16 1D       		.uleb128 0x1d
 5725 1c17 B7140000 		.4byte	.LASF461
 5726 1c1b 01       		.byte	0x1
 5727 1c1c B4       		.byte	0xb4
 5728 1c1d 91000000 		.4byte	0x91
 5729 1c21 1D       		.uleb128 0x1d
 5730 1c22 BD140000 		.4byte	.LASF462
 5731 1c26 01       		.byte	0x1
 5732 1c27 B4       		.byte	0xb4
 5733 1c28 91000000 		.4byte	0x91
 5734 1c2c 21       		.uleb128 0x21
 5735 1c2d 62756600 		.ascii	"buf\000"
 5736 1c31 01       		.byte	0x1
 5737 1c32 B5       		.byte	0xb5
 5738 1c33 7C010000 		.4byte	0x17c
 5739 1c37 21       		.uleb128 0x21
 5740 1c38 746D7000 		.ascii	"tmp\000"
 5741 1c3c 01       		.byte	0x1
 5742 1c3d B5       		.byte	0xb5
 5743 1c3e 8C010000 		.4byte	0x18c
 5744 1c42 1D       		.uleb128 0x1d
 5745 1c43 D2080000 		.4byte	.LASF463
 5746 1c47 01       		.byte	0x1
 5747 1c48 B6       		.byte	0xb6
 5748 1c49 180B0000 		.4byte	0xb18
 5749 1c4d 22       		.uleb128 0x22
 5750 1c4e 06000000 		.4byte	.LVL2
 5751 1c52 83470000 		.4byte	0x4783
 5752 1c56 22       		.uleb128 0x22
ARM GAS  C:\Users\AHMED~1.ELE\AppData\Local\Temp\ccWApJgZ.s 			page 116


 5753 1c57 0A000000 		.4byte	.LVL3
 5754 1c5b 8E470000 		.4byte	0x478e
 5755 1c5f 23       		.uleb128 0x23
 5756 1c60 10000000 		.4byte	.LVL4
 5757 1c64 9F470000 		.4byte	0x479f
 5758 1c68 731C0000 		.4byte	0x1c73
 5759 1c6c 24       		.uleb128 0x24
 5760 1c6d 01       		.uleb128 0x1
 5761 1c6e 50       		.byte	0x50
 5762 1c6f 02       		.uleb128 0x2
 5763 1c70 08       		.byte	0x8
 5764 1c71 49       		.byte	0x49
 5765 1c72 00       		.byte	0
 5766 1c73 23       		.uleb128 0x23
 5767 1c74 16000000 		.4byte	.LVL5
 5768 1c78 9F470000 		.4byte	0x479f
 5769 1c7c 871C0000 		.4byte	0x1c87
 5770 1c80 24       		.uleb128 0x24
 5771 1c81 01       		.uleb128 0x1
 5772 1c82 50       		.byte	0x50
 5773 1c83 02       		.uleb128 0x2
 5774 1c84 08       		.byte	0x8
 5775 1c85 53       		.byte	0x53
 5776 1c86 00       		.byte	0
 5777 1c87 23       		.uleb128 0x23
 5778 1c88 1C000000 		.4byte	.LVL6
 5779 1c8c 9F470000 		.4byte	0x479f
 5780 1c90 9B1C0000 		.4byte	0x1c9b
 5781 1c94 24       		.uleb128 0x24
 5782 1c95 01       		.uleb128 0x1
 5783 1c96 50       		.byte	0x50
 5784 1c97 02       		.uleb128 0x2
 5785 1c98 08       		.byte	0x8
 5786 1c99 4F       		.byte	0x4f
 5787 1c9a 00       		.byte	0
 5788 1c9b 23       		.uleb128 0x23
 5789 1c9c 22000000 		.4byte	.LVL7
 5790 1ca0 9F470000 		.4byte	0x479f
 5791 1ca4 AF1C0000 		.4byte	0x1caf
 5792 1ca8 24       		.uleb128 0x24
 5793 1ca9 01       		.uleb128 0x1
 5794 1caa 50       		.byte	0x50
 5795 1cab 02       		.uleb128 0x2
 5796 1cac 08       		.byte	0x8
 5797 1cad 30       		.byte	0x30
 5798 1cae 00       		.byte	0
 5799 1caf 23       		.uleb128 0x23
 5800 1cb0 28000000 		.4byte	.LVL8
 5801 1cb4 9F470000 		.4byte	0x479f
 5802 1cb8 C31C0000 		.4byte	0x1cc3
 5803 1cbc 24       		.uleb128 0x24
 5804 1cbd 01       		.uleb128 0x1
 5805 1cbe 50       		.byte	0x50
 5806 1cbf 02       		.uleb128 0x2
 5807 1cc0 08       		.byte	0x8
 5808 1cc1 34       		.byte	0x34
 5809 1cc2 00       		.byte	0
ARM GAS  C:\Users\AHMED~1.ELE\AppData\Local\Temp\ccWApJgZ.s 			page 117


 5810 1cc3 23       		.uleb128 0x23
 5811 1cc4 2E000000 		.4byte	.LVL9
 5812 1cc8 9F470000 		.4byte	0x479f
 5813 1ccc D71C0000 		.4byte	0x1cd7
 5814 1cd0 24       		.uleb128 0x24
 5815 1cd1 01       		.uleb128 0x1
 5816 1cd2 50       		.byte	0x50
 5817 1cd3 02       		.uleb128 0x2
 5818 1cd4 08       		.byte	0x8
 5819 1cd5 36       		.byte	0x36
 5820 1cd6 00       		.byte	0
 5821 1cd7 23       		.uleb128 0x23
 5822 1cd8 34000000 		.4byte	.LVL10
 5823 1cdc 9F470000 		.4byte	0x479f
 5824 1ce0 EB1C0000 		.4byte	0x1ceb
 5825 1ce4 24       		.uleb128 0x24
 5826 1ce5 01       		.uleb128 0x1
 5827 1ce6 50       		.byte	0x50
 5828 1ce7 02       		.uleb128 0x2
 5829 1ce8 08       		.byte	0x8
 5830 1ce9 35       		.byte	0x35
 5831 1cea 00       		.byte	0
 5832 1ceb 23       		.uleb128 0x23
 5833 1cec 3A000000 		.4byte	.LVL11
 5834 1cf0 9F470000 		.4byte	0x479f
 5835 1cf4 FF1C0000 		.4byte	0x1cff
 5836 1cf8 24       		.uleb128 0x24
 5837 1cf9 01       		.uleb128 0x1
 5838 1cfa 50       		.byte	0x50
 5839 1cfb 02       		.uleb128 0x2
 5840 1cfc 08       		.byte	0x8
 5841 1cfd 32       		.byte	0x32
 5842 1cfe 00       		.byte	0
 5843 1cff 23       		.uleb128 0x23
 5844 1d00 40000000 		.4byte	.LVL12
 5845 1d04 9F470000 		.4byte	0x479f
 5846 1d08 131D0000 		.4byte	0x1d13
 5847 1d0c 24       		.uleb128 0x24
 5848 1d0d 01       		.uleb128 0x1
 5849 1d0e 50       		.byte	0x50
 5850 1d0f 02       		.uleb128 0x2
 5851 1d10 08       		.byte	0x8
 5852 1d11 31       		.byte	0x31
 5853 1d12 00       		.byte	0
 5854 1d13 23       		.uleb128 0x23
 5855 1d14 46000000 		.4byte	.LVL13
 5856 1d18 9F470000 		.4byte	0x479f
 5857 1d1c 271D0000 		.4byte	0x1d27
 5858 1d20 24       		.uleb128 0x24
 5859 1d21 01       		.uleb128 0x1
 5860 1d22 50       		.byte	0x50
 5861 1d23 02       		.uleb128 0x2
 5862 1d24 08       		.byte	0x8
 5863 1d25 31       		.byte	0x31
 5864 1d26 00       		.byte	0
 5865 1d27 23       		.uleb128 0x23
 5866 1d28 4C000000 		.4byte	.LVL14
ARM GAS  C:\Users\AHMED~1.ELE\AppData\Local\Temp\ccWApJgZ.s 			page 118


 5867 1d2c 9F470000 		.4byte	0x479f
 5868 1d30 3B1D0000 		.4byte	0x1d3b
 5869 1d34 24       		.uleb128 0x24
 5870 1d35 01       		.uleb128 0x1
 5871 1d36 50       		.byte	0x50
 5872 1d37 02       		.uleb128 0x2
 5873 1d38 08       		.byte	0x8
 5874 1d39 31       		.byte	0x31
 5875 1d3a 00       		.byte	0
 5876 1d3b 23       		.uleb128 0x23
 5877 1d3c 52000000 		.4byte	.LVL15
 5878 1d40 9F470000 		.4byte	0x479f
 5879 1d44 4F1D0000 		.4byte	0x1d4f
 5880 1d48 24       		.uleb128 0x24
 5881 1d49 01       		.uleb128 0x1
 5882 1d4a 50       		.byte	0x50
 5883 1d4b 02       		.uleb128 0x2
 5884 1d4c 08       		.byte	0x8
 5885 1d4d 30       		.byte	0x30
 5886 1d4e 00       		.byte	0
 5887 1d4f 23       		.uleb128 0x23
 5888 1d50 58000000 		.4byte	.LVL16
 5889 1d54 9F470000 		.4byte	0x479f
 5890 1d58 631D0000 		.4byte	0x1d63
 5891 1d5c 24       		.uleb128 0x24
 5892 1d5d 01       		.uleb128 0x1
 5893 1d5e 50       		.byte	0x50
 5894 1d5f 02       		.uleb128 0x2
 5895 1d60 08       		.byte	0x8
 5896 1d61 35       		.byte	0x35
 5897 1d62 00       		.byte	0
 5898 1d63 23       		.uleb128 0x23
 5899 1d64 5E000000 		.4byte	.LVL17
 5900 1d68 9F470000 		.4byte	0x479f
 5901 1d6c 771D0000 		.4byte	0x1d77
 5902 1d70 24       		.uleb128 0x24
 5903 1d71 01       		.uleb128 0x1
 5904 1d72 50       		.byte	0x50
 5905 1d73 02       		.uleb128 0x2
 5906 1d74 08       		.byte	0x8
 5907 1d75 30       		.byte	0x30
 5908 1d76 00       		.byte	0
 5909 1d77 23       		.uleb128 0x23
 5910 1d78 64000000 		.4byte	.LVL18
 5911 1d7c 9F470000 		.4byte	0x479f
 5912 1d80 8B1D0000 		.4byte	0x1d8b
 5913 1d84 24       		.uleb128 0x24
 5914 1d85 01       		.uleb128 0x1
 5915 1d86 50       		.byte	0x50
 5916 1d87 02       		.uleb128 0x2
 5917 1d88 08       		.byte	0x8
 5918 1d89 30       		.byte	0x30
 5919 1d8a 00       		.byte	0
 5920 1d8b 23       		.uleb128 0x23
 5921 1d8c 6A000000 		.4byte	.LVL19
 5922 1d90 9F470000 		.4byte	0x479f
 5923 1d94 9F1D0000 		.4byte	0x1d9f
ARM GAS  C:\Users\AHMED~1.ELE\AppData\Local\Temp\ccWApJgZ.s 			page 119


 5924 1d98 24       		.uleb128 0x24
 5925 1d99 01       		.uleb128 0x1
 5926 1d9a 50       		.byte	0x50
 5927 1d9b 02       		.uleb128 0x2
 5928 1d9c 08       		.byte	0x8
 5929 1d9d 30       		.byte	0x30
 5930 1d9e 00       		.byte	0
 5931 1d9f 23       		.uleb128 0x23
 5932 1da0 70000000 		.4byte	.LVL20
 5933 1da4 9F470000 		.4byte	0x479f
 5934 1da8 B31D0000 		.4byte	0x1db3
 5935 1dac 24       		.uleb128 0x24
 5936 1dad 01       		.uleb128 0x1
 5937 1dae 50       		.byte	0x50
 5938 1daf 02       		.uleb128 0x2
 5939 1db0 08       		.byte	0x8
 5940 1db1 31       		.byte	0x31
 5941 1db2 00       		.byte	0
 5942 1db3 23       		.uleb128 0x23
 5943 1db4 76000000 		.4byte	.LVL21
 5944 1db8 9F470000 		.4byte	0x479f
 5945 1dbc C71D0000 		.4byte	0x1dc7
 5946 1dc0 24       		.uleb128 0x24
 5947 1dc1 01       		.uleb128 0x1
 5948 1dc2 50       		.byte	0x50
 5949 1dc3 02       		.uleb128 0x2
 5950 1dc4 08       		.byte	0x8
 5951 1dc5 32       		.byte	0x32
 5952 1dc6 00       		.byte	0
 5953 1dc7 23       		.uleb128 0x23
 5954 1dc8 7C000000 		.4byte	.LVL22
 5955 1dcc 9F470000 		.4byte	0x479f
 5956 1dd0 DB1D0000 		.4byte	0x1ddb
 5957 1dd4 24       		.uleb128 0x24
 5958 1dd5 01       		.uleb128 0x1
 5959 1dd6 50       		.byte	0x50
 5960 1dd7 02       		.uleb128 0x2
 5961 1dd8 08       		.byte	0x8
 5962 1dd9 30       		.byte	0x30
 5963 1dda 00       		.byte	0
 5964 1ddb 23       		.uleb128 0x23
 5965 1ddc 82000000 		.4byte	.LVL23
 5966 1de0 9F470000 		.4byte	0x479f
 5967 1de4 EF1D0000 		.4byte	0x1def
 5968 1de8 24       		.uleb128 0x24
 5969 1de9 01       		.uleb128 0x1
 5970 1dea 50       		.byte	0x50
 5971 1deb 02       		.uleb128 0x2
 5972 1dec 08       		.byte	0x8
 5973 1ded 30       		.byte	0x30
 5974 1dee 00       		.byte	0
 5975 1def 23       		.uleb128 0x23
 5976 1df0 88000000 		.4byte	.LVL24
 5977 1df4 9F470000 		.4byte	0x479f
 5978 1df8 031E0000 		.4byte	0x1e03
 5979 1dfc 24       		.uleb128 0x24
 5980 1dfd 01       		.uleb128 0x1
ARM GAS  C:\Users\AHMED~1.ELE\AppData\Local\Temp\ccWApJgZ.s 			page 120


 5981 1dfe 50       		.byte	0x50
 5982 1dff 02       		.uleb128 0x2
 5983 1e00 08       		.byte	0x8
 5984 1e01 F2       		.byte	0xf2
 5985 1e02 00       		.byte	0
 5986 1e03 23       		.uleb128 0x23
 5987 1e04 8E000000 		.4byte	.LVL25
 5988 1e08 9F470000 		.4byte	0x479f
 5989 1e0c 171E0000 		.4byte	0x1e17
 5990 1e10 24       		.uleb128 0x24
 5991 1e11 01       		.uleb128 0x1
 5992 1e12 50       		.byte	0x50
 5993 1e13 02       		.uleb128 0x2
 5994 1e14 08       		.byte	0x8
 5995 1e15 34       		.byte	0x34
 5996 1e16 00       		.byte	0
 5997 1e17 23       		.uleb128 0x23
 5998 1e18 94000000 		.4byte	.LVL26
 5999 1e1c 9F470000 		.4byte	0x479f
 6000 1e20 2B1E0000 		.4byte	0x1e2b
 6001 1e24 24       		.uleb128 0x24
 6002 1e25 01       		.uleb128 0x1
 6003 1e26 50       		.byte	0x50
 6004 1e27 02       		.uleb128 0x2
 6005 1e28 08       		.byte	0x8
 6006 1e29 87       		.byte	0x87
 6007 1e2a 00       		.byte	0
 6008 1e2b 23       		.uleb128 0x23
 6009 1e2c 9A000000 		.4byte	.LVL27
 6010 1e30 9F470000 		.4byte	0x479f
 6011 1e34 3F1E0000 		.4byte	0x1e3f
 6012 1e38 24       		.uleb128 0x24
 6013 1e39 01       		.uleb128 0x1
 6014 1e3a 50       		.byte	0x50
 6015 1e3b 02       		.uleb128 0x2
 6016 1e3c 08       		.byte	0x8
 6017 1e3d 41       		.byte	0x41
 6018 1e3e 00       		.byte	0
 6019 1e3f 23       		.uleb128 0x23
 6020 1e40 A0000000 		.4byte	.LVL28
 6021 1e44 9F470000 		.4byte	0x479f
 6022 1e48 531E0000 		.4byte	0x1e53
 6023 1e4c 24       		.uleb128 0x24
 6024 1e4d 01       		.uleb128 0x1
 6025 1e4e 50       		.byte	0x50
 6026 1e4f 02       		.uleb128 0x2
 6027 1e50 08       		.byte	0x8
 6028 1e51 68       		.byte	0x68
 6029 1e52 00       		.byte	0
 6030 1e53 23       		.uleb128 0x23
 6031 1e54 A6000000 		.4byte	.LVL29
 6032 1e58 9F470000 		.4byte	0x479f
 6033 1e5c 671E0000 		.4byte	0x1e67
 6034 1e60 24       		.uleb128 0x24
 6035 1e61 01       		.uleb128 0x1
 6036 1e62 50       		.byte	0x50
 6037 1e63 02       		.uleb128 0x2
ARM GAS  C:\Users\AHMED~1.ELE\AppData\Local\Temp\ccWApJgZ.s 			page 121


 6038 1e64 08       		.byte	0x8
 6039 1e65 E1       		.byte	0xe1
 6040 1e66 00       		.byte	0
 6041 1e67 23       		.uleb128 0x23
 6042 1e68 AC000000 		.4byte	.LVL30
 6043 1e6c 9F470000 		.4byte	0x479f
 6044 1e70 7B1E0000 		.4byte	0x1e7b
 6045 1e74 24       		.uleb128 0x24
 6046 1e75 01       		.uleb128 0x1
 6047 1e76 50       		.byte	0x50
 6048 1e77 02       		.uleb128 0x2
 6049 1e78 08       		.byte	0x8
 6050 1e79 9A       		.byte	0x9a
 6051 1e7a 00       		.byte	0
 6052 1e7b 23       		.uleb128 0x23
 6053 1e7c B2000000 		.4byte	.LVL31
 6054 1e80 9F470000 		.4byte	0x479f
 6055 1e84 8E1E0000 		.4byte	0x1e8e
 6056 1e88 24       		.uleb128 0x24
 6057 1e89 01       		.uleb128 0x1
 6058 1e8a 50       		.byte	0x50
 6059 1e8b 01       		.uleb128 0x1
 6060 1e8c 33       		.byte	0x33
 6061 1e8d 00       		.byte	0
 6062 1e8e 23       		.uleb128 0x23
 6063 1e8f B8000000 		.4byte	.LVL32
 6064 1e93 9F470000 		.4byte	0x479f
 6065 1e97 A11E0000 		.4byte	0x1ea1
 6066 1e9b 24       		.uleb128 0x24
 6067 1e9c 01       		.uleb128 0x1
 6068 1e9d 50       		.byte	0x50
 6069 1e9e 01       		.uleb128 0x1
 6070 1e9f 31       		.byte	0x31
 6071 1ea0 00       		.byte	0
 6072 1ea1 23       		.uleb128 0x23
 6073 1ea2 BE000000 		.4byte	.LVL33
 6074 1ea6 9F470000 		.4byte	0x479f
 6075 1eaa B41E0000 		.4byte	0x1eb4
 6076 1eae 24       		.uleb128 0x24
 6077 1eaf 01       		.uleb128 0x1
 6078 1eb0 50       		.byte	0x50
 6079 1eb1 01       		.uleb128 0x1
 6080 1eb2 30       		.byte	0x30
 6081 1eb3 00       		.byte	0
 6082 1eb4 23       		.uleb128 0x23
 6083 1eb5 C4000000 		.4byte	.LVL34
 6084 1eb9 9F470000 		.4byte	0x479f
 6085 1ebd C71E0000 		.4byte	0x1ec7
 6086 1ec1 24       		.uleb128 0x24
 6087 1ec2 01       		.uleb128 0x1
 6088 1ec3 50       		.byte	0x50
 6089 1ec4 01       		.uleb128 0x1
 6090 1ec5 30       		.byte	0x30
 6091 1ec6 00       		.byte	0
 6092 1ec7 23       		.uleb128 0x23
 6093 1ec8 CA000000 		.4byte	.LVL35
 6094 1ecc 9F470000 		.4byte	0x479f
ARM GAS  C:\Users\AHMED~1.ELE\AppData\Local\Temp\ccWApJgZ.s 			page 122


 6095 1ed0 DA1E0000 		.4byte	0x1eda
 6096 1ed4 24       		.uleb128 0x24
 6097 1ed5 01       		.uleb128 0x1
 6098 1ed6 50       		.byte	0x50
 6099 1ed7 01       		.uleb128 0x1
 6100 1ed8 30       		.byte	0x30
 6101 1ed9 00       		.byte	0
 6102 1eda 23       		.uleb128 0x23
 6103 1edb D0000000 		.4byte	.LVL36
 6104 1edf 9F470000 		.4byte	0x479f
 6105 1ee3 ED1E0000 		.4byte	0x1eed
 6106 1ee7 24       		.uleb128 0x24
 6107 1ee8 01       		.uleb128 0x1
 6108 1ee9 50       		.byte	0x50
 6109 1eea 01       		.uleb128 0x1
 6110 1eeb 30       		.byte	0x30
 6111 1eec 00       		.byte	0
 6112 1eed 23       		.uleb128 0x23
 6113 1eee D6000000 		.4byte	.LVL37
 6114 1ef2 9F470000 		.4byte	0x479f
 6115 1ef6 001F0000 		.4byte	0x1f00
 6116 1efa 24       		.uleb128 0x24
 6117 1efb 01       		.uleb128 0x1
 6118 1efc 50       		.byte	0x50
 6119 1efd 01       		.uleb128 0x1
 6120 1efe 30       		.byte	0x30
 6121 1eff 00       		.byte	0
 6122 1f00 23       		.uleb128 0x23
 6123 1f01 DC000000 		.4byte	.LVL38
 6124 1f05 9F470000 		.4byte	0x479f
 6125 1f09 131F0000 		.4byte	0x1f13
 6126 1f0d 24       		.uleb128 0x24
 6127 1f0e 01       		.uleb128 0x1
 6128 1f0f 50       		.byte	0x50
 6129 1f10 01       		.uleb128 0x1
 6130 1f11 30       		.byte	0x30
 6131 1f12 00       		.byte	0
 6132 1f13 23       		.uleb128 0x23
 6133 1f14 E2000000 		.4byte	.LVL39
 6134 1f18 9F470000 		.4byte	0x479f
 6135 1f1c 261F0000 		.4byte	0x1f26
 6136 1f20 24       		.uleb128 0x24
 6137 1f21 01       		.uleb128 0x1
 6138 1f22 50       		.byte	0x50
 6139 1f23 01       		.uleb128 0x1
 6140 1f24 30       		.byte	0x30
 6141 1f25 00       		.byte	0
 6142 1f26 23       		.uleb128 0x23
 6143 1f27 E8000000 		.4byte	.LVL40
 6144 1f2b 9F470000 		.4byte	0x479f
 6145 1f2f 391F0000 		.4byte	0x1f39
 6146 1f33 24       		.uleb128 0x24
 6147 1f34 01       		.uleb128 0x1
 6148 1f35 50       		.byte	0x50
 6149 1f36 01       		.uleb128 0x1
 6150 1f37 46       		.byte	0x46
 6151 1f38 00       		.byte	0
ARM GAS  C:\Users\AHMED~1.ELE\AppData\Local\Temp\ccWApJgZ.s 			page 123


 6152 1f39 23       		.uleb128 0x23
 6153 1f3a EE000000 		.4byte	.LVL41
 6154 1f3e 9F470000 		.4byte	0x479f
 6155 1f42 4D1F0000 		.4byte	0x1f4d
 6156 1f46 24       		.uleb128 0x24
 6157 1f47 01       		.uleb128 0x1
 6158 1f48 50       		.byte	0x50
 6159 1f49 02       		.uleb128 0x2
 6160 1f4a 08       		.byte	0x8
 6161 1f4b 34       		.byte	0x34
 6162 1f4c 00       		.byte	0
 6163 1f4d 23       		.uleb128 0x23
 6164 1f4e F4000000 		.4byte	.LVL42
 6165 1f52 9F470000 		.4byte	0x479f
 6166 1f56 611F0000 		.4byte	0x1f61
 6167 1f5a 24       		.uleb128 0x24
 6168 1f5b 01       		.uleb128 0x1
 6169 1f5c 50       		.byte	0x50
 6170 1f5d 02       		.uleb128 0x2
 6171 1f5e 08       		.byte	0x8
 6172 1f5f 32       		.byte	0x32
 6173 1f60 00       		.byte	0
 6174 1f61 23       		.uleb128 0x23
 6175 1f62 FA000000 		.4byte	.LVL43
 6176 1f66 9F470000 		.4byte	0x479f
 6177 1f6a 751F0000 		.4byte	0x1f75
 6178 1f6e 24       		.uleb128 0x24
 6179 1f6f 01       		.uleb128 0x1
 6180 1f70 50       		.byte	0x50
 6181 1f71 02       		.uleb128 0x2
 6182 1f72 08       		.byte	0x8
 6183 1f73 32       		.byte	0x32
 6184 1f74 00       		.byte	0
 6185 1f75 23       		.uleb128 0x23
 6186 1f76 00010000 		.4byte	.LVL44
 6187 1f7a 9F470000 		.4byte	0x479f
 6188 1f7e 891F0000 		.4byte	0x1f89
 6189 1f82 24       		.uleb128 0x24
 6190 1f83 01       		.uleb128 0x1
 6191 1f84 50       		.byte	0x50
 6192 1f85 02       		.uleb128 0x2
 6193 1f86 08       		.byte	0x8
 6194 1f87 33       		.byte	0x33
 6195 1f88 00       		.byte	0
 6196 1f89 23       		.uleb128 0x23
 6197 1f8a 06010000 		.4byte	.LVL45
 6198 1f8e 9F470000 		.4byte	0x479f
 6199 1f92 9D1F0000 		.4byte	0x1f9d
 6200 1f96 24       		.uleb128 0x24
 6201 1f97 01       		.uleb128 0x1
 6202 1f98 50       		.byte	0x50
 6203 1f99 02       		.uleb128 0x2
 6204 1f9a 08       		.byte	0x8
 6205 1f9b 33       		.byte	0x33
 6206 1f9c 00       		.byte	0
 6207 1f9d 23       		.uleb128 0x23
 6208 1f9e 0C010000 		.4byte	.LVL46
ARM GAS  C:\Users\AHMED~1.ELE\AppData\Local\Temp\ccWApJgZ.s 			page 124


 6209 1fa2 9F470000 		.4byte	0x479f
 6210 1fa6 B11F0000 		.4byte	0x1fb1
 6211 1faa 24       		.uleb128 0x24
 6212 1fab 01       		.uleb128 0x1
 6213 1fac 50       		.byte	0x50
 6214 1fad 02       		.uleb128 0x2
 6215 1fae 08       		.byte	0x8
 6216 1faf 30       		.byte	0x30
 6217 1fb0 00       		.byte	0
 6218 1fb1 23       		.uleb128 0x23
 6219 1fb2 12010000 		.4byte	.LVL47
 6220 1fb6 9F470000 		.4byte	0x479f
 6221 1fba C51F0000 		.4byte	0x1fc5
 6222 1fbe 24       		.uleb128 0x24
 6223 1fbf 01       		.uleb128 0x1
 6224 1fc0 50       		.byte	0x50
 6225 1fc1 02       		.uleb128 0x2
 6226 1fc2 08       		.byte	0x8
 6227 1fc3 31       		.byte	0x31
 6228 1fc4 00       		.byte	0
 6229 1fc5 23       		.uleb128 0x23
 6230 1fc6 18010000 		.4byte	.LVL48
 6231 1fca 9F470000 		.4byte	0x479f
 6232 1fce D91F0000 		.4byte	0x1fd9
 6233 1fd2 24       		.uleb128 0x24
 6234 1fd3 01       		.uleb128 0x1
 6235 1fd4 50       		.byte	0x50
 6236 1fd5 02       		.uleb128 0x2
 6237 1fd6 08       		.byte	0x8
 6238 1fd7 33       		.byte	0x33
 6239 1fd8 00       		.byte	0
 6240 1fd9 23       		.uleb128 0x23
 6241 1fda 1E010000 		.4byte	.LVL49
 6242 1fde 9F470000 		.4byte	0x479f
 6243 1fe2 ED1F0000 		.4byte	0x1fed
 6244 1fe6 24       		.uleb128 0x24
 6245 1fe7 01       		.uleb128 0x1
 6246 1fe8 50       		.byte	0x50
 6247 1fe9 02       		.uleb128 0x2
 6248 1fea 08       		.byte	0x8
 6249 1feb 36       		.byte	0x36
 6250 1fec 00       		.byte	0
 6251 1fed 23       		.uleb128 0x23
 6252 1fee 24010000 		.4byte	.LVL50
 6253 1ff2 9F470000 		.4byte	0x479f
 6254 1ff6 01200000 		.4byte	0x2001
 6255 1ffa 24       		.uleb128 0x24
 6256 1ffb 01       		.uleb128 0x1
 6257 1ffc 50       		.byte	0x50
 6258 1ffd 02       		.uleb128 0x2
 6259 1ffe 08       		.byte	0x8
 6260 1fff 35       		.byte	0x35
 6261 2000 00       		.byte	0
 6262 2001 23       		.uleb128 0x23
 6263 2002 2A010000 		.4byte	.LVL51
 6264 2006 9F470000 		.4byte	0x479f
 6265 200a 15200000 		.4byte	0x2015
ARM GAS  C:\Users\AHMED~1.ELE\AppData\Local\Temp\ccWApJgZ.s 			page 125


 6266 200e 24       		.uleb128 0x24
 6267 200f 01       		.uleb128 0x1
 6268 2010 50       		.byte	0x50
 6269 2011 02       		.uleb128 0x2
 6270 2012 08       		.byte	0x8
 6271 2013 39       		.byte	0x39
 6272 2014 00       		.byte	0
 6273 2015 23       		.uleb128 0x23
 6274 2016 30010000 		.4byte	.LVL52
 6275 201a 9F470000 		.4byte	0x479f
 6276 201e 29200000 		.4byte	0x2029
 6277 2022 24       		.uleb128 0x24
 6278 2023 01       		.uleb128 0x1
 6279 2024 50       		.byte	0x50
 6280 2025 02       		.uleb128 0x2
 6281 2026 08       		.byte	0x8
 6282 2027 38       		.byte	0x38
 6283 2028 00       		.byte	0
 6284 2029 23       		.uleb128 0x23
 6285 202a 36010000 		.4byte	.LVL53
 6286 202e 9F470000 		.4byte	0x479f
 6287 2032 3D200000 		.4byte	0x203d
 6288 2036 24       		.uleb128 0x24
 6289 2037 01       		.uleb128 0x1
 6290 2038 50       		.byte	0x50
 6291 2039 02       		.uleb128 0x2
 6292 203a 08       		.byte	0x8
 6293 203b 34       		.byte	0x34
 6294 203c 00       		.byte	0
 6295 203d 23       		.uleb128 0x23
 6296 203e 3C010000 		.4byte	.LVL54
 6297 2042 9F470000 		.4byte	0x479f
 6298 2046 51200000 		.4byte	0x2051
 6299 204a 24       		.uleb128 0x24
 6300 204b 01       		.uleb128 0x1
 6301 204c 50       		.byte	0x50
 6302 204d 02       		.uleb128 0x2
 6303 204e 08       		.byte	0x8
 6304 204f 38       		.byte	0x38
 6305 2050 00       		.byte	0
 6306 2051 23       		.uleb128 0x23
 6307 2052 42010000 		.4byte	.LVL55
 6308 2056 9F470000 		.4byte	0x479f
 6309 205a 65200000 		.4byte	0x2065
 6310 205e 24       		.uleb128 0x24
 6311 205f 01       		.uleb128 0x1
 6312 2060 50       		.byte	0x50
 6313 2061 02       		.uleb128 0x2
 6314 2062 08       		.byte	0x8
 6315 2063 31       		.byte	0x31
 6316 2064 00       		.byte	0
 6317 2065 23       		.uleb128 0x23
 6318 2066 48010000 		.4byte	.LVL56
 6319 206a 9F470000 		.4byte	0x479f
 6320 206e 79200000 		.4byte	0x2079
 6321 2072 24       		.uleb128 0x24
 6322 2073 01       		.uleb128 0x1
ARM GAS  C:\Users\AHMED~1.ELE\AppData\Local\Temp\ccWApJgZ.s 			page 126


 6323 2074 50       		.byte	0x50
 6324 2075 02       		.uleb128 0x2
 6325 2076 08       		.byte	0x8
 6326 2077 39       		.byte	0x39
 6327 2078 00       		.byte	0
 6328 2079 23       		.uleb128 0x23
 6329 207a 4E010000 		.4byte	.LVL57
 6330 207e 9F470000 		.4byte	0x479f
 6331 2082 8D200000 		.4byte	0x208d
 6332 2086 24       		.uleb128 0x24
 6333 2087 01       		.uleb128 0x1
 6334 2088 50       		.byte	0x50
 6335 2089 02       		.uleb128 0x2
 6336 208a 08       		.byte	0x8
 6337 208b 30       		.byte	0x30
 6338 208c 00       		.byte	0
 6339 208d 23       		.uleb128 0x23
 6340 208e 54010000 		.4byte	.LVL58
 6341 2092 9F470000 		.4byte	0x479f
 6342 2096 A1200000 		.4byte	0x20a1
 6343 209a 24       		.uleb128 0x24
 6344 209b 01       		.uleb128 0x1
 6345 209c 50       		.byte	0x50
 6346 209d 02       		.uleb128 0x2
 6347 209e 08       		.byte	0x8
 6348 209f 30       		.byte	0x30
 6349 20a0 00       		.byte	0
 6350 20a1 23       		.uleb128 0x23
 6351 20a2 5A010000 		.4byte	.LVL59
 6352 20a6 9F470000 		.4byte	0x479f
 6353 20aa B5200000 		.4byte	0x20b5
 6354 20ae 24       		.uleb128 0x24
 6355 20af 01       		.uleb128 0x1
 6356 20b0 50       		.byte	0x50
 6357 20b1 02       		.uleb128 0x2
 6358 20b2 08       		.byte	0x8
 6359 20b3 30       		.byte	0x30
 6360 20b4 00       		.byte	0
 6361 20b5 23       		.uleb128 0x23
 6362 20b6 60010000 		.4byte	.LVL60
 6363 20ba 9F470000 		.4byte	0x479f
 6364 20be C9200000 		.4byte	0x20c9
 6365 20c2 24       		.uleb128 0x24
 6366 20c3 01       		.uleb128 0x1
 6367 20c4 50       		.byte	0x50
 6368 20c5 02       		.uleb128 0x2
 6369 20c6 08       		.byte	0x8
 6370 20c7 30       		.byte	0x30
 6371 20c8 00       		.byte	0
 6372 20c9 23       		.uleb128 0x23
 6373 20ca 66010000 		.4byte	.LVL61
 6374 20ce 9F470000 		.4byte	0x479f
 6375 20d2 DD200000 		.4byte	0x20dd
 6376 20d6 24       		.uleb128 0x24
 6377 20d7 01       		.uleb128 0x1
 6378 20d8 50       		.byte	0x50
 6379 20d9 02       		.uleb128 0x2
ARM GAS  C:\Users\AHMED~1.ELE\AppData\Local\Temp\ccWApJgZ.s 			page 127


 6380 20da 08       		.byte	0x8
 6381 20db 30       		.byte	0x30
 6382 20dc 00       		.byte	0
 6383 20dd 23       		.uleb128 0x23
 6384 20de 6C010000 		.4byte	.LVL62
 6385 20e2 9F470000 		.4byte	0x479f
 6386 20e6 F1200000 		.4byte	0x20f1
 6387 20ea 24       		.uleb128 0x24
 6388 20eb 01       		.uleb128 0x1
 6389 20ec 50       		.byte	0x50
 6390 20ed 02       		.uleb128 0x2
 6391 20ee 08       		.byte	0x8
 6392 20ef 30       		.byte	0x30
 6393 20f0 00       		.byte	0
 6394 20f1 23       		.uleb128 0x23
 6395 20f2 72010000 		.4byte	.LVL63
 6396 20f6 9F470000 		.4byte	0x479f
 6397 20fa 05210000 		.4byte	0x2105
 6398 20fe 24       		.uleb128 0x24
 6399 20ff 01       		.uleb128 0x1
 6400 2100 50       		.byte	0x50
 6401 2101 02       		.uleb128 0x2
 6402 2102 08       		.byte	0x8
 6403 2103 30       		.byte	0x30
 6404 2104 00       		.byte	0
 6405 2105 23       		.uleb128 0x23
 6406 2106 78010000 		.4byte	.LVL64
 6407 210a 9F470000 		.4byte	0x479f
 6408 210e 19210000 		.4byte	0x2119
 6409 2112 24       		.uleb128 0x24
 6410 2113 01       		.uleb128 0x1
 6411 2114 50       		.byte	0x50
 6412 2115 02       		.uleb128 0x2
 6413 2116 08       		.byte	0x8
 6414 2117 30       		.byte	0x30
 6415 2118 00       		.byte	0
 6416 2119 23       		.uleb128 0x23
 6417 211a 7E010000 		.4byte	.LVL65
 6418 211e 9F470000 		.4byte	0x479f
 6419 2122 2D210000 		.4byte	0x212d
 6420 2126 24       		.uleb128 0x24
 6421 2127 01       		.uleb128 0x1
 6422 2128 50       		.byte	0x50
 6423 2129 02       		.uleb128 0x2
 6424 212a 08       		.byte	0x8
 6425 212b 30       		.byte	0x30
 6426 212c 00       		.byte	0
 6427 212d 23       		.uleb128 0x23
 6428 212e 84010000 		.4byte	.LVL66
 6429 2132 9F470000 		.4byte	0x479f
 6430 2136 41210000 		.4byte	0x2141
 6431 213a 24       		.uleb128 0x24
 6432 213b 01       		.uleb128 0x1
 6433 213c 50       		.byte	0x50
 6434 213d 02       		.uleb128 0x2
 6435 213e 08       		.byte	0x8
 6436 213f 30       		.byte	0x30
ARM GAS  C:\Users\AHMED~1.ELE\AppData\Local\Temp\ccWApJgZ.s 			page 128


 6437 2140 00       		.byte	0
 6438 2141 23       		.uleb128 0x23
 6439 2142 8A010000 		.4byte	.LVL67
 6440 2146 9F470000 		.4byte	0x479f
 6441 214a 55210000 		.4byte	0x2155
 6442 214e 24       		.uleb128 0x24
 6443 214f 01       		.uleb128 0x1
 6444 2150 50       		.byte	0x50
 6445 2151 02       		.uleb128 0x2
 6446 2152 08       		.byte	0x8
 6447 2153 30       		.byte	0x30
 6448 2154 00       		.byte	0
 6449 2155 23       		.uleb128 0x23
 6450 2156 90010000 		.4byte	.LVL68
 6451 215a 9F470000 		.4byte	0x479f
 6452 215e 69210000 		.4byte	0x2169
 6453 2162 24       		.uleb128 0x24
 6454 2163 01       		.uleb128 0x1
 6455 2164 50       		.byte	0x50
 6456 2165 02       		.uleb128 0x2
 6457 2166 08       		.byte	0x8
 6458 2167 30       		.byte	0x30
 6459 2168 00       		.byte	0
 6460 2169 23       		.uleb128 0x23
 6461 216a 96010000 		.4byte	.LVL69
 6462 216e 9F470000 		.4byte	0x479f
 6463 2172 7D210000 		.4byte	0x217d
 6464 2176 24       		.uleb128 0x24
 6465 2177 01       		.uleb128 0x1
 6466 2178 50       		.byte	0x50
 6467 2179 02       		.uleb128 0x2
 6468 217a 08       		.byte	0x8
 6469 217b 30       		.byte	0x30
 6470 217c 00       		.byte	0
 6471 217d 23       		.uleb128 0x23
 6472 217e 9C010000 		.4byte	.LVL70
 6473 2182 9F470000 		.4byte	0x479f
 6474 2186 91210000 		.4byte	0x2191
 6475 218a 24       		.uleb128 0x24
 6476 218b 01       		.uleb128 0x1
 6477 218c 50       		.byte	0x50
 6478 218d 02       		.uleb128 0x2
 6479 218e 08       		.byte	0x8
 6480 218f 30       		.byte	0x30
 6481 2190 00       		.byte	0
 6482 2191 23       		.uleb128 0x23
 6483 2192 A2010000 		.4byte	.LVL71
 6484 2196 9F470000 		.4byte	0x479f
 6485 219a A5210000 		.4byte	0x21a5
 6486 219e 24       		.uleb128 0x24
 6487 219f 01       		.uleb128 0x1
 6488 21a0 50       		.byte	0x50
 6489 21a1 02       		.uleb128 0x2
 6490 21a2 08       		.byte	0x8
 6491 21a3 31       		.byte	0x31
 6492 21a4 00       		.byte	0
 6493 21a5 23       		.uleb128 0x23
ARM GAS  C:\Users\AHMED~1.ELE\AppData\Local\Temp\ccWApJgZ.s 			page 129


 6494 21a6 A8010000 		.4byte	.LVL72
 6495 21aa 9F470000 		.4byte	0x479f
 6496 21ae B9210000 		.4byte	0x21b9
 6497 21b2 24       		.uleb128 0x24
 6498 21b3 01       		.uleb128 0x1
 6499 21b4 50       		.byte	0x50
 6500 21b5 02       		.uleb128 0x2
 6501 21b6 08       		.byte	0x8
 6502 21b7 34       		.byte	0x34
 6503 21b8 00       		.byte	0
 6504 21b9 23       		.uleb128 0x23
 6505 21ba AE010000 		.4byte	.LVL73
 6506 21be 9F470000 		.4byte	0x479f
 6507 21c2 CD210000 		.4byte	0x21cd
 6508 21c6 24       		.uleb128 0x24
 6509 21c7 01       		.uleb128 0x1
 6510 21c8 50       		.byte	0x50
 6511 21c9 02       		.uleb128 0x2
 6512 21ca 08       		.byte	0x8
 6513 21cb 30       		.byte	0x30
 6514 21cc 00       		.byte	0
 6515 21cd 23       		.uleb128 0x23
 6516 21ce B4010000 		.4byte	.LVL74
 6517 21d2 9F470000 		.4byte	0x479f
 6518 21d6 E1210000 		.4byte	0x21e1
 6519 21da 24       		.uleb128 0x24
 6520 21db 01       		.uleb128 0x1
 6521 21dc 50       		.byte	0x50
 6522 21dd 02       		.uleb128 0x2
 6523 21de 08       		.byte	0x8
 6524 21df 30       		.byte	0x30
 6525 21e0 00       		.byte	0
 6526 21e1 23       		.uleb128 0x23
 6527 21e2 BA010000 		.4byte	.LVL75
 6528 21e6 9F470000 		.4byte	0x479f
 6529 21ea F5210000 		.4byte	0x21f5
 6530 21ee 24       		.uleb128 0x24
 6531 21ef 01       		.uleb128 0x1
 6532 21f0 50       		.byte	0x50
 6533 21f1 02       		.uleb128 0x2
 6534 21f2 08       		.byte	0x8
 6535 21f3 31       		.byte	0x31
 6536 21f4 00       		.byte	0
 6537 21f5 23       		.uleb128 0x23
 6538 21f6 C0010000 		.4byte	.LVL76
 6539 21fa 9F470000 		.4byte	0x479f
 6540 21fe 09220000 		.4byte	0x2209
 6541 2202 24       		.uleb128 0x24
 6542 2203 01       		.uleb128 0x1
 6543 2204 50       		.byte	0x50
 6544 2205 02       		.uleb128 0x2
 6545 2206 08       		.byte	0x8
 6546 2207 36       		.byte	0x36
 6547 2208 00       		.byte	0
 6548 2209 23       		.uleb128 0x23
 6549 220a C6010000 		.4byte	.LVL77
 6550 220e 9F470000 		.4byte	0x479f
ARM GAS  C:\Users\AHMED~1.ELE\AppData\Local\Temp\ccWApJgZ.s 			page 130


 6551 2212 1D220000 		.4byte	0x221d
 6552 2216 24       		.uleb128 0x24
 6553 2217 01       		.uleb128 0x1
 6554 2218 50       		.byte	0x50
 6555 2219 02       		.uleb128 0x2
 6556 221a 08       		.byte	0x8
 6557 221b 30       		.byte	0x30
 6558 221c 00       		.byte	0
 6559 221d 23       		.uleb128 0x23
 6560 221e CC010000 		.4byte	.LVL78
 6561 2222 9F470000 		.4byte	0x479f
 6562 2226 31220000 		.4byte	0x2231
 6563 222a 24       		.uleb128 0x24
 6564 222b 01       		.uleb128 0x1
 6565 222c 50       		.byte	0x50
 6566 222d 02       		.uleb128 0x2
 6567 222e 08       		.byte	0x8
 6568 222f 35       		.byte	0x35
 6569 2230 00       		.byte	0
 6570 2231 23       		.uleb128 0x23
 6571 2232 D2010000 		.4byte	.LVL79
 6572 2236 9F470000 		.4byte	0x479f
 6573 223a 45220000 		.4byte	0x2245
 6574 223e 24       		.uleb128 0x24
 6575 223f 01       		.uleb128 0x1
 6576 2240 50       		.byte	0x50
 6577 2241 02       		.uleb128 0x2
 6578 2242 08       		.byte	0x8
 6579 2243 32       		.byte	0x32
 6580 2244 00       		.byte	0
 6581 2245 23       		.uleb128 0x23
 6582 2246 D8010000 		.4byte	.LVL80
 6583 224a 9F470000 		.4byte	0x479f
 6584 224e 59220000 		.4byte	0x2259
 6585 2252 24       		.uleb128 0x24
 6586 2253 01       		.uleb128 0x1
 6587 2254 50       		.byte	0x50
 6588 2255 02       		.uleb128 0x2
 6589 2256 08       		.byte	0x8
 6590 2257 33       		.byte	0x33
 6591 2258 00       		.byte	0
 6592 2259 23       		.uleb128 0x23
 6593 225a DE010000 		.4byte	.LVL81
 6594 225e 9F470000 		.4byte	0x479f
 6595 2262 6D220000 		.4byte	0x226d
 6596 2266 24       		.uleb128 0x24
 6597 2267 01       		.uleb128 0x1
 6598 2268 50       		.byte	0x50
 6599 2269 02       		.uleb128 0x2
 6600 226a 08       		.byte	0x8
 6601 226b 31       		.byte	0x31
 6602 226c 00       		.byte	0
 6603 226d 23       		.uleb128 0x23
 6604 226e E4010000 		.4byte	.LVL82
 6605 2272 9F470000 		.4byte	0x479f
 6606 2276 81220000 		.4byte	0x2281
 6607 227a 24       		.uleb128 0x24
ARM GAS  C:\Users\AHMED~1.ELE\AppData\Local\Temp\ccWApJgZ.s 			page 131


 6608 227b 01       		.uleb128 0x1
 6609 227c 50       		.byte	0x50
 6610 227d 02       		.uleb128 0x2
 6611 227e 08       		.byte	0x8
 6612 227f 31       		.byte	0x31
 6613 2280 00       		.byte	0
 6614 2281 23       		.uleb128 0x23
 6615 2282 EA010000 		.4byte	.LVL83
 6616 2286 9F470000 		.4byte	0x479f
 6617 228a 95220000 		.4byte	0x2295
 6618 228e 24       		.uleb128 0x24
 6619 228f 01       		.uleb128 0x1
 6620 2290 50       		.byte	0x50
 6621 2291 02       		.uleb128 0x2
 6622 2292 08       		.byte	0x8
 6623 2293 32       		.byte	0x32
 6624 2294 00       		.byte	0
 6625 2295 23       		.uleb128 0x23
 6626 2296 F0010000 		.4byte	.LVL84
 6627 229a 9F470000 		.4byte	0x479f
 6628 229e A9220000 		.4byte	0x22a9
 6629 22a2 24       		.uleb128 0x24
 6630 22a3 01       		.uleb128 0x1
 6631 22a4 50       		.byte	0x50
 6632 22a5 02       		.uleb128 0x2
 6633 22a6 08       		.byte	0x8
 6634 22a7 37       		.byte	0x37
 6635 22a8 00       		.byte	0
 6636 22a9 23       		.uleb128 0x23
 6637 22aa F6010000 		.4byte	.LVL85
 6638 22ae 9F470000 		.4byte	0x479f
 6639 22b2 BD220000 		.4byte	0x22bd
 6640 22b6 24       		.uleb128 0x24
 6641 22b7 01       		.uleb128 0x1
 6642 22b8 50       		.byte	0x50
 6643 22b9 02       		.uleb128 0x2
 6644 22ba 08       		.byte	0x8
 6645 22bb 30       		.byte	0x30
 6646 22bc 00       		.byte	0
 6647 22bd 23       		.uleb128 0x23
 6648 22be FC010000 		.4byte	.LVL86
 6649 22c2 9F470000 		.4byte	0x479f
 6650 22c6 D1220000 		.4byte	0x22d1
 6651 22ca 24       		.uleb128 0x24
 6652 22cb 01       		.uleb128 0x1
 6653 22cc 50       		.byte	0x50
 6654 22cd 02       		.uleb128 0x2
 6655 22ce 08       		.byte	0x8
 6656 22cf 30       		.byte	0x30
 6657 22d0 00       		.byte	0
 6658 22d1 23       		.uleb128 0x23
 6659 22d2 02020000 		.4byte	.LVL87
 6660 22d6 9F470000 		.4byte	0x479f
 6661 22da E5220000 		.4byte	0x22e5
 6662 22de 24       		.uleb128 0x24
 6663 22df 01       		.uleb128 0x1
 6664 22e0 50       		.byte	0x50
ARM GAS  C:\Users\AHMED~1.ELE\AppData\Local\Temp\ccWApJgZ.s 			page 132


 6665 22e1 02       		.uleb128 0x2
 6666 22e2 08       		.byte	0x8
 6667 22e3 30       		.byte	0x30
 6668 22e4 00       		.byte	0
 6669 22e5 23       		.uleb128 0x23
 6670 22e6 08020000 		.4byte	.LVL88
 6671 22ea 9F470000 		.4byte	0x479f
 6672 22ee F9220000 		.4byte	0x22f9
 6673 22f2 24       		.uleb128 0x24
 6674 22f3 01       		.uleb128 0x1
 6675 22f4 50       		.byte	0x50
 6676 22f5 02       		.uleb128 0x2
 6677 22f6 08       		.byte	0x8
 6678 22f7 31       		.byte	0x31
 6679 22f8 00       		.byte	0
 6680 22f9 23       		.uleb128 0x23
 6681 22fa 0E020000 		.4byte	.LVL89
 6682 22fe 9F470000 		.4byte	0x479f
 6683 2302 0D230000 		.4byte	0x230d
 6684 2306 24       		.uleb128 0x24
 6685 2307 01       		.uleb128 0x1
 6686 2308 50       		.byte	0x50
 6687 2309 02       		.uleb128 0x2
 6688 230a 08       		.byte	0x8
 6689 230b 31       		.byte	0x31
 6690 230c 00       		.byte	0
 6691 230d 23       		.uleb128 0x23
 6692 230e 14020000 		.4byte	.LVL90
 6693 2312 9F470000 		.4byte	0x479f
 6694 2316 21230000 		.4byte	0x2321
 6695 231a 24       		.uleb128 0x24
 6696 231b 01       		.uleb128 0x1
 6697 231c 50       		.byte	0x50
 6698 231d 02       		.uleb128 0x2
 6699 231e 08       		.byte	0x8
 6700 231f 38       		.byte	0x38
 6701 2320 00       		.byte	0
 6702 2321 23       		.uleb128 0x23
 6703 2322 1A020000 		.4byte	.LVL91
 6704 2326 9F470000 		.4byte	0x479f
 6705 232a 35230000 		.4byte	0x2335
 6706 232e 24       		.uleb128 0x24
 6707 232f 01       		.uleb128 0x1
 6708 2330 50       		.byte	0x50
 6709 2331 02       		.uleb128 0x2
 6710 2332 08       		.byte	0x8
 6711 2333 31       		.byte	0x31
 6712 2334 00       		.byte	0
 6713 2335 23       		.uleb128 0x23
 6714 2336 20020000 		.4byte	.LVL92
 6715 233a 9F470000 		.4byte	0x479f
 6716 233e 49230000 		.4byte	0x2349
 6717 2342 24       		.uleb128 0x24
 6718 2343 01       		.uleb128 0x1
 6719 2344 50       		.byte	0x50
 6720 2345 02       		.uleb128 0x2
 6721 2346 08       		.byte	0x8
ARM GAS  C:\Users\AHMED~1.ELE\AppData\Local\Temp\ccWApJgZ.s 			page 133


 6722 2347 36       		.byte	0x36
 6723 2348 00       		.byte	0
 6724 2349 23       		.uleb128 0x23
 6725 234a 26020000 		.4byte	.LVL93
 6726 234e 9F470000 		.4byte	0x479f
 6727 2352 5D230000 		.4byte	0x235d
 6728 2356 24       		.uleb128 0x24
 6729 2357 01       		.uleb128 0x1
 6730 2358 50       		.byte	0x50
 6731 2359 02       		.uleb128 0x2
 6732 235a 08       		.byte	0x8
 6733 235b 30       		.byte	0x30
 6734 235c 00       		.byte	0
 6735 235d 23       		.uleb128 0x23
 6736 235e 2C020000 		.4byte	.LVL94
 6737 2362 9F470000 		.4byte	0x479f
 6738 2366 71230000 		.4byte	0x2371
 6739 236a 24       		.uleb128 0x24
 6740 236b 01       		.uleb128 0x1
 6741 236c 50       		.byte	0x50
 6742 236d 02       		.uleb128 0x2
 6743 236e 08       		.byte	0x8
 6744 236f 35       		.byte	0x35
 6745 2370 00       		.byte	0
 6746 2371 23       		.uleb128 0x23
 6747 2372 32020000 		.4byte	.LVL95
 6748 2376 9F470000 		.4byte	0x479f
 6749 237a 85230000 		.4byte	0x2385
 6750 237e 24       		.uleb128 0x24
 6751 237f 01       		.uleb128 0x1
 6752 2380 50       		.byte	0x50
 6753 2381 02       		.uleb128 0x2
 6754 2382 08       		.byte	0x8
 6755 2383 32       		.byte	0x32
 6756 2384 00       		.byte	0
 6757 2385 23       		.uleb128 0x23
 6758 2386 38020000 		.4byte	.LVL96
 6759 238a 9F470000 		.4byte	0x479f
 6760 238e 99230000 		.4byte	0x2399
 6761 2392 24       		.uleb128 0x24
 6762 2393 01       		.uleb128 0x1
 6763 2394 50       		.byte	0x50
 6764 2395 02       		.uleb128 0x2
 6765 2396 08       		.byte	0x8
 6766 2397 33       		.byte	0x33
 6767 2398 00       		.byte	0
 6768 2399 23       		.uleb128 0x23
 6769 239a 3E020000 		.4byte	.LVL97
 6770 239e 9F470000 		.4byte	0x479f
 6771 23a2 AD230000 		.4byte	0x23ad
 6772 23a6 24       		.uleb128 0x24
 6773 23a7 01       		.uleb128 0x1
 6774 23a8 50       		.byte	0x50
 6775 23a9 02       		.uleb128 0x2
 6776 23aa 08       		.byte	0x8
 6777 23ab 31       		.byte	0x31
 6778 23ac 00       		.byte	0
ARM GAS  C:\Users\AHMED~1.ELE\AppData\Local\Temp\ccWApJgZ.s 			page 134


 6779 23ad 23       		.uleb128 0x23
 6780 23ae 44020000 		.4byte	.LVL98
 6781 23b2 9F470000 		.4byte	0x479f
 6782 23b6 C1230000 		.4byte	0x23c1
 6783 23ba 24       		.uleb128 0x24
 6784 23bb 01       		.uleb128 0x1
 6785 23bc 50       		.byte	0x50
 6786 23bd 02       		.uleb128 0x2
 6787 23be 08       		.byte	0x8
 6788 23bf 31       		.byte	0x31
 6789 23c0 00       		.byte	0
 6790 23c1 23       		.uleb128 0x23
 6791 23c2 4A020000 		.4byte	.LVL99
 6792 23c6 9F470000 		.4byte	0x479f
 6793 23ca D5230000 		.4byte	0x23d5
 6794 23ce 24       		.uleb128 0x24
 6795 23cf 01       		.uleb128 0x1
 6796 23d0 50       		.byte	0x50
 6797 23d1 02       		.uleb128 0x2
 6798 23d2 08       		.byte	0x8
 6799 23d3 32       		.byte	0x32
 6800 23d4 00       		.byte	0
 6801 23d5 23       		.uleb128 0x23
 6802 23d6 50020000 		.4byte	.LVL100
 6803 23da 9F470000 		.4byte	0x479f
 6804 23de E9230000 		.4byte	0x23e9
 6805 23e2 24       		.uleb128 0x24
 6806 23e3 01       		.uleb128 0x1
 6807 23e4 50       		.byte	0x50
 6808 23e5 02       		.uleb128 0x2
 6809 23e6 08       		.byte	0x8
 6810 23e7 37       		.byte	0x37
 6811 23e8 00       		.byte	0
 6812 23e9 23       		.uleb128 0x23
 6813 23ea 56020000 		.4byte	.LVL101
 6814 23ee 9F470000 		.4byte	0x479f
 6815 23f2 FD230000 		.4byte	0x23fd
 6816 23f6 24       		.uleb128 0x24
 6817 23f7 01       		.uleb128 0x1
 6818 23f8 50       		.byte	0x50
 6819 23f9 02       		.uleb128 0x2
 6820 23fa 08       		.byte	0x8
 6821 23fb 35       		.byte	0x35
 6822 23fc 00       		.byte	0
 6823 23fd 23       		.uleb128 0x23
 6824 23fe 5C020000 		.4byte	.LVL102
 6825 2402 9F470000 		.4byte	0x479f
 6826 2406 11240000 		.4byte	0x2411
 6827 240a 24       		.uleb128 0x24
 6828 240b 01       		.uleb128 0x1
 6829 240c 50       		.byte	0x50
 6830 240d 02       		.uleb128 0x2
 6831 240e 08       		.byte	0x8
 6832 240f 38       		.byte	0x38
 6833 2410 00       		.byte	0
 6834 2411 23       		.uleb128 0x23
 6835 2412 62020000 		.4byte	.LVL103
ARM GAS  C:\Users\AHMED~1.ELE\AppData\Local\Temp\ccWApJgZ.s 			page 135


 6836 2416 9F470000 		.4byte	0x479f
 6837 241a 25240000 		.4byte	0x2425
 6838 241e 24       		.uleb128 0x24
 6839 241f 01       		.uleb128 0x1
 6840 2420 50       		.byte	0x50
 6841 2421 02       		.uleb128 0x2
 6842 2422 08       		.byte	0x8
 6843 2423 32       		.byte	0x32
 6844 2424 00       		.byte	0
 6845 2425 23       		.uleb128 0x23
 6846 2426 68020000 		.4byte	.LVL104
 6847 242a 9F470000 		.4byte	0x479f
 6848 242e 39240000 		.4byte	0x2439
 6849 2432 24       		.uleb128 0x24
 6850 2433 01       		.uleb128 0x1
 6851 2434 50       		.byte	0x50
 6852 2435 02       		.uleb128 0x2
 6853 2436 08       		.byte	0x8
 6854 2437 31       		.byte	0x31
 6855 2438 00       		.byte	0
 6856 2439 23       		.uleb128 0x23
 6857 243a 6E020000 		.4byte	.LVL105
 6858 243e 9F470000 		.4byte	0x479f
 6859 2442 4D240000 		.4byte	0x244d
 6860 2446 24       		.uleb128 0x24
 6861 2447 01       		.uleb128 0x1
 6862 2448 50       		.byte	0x50
 6863 2449 02       		.uleb128 0x2
 6864 244a 08       		.byte	0x8
 6865 244b 30       		.byte	0x30
 6866 244c 00       		.byte	0
 6867 244d 23       		.uleb128 0x23
 6868 244e 74020000 		.4byte	.LVL106
 6869 2452 9F470000 		.4byte	0x479f
 6870 2456 61240000 		.4byte	0x2461
 6871 245a 24       		.uleb128 0x24
 6872 245b 01       		.uleb128 0x1
 6873 245c 50       		.byte	0x50
 6874 245d 02       		.uleb128 0x2
 6875 245e 08       		.byte	0x8
 6876 245f 33       		.byte	0x33
 6877 2460 00       		.byte	0
 6878 2461 23       		.uleb128 0x23
 6879 2462 7A020000 		.4byte	.LVL107
 6880 2466 9F470000 		.4byte	0x479f
 6881 246a 75240000 		.4byte	0x2475
 6882 246e 24       		.uleb128 0x24
 6883 246f 01       		.uleb128 0x1
 6884 2470 50       		.byte	0x50
 6885 2471 02       		.uleb128 0x2
 6886 2472 08       		.byte	0x8
 6887 2473 30       		.byte	0x30
 6888 2474 00       		.byte	0
 6889 2475 23       		.uleb128 0x23
 6890 2476 80020000 		.4byte	.LVL108
 6891 247a 9F470000 		.4byte	0x479f
 6892 247e 89240000 		.4byte	0x2489
ARM GAS  C:\Users\AHMED~1.ELE\AppData\Local\Temp\ccWApJgZ.s 			page 136


 6893 2482 24       		.uleb128 0x24
 6894 2483 01       		.uleb128 0x1
 6895 2484 50       		.byte	0x50
 6896 2485 02       		.uleb128 0x2
 6897 2486 08       		.byte	0x8
 6898 2487 35       		.byte	0x35
 6899 2488 00       		.byte	0
 6900 2489 23       		.uleb128 0x23
 6901 248a 86020000 		.4byte	.LVL109
 6902 248e 9F470000 		.4byte	0x479f
 6903 2492 9D240000 		.4byte	0x249d
 6904 2496 24       		.uleb128 0x24
 6905 2497 01       		.uleb128 0x1
 6906 2498 50       		.byte	0x50
 6907 2499 02       		.uleb128 0x2
 6908 249a 08       		.byte	0x8
 6909 249b 32       		.byte	0x32
 6910 249c 00       		.byte	0
 6911 249d 23       		.uleb128 0x23
 6912 249e 8C020000 		.4byte	.LVL110
 6913 24a2 9F470000 		.4byte	0x479f
 6914 24a6 B1240000 		.4byte	0x24b1
 6915 24aa 24       		.uleb128 0x24
 6916 24ab 01       		.uleb128 0x1
 6917 24ac 50       		.byte	0x50
 6918 24ad 02       		.uleb128 0x2
 6919 24ae 08       		.byte	0x8
 6920 24af 33       		.byte	0x33
 6921 24b0 00       		.byte	0
 6922 24b1 23       		.uleb128 0x23
 6923 24b2 92020000 		.4byte	.LVL111
 6924 24b6 9F470000 		.4byte	0x479f
 6925 24ba C5240000 		.4byte	0x24c5
 6926 24be 24       		.uleb128 0x24
 6927 24bf 01       		.uleb128 0x1
 6928 24c0 50       		.byte	0x50
 6929 24c1 02       		.uleb128 0x2
 6930 24c2 08       		.byte	0x8
 6931 24c3 38       		.byte	0x38
 6932 24c4 00       		.byte	0
 6933 24c5 23       		.uleb128 0x23
 6934 24c6 98020000 		.4byte	.LVL112
 6935 24ca 9F470000 		.4byte	0x479f
 6936 24ce D9240000 		.4byte	0x24d9
 6937 24d2 24       		.uleb128 0x24
 6938 24d3 01       		.uleb128 0x1
 6939 24d4 50       		.byte	0x50
 6940 24d5 02       		.uleb128 0x2
 6941 24d6 08       		.byte	0x8
 6942 24d7 31       		.byte	0x31
 6943 24d8 00       		.byte	0
 6944 24d9 23       		.uleb128 0x23
 6945 24da 9E020000 		.4byte	.LVL113
 6946 24de 9F470000 		.4byte	0x479f
 6947 24e2 ED240000 		.4byte	0x24ed
 6948 24e6 24       		.uleb128 0x24
 6949 24e7 01       		.uleb128 0x1
ARM GAS  C:\Users\AHMED~1.ELE\AppData\Local\Temp\ccWApJgZ.s 			page 137


 6950 24e8 50       		.byte	0x50
 6951 24e9 02       		.uleb128 0x2
 6952 24ea 08       		.byte	0x8
 6953 24eb 30       		.byte	0x30
 6954 24ec 00       		.byte	0
 6955 24ed 23       		.uleb128 0x23
 6956 24ee A4020000 		.4byte	.LVL114
 6957 24f2 9F470000 		.4byte	0x479f
 6958 24f6 01250000 		.4byte	0x2501
 6959 24fa 24       		.uleb128 0x24
 6960 24fb 01       		.uleb128 0x1
 6961 24fc 50       		.byte	0x50
 6962 24fd 02       		.uleb128 0x2
 6963 24fe 08       		.byte	0x8
 6964 24ff 31       		.byte	0x31
 6965 2500 00       		.byte	0
 6966 2501 23       		.uleb128 0x23
 6967 2502 AA020000 		.4byte	.LVL115
 6968 2506 9F470000 		.4byte	0x479f
 6969 250a 15250000 		.4byte	0x2515
 6970 250e 24       		.uleb128 0x24
 6971 250f 01       		.uleb128 0x1
 6972 2510 50       		.byte	0x50
 6973 2511 02       		.uleb128 0x2
 6974 2512 08       		.byte	0x8
 6975 2513 30       		.byte	0x30
 6976 2514 00       		.byte	0
 6977 2515 23       		.uleb128 0x23
 6978 2516 B0020000 		.4byte	.LVL116
 6979 251a 9F470000 		.4byte	0x479f
 6980 251e 29250000 		.4byte	0x2529
 6981 2522 24       		.uleb128 0x24
 6982 2523 01       		.uleb128 0x1
 6983 2524 50       		.byte	0x50
 6984 2525 02       		.uleb128 0x2
 6985 2526 08       		.byte	0x8
 6986 2527 31       		.byte	0x31
 6987 2528 00       		.byte	0
 6988 2529 23       		.uleb128 0x23
 6989 252a B6020000 		.4byte	.LVL117
 6990 252e 9F470000 		.4byte	0x479f
 6991 2532 3D250000 		.4byte	0x253d
 6992 2536 24       		.uleb128 0x24
 6993 2537 01       		.uleb128 0x1
 6994 2538 50       		.byte	0x50
 6995 2539 02       		.uleb128 0x2
 6996 253a 08       		.byte	0x8
 6997 253b 35       		.byte	0x35
 6998 253c 00       		.byte	0
 6999 253d 23       		.uleb128 0x23
 7000 253e BC020000 		.4byte	.LVL118
 7001 2542 9F470000 		.4byte	0x479f
 7002 2546 51250000 		.4byte	0x2551
 7003 254a 24       		.uleb128 0x24
 7004 254b 01       		.uleb128 0x1
 7005 254c 50       		.byte	0x50
 7006 254d 02       		.uleb128 0x2
ARM GAS  C:\Users\AHMED~1.ELE\AppData\Local\Temp\ccWApJgZ.s 			page 138


 7007 254e 08       		.byte	0x8
 7008 254f 31       		.byte	0x31
 7009 2550 00       		.byte	0
 7010 2551 23       		.uleb128 0x23
 7011 2552 C2020000 		.4byte	.LVL119
 7012 2556 9F470000 		.4byte	0x479f
 7013 255a 65250000 		.4byte	0x2565
 7014 255e 24       		.uleb128 0x24
 7015 255f 01       		.uleb128 0x1
 7016 2560 50       		.byte	0x50
 7017 2561 02       		.uleb128 0x2
 7018 2562 08       		.byte	0x8
 7019 2563 30       		.byte	0x30
 7020 2564 00       		.byte	0
 7021 2565 23       		.uleb128 0x23
 7022 2566 C8020000 		.4byte	.LVL120
 7023 256a 9F470000 		.4byte	0x479f
 7024 256e 79250000 		.4byte	0x2579
 7025 2572 24       		.uleb128 0x24
 7026 2573 01       		.uleb128 0x1
 7027 2574 50       		.byte	0x50
 7028 2575 02       		.uleb128 0x2
 7029 2576 08       		.byte	0x8
 7030 2577 31       		.byte	0x31
 7031 2578 00       		.byte	0
 7032 2579 23       		.uleb128 0x23
 7033 257a CE020000 		.4byte	.LVL121
 7034 257e 9F470000 		.4byte	0x479f
 7035 2582 8D250000 		.4byte	0x258d
 7036 2586 24       		.uleb128 0x24
 7037 2587 01       		.uleb128 0x1
 7038 2588 50       		.byte	0x50
 7039 2589 02       		.uleb128 0x2
 7040 258a 08       		.byte	0x8
 7041 258b 34       		.byte	0x34
 7042 258c 00       		.byte	0
 7043 258d 23       		.uleb128 0x23
 7044 258e D4020000 		.4byte	.LVL122
 7045 2592 9F470000 		.4byte	0x479f
 7046 2596 A1250000 		.4byte	0x25a1
 7047 259a 24       		.uleb128 0x24
 7048 259b 01       		.uleb128 0x1
 7049 259c 50       		.byte	0x50
 7050 259d 02       		.uleb128 0x2
 7051 259e 08       		.byte	0x8
 7052 259f 63       		.byte	0x63
 7053 25a0 00       		.byte	0
 7054 25a1 23       		.uleb128 0x23
 7055 25a2 DA020000 		.4byte	.LVL123
 7056 25a6 9F470000 		.4byte	0x479f
 7057 25aa B5250000 		.4byte	0x25b5
 7058 25ae 24       		.uleb128 0x24
 7059 25af 01       		.uleb128 0x1
 7060 25b0 50       		.byte	0x50
 7061 25b1 02       		.uleb128 0x2
 7062 25b2 08       		.byte	0x8
 7063 25b3 30       		.byte	0x30
ARM GAS  C:\Users\AHMED~1.ELE\AppData\Local\Temp\ccWApJgZ.s 			page 139


 7064 25b4 00       		.byte	0
 7065 25b5 23       		.uleb128 0x23
 7066 25b6 E0020000 		.4byte	.LVL124
 7067 25ba 9F470000 		.4byte	0x479f
 7068 25be C9250000 		.4byte	0x25c9
 7069 25c2 24       		.uleb128 0x24
 7070 25c3 01       		.uleb128 0x1
 7071 25c4 50       		.byte	0x50
 7072 25c5 02       		.uleb128 0x2
 7073 25c6 08       		.byte	0x8
 7074 25c7 30       		.byte	0x30
 7075 25c8 00       		.byte	0
 7076 25c9 23       		.uleb128 0x23
 7077 25ca E6020000 		.4byte	.LVL125
 7078 25ce 9F470000 		.4byte	0x479f
 7079 25d2 DD250000 		.4byte	0x25dd
 7080 25d6 24       		.uleb128 0x24
 7081 25d7 01       		.uleb128 0x1
 7082 25d8 50       		.byte	0x50
 7083 25d9 02       		.uleb128 0x2
 7084 25da 08       		.byte	0x8
 7085 25db 30       		.byte	0x30
 7086 25dc 00       		.byte	0
 7087 25dd 23       		.uleb128 0x23
 7088 25de EC020000 		.4byte	.LVL126
 7089 25e2 9F470000 		.4byte	0x479f
 7090 25e6 F1250000 		.4byte	0x25f1
 7091 25ea 24       		.uleb128 0x24
 7092 25eb 01       		.uleb128 0x1
 7093 25ec 50       		.byte	0x50
 7094 25ed 02       		.uleb128 0x2
 7095 25ee 08       		.byte	0x8
 7096 25ef 32       		.byte	0x32
 7097 25f0 00       		.byte	0
 7098 25f1 23       		.uleb128 0x23
 7099 25f2 F2020000 		.4byte	.LVL127
 7100 25f6 9F470000 		.4byte	0x479f
 7101 25fa 05260000 		.4byte	0x2605
 7102 25fe 24       		.uleb128 0x24
 7103 25ff 01       		.uleb128 0x1
 7104 2600 50       		.byte	0x50
 7105 2601 02       		.uleb128 0x2
 7106 2602 08       		.byte	0x8
 7107 2603 30       		.byte	0x30
 7108 2604 00       		.byte	0
 7109 2605 23       		.uleb128 0x23
 7110 2606 F8020000 		.4byte	.LVL128
 7111 260a 9F470000 		.4byte	0x479f
 7112 260e 19260000 		.4byte	0x2619
 7113 2612 24       		.uleb128 0x24
 7114 2613 01       		.uleb128 0x1
 7115 2614 50       		.byte	0x50
 7116 2615 02       		.uleb128 0x2
 7117 2616 08       		.byte	0x8
 7118 2617 30       		.byte	0x30
 7119 2618 00       		.byte	0
 7120 2619 23       		.uleb128 0x23
ARM GAS  C:\Users\AHMED~1.ELE\AppData\Local\Temp\ccWApJgZ.s 			page 140


 7121 261a FE020000 		.4byte	.LVL129
 7122 261e 9F470000 		.4byte	0x479f
 7123 2622 2D260000 		.4byte	0x262d
 7124 2626 24       		.uleb128 0x24
 7125 2627 01       		.uleb128 0x1
 7126 2628 50       		.byte	0x50
 7127 2629 02       		.uleb128 0x2
 7128 262a 08       		.byte	0x8
 7129 262b 34       		.byte	0x34
 7130 262c 00       		.byte	0
 7131 262d 23       		.uleb128 0x23
 7132 262e 04030000 		.4byte	.LVL130
 7133 2632 9F470000 		.4byte	0x479f
 7134 2636 41260000 		.4byte	0x2641
 7135 263a 24       		.uleb128 0x24
 7136 263b 01       		.uleb128 0x1
 7137 263c 50       		.byte	0x50
 7138 263d 02       		.uleb128 0x2
 7139 263e 08       		.byte	0x8
 7140 263f 38       		.byte	0x38
 7141 2640 00       		.byte	0
 7142 2641 23       		.uleb128 0x23
 7143 2642 0A030000 		.4byte	.LVL131
 7144 2646 9F470000 		.4byte	0x479f
 7145 264a 55260000 		.4byte	0x2655
 7146 264e 24       		.uleb128 0x24
 7147 264f 01       		.uleb128 0x1
 7148 2650 50       		.byte	0x50
 7149 2651 02       		.uleb128 0x2
 7150 2652 08       		.byte	0x8
 7151 2653 31       		.byte	0x31
 7152 2654 00       		.byte	0
 7153 2655 23       		.uleb128 0x23
 7154 2656 10030000 		.4byte	.LVL132
 7155 265a 9F470000 		.4byte	0x479f
 7156 265e 69260000 		.4byte	0x2669
 7157 2662 24       		.uleb128 0x24
 7158 2663 01       		.uleb128 0x1
 7159 2664 50       		.byte	0x50
 7160 2665 02       		.uleb128 0x2
 7161 2666 08       		.byte	0x8
 7162 2667 34       		.byte	0x34
 7163 2668 00       		.byte	0
 7164 2669 23       		.uleb128 0x23
 7165 266a 16030000 		.4byte	.LVL133
 7166 266e 9F470000 		.4byte	0x479f
 7167 2672 7C260000 		.4byte	0x267c
 7168 2676 24       		.uleb128 0x24
 7169 2677 01       		.uleb128 0x1
 7170 2678 50       		.byte	0x50
 7171 2679 01       		.uleb128 0x1
 7172 267a 36       		.byte	0x36
 7173 267b 00       		.byte	0
 7174 267c 23       		.uleb128 0x23
 7175 267d 1C030000 		.4byte	.LVL134
 7176 2681 9F470000 		.4byte	0x479f
 7177 2685 90260000 		.4byte	0x2690
ARM GAS  C:\Users\AHMED~1.ELE\AppData\Local\Temp\ccWApJgZ.s 			page 141


 7178 2689 24       		.uleb128 0x24
 7179 268a 01       		.uleb128 0x1
 7180 268b 50       		.byte	0x50
 7181 268c 02       		.uleb128 0x2
 7182 268d 08       		.byte	0x8
 7183 268e 30       		.byte	0x30
 7184 268f 00       		.byte	0
 7185 2690 23       		.uleb128 0x23
 7186 2691 22030000 		.4byte	.LVL135
 7187 2695 9F470000 		.4byte	0x479f
 7188 2699 A4260000 		.4byte	0x26a4
 7189 269d 24       		.uleb128 0x24
 7190 269e 01       		.uleb128 0x1
 7191 269f 50       		.byte	0x50
 7192 26a0 02       		.uleb128 0x2
 7193 26a1 08       		.byte	0x8
 7194 26a2 31       		.byte	0x31
 7195 26a3 00       		.byte	0
 7196 26a4 23       		.uleb128 0x23
 7197 26a5 28030000 		.4byte	.LVL136
 7198 26a9 9F470000 		.4byte	0x479f
 7199 26ad B8260000 		.4byte	0x26b8
 7200 26b1 24       		.uleb128 0x24
 7201 26b2 01       		.uleb128 0x1
 7202 26b3 50       		.byte	0x50
 7203 26b4 02       		.uleb128 0x2
 7204 26b5 08       		.byte	0x8
 7205 26b6 31       		.byte	0x31
 7206 26b7 00       		.byte	0
 7207 26b8 23       		.uleb128 0x23
 7208 26b9 2E030000 		.4byte	.LVL137
 7209 26bd 9F470000 		.4byte	0x479f
 7210 26c1 CC260000 		.4byte	0x26cc
 7211 26c5 24       		.uleb128 0x24
 7212 26c6 01       		.uleb128 0x1
 7213 26c7 50       		.byte	0x50
 7214 26c8 02       		.uleb128 0x2
 7215 26c9 08       		.byte	0x8
 7216 26ca 32       		.byte	0x32
 7217 26cb 00       		.byte	0
 7218 26cc 23       		.uleb128 0x23
 7219 26cd 34030000 		.4byte	.LVL138
 7220 26d1 9F470000 		.4byte	0x479f
 7221 26d5 E0260000 		.4byte	0x26e0
 7222 26d9 24       		.uleb128 0x24
 7223 26da 01       		.uleb128 0x1
 7224 26db 50       		.byte	0x50
 7225 26dc 02       		.uleb128 0x2
 7226 26dd 08       		.byte	0x8
 7227 26de 30       		.byte	0x30
 7228 26df 00       		.byte	0
 7229 26e0 23       		.uleb128 0x23
 7230 26e1 3A030000 		.4byte	.LVL139
 7231 26e5 9F470000 		.4byte	0x479f
 7232 26e9 F4260000 		.4byte	0x26f4
 7233 26ed 24       		.uleb128 0x24
 7234 26ee 01       		.uleb128 0x1
ARM GAS  C:\Users\AHMED~1.ELE\AppData\Local\Temp\ccWApJgZ.s 			page 142


 7235 26ef 50       		.byte	0x50
 7236 26f0 02       		.uleb128 0x2
 7237 26f1 08       		.byte	0x8
 7238 26f2 30       		.byte	0x30
 7239 26f3 00       		.byte	0
 7240 26f4 23       		.uleb128 0x23
 7241 26f5 40030000 		.4byte	.LVL140
 7242 26f9 9F470000 		.4byte	0x479f
 7243 26fd 07270000 		.4byte	0x2707
 7244 2701 24       		.uleb128 0x24
 7245 2702 01       		.uleb128 0x1
 7246 2703 50       		.byte	0x50
 7247 2704 01       		.uleb128 0x1
 7248 2705 38       		.byte	0x38
 7249 2706 00       		.byte	0
 7250 2707 23       		.uleb128 0x23
 7251 2708 46030000 		.4byte	.LVL141
 7252 270c 9F470000 		.4byte	0x479f
 7253 2710 1B270000 		.4byte	0x271b
 7254 2714 24       		.uleb128 0x24
 7255 2715 01       		.uleb128 0x1
 7256 2716 50       		.byte	0x50
 7257 2717 02       		.uleb128 0x2
 7258 2718 08       		.byte	0x8
 7259 2719 30       		.byte	0x30
 7260 271a 00       		.byte	0
 7261 271b 23       		.uleb128 0x23
 7262 271c 4C030000 		.4byte	.LVL142
 7263 2720 9F470000 		.4byte	0x479f
 7264 2724 2F270000 		.4byte	0x272f
 7265 2728 24       		.uleb128 0x24
 7266 2729 01       		.uleb128 0x1
 7267 272a 50       		.byte	0x50
 7268 272b 02       		.uleb128 0x2
 7269 272c 08       		.byte	0x8
 7270 272d 30       		.byte	0x30
 7271 272e 00       		.byte	0
 7272 272f 23       		.uleb128 0x23
 7273 2730 52030000 		.4byte	.LVL143
 7274 2734 9F470000 		.4byte	0x479f
 7275 2738 43270000 		.4byte	0x2743
 7276 273c 24       		.uleb128 0x24
 7277 273d 01       		.uleb128 0x1
 7278 273e 50       		.byte	0x50
 7279 273f 02       		.uleb128 0x2
 7280 2740 08       		.byte	0x8
 7281 2741 30       		.byte	0x30
 7282 2742 00       		.byte	0
 7283 2743 23       		.uleb128 0x23
 7284 2744 58030000 		.4byte	.LVL144
 7285 2748 9F470000 		.4byte	0x479f
 7286 274c 57270000 		.4byte	0x2757
 7287 2750 24       		.uleb128 0x24
 7288 2751 01       		.uleb128 0x1
 7289 2752 50       		.byte	0x50
 7290 2753 02       		.uleb128 0x2
 7291 2754 08       		.byte	0x8
ARM GAS  C:\Users\AHMED~1.ELE\AppData\Local\Temp\ccWApJgZ.s 			page 143


 7292 2755 30       		.byte	0x30
 7293 2756 00       		.byte	0
 7294 2757 23       		.uleb128 0x23
 7295 2758 5E030000 		.4byte	.LVL145
 7296 275c 9F470000 		.4byte	0x479f
 7297 2760 6B270000 		.4byte	0x276b
 7298 2764 24       		.uleb128 0x24
 7299 2765 01       		.uleb128 0x1
 7300 2766 50       		.byte	0x50
 7301 2767 02       		.uleb128 0x2
 7302 2768 08       		.byte	0x8
 7303 2769 30       		.byte	0x30
 7304 276a 00       		.byte	0
 7305 276b 23       		.uleb128 0x23
 7306 276c 64030000 		.4byte	.LVL146
 7307 2770 9F470000 		.4byte	0x479f
 7308 2774 7F270000 		.4byte	0x277f
 7309 2778 24       		.uleb128 0x24
 7310 2779 01       		.uleb128 0x1
 7311 277a 50       		.byte	0x50
 7312 277b 02       		.uleb128 0x2
 7313 277c 08       		.byte	0x8
 7314 277d 30       		.byte	0x30
 7315 277e 00       		.byte	0
 7316 277f 23       		.uleb128 0x23
 7317 2780 6A030000 		.4byte	.LVL147
 7318 2784 9F470000 		.4byte	0x479f
 7319 2788 93270000 		.4byte	0x2793
 7320 278c 24       		.uleb128 0x24
 7321 278d 01       		.uleb128 0x1
 7322 278e 50       		.byte	0x50
 7323 278f 02       		.uleb128 0x2
 7324 2790 08       		.byte	0x8
 7325 2791 30       		.byte	0x30
 7326 2792 00       		.byte	0
 7327 2793 23       		.uleb128 0x23
 7328 2794 70030000 		.4byte	.LVL148
 7329 2798 9F470000 		.4byte	0x479f
 7330 279c A7270000 		.4byte	0x27a7
 7331 27a0 24       		.uleb128 0x24
 7332 27a1 01       		.uleb128 0x1
 7333 27a2 50       		.byte	0x50
 7334 27a3 02       		.uleb128 0x2
 7335 27a4 08       		.byte	0x8
 7336 27a5 30       		.byte	0x30
 7337 27a6 00       		.byte	0
 7338 27a7 23       		.uleb128 0x23
 7339 27a8 76030000 		.4byte	.LVL149
 7340 27ac 9F470000 		.4byte	0x479f
 7341 27b0 BB270000 		.4byte	0x27bb
 7342 27b4 24       		.uleb128 0x24
 7343 27b5 01       		.uleb128 0x1
 7344 27b6 50       		.byte	0x50
 7345 27b7 02       		.uleb128 0x2
 7346 27b8 08       		.byte	0x8
 7347 27b9 32       		.byte	0x32
 7348 27ba 00       		.byte	0
ARM GAS  C:\Users\AHMED~1.ELE\AppData\Local\Temp\ccWApJgZ.s 			page 144


 7349 27bb 23       		.uleb128 0x23
 7350 27bc 7C030000 		.4byte	.LVL150
 7351 27c0 9F470000 		.4byte	0x479f
 7352 27c4 CF270000 		.4byte	0x27cf
 7353 27c8 24       		.uleb128 0x24
 7354 27c9 01       		.uleb128 0x1
 7355 27ca 50       		.byte	0x50
 7356 27cb 02       		.uleb128 0x2
 7357 27cc 08       		.byte	0x8
 7358 27cd 34       		.byte	0x34
 7359 27ce 00       		.byte	0
 7360 27cf 23       		.uleb128 0x23
 7361 27d0 82030000 		.4byte	.LVL151
 7362 27d4 9F470000 		.4byte	0x479f
 7363 27d8 E3270000 		.4byte	0x27e3
 7364 27dc 24       		.uleb128 0x24
 7365 27dd 01       		.uleb128 0x1
 7366 27de 50       		.byte	0x50
 7367 27df 02       		.uleb128 0x2
 7368 27e0 08       		.byte	0x8
 7369 27e1 32       		.byte	0x32
 7370 27e2 00       		.byte	0
 7371 27e3 23       		.uleb128 0x23
 7372 27e4 88030000 		.4byte	.LVL152
 7373 27e8 9F470000 		.4byte	0x479f
 7374 27ec F7270000 		.4byte	0x27f7
 7375 27f0 24       		.uleb128 0x24
 7376 27f1 01       		.uleb128 0x1
 7377 27f2 50       		.byte	0x50
 7378 27f3 02       		.uleb128 0x2
 7379 27f4 08       		.byte	0x8
 7380 27f5 32       		.byte	0x32
 7381 27f6 00       		.byte	0
 7382 27f7 23       		.uleb128 0x23
 7383 27f8 8E030000 		.4byte	.LVL153
 7384 27fc 9F470000 		.4byte	0x479f
 7385 2800 0B280000 		.4byte	0x280b
 7386 2804 24       		.uleb128 0x24
 7387 2805 01       		.uleb128 0x1
 7388 2806 50       		.byte	0x50
 7389 2807 02       		.uleb128 0x2
 7390 2808 08       		.byte	0x8
 7391 2809 33       		.byte	0x33
 7392 280a 00       		.byte	0
 7393 280b 23       		.uleb128 0x23
 7394 280c 94030000 		.4byte	.LVL154
 7395 2810 9F470000 		.4byte	0x479f
 7396 2814 1F280000 		.4byte	0x281f
 7397 2818 24       		.uleb128 0x24
 7398 2819 01       		.uleb128 0x1
 7399 281a 50       		.byte	0x50
 7400 281b 02       		.uleb128 0x2
 7401 281c 08       		.byte	0x8
 7402 281d 33       		.byte	0x33
 7403 281e 00       		.byte	0
 7404 281f 23       		.uleb128 0x23
 7405 2820 9A030000 		.4byte	.LVL155
ARM GAS  C:\Users\AHMED~1.ELE\AppData\Local\Temp\ccWApJgZ.s 			page 145


 7406 2824 9F470000 		.4byte	0x479f
 7407 2828 33280000 		.4byte	0x2833
 7408 282c 24       		.uleb128 0x24
 7409 282d 01       		.uleb128 0x1
 7410 282e 50       		.byte	0x50
 7411 282f 02       		.uleb128 0x2
 7412 2830 08       		.byte	0x8
 7413 2831 30       		.byte	0x30
 7414 2832 00       		.byte	0
 7415 2833 23       		.uleb128 0x23
 7416 2834 A0030000 		.4byte	.LVL156
 7417 2838 9F470000 		.4byte	0x479f
 7418 283c 47280000 		.4byte	0x2847
 7419 2840 24       		.uleb128 0x24
 7420 2841 01       		.uleb128 0x1
 7421 2842 50       		.byte	0x50
 7422 2843 02       		.uleb128 0x2
 7423 2844 08       		.byte	0x8
 7424 2845 31       		.byte	0x31
 7425 2846 00       		.byte	0
 7426 2847 23       		.uleb128 0x23
 7427 2848 A6030000 		.4byte	.LVL157
 7428 284c 9F470000 		.4byte	0x479f
 7429 2850 5B280000 		.4byte	0x285b
 7430 2854 24       		.uleb128 0x24
 7431 2855 01       		.uleb128 0x1
 7432 2856 50       		.byte	0x50
 7433 2857 02       		.uleb128 0x2
 7434 2858 08       		.byte	0x8
 7435 2859 33       		.byte	0x33
 7436 285a 00       		.byte	0
 7437 285b 23       		.uleb128 0x23
 7438 285c AC030000 		.4byte	.LVL158
 7439 2860 9F470000 		.4byte	0x479f
 7440 2864 6F280000 		.4byte	0x286f
 7441 2868 24       		.uleb128 0x24
 7442 2869 01       		.uleb128 0x1
 7443 286a 50       		.byte	0x50
 7444 286b 02       		.uleb128 0x2
 7445 286c 08       		.byte	0x8
 7446 286d 36       		.byte	0x36
 7447 286e 00       		.byte	0
 7448 286f 23       		.uleb128 0x23
 7449 2870 B2030000 		.4byte	.LVL159
 7450 2874 9F470000 		.4byte	0x479f
 7451 2878 83280000 		.4byte	0x2883
 7452 287c 24       		.uleb128 0x24
 7453 287d 01       		.uleb128 0x1
 7454 287e 50       		.byte	0x50
 7455 287f 02       		.uleb128 0x2
 7456 2880 08       		.byte	0x8
 7457 2881 35       		.byte	0x35
 7458 2882 00       		.byte	0
 7459 2883 23       		.uleb128 0x23
 7460 2884 B8030000 		.4byte	.LVL160
 7461 2888 9F470000 		.4byte	0x479f
 7462 288c 97280000 		.4byte	0x2897
ARM GAS  C:\Users\AHMED~1.ELE\AppData\Local\Temp\ccWApJgZ.s 			page 146


 7463 2890 24       		.uleb128 0x24
 7464 2891 01       		.uleb128 0x1
 7465 2892 50       		.byte	0x50
 7466 2893 02       		.uleb128 0x2
 7467 2894 08       		.byte	0x8
 7468 2895 39       		.byte	0x39
 7469 2896 00       		.byte	0
 7470 2897 23       		.uleb128 0x23
 7471 2898 BE030000 		.4byte	.LVL161
 7472 289c 9F470000 		.4byte	0x479f
 7473 28a0 AB280000 		.4byte	0x28ab
 7474 28a4 24       		.uleb128 0x24
 7475 28a5 01       		.uleb128 0x1
 7476 28a6 50       		.byte	0x50
 7477 28a7 02       		.uleb128 0x2
 7478 28a8 08       		.byte	0x8
 7479 28a9 38       		.byte	0x38
 7480 28aa 00       		.byte	0
 7481 28ab 23       		.uleb128 0x23
 7482 28ac C4030000 		.4byte	.LVL162
 7483 28b0 9F470000 		.4byte	0x479f
 7484 28b4 BF280000 		.4byte	0x28bf
 7485 28b8 24       		.uleb128 0x24
 7486 28b9 01       		.uleb128 0x1
 7487 28ba 50       		.byte	0x50
 7488 28bb 02       		.uleb128 0x2
 7489 28bc 08       		.byte	0x8
 7490 28bd 34       		.byte	0x34
 7491 28be 00       		.byte	0
 7492 28bf 23       		.uleb128 0x23
 7493 28c0 CA030000 		.4byte	.LVL163
 7494 28c4 9F470000 		.4byte	0x479f
 7495 28c8 D3280000 		.4byte	0x28d3
 7496 28cc 24       		.uleb128 0x24
 7497 28cd 01       		.uleb128 0x1
 7498 28ce 50       		.byte	0x50
 7499 28cf 02       		.uleb128 0x2
 7500 28d0 08       		.byte	0x8
 7501 28d1 38       		.byte	0x38
 7502 28d2 00       		.byte	0
 7503 28d3 23       		.uleb128 0x23
 7504 28d4 D0030000 		.4byte	.LVL164
 7505 28d8 9F470000 		.4byte	0x479f
 7506 28dc E7280000 		.4byte	0x28e7
 7507 28e0 24       		.uleb128 0x24
 7508 28e1 01       		.uleb128 0x1
 7509 28e2 50       		.byte	0x50
 7510 28e3 02       		.uleb128 0x2
 7511 28e4 08       		.byte	0x8
 7512 28e5 31       		.byte	0x31
 7513 28e6 00       		.byte	0
 7514 28e7 23       		.uleb128 0x23
 7515 28e8 D6030000 		.4byte	.LVL165
 7516 28ec 9F470000 		.4byte	0x479f
 7517 28f0 FB280000 		.4byte	0x28fb
 7518 28f4 24       		.uleb128 0x24
 7519 28f5 01       		.uleb128 0x1
ARM GAS  C:\Users\AHMED~1.ELE\AppData\Local\Temp\ccWApJgZ.s 			page 147


 7520 28f6 50       		.byte	0x50
 7521 28f7 02       		.uleb128 0x2
 7522 28f8 08       		.byte	0x8
 7523 28f9 39       		.byte	0x39
 7524 28fa 00       		.byte	0
 7525 28fb 23       		.uleb128 0x23
 7526 28fc DC030000 		.4byte	.LVL166
 7527 2900 9F470000 		.4byte	0x479f
 7528 2904 0F290000 		.4byte	0x290f
 7529 2908 24       		.uleb128 0x24
 7530 2909 01       		.uleb128 0x1
 7531 290a 50       		.byte	0x50
 7532 290b 02       		.uleb128 0x2
 7533 290c 08       		.byte	0x8
 7534 290d 3D       		.byte	0x3d
 7535 290e 00       		.byte	0
 7536 290f 23       		.uleb128 0x23
 7537 2910 E2030000 		.4byte	.LVL167
 7538 2914 9F470000 		.4byte	0x479f
 7539 2918 23290000 		.4byte	0x2923
 7540 291c 24       		.uleb128 0x24
 7541 291d 01       		.uleb128 0x1
 7542 291e 50       		.byte	0x50
 7543 291f 02       		.uleb128 0x2
 7544 2920 08       		.byte	0x8
 7545 2921 32       		.byte	0x32
 7546 2922 00       		.byte	0
 7547 2923 23       		.uleb128 0x23
 7548 2924 E8030000 		.4byte	.LVL168
 7549 2928 9F470000 		.4byte	0x479f
 7550 292c 37290000 		.4byte	0x2937
 7551 2930 24       		.uleb128 0x24
 7552 2931 01       		.uleb128 0x1
 7553 2932 50       		.byte	0x50
 7554 2933 02       		.uleb128 0x2
 7555 2934 08       		.byte	0x8
 7556 2935 31       		.byte	0x31
 7557 2936 00       		.byte	0
 7558 2937 23       		.uleb128 0x23
 7559 2938 EE030000 		.4byte	.LVL169
 7560 293c 9F470000 		.4byte	0x479f
 7561 2940 4B290000 		.4byte	0x294b
 7562 2944 24       		.uleb128 0x24
 7563 2945 01       		.uleb128 0x1
 7564 2946 50       		.byte	0x50
 7565 2947 02       		.uleb128 0x2
 7566 2948 08       		.byte	0x8
 7567 2949 30       		.byte	0x30
 7568 294a 00       		.byte	0
 7569 294b 23       		.uleb128 0x23
 7570 294c F4030000 		.4byte	.LVL170
 7571 2950 9F470000 		.4byte	0x479f
 7572 2954 5F290000 		.4byte	0x295f
 7573 2958 24       		.uleb128 0x24
 7574 2959 01       		.uleb128 0x1
 7575 295a 50       		.byte	0x50
 7576 295b 02       		.uleb128 0x2
ARM GAS  C:\Users\AHMED~1.ELE\AppData\Local\Temp\ccWApJgZ.s 			page 148


 7577 295c 08       		.byte	0x8
 7578 295d 33       		.byte	0x33
 7579 295e 00       		.byte	0
 7580 295f 23       		.uleb128 0x23
 7581 2960 FA030000 		.4byte	.LVL171
 7582 2964 9F470000 		.4byte	0x479f
 7583 2968 73290000 		.4byte	0x2973
 7584 296c 24       		.uleb128 0x24
 7585 296d 01       		.uleb128 0x1
 7586 296e 50       		.byte	0x50
 7587 296f 02       		.uleb128 0x2
 7588 2970 08       		.byte	0x8
 7589 2971 32       		.byte	0x32
 7590 2972 00       		.byte	0
 7591 2973 23       		.uleb128 0x23
 7592 2974 00040000 		.4byte	.LVL172
 7593 2978 9F470000 		.4byte	0x479f
 7594 297c 87290000 		.4byte	0x2987
 7595 2980 24       		.uleb128 0x24
 7596 2981 01       		.uleb128 0x1
 7597 2982 50       		.byte	0x50
 7598 2983 02       		.uleb128 0x2
 7599 2984 08       		.byte	0x8
 7600 2985 32       		.byte	0x32
 7601 2986 00       		.byte	0
 7602 2987 23       		.uleb128 0x23
 7603 2988 06040000 		.4byte	.LVL173
 7604 298c 9F470000 		.4byte	0x479f
 7605 2990 9B290000 		.4byte	0x299b
 7606 2994 24       		.uleb128 0x24
 7607 2995 01       		.uleb128 0x1
 7608 2996 50       		.byte	0x50
 7609 2997 02       		.uleb128 0x2
 7610 2998 08       		.byte	0x8
 7611 2999 36       		.byte	0x36
 7612 299a 00       		.byte	0
 7613 299b 23       		.uleb128 0x23
 7614 299c 0C040000 		.4byte	.LVL174
 7615 29a0 9F470000 		.4byte	0x479f
 7616 29a4 AF290000 		.4byte	0x29af
 7617 29a8 24       		.uleb128 0x24
 7618 29a9 01       		.uleb128 0x1
 7619 29aa 50       		.byte	0x50
 7620 29ab 02       		.uleb128 0x2
 7621 29ac 08       		.byte	0x8
 7622 29ad 31       		.byte	0x31
 7623 29ae 00       		.byte	0
 7624 29af 23       		.uleb128 0x23
 7625 29b0 12040000 		.4byte	.LVL175
 7626 29b4 9F470000 		.4byte	0x479f
 7627 29b8 C3290000 		.4byte	0x29c3
 7628 29bc 24       		.uleb128 0x24
 7629 29bd 01       		.uleb128 0x1
 7630 29be 50       		.byte	0x50
 7631 29bf 02       		.uleb128 0x2
 7632 29c0 08       		.byte	0x8
 7633 29c1 30       		.byte	0x30
ARM GAS  C:\Users\AHMED~1.ELE\AppData\Local\Temp\ccWApJgZ.s 			page 149


 7634 29c2 00       		.byte	0
 7635 29c3 23       		.uleb128 0x23
 7636 29c4 18040000 		.4byte	.LVL176
 7637 29c8 9F470000 		.4byte	0x479f
 7638 29cc D7290000 		.4byte	0x29d7
 7639 29d0 24       		.uleb128 0x24
 7640 29d1 01       		.uleb128 0x1
 7641 29d2 50       		.byte	0x50
 7642 29d3 02       		.uleb128 0x2
 7643 29d4 08       		.byte	0x8
 7644 29d5 30       		.byte	0x30
 7645 29d6 00       		.byte	0
 7646 29d7 23       		.uleb128 0x23
 7647 29d8 1E040000 		.4byte	.LVL177
 7648 29dc 9F470000 		.4byte	0x479f
 7649 29e0 EB290000 		.4byte	0x29eb
 7650 29e4 24       		.uleb128 0x24
 7651 29e5 01       		.uleb128 0x1
 7652 29e6 50       		.byte	0x50
 7653 29e7 02       		.uleb128 0x2
 7654 29e8 08       		.byte	0x8
 7655 29e9 30       		.byte	0x30
 7656 29ea 00       		.byte	0
 7657 29eb 23       		.uleb128 0x23
 7658 29ec 24040000 		.4byte	.LVL178
 7659 29f0 9F470000 		.4byte	0x479f
 7660 29f4 FF290000 		.4byte	0x29ff
 7661 29f8 24       		.uleb128 0x24
 7662 29f9 01       		.uleb128 0x1
 7663 29fa 50       		.byte	0x50
 7664 29fb 02       		.uleb128 0x2
 7665 29fc 08       		.byte	0x8
 7666 29fd 30       		.byte	0x30
 7667 29fe 00       		.byte	0
 7668 29ff 23       		.uleb128 0x23
 7669 2a00 2A040000 		.4byte	.LVL179
 7670 2a04 9F470000 		.4byte	0x479f
 7671 2a08 132A0000 		.4byte	0x2a13
 7672 2a0c 24       		.uleb128 0x24
 7673 2a0d 01       		.uleb128 0x1
 7674 2a0e 50       		.byte	0x50
 7675 2a0f 02       		.uleb128 0x2
 7676 2a10 08       		.byte	0x8
 7677 2a11 39       		.byte	0x39
 7678 2a12 00       		.byte	0
 7679 2a13 23       		.uleb128 0x23
 7680 2a14 30040000 		.4byte	.LVL180
 7681 2a18 9F470000 		.4byte	0x479f
 7682 2a1c 272A0000 		.4byte	0x2a27
 7683 2a20 24       		.uleb128 0x24
 7684 2a21 01       		.uleb128 0x1
 7685 2a22 50       		.byte	0x50
 7686 2a23 02       		.uleb128 0x2
 7687 2a24 08       		.byte	0x8
 7688 2a25 32       		.byte	0x32
 7689 2a26 00       		.byte	0
 7690 2a27 23       		.uleb128 0x23
ARM GAS  C:\Users\AHMED~1.ELE\AppData\Local\Temp\ccWApJgZ.s 			page 150


 7691 2a28 36040000 		.4byte	.LVL181
 7692 2a2c 9F470000 		.4byte	0x479f
 7693 2a30 3B2A0000 		.4byte	0x2a3b
 7694 2a34 24       		.uleb128 0x24
 7695 2a35 01       		.uleb128 0x1
 7696 2a36 50       		.byte	0x50
 7697 2a37 02       		.uleb128 0x2
 7698 2a38 08       		.byte	0x8
 7699 2a39 34       		.byte	0x34
 7700 2a3a 00       		.byte	0
 7701 2a3b 23       		.uleb128 0x23
 7702 2a3c 3C040000 		.4byte	.LVL182
 7703 2a40 9F470000 		.4byte	0x479f
 7704 2a44 4F2A0000 		.4byte	0x2a4f
 7705 2a48 24       		.uleb128 0x24
 7706 2a49 01       		.uleb128 0x1
 7707 2a4a 50       		.byte	0x50
 7708 2a4b 02       		.uleb128 0x2
 7709 2a4c 08       		.byte	0x8
 7710 2a4d 30       		.byte	0x30
 7711 2a4e 00       		.byte	0
 7712 2a4f 23       		.uleb128 0x23
 7713 2a50 42040000 		.4byte	.LVL183
 7714 2a54 9F470000 		.4byte	0x479f
 7715 2a58 632A0000 		.4byte	0x2a63
 7716 2a5c 24       		.uleb128 0x24
 7717 2a5d 01       		.uleb128 0x1
 7718 2a5e 50       		.byte	0x50
 7719 2a5f 02       		.uleb128 0x2
 7720 2a60 08       		.byte	0x8
 7721 2a61 30       		.byte	0x30
 7722 2a62 00       		.byte	0
 7723 2a63 23       		.uleb128 0x23
 7724 2a64 48040000 		.4byte	.LVL184
 7725 2a68 9F470000 		.4byte	0x479f
 7726 2a6c 772A0000 		.4byte	0x2a77
 7727 2a70 24       		.uleb128 0x24
 7728 2a71 01       		.uleb128 0x1
 7729 2a72 50       		.byte	0x50
 7730 2a73 02       		.uleb128 0x2
 7731 2a74 08       		.byte	0x8
 7732 2a75 30       		.byte	0x30
 7733 2a76 00       		.byte	0
 7734 2a77 23       		.uleb128 0x23
 7735 2a78 4E040000 		.4byte	.LVL185
 7736 2a7c 9F470000 		.4byte	0x479f
 7737 2a80 8B2A0000 		.4byte	0x2a8b
 7738 2a84 24       		.uleb128 0x24
 7739 2a85 01       		.uleb128 0x1
 7740 2a86 50       		.byte	0x50
 7741 2a87 02       		.uleb128 0x2
 7742 2a88 08       		.byte	0x8
 7743 2a89 31       		.byte	0x31
 7744 2a8a 00       		.byte	0
 7745 2a8b 23       		.uleb128 0x23
 7746 2a8c 54040000 		.4byte	.LVL186
 7747 2a90 9F470000 		.4byte	0x479f
ARM GAS  C:\Users\AHMED~1.ELE\AppData\Local\Temp\ccWApJgZ.s 			page 151


 7748 2a94 9F2A0000 		.4byte	0x2a9f
 7749 2a98 24       		.uleb128 0x24
 7750 2a99 01       		.uleb128 0x1
 7751 2a9a 50       		.byte	0x50
 7752 2a9b 02       		.uleb128 0x2
 7753 2a9c 08       		.byte	0x8
 7754 2a9d 31       		.byte	0x31
 7755 2a9e 00       		.byte	0
 7756 2a9f 23       		.uleb128 0x23
 7757 2aa0 5A040000 		.4byte	.LVL187
 7758 2aa4 9F470000 		.4byte	0x479f
 7759 2aa8 B32A0000 		.4byte	0x2ab3
 7760 2aac 24       		.uleb128 0x24
 7761 2aad 01       		.uleb128 0x1
 7762 2aae 50       		.byte	0x50
 7763 2aaf 02       		.uleb128 0x2
 7764 2ab0 08       		.byte	0x8
 7765 2ab1 38       		.byte	0x38
 7766 2ab2 00       		.byte	0
 7767 2ab3 23       		.uleb128 0x23
 7768 2ab4 60040000 		.4byte	.LVL188
 7769 2ab8 9F470000 		.4byte	0x479f
 7770 2abc C72A0000 		.4byte	0x2ac7
 7771 2ac0 24       		.uleb128 0x24
 7772 2ac1 01       		.uleb128 0x1
 7773 2ac2 50       		.byte	0x50
 7774 2ac3 02       		.uleb128 0x2
 7775 2ac4 08       		.byte	0x8
 7776 2ac5 30       		.byte	0x30
 7777 2ac6 00       		.byte	0
 7778 2ac7 23       		.uleb128 0x23
 7779 2ac8 66040000 		.4byte	.LVL189
 7780 2acc 9F470000 		.4byte	0x479f
 7781 2ad0 DB2A0000 		.4byte	0x2adb
 7782 2ad4 24       		.uleb128 0x24
 7783 2ad5 01       		.uleb128 0x1
 7784 2ad6 50       		.byte	0x50
 7785 2ad7 02       		.uleb128 0x2
 7786 2ad8 08       		.byte	0x8
 7787 2ad9 30       		.byte	0x30
 7788 2ada 00       		.byte	0
 7789 2adb 23       		.uleb128 0x23
 7790 2adc 6C040000 		.4byte	.LVL190
 7791 2ae0 9F470000 		.4byte	0x479f
 7792 2ae4 EF2A0000 		.4byte	0x2aef
 7793 2ae8 24       		.uleb128 0x24
 7794 2ae9 01       		.uleb128 0x1
 7795 2aea 50       		.byte	0x50
 7796 2aeb 02       		.uleb128 0x2
 7797 2aec 08       		.byte	0x8
 7798 2aed 30       		.byte	0x30
 7799 2aee 00       		.byte	0
 7800 2aef 23       		.uleb128 0x23
 7801 2af0 72040000 		.4byte	.LVL191
 7802 2af4 9F470000 		.4byte	0x479f
 7803 2af8 032B0000 		.4byte	0x2b03
 7804 2afc 24       		.uleb128 0x24
ARM GAS  C:\Users\AHMED~1.ELE\AppData\Local\Temp\ccWApJgZ.s 			page 152


 7805 2afd 01       		.uleb128 0x1
 7806 2afe 50       		.byte	0x50
 7807 2aff 02       		.uleb128 0x2
 7808 2b00 08       		.byte	0x8
 7809 2b01 30       		.byte	0x30
 7810 2b02 00       		.byte	0
 7811 2b03 23       		.uleb128 0x23
 7812 2b04 78040000 		.4byte	.LVL192
 7813 2b08 9F470000 		.4byte	0x479f
 7814 2b0c 172B0000 		.4byte	0x2b17
 7815 2b10 24       		.uleb128 0x24
 7816 2b11 01       		.uleb128 0x1
 7817 2b12 50       		.byte	0x50
 7818 2b13 02       		.uleb128 0x2
 7819 2b14 08       		.byte	0x8
 7820 2b15 30       		.byte	0x30
 7821 2b16 00       		.byte	0
 7822 2b17 23       		.uleb128 0x23
 7823 2b18 7E040000 		.4byte	.LVL193
 7824 2b1c 9F470000 		.4byte	0x479f
 7825 2b20 2B2B0000 		.4byte	0x2b2b
 7826 2b24 24       		.uleb128 0x24
 7827 2b25 01       		.uleb128 0x1
 7828 2b26 50       		.byte	0x50
 7829 2b27 02       		.uleb128 0x2
 7830 2b28 08       		.byte	0x8
 7831 2b29 30       		.byte	0x30
 7832 2b2a 00       		.byte	0
 7833 2b2b 23       		.uleb128 0x23
 7834 2b2c 84040000 		.4byte	.LVL194
 7835 2b30 9F470000 		.4byte	0x479f
 7836 2b34 3F2B0000 		.4byte	0x2b3f
 7837 2b38 24       		.uleb128 0x24
 7838 2b39 01       		.uleb128 0x1
 7839 2b3a 50       		.byte	0x50
 7840 2b3b 02       		.uleb128 0x2
 7841 2b3c 08       		.byte	0x8
 7842 2b3d 32       		.byte	0x32
 7843 2b3e 00       		.byte	0
 7844 2b3f 23       		.uleb128 0x23
 7845 2b40 8A040000 		.4byte	.LVL195
 7846 2b44 9F470000 		.4byte	0x479f
 7847 2b48 532B0000 		.4byte	0x2b53
 7848 2b4c 24       		.uleb128 0x24
 7849 2b4d 01       		.uleb128 0x1
 7850 2b4e 50       		.byte	0x50
 7851 2b4f 02       		.uleb128 0x2
 7852 2b50 08       		.byte	0x8
 7853 2b51 38       		.byte	0x38
 7854 2b52 00       		.byte	0
 7855 2b53 23       		.uleb128 0x23
 7856 2b54 90040000 		.4byte	.LVL196
 7857 2b58 9F470000 		.4byte	0x479f
 7858 2b5c 672B0000 		.4byte	0x2b67
 7859 2b60 24       		.uleb128 0x24
 7860 2b61 01       		.uleb128 0x1
 7861 2b62 50       		.byte	0x50
ARM GAS  C:\Users\AHMED~1.ELE\AppData\Local\Temp\ccWApJgZ.s 			page 153


 7862 2b63 02       		.uleb128 0x2
 7863 2b64 08       		.byte	0x8
 7864 2b65 31       		.byte	0x31
 7865 2b66 00       		.byte	0
 7866 2b67 23       		.uleb128 0x23
 7867 2b68 96040000 		.4byte	.LVL197
 7868 2b6c 9F470000 		.4byte	0x479f
 7869 2b70 7B2B0000 		.4byte	0x2b7b
 7870 2b74 24       		.uleb128 0x24
 7871 2b75 01       		.uleb128 0x1
 7872 2b76 50       		.byte	0x50
 7873 2b77 02       		.uleb128 0x2
 7874 2b78 08       		.byte	0x8
 7875 2b79 37       		.byte	0x37
 7876 2b7a 00       		.byte	0
 7877 2b7b 23       		.uleb128 0x23
 7878 2b7c 9C040000 		.4byte	.LVL198
 7879 2b80 9F470000 		.4byte	0x479f
 7880 2b84 8F2B0000 		.4byte	0x2b8f
 7881 2b88 24       		.uleb128 0x24
 7882 2b89 01       		.uleb128 0x1
 7883 2b8a 50       		.byte	0x50
 7884 2b8b 02       		.uleb128 0x2
 7885 2b8c 08       		.byte	0x8
 7886 2b8d 34       		.byte	0x34
 7887 2b8e 00       		.byte	0
 7888 2b8f 23       		.uleb128 0x23
 7889 2b90 A2040000 		.4byte	.LVL199
 7890 2b94 9F470000 		.4byte	0x479f
 7891 2b98 A32B0000 		.4byte	0x2ba3
 7892 2b9c 24       		.uleb128 0x24
 7893 2b9d 01       		.uleb128 0x1
 7894 2b9e 50       		.byte	0x50
 7895 2b9f 02       		.uleb128 0x2
 7896 2ba0 08       		.byte	0x8
 7897 2ba1 39       		.byte	0x39
 7898 2ba2 00       		.byte	0
 7899 2ba3 23       		.uleb128 0x23
 7900 2ba4 A8040000 		.4byte	.LVL200
 7901 2ba8 9F470000 		.4byte	0x479f
 7902 2bac B72B0000 		.4byte	0x2bb7
 7903 2bb0 24       		.uleb128 0x24
 7904 2bb1 01       		.uleb128 0x1
 7905 2bb2 50       		.byte	0x50
 7906 2bb3 02       		.uleb128 0x2
 7907 2bb4 08       		.byte	0x8
 7908 2bb5 37       		.byte	0x37
 7909 2bb6 00       		.byte	0
 7910 2bb7 23       		.uleb128 0x23
 7911 2bb8 AE040000 		.4byte	.LVL201
 7912 2bbc 9F470000 		.4byte	0x479f
 7913 2bc0 CB2B0000 		.4byte	0x2bcb
 7914 2bc4 24       		.uleb128 0x24
 7915 2bc5 01       		.uleb128 0x1
 7916 2bc6 50       		.byte	0x50
 7917 2bc7 02       		.uleb128 0x2
 7918 2bc8 08       		.byte	0x8
ARM GAS  C:\Users\AHMED~1.ELE\AppData\Local\Temp\ccWApJgZ.s 			page 154


 7919 2bc9 39       		.byte	0x39
 7920 2bca 00       		.byte	0
 7921 2bcb 23       		.uleb128 0x23
 7922 2bcc B4040000 		.4byte	.LVL202
 7923 2bd0 9F470000 		.4byte	0x479f
 7924 2bd4 DF2B0000 		.4byte	0x2bdf
 7925 2bd8 24       		.uleb128 0x24
 7926 2bd9 01       		.uleb128 0x1
 7927 2bda 50       		.byte	0x50
 7928 2bdb 02       		.uleb128 0x2
 7929 2bdc 08       		.byte	0x8
 7930 2bdd 31       		.byte	0x31
 7931 2bde 00       		.byte	0
 7932 2bdf 23       		.uleb128 0x23
 7933 2be0 BA040000 		.4byte	.LVL203
 7934 2be4 9F470000 		.4byte	0x479f
 7935 2be8 F32B0000 		.4byte	0x2bf3
 7936 2bec 24       		.uleb128 0x24
 7937 2bed 01       		.uleb128 0x1
 7938 2bee 50       		.byte	0x50
 7939 2bef 02       		.uleb128 0x2
 7940 2bf0 08       		.byte	0x8
 7941 2bf1 32       		.byte	0x32
 7942 2bf2 00       		.byte	0
 7943 2bf3 23       		.uleb128 0x23
 7944 2bf4 C0040000 		.4byte	.LVL204
 7945 2bf8 9F470000 		.4byte	0x479f
 7946 2bfc 072C0000 		.4byte	0x2c07
 7947 2c00 24       		.uleb128 0x24
 7948 2c01 01       		.uleb128 0x1
 7949 2c02 50       		.byte	0x50
 7950 2c03 02       		.uleb128 0x2
 7951 2c04 08       		.byte	0x8
 7952 2c05 37       		.byte	0x37
 7953 2c06 00       		.byte	0
 7954 2c07 23       		.uleb128 0x23
 7955 2c08 C6040000 		.4byte	.LVL205
 7956 2c0c 9F470000 		.4byte	0x479f
 7957 2c10 1B2C0000 		.4byte	0x2c1b
 7958 2c14 24       		.uleb128 0x24
 7959 2c15 01       		.uleb128 0x1
 7960 2c16 50       		.byte	0x50
 7961 2c17 02       		.uleb128 0x2
 7962 2c18 08       		.byte	0x8
 7963 2c19 30       		.byte	0x30
 7964 2c1a 00       		.byte	0
 7965 2c1b 23       		.uleb128 0x23
 7966 2c1c CC040000 		.4byte	.LVL206
 7967 2c20 9F470000 		.4byte	0x479f
 7968 2c24 2F2C0000 		.4byte	0x2c2f
 7969 2c28 24       		.uleb128 0x24
 7970 2c29 01       		.uleb128 0x1
 7971 2c2a 50       		.byte	0x50
 7972 2c2b 02       		.uleb128 0x2
 7973 2c2c 08       		.byte	0x8
 7974 2c2d 37       		.byte	0x37
 7975 2c2e 00       		.byte	0
ARM GAS  C:\Users\AHMED~1.ELE\AppData\Local\Temp\ccWApJgZ.s 			page 155


 7976 2c2f 23       		.uleb128 0x23
 7977 2c30 D2040000 		.4byte	.LVL207
 7978 2c34 9F470000 		.4byte	0x479f
 7979 2c38 432C0000 		.4byte	0x2c43
 7980 2c3c 24       		.uleb128 0x24
 7981 2c3d 01       		.uleb128 0x1
 7982 2c3e 50       		.byte	0x50
 7983 2c3f 02       		.uleb128 0x2
 7984 2c40 08       		.byte	0x8
 7985 2c41 32       		.byte	0x32
 7986 2c42 00       		.byte	0
 7987 2c43 23       		.uleb128 0x23
 7988 2c44 D8040000 		.4byte	.LVL208
 7989 2c48 9F470000 		.4byte	0x479f
 7990 2c4c 572C0000 		.4byte	0x2c57
 7991 2c50 24       		.uleb128 0x24
 7992 2c51 01       		.uleb128 0x1
 7993 2c52 50       		.byte	0x50
 7994 2c53 02       		.uleb128 0x2
 7995 2c54 08       		.byte	0x8
 7996 2c55 38       		.byte	0x38
 7997 2c56 00       		.byte	0
 7998 2c57 23       		.uleb128 0x23
 7999 2c58 DE040000 		.4byte	.LVL209
 8000 2c5c 9F470000 		.4byte	0x479f
 8001 2c60 6B2C0000 		.4byte	0x2c6b
 8002 2c64 24       		.uleb128 0x24
 8003 2c65 01       		.uleb128 0x1
 8004 2c66 50       		.byte	0x50
 8005 2c67 02       		.uleb128 0x2
 8006 2c68 08       		.byte	0x8
 8007 2c69 30       		.byte	0x30
 8008 2c6a 00       		.byte	0
 8009 2c6b 23       		.uleb128 0x23
 8010 2c6c E4040000 		.4byte	.LVL210
 8011 2c70 9F470000 		.4byte	0x479f
 8012 2c74 7F2C0000 		.4byte	0x2c7f
 8013 2c78 24       		.uleb128 0x24
 8014 2c79 01       		.uleb128 0x1
 8015 2c7a 50       		.byte	0x50
 8016 2c7b 02       		.uleb128 0x2
 8017 2c7c 08       		.byte	0x8
 8018 2c7d 30       		.byte	0x30
 8019 2c7e 00       		.byte	0
 8020 2c7f 23       		.uleb128 0x23
 8021 2c80 EA040000 		.4byte	.LVL211
 8022 2c84 9F470000 		.4byte	0x479f
 8023 2c88 932C0000 		.4byte	0x2c93
 8024 2c8c 24       		.uleb128 0x24
 8025 2c8d 01       		.uleb128 0x1
 8026 2c8e 50       		.byte	0x50
 8027 2c8f 02       		.uleb128 0x2
 8028 2c90 08       		.byte	0x8
 8029 2c91 37       		.byte	0x37
 8030 2c92 00       		.byte	0
 8031 2c93 23       		.uleb128 0x23
 8032 2c94 F0040000 		.4byte	.LVL212
ARM GAS  C:\Users\AHMED~1.ELE\AppData\Local\Temp\ccWApJgZ.s 			page 156


 8033 2c98 9F470000 		.4byte	0x479f
 8034 2c9c A72C0000 		.4byte	0x2ca7
 8035 2ca0 24       		.uleb128 0x24
 8036 2ca1 01       		.uleb128 0x1
 8037 2ca2 50       		.byte	0x50
 8038 2ca3 02       		.uleb128 0x2
 8039 2ca4 08       		.byte	0x8
 8040 2ca5 20       		.byte	0x20
 8041 2ca6 00       		.byte	0
 8042 2ca7 23       		.uleb128 0x23
 8043 2ca8 F6040000 		.4byte	.LVL213
 8044 2cac 9F470000 		.4byte	0x479f
 8045 2cb0 BB2C0000 		.4byte	0x2cbb
 8046 2cb4 24       		.uleb128 0x24
 8047 2cb5 01       		.uleb128 0x1
 8048 2cb6 50       		.byte	0x50
 8049 2cb7 02       		.uleb128 0x2
 8050 2cb8 08       		.byte	0x8
 8051 2cb9 20       		.byte	0x20
 8052 2cba 00       		.byte	0
 8053 2cbb 23       		.uleb128 0x23
 8054 2cbc FC040000 		.4byte	.LVL214
 8055 2cc0 9F470000 		.4byte	0x479f
 8056 2cc4 CF2C0000 		.4byte	0x2ccf
 8057 2cc8 24       		.uleb128 0x24
 8058 2cc9 01       		.uleb128 0x1
 8059 2cca 50       		.byte	0x50
 8060 2ccb 02       		.uleb128 0x2
 8061 2ccc 08       		.byte	0x8
 8062 2ccd 20       		.byte	0x20
 8063 2cce 00       		.byte	0
 8064 2ccf 23       		.uleb128 0x23
 8065 2cd0 02050000 		.4byte	.LVL215
 8066 2cd4 9F470000 		.4byte	0x479f
 8067 2cd8 E32C0000 		.4byte	0x2ce3
 8068 2cdc 24       		.uleb128 0x24
 8069 2cdd 01       		.uleb128 0x1
 8070 2cde 50       		.byte	0x50
 8071 2cdf 02       		.uleb128 0x2
 8072 2ce0 08       		.byte	0x8
 8073 2ce1 20       		.byte	0x20
 8074 2ce2 00       		.byte	0
 8075 2ce3 23       		.uleb128 0x23
 8076 2ce4 08050000 		.4byte	.LVL216
 8077 2ce8 9F470000 		.4byte	0x479f
 8078 2cec F72C0000 		.4byte	0x2cf7
 8079 2cf0 24       		.uleb128 0x24
 8080 2cf1 01       		.uleb128 0x1
 8081 2cf2 50       		.byte	0x50
 8082 2cf3 02       		.uleb128 0x2
 8083 2cf4 08       		.byte	0x8
 8084 2cf5 20       		.byte	0x20
 8085 2cf6 00       		.byte	0
 8086 2cf7 23       		.uleb128 0x23
 8087 2cf8 0E050000 		.4byte	.LVL217
 8088 2cfc 9F470000 		.4byte	0x479f
 8089 2d00 0A2D0000 		.4byte	0x2d0a
ARM GAS  C:\Users\AHMED~1.ELE\AppData\Local\Temp\ccWApJgZ.s 			page 157


 8090 2d04 24       		.uleb128 0x24
 8091 2d05 01       		.uleb128 0x1
 8092 2d06 50       		.byte	0x50
 8093 2d07 01       		.uleb128 0x1
 8094 2d08 41       		.byte	0x41
 8095 2d09 00       		.byte	0
 8096 2d0a 23       		.uleb128 0x23
 8097 2d0b 14050000 		.4byte	.LVL218
 8098 2d0f 9F470000 		.4byte	0x479f
 8099 2d13 1E2D0000 		.4byte	0x2d1e
 8100 2d17 24       		.uleb128 0x24
 8101 2d18 01       		.uleb128 0x1
 8102 2d19 50       		.byte	0x50
 8103 2d1a 02       		.uleb128 0x2
 8104 2d1b 08       		.byte	0x8
 8105 2d1c 31       		.byte	0x31
 8106 2d1d 00       		.byte	0
 8107 2d1e 23       		.uleb128 0x23
 8108 2d1f 1A050000 		.4byte	.LVL219
 8109 2d23 9F470000 		.4byte	0x479f
 8110 2d27 322D0000 		.4byte	0x2d32
 8111 2d2b 24       		.uleb128 0x24
 8112 2d2c 01       		.uleb128 0x1
 8113 2d2d 50       		.byte	0x50
 8114 2d2e 02       		.uleb128 0x2
 8115 2d2f 08       		.byte	0x8
 8116 2d30 32       		.byte	0x32
 8117 2d31 00       		.byte	0
 8118 2d32 23       		.uleb128 0x23
 8119 2d33 20050000 		.4byte	.LVL220
 8120 2d37 9F470000 		.4byte	0x479f
 8121 2d3b 462D0000 		.4byte	0x2d46
 8122 2d3f 24       		.uleb128 0x24
 8123 2d40 01       		.uleb128 0x1
 8124 2d41 50       		.byte	0x50
 8125 2d42 02       		.uleb128 0x2
 8126 2d43 08       		.byte	0x8
 8127 2d44 33       		.byte	0x33
 8128 2d45 00       		.byte	0
 8129 2d46 23       		.uleb128 0x23
 8130 2d47 26050000 		.4byte	.LVL221
 8131 2d4b 9F470000 		.4byte	0x479f
 8132 2d4f 5A2D0000 		.4byte	0x2d5a
 8133 2d53 24       		.uleb128 0x24
 8134 2d54 01       		.uleb128 0x1
 8135 2d55 50       		.byte	0x50
 8136 2d56 02       		.uleb128 0x2
 8137 2d57 08       		.byte	0x8
 8138 2d58 34       		.byte	0x34
 8139 2d59 00       		.byte	0
 8140 2d5a 23       		.uleb128 0x23
 8141 2d5b 2C050000 		.4byte	.LVL222
 8142 2d5f 9F470000 		.4byte	0x479f
 8143 2d63 6E2D0000 		.4byte	0x2d6e
 8144 2d67 24       		.uleb128 0x24
 8145 2d68 01       		.uleb128 0x1
 8146 2d69 50       		.byte	0x50
ARM GAS  C:\Users\AHMED~1.ELE\AppData\Local\Temp\ccWApJgZ.s 			page 158


 8147 2d6a 02       		.uleb128 0x2
 8148 2d6b 08       		.byte	0x8
 8149 2d6c 35       		.byte	0x35
 8150 2d6d 00       		.byte	0
 8151 2d6e 23       		.uleb128 0x23
 8152 2d6f 32050000 		.4byte	.LVL223
 8153 2d73 9F470000 		.4byte	0x479f
 8154 2d77 822D0000 		.4byte	0x2d82
 8155 2d7b 24       		.uleb128 0x24
 8156 2d7c 01       		.uleb128 0x1
 8157 2d7d 50       		.byte	0x50
 8158 2d7e 02       		.uleb128 0x2
 8159 2d7f 08       		.byte	0x8
 8160 2d80 36       		.byte	0x36
 8161 2d81 00       		.byte	0
 8162 2d82 23       		.uleb128 0x23
 8163 2d83 38050000 		.4byte	.LVL224
 8164 2d87 9F470000 		.4byte	0x479f
 8165 2d8b 962D0000 		.4byte	0x2d96
 8166 2d8f 24       		.uleb128 0x24
 8167 2d90 01       		.uleb128 0x1
 8168 2d91 50       		.byte	0x50
 8169 2d92 02       		.uleb128 0x2
 8170 2d93 08       		.byte	0x8
 8171 2d94 37       		.byte	0x37
 8172 2d95 00       		.byte	0
 8173 2d96 23       		.uleb128 0x23
 8174 2d97 3E050000 		.4byte	.LVL225
 8175 2d9b 9F470000 		.4byte	0x479f
 8176 2d9f AA2D0000 		.4byte	0x2daa
 8177 2da3 24       		.uleb128 0x24
 8178 2da4 01       		.uleb128 0x1
 8179 2da5 50       		.byte	0x50
 8180 2da6 02       		.uleb128 0x2
 8181 2da7 08       		.byte	0x8
 8182 2da8 38       		.byte	0x38
 8183 2da9 00       		.byte	0
 8184 2daa 23       		.uleb128 0x23
 8185 2dab 44050000 		.4byte	.LVL226
 8186 2daf 9F470000 		.4byte	0x479f
 8187 2db3 BE2D0000 		.4byte	0x2dbe
 8188 2db7 24       		.uleb128 0x24
 8189 2db8 01       		.uleb128 0x1
 8190 2db9 50       		.byte	0x50
 8191 2dba 02       		.uleb128 0x2
 8192 2dbb 08       		.byte	0x8
 8193 2dbc 45       		.byte	0x45
 8194 2dbd 00       		.byte	0
 8195 2dbe 23       		.uleb128 0x23
 8196 2dbf 4A050000 		.4byte	.LVL227
 8197 2dc3 9F470000 		.4byte	0x479f
 8198 2dc7 D22D0000 		.4byte	0x2dd2
 8199 2dcb 24       		.uleb128 0x24
 8200 2dcc 01       		.uleb128 0x1
 8201 2dcd 50       		.byte	0x50
 8202 2dce 02       		.uleb128 0x2
 8203 2dcf 08       		.byte	0x8
ARM GAS  C:\Users\AHMED~1.ELE\AppData\Local\Temp\ccWApJgZ.s 			page 159


 8204 2dd0 47       		.byte	0x47
 8205 2dd1 00       		.byte	0
 8206 2dd2 23       		.uleb128 0x23
 8207 2dd3 50050000 		.4byte	.LVL228
 8208 2dd7 9F470000 		.4byte	0x479f
 8209 2ddb E62D0000 		.4byte	0x2de6
 8210 2ddf 24       		.uleb128 0x24
 8211 2de0 01       		.uleb128 0x1
 8212 2de1 50       		.byte	0x50
 8213 2de2 02       		.uleb128 0x2
 8214 2de3 08       		.byte	0x8
 8215 2de4 59       		.byte	0x59
 8216 2de5 00       		.byte	0
 8217 2de6 23       		.uleb128 0x23
 8218 2de7 56050000 		.4byte	.LVL229
 8219 2deb 9F470000 		.4byte	0x479f
 8220 2def F92D0000 		.4byte	0x2df9
 8221 2df3 24       		.uleb128 0x24
 8222 2df4 01       		.uleb128 0x1
 8223 2df5 50       		.byte	0x50
 8224 2df6 01       		.uleb128 0x1
 8225 2df7 30       		.byte	0x30
 8226 2df8 00       		.byte	0
 8227 2df9 23       		.uleb128 0x23
 8228 2dfa 5C050000 		.4byte	.LVL230
 8229 2dfe 9F470000 		.4byte	0x479f
 8230 2e02 0D2E0000 		.4byte	0x2e0d
 8231 2e06 24       		.uleb128 0x24
 8232 2e07 01       		.uleb128 0x1
 8233 2e08 50       		.byte	0x50
 8234 2e09 02       		.uleb128 0x2
 8235 2e0a 08       		.byte	0x8
 8236 2e0b 38       		.byte	0x38
 8237 2e0c 00       		.byte	0
 8238 2e0d 23       		.uleb128 0x23
 8239 2e0e 62050000 		.4byte	.LVL231
 8240 2e12 9F470000 		.4byte	0x479f
 8241 2e16 212E0000 		.4byte	0x2e21
 8242 2e1a 24       		.uleb128 0x24
 8243 2e1b 01       		.uleb128 0x1
 8244 2e1c 50       		.byte	0x50
 8245 2e1d 02       		.uleb128 0x2
 8246 2e1e 08       		.byte	0x8
 8247 2e1f 50       		.byte	0x50
 8248 2e20 00       		.byte	0
 8249 2e21 23       		.uleb128 0x23
 8250 2e22 68050000 		.4byte	.LVL232
 8251 2e26 9F470000 		.4byte	0x479f
 8252 2e2a 352E0000 		.4byte	0x2e35
 8253 2e2e 24       		.uleb128 0x24
 8254 2e2f 01       		.uleb128 0x1
 8255 2e30 50       		.byte	0x50
 8256 2e31 02       		.uleb128 0x2
 8257 2e32 08       		.byte	0x8
 8258 2e33 31       		.byte	0x31
 8259 2e34 00       		.byte	0
 8260 2e35 23       		.uleb128 0x23
ARM GAS  C:\Users\AHMED~1.ELE\AppData\Local\Temp\ccWApJgZ.s 			page 160


 8261 2e36 6E050000 		.4byte	.LVL233
 8262 2e3a 9F470000 		.4byte	0x479f
 8263 2e3e 492E0000 		.4byte	0x2e49
 8264 2e42 24       		.uleb128 0x24
 8265 2e43 01       		.uleb128 0x1
 8266 2e44 50       		.byte	0x50
 8267 2e45 02       		.uleb128 0x2
 8268 2e46 08       		.byte	0x8
 8269 2e47 30       		.byte	0x30
 8270 2e48 00       		.byte	0
 8271 2e49 23       		.uleb128 0x23
 8272 2e4a 74050000 		.4byte	.LVL234
 8273 2e4e 9F470000 		.4byte	0x479f
 8274 2e52 5D2E0000 		.4byte	0x2e5d
 8275 2e56 24       		.uleb128 0x24
 8276 2e57 01       		.uleb128 0x1
 8277 2e58 50       		.byte	0x50
 8278 2e59 02       		.uleb128 0x2
 8279 2e5a 08       		.byte	0x8
 8280 2e5b 30       		.byte	0x30
 8281 2e5c 00       		.byte	0
 8282 2e5d 23       		.uleb128 0x23
 8283 2e5e 7A050000 		.4byte	.LVL235
 8284 2e62 9F470000 		.4byte	0x479f
 8285 2e66 712E0000 		.4byte	0x2e71
 8286 2e6a 24       		.uleb128 0x24
 8287 2e6b 01       		.uleb128 0x1
 8288 2e6c 50       		.byte	0x50
 8289 2e6d 02       		.uleb128 0x2
 8290 2e6e 08       		.byte	0x8
 8291 2e6f 33       		.byte	0x33
 8292 2e70 00       		.byte	0
 8293 2e71 23       		.uleb128 0x23
 8294 2e72 80050000 		.4byte	.LVL236
 8295 2e76 9F470000 		.4byte	0x479f
 8296 2e7a 852E0000 		.4byte	0x2e85
 8297 2e7e 24       		.uleb128 0x24
 8298 2e7f 01       		.uleb128 0x1
 8299 2e80 50       		.byte	0x50
 8300 2e81 02       		.uleb128 0x2
 8301 2e82 08       		.byte	0x8
 8302 2e83 32       		.byte	0x32
 8303 2e84 00       		.byte	0
 8304 2e85 23       		.uleb128 0x23
 8305 2e86 86050000 		.4byte	.LVL237
 8306 2e8a 9F470000 		.4byte	0x479f
 8307 2e8e 992E0000 		.4byte	0x2e99
 8308 2e92 24       		.uleb128 0x24
 8309 2e93 01       		.uleb128 0x1
 8310 2e94 50       		.byte	0x50
 8311 2e95 02       		.uleb128 0x2
 8312 2e96 08       		.byte	0x8
 8313 2e97 41       		.byte	0x41
 8314 2e98 00       		.byte	0
 8315 2e99 23       		.uleb128 0x23
 8316 2e9a 8C050000 		.4byte	.LVL238
 8317 2e9e 9F470000 		.4byte	0x479f
ARM GAS  C:\Users\AHMED~1.ELE\AppData\Local\Temp\ccWApJgZ.s 			page 161


 8318 2ea2 AD2E0000 		.4byte	0x2ead
 8319 2ea6 24       		.uleb128 0x24
 8320 2ea7 01       		.uleb128 0x1
 8321 2ea8 50       		.byte	0x50
 8322 2ea9 02       		.uleb128 0x2
 8323 2eaa 08       		.byte	0x8
 8324 2eab 35       		.byte	0x35
 8325 2eac 00       		.byte	0
 8326 2ead 23       		.uleb128 0x23
 8327 2eae 92050000 		.4byte	.LVL239
 8328 2eb2 9F470000 		.4byte	0x479f
 8329 2eb6 C12E0000 		.4byte	0x2ec1
 8330 2eba 24       		.uleb128 0x24
 8331 2ebb 01       		.uleb128 0x1
 8332 2ebc 50       		.byte	0x50
 8333 2ebd 02       		.uleb128 0x2
 8334 2ebe 08       		.byte	0x8
 8335 2ebf 35       		.byte	0x35
 8336 2ec0 00       		.byte	0
 8337 2ec1 23       		.uleb128 0x23
 8338 2ec2 98050000 		.4byte	.LVL240
 8339 2ec6 9F470000 		.4byte	0x479f
 8340 2eca D52E0000 		.4byte	0x2ed5
 8341 2ece 24       		.uleb128 0x24
 8342 2ecf 01       		.uleb128 0x1
 8343 2ed0 50       		.byte	0x50
 8344 2ed1 02       		.uleb128 0x2
 8345 2ed2 08       		.byte	0x8
 8346 2ed3 34       		.byte	0x34
 8347 2ed4 00       		.byte	0
 8348 2ed5 23       		.uleb128 0x23
 8349 2ed6 9E050000 		.4byte	.LVL241
 8350 2eda 9F470000 		.4byte	0x479f
 8351 2ede E92E0000 		.4byte	0x2ee9
 8352 2ee2 24       		.uleb128 0x24
 8353 2ee3 01       		.uleb128 0x1
 8354 2ee4 50       		.byte	0x50
 8355 2ee5 02       		.uleb128 0x2
 8356 2ee6 08       		.byte	0x8
 8357 2ee7 41       		.byte	0x41
 8358 2ee8 00       		.byte	0
 8359 2ee9 23       		.uleb128 0x23
 8360 2eea A4050000 		.4byte	.LVL242
 8361 2eee 9F470000 		.4byte	0x479f
 8362 2ef2 FD2E0000 		.4byte	0x2efd
 8363 2ef6 24       		.uleb128 0x24
 8364 2ef7 01       		.uleb128 0x1
 8365 2ef8 50       		.byte	0x50
 8366 2ef9 02       		.uleb128 0x2
 8367 2efa 08       		.byte	0x8
 8368 2efb 39       		.byte	0x39
 8369 2efc 00       		.byte	0
 8370 2efd 23       		.uleb128 0x23
 8371 2efe AA050000 		.4byte	.LVL243
 8372 2f02 9F470000 		.4byte	0x479f
 8373 2f06 112F0000 		.4byte	0x2f11
 8374 2f0a 24       		.uleb128 0x24
ARM GAS  C:\Users\AHMED~1.ELE\AppData\Local\Temp\ccWApJgZ.s 			page 162


 8375 2f0b 01       		.uleb128 0x1
 8376 2f0c 50       		.byte	0x50
 8377 2f0d 02       		.uleb128 0x2
 8378 2f0e 08       		.byte	0x8
 8379 2f0f 36       		.byte	0x36
 8380 2f10 00       		.byte	0
 8381 2f11 23       		.uleb128 0x23
 8382 2f12 B0050000 		.4byte	.LVL244
 8383 2f16 9F470000 		.4byte	0x479f
 8384 2f1a 252F0000 		.4byte	0x2f25
 8385 2f1e 24       		.uleb128 0x24
 8386 2f1f 01       		.uleb128 0x1
 8387 2f20 50       		.byte	0x50
 8388 2f21 02       		.uleb128 0x2
 8389 2f22 08       		.byte	0x8
 8390 2f23 34       		.byte	0x34
 8391 2f24 00       		.byte	0
 8392 2f25 23       		.uleb128 0x23
 8393 2f26 B6050000 		.4byte	.LVL245
 8394 2f2a 9F470000 		.4byte	0x479f
 8395 2f2e 392F0000 		.4byte	0x2f39
 8396 2f32 24       		.uleb128 0x24
 8397 2f33 01       		.uleb128 0x1
 8398 2f34 50       		.byte	0x50
 8399 2f35 02       		.uleb128 0x2
 8400 2f36 08       		.byte	0x8
 8401 2f37 35       		.byte	0x35
 8402 2f38 00       		.byte	0
 8403 2f39 23       		.uleb128 0x23
 8404 2f3a BC050000 		.4byte	.LVL246
 8405 2f3e 9F470000 		.4byte	0x479f
 8406 2f42 4D2F0000 		.4byte	0x2f4d
 8407 2f46 24       		.uleb128 0x24
 8408 2f47 01       		.uleb128 0x1
 8409 2f48 50       		.byte	0x50
 8410 2f49 02       		.uleb128 0x2
 8411 2f4a 08       		.byte	0x8
 8412 2f4b 39       		.byte	0x39
 8413 2f4c 00       		.byte	0
 8414 2f4d 23       		.uleb128 0x23
 8415 2f4e C2050000 		.4byte	.LVL247
 8416 2f52 9F470000 		.4byte	0x479f
 8417 2f56 612F0000 		.4byte	0x2f61
 8418 2f5a 24       		.uleb128 0x24
 8419 2f5b 01       		.uleb128 0x1
 8420 2f5c 50       		.byte	0x50
 8421 2f5d 02       		.uleb128 0x2
 8422 2f5e 08       		.byte	0x8
 8423 2f5f 45       		.byte	0x45
 8424 2f60 00       		.byte	0
 8425 2f61 23       		.uleb128 0x23
 8426 2f62 C8050000 		.4byte	.LVL248
 8427 2f66 9F470000 		.4byte	0x479f
 8428 2f6a 752F0000 		.4byte	0x2f75
 8429 2f6e 24       		.uleb128 0x24
 8430 2f6f 01       		.uleb128 0x1
 8431 2f70 50       		.byte	0x50
ARM GAS  C:\Users\AHMED~1.ELE\AppData\Local\Temp\ccWApJgZ.s 			page 163


 8432 2f71 02       		.uleb128 0x2
 8433 2f72 08       		.byte	0x8
 8434 2f73 33       		.byte	0x33
 8435 2f74 00       		.byte	0
 8436 2f75 23       		.uleb128 0x23
 8437 2f76 CE050000 		.4byte	.LVL249
 8438 2f7a 9F470000 		.4byte	0x479f
 8439 2f7e 892F0000 		.4byte	0x2f89
 8440 2f82 24       		.uleb128 0x24
 8441 2f83 01       		.uleb128 0x1
 8442 2f84 50       		.byte	0x50
 8443 2f85 02       		.uleb128 0x2
 8444 2f86 08       		.byte	0x8
 8445 2f87 36       		.byte	0x36
 8446 2f88 00       		.byte	0
 8447 2f89 23       		.uleb128 0x23
 8448 2f8a D4050000 		.4byte	.LVL250
 8449 2f8e 9F470000 		.4byte	0x479f
 8450 2f92 9D2F0000 		.4byte	0x2f9d
 8451 2f96 24       		.uleb128 0x24
 8452 2f97 01       		.uleb128 0x1
 8453 2f98 50       		.byte	0x50
 8454 2f99 02       		.uleb128 0x2
 8455 2f9a 08       		.byte	0x8
 8456 2f9b 38       		.byte	0x38
 8457 2f9c 00       		.byte	0
 8458 2f9d 23       		.uleb128 0x23
 8459 2f9e DA050000 		.4byte	.LVL251
 8460 2fa2 9F470000 		.4byte	0x479f
 8461 2fa6 B12F0000 		.4byte	0x2fb1
 8462 2faa 24       		.uleb128 0x24
 8463 2fab 01       		.uleb128 0x1
 8464 2fac 50       		.byte	0x50
 8465 2fad 02       		.uleb128 0x2
 8466 2fae 08       		.byte	0x8
 8467 2faf 42       		.byte	0x42
 8468 2fb0 00       		.byte	0
 8469 2fb1 23       		.uleb128 0x23
 8470 2fb2 E0050000 		.4byte	.LVL252
 8471 2fb6 9F470000 		.4byte	0x479f
 8472 2fba C52F0000 		.4byte	0x2fc5
 8473 2fbe 24       		.uleb128 0x24
 8474 2fbf 01       		.uleb128 0x1
 8475 2fc0 50       		.byte	0x50
 8476 2fc1 02       		.uleb128 0x2
 8477 2fc2 08       		.byte	0x8
 8478 2fc3 46       		.byte	0x46
 8479 2fc4 00       		.byte	0
 8480 2fc5 23       		.uleb128 0x23
 8481 2fc6 E6050000 		.4byte	.LVL253
 8482 2fca 9F470000 		.4byte	0x479f
 8483 2fce D92F0000 		.4byte	0x2fd9
 8484 2fd2 24       		.uleb128 0x24
 8485 2fd3 01       		.uleb128 0x1
 8486 2fd4 50       		.byte	0x50
 8487 2fd5 02       		.uleb128 0x2
 8488 2fd6 08       		.byte	0x8
ARM GAS  C:\Users\AHMED~1.ELE\AppData\Local\Temp\ccWApJgZ.s 			page 164


 8489 2fd7 36       		.byte	0x36
 8490 2fd8 00       		.byte	0
 8491 2fd9 23       		.uleb128 0x23
 8492 2fda EC050000 		.4byte	.LVL254
 8493 2fde 9F470000 		.4byte	0x479f
 8494 2fe2 ED2F0000 		.4byte	0x2fed
 8495 2fe6 24       		.uleb128 0x24
 8496 2fe7 01       		.uleb128 0x1
 8497 2fe8 50       		.byte	0x50
 8498 2fe9 02       		.uleb128 0x2
 8499 2fea 08       		.byte	0x8
 8500 2feb 30       		.byte	0x30
 8501 2fec 00       		.byte	0
 8502 2fed 23       		.uleb128 0x23
 8503 2fee F2050000 		.4byte	.LVL255
 8504 2ff2 9F470000 		.4byte	0x479f
 8505 2ff6 01300000 		.4byte	0x3001
 8506 2ffa 24       		.uleb128 0x24
 8507 2ffb 01       		.uleb128 0x1
 8508 2ffc 50       		.byte	0x50
 8509 2ffd 02       		.uleb128 0x2
 8510 2ffe 08       		.byte	0x8
 8511 2fff 42       		.byte	0x42
 8512 3000 00       		.byte	0
 8513 3001 23       		.uleb128 0x23
 8514 3002 F8050000 		.4byte	.LVL256
 8515 3006 9F470000 		.4byte	0x479f
 8516 300a 15300000 		.4byte	0x3015
 8517 300e 24       		.uleb128 0x24
 8518 300f 01       		.uleb128 0x1
 8519 3010 50       		.byte	0x50
 8520 3011 02       		.uleb128 0x2
 8521 3012 08       		.byte	0x8
 8522 3013 39       		.byte	0x39
 8523 3014 00       		.byte	0
 8524 3015 23       		.uleb128 0x23
 8525 3016 FE050000 		.4byte	.LVL257
 8526 301a 9F470000 		.4byte	0x479f
 8527 301e 29300000 		.4byte	0x3029
 8528 3022 24       		.uleb128 0x24
 8529 3023 01       		.uleb128 0x1
 8530 3024 50       		.byte	0x50
 8531 3025 02       		.uleb128 0x2
 8532 3026 08       		.byte	0x8
 8533 3027 32       		.byte	0x32
 8534 3028 00       		.byte	0
 8535 3029 23       		.uleb128 0x23
 8536 302a 04060000 		.4byte	.LVL258
 8537 302e 9F470000 		.4byte	0x479f
 8538 3032 3D300000 		.4byte	0x303d
 8539 3036 24       		.uleb128 0x24
 8540 3037 01       		.uleb128 0x1
 8541 3038 50       		.byte	0x50
 8542 3039 02       		.uleb128 0x2
 8543 303a 08       		.byte	0x8
 8544 303b 37       		.byte	0x37
 8545 303c 00       		.byte	0
ARM GAS  C:\Users\AHMED~1.ELE\AppData\Local\Temp\ccWApJgZ.s 			page 165


 8546 303d 23       		.uleb128 0x23
 8547 303e 0A060000 		.4byte	.LVL259
 8548 3042 9F470000 		.4byte	0x479f
 8549 3046 51300000 		.4byte	0x3051
 8550 304a 24       		.uleb128 0x24
 8551 304b 01       		.uleb128 0x1
 8552 304c 50       		.byte	0x50
 8553 304d 02       		.uleb128 0x2
 8554 304e 08       		.byte	0x8
 8555 304f 45       		.byte	0x45
 8556 3050 00       		.byte	0
 8557 3051 23       		.uleb128 0x23
 8558 3052 10060000 		.4byte	.LVL260
 8559 3056 9F470000 		.4byte	0x479f
 8560 305a 65300000 		.4byte	0x3065
 8561 305e 24       		.uleb128 0x24
 8562 305f 01       		.uleb128 0x1
 8563 3060 50       		.byte	0x50
 8564 3061 02       		.uleb128 0x2
 8565 3062 08       		.byte	0x8
 8566 3063 39       		.byte	0x39
 8567 3064 00       		.byte	0
 8568 3065 23       		.uleb128 0x23
 8569 3066 16060000 		.4byte	.LVL261
 8570 306a 9F470000 		.4byte	0x479f
 8571 306e 79300000 		.4byte	0x3079
 8572 3072 24       		.uleb128 0x24
 8573 3073 01       		.uleb128 0x1
 8574 3074 50       		.byte	0x50
 8575 3075 02       		.uleb128 0x2
 8576 3076 08       		.byte	0x8
 8577 3077 46       		.byte	0x46
 8578 3078 00       		.byte	0
 8579 3079 23       		.uleb128 0x23
 8580 307a 1C060000 		.4byte	.LVL262
 8581 307e 9F470000 		.4byte	0x479f
 8582 3082 8D300000 		.4byte	0x308d
 8583 3086 24       		.uleb128 0x24
 8584 3087 01       		.uleb128 0x1
 8585 3088 50       		.byte	0x50
 8586 3089 02       		.uleb128 0x2
 8587 308a 08       		.byte	0x8
 8588 308b 34       		.byte	0x34
 8589 308c 00       		.byte	0
 8590 308d 23       		.uleb128 0x23
 8591 308e 22060000 		.4byte	.LVL263
 8592 3092 9F470000 		.4byte	0x479f
 8593 3096 A1300000 		.4byte	0x30a1
 8594 309a 24       		.uleb128 0x24
 8595 309b 01       		.uleb128 0x1
 8596 309c 50       		.byte	0x50
 8597 309d 02       		.uleb128 0x2
 8598 309e 08       		.byte	0x8
 8599 309f 41       		.byte	0x41
 8600 30a0 00       		.byte	0
 8601 30a1 23       		.uleb128 0x23
 8602 30a2 28060000 		.4byte	.LVL264
ARM GAS  C:\Users\AHMED~1.ELE\AppData\Local\Temp\ccWApJgZ.s 			page 166


 8603 30a6 9F470000 		.4byte	0x479f
 8604 30aa B5300000 		.4byte	0x30b5
 8605 30ae 24       		.uleb128 0x24
 8606 30af 01       		.uleb128 0x1
 8607 30b0 50       		.byte	0x50
 8608 30b1 02       		.uleb128 0x2
 8609 30b2 08       		.byte	0x8
 8610 30b3 44       		.byte	0x44
 8611 30b4 00       		.byte	0
 8612 30b5 23       		.uleb128 0x23
 8613 30b6 2E060000 		.4byte	.LVL265
 8614 30ba 9F470000 		.4byte	0x479f
 8615 30be C9300000 		.4byte	0x30c9
 8616 30c2 24       		.uleb128 0x24
 8617 30c3 01       		.uleb128 0x1
 8618 30c4 50       		.byte	0x50
 8619 30c5 02       		.uleb128 0x2
 8620 30c6 08       		.byte	0x8
 8621 30c7 31       		.byte	0x31
 8622 30c8 00       		.byte	0
 8623 30c9 23       		.uleb128 0x23
 8624 30ca 34060000 		.4byte	.LVL266
 8625 30ce 9F470000 		.4byte	0x479f
 8626 30d2 DD300000 		.4byte	0x30dd
 8627 30d6 24       		.uleb128 0x24
 8628 30d7 01       		.uleb128 0x1
 8629 30d8 50       		.byte	0x50
 8630 30d9 02       		.uleb128 0x2
 8631 30da 08       		.byte	0x8
 8632 30db 34       		.byte	0x34
 8633 30dc 00       		.byte	0
 8634 30dd 23       		.uleb128 0x23
 8635 30de 3A060000 		.4byte	.LVL267
 8636 30e2 9F470000 		.4byte	0x479f
 8637 30e6 F1300000 		.4byte	0x30f1
 8638 30ea 24       		.uleb128 0x24
 8639 30eb 01       		.uleb128 0x1
 8640 30ec 50       		.byte	0x50
 8641 30ed 02       		.uleb128 0x2
 8642 30ee 08       		.byte	0x8
 8643 30ef 45       		.byte	0x45
 8644 30f0 00       		.byte	0
 8645 30f1 23       		.uleb128 0x23
 8646 30f2 40060000 		.4byte	.LVL268
 8647 30f6 9F470000 		.4byte	0x479f
 8648 30fa 05310000 		.4byte	0x3105
 8649 30fe 24       		.uleb128 0x24
 8650 30ff 01       		.uleb128 0x1
 8651 3100 50       		.byte	0x50
 8652 3101 02       		.uleb128 0x2
 8653 3102 08       		.byte	0x8
 8654 3103 39       		.byte	0x39
 8655 3104 00       		.byte	0
 8656 3105 23       		.uleb128 0x23
 8657 3106 46060000 		.4byte	.LVL269
 8658 310a 9F470000 		.4byte	0x479f
 8659 310e 19310000 		.4byte	0x3119
ARM GAS  C:\Users\AHMED~1.ELE\AppData\Local\Temp\ccWApJgZ.s 			page 167


 8660 3112 24       		.uleb128 0x24
 8661 3113 01       		.uleb128 0x1
 8662 3114 50       		.byte	0x50
 8663 3115 02       		.uleb128 0x2
 8664 3116 08       		.byte	0x8
 8665 3117 38       		.byte	0x38
 8666 3118 00       		.byte	0
 8667 3119 23       		.uleb128 0x23
 8668 311a 4C060000 		.4byte	.LVL270
 8669 311e 9F470000 		.4byte	0x479f
 8670 3122 2D310000 		.4byte	0x312d
 8671 3126 24       		.uleb128 0x24
 8672 3127 01       		.uleb128 0x1
 8673 3128 50       		.byte	0x50
 8674 3129 02       		.uleb128 0x2
 8675 312a 08       		.byte	0x8
 8676 312b 31       		.byte	0x31
 8677 312c 00       		.byte	0
 8678 312d 23       		.uleb128 0x23
 8679 312e 52060000 		.4byte	.LVL271
 8680 3132 9F470000 		.4byte	0x479f
 8681 3136 41310000 		.4byte	0x3141
 8682 313a 24       		.uleb128 0x24
 8683 313b 01       		.uleb128 0x1
 8684 313c 50       		.byte	0x50
 8685 313d 02       		.uleb128 0x2
 8686 313e 08       		.byte	0x8
 8687 313f 38       		.byte	0x38
 8688 3140 00       		.byte	0
 8689 3141 23       		.uleb128 0x23
 8690 3142 58060000 		.4byte	.LVL272
 8691 3146 9F470000 		.4byte	0x479f
 8692 314a 55310000 		.4byte	0x3155
 8693 314e 24       		.uleb128 0x24
 8694 314f 01       		.uleb128 0x1
 8695 3150 50       		.byte	0x50
 8696 3151 02       		.uleb128 0x2
 8697 3152 08       		.byte	0x8
 8698 3153 2D       		.byte	0x2d
 8699 3154 00       		.byte	0
 8700 3155 23       		.uleb128 0x23
 8701 3156 5E060000 		.4byte	.LVL273
 8702 315a 9F470000 		.4byte	0x479f
 8703 315e 69310000 		.4byte	0x3169
 8704 3162 24       		.uleb128 0x24
 8705 3163 01       		.uleb128 0x1
 8706 3164 50       		.byte	0x50
 8707 3165 02       		.uleb128 0x2
 8708 3166 08       		.byte	0x8
 8709 3167 6B       		.byte	0x6b
 8710 3168 00       		.byte	0
 8711 3169 23       		.uleb128 0x23
 8712 316a 64060000 		.4byte	.LVL274
 8713 316e 9F470000 		.4byte	0x479f
 8714 3172 7D310000 		.4byte	0x317d
 8715 3176 24       		.uleb128 0x24
 8716 3177 01       		.uleb128 0x1
ARM GAS  C:\Users\AHMED~1.ELE\AppData\Local\Temp\ccWApJgZ.s 			page 168


 8717 3178 50       		.byte	0x50
 8718 3179 02       		.uleb128 0x2
 8719 317a 08       		.byte	0x8
 8720 317b A9       		.byte	0xa9
 8721 317c 00       		.byte	0
 8722 317d 23       		.uleb128 0x23
 8723 317e 6A060000 		.4byte	.LVL275
 8724 3182 9F470000 		.4byte	0x479f
 8725 3186 91310000 		.4byte	0x3191
 8726 318a 24       		.uleb128 0x24
 8727 318b 01       		.uleb128 0x1
 8728 318c 50       		.byte	0x50
 8729 318d 02       		.uleb128 0x2
 8730 318e 08       		.byte	0x8
 8731 318f 3C       		.byte	0x3c
 8732 3190 00       		.byte	0
 8733 3191 23       		.uleb128 0x23
 8734 3192 70060000 		.4byte	.LVL276
 8735 3196 9F470000 		.4byte	0x479f
 8736 319a A5310000 		.4byte	0x31a5
 8737 319e 24       		.uleb128 0x24
 8738 319f 01       		.uleb128 0x1
 8739 31a0 50       		.byte	0x50
 8740 31a1 02       		.uleb128 0x2
 8741 31a2 08       		.byte	0x8
 8742 31a3 E9       		.byte	0xe9
 8743 31a4 00       		.byte	0
 8744 31a5 23       		.uleb128 0x23
 8745 31a6 76060000 		.4byte	.LVL277
 8746 31aa 9F470000 		.4byte	0x479f
 8747 31ae B9310000 		.4byte	0x31b9
 8748 31b2 24       		.uleb128 0x24
 8749 31b3 01       		.uleb128 0x1
 8750 31b4 50       		.byte	0x50
 8751 31b5 02       		.uleb128 0x2
 8752 31b6 08       		.byte	0x8
 8753 31b7 CF       		.byte	0xcf
 8754 31b8 00       		.byte	0
 8755 31b9 23       		.uleb128 0x23
 8756 31ba 7C060000 		.4byte	.LVL278
 8757 31be 9F470000 		.4byte	0x479f
 8758 31c2 CC310000 		.4byte	0x31cc
 8759 31c6 24       		.uleb128 0x24
 8760 31c7 01       		.uleb128 0x1
 8761 31c8 50       		.byte	0x50
 8762 31c9 01       		.uleb128 0x1
 8763 31ca 48       		.byte	0x48
 8764 31cb 00       		.byte	0
 8765 31cc 23       		.uleb128 0x23
 8766 31cd 82060000 		.4byte	.LVL279
 8767 31d1 9F470000 		.4byte	0x479f
 8768 31d5 E0310000 		.4byte	0x31e0
 8769 31d9 24       		.uleb128 0x24
 8770 31da 01       		.uleb128 0x1
 8771 31db 50       		.byte	0x50
 8772 31dc 02       		.uleb128 0x2
 8773 31dd 08       		.byte	0x8
ARM GAS  C:\Users\AHMED~1.ELE\AppData\Local\Temp\ccWApJgZ.s 			page 169


 8774 31de 45       		.byte	0x45
 8775 31df 00       		.byte	0
 8776 31e0 23       		.uleb128 0x23
 8777 31e1 88060000 		.4byte	.LVL280
 8778 31e5 9F470000 		.4byte	0x479f
 8779 31e9 F3310000 		.4byte	0x31f3
 8780 31ed 24       		.uleb128 0x24
 8781 31ee 01       		.uleb128 0x1
 8782 31ef 50       		.byte	0x50
 8783 31f0 01       		.uleb128 0x1
 8784 31f1 39       		.byte	0x39
 8785 31f2 00       		.byte	0
 8786 31f3 23       		.uleb128 0x23
 8787 31f4 8E060000 		.4byte	.LVL281
 8788 31f8 9F470000 		.4byte	0x479f
 8789 31fc 07320000 		.4byte	0x3207
 8790 3200 24       		.uleb128 0x24
 8791 3201 01       		.uleb128 0x1
 8792 3202 50       		.byte	0x50
 8793 3203 02       		.uleb128 0x2
 8794 3204 08       		.byte	0x8
 8795 3205 30       		.byte	0x30
 8796 3206 00       		.byte	0
 8797 3207 23       		.uleb128 0x23
 8798 3208 94060000 		.4byte	.LVL282
 8799 320c 9F470000 		.4byte	0x479f
 8800 3210 1B320000 		.4byte	0x321b
 8801 3214 24       		.uleb128 0x24
 8802 3215 01       		.uleb128 0x1
 8803 3216 50       		.byte	0x50
 8804 3217 02       		.uleb128 0x2
 8805 3218 08       		.byte	0x8
 8806 3219 31       		.byte	0x31
 8807 321a 00       		.byte	0
 8808 321b 23       		.uleb128 0x23
 8809 321c 9A060000 		.4byte	.LVL283
 8810 3220 9F470000 		.4byte	0x479f
 8811 3224 2F320000 		.4byte	0x322f
 8812 3228 24       		.uleb128 0x24
 8813 3229 01       		.uleb128 0x1
 8814 322a 50       		.byte	0x50
 8815 322b 02       		.uleb128 0x2
 8816 322c 08       		.byte	0x8
 8817 322d 30       		.byte	0x30
 8818 322e 00       		.byte	0
 8819 322f 23       		.uleb128 0x23
 8820 3230 A0060000 		.4byte	.LVL284
 8821 3234 9F470000 		.4byte	0x479f
 8822 3238 43320000 		.4byte	0x3243
 8823 323c 24       		.uleb128 0x24
 8824 323d 01       		.uleb128 0x1
 8825 323e 50       		.byte	0x50
 8826 323f 02       		.uleb128 0x2
 8827 3240 08       		.byte	0x8
 8828 3241 31       		.byte	0x31
 8829 3242 00       		.byte	0
 8830 3243 23       		.uleb128 0x23
ARM GAS  C:\Users\AHMED~1.ELE\AppData\Local\Temp\ccWApJgZ.s 			page 170


 8831 3244 A6060000 		.4byte	.LVL285
 8832 3248 9F470000 		.4byte	0x479f
 8833 324c 57320000 		.4byte	0x3257
 8834 3250 24       		.uleb128 0x24
 8835 3251 01       		.uleb128 0x1
 8836 3252 50       		.byte	0x50
 8837 3253 02       		.uleb128 0x2
 8838 3254 08       		.byte	0x8
 8839 3255 30       		.byte	0x30
 8840 3256 00       		.byte	0
 8841 3257 23       		.uleb128 0x23
 8842 3258 AC060000 		.4byte	.LVL286
 8843 325c 9F470000 		.4byte	0x479f
 8844 3260 6B320000 		.4byte	0x326b
 8845 3264 24       		.uleb128 0x24
 8846 3265 01       		.uleb128 0x1
 8847 3266 50       		.byte	0x50
 8848 3267 02       		.uleb128 0x2
 8849 3268 08       		.byte	0x8
 8850 3269 30       		.byte	0x30
 8851 326a 00       		.byte	0
 8852 326b 23       		.uleb128 0x23
 8853 326c B2060000 		.4byte	.LVL287
 8854 3270 9F470000 		.4byte	0x479f
 8855 3274 7F320000 		.4byte	0x327f
 8856 3278 24       		.uleb128 0x24
 8857 3279 01       		.uleb128 0x1
 8858 327a 50       		.byte	0x50
 8859 327b 02       		.uleb128 0x2
 8860 327c 08       		.byte	0x8
 8861 327d 30       		.byte	0x30
 8862 327e 00       		.byte	0
 8863 327f 23       		.uleb128 0x23
 8864 3280 B8060000 		.4byte	.LVL288
 8865 3284 9F470000 		.4byte	0x479f
 8866 3288 93320000 		.4byte	0x3293
 8867 328c 24       		.uleb128 0x24
 8868 328d 01       		.uleb128 0x1
 8869 328e 50       		.byte	0x50
 8870 328f 02       		.uleb128 0x2
 8871 3290 08       		.byte	0x8
 8872 3291 30       		.byte	0x30
 8873 3292 00       		.byte	0
 8874 3293 23       		.uleb128 0x23
 8875 3294 BE060000 		.4byte	.LVL289
 8876 3298 9F470000 		.4byte	0x479f
 8877 329c A7320000 		.4byte	0x32a7
 8878 32a0 24       		.uleb128 0x24
 8879 32a1 01       		.uleb128 0x1
 8880 32a2 50       		.byte	0x50
 8881 32a3 02       		.uleb128 0x2
 8882 32a4 08       		.byte	0x8
 8883 32a5 30       		.byte	0x30
 8884 32a6 00       		.byte	0
 8885 32a7 23       		.uleb128 0x23
 8886 32a8 C4060000 		.4byte	.LVL290
 8887 32ac 9F470000 		.4byte	0x479f
ARM GAS  C:\Users\AHMED~1.ELE\AppData\Local\Temp\ccWApJgZ.s 			page 171


 8888 32b0 BA320000 		.4byte	0x32ba
 8889 32b4 24       		.uleb128 0x24
 8890 32b5 01       		.uleb128 0x1
 8891 32b6 50       		.byte	0x50
 8892 32b7 01       		.uleb128 0x1
 8893 32b8 31       		.byte	0x31
 8894 32b9 00       		.byte	0
 8895 32ba 23       		.uleb128 0x23
 8896 32bb CA060000 		.4byte	.LVL291
 8897 32bf 9F470000 		.4byte	0x479f
 8898 32c3 CE320000 		.4byte	0x32ce
 8899 32c7 24       		.uleb128 0x24
 8900 32c8 01       		.uleb128 0x1
 8901 32c9 50       		.byte	0x50
 8902 32ca 02       		.uleb128 0x2
 8903 32cb 08       		.byte	0x8
 8904 32cc 40       		.byte	0x40
 8905 32cd 00       		.byte	0
 8906 32ce 23       		.uleb128 0x23
 8907 32cf D0060000 		.4byte	.LVL292
 8908 32d3 9F470000 		.4byte	0x479f
 8909 32d7 E2320000 		.4byte	0x32e2
 8910 32db 24       		.uleb128 0x24
 8911 32dc 01       		.uleb128 0x1
 8912 32dd 50       		.byte	0x50
 8913 32de 02       		.uleb128 0x2
 8914 32df 08       		.byte	0x8
 8915 32e0 5F       		.byte	0x5f
 8916 32e1 00       		.byte	0
 8917 32e2 23       		.uleb128 0x23
 8918 32e3 D6060000 		.4byte	.LVL293
 8919 32e7 9F470000 		.4byte	0x479f
 8920 32eb F6320000 		.4byte	0x32f6
 8921 32ef 24       		.uleb128 0x24
 8922 32f0 01       		.uleb128 0x1
 8923 32f1 50       		.byte	0x50
 8924 32f2 02       		.uleb128 0x2
 8925 32f3 08       		.byte	0x8
 8926 32f4 2A       		.byte	0x2a
 8927 32f5 00       		.byte	0
 8928 32f6 23       		.uleb128 0x23
 8929 32f7 DC060000 		.4byte	.LVL294
 8930 32fb 9F470000 		.4byte	0x479f
 8931 32ff 09330000 		.4byte	0x3309
 8932 3303 24       		.uleb128 0x24
 8933 3304 01       		.uleb128 0x1
 8934 3305 50       		.byte	0x50
 8935 3306 01       		.uleb128 0x1
 8936 3307 32       		.byte	0x32
 8937 3308 00       		.byte	0
 8938 3309 23       		.uleb128 0x23
 8939 330a E2060000 		.4byte	.LVL295
 8940 330e 9F470000 		.4byte	0x479f
 8941 3312 1C330000 		.4byte	0x331c
 8942 3316 24       		.uleb128 0x24
 8943 3317 01       		.uleb128 0x1
 8944 3318 50       		.byte	0x50
ARM GAS  C:\Users\AHMED~1.ELE\AppData\Local\Temp\ccWApJgZ.s 			page 172


 8945 3319 01       		.uleb128 0x1
 8946 331a 38       		.byte	0x38
 8947 331b 00       		.byte	0
 8948 331c 23       		.uleb128 0x23
 8949 331d E8060000 		.4byte	.LVL296
 8950 3321 9F470000 		.4byte	0x479f
 8951 3325 2F330000 		.4byte	0x332f
 8952 3329 24       		.uleb128 0x24
 8953 332a 01       		.uleb128 0x1
 8954 332b 50       		.byte	0x50
 8955 332c 01       		.uleb128 0x1
 8956 332d 48       		.byte	0x48
 8957 332e 00       		.byte	0
 8958 332f 23       		.uleb128 0x23
 8959 3330 EE060000 		.4byte	.LVL297
 8960 3334 9F470000 		.4byte	0x479f
 8961 3338 43330000 		.4byte	0x3343
 8962 333c 24       		.uleb128 0x24
 8963 333d 01       		.uleb128 0x1
 8964 333e 50       		.byte	0x50
 8965 333f 02       		.uleb128 0x2
 8966 3340 08       		.byte	0x8
 8967 3341 82       		.byte	0x82
 8968 3342 00       		.byte	0
 8969 3343 23       		.uleb128 0x23
 8970 3344 F4060000 		.4byte	.LVL298
 8971 3348 9F470000 		.4byte	0x479f
 8972 334c 56330000 		.4byte	0x3356
 8973 3350 24       		.uleb128 0x24
 8974 3351 01       		.uleb128 0x1
 8975 3352 50       		.byte	0x50
 8976 3353 01       		.uleb128 0x1
 8977 3354 32       		.byte	0x32
 8978 3355 00       		.byte	0
 8979 3356 23       		.uleb128 0x23
 8980 3357 FA060000 		.4byte	.LVL299
 8981 335b 9F470000 		.4byte	0x479f
 8982 335f 6A330000 		.4byte	0x336a
 8983 3363 24       		.uleb128 0x24
 8984 3364 01       		.uleb128 0x1
 8985 3365 50       		.byte	0x50
 8986 3366 02       		.uleb128 0x2
 8987 3367 08       		.byte	0x8
 8988 3368 3C       		.byte	0x3c
 8989 3369 00       		.byte	0
 8990 336a 23       		.uleb128 0x23
 8991 336b 00070000 		.4byte	.LVL300
 8992 336f 9F470000 		.4byte	0x479f
 8993 3373 7D330000 		.4byte	0x337d
 8994 3377 24       		.uleb128 0x24
 8995 3378 01       		.uleb128 0x1
 8996 3379 50       		.byte	0x50
 8997 337a 01       		.uleb128 0x1
 8998 337b 30       		.byte	0x30
 8999 337c 00       		.byte	0
 9000 337d 23       		.uleb128 0x23
 9001 337e 06070000 		.4byte	.LVL301
ARM GAS  C:\Users\AHMED~1.ELE\AppData\Local\Temp\ccWApJgZ.s 			page 173


 9002 3382 9F470000 		.4byte	0x479f
 9003 3386 91330000 		.4byte	0x3391
 9004 338a 24       		.uleb128 0x24
 9005 338b 01       		.uleb128 0x1
 9006 338c 50       		.byte	0x50
 9007 338d 02       		.uleb128 0x2
 9008 338e 08       		.byte	0x8
 9009 338f 84       		.byte	0x84
 9010 3390 00       		.byte	0
 9011 3391 23       		.uleb128 0x23
 9012 3392 0C070000 		.4byte	.LVL302
 9013 3396 9F470000 		.4byte	0x479f
 9014 339a A4330000 		.4byte	0x33a4
 9015 339e 24       		.uleb128 0x24
 9016 339f 01       		.uleb128 0x1
 9017 33a0 50       		.byte	0x50
 9018 33a1 01       		.uleb128 0x1
 9019 33a2 37       		.byte	0x37
 9020 33a3 00       		.byte	0
 9021 33a4 23       		.uleb128 0x23
 9022 33a5 12070000 		.4byte	.LVL303
 9023 33a9 9F470000 		.4byte	0x479f
 9024 33ad B8330000 		.4byte	0x33b8
 9025 33b1 24       		.uleb128 0x24
 9026 33b2 01       		.uleb128 0x1
 9027 33b3 50       		.byte	0x50
 9028 33b4 02       		.uleb128 0x2
 9029 33b5 08       		.byte	0x8
 9030 33b6 A0       		.byte	0xa0
 9031 33b7 00       		.byte	0
 9032 33b8 23       		.uleb128 0x23
 9033 33b9 18070000 		.4byte	.LVL304
 9034 33bd 9F470000 		.4byte	0x479f
 9035 33c1 CB330000 		.4byte	0x33cb
 9036 33c5 24       		.uleb128 0x24
 9037 33c6 01       		.uleb128 0x1
 9038 33c7 50       		.byte	0x50
 9039 33c8 01       		.uleb128 0x1
 9040 33c9 30       		.byte	0x30
 9041 33ca 00       		.byte	0
 9042 33cb 23       		.uleb128 0x23
 9043 33cc 1E070000 		.4byte	.LVL305
 9044 33d0 9F470000 		.4byte	0x479f
 9045 33d4 DE330000 		.4byte	0x33de
 9046 33d8 24       		.uleb128 0x24
 9047 33d9 01       		.uleb128 0x1
 9048 33da 50       		.byte	0x50
 9049 33db 01       		.uleb128 0x1
 9050 33dc 30       		.byte	0x30
 9051 33dd 00       		.byte	0
 9052 33de 23       		.uleb128 0x23
 9053 33df 24070000 		.4byte	.LVL306
 9054 33e3 9F470000 		.4byte	0x479f
 9055 33e7 F1330000 		.4byte	0x33f1
 9056 33eb 24       		.uleb128 0x24
 9057 33ec 01       		.uleb128 0x1
 9058 33ed 50       		.byte	0x50
ARM GAS  C:\Users\AHMED~1.ELE\AppData\Local\Temp\ccWApJgZ.s 			page 174


 9059 33ee 01       		.uleb128 0x1
 9060 33ef 30       		.byte	0x30
 9061 33f0 00       		.byte	0
 9062 33f1 23       		.uleb128 0x23
 9063 33f2 2A070000 		.4byte	.LVL307
 9064 33f6 9F470000 		.4byte	0x479f
 9065 33fa 04340000 		.4byte	0x3404
 9066 33fe 24       		.uleb128 0x24
 9067 33ff 01       		.uleb128 0x1
 9068 3400 50       		.byte	0x50
 9069 3401 01       		.uleb128 0x1
 9070 3402 33       		.byte	0x33
 9071 3403 00       		.byte	0
 9072 3404 23       		.uleb128 0x23
 9073 3405 30070000 		.4byte	.LVL308
 9074 3409 9F470000 		.4byte	0x479f
 9075 340d 17340000 		.4byte	0x3417
 9076 3411 24       		.uleb128 0x24
 9077 3412 01       		.uleb128 0x1
 9078 3413 50       		.byte	0x50
 9079 3414 01       		.uleb128 0x1
 9080 3415 40       		.byte	0x40
 9081 3416 00       		.byte	0
 9082 3417 23       		.uleb128 0x23
 9083 3418 36070000 		.4byte	.LVL309
 9084 341c 9F470000 		.4byte	0x479f
 9085 3420 2A340000 		.4byte	0x342a
 9086 3424 24       		.uleb128 0x24
 9087 3425 01       		.uleb128 0x1
 9088 3426 50       		.byte	0x50
 9089 3427 01       		.uleb128 0x1
 9090 3428 40       		.byte	0x40
 9091 3429 00       		.byte	0
 9092 342a 23       		.uleb128 0x23
 9093 342b 3C070000 		.4byte	.LVL310
 9094 342f 9F470000 		.4byte	0x479f
 9095 3433 3E340000 		.4byte	0x343e
 9096 3437 24       		.uleb128 0x24
 9097 3438 01       		.uleb128 0x1
 9098 3439 50       		.byte	0x50
 9099 343a 02       		.uleb128 0x2
 9100 343b 08       		.byte	0x8
 9101 343c 95       		.byte	0x95
 9102 343d 00       		.byte	0
 9103 343e 23       		.uleb128 0x23
 9104 343f 42070000 		.4byte	.LVL311
 9105 3443 9F470000 		.4byte	0x479f
 9106 3447 51340000 		.4byte	0x3451
 9107 344b 24       		.uleb128 0x24
 9108 344c 01       		.uleb128 0x1
 9109 344d 50       		.byte	0x50
 9110 344e 01       		.uleb128 0x1
 9111 344f 35       		.byte	0x35
 9112 3450 00       		.byte	0
 9113 3451 23       		.uleb128 0x23
 9114 3452 48070000 		.4byte	.LVL312
 9115 3456 9F470000 		.4byte	0x479f
ARM GAS  C:\Users\AHMED~1.ELE\AppData\Local\Temp\ccWApJgZ.s 			page 175


 9116 345a 64340000 		.4byte	0x3464
 9117 345e 24       		.uleb128 0x24
 9118 345f 01       		.uleb128 0x1
 9119 3460 50       		.byte	0x50
 9120 3461 01       		.uleb128 0x1
 9121 3462 38       		.byte	0x38
 9122 3463 00       		.byte	0
 9123 3464 23       		.uleb128 0x23
 9124 3465 4E070000 		.4byte	.LVL313
 9125 3469 9F470000 		.4byte	0x479f
 9126 346d 78340000 		.4byte	0x3478
 9127 3471 24       		.uleb128 0x24
 9128 3472 01       		.uleb128 0x1
 9129 3473 50       		.byte	0x50
 9130 3474 02       		.uleb128 0x2
 9131 3475 08       		.byte	0x8
 9132 3476 A0       		.byte	0xa0
 9133 3477 00       		.byte	0
 9134 3478 23       		.uleb128 0x23
 9135 3479 54070000 		.4byte	.LVL314
 9136 347d 9F470000 		.4byte	0x479f
 9137 3481 8C340000 		.4byte	0x348c
 9138 3485 24       		.uleb128 0x24
 9139 3486 01       		.uleb128 0x1
 9140 3487 50       		.byte	0x50
 9141 3488 02       		.uleb128 0x2
 9142 3489 08       		.byte	0x8
 9143 348a 24       		.byte	0x24
 9144 348b 00       		.byte	0
 9145 348c 23       		.uleb128 0x23
 9146 348d 5A070000 		.4byte	.LVL315
 9147 3491 9F470000 		.4byte	0x479f
 9148 3495 A0340000 		.4byte	0x34a0
 9149 3499 24       		.uleb128 0x24
 9150 349a 01       		.uleb128 0x1
 9151 349b 50       		.byte	0x50
 9152 349c 02       		.uleb128 0x2
 9153 349d 08       		.byte	0x8
 9154 349e 80       		.byte	0x80
 9155 349f 00       		.byte	0
 9156 34a0 23       		.uleb128 0x23
 9157 34a1 60070000 		.4byte	.LVL316
 9158 34a5 9F470000 		.4byte	0x479f
 9159 34a9 B3340000 		.4byte	0x34b3
 9160 34ad 24       		.uleb128 0x24
 9161 34ae 01       		.uleb128 0x1
 9162 34af 50       		.byte	0x50
 9163 34b0 01       		.uleb128 0x1
 9164 34b1 30       		.byte	0x30
 9165 34b2 00       		.byte	0
 9166 34b3 23       		.uleb128 0x23
 9167 34b4 66070000 		.4byte	.LVL317
 9168 34b8 9F470000 		.4byte	0x479f
 9169 34bc C7340000 		.4byte	0x34c7
 9170 34c0 24       		.uleb128 0x24
 9171 34c1 01       		.uleb128 0x1
 9172 34c2 50       		.byte	0x50
ARM GAS  C:\Users\AHMED~1.ELE\AppData\Local\Temp\ccWApJgZ.s 			page 176


 9173 34c3 02       		.uleb128 0x2
 9174 34c4 08       		.byte	0x8
 9175 34c5 9A       		.byte	0x9a
 9176 34c6 00       		.byte	0
 9177 34c7 23       		.uleb128 0x23
 9178 34c8 6C070000 		.4byte	.LVL318
 9179 34cc 9F470000 		.4byte	0x479f
 9180 34d0 DA340000 		.4byte	0x34da
 9181 34d4 24       		.uleb128 0x24
 9182 34d5 01       		.uleb128 0x1
 9183 34d6 50       		.byte	0x50
 9184 34d7 01       		.uleb128 0x1
 9185 34d8 33       		.byte	0x33
 9186 34d9 00       		.byte	0
 9187 34da 23       		.uleb128 0x23
 9188 34db 72070000 		.4byte	.LVL319
 9189 34df 9F470000 		.4byte	0x479f
 9190 34e3 ED340000 		.4byte	0x34ed
 9191 34e7 24       		.uleb128 0x24
 9192 34e8 01       		.uleb128 0x1
 9193 34e9 50       		.byte	0x50
 9194 34ea 01       		.uleb128 0x1
 9195 34eb 46       		.byte	0x46
 9196 34ec 00       		.byte	0
 9197 34ed 23       		.uleb128 0x23
 9198 34ee 78070000 		.4byte	.LVL320
 9199 34f2 9F470000 		.4byte	0x479f
 9200 34f6 00350000 		.4byte	0x3500
 9201 34fa 24       		.uleb128 0x24
 9202 34fb 01       		.uleb128 0x1
 9203 34fc 50       		.byte	0x50
 9204 34fd 01       		.uleb128 0x1
 9205 34fe 35       		.byte	0x35
 9206 34ff 00       		.byte	0
 9207 3500 23       		.uleb128 0x23
 9208 3501 7E070000 		.4byte	.LVL321
 9209 3505 9F470000 		.4byte	0x479f
 9210 3509 14350000 		.4byte	0x3514
 9211 350d 24       		.uleb128 0x24
 9212 350e 01       		.uleb128 0x1
 9213 350f 50       		.byte	0x50
 9214 3510 02       		.uleb128 0x2
 9215 3511 08       		.byte	0x8
 9216 3512 23       		.byte	0x23
 9217 3513 00       		.byte	0
 9218 3514 23       		.uleb128 0x23
 9219 3515 84070000 		.4byte	.LVL322
 9220 3519 9F470000 		.4byte	0x479f
 9221 351d 28350000 		.4byte	0x3528
 9222 3521 24       		.uleb128 0x24
 9223 3522 01       		.uleb128 0x1
 9224 3523 50       		.byte	0x50
 9225 3524 02       		.uleb128 0x2
 9226 3525 08       		.byte	0x8
 9227 3526 9C       		.byte	0x9c
 9228 3527 00       		.byte	0
 9229 3528 23       		.uleb128 0x23
ARM GAS  C:\Users\AHMED~1.ELE\AppData\Local\Temp\ccWApJgZ.s 			page 177


 9230 3529 8A070000 		.4byte	.LVL323
 9231 352d 9F470000 		.4byte	0x479f
 9232 3531 3B350000 		.4byte	0x353b
 9233 3535 24       		.uleb128 0x24
 9234 3536 01       		.uleb128 0x1
 9235 3537 50       		.byte	0x50
 9236 3538 01       		.uleb128 0x1
 9237 3539 31       		.byte	0x31
 9238 353a 00       		.byte	0
 9239 353b 23       		.uleb128 0x23
 9240 353c 90070000 		.4byte	.LVL324
 9241 3540 9F470000 		.4byte	0x479f
 9242 3544 4E350000 		.4byte	0x354e
 9243 3548 24       		.uleb128 0x24
 9244 3549 01       		.uleb128 0x1
 9245 354a 50       		.byte	0x50
 9246 354b 01       		.uleb128 0x1
 9247 354c 30       		.byte	0x30
 9248 354d 00       		.byte	0
 9249 354e 23       		.uleb128 0x23
 9250 354f 96070000 		.4byte	.LVL325
 9251 3553 9F470000 		.4byte	0x479f
 9252 3557 62350000 		.4byte	0x3562
 9253 355b 24       		.uleb128 0x24
 9254 355c 01       		.uleb128 0x1
 9255 355d 50       		.byte	0x50
 9256 355e 02       		.uleb128 0x2
 9257 355f 08       		.byte	0x8
 9258 3560 9F       		.byte	0x9f
 9259 3561 00       		.byte	0
 9260 3562 23       		.uleb128 0x23
 9261 3563 9C070000 		.4byte	.LVL326
 9262 3567 9F470000 		.4byte	0x479f
 9263 356b 75350000 		.4byte	0x3575
 9264 356f 24       		.uleb128 0x24
 9265 3570 01       		.uleb128 0x1
 9266 3571 50       		.byte	0x50
 9267 3572 01       		.uleb128 0x1
 9268 3573 32       		.byte	0x32
 9269 3574 00       		.byte	0
 9270 3575 23       		.uleb128 0x23
 9271 3576 A2070000 		.4byte	.LVL327
 9272 357a 9F470000 		.4byte	0x479f
 9273 357e 88350000 		.4byte	0x3588
 9274 3582 24       		.uleb128 0x24
 9275 3583 01       		.uleb128 0x1
 9276 3584 50       		.byte	0x50
 9277 3585 01       		.uleb128 0x1
 9278 3586 36       		.byte	0x36
 9279 3587 00       		.byte	0
 9280 3588 23       		.uleb128 0x23
 9281 3589 A8070000 		.4byte	.LVL328
 9282 358d 9F470000 		.4byte	0x479f
 9283 3591 9B350000 		.4byte	0x359b
 9284 3595 24       		.uleb128 0x24
 9285 3596 01       		.uleb128 0x1
 9286 3597 50       		.byte	0x50
ARM GAS  C:\Users\AHMED~1.ELE\AppData\Local\Temp\ccWApJgZ.s 			page 178


 9287 3598 01       		.uleb128 0x1
 9288 3599 30       		.byte	0x30
 9289 359a 00       		.byte	0
 9290 359b 23       		.uleb128 0x23
 9291 359c AE070000 		.4byte	.LVL329
 9292 35a0 9F470000 		.4byte	0x479f
 9293 35a4 AE350000 		.4byte	0x35ae
 9294 35a8 24       		.uleb128 0x24
 9295 35a9 01       		.uleb128 0x1
 9296 35aa 50       		.byte	0x50
 9297 35ab 01       		.uleb128 0x1
 9298 35ac 30       		.byte	0x30
 9299 35ad 00       		.byte	0
 9300 35ae 23       		.uleb128 0x23
 9301 35af B4070000 		.4byte	.LVL330
 9302 35b3 9F470000 		.4byte	0x479f
 9303 35b7 C1350000 		.4byte	0x35c1
 9304 35bb 24       		.uleb128 0x24
 9305 35bc 01       		.uleb128 0x1
 9306 35bd 50       		.byte	0x50
 9307 35be 01       		.uleb128 0x1
 9308 35bf 30       		.byte	0x30
 9309 35c0 00       		.byte	0
 9310 35c1 23       		.uleb128 0x23
 9311 35c2 BA070000 		.4byte	.LVL331
 9312 35c6 9F470000 		.4byte	0x479f
 9313 35ca D4350000 		.4byte	0x35d4
 9314 35ce 24       		.uleb128 0x24
 9315 35cf 01       		.uleb128 0x1
 9316 35d0 50       		.byte	0x50
 9317 35d1 01       		.uleb128 0x1
 9318 35d2 30       		.byte	0x30
 9319 35d3 00       		.byte	0
 9320 35d4 23       		.uleb128 0x23
 9321 35d5 C0070000 		.4byte	.LVL332
 9322 35d9 9F470000 		.4byte	0x479f
 9323 35dd E7350000 		.4byte	0x35e7
 9324 35e1 24       		.uleb128 0x24
 9325 35e2 01       		.uleb128 0x1
 9326 35e3 50       		.byte	0x50
 9327 35e4 01       		.uleb128 0x1
 9328 35e5 44       		.byte	0x44
 9329 35e6 00       		.byte	0
 9330 35e7 23       		.uleb128 0x23
 9331 35e8 C6070000 		.4byte	.LVL333
 9332 35ec 9F470000 		.4byte	0x479f
 9333 35f0 FA350000 		.4byte	0x35fa
 9334 35f4 24       		.uleb128 0x24
 9335 35f5 01       		.uleb128 0x1
 9336 35f6 50       		.byte	0x50
 9337 35f7 01       		.uleb128 0x1
 9338 35f8 30       		.byte	0x30
 9339 35f9 00       		.byte	0
 9340 35fa 23       		.uleb128 0x23
 9341 35fb CC070000 		.4byte	.LVL334
 9342 35ff 9F470000 		.4byte	0x479f
 9343 3603 0E360000 		.4byte	0x360e
ARM GAS  C:\Users\AHMED~1.ELE\AppData\Local\Temp\ccWApJgZ.s 			page 179


 9344 3607 24       		.uleb128 0x24
 9345 3608 01       		.uleb128 0x1
 9346 3609 50       		.byte	0x50
 9347 360a 02       		.uleb128 0x2
 9348 360b 08       		.byte	0x8
 9349 360c 9F       		.byte	0x9f
 9350 360d 00       		.byte	0
 9351 360e 23       		.uleb128 0x23
 9352 360f D2070000 		.4byte	.LVL335
 9353 3613 9F470000 		.4byte	0x479f
 9354 3617 21360000 		.4byte	0x3621
 9355 361b 24       		.uleb128 0x24
 9356 361c 01       		.uleb128 0x1
 9357 361d 50       		.byte	0x50
 9358 361e 01       		.uleb128 0x1
 9359 361f 33       		.byte	0x33
 9360 3620 00       		.byte	0
 9361 3621 23       		.uleb128 0x23
 9362 3622 D8070000 		.4byte	.LVL336
 9363 3626 9F470000 		.4byte	0x479f
 9364 362a 34360000 		.4byte	0x3634
 9365 362e 24       		.uleb128 0x24
 9366 362f 01       		.uleb128 0x1
 9367 3630 50       		.byte	0x50
 9368 3631 01       		.uleb128 0x1
 9369 3632 36       		.byte	0x36
 9370 3633 00       		.byte	0
 9371 3634 23       		.uleb128 0x23
 9372 3635 DE070000 		.4byte	.LVL337
 9373 3639 9F470000 		.4byte	0x479f
 9374 363d 47360000 		.4byte	0x3647
 9375 3641 24       		.uleb128 0x24
 9376 3642 01       		.uleb128 0x1
 9377 3643 50       		.byte	0x50
 9378 3644 01       		.uleb128 0x1
 9379 3645 30       		.byte	0x30
 9380 3646 00       		.byte	0
 9381 3647 23       		.uleb128 0x23
 9382 3648 E4070000 		.4byte	.LVL338
 9383 364c 9F470000 		.4byte	0x479f
 9384 3650 5A360000 		.4byte	0x365a
 9385 3654 24       		.uleb128 0x24
 9386 3655 01       		.uleb128 0x1
 9387 3656 50       		.byte	0x50
 9388 3657 01       		.uleb128 0x1
 9389 3658 30       		.byte	0x30
 9390 3659 00       		.byte	0
 9391 365a 23       		.uleb128 0x23
 9392 365b EA070000 		.4byte	.LVL339
 9393 365f 9F470000 		.4byte	0x479f
 9394 3663 6D360000 		.4byte	0x366d
 9395 3667 24       		.uleb128 0x24
 9396 3668 01       		.uleb128 0x1
 9397 3669 50       		.byte	0x50
 9398 366a 01       		.uleb128 0x1
 9399 366b 30       		.byte	0x30
 9400 366c 00       		.byte	0
ARM GAS  C:\Users\AHMED~1.ELE\AppData\Local\Temp\ccWApJgZ.s 			page 180


 9401 366d 23       		.uleb128 0x23
 9402 366e F0070000 		.4byte	.LVL340
 9403 3672 9F470000 		.4byte	0x479f
 9404 3676 80360000 		.4byte	0x3680
 9405 367a 24       		.uleb128 0x24
 9406 367b 01       		.uleb128 0x1
 9407 367c 50       		.byte	0x50
 9408 367d 01       		.uleb128 0x1
 9409 367e 30       		.byte	0x30
 9410 367f 00       		.byte	0
 9411 3680 23       		.uleb128 0x23
 9412 3681 F6070000 		.4byte	.LVL341
 9413 3685 9F470000 		.4byte	0x479f
 9414 3689 93360000 		.4byte	0x3693
 9415 368d 24       		.uleb128 0x24
 9416 368e 01       		.uleb128 0x1
 9417 368f 50       		.byte	0x50
 9418 3690 01       		.uleb128 0x1
 9419 3691 30       		.byte	0x30
 9420 3692 00       		.byte	0
 9421 3693 23       		.uleb128 0x23
 9422 3694 FC070000 		.4byte	.LVL342
 9423 3698 9F470000 		.4byte	0x479f
 9424 369c A6360000 		.4byte	0x36a6
 9425 36a0 24       		.uleb128 0x24
 9426 36a1 01       		.uleb128 0x1
 9427 36a2 50       		.byte	0x50
 9428 36a3 01       		.uleb128 0x1
 9429 36a4 30       		.byte	0x30
 9430 36a5 00       		.byte	0
 9431 36a6 23       		.uleb128 0x23
 9432 36a7 02080000 		.4byte	.LVL343
 9433 36ab 9F470000 		.4byte	0x479f
 9434 36af BA360000 		.4byte	0x36ba
 9435 36b3 24       		.uleb128 0x24
 9436 36b4 01       		.uleb128 0x1
 9437 36b5 50       		.byte	0x50
 9438 36b6 02       		.uleb128 0x2
 9439 36b7 08       		.byte	0x8
 9440 36b8 9F       		.byte	0x9f
 9441 36b9 00       		.byte	0
 9442 36ba 23       		.uleb128 0x23
 9443 36bb 08080000 		.4byte	.LVL344
 9444 36bf 9F470000 		.4byte	0x479f
 9445 36c3 CD360000 		.4byte	0x36cd
 9446 36c7 24       		.uleb128 0x24
 9447 36c8 01       		.uleb128 0x1
 9448 36c9 50       		.byte	0x50
 9449 36ca 01       		.uleb128 0x1
 9450 36cb 39       		.byte	0x39
 9451 36cc 00       		.byte	0
 9452 36cd 23       		.uleb128 0x23
 9453 36ce 0E080000 		.4byte	.LVL345
 9454 36d2 9F470000 		.4byte	0x479f
 9455 36d6 E0360000 		.4byte	0x36e0
 9456 36da 24       		.uleb128 0x24
 9457 36db 01       		.uleb128 0x1
ARM GAS  C:\Users\AHMED~1.ELE\AppData\Local\Temp\ccWApJgZ.s 			page 181


 9458 36dc 50       		.byte	0x50
 9459 36dd 01       		.uleb128 0x1
 9460 36de 32       		.byte	0x32
 9461 36df 00       		.byte	0
 9462 36e0 23       		.uleb128 0x23
 9463 36e1 14080000 		.4byte	.LVL346
 9464 36e5 9F470000 		.4byte	0x479f
 9465 36e9 F3360000 		.4byte	0x36f3
 9466 36ed 24       		.uleb128 0x24
 9467 36ee 01       		.uleb128 0x1
 9468 36ef 50       		.byte	0x50
 9469 36f0 01       		.uleb128 0x1
 9470 36f1 30       		.byte	0x30
 9471 36f2 00       		.byte	0
 9472 36f3 23       		.uleb128 0x23
 9473 36f4 1A080000 		.4byte	.LVL347
 9474 36f8 9F470000 		.4byte	0x479f
 9475 36fc 07370000 		.4byte	0x3707
 9476 3700 24       		.uleb128 0x24
 9477 3701 01       		.uleb128 0x1
 9478 3702 50       		.byte	0x50
 9479 3703 02       		.uleb128 0x2
 9480 3704 08       		.byte	0x8
 9481 3705 8C       		.byte	0x8c
 9482 3706 00       		.byte	0
 9483 3707 23       		.uleb128 0x23
 9484 3708 20080000 		.4byte	.LVL348
 9485 370c 9F470000 		.4byte	0x479f
 9486 3710 1B370000 		.4byte	0x371b
 9487 3714 24       		.uleb128 0x24
 9488 3715 01       		.uleb128 0x1
 9489 3716 50       		.byte	0x50
 9490 3717 02       		.uleb128 0x2
 9491 3718 08       		.byte	0x8
 9492 3719 9F       		.byte	0x9f
 9493 371a 00       		.byte	0
 9494 371b 23       		.uleb128 0x23
 9495 371c 26080000 		.4byte	.LVL349
 9496 3720 9F470000 		.4byte	0x479f
 9497 3724 2E370000 		.4byte	0x372e
 9498 3728 24       		.uleb128 0x24
 9499 3729 01       		.uleb128 0x1
 9500 372a 50       		.byte	0x50
 9501 372b 01       		.uleb128 0x1
 9502 372c 40       		.byte	0x40
 9503 372d 00       		.byte	0
 9504 372e 23       		.uleb128 0x23
 9505 372f 2C080000 		.4byte	.LVL350
 9506 3733 9F470000 		.4byte	0x479f
 9507 3737 41370000 		.4byte	0x3741
 9508 373b 24       		.uleb128 0x24
 9509 373c 01       		.uleb128 0x1
 9510 373d 50       		.byte	0x50
 9511 373e 01       		.uleb128 0x1
 9512 373f 37       		.byte	0x37
 9513 3740 00       		.byte	0
 9514 3741 23       		.uleb128 0x23
ARM GAS  C:\Users\AHMED~1.ELE\AppData\Local\Temp\ccWApJgZ.s 			page 182


 9515 3742 32080000 		.4byte	.LVL351
 9516 3746 9F470000 		.4byte	0x479f
 9517 374a 54370000 		.4byte	0x3754
 9518 374e 24       		.uleb128 0x24
 9519 374f 01       		.uleb128 0x1
 9520 3750 50       		.byte	0x50
 9521 3751 01       		.uleb128 0x1
 9522 3752 36       		.byte	0x36
 9523 3753 00       		.byte	0
 9524 3754 23       		.uleb128 0x23
 9525 3755 38080000 		.4byte	.LVL352
 9526 3759 9F470000 		.4byte	0x479f
 9527 375d 67370000 		.4byte	0x3767
 9528 3761 24       		.uleb128 0x24
 9529 3762 01       		.uleb128 0x1
 9530 3763 50       		.byte	0x50
 9531 3764 01       		.uleb128 0x1
 9532 3765 31       		.byte	0x31
 9533 3766 00       		.byte	0
 9534 3767 23       		.uleb128 0x23
 9535 3768 3E080000 		.4byte	.LVL353
 9536 376c 9F470000 		.4byte	0x479f
 9537 3770 7A370000 		.4byte	0x377a
 9538 3774 24       		.uleb128 0x24
 9539 3775 01       		.uleb128 0x1
 9540 3776 50       		.byte	0x50
 9541 3777 01       		.uleb128 0x1
 9542 3778 3A       		.byte	0x3a
 9543 3779 00       		.byte	0
 9544 377a 23       		.uleb128 0x23
 9545 377b 44080000 		.4byte	.LVL354
 9546 377f 9F470000 		.4byte	0x479f
 9547 3783 8D370000 		.4byte	0x378d
 9548 3787 24       		.uleb128 0x24
 9549 3788 01       		.uleb128 0x1
 9550 3789 50       		.byte	0x50
 9551 378a 01       		.uleb128 0x1
 9552 378b 33       		.byte	0x33
 9553 378c 00       		.byte	0
 9554 378d 23       		.uleb128 0x23
 9555 378e 4A080000 		.4byte	.LVL355
 9556 3792 9F470000 		.4byte	0x479f
 9557 3796 A1370000 		.4byte	0x37a1
 9558 379a 24       		.uleb128 0x24
 9559 379b 01       		.uleb128 0x1
 9560 379c 50       		.byte	0x50
 9561 379d 02       		.uleb128 0x2
 9562 379e 08       		.byte	0x8
 9563 379f A0       		.byte	0xa0
 9564 37a0 00       		.byte	0
 9565 37a1 23       		.uleb128 0x23
 9566 37a2 50080000 		.4byte	.LVL356
 9567 37a6 9F470000 		.4byte	0x479f
 9568 37aa B5370000 		.4byte	0x37b5
 9569 37ae 24       		.uleb128 0x24
 9570 37af 01       		.uleb128 0x1
 9571 37b0 50       		.byte	0x50
ARM GAS  C:\Users\AHMED~1.ELE\AppData\Local\Temp\ccWApJgZ.s 			page 183


 9572 37b1 02       		.uleb128 0x2
 9573 37b2 08       		.byte	0x8
 9574 37b3 E8       		.byte	0xe8
 9575 37b4 00       		.byte	0
 9576 37b5 23       		.uleb128 0x23
 9577 37b6 56080000 		.4byte	.LVL357
 9578 37ba 9F470000 		.4byte	0x479f
 9579 37be C8370000 		.4byte	0x37c8
 9580 37c2 24       		.uleb128 0x24
 9581 37c3 01       		.uleb128 0x1
 9582 37c4 50       		.byte	0x50
 9583 37c5 01       		.uleb128 0x1
 9584 37c6 30       		.byte	0x30
 9585 37c7 00       		.byte	0
 9586 37c8 23       		.uleb128 0x23
 9587 37c9 5C080000 		.4byte	.LVL358
 9588 37cd 9F470000 		.4byte	0x479f
 9589 37d1 DC370000 		.4byte	0x37dc
 9590 37d5 24       		.uleb128 0x24
 9591 37d6 01       		.uleb128 0x1
 9592 37d7 50       		.byte	0x50
 9593 37d8 02       		.uleb128 0x2
 9594 37d9 08       		.byte	0x8
 9595 37da 9F       		.byte	0x9f
 9596 37db 00       		.byte	0
 9597 37dc 23       		.uleb128 0x23
 9598 37dd 62080000 		.4byte	.LVL359
 9599 37e1 9F470000 		.4byte	0x479f
 9600 37e5 EF370000 		.4byte	0x37ef
 9601 37e9 24       		.uleb128 0x24
 9602 37ea 01       		.uleb128 0x1
 9603 37eb 50       		.byte	0x50
 9604 37ec 01       		.uleb128 0x1
 9605 37ed 4A       		.byte	0x4a
 9606 37ee 00       		.byte	0
 9607 37ef 23       		.uleb128 0x23
 9608 37f0 68080000 		.4byte	.LVL360
 9609 37f4 9F470000 		.4byte	0x479f
 9610 37f8 02380000 		.4byte	0x3802
 9611 37fc 24       		.uleb128 0x24
 9612 37fd 01       		.uleb128 0x1
 9613 37fe 50       		.byte	0x50
 9614 37ff 01       		.uleb128 0x1
 9615 3800 32       		.byte	0x32
 9616 3801 00       		.byte	0
 9617 3802 23       		.uleb128 0x23
 9618 3803 6E080000 		.4byte	.LVL361
 9619 3807 9F470000 		.4byte	0x479f
 9620 380b 15380000 		.4byte	0x3815
 9621 380f 24       		.uleb128 0x24
 9622 3810 01       		.uleb128 0x1
 9623 3811 50       		.byte	0x50
 9624 3812 01       		.uleb128 0x1
 9625 3813 38       		.byte	0x38
 9626 3814 00       		.byte	0
 9627 3815 23       		.uleb128 0x23
 9628 3816 74080000 		.4byte	.LVL362
ARM GAS  C:\Users\AHMED~1.ELE\AppData\Local\Temp\ccWApJgZ.s 			page 184


 9629 381a 9F470000 		.4byte	0x479f
 9630 381e 28380000 		.4byte	0x3828
 9631 3822 24       		.uleb128 0x24
 9632 3823 01       		.uleb128 0x1
 9633 3824 50       		.byte	0x50
 9634 3825 01       		.uleb128 0x1
 9635 3826 48       		.byte	0x48
 9636 3827 00       		.byte	0
 9637 3828 23       		.uleb128 0x23
 9638 3829 7A080000 		.4byte	.LVL363
 9639 382d 9F470000 		.4byte	0x479f
 9640 3831 3C380000 		.4byte	0x383c
 9641 3835 24       		.uleb128 0x24
 9642 3836 01       		.uleb128 0x1
 9643 3837 50       		.byte	0x50
 9644 3838 02       		.uleb128 0x2
 9645 3839 08       		.byte	0x8
 9646 383a 9F       		.byte	0x9f
 9647 383b 00       		.byte	0
 9648 383c 23       		.uleb128 0x23
 9649 383d 80080000 		.4byte	.LVL364
 9650 3841 9F470000 		.4byte	0x479f
 9651 3845 4F380000 		.4byte	0x384f
 9652 3849 24       		.uleb128 0x24
 9653 384a 01       		.uleb128 0x1
 9654 384b 50       		.byte	0x50
 9655 384c 01       		.uleb128 0x1
 9656 384d 4E       		.byte	0x4e
 9657 384e 00       		.byte	0
 9658 384f 23       		.uleb128 0x23
 9659 3850 86080000 		.4byte	.LVL365
 9660 3854 9F470000 		.4byte	0x479f
 9661 3858 62380000 		.4byte	0x3862
 9662 385c 24       		.uleb128 0x24
 9663 385d 01       		.uleb128 0x1
 9664 385e 50       		.byte	0x50
 9665 385f 01       		.uleb128 0x1
 9666 3860 38       		.byte	0x38
 9667 3861 00       		.byte	0
 9668 3862 23       		.uleb128 0x23
 9669 3863 8C080000 		.4byte	.LVL366
 9670 3867 9F470000 		.4byte	0x479f
 9671 386b 76380000 		.4byte	0x3876
 9672 386f 24       		.uleb128 0x24
 9673 3870 01       		.uleb128 0x1
 9674 3871 50       		.byte	0x50
 9675 3872 02       		.uleb128 0x2
 9676 3873 08       		.byte	0x8
 9677 3874 30       		.byte	0x30
 9678 3875 00       		.byte	0
 9679 3876 23       		.uleb128 0x23
 9680 3877 92080000 		.4byte	.LVL367
 9681 387b 9F470000 		.4byte	0x479f
 9682 387f 8A380000 		.4byte	0x388a
 9683 3883 24       		.uleb128 0x24
 9684 3884 01       		.uleb128 0x1
 9685 3885 50       		.byte	0x50
ARM GAS  C:\Users\AHMED~1.ELE\AppData\Local\Temp\ccWApJgZ.s 			page 185


 9686 3886 02       		.uleb128 0x2
 9687 3887 08       		.byte	0x8
 9688 3888 30       		.byte	0x30
 9689 3889 00       		.byte	0
 9690 388a 23       		.uleb128 0x23
 9691 388b 98080000 		.4byte	.LVL368
 9692 388f 9F470000 		.4byte	0x479f
 9693 3893 9E380000 		.4byte	0x389e
 9694 3897 24       		.uleb128 0x24
 9695 3898 01       		.uleb128 0x1
 9696 3899 50       		.byte	0x50
 9697 389a 02       		.uleb128 0x2
 9698 389b 08       		.byte	0x8
 9699 389c 30       		.byte	0x30
 9700 389d 00       		.byte	0
 9701 389e 23       		.uleb128 0x23
 9702 389f 9E080000 		.4byte	.LVL369
 9703 38a3 9F470000 		.4byte	0x479f
 9704 38a7 B2380000 		.4byte	0x38b2
 9705 38ab 24       		.uleb128 0x24
 9706 38ac 01       		.uleb128 0x1
 9707 38ad 50       		.byte	0x50
 9708 38ae 02       		.uleb128 0x2
 9709 38af 08       		.byte	0x8
 9710 38b0 30       		.byte	0x30
 9711 38b1 00       		.byte	0
 9712 38b2 23       		.uleb128 0x23
 9713 38b3 A4080000 		.4byte	.LVL370
 9714 38b7 9F470000 		.4byte	0x479f
 9715 38bb C6380000 		.4byte	0x38c6
 9716 38bf 24       		.uleb128 0x24
 9717 38c0 01       		.uleb128 0x1
 9718 38c1 50       		.byte	0x50
 9719 38c2 02       		.uleb128 0x2
 9720 38c3 08       		.byte	0x8
 9721 38c4 30       		.byte	0x30
 9722 38c5 00       		.byte	0
 9723 38c6 23       		.uleb128 0x23
 9724 38c7 AA080000 		.4byte	.LVL371
 9725 38cb 9F470000 		.4byte	0x479f
 9726 38cf DA380000 		.4byte	0x38da
 9727 38d3 24       		.uleb128 0x24
 9728 38d4 01       		.uleb128 0x1
 9729 38d5 50       		.byte	0x50
 9730 38d6 02       		.uleb128 0x2
 9731 38d7 08       		.byte	0x8
 9732 38d8 30       		.byte	0x30
 9733 38d9 00       		.byte	0
 9734 38da 23       		.uleb128 0x23
 9735 38db B0080000 		.4byte	.LVL372
 9736 38df 9F470000 		.4byte	0x479f
 9737 38e3 EE380000 		.4byte	0x38ee
 9738 38e7 24       		.uleb128 0x24
 9739 38e8 01       		.uleb128 0x1
 9740 38e9 50       		.byte	0x50
 9741 38ea 02       		.uleb128 0x2
 9742 38eb 08       		.byte	0x8
ARM GAS  C:\Users\AHMED~1.ELE\AppData\Local\Temp\ccWApJgZ.s 			page 186


 9743 38ec 30       		.byte	0x30
 9744 38ed 00       		.byte	0
 9745 38ee 23       		.uleb128 0x23
 9746 38ef B6080000 		.4byte	.LVL373
 9747 38f3 9F470000 		.4byte	0x479f
 9748 38f7 02390000 		.4byte	0x3902
 9749 38fb 24       		.uleb128 0x24
 9750 38fc 01       		.uleb128 0x1
 9751 38fd 50       		.byte	0x50
 9752 38fe 02       		.uleb128 0x2
 9753 38ff 08       		.byte	0x8
 9754 3900 30       		.byte	0x30
 9755 3901 00       		.byte	0
 9756 3902 23       		.uleb128 0x23
 9757 3903 BC080000 		.4byte	.LVL374
 9758 3907 9F470000 		.4byte	0x479f
 9759 390b 16390000 		.4byte	0x3916
 9760 390f 24       		.uleb128 0x24
 9761 3910 01       		.uleb128 0x1
 9762 3911 50       		.byte	0x50
 9763 3912 02       		.uleb128 0x2
 9764 3913 08       		.byte	0x8
 9765 3914 9F       		.byte	0x9f
 9766 3915 00       		.byte	0
 9767 3916 23       		.uleb128 0x23
 9768 3917 C2080000 		.4byte	.LVL375
 9769 391b 9F470000 		.4byte	0x479f
 9770 391f 2A390000 		.4byte	0x392a
 9771 3923 24       		.uleb128 0x24
 9772 3924 01       		.uleb128 0x1
 9773 3925 50       		.byte	0x50
 9774 3926 02       		.uleb128 0x2
 9775 3927 08       		.byte	0x8
 9776 3928 26       		.byte	0x26
 9777 3929 00       		.byte	0
 9778 392a 23       		.uleb128 0x23
 9779 392b C8080000 		.4byte	.LVL376
 9780 392f 9F470000 		.4byte	0x479f
 9781 3933 3D390000 		.4byte	0x393d
 9782 3937 24       		.uleb128 0x24
 9783 3938 01       		.uleb128 0x1
 9784 3939 50       		.byte	0x50
 9785 393a 01       		.uleb128 0x1
 9786 393b 38       		.byte	0x38
 9787 393c 00       		.byte	0
 9788 393d 23       		.uleb128 0x23
 9789 393e CE080000 		.4byte	.LVL377
 9790 3942 9F470000 		.4byte	0x479f
 9791 3946 51390000 		.4byte	0x3951
 9792 394a 24       		.uleb128 0x24
 9793 394b 01       		.uleb128 0x1
 9794 394c 50       		.byte	0x50
 9795 394d 02       		.uleb128 0x2
 9796 394e 08       		.byte	0x8
 9797 394f 9B       		.byte	0x9b
 9798 3950 00       		.byte	0
 9799 3951 23       		.uleb128 0x23
ARM GAS  C:\Users\AHMED~1.ELE\AppData\Local\Temp\ccWApJgZ.s 			page 187


 9800 3952 D4080000 		.4byte	.LVL378
 9801 3956 9F470000 		.4byte	0x479f
 9802 395a 64390000 		.4byte	0x3964
 9803 395e 24       		.uleb128 0x24
 9804 395f 01       		.uleb128 0x1
 9805 3960 50       		.byte	0x50
 9806 3961 01       		.uleb128 0x1
 9807 3962 47       		.byte	0x47
 9808 3963 00       		.byte	0
 9809 3964 23       		.uleb128 0x23
 9810 3965 DA080000 		.4byte	.LVL379
 9811 3969 9F470000 		.4byte	0x479f
 9812 396d 78390000 		.4byte	0x3978
 9813 3971 24       		.uleb128 0x24
 9814 3972 01       		.uleb128 0x1
 9815 3973 50       		.byte	0x50
 9816 3974 02       		.uleb128 0x2
 9817 3975 08       		.byte	0x8
 9818 3976 71       		.byte	0x71
 9819 3977 00       		.byte	0
 9820 3978 23       		.uleb128 0x23
 9821 3979 E0080000 		.4byte	.LVL380
 9822 397d 9F470000 		.4byte	0x479f
 9823 3981 8C390000 		.4byte	0x398c
 9824 3985 24       		.uleb128 0x24
 9825 3986 01       		.uleb128 0x1
 9826 3987 50       		.byte	0x50
 9827 3988 02       		.uleb128 0x2
 9828 3989 08       		.byte	0x8
 9829 398a FB       		.byte	0xfb
 9830 398b 00       		.byte	0
 9831 398c 23       		.uleb128 0x23
 9832 398d E6080000 		.4byte	.LVL381
 9833 3991 9F470000 		.4byte	0x479f
 9834 3995 A0390000 		.4byte	0x39a0
 9835 3999 24       		.uleb128 0x24
 9836 399a 01       		.uleb128 0x1
 9837 399b 50       		.byte	0x50
 9838 399c 02       		.uleb128 0x2
 9839 399d 08       		.byte	0x8
 9840 399e 41       		.byte	0x41
 9841 399f 00       		.byte	0
 9842 39a0 23       		.uleb128 0x23
 9843 39a1 EC080000 		.4byte	.LVL382
 9844 39a5 9F470000 		.4byte	0x479f
 9845 39a9 B4390000 		.4byte	0x39b4
 9846 39ad 24       		.uleb128 0x24
 9847 39ae 01       		.uleb128 0x1
 9848 39af 50       		.byte	0x50
 9849 39b0 02       		.uleb128 0x2
 9850 39b1 08       		.byte	0x8
 9851 39b2 D5       		.byte	0xd5
 9852 39b3 00       		.byte	0
 9853 39b4 23       		.uleb128 0x23
 9854 39b5 F2080000 		.4byte	.LVL383
 9855 39b9 9F470000 		.4byte	0x479f
 9856 39bd C8390000 		.4byte	0x39c8
ARM GAS  C:\Users\AHMED~1.ELE\AppData\Local\Temp\ccWApJgZ.s 			page 188


 9857 39c1 24       		.uleb128 0x24
 9858 39c2 01       		.uleb128 0x1
 9859 39c3 50       		.byte	0x50
 9860 39c4 02       		.uleb128 0x2
 9861 39c5 08       		.byte	0x8
 9862 39c6 D7       		.byte	0xd7
 9863 39c7 00       		.byte	0
 9864 39c8 23       		.uleb128 0x23
 9865 39c9 F8080000 		.4byte	.LVL384
 9866 39cd 9F470000 		.4byte	0x479f
 9867 39d1 DC390000 		.4byte	0x39dc
 9868 39d5 24       		.uleb128 0x24
 9869 39d6 01       		.uleb128 0x1
 9870 39d7 50       		.byte	0x50
 9871 39d8 02       		.uleb128 0x2
 9872 39d9 08       		.byte	0x8
 9873 39da A5       		.byte	0xa5
 9874 39db 00       		.byte	0
 9875 39dc 23       		.uleb128 0x23
 9876 39dd FE080000 		.4byte	.LVL385
 9877 39e1 9F470000 		.4byte	0x479f
 9878 39e5 F0390000 		.4byte	0x39f0
 9879 39e9 24       		.uleb128 0x24
 9880 39ea 01       		.uleb128 0x1
 9881 39eb 50       		.byte	0x50
 9882 39ec 02       		.uleb128 0x2
 9883 39ed 08       		.byte	0x8
 9884 39ee 9F       		.byte	0x9f
 9885 39ef 00       		.byte	0
 9886 39f0 23       		.uleb128 0x23
 9887 39f1 04090000 		.4byte	.LVL386
 9888 39f5 9F470000 		.4byte	0x479f
 9889 39f9 043A0000 		.4byte	0x3a04
 9890 39fd 24       		.uleb128 0x24
 9891 39fe 01       		.uleb128 0x1
 9892 39ff 50       		.byte	0x50
 9893 3a00 02       		.uleb128 0x2
 9894 3a01 08       		.byte	0x8
 9895 3a02 27       		.byte	0x27
 9896 3a03 00       		.byte	0
 9897 3a04 23       		.uleb128 0x23
 9898 3a05 0A090000 		.4byte	.LVL387
 9899 3a09 9F470000 		.4byte	0x479f
 9900 3a0d 173A0000 		.4byte	0x3a17
 9901 3a11 24       		.uleb128 0x24
 9902 3a12 01       		.uleb128 0x1
 9903 3a13 50       		.byte	0x50
 9904 3a14 01       		.uleb128 0x1
 9905 3a15 31       		.byte	0x31
 9906 3a16 00       		.byte	0
 9907 3a17 23       		.uleb128 0x23
 9908 3a18 10090000 		.4byte	.LVL388
 9909 3a1c 9F470000 		.4byte	0x479f
 9910 3a20 2B3A0000 		.4byte	0x3a2b
 9911 3a24 24       		.uleb128 0x24
 9912 3a25 01       		.uleb128 0x1
 9913 3a26 50       		.byte	0x50
ARM GAS  C:\Users\AHMED~1.ELE\AppData\Local\Temp\ccWApJgZ.s 			page 189


 9914 3a27 02       		.uleb128 0x2
 9915 3a28 08       		.byte	0x8
 9916 3a29 80       		.byte	0x80
 9917 3a2a 00       		.byte	0
 9918 3a2b 23       		.uleb128 0x23
 9919 3a2c 16090000 		.4byte	.LVL389
 9920 3a30 9F470000 		.4byte	0x479f
 9921 3a34 3F3A0000 		.4byte	0x3a3f
 9922 3a38 24       		.uleb128 0x24
 9923 3a39 01       		.uleb128 0x1
 9924 3a3a 50       		.byte	0x50
 9925 3a3b 02       		.uleb128 0x2
 9926 3a3c 08       		.byte	0x8
 9927 3a3d 9F       		.byte	0x9f
 9928 3a3e 00       		.byte	0
 9929 3a3f 23       		.uleb128 0x23
 9930 3a40 1C090000 		.4byte	.LVL390
 9931 3a44 9F470000 		.4byte	0x479f
 9932 3a48 533A0000 		.4byte	0x3a53
 9933 3a4c 24       		.uleb128 0x24
 9934 3a4d 01       		.uleb128 0x1
 9935 3a4e 50       		.byte	0x50
 9936 3a4f 02       		.uleb128 0x2
 9937 3a50 08       		.byte	0x8
 9938 3a51 33       		.byte	0x33
 9939 3a52 00       		.byte	0
 9940 3a53 23       		.uleb128 0x23
 9941 3a54 22090000 		.4byte	.LVL391
 9942 3a58 9F470000 		.4byte	0x479f
 9943 3a5c 663A0000 		.4byte	0x3a66
 9944 3a60 24       		.uleb128 0x24
 9945 3a61 01       		.uleb128 0x1
 9946 3a62 50       		.byte	0x50
 9947 3a63 01       		.uleb128 0x1
 9948 3a64 33       		.byte	0x33
 9949 3a65 00       		.byte	0
 9950 3a66 23       		.uleb128 0x23
 9951 3a67 28090000 		.4byte	.LVL392
 9952 3a6b 9F470000 		.4byte	0x479f
 9953 3a6f 7A3A0000 		.4byte	0x3a7a
 9954 3a73 24       		.uleb128 0x24
 9955 3a74 01       		.uleb128 0x1
 9956 3a75 50       		.byte	0x50
 9957 3a76 02       		.uleb128 0x2
 9958 3a77 08       		.byte	0x8
 9959 3a78 E0       		.byte	0xe0
 9960 3a79 00       		.byte	0
 9961 3a7a 23       		.uleb128 0x23
 9962 3a7b 2E090000 		.4byte	.LVL393
 9963 3a7f 9F470000 		.4byte	0x479f
 9964 3a83 8E3A0000 		.4byte	0x3a8e
 9965 3a87 24       		.uleb128 0x24
 9966 3a88 01       		.uleb128 0x1
 9967 3a89 50       		.byte	0x50
 9968 3a8a 02       		.uleb128 0x2
 9969 3a8b 08       		.byte	0x8
 9970 3a8c F8       		.byte	0xf8
ARM GAS  C:\Users\AHMED~1.ELE\AppData\Local\Temp\ccWApJgZ.s 			page 190


 9971 3a8d 00       		.byte	0
 9972 3a8e 23       		.uleb128 0x23
 9973 3a8f 34090000 		.4byte	.LVL394
 9974 3a93 9F470000 		.4byte	0x479f
 9975 3a97 A23A0000 		.4byte	0x3aa2
 9976 3a9b 24       		.uleb128 0x24
 9977 3a9c 01       		.uleb128 0x1
 9978 3a9d 50       		.byte	0x50
 9979 3a9e 02       		.uleb128 0x2
 9980 3a9f 08       		.byte	0x8
 9981 3aa0 C8       		.byte	0xc8
 9982 3aa1 00       		.byte	0
 9983 3aa2 23       		.uleb128 0x23
 9984 3aa3 3A090000 		.4byte	.LVL395
 9985 3aa7 9F470000 		.4byte	0x479f
 9986 3aab B63A0000 		.4byte	0x3ab6
 9987 3aaf 24       		.uleb128 0x24
 9988 3ab0 01       		.uleb128 0x1
 9989 3ab1 50       		.byte	0x50
 9990 3ab2 02       		.uleb128 0x2
 9991 3ab3 08       		.byte	0x8
 9992 3ab4 9F       		.byte	0x9f
 9993 3ab5 00       		.byte	0
 9994 3ab6 23       		.uleb128 0x23
 9995 3ab7 40090000 		.4byte	.LVL396
 9996 3abb 9F470000 		.4byte	0x479f
 9997 3abf CA3A0000 		.4byte	0x3aca
 9998 3ac3 24       		.uleb128 0x24
 9999 3ac4 01       		.uleb128 0x1
 10000 3ac5 50       		.byte	0x50
 10001 3ac6 02       		.uleb128 0x2
 10002 3ac7 08       		.byte	0x8
 10003 3ac8 34       		.byte	0x34
 10004 3ac9 00       		.byte	0
 10005 3aca 23       		.uleb128 0x23
 10006 3acb 46090000 		.4byte	.LVL397
 10007 3acf 9F470000 		.4byte	0x479f
 10008 3ad3 DD3A0000 		.4byte	0x3add
 10009 3ad7 24       		.uleb128 0x24
 10010 3ad8 01       		.uleb128 0x1
 10011 3ad9 50       		.byte	0x50
 10012 3ada 01       		.uleb128 0x1
 10013 3adb 33       		.byte	0x33
 10014 3adc 00       		.byte	0
 10015 3add 23       		.uleb128 0x23
 10016 3ade 4C090000 		.4byte	.LVL398
 10017 3ae2 9F470000 		.4byte	0x479f
 10018 3ae6 F13A0000 		.4byte	0x3af1
 10019 3aea 24       		.uleb128 0x24
 10020 3aeb 01       		.uleb128 0x1
 10021 3aec 50       		.byte	0x50
 10022 3aed 02       		.uleb128 0x2
 10023 3aee 08       		.byte	0x8
 10024 3aef 42       		.byte	0x42
 10025 3af0 00       		.byte	0
 10026 3af1 23       		.uleb128 0x23
 10027 3af2 52090000 		.4byte	.LVL399
ARM GAS  C:\Users\AHMED~1.ELE\AppData\Local\Temp\ccWApJgZ.s 			page 191


 10028 3af6 9F470000 		.4byte	0x479f
 10029 3afa 043B0000 		.4byte	0x3b04
 10030 3afe 24       		.uleb128 0x24
 10031 3aff 01       		.uleb128 0x1
 10032 3b00 50       		.byte	0x50
 10033 3b01 01       		.uleb128 0x1
 10034 3b02 33       		.byte	0x33
 10035 3b03 00       		.byte	0
 10036 3b04 23       		.uleb128 0x23
 10037 3b05 58090000 		.4byte	.LVL400
 10038 3b09 9F470000 		.4byte	0x479f
 10039 3b0d 173B0000 		.4byte	0x3b17
 10040 3b11 24       		.uleb128 0x24
 10041 3b12 01       		.uleb128 0x1
 10042 3b13 50       		.byte	0x50
 10043 3b14 01       		.uleb128 0x1
 10044 3b15 30       		.byte	0x30
 10045 3b16 00       		.byte	0
 10046 3b17 23       		.uleb128 0x23
 10047 3b18 5E090000 		.4byte	.LVL401
 10048 3b1c 9F470000 		.4byte	0x479f
 10049 3b20 2B3B0000 		.4byte	0x3b2b
 10050 3b24 24       		.uleb128 0x24
 10051 3b25 01       		.uleb128 0x1
 10052 3b26 50       		.byte	0x50
 10053 3b27 02       		.uleb128 0x2
 10054 3b28 08       		.byte	0x8
 10055 3b29 9F       		.byte	0x9f
 10056 3b2a 00       		.byte	0
 10057 3b2b 23       		.uleb128 0x23
 10058 3b2c 64090000 		.4byte	.LVL402
 10059 3b30 9F470000 		.4byte	0x479f
 10060 3b34 3F3B0000 		.4byte	0x3b3f
 10061 3b38 24       		.uleb128 0x24
 10062 3b39 01       		.uleb128 0x1
 10063 3b3a 50       		.byte	0x50
 10064 3b3b 02       		.uleb128 0x2
 10065 3b3c 08       		.byte	0x8
 10066 3b3d 35       		.byte	0x35
 10067 3b3e 00       		.byte	0
 10068 3b3f 23       		.uleb128 0x23
 10069 3b40 6A090000 		.4byte	.LVL403
 10070 3b44 9F470000 		.4byte	0x479f
 10071 3b48 523B0000 		.4byte	0x3b52
 10072 3b4c 24       		.uleb128 0x24
 10073 3b4d 01       		.uleb128 0x1
 10074 3b4e 50       		.byte	0x50
 10075 3b4f 01       		.uleb128 0x1
 10076 3b50 31       		.byte	0x31
 10077 3b51 00       		.byte	0
 10078 3b52 23       		.uleb128 0x23
 10079 3b53 70090000 		.4byte	.LVL404
 10080 3b57 9F470000 		.4byte	0x479f
 10081 3b5b 663B0000 		.4byte	0x3b66
 10082 3b5f 24       		.uleb128 0x24
 10083 3b60 01       		.uleb128 0x1
 10084 3b61 50       		.byte	0x50
ARM GAS  C:\Users\AHMED~1.ELE\AppData\Local\Temp\ccWApJgZ.s 			page 192


 10085 3b62 02       		.uleb128 0x2
 10086 3b63 08       		.byte	0x8
 10087 3b64 22       		.byte	0x22
 10088 3b65 00       		.byte	0
 10089 3b66 23       		.uleb128 0x23
 10090 3b67 76090000 		.4byte	.LVL405
 10091 3b6b 9F470000 		.4byte	0x479f
 10092 3b6f 7A3B0000 		.4byte	0x3b7a
 10093 3b73 24       		.uleb128 0x24
 10094 3b74 01       		.uleb128 0x1
 10095 3b75 50       		.byte	0x50
 10096 3b76 02       		.uleb128 0x2
 10097 3b77 08       		.byte	0x8
 10098 3b78 9F       		.byte	0x9f
 10099 3b79 00       		.byte	0
 10100 3b7a 23       		.uleb128 0x23
 10101 3b7b 7C090000 		.4byte	.LVL406
 10102 3b7f 9F470000 		.4byte	0x479f
 10103 3b83 8E3B0000 		.4byte	0x3b8e
 10104 3b87 24       		.uleb128 0x24
 10105 3b88 01       		.uleb128 0x1
 10106 3b89 50       		.byte	0x50
 10107 3b8a 02       		.uleb128 0x2
 10108 3b8b 08       		.byte	0x8
 10109 3b8c 36       		.byte	0x36
 10110 3b8d 00       		.byte	0
 10111 3b8e 23       		.uleb128 0x23
 10112 3b8f 82090000 		.4byte	.LVL407
 10113 3b93 9F470000 		.4byte	0x479f
 10114 3b97 A13B0000 		.4byte	0x3ba1
 10115 3b9b 24       		.uleb128 0x24
 10116 3b9c 01       		.uleb128 0x1
 10117 3b9d 50       		.byte	0x50
 10118 3b9e 01       		.uleb128 0x1
 10119 3b9f 32       		.byte	0x32
 10120 3ba0 00       		.byte	0
 10121 3ba1 23       		.uleb128 0x23
 10122 3ba2 88090000 		.4byte	.LVL408
 10123 3ba6 9F470000 		.4byte	0x479f
 10124 3baa B43B0000 		.4byte	0x3bb4
 10125 3bae 24       		.uleb128 0x24
 10126 3baf 01       		.uleb128 0x1
 10127 3bb0 50       		.byte	0x50
 10128 3bb1 01       		.uleb128 0x1
 10129 3bb2 30       		.byte	0x30
 10130 3bb3 00       		.byte	0
 10131 3bb4 23       		.uleb128 0x23
 10132 3bb5 8E090000 		.4byte	.LVL409
 10133 3bb9 9F470000 		.4byte	0x479f
 10134 3bbd C83B0000 		.4byte	0x3bc8
 10135 3bc1 24       		.uleb128 0x24
 10136 3bc2 01       		.uleb128 0x1
 10137 3bc3 50       		.byte	0x50
 10138 3bc4 02       		.uleb128 0x2
 10139 3bc5 08       		.byte	0x8
 10140 3bc6 45       		.byte	0x45
 10141 3bc7 00       		.byte	0
ARM GAS  C:\Users\AHMED~1.ELE\AppData\Local\Temp\ccWApJgZ.s 			page 193


 10142 3bc8 23       		.uleb128 0x23
 10143 3bc9 94090000 		.4byte	.LVL410
 10144 3bcd 9F470000 		.4byte	0x479f
 10145 3bd1 DC3B0000 		.4byte	0x3bdc
 10146 3bd5 24       		.uleb128 0x24
 10147 3bd6 01       		.uleb128 0x1
 10148 3bd7 50       		.byte	0x50
 10149 3bd8 02       		.uleb128 0x2
 10150 3bd9 08       		.byte	0x8
 10151 3bda 9F       		.byte	0x9f
 10152 3bdb 00       		.byte	0
 10153 3bdc 23       		.uleb128 0x23
 10154 3bdd 9A090000 		.4byte	.LVL411
 10155 3be1 9F470000 		.4byte	0x479f
 10156 3be5 F03B0000 		.4byte	0x3bf0
 10157 3be9 24       		.uleb128 0x24
 10158 3bea 01       		.uleb128 0x1
 10159 3beb 50       		.byte	0x50
 10160 3bec 02       		.uleb128 0x2
 10161 3bed 08       		.byte	0x8
 10162 3bee 37       		.byte	0x37
 10163 3bef 00       		.byte	0
 10164 3bf0 23       		.uleb128 0x23
 10165 3bf1 A0090000 		.4byte	.LVL412
 10166 3bf5 9F470000 		.4byte	0x479f
 10167 3bf9 033C0000 		.4byte	0x3c03
 10168 3bfd 24       		.uleb128 0x24
 10169 3bfe 01       		.uleb128 0x1
 10170 3bff 50       		.byte	0x50
 10171 3c00 01       		.uleb128 0x1
 10172 3c01 34       		.byte	0x34
 10173 3c02 00       		.byte	0
 10174 3c03 23       		.uleb128 0x23
 10175 3c04 A6090000 		.4byte	.LVL413
 10176 3c08 9F470000 		.4byte	0x479f
 10177 3c0c 173C0000 		.4byte	0x3c17
 10178 3c10 24       		.uleb128 0x24
 10179 3c11 01       		.uleb128 0x1
 10180 3c12 50       		.byte	0x50
 10181 3c13 02       		.uleb128 0x2
 10182 3c14 08       		.byte	0x8
 10183 3c15 9A       		.byte	0x9a
 10184 3c16 00       		.byte	0
 10185 3c17 23       		.uleb128 0x23
 10186 3c18 AC090000 		.4byte	.LVL414
 10187 3c1c 9F470000 		.4byte	0x479f
 10188 3c20 2B3C0000 		.4byte	0x3c2b
 10189 3c24 24       		.uleb128 0x24
 10190 3c25 01       		.uleb128 0x1
 10191 3c26 50       		.byte	0x50
 10192 3c27 02       		.uleb128 0x2
 10193 3c28 08       		.byte	0x8
 10194 3c29 66       		.byte	0x66
 10195 3c2a 00       		.byte	0
 10196 3c2b 23       		.uleb128 0x23
 10197 3c2c B2090000 		.4byte	.LVL415
 10198 3c30 9F470000 		.4byte	0x479f
ARM GAS  C:\Users\AHMED~1.ELE\AppData\Local\Temp\ccWApJgZ.s 			page 194


 10199 3c34 3E3C0000 		.4byte	0x3c3e
 10200 3c38 24       		.uleb128 0x24
 10201 3c39 01       		.uleb128 0x1
 10202 3c3a 50       		.byte	0x50
 10203 3c3b 01       		.uleb128 0x1
 10204 3c3c 4B       		.byte	0x4b
 10205 3c3d 00       		.byte	0
 10206 3c3e 23       		.uleb128 0x23
 10207 3c3f B8090000 		.4byte	.LVL416
 10208 3c43 9F470000 		.4byte	0x479f
 10209 3c47 523C0000 		.4byte	0x3c52
 10210 3c4b 24       		.uleb128 0x24
 10211 3c4c 01       		.uleb128 0x1
 10212 3c4d 50       		.byte	0x50
 10213 3c4e 02       		.uleb128 0x2
 10214 3c4f 08       		.byte	0x8
 10215 3c50 9D       		.byte	0x9d
 10216 3c51 00       		.byte	0
 10217 3c52 23       		.uleb128 0x23
 10218 3c53 BE090000 		.4byte	.LVL417
 10219 3c57 9F470000 		.4byte	0x479f
 10220 3c5b 663C0000 		.4byte	0x3c66
 10221 3c5f 24       		.uleb128 0x24
 10222 3c60 01       		.uleb128 0x1
 10223 3c61 50       		.byte	0x50
 10224 3c62 02       		.uleb128 0x2
 10225 3c63 08       		.byte	0x8
 10226 3c64 9F       		.byte	0x9f
 10227 3c65 00       		.byte	0
 10228 3c66 23       		.uleb128 0x23
 10229 3c67 C4090000 		.4byte	.LVL418
 10230 3c6b 9F470000 		.4byte	0x479f
 10231 3c6f 7A3C0000 		.4byte	0x3c7a
 10232 3c73 24       		.uleb128 0x24
 10233 3c74 01       		.uleb128 0x1
 10234 3c75 50       		.byte	0x50
 10235 3c76 02       		.uleb128 0x2
 10236 3c77 08       		.byte	0x8
 10237 3c78 41       		.byte	0x41
 10238 3c79 00       		.byte	0
 10239 3c7a 23       		.uleb128 0x23
 10240 3c7b CA090000 		.4byte	.LVL419
 10241 3c7f 9F470000 		.4byte	0x479f
 10242 3c83 8D3C0000 		.4byte	0x3c8d
 10243 3c87 24       		.uleb128 0x24
 10244 3c88 01       		.uleb128 0x1
 10245 3c89 50       		.byte	0x50
 10246 3c8a 01       		.uleb128 0x1
 10247 3c8b 34       		.byte	0x34
 10248 3c8c 00       		.byte	0
 10249 3c8d 23       		.uleb128 0x23
 10250 3c8e D0090000 		.4byte	.LVL420
 10251 3c92 9F470000 		.4byte	0x479f
 10252 3c96 A03C0000 		.4byte	0x3ca0
 10253 3c9a 24       		.uleb128 0x24
 10254 3c9b 01       		.uleb128 0x1
 10255 3c9c 50       		.byte	0x50
ARM GAS  C:\Users\AHMED~1.ELE\AppData\Local\Temp\ccWApJgZ.s 			page 195


 10256 3c9d 01       		.uleb128 0x1
 10257 3c9e 30       		.byte	0x30
 10258 3c9f 00       		.byte	0
 10259 3ca0 23       		.uleb128 0x23
 10260 3ca1 D6090000 		.4byte	.LVL421
 10261 3ca5 9F470000 		.4byte	0x479f
 10262 3ca9 B33C0000 		.4byte	0x3cb3
 10263 3cad 24       		.uleb128 0x24
 10264 3cae 01       		.uleb128 0x1
 10265 3caf 50       		.byte	0x50
 10266 3cb0 01       		.uleb128 0x1
 10267 3cb1 30       		.byte	0x30
 10268 3cb2 00       		.byte	0
 10269 3cb3 23       		.uleb128 0x23
 10270 3cb4 DC090000 		.4byte	.LVL422
 10271 3cb8 9F470000 		.4byte	0x479f
 10272 3cbc C63C0000 		.4byte	0x3cc6
 10273 3cc0 24       		.uleb128 0x24
 10274 3cc1 01       		.uleb128 0x1
 10275 3cc2 50       		.byte	0x50
 10276 3cc3 01       		.uleb128 0x1
 10277 3cc4 30       		.byte	0x30
 10278 3cc5 00       		.byte	0
 10279 3cc6 23       		.uleb128 0x23
 10280 3cc7 E2090000 		.4byte	.LVL423
 10281 3ccb 9F470000 		.4byte	0x479f
 10282 3ccf D93C0000 		.4byte	0x3cd9
 10283 3cd3 24       		.uleb128 0x24
 10284 3cd4 01       		.uleb128 0x1
 10285 3cd5 50       		.byte	0x50
 10286 3cd6 01       		.uleb128 0x1
 10287 3cd7 31       		.byte	0x31
 10288 3cd8 00       		.byte	0
 10289 3cd9 23       		.uleb128 0x23
 10290 3cda E8090000 		.4byte	.LVL424
 10291 3cde 9F470000 		.4byte	0x479f
 10292 3ce2 ED3C0000 		.4byte	0x3ced
 10293 3ce6 24       		.uleb128 0x24
 10294 3ce7 01       		.uleb128 0x1
 10295 3ce8 50       		.byte	0x50
 10296 3ce9 02       		.uleb128 0x2
 10297 3cea 08       		.byte	0x8
 10298 3ceb 9F       		.byte	0x9f
 10299 3cec 00       		.byte	0
 10300 3ced 23       		.uleb128 0x23
 10301 3cee EE090000 		.4byte	.LVL425
 10302 3cf2 9F470000 		.4byte	0x479f
 10303 3cf6 013D0000 		.4byte	0x3d01
 10304 3cfa 24       		.uleb128 0x24
 10305 3cfb 01       		.uleb128 0x1
 10306 3cfc 50       		.byte	0x50
 10307 3cfd 02       		.uleb128 0x2
 10308 3cfe 08       		.byte	0x8
 10309 3cff 53       		.byte	0x53
 10310 3d00 00       		.byte	0
 10311 3d01 23       		.uleb128 0x23
 10312 3d02 F4090000 		.4byte	.LVL426
ARM GAS  C:\Users\AHMED~1.ELE\AppData\Local\Temp\ccWApJgZ.s 			page 196


 10313 3d06 9F470000 		.4byte	0x479f
 10314 3d0a 143D0000 		.4byte	0x3d14
 10315 3d0e 24       		.uleb128 0x24
 10316 3d0f 01       		.uleb128 0x1
 10317 3d10 50       		.byte	0x50
 10318 3d11 01       		.uleb128 0x1
 10319 3d12 31       		.byte	0x31
 10320 3d13 00       		.byte	0
 10321 3d14 23       		.uleb128 0x23
 10322 3d15 FA090000 		.4byte	.LVL427
 10323 3d19 9F470000 		.4byte	0x479f
 10324 3d1d 283D0000 		.4byte	0x3d28
 10325 3d21 24       		.uleb128 0x24
 10326 3d22 01       		.uleb128 0x1
 10327 3d23 50       		.byte	0x50
 10328 3d24 02       		.uleb128 0x2
 10329 3d25 08       		.byte	0x8
 10330 3d26 52       		.byte	0x52
 10331 3d27 00       		.byte	0
 10332 3d28 23       		.uleb128 0x23
 10333 3d29 000A0000 		.4byte	.LVL428
 10334 3d2d 9F470000 		.4byte	0x479f
 10335 3d31 3C3D0000 		.4byte	0x3d3c
 10336 3d35 24       		.uleb128 0x24
 10337 3d36 01       		.uleb128 0x1
 10338 3d37 50       		.byte	0x50
 10339 3d38 02       		.uleb128 0x2
 10340 3d39 08       		.byte	0x8
 10341 3d3a 5F       		.byte	0x5f
 10342 3d3b 00       		.byte	0
 10343 3d3c 23       		.uleb128 0x23
 10344 3d3d 060A0000 		.4byte	.LVL429
 10345 3d41 9F470000 		.4byte	0x479f
 10346 3d45 503D0000 		.4byte	0x3d50
 10347 3d49 24       		.uleb128 0x24
 10348 3d4a 01       		.uleb128 0x1
 10349 3d4b 50       		.byte	0x50
 10350 3d4c 02       		.uleb128 0x2
 10351 3d4d 08       		.byte	0x8
 10352 3d4e 34       		.byte	0x34
 10353 3d4f 00       		.byte	0
 10354 3d50 23       		.uleb128 0x23
 10355 3d51 0C0A0000 		.4byte	.LVL430
 10356 3d55 9F470000 		.4byte	0x479f
 10357 3d59 633D0000 		.4byte	0x3d63
 10358 3d5d 24       		.uleb128 0x24
 10359 3d5e 01       		.uleb128 0x1
 10360 3d5f 50       		.byte	0x50
 10361 3d60 01       		.uleb128 0x1
 10362 3d61 31       		.byte	0x31
 10363 3d62 00       		.byte	0
 10364 3d63 23       		.uleb128 0x23
 10365 3d64 120A0000 		.4byte	.LVL431
 10366 3d68 9F470000 		.4byte	0x479f
 10367 3d6c 763D0000 		.4byte	0x3d76
 10368 3d70 24       		.uleb128 0x24
 10369 3d71 01       		.uleb128 0x1
ARM GAS  C:\Users\AHMED~1.ELE\AppData\Local\Temp\ccWApJgZ.s 			page 197


 10370 3d72 50       		.byte	0x50
 10371 3d73 01       		.uleb128 0x1
 10372 3d74 30       		.byte	0x30
 10373 3d75 00       		.byte	0
 10374 3d76 23       		.uleb128 0x23
 10375 3d77 180A0000 		.4byte	.LVL432
 10376 3d7b 9F470000 		.4byte	0x479f
 10377 3d7f 893D0000 		.4byte	0x3d89
 10378 3d83 24       		.uleb128 0x24
 10379 3d84 01       		.uleb128 0x1
 10380 3d85 50       		.byte	0x50
 10381 3d86 01       		.uleb128 0x1
 10382 3d87 30       		.byte	0x30
 10383 3d88 00       		.byte	0
 10384 3d89 23       		.uleb128 0x23
 10385 3d8a 1E0A0000 		.4byte	.LVL433
 10386 3d8e 9F470000 		.4byte	0x479f
 10387 3d92 9D3D0000 		.4byte	0x3d9d
 10388 3d96 24       		.uleb128 0x24
 10389 3d97 01       		.uleb128 0x1
 10390 3d98 50       		.byte	0x50
 10391 3d99 02       		.uleb128 0x2
 10392 3d9a 08       		.byte	0x8
 10393 3d9b 25       		.byte	0x25
 10394 3d9c 00       		.byte	0
 10395 3d9d 23       		.uleb128 0x23
 10396 3d9e 240A0000 		.4byte	.LVL434
 10397 3da2 9F470000 		.4byte	0x479f
 10398 3da6 B13D0000 		.4byte	0x3db1
 10399 3daa 24       		.uleb128 0x24
 10400 3dab 01       		.uleb128 0x1
 10401 3dac 50       		.byte	0x50
 10402 3dad 02       		.uleb128 0x2
 10403 3dae 08       		.byte	0x8
 10404 3daf 30       		.byte	0x30
 10405 3db0 00       		.byte	0
 10406 3db1 23       		.uleb128 0x23
 10407 3db2 2A0A0000 		.4byte	.LVL435
 10408 3db6 9F470000 		.4byte	0x479f
 10409 3dba C53D0000 		.4byte	0x3dc5
 10410 3dbe 24       		.uleb128 0x24
 10411 3dbf 01       		.uleb128 0x1
 10412 3dc0 50       		.byte	0x50
 10413 3dc1 02       		.uleb128 0x2
 10414 3dc2 08       		.byte	0x8
 10415 3dc3 30       		.byte	0x30
 10416 3dc4 00       		.byte	0
 10417 3dc5 23       		.uleb128 0x23
 10418 3dc6 300A0000 		.4byte	.LVL436
 10419 3dca 9F470000 		.4byte	0x479f
 10420 3dce D93D0000 		.4byte	0x3dd9
 10421 3dd2 24       		.uleb128 0x24
 10422 3dd3 01       		.uleb128 0x1
 10423 3dd4 50       		.byte	0x50
 10424 3dd5 02       		.uleb128 0x2
 10425 3dd6 08       		.byte	0x8
 10426 3dd7 30       		.byte	0x30
ARM GAS  C:\Users\AHMED~1.ELE\AppData\Local\Temp\ccWApJgZ.s 			page 198


 10427 3dd8 00       		.byte	0
 10428 3dd9 23       		.uleb128 0x23
 10429 3dda 360A0000 		.4byte	.LVL437
 10430 3dde 9F470000 		.4byte	0x479f
 10431 3de2 ED3D0000 		.4byte	0x3ded
 10432 3de6 24       		.uleb128 0x24
 10433 3de7 01       		.uleb128 0x1
 10434 3de8 50       		.byte	0x50
 10435 3de9 02       		.uleb128 0x2
 10436 3dea 08       		.byte	0x8
 10437 3deb 30       		.byte	0x30
 10438 3dec 00       		.byte	0
 10439 3ded 23       		.uleb128 0x23
 10440 3dee 3C0A0000 		.4byte	.LVL438
 10441 3df2 9F470000 		.4byte	0x479f
 10442 3df6 013E0000 		.4byte	0x3e01
 10443 3dfa 24       		.uleb128 0x24
 10444 3dfb 01       		.uleb128 0x1
 10445 3dfc 50       		.byte	0x50
 10446 3dfd 02       		.uleb128 0x2
 10447 3dfe 08       		.byte	0x8
 10448 3dff 30       		.byte	0x30
 10449 3e00 00       		.byte	0
 10450 3e01 23       		.uleb128 0x23
 10451 3e02 420A0000 		.4byte	.LVL439
 10452 3e06 9F470000 		.4byte	0x479f
 10453 3e0a 153E0000 		.4byte	0x3e15
 10454 3e0e 24       		.uleb128 0x24
 10455 3e0f 01       		.uleb128 0x1
 10456 3e10 50       		.byte	0x50
 10457 3e11 02       		.uleb128 0x2
 10458 3e12 08       		.byte	0x8
 10459 3e13 30       		.byte	0x30
 10460 3e14 00       		.byte	0
 10461 3e15 23       		.uleb128 0x23
 10462 3e16 480A0000 		.4byte	.LVL440
 10463 3e1a 9F470000 		.4byte	0x479f
 10464 3e1e 293E0000 		.4byte	0x3e29
 10465 3e22 24       		.uleb128 0x24
 10466 3e23 01       		.uleb128 0x1
 10467 3e24 50       		.byte	0x50
 10468 3e25 02       		.uleb128 0x2
 10469 3e26 08       		.byte	0x8
 10470 3e27 30       		.byte	0x30
 10471 3e28 00       		.byte	0
 10472 3e29 23       		.uleb128 0x23
 10473 3e2a 4E0A0000 		.4byte	.LVL441
 10474 3e2e 9F470000 		.4byte	0x479f
 10475 3e32 3D3E0000 		.4byte	0x3e3d
 10476 3e36 24       		.uleb128 0x24
 10477 3e37 01       		.uleb128 0x1
 10478 3e38 50       		.byte	0x50
 10479 3e39 02       		.uleb128 0x2
 10480 3e3a 08       		.byte	0x8
 10481 3e3b 30       		.byte	0x30
 10482 3e3c 00       		.byte	0
 10483 3e3d 23       		.uleb128 0x23
ARM GAS  C:\Users\AHMED~1.ELE\AppData\Local\Temp\ccWApJgZ.s 			page 199


 10484 3e3e 540A0000 		.4byte	.LVL442
 10485 3e42 9F470000 		.4byte	0x479f
 10486 3e46 513E0000 		.4byte	0x3e51
 10487 3e4a 24       		.uleb128 0x24
 10488 3e4b 01       		.uleb128 0x1
 10489 3e4c 50       		.byte	0x50
 10490 3e4d 02       		.uleb128 0x2
 10491 3e4e 08       		.byte	0x8
 10492 3e4f 30       		.byte	0x30
 10493 3e50 00       		.byte	0
 10494 3e51 23       		.uleb128 0x23
 10495 3e52 5A0A0000 		.4byte	.LVL443
 10496 3e56 9F470000 		.4byte	0x479f
 10497 3e5a 653E0000 		.4byte	0x3e65
 10498 3e5e 24       		.uleb128 0x24
 10499 3e5f 01       		.uleb128 0x1
 10500 3e60 50       		.byte	0x50
 10501 3e61 02       		.uleb128 0x2
 10502 3e62 08       		.byte	0x8
 10503 3e63 30       		.byte	0x30
 10504 3e64 00       		.byte	0
 10505 3e65 23       		.uleb128 0x23
 10506 3e66 600A0000 		.4byte	.LVL444
 10507 3e6a 9F470000 		.4byte	0x479f
 10508 3e6e 793E0000 		.4byte	0x3e79
 10509 3e72 24       		.uleb128 0x24
 10510 3e73 01       		.uleb128 0x1
 10511 3e74 50       		.byte	0x50
 10512 3e75 02       		.uleb128 0x2
 10513 3e76 08       		.byte	0x8
 10514 3e77 30       		.byte	0x30
 10515 3e78 00       		.byte	0
 10516 3e79 23       		.uleb128 0x23
 10517 3e7a 660A0000 		.4byte	.LVL445
 10518 3e7e 9F470000 		.4byte	0x479f
 10519 3e82 8D3E0000 		.4byte	0x3e8d
 10520 3e86 24       		.uleb128 0x24
 10521 3e87 01       		.uleb128 0x1
 10522 3e88 50       		.byte	0x50
 10523 3e89 02       		.uleb128 0x2
 10524 3e8a 08       		.byte	0x8
 10525 3e8b 30       		.byte	0x30
 10526 3e8c 00       		.byte	0
 10527 3e8d 23       		.uleb128 0x23
 10528 3e8e 6C0A0000 		.4byte	.LVL446
 10529 3e92 9F470000 		.4byte	0x479f
 10530 3e96 A13E0000 		.4byte	0x3ea1
 10531 3e9a 24       		.uleb128 0x24
 10532 3e9b 01       		.uleb128 0x1
 10533 3e9c 50       		.byte	0x50
 10534 3e9d 02       		.uleb128 0x2
 10535 3e9e 08       		.byte	0x8
 10536 3e9f 30       		.byte	0x30
 10537 3ea0 00       		.byte	0
 10538 3ea1 23       		.uleb128 0x23
 10539 3ea2 720A0000 		.4byte	.LVL447
 10540 3ea6 9F470000 		.4byte	0x479f
ARM GAS  C:\Users\AHMED~1.ELE\AppData\Local\Temp\ccWApJgZ.s 			page 200


 10541 3eaa B53E0000 		.4byte	0x3eb5
 10542 3eae 24       		.uleb128 0x24
 10543 3eaf 01       		.uleb128 0x1
 10544 3eb0 50       		.byte	0x50
 10545 3eb1 02       		.uleb128 0x2
 10546 3eb2 08       		.byte	0x8
 10547 3eb3 30       		.byte	0x30
 10548 3eb4 00       		.byte	0
 10549 3eb5 23       		.uleb128 0x23
 10550 3eb6 780A0000 		.4byte	.LVL448
 10551 3eba 9F470000 		.4byte	0x479f
 10552 3ebe C93E0000 		.4byte	0x3ec9
 10553 3ec2 24       		.uleb128 0x24
 10554 3ec3 01       		.uleb128 0x1
 10555 3ec4 50       		.byte	0x50
 10556 3ec5 02       		.uleb128 0x2
 10557 3ec6 08       		.byte	0x8
 10558 3ec7 30       		.byte	0x30
 10559 3ec8 00       		.byte	0
 10560 3ec9 23       		.uleb128 0x23
 10561 3eca 7E0A0000 		.4byte	.LVL449
 10562 3ece 9F470000 		.4byte	0x479f
 10563 3ed2 DD3E0000 		.4byte	0x3edd
 10564 3ed6 24       		.uleb128 0x24
 10565 3ed7 01       		.uleb128 0x1
 10566 3ed8 50       		.byte	0x50
 10567 3ed9 02       		.uleb128 0x2
 10568 3eda 08       		.byte	0x8
 10569 3edb 30       		.byte	0x30
 10570 3edc 00       		.byte	0
 10571 3edd 23       		.uleb128 0x23
 10572 3ede 840A0000 		.4byte	.LVL450
 10573 3ee2 9F470000 		.4byte	0x479f
 10574 3ee6 F13E0000 		.4byte	0x3ef1
 10575 3eea 24       		.uleb128 0x24
 10576 3eeb 01       		.uleb128 0x1
 10577 3eec 50       		.byte	0x50
 10578 3eed 02       		.uleb128 0x2
 10579 3eee 08       		.byte	0x8
 10580 3eef 30       		.byte	0x30
 10581 3ef0 00       		.byte	0
 10582 3ef1 23       		.uleb128 0x23
 10583 3ef2 8A0A0000 		.4byte	.LVL451
 10584 3ef6 9F470000 		.4byte	0x479f
 10585 3efa 053F0000 		.4byte	0x3f05
 10586 3efe 24       		.uleb128 0x24
 10587 3eff 01       		.uleb128 0x1
 10588 3f00 50       		.byte	0x50
 10589 3f01 02       		.uleb128 0x2
 10590 3f02 08       		.byte	0x8
 10591 3f03 30       		.byte	0x30
 10592 3f04 00       		.byte	0
 10593 3f05 23       		.uleb128 0x23
 10594 3f06 900A0000 		.4byte	.LVL452
 10595 3f0a 9F470000 		.4byte	0x479f
 10596 3f0e 193F0000 		.4byte	0x3f19
 10597 3f12 24       		.uleb128 0x24
ARM GAS  C:\Users\AHMED~1.ELE\AppData\Local\Temp\ccWApJgZ.s 			page 201


 10598 3f13 01       		.uleb128 0x1
 10599 3f14 50       		.byte	0x50
 10600 3f15 02       		.uleb128 0x2
 10601 3f16 08       		.byte	0x8
 10602 3f17 30       		.byte	0x30
 10603 3f18 00       		.byte	0
 10604 3f19 23       		.uleb128 0x23
 10605 3f1a 960A0000 		.4byte	.LVL453
 10606 3f1e 9F470000 		.4byte	0x479f
 10607 3f22 2D3F0000 		.4byte	0x3f2d
 10608 3f26 24       		.uleb128 0x24
 10609 3f27 01       		.uleb128 0x1
 10610 3f28 50       		.byte	0x50
 10611 3f29 02       		.uleb128 0x2
 10612 3f2a 08       		.byte	0x8
 10613 3f2b 30       		.byte	0x30
 10614 3f2c 00       		.byte	0
 10615 3f2d 23       		.uleb128 0x23
 10616 3f2e 9C0A0000 		.4byte	.LVL454
 10617 3f32 9F470000 		.4byte	0x479f
 10618 3f36 413F0000 		.4byte	0x3f41
 10619 3f3a 24       		.uleb128 0x24
 10620 3f3b 01       		.uleb128 0x1
 10621 3f3c 50       		.byte	0x50
 10622 3f3d 02       		.uleb128 0x2
 10623 3f3e 08       		.byte	0x8
 10624 3f3f 30       		.byte	0x30
 10625 3f40 00       		.byte	0
 10626 3f41 23       		.uleb128 0x23
 10627 3f42 A20A0000 		.4byte	.LVL455
 10628 3f46 9F470000 		.4byte	0x479f
 10629 3f4a 553F0000 		.4byte	0x3f55
 10630 3f4e 24       		.uleb128 0x24
 10631 3f4f 01       		.uleb128 0x1
 10632 3f50 50       		.byte	0x50
 10633 3f51 02       		.uleb128 0x2
 10634 3f52 08       		.byte	0x8
 10635 3f53 30       		.byte	0x30
 10636 3f54 00       		.byte	0
 10637 3f55 23       		.uleb128 0x23
 10638 3f56 A80A0000 		.4byte	.LVL456
 10639 3f5a 9F470000 		.4byte	0x479f
 10640 3f5e 693F0000 		.4byte	0x3f69
 10641 3f62 24       		.uleb128 0x24
 10642 3f63 01       		.uleb128 0x1
 10643 3f64 50       		.byte	0x50
 10644 3f65 02       		.uleb128 0x2
 10645 3f66 08       		.byte	0x8
 10646 3f67 30       		.byte	0x30
 10647 3f68 00       		.byte	0
 10648 3f69 23       		.uleb128 0x23
 10649 3f6a AE0A0000 		.4byte	.LVL457
 10650 3f6e 9F470000 		.4byte	0x479f
 10651 3f72 7D3F0000 		.4byte	0x3f7d
 10652 3f76 24       		.uleb128 0x24
 10653 3f77 01       		.uleb128 0x1
 10654 3f78 50       		.byte	0x50
ARM GAS  C:\Users\AHMED~1.ELE\AppData\Local\Temp\ccWApJgZ.s 			page 202


 10655 3f79 02       		.uleb128 0x2
 10656 3f7a 08       		.byte	0x8
 10657 3f7b 30       		.byte	0x30
 10658 3f7c 00       		.byte	0
 10659 3f7d 23       		.uleb128 0x23
 10660 3f7e B40A0000 		.4byte	.LVL458
 10661 3f82 9F470000 		.4byte	0x479f
 10662 3f86 913F0000 		.4byte	0x3f91
 10663 3f8a 24       		.uleb128 0x24
 10664 3f8b 01       		.uleb128 0x1
 10665 3f8c 50       		.byte	0x50
 10666 3f8d 02       		.uleb128 0x2
 10667 3f8e 08       		.byte	0x8
 10668 3f8f 30       		.byte	0x30
 10669 3f90 00       		.byte	0
 10670 3f91 23       		.uleb128 0x23
 10671 3f92 BA0A0000 		.4byte	.LVL459
 10672 3f96 9F470000 		.4byte	0x479f
 10673 3f9a A43F0000 		.4byte	0x3fa4
 10674 3f9e 24       		.uleb128 0x24
 10675 3f9f 01       		.uleb128 0x1
 10676 3fa0 50       		.byte	0x50
 10677 3fa1 01       		.uleb128 0x1
 10678 3fa2 30       		.byte	0x30
 10679 3fa3 00       		.byte	0
 10680 3fa4 23       		.uleb128 0x23
 10681 3fa5 C00A0000 		.4byte	.LVL460
 10682 3fa9 9F470000 		.4byte	0x479f
 10683 3fad B73F0000 		.4byte	0x3fb7
 10684 3fb1 24       		.uleb128 0x24
 10685 3fb2 01       		.uleb128 0x1
 10686 3fb3 50       		.byte	0x50
 10687 3fb4 01       		.uleb128 0x1
 10688 3fb5 30       		.byte	0x30
 10689 3fb6 00       		.byte	0
 10690 3fb7 23       		.uleb128 0x23
 10691 3fb8 C60A0000 		.4byte	.LVL461
 10692 3fbc 9F470000 		.4byte	0x479f
 10693 3fc0 CA3F0000 		.4byte	0x3fca
 10694 3fc4 24       		.uleb128 0x24
 10695 3fc5 01       		.uleb128 0x1
 10696 3fc6 50       		.byte	0x50
 10697 3fc7 01       		.uleb128 0x1
 10698 3fc8 30       		.byte	0x30
 10699 3fc9 00       		.byte	0
 10700 3fca 23       		.uleb128 0x23
 10701 3fcb CC0A0000 		.4byte	.LVL462
 10702 3fcf 9F470000 		.4byte	0x479f
 10703 3fd3 DD3F0000 		.4byte	0x3fdd
 10704 3fd7 24       		.uleb128 0x24
 10705 3fd8 01       		.uleb128 0x1
 10706 3fd9 50       		.byte	0x50
 10707 3fda 01       		.uleb128 0x1
 10708 3fdb 30       		.byte	0x30
 10709 3fdc 00       		.byte	0
 10710 3fdd 23       		.uleb128 0x23
 10711 3fde D20A0000 		.4byte	.LVL463
ARM GAS  C:\Users\AHMED~1.ELE\AppData\Local\Temp\ccWApJgZ.s 			page 203


 10712 3fe2 9F470000 		.4byte	0x479f
 10713 3fe6 F03F0000 		.4byte	0x3ff0
 10714 3fea 24       		.uleb128 0x24
 10715 3feb 01       		.uleb128 0x1
 10716 3fec 50       		.byte	0x50
 10717 3fed 01       		.uleb128 0x1
 10718 3fee 30       		.byte	0x30
 10719 3fef 00       		.byte	0
 10720 3ff0 23       		.uleb128 0x23
 10721 3ff1 D80A0000 		.4byte	.LVL464
 10722 3ff5 9F470000 		.4byte	0x479f
 10723 3ff9 03400000 		.4byte	0x4003
 10724 3ffd 24       		.uleb128 0x24
 10725 3ffe 01       		.uleb128 0x1
 10726 3fff 50       		.byte	0x50
 10727 4000 01       		.uleb128 0x1
 10728 4001 30       		.byte	0x30
 10729 4002 00       		.byte	0
 10730 4003 23       		.uleb128 0x23
 10731 4004 DE0A0000 		.4byte	.LVL465
 10732 4008 9F470000 		.4byte	0x479f
 10733 400c 16400000 		.4byte	0x4016
 10734 4010 24       		.uleb128 0x24
 10735 4011 01       		.uleb128 0x1
 10736 4012 50       		.byte	0x50
 10737 4013 01       		.uleb128 0x1
 10738 4014 30       		.byte	0x30
 10739 4015 00       		.byte	0
 10740 4016 23       		.uleb128 0x23
 10741 4017 E40A0000 		.4byte	.LVL466
 10742 401b 9F470000 		.4byte	0x479f
 10743 401f 29400000 		.4byte	0x4029
 10744 4023 24       		.uleb128 0x24
 10745 4024 01       		.uleb128 0x1
 10746 4025 50       		.byte	0x50
 10747 4026 01       		.uleb128 0x1
 10748 4027 30       		.byte	0x30
 10749 4028 00       		.byte	0
 10750 4029 23       		.uleb128 0x23
 10751 402a EA0A0000 		.4byte	.LVL467
 10752 402e 9F470000 		.4byte	0x479f
 10753 4032 3C400000 		.4byte	0x403c
 10754 4036 24       		.uleb128 0x24
 10755 4037 01       		.uleb128 0x1
 10756 4038 50       		.byte	0x50
 10757 4039 01       		.uleb128 0x1
 10758 403a 30       		.byte	0x30
 10759 403b 00       		.byte	0
 10760 403c 23       		.uleb128 0x23
 10761 403d F00A0000 		.4byte	.LVL468
 10762 4041 9F470000 		.4byte	0x479f
 10763 4045 4F400000 		.4byte	0x404f
 10764 4049 24       		.uleb128 0x24
 10765 404a 01       		.uleb128 0x1
 10766 404b 50       		.byte	0x50
 10767 404c 01       		.uleb128 0x1
 10768 404d 30       		.byte	0x30
ARM GAS  C:\Users\AHMED~1.ELE\AppData\Local\Temp\ccWApJgZ.s 			page 204


 10769 404e 00       		.byte	0
 10770 404f 22       		.uleb128 0x22
 10771 4050 F40A0000 		.4byte	.LVL469
 10772 4054 83470000 		.4byte	0x4783
 10773 4058 22       		.uleb128 0x22
 10774 4059 F80A0000 		.4byte	.LVL470
 10775 405d B4470000 		.4byte	0x47b4
 10776 4061 25       		.uleb128 0x25
 10777 4062 100B0000 		.4byte	.LVL471
 10778 4066 C5470000 		.4byte	0x47c5
 10779 406a 24       		.uleb128 0x24
 10780 406b 01       		.uleb128 0x1
 10781 406c 50       		.byte	0x50
 10782 406d 05       		.uleb128 0x5
 10783 406e 03       		.byte	0x3
 10784 406f 00000000 		.4byte	.LC0
 10785 4073 00       		.byte	0
 10786 4074 00       		.byte	0
 10787 4075 1B       		.uleb128 0x1b
 10788 4076 08140000 		.4byte	.LASF465
 10789 407a 01       		.byte	0x1
 10790 407b 3B       		.byte	0x3b
 10791 407c 91000000 		.4byte	0x91
 10792 4080 01       		.byte	0x1
 10793 4081 91400000 		.4byte	0x4091
 10794 4085 21       		.uleb128 0x21
 10795 4086 64746700 		.ascii	"dtg\000"
 10796 408a 01       		.byte	0x1
 10797 408b 3D       		.byte	0x3d
 10798 408c 5A0B0000 		.4byte	0xb5a
 10799 4090 00       		.byte	0
 10800 4091 1B       		.uleb128 0x1b
 10801 4092 10090000 		.4byte	.LASF466
 10802 4096 01       		.byte	0x1
 10803 4097 52       		.byte	0x52
 10804 4098 86000000 		.4byte	0x86
 10805 409c 01       		.byte	0x1
 10806 409d C3400000 		.4byte	0x40c3
 10807 40a1 1C       		.uleb128 0x1c
 10808 40a2 7D010000 		.4byte	.LASF467
 10809 40a6 01       		.byte	0x1
 10810 40a7 52       		.byte	0x52
 10811 40a8 76000000 		.4byte	0x76
 10812 40ac 1C       		.uleb128 0x1c
 10813 40ad 82140000 		.4byte	.LASF452
 10814 40b1 01       		.byte	0x1
 10815 40b2 52       		.byte	0x52
 10816 40b3 91000000 		.4byte	0x91
 10817 40b7 1D       		.uleb128 0x1d
 10818 40b8 E8030000 		.4byte	.LASF468
 10819 40bc 01       		.byte	0x1
 10820 40bd 54       		.byte	0x54
 10821 40be 86000000 		.4byte	0x86
 10822 40c2 00       		.byte	0
 10823 40c3 26       		.uleb128 0x26
 10824 40c4 29130000 		.4byte	.LASF506
 10825 40c8 01       		.byte	0x1
ARM GAS  C:\Users\AHMED~1.ELE\AppData\Local\Temp\ccWApJgZ.s 			page 205


 10826 40c9 75       		.byte	0x75
 10827 40ca 01       		.byte	0x1
 10828 40cb E6400000 		.4byte	0x40e6
 10829 40cf 21       		.uleb128 0x21
 10830 40d0 746D7000 		.ascii	"tmp\000"
 10831 40d4 01       		.byte	0x1
 10832 40d5 77       		.byte	0x77
 10833 40d6 91000000 		.4byte	0x91
 10834 40da 21       		.uleb128 0x21
 10835 40db 64746700 		.ascii	"dtg\000"
 10836 40df 01       		.byte	0x1
 10837 40e0 78       		.byte	0x78
 10838 40e1 5A0B0000 		.4byte	0xb5a
 10839 40e5 00       		.byte	0
 10840 40e6 27       		.uleb128 0x27
 10841 40e7 46080000 		.4byte	.LASF507
 10842 40eb 01       		.byte	0x1
 10843 40ec 3B02     		.2byte	0x23b
 10844 40ee 91000000 		.4byte	0x91
 10845 40f2 00000000 		.4byte	.LFB6
 10846 40f6 78040000 		.4byte	.LFE6-.LFB6
 10847 40fa 01       		.uleb128 0x1
 10848 40fb 9C       		.byte	0x9c
 10849 40fc 37470000 		.4byte	0x4737
 10850 4100 28       		.uleb128 0x28
 10851 4101 B7140000 		.4byte	.LASF461
 10852 4105 01       		.byte	0x1
 10853 4106 3D02     		.2byte	0x23d
 10854 4108 A7000000 		.4byte	0xa7
 10855 410c 1E000000 		.4byte	.LLST1
 10856 4110 28       		.uleb128 0x28
 10857 4111 D3110000 		.4byte	.LASF469
 10858 4115 01       		.byte	0x1
 10859 4116 3E02     		.2byte	0x23e
 10860 4118 9C000000 		.4byte	0x9c
 10861 411c 5D000000 		.4byte	.LLST2
 10862 4120 29       		.uleb128 0x29
 10863 4121 170A0000 		.4byte	.LASF470
 10864 4125 01       		.byte	0x1
 10865 4126 3F02     		.2byte	0x23f
 10866 4128 BC010000 		.4byte	0x1bc
 10867 412c 02       		.uleb128 0x2
 10868 412d 91       		.byte	0x91
 10869 412e 44       		.sleb128 -60
 10870 412f 2A       		.uleb128 0x2a
 10871 4130 746D7000 		.ascii	"tmp\000"
 10872 4134 01       		.byte	0x1
 10873 4135 4002     		.2byte	0x240
 10874 4137 91000000 		.4byte	0x91
 10875 413b 7B000000 		.4byte	.LLST3
 10876 413f 28       		.uleb128 0x28
 10877 4140 92120000 		.4byte	.LASF471
 10878 4144 01       		.byte	0x1
 10879 4145 4102     		.2byte	0x241
 10880 4147 86000000 		.4byte	0x86
 10881 414b 99000000 		.4byte	.LLST4
 10882 414f 28       		.uleb128 0x28
ARM GAS  C:\Users\AHMED~1.ELE\AppData\Local\Temp\ccWApJgZ.s 			page 206


 10883 4150 84090000 		.4byte	.LASF472
 10884 4154 01       		.byte	0x1
 10885 4155 4102     		.2byte	0x241
 10886 4157 86000000 		.4byte	0x86
 10887 415b F0000000 		.4byte	.LLST5
 10888 415f 2B       		.uleb128 0x2b
 10889 4160 75400000 		.4byte	0x4075
 10890 4164 20000000 		.4byte	.LBB18
 10891 4168 50000000 		.4byte	.LBE18-.LBB18
 10892 416c 01       		.byte	0x1
 10893 416d 4502     		.2byte	0x245
 10894 416f FA410000 		.4byte	0x41fa
 10895 4173 2C       		.uleb128 0x2c
 10896 4174 20000000 		.4byte	.LBB19
 10897 4178 50000000 		.4byte	.LBE19-.LBB19
 10898 417c 2D       		.uleb128 0x2d
 10899 417d 85400000 		.4byte	0x4085
 10900 4181 02       		.uleb128 0x2
 10901 4182 91       		.byte	0x91
 10902 4183 4C       		.sleb128 -52
 10903 4184 23       		.uleb128 0x23
 10904 4185 2A000000 		.4byte	.LVL475
 10905 4189 E0470000 		.4byte	0x47e0
 10906 418d 98410000 		.4byte	0x4198
 10907 4191 24       		.uleb128 0x24
 10908 4192 01       		.uleb128 0x1
 10909 4193 50       		.byte	0x50
 10910 4194 02       		.uleb128 0x2
 10911 4195 91       		.byte	0x91
 10912 4196 4C       		.sleb128 -52
 10913 4197 00       		.byte	0
 10914 4198 23       		.uleb128 0x23
 10915 4199 34000000 		.4byte	.LVL476
 10916 419d F7470000 		.4byte	0x47f7
 10917 41a1 B1410000 		.4byte	0x41b1
 10918 41a5 24       		.uleb128 0x24
 10919 41a6 01       		.uleb128 0x1
 10920 41a7 52       		.byte	0x52
 10921 41a8 01       		.uleb128 0x1
 10922 41a9 36       		.byte	0x36
 10923 41aa 24       		.uleb128 0x24
 10924 41ab 01       		.uleb128 0x1
 10925 41ac 51       		.byte	0x51
 10926 41ad 02       		.uleb128 0x2
 10927 41ae 74       		.byte	0x74
 10928 41af 00       		.sleb128 0
 10929 41b0 00       		.byte	0
 10930 41b1 23       		.uleb128 0x23
 10931 41b2 3E000000 		.4byte	.LVL477
 10932 41b6 14480000 		.4byte	0x4814
 10933 41ba CA410000 		.4byte	0x41ca
 10934 41be 24       		.uleb128 0x24
 10935 41bf 01       		.uleb128 0x1
 10936 41c0 52       		.byte	0x52
 10937 41c1 01       		.uleb128 0x1
 10938 41c2 36       		.byte	0x36
 10939 41c3 24       		.uleb128 0x24
ARM GAS  C:\Users\AHMED~1.ELE\AppData\Local\Temp\ccWApJgZ.s 			page 207


 10940 41c4 01       		.uleb128 0x1
 10941 41c5 51       		.byte	0x51
 10942 41c6 02       		.uleb128 0x2
 10943 41c7 08       		.byte	0x8
 10944 41c8 30       		.byte	0x30
 10945 41c9 00       		.byte	0
 10946 41ca 23       		.uleb128 0x23
 10947 41cb 48000000 		.4byte	.LVL478
 10948 41cf 33480000 		.4byte	0x4833
 10949 41d3 E3410000 		.4byte	0x41e3
 10950 41d7 24       		.uleb128 0x24
 10951 41d8 01       		.uleb128 0x1
 10952 41d9 52       		.byte	0x52
 10953 41da 01       		.uleb128 0x1
 10954 41db 36       		.byte	0x36
 10955 41dc 24       		.uleb128 0x24
 10956 41dd 01       		.uleb128 0x1
 10957 41de 51       		.byte	0x51
 10958 41df 02       		.uleb128 0x2
 10959 41e0 74       		.byte	0x74
 10960 41e1 00       		.sleb128 0
 10961 41e2 00       		.byte	0
 10962 41e3 2E       		.uleb128 0x2e
 10963 41e4 70000000 		.4byte	.LVL479
 10964 41e8 14480000 		.4byte	0x4814
 10965 41ec 24       		.uleb128 0x24
 10966 41ed 01       		.uleb128 0x1
 10967 41ee 52       		.byte	0x52
 10968 41ef 01       		.uleb128 0x1
 10969 41f0 44       		.byte	0x44
 10970 41f1 24       		.uleb128 0x24
 10971 41f2 01       		.uleb128 0x1
 10972 41f3 51       		.byte	0x51
 10973 41f4 02       		.uleb128 0x2
 10974 41f5 08       		.byte	0x8
 10975 41f6 20       		.byte	0x20
 10976 41f7 00       		.byte	0
 10977 41f8 00       		.byte	0
 10978 41f9 00       		.byte	0
 10979 41fa 2F       		.uleb128 0x2f
 10980 41fb 7C1B0000 		.4byte	0x1b7c
 10981 41ff 4C010000 		.4byte	.LBB20
 10982 4203 00000000 		.4byte	.Ldebug_ranges0+0
 10983 4207 01       		.byte	0x1
 10984 4208 7002     		.2byte	0x270
 10985 420a 80420000 		.4byte	0x4280
 10986 420e 30       		.uleb128 0x30
 10987 420f 971B0000 		.4byte	0x1b97
 10988 4213 48010000 		.4byte	.LLST6
 10989 4217 30       		.uleb128 0x30
 10990 4218 8C1B0000 		.4byte	0x1b8c
 10991 421c 5C010000 		.4byte	.LLST7
 10992 4220 31       		.uleb128 0x31
 10993 4221 00000000 		.4byte	.Ldebug_ranges0+0
 10994 4225 32       		.uleb128 0x32
 10995 4226 A21B0000 		.4byte	0x1ba2
 10996 422a 31       		.uleb128 0x31
ARM GAS  C:\Users\AHMED~1.ELE\AppData\Local\Temp\ccWApJgZ.s 			page 208


 10997 422b 00000000 		.4byte	.Ldebug_ranges0+0
 10998 422f 30       		.uleb128 0x30
 10999 4230 971B0000 		.4byte	0x1b97
 11000 4234 48010000 		.4byte	.LLST6
 11001 4238 30       		.uleb128 0x30
 11002 4239 8C1B0000 		.4byte	0x1b8c
 11003 423d 5C010000 		.4byte	.LLST7
 11004 4241 31       		.uleb128 0x31
 11005 4242 00000000 		.4byte	.Ldebug_ranges0+0
 11006 4246 2D       		.uleb128 0x2d
 11007 4247 A21B0000 		.4byte	0x1ba2
 11008 424b 02       		.uleb128 0x2
 11009 424c 91       		.byte	0x91
 11010 424d 4C       		.sleb128 -52
 11011 424e 23       		.uleb128 0x23
 11012 424f 56010000 		.4byte	.LVL506
 11013 4253 33480000 		.4byte	0x4833
 11014 4257 67420000 		.4byte	0x4267
 11015 425b 24       		.uleb128 0x24
 11016 425c 01       		.uleb128 0x1
 11017 425d 52       		.byte	0x52
 11018 425e 01       		.uleb128 0x1
 11019 425f 36       		.byte	0x36
 11020 4260 24       		.uleb128 0x24
 11021 4261 01       		.uleb128 0x1
 11022 4262 50       		.byte	0x50
 11023 4263 02       		.uleb128 0x2
 11024 4264 91       		.byte	0x91
 11025 4265 4C       		.sleb128 -52
 11026 4266 00       		.byte	0
 11027 4267 2E       		.uleb128 0x2e
 11028 4268 5E010000 		.4byte	.LVL507
 11029 426c 4E480000 		.4byte	0x484e
 11030 4270 24       		.uleb128 0x24
 11031 4271 01       		.uleb128 0x1
 11032 4272 51       		.byte	0x51
 11033 4273 01       		.uleb128 0x1
 11034 4274 3C       		.byte	0x3c
 11035 4275 24       		.uleb128 0x24
 11036 4276 01       		.uleb128 0x1
 11037 4277 50       		.byte	0x50
 11038 4278 02       		.uleb128 0x2
 11039 4279 91       		.byte	0x91
 11040 427a 4C       		.sleb128 -52
 11041 427b 00       		.byte	0
 11042 427c 00       		.byte	0
 11043 427d 00       		.byte	0
 11044 427e 00       		.byte	0
 11045 427f 00       		.byte	0
 11046 4280 2B       		.uleb128 0x2b
 11047 4281 91400000 		.4byte	0x4091
 11048 4285 7C010000 		.4byte	.LBB28
 11049 4289 16000000 		.4byte	.LBE28-.LBB28
 11050 428d 01       		.byte	0x1
 11051 428e 7702     		.2byte	0x277
 11052 4290 E5420000 		.4byte	0x42e5
 11053 4294 30       		.uleb128 0x30
ARM GAS  C:\Users\AHMED~1.ELE\AppData\Local\Temp\ccWApJgZ.s 			page 209


 11054 4295 AC400000 		.4byte	0x40ac
 11055 4299 7A010000 		.4byte	.LLST10
 11056 429d 30       		.uleb128 0x30
 11057 429e A1400000 		.4byte	0x40a1
 11058 42a2 8E010000 		.4byte	.LLST11
 11059 42a6 2C       		.uleb128 0x2c
 11060 42a7 7C010000 		.4byte	.LBB29
 11061 42ab 16000000 		.4byte	.LBE29-.LBB29
 11062 42af 33       		.uleb128 0x33
 11063 42b0 B7400000 		.4byte	0x40b7
 11064 42b4 A1010000 		.4byte	.LLST12
 11065 42b8 22       		.uleb128 0x22
 11066 42b9 80010000 		.4byte	.LVL510
 11067 42bd 68480000 		.4byte	0x4868
 11068 42c1 23       		.uleb128 0x23
 11069 42c2 8A010000 		.4byte	.LVL512
 11070 42c6 73480000 		.4byte	0x4873
 11071 42ca D4420000 		.4byte	0x42d4
 11072 42ce 24       		.uleb128 0x24
 11073 42cf 01       		.uleb128 0x1
 11074 42d0 52       		.byte	0x52
 11075 42d1 01       		.uleb128 0x1
 11076 42d2 33       		.byte	0x33
 11077 42d3 00       		.byte	0
 11078 42d4 2E       		.uleb128 0x2e
 11079 42d5 92010000 		.4byte	.LVL515
 11080 42d9 92480000 		.4byte	0x4892
 11081 42dd 24       		.uleb128 0x24
 11082 42de 01       		.uleb128 0x1
 11083 42df 50       		.byte	0x50
 11084 42e0 01       		.uleb128 0x1
 11085 42e1 33       		.byte	0x33
 11086 42e2 00       		.byte	0
 11087 42e3 00       		.byte	0
 11088 42e4 00       		.byte	0
 11089 42e5 2B       		.uleb128 0x2b
 11090 42e6 91400000 		.4byte	0x4091
 11091 42ea 56020000 		.4byte	.LBB30
 11092 42ee 16000000 		.4byte	.LBE30-.LBB30
 11093 42f2 01       		.byte	0x1
 11094 42f3 AF02     		.2byte	0x2af
 11095 42f5 50430000 		.4byte	0x4350
 11096 42f9 30       		.uleb128 0x30
 11097 42fa AC400000 		.4byte	0x40ac
 11098 42fe C7010000 		.4byte	.LLST13
 11099 4302 30       		.uleb128 0x30
 11100 4303 A1400000 		.4byte	0x40a1
 11101 4307 DB010000 		.4byte	.LLST14
 11102 430b 2C       		.uleb128 0x2c
 11103 430c 56020000 		.4byte	.LBB31
 11104 4310 16000000 		.4byte	.LBE31-.LBB31
 11105 4314 33       		.uleb128 0x33
 11106 4315 B7400000 		.4byte	0x40b7
 11107 4319 EE010000 		.4byte	.LLST15
 11108 431d 22       		.uleb128 0x22
 11109 431e 5A020000 		.4byte	.LVL532
 11110 4322 68480000 		.4byte	0x4868
ARM GAS  C:\Users\AHMED~1.ELE\AppData\Local\Temp\ccWApJgZ.s 			page 210


 11111 4326 23       		.uleb128 0x23
 11112 4327 64020000 		.4byte	.LVL533
 11113 432b 73480000 		.4byte	0x4873
 11114 432f 3F430000 		.4byte	0x433f
 11115 4333 24       		.uleb128 0x24
 11116 4334 01       		.uleb128 0x1
 11117 4335 52       		.byte	0x52
 11118 4336 01       		.uleb128 0x1
 11119 4337 38       		.byte	0x38
 11120 4338 24       		.uleb128 0x24
 11121 4339 01       		.uleb128 0x1
 11122 433a 50       		.byte	0x50
 11123 433b 02       		.uleb128 0x2
 11124 433c 79       		.byte	0x79
 11125 433d 00       		.sleb128 0
 11126 433e 00       		.byte	0
 11127 433f 2E       		.uleb128 0x2e
 11128 4340 6C020000 		.4byte	.LVL536
 11129 4344 92480000 		.4byte	0x4892
 11130 4348 24       		.uleb128 0x24
 11131 4349 01       		.uleb128 0x1
 11132 434a 50       		.byte	0x50
 11133 434b 01       		.uleb128 0x1
 11134 434c 38       		.byte	0x38
 11135 434d 00       		.byte	0
 11136 434e 00       		.byte	0
 11137 434f 00       		.byte	0
 11138 4350 2F       		.uleb128 0x2f
 11139 4351 7C1B0000 		.4byte	0x1b7c
 11140 4355 A2020000 		.4byte	.LBB32
 11141 4359 18000000 		.4byte	.Ldebug_ranges0+0x18
 11142 435d 01       		.byte	0x1
 11143 435e B802     		.2byte	0x2b8
 11144 4360 EC430000 		.4byte	0x43ec
 11145 4364 30       		.uleb128 0x30
 11146 4365 971B0000 		.4byte	0x1b97
 11147 4369 14020000 		.4byte	.LLST16
 11148 436d 30       		.uleb128 0x30
 11149 436e 8C1B0000 		.4byte	0x1b8c
 11150 4372 27020000 		.4byte	.LLST17
 11151 4376 31       		.uleb128 0x31
 11152 4377 18000000 		.4byte	.Ldebug_ranges0+0x18
 11153 437b 32       		.uleb128 0x32
 11154 437c A21B0000 		.4byte	0x1ba2
 11155 4380 2C       		.uleb128 0x2c
 11156 4381 B0020000 		.4byte	.LBB34
 11157 4385 1A000000 		.4byte	.LBE34-.LBB34
 11158 4389 30       		.uleb128 0x30
 11159 438a 971B0000 		.4byte	0x1b97
 11160 438e 5D020000 		.4byte	.LLST18
 11161 4392 30       		.uleb128 0x30
 11162 4393 8C1B0000 		.4byte	0x1b8c
 11163 4397 70020000 		.4byte	.LLST19
 11164 439b 2C       		.uleb128 0x2c
 11165 439c B0020000 		.4byte	.LBB35
 11166 43a0 1A000000 		.4byte	.LBE35-.LBB35
 11167 43a4 2D       		.uleb128 0x2d
ARM GAS  C:\Users\AHMED~1.ELE\AppData\Local\Temp\ccWApJgZ.s 			page 211


 11168 43a5 A21B0000 		.4byte	0x1ba2
 11169 43a9 02       		.uleb128 0x2
 11170 43aa 91       		.byte	0x91
 11171 43ab 4C       		.sleb128 -52
 11172 43ac 23       		.uleb128 0x23
 11173 43ad B8020000 		.4byte	.LVL544
 11174 43b1 33480000 		.4byte	0x4833
 11175 43b5 CD430000 		.4byte	0x43cd
 11176 43b9 24       		.uleb128 0x24
 11177 43ba 01       		.uleb128 0x1
 11178 43bb 52       		.byte	0x52
 11179 43bc 02       		.uleb128 0x2
 11180 43bd 7A       		.byte	0x7a
 11181 43be 00       		.sleb128 0
 11182 43bf 24       		.uleb128 0x24
 11183 43c0 01       		.uleb128 0x1
 11184 43c1 51       		.byte	0x51
 11185 43c2 03       		.uleb128 0x3
 11186 43c3 7D       		.byte	0x7d
 11187 43c4 00       		.sleb128 0
 11188 43c5 06       		.byte	0x6
 11189 43c6 24       		.uleb128 0x24
 11190 43c7 01       		.uleb128 0x1
 11191 43c8 50       		.byte	0x50
 11192 43c9 02       		.uleb128 0x2
 11193 43ca 91       		.byte	0x91
 11194 43cb 4C       		.sleb128 -52
 11195 43cc 00       		.byte	0
 11196 43cd 2E       		.uleb128 0x2e
 11197 43ce C6020000 		.4byte	.LVL545
 11198 43d2 4E480000 		.4byte	0x484e
 11199 43d6 24       		.uleb128 0x24
 11200 43d7 01       		.uleb128 0x1
 11201 43d8 51       		.byte	0x51
 11202 43d9 07       		.uleb128 0x7
 11203 43da 7A       		.byte	0x7a
 11204 43db 00       		.sleb128 0
 11205 43dc 31       		.byte	0x31
 11206 43dd 24       		.byte	0x24
 11207 43de 08       		.byte	0x8
 11208 43df FE       		.byte	0xfe
 11209 43e0 1A       		.byte	0x1a
 11210 43e1 24       		.uleb128 0x24
 11211 43e2 01       		.uleb128 0x1
 11212 43e3 50       		.byte	0x50
 11213 43e4 02       		.uleb128 0x2
 11214 43e5 91       		.byte	0x91
 11215 43e6 4C       		.sleb128 -52
 11216 43e7 00       		.byte	0
 11217 43e8 00       		.byte	0
 11218 43e9 00       		.byte	0
 11219 43ea 00       		.byte	0
 11220 43eb 00       		.byte	0
 11221 43ec 2B       		.uleb128 0x2b
 11222 43ed C3400000 		.4byte	0x40c3
 11223 43f1 AE030000 		.4byte	.LBB38
 11224 43f5 60000000 		.4byte	.LBE38-.LBB38
ARM GAS  C:\Users\AHMED~1.ELE\AppData\Local\Temp\ccWApJgZ.s 			page 212


 11225 43f9 01       		.byte	0x1
 11226 43fa D702     		.2byte	0x2d7
 11227 43fc 80440000 		.4byte	0x4480
 11228 4400 2C       		.uleb128 0x2c
 11229 4401 AE030000 		.4byte	.LBB39
 11230 4405 60000000 		.4byte	.LBE39-.LBB39
 11231 4409 2D       		.uleb128 0x2d
 11232 440a CF400000 		.4byte	0x40cf
 11233 440e 02       		.uleb128 0x2
 11234 440f 91       		.byte	0x91
 11235 4410 43       		.sleb128 -61
 11236 4411 2D       		.uleb128 0x2d
 11237 4412 DA400000 		.4byte	0x40da
 11238 4416 02       		.uleb128 0x2
 11239 4417 91       		.byte	0x91
 11240 4418 4C       		.sleb128 -52
 11241 4419 23       		.uleb128 0x23
 11242 441a B4030000 		.4byte	.LVL566
 11243 441e E0470000 		.4byte	0x47e0
 11244 4422 2D440000 		.4byte	0x442d
 11245 4426 24       		.uleb128 0x24
 11246 4427 01       		.uleb128 0x1
 11247 4428 50       		.byte	0x50
 11248 4429 02       		.uleb128 0x2
 11249 442a 91       		.byte	0x91
 11250 442b 4C       		.sleb128 -52
 11251 442c 00       		.byte	0
 11252 442d 23       		.uleb128 0x23
 11253 442e E6030000 		.4byte	.LVL567
 11254 4432 A7480000 		.4byte	0x48a7
 11255 4436 41440000 		.4byte	0x4441
 11256 443a 24       		.uleb128 0x24
 11257 443b 01       		.uleb128 0x1
 11258 443c 51       		.byte	0x51
 11259 443d 02       		.uleb128 0x2
 11260 443e 91       		.byte	0x91
 11261 443f 43       		.sleb128 -61
 11262 4440 00       		.byte	0
 11263 4441 23       		.uleb128 0x23
 11264 4442 FE030000 		.4byte	.LVL568
 11265 4446 C6480000 		.4byte	0x48c6
 11266 444a 55440000 		.4byte	0x4455
 11267 444e 24       		.uleb128 0x24
 11268 444f 01       		.uleb128 0x1
 11269 4450 51       		.byte	0x51
 11270 4451 02       		.uleb128 0x2
 11271 4452 91       		.byte	0x91
 11272 4453 43       		.sleb128 -61
 11273 4454 00       		.byte	0
 11274 4455 23       		.uleb128 0x23
 11275 4456 08040000 		.4byte	.LVL569
 11276 445a E5480000 		.4byte	0x48e5
 11277 445e 6E440000 		.4byte	0x446e
 11278 4462 24       		.uleb128 0x24
 11279 4463 01       		.uleb128 0x1
 11280 4464 52       		.byte	0x52
 11281 4465 01       		.uleb128 0x1
ARM GAS  C:\Users\AHMED~1.ELE\AppData\Local\Temp\ccWApJgZ.s 			page 213


 11282 4466 38       		.byte	0x38
 11283 4467 24       		.uleb128 0x24
 11284 4468 01       		.uleb128 0x1
 11285 4469 50       		.byte	0x50
 11286 446a 02       		.uleb128 0x2
 11287 446b 91       		.byte	0x91
 11288 446c 4C       		.sleb128 -52
 11289 446d 00       		.byte	0
 11290 446e 2E       		.uleb128 0x2e
 11291 446f 0E040000 		.4byte	.LVL570
 11292 4473 00490000 		.4byte	0x4900
 11293 4477 24       		.uleb128 0x24
 11294 4478 01       		.uleb128 0x1
 11295 4479 50       		.byte	0x50
 11296 447a 02       		.uleb128 0x2
 11297 447b 91       		.byte	0x91
 11298 447c 4C       		.sleb128 -52
 11299 447d 00       		.byte	0
 11300 447e 00       		.byte	0
 11301 447f 00       		.byte	0
 11302 4480 23       		.uleb128 0x23
 11303 4481 0C000000 		.4byte	.LVL472
 11304 4485 11490000 		.4byte	0x4911
 11305 4489 93440000 		.4byte	0x4493
 11306 448d 24       		.uleb128 0x24
 11307 448e 01       		.uleb128 0x1
 11308 448f 50       		.byte	0x50
 11309 4490 01       		.uleb128 0x1
 11310 4491 33       		.byte	0x33
 11311 4492 00       		.byte	0
 11312 4493 23       		.uleb128 0x23
 11313 4494 18000000 		.4byte	.LVL473
 11314 4498 26490000 		.4byte	0x4926
 11315 449c AF440000 		.4byte	0x44af
 11316 44a0 24       		.uleb128 0x24
 11317 44a1 01       		.uleb128 0x1
 11318 44a2 52       		.byte	0x52
 11319 44a3 03       		.uleb128 0x3
 11320 44a4 0A       		.byte	0xa
 11321 44a5 0210     		.2byte	0x1002
 11322 44a7 24       		.uleb128 0x24
 11323 44a8 01       		.uleb128 0x1
 11324 44a9 51       		.byte	0x51
 11325 44aa 03       		.uleb128 0x3
 11326 44ab 0A       		.byte	0xa
 11327 44ac 0005     		.2byte	0x500
 11328 44ae 00       		.byte	0
 11329 44af 22       		.uleb128 0x22
 11330 44b0 1C000000 		.4byte	.LVL474
 11331 44b4 41490000 		.4byte	0x4941
 11332 44b8 23       		.uleb128 0x23
 11333 44b9 86000000 		.4byte	.LVL480
 11334 44bd C5470000 		.4byte	0x47c5
 11335 44c1 CF440000 		.4byte	0x44cf
 11336 44c5 24       		.uleb128 0x24
 11337 44c6 01       		.uleb128 0x1
 11338 44c7 50       		.byte	0x50
ARM GAS  C:\Users\AHMED~1.ELE\AppData\Local\Temp\ccWApJgZ.s 			page 214


 11339 44c8 05       		.uleb128 0x5
 11340 44c9 03       		.byte	0x3
 11341 44ca 06000000 		.4byte	.LC1
 11342 44ce 00       		.byte	0
 11343 44cf 22       		.uleb128 0x22
 11344 44d0 8A000000 		.4byte	.LVL481
 11345 44d4 83470000 		.4byte	0x4783
 11346 44d8 22       		.uleb128 0x22
 11347 44d9 8E000000 		.4byte	.LVL482
 11348 44dd 4C490000 		.4byte	0x494c
 11349 44e1 23       		.uleb128 0x23
 11350 44e2 94000000 		.4byte	.LVL483
 11351 44e6 92480000 		.4byte	0x4892
 11352 44ea F4440000 		.4byte	0x44f4
 11353 44ee 24       		.uleb128 0x24
 11354 44ef 01       		.uleb128 0x1
 11355 44f0 50       		.byte	0x50
 11356 44f1 01       		.uleb128 0x1
 11357 44f2 35       		.byte	0x35
 11358 44f3 00       		.byte	0
 11359 44f4 22       		.uleb128 0x22
 11360 44f5 98000000 		.4byte	.LVL484
 11361 44f9 5D490000 		.4byte	0x495d
 11362 44fd 23       		.uleb128 0x23
 11363 44fe C6000000 		.4byte	.LVL486
 11364 4502 68490000 		.4byte	0x4968
 11365 4506 16450000 		.4byte	0x4516
 11366 450a 24       		.uleb128 0x24
 11367 450b 01       		.uleb128 0x1
 11368 450c 51       		.byte	0x51
 11369 450d 01       		.uleb128 0x1
 11370 450e 38       		.byte	0x38
 11371 450f 24       		.uleb128 0x24
 11372 4510 01       		.uleb128 0x1
 11373 4511 50       		.byte	0x50
 11374 4512 02       		.uleb128 0x2
 11375 4513 91       		.byte	0x91
 11376 4514 44       		.sleb128 -60
 11377 4515 00       		.byte	0
 11378 4516 22       		.uleb128 0x22
 11379 4517 D2000000 		.4byte	.LVL487
 11380 451b 82490000 		.4byte	0x4982
 11381 451f 22       		.uleb128 0x22
 11382 4520 D6000000 		.4byte	.LVL488
 11383 4524 8D490000 		.4byte	0x498d
 11384 4528 23       		.uleb128 0x23
 11385 4529 E2000000 		.4byte	.LVL491
 11386 452d 14480000 		.4byte	0x4814
 11387 4531 41450000 		.4byte	0x4541
 11388 4535 24       		.uleb128 0x24
 11389 4536 01       		.uleb128 0x1
 11390 4537 52       		.byte	0x52
 11391 4538 01       		.uleb128 0x1
 11392 4539 3A       		.byte	0x3a
 11393 453a 24       		.uleb128 0x24
 11394 453b 01       		.uleb128 0x1
 11395 453c 51       		.byte	0x51
ARM GAS  C:\Users\AHMED~1.ELE\AppData\Local\Temp\ccWApJgZ.s 			page 215


 11396 453d 02       		.uleb128 0x2
 11397 453e 08       		.byte	0x8
 11398 453f FF       		.byte	0xff
 11399 4540 00       		.byte	0
 11400 4541 23       		.uleb128 0x23
 11401 4542 EC000000 		.4byte	.LVL492
 11402 4546 68490000 		.4byte	0x4968
 11403 454a 57450000 		.4byte	0x4557
 11404 454e 24       		.uleb128 0x24
 11405 454f 01       		.uleb128 0x1
 11406 4550 51       		.byte	0x51
 11407 4551 04       		.uleb128 0x4
 11408 4552 77       		.byte	0x77
 11409 4553 01       		.sleb128 1
 11410 4554 31       		.byte	0x31
 11411 4555 25       		.byte	0x25
 11412 4556 00       		.byte	0
 11413 4557 22       		.uleb128 0x22
 11414 4558 F8000000 		.4byte	.LVL493
 11415 455c 68480000 		.4byte	0x4868
 11416 4560 23       		.uleb128 0x23
 11417 4561 00010000 		.4byte	.LVL494
 11418 4565 73480000 		.4byte	0x4873
 11419 4569 73450000 		.4byte	0x4573
 11420 456d 24       		.uleb128 0x24
 11421 456e 01       		.uleb128 0x1
 11422 456f 52       		.byte	0x52
 11423 4570 01       		.uleb128 0x1
 11424 4571 32       		.byte	0x32
 11425 4572 00       		.byte	0
 11426 4573 22       		.uleb128 0x22
 11427 4574 0E010000 		.4byte	.LVL495
 11428 4578 68480000 		.4byte	0x4868
 11429 457c 23       		.uleb128 0x23
 11430 457d 16010000 		.4byte	.LVL496
 11431 4581 73480000 		.4byte	0x4873
 11432 4585 8F450000 		.4byte	0x458f
 11433 4589 24       		.uleb128 0x24
 11434 458a 01       		.uleb128 0x1
 11435 458b 52       		.byte	0x52
 11436 458c 01       		.uleb128 0x1
 11437 458d 32       		.byte	0x32
 11438 458e 00       		.byte	0
 11439 458f 23       		.uleb128 0x23
 11440 4590 24010000 		.4byte	.LVL497
 11441 4594 92480000 		.4byte	0x4892
 11442 4598 A2450000 		.4byte	0x45a2
 11443 459c 24       		.uleb128 0x24
 11444 459d 01       		.uleb128 0x1
 11445 459e 50       		.byte	0x50
 11446 459f 01       		.uleb128 0x1
 11447 45a0 32       		.byte	0x32
 11448 45a1 00       		.byte	0
 11449 45a2 22       		.uleb128 0x22
 11450 45a3 28010000 		.4byte	.LVL498
 11451 45a7 82490000 		.4byte	0x4982
 11452 45ab 22       		.uleb128 0x22
ARM GAS  C:\Users\AHMED~1.ELE\AppData\Local\Temp\ccWApJgZ.s 			page 216


 11453 45ac 4C010000 		.4byte	.LVL503
 11454 45b0 68480000 		.4byte	0x4868
 11455 45b4 23       		.uleb128 0x23
 11456 45b5 6C010000 		.4byte	.LVL508
 11457 45b9 92480000 		.4byte	0x4892
 11458 45bd C7450000 		.4byte	0x45c7
 11459 45c1 24       		.uleb128 0x24
 11460 45c2 01       		.uleb128 0x1
 11461 45c3 50       		.byte	0x50
 11462 45c4 01       		.uleb128 0x1
 11463 45c5 36       		.byte	0x36
 11464 45c6 00       		.byte	0
 11465 45c7 23       		.uleb128 0x23
 11466 45c8 AA010000 		.4byte	.LVL518
 11467 45cc 92480000 		.4byte	0x4892
 11468 45d0 DA450000 		.4byte	0x45da
 11469 45d4 24       		.uleb128 0x24
 11470 45d5 01       		.uleb128 0x1
 11471 45d6 50       		.byte	0x50
 11472 45d7 01       		.uleb128 0x1
 11473 45d8 33       		.byte	0x33
 11474 45d9 00       		.byte	0
 11475 45da 23       		.uleb128 0x23
 11476 45db C0010000 		.4byte	.LVL520
 11477 45df 68490000 		.4byte	0x4968
 11478 45e3 ED450000 		.4byte	0x45ed
 11479 45e7 24       		.uleb128 0x24
 11480 45e8 01       		.uleb128 0x1
 11481 45e9 51       		.byte	0x51
 11482 45ea 01       		.uleb128 0x1
 11483 45eb 33       		.byte	0x33
 11484 45ec 00       		.byte	0
 11485 45ed 23       		.uleb128 0x23
 11486 45ee D8010000 		.4byte	.LVL523
 11487 45f2 68490000 		.4byte	0x4968
 11488 45f6 00460000 		.4byte	0x4600
 11489 45fa 24       		.uleb128 0x24
 11490 45fb 01       		.uleb128 0x1
 11491 45fc 51       		.byte	0x51
 11492 45fd 01       		.uleb128 0x1
 11493 45fe 32       		.byte	0x32
 11494 45ff 00       		.byte	0
 11495 4600 23       		.uleb128 0x23
 11496 4601 E8010000 		.4byte	.LVL524
 11497 4605 68490000 		.4byte	0x4968
 11498 4609 13460000 		.4byte	0x4613
 11499 460d 24       		.uleb128 0x24
 11500 460e 01       		.uleb128 0x1
 11501 460f 51       		.byte	0x51
 11502 4610 01       		.uleb128 0x1
 11503 4611 32       		.byte	0x32
 11504 4612 00       		.byte	0
 11505 4613 23       		.uleb128 0x23
 11506 4614 F6010000 		.4byte	.LVL525
 11507 4618 92480000 		.4byte	0x4892
 11508 461c 26460000 		.4byte	0x4626
 11509 4620 24       		.uleb128 0x24
ARM GAS  C:\Users\AHMED~1.ELE\AppData\Local\Temp\ccWApJgZ.s 			page 217


 11510 4621 01       		.uleb128 0x1
 11511 4622 50       		.byte	0x50
 11512 4623 01       		.uleb128 0x1
 11513 4624 32       		.byte	0x32
 11514 4625 00       		.byte	0
 11515 4626 23       		.uleb128 0x23
 11516 4627 04020000 		.4byte	.LVL526
 11517 462b 92480000 		.4byte	0x4892
 11518 462f 39460000 		.4byte	0x4639
 11519 4633 24       		.uleb128 0x24
 11520 4634 01       		.uleb128 0x1
 11521 4635 50       		.byte	0x50
 11522 4636 01       		.uleb128 0x1
 11523 4637 31       		.byte	0x31
 11524 4638 00       		.byte	0
 11525 4639 23       		.uleb128 0x23
 11526 463a 14020000 		.4byte	.LVL527
 11527 463e 68490000 		.4byte	0x4968
 11528 4642 4C460000 		.4byte	0x464c
 11529 4646 24       		.uleb128 0x24
 11530 4647 01       		.uleb128 0x1
 11531 4648 51       		.byte	0x51
 11532 4649 01       		.uleb128 0x1
 11533 464a 3C       		.byte	0x3c
 11534 464b 00       		.byte	0
 11535 464c 23       		.uleb128 0x23
 11536 464d 1E020000 		.4byte	.LVL528
 11537 4651 14480000 		.4byte	0x4814
 11538 4655 65460000 		.4byte	0x4665
 11539 4659 24       		.uleb128 0x24
 11540 465a 01       		.uleb128 0x1
 11541 465b 52       		.byte	0x52
 11542 465c 01       		.uleb128 0x1
 11543 465d 36       		.byte	0x36
 11544 465e 24       		.uleb128 0x24
 11545 465f 01       		.uleb128 0x1
 11546 4660 51       		.byte	0x51
 11547 4661 02       		.uleb128 0x2
 11548 4662 08       		.byte	0x8
 11549 4663 20       		.byte	0x20
 11550 4664 00       		.byte	0
 11551 4665 23       		.uleb128 0x23
 11552 4666 2E020000 		.4byte	.LVL529
 11553 466a 68490000 		.4byte	0x4968
 11554 466e 78460000 		.4byte	0x4678
 11555 4672 24       		.uleb128 0x24
 11556 4673 01       		.uleb128 0x1
 11557 4674 51       		.byte	0x51
 11558 4675 01       		.uleb128 0x1
 11559 4676 36       		.byte	0x36
 11560 4677 00       		.byte	0
 11561 4678 22       		.uleb128 0x22
 11562 4679 42020000 		.4byte	.LVL530
 11563 467d 5D490000 		.4byte	0x495d
 11564 4681 22       		.uleb128 0x22
 11565 4682 98020000 		.4byte	.LVL539
 11566 4686 68480000 		.4byte	0x4868
ARM GAS  C:\Users\AHMED~1.ELE\AppData\Local\Temp\ccWApJgZ.s 			page 218


 11567 468a 22       		.uleb128 0x22
 11568 468b 9E020000 		.4byte	.LVL540
 11569 468f 5D490000 		.4byte	0x495d
 11570 4693 22       		.uleb128 0x22
 11571 4694 A2020000 		.4byte	.LVL541
 11572 4698 8D490000 		.4byte	0x498d
 11573 469c 22       		.uleb128 0x22
 11574 469d E8020000 		.4byte	.LVL549
 11575 46a1 5D490000 		.4byte	0x495d
 11576 46a5 22       		.uleb128 0x22
 11577 46a6 EC020000 		.4byte	.LVL550
 11578 46aa 8D490000 		.4byte	0x498d
 11579 46ae 22       		.uleb128 0x22
 11580 46af 4A030000 		.4byte	.LVL553
 11581 46b3 68490000 		.4byte	0x4968
 11582 46b7 23       		.uleb128 0x23
 11583 46b8 5C030000 		.4byte	.LVL554
 11584 46bc 14480000 		.4byte	0x4814
 11585 46c0 D0460000 		.4byte	0x46d0
 11586 46c4 24       		.uleb128 0x24
 11587 46c5 01       		.uleb128 0x1
 11588 46c6 52       		.byte	0x52
 11589 46c7 01       		.uleb128 0x1
 11590 46c8 33       		.byte	0x33
 11591 46c9 24       		.uleb128 0x24
 11592 46ca 01       		.uleb128 0x1
 11593 46cb 51       		.byte	0x51
 11594 46cc 02       		.uleb128 0x2
 11595 46cd 08       		.byte	0x8
 11596 46ce FF       		.byte	0xff
 11597 46cf 00       		.byte	0
 11598 46d0 22       		.uleb128 0x22
 11599 46d1 60030000 		.4byte	.LVL555
 11600 46d5 5D490000 		.4byte	0x495d
 11601 46d9 22       		.uleb128 0x22
 11602 46da 64030000 		.4byte	.LVL556
 11603 46de 8D490000 		.4byte	0x498d
 11604 46e2 22       		.uleb128 0x22
 11605 46e3 6E030000 		.4byte	.LVL558
 11606 46e7 A2490000 		.4byte	0x49a2
 11607 46eb 22       		.uleb128 0x22
 11608 46ec 76030000 		.4byte	.LVL559
 11609 46f0 68480000 		.4byte	0x4868
 11610 46f4 23       		.uleb128 0x23
 11611 46f5 80030000 		.4byte	.LVL560
 11612 46f9 AD490000 		.4byte	0x49ad
 11613 46fd 07470000 		.4byte	0x4707
 11614 4701 24       		.uleb128 0x24
 11615 4702 01       		.uleb128 0x1
 11616 4703 52       		.byte	0x52
 11617 4704 01       		.uleb128 0x1
 11618 4705 33       		.byte	0x33
 11619 4706 00       		.byte	0
 11620 4707 23       		.uleb128 0x23
 11621 4708 86030000 		.4byte	.LVL561
 11622 470c 92480000 		.4byte	0x4892
 11623 4710 1B470000 		.4byte	0x471b
ARM GAS  C:\Users\AHMED~1.ELE\AppData\Local\Temp\ccWApJgZ.s 			page 219


 11624 4714 24       		.uleb128 0x24
 11625 4715 01       		.uleb128 0x1
 11626 4716 50       		.byte	0x50
 11627 4717 02       		.uleb128 0x2
 11628 4718 79       		.byte	0x79
 11629 4719 00       		.sleb128 0
 11630 471a 00       		.byte	0
 11631 471b 22       		.uleb128 0x22
 11632 471c 92030000 		.4byte	.LVL562
 11633 4720 5D490000 		.4byte	0x495d
 11634 4724 22       		.uleb128 0x22
 11635 4725 96030000 		.4byte	.LVL563
 11636 4729 8D490000 		.4byte	0x498d
 11637 472d 22       		.uleb128 0x22
 11638 472e A8030000 		.4byte	.LVL565
 11639 4732 68490000 		.4byte	0x4968
 11640 4736 00       		.byte	0
 11641 4737 34       		.uleb128 0x34
 11642 4738 8D120000 		.4byte	.LASF473
 11643 473c 0A       		.byte	0xa
 11644 473d B9       		.byte	0xb9
 11645 473e 42470000 		.4byte	0x4742
 11646 4742 06       		.uleb128 0x6
 11647 4743 04       		.byte	0x4
 11648 4744 36110000 		.4byte	0x1136
 11649 4748 08       		.uleb128 0x8
 11650 4749 0E130000 		.4byte	0x130e
 11651 474d 58470000 		.4byte	0x4758
 11652 4751 09       		.uleb128 0x9
 11653 4752 78000000 		.4byte	0x78
 11654 4756 17       		.byte	0x17
 11655 4757 00       		.byte	0
 11656 4758 34       		.uleb128 0x34
 11657 4759 93110000 		.4byte	.LASF474
 11658 475d 0B       		.byte	0xb
 11659 475e 5A       		.byte	0x5a
 11660 475f 63470000 		.4byte	0x4763
 11661 4763 07       		.uleb128 0x7
 11662 4764 48470000 		.4byte	0x4748
 11663 4768 34       		.uleb128 0x34
 11664 4769 C6150000 		.4byte	.LASF475
 11665 476d 0B       		.byte	0xb
 11666 476e 5B       		.byte	0x5b
 11667 476f 73470000 		.4byte	0x4773
 11668 4773 07       		.uleb128 0x7
 11669 4774 6C010000 		.4byte	0x16c
 11670 4778 34       		.uleb128 0x34
 11671 4779 D0050000 		.4byte	.LASF476
 11672 477d 0D       		.byte	0xd
 11673 477e 53       		.byte	0x53
 11674 477f 481B0000 		.4byte	0x1b48
 11675 4783 35       		.uleb128 0x35
 11676 4784 79000000 		.4byte	.LASF486
 11677 4788 11       		.byte	0x11
 11678 4789 43       		.byte	0x43
 11679 478a 86000000 		.4byte	0x86
 11680 478e 36       		.uleb128 0x36
ARM GAS  C:\Users\AHMED~1.ELE\AppData\Local\Temp\ccWApJgZ.s 			page 220


 11681 478f 370A0000 		.4byte	.LASF477
 11682 4793 0A       		.byte	0xa
 11683 4794 E0       		.byte	0xe0
 11684 4795 9F470000 		.4byte	0x479f
 11685 4799 37       		.uleb128 0x37
 11686 479a 86000000 		.4byte	0x86
 11687 479e 00       		.byte	0
 11688 479f 38       		.uleb128 0x38
 11689 47a0 A20E0000 		.4byte	.LASF482
 11690 47a4 0F       		.byte	0xf
 11691 47a5 06       		.byte	0x6
 11692 47a6 A7000000 		.4byte	0xa7
 11693 47aa B4470000 		.4byte	0x47b4
 11694 47ae 37       		.uleb128 0x37
 11695 47af A7000000 		.4byte	0xa7
 11696 47b3 00       		.byte	0
 11697 47b4 36       		.uleb128 0x36
 11698 47b5 CA090000 		.4byte	.LASF478
 11699 47b9 0A       		.byte	0xa
 11700 47ba E1       		.byte	0xe1
 11701 47bb C5470000 		.4byte	0x47c5
 11702 47bf 37       		.uleb128 0x37
 11703 47c0 86000000 		.4byte	0x86
 11704 47c4 00       		.byte	0
 11705 47c5 36       		.uleb128 0x36
 11706 47c6 161B0000 		.4byte	.LASF479
 11707 47ca 0E       		.byte	0xe
 11708 47cb 27       		.byte	0x27
 11709 47cc E0470000 		.4byte	0x47e0
 11710 47d0 37       		.uleb128 0x37
 11711 47d1 D8000000 		.4byte	0xd8
 11712 47d5 37       		.uleb128 0x37
 11713 47d6 D8000000 		.4byte	0xd8
 11714 47da 37       		.uleb128 0x37
 11715 47db A7000000 		.4byte	0xa7
 11716 47df 00       		.byte	0
 11717 47e0 36       		.uleb128 0x36
 11718 47e1 18040000 		.4byte	.LASF480
 11719 47e5 09       		.byte	0x9
 11720 47e6 44       		.byte	0x44
 11721 47e7 F1470000 		.4byte	0x47f1
 11722 47eb 37       		.uleb128 0x37
 11723 47ec F1470000 		.4byte	0x47f1
 11724 47f0 00       		.byte	0
 11725 47f1 06       		.uleb128 0x6
 11726 47f2 04       		.byte	0x4
 11727 47f3 5A0B0000 		.4byte	0xb5a
 11728 47f7 39       		.uleb128 0x39
 11729 47f8 1B180000 		.4byte	.LASF481
 11730 47fc 76000000 		.4byte	0x76
 11731 4800 14480000 		.4byte	0x4814
 11732 4804 37       		.uleb128 0x37
 11733 4805 76000000 		.4byte	0x76
 11734 4809 37       		.uleb128 0x37
 11735 480a EC010000 		.4byte	0x1ec
 11736 480e 37       		.uleb128 0x37
 11737 480f 78000000 		.4byte	0x78
ARM GAS  C:\Users\AHMED~1.ELE\AppData\Local\Temp\ccWApJgZ.s 			page 221


 11738 4813 00       		.byte	0
 11739 4814 38       		.uleb128 0x38
 11740 4815 6B140000 		.4byte	.LASF483
 11741 4819 10       		.byte	0x10
 11742 481a 19       		.byte	0x19
 11743 481b 76000000 		.4byte	0x76
 11744 481f 33480000 		.4byte	0x4833
 11745 4823 37       		.uleb128 0x37
 11746 4824 76000000 		.4byte	0x76
 11747 4828 37       		.uleb128 0x37
 11748 4829 5D000000 		.4byte	0x5d
 11749 482d 37       		.uleb128 0x37
 11750 482e 6B000000 		.4byte	0x6b
 11751 4832 00       		.byte	0
 11752 4833 36       		.uleb128 0x36
 11753 4834 E6180000 		.4byte	.LASF484
 11754 4838 0F       		.byte	0xf
 11755 4839 29       		.byte	0x29
 11756 483a 4E480000 		.4byte	0x484e
 11757 483e 37       		.uleb128 0x37
 11758 483f D8000000 		.4byte	0xd8
 11759 4843 37       		.uleb128 0x37
 11760 4844 D8000000 		.4byte	0xd8
 11761 4848 37       		.uleb128 0x37
 11762 4849 A7000000 		.4byte	0xa7
 11763 484d 00       		.byte	0
 11764 484e 38       		.uleb128 0x38
 11765 484f C5180000 		.4byte	.LASF485
 11766 4853 0F       		.byte	0xf
 11767 4854 5A       		.byte	0x5a
 11768 4855 A7000000 		.4byte	0xa7
 11769 4859 68480000 		.4byte	0x4868
 11770 485d 37       		.uleb128 0x37
 11771 485e D8000000 		.4byte	0xd8
 11772 4862 37       		.uleb128 0x37
 11773 4863 A7000000 		.4byte	0xa7
 11774 4867 00       		.byte	0
 11775 4868 35       		.uleb128 0x35
 11776 4869 210C0000 		.4byte	.LASF487
 11777 486d 0F       		.byte	0xf
 11778 486e 15       		.byte	0x15
 11779 486f D8000000 		.4byte	0xd8
 11780 4873 38       		.uleb128 0x38
 11781 4874 BF160000 		.4byte	.LASF488
 11782 4878 10       		.byte	0x10
 11783 4879 16       		.byte	0x16
 11784 487a 5D000000 		.4byte	0x5d
 11785 487e 92480000 		.4byte	0x4892
 11786 4882 37       		.uleb128 0x37
 11787 4883 EC010000 		.4byte	0x1ec
 11788 4887 37       		.uleb128 0x37
 11789 4888 EC010000 		.4byte	0x1ec
 11790 488c 37       		.uleb128 0x37
 11791 488d 6B000000 		.4byte	0x6b
 11792 4891 00       		.byte	0
 11793 4892 38       		.uleb128 0x38
 11794 4893 010B0000 		.4byte	.LASF489
ARM GAS  C:\Users\AHMED~1.ELE\AppData\Local\Temp\ccWApJgZ.s 			page 222


 11795 4897 0F       		.byte	0xf
 11796 4898 12       		.byte	0x12
 11797 4899 A7000000 		.4byte	0xa7
 11798 489d A7480000 		.4byte	0x48a7
 11799 48a1 37       		.uleb128 0x37
 11800 48a2 A7000000 		.4byte	0xa7
 11801 48a6 00       		.byte	0
 11802 48a7 38       		.uleb128 0x38
 11803 48a8 53080000 		.4byte	.LASF490
 11804 48ac 0F       		.byte	0xf
 11805 48ad 4D       		.byte	0x4d
 11806 48ae A7000000 		.4byte	0xa7
 11807 48b2 C6480000 		.4byte	0x48c6
 11808 48b6 37       		.uleb128 0x37
 11809 48b7 D8000000 		.4byte	0xd8
 11810 48bb 37       		.uleb128 0x37
 11811 48bc D8000000 		.4byte	0xd8
 11812 48c0 37       		.uleb128 0x37
 11813 48c1 A7000000 		.4byte	0xa7
 11814 48c5 00       		.byte	0
 11815 48c6 38       		.uleb128 0x38
 11816 48c7 E3020000 		.4byte	.LASF491
 11817 48cb 0F       		.byte	0xf
 11818 48cc 4C       		.byte	0x4c
 11819 48cd A7000000 		.4byte	0xa7
 11820 48d1 E5480000 		.4byte	0x48e5
 11821 48d5 37       		.uleb128 0x37
 11822 48d6 D8000000 		.4byte	0xd8
 11823 48da 37       		.uleb128 0x37
 11824 48db D8000000 		.4byte	0xd8
 11825 48df 37       		.uleb128 0x37
 11826 48e0 A7000000 		.4byte	0xa7
 11827 48e4 00       		.byte	0
 11828 48e5 36       		.uleb128 0x36
 11829 48e6 DD180000 		.4byte	.LASF492
 11830 48ea 09       		.byte	0x9
 11831 48eb 59       		.byte	0x59
 11832 48ec 00490000 		.4byte	0x4900
 11833 48f0 37       		.uleb128 0x37
 11834 48f1 D8000000 		.4byte	0xd8
 11835 48f5 37       		.uleb128 0x37
 11836 48f6 D8000000 		.4byte	0xd8
 11837 48fa 37       		.uleb128 0x37
 11838 48fb A7000000 		.4byte	0xa7
 11839 48ff 00       		.byte	0
 11840 4900 36       		.uleb128 0x36
 11841 4901 8A0D0000 		.4byte	.LASF493
 11842 4905 09       		.byte	0x9
 11843 4906 43       		.byte	0x43
 11844 4907 11490000 		.4byte	0x4911
 11845 490b 37       		.uleb128 0x37
 11846 490c F1470000 		.4byte	0x47f1
 11847 4910 00       		.byte	0
 11848 4911 38       		.uleb128 0x38
 11849 4912 5F090000 		.4byte	.LASF494
 11850 4916 0C       		.byte	0xc
 11851 4917 E5       		.byte	0xe5
ARM GAS  C:\Users\AHMED~1.ELE\AppData\Local\Temp\ccWApJgZ.s 			page 223


 11852 4918 D8000000 		.4byte	0xd8
 11853 491c 26490000 		.4byte	0x4926
 11854 4920 37       		.uleb128 0x37
 11855 4921 A7000000 		.4byte	0xa7
 11856 4925 00       		.byte	0
 11857 4926 36       		.uleb128 0x36
 11858 4927 37020000 		.4byte	.LASF495
 11859 492b 09       		.byte	0x9
 11860 492c 54       		.byte	0x54
 11861 492d 41490000 		.4byte	0x4941
 11862 4931 37       		.uleb128 0x37
 11863 4932 BD000000 		.4byte	0xbd
 11864 4936 37       		.uleb128 0x37
 11865 4937 A7000000 		.4byte	0xa7
 11866 493b 37       		.uleb128 0x37
 11867 493c A7000000 		.4byte	0xa7
 11868 4940 00       		.byte	0
 11869 4941 35       		.uleb128 0x35
 11870 4942 14140000 		.4byte	.LASF496
 11871 4946 0A       		.byte	0xa
 11872 4947 EB       		.byte	0xeb
 11873 4948 86000000 		.4byte	0x86
 11874 494c 36       		.uleb128 0x36
 11875 494d C6130000 		.4byte	.LASF497
 11876 4951 0A       		.byte	0xa
 11877 4952 E2       		.byte	0xe2
 11878 4953 5D490000 		.4byte	0x495d
 11879 4957 37       		.uleb128 0x37
 11880 4958 86000000 		.4byte	0x86
 11881 495c 00       		.byte	0
 11882 495d 35       		.uleb128 0x35
 11883 495e BC120000 		.4byte	.LASF498
 11884 4962 0F       		.byte	0xf
 11885 4963 0E       		.byte	0xe
 11886 4964 A7000000 		.4byte	0xa7
 11887 4968 38       		.uleb128 0x38
 11888 4969 5C140000 		.4byte	.LASF499
 11889 496d 0F       		.byte	0xf
 11890 496e 20       		.byte	0x20
 11891 496f A7000000 		.4byte	0xa7
 11892 4973 82490000 		.4byte	0x4982
 11893 4977 37       		.uleb128 0x37
 11894 4978 D8000000 		.4byte	0xd8
 11895 497c 37       		.uleb128 0x37
 11896 497d A7000000 		.4byte	0xa7
 11897 4981 00       		.byte	0
 11898 4982 35       		.uleb128 0x35
 11899 4983 460C0000 		.4byte	.LASF500
 11900 4987 0F       		.byte	0xf
 11901 4988 0D       		.byte	0xd
 11902 4989 A7000000 		.4byte	0xa7
 11903 498d 38       		.uleb128 0x38
 11904 498e 48130000 		.4byte	.LASF501
 11905 4992 0F       		.byte	0xf
 11906 4993 4A       		.byte	0x4a
 11907 4994 A7000000 		.4byte	0xa7
 11908 4998 A2490000 		.4byte	0x49a2
ARM GAS  C:\Users\AHMED~1.ELE\AppData\Local\Temp\ccWApJgZ.s 			page 224


 11909 499c 37       		.uleb128 0x37
 11910 499d A7000000 		.4byte	0xa7
 11911 49a1 00       		.byte	0
 11912 49a2 35       		.uleb128 0x35
 11913 49a3 BD040000 		.4byte	.LASF502
 11914 49a7 0F       		.byte	0xf
 11915 49a8 11       		.byte	0x11
 11916 49a9 A7000000 		.4byte	0xa7
 11917 49ad 3A       		.uleb128 0x3a
 11918 49ae 350F0000 		.4byte	.LASF508
 11919 49b2 0F       		.byte	0xf
 11920 49b3 28       		.byte	0x28
 11921 49b4 37       		.uleb128 0x37
 11922 49b5 D8000000 		.4byte	0xd8
 11923 49b9 37       		.uleb128 0x37
 11924 49ba D8000000 		.4byte	0xd8
 11925 49be 37       		.uleb128 0x37
 11926 49bf A7000000 		.4byte	0xa7
 11927 49c3 00       		.byte	0
 11928 49c4 00       		.byte	0
 11929              		.section	.debug_abbrev,"",%progbits
 11930              	.Ldebug_abbrev0:
 11931 0000 01       		.uleb128 0x1
 11932 0001 11       		.uleb128 0x11
 11933 0002 01       		.byte	0x1
 11934 0003 25       		.uleb128 0x25
 11935 0004 0E       		.uleb128 0xe
 11936 0005 13       		.uleb128 0x13
 11937 0006 0B       		.uleb128 0xb
 11938 0007 03       		.uleb128 0x3
 11939 0008 0E       		.uleb128 0xe
 11940 0009 1B       		.uleb128 0x1b
 11941 000a 0E       		.uleb128 0xe
 11942 000b 55       		.uleb128 0x55
 11943 000c 17       		.uleb128 0x17
 11944 000d 11       		.uleb128 0x11
 11945 000e 01       		.uleb128 0x1
 11946 000f 10       		.uleb128 0x10
 11947 0010 17       		.uleb128 0x17
 11948 0011 00       		.byte	0
 11949 0012 00       		.byte	0
 11950 0013 02       		.uleb128 0x2
 11951 0014 24       		.uleb128 0x24
 11952 0015 00       		.byte	0
 11953 0016 0B       		.uleb128 0xb
 11954 0017 0B       		.uleb128 0xb
 11955 0018 3E       		.uleb128 0x3e
 11956 0019 0B       		.uleb128 0xb
 11957 001a 03       		.uleb128 0x3
 11958 001b 0E       		.uleb128 0xe
 11959 001c 00       		.byte	0
 11960 001d 00       		.byte	0
 11961 001e 03       		.uleb128 0x3
 11962 001f 24       		.uleb128 0x24
 11963 0020 00       		.byte	0
 11964 0021 0B       		.uleb128 0xb
 11965 0022 0B       		.uleb128 0xb
ARM GAS  C:\Users\AHMED~1.ELE\AppData\Local\Temp\ccWApJgZ.s 			page 225


 11966 0023 3E       		.uleb128 0x3e
 11967 0024 0B       		.uleb128 0xb
 11968 0025 03       		.uleb128 0x3
 11969 0026 08       		.uleb128 0x8
 11970 0027 00       		.byte	0
 11971 0028 00       		.byte	0
 11972 0029 04       		.uleb128 0x4
 11973 002a 16       		.uleb128 0x16
 11974 002b 00       		.byte	0
 11975 002c 03       		.uleb128 0x3
 11976 002d 0E       		.uleb128 0xe
 11977 002e 3A       		.uleb128 0x3a
 11978 002f 0B       		.uleb128 0xb
 11979 0030 3B       		.uleb128 0x3b
 11980 0031 0B       		.uleb128 0xb
 11981 0032 49       		.uleb128 0x49
 11982 0033 13       		.uleb128 0x13
 11983 0034 00       		.byte	0
 11984 0035 00       		.byte	0
 11985 0036 05       		.uleb128 0x5
 11986 0037 0F       		.uleb128 0xf
 11987 0038 00       		.byte	0
 11988 0039 0B       		.uleb128 0xb
 11989 003a 0B       		.uleb128 0xb
 11990 003b 00       		.byte	0
 11991 003c 00       		.byte	0
 11992 003d 06       		.uleb128 0x6
 11993 003e 0F       		.uleb128 0xf
 11994 003f 00       		.byte	0
 11995 0040 0B       		.uleb128 0xb
 11996 0041 0B       		.uleb128 0xb
 11997 0042 49       		.uleb128 0x49
 11998 0043 13       		.uleb128 0x13
 11999 0044 00       		.byte	0
 12000 0045 00       		.byte	0
 12001 0046 07       		.uleb128 0x7
 12002 0047 26       		.uleb128 0x26
 12003 0048 00       		.byte	0
 12004 0049 49       		.uleb128 0x49
 12005 004a 13       		.uleb128 0x13
 12006 004b 00       		.byte	0
 12007 004c 00       		.byte	0
 12008 004d 08       		.uleb128 0x8
 12009 004e 01       		.uleb128 0x1
 12010 004f 01       		.byte	0x1
 12011 0050 49       		.uleb128 0x49
 12012 0051 13       		.uleb128 0x13
 12013 0052 01       		.uleb128 0x1
 12014 0053 13       		.uleb128 0x13
 12015 0054 00       		.byte	0
 12016 0055 00       		.byte	0
 12017 0056 09       		.uleb128 0x9
 12018 0057 21       		.uleb128 0x21
 12019 0058 00       		.byte	0
 12020 0059 49       		.uleb128 0x49
 12021 005a 13       		.uleb128 0x13
 12022 005b 2F       		.uleb128 0x2f
ARM GAS  C:\Users\AHMED~1.ELE\AppData\Local\Temp\ccWApJgZ.s 			page 226


 12023 005c 0B       		.uleb128 0xb
 12024 005d 00       		.byte	0
 12025 005e 00       		.byte	0
 12026 005f 0A       		.uleb128 0xa
 12027 0060 13       		.uleb128 0x13
 12028 0061 01       		.byte	0x1
 12029 0062 0B       		.uleb128 0xb
 12030 0063 0B       		.uleb128 0xb
 12031 0064 3A       		.uleb128 0x3a
 12032 0065 0B       		.uleb128 0xb
 12033 0066 3B       		.uleb128 0x3b
 12034 0067 0B       		.uleb128 0xb
 12035 0068 01       		.uleb128 0x1
 12036 0069 13       		.uleb128 0x13
 12037 006a 00       		.byte	0
 12038 006b 00       		.byte	0
 12039 006c 0B       		.uleb128 0xb
 12040 006d 0D       		.uleb128 0xd
 12041 006e 00       		.byte	0
 12042 006f 03       		.uleb128 0x3
 12043 0070 0E       		.uleb128 0xe
 12044 0071 3A       		.uleb128 0x3a
 12045 0072 0B       		.uleb128 0xb
 12046 0073 3B       		.uleb128 0x3b
 12047 0074 0B       		.uleb128 0xb
 12048 0075 49       		.uleb128 0x49
 12049 0076 13       		.uleb128 0x13
 12050 0077 38       		.uleb128 0x38
 12051 0078 0B       		.uleb128 0xb
 12052 0079 00       		.byte	0
 12053 007a 00       		.byte	0
 12054 007b 0C       		.uleb128 0xc
 12055 007c 16       		.uleb128 0x16
 12056 007d 00       		.byte	0
 12057 007e 03       		.uleb128 0x3
 12058 007f 08       		.uleb128 0x8
 12059 0080 3A       		.uleb128 0x3a
 12060 0081 0B       		.uleb128 0xb
 12061 0082 3B       		.uleb128 0x3b
 12062 0083 0B       		.uleb128 0xb
 12063 0084 49       		.uleb128 0x49
 12064 0085 13       		.uleb128 0x13
 12065 0086 00       		.byte	0
 12066 0087 00       		.byte	0
 12067 0088 0D       		.uleb128 0xd
 12068 0089 26       		.uleb128 0x26
 12069 008a 00       		.byte	0
 12070 008b 00       		.byte	0
 12071 008c 00       		.byte	0
 12072 008d 0E       		.uleb128 0xe
 12073 008e 13       		.uleb128 0x13
 12074 008f 01       		.byte	0x1
 12075 0090 0B       		.uleb128 0xb
 12076 0091 0B       		.uleb128 0xb
 12077 0092 3A       		.uleb128 0x3a
 12078 0093 0B       		.uleb128 0xb
 12079 0094 3B       		.uleb128 0x3b
ARM GAS  C:\Users\AHMED~1.ELE\AppData\Local\Temp\ccWApJgZ.s 			page 227


 12080 0095 05       		.uleb128 0x5
 12081 0096 01       		.uleb128 0x1
 12082 0097 13       		.uleb128 0x13
 12083 0098 00       		.byte	0
 12084 0099 00       		.byte	0
 12085 009a 0F       		.uleb128 0xf
 12086 009b 0D       		.uleb128 0xd
 12087 009c 00       		.byte	0
 12088 009d 03       		.uleb128 0x3
 12089 009e 0E       		.uleb128 0xe
 12090 009f 3A       		.uleb128 0x3a
 12091 00a0 0B       		.uleb128 0xb
 12092 00a1 3B       		.uleb128 0x3b
 12093 00a2 05       		.uleb128 0x5
 12094 00a3 49       		.uleb128 0x49
 12095 00a4 13       		.uleb128 0x13
 12096 00a5 38       		.uleb128 0x38
 12097 00a6 0B       		.uleb128 0xb
 12098 00a7 00       		.byte	0
 12099 00a8 00       		.byte	0
 12100 00a9 10       		.uleb128 0x10
 12101 00aa 16       		.uleb128 0x16
 12102 00ab 00       		.byte	0
 12103 00ac 03       		.uleb128 0x3
 12104 00ad 0E       		.uleb128 0xe
 12105 00ae 3A       		.uleb128 0x3a
 12106 00af 0B       		.uleb128 0xb
 12107 00b0 3B       		.uleb128 0x3b
 12108 00b1 05       		.uleb128 0x5
 12109 00b2 49       		.uleb128 0x49
 12110 00b3 13       		.uleb128 0x13
 12111 00b4 00       		.byte	0
 12112 00b5 00       		.byte	0
 12113 00b6 11       		.uleb128 0x11
 12114 00b7 13       		.uleb128 0x13
 12115 00b8 01       		.byte	0x1
 12116 00b9 03       		.uleb128 0x3
 12117 00ba 0E       		.uleb128 0xe
 12118 00bb 0B       		.uleb128 0xb
 12119 00bc 05       		.uleb128 0x5
 12120 00bd 3A       		.uleb128 0x3a
 12121 00be 0B       		.uleb128 0xb
 12122 00bf 3B       		.uleb128 0x3b
 12123 00c0 0B       		.uleb128 0xb
 12124 00c1 01       		.uleb128 0x1
 12125 00c2 13       		.uleb128 0x13
 12126 00c3 00       		.byte	0
 12127 00c4 00       		.byte	0
 12128 00c5 12       		.uleb128 0x12
 12129 00c6 21       		.uleb128 0x21
 12130 00c7 00       		.byte	0
 12131 00c8 49       		.uleb128 0x49
 12132 00c9 13       		.uleb128 0x13
 12133 00ca 2F       		.uleb128 0x2f
 12134 00cb 05       		.uleb128 0x5
 12135 00cc 00       		.byte	0
 12136 00cd 00       		.byte	0
ARM GAS  C:\Users\AHMED~1.ELE\AppData\Local\Temp\ccWApJgZ.s 			page 228


 12137 00ce 13       		.uleb128 0x13
 12138 00cf 13       		.uleb128 0x13
 12139 00d0 01       		.byte	0x1
 12140 00d1 03       		.uleb128 0x3
 12141 00d2 0E       		.uleb128 0xe
 12142 00d3 0B       		.uleb128 0xb
 12143 00d4 0B       		.uleb128 0xb
 12144 00d5 3A       		.uleb128 0x3a
 12145 00d6 0B       		.uleb128 0xb
 12146 00d7 3B       		.uleb128 0x3b
 12147 00d8 05       		.uleb128 0x5
 12148 00d9 01       		.uleb128 0x1
 12149 00da 13       		.uleb128 0x13
 12150 00db 00       		.byte	0
 12151 00dc 00       		.byte	0
 12152 00dd 14       		.uleb128 0x14
 12153 00de 13       		.uleb128 0x13
 12154 00df 01       		.byte	0x1
 12155 00e0 03       		.uleb128 0x3
 12156 00e1 0E       		.uleb128 0xe
 12157 00e2 0B       		.uleb128 0xb
 12158 00e3 05       		.uleb128 0x5
 12159 00e4 3A       		.uleb128 0x3a
 12160 00e5 0B       		.uleb128 0xb
 12161 00e6 3B       		.uleb128 0x3b
 12162 00e7 05       		.uleb128 0x5
 12163 00e8 01       		.uleb128 0x1
 12164 00e9 13       		.uleb128 0x13
 12165 00ea 00       		.byte	0
 12166 00eb 00       		.byte	0
 12167 00ec 15       		.uleb128 0x15
 12168 00ed 0D       		.uleb128 0xd
 12169 00ee 00       		.byte	0
 12170 00ef 03       		.uleb128 0x3
 12171 00f0 0E       		.uleb128 0xe
 12172 00f1 3A       		.uleb128 0x3a
 12173 00f2 0B       		.uleb128 0xb
 12174 00f3 3B       		.uleb128 0x3b
 12175 00f4 05       		.uleb128 0x5
 12176 00f5 49       		.uleb128 0x49
 12177 00f6 13       		.uleb128 0x13
 12178 00f7 38       		.uleb128 0x38
 12179 00f8 05       		.uleb128 0x5
 12180 00f9 00       		.byte	0
 12181 00fa 00       		.byte	0
 12182 00fb 16       		.uleb128 0x16
 12183 00fc 13       		.uleb128 0x13
 12184 00fd 01       		.byte	0x1
 12185 00fe 03       		.uleb128 0x3
 12186 00ff 0E       		.uleb128 0xe
 12187 0100 0B       		.uleb128 0xb
 12188 0101 0B       		.uleb128 0xb
 12189 0102 3A       		.uleb128 0x3a
 12190 0103 0B       		.uleb128 0xb
 12191 0104 3B       		.uleb128 0x3b
 12192 0105 0B       		.uleb128 0xb
 12193 0106 01       		.uleb128 0x1
ARM GAS  C:\Users\AHMED~1.ELE\AppData\Local\Temp\ccWApJgZ.s 			page 229


 12194 0107 13       		.uleb128 0x13
 12195 0108 00       		.byte	0
 12196 0109 00       		.byte	0
 12197 010a 17       		.uleb128 0x17
 12198 010b 0D       		.uleb128 0xd
 12199 010c 00       		.byte	0
 12200 010d 03       		.uleb128 0x3
 12201 010e 0E       		.uleb128 0xe
 12202 010f 3A       		.uleb128 0x3a
 12203 0110 0B       		.uleb128 0xb
 12204 0111 3B       		.uleb128 0x3b
 12205 0112 0B       		.uleb128 0xb
 12206 0113 49       		.uleb128 0x49
 12207 0114 13       		.uleb128 0x13
 12208 0115 38       		.uleb128 0x38
 12209 0116 05       		.uleb128 0x5
 12210 0117 00       		.byte	0
 12211 0118 00       		.byte	0
 12212 0119 18       		.uleb128 0x18
 12213 011a 13       		.uleb128 0x13
 12214 011b 01       		.byte	0x1
 12215 011c 03       		.uleb128 0x3
 12216 011d 08       		.uleb128 0x8
 12217 011e 0B       		.uleb128 0xb
 12218 011f 05       		.uleb128 0x5
 12219 0120 3A       		.uleb128 0x3a
 12220 0121 0B       		.uleb128 0xb
 12221 0122 3B       		.uleb128 0x3b
 12222 0123 0B       		.uleb128 0xb
 12223 0124 01       		.uleb128 0x1
 12224 0125 13       		.uleb128 0x13
 12225 0126 00       		.byte	0
 12226 0127 00       		.byte	0
 12227 0128 19       		.uleb128 0x19
 12228 0129 04       		.uleb128 0x4
 12229 012a 01       		.byte	0x1
 12230 012b 0B       		.uleb128 0xb
 12231 012c 0B       		.uleb128 0xb
 12232 012d 3A       		.uleb128 0x3a
 12233 012e 0B       		.uleb128 0xb
 12234 012f 3B       		.uleb128 0x3b
 12235 0130 0B       		.uleb128 0xb
 12236 0131 01       		.uleb128 0x1
 12237 0132 13       		.uleb128 0x13
 12238 0133 00       		.byte	0
 12239 0134 00       		.byte	0
 12240 0135 1A       		.uleb128 0x1a
 12241 0136 28       		.uleb128 0x28
 12242 0137 00       		.byte	0
 12243 0138 03       		.uleb128 0x3
 12244 0139 0E       		.uleb128 0xe
 12245 013a 1C       		.uleb128 0x1c
 12246 013b 0D       		.uleb128 0xd
 12247 013c 00       		.byte	0
 12248 013d 00       		.byte	0
 12249 013e 1B       		.uleb128 0x1b
 12250 013f 2E       		.uleb128 0x2e
ARM GAS  C:\Users\AHMED~1.ELE\AppData\Local\Temp\ccWApJgZ.s 			page 230


 12251 0140 01       		.byte	0x1
 12252 0141 03       		.uleb128 0x3
 12253 0142 0E       		.uleb128 0xe
 12254 0143 3A       		.uleb128 0x3a
 12255 0144 0B       		.uleb128 0xb
 12256 0145 3B       		.uleb128 0x3b
 12257 0146 0B       		.uleb128 0xb
 12258 0147 27       		.uleb128 0x27
 12259 0148 19       		.uleb128 0x19
 12260 0149 49       		.uleb128 0x49
 12261 014a 13       		.uleb128 0x13
 12262 014b 20       		.uleb128 0x20
 12263 014c 0B       		.uleb128 0xb
 12264 014d 01       		.uleb128 0x1
 12265 014e 13       		.uleb128 0x13
 12266 014f 00       		.byte	0
 12267 0150 00       		.byte	0
 12268 0151 1C       		.uleb128 0x1c
 12269 0152 05       		.uleb128 0x5
 12270 0153 00       		.byte	0
 12271 0154 03       		.uleb128 0x3
 12272 0155 0E       		.uleb128 0xe
 12273 0156 3A       		.uleb128 0x3a
 12274 0157 0B       		.uleb128 0xb
 12275 0158 3B       		.uleb128 0x3b
 12276 0159 0B       		.uleb128 0xb
 12277 015a 49       		.uleb128 0x49
 12278 015b 13       		.uleb128 0x13
 12279 015c 00       		.byte	0
 12280 015d 00       		.byte	0
 12281 015e 1D       		.uleb128 0x1d
 12282 015f 34       		.uleb128 0x34
 12283 0160 00       		.byte	0
 12284 0161 03       		.uleb128 0x3
 12285 0162 0E       		.uleb128 0xe
 12286 0163 3A       		.uleb128 0x3a
 12287 0164 0B       		.uleb128 0xb
 12288 0165 3B       		.uleb128 0x3b
 12289 0166 0B       		.uleb128 0xb
 12290 0167 49       		.uleb128 0x49
 12291 0168 13       		.uleb128 0x13
 12292 0169 00       		.byte	0
 12293 016a 00       		.byte	0
 12294 016b 1E       		.uleb128 0x1e
 12295 016c 2E       		.uleb128 0x2e
 12296 016d 01       		.byte	0x1
 12297 016e 3F       		.uleb128 0x3f
 12298 016f 19       		.uleb128 0x19
 12299 0170 03       		.uleb128 0x3
 12300 0171 0E       		.uleb128 0xe
 12301 0172 3A       		.uleb128 0x3a
 12302 0173 0B       		.uleb128 0xb
 12303 0174 3B       		.uleb128 0x3b
 12304 0175 0B       		.uleb128 0xb
 12305 0176 27       		.uleb128 0x27
 12306 0177 19       		.uleb128 0x19
 12307 0178 11       		.uleb128 0x11
ARM GAS  C:\Users\AHMED~1.ELE\AppData\Local\Temp\ccWApJgZ.s 			page 231


 12308 0179 01       		.uleb128 0x1
 12309 017a 12       		.uleb128 0x12
 12310 017b 06       		.uleb128 0x6
 12311 017c 40       		.uleb128 0x40
 12312 017d 18       		.uleb128 0x18
 12313 017e 9742     		.uleb128 0x2117
 12314 0180 19       		.uleb128 0x19
 12315 0181 01       		.uleb128 0x1
 12316 0182 13       		.uleb128 0x13
 12317 0183 00       		.byte	0
 12318 0184 00       		.byte	0
 12319 0185 1F       		.uleb128 0x1f
 12320 0186 05       		.uleb128 0x5
 12321 0187 00       		.byte	0
 12322 0188 03       		.uleb128 0x3
 12323 0189 0E       		.uleb128 0xe
 12324 018a 3A       		.uleb128 0x3a
 12325 018b 0B       		.uleb128 0xb
 12326 018c 3B       		.uleb128 0x3b
 12327 018d 0B       		.uleb128 0xb
 12328 018e 49       		.uleb128 0x49
 12329 018f 13       		.uleb128 0x13
 12330 0190 02       		.uleb128 0x2
 12331 0191 18       		.uleb128 0x18
 12332 0192 00       		.byte	0
 12333 0193 00       		.byte	0
 12334 0194 20       		.uleb128 0x20
 12335 0195 05       		.uleb128 0x5
 12336 0196 00       		.byte	0
 12337 0197 03       		.uleb128 0x3
 12338 0198 0E       		.uleb128 0xe
 12339 0199 3A       		.uleb128 0x3a
 12340 019a 0B       		.uleb128 0xb
 12341 019b 3B       		.uleb128 0x3b
 12342 019c 0B       		.uleb128 0xb
 12343 019d 49       		.uleb128 0x49
 12344 019e 13       		.uleb128 0x13
 12345 019f 02       		.uleb128 0x2
 12346 01a0 17       		.uleb128 0x17
 12347 01a1 00       		.byte	0
 12348 01a2 00       		.byte	0
 12349 01a3 21       		.uleb128 0x21
 12350 01a4 34       		.uleb128 0x34
 12351 01a5 00       		.byte	0
 12352 01a6 03       		.uleb128 0x3
 12353 01a7 08       		.uleb128 0x8
 12354 01a8 3A       		.uleb128 0x3a
 12355 01a9 0B       		.uleb128 0xb
 12356 01aa 3B       		.uleb128 0x3b
 12357 01ab 0B       		.uleb128 0xb
 12358 01ac 49       		.uleb128 0x49
 12359 01ad 13       		.uleb128 0x13
 12360 01ae 00       		.byte	0
 12361 01af 00       		.byte	0
 12362 01b0 22       		.uleb128 0x22
 12363 01b1 898201   		.uleb128 0x4109
 12364 01b4 00       		.byte	0
ARM GAS  C:\Users\AHMED~1.ELE\AppData\Local\Temp\ccWApJgZ.s 			page 232


 12365 01b5 11       		.uleb128 0x11
 12366 01b6 01       		.uleb128 0x1
 12367 01b7 31       		.uleb128 0x31
 12368 01b8 13       		.uleb128 0x13
 12369 01b9 00       		.byte	0
 12370 01ba 00       		.byte	0
 12371 01bb 23       		.uleb128 0x23
 12372 01bc 898201   		.uleb128 0x4109
 12373 01bf 01       		.byte	0x1
 12374 01c0 11       		.uleb128 0x11
 12375 01c1 01       		.uleb128 0x1
 12376 01c2 31       		.uleb128 0x31
 12377 01c3 13       		.uleb128 0x13
 12378 01c4 01       		.uleb128 0x1
 12379 01c5 13       		.uleb128 0x13
 12380 01c6 00       		.byte	0
 12381 01c7 00       		.byte	0
 12382 01c8 24       		.uleb128 0x24
 12383 01c9 8A8201   		.uleb128 0x410a
 12384 01cc 00       		.byte	0
 12385 01cd 02       		.uleb128 0x2
 12386 01ce 18       		.uleb128 0x18
 12387 01cf 9142     		.uleb128 0x2111
 12388 01d1 18       		.uleb128 0x18
 12389 01d2 00       		.byte	0
 12390 01d3 00       		.byte	0
 12391 01d4 25       		.uleb128 0x25
 12392 01d5 898201   		.uleb128 0x4109
 12393 01d8 01       		.byte	0x1
 12394 01d9 11       		.uleb128 0x11
 12395 01da 01       		.uleb128 0x1
 12396 01db 9542     		.uleb128 0x2115
 12397 01dd 19       		.uleb128 0x19
 12398 01de 31       		.uleb128 0x31
 12399 01df 13       		.uleb128 0x13
 12400 01e0 00       		.byte	0
 12401 01e1 00       		.byte	0
 12402 01e2 26       		.uleb128 0x26
 12403 01e3 2E       		.uleb128 0x2e
 12404 01e4 01       		.byte	0x1
 12405 01e5 03       		.uleb128 0x3
 12406 01e6 0E       		.uleb128 0xe
 12407 01e7 3A       		.uleb128 0x3a
 12408 01e8 0B       		.uleb128 0xb
 12409 01e9 3B       		.uleb128 0x3b
 12410 01ea 0B       		.uleb128 0xb
 12411 01eb 27       		.uleb128 0x27
 12412 01ec 19       		.uleb128 0x19
 12413 01ed 20       		.uleb128 0x20
 12414 01ee 0B       		.uleb128 0xb
 12415 01ef 01       		.uleb128 0x1
 12416 01f0 13       		.uleb128 0x13
 12417 01f1 00       		.byte	0
 12418 01f2 00       		.byte	0
 12419 01f3 27       		.uleb128 0x27
 12420 01f4 2E       		.uleb128 0x2e
 12421 01f5 01       		.byte	0x1
ARM GAS  C:\Users\AHMED~1.ELE\AppData\Local\Temp\ccWApJgZ.s 			page 233


 12422 01f6 3F       		.uleb128 0x3f
 12423 01f7 19       		.uleb128 0x19
 12424 01f8 03       		.uleb128 0x3
 12425 01f9 0E       		.uleb128 0xe
 12426 01fa 3A       		.uleb128 0x3a
 12427 01fb 0B       		.uleb128 0xb
 12428 01fc 3B       		.uleb128 0x3b
 12429 01fd 05       		.uleb128 0x5
 12430 01fe 27       		.uleb128 0x27
 12431 01ff 19       		.uleb128 0x19
 12432 0200 49       		.uleb128 0x49
 12433 0201 13       		.uleb128 0x13
 12434 0202 11       		.uleb128 0x11
 12435 0203 01       		.uleb128 0x1
 12436 0204 12       		.uleb128 0x12
 12437 0205 06       		.uleb128 0x6
 12438 0206 40       		.uleb128 0x40
 12439 0207 18       		.uleb128 0x18
 12440 0208 9742     		.uleb128 0x2117
 12441 020a 19       		.uleb128 0x19
 12442 020b 01       		.uleb128 0x1
 12443 020c 13       		.uleb128 0x13
 12444 020d 00       		.byte	0
 12445 020e 00       		.byte	0
 12446 020f 28       		.uleb128 0x28
 12447 0210 34       		.uleb128 0x34
 12448 0211 00       		.byte	0
 12449 0212 03       		.uleb128 0x3
 12450 0213 0E       		.uleb128 0xe
 12451 0214 3A       		.uleb128 0x3a
 12452 0215 0B       		.uleb128 0xb
 12453 0216 3B       		.uleb128 0x3b
 12454 0217 05       		.uleb128 0x5
 12455 0218 49       		.uleb128 0x49
 12456 0219 13       		.uleb128 0x13
 12457 021a 02       		.uleb128 0x2
 12458 021b 17       		.uleb128 0x17
 12459 021c 00       		.byte	0
 12460 021d 00       		.byte	0
 12461 021e 29       		.uleb128 0x29
 12462 021f 34       		.uleb128 0x34
 12463 0220 00       		.byte	0
 12464 0221 03       		.uleb128 0x3
 12465 0222 0E       		.uleb128 0xe
 12466 0223 3A       		.uleb128 0x3a
 12467 0224 0B       		.uleb128 0xb
 12468 0225 3B       		.uleb128 0x3b
 12469 0226 05       		.uleb128 0x5
 12470 0227 49       		.uleb128 0x49
 12471 0228 13       		.uleb128 0x13
 12472 0229 02       		.uleb128 0x2
 12473 022a 18       		.uleb128 0x18
 12474 022b 00       		.byte	0
 12475 022c 00       		.byte	0
 12476 022d 2A       		.uleb128 0x2a
 12477 022e 34       		.uleb128 0x34
 12478 022f 00       		.byte	0
ARM GAS  C:\Users\AHMED~1.ELE\AppData\Local\Temp\ccWApJgZ.s 			page 234


 12479 0230 03       		.uleb128 0x3
 12480 0231 08       		.uleb128 0x8
 12481 0232 3A       		.uleb128 0x3a
 12482 0233 0B       		.uleb128 0xb
 12483 0234 3B       		.uleb128 0x3b
 12484 0235 05       		.uleb128 0x5
 12485 0236 49       		.uleb128 0x49
 12486 0237 13       		.uleb128 0x13
 12487 0238 02       		.uleb128 0x2
 12488 0239 17       		.uleb128 0x17
 12489 023a 00       		.byte	0
 12490 023b 00       		.byte	0
 12491 023c 2B       		.uleb128 0x2b
 12492 023d 1D       		.uleb128 0x1d
 12493 023e 01       		.byte	0x1
 12494 023f 31       		.uleb128 0x31
 12495 0240 13       		.uleb128 0x13
 12496 0241 11       		.uleb128 0x11
 12497 0242 01       		.uleb128 0x1
 12498 0243 12       		.uleb128 0x12
 12499 0244 06       		.uleb128 0x6
 12500 0245 58       		.uleb128 0x58
 12501 0246 0B       		.uleb128 0xb
 12502 0247 59       		.uleb128 0x59
 12503 0248 05       		.uleb128 0x5
 12504 0249 01       		.uleb128 0x1
 12505 024a 13       		.uleb128 0x13
 12506 024b 00       		.byte	0
 12507 024c 00       		.byte	0
 12508 024d 2C       		.uleb128 0x2c
 12509 024e 0B       		.uleb128 0xb
 12510 024f 01       		.byte	0x1
 12511 0250 11       		.uleb128 0x11
 12512 0251 01       		.uleb128 0x1
 12513 0252 12       		.uleb128 0x12
 12514 0253 06       		.uleb128 0x6
 12515 0254 00       		.byte	0
 12516 0255 00       		.byte	0
 12517 0256 2D       		.uleb128 0x2d
 12518 0257 34       		.uleb128 0x34
 12519 0258 00       		.byte	0
 12520 0259 31       		.uleb128 0x31
 12521 025a 13       		.uleb128 0x13
 12522 025b 02       		.uleb128 0x2
 12523 025c 18       		.uleb128 0x18
 12524 025d 00       		.byte	0
 12525 025e 00       		.byte	0
 12526 025f 2E       		.uleb128 0x2e
 12527 0260 898201   		.uleb128 0x4109
 12528 0263 01       		.byte	0x1
 12529 0264 11       		.uleb128 0x11
 12530 0265 01       		.uleb128 0x1
 12531 0266 31       		.uleb128 0x31
 12532 0267 13       		.uleb128 0x13
 12533 0268 00       		.byte	0
 12534 0269 00       		.byte	0
 12535 026a 2F       		.uleb128 0x2f
ARM GAS  C:\Users\AHMED~1.ELE\AppData\Local\Temp\ccWApJgZ.s 			page 235


 12536 026b 1D       		.uleb128 0x1d
 12537 026c 01       		.byte	0x1
 12538 026d 31       		.uleb128 0x31
 12539 026e 13       		.uleb128 0x13
 12540 026f 52       		.uleb128 0x52
 12541 0270 01       		.uleb128 0x1
 12542 0271 55       		.uleb128 0x55
 12543 0272 17       		.uleb128 0x17
 12544 0273 58       		.uleb128 0x58
 12545 0274 0B       		.uleb128 0xb
 12546 0275 59       		.uleb128 0x59
 12547 0276 05       		.uleb128 0x5
 12548 0277 01       		.uleb128 0x1
 12549 0278 13       		.uleb128 0x13
 12550 0279 00       		.byte	0
 12551 027a 00       		.byte	0
 12552 027b 30       		.uleb128 0x30
 12553 027c 05       		.uleb128 0x5
 12554 027d 00       		.byte	0
 12555 027e 31       		.uleb128 0x31
 12556 027f 13       		.uleb128 0x13
 12557 0280 02       		.uleb128 0x2
 12558 0281 17       		.uleb128 0x17
 12559 0282 00       		.byte	0
 12560 0283 00       		.byte	0
 12561 0284 31       		.uleb128 0x31
 12562 0285 0B       		.uleb128 0xb
 12563 0286 01       		.byte	0x1
 12564 0287 55       		.uleb128 0x55
 12565 0288 17       		.uleb128 0x17
 12566 0289 00       		.byte	0
 12567 028a 00       		.byte	0
 12568 028b 32       		.uleb128 0x32
 12569 028c 34       		.uleb128 0x34
 12570 028d 00       		.byte	0
 12571 028e 31       		.uleb128 0x31
 12572 028f 13       		.uleb128 0x13
 12573 0290 00       		.byte	0
 12574 0291 00       		.byte	0
 12575 0292 33       		.uleb128 0x33
 12576 0293 34       		.uleb128 0x34
 12577 0294 00       		.byte	0
 12578 0295 31       		.uleb128 0x31
 12579 0296 13       		.uleb128 0x13
 12580 0297 02       		.uleb128 0x2
 12581 0298 17       		.uleb128 0x17
 12582 0299 00       		.byte	0
 12583 029a 00       		.byte	0
 12584 029b 34       		.uleb128 0x34
 12585 029c 34       		.uleb128 0x34
 12586 029d 00       		.byte	0
 12587 029e 03       		.uleb128 0x3
 12588 029f 0E       		.uleb128 0xe
 12589 02a0 3A       		.uleb128 0x3a
 12590 02a1 0B       		.uleb128 0xb
 12591 02a2 3B       		.uleb128 0x3b
 12592 02a3 0B       		.uleb128 0xb
ARM GAS  C:\Users\AHMED~1.ELE\AppData\Local\Temp\ccWApJgZ.s 			page 236


 12593 02a4 49       		.uleb128 0x49
 12594 02a5 13       		.uleb128 0x13
 12595 02a6 3F       		.uleb128 0x3f
 12596 02a7 19       		.uleb128 0x19
 12597 02a8 3C       		.uleb128 0x3c
 12598 02a9 19       		.uleb128 0x19
 12599 02aa 00       		.byte	0
 12600 02ab 00       		.byte	0
 12601 02ac 35       		.uleb128 0x35
 12602 02ad 2E       		.uleb128 0x2e
 12603 02ae 00       		.byte	0
 12604 02af 3F       		.uleb128 0x3f
 12605 02b0 19       		.uleb128 0x19
 12606 02b1 03       		.uleb128 0x3
 12607 02b2 0E       		.uleb128 0xe
 12608 02b3 3A       		.uleb128 0x3a
 12609 02b4 0B       		.uleb128 0xb
 12610 02b5 3B       		.uleb128 0x3b
 12611 02b6 0B       		.uleb128 0xb
 12612 02b7 27       		.uleb128 0x27
 12613 02b8 19       		.uleb128 0x19
 12614 02b9 49       		.uleb128 0x49
 12615 02ba 13       		.uleb128 0x13
 12616 02bb 3C       		.uleb128 0x3c
 12617 02bc 19       		.uleb128 0x19
 12618 02bd 00       		.byte	0
 12619 02be 00       		.byte	0
 12620 02bf 36       		.uleb128 0x36
 12621 02c0 2E       		.uleb128 0x2e
 12622 02c1 01       		.byte	0x1
 12623 02c2 3F       		.uleb128 0x3f
 12624 02c3 19       		.uleb128 0x19
 12625 02c4 03       		.uleb128 0x3
 12626 02c5 0E       		.uleb128 0xe
 12627 02c6 3A       		.uleb128 0x3a
 12628 02c7 0B       		.uleb128 0xb
 12629 02c8 3B       		.uleb128 0x3b
 12630 02c9 0B       		.uleb128 0xb
 12631 02ca 27       		.uleb128 0x27
 12632 02cb 19       		.uleb128 0x19
 12633 02cc 3C       		.uleb128 0x3c
 12634 02cd 19       		.uleb128 0x19
 12635 02ce 01       		.uleb128 0x1
 12636 02cf 13       		.uleb128 0x13
 12637 02d0 00       		.byte	0
 12638 02d1 00       		.byte	0
 12639 02d2 37       		.uleb128 0x37
 12640 02d3 05       		.uleb128 0x5
 12641 02d4 00       		.byte	0
 12642 02d5 49       		.uleb128 0x49
 12643 02d6 13       		.uleb128 0x13
 12644 02d7 00       		.byte	0
 12645 02d8 00       		.byte	0
 12646 02d9 38       		.uleb128 0x38
 12647 02da 2E       		.uleb128 0x2e
 12648 02db 01       		.byte	0x1
 12649 02dc 3F       		.uleb128 0x3f
ARM GAS  C:\Users\AHMED~1.ELE\AppData\Local\Temp\ccWApJgZ.s 			page 237


 12650 02dd 19       		.uleb128 0x19
 12651 02de 03       		.uleb128 0x3
 12652 02df 0E       		.uleb128 0xe
 12653 02e0 3A       		.uleb128 0x3a
 12654 02e1 0B       		.uleb128 0xb
 12655 02e2 3B       		.uleb128 0x3b
 12656 02e3 0B       		.uleb128 0xb
 12657 02e4 27       		.uleb128 0x27
 12658 02e5 19       		.uleb128 0x19
 12659 02e6 49       		.uleb128 0x49
 12660 02e7 13       		.uleb128 0x13
 12661 02e8 3C       		.uleb128 0x3c
 12662 02e9 19       		.uleb128 0x19
 12663 02ea 01       		.uleb128 0x1
 12664 02eb 13       		.uleb128 0x13
 12665 02ec 00       		.byte	0
 12666 02ed 00       		.byte	0
 12667 02ee 39       		.uleb128 0x39
 12668 02ef 2E       		.uleb128 0x2e
 12669 02f0 01       		.byte	0x1
 12670 02f1 3F       		.uleb128 0x3f
 12671 02f2 19       		.uleb128 0x19
 12672 02f3 03       		.uleb128 0x3
 12673 02f4 0E       		.uleb128 0xe
 12674 02f5 27       		.uleb128 0x27
 12675 02f6 19       		.uleb128 0x19
 12676 02f7 49       		.uleb128 0x49
 12677 02f8 13       		.uleb128 0x13
 12678 02f9 34       		.uleb128 0x34
 12679 02fa 19       		.uleb128 0x19
 12680 02fb 3C       		.uleb128 0x3c
 12681 02fc 19       		.uleb128 0x19
 12682 02fd 01       		.uleb128 0x1
 12683 02fe 13       		.uleb128 0x13
 12684 02ff 00       		.byte	0
 12685 0300 00       		.byte	0
 12686 0301 3A       		.uleb128 0x3a
 12687 0302 2E       		.uleb128 0x2e
 12688 0303 01       		.byte	0x1
 12689 0304 3F       		.uleb128 0x3f
 12690 0305 19       		.uleb128 0x19
 12691 0306 03       		.uleb128 0x3
 12692 0307 0E       		.uleb128 0xe
 12693 0308 3A       		.uleb128 0x3a
 12694 0309 0B       		.uleb128 0xb
 12695 030a 3B       		.uleb128 0x3b
 12696 030b 0B       		.uleb128 0xb
 12697 030c 27       		.uleb128 0x27
 12698 030d 19       		.uleb128 0x19
 12699 030e 3C       		.uleb128 0x3c
 12700 030f 19       		.uleb128 0x19
 12701 0310 00       		.byte	0
 12702 0311 00       		.byte	0
 12703 0312 00       		.byte	0
 12704              		.section	.debug_loc,"",%progbits
 12705              	.Ldebug_loc0:
 12706              	.LLST0:
ARM GAS  C:\Users\AHMED~1.ELE\AppData\Local\Temp\ccWApJgZ.s 			page 238


 12707 0000 00000000 		.4byte	.LVL0
 12708 0004 28000000 		.4byte	.LVL1
 12709 0008 0100     		.2byte	0x1
 12710 000a 51       		.byte	0x51
 12711 000b 28000000 		.4byte	.LVL1
 12712 000f 3C000000 		.4byte	.LFE4
 12713 0013 0100     		.2byte	0x1
 12714 0015 51       		.byte	0x51
 12715 0016 00000000 		.4byte	0
 12716 001a 00000000 		.4byte	0
 12717              	.LLST1:
 12718 001e DC000000 		.4byte	.LVL489
 12719 0022 DE000000 		.4byte	.LVL490
 12720 0026 0100     		.2byte	0x1
 12721 0028 50       		.byte	0x50
 12722 0029 DE000000 		.4byte	.LVL490
 12723 002d EC000000 		.4byte	.LVL492
 12724 0031 0100     		.2byte	0x1
 12725 0033 57       		.byte	0x57
 12726 0034 68030000 		.4byte	.LVL557
 12727 0038 6D030000 		.4byte	.LVL558-1
 12728 003c 0100     		.2byte	0x1
 12729 003e 50       		.byte	0x50
 12730 003f 6D030000 		.4byte	.LVL558-1
 12731 0043 86030000 		.4byte	.LVL561
 12732 0047 0100     		.2byte	0x1
 12733 0049 59       		.byte	0x59
 12734 004a 96030000 		.4byte	.LVL563
 12735 004e A0030000 		.4byte	.LVL564
 12736 0052 0100     		.2byte	0x1
 12737 0054 50       		.byte	0x50
 12738 0055 00000000 		.4byte	0
 12739 0059 00000000 		.4byte	0
 12740              	.LLST2:
 12741 005d 98000000 		.4byte	.LVL484
 12742 0061 C0000000 		.4byte	.LVL485
 12743 0065 0100     		.2byte	0x1
 12744 0067 50       		.byte	0x50
 12745 0068 52040000 		.4byte	.LVL571
 12746 006c 56040000 		.4byte	.LVL572
 12747 0070 0100     		.2byte	0x1
 12748 0072 50       		.byte	0x50
 12749 0073 00000000 		.4byte	0
 12750 0077 00000000 		.4byte	0
 12751              	.LLST3:
 12752 007b 30010000 		.4byte	.LVL499
 12753 007f 3A010000 		.4byte	.LVL500
 12754 0083 0100     		.2byte	0x1
 12755 0085 50       		.byte	0x50
 12756 0086 3E010000 		.4byte	.LVL501
 12757 008a 40010000 		.4byte	.LVL502
 12758 008e 0100     		.2byte	0x1
 12759 0090 50       		.byte	0x50
 12760 0091 00000000 		.4byte	0
 12761 0095 00000000 		.4byte	0
 12762              	.LLST4:
 12763 0099 8E000000 		.4byte	.LVL482
ARM GAS  C:\Users\AHMED~1.ELE\AppData\Local\Temp\ccWApJgZ.s 			page 239


 12764 009d 40010000 		.4byte	.LVL502
 12765 00a1 0200     		.2byte	0x2
 12766 00a3 30       		.byte	0x30
 12767 00a4 9F       		.byte	0x9f
 12768 00a5 40010000 		.4byte	.LVL502
 12769 00a9 9E010000 		.4byte	.LVL516
 12770 00ad 0100     		.2byte	0x1
 12771 00af 57       		.byte	0x57
 12772 00b0 A4010000 		.4byte	.LVL517
 12773 00b4 76020000 		.4byte	.LVL537
 12774 00b8 0100     		.2byte	0x1
 12775 00ba 57       		.byte	0x57
 12776 00bb 7C020000 		.4byte	.LVL538
 12777 00bf 00030000 		.4byte	.LVL551
 12778 00c3 0100     		.2byte	0x1
 12779 00c5 57       		.byte	0x57
 12780 00c6 44030000 		.4byte	.LVL552
 12781 00ca 52040000 		.4byte	.LVL571
 12782 00ce 0100     		.2byte	0x1
 12783 00d0 57       		.byte	0x57
 12784 00d1 52040000 		.4byte	.LVL571
 12785 00d5 56040000 		.4byte	.LVL572
 12786 00d9 0200     		.2byte	0x2
 12787 00db 30       		.byte	0x30
 12788 00dc 9F       		.byte	0x9f
 12789 00dd 56040000 		.4byte	.LVL572
 12790 00e1 58040000 		.4byte	.LVL573
 12791 00e5 0100     		.2byte	0x1
 12792 00e7 57       		.byte	0x57
 12793 00e8 00000000 		.4byte	0
 12794 00ec 00000000 		.4byte	0
 12795              	.LLST5:
 12796 00f0 8E000000 		.4byte	.LVL482
 12797 00f4 B8010000 		.4byte	.LVL519
 12798 00f8 0200     		.2byte	0x2
 12799 00fa 30       		.byte	0x30
 12800 00fb 9F       		.byte	0x9f
 12801 00fc B8010000 		.4byte	.LVL519
 12802 0100 C4010000 		.4byte	.LVL521
 12803 0104 0200     		.2byte	0x2
 12804 0106 40       		.byte	0x40
 12805 0107 9F       		.byte	0x9f
 12806 0108 C4010000 		.4byte	.LVL521
 12807 010c 76020000 		.4byte	.LVL537
 12808 0110 0100     		.2byte	0x1
 12809 0112 58       		.byte	0x58
 12810 0113 7C020000 		.4byte	.LVL538
 12811 0117 00030000 		.4byte	.LVL551
 12812 011b 0100     		.2byte	0x1
 12813 011d 58       		.byte	0x58
 12814 011e 44030000 		.4byte	.LVL552
 12815 0122 52040000 		.4byte	.LVL571
 12816 0126 0100     		.2byte	0x1
 12817 0128 58       		.byte	0x58
 12818 0129 52040000 		.4byte	.LVL571
 12819 012d 56040000 		.4byte	.LVL572
 12820 0131 0200     		.2byte	0x2
ARM GAS  C:\Users\AHMED~1.ELE\AppData\Local\Temp\ccWApJgZ.s 			page 240


 12821 0133 30       		.byte	0x30
 12822 0134 9F       		.byte	0x9f
 12823 0135 56040000 		.4byte	.LVL572
 12824 0139 58040000 		.4byte	.LVL573
 12825 013d 0100     		.2byte	0x1
 12826 013f 58       		.byte	0x58
 12827 0140 00000000 		.4byte	0
 12828 0144 00000000 		.4byte	0
 12829              	.LLST6:
 12830 0148 50010000 		.4byte	.LVL504
 12831 014c 6C010000 		.4byte	.LVL508
 12832 0150 0200     		.2byte	0x2
 12833 0152 36       		.byte	0x36
 12834 0153 9F       		.byte	0x9f
 12835 0154 00000000 		.4byte	0
 12836 0158 00000000 		.4byte	0
 12837              	.LLST7:
 12838 015c 50010000 		.4byte	.LVL504
 12839 0160 52010000 		.4byte	.LVL505
 12840 0164 0100     		.2byte	0x1
 12841 0166 50       		.byte	0x50
 12842 0167 52010000 		.4byte	.LVL505
 12843 016b 55010000 		.4byte	.LVL506-1
 12844 016f 0100     		.2byte	0x1
 12845 0171 51       		.byte	0x51
 12846 0172 00000000 		.4byte	0
 12847 0176 00000000 		.4byte	0
 12848              	.LLST10:
 12849 017a 7C010000 		.4byte	.LVL509
 12850 017e 9E010000 		.4byte	.LVL516
 12851 0182 0200     		.2byte	0x2
 12852 0184 33       		.byte	0x33
 12853 0185 9F       		.byte	0x9f
 12854 0186 00000000 		.4byte	0
 12855 018a 00000000 		.4byte	0
 12856              	.LLST11:
 12857 018e 86010000 		.4byte	.LVL511
 12858 0192 89010000 		.4byte	.LVL512-1
 12859 0196 0100     		.2byte	0x1
 12860 0198 50       		.byte	0x50
 12861 0199 00000000 		.4byte	0
 12862 019d 00000000 		.4byte	0
 12863              	.LLST12:
 12864 01a1 8C010000 		.4byte	.LVL513
 12865 01a5 8E010000 		.4byte	.LVL514
 12866 01a9 0500     		.2byte	0x5
 12867 01ab 70       		.byte	0x70
 12868 01ac 00       		.sleb128 0
 12869 01ad 30       		.byte	0x30
 12870 01ae 29       		.byte	0x29
 12871 01af 9F       		.byte	0x9f
 12872 01b0 8E010000 		.4byte	.LVL514
 12873 01b4 9E010000 		.4byte	.LVL516
 12874 01b8 0500     		.2byte	0x5
 12875 01ba 78       		.byte	0x78
 12876 01bb 00       		.sleb128 0
 12877 01bc 30       		.byte	0x30
ARM GAS  C:\Users\AHMED~1.ELE\AppData\Local\Temp\ccWApJgZ.s 			page 241


 12878 01bd 29       		.byte	0x29
 12879 01be 9F       		.byte	0x9f
 12880 01bf 00000000 		.4byte	0
 12881 01c3 00000000 		.4byte	0
 12882              	.LLST13:
 12883 01c7 56020000 		.4byte	.LVL531
 12884 01cb 76020000 		.4byte	.LVL537
 12885 01cf 0200     		.2byte	0x2
 12886 01d1 38       		.byte	0x38
 12887 01d2 9F       		.byte	0x9f
 12888 01d3 00000000 		.4byte	0
 12889 01d7 00000000 		.4byte	0
 12890              	.LLST14:
 12891 01db 56020000 		.4byte	.LVL531
 12892 01df 66020000 		.4byte	.LVL534
 12893 01e3 0100     		.2byte	0x1
 12894 01e5 59       		.byte	0x59
 12895 01e6 00000000 		.4byte	0
 12896 01ea 00000000 		.4byte	0
 12897              	.LLST15:
 12898 01ee 66020000 		.4byte	.LVL534
 12899 01f2 68020000 		.4byte	.LVL535
 12900 01f6 0500     		.2byte	0x5
 12901 01f8 70       		.byte	0x70
 12902 01f9 00       		.sleb128 0
 12903 01fa 30       		.byte	0x30
 12904 01fb 29       		.byte	0x29
 12905 01fc 9F       		.byte	0x9f
 12906 01fd 68020000 		.4byte	.LVL535
 12907 0201 76020000 		.4byte	.LVL537
 12908 0205 0500     		.2byte	0x5
 12909 0207 79       		.byte	0x79
 12910 0208 00       		.sleb128 0
 12911 0209 30       		.byte	0x30
 12912 020a 29       		.byte	0x29
 12913 020b 9F       		.byte	0x9f
 12914 020c 00000000 		.4byte	0
 12915 0210 00000000 		.4byte	0
 12916              	.LLST16:
 12917 0214 AA020000 		.4byte	.LVL542
 12918 0218 D2020000 		.4byte	.LVL548
 12919 021c 0100     		.2byte	0x1
 12920 021e 5A       		.byte	0x5a
 12921 021f 00000000 		.4byte	0
 12922 0223 00000000 		.4byte	0
 12923              	.LLST17:
 12924 0227 AA020000 		.4byte	.LVL542
 12925 022b B7020000 		.4byte	.LVL544-1
 12926 022f 0100     		.2byte	0x1
 12927 0231 51       		.byte	0x51
 12928 0232 B7020000 		.4byte	.LVL544-1
 12929 0236 CA020000 		.4byte	.LVL546
 12930 023a 0200     		.2byte	0x2
 12931 023c 7D       		.byte	0x7d
 12932 023d 00       		.sleb128 0
 12933 023e CA020000 		.4byte	.LVL546
 12934 0242 CE020000 		.4byte	.LVL547
ARM GAS  C:\Users\AHMED~1.ELE\AppData\Local\Temp\ccWApJgZ.s 			page 242


 12935 0246 0100     		.2byte	0x1
 12936 0248 51       		.byte	0x51
 12937 0249 CE020000 		.4byte	.LVL547
 12938 024d D2020000 		.4byte	.LVL548
 12939 0251 0200     		.2byte	0x2
 12940 0253 7D       		.byte	0x7d
 12941 0254 00       		.sleb128 0
 12942 0255 00000000 		.4byte	0
 12943 0259 00000000 		.4byte	0
 12944              	.LLST18:
 12945 025d B0020000 		.4byte	.LVL543
 12946 0261 CA020000 		.4byte	.LVL546
 12947 0265 0100     		.2byte	0x1
 12948 0267 5A       		.byte	0x5a
 12949 0268 00000000 		.4byte	0
 12950 026c 00000000 		.4byte	0
 12951              	.LLST19:
 12952 0270 B0020000 		.4byte	.LVL543
 12953 0274 B7020000 		.4byte	.LVL544-1
 12954 0278 0100     		.2byte	0x1
 12955 027a 51       		.byte	0x51
 12956 027b B7020000 		.4byte	.LVL544-1
 12957 027f CA020000 		.4byte	.LVL546
 12958 0283 0200     		.2byte	0x2
 12959 0285 7D       		.byte	0x7d
 12960 0286 00       		.sleb128 0
 12961 0287 00000000 		.4byte	0
 12962 028b 00000000 		.4byte	0
 12963              		.section	.debug_aranges,"",%progbits
 12964 0000 2C000000 		.4byte	0x2c
 12965 0004 0200     		.2byte	0x2
 12966 0006 00000000 		.4byte	.Ldebug_info0
 12967 000a 04       		.byte	0x4
 12968 000b 00       		.byte	0
 12969 000c 0000     		.2byte	0
 12970 000e 0000     		.2byte	0
 12971 0010 00000000 		.4byte	.LFB4
 12972 0014 3C000000 		.4byte	.LFE4-.LFB4
 12973 0018 00000000 		.4byte	.LFB5
 12974 001c 180B0000 		.4byte	.LFE5-.LFB5
 12975 0020 00000000 		.4byte	.LFB6
 12976 0024 78040000 		.4byte	.LFE6-.LFB6
 12977 0028 00000000 		.4byte	0
 12978 002c 00000000 		.4byte	0
 12979              		.section	.debug_ranges,"",%progbits
 12980              	.Ldebug_ranges0:
 12981 0000 4C010000 		.4byte	.LBB20
 12982 0004 4E010000 		.4byte	.LBE20
 12983 0008 50010000 		.4byte	.LBB27
 12984 000c 66010000 		.4byte	.LBE27
 12985 0010 00000000 		.4byte	0
 12986 0014 00000000 		.4byte	0
 12987 0018 A2020000 		.4byte	.LBB32
 12988 001c A6020000 		.4byte	.LBE32
 12989 0020 AA020000 		.4byte	.LBB37
 12990 0024 CE020000 		.4byte	.LBE37
 12991 0028 00000000 		.4byte	0
ARM GAS  C:\Users\AHMED~1.ELE\AppData\Local\Temp\ccWApJgZ.s 			page 243


 12992 002c 00000000 		.4byte	0
 12993 0030 00000000 		.4byte	.LFB4
 12994 0034 3C000000 		.4byte	.LFE4
 12995 0038 00000000 		.4byte	.LFB5
 12996 003c 180B0000 		.4byte	.LFE5
 12997 0040 00000000 		.4byte	.LFB6
 12998 0044 78040000 		.4byte	.LFE6
 12999 0048 00000000 		.4byte	0
 13000 004c 00000000 		.4byte	0
 13001              		.section	.debug_line,"",%progbits
 13002              	.Ldebug_line0:
 13003 0000 A6020000 		.section	.debug_str,"MS",%progbits,1
 13003      02006A01 
 13003      00000201 
 13003      FB0E0D00 
 13003      01010101 
 13004              	.LASF137:
 13005 0000 73625F70 		.ascii	"sb_pan_format\000"
 13005      616E5F66 
 13005      6F726D61 
 13005      7400
 13006              	.LASF174:
 13007 000e 625F6D6F 		.ascii	"b_month\000"
 13007      6E746800 
 13008              	.LASF329:
 13009 0016 4544435F 		.ascii	"EDC_AJ_OVERLIMIT\000"
 13009      414A5F4F 
 13009      5645524C 
 13009      494D4954 
 13009      00
 13010              	.LASF296:
 13011 0027 4544435F 		.ascii	"EDC_CN_VOID\000"
 13011      434E5F56 
 13011      4F494400 
 13012              	.LASF125:
 13013 0033 61706E32 		.ascii	"apn2_port\000"
 13013      5F706F72 
 13013      7400
 13014              	.LASF165:
 13015 003d 625F7374 		.ascii	"b_status\000"
 13015      61747573 
 13015      00
 13016              	.LASF56:
 13017 0046 625F7265 		.ascii	"b_return_timeout\000"
 13017      7475726E 
 13017      5F74696D 
 13017      656F7574 
 13017      00
 13018              	.LASF9:
 13019 0057 73697A65 		.ascii	"sizetype\000"
 13019      74797065 
 13019      00
 13020              	.LASF458:
 13021 0060 6C656E5F 		.ascii	"len_ptr\000"
 13021      70747200 
 13022              	.LASF160:
 13023 0068 73625F76 		.ascii	"sb_visa1_term_id\000"
ARM GAS  C:\Users\AHMED~1.ELE\AppData\Local\Temp\ccWApJgZ.s 			page 244


 13023      69736131 
 13023      5F746572 
 13023      6D5F6964 
 13023      00
 13024              	.LASF486:
 13025 0079 45787472 		.ascii	"ExtraMsgLen\000"
 13025      614D7367 
 13025      4C656E00 
 13026              	.LASF310:
 13027 0085 4544435F 		.ascii	"EDC_IN_INV_TIPS\000"
 13027      494E5F49 
 13027      4E565F54 
 13027      49505300 
 13028              	.LASF354:
 13029 0095 4544435F 		.ascii	"EDC_RSP_COMPLETED\000"
 13029      5253505F 
 13029      434F4D50 
 13029      4C455445 
 13029      4400
 13030              	.LASF251:
 13031 00a7 625F6469 		.ascii	"b_disp_chgd\000"
 13031      73705F63 
 13031      68676400 
 13032              	.LASF108:
 13033 00b3 625F7472 		.ascii	"b_trans_amount_len\000"
 13033      616E735F 
 13033      616D6F75 
 13033      6E745F6C 
 13033      656E00
 13034              	.LASF404:
 13035 00c6 4544435F 		.ascii	"EDC_RSP_CARD_BLOCKED\000"
 13035      5253505F 
 13035      43415244 
 13035      5F424C4F 
 13035      434B4544 
 13036              	.LASF212:
 13037 00db 625F7479 		.ascii	"b_type\000"
 13037      706500
 13038              	.LASF438:
 13039 00e2 625F6361 		.ascii	"b_card_expired\000"
 13039      72645F65 
 13039      78706972 
 13039      656400
 13040              	.LASF166:
 13041 00f1 625F7065 		.ascii	"b_pending\000"
 13041      6E64696E 
 13041      6700
 13042              	.LASF318:
 13043 00fb 4544435F 		.ascii	"EDC_IN_TRACE\000"
 13043      494E5F54 
 13043      52414345 
 13043      00
 13044              	.LASF173:
 13045 0108 625F7965 		.ascii	"b_year\000"
 13045      617200
 13046              	.LASF0:
 13047 010f 7369676E 		.ascii	"signed char\000"
ARM GAS  C:\Users\AHMED~1.ELE\AppData\Local\Temp\ccWApJgZ.s 			page 245


 13047      65642063 
 13047      68617200 
 13048              	.LASF323:
 13049 011b 4544435F 		.ascii	"EDC_AJ_TOTAL_PROMPT\000"
 13049      414A5F54 
 13049      4F54414C 
 13049      5F50524F 
 13049      4D505400 
 13050              	.LASF78:
 13051 012f 73625F66 		.ascii	"sb_ftp_user\000"
 13051      74705F75 
 13051      73657200 
 13052              	.LASF232:
 13053 013b 625F6464 		.ascii	"b_dd\000"
 13053      00
 13054              	.LASF19:
 13055 0140 73494F5F 		.ascii	"sIO_t\000"
 13055      7400
 13056              	.LASF285:
 13057 0146 625F636F 		.ascii	"b_condition_code\000"
 13057      6E646974 
 13057      696F6E5F 
 13057      636F6465 
 13057      00
 13058              	.LASF357:
 13059 0157 4544435F 		.ascii	"EDC_RSP_INVALID_MERCH\000"
 13059      5253505F 
 13059      494E5641 
 13059      4C49445F 
 13059      4D455243 
 13060              	.LASF338:
 13061 016d 4544435F 		.ascii	"EDC_FN_CARD_REC\000"
 13061      464E5F43 
 13061      4152445F 
 13061      52454300 
 13062              	.LASF467:
 13063 017d 61507472 		.ascii	"aPtr\000"
 13063      00
 13064              	.LASF291:
 13065 0182 4544435F 		.ascii	"EDC_CN_AUTH\000"
 13065      434E5F41 
 13065      55544800 
 13066              	.LASF136:
 13067 018e 625F6465 		.ascii	"b_default_acc\000"
 13067      6661756C 
 13067      745F6163 
 13067      6300
 13068              	.LASF280:
 13069 019c 44454641 		.ascii	"DEFAULT_TRANS\000"
 13069      554C545F 
 13069      5452414E 
 13069      5300
 13070              	.LASF220:
 13071 01aa 735F7265 		.ascii	"s_refund_tot\000"
 13071      66756E64 
 13071      5F746F74 
 13071      00
ARM GAS  C:\Users\AHMED~1.ELE\AppData\Local\Temp\ccWApJgZ.s 			page 246


 13072              	.LASF204:
 13073 01b7 625F5069 		.ascii	"b_PinVerified\000"
 13073      6E566572 
 13073      69666965 
 13073      6400
 13074              	.LASF321:
 13075 01c5 4544435F 		.ascii	"EDC_TU_NOT_ALLOW\000"
 13075      54555F4E 
 13075      4F545F41 
 13075      4C4C4F57 
 13075      00
 13076              	.LASF253:
 13077 01d6 735F6563 		.ascii	"s_ecr_data\000"
 13077      725F6461 
 13077      746100
 13078              	.LASF24:
 13079 01e1 70624D73 		.ascii	"pbMsg\000"
 13079      6700
 13080              	.LASF273:
 13081 01e7 4553414C 		.ascii	"ESALE_UNDER_LMT\000"
 13081      455F554E 
 13081      4445525F 
 13081      4C4D5400 
 13082              	.LASF156:
 13083 01f7 73625F61 		.ascii	"sb_acceptor_id\000"
 13083      63636570 
 13083      746F725F 
 13083      696400
 13084              	.LASF221:
 13085 0206 735F766F 		.ascii	"s_void_sale\000"
 13085      69645F73 
 13085      616C6500 
 13086              	.LASF208:
 13087 0212 735F6474 		.ascii	"s_dtg\000"
 13087      6700
 13088              	.LASF275:
 13089 0218 53414C45 		.ascii	"SALE_CTL\000"
 13089      5F43544C 
 13089      00
 13090              	.LASF209:
 13091 0221 735F6963 		.ascii	"s_icc_data\000"
 13091      635F6461 
 13091      746100
 13092              	.LASF79:
 13093 022c 73625F66 		.ascii	"sb_ftp_pwd\000"
 13093      74705F70 
 13093      776400
 13094              	.LASF495:
 13095 0237 44697370 		.ascii	"Disp2x16Msg\000"
 13095      32783136 
 13095      4D736700 
 13096              	.LASF305:
 13097 0243 4544435F 		.ascii	"EDC_IN_CORRECT\000"
 13097      494E5F43 
 13097      4F525245 
 13097      435400
 13098              	.LASF377:
ARM GAS  C:\Users\AHMED~1.ELE\AppData\Local\Temp\ccWApJgZ.s 			page 247


 13099 0252 4544435F 		.ascii	"EDC_RSP_ROC_NOT_FOUND\000"
 13099      5253505F 
 13099      524F435F 
 13099      4E4F545F 
 13099      464F554E 
 13100              	.LASF29:
 13101 0268 45435244 		.ascii	"ECRDATA\000"
 13101      41544100 
 13102              	.LASF66:
 13103 0270 73625F65 		.ascii	"sb_emvapp_chksum\000"
 13103      6D766170 
 13103      705F6368 
 13103      6B73756D 
 13103      00
 13104              	.LASF441:
 13105 0281 73625F70 		.ascii	"sb_proc_code\000"
 13105      726F635F 
 13105      636F6465 
 13105      00
 13106              	.LASF181:
 13107 028e 625F6169 		.ascii	"b_aid_len\000"
 13107      645F6C65 
 13107      6E00
 13108              	.LASF159:
 13109 0298 73625F6E 		.ascii	"sb_next_batch_no\000"
 13109      6578745F 
 13109      62617463 
 13109      685F6E6F 
 13109      00
 13110              	.LASF363:
 13111 02a9 4544435F 		.ascii	"EDC_RSP_INVALID_ACC\000"
 13111      5253505F 
 13111      494E5641 
 13111      4C49445F 
 13111      41434300 
 13112              	.LASF75:
 13113 02bd 73625F6C 		.ascii	"sb_lxapp_chksum\000"
 13113      78617070 
 13113      5F63686B 
 13113      73756D00 
 13114              	.LASF213:
 13115 02cd 64645F62 		.ascii	"dd_base_amount\000"
 13115      6173655F 
 13115      616D6F75 
 13115      6E7400
 13116              	.LASF434:
 13117 02dc 73625F70 		.ascii	"sb_pin\000"
 13117      696E00
 13118              	.LASF491:
 13119 02e3 62636461 		.ascii	"bcdadd\000"
 13119      646400
 13120              	.LASF130:
 13121 02ea 625F6163 		.ascii	"b_acquirer_id\000"
 13121      71756972 
 13121      65725F69 
 13121      6400
 13122              	.LASF178:
ARM GAS  C:\Users\AHMED~1.ELE\AppData\Local\Temp\ccWApJgZ.s 			page 248


 13123 02f8 625F7365 		.ascii	"b_second\000"
 13123      636F6E64 
 13123      00
 13124              	.LASF177:
 13125 0301 625F6D69 		.ascii	"b_minute\000"
 13125      6E757465 
 13125      00
 13126              	.LASF206:
 13127 030a 775F686F 		.ascii	"w_host_idx\000"
 13127      73745F69 
 13127      647800
 13128              	.LASF28:
 13129 0315 73625F63 		.ascii	"sb_content\000"
 13129      6F6E7465 
 13129      6E7400
 13130              	.LASF343:
 13131 0320 4544435F 		.ascii	"EDC_FN_REV_CLEAR\000"
 13131      464E5F52 
 13131      45565F43 
 13131      4C454152 
 13131      00
 13132              	.LASF428:
 13133 0331 4544435F 		.ascii	"EDC_CTL_TAP_CARD\000"
 13133      43544C5F 
 13133      5441505F 
 13133      43415244 
 13133      00
 13134              	.LASF337:
 13135 0342 4544435F 		.ascii	"EDC_FN_CARD_TOTAL\000"
 13135      464E5F43 
 13135      4152445F 
 13135      544F5441 
 13135      4C00
 13136              	.LASF505:
 13137 0354 443A5C47 		.ascii	"D:\\GuadianPro\\Core\\S_MISR\\APP\\MISR\000"
 13137      75616469 
 13137      616E5072 
 13137      6F5C436F 
 13137      72655C53 
 13138              	.LASF176:
 13139 0377 625F686F 		.ascii	"b_hour\000"
 13139      757200
 13140              	.LASF76:
 13141 037e 73625F6C 		.ascii	"sb_lxapp_date\000"
 13141      78617070 
 13141      5F646174 
 13141      6500
 13142              	.LASF384:
 13143 038c 4544435F 		.ascii	"EDC_RSP_BATCH_XFER\000"
 13143      5253505F 
 13143      42415443 
 13143      485F5846 
 13143      455200
 13144              	.LASF96:
 13145 039f 625F646C 		.ascii	"b_dll\000"
 13145      6C00
 13146              	.LASF132:
ARM GAS  C:\Users\AHMED~1.ELE\AppData\Local\Temp\ccWApJgZ.s 			page 249


 13147 03a5 49535355 		.ascii	"ISSUER_TBL\000"
 13147      45525F54 
 13147      424C00
 13148              	.LASF13:
 13149 03b0 42595445 		.ascii	"BYTE\000"
 13149      00
 13150              	.LASF235:
 13151 03b5 735F7374 		.ascii	"s_stis_data\000"
 13151      69735F64 
 13151      61746100 
 13152              	.LASF114:
 13153 03c1 73625F61 		.ascii	"sb_additional_prompt\000"
 13153      64646974 
 13153      696F6E61 
 13153      6C5F7072 
 13153      6F6D7074 
 13154              	.LASF390:
 13155 03d6 4544435F 		.ascii	"EDC_RSP_CTL_OCARD\000"
 13155      5253505F 
 13155      43544C5F 
 13155      4F434152 
 13155      4400
 13156              	.LASF468:
 13157 03e8 72657375 		.ascii	"result\000"
 13157      6C7400
 13158              	.LASF149:
 13159 03ef 625F7072 		.ascii	"b_pri_settle_conn_time\000"
 13159      695F7365 
 13159      74746C65 
 13159      5F636F6E 
 13159      6E5F7469 
 13160              	.LASF57:
 13161 0406 775F7472 		.ascii	"w_training_status\000"
 13161      61696E69 
 13161      6E675F73 
 13161      74617475 
 13161      7300
 13162              	.LASF480:
 13163 0418 52656164 		.ascii	"ReadRTC\000"
 13163      52544300 
 13164              	.LASF297:
 13165 0420 4544435F 		.ascii	"EDC_CN_ADJUST\000"
 13165      434E5F41 
 13165      444A5553 
 13165      5400
 13166              	.LASF287:
 13167 042e 4544435F 		.ascii	"EDC_CO_SWIPE_INS\000"
 13167      434F5F53 
 13167      57495045 
 13167      5F494E53 
 13167      00
 13168              	.LASF259:
 13169 043f 4F4E4C5F 		.ascii	"ONL_REFUND_SW\000"
 13169      52454655 
 13169      4E445F53 
 13169      5700
 13170              	.LASF385:
ARM GAS  C:\Users\AHMED~1.ELE\AppData\Local\Temp\ccWApJgZ.s 			page 250


 13171 044d 4544435F 		.ascii	"EDC_RSP_OTHER_REASON\000"
 13171      5253505F 
 13171      4F544845 
 13171      525F5245 
 13171      41534F4E 
 13172              	.LASF371:
 13173 0462 4544435F 		.ascii	"EDC_RSP_CARD_EXPIRED\000"
 13173      5253505F 
 13173      43415244 
 13173      5F455850 
 13173      49524544 
 13174              	.LASF162:
 13175 0477 625F686F 		.ascii	"b_host_type\000"
 13175      73745F74 
 13175      79706500 
 13176              	.LASF215:
 13177 0483 775F636F 		.ascii	"w_count\000"
 13177      756E7400 
 13178              	.LASF102:
 13179 048b 73625F70 		.ascii	"sb_password\000"
 13179      61737377 
 13179      6F726400 
 13180              	.LASF228:
 13181 0497 735F6973 		.ascii	"s_issuer_tbl\000"
 13181      73756572 
 13181      5F74626C 
 13181      00
 13182              	.LASF282:
 13183 04a4 775F7478 		.ascii	"w_txmsg_id\000"
 13183      6D73675F 
 13183      696400
 13184              	.LASF135:
 13185 04af 73625F72 		.ascii	"sb_ref_tel_no\000"
 13185      65665F74 
 13185      656C5F6E 
 13185      6F00
 13186              	.LASF502:
 13187 04bd 7065656B 		.ascii	"peek_byte\000"
 13187      5F627974 
 13187      6500
 13188              	.LASF54:
 13189 04c7 625F656D 		.ascii	"b_emv_enable\000"
 13189      765F656E 
 13189      61626C65 
 13189      00
 13190              	.LASF50:
 13191 04d4 73625F72 		.ascii	"sb_roc_no\000"
 13191      6F635F6E 
 13191      6F00
 13192              	.LASF21:
 13193 04de 734C656E 		.ascii	"sLen\000"
 13193      00
 13194              	.LASF415:
 13195 04e3 4544435F 		.ascii	"EDC_SE_NO_BATCH\000"
 13195      53455F4E 
 13195      4F5F4241 
 13195      54434800 
ARM GAS  C:\Users\AHMED~1.ELE\AppData\Local\Temp\ccWApJgZ.s 			page 251


 13196              	.LASF25:
 13197 04f3 434C5F49 		.ascii	"CL_IO\000"
 13197      4F00
 13198              	.LASF283:
 13199 04f9 73625F74 		.ascii	"sb_txbitmap\000"
 13199      78626974 
 13199      6D617000 
 13200              	.LASF52:
 13201 0505 73625F70 		.ascii	"sb_port\000"
 13201      6F727400 
 13202              	.LASF447:
 13203 050d 5452414E 		.ascii	"TRANS_DATA\000"
 13203      535F4441 
 13203      544100
 13204              	.LASF40:
 13205 0518 73625F70 		.ascii	"sb_pri_no\000"
 13205      72695F6E 
 13205      6F00
 13206              	.LASF456:
 13207 0522 5061636B 		.ascii	"PackHostMsg\000"
 13207      486F7374 
 13207      4D736700 
 13208              	.LASF185:
 13209 052e 73625F74 		.ascii	"sb_tag_9f26\000"
 13209      61675F39 
 13209      66323600 
 13210              	.LASF427:
 13211 053a 4544435F 		.ascii	"EDC_CTL_PREPROCESS_ERR\000"
 13211      43544C5F 
 13211      50524550 
 13211      524F4345 
 13211      53535F45 
 13212              	.LASF418:
 13213 0551 4544435F 		.ascii	"EDC_SE_TOTAL_WRONG\000"
 13213      53455F54 
 13213      4F54414C 
 13213      5F57524F 
 13213      4E4700
 13214              	.LASF104:
 13215 0564 73625F6F 		.ascii	"sb_options\000"
 13215      7074696F 
 13215      6E7300
 13216              	.LASF17:
 13217 056f 774C656E 		.ascii	"wLen\000"
 13217      00
 13218              	.LASF288:
 13219 0574 4544435F 		.ascii	"EDC_CO_SWIPE_INS_TAP\000"
 13219      434F5F53 
 13219      57495045 
 13219      5F494E53 
 13219      5F544150 
 13220              	.LASF94:
 13221 0589 775F6372 		.ascii	"w_crc\000"
 13221      6300
 13222              	.LASF413:
 13223 058f 4544435F 		.ascii	"EDC_RSP_NO_REC\000"
 13223      5253505F 
ARM GAS  C:\Users\AHMED~1.ELE\AppData\Local\Temp\ccWApJgZ.s 			page 252


 13223      4E4F5F52 
 13223      454300
 13224              	.LASF85:
 13225 059e 73625F63 		.ascii	"sb_checkin_pri_no\000"
 13225      6865636B 
 13225      696E5F70 
 13225      72695F6E 
 13225      6F00
 13226              	.LASF325:
 13227 05b0 4544435F 		.ascii	"EDC_AJ_ENTER_NAMT\000"
 13227      414A5F45 
 13227      4E544552 
 13227      5F4E414D 
 13227      5400
 13228              	.LASF504:
 13229 05c2 7372632F 		.ascii	"src/hostmsg.c\000"
 13229      686F7374 
 13229      6D73672E 
 13229      6300
 13230              	.LASF476:
 13231 05d0 67475453 		.ascii	"gGTS\000"
 13231      00
 13232              	.LASF320:
 13233 05d5 4544435F 		.ascii	"EDC_IN_CUR_ERROR\000"
 13233      494E5F43 
 13233      55525F45 
 13233      52524F52 
 13233      00
 13234              	.LASF171:
 13235 05e6 44415445 		.ascii	"DATETIME\000"
 13235      54494D45 
 13235      00
 13236              	.LASF234:
 13237 05ef 645F6C65 		.ascii	"d_len\000"
 13237      6E00
 13238              	.LASF111:
 13239 05f5 625F7365 		.ascii	"b_settle_amount_len\000"
 13239      74746C65 
 13239      5F616D6F 
 13239      756E745F 
 13239      6C656E00 
 13240              	.LASF49:
 13241 0609 73625F74 		.ascii	"sb_trace_no\000"
 13241      72616365 
 13241      5F6E6F00 
 13242              	.LASF239:
 13243 0615 735F705F 		.ascii	"s_p_data\000"
 13243      64617461 
 13243      00
 13244              	.LASF133:
 13245 061e 625F6964 		.ascii	"b_id\000"
 13245      00
 13246              	.LASF277:
 13247 0623 52454655 		.ascii	"REFUND_CTL\000"
 13247      4E445F43 
 13247      544C00
 13248              	.LASF327:
ARM GAS  C:\Users\AHMED~1.ELE\AppData\Local\Temp\ccWApJgZ.s 			page 253


 13249 062e 4544435F 		.ascii	"EDC_AJ_BASE_AMT\000"
 13249      414A5F42 
 13249      4153455F 
 13249      414D5400 
 13250              	.LASF101:
 13251 063e 625F6469 		.ascii	"b_dial_option\000"
 13251      616C5F6F 
 13251      7074696F 
 13251      6E00
 13252              	.LASF424:
 13253 064c 4544435F 		.ascii	"EDC_EMV_CANNOT_SEL\000"
 13253      454D565F 
 13253      43414E4E 
 13253      4F545F53 
 13253      454C00
 13254              	.LASF264:
 13255 065f 53414C45 		.ascii	"SALE_UNDER_LMT\000"
 13255      5F554E44 
 13255      45525F4C 
 13255      4D5400
 13256              	.LASF331:
 13257 066e 4544435F 		.ascii	"EDC_AJ_CLOSE_BATCH\000"
 13257      414A5F43 
 13257      4C4F5345 
 13257      5F424154 
 13257      434800
 13258              	.LASF389:
 13259 0681 4544435F 		.ascii	"EDC_RSP_CTL_DDA\000"
 13259      5253505F 
 13259      43544C5F 
 13259      44444100 
 13260              	.LASF190:
 13261 0691 625F7472 		.ascii	"b_trans_status\000"
 13261      616E735F 
 13261      73746174 
 13261      757300
 13262              	.LASF127:
 13263 06a0 73625F70 		.ascii	"sb_pan_range_low\000"
 13263      616E5F72 
 13263      616E6765 
 13263      5F6C6F77 
 13263      00
 13264              	.LASF51:
 13265 06b1 73625F69 		.ascii	"sb_ip\000"
 13265      7000
 13266              	.LASF421:
 13267 06b7 4544435F 		.ascii	"EDC_EMV_FATAL\000"
 13267      454D565F 
 13267      46415441 
 13267      4C00
 13268              	.LASF67:
 13269 06c5 73625F65 		.ascii	"sb_emvapp_date\000"
 13269      6D766170 
 13269      705F6461 
 13269      746500
 13270              	.LASF1:
 13271 06d4 756E7369 		.ascii	"unsigned char\000"
ARM GAS  C:\Users\AHMED~1.ELE\AppData\Local\Temp\ccWApJgZ.s 			page 254


 13271      676E6564 
 13271      20636861 
 13271      7200
 13272              	.LASF267:
 13273 06e2 5452414E 		.ascii	"TRANS_UPLOAD\000"
 13273      535F5550 
 13273      4C4F4144 
 13273      00
 13274              	.LASF378:
 13275 06ef 4544435F 		.ascii	"EDC_RSP_BAD_BATCH_NO\000"
 13275      5253505F 
 13275      4241445F 
 13275      42415443 
 13275      485F4E4F 
 13276              	.LASF154:
 13277 0704 625F7472 		.ascii	"b_trans_mdm_mode\000"
 13277      616E735F 
 13277      6D646D5F 
 13277      6D6F6465 
 13277      00
 13278              	.LASF116:
 13279 0715 73625F70 		.ascii	"sb_psw_refund\000"
 13279      73775F72 
 13279      6566756E 
 13279      6400
 13280              	.LASF257:
 13281 0723 53414C45 		.ascii	"SALE_SWIPE\000"
 13281      5F535749 
 13281      504500
 13282              	.LASF372:
 13283 072e 4544435F 		.ascii	"EDC_RSP_PIN_ERROR\000"
 13283      5253505F 
 13283      50494E5F 
 13283      4552524F 
 13283      5200
 13284              	.LASF210:
 13285 0740 41435155 		.ascii	"ACQUIRER_REV\000"
 13285      49524552 
 13285      5F524556 
 13285      00
 13286              	.LASF268:
 13287 074d 53455454 		.ascii	"SETTLEMENT\000"
 13287      4C454D45 
 13287      4E5400
 13288              	.LASF115:
 13289 0758 73625F72 		.ascii	"sb_reserved\000"
 13289      65736572 
 13289      76656400 
 13290              	.LASF381:
 13291 0764 4544435F 		.ascii	"EDC_RSP_BAD_TERMINAL_ID\000"
 13291      5253505F 
 13291      4241445F 
 13291      5445524D 
 13291      494E414C 
 13292              	.LASF197:
 13293 077c 64645F6F 		.ascii	"dd_org_amount\000"
 13293      72675F61 
ARM GAS  C:\Users\AHMED~1.ELE\AppData\Local\Temp\ccWApJgZ.s 			page 255


 13293      6D6F756E 
 13293      7400
 13294              	.LASF64:
 13295 078a 73625F65 		.ascii	"sb_edc_date\000"
 13295      64635F64 
 13295      61746500 
 13296              	.LASF410:
 13297 0796 4544435F 		.ascii	"EDC_RSP_UNSUPPORT_CARD\000"
 13297      5253505F 
 13297      554E5355 
 13297      50504F52 
 13297      545F4341 
 13298              	.LASF383:
 13299 07ad 4544435F 		.ascii	"EDC_RSP_DUP_TRACE\000"
 13299      5253505F 
 13299      4455505F 
 13299      54524143 
 13299      4500
 13300              	.LASF380:
 13301 07bf 4544435F 		.ascii	"EDC_RSP_CALL_AMEX\000"
 13301      5253505F 
 13301      43414C4C 
 13301      5F414D45 
 13301      5800
 13302              	.LASF420:
 13303 07d1 4544435F 		.ascii	"EDC_SE_ENTER_REF_TOTAL\000"
 13303      53455F45 
 13303      4E544552 
 13303      5F524546 
 13303      5F544F54 
 13304              	.LASF152:
 13305 07e8 625F7365 		.ascii	"b_sec_settle_conn_time\000"
 13305      635F7365 
 13305      74746C65 
 13305      5F636F6E 
 13305      6E5F7469 
 13306              	.LASF73:
 13307 07ff 73625F78 		.ascii	"sb_xapp_date\000"
 13307      6170705F 
 13307      64617465 
 13307      00
 13308              	.LASF401:
 13309 080c 4544435F 		.ascii	"EDC_RSP_LINE_OCCUP\000"
 13309      5253505F 
 13309      4C494E45 
 13309      5F4F4343 
 13309      555000
 13310              	.LASF10:
 13311 081f 63686172 		.ascii	"char\000"
 13311      00
 13312              	.LASF431:
 13313 0824 4544435F 		.ascii	"EDC_NET_INIT\000"
 13313      4E45545F 
 13313      494E4954 
 13313      00
 13314              	.LASF376:
 13315 0831 4544435F 		.ascii	"EDC_RSP_TOT_MISMATCH\000"
ARM GAS  C:\Users\AHMED~1.ELE\AppData\Local\Temp\ccWApJgZ.s 			page 256


 13315      5253505F 
 13315      544F545F 
 13315      4D49534D 
 13315      41544348 
 13316              	.LASF507:
 13317 0846 43686563 		.ascii	"CheckHostRsp\000"
 13317      6B486F73 
 13317      74527370 
 13317      00
 13318              	.LASF490:
 13319 0853 62636473 		.ascii	"bcdsub\000"
 13319      756200
 13320              	.LASF81:
 13321 085a 73625F70 		.ascii	"sb_ppp_pwd\000"
 13321      70705F70 
 13321      776400
 13322              	.LASF143:
 13323 0865 625F7072 		.ascii	"b_pri_trans_conn_time\000"
 13323      695F7472 
 13323      616E735F 
 13323      636F6E6E 
 13323      5F74696D 
 13324              	.LASF308:
 13325 087b 4544435F 		.ascii	"EDC_IN_ENTER_AMOUNT\000"
 13325      494E5F45 
 13325      4E544552 
 13325      5F414D4F 
 13325      554E5400 
 13326              	.LASF241:
 13327 088f 745F7465 		.ascii	"t_term_tot\000"
 13327      726D5F74 
 13327      6F7400
 13328              	.LASF242:
 13329 089a 735F4D73 		.ascii	"s_MsgBuf\000"
 13329      67427566 
 13329      00
 13330              	.LASF299:
 13331 08a3 4544435F 		.ascii	"EDC_CN_SETTLE\000"
 13331      434E5F53 
 13331      4554544C 
 13331      4500
 13332              	.LASF317:
 13333 08b1 4544435F 		.ascii	"EDC_IN_INVALID_CARD\000"
 13333      494E5F49 
 13333      4E56414C 
 13333      49445F43 
 13333      41524400 
 13334              	.LASF262:
 13335 08c5 53414C45 		.ascii	"SALE_OFFLINE\000"
 13335      5F4F4646 
 13335      4C494E45 
 13335      00
 13336              	.LASF463:
 13337 08d2 70726F64 		.ascii	"prod\000"
 13337      00
 13338              	.LASF12:
 13339 08d7 424F4F4C 		.ascii	"BOOLEAN\000"
ARM GAS  C:\Users\AHMED~1.ELE\AppData\Local\Temp\ccWApJgZ.s 			page 257


 13339      45414E00 
 13340              	.LASF98:
 13341 08df 625F7273 		.ascii	"b_rsvd0\000"
 13341      76643000 
 13342              	.LASF99:
 13343 08e7 625F7273 		.ascii	"b_rsvd1\000"
 13343      76643100 
 13344              	.LASF110:
 13345 08ef 625F7273 		.ascii	"b_rsvd2\000"
 13345      76643200 
 13346              	.LASF168:
 13347 08f7 625F6B65 		.ascii	"b_key\000"
 13347      7900
 13348              	.LASF422:
 13349 08fd 4544435F 		.ascii	"EDC_EMV_PROCESSING\000"
 13349      454D565F 
 13349      50524F43 
 13349      45535349 
 13349      4E4700
 13350              	.LASF466:
 13351 0910 4D617463 		.ascii	"Match\000"
 13351      6800
 13352              	.LASF281:
 13353 0916 5452414E 		.ascii	"TRANS_BITMAP\000"
 13353      535F4249 
 13353      544D4150 
 13353      00
 13354              	.LASF254:
 13355 0923 695F6563 		.ascii	"i_ecr_len\000"
 13355      725F6C65 
 13355      6E00
 13356              	.LASF340:
 13357 092d 4544435F 		.ascii	"EDC_FN_BATCH_ERASE\000"
 13357      464E5F42 
 13357      41544348 
 13357      5F455241 
 13357      534500
 13358              	.LASF43:
 13359 0940 73625F73 		.ascii	"sb_sec_no\000"
 13359      65635F6E 
 13359      6F00
 13360              	.LASF87:
 13361 094a 625F6368 		.ascii	"b_checkin_pri_redial\000"
 13361      65636B69 
 13361      6E5F7072 
 13361      695F7265 
 13361      6469616C 
 13362              	.LASF494:
 13363 095f 47657443 		.ascii	"GetConstMsg\000"
 13363      6F6E7374 
 13363      4D736700 
 13364              	.LASF446:
 13365 096b 74657874 		.ascii	"text\000"
 13365      00
 13366              	.LASF355:
 13367 0970 4544435F 		.ascii	"EDC_RSP_CALL_ISSUER\000"
 13367      5253505F 
ARM GAS  C:\Users\AHMED~1.ELE\AppData\Local\Temp\ccWApJgZ.s 			page 258


 13367      43414C4C 
 13367      5F495353 
 13367      55455200 
 13368              	.LASF472:
 13369 0984 73796E63 		.ascii	"sync_datetime\000"
 13369      5F646174 
 13369      6574696D 
 13369      6500
 13370              	.LASF240:
 13371 0992 735F7465 		.ascii	"s_term_tot\000"
 13371      726D5F74 
 13371      6F7400
 13372              	.LASF440:
 13373 099d 54585F44 		.ascii	"TX_DATA\000"
 13373      41544100 
 13374              	.LASF374:
 13375 09a5 4544435F 		.ascii	"EDC_RSP_CONTACT_ACQ\000"
 13375      5253505F 
 13375      434F4E54 
 13375      4143545F 
 13375      41435100 
 13376              	.LASF339:
 13377 09b9 4544435F 		.ascii	"EDC_FN_CLR_BATCH\000"
 13377      464E5F43 
 13377      4C525F42 
 13377      41544348 
 13377      00
 13378              	.LASF478:
 13379 09ca 5061636B 		.ascii	"PackTxBufLen\000"
 13379      54784275 
 13379      664C656E 
 13379      00
 13380              	.LASF30:
 13381 09d7 4D575F54 		.ascii	"MW_TRK1BUF\000"
 13381      524B3142 
 13381      554600
 13382              	.LASF88:
 13383 09e2 73625F63 		.ascii	"sb_checkin_sec_no\000"
 13383      6865636B 
 13383      696E5F73 
 13383      65635F6E 
 13383      6F00
 13384              	.LASF231:
 13385 09f4 625F6D6D 		.ascii	"b_mm\000"
 13385      00
 13386              	.LASF44:
 13387 09f9 625F7365 		.ascii	"b_sec_conn_time\000"
 13387      635F636F 
 13387      6E6E5F74 
 13387      696D6500 
 13388              	.LASF364:
 13389 0a09 4544435F 		.ascii	"EDC_RSP_RETRY\000"
 13389      5253505F 
 13389      52455452 
 13389      5900
 13390              	.LASF470:
 13391 0a17 6269746D 		.ascii	"bitmap\000"
ARM GAS  C:\Users\AHMED~1.ELE\AppData\Local\Temp\ccWApJgZ.s 			page 259


 13391      617000
 13392              	.LASF164:
 13393 0a1e 625F7373 		.ascii	"b_ssl_key_idx\000"
 13393      6C5F6B65 
 13393      795F6964 
 13393      7800
 13394              	.LASF107:
 13395 0a2c 625F6375 		.ascii	"b_currency\000"
 13395      7272656E 
 13395      637900
 13396              	.LASF477:
 13397 0a37 54784275 		.ascii	"TxBufSetup\000"
 13397      66536574 
 13397      757000
 13398              	.LASF301:
 13399 0a42 4544435F 		.ascii	"EDC_CN_TEST_MSG\000"
 13399      434E5F54 
 13399      4553545F 
 13399      4D534700 
 13400              	.LASF457:
 13401 0a52 62756666 		.ascii	"buffer\000"
 13401      657200
 13402              	.LASF260:
 13403 0a59 4F4E4C5F 		.ascii	"ONL_REFUND_MNL\000"
 13403      52454655 
 13403      4E445F4D 
 13403      4E4C00
 13404              	.LASF367:
 13405 0a68 4544435F 		.ascii	"EDC_RSP_UNKNOWN_CARD\000"
 13405      5253505F 
 13405      554E4B4E 
 13405      4F574E5F 
 13405      43415244 
 13406              	.LASF170:
 13407 0a7d 73625F74 		.ascii	"sb_text\000"
 13407      65787400 
 13408              	.LASF350:
 13409 0a85 4544435F 		.ascii	"EDC_PN_NO_PAPER\000"
 13409      504E5F4E 
 13409      4F5F5041 
 13409      50455200 
 13410              	.LASF444:
 13411 0a95 5253505F 		.ascii	"RSP_DATA\000"
 13411      44415441 
 13411      00
 13412              	.LASF219:
 13413 0a9e 735F7469 		.ascii	"s_tips_tot\000"
 13413      70735F74 
 13413      6F7400
 13414              	.LASF93:
 13415 0aa9 625F6170 		.ascii	"b_app_list_upload\000"
 13415      705F6C69 
 13415      73745F75 
 13415      706C6F61 
 13415      6400
 13416              	.LASF271:
 13417 0abb 41555448 		.ascii	"AUTH_ICC\000"
ARM GAS  C:\Users\AHMED~1.ELE\AppData\Local\Temp\ccWApJgZ.s 			page 260


 13417      5F494343 
 13417      00
 13418              	.LASF142:
 13419 0ac4 73625F70 		.ascii	"sb_pri_trans_tel\000"
 13419      72695F74 
 13419      72616E73 
 13419      5F74656C 
 13419      00
 13420              	.LASF319:
 13421 0ad5 4544435F 		.ascii	"EDC_IN_ECRREF\000"
 13421      494E5F45 
 13421      43525245 
 13421      4600
 13422              	.LASF344:
 13423 0ae3 4544435F 		.ascii	"EDC_FN_DISP_BATCH\000"
 13423      464E5F44 
 13423      4953505F 
 13423      42415443 
 13423      4800
 13424              	.LASF47:
 13425 0af5 625F6469 		.ascii	"b_dial_mode\000"
 13425      616C5F6D 
 13425      6F646500 
 13426              	.LASF489:
 13427 0b01 696E635F 		.ascii	"inc_pptr\000"
 13427      70707472 
 13427      00
 13428              	.LASF86:
 13429 0b0a 625F6368 		.ascii	"b_checkin_pri_conn_time\000"
 13429      65636B69 
 13429      6E5F7072 
 13429      695F636F 
 13429      6E6E5F74 
 13430              	.LASF16:
 13431 0b22 4444574F 		.ascii	"DDWORD\000"
 13431      524400
 13432              	.LASF230:
 13433 0b29 42535F44 		.ascii	"BS_DATE\000"
 13433      41544500 
 13434              	.LASF369:
 13435 0b31 4544435F 		.ascii	"EDC_RSP_CALL_CC\000"
 13435      5253505F 
 13435      43414C4C 
 13435      5F434300 
 13436              	.LASF141:
 13437 0b41 73625F6E 		.ascii	"sb_name\000"
 13437      616D6500 
 13438              	.LASF218:
 13439 0b49 735F7361 		.ascii	"s_sale_tot\000"
 13439      6C655F74 
 13439      6F7400
 13440              	.LASF391:
 13441 0b54 4544435F 		.ascii	"EDC_RSP_CTL_REFER_MOBILE\000"
 13441      5253505F 
 13441      43544C5F 
 13441      52454645 
 13441      525F4D4F 
ARM GAS  C:\Users\AHMED~1.ELE\AppData\Local\Temp\ccWApJgZ.s 			page 261


 13442              	.LASF97:
 13443 0b6d 625F696E 		.ascii	"b_init_control\000"
 13443      69745F63 
 13443      6F6E7472 
 13443      6F6C00
 13444              	.LASF140:
 13445 0b7c 73625F70 		.ascii	"sb_program\000"
 13445      726F6772 
 13445      616D00
 13446              	.LASF453:
 13447 0b87 61547261 		.ascii	"aTrans\000"
 13447      6E7300
 13448              	.LASF207:
 13449 0b8e 775F6973 		.ascii	"w_issuer_idx\000"
 13449      73756572 
 13449      5F696478 
 13449      00
 13450              	.LASF439:
 13451 0b9b 73625F61 		.ascii	"sb_amex_4DBC\000"
 13451      6D65785F 
 13451      34444243 
 13451      00
 13452              	.LASF407:
 13453 0ba8 4544435F 		.ascii	"EDC_RSP_RSP_TXN_ACP\000"
 13453      5253505F 
 13453      5253505F 
 13453      54584E5F 
 13453      41435000 
 13454              	.LASF5:
 13455 0bbc 6C6F6E67 		.ascii	"long unsigned int\000"
 13455      20756E73 
 13455      69676E65 
 13455      6420696E 
 13455      7400
 13456              	.LASF32:
 13457 0bce 4D575F54 		.ascii	"MW_TRK2BUF\000"
 13457      524B3242 
 13457      554600
 13458              	.LASF84:
 13459 0bd9 73625F73 		.ascii	"sb_server_key\000"
 13459      65727665 
 13459      725F6B65 
 13459      7900
 13460              	.LASF345:
 13461 0be7 4544435F 		.ascii	"EDC_FN_REPRINT_BATCH\000"
 13461      464E5F52 
 13461      45505249 
 13461      4E545F42 
 13461      41544348 
 13462              	.LASF333:
 13463 0bfc 4544435F 		.ascii	"EDC_VD_VOIDED\000"
 13463      56445F56 
 13463      4F494445 
 13463      4400
 13464              	.LASF112:
 13465 0c0a 73625F63 		.ascii	"sb_currency_name\000"
 13465      75727265 
ARM GAS  C:\Users\AHMED~1.ELE\AppData\Local\Temp\ccWApJgZ.s 			page 262


 13465      6E63795F 
 13465      6E616D65 
 13465      00
 13466              	.LASF23:
 13467 0c1b 544C4953 		.ascii	"TLIST\000"
 13467      5400
 13468              	.LASF487:
 13469 0c21 6765745F 		.ascii	"get_pptr\000"
 13469      70707472 
 13469      00
 13470              	.LASF187:
 13471 0c2a 73625F6D 		.ascii	"sb_misc_content\000"
 13471      6973635F 
 13471      636F6E74 
 13471      656E7400 
 13472              	.LASF163:
 13473 0c3a 625F7265 		.ascii	"b_reserved1\000"
 13473      73657276 
 13473      65643100 
 13474              	.LASF500:
 13475 0c46 6765745F 		.ascii	"get_byte\000"
 13475      62797465 
 13475      00
 13476              	.LASF106:
 13477 0c4f 73625F64 		.ascii	"sb_dflt_name\000"
 13477      666C745F 
 13477      6E616D65 
 13477      00
 13478              	.LASF72:
 13479 0c5c 73625F78 		.ascii	"sb_xapp_chksum\000"
 13479      6170705F 
 13479      63686B73 
 13479      756D00
 13480              	.LASF252:
 13481 0c6b 735F6273 		.ascii	"s_bs_date\000"
 13481      5F646174 
 13481      6500
 13482              	.LASF503:
 13483 0c75 474E5520 		.ascii	"GNU C 4.9.3 20141119 (release) [ARM/embedded-4_9-br"
 13483      4320342E 
 13483      392E3320 
 13483      32303134 
 13483      31313139 
 13484 0ca8 616E6368 		.ascii	"anch revision 218278] -mthumb -mcpu=cortex-a5 -mthu"
 13484      20726576 
 13484      6973696F 
 13484      6E203231 
 13484      38323738 
 13485 0cdb 6D622D69 		.ascii	"mb-interwork -mstructure-size-boundary=32 -mno-unal"
 13485      6E746572 
 13485      776F726B 
 13485      202D6D73 
 13485      74727563 
 13486 0d0e 69676E65 		.ascii	"igned-access -g -Os -ffunction-sections -fsigned-ch"
 13486      642D6163 
 13486      63657373 
 13486      202D6720 
ARM GAS  C:\Users\AHMED~1.ELE\AppData\Local\Temp\ccWApJgZ.s 			page 263


 13486      2D4F7320 
 13487 0d41 617200   		.ascii	"ar\000"
 13488              	.LASF129:
 13489 0d44 625F6973 		.ascii	"b_issuer_id\000"
 13489      73756572 
 13489      5F696400 
 13490              	.LASF123:
 13491 0d50 61706E63 		.ascii	"apnconfig2\000"
 13491      6F6E6669 
 13491      673200
 13492              	.LASF312:
 13493 0d5b 4544435F 		.ascii	"EDC_IN_EXPIRY_DATE\000"
 13493      494E5F45 
 13493      58504952 
 13493      595F4441 
 13493      544500
 13494              	.LASF53:
 13495 0d6e 73625F69 		.ascii	"sb_init_nii\000"
 13495      6E69745F 
 13495      6E696900 
 13496              	.LASF349:
 13497 0d7a 4544435F 		.ascii	"EDC_PN_HIGHTEMP\000"
 13497      504E5F48 
 13497      49474854 
 13497      454D5000 
 13498              	.LASF493:
 13499 0d8a 53657452 		.ascii	"SetRTC\000"
 13499      544300
 13500              	.LASF59:
 13501 0d91 64645F64 		.ascii	"dd_default_amount\000"
 13501      65666175 
 13501      6C745F61 
 13501      6D6F756E 
 13501      7400
 13502              	.LASF180:
 13503 0da3 73625F6C 		.ascii	"sb_label\000"
 13503      6162656C 
 13503      00
 13504              	.LASF42:
 13505 0dac 625F7072 		.ascii	"b_pri_redial\000"
 13505      695F7265 
 13505      6469616C 
 13505      00
 13506              	.LASF360:
 13507 0db9 4544435F 		.ascii	"EDC_RSP_APPV_ID\000"
 13507      5253505F 
 13507      41505056 
 13507      5F494400 
 13508              	.LASF117:
 13509 0dc9 73625F70 		.ascii	"sb_psw_void\000"
 13509      73775F76 
 13509      6F696400 
 13510              	.LASF119:
 13511 0dd5 61706E5F 		.ascii	"apn_password\000"
 13511      70617373 
 13511      776F7264 
 13511      00
ARM GAS  C:\Users\AHMED~1.ELE\AppData\Local\Temp\ccWApJgZ.s 			page 264


 13512              	.LASF145:
 13513 0de2 73625F73 		.ascii	"sb_sec_trans_tel\000"
 13513      65635F74 
 13513      72616E73 
 13513      5F74656C 
 13513      00
 13514              	.LASF459:
 13515 0df3 6269746D 		.ascii	"bitmap_ptr\000"
 13515      61705F70 
 13515      747200
 13516              	.LASF303:
 13517 0dfe 4544435F 		.ascii	"EDC_IN_USE_ICC\000"
 13517      494E5F55 
 13517      53455F49 
 13517      434300
 13518              	.LASF460:
 13519 0e0d 74785F62 		.ascii	"tx_bitmap\000"
 13519      69746D61 
 13519      7000
 13520              	.LASF65:
 13521 0e17 73625F65 		.ascii	"sb_edc_size\000"
 13521      64635F73 
 13521      697A6500 
 13522              	.LASF128:
 13523 0e23 73625F70 		.ascii	"sb_pan_range_high\000"
 13523      616E5F72 
 13523      616E6765 
 13523      5F686967 
 13523      6800
 13524              	.LASF33:
 13525 0e35 434F4D4D 		.ascii	"COMMBUF\000"
 13525      42554600 
 13526              	.LASF322:
 13527 0e3d 4544435F 		.ascii	"EDC_TU_CLOSE_BATCH\000"
 13527      54555F43 
 13527      4C4F5345 
 13527      5F424154 
 13527      434800
 13528              	.LASF55:
 13529 0e50 625F6465 		.ascii	"b_default_app\000"
 13529      6661756C 
 13529      745F6170 
 13529      7000
 13530              	.LASF6:
 13531 0e5e 6C6F6E67 		.ascii	"long long int\000"
 13531      206C6F6E 
 13531      6720696E 
 13531      7400
 13532              	.LASF188:
 13533 0e6c 54584E5F 		.ascii	"TXN_RECORD\000"
 13533      5245434F 
 13533      524400
 13534              	.LASF227:
 13535 0e77 735F6163 		.ascii	"s_acquirer_tbl\000"
 13535      71756972 
 13535      65725F74 
 13535      626C00
ARM GAS  C:\Users\AHMED~1.ELE\AppData\Local\Temp\ccWApJgZ.s 			page 265


 13536              	.LASF429:
 13537 0e86 4544435F 		.ascii	"EDC_CTL_AMT_EXCEED\000"
 13537      43544C5F 
 13537      414D545F 
 13537      45584345 
 13537      454400
 13538              	.LASF167:
 13539 0e99 44455343 		.ascii	"DESC_TBL\000"
 13539      5F54424C 
 13539      00
 13540              	.LASF482:
 13541 0ea2 7061636B 		.ascii	"pack_byte\000"
 13541      5F627974 
 13541      6500
 13542              	.LASF31:
 13543 0eac 625F6C65 		.ascii	"b_len\000"
 13543      6E00
 13544              	.LASF77:
 13545 0eb2 73625F6C 		.ascii	"sb_lxapp_size\000"
 13545      78617070 
 13545      5F73697A 
 13545      6500
 13546              	.LASF58:
 13547 0ec0 775F6465 		.ascii	"w_debug_status\000"
 13547      6275675F 
 13547      73746174 
 13547      757300
 13548              	.LASF80:
 13549 0ecf 73625F70 		.ascii	"sb_ppp_user\000"
 13549      70705F75 
 13549      73657200 
 13550              	.LASF307:
 13551 0edb 4544435F 		.ascii	"EDC_IN_BASE_AMT\000"
 13551      494E5F42 
 13551      4153455F 
 13551      414D5400 
 13552              	.LASF199:
 13553 0eeb 625F656E 		.ascii	"b_entry_mode\000"
 13553      7472795F 
 13553      6D6F6465 
 13553      00
 13554              	.LASF100:
 13555 0ef8 73625F64 		.ascii	"sb_date_time\000"
 13555      6174655F 
 13555      74696D65 
 13555      00
 13556              	.LASF455:
 13557 0f05 5061636B 		.ascii	"PackProcCode\000"
 13557      50726F63 
 13557      436F6465 
 13557      00
 13558              	.LASF449:
 13559 0f12 735F7478 		.ascii	"s_tx_data\000"
 13559      5F646174 
 13559      6100
 13560              	.LASF284:
 13561 0f1c 625F7072 		.ascii	"b_proc_code\000"
ARM GAS  C:\Users\AHMED~1.ELE\AppData\Local\Temp\ccWApJgZ.s 			page 266


 13561      6F635F63 
 13561      6F646500 
 13562              	.LASF139:
 13563 0f28 41435155 		.ascii	"ACQUIRER_TBL\000"
 13563      49524552 
 13563      5F54424C 
 13563      00
 13564              	.LASF508:
 13565 0f35 636F6D70 		.ascii	"compress\000"
 13565      72657373 
 13565      00
 13566              	.LASF95:
 13567 0f3e 5445524D 		.ascii	"TERM_CFG\000"
 13567      5F434647 
 13567      00
 13568              	.LASF70:
 13569 0f47 73625F65 		.ascii	"sb_emvkey_date\000"
 13569      6D766B65 
 13569      795F6461 
 13569      746500
 13570              	.LASF244:
 13571 0f56 735F5278 		.ascii	"s_RxMsg\000"
 13571      4D736700 
 13572              	.LASF198:
 13573 0f5e 73625F70 		.ascii	"sb_product\000"
 13573      726F6475 
 13573      637400
 13574              	.LASF214:
 13575 0f69 544F5441 		.ascii	"TOTAL\000"
 13575      4C00
 13576              	.LASF294:
 13577 0f6f 4544435F 		.ascii	"EDC_CN_OFFLINE\000"
 13577      434E5F4F 
 13577      46464C49 
 13577      4E4500
 13578              	.LASF226:
 13579 0f7e 735F6465 		.ascii	"s_desc_tbl\000"
 13579      73635F74 
 13579      626C00
 13580              	.LASF8:
 13581 0f89 756E7369 		.ascii	"unsigned int\000"
 13581      676E6564 
 13581      20696E74 
 13581      00
 13582              	.LASF402:
 13583 0f96 4544435F 		.ascii	"EDC_RSP_SWIPE_CARD\000"
 13583      5253505F 
 13583      53574950 
 13583      455F4341 
 13583      524400
 13584              	.LASF144:
 13585 0fa9 625F7072 		.ascii	"b_pri_trans_redial\000"
 13585      695F7472 
 13585      616E735F 
 13585      72656469 
 13585      616C00
 13586              	.LASF290:
ARM GAS  C:\Users\AHMED~1.ELE\AppData\Local\Temp\ccWApJgZ.s 			page 267


 13587 0fbc 4544435F 		.ascii	"EDC_CO_PROCESSING\000"
 13587      434F5F50 
 13587      524F4345 
 13587      5353494E 
 13587      4700
 13588              	.LASF63:
 13589 0fce 73625F65 		.ascii	"sb_edc_chksum\000"
 13589      64635F63 
 13589      686B7375 
 13589      6D00
 13590              	.LASF69:
 13591 0fdc 73625F65 		.ascii	"sb_emvkey_chksum\000"
 13591      6D766B65 
 13591      795F6368 
 13591      6B73756D 
 13591      00
 13592              	.LASF186:
 13593 0fed 775F6D69 		.ascii	"w_misc_len\000"
 13593      73635F6C 
 13593      656E00
 13594              	.LASF126:
 13595 0ff8 43415244 		.ascii	"CARD_TBL\000"
 13595      5F54424C 
 13595      00
 13596              	.LASF451:
 13597 1001 61537263 		.ascii	"aSrc\000"
 13597      00
 13598              	.LASF304:
 13599 1006 4544435F 		.ascii	"EDC_IN_SWIPE_CARD\000"
 13599      494E5F53 
 13599      57495045 
 13599      5F434152 
 13599      4400
 13600              	.LASF191:
 13601 1018 625F6163 		.ascii	"b_acc_ind\000"
 13601      635F696E 
 13601      6400
 13602              	.LASF105:
 13603 1022 73625F6E 		.ascii	"sb_name_loc\000"
 13603      616D655F 
 13603      6C6F6300 
 13604              	.LASF306:
 13605 102e 4544435F 		.ascii	"EDC_IN_APP_CODE\000"
 13605      494E5F41 
 13605      50505F43 
 13605      4F444500 
 13606              	.LASF411:
 13607 103e 4544435F 		.ascii	"EDC_RSP_INVALID_CARD\000"
 13607      5253505F 
 13607      494E5641 
 13607      4C49445F 
 13607      43415244 
 13608              	.LASF236:
 13609 1053 735F7465 		.ascii	"s_term_data\000"
 13609      726D5F64 
 13609      61746100 
 13610              	.LASF412:
ARM GAS  C:\Users\AHMED~1.ELE\AppData\Local\Temp\ccWApJgZ.s 			page 268


 13611 105f 4544435F 		.ascii	"EDC_RSP_CALL_IC\000"
 13611      5253505F 
 13611      43414C4C 
 13611      5F494300 
 13612              	.LASF464:
 13613 106f 42636442 		.ascii	"BcdBin8b\000"
 13613      696E3862 
 13613      00
 13614              	.LASF295:
 13615 1078 4544435F 		.ascii	"EDC_CN_SALE_COMP\000"
 13615      434E5F53 
 13615      414C455F 
 13615      434F4D50 
 13615      00
 13616              	.LASF155:
 13617 1089 73625F6E 		.ascii	"sb_nii\000"
 13617      696900
 13618              	.LASF395:
 13619 1090 4544435F 		.ascii	"EDC_RSP_CALL_IP\000"
 13619      5253505F 
 13619      43414C4C 
 13619      5F495000 
 13620              	.LASF324:
 13621 10a0 4544435F 		.ascii	"EDC_AJ_NOT_ALLOW\000"
 13621      414A5F4E 
 13621      4F545F41 
 13621      4C4C4F57 
 13621      00
 13622              	.LASF396:
 13623 10b1 4544435F 		.ascii	"EDC_RSP_CALL_IR\000"
 13623      5253505F 
 13623      43414C4C 
 13623      5F495200 
 13624              	.LASF397:
 13625 10c1 4544435F 		.ascii	"EDC_RSP_CALL_IS\000"
 13625      5253505F 
 13625      43414C4C 
 13625      5F495300 
 13626              	.LASF398:
 13627 10d1 4544435F 		.ascii	"EDC_RSP_CALL_IT\000"
 13627      5253505F 
 13627      43414C4C 
 13627      5F495400 
 13628              	.LASF366:
 13629 10e1 4544435F 		.ascii	"EDC_RSP_EDIT_ERROR\000"
 13629      5253505F 
 13629      45444954 
 13629      5F455252 
 13629      4F5200
 13630              	.LASF61:
 13631 10f4 625F6563 		.ascii	"b_ecr_port\000"
 13631      725F706F 
 13631      727400
 13632              	.LASF225:
 13633 10ff 735F7465 		.ascii	"s_term_cfg\000"
 13633      726D5F63 
 13633      666700
ARM GAS  C:\Users\AHMED~1.ELE\AppData\Local\Temp\ccWApJgZ.s 			page 269


 13634              	.LASF269:
 13635 110a 4544435F 		.ascii	"EDC_REV\000"
 13635      52455600 
 13636              	.LASF4:
 13637 1112 6C6F6E67 		.ascii	"long int\000"
 13637      20696E74 
 13637      00
 13638              	.LASF311:
 13639 111b 4544435F 		.ascii	"EDC_IN_TOTAL_PROMPT\000"
 13639      494E5F54 
 13639      4F54414C 
 13639      5F50524F 
 13639      4D505400 
 13640              	.LASF68:
 13641 112f 73625F65 		.ascii	"sb_emvapp_size\000"
 13641      6D766170 
 13641      705F7369 
 13641      7A6500
 13642              	.LASF38:
 13643 113e 73625F74 		.ascii	"sb_term_id\000"
 13643      65726D5F 
 13643      696400
 13644              	.LASF335:
 13645 1149 4544435F 		.ascii	"EDC_FN_START_BATCH\000"
 13645      464E5F53 
 13645      54415254 
 13645      5F424154 
 13645      434800
 13646              	.LASF201:
 13647 115c 73625F65 		.ascii	"sb_ecr_ref\000"
 13647      63725F72 
 13647      656600
 13648              	.LASF83:
 13649 1167 73625F70 		.ascii	"sb_ppp_port\000"
 13649      70705F70 
 13649      6F727400 
 13650              	.LASF189:
 13651 1173 625F7472 		.ascii	"b_trans\000"
 13651      616E7300 
 13652              	.LASF416:
 13653 117b 4544435F 		.ascii	"EDC_SE_SALE_TOTAL\000"
 13653      53455F53 
 13653      414C455F 
 13653      544F5441 
 13653      4C00
 13654              	.LASF15:
 13655 118d 44574F52 		.ascii	"DWORD\000"
 13655      4400
 13656              	.LASF474:
 13657 1193 4B547261 		.ascii	"KTransBitmap\000"
 13657      6E734269 
 13657      746D6170 
 13657      00
 13658              	.LASF425:
 13659 11a0 4544435F 		.ascii	"EDC_CTL_FATAL\000"
 13659      43544C5F 
 13659      46415441 
ARM GAS  C:\Users\AHMED~1.ELE\AppData\Local\Temp\ccWApJgZ.s 			page 270


 13659      4C00
 13660              	.LASF229:
 13661 11ae 735F6361 		.ascii	"s_card_tbl\000"
 13661      72645F74 
 13661      626C00
 13662              	.LASF436:
 13663 11b9 735F7472 		.ascii	"s_trk2buf\000"
 13663      6B326275 
 13663      6600
 13664              	.LASF300:
 13665 11c3 4544435F 		.ascii	"EDC_CN_REVERSAL\000"
 13665      434E5F52 
 13665      45564552 
 13665      53414C00 
 13666              	.LASF469:
 13667 11d3 6D73675F 		.ascii	"msg_id\000"
 13667      696400
 13668              	.LASF286:
 13669 11da 625F7361 		.ascii	"b_sale_flag\000"
 13669      6C655F66 
 13669      6C616700 
 13670              	.LASF351:
 13671 11e6 4544435F 		.ascii	"EDC_PN_PLS_REPRINT\000"
 13671      504E5F50 
 13671      4C535F52 
 13671      45505249 
 13671      4E5400
 13672              	.LASF255:
 13673 11f9 41555448 		.ascii	"AUTH_SWIPE\000"
 13673      5F535749 
 13673      504500
 13674              	.LASF202:
 13675 1204 73625F61 		.ascii	"sb_auth_code\000"
 13675      7574685F 
 13675      636F6465 
 13675      00
 13676              	.LASF62:
 13677 1211 625F6563 		.ascii	"b_ecr_ssl\000"
 13677      725F7373 
 13677      6C00
 13678              	.LASF196:
 13679 121b 64645F74 		.ascii	"dd_tip\000"
 13679      697000
 13680              	.LASF442:
 13681 1222 625F6F72 		.ascii	"b_org_trans\000"
 13681      675F7472 
 13681      616E7300 
 13682              	.LASF313:
 13683 122e 4544435F 		.ascii	"EDC_IN_INV_EXPIRE\000"
 13683      494E5F49 
 13683      4E565F45 
 13683      58504952 
 13683      4500
 13684              	.LASF247:
 13685 1240 735F454D 		.ascii	"s_EMVOut\000"
 13685      564F7574 
 13685      00
ARM GAS  C:\Users\AHMED~1.ELE\AppData\Local\Temp\ccWApJgZ.s 			page 271


 13686              	.LASF309:
 13687 1249 4544435F 		.ascii	"EDC_IN_ENTER_TIPS\000"
 13687      494E5F45 
 13687      4E544552 
 13687      5F544950 
 13687      5300
 13688              	.LASF14:
 13689 125b 574F5244 		.ascii	"WORD\000"
 13689      00
 13690              	.LASF74:
 13691 1260 73625F78 		.ascii	"sb_xapp_size\000"
 13691      6170705F 
 13691      73697A65 
 13691      00
 13692              	.LASF20:
 13693 126d 77546167 		.ascii	"wTag\000"
 13693      00
 13694              	.LASF272:
 13695 1272 52454655 		.ascii	"REFUND_ICC\000"
 13695      4E445F49 
 13695      434300
 13696              	.LASF423:
 13697 127d 4544435F 		.ascii	"EDC_EMV_SEL_APP\000"
 13697      454D565F 
 13697      53454C5F 
 13697      41505000 
 13698              	.LASF473:
 13699 128d 67474453 		.ascii	"gGDS\000"
 13699      00
 13700              	.LASF471:
 13701 1292 6D6F7265 		.ascii	"more_msg\000"
 13701      5F6D7367 
 13701      00
 13702              	.LASF302:
 13703 129b 4544435F 		.ascii	"EDC_IN_CHK_DIGIT_ERROR\000"
 13703      494E5F43 
 13703      484B5F44 
 13703      49474954 
 13703      5F455252 
 13704              	.LASF224:
 13705 12b2 53544953 		.ascii	"STIS_DATA\000"
 13705      5F444154 
 13705      4100
 13706              	.LASF498:
 13707 12bc 6765745F 		.ascii	"get_word\000"
 13707      776F7264 
 13707      00
 13708              	.LASF450:
 13709 12c5 735F7273 		.ascii	"s_rsp_data\000"
 13709      705F6461 
 13709      746100
 13710              	.LASF368:
 13711 12d0 4544435F 		.ascii	"EDC_RSP_CALL_LC\000"
 13711      5253505F 
 13711      43414C4C 
 13711      5F4C4300 
 13712              	.LASF223:
ARM GAS  C:\Users\AHMED~1.ELE\AppData\Local\Temp\ccWApJgZ.s 			page 272


 13713 12e0 735F414C 		.ascii	"s_ALL\000"
 13713      4C00
 13714              	.LASF124:
 13715 12e6 61706E32 		.ascii	"apn2_ip\000"
 13715      5F697000 
 13716              	.LASF7:
 13717 12ee 6C6F6E67 		.ascii	"long long unsigned int\000"
 13717      206C6F6E 
 13717      6720756E 
 13717      7369676E 
 13717      65642069 
 13718              	.LASF400:
 13719 1305 4544435F 		.ascii	"EDC_RSP_NO_DIALTONE\000"
 13719      5253505F 
 13719      4E4F5F44 
 13719      49414C54 
 13719      4F4E4500 
 13720              	.LASF328:
 13721 1319 4544435F 		.ascii	"EDC_AJ_TIPS_AMT\000"
 13721      414A5F54 
 13721      4950535F 
 13721      414D5400 
 13722              	.LASF506:
 13723 1329 53796E63 		.ascii	"SyncHostDtg\000"
 13723      486F7374 
 13723      44746700 
 13724              	.LASF36:
 13725 1335 625F7374 		.ascii	"b_stis_mode\000"
 13725      69735F6D 
 13725      6F646500 
 13726              	.LASF205:
 13727 1341 73625F72 		.ascii	"sb_rrn\000"
 13727      726E00
 13728              	.LASF501:
 13729 1348 62636432 		.ascii	"bcd2bin\000"
 13729      62696E00 
 13730              	.LASF238:
 13731 1350 735F6163 		.ascii	"s_acq_rev\000"
 13731      715F7265 
 13731      7600
 13732              	.LASF172:
 13733 135a 625F6365 		.ascii	"b_century\000"
 13733      6E747572 
 13733      7900
 13734              	.LASF342:
 13735 1364 4544435F 		.ascii	"EDC_FN_CLR_REV\000"
 13735      464E5F43 
 13735      4C525F52 
 13735      455600
 13736              	.LASF216:
 13737 1373 544F5441 		.ascii	"TOTAL_STRUCT\000"
 13737      4C5F5354 
 13737      52554354 
 13737      00
 13738              	.LASF352:
 13739 1380 4544435F 		.ascii	"EDC_PN_PLS_WAIT\000"
 13739      504E5F50 
ARM GAS  C:\Users\AHMED~1.ELE\AppData\Local\Temp\ccWApJgZ.s 			page 273


 13739      4C535F57 
 13739      41495400 
 13740              	.LASF153:
 13741 1390 625F7365 		.ascii	"b_sec_settle_redial\000"
 13741      635F7365 
 13741      74746C65 
 13741      5F726564 
 13741      69616C00 
 13742              	.LASF361:
 13743 13a4 4544435F 		.ascii	"EDC_RSP_BAD_PROC\000"
 13743      5253505F 
 13743      4241445F 
 13743      50524F43 
 13743      00
 13744              	.LASF375:
 13745 13b5 4544435F 		.ascii	"EDC_RSP_BAD_PROD\000"
 13745      5253505F 
 13745      4241445F 
 13745      50524F44 
 13745      00
 13746              	.LASF497:
 13747 13c6 52784275 		.ascii	"RxBufSetup\000"
 13747      66536574 
 13747      757000
 13748              	.LASF270:
 13749 13d1 53414C45 		.ascii	"SALE_ICC\000"
 13749      5F494343 
 13749      00
 13750              	.LASF432:
 13751 13da 4544435F 		.ascii	"EDC_MSG_END\000"
 13751      4D53475F 
 13751      454E4400 
 13752              	.LASF276:
 13753 13e6 41555448 		.ascii	"AUTH_CTL\000"
 13753      5F43544C 
 13753      00
 13754              	.LASF22:
 13755 13ef 70624C6F 		.ascii	"pbLoc\000"
 13755      6300
 13756              	.LASF362:
 13757 13f5 4544435F 		.ascii	"EDC_RSP_BAD_AMOUNT\000"
 13757      5253505F 
 13757      4241445F 
 13757      414D4F55 
 13757      4E5400
 13758              	.LASF465:
 13759 1408 54726169 		.ascii	"TrainingRsp\000"
 13759      6E696E67 
 13759      52737000 
 13760              	.LASF496:
 13761 1414 54726169 		.ascii	"TrainingModeON\000"
 13761      6E696E67 
 13761      4D6F6465 
 13761      4F4E00
 13762              	.LASF161:
 13763 1423 625F7365 		.ascii	"b_settle_mdm_mode\000"
 13763      74746C65 
ARM GAS  C:\Users\AHMED~1.ELE\AppData\Local\Temp\ccWApJgZ.s 			page 274


 13763      5F6D646D 
 13763      5F6D6F64 
 13763      6500
 13764              	.LASF448:
 13765 1435 735F696E 		.ascii	"s_input\000"
 13765      70757400 
 13766              	.LASF387:
 13767 143d 4544435F 		.ascii	"EDC_RSP_LOW_BATT\000"
 13767      5253505F 
 13767      4C4F575F 
 13767      42415454 
 13767      00
 13768              	.LASF298:
 13769 144e 4544435F 		.ascii	"EDC_CN_UPLOAD\000"
 13769      434E5F55 
 13769      504C4F41 
 13769      4400
 13770              	.LASF499:
 13771 145c 6765745F 		.ascii	"get_mem\000"
 13771      6D656D00 
 13772              	.LASF192:
 13773 1464 73625F70 		.ascii	"sb_pan\000"
 13773      616E00
 13774              	.LASF483:
 13775 146b 6D656D73 		.ascii	"memset\000"
 13775      657400
 13776              	.LASF91:
 13777 1472 625F696E 		.ascii	"b_init_fallback\000"
 13777      69745F66 
 13777      616C6C62 
 13777      61636B00 
 13778              	.LASF452:
 13779 1482 614C656E 		.ascii	"aLen\000"
 13779      00
 13780              	.LASF433:
 13781 1487 494E5055 		.ascii	"INPUT_DATA\000"
 13781      545F4441 
 13781      544100
 13782              	.LASF336:
 13783 1492 4544435F 		.ascii	"EDC_FN_END_BATCH\000"
 13783      464E5F45 
 13783      4E445F42 
 13783      41544348 
 13783      00
 13784              	.LASF35:
 13785 14a3 5445524D 		.ascii	"TERM_DATA\000"
 13785      5F444154 
 13785      4100
 13786              	.LASF122:
 13787 14ad 61706E63 		.ascii	"apnconfig\000"
 13787      6F6E6669 
 13787      6700
 13788              	.LASF461:
 13789 14b7 7661725F 		.ascii	"var_i\000"
 13789      6900
 13790              	.LASF462:
 13791 14bd 7661725F 		.ascii	"var_j\000"
ARM GAS  C:\Users\AHMED~1.ELE\AppData\Local\Temp\ccWApJgZ.s 			page 275


 13791      6A00
 13792              	.LASF203:
 13793 14c3 775F7273 		.ascii	"w_rspcode\000"
 13793      70636F64 
 13793      6500
 13794              	.LASF243:
 13795 14cd 735F5478 		.ascii	"s_TxBuf\000"
 13795      42756600 
 13796              	.LASF443:
 13797 14d5 73625F6F 		.ascii	"sb_org_trace_no\000"
 13797      72675F74 
 13797      72616365 
 13797      5F6E6F00 
 13798              	.LASF316:
 13799 14e5 4544435F 		.ascii	"EDC_IN_4DBC\000"
 13799      494E5F34 
 13799      44424300 
 13800              	.LASF274:
 13801 14f1 4553414C 		.ascii	"ESALE_COMPLETE\000"
 13801      455F434F 
 13801      4D504C45 
 13801      544500
 13802              	.LASF454:
 13803 1500 6150726F 		.ascii	"aProcCode\000"
 13803      63436F64 
 13803      6500
 13804              	.LASF437:
 13805 150a 775F6361 		.ascii	"w_card_idx\000"
 13805      72645F69 
 13805      647800
 13806              	.LASF147:
 13807 1515 625F7365 		.ascii	"b_sec_trans_redial\000"
 13807      635F7472 
 13807      616E735F 
 13807      72656469 
 13807      616C00
 13808              	.LASF347:
 13809 1528 4544435F 		.ascii	"EDC_PN_PRINTING\000"
 13809      504E5F50 
 13809      52494E54 
 13809      494E4700 
 13810              	.LASF90:
 13811 1538 625F6368 		.ascii	"b_checkin_sec_redial\000"
 13811      65636B69 
 13811      6E5F7365 
 13811      635F7265 
 13811      6469616C 
 13812              	.LASF175:
 13813 154d 625F6461 		.ascii	"b_day\000"
 13813      7900
 13814              	.LASF249:
 13815 1553 735F4354 		.ascii	"s_CTLOut\000"
 13815      4C4F7574 
 13815      00
 13816              	.LASF250:
 13817 155c 735F5461 		.ascii	"s_TagList\000"
 13817      674C6973 
ARM GAS  C:\Users\AHMED~1.ELE\AppData\Local\Temp\ccWApJgZ.s 			page 276


 13817      7400
 13818              	.LASF258:
 13819 1566 53414C45 		.ascii	"SALE_MANUAL\000"
 13819      5F4D414E 
 13819      55414C00 
 13820              	.LASF279:
 13821 1572 4D41585F 		.ascii	"MAX_TXN_TYPE\000"
 13821      54584E5F 
 13821      54595045 
 13821      00
 13822              	.LASF157:
 13823 157f 625F7469 		.ascii	"b_timeout_val\000"
 13823      6D656F75 
 13823      745F7661 
 13823      6C00
 13824              	.LASF248:
 13825 158d 735F4354 		.ascii	"s_CTLIn\000"
 13825      4C496E00 
 13826              	.LASF89:
 13827 1595 625F6368 		.ascii	"b_checkin_sec_conn_time\000"
 13827      65636B69 
 13827      6E5F7365 
 13827      635F636F 
 13827      6E6E5F74 
 13828              	.LASF131:
 13829 15ad 625F7061 		.ascii	"b_pan_len\000"
 13829      6E5F6C65 
 13829      6E00
 13830              	.LASF200:
 13831 15b7 73625F68 		.ascii	"sb_holder_name\000"
 13831      6F6C6465 
 13831      725F6E61 
 13831      6D6500
 13832              	.LASF475:
 13833 15c6 4B536574 		.ascii	"KSetlPCode2\000"
 13833      6C50436F 
 13833      64653200 
 13834              	.LASF392:
 13835 15d2 4544435F 		.ascii	"EDC_RSP_TXN_CANCEL\000"
 13835      5253505F 
 13835      54584E5F 
 13835      43414E43 
 13835      454C00
 13836              	.LASF388:
 13837 15e5 4544435F 		.ascii	"EDC_RSP_CTL_TOI\000"
 13837      5253505F 
 13837      43544C5F 
 13837      544F4900 
 13838              	.LASF183:
 13839 15f5 73625F74 		.ascii	"sb_tag_95\000"
 13839      61675F39 
 13839      3500
 13840              	.LASF211:
 13841 15ff 50524E5F 		.ascii	"PRN_DATA\000"
 13841      44415441 
 13841      00
 13842              	.LASF435:
ARM GAS  C:\Users\AHMED~1.ELE\AppData\Local\Temp\ccWApJgZ.s 			page 277


 13843 1608 735F7472 		.ascii	"s_trk1buf\000"
 13843      6B316275 
 13843      6600
 13844              	.LASF419:
 13845 1612 4544435F 		.ascii	"EDC_SE_ENTER_SALE_TOTAL\000"
 13845      53455F45 
 13845      4E544552 
 13845      5F53414C 
 13845      455F544F 
 13846              	.LASF121:
 13847 162a 61706E32 		.ascii	"apn2_password\000"
 13847      5F706173 
 13847      73776F72 
 13847      6400
 13848              	.LASF263:
 13849 1638 53414C45 		.ascii	"SALE_COMPLETE\000"
 13849      5F434F4D 
 13849      504C4554 
 13849      4500
 13850              	.LASF2:
 13851 1646 73686F72 		.ascii	"short int\000"
 13851      7420696E 
 13851      7400
 13852              	.LASF150:
 13853 1650 625F7072 		.ascii	"b_pri_settle_redial\000"
 13853      695F7365 
 13853      74746C65 
 13853      5F726564 
 13853      69616C00 
 13854              	.LASF113:
 13855 1664 625F6C6F 		.ascii	"b_local_option\000"
 13855      63616C5F 
 13855      6F707469 
 13855      6F6E00
 13856              	.LASF405:
 13857 1673 4544435F 		.ascii	"EDC_RSP_SWIPT_AE\000"
 13857      5253505F 
 13857      53574950 
 13857      545F4145 
 13857      00
 13858              	.LASF346:
 13859 1684 4544435F 		.ascii	"EDC_FN_PRINT_REPORT\000"
 13859      464E5F50 
 13859      52494E54 
 13859      5F524550 
 13859      4F525400 
 13860              	.LASF184:
 13861 1698 73625F74 		.ascii	"sb_tag_9b\000"
 13861      61675F39 
 13861      6200
 13862              	.LASF195:
 13863 16a2 64645F61 		.ascii	"dd_amount\000"
 13863      6D6F756E 
 13863      7400
 13864              	.LASF393:
 13865 16ac 4544435F 		.ascii	"EDC_RSP_DATA_ERROR\000"
 13865      5253505F 
ARM GAS  C:\Users\AHMED~1.ELE\AppData\Local\Temp\ccWApJgZ.s 			page 278


 13865      44415441 
 13865      5F455252 
 13865      4F5200
 13866              	.LASF488:
 13867 16bf 6D656D63 		.ascii	"memcmp\000"
 13867      6D7000
 13868              	.LASF406:
 13869 16c6 4544435F 		.ascii	"EDC_RSP_SYS_ERROR\000"
 13869      5253505F 
 13869      5359535F 
 13869      4552524F 
 13869      5200
 13870              	.LASF370:
 13871 16d8 4544435F 		.ascii	"EDC_RSP_DECLINED\000"
 13871      5253505F 
 13871      4445434C 
 13871      494E4544 
 13871      00
 13872              	.LASF278:
 13873 16e9 54455354 		.ascii	"TEST_MSG\000"
 13873      5F4D5347 
 13873      00
 13874              	.LASF292:
 13875 16f2 4544435F 		.ascii	"EDC_CN_SALE\000"
 13875      434E5F53 
 13875      414C4500 
 13876              	.LASF359:
 13877 16fe 4544435F 		.ascii	"EDC_RSP_NOT_HONOUR\000"
 13877      5253505F 
 13877      4E4F545F 
 13877      484F4E4F 
 13877      555200
 13878              	.LASF353:
 13879 1711 4544435F 		.ascii	"EDC_PN_LOW_BATT\000"
 13879      504E5F4C 
 13879      4F575F42 
 13879      41545400 
 13880              	.LASF334:
 13881 1721 4544435F 		.ascii	"EDC_VD_NOT_ALLOW\000"
 13881      56445F4E 
 13881      4F545F41 
 13881      4C4C4F57 
 13881      00
 13882              	.LASF82:
 13883 1732 73625F70 		.ascii	"sb_ppp_ip\000"
 13883      70705F69 
 13883      7000
 13884              	.LASF233:
 13885 173c 4D53475F 		.ascii	"MSG_BUF\000"
 13885      42554600 
 13886              	.LASF315:
 13887 1744 4544435F 		.ascii	"EDC_IN_ENTER_DESC\000"
 13887      494E5F45 
 13887      4E544552 
 13887      5F444553 
 13887      4300
 13888              	.LASF245:
ARM GAS  C:\Users\AHMED~1.ELE\AppData\Local\Temp\ccWApJgZ.s 			page 279


 13889 1756 73625F49 		.ascii	"sb_IOBuf\000"
 13889      4F427566 
 13889      00
 13890              	.LASF151:
 13891 175f 73625F73 		.ascii	"sb_sec_settle_tel\000"
 13891      65635F73 
 13891      6574746C 
 13891      655F7465 
 13891      6C00
 13892              	.LASF314:
 13893 1771 4544435F 		.ascii	"EDC_IN_CARD_EXPIRED\000"
 13893      494E5F43 
 13893      4152445F 
 13893      45585049 
 13893      52454400 
 13894              	.LASF134:
 13895 1785 73625F63 		.ascii	"sb_card_name\000"
 13895      6172645F 
 13895      6E616D65 
 13895      00
 13896              	.LASF148:
 13897 1792 73625F70 		.ascii	"sb_pri_settle_tel\000"
 13897      72695F73 
 13897      6574746C 
 13897      655F7465 
 13897      6C00
 13898              	.LASF265:
 13899 17a4 564F4944 		.ascii	"VOID\000"
 13899      00
 13900              	.LASF408:
 13901 17a9 4544435F 		.ascii	"EDC_RSP_TRY_AGAING_TO\000"
 13901      5253505F 
 13901      5452595F 
 13901      41474149 
 13901      4E475F54 
 13902              	.LASF358:
 13903 17bf 4544435F 		.ascii	"EDC_RSP_PICKUP_CARD\000"
 13903      5253505F 
 13903      5049434B 
 13903      55505F43 
 13903      41524400 
 13904              	.LASF193:
 13905 17d3 73625F65 		.ascii	"sb_exp_date\000"
 13905      78705F64 
 13905      61746500 
 13906              	.LASF293:
 13907 17df 4544435F 		.ascii	"EDC_CN_REFUND\000"
 13907      434E5F52 
 13907      4546554E 
 13907      4400
 13908              	.LASF417:
 13909 17ed 4544435F 		.ascii	"EDC_SE_REFUND_TOTAL\000"
 13909      53455F52 
 13909      4546554E 
 13909      445F544F 
 13909      54414C00 
 13910              	.LASF179:
ARM GAS  C:\Users\AHMED~1.ELE\AppData\Local\Temp\ccWApJgZ.s 			page 280


 13911 1801 4943435F 		.ascii	"ICC_DATA\000"
 13911      44415441 
 13911      00
 13912              	.LASF356:
 13913 180a 4544435F 		.ascii	"EDC_RSP_REFERRAL\000"
 13913      5253505F 
 13913      52454645 
 13913      5252414C 
 13913      00
 13914              	.LASF481:
 13915 181b 6D656D63 		.ascii	"memcpy\000"
 13915      707900
 13916              	.LASF414:
 13917 1822 4544435F 		.ascii	"EDC_SE_BUS_DATE\000"
 13917      53455F42 
 13917      55535F44 
 13917      41544500 
 13918              	.LASF326:
 13919 1832 4544435F 		.ascii	"EDC_AJ_ENTER_NTIP\000"
 13919      414A5F45 
 13919      4E544552 
 13919      5F4E5449 
 13919      5000
 13920              	.LASF430:
 13921 1844 4544435F 		.ascii	"EDC_CTL_CARD_READ_OK\000"
 13921      43544C5F 
 13921      43415244 
 13921      5F524541 
 13921      445F4F4B 
 13922              	.LASF118:
 13923 1859 61706E5F 		.ascii	"apn_username\000"
 13923      75736572 
 13923      6E616D65 
 13923      00
 13924              	.LASF46:
 13925 1866 625F6173 		.ascii	"b_async_delay\000"
 13925      796E635F 
 13925      64656C61 
 13925      7900
 13926              	.LASF45:
 13927 1874 625F7365 		.ascii	"b_sec_redial\000"
 13927      635F7265 
 13927      6469616C 
 13927      00
 13928              	.LASF60:
 13929 1881 625F7070 		.ascii	"b_ppad_port\000"
 13929      61645F70 
 13929      6F727400 
 13930              	.LASF34:
 13931 188d 7362436F 		.ascii	"sbContent\000"
 13931      6E74656E 
 13931      7400
 13932              	.LASF266:
 13933 1897 41444A55 		.ascii	"ADJUST\000"
 13933      535400
 13934              	.LASF103:
 13935 189e 73625F68 		.ascii	"sb_help_tel\000"
ARM GAS  C:\Users\AHMED~1.ELE\AppData\Local\Temp\ccWApJgZ.s 			page 281


 13935      656C705F 
 13935      74656C00 
 13936              	.LASF382:
 13937 18aa 4544435F 		.ascii	"EDC_RSP_SYS_NOT_AVAIL\000"
 13937      5253505F 
 13937      5359535F 
 13937      4E4F545F 
 13937      41564149 
 13938              	.LASF18:
 13939 18c0 624D7367 		.ascii	"bMsg\000"
 13939      00
 13940              	.LASF485:
 13941 18c5 64656362 		.ascii	"decbin4b\000"
 13941      696E3462 
 13941      00
 13942              	.LASF217:
 13943 18ce 645F6164 		.ascii	"d_adjust_count\000"
 13943      6A757374 
 13943      5F636F75 
 13943      6E7400
 13944              	.LASF492:
 13945 18dd 42797465 		.ascii	"ByteCopy\000"
 13945      436F7079 
 13945      00
 13946              	.LASF484:
 13947 18e6 73706C69 		.ascii	"split\000"
 13947      7400
 13948              	.LASF445:
 13949 18ec 625F7265 		.ascii	"b_response\000"
 13949      73706F6E 
 13949      736500
 13950              	.LASF26:
 13951 18f7 625F636C 		.ascii	"b_cla\000"
 13951      6100
 13952              	.LASF11:
 13953 18fd 73697A65 		.ascii	"size_t\000"
 13953      5F7400
 13954              	.LASF92:
 13955 1904 775F6170 		.ascii	"w_app_list_chksum\000"
 13955      705F6C69 
 13955      73745F63 
 13955      686B7375 
 13955      6D00
 13956              	.LASF120:
 13957 1916 61706E32 		.ascii	"apn2_username\000"
 13957      5F757365 
 13957      726E616D 
 13957      6500
 13958              	.LASF399:
 13959 1924 4544435F 		.ascii	"EDC_RSP_TRY_AGAIN_LC\000"
 13959      5253505F 
 13959      5452595F 
 13959      41474149 
 13959      4E5F4C43 
 13960              	.LASF373:
 13961 1939 4544435F 		.ascii	"EDC_RSP_INV_SERVICE\000"
 13961      5253505F 
ARM GAS  C:\Users\AHMED~1.ELE\AppData\Local\Temp\ccWApJgZ.s 			page 282


 13961      494E565F 
 13961      53455256 
 13961      49434500 
 13962              	.LASF330:
 13963 194d 4544435F 		.ascii	"EDC_AJ_TXN_VOIDED\000"
 13963      414A5F54 
 13963      584E5F56 
 13963      4F494445 
 13963      4400
 13964              	.LASF289:
 13965 195f 4544435F 		.ascii	"EDC_CO_REMOVE_ICC\000"
 13965      434F5F52 
 13965      454D4F56 
 13965      455F4943 
 13965      4300
 13966              	.LASF3:
 13967 1971 73686F72 		.ascii	"short unsigned int\000"
 13967      7420756E 
 13967      7369676E 
 13967      65642069 
 13967      6E7400
 13968              	.LASF348:
 13969 1984 4544435F 		.ascii	"EDC_PN_MANUALCUT\000"
 13969      504E5F4D 
 13969      414E5541 
 13969      4C435554 
 13969      00
 13970              	.LASF41:
 13971 1995 625F7072 		.ascii	"b_pri_conn_time\000"
 13971      695F636F 
 13971      6E6E5F74 
 13971      696D6500 
 13972              	.LASF341:
 13973 19a5 4544435F 		.ascii	"EDC_FN_NO_REV\000"
 13973      464E5F4E 
 13973      4F5F5245 
 13973      5600
 13974              	.LASF71:
 13975 19b3 73625F65 		.ascii	"sb_emvkey_size\000"
 13975      6D766B65 
 13975      795F7369 
 13975      7A6500
 13976              	.LASF409:
 13977 19c2 4544435F 		.ascii	"EDC_RSP_VERIFY_SIGN\000"
 13977      5253505F 
 13977      56455249 
 13977      46595F53 
 13977      49474E00 
 13978              	.LASF379:
 13979 19d6 4544435F 		.ascii	"EDC_RSP_BATCH_NOT_FOUND\000"
 13979      5253505F 
 13979      42415443 
 13979      485F4E4F 
 13979      545F464F 
 13980              	.LASF256:
 13981 19ee 41555448 		.ascii	"AUTH_MANUAL\000"
 13981      5F4D414E 
ARM GAS  C:\Users\AHMED~1.ELE\AppData\Local\Temp\ccWApJgZ.s 			page 283


 13981      55414C00 
 13982              	.LASF27:
 13983 19fa 625F636D 		.ascii	"b_cmd\000"
 13983      6400
 13984              	.LASF246:
 13985 1a00 735F454D 		.ascii	"s_EMVIn\000"
 13985      56496E00 
 13986              	.LASF146:
 13987 1a08 625F7365 		.ascii	"b_sec_trans_conn_time\000"
 13987      635F7472 
 13987      616E735F 
 13987      636F6E6E 
 13987      5F74696D 
 13988              	.LASF261:
 13989 1a1e 52454655 		.ascii	"REFUND\000"
 13989      4E4400
 13990              	.LASF39:
 13991 1a25 625F696E 		.ascii	"b_init_mode\000"
 13991      69745F6D 
 13991      6F646500 
 13992              	.LASF403:
 13993 1a31 4544435F 		.ascii	"EDC_RSP_READ_ERROR\000"
 13993      5253505F 
 13993      52454144 
 13993      5F455252 
 13993      4F5200
 13994              	.LASF158:
 13995 1a44 73625F63 		.ascii	"sb_curr_batch_no\000"
 13995      7572725F 
 13995      62617463 
 13995      685F6E6F 
 13995      00
 13996              	.LASF182:
 13997 1a55 73625F61 		.ascii	"sb_aid\000"
 13997      696400
 13998              	.LASF222:
 13999 1a5c 735F766F 		.ascii	"s_void_refund\000"
 13999      69645F72 
 13999      6566756E 
 13999      6400
 14000              	.LASF37:
 14001 1a6a 625F6469 		.ascii	"b_disp_contrast\000"
 14001      73705F63 
 14001      6F6E7472 
 14001      61737400 
 14002              	.LASF169:
 14003 1a7a 73625F68 		.ascii	"sb_host_tx_code\000"
 14003      6F73745F 
 14003      74785F63 
 14003      6F646500 
 14004              	.LASF386:
 14005 1a8a 4544435F 		.ascii	"EDC_RSP_APP_CODE\000"
 14005      5253505F 
 14005      4150505F 
 14005      434F4445 
 14005      00
 14006              	.LASF138:
ARM GAS  C:\Users\AHMED~1.ELE\AppData\Local\Temp\ccWApJgZ.s 			page 284


 14007 1a9b 73625F66 		.ascii	"sb_floor_limit\000"
 14007      6C6F6F72 
 14007      5F6C696D 
 14007      697400
 14008              	.LASF365:
 14009 1aaa 4544435F 		.ascii	"EDC_RSP_INVALID_TERM\000"
 14009      5253505F 
 14009      494E5641 
 14009      4C49445F 
 14009      5445524D 
 14010              	.LASF194:
 14011 1abf 63757272 		.ascii	"currency\000"
 14011      656E6379 
 14011      00
 14012              	.LASF237:
 14013 1ac8 735F7265 		.ascii	"s_record_buf\000"
 14013      636F7264 
 14013      5F627566 
 14013      00
 14014              	.LASF332:
 14015 1ad5 4544435F 		.ascii	"EDC_AJ_COMPLETED\000"
 14015      414A5F43 
 14015      4F4D504C 
 14015      45544544 
 14015      00
 14016              	.LASF394:
 14017 1ae6 4544435F 		.ascii	"EDC_RSP_TRY_AGAIN_NC\000"
 14017      5253505F 
 14017      5452595F 
 14017      41474149 
 14017      4E5F4E43 
 14018              	.LASF426:
 14019 1afb 4544435F 		.ascii	"EDC_CTL_PROCESSING\000"
 14019      43544C5F 
 14019      50524F43 
 14019      45535349 
 14019      4E4700
 14020              	.LASF48:
 14021 1b0e 73625F70 		.ascii	"sb_pabx\000"
 14021      61627800 
 14022              	.LASF479:
 14023 1b16 64626748 		.ascii	"dbgHex\000"
 14023      657800
 14024              	.LASF109:
 14025 1b1d 625F6465 		.ascii	"b_decimal_pos\000"
 14025      63696D61 
 14025      6C5F706F 
 14025      7300
 14026              		.ident	"GCC: (GNU Tools for ARM Embedded Processors) 4.9.3 20141119 (release) [ARM/embedded-4_9-br
ARM GAS  C:\Users\AHMED~1.ELE\AppData\Local\Temp\ccWApJgZ.s 			page 285


DEFINED SYMBOLS
                            *ABS*:00000000 hostmsg.c
C:\Users\AHMED~1.ELE\AppData\Local\Temp\ccWApJgZ.s:19     .text.PackProcCode:00000000 $t
C:\Users\AHMED~1.ELE\AppData\Local\Temp\ccWApJgZ.s:24     .text.PackProcCode:00000000 PackProcCode
C:\Users\AHMED~1.ELE\AppData\Local\Temp\ccWApJgZ.s:76     .text.PackProcCode:00000034 $d
C:\Users\AHMED~1.ELE\AppData\Local\Temp\ccWApJgZ.s:82     .text.PackHostMsg:00000000 $t
C:\Users\AHMED~1.ELE\AppData\Local\Temp\ccWApJgZ.s:87     .text.PackHostMsg:00000000 PackHostMsg
C:\Users\AHMED~1.ELE\AppData\Local\Temp\ccWApJgZ.s:1521   .text.PackHostMsg:00000b10 $d
C:\Users\AHMED~1.ELE\AppData\Local\Temp\ccWApJgZ.s:1527   .text.CheckHostRsp:00000000 $t
C:\Users\AHMED~1.ELE\AppData\Local\Temp\ccWApJgZ.s:1532   .text.CheckHostRsp:00000000 CheckHostRsp
C:\Users\AHMED~1.ELE\AppData\Local\Temp\ccWApJgZ.s:2077   .text.CheckHostRsp:00000304 $d
C:\Users\AHMED~1.ELE\AppData\Local\Temp\ccWApJgZ.s:2096   .text.CheckHostRsp:00000344 $t
C:\Users\AHMED~1.ELE\AppData\Local\Temp\ccWApJgZ.s:2281   .text.CheckHostRsp:00000460 $d
                     .debug_frame:00000010 $d

UNDEFINED SYMBOLS
KTransBitmap
gGTS
ExtraMsgLen
TxBufSetup
pack_byte
PackTxBufLen
dbgHex
gGDS
GetConstMsg
Disp2x16Msg
TrainingModeON
ReadRTC
memcpy
memset
split
RxBufSetup
inc_pptr
get_word
get_mem
get_byte
bcd2bin
get_pptr
memcmp
decbin4b
KSetlPCode2
peek_byte
compress
bcdsub
bcdadd
ByteCopy
SetRTC
