ARM GAS  C:\Users\AHMED~1.ELE\AppData\Local\Temp\ccLWufHN.s 			page 1


   1              		.syntax unified
   2              		.cpu cortex-a5
   3              		.fpu softvfp
   4              		.eabi_attribute 20, 1
   5              		.eabi_attribute 21, 1
   6              		.eabi_attribute 23, 3
   7              		.eabi_attribute 24, 1
   8              		.eabi_attribute 25, 1
   9              		.eabi_attribute 26, 1
  10              		.eabi_attribute 30, 4
  11              		.eabi_attribute 34, 0
  12              		.eabi_attribute 18, 4
  13              		.thumb
  14              		.file	"hostmsg.c"
  15              		.text
  16              	.Ltext0:
  17              		.cfi_sections	.debug_frame
  18              		.section	.text.PackProcCode,"ax",%progbits
  19              		.align	1
  20              		.global	PackProcCode
  21              		.thumb
  22              		.thumb_func
  23              		.type	PackProcCode, %function
  24              	PackProcCode:
  25              	.LFB4:
  26              		.file 1 "src/hostmsg.c"
   1:src/hostmsg.c **** //-----------------------------------------------------------------------------
   2:src/hostmsg.c **** //  File          : hostmsg.c
   3:src/hostmsg.c **** //  Module        :
   4:src/hostmsg.c **** //  Description   : Include routines to Pack/Unpack Host Message.
   5:src/hostmsg.c **** //  Author        : Lewis
   6:src/hostmsg.c **** //  Notes         :
   7:src/hostmsg.c **** //
   8:src/hostmsg.c **** // ============================================================================
   9:src/hostmsg.c **** // | Naming conventions                                                       |
  10:src/hostmsg.c **** // | ~~~~~~~~~~~~~~~~~~                                                       |
  11:src/hostmsg.c **** // |        Struct define : Leading T                                         |
  12:src/hostmsg.c **** // |         Struct/Array : Leading s                                         |
  13:src/hostmsg.c **** // |             Constant : Leading K                                         |
  14:src/hostmsg.c **** // |      Global Variable : Leading g  (variable use outside one C file)      |
  15:src/hostmsg.c **** // |                                                                          |
  16:src/hostmsg.c **** // |   BYTE( 8 Bits) size : Leading b                                         |
  17:src/hostmsg.c **** // |   CHAR( 8 Bits) size : Leading c                                         |
  18:src/hostmsg.c **** // |   WORD(16 Bits) size : Leading w                                         |
  19:src/hostmsg.c **** // |  DWORD(32 Bits) size : Leading d                                         |
  20:src/hostmsg.c **** // |    int(32 Bits) size : Leading i                                         |
  21:src/hostmsg.c **** // | DDWORD(64 Bits) size : Leading dd                                        |
  22:src/hostmsg.c **** // |              Pointer : Leading p                                         |
  23:src/hostmsg.c **** // |                                                                          |
  24:src/hostmsg.c **** // |    Function argument : Leading a                                         |
  25:src/hostmsg.c **** // |       Local Variable : All lower case                                    |
  26:src/hostmsg.c **** // |                                                                          |
  27:src/hostmsg.c **** // | Examples:                                                                |
  28:src/hostmsg.c **** // |                Array : Leading s, (sb = arrary of byte, etc)             |
  29:src/hostmsg.c **** // |              Pointer : Leading p, (pb = pointer of byte, etc)            |
  30:src/hostmsg.c **** // ============================================================================
  31:src/hostmsg.c **** //
ARM GAS  C:\Users\AHMED~1.ELE\AppData\Local\Temp\ccLWufHN.s 			page 2


  32:src/hostmsg.c **** //  Date          Who         Action
  33:src/hostmsg.c **** //  ------------  ----------- -------------------------------------------------
  34:src/hostmsg.c **** //  29 Sept 2008  Lewis       Initial Version.
  35:src/hostmsg.c **** //-----------------------------------------------------------------------------
  36:src/hostmsg.c **** #include <stdio.h>
  37:src/hostmsg.c **** #include <string.h>
  38:src/hostmsg.c **** #include "corevar.h"
  39:src/hostmsg.c **** #include "chkoptn.h"
  40:src/hostmsg.c **** #include "constant.h"
  41:src/hostmsg.c **** #include "record.h"
  42:src/hostmsg.c **** #include "message.h"
  43:src/hostmsg.c **** #include "tranutil.h"
  44:src/hostmsg.c **** #include "util.h"
  45:src/hostmsg.c **** #include "sysutil.h"
  46:src/hostmsg.c **** #include "emvtrans.h"
  47:src/hostmsg.c **** #include "hostmsg.h"
  48:src/hostmsg.c **** #include "auxcom.h"
  49:src/hostmsg.c **** #include "coremain.h"
  50:src/hostmsg.c **** 
  51:src/hostmsg.c **** //*****************************************************************************
  52:src/hostmsg.c **** //  Function        : TrainiingRsp
  53:src/hostmsg.c **** //  Description     : Generate training response.
  54:src/hostmsg.c **** //  Input           : N/A
  55:src/hostmsg.c **** //  Return          : Transaction status
  56:src/hostmsg.c **** //  Note            : N/A
  57:src/hostmsg.c **** //  Globals Changed : N/A
  58:src/hostmsg.c **** //*****************************************************************************
  59:src/hostmsg.c **** static BYTE TrainingRsp(void)
  60:src/hostmsg.c **** {
  61:src/hostmsg.c ****   struct DATETIME dtg;
  62:src/hostmsg.c **** 
  63:src/hostmsg.c ****   ReadRTC(&dtg);
  64:src/hostmsg.c ****   memcpy(&RSP_DATA.s_dtg.b_year, &dtg.b_year, 6);
  65:src/hostmsg.c ****   memset(RSP_DATA.sb_auth_code, '0', sizeof(RSP_DATA.sb_auth_code));
  66:src/hostmsg.c ****   split(RSP_DATA.sb_rrn, &dtg.b_year, 6);
  67:src/hostmsg.c ****   RSP_DATA.b_response = TRANS_ACP;
  68:src/hostmsg.c ****   RSP_DATA.w_rspcode = '0'*256+'0';
  69:src/hostmsg.c ****   RSP_DATA.dd_amount = 0;
  70:src/hostmsg.c ****   memset(&RSP_DATA.text[21], ' ', 20);
  71:src/hostmsg.c ****   return TRANS_ACP;
  72:src/hostmsg.c **** }
  73:src/hostmsg.c **** //*****************************************************************************
  74:src/hostmsg.c **** //  Function        : Match
  75:src/hostmsg.c **** //  Description     : Compare current pointer to buffer.
  76:src/hostmsg.c **** //  Input           : aPtr;    // pointer to buffer needs to Match.
  77:src/hostmsg.c **** //                    aLen;    // no. of byte to Match.
  78:src/hostmsg.c **** //  Return          : N/A
  79:src/hostmsg.c **** //  Note            : N/A
  80:src/hostmsg.c **** //  Globals Changed : N/A
  81:src/hostmsg.c **** //*****************************************************************************
  82:src/hostmsg.c **** static BOOLEAN Match(void *aPtr, BYTE aLen)
  83:src/hostmsg.c **** {
  84:src/hostmsg.c ****   BOOLEAN result;
  85:src/hostmsg.c **** 
  86:src/hostmsg.c ****   result = (memcmp(aPtr, get_pptr(), aLen) == 0);
  87:src/hostmsg.c ****   inc_pptr(aLen);
  88:src/hostmsg.c ****   return(result);
ARM GAS  C:\Users\AHMED~1.ELE\AppData\Local\Temp\ccLWufHN.s 			page 3


  89:src/hostmsg.c **** }
  90:src/hostmsg.c **** //*****************************************************************************
  91:src/hostmsg.c **** //  Function        : BcdBin8b
  92:src/hostmsg.c **** //  Description     : Convert max 6 bytes of bcd number to DDWORD.
  93:src/hostmsg.c **** //  Input           : aSrc;        // pointer src bcd number
  94:src/hostmsg.c **** //                    aLen;        // no. of byte of the bcd number to be conv.
  95:src/hostmsg.c **** //  Return          : N/A
  96:src/hostmsg.c **** //  Note            : N/A
  97:src/hostmsg.c **** //  Globals Changed : N/A
  98:src/hostmsg.c **** //*****************************************************************************
  99:src/hostmsg.c **** static DDWORD BcdBin8b(void *aSrc,BYTE aLen)
 100:src/hostmsg.c **** {
 101:src/hostmsg.c ****   BYTE buffer[12];
 102:src/hostmsg.c **** 
 103:src/hostmsg.c ****   if (aLen < 7) {
 104:src/hostmsg.c ****     split(buffer,aSrc,aLen);
 105:src/hostmsg.c ****     return decbin4b(buffer,(BYTE)(aLen*2));
 106:src/hostmsg.c ****   }
 107:src/hostmsg.c ****   return 0;
 108:src/hostmsg.c **** }
 109:src/hostmsg.c **** //*****************************************************************************
 110:src/hostmsg.c **** //  Function        : SyncHostDtg
 111:src/hostmsg.c **** //  Description     : Sync RTC with HOST date & time.
 112:src/hostmsg.c **** //  Input           : N/A
 113:src/hostmsg.c **** //  Return          : N/A
 114:src/hostmsg.c **** //  Note            : N/A
 115:src/hostmsg.c **** //  Globals Changed : N/A
 116:src/hostmsg.c **** //*****************************************************************************
 117:src/hostmsg.c **** static void SyncHostDtg(void)
 118:src/hostmsg.c **** {
 119:src/hostmsg.c ****   BYTE tmp;
 120:src/hostmsg.c ****   struct DATETIME dtg;
 121:src/hostmsg.c **** 
 122:src/hostmsg.c ****   ReadRTC(&dtg);
 123:src/hostmsg.c ****   RSP_DATA.s_dtg.b_century = dtg.b_century;
 124:src/hostmsg.c ****   RSP_DATA.s_dtg.b_year = dtg.b_year;
 125:src/hostmsg.c ****   tmp = 1;
 126:src/hostmsg.c ****   if ((RSP_DATA.s_dtg.b_month == 0x12) && (dtg.b_month == 0x01))
 127:src/hostmsg.c ****     bcdsub(&RSP_DATA.s_dtg.b_year,&tmp,1);
 128:src/hostmsg.c ****   else
 129:src/hostmsg.c ****     if ((RSP_DATA.s_dtg.b_month == 0x01) && (dtg.b_month == 0x12))
 130:src/hostmsg.c ****       bcdadd(&RSP_DATA.s_dtg.b_year,&tmp,1);
 131:src/hostmsg.c ****   ByteCopy((BYTE *)&dtg, (BYTE *)&RSP_DATA.s_dtg, sizeof(struct DATETIME));
 132:src/hostmsg.c ****   SetRTC(&dtg);
 133:src/hostmsg.c **** }
 134:src/hostmsg.c **** //*****************************************************************************
 135:src/hostmsg.c **** //  Function        : PackProcCode
 136:src/hostmsg.c **** //  Description     : Pack the processing code for input transaction type,
 137:src/hostmsg.c **** //  Input           : aTrans;      // transaction type
 138:src/hostmsg.c **** //                    aProcCode;   // 2nd byte of processing code
 139:src/hostmsg.c **** //  Return          : N/A
 140:src/hostmsg.c **** //  Note            : when aProcCode != 0xFF => use INPUT.b_acc_ind
 141:src/hostmsg.c **** //  Globals Changed : TX_DATA.sb_proc_code[];
 142:src/hostmsg.c **** //*****************************************************************************
 143:src/hostmsg.c **** void PackProcCode(BYTE aTrans, BYTE aProcCode)
 144:src/hostmsg.c **** {
  27              		.loc 1 144 0
ARM GAS  C:\Users\AHMED~1.ELE\AppData\Local\Temp\ccLWufHN.s 			page 4


  28              		.cfi_startproc
  29              		@ args = 0, pretend = 0, frame = 0
  30              		@ frame_needed = 0, uses_anonymous_args = 0
  31              		@ link register save eliminated.
  32              	.LVL0:
 145:src/hostmsg.c ****    TX_DATA.sb_proc_code[0] = KTransBitmap[aTrans].b_proc_code;
  33              		.loc 1 145 0
  34 0000 0C4A     		ldr	r2, .L11
  35 0002 1823     		movs	r3, #24
 146:src/hostmsg.c **** 
 147:src/hostmsg.c ****   if (aTrans == ADJUST)
  36              		.loc 1 147 0
  37 0004 0B28     		cmp	r0, #11
 145:src/hostmsg.c ****    TX_DATA.sb_proc_code[0] = KTransBitmap[aTrans].b_proc_code;
  38              		.loc 1 145 0
  39 0006 03FB0023 		mla	r3, r3, r0, r2
  40 000a 9A7C     		ldrb	r2, [r3, #18]	@ zero_extendqisi2
  41 000c 0A4B     		ldr	r3, .L11+4
  42              		.loc 1 147 0
  43 000e 01D1     		bne	.L2
 148:src/hostmsg.c ****     TX_DATA.sb_proc_code[0] = 2;
  44              		.loc 1 148 0
  45 0010 0222     		movs	r2, #2
  46 0012 04E0     		b	.L9
  47              	.L2:
 149:src/hostmsg.c ****   else
 150:src/hostmsg.c ****     if ((aTrans <= AUTH_MANUAL) || (aTrans == AUTH_ICC))  // !2005-09-21
  48              		.loc 1 150 0
  49 0014 0128     		cmp	r0, #1
  50 0016 01D9     		bls	.L4
  51              		.loc 1 150 0 is_stmt 0 discriminator 1
  52 0018 1028     		cmp	r0, #16
  53 001a 00D1     		bne	.L9
  54              	.L4:
 151:src/hostmsg.c ****       TX_DATA.sb_proc_code[0] = 0x30;
  55              		.loc 1 151 0 is_stmt 1
  56 001c 3022     		movs	r2, #48
  57              	.L9:
 152:src/hostmsg.c **** 
 153:src/hostmsg.c ****   if (aProcCode == 0xFF)
  58              		.loc 1 153 0
  59 001e FF29     		cmp	r1, #255
 151:src/hostmsg.c ****       TX_DATA.sb_proc_code[0] = 0x30;
  60              		.loc 1 151 0
  61 0020 83F80025 		strb	r2, [r3, #1280]
 154:src/hostmsg.c ****     aProcCode = INPUT.b_acc_ind;
  62              		.loc 1 154 0
  63 0024 08BF     		it	eq
  64 0026 5979     		ldrbeq	r1, [r3, #5]	@ zero_extendqisi2
  65              	.LVL1:
 155:src/hostmsg.c **** 
 156:src/hostmsg.c ****   TX_DATA.sb_proc_code[1] = aProcCode;
 157:src/hostmsg.c ****   TX_DATA.sb_proc_code[2] = 0;
  66              		.loc 1 157 0
  67 0028 0022     		movs	r2, #0
 156:src/hostmsg.c ****   TX_DATA.sb_proc_code[2] = 0;
  68              		.loc 1 156 0
ARM GAS  C:\Users\AHMED~1.ELE\AppData\Local\Temp\ccLWufHN.s 			page 5


  69 002a 83F80115 		strb	r1, [r3, #1281]
  70              		.loc 1 157 0
  71 002e 83F80225 		strb	r2, [r3, #1282]
  72 0032 7047     		bx	lr
  73              	.L12:
  74              		.align	2
  75              	.L11:
  76 0034 00000000 		.word	KTransBitmap
  77 0038 00000000 		.word	gGTS
  78              		.cfi_endproc
  79              	.LFE4:
  80              		.size	PackProcCode, .-PackProcCode
  81              		.section	.text.PackHostMsg,"ax",%progbits
  82              		.align	1
  83              		.global	PackHostMsg
  84              		.thumb
  85              		.thumb_func
  86              		.type	PackHostMsg, %function
  87              	PackHostMsg:
  88              	.LFB5:
 158:src/hostmsg.c **** }
 159:src/hostmsg.c **** /*********************************************************************/
 160:src/hostmsg.c **** /*  This procedure fills stxbuf with information required according  */
 161:src/hostmsg.c **** /*  to the BOOLEAN map of the trans.                                 */
 162:src/hostmsg.c **** /*  02. primary account number   03. processing code                 */
 163:src/hostmsg.c **** /*  04. amount, transaction      11. system trace number             */
 164:src/hostmsg.c **** /*  12. local transaction time   13. local transaction date          */
 165:src/hostmsg.c **** /*  14. card expiration date     22. entry mode                      */
 166:src/hostmsg.c **** /*  24. netword int'l id.        25. condition code                  */
 167:src/hostmsg.c **** /*  35. track 2 data             37. retrieval reference number      */
 168:src/hostmsg.c **** /*  38. authorization id.        39. response code                   */
 169:src/hostmsg.c **** /*  41. terminal id              42. card acceptor id                */
 170:src/hostmsg.c **** /*  44. additional resp data     45. track 1 data                    */
 171:src/hostmsg.c **** /*  52. PIN                                                          */
 172:src/hostmsg.c **** /*  54. additional amount        60. private - org. amount           */
 173:src/hostmsg.c **** /*  61. product code             62. private - invoice no            */
 174:src/hostmsg.c **** /*  63. settlement totals        64. MAC                             */
 175:src/hostmsg.c **** /*********************************************************************/
 176:src/hostmsg.c **** void PackHostMsg(void)
 177:src/hostmsg.c **** {
  89              		.loc 1 177 0
  90              		.cfi_startproc
  91              		@ args = 0, pretend = 0, frame = 184
  92              		@ frame_needed = 0, uses_anonymous_args = 0
  93 0000 2DE9F041 		push	{r4, r5, r6, r7, r8, lr}
  94              		.cfi_def_cfa_offset 24
  95              		.cfi_offset 4, -24
  96              		.cfi_offset 5, -20
  97              		.cfi_offset 6, -16
  98              		.cfi_offset 7, -12
  99              		.cfi_offset 8, -8
 100              		.cfi_offset 14, -4
 101 0004 B0B0     		sub	sp, sp, #192
 102              		.cfi_def_cfa_offset 216
 178:src/hostmsg.c ****    BYTE *len_ptr, *bitmap_ptr;
 179:src/hostmsg.c ****   BYTE tx_bitmap[16];
 180:src/hostmsg.c ****   BYTE var_i, var_j;
ARM GAS  C:\Users\AHMED~1.ELE\AppData\Local\Temp\ccLWufHN.s 			page 6


 181:src/hostmsg.c ****   BYTE buf[128], tmp[10];  // request by dbin2bcd
 182:src/hostmsg.c ****   struct DESC_TBL prod;
 183:src/hostmsg.c **** 
 184:src/hostmsg.c ****   TxBufSetup(ExtraMsgLen());
 103              		.loc 1 184 0
 104 0006 FFF7FEFF 		bl	ExtraMsgLen
 105              	.LVL2:
 185:src/hostmsg.c **** 	  
 186:src/hostmsg.c ****    pack_mem("ISO0433211105000", 16);
 187:src/hostmsg.c ****   /* PowerCard header */
 188:src/hostmsg.c ****  // pack_mem("ISO", 3);
 189:src/hostmsg.c ****  // len_ptr = get_pptr();     // 4-byte length
 190:src/hostmsg.c ****  // inc_pptr(4);
 191:src/hostmsg.c ****  // pack_byte('2');           // POS
 192:src/hostmsg.c ****  // SprintfMW(buf, "%02X%02X0", SOFT_VERSION, SOFT_SUBVERSION);   // SW Version
 193:src/hostmsg.c ****  // pack_mem(buf, 5);
 194:src/hostmsg.c ****  // pack_mem("000", 3);       // single message
 195:src/hostmsg.c ****   
 196:src/hostmsg.c ****   /* msg type id */
 197:src/hostmsg.c ****   SprintfMW(buf, "%04X", KTransBitmap[TX_DATA.b_trans].w_txmsg_id);
 106              		.loc 1 197 0
 107 000a AC4C     		ldr	r4, .L223
 184:src/hostmsg.c **** 	  
 108              		.loc 1 184 0
 109 000c FFF7FEFF 		bl	TxBufSetup
 110              	.LVL3:
 186:src/hostmsg.c ****   /* PowerCard header */
 111              		.loc 1 186 0
 112 0010 AB48     		ldr	r0, .L223+4
 113 0012 1021     		movs	r1, #16
 114 0014 FFF7FEFF 		bl	pack_mem
 115              	.LVL4:
 116              		.loc 1 197 0
 117 0018 1826     		movs	r6, #24
 118 001a 94F80033 		ldrb	r3, [r4, #768]	@ zero_extendqisi2
 119 001e A94D     		ldr	r5, .L223+8
 120 0020 7343     		muls	r3, r6, r3
 121 0022 A949     		ldr	r1, .L223+12
 122 0024 EA5A     		ldrh	r2, [r5, r3]
 123 0026 10A8     		add	r0, sp, #64
 124 0028 FFF7FEFF 		bl	sprintf
 125              	.LVL5:
 198:src/hostmsg.c ****   pack_mem(buf, 4);
 126              		.loc 1 198 0
 127 002c 10A8     		add	r0, sp, #64
 128 002e 0421     		movs	r1, #4
 129 0030 FFF7FEFF 		bl	pack_mem
 130              	.LVL6:
 199:src/hostmsg.c ****   
 200:src/hostmsg.c ****   /* bitmap */
 201:src/hostmsg.c ****   memcpy(tx_bitmap, KTransBitmap[TX_DATA.b_trans].sb_txbitmap, 16);
 131              		.loc 1 201 0
 132 0034 94F80013 		ldrb	r1, [r4, #768]	@ zero_extendqisi2
 133 0038 1022     		movs	r2, #16
 134 003a 06FB0151 		mla	r1, r6, r1, r5
 135 003e 05A8     		add	r0, sp, #20
 136 0040 0231     		adds	r1, r1, #2
ARM GAS  C:\Users\AHMED~1.ELE\AppData\Local\Temp\ccLWufHN.s 			page 7


 137 0042 FFF7FEFF 		bl	memcpy
 138              	.LVL7:
 202:src/hostmsg.c ****   bitmap_ptr = get_pptr();
 139              		.loc 1 202 0
 140 0046 FFF7FEFF 		bl	get_pptr
 141              	.LVL8:
 203:src/hostmsg.c ****   if (tx_bitmap[0] & 0x80)
 142              		.loc 1 203 0
 143 004a 9DF81450 		ldrb	r5, [sp, #20]	@ zero_extendqisi2
 144 004e 2A06     		lsls	r2, r5, #24
 202:src/hostmsg.c ****   bitmap_ptr = get_pptr();
 145              		.loc 1 202 0
 146 0050 0646     		mov	r6, r0
 147              	.LVL9:
 204:src/hostmsg.c ****     inc_pptr(16);
 148              		.loc 1 204 0
 149 0052 4CBF     		ite	mi
 150 0054 1020     		movmi	r0, #16
 151              	.LVL10:
 205:src/hostmsg.c ****   else
 206:src/hostmsg.c ****     inc_pptr(8);
 152              		.loc 1 206 0
 153 0056 0820     		movpl	r0, #8
 154 0058 FFF7FEFF 		bl	inc_pptr
 155              	.LVL11:
 207:src/hostmsg.c **** 
 208:src/hostmsg.c ****   // Send PAN and expire date if TRK2 not available of ICC trans.
 209:src/hostmsg.c ****   if ((TX_DATA.b_trans >= SALE_ICC) && (TX_DATA.b_trans <= AUTH_ICC)) {
 156              		.loc 1 209 0
 157 005c 94F80033 		ldrb	r3, [r4, #768]	@ zero_extendqisi2
 158 0060 0F3B     		subs	r3, r3, #15
 159 0062 012B     		cmp	r3, #1
 160 0064 13D8     		bhi	.L16
 210:src/hostmsg.c ****     if (INPUT.s_trk2buf.b_len == 0) {
 161              		.loc 1 210 0
 162 0066 954B     		ldr	r3, .L223
 163 0068 93F8A032 		ldrb	r3, [r3, #672]	@ zero_extendqisi2
 164 006c 7BB9     		cbnz	r3, .L16
 211:src/hostmsg.c ****       tx_bitmap[0] |= 0x40;
 212:src/hostmsg.c ****       tx_bitmap[1] |= 0x04;
 165              		.loc 1 212 0
 166 006e 9DF81530 		ldrb	r3, [sp, #21]	@ zero_extendqisi2
 211:src/hostmsg.c ****       tx_bitmap[0] |= 0x40;
 167              		.loc 1 211 0
 168 0072 45F04005 		orr	r5, r5, #64
 169              		.loc 1 212 0
 170 0076 43F00403 		orr	r3, r3, #4
 211:src/hostmsg.c ****       tx_bitmap[0] |= 0x40;
 171              		.loc 1 211 0
 172 007a 8DF81450 		strb	r5, [sp, #20]
 173              		.loc 1 212 0
 174 007e 8DF81530 		strb	r3, [sp, #21]
 213:src/hostmsg.c ****       tx_bitmap[4] &= ~0x20;
 175              		.loc 1 213 0
 176 0082 9DF81830 		ldrb	r3, [sp, #24]	@ zero_extendqisi2
 177 0086 23F02003 		bic	r3, r3, #32
 178 008a 8DF81830 		strb	r3, [sp, #24]
ARM GAS  C:\Users\AHMED~1.ELE\AppData\Local\Temp\ccLWufHN.s 			page 8


 179              	.L16:
 214:src/hostmsg.c ****     }
 215:src/hostmsg.c ****   }
 216:src/hostmsg.c **** 
 217:src/hostmsg.c ****   if (memcmp(&TX_DATA.s_dtg.b_year, "\x00\x00\x00\x00\x00\x00", 6) == 0)
 180              		.loc 1 217 0
 181 008e 8F48     		ldr	r0, .L223+16
 182 0090 8F49     		ldr	r1, .L223+20
 183 0092 0622     		movs	r2, #6
 184 0094 FFF7FEFF 		bl	memcmp
 185              	.LVL12:
 186 0098 10B9     		cbnz	r0, .L17
 218:src/hostmsg.c ****     ReadRTC(&TX_DATA.s_dtg);
 187              		.loc 1 218 0
 188 009a 8E48     		ldr	r0, .L223+24
 189 009c FFF7FEFF 		bl	ReadRTC
 190              	.LVL13:
 191              	.L17:
 219:src/hostmsg.c **** 
 220:src/hostmsg.c ****   /* 02. primary account number */
 221:src/hostmsg.c ****   if (tx_bitmap[0] & 0x40) {
 192              		.loc 1 221 0
 193 00a0 9DF81480 		ldrb	r8, [sp, #20]	@ zero_extendqisi2
 194 00a4 18F0400F 		tst	r8, #64
 195 00a8 23D0     		beq	.L18
 222:src/hostmsg.c ****     var_i = (BYTE)fndb(TX_DATA.sb_pan, 0xff, 10);
 196              		.loc 1 222 0
 197 00aa FF21     		movs	r1, #255
 198 00ac 0A22     		movs	r2, #10
 199 00ae 8A48     		ldr	r0, .L223+28
 200 00b0 FFF7FEFF 		bl	fndb
 201              	.LVL14:
 202 00b4 C7B2     		uxtb	r7, r0
 203              	.LVL15:
 223:src/hostmsg.c ****     if (var_i == 0xff)
 224:src/hostmsg.c ****       var_i = 10;
 204              		.loc 1 224 0
 205 00b6 FF2F     		cmp	r7, #255
 206 00b8 08BF     		it	eq
 207 00ba 0A27     		moveq	r7, #10
 208              	.LVL16:
 225:src/hostmsg.c ****     var_j = var_i * 2;
 226:src/hostmsg.c ****     if ((TX_DATA.sb_pan[var_i-1] & 0x0f) == 0x0f) {
 209              		.loc 1 226 0
 210 00bc E319     		adds	r3, r4, r7
 225:src/hostmsg.c ****     var_j = var_i * 2;
 211              		.loc 1 225 0
 212 00be 7D00     		lsls	r5, r7, #1
 213              		.loc 1 226 0
 214 00c0 93F80833 		ldrb	r3, [r3, #776]	@ zero_extendqisi2
 225:src/hostmsg.c ****     var_j = var_i * 2;
 215              		.loc 1 225 0
 216 00c4 EDB2     		uxtb	r5, r5
 217              	.LVL17:
 218              		.loc 1 226 0
 219 00c6 03F00F03 		and	r3, r3, #15
 220 00ca 0F2B     		cmp	r3, #15
ARM GAS  C:\Users\AHMED~1.ELE\AppData\Local\Temp\ccLWufHN.s 			page 9


 227:src/hostmsg.c ****       var_j -= 1;
 221              		.loc 1 227 0
 222 00cc 04BF     		itt	eq
 223 00ce 05F1FF35 		addeq	r5, r5, #-1
 224              	.LVL18:
 225 00d2 EDB2     		uxtbeq	r5, r5
 226              	.LVL19:
 228:src/hostmsg.c ****       //if ((STIS_ACQ_TBL(0).sb_nii[0]*256+STIS_ACQ_TBL(0).sb_nii[1]) == 0x016)
 229:src/hostmsg.c ****       //  TX_DATA.sb_pan[var_i - 1] &= 0xf0;
 230:src/hostmsg.c ****     }
 231:src/hostmsg.c ****     pack_byte((BYTE)bin2bcd(var_j));
 227              		.loc 1 231 0
 228 00d4 2846     		mov	r0, r5
 229 00d6 FFF7FEFF 		bl	bin2bcd
 230              	.LVL20:
 231 00da C0B2     		uxtb	r0, r0
 232 00dc FFF7FEFF 		bl	pack_byte
 233              	.LVL21:
 232:src/hostmsg.c ****     split(buf, TX_DATA.sb_pan, var_i);
 234              		.loc 1 232 0
 235 00e0 10A8     		add	r0, sp, #64
 236 00e2 7D49     		ldr	r1, .L223+28
 237 00e4 3A46     		mov	r2, r7
 238 00e6 FFF7FEFF 		bl	split
 239              	.LVL22:
 233:src/hostmsg.c ****     pack_mem(buf, var_j);                     // PAN in ascii format
 240              		.loc 1 233 0
 241 00ea 10A8     		add	r0, sp, #64
 242 00ec 2946     		mov	r1, r5
 243 00ee FFF7FEFF 		bl	pack_mem
 244              	.LVL23:
 245              	.L18:
 234:src/hostmsg.c ****   }
 235:src/hostmsg.c **** 
 236:src/hostmsg.c ****   /* 03. processing code */
 237:src/hostmsg.c ****   if (tx_bitmap[0] & 0x20) {
 246              		.loc 1 237 0
 247 00f2 18F0200F 		tst	r8, #32
 248 00f6 03D0     		beq	.L21
 238:src/hostmsg.c ****     split_data(TX_DATA.sb_proc_code, 3);
 249              		.loc 1 238 0
 250 00f8 7848     		ldr	r0, .L223+32
 251 00fa 0321     		movs	r1, #3
 252 00fc FFF7FEFF 		bl	split_data
 253              	.LVL24:
 254              	.L21:
 239:src/hostmsg.c ****   }
 240:src/hostmsg.c **** 
 241:src/hostmsg.c ****   /* 04. amount, transaction */
 242:src/hostmsg.c ****   if (tx_bitmap[0] & 0x10) {
 255              		.loc 1 242 0
 256 0100 18F0100F 		tst	r8, #16
 257 0104 12D0     		beq	.L22
 243:src/hostmsg.c ****     if (TX_DATA.b_trans != VOID)
 258              		.loc 1 243 0
 259 0106 94F80033 		ldrb	r3, [r4, #768]	@ zero_extendqisi2
 260 010a 0A2B     		cmp	r3, #10
ARM GAS  C:\Users\AHMED~1.ELE\AppData\Local\Temp\ccLWufHN.s 			page 10


 261 010c 06D0     		beq	.L23
 244:src/hostmsg.c ****       dbin2bcd(tmp,TX_DATA.dd_amount);
 262              		.loc 1 244 0
 263 010e 744B     		ldr	r3, .L223+36
 264 0110 02A8     		add	r0, sp, #8
 265 0112 D3E90023 		ldrd	r2, [r3]
 266 0116 FFF7FEFF 		bl	dbin2bcd
 267              	.LVL25:
 268 011a 03E0     		b	.L24
 269              	.L23:
 245:src/hostmsg.c ****     else
 246:src/hostmsg.c ****       memset(&tmp[4], 0, 6);
 270              		.loc 1 246 0
 271 011c 0022     		movs	r2, #0
 272 011e 0392     		str	r2, [sp, #12]
 273 0120 ADF81020 		strh	r2, [sp, #16]	@ movhi
 274              	.L24:
 247:src/hostmsg.c ****     split_data(&tmp[4], 6);
 275              		.loc 1 247 0
 276 0124 03A8     		add	r0, sp, #12
 277 0126 0621     		movs	r1, #6
 278 0128 FFF7FEFF 		bl	split_data
 279              	.LVL26:
 280              	.L22:
 248:src/hostmsg.c ****   }
 249:src/hostmsg.c **** 
 250:src/hostmsg.c ****   /* 07. transmission date & time */
 251:src/hostmsg.c ****   if (tx_bitmap[1] & 0x10) {
 281              		.loc 1 251 0
 282 012c 9DF81550 		ldrb	r5, [sp, #21]	@ zero_extendqisi2
 283 0130 05F01003 		and	r3, r5, #16
 284 0134 03F0FF07 		and	r7, r3, #255
 285 0138 1BB1     		cbz	r3, .L25
 252:src/hostmsg.c ****     split_data(&TX_DATA.s_dtg.b_year, 5);
 286              		.loc 1 252 0
 287 013a 6448     		ldr	r0, .L223+16
 288 013c 0521     		movs	r1, #5
 289 013e FFF7FEFF 		bl	split_data
 290              	.LVL27:
 291              	.L25:
 253:src/hostmsg.c ****   }
 254:src/hostmsg.c **** 
 255:src/hostmsg.c ****   /* 11. systems trace audit number */
 256:src/hostmsg.c ****   if (tx_bitmap[1] & 0x20) {
 292              		.loc 1 256 0
 293 0142 AB06     		lsls	r3, r5, #26
 294 0144 03D5     		bpl	.L26
 257:src/hostmsg.c ****     split_data(TX_DATA.sb_trace_no, 3);
 295              		.loc 1 257 0
 296 0146 6748     		ldr	r0, .L223+40
 297 0148 0321     		movs	r1, #3
 298 014a FFF7FEFF 		bl	split_data
 299              	.LVL28:
 300              	.L26:
 258:src/hostmsg.c ****   }
 259:src/hostmsg.c **** 
 260:src/hostmsg.c ****   /* 12. local transaction date & time */
ARM GAS  C:\Users\AHMED~1.ELE\AppData\Local\Temp\ccLWufHN.s 			page 11


 261:src/hostmsg.c ****   if (tx_bitmap[1] & 0x10) {
 301              		.loc 1 261 0
 302 014e 1FB1     		cbz	r7, .L27
 262:src/hostmsg.c ****     split_data(&TX_DATA.s_dtg.b_year, 6);
 303              		.loc 1 262 0
 304 0150 5E48     		ldr	r0, .L223+16
 305 0152 0621     		movs	r1, #6
 306 0154 FFF7FEFF 		bl	split_data
 307              	.LVL29:
 308              	.L27:
 263:src/hostmsg.c ****   }
 264:src/hostmsg.c **** 
 265:src/hostmsg.c ****   /* 14. expiry date */
 266:src/hostmsg.c ****   if (tx_bitmap[1] & 0x04) {
 309              		.loc 1 266 0
 310 0158 6D07     		lsls	r5, r5, #29
 311 015a 03D5     		bpl	.L28
 267:src/hostmsg.c ****     split_data(TX_DATA.sb_exp_date, 2);
 312              		.loc 1 267 0
 313 015c 6248     		ldr	r0, .L223+44
 314 015e 0221     		movs	r1, #2
 315 0160 FFF7FEFF 		bl	split_data
 316              	.LVL30:
 317              	.L28:
 268:src/hostmsg.c ****   }
 269:src/hostmsg.c **** 
 270:src/hostmsg.c ****   /* 17. capture date (MMDD) */
 271:src/hostmsg.c ****   if (tx_bitmap[2] & 0x80) {
 318              		.loc 1 271 0
 319 0164 9DF81650 		ldrb	r5, [sp, #22]	@ zero_extendqisi2
 320 0168 2806     		lsls	r0, r5, #24
 321 016a 03D5     		bpl	.L29
 272:src/hostmsg.c ****     split_data(&TX_DATA.s_dtg.b_month, 2);
 322              		.loc 1 272 0
 323 016c 5F48     		ldr	r0, .L223+48
 324 016e 0221     		movs	r1, #2
 325 0170 FFF7FEFF 		bl	split_data
 326              	.LVL31:
 327              	.L29:
 273:src/hostmsg.c ****   }
 274:src/hostmsg.c **** 
 275:src/hostmsg.c ****   /* 22. Entry mode */
 276:src/hostmsg.c ****   if (tx_bitmap[2] & 0x04) {
 328              		.loc 1 276 0
 329 0174 6907     		lsls	r1, r5, #29
 330 0176 3DD5     		bpl	.L30
 277:src/hostmsg.c ****     pack_byte('8');       // manual / swipe / EMV
 331              		.loc 1 277 0
 332 0178 3820     		movs	r0, #56
 333 017a FFF7FEFF 		bl	pack_byte
 334              	.LVL32:
 278:src/hostmsg.c ****     pack_byte('1');       // PIN authentication
 335              		.loc 1 278 0
 336 017e 3120     		movs	r0, #49
 337 0180 FFF7FEFF 		bl	pack_byte
 338              	.LVL33:
 279:src/hostmsg.c ****     pack_byte('0');       // no card capture
ARM GAS  C:\Users\AHMED~1.ELE\AppData\Local\Temp\ccLWufHN.s 			page 12


 339              		.loc 1 279 0
 340 0184 3020     		movs	r0, #48
 341 0186 FFF7FEFF 		bl	pack_byte
 342              	.LVL34:
 280:src/hostmsg.c ****     pack_byte('1');       // attended
 343              		.loc 1 280 0
 344 018a 3120     		movs	r0, #49
 345 018c FFF7FEFF 		bl	pack_byte
 346              	.LVL35:
 281:src/hostmsg.c ****     pack_byte('0');       // cardholder present
 347              		.loc 1 281 0
 348 0190 3020     		movs	r0, #48
 349 0192 FFF7FEFF 		bl	pack_byte
 350              	.LVL36:
 282:src/hostmsg.c ****     pack_byte('1');       // card present
 351              		.loc 1 282 0
 352 0196 3120     		movs	r0, #49
 353 0198 FFF7FEFF 		bl	pack_byte
 354              	.LVL37:
 283:src/hostmsg.c ****     switch (TX_DATA.b_entry_mode) {
 355              		.loc 1 283 0
 356 019c 94F83433 		ldrb	r3, [r4, #820]	@ zero_extendqisi2
 357 01a0 532B     		cmp	r3, #83
 358 01a2 0ED0     		beq	.L32
 359 01a4 04D8     		bhi	.L33
 360 01a6 462B     		cmp	r3, #70
 361 01a8 0DD0     		beq	.L34
 362 01aa 4D2B     		cmp	r3, #77
 363 01ac 07D0     		beq	.L35
 364 01ae 0FE0     		b	.L31
 365              	.L33:
 366 01b0 6D2B     		cmp	r3, #109
 367 01b2 04D0     		beq	.L35
 368 01b4 732B     		cmp	r3, #115
 369 01b6 04D0     		beq	.L32
 370 01b8 662B     		cmp	r3, #102
 371 01ba 09D1     		bne	.L31
 372 01bc 03E0     		b	.L34
 373              	.L35:
 284:src/hostmsg.c ****       case MANUAL:
 285:src/hostmsg.c ****       case MANUAL_4DBC:
 286:src/hostmsg.c ****         pack_byte('1');
 374              		.loc 1 286 0
 375 01be 3120     		movs	r0, #49
 376 01c0 02E0     		b	.L222
 377              	.L32:
 287:src/hostmsg.c ****         pack_byte('5');   // signature
 288:src/hostmsg.c ****         break;
 289:src/hostmsg.c ****       case SWIPE:
 290:src/hostmsg.c ****       case SWIPE_4DBC:
 291:src/hostmsg.c ****         pack_byte('2');
 378              		.loc 1 291 0
 379 01c2 3220     		movs	r0, #50
 380 01c4 00E0     		b	.L222
 381              	.L34:
 292:src/hostmsg.c ****         pack_byte('5');   // signature
 293:src/hostmsg.c ****         break;
ARM GAS  C:\Users\AHMED~1.ELE\AppData\Local\Temp\ccLWufHN.s 			page 13


 294:src/hostmsg.c ****       case FALLBACK:
 295:src/hostmsg.c ****       case FALLBACK_4DBC:
 296:src/hostmsg.c ****         pack_byte('8');
 382              		.loc 1 296 0
 383 01c6 3820     		movs	r0, #56
 384              	.L222:
 385 01c8 FFF7FEFF 		bl	pack_byte
 386              	.LVL38:
 297:src/hostmsg.c ****         pack_byte('5');   // signature
 387              		.loc 1 297 0
 388 01cc 3520     		movs	r0, #53
 389 01ce 03E0     		b	.L216
 390              	.L31:
 298:src/hostmsg.c ****         break;
 299:src/hostmsg.c ****       default :
 300:src/hostmsg.c ****         pack_byte('5');   // chip reading
 391              		.loc 1 300 0
 392 01d0 3520     		movs	r0, #53
 393 01d2 FFF7FEFF 		bl	pack_byte
 394              	.LVL39:
 301:src/hostmsg.c ****         pack_byte('1');   // PIN verified
 395              		.loc 1 301 0
 396 01d6 3120     		movs	r0, #49
 397              	.L216:
 398 01d8 FFF7FEFF 		bl	pack_byte
 399              	.LVL40:
 302:src/hostmsg.c ****         break;
 303:src/hostmsg.c ****     }
 304:src/hostmsg.c ****     pack_byte('0');       // cardholder auth entity
 400              		.loc 1 304 0
 401 01dc 3020     		movs	r0, #48
 402 01de FFF7FEFF 		bl	pack_byte
 403              	.LVL41:
 305:src/hostmsg.c ****     pack_byte('1');       // rewrite capability
 404              		.loc 1 305 0
 405 01e2 3120     		movs	r0, #49
 406 01e4 FFF7FEFF 		bl	pack_byte
 407              	.LVL42:
 306:src/hostmsg.c ****     pack_byte('4');       // display & printing
 408              		.loc 1 306 0
 409 01e8 3420     		movs	r0, #52
 410 01ea FFF7FEFF 		bl	pack_byte
 411              	.LVL43:
 307:src/hostmsg.c ****     pack_byte('c');       // 12-digit PIN
 412              		.loc 1 307 0
 413 01ee 6320     		movs	r0, #99
 414 01f0 FFF7FEFF 		bl	pack_byte
 415              	.LVL44:
 416              	.L30:
 308:src/hostmsg.c ****   }
 309:src/hostmsg.c **** 
 310:src/hostmsg.c ****   /* 23. pan sequence number */
 311:src/hostmsg.c ****   if (tx_bitmap[2] & 0x02) {
 417              		.loc 1 311 0
 418 01f4 9DF81650 		ldrb	r5, [sp, #22]	@ zero_extendqisi2
 419 01f8 AA07     		lsls	r2, r5, #30
 420 01fa 03D5     		bpl	.L37
ARM GAS  C:\Users\AHMED~1.ELE\AppData\Local\Temp\ccLWufHN.s 			page 14


 312:src/hostmsg.c ****     pack_mem("001", 3);                       //testing only
 421              		.loc 1 312 0
 422 01fc 3C48     		ldr	r0, .L223+52
 423 01fe 0321     		movs	r1, #3
 424 0200 FFF7FEFF 		bl	pack_mem
 425              	.LVL45:
 426              	.L37:
 313:src/hostmsg.c ****   }
 314:src/hostmsg.c **** 
 315:src/hostmsg.c ****   /* 24. function code */
 316:src/hostmsg.c ****   if (tx_bitmap[2] & 0x01) {
 427              		.loc 1 316 0
 428 0204 EB07     		lsls	r3, r5, #31
 429 0206 10D5     		bpl	.L38
 317:src/hostmsg.c ****     if ((TX_DATA.b_trans == AUTH_SWIPE) || (TX_DATA.b_trans == AUTH_MANUAL))
 430              		.loc 1 317 0
 431 0208 94F80033 		ldrb	r3, [r4, #768]	@ zero_extendqisi2
 432 020c 012B     		cmp	r3, #1
 433 020e 01D8     		bhi	.L39
 318:src/hostmsg.c ****       pack_mem("101", 3);
 434              		.loc 1 318 0
 435 0210 3848     		ldr	r0, .L223+56
 436 0212 07E0     		b	.L217
 437              	.L39:
 319:src/hostmsg.c ****     else if (TX_DATA.b_trans == EDC_REV)
 438              		.loc 1 319 0
 439 0214 0E2B     		cmp	r3, #14
 440 0216 01D1     		bne	.L40
 320:src/hostmsg.c ****       pack_mem("400", 3);
 441              		.loc 1 320 0
 442 0218 3748     		ldr	r0, .L223+60
 443 021a 03E0     		b	.L217
 444              	.L40:
 321:src/hostmsg.c ****     else if (TX_DATA.b_trans == SETTLEMENT)
 445              		.loc 1 321 0
 446 021c 0D2B     		cmp	r3, #13
 322:src/hostmsg.c ****       pack_mem("880", 3);
 447              		.loc 1 322 0
 448 021e 0CBF     		ite	eq
 449 0220 3648     		ldreq	r0, .L223+64
 323:src/hostmsg.c ****     else
 324:src/hostmsg.c ****       pack_mem("200", 3);
 450              		.loc 1 324 0
 451 0222 3748     		ldrne	r0, .L223+68
 452              	.L217:
 453 0224 0321     		movs	r1, #3
 454 0226 FFF7FEFF 		bl	pack_mem
 455              	.LVL46:
 456              	.L38:
 325:src/hostmsg.c ****   }
 326:src/hostmsg.c **** 
 327:src/hostmsg.c ****   /* 26. merchant business code */
 328:src/hostmsg.c ****   if (tx_bitmap[3] & 0x40) {
 457              		.loc 1 328 0
 458 022a 9DF81750 		ldrb	r5, [sp, #23]	@ zero_extendqisi2
 459 022e 6F06     		lsls	r7, r5, #25
 460 0230 03D5     		bpl	.L42
ARM GAS  C:\Users\AHMED~1.ELE\AppData\Local\Temp\ccLWufHN.s 			page 15


 329:src/hostmsg.c ****     pack_mem("5814", 4);                      //testing only
 461              		.loc 1 329 0
 462 0232 3448     		ldr	r0, .L223+72
 463 0234 0421     		movs	r1, #4
 464 0236 FFF7FEFF 		bl	pack_mem
 465              	.LVL47:
 466              	.L42:
 330:src/hostmsg.c ****   }
 331:src/hostmsg.c **** 
 332:src/hostmsg.c ****   /* 32. acquirer id */
 333:src/hostmsg.c ****   if (tx_bitmap[3] & 0x01) {
 467              		.loc 1 333 0
 468 023a ED07     		lsls	r5, r5, #31
 469 023c 06D5     		bpl	.L43
 334:src/hostmsg.c ****     pack_byte(0x06);
 470              		.loc 1 334 0
 471 023e 0620     		movs	r0, #6
 472 0240 FFF7FEFF 		bl	pack_byte
 473              	.LVL48:
 335:src/hostmsg.c ****     pack_mem("011200", 6);                    //testing only
 474              		.loc 1 335 0
 475 0244 3048     		ldr	r0, .L223+76
 476 0246 0621     		movs	r1, #6
 477 0248 FFF7FEFF 		bl	pack_mem
 478              	.LVL49:
 479              	.L43:
 336:src/hostmsg.c ****   }
 337:src/hostmsg.c **** 
 338:src/hostmsg.c ****   /* 34. pan extension */
 339:src/hostmsg.c ****   if (tx_bitmap[4] & 0x40) {
 480              		.loc 1 339 0
 481 024c 9DF81850 		ldrb	r5, [sp, #24]	@ zero_extendqisi2
 482 0250 6806     		lsls	r0, r5, #25
 483 0252 06D5     		bpl	.L44
 340:src/hostmsg.c ****     pack_byte(0x08);
 484              		.loc 1 340 0
 485 0254 0820     		movs	r0, #8
 486 0256 FFF7FEFF 		bl	pack_byte
 487              	.LVL50:
 341:src/hostmsg.c ****     pack_mem("00000000", 8);                  //testing only
 488              		.loc 1 341 0
 489 025a 2C48     		ldr	r0, .L223+80
 490 025c 0821     		movs	r1, #8
 491 025e FFF7FEFF 		bl	pack_mem
 492              	.LVL51:
 493              	.L44:
 342:src/hostmsg.c ****   }
 343:src/hostmsg.c **** 
 344:src/hostmsg.c ****   /* 35. track 2 data */
 345:src/hostmsg.c ****   if (tx_bitmap[4] & 0x20) {
 494              		.loc 1 345 0
 495 0262 A906     		lsls	r1, r5, #26
 496 0264 11D5     		bpl	.L45
 346:src/hostmsg.c ****     if (INPUT.s_trk2buf.b_len) {
 497              		.loc 1 346 0
 498 0266 94F8A002 		ldrb	r0, [r4, #672]	@ zero_extendqisi2
 499 026a 50B1     		cbz	r0, .L46
ARM GAS  C:\Users\AHMED~1.ELE\AppData\Local\Temp\ccLWufHN.s 			page 16


 347:src/hostmsg.c ****       pack_byte((BYTE)bin2bcd(INPUT.s_trk2buf.b_len));
 500              		.loc 1 347 0
 501 026c FFF7FEFF 		bl	bin2bcd
 502              	.LVL52:
 503 0270 C0B2     		uxtb	r0, r0
 504 0272 FFF7FEFF 		bl	pack_byte
 505              	.LVL53:
 348:src/hostmsg.c ****       pack_mem(INPUT.s_trk2buf.sb_content, INPUT.s_trk2buf.b_len);
 506              		.loc 1 348 0
 507 0276 2648     		ldr	r0, .L223+84
 508 0278 10F8011C 		ldrb	r1, [r0, #-1]	@ zero_extendqisi2
 509 027c FFF7FEFF 		bl	pack_mem
 510              	.LVL54:
 511 0280 03E0     		b	.L45
 512              	.L46:
 349:src/hostmsg.c ****     } else
 350:src/hostmsg.c ****       tx_bitmap[4] &= ~0x20;
 513              		.loc 1 350 0
 514 0282 25F02005 		bic	r5, r5, #32
 515 0286 8DF81850 		strb	r5, [sp, #24]
 516              	.L45:
 351:src/hostmsg.c ****   }
 352:src/hostmsg.c **** 
 353:src/hostmsg.c ****   /* 37. RRN */
 354:src/hostmsg.c ****   if (tx_bitmap[4] & 0x08) {
 517              		.loc 1 354 0
 518 028a 9DF81850 		ldrb	r5, [sp, #24]	@ zero_extendqisi2
 519 028e 2A07     		lsls	r2, r5, #28
 520 0290 48D5     		bpl	.L47
 355:src/hostmsg.c ****     if ((TX_DATA.b_trans == EDC_REV) && (TX_DATA.b_org_trans != VOID))
 521              		.loc 1 355 0
 522 0292 94F80033 		ldrb	r3, [r4, #768]	@ zero_extendqisi2
 523 0296 0E2B     		cmp	r3, #14
 524 0298 04D1     		bne	.L48
 525              		.loc 1 355 0 is_stmt 0 discriminator 1
 526 029a 084B     		ldr	r3, .L223
 527 029c 93F80335 		ldrb	r3, [r3, #1283]	@ zero_extendqisi2
 528 02a0 0A2B     		cmp	r3, #10
 529 02a2 3BD1     		bne	.L49
 530              	.L48:
 356:src/hostmsg.c ****       tx_bitmap[4] &= ~0x08; /* not applicable, clear BIT */
 357:src/hostmsg.c ****     else {
 358:src/hostmsg.c ****       if (memcmp(TX_DATA.sb_rrn, "\x00\x00\x00\x00\x00\x00\x00\x00\x00\x00\x00\x00", 12))
 531              		.loc 1 358 0 is_stmt 1
 532 02a4 1B48     		ldr	r0, .L223+88
 533 02a6 1C49     		ldr	r1, .L223+92
 534 02a8 0C22     		movs	r2, #12
 535 02aa FFF7FEFF 		bl	memcmp
 536              	.LVL55:
 537 02ae A8B3     		cbz	r0, .L49
 359:src/hostmsg.c ****         pack_mem(TX_DATA.sb_rrn, 12);
 538              		.loc 1 359 0
 539 02b0 1848     		ldr	r0, .L223+88
 540 02b2 0C21     		movs	r1, #12
 541 02b4 FFF7FEFF 		bl	pack_mem
 542              	.LVL56:
 543 02b8 34E0     		b	.L47
ARM GAS  C:\Users\AHMED~1.ELE\AppData\Local\Temp\ccLWufHN.s 			page 17


 544              	.L224:
 545 02ba 00BF     		.align	2
 546              	.L223:
 547 02bc 00000000 		.word	gGTS
 548 02c0 00000000 		.word	.LC0
 549 02c4 00000000 		.word	KTransBitmap
 550 02c8 11000000 		.word	.LC1
 551 02cc 7D030000 		.word	gGTS+893
 552 02d0 00000000 		.word	.LANCHOR0
 553 02d4 7C030000 		.word	gGTS+892
 554 02d8 09030000 		.word	gGTS+777
 555 02dc 00050000 		.word	gGTS+1280
 556 02e0 18030000 		.word	gGTS+792
 557 02e4 02030000 		.word	gGTS+770
 558 02e8 13030000 		.word	gGTS+787
 559 02ec 7E030000 		.word	gGTS+894
 560 02f0 16000000 		.word	.LC3
 561 02f4 1A000000 		.word	.LC4
 562 02f8 1E000000 		.word	.LC5
 563 02fc 22000000 		.word	.LC6
 564 0300 26000000 		.word	.LC7
 565 0304 2A000000 		.word	.LC8
 566 0308 2F000000 		.word	.LC9
 567 030c 36000000 		.word	.LC10
 568 0310 A1020000 		.word	gGTS+673
 569 0314 69030000 		.word	gGTS+873
 570 0318 07000000 		.word	.LANCHOR0+7
 571              	.L49:
 360:src/hostmsg.c ****       else
 361:src/hostmsg.c ****         tx_bitmap[4] &= ~0x08; /* not applicable, clear BIT */
 572              		.loc 1 361 0
 573 031c 25F00805 		bic	r5, r5, #8
 574 0320 8DF81850 		strb	r5, [sp, #24]
 575              	.L47:
 362:src/hostmsg.c ****     }
 363:src/hostmsg.c ****   }
 364:src/hostmsg.c **** 
 365:src/hostmsg.c ****   /* 38. authorization code */
 366:src/hostmsg.c ****   if (tx_bitmap[4] & 0x04) {
 576              		.loc 1 366 0
 577 0324 9DF81830 		ldrb	r3, [sp, #24]	@ zero_extendqisi2
 578 0328 5B07     		lsls	r3, r3, #29
 579 032a 03D5     		bpl	.L50
 367:src/hostmsg.c ****     pack_mem(TX_DATA.sb_auth_code, 6);
 580              		.loc 1 367 0
 581 032c A648     		ldr	r0, .L225
 582 032e 0621     		movs	r1, #6
 583 0330 FFF7FEFF 		bl	pack_mem
 584              	.LVL57:
 585              	.L50:
 368:src/hostmsg.c ****   }
 369:src/hostmsg.c ****   
 370:src/hostmsg.c ****   /* 41. terminal identification */
 371:src/hostmsg.c ****   if (tx_bitmap[5] & 0x80) {
 586              		.loc 1 371 0
 587 0334 9DF81950 		ldrb	r5, [sp, #25]	@ zero_extendqisi2
 588 0338 2F06     		lsls	r7, r5, #24
ARM GAS  C:\Users\AHMED~1.ELE\AppData\Local\Temp\ccLWufHN.s 			page 18


 589 033a 06D5     		bpl	.L51
 372:src/hostmsg.c ****     pack_mem(STIS_ACQ_TBL(0).sb_term_id, 8);
 590              		.loc 1 372 0
 591 033c A34B     		ldr	r3, .L225+4
 592 033e 0821     		movs	r1, #8
 593 0340 1868     		ldr	r0, [r3]
 594 0342 00F56770 		add	r0, r0, #924
 595 0346 FFF7FEFF 		bl	pack_mem
 596              	.LVL58:
 597              	.L51:
 373:src/hostmsg.c ****   }
 374:src/hostmsg.c **** 
 375:src/hostmsg.c ****   /* 42. card acceptor identification */
 376:src/hostmsg.c ****   if (tx_bitmap[5] & 0x40) {
 598              		.loc 1 376 0
 599 034a 6806     		lsls	r0, r5, #25
 600 034c 06D5     		bpl	.L52
 377:src/hostmsg.c ****     pack_mem(STIS_ACQ_TBL(0).sb_acceptor_id, 15);
 601              		.loc 1 377 0
 602 034e 9F4B     		ldr	r3, .L225+4
 603 0350 0F21     		movs	r1, #15
 604 0352 1868     		ldr	r0, [r3]
 605 0354 00F56970 		add	r0, r0, #932
 606 0358 FFF7FEFF 		bl	pack_mem
 607              	.LVL59:
 608              	.L52:
 378:src/hostmsg.c ****   }
 379:src/hostmsg.c **** 
 380:src/hostmsg.c ****   /* 43. card acceptor name & address */
 381:src/hostmsg.c ****   if (tx_bitmap[5] & 0x20) {
 609              		.loc 1 381 0
 610 035c A906     		lsls	r1, r5, #26
 611 035e 0BD5     		bpl	.L53
 382:src/hostmsg.c ****     pack_byte((BYTE)bin2bcd(sizeof(STIS_TERM_CFG.sb_name_loc)));
 612              		.loc 1 382 0
 613 0360 2E20     		movs	r0, #46
 614 0362 FFF7FEFF 		bl	bin2bcd
 615              	.LVL60:
 616 0366 C0B2     		uxtb	r0, r0
 617 0368 FFF7FEFF 		bl	pack_byte
 618              	.LVL61:
 383:src/hostmsg.c ****     pack_mem(STIS_TERM_CFG.sb_name_loc, sizeof(STIS_TERM_CFG.sb_name_loc));
 619              		.loc 1 383 0
 620 036c 974B     		ldr	r3, .L225+4
 621 036e 2E21     		movs	r1, #46
 622 0370 1868     		ldr	r0, [r3]
 623 0372 1D30     		adds	r0, r0, #29
 624 0374 FFF7FEFF 		bl	pack_mem
 625              	.LVL62:
 626              	.L53:
 384:src/hostmsg.c ****   }
 385:src/hostmsg.c ****   
 386:src/hostmsg.c ****   /* 44. additional resp. data */
 387:src/hostmsg.c ****   if (tx_bitmap[5] & 0x10) { /* indicates under floor limit approval */
 627              		.loc 1 387 0
 628 0378 EA06     		lsls	r2, r5, #27
 629 037a 19D5     		bpl	.L54
ARM GAS  C:\Users\AHMED~1.ELE\AppData\Local\Temp\ccLWufHN.s 			page 19


 388:src/hostmsg.c ****     if (TX_DATA.b_trans == TRANS_UPLOAD) {
 630              		.loc 1 388 0
 631 037c 94F80033 		ldrb	r3, [r4, #768]	@ zero_extendqisi2
 632 0380 0C2B     		cmp	r3, #12
 633 0382 94F80335 		ldrb	r3, [r4, #1283]	@ zero_extendqisi2
 634 0386 0AD1     		bne	.L55
 389:src/hostmsg.c ****       if ((TX_DATA.b_org_trans == REFUND) ||
 635              		.loc 1 389 0
 636 0388 9A1F     		subs	r2, r3, #6
 637 038a 032A     		cmp	r2, #3
 638 038c 02D9     		bls	.L56
 390:src/hostmsg.c ****           (TX_DATA.b_org_trans == SALE_OFFLINE) ||
 391:src/hostmsg.c ****           (TX_DATA.b_org_trans == SALE_COMPLETE) ||
 392:src/hostmsg.c ****           (TX_DATA.b_org_trans == SALE_UNDER_LMT) ||
 393:src/hostmsg.c ****           (TX_DATA.b_org_trans == ESALE_COMPLETE) ||
 639              		.loc 1 393 0
 640 038e 123B     		subs	r3, r3, #18
 641 0390 012B     		cmp	r3, #1
 642 0392 0DD8     		bhi	.L54
 643              	.L56:
 394:src/hostmsg.c ****           (TX_DATA.b_org_trans == ESALE_UNDER_LMT)
 395:src/hostmsg.c ****          )
 396:src/hostmsg.c ****         tx_bitmap[5] &= ~0x10; /* not applicable, clear bit */
 644              		.loc 1 396 0
 645 0394 25F01005 		bic	r5, r5, #16
 646 0398 8DF81950 		strb	r5, [sp, #25]
 647 039c 08E0     		b	.L54
 648              	.L55:
 397:src/hostmsg.c ****     }
 398:src/hostmsg.c ****     else /* indicates under floor limit approval */
 399:src/hostmsg.c ****       if ((TX_DATA.b_org_trans == SALE_UNDER_LMT) ||(TX_DATA.b_org_trans == ESALE_UNDER_LMT))
 649              		.loc 1 399 0
 650 039e 092B     		cmp	r3, #9
 651 03a0 01D0     		beq	.L57
 652              		.loc 1 399 0 is_stmt 0 discriminator 1
 653 03a2 122B     		cmp	r3, #18
 654 03a4 01D1     		bne	.L58
 655              	.L57:
 400:src/hostmsg.c ****         pack_str("\x02\x30\x33");
 656              		.loc 1 400 0 is_stmt 1
 657 03a6 8A48     		ldr	r0, .L225+8
 658 03a8 00E0     		b	.L218
 659              	.L58:
 401:src/hostmsg.c ****       else
 402:src/hostmsg.c ****         pack_str("\x02\x30\x30");
 660              		.loc 1 402 0
 661 03aa 8A48     		ldr	r0, .L225+12
 662              	.L218:
 663 03ac FFF7FEFF 		bl	pack_str
 664              	.LVL63:
 665              	.L54:
 403:src/hostmsg.c ****   }
 404:src/hostmsg.c **** 
 405:src/hostmsg.c ****   /* 45. track 1 data */
 406:src/hostmsg.c ****   if (tx_bitmap[5] & 0x08) {
 666              		.loc 1 406 0
 667 03b0 9DF81950 		ldrb	r5, [sp, #25]	@ zero_extendqisi2
ARM GAS  C:\Users\AHMED~1.ELE\AppData\Local\Temp\ccLWufHN.s 			page 20


 668 03b4 2B07     		lsls	r3, r5, #28
 669 03b6 18D5     		bpl	.L59
 407:src/hostmsg.c ****     // Send Track1 when available
 408:src/hostmsg.c ****     if ((INPUT.s_trk1buf.b_len==0)||!Track1Enable())
 670              		.loc 1 408 0
 671 03b8 94F80032 		ldrb	r3, [r4, #512]	@ zero_extendqisi2
 672 03bc 864F     		ldr	r7, .L225+16
 673 03be 23B9     		cbnz	r3, .L60
 674              	.L61:
 409:src/hostmsg.c ****       tx_bitmap[5] &= ~0x08;
 675              		.loc 1 409 0
 676 03c0 25F00805 		bic	r5, r5, #8
 677 03c4 8DF81950 		strb	r5, [sp, #25]
 678 03c8 0FE0     		b	.L59
 679              	.L60:
 408:src/hostmsg.c ****       tx_bitmap[5] &= ~0x08;
 680              		.loc 1 408 0 discriminator 1
 681 03ca FFF7FEFF 		bl	Track1Enable
 682              	.LVL64:
 683 03ce 0028     		cmp	r0, #0
 684 03d0 F6D0     		beq	.L61
 410:src/hostmsg.c ****     else {
 411:src/hostmsg.c ****       pack_byte((BYTE)bin2bcd(INPUT.s_trk1buf.b_len));
 685              		.loc 1 411 0
 686 03d2 97F80002 		ldrb	r0, [r7, #512]	@ zero_extendqisi2
 687 03d6 FFF7FEFF 		bl	bin2bcd
 688              	.LVL65:
 689 03da C0B2     		uxtb	r0, r0
 690 03dc FFF7FEFF 		bl	pack_byte
 691              	.LVL66:
 412:src/hostmsg.c ****       split_data(INPUT.s_trk1buf.sb_content, INPUT.s_trk1buf.b_len);
 692              		.loc 1 412 0
 693 03e0 7E48     		ldr	r0, .L225+20
 694 03e2 97F80012 		ldrb	r1, [r7, #512]	@ zero_extendqisi2
 695 03e6 FFF7FEFF 		bl	split_data
 696              	.LVL67:
 697              	.L59:
 413:src/hostmsg.c ****     }
 414:src/hostmsg.c ****   }
 415:src/hostmsg.c **** 
 416:src/hostmsg.c ****   /* 48. additional resp. data */
 417:src/hostmsg.c ****   if (tx_bitmap[5] & 0x01) {
 698              		.loc 1 417 0
 699 03ea 9DF81930 		ldrb	r3, [sp, #25]	@ zero_extendqisi2
 700 03ee DF07     		lsls	r7, r3, #31
 701 03f0 0FD5     		bpl	.L62
 418:src/hostmsg.c ****     pack_mem("0038", 4);                                //Total length of TLVs
 702              		.loc 1 418 0
 703 03f2 7B48     		ldr	r0, .L225+24
 704 03f4 0421     		movs	r1, #4
 705 03f6 FFF7FEFF 		bl	pack_mem
 706              	.LVL68:
 419:src/hostmsg.c ****     pack_mem("P10", 3);                                 //Tag P10 - PIN encryption key
 707              		.loc 1 419 0
 708 03fa 7A48     		ldr	r0, .L225+28
 709 03fc 0321     		movs	r1, #3
 710 03fe FFF7FEFF 		bl	pack_mem
ARM GAS  C:\Users\AHMED~1.ELE\AppData\Local\Temp\ccLWufHN.s 			page 21


 711              	.LVL69:
 420:src/hostmsg.c ****     pack_mem("032", 3);                                 //length of data
 712              		.loc 1 420 0
 713 0402 7948     		ldr	r0, .L225+32
 714 0404 0321     		movs	r1, #3
 715 0406 FFF7FEFF 		bl	pack_mem
 716              	.LVL70:
 421:src/hostmsg.c ****     pack_mem("A554A96459E368BF60B927E9F4AD14E9", 32);   //testing only
 717              		.loc 1 421 0
 718 040a 7848     		ldr	r0, .L225+36
 719 040c 2021     		movs	r1, #32
 720 040e FFF7FEFF 		bl	pack_mem
 721              	.LVL71:
 722              	.L62:
 422:src/hostmsg.c ****   }
 423:src/hostmsg.c **** 
 424:src/hostmsg.c ****   /* 49. transaction currency code */
 425:src/hostmsg.c ****   if (tx_bitmap[6] & 0x80) {
 723              		.loc 1 425 0
 724 0412 9DF81A40 		ldrb	r4, [sp, #26]	@ zero_extendqisi2
 725 0416 2506     		lsls	r5, r4, #24
 726 0418 03D5     		bpl	.L63
 426:src/hostmsg.c ****     pack_mem("818", 3);                       //testing only (EGP)
 727              		.loc 1 426 0
 728 041a 7548     		ldr	r0, .L225+40
 729 041c 0321     		movs	r1, #3
 730 041e FFF7FEFF 		bl	pack_mem
 731              	.LVL72:
 732              	.L63:
 427:src/hostmsg.c ****   }
 428:src/hostmsg.c **** 
 429:src/hostmsg.c ****   /* 52. pin block */
 430:src/hostmsg.c ****   if (tx_bitmap[6] & 0x10) {
 733              		.loc 1 430 0
 734 0422 E006     		lsls	r0, r4, #27
 735 0424 0ED5     		bpl	.L64
 431:src/hostmsg.c ****     if (memcmp(TX_DATA.sb_pin, "\x00\x00\x00\x00\x00\x00\x00\x00", 8))
 736              		.loc 1 431 0
 737 0426 7348     		ldr	r0, .L225+44
 738 0428 7349     		ldr	r1, .L225+48
 739 042a 0822     		movs	r2, #8
 740 042c FFF7FEFF 		bl	memcmp
 741              	.LVL73:
 742 0430 20B1     		cbz	r0, .L65
 432:src/hostmsg.c ****       pack_mem (TX_DATA.sb_pin, 8);
 743              		.loc 1 432 0
 744 0432 7048     		ldr	r0, .L225+44
 745 0434 0821     		movs	r1, #8
 746 0436 FFF7FEFF 		bl	pack_mem
 747              	.LVL74:
 748 043a 03E0     		b	.L64
 749              	.L65:
 433:src/hostmsg.c ****     else
 434:src/hostmsg.c ****       tx_bitmap[6] &= ~0x10; /* not applicable, clear BIT */
 750              		.loc 1 434 0
 751 043c 24F01004 		bic	r4, r4, #16
 752 0440 8DF81A40 		strb	r4, [sp, #26]
ARM GAS  C:\Users\AHMED~1.ELE\AppData\Local\Temp\ccLWufHN.s 			page 22


 753              	.L64:
 435:src/hostmsg.c ****   }
 436:src/hostmsg.c **** 
 437:src/hostmsg.c ****   /* 53. security data */
 438:src/hostmsg.c ****   if (tx_bitmap[6] & 0x08) {
 754              		.loc 1 438 0
 755 0444 9DF81A40 		ldrb	r4, [sp, #26]	@ zero_extendqisi2
 756 0448 2107     		lsls	r1, r4, #28
 757 044a 06D5     		bpl	.L66
 439:src/hostmsg.c ****     pack_byte(0x10);
 758              		.loc 1 439 0
 759 044c 1020     		movs	r0, #16
 760 044e FFF7FEFF 		bl	pack_byte
 761              	.LVL75:
 440:src/hostmsg.c ****     pack_mem("0101000000", 10);               //testing only (encrypted by TPK, ANSI format)
 762              		.loc 1 440 0
 763 0452 6A48     		ldr	r0, .L225+52
 764 0454 0A21     		movs	r1, #10
 765 0456 FFF7FEFF 		bl	pack_mem
 766              	.LVL76:
 767              	.L66:
 441:src/hostmsg.c ****   }
 442:src/hostmsg.c **** 
 443:src/hostmsg.c ****   /* 54. additional amount */
 444:src/hostmsg.c ****   if (tx_bitmap[6] & 0x04) {
 768              		.loc 1 444 0
 769 045a 6207     		lsls	r2, r4, #29
 770 045c 25D5     		bpl	.L67
 445:src/hostmsg.c ****     if (TX_DATA.dd_tip !=0) {
 771              		.loc 1 445 0
 772 045e 684D     		ldr	r5, .L225+56
 773 0460 D5E90023 		ldrd	r2, [r5]
 774 0464 1343     		orrs	r3, r2, r3
 775 0466 1CD0     		beq	.L68
 446:src/hostmsg.c ****       pack_word(0x0020);
 776              		.loc 1 446 0
 777 0468 2020     		movs	r0, #32
 778 046a FFF7FEFF 		bl	pack_word
 779              	.LVL77:
 447:src/hostmsg.c ****       pack_mem("04", 2);                  // account type   //testing only
 780              		.loc 1 447 0
 781 046e 6548     		ldr	r0, .L225+60
 782 0470 0221     		movs	r1, #2
 783 0472 FFF7FEFF 		bl	pack_mem
 784              	.LVL78:
 448:src/hostmsg.c ****       pack_mem("04", 2);                  // account type   //testing only
 785              		.loc 1 448 0
 786 0476 6348     		ldr	r0, .L225+60
 787 0478 0221     		movs	r1, #2
 788 047a FFF7FEFF 		bl	pack_mem
 789              	.LVL79:
 449:src/hostmsg.c ****       pack_mem("818", 3);                 // currency code  //testing only
 790              		.loc 1 449 0
 791 047e 5C48     		ldr	r0, .L225+40
 792 0480 0321     		movs	r1, #3
 793 0482 FFF7FEFF 		bl	pack_mem
 794              	.LVL80:
ARM GAS  C:\Users\AHMED~1.ELE\AppData\Local\Temp\ccLWufHN.s 			page 23


 450:src/hostmsg.c ****       pack_mem("C", 1);                   // credit         //testing only
 795              		.loc 1 450 0
 796 0486 0121     		movs	r1, #1
 797 0488 5F48     		ldr	r0, .L225+64
 798 048a FFF7FEFF 		bl	pack_mem
 799              	.LVL81:
 451:src/hostmsg.c ****       dbin2bcd(tmp,TX_DATA.dd_tip);
 800              		.loc 1 451 0
 801 048e 02A8     		add	r0, sp, #8
 802 0490 D5E90023 		ldrd	r2, [r5]
 803 0494 FFF7FEFF 		bl	dbin2bcd
 804              	.LVL82:
 452:src/hostmsg.c ****       split_data(&tmp[4],6);
 805              		.loc 1 452 0
 806 0498 03A8     		add	r0, sp, #12
 807 049a 0621     		movs	r1, #6
 808 049c FFF7FEFF 		bl	split_data
 809              	.LVL83:
 810 04a0 03E0     		b	.L67
 811              	.L68:
 453:src/hostmsg.c ****     }
 454:src/hostmsg.c ****     else
 455:src/hostmsg.c ****       tx_bitmap[6] &= ~0x04; /* no tip, clear BIT */
 812              		.loc 1 455 0
 813 04a2 24F00404 		bic	r4, r4, #4
 814 04a6 8DF81A40 		strb	r4, [sp, #26]
 815              	.L67:
 456:src/hostmsg.c ****   }
 457:src/hostmsg.c **** 
 458:src/hostmsg.c ****   /* 55. EMV data */
 459:src/hostmsg.c ****   if (tx_bitmap[6] & 0x02) {
 816              		.loc 1 459 0
 817 04aa 9DF81A40 		ldrb	r4, [sp, #26]	@ zero_extendqisi2
 818 04ae A307     		lsls	r3, r4, #30
 819 04b0 28D5     		bpl	.L69
 460:src/hostmsg.c ****     // EMVEDC data higher priority
 461:src/hostmsg.c ****     if (TX_DATA.s_icc_data.w_misc_len) {
 820              		.loc 1 461 0
 821 04b2 494D     		ldr	r5, .L225+16
 822 04b4 B5F8AC03 		ldrh	r0, [r5, #940]
 823 04b8 38B1     		cbz	r0, .L70
 462:src/hostmsg.c ****       pack_word(bin2bcd(TX_DATA.s_icc_data.w_misc_len));
 824              		.loc 1 462 0
 825 04ba FFF7FEFF 		bl	bin2bcd
 826              	.LVL84:
 827 04be FFF7FEFF 		bl	pack_word
 828              	.LVL85:
 463:src/hostmsg.c ****       pack_mem(TX_DATA.s_icc_data.sb_misc_content, TX_DATA.s_icc_data.w_misc_len);
 829              		.loc 1 463 0
 830 04c2 5248     		ldr	r0, .L225+68
 831 04c4 B5F8AC13 		ldrh	r1, [r5, #940]
 832 04c8 15E0     		b	.L219
 833              	.L70:
 464:src/hostmsg.c ****     }
 465:src/hostmsg.c ****     else
 466:src/hostmsg.c ****       if (Prompt4DBC() &&
 834              		.loc 1 466 0
ARM GAS  C:\Users\AHMED~1.ELE\AppData\Local\Temp\ccLWufHN.s 			page 24


 835 04ca FFF7FEFF 		bl	Prompt4DBC
 836              	.LVL86:
 837 04ce A8B1     		cbz	r0, .L71
 467:src/hostmsg.c ****           (KTransBitmap[TX_DATA.b_trans].w_txmsg_id!=0x0220) &&
 838              		.loc 1 467 0 discriminator 1
 839 04d0 95F80023 		ldrb	r2, [r5, #768]	@ zero_extendqisi2
 840 04d4 1823     		movs	r3, #24
 841 04d6 5343     		muls	r3, r2, r3
 842 04d8 4D4A     		ldr	r2, .L225+72
 843 04da D35A     		ldrh	r3, [r2, r3]
 466:src/hostmsg.c ****           (KTransBitmap[TX_DATA.b_trans].w_txmsg_id!=0x0220) &&
 844              		.loc 1 466 0 discriminator 1
 845 04dc 23F48072 		bic	r2, r3, #256
 846 04e0 B2F5087F 		cmp	r2, #544
 847 04e4 0AD0     		beq	.L71
 848              		.loc 1 467 0
 849 04e6 B3F5806F 		cmp	r3, #1024
 850 04ea 07D0     		beq	.L71
 468:src/hostmsg.c ****           (KTransBitmap[TX_DATA.b_trans].w_txmsg_id!=0x0400) &&
 469:src/hostmsg.c ****           (KTransBitmap[TX_DATA.b_trans].w_txmsg_id!=0x0320)) {
 470:src/hostmsg.c ****         pack_word(0x0004);
 851              		.loc 1 470 0
 852 04ec 0420     		movs	r0, #4
 853 04ee FFF7FEFF 		bl	pack_word
 854              	.LVL87:
 471:src/hostmsg.c ****         pack_mem(INPUT.sb_amex_4DBC, 4);
 855              		.loc 1 471 0
 856 04f2 4848     		ldr	r0, .L225+76
 857 04f4 0421     		movs	r1, #4
 858              	.L219:
 859 04f6 FFF7FEFF 		bl	pack_mem
 860              	.LVL88:
 861 04fa 03E0     		b	.L69
 862              	.L71:
 472:src/hostmsg.c ****       }
 473:src/hostmsg.c ****       else
 474:src/hostmsg.c ****         tx_bitmap[6] &= ~0x02; // no 4DBC
 863              		.loc 1 474 0
 864 04fc 24F00204 		bic	r4, r4, #2
 865 0500 8DF81A40 		strb	r4, [sp, #26]
 866              	.L69:
 475:src/hostmsg.c ****   }
 476:src/hostmsg.c **** 
 477:src/hostmsg.c ****   /* 60. reserved private */
 478:src/hostmsg.c ****   if (tx_bitmap[7] & 0x10) {
 867              		.loc 1 478 0
 868 0504 9DF81B40 		ldrb	r4, [sp, #27]	@ zero_extendqisi2
 869 0508 E706     		lsls	r7, r4, #27
 870 050a 39D5     		bpl	.L72
 479:src/hostmsg.c ****     if (TX_DATA.b_trans == SETTLEMENT) {
 871              		.loc 1 479 0
 872 050c 324D     		ldr	r5, .L225+16
 873 050e 95F80073 		ldrb	r7, [r5, #768]	@ zero_extendqisi2
 874 0512 0D2F     		cmp	r7, #13
 875 0514 08D1     		bne	.L73
 480:src/hostmsg.c ****       pack_word(0x0006); /* length */
 876              		.loc 1 480 0
ARM GAS  C:\Users\AHMED~1.ELE\AppData\Local\Temp\ccLWufHN.s 			page 25


 877 0516 0620     		movs	r0, #6
 878 0518 FFF7FEFF 		bl	pack_word
 879              	.LVL89:
 481:src/hostmsg.c ****       split_data(STIS_ACQ_TBL(0).sb_curr_batch_no, 3);
 880              		.loc 1 481 0
 881 051c 2B4B     		ldr	r3, .L225+4
 882 051e 0321     		movs	r1, #3
 883 0520 1868     		ldr	r0, [r3]
 884 0522 00F56D70 		add	r0, r0, #948
 885 0526 29E0     		b	.L220
 886              	.L73:
 482:src/hostmsg.c ****     }
 483:src/hostmsg.c ****     else
 484:src/hostmsg.c ****       if (TX_DATA.b_trans == TRANS_UPLOAD) {
 887              		.loc 1 484 0
 888 0528 0C2F     		cmp	r7, #12
 889 052a 1BD1     		bne	.L74
 485:src/hostmsg.c ****         pack_word(0x0022);
 890              		.loc 1 485 0
 891 052c 2220     		movs	r0, #34
 892 052e FFF7FEFF 		bl	pack_word
 893              	.LVL90:
 486:src/hostmsg.c ****         tmp [0] = (BYTE)(KTransBitmap[TX_DATA.b_org_trans].w_txmsg_id >> 8);
 894              		.loc 1 486 0
 895 0532 95F80325 		ldrb	r2, [r5, #1283]	@ zero_extendqisi2
 896 0536 1823     		movs	r3, #24
 487:src/hostmsg.c ****         tmp [1] = (BYTE)(KTransBitmap[TX_DATA.b_org_trans].w_txmsg_id &0xF);
 488:src/hostmsg.c ****         split_data(tmp, 2);
 897              		.loc 1 488 0
 898 0538 02A8     		add	r0, sp, #8
 486:src/hostmsg.c ****         tmp [0] = (BYTE)(KTransBitmap[TX_DATA.b_org_trans].w_txmsg_id >> 8);
 899              		.loc 1 486 0
 900 053a 5343     		muls	r3, r2, r3
 901 053c 344A     		ldr	r2, .L225+72
 902              		.loc 1 488 0
 903 053e 0221     		movs	r1, #2
 486:src/hostmsg.c ****         tmp [0] = (BYTE)(KTransBitmap[TX_DATA.b_org_trans].w_txmsg_id >> 8);
 904              		.loc 1 486 0
 905 0540 D35A     		ldrh	r3, [r2, r3]
 906 0542 1A0A     		lsrs	r2, r3, #8
 487:src/hostmsg.c ****         tmp [1] = (BYTE)(KTransBitmap[TX_DATA.b_org_trans].w_txmsg_id &0xF);
 907              		.loc 1 487 0
 908 0544 03F00F03 		and	r3, r3, #15
 486:src/hostmsg.c ****         tmp [0] = (BYTE)(KTransBitmap[TX_DATA.b_org_trans].w_txmsg_id >> 8);
 909              		.loc 1 486 0
 910 0548 8DF80820 		strb	r2, [sp, #8]
 487:src/hostmsg.c ****         tmp [1] = (BYTE)(KTransBitmap[TX_DATA.b_org_trans].w_txmsg_id &0xF);
 911              		.loc 1 487 0
 912 054c 8DF80930 		strb	r3, [sp, #9]
 913              		.loc 1 488 0
 914 0550 FFF7FEFF 		bl	split_data
 915              	.LVL91:
 489:src/hostmsg.c ****         split_data(TX_DATA.sb_org_trace_no, 3);
 916              		.loc 1 489 0
 917 0554 3048     		ldr	r0, .L225+80
 918 0556 0321     		movs	r1, #3
 919 0558 FFF7FEFF 		bl	split_data
ARM GAS  C:\Users\AHMED~1.ELE\AppData\Local\Temp\ccLWufHN.s 			page 26


 920              	.LVL92:
 490:src/hostmsg.c ****         pack_space(12);
 921              		.loc 1 490 0
 922 055c 3846     		mov	r0, r7
 923 055e FFF7FEFF 		bl	pack_space
 924              	.LVL93:
 925 0562 0DE0     		b	.L72
 926              	.L74:
 491:src/hostmsg.c ****       }
 492:src/hostmsg.c ****       else { /* adjust original amount */
 493:src/hostmsg.c ****         pack_word(0x0012);
 494:src/hostmsg.c ****         dbin2bcd(tmp,TX_DATA.dd_org_amount);
 927              		.loc 1 494 0
 928 0564 05F54A75 		add	r5, r5, #808
 493:src/hostmsg.c ****         dbin2bcd(tmp,TX_DATA.dd_org_amount);
 929              		.loc 1 493 0
 930 0568 1220     		movs	r0, #18
 931 056a FFF7FEFF 		bl	pack_word
 932              	.LVL94:
 933              		.loc 1 494 0
 934 056e 02A8     		add	r0, sp, #8
 935 0570 D5E90023 		ldrd	r2, [r5]
 936 0574 FFF7FEFF 		bl	dbin2bcd
 937              	.LVL95:
 495:src/hostmsg.c ****         split_data(&tmp[4], 6);
 938              		.loc 1 495 0
 939 0578 03A8     		add	r0, sp, #12
 940 057a 0621     		movs	r1, #6
 941              	.L220:
 942 057c FFF7FEFF 		bl	split_data
 943              	.LVL96:
 944              	.L72:
 496:src/hostmsg.c ****       }
 497:src/hostmsg.c ****   }
 498:src/hostmsg.c **** 
 499:src/hostmsg.c ****   /* 61. private - product codes */
 500:src/hostmsg.c ****   if (tx_bitmap[7] & 0x08) {
 945              		.loc 1 500 0
 946 0580 2507     		lsls	r5, r4, #28
 947 0582 51D5     		bpl	.L76
 501:src/hostmsg.c ****     if (TX_DATA.sb_product[0] == 0xFF)
 948              		.loc 1 501 0
 949 0584 144B     		ldr	r3, .L225+16
 950 0586 93F83023 		ldrb	r2, [r3, #816]	@ zero_extendqisi2
 951 058a 1D46     		mov	r5, r3
 952 058c FF2A     		cmp	r2, #255
 953 058e 04D1     		bne	.L77
 502:src/hostmsg.c ****       tx_bitmap[7] &= ~0x08; /* clear BIT */
 954              		.loc 1 502 0
 955 0590 24F00804 		bic	r4, r4, #8
 956 0594 8DF81B40 		strb	r4, [sp, #27]
 957 0598 46E0     		b	.L76
 958              	.L77:
 503:src/hostmsg.c ****     else {
 504:src/hostmsg.c ****       pack_word(0x0008); /* length */
 959              		.loc 1 504 0
 960 059a 0820     		movs	r0, #8
ARM GAS  C:\Users\AHMED~1.ELE\AppData\Local\Temp\ccLWufHN.s 			page 27


 961 059c FFF7FEFF 		bl	pack_word
 962              	.LVL97:
 963 05a0 0024     		movs	r4, #0
 964              	.LVL98:
 965              	.L80:
 966 05a2 2B19     		adds	r3, r5, r4
 505:src/hostmsg.c ****       for (var_i = 0; var_i != 4; var_i++) {
 506:src/hostmsg.c ****         if (TX_DATA.sb_product[var_i] != 0xFF) {
 967              		.loc 1 506 0
 968 05a4 93F83023 		ldrb	r2, [r3, #816]	@ zero_extendqisi2
 969 05a8 FF2A     		cmp	r2, #255
 970 05aa 37D0     		beq	.L78
 507:src/hostmsg.c ****           APM_GetDescTbl(TX_DATA.sb_product[var_i], &prod);
 971              		.loc 1 507 0
 972 05ac 0023     		movs	r3, #0
 973 05ae 1721     		movs	r1, #23
 974 05b0 0093     		str	r3, [sp]
 975 05b2 1020     		movs	r0, #16
 976 05b4 09AB     		add	r3, sp, #36
 977 05b6 FFF7FEFF 		bl	lib_app_call
 978              	.LVL99:
 508:src/hostmsg.c ****           pack_mem((BYTE *)&prod.sb_host_tx_code, 2);
 979              		.loc 1 508 0
 980 05ba 0DF12500 		add	r0, sp, #37
 981 05be 0221     		movs	r1, #2
 982 05c0 FFF7FEFF 		bl	pack_mem
 983              	.LVL100:
 984 05c4 2DE0     		b	.L79
 985              	.L226:
 986 05c6 00BF     		.align	2
 987              	.L225:
 988 05c8 5F030000 		.word	gGTS+863
 989 05cc 00000000 		.word	gGDS
 990 05d0 3F000000 		.word	.LC12
 991 05d4 43000000 		.word	.LC13
 992 05d8 00000000 		.word	gGTS
 993 05dc 01020000 		.word	gGTS+513
 994 05e0 47000000 		.word	.LC14
 995 05e4 4C000000 		.word	.LC15
 996 05e8 50000000 		.word	.LC16
 997 05ec 54000000 		.word	.LC17
 998 05f0 75000000 		.word	.LC18
 999 05f4 F8040000 		.word	gGTS+1272
 1000 05f8 14000000 		.word	.LANCHOR0+20
 1001 05fc 79000000 		.word	.LC20
 1002 0600 20030000 		.word	gGTS+800
 1003 0604 84000000 		.word	.LC21
 1004 0608 87000000 		.word	.LC22
 1005 060c AE030000 		.word	gGTS+942
 1006 0610 00000000 		.word	KTransBitmap
 1007 0614 F7020000 		.word	gGTS+759
 1008 0618 04050000 		.word	gGTS+1284
 1009              	.L78:
 509:src/hostmsg.c ****         }
 510:src/hostmsg.c ****         else
 511:src/hostmsg.c ****           pack_space(2);
 1010              		.loc 1 511 0
ARM GAS  C:\Users\AHMED~1.ELE\AppData\Local\Temp\ccLWufHN.s 			page 28


 1011 061c 0220     		movs	r0, #2
 1012 061e FFF7FEFF 		bl	pack_space
 1013              	.LVL101:
 1014              	.L79:
 1015 0622 0134     		adds	r4, r4, #1
 1016              	.LVL102:
 505:src/hostmsg.c ****         if (TX_DATA.sb_product[var_i] != 0xFF) {
 1017              		.loc 1 505 0 discriminator 2
 1018 0624 042C     		cmp	r4, #4
 1019 0626 BCD1     		bne	.L80
 1020              	.L76:
 512:src/hostmsg.c ****       }
 513:src/hostmsg.c ****     }
 514:src/hostmsg.c ****   }
 515:src/hostmsg.c **** 
 516:src/hostmsg.c ****   /* 62. private - ROC number of financial/SOC number of settlement */
 517:src/hostmsg.c ****   if (tx_bitmap[7] & 0x04) {
 1021              		.loc 1 517 0
 1022 0628 9DF81B40 		ldrb	r4, [sp, #27]	@ zero_extendqisi2
 1023 062c 6007     		lsls	r0, r4, #29
 1024 062e 06D5     		bpl	.L82
 518:src/hostmsg.c ****     pack_word(0x0006); /* length */
 1025              		.loc 1 518 0
 1026 0630 0620     		movs	r0, #6
 1027 0632 FFF7FEFF 		bl	pack_word
 1028              	.LVL103:
 519:src/hostmsg.c ****     split_data(TX_DATA.sb_roc_no, 3);
 1029              		.loc 1 519 0
 1030 0636 2548     		ldr	r0, .L227
 1031 0638 0321     		movs	r1, #3
 1032 063a FFF7FEFF 		bl	split_data
 1033              	.LVL104:
 1034              	.L82:
 520:src/hostmsg.c ****   }
 521:src/hostmsg.c **** 
 522:src/hostmsg.c ****   /* 63. versions */
 523:src/hostmsg.c ****   if (tx_bitmap[7] & 0x02) {
 1035              		.loc 1 523 0
 1036 063e A107     		lsls	r1, r4, #30
 1037 0640 06D5     		bpl	.L83
 524:src/hostmsg.c ****     pack_word(0x0025);
 1038              		.loc 1 524 0
 1039 0642 2520     		movs	r0, #37
 1040 0644 FFF7FEFF 		bl	pack_word
 1041              	.LVL105:
 525:src/hostmsg.c ****     pack_nbyte('0', 25);                              //testing only
 1042              		.loc 1 525 0
 1043 0648 3020     		movs	r0, #48
 1044 064a 1921     		movs	r1, #25
 1045 064c FFF7FEFF 		bl	pack_nbyte
 1046              	.LVL106:
 1047              	.L83:
 526:src/hostmsg.c ****   }
 527:src/hostmsg.c **** 
 528:src/hostmsg.c ****   /* 64. MAC */
 529:src/hostmsg.c ****   if (tx_bitmap[7] & 0x01) {
 1048              		.loc 1 529 0
ARM GAS  C:\Users\AHMED~1.ELE\AppData\Local\Temp\ccLWufHN.s 			page 29


 1049 0650 E207     		lsls	r2, r4, #31
 1050 0652 03D5     		bpl	.L84
 530:src/hostmsg.c ****     pack_mem("\x00\x00\x00\x00\x00\x00\x00\x00", 8);  //testing only
 1051              		.loc 1 530 0
 1052 0654 1E48     		ldr	r0, .L227+4
 1053 0656 0821     		movs	r1, #8
 1054 0658 FFF7FEFF 		bl	pack_mem
 1055              	.LVL107:
 1056              	.L84:
 531:src/hostmsg.c ****   }
 532:src/hostmsg.c **** 
 533:src/hostmsg.c ****   /* 72. Data Record */
 534:src/hostmsg.c ****   if (tx_bitmap[8] & 0x01) {
 1057              		.loc 1 534 0
 1058 065c 9DF81C30 		ldrb	r3, [sp, #28]	@ zero_extendqisi2
 1059 0660 DB07     		lsls	r3, r3, #31
 1060 0662 0BD5     		bpl	.L85
 535:src/hostmsg.c ****     if ((TX_DATA.b_trans == AUTH_SWIPE) || (TX_DATA.b_trans == AUTH_MANUAL)) {
 1061              		.loc 1 535 0
 1062 0664 1B4B     		ldr	r3, .L227+8
 1063 0666 93F80033 		ldrb	r3, [r3, #768]	@ zero_extendqisi2
 1064 066a 012B     		cmp	r3, #1
 1065 066c 06D8     		bhi	.L85
 536:src/hostmsg.c ****       pack_word(0x0040); /* length */
 1066              		.loc 1 536 0
 1067 066e 4020     		movs	r0, #64
 1068 0670 FFF7FEFF 		bl	pack_word
 1069              	.LVL108:
 537:src/hostmsg.c ****       pack_mem("6013260019010000001259708402000000036575", 40);   //testing only
 1070              		.loc 1 537 0
 1071 0674 1848     		ldr	r0, .L227+12
 1072 0676 2821     		movs	r1, #40
 1073 0678 FFF7FEFF 		bl	pack_mem
 1074              	.LVL109:
 1075              	.L85:
 538:src/hostmsg.c ****     }
 539:src/hostmsg.c ****   }
 540:src/hostmsg.c ****   
 541:src/hostmsg.c ****   SprintfMW(buf, "%04d", get_distance());
 1076              		.loc 1 541 0
 1077 067c FFF7FEFF 		bl	get_distance
 1078              	.LVL110:
 1079 0680 1649     		ldr	r1, .L227+16
 1080 0682 0246     		mov	r2, r0
 1081 0684 10A8     		add	r0, sp, #64
 1082 0686 FFF7FEFF 		bl	sprintf
 1083              	.LVL111:
 542:src/hostmsg.c ****   memcpy(len_ptr, buf, 4);
 1084              		.loc 1 542 0
 1085 068a 0422     		movs	r2, #4
 1086 068c 10A9     		add	r1, sp, #64
 1087 068e 0020     		movs	r0, #0
 1088 0690 FFF7FEFF 		bl	memcpy
 1089              	.LVL112:
 543:src/hostmsg.c ****   if (tx_bitmap[0] & 0x80)
 1090              		.loc 1 543 0
 1091 0694 30A9     		add	r1, sp, #192
ARM GAS  C:\Users\AHMED~1.ELE\AppData\Local\Temp\ccLWufHN.s 			page 30


 544:src/hostmsg.c ****     memcpy(bitmap_ptr, tx_bitmap, 16);
 1092              		.loc 1 544 0
 1093 0696 3046     		mov	r0, r6
 543:src/hostmsg.c ****   if (tx_bitmap[0] & 0x80)
 1094              		.loc 1 543 0
 1095 0698 11F9AC3D 		ldrsb	r3, [r1, #-172]!
 1096 069c 002B     		cmp	r3, #0
 1097              		.loc 1 544 0
 1098 069e B4BF     		ite	lt
 1099 06a0 1022     		movlt	r2, #16
 545:src/hostmsg.c ****   else
 546:src/hostmsg.c ****     memcpy(bitmap_ptr, tx_bitmap, 8);
 1100              		.loc 1 546 0
 1101 06a2 0822     		movge	r2, #8
 1102 06a4 FFF7FEFF 		bl	memcpy
 1103              	.LVL113:
 547:src/hostmsg.c ****   PackTxBufLen(ExtraMsgLen());
 1104              		.loc 1 547 0
 1105 06a8 FFF7FEFF 		bl	ExtraMsgLen
 1106              	.LVL114:
 1107 06ac FFF7FEFF 		bl	PackTxBufLen
 1108              	.LVL115:
 548:src/hostmsg.c ****   dbgHex("TxMsg", TX_BUF.sbContent, TX_BUF.wLen);         /* JJJ */
 1109              		.loc 1 548 0
 1110 06b0 0B4B     		ldr	r3, .L227+20
 1111 06b2 0C48     		ldr	r0, .L227+24
 1112 06b4 1B68     		ldr	r3, [r3]
 1113 06b6 03F5CC53 		add	r3, r3, #6528
 1114 06ba 03F11E01 		add	r1, r3, #30
 1115 06be 9A8B     		ldrh	r2, [r3, #28]
 1116 06c0 FFF7FEFF 		bl	dbgHex
 1117              	.LVL116:
 549:src/hostmsg.c **** }
 1118              		.loc 1 549 0
 1119 06c4 30B0     		add	sp, sp, #192
 1120              		.cfi_def_cfa_offset 24
 1121              		@ sp needed
 1122 06c6 BDE8F081 		pop	{r4, r5, r6, r7, r8, pc}
 1123              	.LVL117:
 1124              	.L228:
 1125 06ca 00BF     		.align	2
 1126              	.L227:
 1127 06cc 06030000 		.word	gGTS+774
 1128 06d0 14000000 		.word	.LANCHOR0+20
 1129 06d4 00000000 		.word	gGTS
 1130 06d8 89000000 		.word	.LC23
 1131 06dc B2000000 		.word	.LC24
 1132 06e0 00000000 		.word	gGDS
 1133 06e4 B7000000 		.word	.LC25
 1134              		.cfi_endproc
 1135              	.LFE5:
 1136              		.size	PackHostMsg, .-PackHostMsg
 1137              		.section	.text.CheckHostRsp,"ax",%progbits
 1138              		.align	1
 1139              		.global	CheckHostRsp
 1140              		.thumb
 1141              		.thumb_func
ARM GAS  C:\Users\AHMED~1.ELE\AppData\Local\Temp\ccLWufHN.s 			page 31


 1142              		.type	CheckHostRsp, %function
 1143              	CheckHostRsp:
 1144              	.LFB6:
 550:src/hostmsg.c **** /******************************************************************/
 551:src/hostmsg.c **** /*  This procedure extracts or checks items in response message.  */
 552:src/hostmsg.c **** /*  Enter with type of message to be retrieved:                   */
 553:src/hostmsg.c **** /*  02. P.A.N.                                                    */
 554:src/hostmsg.c **** /*  03. Processing code          04. amount                       */
 555:src/hostmsg.c **** /*  11. system trace number      12. trans time                   */
 556:src/hostmsg.c **** /*  13. trans date               14. expiry date                  */
 557:src/hostmsg.c **** /*  15. settlement date                                           */
 558:src/hostmsg.c **** /*  22. pos entry mode           24. network id                   */
 559:src/hostmsg.c **** /*  25. pos condition code                                        */
 560:src/hostmsg.c **** /*  32.                          37. retrieval reference number   */
 561:src/hostmsg.c **** /*  38. auth code                39. response code                */
 562:src/hostmsg.c **** /*  41. terminal id              42. card acceptor id             */
 563:src/hostmsg.c **** /*  48. CITI instalment info.                                     */
 564:src/hostmsg.c **** /*  54. additional amount        60. init. param / original trans */
 565:src/hostmsg.c **** /*  61. product descriptor code  62. record of charge number      */
 566:src/hostmsg.c **** /******************************************************************/
 567:src/hostmsg.c **** BYTE CheckHostRsp(void)
 568:src/hostmsg.c **** {
 1145              		.loc 1 568 0
 1146              		.cfi_startproc
 1147              		@ args = 0, pretend = 0, frame = 32
 1148              		@ frame_needed = 0, uses_anonymous_args = 0
 1149 0000 2DE9F04F 		push	{r4, r5, r6, r7, r8, r9, r10, fp, lr}
 1150              		.cfi_def_cfa_offset 36
 1151              		.cfi_offset 4, -36
 1152              		.cfi_offset 5, -32
 1153              		.cfi_offset 6, -28
 1154              		.cfi_offset 7, -24
 1155              		.cfi_offset 8, -20
 1156              		.cfi_offset 9, -16
 1157              		.cfi_offset 10, -12
 1158              		.cfi_offset 11, -8
 1159              		.cfi_offset 14, -4
 569:src/hostmsg.c ****   DWORD var_i;
 570:src/hostmsg.c ****   WORD msg_id;
 571:src/hostmsg.c ****   BYTE bitmap[8];
 572:src/hostmsg.c ****   BYTE tmp;
 573:src/hostmsg.c ****   BOOLEAN more_msg, sync_datetime;
 574:src/hostmsg.c **** 
 575:src/hostmsg.c ****   Disp2x16Msg(GetConstMsg(EDC_CO_PROCESSING), MW_LINE5, MW_CENTER|MW_BIGFONT);
 1160              		.loc 1 575 0
 1161 0004 0320     		movs	r0, #3
 568:src/hostmsg.c ****   DWORD var_i;
 1162              		.loc 1 568 0
 1163 0006 89B0     		sub	sp, sp, #36
 1164              		.cfi_def_cfa_offset 72
 1165              		.loc 1 575 0
 1166 0008 FFF7FEFF 		bl	GetConstMsg
 1167              	.LVL118:
 1168 000c 4FF4A061 		mov	r1, #1280
 1169 0010 41F20202 		movw	r2, #4098
 1170 0014 FFF7FEFF 		bl	Disp2x16Msg
 1171              	.LVL119:
ARM GAS  C:\Users\AHMED~1.ELE\AppData\Local\Temp\ccLWufHN.s 			page 32


 576:src/hostmsg.c ****   if (TrainingModeON())
 1172              		.loc 1 576 0
 1173 0018 FFF7FEFF 		bl	TrainingModeON
 1174              	.LVL120:
 1175 001c 0446     		mov	r4, r0
 1176 001e 40B3     		cbz	r0, .L230
 1177              	.LBB18:
 1178              	.LBB19:
  64:src/hostmsg.c ****   memset(RSP_DATA.sb_auth_code, '0', sizeof(RSP_DATA.sb_auth_code));
 1179              		.loc 1 64 0
 1180 0020 0DF11504 		add	r4, sp, #21
  63:src/hostmsg.c ****   memcpy(&RSP_DATA.s_dtg.b_year, &dtg.b_year, 6);
 1181              		.loc 1 63 0
 1182 0024 05A8     		add	r0, sp, #20
 1183 0026 FFF7FEFF 		bl	ReadRTC
 1184              	.LVL121:
  64:src/hostmsg.c ****   memset(RSP_DATA.sb_auth_code, '0', sizeof(RSP_DATA.sb_auth_code));
 1185              		.loc 1 64 0
 1186 002a 2146     		mov	r1, r4
 1187 002c 0622     		movs	r2, #6
 1188 002e B548     		ldr	r0, .L331
 1189 0030 FFF7FEFF 		bl	memcpy
 1190              	.LVL122:
  65:src/hostmsg.c ****   split(RSP_DATA.sb_rrn, &dtg.b_year, 6);
 1191              		.loc 1 65 0
 1192 0034 3021     		movs	r1, #48
 1193 0036 0622     		movs	r2, #6
 1194 0038 B348     		ldr	r0, .L331+4
 1195 003a FFF7FEFF 		bl	memset
 1196              	.LVL123:
  66:src/hostmsg.c ****   RSP_DATA.b_response = TRANS_ACP;
 1197              		.loc 1 66 0
 1198 003e 2146     		mov	r1, r4
 1199 0040 B248     		ldr	r0, .L331+8
 1200 0042 0622     		movs	r2, #6
 1201 0044 FFF7FEFF 		bl	split
 1202              	.LVL124:
  67:src/hostmsg.c ****   RSP_DATA.w_rspcode = '0'*256+'0';
 1203              		.loc 1 67 0
 1204 0048 0024     		movs	r4, #0
 1205 004a B14B     		ldr	r3, .L331+12
  68:src/hostmsg.c ****   RSP_DATA.dd_amount = 0;
 1206              		.loc 1 68 0
 1207 004c 43F23002 		movw	r2, #12336
  67:src/hostmsg.c ****   RSP_DATA.w_rspcode = '0'*256+'0';
 1208              		.loc 1 67 0
 1209 0050 83F80047 		strb	r4, [r3, #1792]
  68:src/hostmsg.c ****   RSP_DATA.dd_amount = 0;
 1210              		.loc 1 68 0
 1211 0054 A3F86E25 		strh	r2, [r3, #1390]	@ movhi
  69:src/hostmsg.c ****   memset(&RSP_DATA.text[21], ' ', 20);
 1212              		.loc 1 69 0
 1213 0058 0020     		movs	r0, #0
 1214 005a 03F5A463 		add	r3, r3, #1312
 1215 005e 0021     		movs	r1, #0
  70:src/hostmsg.c ****   return TRANS_ACP;
 1216              		.loc 1 70 0
ARM GAS  C:\Users\AHMED~1.ELE\AppData\Local\Temp\ccLWufHN.s 			page 33


 1217 0060 1422     		movs	r2, #20
  69:src/hostmsg.c ****   memset(&RSP_DATA.text[21], ' ', 20);
 1218              		.loc 1 69 0
 1219 0062 C3E90001 		strd	r0, [r3]
  70:src/hostmsg.c ****   return TRANS_ACP;
 1220              		.loc 1 70 0
 1221 0066 03F5FB70 		add	r0, r3, #502
 1222 006a 2021     		movs	r1, #32
 1223 006c FFF7FEFF 		bl	memset
 1224              	.LVL125:
 1225              	.LBE19:
 1226              	.LBE18:
 577:src/hostmsg.c ****     return TrainingRsp();
 1227              		.loc 1 577 0
 1228 0070 F2E1     		b	.L231
 1229              	.L230:
 578:src/hostmsg.c **** 
 579:src/hostmsg.c ****   dbgHex("RxMsg", RX_BUF.sbContent, RX_BUF.wLen);         /* JJJ */
 1230              		.loc 1 579 0
 1231 0072 A84E     		ldr	r6, .L331+16
 1232 0074 A848     		ldr	r0, .L331+20
 1233 0076 3368     		ldr	r3, [r6]
 1234 0078 03F51653 		add	r3, r3, #9600
 1235 007c 03F12201 		add	r1, r3, #34
 1236 0080 1A8C     		ldrh	r2, [r3, #32]
 1237 0082 FFF7FEFF 		bl	dbgHex
 1238              	.LVL126:
 580:src/hostmsg.c ****   RxBufSetup(ExtraMsgLen());
 1239              		.loc 1 580 0
 1240 0086 FFF7FEFF 		bl	ExtraMsgLen
 1241              	.LVL127:
 1242 008a FFF7FEFF 		bl	RxBufSetup
 1243              	.LVL128:
 581:src/hostmsg.c ****   more_msg = sync_datetime = 0;
 582:src/hostmsg.c ****   inc_pptr(5); // 5 BYTE TO MSGID
 1244              		.loc 1 582 0
 1245 008e 0520     		movs	r0, #5
 1246 0090 FFF7FEFF 		bl	inc_pptr
 1247              	.LVL129:
 583:src/hostmsg.c **** 
 584:src/hostmsg.c ****   if ((msg_id=get_word()) == 0x0820)
 1248              		.loc 1 584 0
 1249 0094 FFF7FEFF 		bl	get_word
 1250              	.LVL130:
 1251 0098 80B2     		uxth	r0, r0
 1252 009a B0F5026F 		cmp	r0, #2080
 1253 009e 00F0D881 		beq	.L270
 585:src/hostmsg.c ****     return 0xff; /* please wait message */
 586:src/hostmsg.c ****   if ((KTransBitmap[TX_DATA.b_trans].w_txmsg_id + 0x10) != msg_id) {
 1254              		.loc 1 586 0
 1255 00a2 9B4B     		ldr	r3, .L331+12
 1256 00a4 1822     		movs	r2, #24
 1257 00a6 93F80013 		ldrb	r1, [r3, #768]	@ zero_extendqisi2
 1258 00aa 1D46     		mov	r5, r3
 1259 00ac 4A43     		muls	r2, r1, r2
 1260 00ae 9B49     		ldr	r1, .L331+24
 1261 00b0 8A5A     		ldrh	r2, [r1, r2]
ARM GAS  C:\Users\AHMED~1.ELE\AppData\Local\Temp\ccLWufHN.s 			page 34


 1262 00b2 1032     		adds	r2, r2, #16
 1263 00b4 8242     		cmp	r2, r0
 1264 00b6 02D0     		beq	.L232
 587:src/hostmsg.c ****     RSP_DATA.w_rspcode = 'I'*256+'R';
 1265              		.loc 1 587 0
 1266 00b8 44F65212 		movw	r2, #18770
 1267 00bc 6FE0     		b	.L329
 1268              	.L232:
 588:src/hostmsg.c ****     return TRANS_FAIL;
 589:src/hostmsg.c ****   }
 590:src/hostmsg.c **** 
 591:src/hostmsg.c ****   get_mem(bitmap, 8);
 1269              		.loc 1 591 0
 1270 00be 03A8     		add	r0, sp, #12
 1271              	.LVL131:
 1272 00c0 0821     		movs	r1, #8
 1273 00c2 FFF7FEFF 		bl	get_mem
 1274              	.LVL132:
 592:src/hostmsg.c **** 
 593:src/hostmsg.c ****   /* 02. pan */
 594:src/hostmsg.c ****   if (bitmap[0] & 0x40) {
 1275              		.loc 1 594 0
 1276 00c6 9DF80C30 		ldrb	r3, [sp, #12]	@ zero_extendqisi2
 1277 00ca 5F06     		lsls	r7, r3, #25
 1278 00cc 0ED5     		bpl	.L233
 595:src/hostmsg.c ****     var_i = bcd2bin(get_byte());
 1279              		.loc 1 595 0
 1280 00ce FFF7FEFF 		bl	get_byte
 1281              	.LVL133:
 1282 00d2 FFF7FEFF 		bl	bcd2bin
 1283              	.LVL134:
 596:src/hostmsg.c ****     memset(RSP_DATA.sb_pan, 0xFF, 10);
 1284              		.loc 1 596 0
 1285 00d6 FF21     		movs	r1, #255
 1286 00d8 0A22     		movs	r2, #10
 595:src/hostmsg.c ****     var_i = bcd2bin(get_byte());
 1287              		.loc 1 595 0
 1288 00da 0746     		mov	r7, r0
 1289              	.LVL135:
 1290              		.loc 1 596 0
 1291 00dc 9048     		ldr	r0, .L331+28
 1292              	.LVL136:
 1293 00de FFF7FEFF 		bl	memset
 1294              	.LVL137:
 597:src/hostmsg.c ****     get_mem(RSP_DATA.sb_pan, ((var_i+1)/2));
 1295              		.loc 1 597 0
 1296 00e2 791C     		adds	r1, r7, #1
 1297 00e4 8E48     		ldr	r0, .L331+28
 1298 00e6 4908     		lsrs	r1, r1, #1
 1299 00e8 FFF7FEFF 		bl	get_mem
 1300              	.LVL138:
 1301              	.L233:
 598:src/hostmsg.c ****   }
 599:src/hostmsg.c **** 
 600:src/hostmsg.c ****   /* 03. processing code */
 601:src/hostmsg.c ****   if (bitmap[0] & 0x20) {
 1302              		.loc 1 601 0
ARM GAS  C:\Users\AHMED~1.ELE\AppData\Local\Temp\ccLWufHN.s 			page 35


 1303 00ec 9DF80C30 		ldrb	r3, [sp, #12]	@ zero_extendqisi2
 1304 00f0 9806     		lsls	r0, r3, #26
 1305 00f2 22D5     		bpl	.L234
 602:src/hostmsg.c ****     if (memcmp(get_pptr(), TX_DATA.sb_proc_code, 2)!=0) {
 1306              		.loc 1 602 0
 1307 00f4 FFF7FEFF 		bl	get_pptr
 1308              	.LVL139:
 1309 00f8 8A49     		ldr	r1, .L331+32
 1310 00fa 0222     		movs	r2, #2
 1311 00fc FFF7FEFF 		bl	memcmp
 1312              	.LVL140:
 1313 0100 68B1     		cbz	r0, .L235
 603:src/hostmsg.c ****       if ((TX_DATA.b_trans != SETTLEMENT)|| (memcmp(get_pptr(),KSetlPCode2,2)!=0)) {
 1314              		.loc 1 603 0
 1315 0102 95F80033 		ldrb	r3, [r5, #768]	@ zero_extendqisi2
 1316 0106 0D2B     		cmp	r3, #13
 1317 0108 06D1     		bne	.L237
 1318              		.loc 1 603 0 is_stmt 0 discriminator 1
 1319 010a FFF7FEFF 		bl	get_pptr
 1320              	.LVL141:
 1321 010e 8649     		ldr	r1, .L331+36
 1322 0110 0222     		movs	r2, #2
 1323 0112 FFF7FEFF 		bl	memcmp
 1324              	.LVL142:
 1325 0116 10B1     		cbz	r0, .L235
 1326              	.L237:
 604:src/hostmsg.c ****         RSP_DATA.w_rspcode = 'I'*256+'P';
 1327              		.loc 1 604 0 is_stmt 1
 1328 0118 44F65013 		movw	r3, #18768
 1329 011c ABE0     		b	.L330
 1330              	.L235:
 605:src/hostmsg.c ****         return TRANS_FAIL;
 606:src/hostmsg.c ****       }
 607:src/hostmsg.c ****     }
 608:src/hostmsg.c ****     inc_pptr(2);
 1331              		.loc 1 608 0
 1332 011e 0220     		movs	r0, #2
 1333 0120 FFF7FEFF 		bl	inc_pptr
 1334              	.LVL143:
 609:src/hostmsg.c ****     tmp = get_byte();
 1335              		.loc 1 609 0
 1336 0124 FFF7FEFF 		bl	get_byte
 1337              	.LVL144:
 610:src/hostmsg.c ****     if ((TX_DATA.b_trans == TRANS_UPLOAD) && (tmp == 0x01))
 1338              		.loc 1 610 0
 1339 0128 95F80033 		ldrb	r3, [r5, #768]	@ zero_extendqisi2
 1340 012c 0C2B     		cmp	r3, #12
 609:src/hostmsg.c ****     tmp = get_byte();
 1341              		.loc 1 609 0
 1342 012e C0B2     		uxtb	r0, r0
 1343              	.LVL145:
 1344              		.loc 1 610 0
 1345 0130 01D1     		bne	.L239
 1346              		.loc 1 610 0 is_stmt 0 discriminator 1
 1347 0132 0128     		cmp	r0, #1
 1348 0134 03D0     		beq	.L271
 1349              	.L239:
ARM GAS  C:\Users\AHMED~1.ELE\AppData\Local\Temp\ccLWufHN.s 			page 36


 611:src/hostmsg.c ****       more_msg = 1;
 612:src/hostmsg.c ****     else if ((tmp != 0x01) && tmp) {
 1350              		.loc 1 612 0 is_stmt 1
 1351 0136 0128     		cmp	r0, #1
 1352 0138 EED8     		bhi	.L237
 1353              	.LVL146:
 1354              	.L234:
 581:src/hostmsg.c ****   inc_pptr(5); // 5 BYTE TO MSGID
 1355              		.loc 1 581 0
 1356 013a 0027     		movs	r7, #0
 1357 013c 00E0     		b	.L240
 1358              	.LVL147:
 1359              	.L271:
 611:src/hostmsg.c ****       more_msg = 1;
 1360              		.loc 1 611 0
 1361 013e 0746     		mov	r7, r0
 1362              	.LVL148:
 1363              	.L240:
 613:src/hostmsg.c ****       RSP_DATA.w_rspcode = 'I'*256+'P';
 614:src/hostmsg.c ****       return TRANS_FAIL;
 615:src/hostmsg.c ****     }
 616:src/hostmsg.c ****   }
 617:src/hostmsg.c **** 
 618:src/hostmsg.c ****   /* 04. amount */
 619:src/hostmsg.c ****   if (bitmap[0] & 0x10) {
 1364              		.loc 1 619 0
 1365 0140 9DF80C30 		ldrb	r3, [sp, #12]	@ zero_extendqisi2
 1366 0144 D906     		lsls	r1, r3, #27
 1367 0146 11D5     		bpl	.L241
 620:src/hostmsg.c ****     RSP_DATA.dd_amount = BcdBin8b(get_pptr(),6);
 1368              		.loc 1 620 0
 1369 0148 FFF7FEFF 		bl	get_pptr
 1370              	.LVL149:
 1371              	.LBB20:
 1372              	.LBB21:
 1373              	.LBB22:
 1374              	.LBB23:
 104:src/hostmsg.c ****     return decbin4b(buffer,(BYTE)(aLen*2));
 1375              		.loc 1 104 0
 1376 014c 0622     		movs	r2, #6
 1377              	.LBE23:
 1378              	.LBE22:
 1379              	.LBE21:
 1380              	.LBE20:
 1381              		.loc 1 620 0
 1382 014e 0146     		mov	r1, r0
 1383              	.LVL150:
 1384              	.LBB27:
 1385              	.LBB26:
 1386              	.LBB25:
 1387              	.LBB24:
 104:src/hostmsg.c ****     return decbin4b(buffer,(BYTE)(aLen*2));
 1388              		.loc 1 104 0
 1389 0150 05A8     		add	r0, sp, #20
 1390              	.LVL151:
 1391 0152 FFF7FEFF 		bl	split
 1392              	.LVL152:
ARM GAS  C:\Users\AHMED~1.ELE\AppData\Local\Temp\ccLWufHN.s 			page 37


 105:src/hostmsg.c ****   }
 1393              		.loc 1 105 0
 1394 0156 0C21     		movs	r1, #12
 1395 0158 05A8     		add	r0, sp, #20
 1396 015a FFF7FEFF 		bl	decbin4b
 1397              	.LVL153:
 1398 015e 0021     		movs	r1, #0
 1399 0160 724B     		ldr	r3, .L331+40
 1400 0162 C3E90001 		strd	r0, [r3]
 1401              	.LBE24:
 1402              	.LBE25:
 1403              	.LBE26:
 1404              	.LBE27:
 621:src/hostmsg.c ****     inc_pptr(6);
 1405              		.loc 1 621 0
 1406 0166 0620     		movs	r0, #6
 1407 0168 FFF7FEFF 		bl	inc_pptr
 1408              	.LVL154:
 1409              	.L241:
 622:src/hostmsg.c ****   }
 623:src/hostmsg.c **** 
 624:src/hostmsg.c ****   /* 11. check system trace no */
 625:src/hostmsg.c ****   if (bitmap[1] & 0x20) {
 1410              		.loc 1 625 0
 1411 016c 9DF80D30 		ldrb	r3, [sp, #13]	@ zero_extendqisi2
 1412 0170 9A06     		lsls	r2, r3, #26
 1413 0172 1AD5     		bpl	.L243
 626:src/hostmsg.c ****     if (TX_DATA.b_trans != TRANS_UPLOAD) {
 1414              		.loc 1 626 0
 1415 0174 95F80033 		ldrb	r3, [r5, #768]	@ zero_extendqisi2
 1416 0178 0C2B     		cmp	r3, #12
 1417 017a 13D0     		beq	.L244
 1418              	.LVL155:
 1419              	.LBB28:
 1420              	.LBB29:
  86:src/hostmsg.c ****   inc_pptr(aLen);
 1421              		.loc 1 86 0
 1422 017c FFF7FEFF 		bl	get_pptr
 1423              	.LVL156:
 1424 0180 0322     		movs	r2, #3
 1425 0182 0146     		mov	r1, r0
 1426 0184 6A48     		ldr	r0, .L331+44
 1427              	.LVL157:
 1428 0186 FFF7FEFF 		bl	memcmp
 1429              	.LVL158:
 1430 018a 8046     		mov	r8, r0
 1431              	.LVL159:
  87:src/hostmsg.c ****   return(result);
 1432              		.loc 1 87 0
 1433 018c 0320     		movs	r0, #3
 1434              	.LVL160:
 1435 018e FFF7FEFF 		bl	inc_pptr
 1436              	.LVL161:
 1437              	.LBE29:
 1438              	.LBE28:
 627:src/hostmsg.c ****       if (!Match(TX_DATA.sb_trace_no, 3)) {
 1439              		.loc 1 627 0
ARM GAS  C:\Users\AHMED~1.ELE\AppData\Local\Temp\ccLWufHN.s 			page 38


 1440 0192 B8F1000F 		cmp	r8, #0
 1441 0196 08D0     		beq	.L243
 628:src/hostmsg.c ****         RSP_DATA.w_rspcode = 'I'*256+'S';
 1442              		.loc 1 628 0
 1443 0198 44F65312 		movw	r2, #18771
 1444 019c 5C4B     		ldr	r3, .L331+12
 1445              	.LVL162:
 1446              	.L329:
 1447 019e A3F86E25 		strh	r2, [r3, #1390]	@ movhi
 1448 01a2 ADE0     		b	.L328
 1449              	.LVL163:
 1450              	.L244:
 629:src/hostmsg.c ****         return TRANS_FAIL;
 630:src/hostmsg.c ****       }
 631:src/hostmsg.c ****     } else
 632:src/hostmsg.c ****       inc_pptr(3);
 1451              		.loc 1 632 0
 1452 01a4 0320     		movs	r0, #3
 1453 01a6 FFF7FEFF 		bl	inc_pptr
 1454              	.LVL164:
 1455              	.L243:
 633:src/hostmsg.c ****   }
 634:src/hostmsg.c **** 
 635:src/hostmsg.c ****   /* 12. trans time */
 636:src/hostmsg.c ****   if (bitmap[1] & 0x10) {
 1456              		.loc 1 636 0
 1457 01aa 9DF80D30 		ldrb	r3, [sp, #13]	@ zero_extendqisi2
 1458 01ae 03F01003 		and	r3, r3, #16
 1459 01b2 03F0FF08 		and	r8, r3, #255
 1460 01b6 2BB1     		cbz	r3, .L246
 1461              	.LVL165:
 637:src/hostmsg.c ****     sync_datetime |= 0x10;
 638:src/hostmsg.c ****     get_mem(&RSP_DATA.s_dtg.b_hour, 3);
 1462              		.loc 1 638 0
 1463 01b8 5E48     		ldr	r0, .L331+48
 1464 01ba 0321     		movs	r1, #3
 1465 01bc FFF7FEFF 		bl	get_mem
 1466              	.LVL166:
 637:src/hostmsg.c ****     sync_datetime |= 0x10;
 1467              		.loc 1 637 0
 1468 01c0 4FF01008 		mov	r8, #16
 1469              	.LVL167:
 1470              	.L246:
 639:src/hostmsg.c ****   }
 640:src/hostmsg.c **** 
 641:src/hostmsg.c ****   /* 13. trans date */
 642:src/hostmsg.c ****   if (bitmap[1] & 0x08) {
 1471              		.loc 1 642 0
 1472 01c4 9DF80D30 		ldrb	r3, [sp, #13]	@ zero_extendqisi2
 1473 01c8 1B07     		lsls	r3, r3, #28
 1474 01ca 05D5     		bpl	.L247
 643:src/hostmsg.c ****     sync_datetime |= 0x08;
 644:src/hostmsg.c ****     get_mem(&RSP_DATA.s_dtg.b_month, 2);
 1475              		.loc 1 644 0
 1476 01cc 5A48     		ldr	r0, .L331+52
 1477 01ce 0221     		movs	r1, #2
 643:src/hostmsg.c ****     sync_datetime |= 0x08;
ARM GAS  C:\Users\AHMED~1.ELE\AppData\Local\Temp\ccLWufHN.s 			page 39


 1478              		.loc 1 643 0
 1479 01d0 48F00808 		orr	r8, r8, #8
 1480              	.LVL168:
 1481              		.loc 1 644 0
 1482 01d4 FFF7FEFF 		bl	get_mem
 1483              	.LVL169:
 1484              	.L247:
 645:src/hostmsg.c ****   }
 646:src/hostmsg.c **** 
 647:src/hostmsg.c ****   /* 14. expiry date */
 648:src/hostmsg.c ****   if (bitmap[1] & 0x04) {
 1485              		.loc 1 648 0
 1486 01d8 9DF80D30 		ldrb	r3, [sp, #13]	@ zero_extendqisi2
 1487 01dc 5807     		lsls	r0, r3, #29
 1488 01de 03D5     		bpl	.L248
 649:src/hostmsg.c ****     get_mem(RSP_DATA.sb_exp_date, 2);
 1489              		.loc 1 649 0
 1490 01e0 5648     		ldr	r0, .L331+56
 1491 01e2 0221     		movs	r1, #2
 1492 01e4 FFF7FEFF 		bl	get_mem
 1493              	.LVL170:
 1494              	.L248:
 650:src/hostmsg.c ****   }
 651:src/hostmsg.c **** 
 652:src/hostmsg.c ****   /* 24. bypass netword id */
 653:src/hostmsg.c ****   if (bitmap[2] & 0x01) {
 1495              		.loc 1 653 0
 1496 01e8 9DF80E30 		ldrb	r3, [sp, #14]	@ zero_extendqisi2
 1497 01ec D907     		lsls	r1, r3, #31
 1498 01ee 02D5     		bpl	.L249
 654:src/hostmsg.c ****     inc_pptr(2);
 1499              		.loc 1 654 0
 1500 01f0 0220     		movs	r0, #2
 1501 01f2 FFF7FEFF 		bl	inc_pptr
 1502              	.LVL171:
 1503              	.L249:
 655:src/hostmsg.c ****   }
 656:src/hostmsg.c **** 
 657:src/hostmsg.c ****   /* 25. pos condition code */
 658:src/hostmsg.c ****   if (bitmap[3] & 0x80) {
 1504              		.loc 1 658 0
 1505 01f6 9DF90F30 		ldrsb	r3, [sp, #15]
 1506 01fa 002B     		cmp	r3, #0
 1507 01fc 02DA     		bge	.L250
 659:src/hostmsg.c ****     inc_pptr(1);
 1508              		.loc 1 659 0
 1509 01fe 0120     		movs	r0, #1
 1510 0200 FFF7FEFF 		bl	inc_pptr
 1511              	.LVL172:
 1512              	.L250:
 660:src/hostmsg.c ****   }
 661:src/hostmsg.c **** 
 662:src/hostmsg.c ****   /* 37. retrieval reference number */
 663:src/hostmsg.c ****   if (bitmap[4] & 0x08) {
 1513              		.loc 1 663 0
 1514 0204 9DF81030 		ldrb	r3, [sp, #16]	@ zero_extendqisi2
 1515 0208 1A07     		lsls	r2, r3, #28
ARM GAS  C:\Users\AHMED~1.ELE\AppData\Local\Temp\ccLWufHN.s 			page 40


 1516 020a 03D5     		bpl	.L251
 664:src/hostmsg.c ****     get_mem(RSP_DATA.sb_rrn, 12);
 1517              		.loc 1 664 0
 1518 020c 3F48     		ldr	r0, .L331+8
 1519 020e 0C21     		movs	r1, #12
 1520 0210 FFF7FEFF 		bl	get_mem
 1521              	.LVL173:
 1522              	.L251:
 665:src/hostmsg.c ****   }
 666:src/hostmsg.c **** 
 667:src/hostmsg.c ****   /* 38. auth code */
 668:src/hostmsg.c ****   memset(RSP_DATA.sb_auth_code, ' ', 6);
 1523              		.loc 1 668 0
 1524 0214 3C48     		ldr	r0, .L331+4
 1525 0216 2021     		movs	r1, #32
 1526 0218 0622     		movs	r2, #6
 1527 021a FFF7FEFF 		bl	memset
 1528              	.LVL174:
 669:src/hostmsg.c ****   if (bitmap[4] & 0x04) {
 1529              		.loc 1 669 0
 1530 021e 9DF81030 		ldrb	r3, [sp, #16]	@ zero_extendqisi2
 1531 0222 5B07     		lsls	r3, r3, #29
 1532 0224 03D5     		bpl	.L252
 670:src/hostmsg.c ****     get_mem(RSP_DATA.sb_auth_code, 6);
 1533              		.loc 1 670 0
 1534 0226 3848     		ldr	r0, .L331+4
 1535 0228 0621     		movs	r1, #6
 1536 022a FFF7FEFF 		bl	get_mem
 1537              	.LVL175:
 1538              	.L252:
 671:src/hostmsg.c ****   }
 672:src/hostmsg.c **** 
 673:src/hostmsg.c ****   /* 39. response code  */
 674:src/hostmsg.c ****   RSP_DATA.w_rspcode = '0'*256+'0'; // upload response does not have response code
 1539              		.loc 1 674 0
 1540 022e 43F23003 		movw	r3, #12336
 1541 0232 A5F86E35 		strh	r3, [r5, #1390]	@ movhi
 675:src/hostmsg.c ****   if (bitmap[4] & 0x02) {
 1542              		.loc 1 675 0
 1543 0236 9DF81030 		ldrb	r3, [sp, #16]	@ zero_extendqisi2
 1544 023a 9807     		lsls	r0, r3, #30
 1545 023c 04D5     		bpl	.L253
 676:src/hostmsg.c ****     RSP_DATA.w_rspcode=get_word();
 1546              		.loc 1 676 0
 1547 023e FFF7FEFF 		bl	get_word
 1548              	.LVL176:
 1549 0242 334B     		ldr	r3, .L331+12
 1550 0244 A3F86E05 		strh	r0, [r3, #1390]	@ movhi
 1551              	.L253:
 677:src/hostmsg.c **** //     printf("\x1b\xc0%02x: %c%c", RSP_DATA.w_rspcode, RSP_DATA.w_rspcode>>8, RSP_DATA.w_rspcode&0
 678:src/hostmsg.c **** //     Delay1Sec(3, 0);
 679:src/hostmsg.c ****   }
 680:src/hostmsg.c **** 
 681:src/hostmsg.c ****   /* 41. term id */
 682:src/hostmsg.c ****   if (bitmap[5] & 0x80) {
 1552              		.loc 1 682 0
 1553 0248 9DF91130 		ldrsb	r3, [sp, #17]
ARM GAS  C:\Users\AHMED~1.ELE\AppData\Local\Temp\ccLWufHN.s 			page 41


 1554 024c 002B     		cmp	r3, #0
 1555 024e 15DA     		bge	.L254
 683:src/hostmsg.c ****     if (!Match(STIS_ACQ_TBL(0).sb_term_id, 8)) {
 1556              		.loc 1 683 0
 1557 0250 3068     		ldr	r0, [r6]
 1558 0252 00F56779 		add	r9, r0, #924
 1559              	.LVL177:
 1560              	.LBB30:
 1561              	.LBB31:
  86:src/hostmsg.c ****   inc_pptr(aLen);
 1562              		.loc 1 86 0
 1563 0256 FFF7FEFF 		bl	get_pptr
 1564              	.LVL178:
 1565 025a 0822     		movs	r2, #8
 1566 025c 0146     		mov	r1, r0
 1567 025e 4846     		mov	r0, r9
 1568 0260 FFF7FEFF 		bl	memcmp
 1569              	.LVL179:
 1570 0264 8146     		mov	r9, r0
 1571              	.LVL180:
  87:src/hostmsg.c ****   return(result);
 1572              		.loc 1 87 0
 1573 0266 0820     		movs	r0, #8
 1574              	.LVL181:
 1575 0268 FFF7FEFF 		bl	inc_pptr
 1576              	.LVL182:
 1577              	.LBE31:
 1578              	.LBE30:
 1579              		.loc 1 683 0
 1580 026c B9F1000F 		cmp	r9, #0
 1581 0270 04D0     		beq	.L254
 684:src/hostmsg.c ****       RSP_DATA.w_rspcode = 'I'*256+'T';
 1582              		.loc 1 684 0
 1583 0272 44F65413 		movw	r3, #18772
 1584              	.LVL183:
 1585              	.L330:
 1586 0276 A5F86E35 		strh	r3, [r5, #1390]	@ movhi
 1587 027a 41E0     		b	.L328
 1588              	.LVL184:
 1589              	.L254:
 685:src/hostmsg.c ****       return TRANS_FAIL;
 686:src/hostmsg.c ****     }
 687:src/hostmsg.c ****   }
 688:src/hostmsg.c **** 
 689:src/hostmsg.c ****   /* 54. additional amount */
 690:src/hostmsg.c ****   RSP_DATA.dd_tip=0;
 691:src/hostmsg.c ****   if (bitmap[6] & 0x04) {
 1590              		.loc 1 691 0
 1591 027c 9DF81210 		ldrb	r1, [sp, #18]	@ zero_extendqisi2
 690:src/hostmsg.c ****   if (bitmap[6] & 0x04) {
 1592              		.loc 1 690 0
 1593 0280 0022     		movs	r2, #0
 1594 0282 2F4B     		ldr	r3, .L331+60
 1595 0284 9346     		mov	fp, r2
 1596              		.loc 1 691 0
 1597 0286 11F0040F 		tst	r1, #4
 690:src/hostmsg.c ****   if (bitmap[6] & 0x04) {
ARM GAS  C:\Users\AHMED~1.ELE\AppData\Local\Temp\ccLWufHN.s 			page 42


 1598              		.loc 1 690 0
 1599 028a 83E80408 		stmia	r3, {r2, fp}
 1600 028e 9946     		mov	r9, r3
 1601              		.loc 1 691 0
 1602 0290 1FD0     		beq	.L255
 1603 0292 0192     		str	r2, [sp, #4]
 692:src/hostmsg.c ****     RSP_DATA.dd_tip = BcdBin8b(get_pptr(),(BYTE)(bcd2bin(get_word())/2));
 1604              		.loc 1 692 0
 1605 0294 FFF7FEFF 		bl	get_pptr
 1606              	.LVL185:
 1607 0298 0090     		str	r0, [sp]
 1608 029a FFF7FEFF 		bl	get_word
 1609              	.LVL186:
 1610 029e FFF7FEFF 		bl	bcd2bin
 1611              	.LVL187:
 1612              	.LBB32:
 1613              	.LBB33:
 103:src/hostmsg.c ****     split(buffer,aSrc,aLen);
 1614              		.loc 1 103 0
 1615 02a2 9DE80600 		ldmia	sp, {r1, r2}
 1616              	.LBE33:
 1617              	.LBE32:
 1618              		.loc 1 692 0
 1619 02a6 C0F3470A 		ubfx	r10, r0, #1, #8
 1620              	.LVL188:
 1621              	.LBB37:
 1622              	.LBB36:
 103:src/hostmsg.c ****     split(buffer,aSrc,aLen);
 1623              		.loc 1 103 0
 1624 02aa BAF1060F 		cmp	r10, #6
 1625 02ae 0CD8     		bhi	.L273
 1626              	.LVL189:
 1627              	.LBB34:
 1628              	.LBB35:
 104:src/hostmsg.c ****     return decbin4b(buffer,(BYTE)(aLen*2));
 1629              		.loc 1 104 0
 1630 02b0 05A8     		add	r0, sp, #20
 1631 02b2 5246     		mov	r2, r10
 1632 02b4 FFF7FEFF 		bl	split
 1633              	.LVL190:
 105:src/hostmsg.c ****   }
 1634              		.loc 1 105 0
 1635 02b8 4FEA4A01 		lsl	r1, r10, #1
 1636 02bc 01F0FE01 		and	r1, r1, #254
 1637 02c0 05A8     		add	r0, sp, #20
 1638 02c2 FFF7FEFF 		bl	decbin4b
 1639              	.LVL191:
 1640 02c6 0021     		movs	r1, #0
 1641 02c8 01E0     		b	.L256
 1642              	.LVL192:
 1643              	.L273:
 1644              	.LBE35:
 1645              	.LBE34:
 107:src/hostmsg.c **** }
 1646              		.loc 1 107 0
 1647 02ca 1046     		mov	r0, r2
 1648 02cc 5946     		mov	r1, fp
ARM GAS  C:\Users\AHMED~1.ELE\AppData\Local\Temp\ccLWufHN.s 			page 43


 1649              	.LVL193:
 1650              	.L256:
 1651              	.LBE36:
 1652              	.LBE37:
 1653              		.loc 1 692 0
 1654 02ce C9E90001 		strd	r0, [r9]
 1655              	.LVL194:
 1656              	.L255:
 693:src/hostmsg.c ****   }
 694:src/hostmsg.c **** 
 695:src/hostmsg.c ****   /* 55. EMV relative data */
 696:src/hostmsg.c ****   RSP_DATA.s_icc_data.w_misc_len = 0;
 1657              		.loc 1 696 0
 1658 02d2 0023     		movs	r3, #0
 1659 02d4 DFF83890 		ldr	r9, .L331+12
 1660 02d8 A5F8B435 		strh	r3, [r5, #1460]	@ movhi
 697:src/hostmsg.c ****   if (bitmap[6] & 0x02) {
 1661              		.loc 1 697 0
 1662 02dc 9DF81230 		ldrb	r3, [sp, #18]	@ zero_extendqisi2
 1663 02e0 9907     		lsls	r1, r3, #30
 1664 02e2 32D5     		bpl	.L257
 698:src/hostmsg.c ****     RSP_DATA.s_icc_data.w_misc_len  = bcd2bin(get_word());
 1665              		.loc 1 698 0
 1666 02e4 FFF7FEFF 		bl	get_word
 1667              	.LVL195:
 1668 02e8 FFF7FEFF 		bl	bcd2bin
 1669              	.LVL196:
 1670 02ec 81B2     		uxth	r1, r0
 699:src/hostmsg.c ****     if (RSP_DATA.s_icc_data.w_misc_len > sizeof(RSP_DATA.s_icc_data.sb_misc_content)) {
 1671              		.loc 1 699 0
 1672 02ee B1F5A57F 		cmp	r1, #330
 698:src/hostmsg.c ****     RSP_DATA.s_icc_data.w_misc_len  = bcd2bin(get_word());
 1673              		.loc 1 698 0
 1674 02f2 A9F8B415 		strh	r1, [r9, #1460]	@ movhi
 1675              		.loc 1 699 0
 1676 02f6 25D9     		bls	.L258
 700:src/hostmsg.c ****       RSP_DATA.w_rspcode = '9'*256 + '6';
 1677              		.loc 1 700 0
 1678 02f8 43F63613 		movw	r3, #14646
 1679 02fc A9F86E35 		strh	r3, [r9, #1390]	@ movhi
 1680              	.LVL197:
 1681              	.L328:
 701:src/hostmsg.c ****       return(TRANS_FAIL);
 1682              		.loc 1 701 0
 1683 0300 0224     		movs	r4, #2
 1684 0302 A9E0     		b	.L231
 1685              	.L332:
 1686              		.align	2
 1687              	.L331:
 1688 0304 85050000 		.word	gGTS+1413
 1689 0308 67050000 		.word	gGTS+1383
 1690 030c 71050000 		.word	gGTS+1393
 1691 0310 00000000 		.word	gGTS
 1692 0314 00000000 		.word	gGDS
 1693 0318 BD000000 		.word	.LC26
 1694 031c 00000000 		.word	KTransBitmap
 1695 0320 11050000 		.word	gGTS+1297
ARM GAS  C:\Users\AHMED~1.ELE\AppData\Local\Temp\ccLWufHN.s 			page 44


 1696 0324 00050000 		.word	gGTS+1280
 1697 0328 00000000 		.word	KSetlPCode2
 1698 032c 20050000 		.word	gGTS+1312
 1699 0330 02030000 		.word	gGTS+770
 1700 0334 88050000 		.word	gGTS+1416
 1701 0338 86050000 		.word	gGTS+1414
 1702 033c 1B050000 		.word	gGTS+1307
 1703 0340 28050000 		.word	gGTS+1320
 1704              	.LVL198:
 1705              	.L258:
 702:src/hostmsg.c ****     }
 703:src/hostmsg.c ****     get_mem(RSP_DATA.s_icc_data.sb_misc_content, RSP_DATA.s_icc_data.w_misc_len);
 1706              		.loc 1 703 0
 1707 0344 4648     		ldr	r0, .L333
 1708 0346 FFF7FEFF 		bl	get_mem
 1709              	.LVL199:
 1710              	.L257:
 704:src/hostmsg.c ****   }
 705:src/hostmsg.c **** 
 706:src/hostmsg.c ****   /* 62. private field */
 707:src/hostmsg.c ****   if (bitmap[7] & 0x04) {
 1711              		.loc 1 707 0
 1712 034a 9DF81330 		ldrb	r3, [sp, #19]	@ zero_extendqisi2
 1713 034e 5A07     		lsls	r2, r3, #29
 1714 0350 19D5     		bpl	.L259
 708:src/hostmsg.c ****     memset(RSP_DATA.sb_roc_no, 0xFF, 3);
 1715              		.loc 1 708 0
 1716 0352 FF21     		movs	r1, #255
 1717 0354 0322     		movs	r2, #3
 1718 0356 4348     		ldr	r0, .L333+4
 1719 0358 FFF7FEFF 		bl	memset
 1720              	.LVL200:
 709:src/hostmsg.c ****     var_i = bcd2bin(get_word());
 1721              		.loc 1 709 0
 1722 035c FFF7FEFF 		bl	get_word
 1723              	.LVL201:
 1724 0360 FFF7FEFF 		bl	bcd2bin
 1725              	.LVL202:
 710:src/hostmsg.c ****     if ((var_i == 6) && (peek_byte() != ' '))
 1726              		.loc 1 710 0
 1727 0364 0628     		cmp	r0, #6
 709:src/hostmsg.c ****     var_i = bcd2bin(get_word());
 1728              		.loc 1 709 0
 1729 0366 8146     		mov	r9, r0
 1730              	.LVL203:
 1731              		.loc 1 710 0
 1732 0368 0AD1     		bne	.L261
 1733              		.loc 1 710 0 is_stmt 0 discriminator 1
 1734 036a FFF7FEFF 		bl	peek_byte
 1735              	.LVL204:
 1736 036e 2028     		cmp	r0, #32
 1737 0370 06D0     		beq	.L261
 711:src/hostmsg.c ****       compress(RSP_DATA.sb_roc_no, get_pptr(), 3);
 1738              		.loc 1 711 0 is_stmt 1
 1739 0372 FFF7FEFF 		bl	get_pptr
 1740              	.LVL205:
 1741 0376 0322     		movs	r2, #3
ARM GAS  C:\Users\AHMED~1.ELE\AppData\Local\Temp\ccLWufHN.s 			page 45


 1742 0378 0146     		mov	r1, r0
 1743 037a 3A48     		ldr	r0, .L333+4
 1744 037c FFF7FEFF 		bl	compress
 1745              	.LVL206:
 1746              	.L261:
 712:src/hostmsg.c ****     inc_pptr(var_i);
 1747              		.loc 1 712 0
 1748 0380 4846     		mov	r0, r9
 1749 0382 FFF7FEFF 		bl	inc_pptr
 1750              	.LVL207:
 1751              	.L259:
 713:src/hostmsg.c ****   }
 714:src/hostmsg.c **** 
 715:src/hostmsg.c ****   /* 63. private field */
 716:src/hostmsg.c ****   if ((bitmap[7] & 0x02) != 0) {
 1752              		.loc 1 716 0
 1753 0386 9DF81330 		ldrb	r3, [sp, #19]	@ zero_extendqisi2
 1754 038a 9B07     		lsls	r3, r3, #30
 1755 038c 0CD5     		bpl	.L263
 717:src/hostmsg.c ****     var_i = bcd2bin(get_word());
 1756              		.loc 1 717 0
 1757 038e FFF7FEFF 		bl	get_word
 1758              	.LVL208:
 1759 0392 FFF7FEFF 		bl	bcd2bin
 1760              	.LVL209:
 718:src/hostmsg.c ****     RSP_DATA.text[0] = (BYTE)((var_i > 69) ? 69 : var_i);
 1761              		.loc 1 718 0
 1762 0396 4528     		cmp	r0, #69
 1763 0398 94BF     		ite	ls
 1764 039a C1B2     		uxtbls	r1, r0
 1765 039c 4521     		movhi	r1, #69
 719:src/hostmsg.c ****     get_mem(&RSP_DATA.text[1], RSP_DATA.text[0]);
 1766              		.loc 1 719 0
 1767 039e 3248     		ldr	r0, .L333+8
 1768              	.LVL210:
 718:src/hostmsg.c ****     RSP_DATA.text[0] = (BYTE)((var_i > 69) ? 69 : var_i);
 1769              		.loc 1 718 0
 1770 03a0 85F80117 		strb	r1, [r5, #1793]
 1771              		.loc 1 719 0
 1772 03a4 FFF7FEFF 		bl	get_mem
 1773              	.LVL211:
 1774              	.L263:
 720:src/hostmsg.c ****   }
 721:src/hostmsg.c **** 
 722:src/hostmsg.c ****   if (sync_datetime == 0x18) // Date/time receive from Host.
 1775              		.loc 1 722 0
 1776 03a8 B8F1180F 		cmp	r8, #24
 1777 03ac 2FD1     		bne	.L265
 1778              	.LBB38:
 1779              	.LBB39:
 122:src/hostmsg.c ****   RSP_DATA.s_dtg.b_century = dtg.b_century;
 1780              		.loc 1 122 0
 1781 03ae 05A8     		add	r0, sp, #20
 1782 03b0 FFF7FEFF 		bl	ReadRTC
 1783              	.LVL212:
 123:src/hostmsg.c ****   RSP_DATA.s_dtg.b_year = dtg.b_year;
 1784              		.loc 1 123 0
ARM GAS  C:\Users\AHMED~1.ELE\AppData\Local\Temp\ccLWufHN.s 			page 46


 1785 03b4 9DF81430 		ldrb	r3, [sp, #20]	@ zero_extendqisi2
 126:src/hostmsg.c ****     bcdsub(&RSP_DATA.s_dtg.b_year,&tmp,1);
 1786              		.loc 1 126 0
 1787 03b8 95F88625 		ldrb	r2, [r5, #1414]	@ zero_extendqisi2
 123:src/hostmsg.c ****   RSP_DATA.s_dtg.b_year = dtg.b_year;
 1788              		.loc 1 123 0
 1789 03bc 85F88435 		strb	r3, [r5, #1412]
 124:src/hostmsg.c ****   tmp = 1;
 1790              		.loc 1 124 0
 1791 03c0 9DF81530 		ldrb	r3, [sp, #21]	@ zero_extendqisi2
 126:src/hostmsg.c ****     bcdsub(&RSP_DATA.s_dtg.b_year,&tmp,1);
 1792              		.loc 1 126 0
 1793 03c4 122A     		cmp	r2, #18
 124:src/hostmsg.c ****   tmp = 1;
 1794              		.loc 1 124 0
 1795 03c6 85F88535 		strb	r3, [r5, #1413]
 125:src/hostmsg.c ****   if ((RSP_DATA.s_dtg.b_month == 0x12) && (dtg.b_month == 0x01))
 1796              		.loc 1 125 0
 1797 03ca 4FF00103 		mov	r3, #1
 1798 03ce 8DF80B30 		strb	r3, [sp, #11]
 126:src/hostmsg.c ****     bcdsub(&RSP_DATA.s_dtg.b_year,&tmp,1);
 1799              		.loc 1 126 0
 1800 03d2 09D1     		bne	.L266
 1801 03d4 9DF81620 		ldrb	r2, [sp, #22]	@ zero_extendqisi2
 1802 03d8 9A42     		cmp	r2, r3
 1803 03da 10D1     		bne	.L267
 127:src/hostmsg.c ****   else
 1804              		.loc 1 127 0
 1805 03dc 0DF10B01 		add	r1, sp, #11
 1806 03e0 2248     		ldr	r0, .L333+12
 1807 03e2 FFF7FEFF 		bl	bcdsub
 1808              	.LVL213:
 1809 03e6 0AE0     		b	.L267
 1810              	.L266:
 129:src/hostmsg.c ****       bcdadd(&RSP_DATA.s_dtg.b_year,&tmp,1);
 1811              		.loc 1 129 0
 1812 03e8 012A     		cmp	r2, #1
 1813 03ea 08D1     		bne	.L267
 1814 03ec 9DF81630 		ldrb	r3, [sp, #22]	@ zero_extendqisi2
 1815 03f0 122B     		cmp	r3, #18
 1816 03f2 04D1     		bne	.L267
 130:src/hostmsg.c ****   ByteCopy((BYTE *)&dtg, (BYTE *)&RSP_DATA.s_dtg, sizeof(struct DATETIME));
 1817              		.loc 1 130 0
 1818 03f4 1D48     		ldr	r0, .L333+12
 1819 03f6 0DF10B01 		add	r1, sp, #11
 1820 03fa FFF7FEFF 		bl	bcdadd
 1821              	.LVL214:
 1822              	.L267:
 131:src/hostmsg.c ****   SetRTC(&dtg);
 1823              		.loc 1 131 0
 1824 03fe 05A8     		add	r0, sp, #20
 1825 0400 1B49     		ldr	r1, .L333+16
 1826 0402 0822     		movs	r2, #8
 1827 0404 FFF7FEFF 		bl	ByteCopy
 1828              	.LVL215:
 132:src/hostmsg.c **** }
 1829              		.loc 1 132 0
ARM GAS  C:\Users\AHMED~1.ELE\AppData\Local\Temp\ccLWufHN.s 			page 47


 1830 0408 05A8     		add	r0, sp, #20
 1831 040a FFF7FEFF 		bl	SetRTC
 1832              	.LVL216:
 1833              	.L265:
 1834              	.LBE39:
 1835              	.LBE38:
 723:src/hostmsg.c ****     SyncHostDtg();
 724:src/hostmsg.c ****   if ((RSP_DATA.w_rspcode == '0'*256+'0') ||
 1836              		.loc 1 724 0
 1837 040e B5F86E35 		ldrh	r3, [r5, #1390]
 1838 0412 43F23002 		movw	r2, #12336
 1839 0416 23F00801 		bic	r1, r3, #8
 1840 041a 9142     		cmp	r1, r2
 1841 041c 03D0     		beq	.L268
 725:src/hostmsg.c ****       (RSP_DATA.w_rspcode == '0'*256+'8') ||
 1842              		.loc 1 725 0
 1843 041e 43F63801 		movw	r1, #14392
 1844 0422 8B42     		cmp	r3, r1
 1845 0424 08D1     		bne	.L269
 1846              	.L268:
 726:src/hostmsg.c ****       (RSP_DATA.w_rspcode == '8'*256+'8') )
 727:src/hostmsg.c ****   {
 728:src/hostmsg.c ****     STIS_ACQ_TBL(0).b_status = UP;
 1847              		.loc 1 728 0
 1848 0426 0022     		movs	r2, #0
 1849 0428 3368     		ldr	r3, [r6]
 729:src/hostmsg.c ****     if (more_msg)
 730:src/hostmsg.c ****       return MORE_RSP;
 1850              		.loc 1 730 0
 1851 042a 9742     		cmp	r7, r2
 1852 042c 14BF     		ite	ne
 1853 042e 0424     		movne	r4, #4
 1854 0430 1446     		moveq	r4, r2
 728:src/hostmsg.c ****     if (more_msg)
 1855              		.loc 1 728 0
 1856 0432 83F8F023 		strb	r2, [r3, #1008]
 1857 0436 0FE0     		b	.L231
 1858              	.L269:
 731:src/hostmsg.c ****     return TRANS_ACP;
 732:src/hostmsg.c ****   }
 733:src/hostmsg.c ****   else if (RSP_DATA.w_rspcode == 'Z'*256+'1') {
 1859              		.loc 1 733 0
 1860 0438 45F63121 		movw	r1, #23089
 1861 043c 8B42     		cmp	r3, r1
 1862 043e 4FF00103 		mov	r3, #1
 1863 0442 08D1     		bne	.L276
 734:src/hostmsg.c ****     RSP_DATA.w_rspcode = '0'*256+'0';
 1864              		.loc 1 734 0
 1865 0444 0B49     		ldr	r1, .L333+20
 1866 0446 A1F86E25 		strh	r2, [r1, #1390]	@ movhi
 735:src/hostmsg.c ****     STIS_ACQ_TBL(0).b_status = DOWN;
 1867              		.loc 1 735 0
 1868 044a 3268     		ldr	r2, [r6]
 1869 044c 82F8F033 		strb	r3, [r2, #1008]
 736:src/hostmsg.c ****     return TRANS_ACP;
 1870              		.loc 1 736 0
 1871 0450 02E0     		b	.L231
ARM GAS  C:\Users\AHMED~1.ELE\AppData\Local\Temp\ccLWufHN.s 			page 48


 1872              	.LVL217:
 1873              	.L270:
 585:src/hostmsg.c ****   if ((KTransBitmap[TX_DATA.b_trans].w_txmsg_id + 0x10) != msg_id) {
 1874              		.loc 1 585 0
 1875 0452 FF24     		movs	r4, #255
 1876 0454 00E0     		b	.L231
 1877              	.LVL218:
 1878              	.L276:
 737:src/hostmsg.c ****   }
 738:src/hostmsg.c ****   else
 739:src/hostmsg.c ****     return TRANS_REJ;
 1879              		.loc 1 739 0
 1880 0456 1C46     		mov	r4, r3
 1881              	.LVL219:
 1882              	.L231:
 740:src/hostmsg.c **** }
 1883              		.loc 1 740 0
 1884 0458 2046     		mov	r0, r4
 1885 045a 09B0     		add	sp, sp, #36
 1886              		.cfi_def_cfa_offset 36
 1887              		@ sp needed
 1888 045c BDE8F08F 		pop	{r4, r5, r6, r7, r8, r9, r10, fp, pc}
 1889              	.L334:
 1890              		.align	2
 1891              	.L333:
 1892 0460 B6050000 		.word	gGTS+1462
 1893 0464 0E050000 		.word	gGTS+1294
 1894 0468 02070000 		.word	gGTS+1794
 1895 046c 85050000 		.word	gGTS+1413
 1896 0470 84050000 		.word	gGTS+1412
 1897 0474 00000000 		.word	gGTS
 1898              		.cfi_endproc
 1899              	.LFE6:
 1900              		.size	CheckHostRsp, .-CheckHostRsp
 1901              		.section	.rodata
 1902              		.set	.LANCHOR0,. + 0
 1903              	.LC2:
 1904 0000 00000000 		.ascii	"\000\000\000\000\000\000\000"
 1904      000000
 1905              	.LC11:
 1906 0007 00000000 		.ascii	"\000\000\000\000\000\000\000\000\000\000\000\000\000"
 1906      00000000 
 1906      00000000 
 1906      00
 1907              	.LC19:
 1908 0014 00000000 		.ascii	"\000\000\000\000\000\000\000\000\000"
 1908      00000000 
 1908      00
 1909              		.section	.rodata.str1.1,"aMS",%progbits,1
 1910              	.LC0:
 1911 0000 49534F30 		.ascii	"ISO0433211105000\000"
 1911      34333332 
 1911      31313130 
 1911      35303030 
 1911      00
 1912              	.LC1:
 1913 0011 25303458 		.ascii	"%04X\000"
ARM GAS  C:\Users\AHMED~1.ELE\AppData\Local\Temp\ccLWufHN.s 			page 49


 1913      00
 1914              	.LC3:
 1915 0016 30303100 		.ascii	"001\000"
 1916              	.LC4:
 1917 001a 31303100 		.ascii	"101\000"
 1918              	.LC5:
 1919 001e 34303000 		.ascii	"400\000"
 1920              	.LC6:
 1921 0022 38383000 		.ascii	"880\000"
 1922              	.LC7:
 1923 0026 32303000 		.ascii	"200\000"
 1924              	.LC8:
 1925 002a 35383134 		.ascii	"5814\000"
 1925      00
 1926              	.LC9:
 1927 002f 30313132 		.ascii	"011200\000"
 1927      303000
 1928              	.LC10:
 1929 0036 30303030 		.ascii	"00000000\000"
 1929      30303030 
 1929      00
 1930              	.LC12:
 1931 003f 02303300 		.ascii	"\00203\000"
 1932              	.LC13:
 1933 0043 02303000 		.ascii	"\00200\000"
 1934              	.LC14:
 1935 0047 30303338 		.ascii	"0038\000"
 1935      00
 1936              	.LC15:
 1937 004c 50313000 		.ascii	"P10\000"
 1938              	.LC16:
 1939 0050 30333200 		.ascii	"032\000"
 1940              	.LC17:
 1941 0054 41353534 		.ascii	"A554A96459E368BF60B927E9F4AD14E9\000"
 1941      41393634 
 1941      35394533 
 1941      36384246 
 1941      36304239 
 1942              	.LC18:
 1943 0075 38313800 		.ascii	"818\000"
 1944              	.LC20:
 1945 0079 30313031 		.ascii	"0101000000\000"
 1945      30303030 
 1945      303000
 1946              	.LC21:
 1947 0084 303400   		.ascii	"04\000"
 1948              	.LC22:
 1949 0087 4300     		.ascii	"C\000"
 1950              	.LC23:
 1951 0089 36303133 		.ascii	"6013260019010000001259708402000000036575\000"
 1951      32363030 
 1951      31393031 
 1951      30303030 
 1951      30303132 
 1952              	.LC24:
 1953 00b2 25303464 		.ascii	"%04d\000"
 1953      00
ARM GAS  C:\Users\AHMED~1.ELE\AppData\Local\Temp\ccLWufHN.s 			page 50


 1954              	.LC25:
 1955 00b7 54784D73 		.ascii	"TxMsg\000"
 1955      6700
 1956              	.LC26:
 1957 00bd 52784D73 		.ascii	"RxMsg\000"
 1957      6700
 1958              		.text
 1959              	.Letext0:
 1960              		.file 2 "c:\\devtools\\gcc_v49_2014q4\\lib\\gcc\\arm-none-eabi\\4.9.3\\include\\stddef.h"
 1961              		.file 3 "../LibA5T1000/common.h"
 1962              		.file 4 "../LibA5T1000/emv2dll.h"
 1963              		.file 5 "../LibA5T1000/emvcl2dll.h"
 1964              		.file 6 "../LibA5T1000/ecrdll.h"
 1965              		.file 7 "../LibA5T1000/midware.h"
 1966              		.file 8 "../LibA5T1000/apm.h"
 1967              		.file 9 "src/sysutil.h"
 1968              		.file 10 "src/corevar.h"
 1969              		.file 11 "src/constant.h"
 1970              		.file 12 "src/message.h"
 1971              		.file 13 "src/tranutil.h"
 1972              		.file 14 "../LibA5T1000/util.h"
 1973              		.file 15 "src/chkoptn.h"
 1974              		.file 16 "c:\\devtools\\gcc_v49_2014q4\\arm-none-eabi\\include\\stdio.h"
 1975              		.file 17 "c:\\devtools\\gcc_v49_2014q4\\arm-none-eabi\\include\\string.h"
 1976              		.file 18 "../LibA5T1000/system.h"
 1977              		.file 19 "src/auxcom.h"