ARM GAS  C:\Users\AHMED~1.ELE\AppData\Local\Temp\ccFKRCcb.s 			page 1


   1              		.syntax unified
   2              		.cpu cortex-a5
   3              		.fpu softvfp
   4              		.eabi_attribute 20, 1
   5              		.eabi_attribute 21, 1
   6              		.eabi_attribute 23, 3
   7              		.eabi_attribute 24, 1
   8              		.eabi_attribute 25, 1
   9              		.eabi_attribute 26, 1
  10              		.eabi_attribute 30, 4
  11              		.eabi_attribute 34, 0
  12              		.eabi_attribute 18, 4
  13              		.thumb
  14              		.file	"iface_util.c"
  15              		.text
  16              	.Ltext0:
  17              		.cfi_sections	.debug_frame
  18              		.section	.text.UGet,"ax",%progbits
  19              		.align	1
  20              		.global	UGet
  21              		.thumb
  22              		.thumb_func
  23              		.type	UGet, %function
  24              	UGet:
  25              	.LFB0:
  26              		.file 1 "src/iface_util.c"
   1:src/iface_util.c **** //-----------------------------------------------------------------------------
   2:src/iface_util.c **** //  File          : iface_util.c
   3:src/iface_util.c **** //  Module        :
   4:src/iface_util.c **** //  Description   : handle system utilities
   5:src/iface_util.c **** //  Author        : Pody
   6:src/iface_util.c **** //  Notes         :
   7:src/iface_util.c **** //
   8:src/iface_util.c **** // ============================================================================
   9:src/iface_util.c **** // | Naming conventions                                                       |
  10:src/iface_util.c **** // | ~~~~~~~~~~~~~~~~~~                                                       |
  11:src/iface_util.c **** // |             Constant : Leading K                                         |
  12:src/iface_util.c **** // |      Global Variable : Leading g                                         |
  13:src/iface_util.c **** // |    Function argument : Leading a                                         |
  14:src/iface_util.c **** // |       Local Variable : All lower case                                    |
  15:src/iface_util.c **** // |            Char size : Leading c                                         |
  16:src/iface_util.c **** // |             Int size : Leading i                                         |
  17:src/iface_util.c **** // |            Byte size : Leading b                                         |
  18:src/iface_util.c **** // |            Word size : Leading w                                         |
  19:src/iface_util.c **** // |           Dword size : Leading d                                         |
  20:src/iface_util.c **** // |          DDword size : Leading dd                                        |
  21:src/iface_util.c **** // |                Array : Leading a, (ab = arrary of byte, etc)             |
  22:src/iface_util.c **** // |              Pointer : Leading p, (pb = pointer of byte, etc)            |
  23:src/iface_util.c **** // ============================================================================
  24:src/iface_util.c **** //  Date          Who         Action
  25:src/iface_util.c **** //  ------------  ----------- -------------------------------------------------
  26:src/iface_util.c **** //  2008 Apr      Pody        Initial Version.
  27:src/iface_util.c **** //-----------------------------------------------------------------------------
  28:src/iface_util.c **** 
  29:src/iface_util.c **** //#include <stdio.h>
  30:src/iface_util.c **** #include <string.h>
  31:src/iface_util.c **** #include "system.h"
ARM GAS  C:\Users\AHMED~1.ELE\AppData\Local\Temp\ccFKRCcb.s 			page 2


  32:src/iface_util.c **** #include "iface_util.h"
  33:src/iface_util.c **** 
  34:src/iface_util.c **** 
  35:src/iface_util.c **** //-----------------------------------------------------------------------------
  36:src/iface_util.c **** // Defines
  37:src/iface_util.c **** //-----------------------------------------------------------------------------
  38:src/iface_util.c **** 
  39:src/iface_util.c **** //----------------------------------------------------------------------------
  40:src/iface_util.c **** // Constant
  41:src/iface_util.c **** //----------------------------------------------------------------------------
  42:src/iface_util.c **** 
  43:src/iface_util.c **** //----------------------------------------------------------------------------
  44:src/iface_util.c **** // Globals
  45:src/iface_util.c **** //----------------------------------------------------------------------------
  46:src/iface_util.c **** 
  47:src/iface_util.c **** //----------------------------------------------------------------------------
  48:src/iface_util.c **** // Generic API
  49:src/iface_util.c **** //----------------------------------------------------------------------------
  50:src/iface_util.c **** 
  51:src/iface_util.c **** //--------------------------------------------------------------
  52:src/iface_util.c **** DWORD UGet(const BYTE *x)
  53:src/iface_util.c **** {
  27              		.loc 1 53 0
  28              		.cfi_startproc
  29              		@ args = 0, pretend = 0, frame = 0
  30              		@ frame_needed = 0, uses_anonymous_args = 0
  31              		@ link register save eliminated.
  32              	.LVL0:
  54:src/iface_util.c ****   return (*(x+3) + ((WORD)(*(x+2)) << 8) + ((WORD)*(x+1) << 16) + ((WORD)*(x)<< 24));
  33              		.loc 1 54 0
  34 0000 8278     		ldrb	r2, [r0, #2]	@ zero_extendqisi2
  35 0002 C378     		ldrb	r3, [r0, #3]	@ zero_extendqisi2
  36 0004 03EB0223 		add	r3, r3, r2, lsl #8
  37 0008 4278     		ldrb	r2, [r0, #1]	@ zero_extendqisi2
  38 000a 0078     		ldrb	r0, [r0]	@ zero_extendqisi2
  39              	.LVL1:
  40 000c 03EB0243 		add	r3, r3, r2, lsl #16
  55:src/iface_util.c **** }
  41              		.loc 1 55 0
  42 0010 03EB0060 		add	r0, r3, r0, lsl #24
  43 0014 7047     		bx	lr
  44              		.cfi_endproc
  45              	.LFE0:
  46              		.size	UGet, .-UGet
  47              		.section	.text.UPut,"ax",%progbits
  48              		.align	1
  49              		.global	UPut
  50              		.thumb
  51              		.thumb_func
  52              		.type	UPut, %function
  53              	UPut:
  54              	.LFB1:
  56:src/iface_util.c **** 
  57:src/iface_util.c **** //--------------------------------------------------------------
  58:src/iface_util.c **** void UPut(BYTE *x, DWORD y)
  59:src/iface_util.c **** {
  55              		.loc 1 59 0
ARM GAS  C:\Users\AHMED~1.ELE\AppData\Local\Temp\ccFKRCcb.s 			page 3


  56              		.cfi_startproc
  57              		@ args = 0, pretend = 0, frame = 0
  58              		@ frame_needed = 0, uses_anonymous_args = 0
  59              		@ link register save eliminated.
  60              	.LVL2:
  60:src/iface_util.c ****   *(x+3) = (BYTE) y;
  61:src/iface_util.c ****   *(x+2) = (BYTE) (y>>8);
  61              		.loc 1 61 0
  62 0000 0B0A     		lsrs	r3, r1, #8
  60:src/iface_util.c ****   *(x+3) = (BYTE) y;
  63              		.loc 1 60 0
  64 0002 C170     		strb	r1, [r0, #3]
  65              		.loc 1 61 0
  66 0004 8370     		strb	r3, [r0, #2]
  62:src/iface_util.c ****   *(x+1) = (BYTE) (y>>16);
  67              		.loc 1 62 0
  68 0006 0B0C     		lsrs	r3, r1, #16
  63:src/iface_util.c ****   *x     = (BYTE) (y>>24);
  69              		.loc 1 63 0
  70 0008 090E     		lsrs	r1, r1, #24
  71              	.LVL3:
  62:src/iface_util.c ****   *(x+1) = (BYTE) (y>>16);
  72              		.loc 1 62 0
  73 000a 4370     		strb	r3, [r0, #1]
  74              		.loc 1 63 0
  75 000c 0170     		strb	r1, [r0]
  76 000e 7047     		bx	lr
  77              		.cfi_endproc
  78              	.LFE1:
  79              		.size	UPut, .-UPut
  80              		.section	.text.WGet,"ax",%progbits
  81              		.align	1
  82              		.global	WGet
  83              		.thumb
  84              		.thumb_func
  85              		.type	WGet, %function
  86              	WGet:
  87              	.LFB2:
  64:src/iface_util.c **** }
  65:src/iface_util.c **** 
  66:src/iface_util.c **** //--------------------------------------------------------------
  67:src/iface_util.c **** WORD WGet(const BYTE *x)
  68:src/iface_util.c **** {
  88              		.loc 1 68 0
  89              		.cfi_startproc
  90              		@ args = 0, pretend = 0, frame = 0
  91              		@ frame_needed = 0, uses_anonymous_args = 0
  92              		@ link register save eliminated.
  93              	.LVL4:
  69:src/iface_util.c ****   return (WORD)((WORD)*(x+1) + (WORD)(*(x) << 8));
  94              		.loc 1 69 0
  95 0000 0278     		ldrb	r2, [r0]	@ zero_extendqisi2
  96 0002 4378     		ldrb	r3, [r0, #1]	@ zero_extendqisi2
  97 0004 03EB0220 		add	r0, r3, r2, lsl #8
  98              	.LVL5:
  70:src/iface_util.c **** }
  99              		.loc 1 70 0
ARM GAS  C:\Users\AHMED~1.ELE\AppData\Local\Temp\ccFKRCcb.s 			page 4


 100 0008 80B2     		uxth	r0, r0
 101 000a 7047     		bx	lr
 102              		.cfi_endproc
 103              	.LFE2:
 104              		.size	WGet, .-WGet
 105              		.section	.text.Des,"ax",%progbits
 106              		.align	1
 107              		.global	Des
 108              		.thumb
 109              		.thumb_func
 110              		.type	Des, %function
 111              	Des:
 112              	.LFB3:
  71:src/iface_util.c **** 
  72:src/iface_util.c **** //--------------------------------------------------------------
  73:src/iface_util.c **** // void WPut(BYTE *x, WORD y)
  74:src/iface_util.c **** // {
  75:src/iface_util.c **** //   *x = (BYTE)(y >> 8);
  76:src/iface_util.c **** //   *(x+1) = (BYTE)(y & 0xff);
  77:src/iface_util.c **** // }
  78:src/iface_util.c **** 
  79:src/iface_util.c **** //=============================================================================
  80:src/iface_util.c **** //  Function        : Des
  81:src/iface_util.c **** //  Description     :
  82:src/iface_util.c **** //  Input           :
  83:src/iface_util.c **** //  Return          :
  84:src/iface_util.c **** //  Note            : N/A
  85:src/iface_util.c **** //  Globals Changed : N/A
  86:src/iface_util.c **** //=============================================================================
  87:src/iface_util.c **** void Des(BYTE *aKey, BYTE *aInOut, WORD aLen)
  88:src/iface_util.c **** {
 113              		.loc 1 88 0
 114              		.cfi_startproc
 115              		@ args = 0, pretend = 0, frame = 0
 116              		@ frame_needed = 0, uses_anonymous_args = 0
 117              	.LVL6:
 118 0000 0346     		mov	r3, r0
 119 0002 70B5     		push	{r4, r5, r6, lr}
 120              		.cfi_def_cfa_offset 16
 121              		.cfi_offset 4, -16
 122              		.cfi_offset 5, -12
 123              		.cfi_offset 6, -8
 124              		.cfi_offset 14, -4
  89:src/iface_util.c **** #ifdef os_des_msg //SP530
  90:src/iface_util.c ****   os_des_msg(aKey, aInOut, aLen);
  91:src/iface_util.c **** #else
  92:src/iface_util.c ****   int i;
  93:src/iface_util.c ****   os_deskey(aKey);
 125              		.loc 1 93 0
 126 0004 4320     		movs	r0, #67
 127              	.LVL7:
  88:src/iface_util.c **** #ifdef os_des_msg //SP530
 128              		.loc 1 88 0
 129 0006 0E46     		mov	r6, r1
 130 0008 1546     		mov	r5, r2
 131              		.loc 1 93 0
 132 000a 1946     		mov	r1, r3
ARM GAS  C:\Users\AHMED~1.ELE\AppData\Local\Temp\ccFKRCcb.s 			page 5


 133              	.LVL8:
 134 000c 0122     		movs	r2, #1
 135              	.LVL9:
 136 000e FFF7FEFF 		bl	sys_func2
 137              	.LVL10:
  94:src/iface_util.c ****   for (i=0; i<aLen; i+=8) {
 138              		.loc 1 94 0
 139 0012 0024     		movs	r4, #0
 140              	.LVL11:
 141              	.L5:
 142              		.loc 1 94 0 is_stmt 0 discriminator 1
 143 0014 AC42     		cmp	r4, r5
 144 0016 05DA     		bge	.L8
  95:src/iface_util.c ****     os_des(aInOut+i);
 145              		.loc 1 95 0 is_stmt 1 discriminator 3
 146 0018 3119     		adds	r1, r6, r4
 147 001a 4420     		movs	r0, #68
 148 001c FFF7FEFF 		bl	sys_func1
 149              	.LVL12:
  94:src/iface_util.c ****   for (i=0; i<aLen; i+=8) {
 150              		.loc 1 94 0 discriminator 3
 151 0020 0834     		adds	r4, r4, #8
 152              	.LVL13:
 153 0022 F7E7     		b	.L5
 154              	.L8:
  96:src/iface_util.c ****   }
  97:src/iface_util.c **** #endif
  98:src/iface_util.c **** }
 155              		.loc 1 98 0
 156 0024 70BD     		pop	{r4, r5, r6, pc}
 157              		.cfi_endproc
 158              	.LFE3:
 159              		.size	Des, .-Des
 160              		.section	.text.Des2,"ax",%progbits
 161              		.align	1
 162              		.global	Des2
 163              		.thumb
 164              		.thumb_func
 165              		.type	Des2, %function
 166              	Des2:
 167              	.LFB4:
  99:src/iface_util.c **** 
 100:src/iface_util.c **** //=============================================================================
 101:src/iface_util.c **** //  Function        : Des2
 102:src/iface_util.c **** //  Description     :
 103:src/iface_util.c **** //  Input           :
 104:src/iface_util.c **** //  Return          :
 105:src/iface_util.c **** //  Note            : N/A
 106:src/iface_util.c **** //  Globals Changed : N/A
 107:src/iface_util.c **** //=============================================================================
 108:src/iface_util.c **** void Des2(BYTE *aKey, BYTE *aInOut, WORD aLen)
 109:src/iface_util.c **** {
 168              		.loc 1 109 0
 169              		.cfi_startproc
 170              		@ args = 0, pretend = 0, frame = 0
 171              		@ frame_needed = 0, uses_anonymous_args = 0
 172              	.LVL14:
ARM GAS  C:\Users\AHMED~1.ELE\AppData\Local\Temp\ccFKRCcb.s 			page 6


 173 0000 0346     		mov	r3, r0
 174 0002 70B5     		push	{r4, r5, r6, lr}
 175              		.cfi_def_cfa_offset 16
 176              		.cfi_offset 4, -16
 177              		.cfi_offset 5, -12
 178              		.cfi_offset 6, -8
 179              		.cfi_offset 14, -4
 110:src/iface_util.c **** #ifdef os_des2_msg //SP530
 111:src/iface_util.c ****   os_des2_msg(aKey, aInOut, aLen);
 112:src/iface_util.c **** #else
 113:src/iface_util.c ****   int i;
 114:src/iface_util.c ****   os_deskey(aKey);
 180              		.loc 1 114 0
 181 0004 4320     		movs	r0, #67
 182              	.LVL15:
 109:src/iface_util.c **** #ifdef os_des2_msg //SP530
 183              		.loc 1 109 0
 184 0006 0E46     		mov	r6, r1
 185 0008 1546     		mov	r5, r2
 186              		.loc 1 114 0
 187 000a 1946     		mov	r1, r3
 188              	.LVL16:
 189 000c 0122     		movs	r2, #1
 190              	.LVL17:
 191 000e FFF7FEFF 		bl	sys_func2
 192              	.LVL18:
 115:src/iface_util.c ****   for (i=0; i<aLen; i+=8) {
 193              		.loc 1 115 0
 194 0012 0024     		movs	r4, #0
 195              	.LVL19:
 196              	.L10:
 197              		.loc 1 115 0 is_stmt 0 discriminator 1
 198 0014 AC42     		cmp	r4, r5
 199 0016 05DA     		bge	.L12
 116:src/iface_util.c ****     os_des2(aInOut+i);
 200              		.loc 1 116 0 is_stmt 1 discriminator 3
 201 0018 3119     		adds	r1, r6, r4
 202 001a 4520     		movs	r0, #69
 203 001c FFF7FEFF 		bl	sys_func1
 204              	.LVL20:
 115:src/iface_util.c ****   for (i=0; i<aLen; i+=8) {
 205              		.loc 1 115 0 discriminator 3
 206 0020 0834     		adds	r4, r4, #8
 207              	.LVL21:
 208 0022 F7E7     		b	.L10
 209              	.L12:
 117:src/iface_util.c ****   }
 118:src/iface_util.c **** #endif
 119:src/iface_util.c **** }
 210              		.loc 1 119 0
 211 0024 70BD     		pop	{r4, r5, r6, pc}
 212              		.cfi_endproc
 213              	.LFE4:
 214              		.size	Des2, .-Des2
 215              		.section	.text.TDes,"ax",%progbits
 216              		.align	1
 217              		.global	TDes
ARM GAS  C:\Users\AHMED~1.ELE\AppData\Local\Temp\ccFKRCcb.s 			page 7


 218              		.thumb
 219              		.thumb_func
 220              		.type	TDes, %function
 221              	TDes:
 222              	.LFB5:
 120:src/iface_util.c **** //=============================================================================
 121:src/iface_util.c **** //  Function        : TDes
 122:src/iface_util.c **** //  Description     :
 123:src/iface_util.c **** //  Input           :
 124:src/iface_util.c **** //  Return          :
 125:src/iface_util.c **** //  Note            : N/A
 126:src/iface_util.c **** //  Globals Changed : N/A
 127:src/iface_util.c **** //=============================================================================
 128:src/iface_util.c **** void TDes(BYTE *aDKey, BYTE *aInOut, WORD aLen)
 129:src/iface_util.c **** {
 223              		.loc 1 129 0
 224              		.cfi_startproc
 225              		@ args = 0, pretend = 0, frame = 0
 226              		@ frame_needed = 0, uses_anonymous_args = 0
 227              	.LVL22:
 228 0000 0346     		mov	r3, r0
 229 0002 70B5     		push	{r4, r5, r6, lr}
 230              		.cfi_def_cfa_offset 16
 231              		.cfi_offset 4, -16
 232              		.cfi_offset 5, -12
 233              		.cfi_offset 6, -8
 234              		.cfi_offset 14, -4
 130:src/iface_util.c **** #ifdef os_3des_msg  //SP530
 131:src/iface_util.c ****   os_3des_msg(aDKey, aInOut, aLen);
 132:src/iface_util.c **** #else
 133:src/iface_util.c ****   int i;
 134:src/iface_util.c ****   os_3deskey(aDKey);
 235              		.loc 1 134 0
 236 0004 4320     		movs	r0, #67
 237              	.LVL23:
 129:src/iface_util.c **** #ifdef os_3des_msg  //SP530
 238              		.loc 1 129 0
 239 0006 0E46     		mov	r6, r1
 240 0008 1546     		mov	r5, r2
 241              		.loc 1 134 0
 242 000a 1946     		mov	r1, r3
 243              	.LVL24:
 244 000c 0222     		movs	r2, #2
 245              	.LVL25:
 246 000e FFF7FEFF 		bl	sys_func2
 247              	.LVL26:
 135:src/iface_util.c ****   for (i=0; i<aLen; i+=8) {
 248              		.loc 1 135 0
 249 0012 0024     		movs	r4, #0
 250              	.LVL27:
 251              	.L14:
 252              		.loc 1 135 0 is_stmt 0 discriminator 1
 253 0014 AC42     		cmp	r4, r5
 254 0016 05DA     		bge	.L16
 136:src/iface_util.c ****     os_3des(aInOut+i);
 255              		.loc 1 136 0 is_stmt 1 discriminator 3
 256 0018 3119     		adds	r1, r6, r4
ARM GAS  C:\Users\AHMED~1.ELE\AppData\Local\Temp\ccFKRCcb.s 			page 8


 257 001a 4420     		movs	r0, #68
 258 001c FFF7FEFF 		bl	sys_func1
 259              	.LVL28:
 135:src/iface_util.c ****   for (i=0; i<aLen; i+=8) {
 260              		.loc 1 135 0 discriminator 3
 261 0020 0834     		adds	r4, r4, #8
 262              	.LVL29:
 263 0022 F7E7     		b	.L14
 264              	.L16:
 137:src/iface_util.c ****   }
 138:src/iface_util.c **** #endif
 139:src/iface_util.c **** }
 265              		.loc 1 139 0
 266 0024 70BD     		pop	{r4, r5, r6, pc}
 267              		.cfi_endproc
 268              	.LFE5:
 269              		.size	TDes, .-TDes
 270              		.section	.text.TDes2,"ax",%progbits
 271              		.align	1
 272              		.global	TDes2
 273              		.thumb
 274              		.thumb_func
 275              		.type	TDes2, %function
 276              	TDes2:
 277              	.LFB6:
 140:src/iface_util.c **** 
 141:src/iface_util.c **** //=============================================================================
 142:src/iface_util.c **** //  Function        : TDes2
 143:src/iface_util.c **** //  Description     :
 144:src/iface_util.c **** //  Input           :
 145:src/iface_util.c **** //  Return          :
 146:src/iface_util.c **** //  Note            : N/A
 147:src/iface_util.c **** //  Globals Changed : N/A
 148:src/iface_util.c **** //=============================================================================
 149:src/iface_util.c **** void TDes2(BYTE *aDKey, BYTE *aInOut, WORD aLen)
 150:src/iface_util.c **** {
 278              		.loc 1 150 0
 279              		.cfi_startproc
 280              		@ args = 0, pretend = 0, frame = 0
 281              		@ frame_needed = 0, uses_anonymous_args = 0
 282              	.LVL30:
 283 0000 0346     		mov	r3, r0
 284 0002 70B5     		push	{r4, r5, r6, lr}
 285              		.cfi_def_cfa_offset 16
 286              		.cfi_offset 4, -16
 287              		.cfi_offset 5, -12
 288              		.cfi_offset 6, -8
 289              		.cfi_offset 14, -4
 151:src/iface_util.c **** #ifdef os_3des2_msg  //SP530
 152:src/iface_util.c ****   os_3des2_msg(aDKey, aInOut, aLen);
 153:src/iface_util.c **** #else
 154:src/iface_util.c ****   int i;
 155:src/iface_util.c ****   os_3deskey(aDKey);
 290              		.loc 1 155 0
 291 0004 4320     		movs	r0, #67
 292              	.LVL31:
 150:src/iface_util.c **** #ifdef os_3des2_msg  //SP530
ARM GAS  C:\Users\AHMED~1.ELE\AppData\Local\Temp\ccFKRCcb.s 			page 9


 293              		.loc 1 150 0
 294 0006 0E46     		mov	r6, r1
 295 0008 1546     		mov	r5, r2
 296              		.loc 1 155 0
 297 000a 1946     		mov	r1, r3
 298              	.LVL32:
 299 000c 0222     		movs	r2, #2
 300              	.LVL33:
 301 000e FFF7FEFF 		bl	sys_func2
 302              	.LVL34:
 156:src/iface_util.c ****   for (i=0; i<aLen; i+=8) {
 303              		.loc 1 156 0
 304 0012 0024     		movs	r4, #0
 305              	.LVL35:
 306              	.L18:
 307              		.loc 1 156 0 is_stmt 0 discriminator 1
 308 0014 AC42     		cmp	r4, r5
 309 0016 05DA     		bge	.L20
 157:src/iface_util.c ****     os_3des2(aInOut+i);
 310              		.loc 1 157 0 is_stmt 1 discriminator 3
 311 0018 3119     		adds	r1, r6, r4
 312 001a 4520     		movs	r0, #69
 313 001c FFF7FEFF 		bl	sys_func1
 314              	.LVL36:
 156:src/iface_util.c ****   for (i=0; i<aLen; i+=8) {
 315              		.loc 1 156 0 discriminator 3
 316 0020 0834     		adds	r4, r4, #8
 317              	.LVL37:
 318 0022 F7E7     		b	.L18
 319              	.L20:
 158:src/iface_util.c ****   }
 159:src/iface_util.c **** #endif
 160:src/iface_util.c **** }
 320              		.loc 1 160 0
 321 0024 70BD     		pop	{r4, r5, r6, pc}
 322              		.cfi_endproc
 323              	.LFE6:
 324              		.size	TDes2, .-TDes2
 325              		.section	.text.Crc16,"ax",%progbits
 326              		.align	1
 327              		.global	Crc16
 328              		.thumb
 329              		.thumb_func
 330              		.type	Crc16, %function
 331              	Crc16:
 332              	.LFB7:
 161:src/iface_util.c **** //=============================================================================
 162:src/iface_util.c **** //  Function        : Crc16
 163:src/iface_util.c **** //  Description     : crc = x^16 + x^15 + x^2 + 1
 164:src/iface_util.c **** //  Input           :
 165:src/iface_util.c **** //  Return          :
 166:src/iface_util.c **** //  Note            : N/A
 167:src/iface_util.c **** //  Globals Changed : N/A
 168:src/iface_util.c **** //=============================================================================
 169:src/iface_util.c **** static const WORD KCrc16Tbl[256] = {
 170:src/iface_util.c ****   0x0000, 0x8005, 0x800f, 0x000a, 0x801b, 0x001e, 0x0014, 0x8011,
 171:src/iface_util.c ****   0x8033, 0x0036, 0x003c, 0x8039, 0x0028, 0x802d, 0x8027, 0x0022,
ARM GAS  C:\Users\AHMED~1.ELE\AppData\Local\Temp\ccFKRCcb.s 			page 10


 172:src/iface_util.c ****   0x8063, 0x0066, 0x006c, 0x8069, 0x0078, 0x807d, 0x8077, 0x0072,
 173:src/iface_util.c ****   0x0050, 0x8055, 0x805f, 0x005a, 0x804b, 0x004e, 0x0044, 0x8041,
 174:src/iface_util.c ****   0x80c3, 0x00c6, 0x00cc, 0x80c9, 0x00d8, 0x80dd, 0x80d7, 0x00d2,
 175:src/iface_util.c ****   0x00f0, 0x80f5, 0x80ff, 0x00fa, 0x80eb, 0x00ee, 0x00e4, 0x80e1,
 176:src/iface_util.c ****   0x00a0, 0x80a5, 0x80af, 0x00aa, 0x80bb, 0x00be, 0x00b4, 0x80b1,
 177:src/iface_util.c ****   0x8093, 0x0096, 0x009c, 0x8099, 0x0088, 0x808d, 0x8087, 0x0082,
 178:src/iface_util.c ****   0x8183, 0x0186, 0x018c, 0x8189, 0x0198, 0x819d, 0x8197, 0x0192,
 179:src/iface_util.c ****   0x01b0, 0x81b5, 0x81bf, 0x01ba, 0x81ab, 0x01ae, 0x01a4, 0x81a1,
 180:src/iface_util.c ****   0x01e0, 0x81e5, 0x81ef, 0x01ea, 0x81fb, 0x01fe, 0x01f4, 0x81f1,
 181:src/iface_util.c ****   0x81d3, 0x01d6, 0x01dc, 0x81d9, 0x01c8, 0x81cd, 0x81c7, 0x01c2,
 182:src/iface_util.c ****   0x0140, 0x8145, 0x814f, 0x014a, 0x815b, 0x015e, 0x0154, 0x8151,
 183:src/iface_util.c ****   0x8173, 0x0176, 0x017c, 0x8179, 0x0168, 0x816d, 0x8167, 0x0162,
 184:src/iface_util.c ****   0x8123, 0x0126, 0x012c, 0x8129, 0x0138, 0x813d, 0x8137, 0x0132,
 185:src/iface_util.c ****   0x0110, 0x8115, 0x811f, 0x011a, 0x810b, 0x010e, 0x0104, 0x8101,
 186:src/iface_util.c ****   0x8303, 0x0306, 0x030c, 0x8309, 0x0318, 0x831d, 0x8317, 0x0312,
 187:src/iface_util.c ****   0x0330, 0x8335, 0x833f, 0x033a, 0x832b, 0x032e, 0x0324, 0x8321,
 188:src/iface_util.c ****   0x0360, 0x8365, 0x836f, 0x036a, 0x837b, 0x037e, 0x0374, 0x8371,
 189:src/iface_util.c ****   0x8353, 0x0356, 0x035c, 0x8359, 0x0348, 0x834d, 0x8347, 0x0342,
 190:src/iface_util.c ****   0x03c0, 0x83c5, 0x83cf, 0x03ca, 0x83db, 0x03de, 0x03d4, 0x83d1,
 191:src/iface_util.c ****   0x83f3, 0x03f6, 0x03fc, 0x83f9, 0x03e8, 0x83ed, 0x83e7, 0x03e2,
 192:src/iface_util.c ****   0x83a3, 0x03a6, 0x03ac, 0x83a9, 0x03b8, 0x83bd, 0x83b7, 0x03b2,
 193:src/iface_util.c ****   0x0390, 0x8395, 0x839f, 0x039a, 0x838b, 0x038e, 0x0384, 0x8381,
 194:src/iface_util.c ****   0x0280, 0x8285, 0x828f, 0x028a, 0x829b, 0x029e, 0x0294, 0x8291,
 195:src/iface_util.c ****   0x82b3, 0x02b6, 0x02bc, 0x82b9, 0x02a8, 0x82ad, 0x82a7, 0x02a2,
 196:src/iface_util.c ****   0x82e3, 0x02e6, 0x02ec, 0x82e9, 0x02f8, 0x82fd, 0x82f7, 0x02f2,
 197:src/iface_util.c ****   0x02d0, 0x82d5, 0x82df, 0x02da, 0x82cb, 0x02ce, 0x02c4, 0x82c1,
 198:src/iface_util.c ****   0x8243, 0x0246, 0x024c, 0x8249, 0x0258, 0x825d, 0x8257, 0x0252,
 199:src/iface_util.c ****   0x0270, 0x8275, 0x827f, 0x027a, 0x826b, 0x026e, 0x0264, 0x8261,
 200:src/iface_util.c ****   0x0220, 0x8225, 0x822f, 0x022a, 0x823b, 0x023e, 0x0234, 0x8231,
 201:src/iface_util.c ****   0x8213, 0x0216, 0x021c, 0x8219, 0x0208, 0x820d, 0x8207, 0x0202
 202:src/iface_util.c **** };
 203:src/iface_util.c **** WORD Crc16(BYTE *aData, WORD aLen, WORD aInitial)
 204:src/iface_util.c **** {
 333              		.loc 1 204 0
 334              		.cfi_startproc
 335              		@ args = 0, pretend = 0, frame = 0
 336              		@ frame_needed = 0, uses_anonymous_args = 0
 337              	.LVL38:
 205:src/iface_util.c ****   int i;
 206:src/iface_util.c ****   BYTE bTmp;
 207:src/iface_util.c ****   WORD wCrc;
 208:src/iface_util.c **** 
 209:src/iface_util.c ****   for (i=0, wCrc=aInitial; i<aLen; i++) {
 338              		.loc 1 209 0
 339 0000 0346     		mov	r3, r0
 204:src/iface_util.c ****   int i;
 340              		.loc 1 204 0
 341 0002 30B5     		push	{r4, r5, lr}
 342              		.cfi_def_cfa_offset 12
 343              		.cfi_offset 4, -12
 344              		.cfi_offset 5, -8
 345              		.cfi_offset 14, -4
 346              	.LVL39:
 347              	.L22:
 348 0004 1C1A     		subs	r4, r3, r0
 349              	.LVL40:
 350              		.loc 1 209 0 discriminator 1
ARM GAS  C:\Users\AHMED~1.ELE\AppData\Local\Temp\ccFKRCcb.s 			page 11


 351 0006 8C42     		cmp	r4, r1
 352 0008 0ADA     		bge	.L24
 353              	.LVL41:
 210:src/iface_util.c ****     bTmp = (BYTE)((wCrc>>8) ^ (*aData++));
 354              		.loc 1 210 0 discriminator 3
 355 000a 13F8014B 		ldrb	r4, [r3], #1	@ zero_extendqisi2
 356              	.LVL42:
 211:src/iface_util.c ****     wCrc = (wCrc << 8) ^ (WORD)KCrc16Tbl[bTmp];
 357              		.loc 1 211 0 discriminator 3
 358 000e 054D     		ldr	r5, .L25
 359 0010 84EA1224 		eor	r4, r4, r2, lsr #8
 360 0014 35F81440 		ldrh	r4, [r5, r4, lsl #1]
 361 0018 84EA0222 		eor	r2, r4, r2, lsl #8
 362              	.LVL43:
 363 001c 92B2     		uxth	r2, r2
 364              	.LVL44:
 365 001e F1E7     		b	.L22
 366              	.LVL45:
 367              	.L24:
 212:src/iface_util.c ****   }
 213:src/iface_util.c ****   return wCrc;
 214:src/iface_util.c **** }
 368              		.loc 1 214 0
 369 0020 1046     		mov	r0, r2
 370 0022 30BD     		pop	{r4, r5, pc}
 371              	.LVL46:
 372              	.L26:
 373              		.align	2
 374              	.L25:
 375 0024 00000000 		.word	.LANCHOR0
 376              		.cfi_endproc
 377              	.LFE7:
 378              		.size	Crc16, .-Crc16
 379              		.section	.text.Random,"ax",%progbits
 380              		.align	1
 381              		.global	Random
 382              		.thumb
 383              		.thumb_func
 384              		.type	Random, %function
 385              	Random:
 386              	.LFB8:
 215:src/iface_util.c **** //=============================================================================
 216:src/iface_util.c **** //  Function        : Random
 217:src/iface_util.c **** //  Description     :
 218:src/iface_util.c **** //  Input           :
 219:src/iface_util.c **** //  Return          :
 220:src/iface_util.c **** //  Note            : N/A
 221:src/iface_util.c **** //  Globals Changed : N/A
 222:src/iface_util.c **** //=============================================================================
 223:src/iface_util.c **** void Random(BYTE *aOut, WORD aLen)
 224:src/iface_util.c **** {
 387              		.loc 1 224 0
 388              		.cfi_startproc
 389              		@ args = 0, pretend = 0, frame = 8
 390              		@ frame_needed = 0, uses_anonymous_args = 0
 391              	.LVL47:
 392 0000 73B5     		push	{r0, r1, r4, r5, r6, lr}
ARM GAS  C:\Users\AHMED~1.ELE\AppData\Local\Temp\ccFKRCcb.s 			page 12


 393              		.cfi_def_cfa_offset 24
 394              		.cfi_offset 4, -16
 395              		.cfi_offset 5, -12
 396              		.cfi_offset 6, -8
 397              		.cfi_offset 14, -4
 398              		.loc 1 224 0
 399 0002 0646     		mov	r6, r0
 400 0004 0D46     		mov	r5, r1
 225:src/iface_util.c ****   int i;
 226:src/iface_util.c ****   BYTE buf[8];
 227:src/iface_util.c **** 
 228:src/iface_util.c ****   for (i=0; i+8<=aLen; i+=8) {
 401              		.loc 1 228 0
 402 0006 0024     		movs	r4, #0
 403              	.LVL48:
 404              	.L28:
 405 0008 E31D     		adds	r3, r4, #7
 406              		.loc 1 228 0 is_stmt 0 discriminator 1
 407 000a AB42     		cmp	r3, r5
 408 000c 05DA     		bge	.L31
 229:src/iface_util.c ****     os_rand(aOut+i);
 409              		.loc 1 229 0 is_stmt 1 discriminator 3
 410 000e 3119     		adds	r1, r6, r4
 411 0010 0120     		movs	r0, #1
 412 0012 FFF7FEFF 		bl	sys_func1
 413              	.LVL49:
 228:src/iface_util.c ****     os_rand(aOut+i);
 414              		.loc 1 228 0 discriminator 3
 415 0016 0834     		adds	r4, r4, #8
 416              	.LVL50:
 417 0018 F6E7     		b	.L28
 418              	.L31:
 419 001a EC08     		lsrs	r4, r5, #3
 420              	.LVL51:
 421 001c E400     		lsls	r4, r4, #3
 230:src/iface_util.c ****   }
 231:src/iface_util.c ****   if (i < aLen) {
 422              		.loc 1 231 0
 423 001e AC42     		cmp	r4, r5
 424 0020 08DA     		bge	.L27
 232:src/iface_util.c ****     os_rand(buf);
 425              		.loc 1 232 0
 426 0022 6946     		mov	r1, sp
 427 0024 0120     		movs	r0, #1
 428 0026 FFF7FEFF 		bl	sys_func1
 429              	.LVL52:
 233:src/iface_util.c ****     memcpy(aOut+i, buf, aLen-i);
 430              		.loc 1 233 0
 431 002a 3019     		adds	r0, r6, r4
 432 002c 6946     		mov	r1, sp
 433 002e 2A1B     		subs	r2, r5, r4
 434 0030 FFF7FEFF 		bl	memcpy
 435              	.LVL53:
 436              	.L27:
 234:src/iface_util.c ****   }
 235:src/iface_util.c **** #ifdef WIN32
 236:src/iface_util.c ****   memset(aOut, 0x00, aLen);
ARM GAS  C:\Users\AHMED~1.ELE\AppData\Local\Temp\ccFKRCcb.s 			page 13


 237:src/iface_util.c **** #endif
 238:src/iface_util.c **** }
 437              		.loc 1 238 0
 438 0034 02B0     		add	sp, sp, #8
 439              		.cfi_def_cfa_offset 16
 440              		@ sp needed
 441 0036 70BD     		pop	{r4, r5, r6, pc}
 442              		.cfi_endproc
 443              	.LFE8:
 444              		.size	Random, .-Random
 445              		.section	.rodata
 446              		.align	1
 447              		.set	.LANCHOR0,. + 0
 448              		.type	KCrc16Tbl, %object
 449              		.size	KCrc16Tbl, 512
 450              	KCrc16Tbl:
 451 0000 0000     		.short	0
 452 0002 0580     		.short	-32763
 453 0004 0F80     		.short	-32753
 454 0006 0A00     		.short	10
 455 0008 1B80     		.short	-32741
 456 000a 1E00     		.short	30
 457 000c 1400     		.short	20
 458 000e 1180     		.short	-32751
 459 0010 3380     		.short	-32717
 460 0012 3600     		.short	54
 461 0014 3C00     		.short	60
 462 0016 3980     		.short	-32711
 463 0018 2800     		.short	40
 464 001a 2D80     		.short	-32723
 465 001c 2780     		.short	-32729
 466 001e 2200     		.short	34
 467 0020 6380     		.short	-32669
 468 0022 6600     		.short	102
 469 0024 6C00     		.short	108
 470 0026 6980     		.short	-32663
 471 0028 7800     		.short	120
 472 002a 7D80     		.short	-32643
 473 002c 7780     		.short	-32649
 474 002e 7200     		.short	114
 475 0030 5000     		.short	80
 476 0032 5580     		.short	-32683
 477 0034 5F80     		.short	-32673
 478 0036 5A00     		.short	90
 479 0038 4B80     		.short	-32693
 480 003a 4E00     		.short	78
 481 003c 4400     		.short	68
 482 003e 4180     		.short	-32703
 483 0040 C380     		.short	-32573
 484 0042 C600     		.short	198
 485 0044 CC00     		.short	204
 486 0046 C980     		.short	-32567
 487 0048 D800     		.short	216
 488 004a DD80     		.short	-32547
 489 004c D780     		.short	-32553
 490 004e D200     		.short	210
 491 0050 F000     		.short	240
ARM GAS  C:\Users\AHMED~1.ELE\AppData\Local\Temp\ccFKRCcb.s 			page 14


 492 0052 F580     		.short	-32523
 493 0054 FF80     		.short	-32513
 494 0056 FA00     		.short	250
 495 0058 EB80     		.short	-32533
 496 005a EE00     		.short	238
 497 005c E400     		.short	228
 498 005e E180     		.short	-32543
 499 0060 A000     		.short	160
 500 0062 A580     		.short	-32603
 501 0064 AF80     		.short	-32593
 502 0066 AA00     		.short	170
 503 0068 BB80     		.short	-32581
 504 006a BE00     		.short	190
 505 006c B400     		.short	180
 506 006e B180     		.short	-32591
 507 0070 9380     		.short	-32621
 508 0072 9600     		.short	150
 509 0074 9C00     		.short	156
 510 0076 9980     		.short	-32615
 511 0078 8800     		.short	136
 512 007a 8D80     		.short	-32627
 513 007c 8780     		.short	-32633
 514 007e 8200     		.short	130
 515 0080 8381     		.short	-32381
 516 0082 8601     		.short	390
 517 0084 8C01     		.short	396
 518 0086 8981     		.short	-32375
 519 0088 9801     		.short	408
 520 008a 9D81     		.short	-32355
 521 008c 9781     		.short	-32361
 522 008e 9201     		.short	402
 523 0090 B001     		.short	432
 524 0092 B581     		.short	-32331
 525 0094 BF81     		.short	-32321
 526 0096 BA01     		.short	442
 527 0098 AB81     		.short	-32341
 528 009a AE01     		.short	430
 529 009c A401     		.short	420
 530 009e A181     		.short	-32351
 531 00a0 E001     		.short	480
 532 00a2 E581     		.short	-32283
 533 00a4 EF81     		.short	-32273
 534 00a6 EA01     		.short	490
 535 00a8 FB81     		.short	-32261
 536 00aa FE01     		.short	510
 537 00ac F401     		.short	500
 538 00ae F181     		.short	-32271
 539 00b0 D381     		.short	-32301
 540 00b2 D601     		.short	470
 541 00b4 DC01     		.short	476
 542 00b6 D981     		.short	-32295
 543 00b8 C801     		.short	456
 544 00ba CD81     		.short	-32307
 545 00bc C781     		.short	-32313
 546 00be C201     		.short	450
 547 00c0 4001     		.short	320
 548 00c2 4581     		.short	-32443
ARM GAS  C:\Users\AHMED~1.ELE\AppData\Local\Temp\ccFKRCcb.s 			page 15


 549 00c4 4F81     		.short	-32433
 550 00c6 4A01     		.short	330
 551 00c8 5B81     		.short	-32421
 552 00ca 5E01     		.short	350
 553 00cc 5401     		.short	340
 554 00ce 5181     		.short	-32431
 555 00d0 7381     		.short	-32397
 556 00d2 7601     		.short	374
 557 00d4 7C01     		.short	380
 558 00d6 7981     		.short	-32391
 559 00d8 6801     		.short	360
 560 00da 6D81     		.short	-32403
 561 00dc 6781     		.short	-32409
 562 00de 6201     		.short	354
 563 00e0 2381     		.short	-32477
 564 00e2 2601     		.short	294
 565 00e4 2C01     		.short	300
 566 00e6 2981     		.short	-32471
 567 00e8 3801     		.short	312
 568 00ea 3D81     		.short	-32451
 569 00ec 3781     		.short	-32457
 570 00ee 3201     		.short	306
 571 00f0 1001     		.short	272
 572 00f2 1581     		.short	-32491
 573 00f4 1F81     		.short	-32481
 574 00f6 1A01     		.short	282
 575 00f8 0B81     		.short	-32501
 576 00fa 0E01     		.short	270
 577 00fc 0401     		.short	260
 578 00fe 0181     		.short	-32511
 579 0100 0383     		.short	-31997
 580 0102 0603     		.short	774
 581 0104 0C03     		.short	780
 582 0106 0983     		.short	-31991
 583 0108 1803     		.short	792
 584 010a 1D83     		.short	-31971
 585 010c 1783     		.short	-31977
 586 010e 1203     		.short	786
 587 0110 3003     		.short	816
 588 0112 3583     		.short	-31947
 589 0114 3F83     		.short	-31937
 590 0116 3A03     		.short	826
 591 0118 2B83     		.short	-31957
 592 011a 2E03     		.short	814
 593 011c 2403     		.short	804
 594 011e 2183     		.short	-31967
 595 0120 6003     		.short	864
 596 0122 6583     		.short	-31899
 597 0124 6F83     		.short	-31889
 598 0126 6A03     		.short	874
 599 0128 7B83     		.short	-31877
 600 012a 7E03     		.short	894
 601 012c 7403     		.short	884
 602 012e 7183     		.short	-31887
 603 0130 5383     		.short	-31917
 604 0132 5603     		.short	854
 605 0134 5C03     		.short	860
ARM GAS  C:\Users\AHMED~1.ELE\AppData\Local\Temp\ccFKRCcb.s 			page 16


 606 0136 5983     		.short	-31911
 607 0138 4803     		.short	840
 608 013a 4D83     		.short	-31923
 609 013c 4783     		.short	-31929
 610 013e 4203     		.short	834
 611 0140 C003     		.short	960
 612 0142 C583     		.short	-31803
 613 0144 CF83     		.short	-31793
 614 0146 CA03     		.short	970
 615 0148 DB83     		.short	-31781
 616 014a DE03     		.short	990
 617 014c D403     		.short	980
 618 014e D183     		.short	-31791
 619 0150 F383     		.short	-31757
 620 0152 F603     		.short	1014
 621 0154 FC03     		.short	1020
 622 0156 F983     		.short	-31751
 623 0158 E803     		.short	1000
 624 015a ED83     		.short	-31763
 625 015c E783     		.short	-31769
 626 015e E203     		.short	994
 627 0160 A383     		.short	-31837
 628 0162 A603     		.short	934
 629 0164 AC03     		.short	940
 630 0166 A983     		.short	-31831
 631 0168 B803     		.short	952
 632 016a BD83     		.short	-31811
 633 016c B783     		.short	-31817
 634 016e B203     		.short	946
 635 0170 9003     		.short	912
 636 0172 9583     		.short	-31851
 637 0174 9F83     		.short	-31841
 638 0176 9A03     		.short	922
 639 0178 8B83     		.short	-31861
 640 017a 8E03     		.short	910
 641 017c 8403     		.short	900
 642 017e 8183     		.short	-31871
 643 0180 8002     		.short	640
 644 0182 8582     		.short	-32123
 645 0184 8F82     		.short	-32113
 646 0186 8A02     		.short	650
 647 0188 9B82     		.short	-32101
 648 018a 9E02     		.short	670
 649 018c 9402     		.short	660
 650 018e 9182     		.short	-32111
 651 0190 B382     		.short	-32077
 652 0192 B602     		.short	694
 653 0194 BC02     		.short	700
 654 0196 B982     		.short	-32071
 655 0198 A802     		.short	680
 656 019a AD82     		.short	-32083
 657 019c A782     		.short	-32089
 658 019e A202     		.short	674
 659 01a0 E382     		.short	-32029
 660 01a2 E602     		.short	742
 661 01a4 EC02     		.short	748
 662 01a6 E982     		.short	-32023
ARM GAS  C:\Users\AHMED~1.ELE\AppData\Local\Temp\ccFKRCcb.s 			page 17


 663 01a8 F802     		.short	760
 664 01aa FD82     		.short	-32003
 665 01ac F782     		.short	-32009
 666 01ae F202     		.short	754
 667 01b0 D002     		.short	720
 668 01b2 D582     		.short	-32043
 669 01b4 DF82     		.short	-32033
 670 01b6 DA02     		.short	730
 671 01b8 CB82     		.short	-32053
 672 01ba CE02     		.short	718
 673 01bc C402     		.short	708
 674 01be C182     		.short	-32063
 675 01c0 4382     		.short	-32189
 676 01c2 4602     		.short	582
 677 01c4 4C02     		.short	588
 678 01c6 4982     		.short	-32183
 679 01c8 5802     		.short	600
 680 01ca 5D82     		.short	-32163
 681 01cc 5782     		.short	-32169
 682 01ce 5202     		.short	594
 683 01d0 7002     		.short	624
 684 01d2 7582     		.short	-32139
 685 01d4 7F82     		.short	-32129
 686 01d6 7A02     		.short	634
 687 01d8 6B82     		.short	-32149
 688 01da 6E02     		.short	622
 689 01dc 6402     		.short	612
 690 01de 6182     		.short	-32159
 691 01e0 2002     		.short	544
 692 01e2 2582     		.short	-32219
 693 01e4 2F82     		.short	-32209
 694 01e6 2A02     		.short	554
 695 01e8 3B82     		.short	-32197
 696 01ea 3E02     		.short	574
 697 01ec 3402     		.short	564
 698 01ee 3182     		.short	-32207
 699 01f0 1382     		.short	-32237
 700 01f2 1602     		.short	534
 701 01f4 1C02     		.short	540
 702 01f6 1982     		.short	-32231
 703 01f8 0802     		.short	520
 704 01fa 0D82     		.short	-32243
 705 01fc 0782     		.short	-32249
 706 01fe 0202     		.short	514
 707              		.text
 708              	.Letext0:
 709              		.file 2 "../LibA5T1000/common.h"
 710              		.file 3 "../LibA5T1000/system.h"