ARM GAS  C:\Users\AHMED~1.ELE\AppData\Local\Temp\ccqMlapz.s 			page 1


   1              		.syntax unified
   2              		.cpu cortex-a5
   3              		.fpu softvfp
   4              		.eabi_attribute 20, 1
   5              		.eabi_attribute 21, 1
   6              		.eabi_attribute 23, 3
   7              		.eabi_attribute 24, 1
   8              		.eabi_attribute 25, 1
   9              		.eabi_attribute 26, 1
  10              		.eabi_attribute 30, 4
  11              		.eabi_attribute 34, 0
  12              		.eabi_attribute 18, 4
  13              		.thumb
  14              		.file	"iface.c"
  15              		.text
  16              	.Ltext0:
  17              		.cfi_sections	.debug_frame
  18              		.section	.text.UpdIfaceDat,"ax",%progbits
  19              		.align	1
  20              		.thumb
  21              		.thumb_func
  22              		.type	UpdIfaceDat, %function
  23              	UpdIfaceDat:
  24              	.LFB1:
  25              		.file 1 "src/iface.c"
   1:src/iface.c   **** //-----------------------------------------------------------------------------
   2:src/iface.c   **** //  File          : iface.c
   3:src/iface.c   **** //  Module        :
   4:src/iface.c   **** //  Description   : interface for spectra proprietary
   5:src/iface.c   **** //  Author        : Pody
   6:src/iface.c   **** //  Notes         :
   7:src/iface.c   **** //
   8:src/iface.c   **** // ============================================================================
   9:src/iface.c   **** // | Naming conventions                                                       |
  10:src/iface.c   **** // | ~~~~~~~~~~~~~~~~~~                                                       |
  11:src/iface.c   **** // |             Constant : Leading K                                         |
  12:src/iface.c   **** // |      Global Variable : Leading g                                         |
  13:src/iface.c   **** // |    Function argument : Leading a                                         |
  14:src/iface.c   **** // |       Local Variable : All lower case                                    |
  15:src/iface.c   **** // |            Char size : Leading c                                         |
  16:src/iface.c   **** // |             Int size : Leading i                                         |
  17:src/iface.c   **** // |            Byte size : Leading b                                         |
  18:src/iface.c   **** // |            Word size : Leading w                                         |
  19:src/iface.c   **** // |           Dword size : Leading d                                         |
  20:src/iface.c   **** // |          DDword size : Leading dd                                        |
  21:src/iface.c   **** // |          Struct size : Leading s                                         |
  22:src/iface.c   **** // |                Array : Leading a, (ab = arrary of byte, etc)             |
  23:src/iface.c   **** // |              Pointer : Leading p, (pb = pointer of byte, etc)            |
  24:src/iface.c   **** // ============================================================================
  25:src/iface.c   **** //  Date          Who         Action
  26:src/iface.c   **** //  ------------  ----------- -------------------------------------------------
  27:src/iface.c   **** //  2008 Apr      Pody        Initial Version.
  28:src/iface.c   **** //-----------------------------------------------------------------------------
  29:src/iface.c   **** #include <stdlib.h>
  30:src/iface.c   **** #include "util.h"
  31:src/iface.c   **** #include "midware.h"
  32:src/iface.c   **** #include "sysutil.h"
ARM GAS  C:\Users\AHMED~1.ELE\AppData\Local\Temp\ccqMlapz.s 			page 2


  33:src/iface.c   **** #include "key2dll.h"
  34:src/iface.c   **** #include "emv2dll.h"
  35:src/iface.c   **** #include "apm.h"
  36:src/iface.c   **** #include "corevar.h"
  37:src/iface.c   **** #include "tranutil.h"
  38:src/iface.c   **** #include "tlvutil.h"
  39:src/iface.c   **** #include "constant.h"
  40:src/iface.c   **** #include "input.h"
  41:src/iface.c   **** #include "ecrdll.h"
  42:src/iface.c   **** #include "ecr.h"
  43:src/iface.c   **** #include "void.h"
  44:src/iface.c   **** #include "settle.h"
  45:src/iface.c   **** #include "auxcom.h"
  46:src/iface.c   **** #include "iface_util.h"
  47:src/iface.c   **** #include "iface.h"
  48:src/iface.c   **** 
  49:src/iface.c   **** //-----------------------------------------------------------------------------
  50:src/iface.c   **** // Defines
  51:src/iface.c   **** //-----------------------------------------------------------------------------
  52:src/iface.c   **** #define S3_FMT_ID                 (DWORD)1      // spectra 3 format id
  53:src/iface.c   **** #define SKEY_MASK                 (BYTE)0x80    //Session Key bit
  54:src/iface.c   **** #define ANY_SKEY                  (BYTE)0xFF    //for get any Session Key
  55:src/iface.c   **** #define MRMK                      (BYTE)0x00    //Master Reader Message Key
  56:src/iface.c   **** #define RMK                       (BYTE)0x01    //Reader Message Key
  57:src/iface.c   **** 
  58:src/iface.c   **** // offset
  59:src/iface.c   **** #define OSET_STX                  (WORD)0
  60:src/iface.c   **** #define OSET_FMT_ID               (WORD)1
  61:src/iface.c   **** #define OSET_TX_ID                (WORD)5
  62:src/iface.c   **** #define OSET_RX_ID                (WORD)6
  63:src/iface.c   **** #define OSET_SEQ_NUM              (WORD)7
  64:src/iface.c   **** #define OSET_INS                  (WORD)9
  65:src/iface.c   **** #define OSET_DATA_FMT             (WORD)10
  66:src/iface.c   **** #define OSET_DATA_LEN             (WORD)11
  67:src/iface.c   **** #define OSET_REQ_DATA             (WORD)13
  68:src/iface.c   **** #define OSET_RSP_CODE             (WORD)13
  69:src/iface.c   **** #define OSET_RSP_DATA             (WORD)14
  70:src/iface.c   **** #define MIN_MSG_LEN               (WORD)(OSET_DATA_LEN + 7)
  71:src/iface.c   **** #define MAX_VDATA_LEN             (WORD)(2048 - MIN_MSG_LEN)
  72:src/iface.c   **** 
  73:src/iface.c   **** // variable parameter tag
  74:src/iface.c   **** #define MAX_VTAG_SIZE             (WORD)256
  75:src/iface.c   **** #define VTAG_START                (WORD)0xFFA0
  76:src/iface.c   **** #define VTAG_UIM_START            (WORD)VTAG_START      //ui msg tag start
  77:src/iface.c   **** #define VTAG_UIM_END              (WORD)(VTAG_UIM_START+UI_END)
  78:src/iface.c   **** #define VTAG_END                  (WORD)VTAG_UIM_END                  
  79:src/iface.c   **** 
  80:src/iface.c   **** #define PORT_PDATA_MASK         0xFF
  81:src/iface.c   **** 
  82:src/iface.c   **** #define DbFErr
  83:src/iface.c   **** #define DbStep
  84:src/iface.c   **** 
  85:src/iface.c   **** //----------------------------------------------------------------------------
  86:src/iface.c   **** // Constant
  87:src/iface.c   **** //----------------------------------------------------------------------------
  88:src/iface.c   **** static const BYTE KIfaceFile[] = {"IfaceFile"};
  89:src/iface.c   **** 
ARM GAS  C:\Users\AHMED~1.ELE\AppData\Local\Temp\ccqMlapz.s 			page 3


  90:src/iface.c   **** const WORD KItfSaleResp[] = {
  91:src/iface.c   ****   ITFTAG_PAN,       ITFTAG_TXNAMT,   ITFTAG_TRACE,     ITFTAG_TXNTIME,
  92:src/iface.c   ****   ITFTAG_TXNDATE,   ITFTAG_EXPDATE,  ITFTAG_RRN,       ITFTAG_AUTH_RESP,
  93:src/iface.c   ****   ITFTAG_RESP_CODE, ITFTAG_TERMID,   ITFTAG_MERCHID,   ITFTAG_CARDHOLDERNAME,
  94:src/iface.c   ****   ITFTAG_ADDAMT,    ITFTAG_ENTRYMODE,ITFTAG_BATCHNO,   ITFTAG_ECRREF,
  95:src/iface.c   ****   ITFTAG_TXNTYPE,   ITFTAG_AID,      0x00
  96:src/iface.c   **** };
  97:src/iface.c   **** 
  98:src/iface.c   **** const WORD KItfOfflSaleResp[] = {
  99:src/iface.c   ****   ITFTAG_PAN,       ITFTAG_TXNAMT,   ITFTAG_TRACE,     ITFTAG_TXNTIME,
 100:src/iface.c   ****   ITFTAG_TXNDATE,   ITFTAG_EXPDATE,                    ITFTAG_AUTH_RESP,
 101:src/iface.c   ****   ITFTAG_RESP_CODE, ITFTAG_TERMID,   ITFTAG_MERCHID,   ITFTAG_CARDHOLDERNAME,
 102:src/iface.c   ****   ITFTAG_ADDAMT,    ITFTAG_ENTRYMODE,ITFTAG_BATCHNO,  ITFTAG_ECRREF,
 103:src/iface.c   ****   ITFTAG_TXNTYPE,   ITFTAG_AID,      0x00
 104:src/iface.c   **** };
 105:src/iface.c   **** 
 106:src/iface.c   **** const WORD KItfLastTrace[] = {
 107:src/iface.c   ****   ITFTAG_TRACE, ITFTAG_ECRREF, ITFTAG_RESP_CODE, ITFTAG_TXNTYPE, 0x00
 108:src/iface.c   **** };
 109:src/iface.c   **** 
 110:src/iface.c   **** const WORD KItfHostNameResp[] = {
 111:src/iface.c   ****   ITFTAG_RESP_CODE, ITFTAG_HOSTNAME, ITFTAG_TXNTYPE, 0x00
 112:src/iface.c   **** };
 113:src/iface.c   **** 
 114:src/iface.c   **** const WORD KItfHostTotResp[] = {
 115:src/iface.c   ****   ITFTAG_RESP_CODE, ITFTAG_HOSTTOT, ITFTAG_TXNTYPE, 0x00
 116:src/iface.c   **** };
 117:src/iface.c   **** const WORD KItfSettleResp[] = {
 118:src/iface.c   ****   ITFTAG_RESP_CODE, ITFTAG_HOSTTOT, ITFTAG_TXNTYPE, 0x00
 119:src/iface.c   **** };
 120:src/iface.c   **** const WORD *KItfRespTbl[MAX_ECREDC_CMD] = {
 121:src/iface.c   ****   KItfSaleResp,      // ITF_EDC_SALE
 122:src/iface.c   ****   KItfOfflSaleResp,  // ITF_EDC_OFFLSALE
 123:src/iface.c   ****   KItfSaleResp,      // ITF_EDC_REFUND
 124:src/iface.c   ****   KItfSaleResp,      // ITF_EDC_VOID
 125:src/iface.c   ****   KItfSaleResp,      // ITF_EDC_GETTXN
 126:src/iface.c   ****   KItfLastTrace,     // ITF_EDC_LASTTRACE
 127:src/iface.c   ****   KItfHostNameResp,  // ITF_EDC_HOSTNAME
 128:src/iface.c   ****   KItfHostTotResp,   // ITF_EDC_HOSTTOTAL
 129:src/iface.c   ****   KItfSaleResp,      // ITF_EDC_AUTH
 130:src/iface.c   ****   KItfSettleResp,    // ITF_EDC_SETTLE
 131:src/iface.c   **** };
 132:src/iface.c   **** 
 133:src/iface.c   **** //----------------------------------------------------------------------------
 134:src/iface.c   **** // Globals
 135:src/iface.c   **** //----------------------------------------------------------------------------
 136:src/iface.c   **** static BYTE gbMode = 0x00;  // mode
 137:src/iface.c   **** static WORD gwSeqNum = 0;   // seq num
 138:src/iface.c   **** static S3KEY gsSKey;        // session key
 139:src/iface.c   **** static BYTE gabRRand[8];    // reader random
 140:src/iface.c   **** static BYTE gabTRand[8];    // terminal random
 141:src/iface.c   **** 
 142:src/iface.c   **** struct IFACE_DATA *gIfaceData=NULL;
 143:src/iface.c   **** static BYTE gIfBuf[MAX_IFACE_BUF];      // Tx/Rx Buffer
 144:src/iface.c   **** static BYTE gReqBuf[MAX_IFACE_BUF];     // Rx Buffer
 145:src/iface.c   **** static BYTE gRspBuf[MAX_IFACE_BUF];     // Tx Buffer
 146:src/iface.c   **** static struct TOTAL_STRUCT gTermTotal;
ARM GAS  C:\Users\AHMED~1.ELE\AppData\Local\Temp\ccqMlapz.s 			page 4


 147:src/iface.c   **** 
 148:src/iface.c   **** //----------------------------------------------------------------------------
 149:src/iface.c   **** // Generic API
 150:src/iface.c   **** //----------------------------------------------------------------------------
 151:src/iface.c   **** 
 152:src/iface.c   **** 
 153:src/iface.c   **** //*****************************************************************************
 154:src/iface.c   **** //  Function        : IfaceInitData
 155:src/iface.c   **** //  Description     : Load Interface data.
 156:src/iface.c   **** //  Input           : N/A
 157:src/iface.c   **** //  Return          : N/A
 158:src/iface.c   **** //  Note            : N/A
 159:src/iface.c   **** //  Globals Changed : N/A
 160:src/iface.c   **** //*****************************************************************************
 161:src/iface.c   **** void IfaceInitData(void)
 162:src/iface.c   **** {
 163:src/iface.c   ****   BYTE filename[32];
 164:src/iface.c   ****   DWORD len;
 165:src/iface.c   ****   int  fd;
 166:src/iface.c   **** 
 167:src/iface.c   ****   if (gIfaceData == NULL) {
 168:src/iface.c   ****     gIfaceData = (struct IFACE_DATA*) MallocMW(sizeof(struct IFACE_DATA));
 169:src/iface.c   ****     if (gIfaceData == NULL) {
 170:src/iface.c   ****       MemFatalErr(gIfaceData);  // Check Memory
 171:src/iface.c   ****       return;
 172:src/iface.c   ****     }
 173:src/iface.c   ****   }
 174:src/iface.c   ****   strcpy(filename, KIfaceFile);
 175:src/iface.c   ****   fd = fOpenMW(filename);
 176:src/iface.c   ****   if (fd < 0) {
 177:src/iface.c   ****     fd = fCreateMW(filename, 0);
 178:src/iface.c   ****     memset(gIfaceData, 0, sizeof(struct IFACE_DATA));
 179:src/iface.c   ****     len = fWriteMW(fd, gIfaceData, sizeof(struct IFACE_DATA));
 180:src/iface.c   ****     if (len != sizeof(struct IFACE_DATA)) {
 181:src/iface.c   ****       DispLineMW("File WR Err!", MW_LINE1, MW_CLRDISP|MW_BIGFONT);
 182:src/iface.c   ****       ErrorDelay();
 183:src/iface.c   ****     }
 184:src/iface.c   ****     fCommitAllMW();
 185:src/iface.c   ****   }
 186:src/iface.c   ****   else {
 187:src/iface.c   ****     len = fReadMW(fd, gIfaceData, sizeof(struct IFACE_DATA));
 188:src/iface.c   ****     if (len != sizeof(struct IFACE_DATA)) {
 189:src/iface.c   ****       DispLineMW("File RD Err!", MW_LINE1, MW_CLRDISP|MW_BIGFONT);
 190:src/iface.c   ****       ErrorDelay();
 191:src/iface.c   ****     }
 192:src/iface.c   ****   }
 193:src/iface.c   ****   fCloseMW(fd);
 194:src/iface.c   **** }
 195:src/iface.c   **** //*****************************************************************************
 196:src/iface.c   **** //  Function        : UpdIfaceDat
 197:src/iface.c   **** //  Description     : Update Interface data.
 198:src/iface.c   **** //  Input           : N/A
 199:src/iface.c   **** //  Return          : N/A
 200:src/iface.c   **** //  Note            : N/A
 201:src/iface.c   **** //  Globals Changed : N/A
 202:src/iface.c   **** //*****************************************************************************
 203:src/iface.c   **** static void UpdIfaceDat(void)
ARM GAS  C:\Users\AHMED~1.ELE\AppData\Local\Temp\ccqMlapz.s 			page 5


 204:src/iface.c   **** {
  26              		.loc 1 204 0
  27              		.cfi_startproc
  28              		@ args = 0, pretend = 0, frame = 32
  29              		@ frame_needed = 0, uses_anonymous_args = 0
  30 0000 70B5     		push	{r4, r5, r6, lr}
  31              		.cfi_def_cfa_offset 16
  32              		.cfi_offset 4, -16
  33              		.cfi_offset 5, -12
  34              		.cfi_offset 6, -8
  35              		.cfi_offset 14, -4
 205:src/iface.c   ****   BYTE filename[32];
 206:src/iface.c   ****   DWORD len;
 207:src/iface.c   ****   int  fd;
 208:src/iface.c   **** 
 209:src/iface.c   ****   strcpy(filename, KIfaceFile);
 210:src/iface.c   ****   fd = fOpenMW(filename);
  36              		.loc 1 210 0
  37 0002 0025     		movs	r5, #0
 204:src/iface.c   ****   BYTE filename[32];
  38              		.loc 1 204 0
  39 0004 8AB0     		sub	sp, sp, #40
  40              		.cfi_def_cfa_offset 56
 209:src/iface.c   ****   fd = fOpenMW(filename);
  41              		.loc 1 209 0
  42 0006 1E49     		ldr	r1, .L13
  43 0008 02A8     		add	r0, sp, #8
  44 000a FFF7FEFF 		bl	strcpy
  45              	.LVL0:
  46              		.loc 1 210 0
  47 000e 0095     		str	r5, [sp]
  48 0010 0F20     		movs	r0, #15
  49 0012 0D21     		movs	r1, #13
  50 0014 02AA     		add	r2, sp, #8
  51 0016 2B46     		mov	r3, r5
  52 0018 FFF7FEFF 		bl	lib_app_call
  53              	.LVL1:
 211:src/iface.c   ****   if (fd >= 0) {
  54              		.loc 1 211 0
  55 001c 061E     		subs	r6, r0, #0
  56 001e 25DB     		blt	.L3
 212:src/iface.c   ****     len = fWriteMW(fd, gIfaceData, sizeof(struct IFACE_DATA));
  57              		.loc 1 212 0
  58 0020 2823     		movs	r3, #40
  59 0022 0F20     		movs	r0, #15
  60              	.LVL2:
  61 0024 0093     		str	r3, [sp]
  62 0026 174B     		ldr	r3, .L13+4
  63 0028 1221     		movs	r1, #18
  64 002a 3246     		mov	r2, r6
  65 002c 1B68     		ldr	r3, [r3]
  66 002e FFF7FEFF 		bl	lib_app_call
  67              	.LVL3:
 213:src/iface.c   ****     if (len != sizeof(struct IFACE_DATA)) {
  68              		.loc 1 213 0
  69 0032 2828     		cmp	r0, #40
  70 0034 1AD0     		beq	.L3
ARM GAS  C:\Users\AHMED~1.ELE\AppData\Local\Temp\ccqMlapz.s 			page 6


  71              	.LVL4:
  72              	.LBB6:
 214:src/iface.c   ****       DispLineMW("File WR Err!", MW_LINE1, MW_CLRDISP|MW_BIGFONT);
  73              		.loc 1 214 0
  74 0036 9220     		movs	r0, #146
  75              	.LVL5:
  76 0038 0D21     		movs	r1, #13
  77 003a FFF7FEFF 		bl	sys_func1
  78              	.LVL6:
  79 003e 0446     		mov	r4, r0
  80 0040 90B1     		cbz	r0, .L5
  81              		.loc 1 214 0 is_stmt 0 discriminator 1
  82 0042 1149     		ldr	r1, .L13+8
  83 0044 0C22     		movs	r2, #12
  84 0046 FFF7FEFF 		bl	memcpy
  85              	.LVL7:
  86 004a 4FF48453 		mov	r3, #4224
  87 004e 2573     		strb	r5, [r4, #12]
  88 0050 2521     		movs	r1, #37
  89 0052 0093     		str	r3, [sp]
  90 0054 0F20     		movs	r0, #15
  91 0056 2246     		mov	r2, r4
  92 0058 4FF48073 		mov	r3, #256
  93 005c FFF7FEFF 		bl	lib_app_call
  94              	.LVL8:
  95 0060 9420     		movs	r0, #148
  96 0062 2146     		mov	r1, r4
  97 0064 FFF7FEFF 		bl	sys_func1
  98              	.LVL9:
  99              	.L5:
 100              	.LBE6:
 215:src/iface.c   ****       ErrorDelay();
 101              		.loc 1 215 0 is_stmt 1
 102 0068 FFF7FEFF 		bl	ErrorDelay
 103              	.LVL10:
 104              	.L3:
 216:src/iface.c   ****     }
 217:src/iface.c   ****   }
 218:src/iface.c   ****   fCloseMW(fd);
 105              		.loc 1 218 0
 106 006c 0023     		movs	r3, #0
 107 006e 0E21     		movs	r1, #14
 108 0070 0093     		str	r3, [sp]
 109 0072 3246     		mov	r2, r6
 110 0074 0F20     		movs	r0, #15
 111 0076 FFF7FEFF 		bl	lib_app_call
 112              	.LVL11:
 219:src/iface.c   **** }
 113              		.loc 1 219 0
 114 007a 0AB0     		add	sp, sp, #40
 115              		.cfi_def_cfa_offset 16
 116              		@ sp needed
 117 007c 70BD     		pop	{r4, r5, r6, pc}
 118              	.LVL12:
 119              	.L14:
 120 007e 00BF     		.align	2
 121              	.L13:
ARM GAS  C:\Users\AHMED~1.ELE\AppData\Local\Temp\ccqMlapz.s 			page 7


 122 0080 00000000 		.word	.LANCHOR0
 123 0084 00000000 		.word	.LANCHOR1
 124 0088 00000000 		.word	.LC0
 125              		.cfi_endproc
 126              	.LFE1:
 127              		.size	UpdIfaceDat, .-UpdIfaceDat
 128              		.section	.text.keyPut,"ax",%progbits
 129              		.align	1
 130              		.thumb
 131              		.thumb_func
 132              		.type	keyPut, %function
 133              	keyPut:
 134              	.LFB4:
 220:src/iface.c   **** //=============================================================================
 221:src/iface.c   **** //  Function        : errRspData
 222:src/iface.c   **** //  Description     : pack response error data
 223:src/iface.c   **** //  Input           :
 224:src/iface.c   **** //  Return          :
 225:src/iface.c   **** //  Note            : N/A
 226:src/iface.c   **** //  Globals Changed : N/A
 227:src/iface.c   **** //=============================================================================
 228:src/iface.c   **** static int errRspData(BYTE aRCode, BYTE *aRspMsg, BYTE *aReqMsg, WORD aReqLen)
 229:src/iface.c   **** {
 230:src/iface.c   ****   int iLen;
 231:src/iface.c   ****   BYTE *pRCode;
 232:src/iface.c   **** 
 233:src/iface.c   ****   // rsp code
 234:src/iface.c   ****   iLen = 0;
 235:src/iface.c   ****   pRCode = &aRspMsg[OSET_RSP_CODE];
 236:src/iface.c   ****   pRCode[iLen++] = aRCode;
 237:src/iface.c   **** 
 238:src/iface.c   ****   // rsp data len
 239:src/iface.c   ****   WPut(&aRspMsg[OSET_DATA_LEN], iLen);
 240:src/iface.c   ****   iLen += 2;
 241:src/iface.c   ****   return iLen;
 242:src/iface.c   **** }
 243:src/iface.c   **** 
 244:src/iface.c   **** //=============================================================================
 245:src/iface.c   **** //  Function        : keyGet
 246:src/iface.c   **** //  Description     :
 247:src/iface.c   **** //  Input           : aType, aIdx
 248:src/iface.c   **** //  Return          :
 249:src/iface.c   **** //  Note            : N/A
 250:src/iface.c   **** //  Globals Changed : N/A
 251:src/iface.c   **** //=============================================================================
 252:src/iface.c   **** #define KEK         (BYTE*)"Spectra\x00"
 253:src/iface.c   **** static BOOLEAN keyGet(BYTE *aKey, BYTE aType, BYTE aIdx)
 254:src/iface.c   **** {
 255:src/iface.c   ****   S3KEY sKey;
 256:src/iface.c   **** 
 257:src/iface.c   ****   
 258:src/iface.c   ****   // get MRMK or RMK
 259:src/iface.c   ****   switch (aType) {
 260:src/iface.c   ****     case MRMK:
 261:src/iface.c   ****       //PDataGet(&sKey, &gpsPD->sFS3PData.sMrmk, sizeof(S3KEY));
 262:src/iface.c   ****       memcpy(&sKey, &gIfaceData->sFS3PData.sMrmk, sizeof(S3KEY));
 263:src/iface.c   ****       if (!(sKey.bStatus & S3KEY_INJECTED)) { //initial master key
ARM GAS  C:\Users\AHMED~1.ELE\AppData\Local\Temp\ccqMlapz.s 			page 8


 264:src/iface.c   ****         memcpy(aKey, sKey.abDKey, 16);
 265:src/iface.c   ****         return TRUE;
 266:src/iface.c   ****       }
 267:src/iface.c   ****       else { // injected master key
 268:src/iface.c   ****         if ((sKey.bType == aType) && (sKey.bIdx == aIdx)) {
 269:src/iface.c   ****           memcpy(aKey, sKey.abDKey, 16);
 270:src/iface.c   ****           Des2(KEK, aKey, 16);
 271:src/iface.c   ****           return TRUE;
 272:src/iface.c   ****         }
 273:src/iface.c   ****       }
 274:src/iface.c   ****       break;
 275:src/iface.c   ****     case RMK:
 276:src/iface.c   ****       //PDataGet(&sKey, &gpsPD->sFS3PData.sRmk, sizeof(S3KEY));
 277:src/iface.c   ****       memcpy(&sKey, &gIfaceData->sFS3PData.sRmk, sizeof(S3KEY));
 278:src/iface.c   ****       if ((sKey.bStatus & S3KEY_INJECTED)
 279:src/iface.c   ****           && (sKey.bType == aType)
 280:src/iface.c   ****           && (sKey.bIdx == aIdx)) {
 281:src/iface.c   ****         memcpy(aKey, sKey.abDKey, 16);
 282:src/iface.c   ****         Des2(KEK, aKey, 16);
 283:src/iface.c   ****         return TRUE;
 284:src/iface.c   ****       }
 285:src/iface.c   ****       break;
 286:src/iface.c   ****     default:
 287:src/iface.c   ****       break;
 288:src/iface.c   ****   }
 289:src/iface.c   **** 
 290:src/iface.c   ****   // get SKEY
 291:src/iface.c   ****   if (aType & SKEY_MASK) {
 292:src/iface.c   ****     if (gsSKey.bStatus & S3KEY_INJECTED) {
 293:src/iface.c   ****       if ((aType == ANY_SKEY) // any skey
 294:src/iface.c   ****           || (gsSKey.bType < aType) // lower level key
 295:src/iface.c   ****           || ((gsSKey.bType == aType) && (gsSKey.bIdx == aIdx))) { // same level key and same idx
 296:src/iface.c   ****         memcpy(aKey, gsSKey.abDKey, 16);
 297:src/iface.c   ****         return TRUE;
 298:src/iface.c   ****       }
 299:src/iface.c   ****     }
 300:src/iface.c   ****   }
 301:src/iface.c   **** 
 302:src/iface.c   ****   return FALSE;
 303:src/iface.c   **** }
 304:src/iface.c   **** 
 305:src/iface.c   **** //=============================================================================
 306:src/iface.c   **** //  Function        : keyPut
 307:src/iface.c   **** //  Description     :
 308:src/iface.c   **** //  Input           : aKey - if NULL, erase key
 309:src/iface.c   **** //  Return          :
 310:src/iface.c   **** //  Note            : N/A
 311:src/iface.c   **** //  Globals Changed : N/A
 312:src/iface.c   **** //=============================================================================
 313:src/iface.c   **** static BOOLEAN keyPut(BYTE *aKey, BYTE aType, BYTE aIdx)
 314:src/iface.c   **** {
 135              		.loc 1 314 0
 136              		.cfi_startproc
 137              		@ args = 0, pretend = 0, frame = 24
 138              		@ frame_needed = 0, uses_anonymous_args = 0
 139              	.LVL13:
 140 0000 70B5     		push	{r4, r5, r6, lr}
ARM GAS  C:\Users\AHMED~1.ELE\AppData\Local\Temp\ccqMlapz.s 			page 9


 141              		.cfi_def_cfa_offset 16
 142              		.cfi_offset 4, -16
 143              		.cfi_offset 5, -12
 144              		.cfi_offset 6, -8
 145              		.cfi_offset 14, -4
 146 0002 0546     		mov	r5, r0
 147 0004 86B0     		sub	sp, sp, #24
 148              		.cfi_def_cfa_offset 40
 149              		.loc 1 314 0
 150 0006 0C46     		mov	r4, r1
 151 0008 1646     		mov	r6, r2
 315:src/iface.c   ****   S3KEY sKey;
 316:src/iface.c   **** 
 317:src/iface.c   ****   // format key
 318:src/iface.c   ****   memset(&sKey, 0x00, sizeof(S3KEY));
 152              		.loc 1 318 0
 153 000a 01A8     		add	r0, sp, #4
 154              	.LVL14:
 155 000c 0021     		movs	r1, #0
 156              	.LVL15:
 157 000e 1422     		movs	r2, #20
 158              	.LVL16:
 159 0010 FFF7FEFF 		bl	memset
 160              	.LVL17:
 319:src/iface.c   ****   if (aKey != NULL) { // not erase key
 161              		.loc 1 319 0
 162 0014 5DB1     		cbz	r5, .L16
 320:src/iface.c   ****     memcpy(sKey.abDKey, aKey, 16);
 163              		.loc 1 320 0
 164 0016 01A8     		add	r0, sp, #4
 165 0018 2946     		mov	r1, r5
 166 001a 1022     		movs	r2, #16
 167 001c FFF7FEFF 		bl	memcpy
 168              	.LVL18:
 321:src/iface.c   ****     sKey.bType = aType;
 322:src/iface.c   ****     sKey.bIdx = aIdx;
 323:src/iface.c   ****     sKey.bStatus |= S3KEY_INJECTED;
 169              		.loc 1 323 0
 170 0020 0123     		movs	r3, #1
 321:src/iface.c   ****     sKey.bType = aType;
 171              		.loc 1 321 0
 172 0022 8DF81440 		strb	r4, [sp, #20]
 322:src/iface.c   ****     sKey.bStatus |= S3KEY_INJECTED;
 173              		.loc 1 322 0
 174 0026 8DF81560 		strb	r6, [sp, #21]
 175              		.loc 1 323 0
 176 002a 8DF81730 		strb	r3, [sp, #23]
 177              	.L16:
 324:src/iface.c   ****   }
 325:src/iface.c   **** 
 326:src/iface.c   ****   // save key based on type
 327:src/iface.c   ****   switch (aType) {
 178              		.loc 1 327 0
 179 002e 54B1     		cbz	r4, .L18
 180 0030 012C     		cmp	r4, #1
 181 0032 16D1     		bne	.L28
 328:src/iface.c   ****     case MRMK:
ARM GAS  C:\Users\AHMED~1.ELE\AppData\Local\Temp\ccqMlapz.s 			page 10


 329:src/iface.c   ****       Des(KEK, sKey.abDKey, 16);
 330:src/iface.c   ****       //PDataPut(&gpsPD->sFS3PData.sMrmk, &sKey, sizeof(S3KEY));
 331:src/iface.c   ****       //PDataCrcUpdate(&gpsPD->bFStart, &gpsPD->wFCrc);
 332:src/iface.c   ****       memcpy(&gIfaceData->sFS3PData.sMrmk, &sKey, sizeof(S3KEY));
 333:src/iface.c   ****       UpdIfaceDat();
 334:src/iface.c   ****       return TRUE;
 335:src/iface.c   ****     case RMK:
 336:src/iface.c   ****       Des(KEK, sKey.abDKey, 16);
 182              		.loc 1 336 0
 183 0034 1148     		ldr	r0, .L29
 184 0036 01A9     		add	r1, sp, #4
 185 0038 1022     		movs	r2, #16
 186 003a FFF7FEFF 		bl	Des
 187              	.LVL19:
 337:src/iface.c   ****       //PDataPut(&gpsPD->sFS3PData.sRmk, &sKey, sizeof(S3KEY));
 338:src/iface.c   ****       //PDataCrcUpdate(&gpsPD->bFStart, &gpsPD->wFCrc);
 339:src/iface.c   ****       memcpy(&gIfaceData->sFS3PData.sRmk, &sKey, sizeof(S3KEY));
 188              		.loc 1 339 0
 189 003e 104B     		ldr	r3, .L29+4
 190 0040 1868     		ldr	r0, [r3]
 191 0042 1430     		adds	r0, r0, #20
 192 0044 06E0     		b	.L27
 193              	.L18:
 329:src/iface.c   ****       //PDataPut(&gpsPD->sFS3PData.sMrmk, &sKey, sizeof(S3KEY));
 194              		.loc 1 329 0
 195 0046 0D48     		ldr	r0, .L29
 196 0048 01A9     		add	r1, sp, #4
 197 004a 1022     		movs	r2, #16
 198 004c FFF7FEFF 		bl	Des
 199              	.LVL20:
 332:src/iface.c   ****       UpdIfaceDat();
 200              		.loc 1 332 0
 201 0050 0B4B     		ldr	r3, .L29+4
 202 0052 1868     		ldr	r0, [r3]
 203              	.L27:
 204              		.loc 1 339 0
 205 0054 01A9     		add	r1, sp, #4
 206 0056 1422     		movs	r2, #20
 207 0058 FFF7FEFF 		bl	memcpy
 208              	.LVL21:
 340:src/iface.c   ****       UpdIfaceDat();
 209              		.loc 1 340 0
 210 005c FFF7FEFF 		bl	UpdIfaceDat
 211              	.LVL22:
 212 0060 07E0     		b	.L26
 213              	.L28:
 341:src/iface.c   ****       return TRUE;
 342:src/iface.c   ****     default:
 343:src/iface.c   ****       break;
 344:src/iface.c   ****   }
 345:src/iface.c   **** 
 346:src/iface.c   ****   // save skey
 347:src/iface.c   ****   if (aType & SKEY_MASK) {
 214              		.loc 1 347 0
 215 0062 2306     		lsls	r3, r4, #24
 216 0064 07D5     		bpl	.L21
 348:src/iface.c   ****     memcpy(&gsSKey, &sKey, sizeof(S3KEY));
ARM GAS  C:\Users\AHMED~1.ELE\AppData\Local\Temp\ccqMlapz.s 			page 11


 217              		.loc 1 348 0
 218 0066 074D     		ldr	r5, .L29+8
 219              	.LVL23:
 220 0068 01AC     		add	r4, sp, #4
 221 006a 0FCC     		ldmia	r4!, {r0, r1, r2, r3}
 222 006c 0FC5     		stmia	r5!, {r0, r1, r2, r3}
 223 006e 2368     		ldr	r3, [r4]
 224 0070 2B60     		str	r3, [r5]
 225              	.L26:
 349:src/iface.c   ****     return TRUE;
 226              		.loc 1 349 0
 227 0072 0120     		movs	r0, #1
 228 0074 00E0     		b	.L20
 229              	.LVL24:
 230              	.L21:
 350:src/iface.c   ****   }
 351:src/iface.c   **** 
 352:src/iface.c   ****   return FALSE;
 231              		.loc 1 352 0
 232 0076 0020     		movs	r0, #0
 233              	.LVL25:
 234              	.L20:
 353:src/iface.c   **** }
 235              		.loc 1 353 0
 236 0078 06B0     		add	sp, sp, #24
 237              		.cfi_def_cfa_offset 16
 238              		@ sp needed
 239 007a 70BD     		pop	{r4, r5, r6, pc}
 240              	.L30:
 241              		.align	2
 242              	.L29:
 243 007c 0A000000 		.word	.LANCHOR0+10
 244 0080 00000000 		.word	.LANCHOR1
 245 0084 04000000 		.word	.LANCHOR1+4
 246              		.cfi_endproc
 247              	.LFE4:
 248              		.size	keyPut, .-keyPut
 249              		.section	.text.encrypt,"ax",%progbits
 250              		.align	1
 251              		.thumb
 252              		.thumb_func
 253              		.type	encrypt, %function
 254              	encrypt:
 255              	.LFB5:
 354:src/iface.c   **** 
 355:src/iface.c   **** //=============================================================================
 356:src/iface.c   **** //  Function        : encrypt
 357:src/iface.c   **** //  Description     :
 358:src/iface.c   **** //  Input           :
 359:src/iface.c   **** //  Return          :
 360:src/iface.c   **** //  Note            : N/A
 361:src/iface.c   **** //  Globals Changed : N/A
 362:src/iface.c   **** //=============================================================================
 363:src/iface.c   **** #define S3DES           (BYTE)0x01
 364:src/iface.c   **** #define S3DES2          (BYTE)0x02
 365:src/iface.c   **** #define S3TDES          (BYTE)0x03
 366:src/iface.c   **** #define S3TDES2         (BYTE)0x04
ARM GAS  C:\Users\AHMED~1.ELE\AppData\Local\Temp\ccqMlapz.s 			page 12


 367:src/iface.c   **** static BOOLEAN encrypt(BYTE aMode, BYTE aType, BYTE aIdx, BYTE *aInOut, WORD aLen)
 368:src/iface.c   **** {
 256              		.loc 1 368 0
 257              		.cfi_startproc
 258              		@ args = 4, pretend = 0, frame = 40
 259              		@ frame_needed = 0, uses_anonymous_args = 0
 260              	.LVL26:
 261 0000 2DE9F041 		push	{r4, r5, r6, r7, r8, lr}
 262              		.cfi_def_cfa_offset 24
 263              		.cfi_offset 4, -24
 264              		.cfi_offset 5, -20
 265              		.cfi_offset 6, -16
 266              		.cfi_offset 7, -12
 267              		.cfi_offset 8, -8
 268              		.cfi_offset 14, -4
 269 0004 8AB0     		sub	sp, sp, #40
 270              		.cfi_def_cfa_offset 64
 271              	.LVL27:
 272              		.loc 1 368 0
 273 0006 0746     		mov	r7, r0
 274 0008 9046     		mov	r8, r2
 275              	.LVL28:
 276 000a 1E46     		mov	r6, r3
 277 000c BDF84050 		ldrh	r5, [sp, #64]
 278              	.LBB9:
 279              	.LBB10:
 259:src/iface.c   ****     case MRMK:
 280              		.loc 1 259 0
 281 0010 0C46     		mov	r4, r1
 282 0012 11B1     		cbz	r1, .L33
 283 0014 0129     		cmp	r1, #1
 284 0016 20D0     		beq	.L34
 285 0018 2EE0     		b	.L32
 286              	.L33:
 262:src/iface.c   ****       if (!(sKey.bStatus & S3KEY_INJECTED)) { //initial master key
 287              		.loc 1 262 0
 288 001a 344A     		ldr	r2, .L65
 289              	.LVL29:
 290 001c 05AB     		add	r3, sp, #20
 291              	.LVL30:
 292 001e 1168     		ldr	r1, [r2]
 293              	.LVL31:
 294 0020 1846     		mov	r0, r3
 295              	.LVL32:
 296 0022 1422     		movs	r2, #20
 297 0024 FFF7FEFF 		bl	memcpy
 298              	.LVL33:
 263:src/iface.c   ****         memcpy(aKey, sKey.abDKey, 16);
 299              		.loc 1 263 0
 300 0028 9DF82720 		ldrb	r2, [sp, #39]	@ zero_extendqisi2
 301 002c D107     		lsls	r1, r2, #31
 262:src/iface.c   ****       if (!(sKey.bStatus & S3KEY_INJECTED)) { //initial master key
 302              		.loc 1 262 0
 303 002e 0346     		mov	r3, r0
 263:src/iface.c   ****         memcpy(aKey, sKey.abDKey, 16);
 304              		.loc 1 263 0
 305 0030 01D4     		bmi	.L35
ARM GAS  C:\Users\AHMED~1.ELE\AppData\Local\Temp\ccqMlapz.s 			page 13


 264:src/iface.c   ****         return TRUE;
 306              		.loc 1 264 0
 307 0032 01AC     		add	r4, sp, #4
 308              	.LVL34:
 309 0034 32E0     		b	.L63
 310              	.LVL35:
 311              	.L35:
 268:src/iface.c   ****           memcpy(aKey, sKey.abDKey, 16);
 312              		.loc 1 268 0
 313 0036 9DF82430 		ldrb	r3, [sp, #36]	@ zero_extendqisi2
 314 003a EBB9     		cbnz	r3, .L32
 315              	.L62:
 316 003c 9DF82530 		ldrb	r3, [sp, #37]	@ zero_extendqisi2
 317 0040 4345     		cmp	r3, r8
 318 0042 19D1     		bne	.L32
 269:src/iface.c   ****           Des2(KEK, aKey, 16);
 319              		.loc 1 269 0
 320 0044 01AC     		add	r4, sp, #4
 321              	.LVL36:
 322 0046 05AB     		add	r3, sp, #20
 323 0048 0FCB     		ldmia	r3, {r0, r1, r2, r3}
 324 004a 84E80F00 		stmia	r4, {r0, r1, r2, r3}
 270:src/iface.c   ****           return TRUE;
 325              		.loc 1 270 0
 326 004e 2848     		ldr	r0, .L65+4
 327 0050 2146     		mov	r1, r4
 328 0052 1022     		movs	r2, #16
 329 0054 FFF7FEFF 		bl	Des2
 330              	.LVL37:
 331 0058 23E0     		b	.L61
 332              	.LVL38:
 333              	.L34:
 277:src/iface.c   ****       if ((sKey.bStatus & S3KEY_INJECTED)
 334              		.loc 1 277 0
 335 005a 244B     		ldr	r3, .L65
 336              	.LVL39:
 337 005c 1422     		movs	r2, #20
 338              	.LVL40:
 339 005e 1968     		ldr	r1, [r3]
 340              	.LVL41:
 341 0060 05A8     		add	r0, sp, #20
 342              	.LVL42:
 343 0062 1431     		adds	r1, r1, #20
 344 0064 FFF7FEFF 		bl	memcpy
 345              	.LVL43:
 278:src/iface.c   ****           && (sKey.bType == aType)
 346              		.loc 1 278 0
 347 0068 9DF82730 		ldrb	r3, [sp, #39]	@ zero_extendqisi2
 348 006c DA07     		lsls	r2, r3, #31
 349 006e 03D5     		bpl	.L32
 279:src/iface.c   ****           && (sKey.bIdx == aIdx)) {
 350              		.loc 1 279 0
 351 0070 9DF82430 		ldrb	r3, [sp, #36]	@ zero_extendqisi2
 352 0074 012B     		cmp	r3, #1
 353 0076 E1D0     		beq	.L62
 354              	.L32:
 291:src/iface.c   ****     if (gsSKey.bStatus & S3KEY_INJECTED) {
ARM GAS  C:\Users\AHMED~1.ELE\AppData\Local\Temp\ccqMlapz.s 			page 14


 355              		.loc 1 291 0
 356 0078 2306     		lsls	r3, r4, #24
 357 007a 32D5     		bpl	.L50
 292:src/iface.c   ****       if ((aType == ANY_SKEY) // any skey
 358              		.loc 1 292 0
 359 007c 1B4B     		ldr	r3, .L65
 360 007e D87D     		ldrb	r0, [r3, #23]	@ zero_extendqisi2
 361 0080 10F00100 		ands	r0, r0, #1
 362 0084 2ED0     		beq	.L41
 293:src/iface.c   ****           || (gsSKey.bType < aType) // lower level key
 363              		.loc 1 293 0
 364 0086 FF2C     		cmp	r4, #255
 365 0088 06D0     		beq	.L40
 294:src/iface.c   ****           || ((gsSKey.bType == aType) && (gsSKey.bIdx == aIdx))) { // same level key and same idx
 366              		.loc 1 294 0
 367 008a 1A7D     		ldrb	r2, [r3, #20]	@ zero_extendqisi2
 368 008c A242     		cmp	r2, r4
 369 008e 03D3     		bcc	.L40
 295:src/iface.c   ****         memcpy(aKey, gsSKey.abDKey, 16);
 370              		.loc 1 295 0
 371 0090 27D1     		bne	.L50
 372 0092 5B7D     		ldrb	r3, [r3, #21]	@ zero_extendqisi2
 373 0094 4345     		cmp	r3, r8
 374 0096 24D1     		bne	.L50
 375              	.L40:
 296:src/iface.c   ****         return TRUE;
 376              		.loc 1 296 0
 377 0098 01AC     		add	r4, sp, #4
 378              	.LVL44:
 379 009a 164B     		ldr	r3, .L65+8
 380              	.L63:
 381 009c 0FCB     		ldmia	r3, {r0, r1, r2, r3}
 382 009e 84E80F00 		stmia	r4, {r0, r1, r2, r3}
 383              	.L61:
 384              	.LBE10:
 385              	.LBE9:
 369:src/iface.c   ****   BYTE abKey[16];
 370:src/iface.c   **** 
 371:src/iface.c   ****   if (keyGet(abKey, aType, aIdx) == FALSE) {
 372:src/iface.c   ****     return FALSE;
 373:src/iface.c   ****   }
 374:src/iface.c   **** 
 375:src/iface.c   ****   switch (aMode) {
 386              		.loc 1 375 0
 387 00a2 781E     		subs	r0, r7, #1
 388 00a4 0328     		cmp	r0, #3
 389 00a6 1CD8     		bhi	.L50
 390 00a8 DFE800F0 		tbb	[pc, r0]
 391              	.L43:
 392 00ac 02       		.byte	(.L42-.L43)/2
 393 00ad 08       		.byte	(.L44-.L43)/2
 394 00ae 0E       		.byte	(.L45-.L43)/2
 395 00af 14       		.byte	(.L46-.L43)/2
 396              		.p2align 1
 397              	.L42:
 376:src/iface.c   ****     case S3DES:
 377:src/iface.c   ****       Des(abKey, aInOut, aLen);
ARM GAS  C:\Users\AHMED~1.ELE\AppData\Local\Temp\ccqMlapz.s 			page 15


 398              		.loc 1 377 0
 399 00b0 01A8     		add	r0, sp, #4
 400 00b2 3146     		mov	r1, r6
 401 00b4 2A46     		mov	r2, r5
 402 00b6 FFF7FEFF 		bl	Des
 403              	.LVL45:
 404 00ba 10E0     		b	.L64
 405              	.L44:
 378:src/iface.c   ****       break;
 379:src/iface.c   ****     case S3DES2:
 380:src/iface.c   ****       Des2(abKey, aInOut, aLen);
 406              		.loc 1 380 0
 407 00bc 01A8     		add	r0, sp, #4
 408 00be 3146     		mov	r1, r6
 409 00c0 2A46     		mov	r2, r5
 410 00c2 FFF7FEFF 		bl	Des2
 411              	.LVL46:
 412 00c6 0AE0     		b	.L64
 413              	.L45:
 381:src/iface.c   ****       break;
 382:src/iface.c   ****     case S3TDES:
 383:src/iface.c   ****       TDes(abKey, aInOut, aLen);
 414              		.loc 1 383 0
 415 00c8 01A8     		add	r0, sp, #4
 416 00ca 3146     		mov	r1, r6
 417 00cc 2A46     		mov	r2, r5
 418 00ce FFF7FEFF 		bl	TDes
 419              	.LVL47:
 420 00d2 04E0     		b	.L64
 421              	.L46:
 384:src/iface.c   ****       break;
 385:src/iface.c   ****     case S3TDES2:
 386:src/iface.c   ****       TDes2(abKey, aInOut, aLen);
 422              		.loc 1 386 0
 423 00d4 01A8     		add	r0, sp, #4
 424 00d6 3146     		mov	r1, r6
 425 00d8 2A46     		mov	r2, r5
 426 00da FFF7FEFF 		bl	TDes2
 427              	.LVL48:
 428              	.L64:
 387:src/iface.c   ****       break;
 388:src/iface.c   ****     default:
 389:src/iface.c   ****       return FALSE;
 390:src/iface.c   ****   }
 391:src/iface.c   ****   return TRUE;
 429              		.loc 1 391 0
 430 00de 0120     		movs	r0, #1
 387:src/iface.c   ****       break;
 431              		.loc 1 387 0
 432 00e0 00E0     		b	.L41
 433              	.LVL49:
 434              	.L50:
 389:src/iface.c   ****   }
 435              		.loc 1 389 0
 436 00e2 0020     		movs	r0, #0
 437              	.L41:
 392:src/iface.c   **** }
ARM GAS  C:\Users\AHMED~1.ELE\AppData\Local\Temp\ccqMlapz.s 			page 16


 438              		.loc 1 392 0
 439 00e4 0AB0     		add	sp, sp, #40
 440              		.cfi_def_cfa_offset 24
 441              		@ sp needed
 442 00e6 BDE8F081 		pop	{r4, r5, r6, r7, r8, pc}
 443              	.LVL50:
 444              	.L66:
 445 00ea 00BF     		.align	2
 446              	.L65:
 447 00ec 00000000 		.word	.LANCHOR1
 448 00f0 0A000000 		.word	.LANCHOR0+10
 449 00f4 04000000 		.word	.LANCHOR1+4
 450              		.cfi_endproc
 451              	.LFE5:
 452              		.size	encrypt, .-encrypt
 453              		.section	.text.errRspData.isra.0,"ax",%progbits
 454              		.align	1
 455              		.thumb
 456              		.thumb_func
 457              		.type	errRspData.isra.0, %function
 458              	errRspData.isra.0:
 459              	.LFB26:
 228:src/iface.c   **** {
 460              		.loc 1 228 0
 461              		.cfi_startproc
 462              		@ args = 0, pretend = 0, frame = 0
 463              		@ frame_needed = 0, uses_anonymous_args = 0
 464              	.LVL51:
 465 0000 08B5     		push	{r3, lr}
 466              		.cfi_def_cfa_offset 8
 467              		.cfi_offset 3, -8
 468              		.cfi_offset 14, -4
 236:src/iface.c   **** 
 469              		.loc 1 236 0
 470 0002 4873     		strb	r0, [r1, #13]
 239:src/iface.c   ****   iLen += 2;
 471              		.loc 1 239 0
 472 0004 01F10B00 		add	r0, r1, #11
 473              	.LVL52:
 474 0008 0121     		movs	r1, #1
 475              	.LVL53:
 476 000a FFF7FEFF 		bl	WPut
 477              	.LVL54:
 242:src/iface.c   **** 
 478              		.loc 1 242 0
 479 000e 0320     		movs	r0, #3
 480 0010 08BD     		pop	{r3, pc}
 481              		.cfi_endproc
 482              	.LFE26:
 483              		.size	errRspData.isra.0, .-errRspData.isra.0
 484              		.section	.text.IfaceRx.part.8,"ax",%progbits
 485              		.align	1
 486              		.thumb
 487              		.thumb_func
 488              		.type	IfaceRx.part.8, %function
 489              	IfaceRx.part.8:
 490              	.LFB34:
ARM GAS  C:\Users\AHMED~1.ELE\AppData\Local\Temp\ccqMlapz.s 			page 17


 393:src/iface.c   **** 
 394:src/iface.c   **** //=============================================================================
 395:src/iface.c   **** //  Function        : reqCheck
 396:src/iface.c   **** //  Description     :
 397:src/iface.c   **** //  Input           :
 398:src/iface.c   **** //  Return          : 0 - request ok
 399:src/iface.c   **** //  Note            : N/A
 400:src/iface.c   **** //  Globals Changed : N/A
 401:src/iface.c   **** //=============================================================================
 402:src/iface.c   **** static int reqCheck(BYTE *aReq, WORD aLen)
 403:src/iface.c   **** {
 404:src/iface.c   ****   BYTE buf[16];
 405:src/iface.c   **** 
 406:src/iface.c   ****   // STX
 407:src/iface.c   ****   if (aReq[OSET_STX] != 0x02) {
 408:src/iface.c   ****     DbFErr("reqCheck(S3):StxErr\n");
 409:src/iface.c   ****     return IF_ERR_FMT;
 410:src/iface.c   ****   }
 411:src/iface.c   **** 
 412:src/iface.c   ****   // ETX
 413:src/iface.c   ****   if (aReq[aLen-1] != 0x03) {
 414:src/iface.c   ****     DbFErr("reqCheck(S3):EtxErr\n");
 415:src/iface.c   ****     return IF_ERR_FMT;
 416:src/iface.c   ****   }
 417:src/iface.c   **** 
 418:src/iface.c   ****   // check format id
 419:src/iface.c   ****   if (UGet(aReq+OSET_FMT_ID) != S3_FMT_ID) {
 420:src/iface.c   ****     DbFErr("reqCheck(S3):FmtIdErr\n");
 421:src/iface.c   ****     return IF_ERR_FMT;
 422:src/iface.c   ****   }
 423:src/iface.c   **** 
 424:src/iface.c   ****   // len check
 425:src/iface.c   ****   if (WGet(aReq+OSET_DATA_LEN)+MIN_MSG_LEN != aLen) {
 426:src/iface.c   ****     DbFErr("reqCheck(S3):LErr(%d,%d)\n", WGet(aReq+OSET_DATA_LEN)+MIN_MSG_LEN, aLen);
 427:src/iface.c   ****     return IF_ERR_FMT;
 428:src/iface.c   ****   }
 429:src/iface.c   **** 
 430:src/iface.c   ****   // check seq number
 431:src/iface.c   ****   if (WGet(aReq+OSET_SEQ_NUM) == 0) {
 432:src/iface.c   ****     if ((aReq[OSET_INS] & S3INS_CLASS_MASK) != S3INS_CLASS_GENERAL) {
 433:src/iface.c   ****       DbFErr("reqCheck(S3):SeqErr\n");
 434:src/iface.c   ****       return IF_ERR_SEQ;
 435:src/iface.c   ****     }
 436:src/iface.c   ****   }
 437:src/iface.c   ****   else {
 438:src/iface.c   ****     if (WGet(aReq+OSET_SEQ_NUM) < gwSeqNum) {
 439:src/iface.c   ****       DbFErr("reqCheck(S3):SeqErr\n");
 440:src/iface.c   ****       return IF_ERR_SEQ;
 441:src/iface.c   ****     }
 442:src/iface.c   ****   }
 443:src/iface.c   **** 
 444:src/iface.c   ****   // check ins
 445:src/iface.c   ****   switch (aReq[OSET_INS] & S3INS_CLASS_MASK) {
 446:src/iface.c   ****     case S3INS_CLASS_GENERAL:
 447:src/iface.c   ****       break;
 448:src/iface.c   ****     case S3INS_CLASS_SETUP:
 449:src/iface.c   ****       if ((gbMode & S3MODE_SETUP_ALLOW) == 0) {
ARM GAS  C:\Users\AHMED~1.ELE\AppData\Local\Temp\ccqMlapz.s 			page 18


 450:src/iface.c   ****         DbFErr("reqCheck(S3):InsErr\n");
 451:src/iface.c   ****         return IF_ERR_INS;
 452:src/iface.c   ****       }
 453:src/iface.c   ****       break;
 454:src/iface.c   ****     case S3INS_CLASS_TRANS:
 455:src/iface.c   ****       if ((gbMode & S3MODE_TRANS_ALLOW) == 0) {
 456:src/iface.c   ****         DbFErr("reqCheck(S3):InsErr\n");
 457:src/iface.c   ****         return IF_ERR_INS;
 458:src/iface.c   ****       }
 459:src/iface.c   ****       break;
 460:src/iface.c   ****     default:
 461:src/iface.c   ****       DbFErr("reqCheck(S3):InsErr\n");
 462:src/iface.c   ****       return IF_ERR_INS;
 463:src/iface.c   ****   }
 464:src/iface.c   **** 
 465:src/iface.c   ****   // CRC or MAC
 466:src/iface.c   ****   if ( (WGet(aReq+aLen-5) == 0) // use CRC
 467:src/iface.c   ****   && (((aReq[OSET_INS] & S3INS_CLASS_MASK) == S3INS_CLASS_GENERAL)) // !NormalMode or general cmd
 468:src/iface.c   ****   && (WGet(aReq+aLen-3) == Crc16(aReq+1, aLen-6, 0)) ) { // crc ok
 469:src/iface.c   ****       DbStep("reqCheck(S3): CRC OK\n");
 470:src/iface.c   ****   }
 471:src/iface.c   ****   else { // check MAC
 472:src/iface.c   ****     //MAC = TDEA(SKey, Seq(2) | Ins(1) | DataFmt(1) | DataLen(2) | Crc(2))
 473:src/iface.c   ****     memcpy(buf, aReq+OSET_SEQ_NUM, 6);
 474:src/iface.c   ****     WPut(buf+6, Crc16(aReq+1, aLen-6, 0));
 475:src/iface.c   ****     if ((encrypt(S3TDES, ANY_SKEY, 0x00, buf, 8) == FALSE)
 476:src/iface.c   ****     || (memcmp(buf, aReq+aLen-5, 4) != 0)) {
 477:src/iface.c   ****       DbFErr("reqCheck(S3):CrcErr\n");
 478:src/iface.c   ****       return IF_ERR_CRC;
 479:src/iface.c   ****     }
 480:src/iface.c   ****     DbStep("reqCheck(S3): MAC OK\n");
 481:src/iface.c   ****   }
 482:src/iface.c   **** 
 483:src/iface.c   ****   // decrypt input data
 484:src/iface.c   ****   if (WGet(aReq+OSET_DATA_LEN) > 0) {
 485:src/iface.c   ****     switch (aReq[OSET_DATA_FMT] & 0x0F) {
 486:src/iface.c   ****       case S3DFMT_PLAIN:
 487:src/iface.c   ****         break;
 488:src/iface.c   ****       case S3DFMT_ECB_DES:
 489:src/iface.c   ****         if (((WGet(aReq+OSET_DATA_LEN)%8) != 0)
 490:src/iface.c   ****             || (encrypt(S3DES2, ANY_SKEY, 0x00, aReq+OSET_REQ_DATA, WGet(aReq+OSET_DATA_LEN)) == FA
 491:src/iface.c   ****           DbFErr("reqCheck(S3):KeyErr\n");
 492:src/iface.c   ****           return IF_ERR_KEY;
 493:src/iface.c   ****         }
 494:src/iface.c   ****         break;
 495:src/iface.c   ****       case S3DFMT_ECB_TDES:
 496:src/iface.c   ****         if (((WGet(aReq+OSET_DATA_LEN)%8) != 0)
 497:src/iface.c   ****             || (encrypt(S3TDES2, ANY_SKEY, 0x00, aReq+OSET_REQ_DATA, WGet(aReq+OSET_DATA_LEN)) == F
 498:src/iface.c   ****           DbFErr("reqCheck(S3):KeyErr\n");
 499:src/iface.c   ****           return IF_ERR_KEY;
 500:src/iface.c   ****         }
 501:src/iface.c   ****         break;
 502:src/iface.c   ****       default:
 503:src/iface.c   ****         DbFErr("reqCheck(S3):KeyErr\n");
 504:src/iface.c   ****         return IF_ERR_KEY;
 505:src/iface.c   ****     }
 506:src/iface.c   ****   }
ARM GAS  C:\Users\AHMED~1.ELE\AppData\Local\Temp\ccqMlapz.s 			page 19


 507:src/iface.c   **** 
 508:src/iface.c   ****   return IF_OK;
 509:src/iface.c   **** }
 510:src/iface.c   **** 
 511:src/iface.c   **** //=============================================================================
 512:src/iface.c   **** //  Function        : rspEchoData
 513:src/iface.c   **** //  Description     :
 514:src/iface.c   **** //  Input           :
 515:src/iface.c   **** //  Return          :
 516:src/iface.c   **** //  Note            : N/A
 517:src/iface.c   **** //  Globals Changed : N/A
 518:src/iface.c   **** //=============================================================================
 519:src/iface.c   **** static int rspEchoData(BYTE *aRspMsg, BYTE *aReqMsg, WORD aReqLen)
 520:src/iface.c   **** {
 521:src/iface.c   ****   int i, iLen;
 522:src/iface.c   ****   BYTE *pRCode;
 523:src/iface.c   **** 
 524:src/iface.c   ****   // output data: RCode(1) | Mode(1) | Echo back msg(x)
 525:src/iface.c   ****   iLen = 0;
 526:src/iface.c   ****   pRCode = aRspMsg + OSET_RSP_CODE;
 527:src/iface.c   ****   pRCode[iLen++] = S3RC_OK;
 528:src/iface.c   ****   pRCode[iLen++] = gbMode;
 529:src/iface.c   **** 
 530:src/iface.c   ****   // echo back message
 531:src/iface.c   ****   i = WGet(aReqMsg + OSET_DATA_LEN);
 532:src/iface.c   ****   if (i > 0) {
 533:src/iface.c   ****     memcpy(pRCode+iLen, aReqMsg+OSET_REQ_DATA, i);
 534:src/iface.c   ****   }
 535:src/iface.c   ****   iLen += i;
 536:src/iface.c   **** 
 537:src/iface.c   ****   // rsp data len
 538:src/iface.c   ****   WPut(&aRspMsg[OSET_DATA_LEN], iLen);
 539:src/iface.c   ****   iLen += 2;
 540:src/iface.c   **** 
 541:src/iface.c   ****   return iLen;
 542:src/iface.c   **** }
 543:src/iface.c   **** 
 544:src/iface.c   **** //=============================================================================
 545:src/iface.c   **** //  Function        : rspInitModeData
 546:src/iface.c   **** //  Description     :
 547:src/iface.c   **** //  Input           :
 548:src/iface.c   **** //  Return          :
 549:src/iface.c   **** //  Note            : N/A
 550:src/iface.c   **** //  Globals Changed : N/A
 551:src/iface.c   **** //=============================================================================
 552:src/iface.c   **** static int rspInitModeData(BYTE *aRspMsg, BYTE *aReqMsg, WORD aReqLen)
 553:src/iface.c   **** {
 554:src/iface.c   ****   int iLen;
 555:src/iface.c   ****   BYTE *pRCode;
 556:src/iface.c   **** 
 557:src/iface.c   ****   // action
 558:src/iface.c   ****   gbMode = 0x00;
 559:src/iface.c   ****   keyPut(NULL, ANY_SKEY, 0x00);
 560:src/iface.c   **** 
 561:src/iface.c   ****   // output data: RCode(1)
 562:src/iface.c   ****   iLen = 0;
 563:src/iface.c   ****   pRCode = aRspMsg + OSET_RSP_CODE;
ARM GAS  C:\Users\AHMED~1.ELE\AppData\Local\Temp\ccqMlapz.s 			page 20


 564:src/iface.c   ****   pRCode[iLen++] = S3RC_OK;
 565:src/iface.c   **** 
 566:src/iface.c   ****   // rsp data len
 567:src/iface.c   ****   WPut(&aRspMsg[OSET_DATA_LEN], iLen);
 568:src/iface.c   ****   iLen += 2;
 569:src/iface.c   **** 
 570:src/iface.c   ****   return iLen;
 571:src/iface.c   **** }
 572:src/iface.c   **** 
 573:src/iface.c   **** //=============================================================================
 574:src/iface.c   **** //  Function        : rspInitAuthData
 575:src/iface.c   **** //  Description     :
 576:src/iface.c   **** //  Input           :
 577:src/iface.c   **** //  Return          :
 578:src/iface.c   **** //  Note            : N/A
 579:src/iface.c   **** //  Globals Changed : N/A
 580:src/iface.c   **** //=============================================================================
 581:src/iface.c   **** static int rspInitAuthData(BYTE *aRspMsg, BYTE *aReqMsg, WORD aReqLen)
 582:src/iface.c   **** {
 583:src/iface.c   ****   int i, iLen;
 584:src/iface.c   ****   BYTE *pRCode, bKType, bKIdx, *pTRand, abRRand[8], buf[16];
 585:src/iface.c   **** 
 586:src/iface.c   ****   // input: KeyType(1) | KeyIdx(1) | TRand(8)
 587:src/iface.c   ****   i = WGet(aReqMsg + OSET_DATA_LEN);
 588:src/iface.c   ****   if (i < 10) {
 589:src/iface.c   ****     return errRspData(S3RC_ERR_DATA, aRspMsg, aReqMsg, aReqLen);
 590:src/iface.c   ****   }
 591:src/iface.c   ****   bKType = aReqMsg[OSET_REQ_DATA];
 592:src/iface.c   ****   bKIdx = aReqMsg[OSET_REQ_DATA+1];
 593:src/iface.c   ****   pTRand = aReqMsg + OSET_REQ_DATA + 2;
 594:src/iface.c   **** 
 595:src/iface.c   ****   // generate SKey = TDEA(MRMK/RMK, RRand[5-8] | TRand[1-4] | RRand[1-4] | TRand[5-8])
 596:src/iface.c   ****   Random(abRRand, 8);
 597:src/iface.c   ****   memcpy(buf, abRRand+4, 4);
 598:src/iface.c   ****   memcpy(buf+4, pTRand, 4);
 599:src/iface.c   ****   memcpy(buf+8, abRRand, 4);
 600:src/iface.c   ****   memcpy(buf+12, pTRand+4, 4);
 601:src/iface.c   ****   if ((encrypt(S3TDES, bKType, bKIdx, buf, 16) == FALSE)
 602:src/iface.c   ****       || (keyPut(buf, bKType|SKEY_MASK, bKIdx) == FALSE)) {
 603:src/iface.c   ****     return errRspData(S3RC_ERR_KEY, aRspMsg, aReqMsg, aReqLen);
 604:src/iface.c   ****   }
 605:src/iface.c   **** 
 606:src/iface.c   ****   // EncRand = TDEA(SKey, TRand[1-8] | RRand[1-8])
 607:src/iface.c   ****   memcpy(buf, pTRand, 8);
 608:src/iface.c   ****   memcpy(buf+8, abRRand, 8);
 609:src/iface.c   ****   if (encrypt(S3TDES, bKType|SKEY_MASK, bKIdx, buf, 16) == FALSE) {
 610:src/iface.c   ****     return errRspData(S3RC_ERR_KEY, aRspMsg, aReqMsg, aReqLen);
 611:src/iface.c   ****   }
 612:src/iface.c   **** 
 613:src/iface.c   ****   // action
 614:src/iface.c   ****   gbMode = 0x00; // reset mode
 615:src/iface.c   ****   memcpy(gabRRand, abRRand, 8); // save for mutu auth
 616:src/iface.c   ****   memcpy(gabTRand, pTRand, 8);  // save for mutu auth
 617:src/iface.c   **** 
 618:src/iface.c   ****   // output data: RCode(1) | KeyType(1) | KeyIdx(1) | RRand(8) | EncRand(16)
 619:src/iface.c   ****   iLen = 0;
 620:src/iface.c   ****   pRCode = aRspMsg + OSET_RSP_CODE;
ARM GAS  C:\Users\AHMED~1.ELE\AppData\Local\Temp\ccqMlapz.s 			page 21


 621:src/iface.c   ****   pRCode[iLen++] = S3RC_OK;
 622:src/iface.c   **** 
 623:src/iface.c   ****   pRCode[iLen++] = bKType;
 624:src/iface.c   ****   pRCode[iLen++] = bKIdx;
 625:src/iface.c   ****   memcpy(pRCode+iLen, abRRand, 8);
 626:src/iface.c   ****   iLen += 8;
 627:src/iface.c   ****   memcpy(pRCode+iLen, buf, 16);
 628:src/iface.c   ****   iLen += 16;
 629:src/iface.c   **** 
 630:src/iface.c   ****   // rsp data len
 631:src/iface.c   ****   WPut(&aRspMsg[OSET_DATA_LEN], iLen);
 632:src/iface.c   ****   iLen += 2;
 633:src/iface.c   **** 
 634:src/iface.c   ****   return iLen;
 635:src/iface.c   **** }
 636:src/iface.c   **** 
 637:src/iface.c   **** //=============================================================================
 638:src/iface.c   **** //  Function        : rspMutuAuthData
 639:src/iface.c   **** //  Description     :
 640:src/iface.c   **** //  Input           :
 641:src/iface.c   **** //  Return          :
 642:src/iface.c   **** //  Note            : N/A
 643:src/iface.c   **** //  Globals Changed : N/A
 644:src/iface.c   **** //=============================================================================
 645:src/iface.c   **** static int rspMutuAuthData(BYTE *aRspMsg, BYTE *aReqMsg, WORD aReqLen)
 646:src/iface.c   **** {
 647:src/iface.c   ****   int i, iLen;
 648:src/iface.c   ****   BYTE *pRCode, bKType, bKIdx, bMode, *pERand, buf[16];
 649:src/iface.c   **** 
 650:src/iface.c   ****   // input: KeyType(1) | KeyIdx(1) | EncRand(16) | Mode(1)
 651:src/iface.c   ****   i = WGet(aReqMsg + OSET_DATA_LEN);
 652:src/iface.c   ****   if (i < 19) {
 653:src/iface.c   ****     return errRspData(S3RC_ERR_DATA, aRspMsg, aReqMsg, aReqLen);
 654:src/iface.c   ****   }
 655:src/iface.c   ****   bKType = aReqMsg[OSET_REQ_DATA];
 656:src/iface.c   ****   bKIdx = aReqMsg[OSET_REQ_DATA+1];
 657:src/iface.c   ****   pERand = aReqMsg + OSET_REQ_DATA + 2;
 658:src/iface.c   ****   bMode = aReqMsg[OSET_REQ_DATA+18];
 659:src/iface.c   **** 
 660:src/iface.c   ****   // EncRand = TDEA(SKey, TRand[5-8], RRand[1-4], TRand[1-4], RRand[5-8])
 661:src/iface.c   ****   memcpy(buf, gabTRand+4, 4);
 662:src/iface.c   ****   memcpy(buf+4, gabRRand, 4);
 663:src/iface.c   ****   memcpy(buf+8, gabTRand, 4);
 664:src/iface.c   ****   memcpy(buf+12, gabRRand+4, 4);
 665:src/iface.c   ****   if (encrypt(S3TDES, bKType|SKEY_MASK, bKIdx, buf, 16) == FALSE) {
 666:src/iface.c   ****     return errRspData(S3RC_ERR_KEY, aRspMsg, aReqMsg, aReqLen);
 667:src/iface.c   ****   }
 668:src/iface.c   ****   if (memcmp(pERand, buf, 16) != 0) { //EncRand not match
 669:src/iface.c   ****     return errRspData(S3RC_ERR_KEY, aRspMsg, aReqMsg, aReqLen);
 670:src/iface.c   ****   }
 671:src/iface.c   **** 
 672:src/iface.c   ****   // action
 673:src/iface.c   ****   gbMode = bMode;
 674:src/iface.c   ****   gwSeqNum = 1;
 675:src/iface.c   ****   memset(gabTRand, 0x00, 8);
 676:src/iface.c   ****   memset(gabRRand, 0x00, 8);
 677:src/iface.c   **** 
ARM GAS  C:\Users\AHMED~1.ELE\AppData\Local\Temp\ccqMlapz.s 			page 22


 678:src/iface.c   ****   // output data: RCode(1)
 679:src/iface.c   ****   iLen = 0;
 680:src/iface.c   ****   pRCode = aRspMsg + OSET_RSP_CODE;
 681:src/iface.c   ****   pRCode[iLen++] = S3RC_OK;
 682:src/iface.c   **** 
 683:src/iface.c   ****   // rsp data len
 684:src/iface.c   ****   WPut(&aRspMsg[OSET_DATA_LEN], iLen);
 685:src/iface.c   ****   iLen += 2;
 686:src/iface.c   **** 
 687:src/iface.c   ****   return iLen;
 688:src/iface.c   **** }
 689:src/iface.c   **** 
 690:src/iface.c   **** //=============================================================================
 691:src/iface.c   **** //  Function        : rspGenKeyData
 692:src/iface.c   **** //  Description     :
 693:src/iface.c   **** //  Input           :
 694:src/iface.c   **** //  Return          :
 695:src/iface.c   **** //  Note            : N/A
 696:src/iface.c   **** //  Globals Changed : N/A
 697:src/iface.c   **** //=============================================================================
 698:src/iface.c   **** static int rspGenKeyData(BYTE *aRspMsg, BYTE *aReqMsg, WORD aReqLen)
 699:src/iface.c   **** {
 700:src/iface.c   ****   int i, iLen;
 701:src/iface.c   ****   BYTE *pRCode, bKType, bKIdx, *pEKey, *pKvc, buf[16], abKvc[8];
 702:src/iface.c   **** 
 703:src/iface.c   ****   // input: KeyType(1) | KeyIdx(1) | EncKey(16) | KVC(4)
 704:src/iface.c   ****   i = WGet(aReqMsg + OSET_DATA_LEN);
 705:src/iface.c   ****   if (i < 22) {
 706:src/iface.c   ****     return errRspData(S3RC_ERR_DATA, aRspMsg, aReqMsg, aReqLen);
 707:src/iface.c   ****   }
 708:src/iface.c   ****   bKType = aReqMsg[OSET_REQ_DATA];
 709:src/iface.c   ****   bKIdx = aReqMsg[OSET_REQ_DATA+1];
 710:src/iface.c   ****   pEKey = aReqMsg + OSET_REQ_DATA + 2;
 711:src/iface.c   ****   pKvc = aReqMsg + OSET_REQ_DATA + 18;
 712:src/iface.c   **** 
 713:src/iface.c   ****   // MRMK/RMK = TDEA2(SKey, EncKey)
 714:src/iface.c   ****   memcpy(buf, pEKey, 16);
 715:src/iface.c   ****   if (encrypt(S3TDES2, bKType|SKEY_MASK, bKIdx, buf, 16) == FALSE) {
 716:src/iface.c   ****     return errRspData(S3RC_ERR_KEY, aRspMsg, aReqMsg, aReqLen);
 717:src/iface.c   ****   }
 718:src/iface.c   **** 
 719:src/iface.c   ****   // KVC check
 720:src/iface.c   ****   memset(abKvc, 0x00, 8);
 721:src/iface.c   ****   TDes(buf, abKvc, 8);
 722:src/iface.c   ****   if (memcmp(pKvc, abKvc, 4) != 0) { // KVC not match
 723:src/iface.c   ****     return errRspData(S3RC_ERR_KVC, aRspMsg, aReqMsg, aReqLen);
 724:src/iface.c   ****   }
 725:src/iface.c   **** 
 726:src/iface.c   ****   // action
 727:src/iface.c   ****   keyPut(buf, bKType, bKIdx);
 728:src/iface.c   **** 
 729:src/iface.c   ****   // output data: RCode(1)
 730:src/iface.c   ****   iLen = 0;
 731:src/iface.c   ****   pRCode = aRspMsg + OSET_RSP_CODE;
 732:src/iface.c   ****   pRCode[iLen++] = S3RC_OK;
 733:src/iface.c   **** 
 734:src/iface.c   ****   // rsp data len
ARM GAS  C:\Users\AHMED~1.ELE\AppData\Local\Temp\ccqMlapz.s 			page 23


 735:src/iface.c   ****   WPut(&aRspMsg[OSET_DATA_LEN], iLen);
 736:src/iface.c   ****   iLen += 2;
 737:src/iface.c   **** 
 738:src/iface.c   ****   return iLen;
 739:src/iface.c   **** }
 740:src/iface.c   **** 
 741:src/iface.c   **** //=============================================================================
 742:src/iface.c   **** //  Function        : setFullEmvData
 743:src/iface.c   **** //  Description     :
 744:src/iface.c   **** //  Input           :
 745:src/iface.c   **** //  Return          :
 746:src/iface.c   **** //  Note            : N/A
 747:src/iface.c   **** //  Globals Changed : N/A
 748:src/iface.c   **** //=============================================================================
 749:src/iface.c   **** static int setFullEmvData(BYTE aRCode, DWORD aEId, BYTE *aRspMsg, sIO_t *asOut)
 750:src/iface.c   **** {
 751:src/iface.c   ****   int iLen;
 752:src/iface.c   ****   BYTE *pRCode;
 753:src/iface.c   **** 
 754:src/iface.c   ****   //=> output init
 755:src/iface.c   ****   // output data: RCode(1) | EId(4) | Len(2) | Data(x)
 756:src/iface.c   ****   //DbOut("RC[%02X] EId[%02X] Len(%d)\n", aRCode, aEId, asOut->wLen);
 757:src/iface.c   **** 
 758:src/iface.c   ****   iLen = 0;
 759:src/iface.c   ****   pRCode = aRspMsg+OSET_RSP_CODE;
 760:src/iface.c   ****   pRCode[iLen++] = aRCode;
 761:src/iface.c   ****   UPut(pRCode+iLen, aEId);
 762:src/iface.c   ****   iLen += 4;
 763:src/iface.c   ****   WPut(pRCode+iLen, asOut->wLen);
 764:src/iface.c   ****   iLen += 2;
 765:src/iface.c   ****   memcpy(pRCode+iLen, asOut->bMsg, asOut->wLen);
 766:src/iface.c   ****   iLen += asOut->wLen;
 767:src/iface.c   **** 
 768:src/iface.c   ****   // rsp data len
 769:src/iface.c   ****   WPut(aRspMsg+OSET_DATA_LEN, iLen);
 770:src/iface.c   ****   iLen += 2;
 771:src/iface.c   ****   return iLen;
 772:src/iface.c   **** }
 773:src/iface.c   **** //*****************************************************************************
 774:src/iface.c   **** //  Function        : packFullEmvData
 775:src/iface.c   **** //  Description     : Pack response
 776:src/iface.c   **** //  Input           : N/A
 777:src/iface.c   **** //  Return          : N/A
 778:src/iface.c   **** //  Note            : N/A
 779:src/iface.c   **** //  Globals Changed : N/A
 780:src/iface.c   **** //*****************************************************************************
 781:src/iface.c   **** void packFullEmvData(sIO_t *asOut)
 782:src/iface.c   **** {
 783:src/iface.c   ****   const WORD *pw;
 784:src/iface.c   ****   BYTE *pb, ab_tmp[32], ab_totresp[64], *pb_tmp;
 785:src/iface.c   ****   WORD w_rspcode, w_tmp;
 786:src/iface.c   **** 
 787:src/iface.c   ****   asOut->wLen = 0;
 788:src/iface.c   ****   if (gGDS->s_ecr_data.b_cmd >= MAX_ECREDC_CMD)
 789:src/iface.c   ****     return;
 790:src/iface.c   **** 
 791:src/iface.c   ****   w_rspcode = 'L'*256+'C';
ARM GAS  C:\Users\AHMED~1.ELE\AppData\Local\Temp\ccqMlapz.s 			page 24


 792:src/iface.c   ****   if (INPUT.b_entry_mode == ICC)
 793:src/iface.c   ****     memcpy(asOut->bMsg, gGDS->s_EMVOut.bMsg, 2);
 794:src/iface.c   ****   else if (INPUT.b_entry_mode == CONTACTLESS)
 795:src/iface.c   ****     memcpy(asOut->bMsg, gGDS->s_CTLOut.pbMsg, 2);
 796:src/iface.c   ****   else
 797:src/iface.c   ****     memcpy(asOut->bMsg, "\x00\x01", 2);           // default signature for swipe/manual
 798:src/iface.c   ****   asOut->wLen = 2;
 799:src/iface.c   ****   
 800:src/iface.c   ****   if (RSP_DATA.b_response == TRANS_ACP)
 801:src/iface.c   ****     asOut->bMsg[1] |= ACT_APPROVED;
 802:src/iface.c   ****   pb = asOut->bMsg + 2;
 803:src/iface.c   ****   pw = KItfRespTbl[gGDS->s_ecr_data.b_cmd];
 804:src/iface.c   ****   while (*pw != 0x00) {
 805:src/iface.c   ****     switch (*pw) {
 806:src/iface.c   ****       case ITFTAG_PAN:
 807:src/iface.c   ****         split(ab_tmp, INPUT.sb_pan, 10);
 808:src/iface.c   ****         w_tmp = fndb(&ab_tmp[1], 'F', 19);
 809:src/iface.c   ****         w_tmp = (w_tmp/2) + (w_tmp%2);
 810:src/iface.c   ****         pb += TlvPack(*pw, w_tmp, INPUT.sb_pan, pb);
 811:src/iface.c   ****         break;
 812:src/iface.c   ****       case ITFTAG_TXNAMT:
 813:src/iface.c   ****         DDWORD2bcd(ab_tmp, INPUT.dd_amount);
 814:src/iface.c   ****         pb += TlvPack(*pw, 6, &ab_tmp[4], pb);
 815:src/iface.c   ****         break;
 816:src/iface.c   ****       case ITFTAG_TRACE:
 817:src/iface.c   ****         pb += TlvPack(*pw, 3, INPUT.sb_trace_no, pb);
 818:src/iface.c   ****         break;
 819:src/iface.c   ****       case ITFTAG_TXNTIME:
 820:src/iface.c   ****         pb += TlvPack(*pw, 3, &RSP_DATA.s_dtg.b_hour, pb);
 821:src/iface.c   ****         break;
 822:src/iface.c   ****       case ITFTAG_TXNDATE:
 823:src/iface.c   ****         pb += TlvPack(*pw, 2, &RSP_DATA.s_dtg.b_month, pb);
 824:src/iface.c   ****         break;
 825:src/iface.c   ****       case ITFTAG_EXPDATE:
 826:src/iface.c   ****         pb += TlvPack(*pw, 2, INPUT.sb_exp_date, pb);
 827:src/iface.c   ****         break;
 828:src/iface.c   ****       case ITFTAG_RRN:
 829:src/iface.c   ****         pb += TlvPack(*pw, 12, RSP_DATA.sb_rrn, pb);
 830:src/iface.c   ****         break;
 831:src/iface.c   ****       case ITFTAG_AUTH_RESP:
 832:src/iface.c   ****         pb += TlvPack(*pw, 6, RSP_DATA.sb_auth_code, pb);
 833:src/iface.c   ****         break;
 834:src/iface.c   ****       case ITFTAG_RESP_CODE:
 835:src/iface.c   ****         if ((RSP_DATA.w_rspcode == 'A'*256+'P') || (RSP_DATA.w_rspcode == 'T'*256+'A') || (RSP_DATA
 836:src/iface.c   ****           w_rspcode = '0'*256+'0';
 837:src/iface.c   ****         else
 838:src/iface.c   ****           w_rspcode = RSP_DATA.w_rspcode;
 839:src/iface.c   ****         ab_tmp[0] = (BYTE)((w_rspcode>>8)&0xFF);
 840:src/iface.c   ****         ab_tmp[1] = (BYTE)(w_rspcode&0xFF);
 841:src/iface.c   ****         pb += TlvPack(*pw, 2, ab_tmp, pb);
 842:src/iface.c   ****         break;
 843:src/iface.c   ****       case ITFTAG_TERMID :
 844:src/iface.c   ****         pb += TlvPack(*pw, 8, STIS_ACQ_TBL(0).sb_term_id, pb);
 845:src/iface.c   ****         break;
 846:src/iface.c   ****       case ITFTAG_MERCHID:
 847:src/iface.c   ****         pb += TlvPack(*pw, 15, STIS_ACQ_TBL(0).sb_acceptor_id, pb);
 848:src/iface.c   ****         break;
ARM GAS  C:\Users\AHMED~1.ELE\AppData\Local\Temp\ccqMlapz.s 			page 25


 849:src/iface.c   ****       case ITFTAG_CARDHOLDERNAME :
 850:src/iface.c   ****         pb += TlvPack(*pw, 26, INPUT.sb_holder_name, pb);
 851:src/iface.c   ****         break;
 852:src/iface.c   ****       case ITFTAG_ADDAMT :
 853:src/iface.c   ****         DDWORD2bcd(ab_tmp, INPUT.dd_tip);
 854:src/iface.c   ****         pb += TlvPack(*pw, 6, &ab_tmp[4], pb);
 855:src/iface.c   ****         break;
 856:src/iface.c   ****       case ITFTAG_BATCHNO:
 857:src/iface.c   ****         pb += TlvPack(*pw, 3, STIS_ACQ_TBL(0).sb_curr_batch_no, pb);
 858:src/iface.c   ****         break;
 859:src/iface.c   ****       case ITFTAG_ECRREF:
 860:src/iface.c   ****         pb += TlvPack(*pw, 16, INPUT.sb_ecr_ref, pb);
 861:src/iface.c   ****         break;
 862:src/iface.c   ****       case ITFTAG_HOSTNAME:
 863:src/iface.c   ****         pb += TlvPack(*pw, 10, STIS_ACQ_TBL(0).sb_name, pb);
 864:src/iface.c   ****         break;
 865:src/iface.c   ****       case ITFTAG_HOSTTOT:
 866:src/iface.c   ****         pb_tmp = ab_totresp;
 867:src/iface.c   ****         DDWORD2bcd(ab_tmp, gTermTotal.s_sale_tot.w_count);
 868:src/iface.c   ****         memcpy(pb_tmp, &ab_tmp[8], 2);
 869:src/iface.c   ****         pb_tmp += 2;
 870:src/iface.c   ****         DDWORD2bcd(ab_tmp, gTermTotal.s_sale_tot.dd_amount);
 871:src/iface.c   ****         memcpy(pb_tmp, &ab_tmp[4], 6);
 872:src/iface.c   ****         pb_tmp += 6;
 873:src/iface.c   ****         DDWORD2bcd(ab_tmp, gTermTotal.s_refund_tot.w_count);
 874:src/iface.c   ****         memcpy(pb_tmp, &ab_tmp[8], 2);
 875:src/iface.c   ****         pb_tmp += 2;
 876:src/iface.c   ****         DDWORD2bcd(ab_tmp, gTermTotal.s_refund_tot.dd_amount);
 877:src/iface.c   ****         memcpy(pb_tmp, &ab_tmp[4], 6);
 878:src/iface.c   ****         pb_tmp += 6;
 879:src/iface.c   ****         pb += TlvPack(*pw, 16, ab_totresp, pb);
 880:src/iface.c   ****         break;
 881:src/iface.c   ****       case ITFTAG_ENTRYMODE:
 882:src/iface.c   ****         switch (INPUT.b_entry_mode) {
 883:src/iface.c   ****           case MANUAL:
 884:src/iface.c   ****           case MANUAL_4DBC:
 885:src/iface.c   ****             ab_tmp[0] = 0x01;
 886:src/iface.c   ****             break;
 887:src/iface.c   ****           case SWIPE:
 888:src/iface.c   ****           case SWIPE_4DBC:
 889:src/iface.c   ****           case FALLBACK_4DBC:
 890:src/iface.c   ****           case FALLBACK:
 891:src/iface.c   ****             ab_tmp[0] = 0x02;
 892:src/iface.c   ****             break;
 893:src/iface.c   ****           default :
 894:src/iface.c   ****             ab_tmp[0] = 0x05;
 895:src/iface.c   ****             break;
 896:src/iface.c   ****         }
 897:src/iface.c   ****         pb += TlvPack(*pw, 1, ab_tmp, pb);
 898:src/iface.c   ****         break;
 899:src/iface.c   ****       case ITFTAG_TXNTYPE:
 900:src/iface.c   ****         pb += TlvPack(*pw, 1, &gGDS->s_ecr_data.b_cmd, pb);
 901:src/iface.c   ****         break;
 902:src/iface.c   ****       case ITFTAG_AID:
 903:src/iface.c   ****         pb += TlvPack(*pw, INPUT.s_icc_data.b_aid_len, INPUT.s_icc_data.sb_aid, pb);
 904:src/iface.c   ****         break;
 905:src/iface.c   ****     }
ARM GAS  C:\Users\AHMED~1.ELE\AppData\Local\Temp\ccqMlapz.s 			page 26


 906:src/iface.c   ****     pw++;
 907:src/iface.c   ****   }
 908:src/iface.c   ****   asOut->wLen = (DWORD)pb - (DWORD)asOut->bMsg;
 909:src/iface.c   **** }
 910:src/iface.c   **** //*****************************************************************************
 911:src/iface.c   **** //  Function        : ItfVoid
 912:src/iface.c   **** //  Description     : Process Void request from ECR.
 913:src/iface.c   **** //  Input           : N/A
 914:src/iface.c   **** //  Return          : N/A
 915:src/iface.c   **** //  Note            : N/A
 916:src/iface.c   **** //  Globals Changed : N/A
 917:src/iface.c   **** //*****************************************************************************
 918:src/iface.c   **** DWORD ItfVoid(void)
 919:src/iface.c   **** {
 920:src/iface.c   ****   VoidTrans(-1);
 921:src/iface.c   ****   return TXN_OK;
 922:src/iface.c   **** }
 923:src/iface.c   **** //*****************************************************************************
 924:src/iface.c   **** //  Function        : ItfHostTot
 925:src/iface.c   **** //  Description     : Process Host Total request from ECR.
 926:src/iface.c   **** //  Input           : N/A
 927:src/iface.c   **** //  Return          : N/A
 928:src/iface.c   **** //  Note            : N/A
 929:src/iface.c   **** //  Globals Changed : N/A
 930:src/iface.c   **** //*****************************************************************************
 931:src/iface.c   **** DWORD ItfHostTot(void)
 932:src/iface.c   **** {
 933:src/iface.c   ****   CalTotals(FALSE);
 934:src/iface.c   ****   memcpy(&gTermTotal, &TERM_TOT, sizeof(struct TOTAL_STRUCT));
 935:src/iface.c   ****   return TXN_OK;
 936:src/iface.c   **** }
 937:src/iface.c   **** //*****************************************************************************
 938:src/iface.c   **** //  Function        : ItfSettle
 939:src/iface.c   **** //  Description     : Process Settlement request from ECR.
 940:src/iface.c   **** //  Input           : N/A
 941:src/iface.c   **** //  Return          : N/A
 942:src/iface.c   **** //  Note            : N/A
 943:src/iface.c   **** //  Globals Changed : N/A
 944:src/iface.c   **** //*****************************************************************************
 945:src/iface.c   **** DWORD ItfSettle(void)
 946:src/iface.c   **** {
 947:src/iface.c   ****   CalTotals(FALSE);
 948:src/iface.c   ****   memcpy(&gTermTotal, &TERM_TOT, sizeof(struct TOTAL_STRUCT));    // backup total in batch
 949:src/iface.c   ****   RSP_DATA.w_rspcode = 'D'*256 + 'E';
 950:src/iface.c   ****   INPUT.w_host_idx = 0;
 951:src/iface.c   ****   if (SettleTrans() == TRUE)
 952:src/iface.c   ****     return TXN_OK;
 953:src/iface.c   ****   return TXN_ERR;
 954:src/iface.c   **** }
 955:src/iface.c   **** //=============================================================================
 956:src/iface.c   **** //  Function        : rspPackData
 957:src/iface.c   **** //  Description     : pack response data
 958:src/iface.c   **** //  Input           :
 959:src/iface.c   **** //  Return          : >=0 - total data len included len(2) and rsp code(1) field
 960:src/iface.c   **** //                    < 0 - error status
 961:src/iface.c   **** //  Note            : N/A
 962:src/iface.c   **** //  Globals Changed : N/A
ARM GAS  C:\Users\AHMED~1.ELE\AppData\Local\Temp\ccqMlapz.s 			page 27


 963:src/iface.c   **** //=============================================================================
 964:src/iface.c   **** static int rspPackData(BYTE *aRspMsg, BYTE *aReqMsg, WORD aReqLen)
 965:src/iface.c   **** {
 966:src/iface.c   ****   sIO_t sOut;
 967:src/iface.c   ****   int iLen;
 968:src/iface.c   ****   BYTE *pb, *pbTlv;
 969:src/iface.c   ****   DWORD ret=TXN_ERR;
 970:src/iface.c   **** 
 971:src/iface.c   ****   sOut.bMsg = gRspBuf;
 972:src/iface.c   ****   // instruction
 973:src/iface.c   ****   switch (aReqMsg[OSET_INS]) {
 974:src/iface.c   ****       // general ins
 975:src/iface.c   ****     case S3INS_ECHO:
 976:src/iface.c   ****       iLen = rspEchoData(aRspMsg, aReqMsg, aReqLen);
 977:src/iface.c   ****       break;
 978:src/iface.c   ****     case S3INS_INIT_MODE:
 979:src/iface.c   ****       iLen = rspInitModeData(aRspMsg, aReqMsg, aReqLen);
 980:src/iface.c   ****       break;
 981:src/iface.c   ****     case S3INS_INIT_AUTH:
 982:src/iface.c   ****       iLen = rspInitAuthData(aRspMsg, aReqMsg, aReqLen);
 983:src/iface.c   ****       break;
 984:src/iface.c   ****     case S3INS_MUTU_AUTH:
 985:src/iface.c   ****       iLen = rspMutuAuthData(aRspMsg, aReqMsg, aReqLen);
 986:src/iface.c   ****       break;
 987:src/iface.c   ****       // setup ins
 988:src/iface.c   ****     case S3INS_GEN_KEY:
 989:src/iface.c   ****       iLen = rspGenKeyData(aRspMsg, aReqMsg, aReqLen);
 990:src/iface.c   ****       break;
 991:src/iface.c   ****       // transaction ins
 992:src/iface.c   ****     case S3INS_TRANS:
 993:src/iface.c   ****     case S3INS_FULL_EMV:  
 994:src/iface.c   ****       ClearResponse();
 995:src/iface.c   ****       LongBeep();
 996:src/iface.c   ****       // convert to existing ECR interface
 997:src/iface.c   ****       gGDS->s_ecr_data.b_cla = ECR_CLA_EDC;
 998:src/iface.c   ****       memcpy(gGDS->s_ecr_data.sb_content, "\xDF\x04\x06", 3);             // ECR Amount
 999:src/iface.c   ****       memcpy(&gGDS->s_ecr_data.sb_content[3], aReqMsg+OSET_REQ_DATA, 6);  // Copy from Request
1000:src/iface.c   ****       pbTlv = TlvSeek(aReqMsg+OSET_REQ_DATA+6, aReqLen-OSET_REQ_DATA-6, ITFTAG_TXNTYPE);
1001:src/iface.c   ****       if (pbTlv != NULL) {
1002:src/iface.c   ****         pb = TlvVPtr(pbTlv);
1003:src/iface.c   ****         gGDS->s_ecr_data.b_cmd = *pb;
1004:src/iface.c   ****       }
1005:src/iface.c   ****       else
1006:src/iface.c   ****         gGDS->s_ecr_data.b_cmd = ECR_EDC_SALE;
1007:src/iface.c   ****       gGDS->i_ecr_len = 11;
1008:src/iface.c   ****       memset(&gTermTotal, 0, sizeof(struct TOTAL_STRUCT));
1009:src/iface.c   ****       switch (gGDS->s_ecr_data.b_cmd) {
1010:src/iface.c   ****         case ECR_EDC_SALE:
1011:src/iface.c   ****           ret = WaitCardTrans(SALE_SWIPE);
1012:src/iface.c   ****           break;
1013:src/iface.c   ****         case ECR_EDC_OFFLSALE:
1014:src/iface.c   ****           ret = WaitCardTrans(SALE_OFFLINE);
1015:src/iface.c   ****           break;
1016:src/iface.c   ****         case ECR_EDC_REFUND:
1017:src/iface.c   ****           ret = WaitCardTrans(REFUND);
1018:src/iface.c   ****           break;
1019:src/iface.c   ****         case ECR_EDC_VOID:
ARM GAS  C:\Users\AHMED~1.ELE\AppData\Local\Temp\ccqMlapz.s 			page 28


1020:src/iface.c   ****           pbTlv = TlvSeek(aReqMsg+OSET_REQ_DATA+6, aReqLen-OSET_REQ_DATA-6, ITFTAG_TRACE);
1021:src/iface.c   ****           if (pbTlv != NULL)
1022:src/iface.c   ****             memcpy(INPUT.sb_roc_no, TlvVPtr(pbTlv), TlvLen(pbTlv));
1023:src/iface.c   ****           ret = ItfVoid();
1024:src/iface.c   ****           break;
1025:src/iface.c   ****         case ECR_EDC_HOSTTOTAL:
1026:src/iface.c   ****           ret = ItfHostTot();
1027:src/iface.c   ****           break;
1028:src/iface.c   ****         case ECR_EDC_AUTH:
1029:src/iface.c   ****           ret = WaitCardTrans(AUTH_SWIPE);
1030:src/iface.c   ****           break;
1031:src/iface.c   ****         case ECR_EDC_SETTLE:
1032:src/iface.c   ****           ret = ItfSettle();
1033:src/iface.c   ****           break;
1034:src/iface.c   ****       }
1035:src/iface.c   ****       if (ret != TXN_CANCEL) {
1036:src/iface.c   ****         packFullEmvData(&sOut);
1037:src/iface.c   ****         iLen = setFullEmvData(S3RC_OK, 0, aRspMsg, &sOut);
1038:src/iface.c   ****       }
1039:src/iface.c   ****       else
1040:src/iface.c   ****         iLen = errRspData(S3RC_CANCEL, aRspMsg, aReqMsg, aReqLen);
1041:src/iface.c   ****       gGDS->i_ecr_len = 0;
1042:src/iface.c   ****       ResetTerm();
1043:src/iface.c   ****       break;
1044:src/iface.c   ****     //// !2011-09--
1045:src/iface.c   ****     default: // unknown
1046:src/iface.c   ****       iLen = errRspData(S3RC_ERR_INS, aRspMsg, aReqMsg, aReqLen);
1047:src/iface.c   ****       break;
1048:src/iface.c   ****   }
1049:src/iface.c   **** 
1050:src/iface.c   ****   return iLen;
1051:src/iface.c   **** }
1052:src/iface.c   **** 
1053:src/iface.c   **** //=============================================================================
1054:src/iface.c   **** //  Function        : RspFmtPack
1055:src/iface.c   **** //  Description     : pack response format
1056:src/iface.c   **** //  Input           :
1057:src/iface.c   **** //  Return          : >= 0 - total rsp len
1058:src/iface.c   **** //                    <0   - error status
1059:src/iface.c   **** //  Note            : N/A
1060:src/iface.c   **** //  Globals Changed : N/A
1061:src/iface.c   **** //=============================================================================
1062:src/iface.c   **** static int rspPackFmt(BYTE *aRspMsg, BYTE *aReqMsg, WORD aReqLen)
1063:src/iface.c   **** {
1064:src/iface.c   ****   int i, iLen;
1065:src/iface.c   ****   BYTE buf[16];
1066:src/iface.c   **** 
1067:src/iface.c   ****   // stx
1068:src/iface.c   ****   iLen = 0;
1069:src/iface.c   ****   aRspMsg[iLen++] = 0x02;
1070:src/iface.c   **** 
1071:src/iface.c   ****   // format id
1072:src/iface.c   ****   UPut(aRspMsg+iLen, S3_FMT_ID);
1073:src/iface.c   ****   iLen += 4;
1074:src/iface.c   **** 
1075:src/iface.c   ****   // sender & receiver
1076:src/iface.c   ****   aRspMsg[iLen++] = aReqMsg[OSET_RX_ID];
ARM GAS  C:\Users\AHMED~1.ELE\AppData\Local\Temp\ccqMlapz.s 			page 29


1077:src/iface.c   ****   aRspMsg[iLen++] = aReqMsg[OSET_TX_ID];
1078:src/iface.c   **** 
1079:src/iface.c   ****   // seq num
1080:src/iface.c   ****   i = WGet(aReqMsg+OSET_SEQ_NUM);
1081:src/iface.c   ****   if (i == 0) {
1082:src/iface.c   ****     WPut(aRspMsg+iLen, gwSeqNum-1);
1083:src/iface.c   ****   }
1084:src/iface.c   ****   else if (i == 0xFFFF) {
1085:src/iface.c   ****     gbMode = 0x00;
1086:src/iface.c   ****     gwSeqNum = i;
1087:src/iface.c   ****     WPut(aRspMsg+iLen, i);
1088:src/iface.c   ****   }
1089:src/iface.c   ****   else {
1090:src/iface.c   ****     gwSeqNum = i + 1;
1091:src/iface.c   ****     WPut(aRspMsg+iLen, gwSeqNum-1);
1092:src/iface.c   ****   }
1093:src/iface.c   ****   iLen += 2;
1094:src/iface.c   **** 
1095:src/iface.c   ****   // ins
1096:src/iface.c   ****   aRspMsg[iLen++] = aReqMsg[OSET_INS];
1097:src/iface.c   **** 
1098:src/iface.c   ****   // data format
1099:src/iface.c   ****   aRspMsg[iLen++] = aReqMsg[OSET_DATA_FMT]>>4;
1100:src/iface.c   **** 
1101:src/iface.c   ****   // rsp data len(2) + rsp code(1) + rsp data(x)
1102:src/iface.c   ****   i = WGet(aRspMsg+OSET_DATA_LEN);
1103:src/iface.c   ****   if (i > 1) {
1104:src/iface.c   ****     switch (aRspMsg[OSET_DATA_FMT] & 0x0F) {
1105:src/iface.c   ****       case S3DFMT_PLAIN:
1106:src/iface.c   ****         break;
1107:src/iface.c   ****       case S3DFMT_ECB_DES:
1108:src/iface.c   ****         i = i - 1; // ignore rsp code
1109:src/iface.c   ****         memset(aRspMsg+OSET_RSP_DATA+i, 0x00, 8);
1110:src/iface.c   ****         i = ((i+7)/8)*8; // rsp data len
1111:src/iface.c   ****         if (encrypt(S3DES, ANY_SKEY, 0x00, aRspMsg+OSET_RSP_DATA, i) == FALSE) {
1112:src/iface.c   ****           errRspData(S3RC_ERR_KEY, aRspMsg, aReqMsg, aReqLen);
1113:src/iface.c   ****           i = 1;
1114:src/iface.c   ****           break;
1115:src/iface.c   ****         }
1116:src/iface.c   ****         i ++; // include rsp code
1117:src/iface.c   ****         WPut(aRspMsg+OSET_DATA_LEN, i);
1118:src/iface.c   ****         break;
1119:src/iface.c   ****       case S3DFMT_ECB_TDES:
1120:src/iface.c   ****         i = i - 1; // ignore rsp code
1121:src/iface.c   ****         memset(aRspMsg+OSET_RSP_DATA+i, 0x00, 8);
1122:src/iface.c   ****         i = ((i+7)/8)*8; // rsp data len
1123:src/iface.c   ****         if (encrypt(S3TDES, ANY_SKEY, 0x00, aRspMsg+OSET_RSP_DATA, i) == FALSE) {
1124:src/iface.c   ****           errRspData(S3RC_ERR_KEY, aRspMsg, aReqMsg, aReqLen);
1125:src/iface.c   ****           i = 1;
1126:src/iface.c   ****           break;
1127:src/iface.c   ****         }
1128:src/iface.c   ****         i ++; // include rsp code
1129:src/iface.c   ****         WPut(aRspMsg+OSET_DATA_LEN, i);
1130:src/iface.c   ****         break;
1131:src/iface.c   ****       default:
1132:src/iface.c   ****         errRspData(S3RC_ERR_KEY, aRspMsg, aReqMsg, aReqLen);
1133:src/iface.c   ****         i = 1;
ARM GAS  C:\Users\AHMED~1.ELE\AppData\Local\Temp\ccqMlapz.s 			page 30


1134:src/iface.c   ****         break;
1135:src/iface.c   ****     }
1136:src/iface.c   ****   }
1137:src/iface.c   ****   iLen += i + 2;
1138:src/iface.c   **** 
1139:src/iface.c   ****   // crc or mac
1140:src/iface.c   ****   UPut(aRspMsg+iLen ,Crc16(aRspMsg+1, iLen-1, 0)); // put crc
1141:src/iface.c   ****   //MAC = TDEA(SKey, Seq(2) | Ins(1) | DataFmt(1) | DataLen(2) | Crc(2))
1142:src/iface.c   ****   if (aRspMsg[OSET_INS] != S3INS_INIT_AUTH) { // use CRC if init auth
1143:src/iface.c   ****     memcpy(buf, aRspMsg+OSET_SEQ_NUM, 6);
1144:src/iface.c   ****     memcpy(buf+6, aRspMsg+iLen+2, 2);
1145:src/iface.c   ****     if (encrypt(S3TDES, ANY_SKEY, 0x00, buf, 8) == TRUE) { // MAC ok
1146:src/iface.c   ****       memcpy(aRspMsg+iLen, buf, 4);
1147:src/iface.c   ****     }
1148:src/iface.c   ****   }
1149:src/iface.c   ****   iLen += 4;
1150:src/iface.c   **** 
1151:src/iface.c   ****   // etx
1152:src/iface.c   ****   aRspMsg[iLen++] = 0x03;
1153:src/iface.c   ****   return iLen;
1154:src/iface.c   **** }
1155:src/iface.c   **** 
1156:src/iface.c   **** //=============================================================================
1157:src/iface.c   **** //  Function        : Spt3MsgHdr
1158:src/iface.c   **** //  Description     : Spectra message interface handler
1159:src/iface.c   **** //  Input           :
1160:src/iface.c   **** //  Return          : <0 error
1161:src/iface.c   **** //                    >0 response message len
1162:src/iface.c   **** //  Note            : N/A
1163:src/iface.c   **** //  Globals Changed : N/A
1164:src/iface.c   **** //=============================================================================
1165:src/iface.c   **** int Spt3MsgHdr(BYTE *aInOutMsg, WORD aInLen)
1166:src/iface.c   **** {
1167:src/iface.c   ****   int iRet;
1168:src/iface.c   ****   BYTE *pmReq;
1169:src/iface.c   **** 
1170:src/iface.c   ****   // init
1171:src/iface.c   ****   pmReq = gReqBuf;
1172:src/iface.c   ****   memcpy(pmReq, aInOutMsg, aInLen);
1173:src/iface.c   **** 
1174:src/iface.c   ****   // check input format
1175:src/iface.c   ****   iRet = reqCheck(pmReq, aInLen);
1176:src/iface.c   ****   if (iRet < 0) { // if error
1177:src/iface.c   ****     switch (iRet) {
1178:src/iface.c   ****       case IF_ERR_FMT: // format error -> return to try other interface
1179:src/iface.c   ****         return iRet;
1180:src/iface.c   ****       case IF_ERR_CRC:
1181:src/iface.c   ****         iRet = errRspData(S3RC_ERR_CSUM, aInOutMsg, pmReq, aInLen);
1182:src/iface.c   ****         break;
1183:src/iface.c   ****       case IF_ERR_SEQ:
1184:src/iface.c   ****         iRet = errRspData(S3RC_ERR_SEQ, aInOutMsg, pmReq, aInLen);
1185:src/iface.c   ****         break;
1186:src/iface.c   ****       case IF_ERR_INS:
1187:src/iface.c   ****         iRet = errRspData(S3RC_ERR_INS, aInOutMsg, pmReq, aInLen);
1188:src/iface.c   ****         break;
1189:src/iface.c   ****       case IF_ERR_KEY:
1190:src/iface.c   ****         iRet = errRspData(S3RC_ERR_KEY, aInOutMsg, pmReq, aInLen);
ARM GAS  C:\Users\AHMED~1.ELE\AppData\Local\Temp\ccqMlapz.s 			page 31


1191:src/iface.c   ****         break;
1192:src/iface.c   ****       default:
1193:src/iface.c   ****         iRet = errRspData(S3RC_ERR_FMT, aInOutMsg, pmReq, aInLen);
1194:src/iface.c   ****         break;
1195:src/iface.c   ****     }
1196:src/iface.c   ****     if (iRet < 0) {
1197:src/iface.c   ****       return iRet;
1198:src/iface.c   ****     }
1199:src/iface.c   ****     iRet = rspPackFmt(aInOutMsg, pmReq, aInLen);
1200:src/iface.c   ****     return iRet;
1201:src/iface.c   ****   }
1202:src/iface.c   **** 
1203:src/iface.c   ****   // response pack
1204:src/iface.c   ****   iRet = rspPackData(aInOutMsg, pmReq, aInLen);
1205:src/iface.c   ****   if (iRet < 0) {
1206:src/iface.c   ****     return iRet;
1207:src/iface.c   ****   }
1208:src/iface.c   ****   iRet = rspPackFmt(aInOutMsg, pmReq, aInLen);
1209:src/iface.c   ****   return iRet;
1210:src/iface.c   **** }
1211:src/iface.c   **** 
1212:src/iface.c   **** //=============================================================================
1213:src/iface.c   **** //  Function        : IfaceInit
1214:src/iface.c   **** //  Description     :
1215:src/iface.c   **** //  Input           :
1216:src/iface.c   **** //  Return          :
1217:src/iface.c   **** //  Note            : N/A
1218:src/iface.c   **** //  Globals Changed :
1219:src/iface.c   **** //  * PC1506 add force init input
1220:src/iface.c   **** //=============================================================================
1221:src/iface.c   **** BOOLEAN IfaceInit(BOOLEAN aForceInit)
1222:src/iface.c   **** {
1223:src/iface.c   ****   //return APM_IFACE_Open(aForceInit);
1224:src/iface.c   ****   return TRUE;
1225:src/iface.c   **** }
1226:src/iface.c   **** 
1227:src/iface.c   **** //=============================================================================
1228:src/iface.c   **** //  Function        : IfaceClose
1229:src/iface.c   **** //  Description     :
1230:src/iface.c   **** //  Input           :
1231:src/iface.c   **** //  Return          :
1232:src/iface.c   **** //  Note            : N/A
1233:src/iface.c   **** //  Globals Changed : N/A
1234:src/iface.c   **** //=============================================================================
1235:src/iface.c   **** BOOLEAN IfaceClose(void)
1236:src/iface.c   **** {
1237:src/iface.c   ****   //return APM_IFACE_Close();
1238:src/iface.c   ****   return TRUE;
1239:src/iface.c   **** }
1240:src/iface.c   **** 
1241:src/iface.c   **** /******************************************************************************
1242:src/iface.c   ****  *  Function        : debugAuxIface
1243:src/iface.c   ****  *  Description     : Debug Iface Tx/Rx to COM1.
1244:src/iface.c   ****  *  Input           : N/A
1245:src/iface.c   ****  *  Return          : N/A
1246:src/iface.c   ****  *  Note            : N/A
1247:src/iface.c   ****  *  Globals Changed : N/A
ARM GAS  C:\Users\AHMED~1.ELE\AppData\Local\Temp\ccqMlapz.s 			page 32


1248:src/iface.c   ****  ******************************************************************************
1249:src/iface.c   ****  */
1250:src/iface.c   **** void debugAuxIface(BYTE aIn, BYTE *pData, DWORD aLen)
1251:src/iface.c   **** {
1252:src/iface.c   ****   BYTE buf[20];
1253:src/iface.c   ****   BYTE *txbuf;
1254:src/iface.c   ****   DWORD free_run;
1255:src/iface.c   ****   
1256:src/iface.c   ****   txbuf = MallocMW(aLen*2+20);
1257:src/iface.c   ****   if (txbuf == NULL)
1258:src/iface.c   ****     return;
1259:src/iface.c   ****   
1260:src/iface.c   ****   set_pptr(txbuf, aLen*2+20);
1261:src/iface.c   ****   memset(buf, 0, sizeof(buf));
1262:src/iface.c   ****   if (aIn)
1263:src/iface.c   ****     sprintf(buf, "Iface-In (%d):", aLen);
1264:src/iface.c   ****   else
1265:src/iface.c   ****     sprintf(buf, "Iface-Out(%d):", aLen);
1266:src/iface.c   ****   pack_mem(buf, strlen(buf));
1267:src/iface.c   ****   split_data(pData, aLen);
1268:src/iface.c   ****   pack_mem("\r\n", 2);
1269:src/iface.c   **** 
1270:src/iface.c   ****   if (!AuxOpen()) {
1271:src/iface.c   ****     DispLineMW("AuxOpen Err!", MW_LINE5, MW_CENTER|MW_CLRDISP|MW_BIGFONT);
1272:src/iface.c   ****     APM_WaitKey(9000, 0);
1273:src/iface.c   ****     return;
1274:src/iface.c   ****   }
1275:src/iface.c   **** 
1276:src/iface.c   ****   free_run = FreeRunMW();
1277:src/iface.c   ****   while (FreeRunMW() < free_run + 200*2) {   // 2 sec timeout for send
1278:src/iface.c   ****     if (AuxTxRdy()) {
1279:src/iface.c   ****       AuxWrite(txbuf, get_distance());
1280:src/iface.c   ****       break;
1281:src/iface.c   ****     }
1282:src/iface.c   ****     SleepMW();
1283:src/iface.c   ****   }
1284:src/iface.c   ****   AuxClose();
1285:src/iface.c   ****   FreeMW(txbuf);
1286:src/iface.c   **** }
1287:src/iface.c   **** //=============================================================================
1288:src/iface.c   **** //  Function        : IfaceTx
1289:src/iface.c   **** //  Description     :
1290:src/iface.c   **** //  Input           :
1291:src/iface.c   **** //  Return          :
1292:src/iface.c   **** //  Note            : N/A
1293:src/iface.c   **** //  Globals Changed : N/A
1294:src/iface.c   **** //=============================================================================
1295:src/iface.c   **** int IfaceTx(BYTE *aData, WORD aLen)
1296:src/iface.c   **** {
1297:src/iface.c   ****   BYTE buf[MAX_IFACE_BUF];
1298:src/iface.c   ****   
1299:src/iface.c   ****   memcpy(buf, aData, aLen);
1300:src/iface.c   ****   //debugAuxIface(0, aData, aLen);
1301:src/iface.c   ****   return ECR_Send(buf, aLen);
1302:src/iface.c   **** }
1303:src/iface.c   **** 
1304:src/iface.c   **** //=============================================================================
ARM GAS  C:\Users\AHMED~1.ELE\AppData\Local\Temp\ccqMlapz.s 			page 33


1305:src/iface.c   **** //  Function        : IfaceRx
1306:src/iface.c   **** //  Description     :
1307:src/iface.c   **** //  Input           :
1308:src/iface.c   **** //  Return          :
1309:src/iface.c   **** //  Note            : N/A
1310:src/iface.c   **** //  Globals Changed : N/A
1311:src/iface.c   **** //=============================================================================
1312:src/iface.c   **** int IfaceRx(BYTE *aData, WORD aMaxLen)
 491              		.loc 1 1312 0
 492              		.cfi_startproc
 493              		@ args = 0, pretend = 0, frame = 1536
 494              		@ frame_needed = 0, uses_anonymous_args = 0
 495              	.LVL55:
 496 0000 30B5     		push	{r4, r5, lr}
 497              		.cfi_def_cfa_offset 12
 498              		.cfi_offset 4, -12
 499              		.cfi_offset 5, -8
 500              		.cfi_offset 14, -4
1313:src/iface.c   **** {
1314:src/iface.c   ****   BYTE buf[MAX_IFACE_BUF];
1315:src/iface.c   ****   int ret;
1316:src/iface.c   ****   
1317:src/iface.c   ****   if (!ECR_RxRdy())
1318:src/iface.c   ****     return 0;
1319:src/iface.c   ****     
1320:src/iface.c   ****   ret = ECR_Rcvd(buf, aMaxLen);
 501              		.loc 1 1320 0
 502 0002 0022     		movs	r2, #0
1312:src/iface.c   **** {
 503              		.loc 1 1312 0
 504 0004 ADF20C6D 		subw	sp, sp, #1548
 505              		.cfi_def_cfa_offset 1560
1312:src/iface.c   **** {
 506              		.loc 1 1312 0
 507 0008 0B46     		mov	r3, r1
 508              		.loc 1 1320 0
 509 000a 0092     		str	r2, [sp]
1312:src/iface.c   **** {
 510              		.loc 1 1312 0
 511 000c 0546     		mov	r5, r0
 512              		.loc 1 1320 0
 513 000e 0321     		movs	r1, #3
 514              	.LVL56:
 515 0010 7D20     		movs	r0, #125
 516              	.LVL57:
 517 0012 02AA     		add	r2, sp, #8
 518 0014 FFF7FEFF 		bl	lib_app_call
 519              	.LVL58:
1321:src/iface.c   ****   if (ret > 0) {
 520              		.loc 1 1321 0
 521 0018 041E     		subs	r4, r0, #0
 522 001a 04DD     		ble	.L69
1322:src/iface.c   ****     memcpy(aData, buf, ret);
 523              		.loc 1 1322 0
 524 001c 2846     		mov	r0, r5
 525              	.LVL59:
 526 001e 02A9     		add	r1, sp, #8
ARM GAS  C:\Users\AHMED~1.ELE\AppData\Local\Temp\ccqMlapz.s 			page 34


 527 0020 2246     		mov	r2, r4
 528 0022 FFF7FEFF 		bl	memcpy
 529              	.LVL60:
 530              	.L69:
1323:src/iface.c   ****     //debugAuxIface(1, aData, ret);
1324:src/iface.c   ****   }
1325:src/iface.c   ****   return ret;
1326:src/iface.c   **** }
 531              		.loc 1 1326 0
 532 0026 2046     		mov	r0, r4
 533 0028 0DF20C6D 		addw	sp, sp, #1548
 534              		.cfi_def_cfa_offset 12
 535              		@ sp needed
 536 002c 30BD     		pop	{r4, r5, pc}
 537              		.cfi_endproc
 538              	.LFE34:
 539              		.size	IfaceRx.part.8, .-IfaceRx.part.8
 540              		.section	.text.rspPackFmt.isra.6.constprop.9,"ax",%progbits
 541              		.align	1
 542              		.thumb
 543              		.thumb_func
 544              		.type	rspPackFmt.isra.6.constprop.9, %function
 545              	rspPackFmt.isra.6.constprop.9:
 546              	.LFB42:
1062:src/iface.c   **** {
 547              		.loc 1 1062 0
 548              		.cfi_startproc
 549              		@ args = 0, pretend = 0, frame = 16
 550              		@ frame_needed = 0, uses_anonymous_args = 0
 551              	.LVL61:
 552 0000 2DE9F043 		push	{r4, r5, r6, r7, r8, r9, lr}
 553              		.cfi_def_cfa_offset 28
 554              		.cfi_offset 4, -28
 555              		.cfi_offset 5, -24
 556              		.cfi_offset 6, -20
 557              		.cfi_offset 7, -16
 558              		.cfi_offset 8, -12
 559              		.cfi_offset 9, -8
 560              		.cfi_offset 14, -4
1069:src/iface.c   **** 
 561              		.loc 1 1069 0
 562 0004 0223     		movs	r3, #2
 563 0006 0746     		mov	r7, r0
1076:src/iface.c   ****   aRspMsg[iLen++] = aReqMsg[OSET_TX_ID];
 564              		.loc 1 1076 0
 565 0008 504C     		ldr	r4, .L91
1062:src/iface.c   **** {
 566              		.loc 1 1062 0
 567 000a 0546     		mov	r5, r0
1069:src/iface.c   **** 
 568              		.loc 1 1069 0
 569 000c 07F8013B 		strb	r3, [r7], #1
1072:src/iface.c   ****   iLen += 4;
 570              		.loc 1 1072 0
 571 0010 0121     		movs	r1, #1
1062:src/iface.c   **** {
 572              		.loc 1 1062 0
ARM GAS  C:\Users\AHMED~1.ELE\AppData\Local\Temp\ccqMlapz.s 			page 35


 573 0012 87B0     		sub	sp, sp, #28
 574              		.cfi_def_cfa_offset 56
1072:src/iface.c   ****   iLen += 4;
 575              		.loc 1 1072 0
 576 0014 3846     		mov	r0, r7
 577              	.LVL62:
 578 0016 FFF7FEFF 		bl	UPut
 579              	.LVL63:
1076:src/iface.c   ****   aRspMsg[iLen++] = aReqMsg[OSET_TX_ID];
 580              		.loc 1 1076 0
 581 001a A37F     		ldrb	r3, [r4, #30]	@ zero_extendqisi2
1080:src/iface.c   ****   if (i == 0) {
 582              		.loc 1 1080 0
 583 001c 04F11F00 		add	r0, r4, #31
1076:src/iface.c   ****   aRspMsg[iLen++] = aReqMsg[OSET_TX_ID];
 584              		.loc 1 1076 0
 585 0020 6B71     		strb	r3, [r5, #5]
 586              	.LVL64:
1077:src/iface.c   **** 
 587              		.loc 1 1077 0
 588 0022 637F     		ldrb	r3, [r4, #29]	@ zero_extendqisi2
 589 0024 05F10708 		add	r8, r5, #7
 590 0028 AB71     		strb	r3, [r5, #6]
1080:src/iface.c   ****   if (i == 0) {
 591              		.loc 1 1080 0
 592 002a FFF7FEFF 		bl	WGet
 593              	.LVL65:
1081:src/iface.c   ****     WPut(aRspMsg+iLen, gwSeqNum-1);
 594              		.loc 1 1081 0
 595 002e 0146     		mov	r1, r0
 596 0030 28B9     		cbnz	r0, .L71
1082:src/iface.c   ****   }
 597              		.loc 1 1082 0
 598 0032 B4F81816 		ldrh	r1, [r4, #1560]
 599 0036 4046     		mov	r0, r8
 600              	.LVL66:
 601 0038 0139     		subs	r1, r1, #1
 602 003a 89B2     		uxth	r1, r1
 603 003c 0DE0     		b	.L87
 604              	.LVL67:
 605              	.L71:
1084:src/iface.c   ****     gbMode = 0x00;
 606              		.loc 1 1084 0
 607 003e 4FF6FF73 		movw	r3, #65535
 608 0042 9842     		cmp	r0, r3
1090:src/iface.c   ****     WPut(aRspMsg+iLen, gwSeqNum-1);
 609              		.loc 1 1090 0
 610 0044 12BF     		itee	ne
 611 0046 431C     		addne	r3, r0, #1
1085:src/iface.c   ****     gwSeqNum = i;
 612              		.loc 1 1085 0
 613 0048 0023     		moveq	r3, #0
1086:src/iface.c   ****     WPut(aRspMsg+iLen, i);
 614              		.loc 1 1086 0
 615 004a A4F81806 		strheq	r0, [r4, #1560]	@ movhi
1091:src/iface.c   ****   }
 616              		.loc 1 1091 0
ARM GAS  C:\Users\AHMED~1.ELE\AppData\Local\Temp\ccqMlapz.s 			page 36


 617 004e 4046     		mov	r0, r8
 618              	.LVL68:
1085:src/iface.c   ****     gwSeqNum = i;
 619              		.loc 1 1085 0
 620 0050 0CBF     		ite	eq
 621 0052 84F81A36 		strbeq	r3, [r4, #1562]
1090:src/iface.c   ****     WPut(aRspMsg+iLen, gwSeqNum-1);
 622              		.loc 1 1090 0
 623 0056 A4F81836 		strhne	r3, [r4, #1560]	@ movhi
 624              	.LVL69:
 625              	.L87:
1091:src/iface.c   ****   }
 626              		.loc 1 1091 0
 627 005a FFF7FEFF 		bl	WPut
 628              	.LVL70:
1096:src/iface.c   **** 
 629              		.loc 1 1096 0
 630 005e 94F82130 		ldrb	r3, [r4, #33]	@ zero_extendqisi2
1102:src/iface.c   ****   if (i > 1) {
 631              		.loc 1 1102 0
 632 0062 05F10B09 		add	r9, r5, #11
1096:src/iface.c   **** 
 633              		.loc 1 1096 0
 634 0066 6B72     		strb	r3, [r5, #9]
 635              	.LVL71:
1099:src/iface.c   **** 
 636              		.loc 1 1099 0
 637 0068 94F82230 		ldrb	r3, [r4, #34]	@ zero_extendqisi2
1102:src/iface.c   ****   if (i > 1) {
 638              		.loc 1 1102 0
 639 006c 4846     		mov	r0, r9
1099:src/iface.c   **** 
 640              		.loc 1 1099 0
 641 006e 1B09     		lsrs	r3, r3, #4
 642 0070 AB72     		strb	r3, [r5, #10]
1102:src/iface.c   ****   if (i > 1) {
 643              		.loc 1 1102 0
 644 0072 FFF7FEFF 		bl	WGet
 645              	.LVL72:
1103:src/iface.c   ****     switch (aRspMsg[OSET_DATA_FMT] & 0x0F) {
 646              		.loc 1 1103 0
 647 0076 0128     		cmp	r0, #1
1102:src/iface.c   ****   if (i > 1) {
 648              		.loc 1 1102 0
 649 0078 0446     		mov	r4, r0
 650              	.LVL73:
1103:src/iface.c   ****     switch (aRspMsg[OSET_DATA_FMT] & 0x0F) {
 651              		.loc 1 1103 0
 652 007a 32DD     		ble	.L74
1104:src/iface.c   ****       case S3DFMT_PLAIN:
 653              		.loc 1 1104 0
 654 007c AE7A     		ldrb	r6, [r5, #10]	@ zero_extendqisi2
 655 007e 06F00F06 		and	r6, r6, #15
 656 0082 012E     		cmp	r6, #1
 657 0084 0FD0     		beq	.L76
 658 0086 2CD3     		bcc	.L74
 659 0088 022E     		cmp	r6, #2
ARM GAS  C:\Users\AHMED~1.ELE\AppData\Local\Temp\ccqMlapz.s 			page 37


 660 008a 25D1     		bne	.L86
 661              	.LVL74:
1122:src/iface.c   ****         if (encrypt(S3TDES, ANY_SKEY, 0x00, aRspMsg+OSET_RSP_DATA, i) == FALSE) {
 662              		.loc 1 1122 0
 663 008c 0634     		adds	r4, r4, #6
1121:src/iface.c   ****         i = ((i+7)/8)*8; // rsp data len
 664              		.loc 1 1121 0
 665 008e 0D30     		adds	r0, r0, #13
 666              	.LVL75:
1122:src/iface.c   ****         if (encrypt(S3TDES, ANY_SKEY, 0x00, aRspMsg+OSET_RSP_DATA, i) == FALSE) {
 667              		.loc 1 1122 0
 668 0090 24F00704 		bic	r4, r4, #7
1121:src/iface.c   ****         i = ((i+7)/8)*8; // rsp data len
 669              		.loc 1 1121 0
 670 0094 2844     		add	r0, r0, r5
 671              	.LVL76:
 672 0096 0021     		movs	r1, #0
 673 0098 0822     		movs	r2, #8
 674 009a FFF7FEFF 		bl	memset
 675              	.LVL77:
1123:src/iface.c   ****           errRspData(S3RC_ERR_KEY, aRspMsg, aReqMsg, aReqLen);
 676              		.loc 1 1123 0
 677 009e A3B2     		uxth	r3, r4
 678 00a0 0320     		movs	r0, #3
 679 00a2 0093     		str	r3, [sp]
 680 00a4 0BE0     		b	.L90
 681              	.LVL78:
 682              	.L76:
1110:src/iface.c   ****         if (encrypt(S3DES, ANY_SKEY, 0x00, aRspMsg+OSET_RSP_DATA, i) == FALSE) {
 683              		.loc 1 1110 0
 684 00a6 0634     		adds	r4, r4, #6
1109:src/iface.c   ****         i = ((i+7)/8)*8; // rsp data len
 685              		.loc 1 1109 0
 686 00a8 0D30     		adds	r0, r0, #13
 687              	.LVL79:
1110:src/iface.c   ****         if (encrypt(S3DES, ANY_SKEY, 0x00, aRspMsg+OSET_RSP_DATA, i) == FALSE) {
 688              		.loc 1 1110 0
 689 00aa 24F00704 		bic	r4, r4, #7
 690              	.LVL80:
1109:src/iface.c   ****         i = ((i+7)/8)*8; // rsp data len
 691              		.loc 1 1109 0
 692 00ae 2844     		add	r0, r0, r5
 693              	.LVL81:
 694 00b0 0021     		movs	r1, #0
 695 00b2 0822     		movs	r2, #8
 696 00b4 FFF7FEFF 		bl	memset
 697              	.LVL82:
1111:src/iface.c   ****           errRspData(S3RC_ERR_KEY, aRspMsg, aReqMsg, aReqLen);
 698              		.loc 1 1111 0
 699 00b8 A3B2     		uxth	r3, r4
 700 00ba 3046     		mov	r0, r6
 701 00bc 0093     		str	r3, [sp]
 702              	.L90:
1123:src/iface.c   ****           errRspData(S3RC_ERR_KEY, aRspMsg, aReqMsg, aReqLen);
 703              		.loc 1 1123 0
 704 00be FF21     		movs	r1, #255
 705 00c0 0022     		movs	r2, #0
ARM GAS  C:\Users\AHMED~1.ELE\AppData\Local\Temp\ccqMlapz.s 			page 38


 706 00c2 05F10E03 		add	r3, r5, #14
 707 00c6 FFF7FEFF 		bl	encrypt
 708              	.LVL83:
 709 00ca 28B1     		cbz	r0, .L86
1128:src/iface.c   ****         WPut(aRspMsg+OSET_DATA_LEN, i);
 710              		.loc 1 1128 0
 711 00cc 0134     		adds	r4, r4, #1
 712              	.LVL84:
1129:src/iface.c   ****         break;
 713              		.loc 1 1129 0
 714 00ce 4846     		mov	r0, r9
 715 00d0 A1B2     		uxth	r1, r4
 716 00d2 FFF7FEFF 		bl	WPut
 717              	.LVL85:
 718 00d6 04E0     		b	.L74
 719              	.L86:
1132:src/iface.c   ****         i = 1;
 720              		.loc 1 1132 0
 721 00d8 8520     		movs	r0, #133
 722 00da 2946     		mov	r1, r5
 723 00dc FFF7FEFF 		bl	errRspData.isra.0
 724              	.LVL86:
1133:src/iface.c   ****         break;
 725              		.loc 1 1133 0
 726 00e0 0124     		movs	r4, #1
 727              	.LVL87:
 728              	.L74:
1140:src/iface.c   ****   //MAC = TDEA(SKey, Seq(2) | Ins(1) | DataFmt(1) | DataLen(2) | Crc(2))
 729              		.loc 1 1140 0
 730 00e2 04F10C01 		add	r1, r4, #12
 731 00e6 0022     		movs	r2, #0
 732 00e8 89B2     		uxth	r1, r1
 733 00ea 3846     		mov	r0, r7
 734 00ec FFF7FEFF 		bl	Crc16
 735              	.LVL88:
1137:src/iface.c   **** 
 736              		.loc 1 1137 0
 737 00f0 04F10D06 		add	r6, r4, #13
 738              	.LVL89:
1140:src/iface.c   ****   //MAC = TDEA(SKey, Seq(2) | Ins(1) | DataFmt(1) | DataLen(2) | Crc(2))
 739              		.loc 1 1140 0
 740 00f4 2E44     		add	r6, r6, r5
 741              	.LVL90:
 742 00f6 0146     		mov	r1, r0
 743 00f8 3046     		mov	r0, r6
 744 00fa FFF7FEFF 		bl	UPut
 745              	.LVL91:
1142:src/iface.c   ****     memcpy(buf, aRspMsg+OSET_SEQ_NUM, 6);
 746              		.loc 1 1142 0
 747 00fe 6B7A     		ldrb	r3, [r5, #9]	@ zero_extendqisi2
 748 0100 022B     		cmp	r3, #2
 749 0102 1BD0     		beq	.L81
1143:src/iface.c   ****     memcpy(buf+6, aRspMsg+iLen+2, 2);
 750              		.loc 1 1143 0
 751 0104 4146     		mov	r1, r8
 752 0106 0622     		movs	r2, #6
 753 0108 02A8     		add	r0, sp, #8
ARM GAS  C:\Users\AHMED~1.ELE\AppData\Local\Temp\ccqMlapz.s 			page 39


 754 010a FFF7FEFF 		bl	memcpy
 755              	.LVL92:
1144:src/iface.c   ****     if (encrypt(S3TDES, ANY_SKEY, 0x00, buf, 8) == TRUE) { // MAC ok
 756              		.loc 1 1144 0
 757 010e 04F10F01 		add	r1, r4, #15
 758 0112 2944     		add	r1, r1, r5
 759 0114 0222     		movs	r2, #2
 760 0116 0DF10E00 		add	r0, sp, #14
 761 011a FFF7FEFF 		bl	memcpy
 762              	.LVL93:
1145:src/iface.c   ****       memcpy(aRspMsg+iLen, buf, 4);
 763              		.loc 1 1145 0
 764 011e 0823     		movs	r3, #8
 765 0120 0320     		movs	r0, #3
 766 0122 0093     		str	r3, [sp]
 767 0124 FF21     		movs	r1, #255
 768 0126 0022     		movs	r2, #0
 769 0128 6B44     		add	r3, sp, r3
 770 012a FFF7FEFF 		bl	encrypt
 771              	.LVL94:
 772 012e 0128     		cmp	r0, #1
 773 0130 04D1     		bne	.L81
1146:src/iface.c   ****     }
 774              		.loc 1 1146 0
 775 0132 3046     		mov	r0, r6
 776 0134 02A9     		add	r1, sp, #8
 777 0136 0422     		movs	r2, #4
 778 0138 FFF7FEFF 		bl	memcpy
 779              	.LVL95:
 780              	.L81:
1152:src/iface.c   ****   return iLen;
 781              		.loc 1 1152 0
 782 013c 2544     		add	r5, r5, r4
 783              	.LVL96:
 784 013e 0323     		movs	r3, #3
1154:src/iface.c   **** 
 785              		.loc 1 1154 0
 786 0140 04F11200 		add	r0, r4, #18
 787              	.LVL97:
1152:src/iface.c   ****   return iLen;
 788              		.loc 1 1152 0
 789 0144 6B74     		strb	r3, [r5, #17]
1154:src/iface.c   **** 
 790              		.loc 1 1154 0
 791 0146 07B0     		add	sp, sp, #28
 792              		.cfi_def_cfa_offset 28
 793              		@ sp needed
 794 0148 BDE8F083 		pop	{r4, r5, r6, r7, r8, r9, pc}
 795              	.LVL98:
 796              	.L92:
 797              		.align	2
 798              	.L91:
 799 014c 00000000 		.word	.LANCHOR1
 800              		.cfi_endproc
 801              	.LFE42:
 802              		.size	rspPackFmt.isra.6.constprop.9, .-rspPackFmt.isra.6.constprop.9
 803              		.section	.text.IfaceInitData,"ax",%progbits
ARM GAS  C:\Users\AHMED~1.ELE\AppData\Local\Temp\ccqMlapz.s 			page 40


 804              		.align	1
 805              		.global	IfaceInitData
 806              		.thumb
 807              		.thumb_func
 808              		.type	IfaceInitData, %function
 809              	IfaceInitData:
 810              	.LFB0:
 162:src/iface.c   ****   BYTE filename[32];
 811              		.loc 1 162 0
 812              		.cfi_startproc
 813              		@ args = 0, pretend = 0, frame = 32
 814              		@ frame_needed = 0, uses_anonymous_args = 0
 815 0000 F0B5     		push	{r4, r5, r6, r7, lr}
 816              		.cfi_def_cfa_offset 20
 817              		.cfi_offset 4, -20
 818              		.cfi_offset 5, -16
 819              		.cfi_offset 6, -12
 820              		.cfi_offset 7, -8
 821              		.cfi_offset 14, -4
 167:src/iface.c   ****     gIfaceData = (struct IFACE_DATA*) MallocMW(sizeof(struct IFACE_DATA));
 822              		.loc 1 167 0
 823 0002 424C     		ldr	r4, .L113
 162:src/iface.c   ****   BYTE filename[32];
 824              		.loc 1 162 0
 825 0004 8BB0     		sub	sp, sp, #44
 826              		.cfi_def_cfa_offset 64
 167:src/iface.c   ****     gIfaceData = (struct IFACE_DATA*) MallocMW(sizeof(struct IFACE_DATA));
 827              		.loc 1 167 0
 828 0006 2368     		ldr	r3, [r4]
 829 0008 2646     		mov	r6, r4
 830 000a 43B9     		cbnz	r3, .L94
 168:src/iface.c   ****     if (gIfaceData == NULL) {
 831              		.loc 1 168 0
 832 000c 9220     		movs	r0, #146
 833 000e 2821     		movs	r1, #40
 834 0010 FFF7FEFF 		bl	sys_func1
 835              	.LVL99:
 836 0014 2060     		str	r0, [r4]
 169:src/iface.c   ****       MemFatalErr(gIfaceData);  // Check Memory
 837              		.loc 1 169 0
 838 0016 10B9     		cbnz	r0, .L94
 170:src/iface.c   ****       return;
 839              		.loc 1 170 0
 840 0018 FFF7FEFF 		bl	MemFatalErr
 841              	.LVL100:
 842 001c 73E0     		b	.L93
 843              	.L94:
 175:src/iface.c   ****   if (fd < 0) {
 844              		.loc 1 175 0
 845 001e 0024     		movs	r4, #0
 174:src/iface.c   ****   fd = fOpenMW(filename);
 846              		.loc 1 174 0
 847 0020 3B49     		ldr	r1, .L113+4
 848 0022 02A8     		add	r0, sp, #8
 849 0024 FFF7FEFF 		bl	strcpy
 850              	.LVL101:
 175:src/iface.c   ****   if (fd < 0) {
ARM GAS  C:\Users\AHMED~1.ELE\AppData\Local\Temp\ccqMlapz.s 			page 41


 851              		.loc 1 175 0
 852 0028 0094     		str	r4, [sp]
 853 002a 0F20     		movs	r0, #15
 854 002c 0D21     		movs	r1, #13
 855 002e 02AA     		add	r2, sp, #8
 856 0030 2346     		mov	r3, r4
 857 0032 FFF7FEFF 		bl	lib_app_call
 858              	.LVL102:
 176:src/iface.c   ****     fd = fCreateMW(filename, 0);
 859              		.loc 1 176 0
 860 0036 051E     		subs	r5, r0, #0
 861 0038 39DA     		bge	.L96
 177:src/iface.c   ****     memset(gIfaceData, 0, sizeof(struct IFACE_DATA));
 862              		.loc 1 177 0
 863 003a 2346     		mov	r3, r4
 864 003c 0B21     		movs	r1, #11
 865 003e 02AA     		add	r2, sp, #8
 866 0040 0094     		str	r4, [sp]
 867 0042 0F20     		movs	r0, #15
 868              	.LVL103:
 869 0044 FFF7FEFF 		bl	lib_app_call
 870              	.LVL104:
 178:src/iface.c   ****     len = fWriteMW(fd, gIfaceData, sizeof(struct IFACE_DATA));
 871              		.loc 1 178 0
 872 0048 2827     		movs	r7, #40
 873 004a 2146     		mov	r1, r4
 874 004c 3A46     		mov	r2, r7
 177:src/iface.c   ****     memset(gIfaceData, 0, sizeof(struct IFACE_DATA));
 875              		.loc 1 177 0
 876 004e 0546     		mov	r5, r0
 877              	.LVL105:
 178:src/iface.c   ****     len = fWriteMW(fd, gIfaceData, sizeof(struct IFACE_DATA));
 878              		.loc 1 178 0
 879 0050 3068     		ldr	r0, [r6]
 880              	.LVL106:
 881 0052 FFF7FEFF 		bl	memset
 882              	.LVL107:
 179:src/iface.c   ****     if (len != sizeof(struct IFACE_DATA)) {
 883              		.loc 1 179 0
 884 0056 0097     		str	r7, [sp]
 885 0058 0F20     		movs	r0, #15
 886 005a 1221     		movs	r1, #18
 887 005c 2A46     		mov	r2, r5
 888 005e 3368     		ldr	r3, [r6]
 889 0060 FFF7FEFF 		bl	lib_app_call
 890              	.LVL108:
 180:src/iface.c   ****       DispLineMW("File WR Err!", MW_LINE1, MW_CLRDISP|MW_BIGFONT);
 891              		.loc 1 180 0
 892 0064 B842     		cmp	r0, r7
 893 0066 1AD0     		beq	.L97
 894              	.LVL109:
 895              	.LBB11:
 181:src/iface.c   ****       ErrorDelay();
 896              		.loc 1 181 0
 897 0068 9220     		movs	r0, #146
 898              	.LVL110:
 899 006a 0D21     		movs	r1, #13
ARM GAS  C:\Users\AHMED~1.ELE\AppData\Local\Temp\ccqMlapz.s 			page 42


 900 006c FFF7FEFF 		bl	sys_func1
 901              	.LVL111:
 902 0070 0646     		mov	r6, r0
 903 0072 90B1     		cbz	r0, .L98
 181:src/iface.c   ****       ErrorDelay();
 904              		.loc 1 181 0 is_stmt 0 discriminator 1
 905 0074 2749     		ldr	r1, .L113+8
 906 0076 0C22     		movs	r2, #12
 907 0078 FFF7FEFF 		bl	memcpy
 908              	.LVL112:
 909 007c 4FF48453 		mov	r3, #4224
 910 0080 3473     		strb	r4, [r6, #12]
 911 0082 2521     		movs	r1, #37
 912 0084 0093     		str	r3, [sp]
 913 0086 0F20     		movs	r0, #15
 914 0088 3246     		mov	r2, r6
 915 008a 4FF48073 		mov	r3, #256
 916 008e FFF7FEFF 		bl	lib_app_call
 917              	.LVL113:
 918 0092 9420     		movs	r0, #148
 919 0094 3146     		mov	r1, r6
 920 0096 FFF7FEFF 		bl	sys_func1
 921              	.LVL114:
 922              	.L98:
 923              	.LBE11:
 182:src/iface.c   ****     }
 924              		.loc 1 182 0 is_stmt 1
 925 009a FFF7FEFF 		bl	ErrorDelay
 926              	.LVL115:
 927              	.L97:
 184:src/iface.c   ****   }
 928              		.loc 1 184 0
 929 009e 0022     		movs	r2, #0
 930 00a0 1321     		movs	r1, #19
 931 00a2 0092     		str	r2, [sp]
 932 00a4 1346     		mov	r3, r2
 933 00a6 0F20     		movs	r0, #15
 934 00a8 FFF7FEFF 		bl	lib_app_call
 935              	.LVL116:
 936 00ac 24E0     		b	.L99
 937              	.LVL117:
 938              	.L96:
 187:src/iface.c   ****     if (len != sizeof(struct IFACE_DATA)) {
 939              		.loc 1 187 0
 940 00ae 2823     		movs	r3, #40
 941 00b0 0F20     		movs	r0, #15
 942              	.LVL118:
 943 00b2 0093     		str	r3, [sp]
 944 00b4 1121     		movs	r1, #17
 945 00b6 2A46     		mov	r2, r5
 946 00b8 3368     		ldr	r3, [r6]
 947 00ba FFF7FEFF 		bl	lib_app_call
 948              	.LVL119:
 188:src/iface.c   ****       DispLineMW("File RD Err!", MW_LINE1, MW_CLRDISP|MW_BIGFONT);
 949              		.loc 1 188 0
 950 00be 2828     		cmp	r0, #40
 951 00c0 1AD0     		beq	.L99
ARM GAS  C:\Users\AHMED~1.ELE\AppData\Local\Temp\ccqMlapz.s 			page 43


 952              	.LVL120:
 953              	.LBB12:
 189:src/iface.c   ****       ErrorDelay();
 954              		.loc 1 189 0
 955 00c2 9220     		movs	r0, #146
 956              	.LVL121:
 957 00c4 0D21     		movs	r1, #13
 958 00c6 FFF7FEFF 		bl	sys_func1
 959              	.LVL122:
 960 00ca 0646     		mov	r6, r0
 961 00cc 90B1     		cbz	r0, .L100
 189:src/iface.c   ****       ErrorDelay();
 962              		.loc 1 189 0 is_stmt 0 discriminator 1
 963 00ce 1249     		ldr	r1, .L113+12
 964 00d0 0C22     		movs	r2, #12
 965 00d2 FFF7FEFF 		bl	memcpy
 966              	.LVL123:
 967 00d6 4FF48453 		mov	r3, #4224
 968 00da 3473     		strb	r4, [r6, #12]
 969 00dc 2521     		movs	r1, #37
 970 00de 0093     		str	r3, [sp]
 971 00e0 0F20     		movs	r0, #15
 972 00e2 3246     		mov	r2, r6
 973 00e4 4FF48073 		mov	r3, #256
 974 00e8 FFF7FEFF 		bl	lib_app_call
 975              	.LVL124:
 976 00ec 9420     		movs	r0, #148
 977 00ee 3146     		mov	r1, r6
 978 00f0 FFF7FEFF 		bl	sys_func1
 979              	.LVL125:
 980              	.L100:
 981              	.LBE12:
 190:src/iface.c   ****     }
 982              		.loc 1 190 0 is_stmt 1
 983 00f4 FFF7FEFF 		bl	ErrorDelay
 984              	.LVL126:
 985              	.L99:
 193:src/iface.c   **** }
 986              		.loc 1 193 0
 987 00f8 0023     		movs	r3, #0
 988 00fa 0F20     		movs	r0, #15
 989 00fc 0093     		str	r3, [sp]
 990 00fe 0E21     		movs	r1, #14
 991 0100 2A46     		mov	r2, r5
 992 0102 FFF7FEFF 		bl	lib_app_call
 993              	.LVL127:
 994              	.L93:
 194:src/iface.c   **** //*****************************************************************************
 995              		.loc 1 194 0
 996 0106 0BB0     		add	sp, sp, #44
 997              		.cfi_def_cfa_offset 20
 998              		@ sp needed
 999 0108 F0BD     		pop	{r4, r5, r6, r7, pc}
 1000              	.L114:
 1001 010a 00BF     		.align	2
 1002              	.L113:
 1003 010c 00000000 		.word	.LANCHOR1
ARM GAS  C:\Users\AHMED~1.ELE\AppData\Local\Temp\ccqMlapz.s 			page 44


 1004 0110 00000000 		.word	.LANCHOR0
 1005 0114 00000000 		.word	.LC0
 1006 0118 0D000000 		.word	.LC2
 1007              		.cfi_endproc
 1008              	.LFE0:
 1009              		.size	IfaceInitData, .-IfaceInitData
 1010              		.section	.text.packFullEmvData,"ax",%progbits
 1011              		.align	1
 1012              		.global	packFullEmvData
 1013              		.thumb
 1014              		.thumb_func
 1015              		.type	packFullEmvData, %function
 1016              	packFullEmvData:
 1017              	.LFB13:
 782:src/iface.c   ****   const WORD *pw;
 1018              		.loc 1 782 0
 1019              		.cfi_startproc
 1020              		@ args = 0, pretend = 0, frame = 96
 1021              		@ frame_needed = 0, uses_anonymous_args = 0
 1022              	.LVL128:
 1023 0000 2DE9F04F 		push	{r4, r5, r6, r7, r8, r9, r10, fp, lr}
 1024              		.cfi_def_cfa_offset 36
 1025              		.cfi_offset 4, -36
 1026              		.cfi_offset 5, -32
 1027              		.cfi_offset 6, -28
 1028              		.cfi_offset 7, -24
 1029              		.cfi_offset 8, -20
 1030              		.cfi_offset 9, -16
 1031              		.cfi_offset 10, -12
 1032              		.cfi_offset 11, -8
 1033              		.cfi_offset 14, -4
 787:src/iface.c   ****   if (gGDS->s_ecr_data.b_cmd >= MAX_ECREDC_CMD)
 1034              		.loc 1 787 0
 1035 0004 0023     		movs	r3, #0
 788:src/iface.c   ****     return;
 1036              		.loc 1 788 0
 1037 0006 AB4E     		ldr	r6, .L184
 787:src/iface.c   ****   if (gGDS->s_ecr_data.b_cmd >= MAX_ECREDC_CMD)
 1038              		.loc 1 787 0
 1039 0008 0380     		strh	r3, [r0]	@ movhi
 788:src/iface.c   ****     return;
 1040              		.loc 1 788 0
 1041 000a 3368     		ldr	r3, [r6]
 782:src/iface.c   ****   const WORD *pw;
 1042              		.loc 1 782 0
 1043 000c 99B0     		sub	sp, sp, #100
 1044              		.cfi_def_cfa_offset 136
 788:src/iface.c   ****     return;
 1045              		.loc 1 788 0
 1046 000e 03F57152 		add	r2, r3, #15424
 782:src/iface.c   ****   const WORD *pw;
 1047              		.loc 1 782 0
 1048 0012 8046     		mov	r8, r0
 788:src/iface.c   ****     return;
 1049              		.loc 1 788 0
 1050 0014 527E     		ldrb	r2, [r2, #25]	@ zero_extendqisi2
 1051 0016 092A     		cmp	r2, #9
ARM GAS  C:\Users\AHMED~1.ELE\AppData\Local\Temp\ccqMlapz.s 			page 45


 1052 0018 00F24881 		bhi	.L115
 1053              	.LVL129:
 792:src/iface.c   ****     memcpy(asOut->bMsg, gGDS->s_EMVOut.bMsg, 2);
 1054              		.loc 1 792 0
 1055 001c A64F     		ldr	r7, .L184+4
 1056 001e 4068     		ldr	r0, [r0, #4]
 1057              	.LVL130:
 1058 0020 97F83420 		ldrb	r2, [r7, #52]	@ zero_extendqisi2
 1059 0024 492A     		cmp	r2, #73
 1060 0026 03D1     		bne	.L117
 793:src/iface.c   ****   else if (INPUT.b_entry_mode == CONTACTLESS)
 1061              		.loc 1 793 0
 1062 0028 03F55E53 		add	r3, r3, #14208
 1063 002c D968     		ldr	r1, [r3, #12]
 1064 002e 05E0     		b	.L178
 1065              	.L117:
 794:src/iface.c   ****     memcpy(asOut->bMsg, gGDS->s_CTLOut.pbMsg, 2);
 1066              		.loc 1 794 0
 1067 0030 542A     		cmp	r2, #84
 795:src/iface.c   ****   else
 1068              		.loc 1 795 0
 1069 0032 0ABF     		itet	eq
 1070 0034 03F55E53 		addeq	r3, r3, #14208
 797:src/iface.c   ****   asOut->wLen = 2;
 1071              		.loc 1 797 0
 1072 0038 A049     		ldrne	r1, .L184+8
 795:src/iface.c   ****   else
 1073              		.loc 1 795 0
 1074 003a D969     		ldreq	r1, [r3, #28]
 1075              	.L178:
 797:src/iface.c   ****   asOut->wLen = 2;
 1076              		.loc 1 797 0
 1077 003c 0222     		movs	r2, #2
 1078 003e FFF7FEFF 		bl	memcpy
 1079              	.LVL131:
 1080              	.LBB15:
 1081              	.LBB16:
 798:src/iface.c   ****   
 1082              		.loc 1 798 0
 1083 0042 0223     		movs	r3, #2
 1084 0044 A8F80030 		strh	r3, [r8]	@ movhi
 800:src/iface.c   ****     asOut->bMsg[1] |= ACT_APPROVED;
 1085              		.loc 1 800 0
 1086 0048 97F80037 		ldrb	r3, [r7, #1792]	@ zero_extendqisi2
 1087 004c 2BB9     		cbnz	r3, .L120
 801:src/iface.c   ****   pb = asOut->bMsg + 2;
 1088              		.loc 1 801 0
 1089 004e D8F80420 		ldr	r2, [r8, #4]
 1090 0052 5378     		ldrb	r3, [r2, #1]	@ zero_extendqisi2
 1091 0054 63F07F03 		orn	r3, r3, #127
 1092 0058 5370     		strb	r3, [r2, #1]
 1093              	.L120:
 803:src/iface.c   ****   while (*pw != 0x00) {
 1094              		.loc 1 803 0
 1095 005a 3368     		ldr	r3, [r6]
 802:src/iface.c   ****   pw = KItfRespTbl[gGDS->s_ecr_data.b_cmd];
 1096              		.loc 1 802 0
ARM GAS  C:\Users\AHMED~1.ELE\AppData\Local\Temp\ccqMlapz.s 			page 46


 1097 005c D8F80440 		ldr	r4, [r8, #4]
 803:src/iface.c   ****   while (*pw != 0x00) {
 1098              		.loc 1 803 0
 1099 0060 03F57153 		add	r3, r3, #15424
 802:src/iface.c   ****   pw = KItfRespTbl[gGDS->s_ecr_data.b_cmd];
 1100              		.loc 1 802 0
 1101 0064 0234     		adds	r4, r4, #2
 1102              	.LVL132:
 803:src/iface.c   ****   while (*pw != 0x00) {
 1103              		.loc 1 803 0
 1104 0066 5A7E     		ldrb	r2, [r3, #25]	@ zero_extendqisi2
 1105 0068 954B     		ldr	r3, .L184+12
 1106 006a 53F82250 		ldr	r5, [r3, r2, lsl #2]
 1107 006e 023D     		subs	r5, r5, #2
 1108              	.LVL133:
 1109              	.L121:
 804:src/iface.c   ****     switch (*pw) {
 1110              		.loc 1 804 0
 1111 0070 35F8020F 		ldrh	r0, [r5, #2]!
 1112              	.LVL134:
 1113 0074 0028     		cmp	r0, #0
 1114 0076 00F01481 		beq	.L183
 805:src/iface.c   ****       case ITFTAG_PAN:
 1115              		.loc 1 805 0
 1116 007a 49F61673 		movw	r3, #40726
 1117 007e 9842     		cmp	r0, r3
 1118 0080 00F0A080 		beq	.L123
 1119 0084 3BD8     		bhi	.L124
 1120 0086 45F62073 		movw	r3, #24352
 1121 008a 9842     		cmp	r0, r3
 1122 008c 00F09F80 		beq	.L125
 1123 0090 1ED8     		bhi	.L126
 1124 0092 8928     		cmp	r0, #137
 1125 0094 77D0     		beq	.L127
 1126 0096 14D8     		bhi	.L128
 1127 0098 5A28     		cmp	r0, #90
 1128 009a E9D1     		bne	.L121
 807:src/iface.c   ****         w_tmp = fndb(&ab_tmp[1], 'F', 19);
 1129              		.loc 1 807 0
 1130 009c 6846     		mov	r0, sp
 1131 009e 8949     		ldr	r1, .L184+16
 1132 00a0 0A22     		movs	r2, #10
 1133 00a2 FFF7FEFF 		bl	split
 1134              	.LVL135:
 808:src/iface.c   ****         w_tmp = (w_tmp/2) + (w_tmp%2);
 1135              		.loc 1 808 0
 1136 00a6 4621     		movs	r1, #70
 1137 00a8 1322     		movs	r2, #19
 1138 00aa 0DF10100 		add	r0, sp, #1
 1139 00ae FFF7FEFF 		bl	fndb
 1140              	.LVL136:
 810:src/iface.c   ****         break;
 1141              		.loc 1 810 0
 1142 00b2 844A     		ldr	r2, .L184+16
 808:src/iface.c   ****         w_tmp = (w_tmp/2) + (w_tmp%2);
 1143              		.loc 1 808 0
 1144 00b4 83B2     		uxth	r3, r0
ARM GAS  C:\Users\AHMED~1.ELE\AppData\Local\Temp\ccqMlapz.s 			page 47


 1145              	.LVL137:
 809:src/iface.c   ****         pb += TlvPack(*pw, w_tmp, INPUT.sb_pan, pb);
 1146              		.loc 1 809 0
 1147 00b6 03F00101 		and	r1, r3, #1
 1148              	.LVL138:
 810:src/iface.c   ****         break;
 1149              		.loc 1 810 0
 1150 00ba 2888     		ldrh	r0, [r5]
 1151 00bc 01EB5301 		add	r1, r1, r3, lsr #1
 1152              	.LVL139:
 1153 00c0 EAE0     		b	.L180
 1154              	.LVL140:
 1155              	.L128:
 805:src/iface.c   ****       case ITFTAG_PAN:
 1156              		.loc 1 805 0
 1157 00c2 8A28     		cmp	r0, #138
 1158 00c4 62D0     		beq	.L130
 1159 00c6 9A28     		cmp	r0, #154
 1160 00c8 D2D1     		bne	.L121
 823:src/iface.c   ****         break;
 1161              		.loc 1 823 0
 1162 00ca 0221     		movs	r1, #2
 1163 00cc 7E4A     		ldr	r2, .L184+20
 1164 00ce E3E0     		b	.L180
 1165              	.L126:
 805:src/iface.c   ****       case ITFTAG_PAN:
 1166              		.loc 1 805 0
 1167 00d0 49F60273 		movw	r3, #40706
 1168 00d4 9842     		cmp	r0, r3
 1169 00d6 4CD0     		beq	.L132
 1170 00d8 06D8     		bhi	.L133
 1171 00da 45F62473 		movw	r3, #24356
 1172 00de 9842     		cmp	r0, r3
 1173 00e0 C6D1     		bne	.L121
 826:src/iface.c   ****         break;
 1174              		.loc 1 826 0
 1175 00e2 0221     		movs	r1, #2
 1176 00e4 794A     		ldr	r2, .L184+24
 1177 00e6 D7E0     		b	.L180
 1178              	.L133:
 805:src/iface.c   ****       case ITFTAG_PAN:
 1179              		.loc 1 805 0
 1180 00e8 49F60373 		movw	r3, #40707
 1181 00ec 9842     		cmp	r0, r3
 1182 00ee 71D0     		beq	.L135
 1183 00f0 0333     		adds	r3, r3, #3
 1184 00f2 9842     		cmp	r0, r3
 1185 00f4 BCD1     		bne	.L121
 903:src/iface.c   ****         break;
 1186              		.loc 1 903 0
 1187 00f6 97F89410 		ldrb	r1, [r7, #148]	@ zero_extendqisi2
 1188 00fa 754A     		ldr	r2, .L184+28
 1189 00fc CCE0     		b	.L180
 1190              	.L124:
 805:src/iface.c   ****       case ITFTAG_PAN:
 1191              		.loc 1 805 0
 1192 00fe 4DF62573 		movw	r3, #57125
ARM GAS  C:\Users\AHMED~1.ELE\AppData\Local\Temp\ccqMlapz.s 			page 48


 1193 0102 9842     		cmp	r0, r3
 1194 0104 3CD0     		beq	.L137
 1195 0106 18D8     		bhi	.L138
 1196 0108 49F62173 		movw	r3, #40737
 1197 010c 9842     		cmp	r0, r3
 1198 010e 34D0     		beq	.L139
 1199 0110 08D8     		bhi	.L140
 1200 0112 49F61C73 		movw	r3, #40732
 1201 0116 9842     		cmp	r0, r3
 1202 0118 AAD1     		bne	.L121
 844:src/iface.c   ****         break;
 1203              		.loc 1 844 0
 1204 011a 3268     		ldr	r2, [r6]
 1205 011c 0821     		movs	r1, #8
 1206 011e 02F56772 		add	r2, r2, #924
 1207 0122 B9E0     		b	.L180
 1208              	.L140:
 805:src/iface.c   ****       case ITFTAG_PAN:
 1209              		.loc 1 805 0
 1210 0124 49F63973 		movw	r3, #40761
 1211 0128 9842     		cmp	r0, r3
 1212 012a 00F09A80 		beq	.L142
 1213 012e 0833     		adds	r3, r3, #8
 1214 0130 9842     		cmp	r0, r3
 1215 0132 9DD1     		bne	.L121
 817:src/iface.c   ****         break;
 1216              		.loc 1 817 0
 1217 0134 0321     		movs	r1, #3
 1218 0136 674A     		ldr	r2, .L184+32
 1219 0138 AEE0     		b	.L180
 1220              	.L138:
 805:src/iface.c   ****       case ITFTAG_PAN:
 1221              		.loc 1 805 0
 1222 013a 4DF68473 		movw	r3, #57220
 1223 013e 9842     		cmp	r0, r3
 1224 0140 56D0     		beq	.L144
 1225 0142 09D8     		bhi	.L145
 1226 0144 4DF63C73 		movw	r3, #57148
 1227 0148 9842     		cmp	r0, r3
 1228 014a 4CD0     		beq	.L146
 1229 014c 4533     		adds	r3, r3, #69
 1230 014e 9842     		cmp	r0, r3
 1231 0150 8ED1     		bne	.L121
 860:src/iface.c   ****         break;
 1232              		.loc 1 860 0
 1233 0152 1021     		movs	r1, #16
 1234 0154 604A     		ldr	r2, .L184+36
 1235 0156 9FE0     		b	.L180
 1236              	.L145:
 805:src/iface.c   ****       case ITFTAG_PAN:
 1237              		.loc 1 805 0
 1238 0158 4DF68573 		movw	r3, #57221
 1239 015c 9842     		cmp	r0, r3
 1240 015e 4CD0     		beq	.L148
 1241 0160 B0F57F4F 		cmp	r0, #65280
 1242 0164 84D1     		bne	.L121
 900:src/iface.c   ****         break;
ARM GAS  C:\Users\AHMED~1.ELE\AppData\Local\Temp\ccqMlapz.s 			page 49


 1243              		.loc 1 900 0
 1244 0166 3268     		ldr	r2, [r6]
 1245 0168 0121     		movs	r1, #1
 1246 016a 02F57152 		add	r2, r2, #15424
 1247 016e 1932     		adds	r2, r2, #25
 1248 0170 92E0     		b	.L180
 1249              	.L132:
 813:src/iface.c   ****         pb += TlvPack(*pw, 6, &ab_tmp[4], pb);
 1250              		.loc 1 813 0
 1251 0172 6846     		mov	r0, sp
 1252 0174 D7E90623 		ldrd	r2, [r7, #24]
 1253 0178 2FE0     		b	.L182
 1254              	.L139:
 820:src/iface.c   ****         break;
 1255              		.loc 1 820 0
 1256 017a 0321     		movs	r1, #3
 1257 017c 574A     		ldr	r2, .L184+40
 1258 017e 8BE0     		b	.L180
 1259              	.L137:
 829:src/iface.c   ****         break;
 1260              		.loc 1 829 0
 1261 0180 0C21     		movs	r1, #12
 1262 0182 574A     		ldr	r2, .L184+44
 1263 0184 88E0     		b	.L180
 1264              	.L127:
 832:src/iface.c   ****         break;
 1265              		.loc 1 832 0
 1266 0186 0621     		movs	r1, #6
 1267 0188 564A     		ldr	r2, .L184+48
 1268 018a 85E0     		b	.L180
 1269              	.L130:
 835:src/iface.c   ****           w_rspcode = '0'*256+'0';
 1270              		.loc 1 835 0
 1271 018c B7F86E35 		ldrh	r3, [r7, #1390]
 1272 0190 44F25012 		movw	r2, #16720
 1273 0194 9342     		cmp	r3, r2
 1274 0196 0BD0     		beq	.L158
 1275 0198 45F24142 		movw	r2, #21569
 1276 019c 9342     		cmp	r3, r2
 1277 019e 07D0     		beq	.L158
 836:src/iface.c   ****         else
 1278              		.loc 1 836 0
 1279 01a0 43F23002 		movw	r2, #12336
 1280 01a4 45F25361 		movw	r1, #22099
 1281 01a8 8B42     		cmp	r3, r1
 1282 01aa 08BF     		it	eq
 1283 01ac 1346     		moveq	r3, r2
 1284 01ae 01E0     		b	.L150
 1285              	.L158:
 1286 01b0 43F23003 		movw	r3, #12336
 1287              	.L150:
 1288              	.LVL141:
 839:src/iface.c   ****         ab_tmp[1] = (BYTE)(w_rspcode&0xFF);
 1289              		.loc 1 839 0
 1290 01b4 1A0A     		lsrs	r2, r3, #8
 840:src/iface.c   ****         pb += TlvPack(*pw, 2, ab_tmp, pb);
 1291              		.loc 1 840 0
ARM GAS  C:\Users\AHMED~1.ELE\AppData\Local\Temp\ccqMlapz.s 			page 50


 1292 01b6 8DF80130 		strb	r3, [sp, #1]
 839:src/iface.c   ****         ab_tmp[1] = (BYTE)(w_rspcode&0xFF);
 1293              		.loc 1 839 0
 1294 01ba 8DF80020 		strb	r2, [sp]
 841:src/iface.c   ****         break;
 1295              		.loc 1 841 0
 1296 01be 0221     		movs	r1, #2
 1297 01c0 2888     		ldrh	r0, [r5]
 1298 01c2 68E0     		b	.L181
 1299              	.LVL142:
 1300              	.L123:
 847:src/iface.c   ****         break;
 1301              		.loc 1 847 0
 1302 01c4 3268     		ldr	r2, [r6]
 1303 01c6 0F21     		movs	r1, #15
 1304 01c8 02F56972 		add	r2, r2, #932
 1305 01cc 64E0     		b	.L180
 1306              	.L125:
 850:src/iface.c   ****         break;
 1307              		.loc 1 850 0
 1308 01ce 1A21     		movs	r1, #26
 1309 01d0 454A     		ldr	r2, .L184+52
 1310 01d2 61E0     		b	.L180
 1311              	.L135:
 853:src/iface.c   ****         pb += TlvPack(*pw, 6, &ab_tmp[4], pb);
 1312              		.loc 1 853 0
 1313 01d4 D7E90823 		ldrd	r2, [r7, #32]
 1314 01d8 6846     		mov	r0, sp
 1315              	.L182:
 1316 01da FFF7FEFF 		bl	DDWORD2bcd
 1317              	.LVL143:
 854:src/iface.c   ****         break;
 1318              		.loc 1 854 0
 1319 01de 2888     		ldrh	r0, [r5]
 1320 01e0 0621     		movs	r1, #6
 1321 01e2 01AA     		add	r2, sp, #4
 1322 01e4 58E0     		b	.L180
 1323              	.L146:
 857:src/iface.c   ****         break;
 1324              		.loc 1 857 0
 1325 01e6 3268     		ldr	r2, [r6]
 1326 01e8 0321     		movs	r1, #3
 1327 01ea 02F56D72 		add	r2, r2, #948
 1328 01ee 53E0     		b	.L180
 1329              	.L144:
 863:src/iface.c   ****         break;
 1330              		.loc 1 863 0
 1331 01f0 3268     		ldr	r2, [r6]
 1332 01f2 0A21     		movs	r1, #10
 1333 01f4 02F25332 		addw	r2, r2, #851
 1334 01f8 4EE0     		b	.L180
 1335              	.L148:
 1336              	.LVL144:
 867:src/iface.c   ****         memcpy(pb_tmp, &ab_tmp[8], 2);
 1337              		.loc 1 867 0
 1338 01fa DFF8F090 		ldr	r9, .L184+56
 1339 01fe 6846     		mov	r0, sp
ARM GAS  C:\Users\AHMED~1.ELE\AppData\Local\Temp\ccqMlapz.s 			page 51


 1340 0200 B9F82826 		ldrh	r2, [r9, #1576]
 1341 0204 0023     		movs	r3, #0
 1342 0206 FFF7FEFF 		bl	DDWORD2bcd
 1343              	.LVL145:
 870:src/iface.c   ****         memcpy(pb_tmp, &ab_tmp[4], 6);
 1344              		.loc 1 870 0
 1345 020a 09F5C46B 		add	fp, r9, #1568
 868:src/iface.c   ****         pb_tmp += 2;
 1346              		.loc 1 868 0
 1347 020e BDF80830 		ldrh	r3, [sp, #8]
 870:src/iface.c   ****         memcpy(pb_tmp, &ab_tmp[4], 6);
 1348              		.loc 1 870 0
 1349 0212 6846     		mov	r0, sp
 868:src/iface.c   ****         pb_tmp += 2;
 1350              		.loc 1 868 0
 1351 0214 ADF82030 		strh	r3, [sp, #32]	@ movhi
 1352              	.LVL146:
 871:src/iface.c   ****         pb_tmp += 6;
 1353              		.loc 1 871 0
 1354 0218 0DF1040A 		add	r10, sp, #4
 870:src/iface.c   ****         memcpy(pb_tmp, &ab_tmp[4], 6);
 1355              		.loc 1 870 0
 1356 021c DBE90423 		ldrd	r2, [fp, #16]
 1357 0220 FFF7FEFF 		bl	DDWORD2bcd
 1358              	.LVL147:
 871:src/iface.c   ****         pb_tmp += 6;
 1359              		.loc 1 871 0
 1360 0224 5146     		mov	r1, r10
 1361 0226 0622     		movs	r2, #6
 1362 0228 0DF12200 		add	r0, sp, #34
 1363              	.LVL148:
 1364 022c FFF7FEFF 		bl	memcpy
 1365              	.LVL149:
 873:src/iface.c   ****         memcpy(pb_tmp, &ab_tmp[8], 2);
 1366              		.loc 1 873 0
 1367 0230 6846     		mov	r0, sp
 1368 0232 B9F84826 		ldrh	r2, [r9, #1608]
 1369 0236 0023     		movs	r3, #0
 1370 0238 FFF7FEFF 		bl	DDWORD2bcd
 1371              	.LVL150:
 874:src/iface.c   ****         pb_tmp += 2;
 1372              		.loc 1 874 0
 1373 023c BDF80830 		ldrh	r3, [sp, #8]
 876:src/iface.c   ****         memcpy(pb_tmp, &ab_tmp[4], 6);
 1374              		.loc 1 876 0
 1375 0240 6846     		mov	r0, sp
 874:src/iface.c   ****         pb_tmp += 2;
 1376              		.loc 1 874 0
 1377 0242 ADF82830 		strh	r3, [sp, #40]	@ movhi
 1378              	.LVL151:
 876:src/iface.c   ****         memcpy(pb_tmp, &ab_tmp[4], 6);
 1379              		.loc 1 876 0
 1380 0246 DBE90C23 		ldrd	r2, [fp, #48]
 1381 024a FFF7FEFF 		bl	DDWORD2bcd
 1382              	.LVL152:
 877:src/iface.c   ****         pb_tmp += 6;
 1383              		.loc 1 877 0
ARM GAS  C:\Users\AHMED~1.ELE\AppData\Local\Temp\ccqMlapz.s 			page 52


 1384 024e 5146     		mov	r1, r10
 1385 0250 0622     		movs	r2, #6
 1386 0252 0DF12A00 		add	r0, sp, #42
 1387              	.LVL153:
 1388 0256 FFF7FEFF 		bl	memcpy
 1389              	.LVL154:
 879:src/iface.c   ****         break;
 1390              		.loc 1 879 0
 1391 025a 2888     		ldrh	r0, [r5]
 1392 025c 1021     		movs	r1, #16
 1393 025e 08AA     		add	r2, sp, #32
 1394 0260 1AE0     		b	.L180
 1395              	.LVL155:
 1396              	.L142:
 882:src/iface.c   ****           case MANUAL:
 1397              		.loc 1 882 0
 1398 0262 97F83430 		ldrb	r3, [r7, #52]	@ zero_extendqisi2
 1399 0266 532B     		cmp	r3, #83
 1400 0268 0ED0     		beq	.L152
 1401 026a 04D8     		bhi	.L153
 1402 026c 462B     		cmp	r3, #70
 1403 026e 0BD0     		beq	.L152
 1404 0270 4D2B     		cmp	r3, #77
 1405 0272 07D0     		beq	.L154
 1406 0274 0AE0     		b	.L151
 1407              	.L153:
 1408 0276 6D2B     		cmp	r3, #109
 1409 0278 04D0     		beq	.L154
 1410 027a 732B     		cmp	r3, #115
 1411 027c 04D0     		beq	.L152
 1412 027e 662B     		cmp	r3, #102
 1413 0280 04D1     		bne	.L151
 1414 0282 01E0     		b	.L152
 1415              	.L154:
 885:src/iface.c   ****             break;
 1416              		.loc 1 885 0
 1417 0284 0123     		movs	r3, #1
 1418 0286 02E0     		b	.L179
 1419              	.L152:
 891:src/iface.c   ****             break;
 1420              		.loc 1 891 0
 1421 0288 0223     		movs	r3, #2
 1422 028a 00E0     		b	.L179
 1423              	.L151:
 894:src/iface.c   ****             break;
 1424              		.loc 1 894 0
 1425 028c 0523     		movs	r3, #5
 1426              	.L179:
 1427 028e 8DF80030 		strb	r3, [sp]
 897:src/iface.c   ****         break;
 1428              		.loc 1 897 0
 1429 0292 0121     		movs	r1, #1
 1430 0294 2888     		ldrh	r0, [r5]
 1431              	.L181:
 1432 0296 6A46     		mov	r2, sp
 1433              	.L180:
 903:src/iface.c   ****         break;
ARM GAS  C:\Users\AHMED~1.ELE\AppData\Local\Temp\ccqMlapz.s 			page 53


 1434              		.loc 1 903 0
 1435 0298 2346     		mov	r3, r4
 1436 029a FFF7FEFF 		bl	TlvPack
 1437              	.LVL156:
 1438 029e 0444     		add	r4, r4, r0
 1439              	.LVL157:
 1440 02a0 E6E6     		b	.L121
 1441              	.LVL158:
 1442              	.L183:
 908:src/iface.c   **** }
 1443              		.loc 1 908 0
 1444 02a2 D8F80430 		ldr	r3, [r8, #4]
 1445 02a6 E41A     		subs	r4, r4, r3
 1446              	.LVL159:
 1447 02a8 A8F80040 		strh	r4, [r8]	@ movhi
 1448              	.LVL160:
 1449              	.L115:
 1450              	.LBE16:
 1451              	.LBE15:
 909:src/iface.c   **** //*****************************************************************************
 1452              		.loc 1 909 0
 1453 02ac 19B0     		add	sp, sp, #100
 1454              		.cfi_def_cfa_offset 36
 1455              		@ sp needed
 1456 02ae BDE8F08F 		pop	{r4, r5, r6, r7, r8, r9, r10, fp, pc}
 1457              	.LVL161:
 1458              	.L185:
 1459 02b2 00BF     		.align	2
 1460              	.L184:
 1461 02b4 00000000 		.word	gGDS
 1462 02b8 00000000 		.word	gGTS
 1463 02bc 13000000 		.word	.LANCHOR0+19
 1464 02c0 00000000 		.word	.LANCHOR2
 1465 02c4 09000000 		.word	gGTS+9
 1466 02c8 86050000 		.word	gGTS+1414
 1467 02cc 13000000 		.word	gGTS+19
 1468 02d0 95000000 		.word	gGTS+149
 1469 02d4 02000000 		.word	gGTS+2
 1470 02d8 4F000000 		.word	gGTS+79
 1471 02dc 88050000 		.word	gGTS+1416
 1472 02e0 71050000 		.word	gGTS+1393
 1473 02e4 67050000 		.word	gGTS+1383
 1474 02e8 35000000 		.word	gGTS+53
 1475 02ec 00000000 		.word	.LANCHOR1
 1476              		.cfi_endproc
 1477              	.LFE13:
 1478              		.size	packFullEmvData, .-packFullEmvData
 1479              		.section	.text.ItfVoid,"ax",%progbits
 1480              		.align	1
 1481              		.global	ItfVoid
 1482              		.thumb
 1483              		.thumb_func
 1484              		.type	ItfVoid, %function
 1485              	ItfVoid:
 1486              	.LFB14:
 919:src/iface.c   ****   VoidTrans(-1);
 1487              		.loc 1 919 0
ARM GAS  C:\Users\AHMED~1.ELE\AppData\Local\Temp\ccqMlapz.s 			page 54


 1488              		.cfi_startproc
 1489              		@ args = 0, pretend = 0, frame = 0
 1490              		@ frame_needed = 0, uses_anonymous_args = 0
 1491 0000 08B5     		push	{r3, lr}
 1492              		.cfi_def_cfa_offset 8
 1493              		.cfi_offset 3, -8
 1494              		.cfi_offset 14, -4
 920:src/iface.c   ****   return TXN_OK;
 1495              		.loc 1 920 0
 1496 0002 4FF0FF30 		mov	r0, #-1
 1497 0006 FFF7FEFF 		bl	VoidTrans
 1498              	.LVL162:
 922:src/iface.c   **** //*****************************************************************************
 1499              		.loc 1 922 0
 1500 000a 0220     		movs	r0, #2
 1501 000c 08BD     		pop	{r3, pc}
 1502              		.cfi_endproc
 1503              	.LFE14:
 1504              		.size	ItfVoid, .-ItfVoid
 1505              		.section	.text.ItfHostTot,"ax",%progbits
 1506              		.align	1
 1507              		.global	ItfHostTot
 1508              		.thumb
 1509              		.thumb_func
 1510              		.type	ItfHostTot, %function
 1511              	ItfHostTot:
 1512              	.LFB15:
 932:src/iface.c   ****   CalTotals(FALSE);
 1513              		.loc 1 932 0
 1514              		.cfi_startproc
 1515              		@ args = 0, pretend = 0, frame = 0
 1516              		@ frame_needed = 0, uses_anonymous_args = 0
 1517 0000 08B5     		push	{r3, lr}
 1518              		.cfi_def_cfa_offset 8
 1519              		.cfi_offset 3, -8
 1520              		.cfi_offset 14, -4
 933:src/iface.c   ****   memcpy(&gTermTotal, &TERM_TOT, sizeof(struct TOTAL_STRUCT));
 1521              		.loc 1 933 0
 1522 0002 0020     		movs	r0, #0
 1523 0004 FFF7FEFF 		bl	CalTotals
 1524              	.LVL163:
 934:src/iface.c   ****   return TXN_OK;
 1525              		.loc 1 934 0
 1526 0008 044B     		ldr	r3, .L188
 1527 000a 6822     		movs	r2, #104
 1528 000c 1968     		ldr	r1, [r3]
 1529 000e 0448     		ldr	r0, .L188+4
 1530 0010 01F6C841 		addw	r1, r1, #3272
 1531 0014 FFF7FEFF 		bl	memcpy
 1532              	.LVL164:
 936:src/iface.c   **** //*****************************************************************************
 1533              		.loc 1 936 0
 1534 0018 0220     		movs	r0, #2
 1535 001a 08BD     		pop	{r3, pc}
 1536              	.L189:
 1537              		.align	2
 1538              	.L188:
ARM GAS  C:\Users\AHMED~1.ELE\AppData\Local\Temp\ccqMlapz.s 			page 55


 1539 001c 00000000 		.word	gGDS
 1540 0020 20060000 		.word	.LANCHOR1+1568
 1541              		.cfi_endproc
 1542              	.LFE15:
 1543              		.size	ItfHostTot, .-ItfHostTot
 1544              		.section	.text.ItfSettle,"ax",%progbits
 1545              		.align	1
 1546              		.global	ItfSettle
 1547              		.thumb
 1548              		.thumb_func
 1549              		.type	ItfSettle, %function
 1550              	ItfSettle:
 1551              	.LFB16:
 946:src/iface.c   ****   CalTotals(FALSE);
 1552              		.loc 1 946 0
 1553              		.cfi_startproc
 1554              		@ args = 0, pretend = 0, frame = 0
 1555              		@ frame_needed = 0, uses_anonymous_args = 0
 1556 0000 08B5     		push	{r3, lr}
 1557              		.cfi_def_cfa_offset 8
 1558              		.cfi_offset 3, -8
 1559              		.cfi_offset 14, -4
 947:src/iface.c   ****   memcpy(&gTermTotal, &TERM_TOT, sizeof(struct TOTAL_STRUCT));    // backup total in batch
 1560              		.loc 1 947 0
 1561 0002 0020     		movs	r0, #0
 1562 0004 FFF7FEFF 		bl	CalTotals
 1563              	.LVL165:
 948:src/iface.c   ****   RSP_DATA.w_rspcode = 'D'*256 + 'E';
 1564              		.loc 1 948 0
 1565 0008 0B4B     		ldr	r3, .L193
 1566 000a 6822     		movs	r2, #104
 1567 000c 1968     		ldr	r1, [r3]
 1568 000e 0B48     		ldr	r0, .L193+4
 1569 0010 01F6C841 		addw	r1, r1, #3272
 1570 0014 FFF7FEFF 		bl	memcpy
 1571              	.LVL166:
 949:src/iface.c   ****   INPUT.w_host_idx = 0;
 1572              		.loc 1 949 0
 1573 0018 094B     		ldr	r3, .L193+8
 1574 001a 44F24542 		movw	r2, #17477
 1575 001e A3F86E25 		strh	r2, [r3, #1390]	@ movhi
 950:src/iface.c   ****   if (SettleTrans() == TRUE)
 1576              		.loc 1 950 0
 1577 0022 0022     		movs	r2, #0
 1578 0024 A3F87620 		strh	r2, [r3, #118]	@ movhi
 951:src/iface.c   ****     return TXN_OK;
 1579              		.loc 1 951 0
 1580 0028 FFF7FEFF 		bl	SettleTrans
 1581              	.LVL167:
 954:src/iface.c   **** //=============================================================================
 1582              		.loc 1 954 0
 1583 002c 0128     		cmp	r0, #1
 1584 002e 0CBF     		ite	eq
 1585 0030 0220     		moveq	r0, #2
 1586 0032 0120     		movne	r0, #1
 1587 0034 08BD     		pop	{r3, pc}
 1588              	.L194:
ARM GAS  C:\Users\AHMED~1.ELE\AppData\Local\Temp\ccqMlapz.s 			page 56


 1589 0036 00BF     		.align	2
 1590              	.L193:
 1591 0038 00000000 		.word	gGDS
 1592 003c 20060000 		.word	.LANCHOR1+1568
 1593 0040 00000000 		.word	gGTS
 1594              		.cfi_endproc
 1595              	.LFE16:
 1596              		.size	ItfSettle, .-ItfSettle
 1597              		.section	.text.Spt3MsgHdr,"ax",%progbits
 1598              		.align	1
 1599              		.global	Spt3MsgHdr
 1600              		.thumb
 1601              		.thumb_func
 1602              		.type	Spt3MsgHdr, %function
 1603              	Spt3MsgHdr:
 1604              	.LFB19:
1166:src/iface.c   ****   int iRet;
 1605              		.loc 1 1166 0
 1606              		.cfi_startproc
 1607              		@ args = 0, pretend = 0, frame = 40
 1608              		@ frame_needed = 0, uses_anonymous_args = 0
 1609              	.LVL168:
 1610 0000 2DE9F04F 		push	{r4, r5, r6, r7, r8, r9, r10, fp, lr}
 1611              		.cfi_def_cfa_offset 36
 1612              		.cfi_offset 4, -36
 1613              		.cfi_offset 5, -32
 1614              		.cfi_offset 6, -28
 1615              		.cfi_offset 7, -24
 1616              		.cfi_offset 8, -20
 1617              		.cfi_offset 9, -16
 1618              		.cfi_offset 10, -12
 1619              		.cfi_offset 11, -8
 1620              		.cfi_offset 14, -4
1172:src/iface.c   **** 
 1621              		.loc 1 1172 0
 1622 0004 914C     		ldr	r4, .L315
1166:src/iface.c   ****   int iRet;
 1623              		.loc 1 1166 0
 1624 0006 0546     		mov	r5, r0
 1625 0008 8846     		mov	r8, r1
 1626 000a 8DB0     		sub	sp, sp, #52
 1627              		.cfi_def_cfa_offset 88
1172:src/iface.c   **** 
 1628              		.loc 1 1172 0
 1629 000c 04F11800 		add	r0, r4, #24
 1630              	.LVL169:
 1631 0010 2946     		mov	r1, r5
 1632              	.LVL170:
 1633 0012 4246     		mov	r2, r8
 1634 0014 FFF7FEFF 		bl	memcpy
 1635              	.LVL171:
 1636              	.LBB35:
 1637              	.LBB36:
 407:src/iface.c   ****     DbFErr("reqCheck(S3):StxErr\n");
 1638              		.loc 1 407 0
 1639 0018 237E     		ldrb	r3, [r4, #24]	@ zero_extendqisi2
 1640 001a 2646     		mov	r6, r4
ARM GAS  C:\Users\AHMED~1.ELE\AppData\Local\Temp\ccqMlapz.s 			page 57


 1641 001c 022B     		cmp	r3, #2
 1642 001e 15D1     		bne	.L304
 413:src/iface.c   ****     DbFErr("reqCheck(S3):EtxErr\n");
 1643              		.loc 1 413 0
 1644 0020 04EB0803 		add	r3, r4, r8
 1645 0024 DB7D     		ldrb	r3, [r3, #23]	@ zero_extendqisi2
 1646 0026 032B     		cmp	r3, #3
 1647 0028 10D1     		bne	.L304
 419:src/iface.c   ****     DbFErr("reqCheck(S3):FmtIdErr\n");
 1648              		.loc 1 419 0
 1649 002a 04F11900 		add	r0, r4, #25
 1650 002e FFF7FEFF 		bl	UGet
 1651              	.LVL172:
 1652 0032 0128     		cmp	r0, #1
 1653 0034 0AD1     		bne	.L304
 425:src/iface.c   ****     DbFErr("reqCheck(S3):LErr(%d,%d)\n", WGet(aReq+OSET_DATA_LEN)+MIN_MSG_LEN, aLen);
 1654              		.loc 1 425 0
 1655 0036 04F12300 		add	r0, r4, #35
 1656 003a FFF7FEFF 		bl	WGet
 1657              	.LVL173:
 1658 003e 1230     		adds	r0, r0, #18
 1659 0040 4045     		cmp	r0, r8
 1660 0042 06D0     		beq	.L199
 426:src/iface.c   ****     return IF_ERR_FMT;
 1661              		.loc 1 426 0
 1662 0044 04F12300 		add	r0, r4, #35
 1663 0048 FFF7FEFF 		bl	WGet
 1664              	.LVL174:
 1665              	.L304:
 427:src/iface.c   ****   }
 1666              		.loc 1 427 0
 1667 004c 6FF00204 		mvn	r4, #2
 1668 0050 B5E0     		b	.L295
 1669              	.L199:
 431:src/iface.c   ****     if ((aReq[OSET_INS] & S3INS_CLASS_MASK) != S3INS_CLASS_GENERAL) {
 1670              		.loc 1 431 0
 1671 0052 04F11F00 		add	r0, r4, #31
 1672 0056 FFF7FEFF 		bl	WGet
 1673              	.LVL175:
 1674 005a 88B9     		cbnz	r0, .L200
 432:src/iface.c   ****       DbFErr("reqCheck(S3):SeqErr\n");
 1675              		.loc 1 432 0
 1676 005c 94F82130 		ldrb	r3, [r4, #33]	@ zero_extendqisi2
 1677 0060 13F0F00F 		tst	r3, #240
 1678 0064 14D1     		bne	.L201
 1679              	.L205:
 445:src/iface.c   ****     case S3INS_CLASS_GENERAL:
 1680              		.loc 1 445 0
 1681 0066 96F82130 		ldrb	r3, [r6, #33]	@ zero_extendqisi2
 1682 006a 784A     		ldr	r2, .L315
 1683 006c 03F0F003 		and	r3, r3, #240
 1684 0070 102B     		cmp	r3, #16
 1685 0072 10D0     		beq	.L202
 1686 0074 202B     		cmp	r3, #32
 1687 0076 13D0     		beq	.L203
 1688 0078 002B     		cmp	r3, #0
 1689 007a 40F09880 		bne	.L268
ARM GAS  C:\Users\AHMED~1.ELE\AppData\Local\Temp\ccqMlapz.s 			page 58


 1690 007e 15E0     		b	.L204
 1691              	.L200:
 438:src/iface.c   ****       DbFErr("reqCheck(S3):SeqErr\n");
 1692              		.loc 1 438 0
 1693 0080 04F11F00 		add	r0, r4, #31
 1694 0084 FFF7FEFF 		bl	WGet
 1695              	.LVL176:
 1696 0088 B4F81836 		ldrh	r3, [r4, #1560]
 1697 008c 8342     		cmp	r3, r0
 1698 008e EAD9     		bls	.L205
 1699              	.L201:
 434:src/iface.c   ****     }
 1700              		.loc 1 434 0
 1701 0090 6FF00704 		mvn	r4, #7
 1702 0094 93E0     		b	.L295
 1703              	.L202:
 449:src/iface.c   ****         DbFErr("reqCheck(S3):InsErr\n");
 1704              		.loc 1 449 0
 1705 0096 92F81A36 		ldrb	r3, [r2, #1562]	@ zero_extendqisi2
 1706 009a 13F0010F 		tst	r3, #1
 1707 009e 03E0     		b	.L310
 1708              	.L203:
 455:src/iface.c   ****         DbFErr("reqCheck(S3):InsErr\n");
 1709              		.loc 1 455 0
 1710 00a0 92F81A36 		ldrb	r3, [r2, #1562]	@ zero_extendqisi2
 1711 00a4 13F0020F 		tst	r3, #2
 1712              	.L310:
 1713 00a8 00F08180 		beq	.L268
 1714              	.L204:
 466:src/iface.c   ****   && (((aReq[OSET_INS] & S3INS_CLASS_MASK) == S3INS_CLASS_GENERAL)) // !NormalMode or general cmd
 1715              		.loc 1 466 0
 1716 00ac DFF89C91 		ldr	r9, .L315
 1717 00b0 A8F10504 		sub	r4, r8, #5
 1718 00b4 09F1180B 		add	fp, r9, #24
 1719 00b8 5C44     		add	r4, r4, fp
 1720 00ba 2046     		mov	r0, r4
 1721 00bc FFF7FEFF 		bl	WGet
 1722              	.LVL177:
 1723 00c0 A8F1060A 		sub	r10, r8, #6
 1724 00c4 C8B1     		cbz	r0, .L206
 1725              	.L208:
 473:src/iface.c   ****     WPut(buf+6, Crc16(aReq+1, aLen-6, 0));
 1726              		.loc 1 473 0
 1727 00c6 6249     		ldr	r1, .L315+4
 1728 00c8 0622     		movs	r2, #6
 1729 00ca 08A8     		add	r0, sp, #32
 1730 00cc FFF7FEFF 		bl	memcpy
 1731              	.LVL178:
 474:src/iface.c   ****     if ((encrypt(S3TDES, ANY_SKEY, 0x00, buf, 8) == FALSE)
 1732              		.loc 1 474 0
 1733 00d0 0022     		movs	r2, #0
 1734 00d2 1FFA8AF1 		uxth	r1, r10
 1735 00d6 5F48     		ldr	r0, .L315+8
 1736 00d8 FFF7FEFF 		bl	Crc16
 1737              	.LVL179:
 1738 00dc 0146     		mov	r1, r0
 1739 00de 0DF12600 		add	r0, sp, #38
ARM GAS  C:\Users\AHMED~1.ELE\AppData\Local\Temp\ccqMlapz.s 			page 59


 1740 00e2 FFF7FEFF 		bl	WPut
 1741              	.LVL180:
 475:src/iface.c   ****     || (memcmp(buf, aReq+aLen-5, 4) != 0)) {
 1742              		.loc 1 475 0
 1743 00e6 0823     		movs	r3, #8
 1744 00e8 0320     		movs	r0, #3
 1745 00ea 0093     		str	r3, [sp]
 1746 00ec FF21     		movs	r1, #255
 1747 00ee 0022     		movs	r2, #0
 1748 00f0 08AB     		add	r3, sp, #32
 1749 00f2 FFF7FEFF 		bl	encrypt
 1750              	.LVL181:
 1751 00f6 D8B9     		cbnz	r0, .L297
 1752 00f8 5CE0     		b	.L270
 1753              	.L206:
 467:src/iface.c   ****   && (WGet(aReq+aLen-3) == Crc16(aReq+1, aLen-6, 0)) ) { // crc ok
 1754              		.loc 1 467 0
 1755 00fa 99F82120 		ldrb	r2, [r9, #33]	@ zero_extendqisi2
 1756 00fe 12F0F007 		ands	r7, r2, #240
 1757 0102 E0D1     		bne	.L208
 468:src/iface.c   ****       DbStep("reqCheck(S3): CRC OK\n");
 1758              		.loc 1 468 0
 1759 0104 A8F10300 		sub	r0, r8, #3
 1760 0108 5844     		add	r0, r0, fp
 1761 010a FFF7FEFF 		bl	WGet
 1762              	.LVL182:
 1763 010e 1FFA8AF1 		uxth	r1, r10
 1764 0112 3A46     		mov	r2, r7
 1765 0114 8346     		mov	fp, r0
 1766 0116 09F11900 		add	r0, r9, #25
 1767 011a FFF7FEFF 		bl	Crc16
 1768              	.LVL183:
 1769 011e 8345     		cmp	fp, r0
 1770 0120 D1D1     		bne	.L208
 1771              	.L211:
 484:src/iface.c   ****     switch (aReq[OSET_DATA_FMT] & 0x0F) {
 1772              		.loc 1 484 0
 1773 0122 4A4C     		ldr	r4, .L315
 1774 0124 04F12300 		add	r0, r4, #35
 1775 0128 FFF7FEFF 		bl	WGet
 1776              	.LVL184:
 1777 012c 40B9     		cbnz	r0, .L209
 1778 012e 25E0     		b	.L213
 1779              	.L297:
 476:src/iface.c   ****       DbFErr("reqCheck(S3):CrcErr\n");
 1780              		.loc 1 476 0
 1781 0130 08A8     		add	r0, sp, #32
 1782 0132 2146     		mov	r1, r4
 1783 0134 0422     		movs	r2, #4
 1784 0136 FFF7FEFF 		bl	memcmp
 1785              	.LVL185:
 1786 013a 0028     		cmp	r0, #0
 1787 013c F1D0     		beq	.L211
 1788 013e 39E0     		b	.L270
 1789              	.L209:
 485:src/iface.c   ****       case S3DFMT_PLAIN:
 1790              		.loc 1 485 0
ARM GAS  C:\Users\AHMED~1.ELE\AppData\Local\Temp\ccqMlapz.s 			page 60


 1791 0140 94F82230 		ldrb	r3, [r4, #34]	@ zero_extendqisi2
 1792 0144 03F00F03 		and	r3, r3, #15
 1793 0148 012B     		cmp	r3, #1
 1794 014a 03D0     		beq	.L212
 1795 014c 16D3     		bcc	.L213
 1796 014e 022B     		cmp	r3, #2
 1797 0150 1FD0     		beq	.L214
 1798 0152 32E0     		b	.L298
 1799              	.L212:
 489:src/iface.c   ****             || (encrypt(S3DES2, ANY_SKEY, 0x00, aReq+OSET_REQ_DATA, WGet(aReq+OSET_DATA_LEN)) == FA
 1800              		.loc 1 489 0
 1801 0154 04F12300 		add	r0, r4, #35
 1802 0158 FFF7FEFF 		bl	WGet
 1803              	.LVL186:
 1804 015c 10F00707 		ands	r7, r0, #7
 1805 0160 2BD1     		bne	.L298
 490:src/iface.c   ****           DbFErr("reqCheck(S3):KeyErr\n");
 1806              		.loc 1 490 0
 1807 0162 04F12300 		add	r0, r4, #35
 1808 0166 FFF7FEFF 		bl	WGet
 1809              	.LVL187:
 1810 016a 0090     		str	r0, [sp]
 1811 016c 0220     		movs	r0, #2
 1812              	.L303:
 1813 016e FF21     		movs	r1, #255
 1814 0170 3A46     		mov	r2, r7
 1815 0172 04F12503 		add	r3, r4, #37
 1816 0176 FFF7FEFF 		bl	encrypt
 1817              	.LVL188:
 1818 017a F0B1     		cbz	r0, .L298
 1819              	.L213:
 1820              	.LBE36:
 1821              	.LBE35:
 1822              	.LBB39:
 1823              	.LBB40:
 971:src/iface.c   ****   // instruction
 1824              		.loc 1 971 0
 1825 017c 334F     		ldr	r7, .L315
 973:src/iface.c   ****       // general ins
 1826              		.loc 1 973 0
 1827 017e 96F82160 		ldrb	r6, [r6, #33]	@ zero_extendqisi2
 971:src/iface.c   ****   // instruction
 1828              		.loc 1 971 0
 1829 0182 07F5D163 		add	r3, r7, #1672
 973:src/iface.c   ****       // general ins
 1830              		.loc 1 973 0
 1831 0186 032E     		cmp	r6, #3
 1832              	.LBE40:
 1833              	.LBE39:
 1834              	.LBB57:
 1835              	.LBB37:
 508:src/iface.c   **** }
 1836              		.loc 1 508 0
 1837 0188 4FF00004 		mov	r4, #0
 1838              	.LVL189:
 1839              	.LBE37:
 1840              	.LBE57:
ARM GAS  C:\Users\AHMED~1.ELE\AppData\Local\Temp\ccqMlapz.s 			page 61


 1841              	.LBB58:
 1842              	.LBB55:
 971:src/iface.c   ****   // instruction
 1843              		.loc 1 971 0
 1844 018c 0593     		str	r3, [sp, #20]
 973:src/iface.c   ****       // general ins
 1845              		.loc 1 973 0
 1846 018e 29D1     		bne	.L313
 1847 0190 D2E0     		b	.L228
 1848              	.LVL190:
 1849              	.L214:
 1850              	.LBE55:
 1851              	.LBE58:
 1852              	.LBB59:
 1853              	.LBB38:
 496:src/iface.c   ****             || (encrypt(S3TDES2, ANY_SKEY, 0x00, aReq+OSET_REQ_DATA, WGet(aReq+OSET_DATA_LEN)) == F
 1854              		.loc 1 496 0
 1855 0192 04F12300 		add	r0, r4, #35
 1856 0196 FFF7FEFF 		bl	WGet
 1857              	.LVL191:
 1858 019a 10F00707 		ands	r7, r0, #7
 1859 019e 0CD1     		bne	.L298
 497:src/iface.c   ****           DbFErr("reqCheck(S3):KeyErr\n");
 1860              		.loc 1 497 0
 1861 01a0 04F12300 		add	r0, r4, #35
 1862 01a4 FFF7FEFF 		bl	WGet
 1863              	.LVL192:
 1864 01a8 0090     		str	r0, [sp]
 1865 01aa 0420     		movs	r0, #4
 1866 01ac DFE7     		b	.L303
 1867              	.L268:
 451:src/iface.c   ****       }
 1868              		.loc 1 451 0
 1869 01ae 6FF00504 		mvn	r4, #5
 1870 01b2 04E0     		b	.L295
 1871              	.L270:
 478:src/iface.c   ****     }
 1872              		.loc 1 478 0
 1873 01b4 6FF00604 		mvn	r4, #6
 1874 01b8 01E0     		b	.L295
 1875              	.L298:
 504:src/iface.c   ****     }
 1876              		.loc 1 504 0
 1877 01ba 6FF00804 		mvn	r4, #8
 1878              	.L295:
 1879              	.LBE38:
 1880              	.LBE59:
1177:src/iface.c   ****       case IF_ERR_FMT: // format error -> return to try other interface
 1881              		.loc 1 1177 0
 1882 01be 04F10903 		add	r3, r4, #9
 1883 01c2 062B     		cmp	r3, #6
 1884 01c4 0CD8     		bhi	.L219
 1885 01c6 DFE813F0 		tbh	[pc, r3, lsl #1]
 1886              	.L221:
 1887 01ca 1D01     		.2byte	(.L311-.L221)/2
 1888 01cc 0900     		.2byte	(.L222-.L221)/2
 1889 01ce 0700     		.2byte	(.L223-.L221)/2
ARM GAS  C:\Users\AHMED~1.ELE\AppData\Local\Temp\ccqMlapz.s 			page 62


 1890 01d0 CF01     		.2byte	(.L300-.L221)/2
 1891 01d2 0B00     		.2byte	(.L219-.L221)/2
 1892 01d4 0B00     		.2byte	(.L219-.L221)/2
 1893 01d6 D901     		.2byte	(.L225-.L221)/2
 1894              		.p2align 1
 1895              	.L223:
1181:src/iface.c   ****         break;
 1896              		.loc 1 1181 0
 1897 01d8 8120     		movs	r0, #129
 1898 01da C6E1     		b	.L307
 1899              	.L222:
1184:src/iface.c   ****         break;
 1900              		.loc 1 1184 0
 1901 01dc 8820     		movs	r0, #136
 1902 01de C4E1     		b	.L307
 1903              	.L219:
1193:src/iface.c   ****         break;
 1904              		.loc 1 1193 0
 1905 01e0 8320     		movs	r0, #131
 1906 01e2 C2E1     		b	.L307
 1907              	.LVL193:
 1908              	.L313:
 1909              	.LBB60:
 1910              	.LBB56:
 973:src/iface.c   ****       // general ins
 1911              		.loc 1 973 0
 1912 01e4 03D8     		bhi	.L229
 1913 01e6 012E     		cmp	r6, #1
 1914 01e8 24D0     		beq	.L230
 1915 01ea 0AD9     		bls	.L299
 1916 01ec 34E0     		b	.L314
 1917              	.L229:
 1918 01ee 202E     		cmp	r6, #32
 1919 01f0 00F02681 		beq	.L233
 1920 01f4 232E     		cmp	r6, #35
 1921 01f6 00F02381 		beq	.L233
 1922 01fa 102E     		cmp	r6, #16
 1923 01fc 00F0E780 		beq	.L234
 1924 0200 B2E1     		b	.L300
 1925              	.L299:
 1926              	.LVL194:
 1927              	.LBB41:
 1928              	.LBB42:
 528:src/iface.c   **** 
 1929              		.loc 1 528 0
 1930 0202 97F81A36 		ldrb	r3, [r7, #1562]	@ zero_extendqisi2
 527:src/iface.c   ****   pRCode[iLen++] = gbMode;
 1931              		.loc 1 527 0
 1932 0206 6C73     		strb	r4, [r5, #13]
 1933              	.LVL195:
 528:src/iface.c   **** 
 1934              		.loc 1 528 0
 1935 0208 AB73     		strb	r3, [r5, #14]
 531:src/iface.c   ****   if (i > 0) {
 1936              		.loc 1 531 0
 1937 020a 07F12300 		add	r0, r7, #35
 1938 020e FFF7FEFF 		bl	WGet
ARM GAS  C:\Users\AHMED~1.ELE\AppData\Local\Temp\ccqMlapz.s 			page 63


 1939              	.LVL196:
 532:src/iface.c   ****     memcpy(pRCode+iLen, aReqMsg+OSET_REQ_DATA, i);
 1940              		.loc 1 532 0
 1941 0212 0446     		mov	r4, r0
 1942 0214 30B1     		cbz	r0, .L235
 533:src/iface.c   ****   }
 1943              		.loc 1 533 0
 1944 0216 05F10F00 		add	r0, r5, #15
 1945              	.LVL197:
 1946 021a 07F12501 		add	r1, r7, #37
 1947 021e 2246     		mov	r2, r4
 1948 0220 FFF7FEFF 		bl	memcpy
 1949              	.LVL198:
 1950              	.L235:
 535:src/iface.c   **** 
 1951              		.loc 1 535 0
 1952 0224 A11C     		adds	r1, r4, #2
 1953              	.LVL199:
 538:src/iface.c   ****   iLen += 2;
 1954              		.loc 1 538 0
 1955 0226 05F10B00 		add	r0, r5, #11
 1956 022a 89B2     		uxth	r1, r1
 1957              	.LVL200:
 1958 022c FFF7FEFF 		bl	WPut
 1959              	.LVL201:
 539:src/iface.c   **** 
 1960              		.loc 1 539 0
 1961 0230 201D     		adds	r0, r4, #4
 1962              	.LVL202:
 1963 0232 9DE1     		b	.L236
 1964              	.LVL203:
 1965              	.L230:
 1966              	.LBE42:
 1967              	.LBE41:
 1968              	.LBB43:
 1969              	.LBB44:
 559:src/iface.c   **** 
 1970              		.loc 1 559 0
 1971 0234 0020     		movs	r0, #0
 1972 0236 FF21     		movs	r1, #255
 1973 0238 0246     		mov	r2, r0
 558:src/iface.c   ****   keyPut(NULL, ANY_SKEY, 0x00);
 1974              		.loc 1 558 0
 1975 023a 87F81A46 		strb	r4, [r7, #1562]
 559:src/iface.c   **** 
 1976              		.loc 1 559 0
 1977 023e FFF7FEFF 		bl	keyPut
 1978              	.LVL204:
 564:src/iface.c   **** 
 1979              		.loc 1 564 0
 1980 0242 6C73     		strb	r4, [r5, #13]
 567:src/iface.c   ****   iLen += 2;
 1981              		.loc 1 567 0
 1982 0244 05F10B00 		add	r0, r5, #11
 1983 0248 3146     		mov	r1, r6
 1984 024a F6E0     		b	.L308
 1985              	.L316:
ARM GAS  C:\Users\AHMED~1.ELE\AppData\Local\Temp\ccqMlapz.s 			page 64


 1986              		.align	2
 1987              	.L315:
 1988 024c 00000000 		.word	.LANCHOR1
 1989 0250 1F000000 		.word	.LANCHOR1+31
 1990 0254 19000000 		.word	.LANCHOR1+25
 1991              	.LVL205:
 1992              	.L314:
 1993              	.LBE44:
 1994              	.LBE43:
 1995              	.LBB45:
 1996              	.LBB46:
 587:src/iface.c   ****   if (i < 10) {
 1997              		.loc 1 587 0
 1998 0258 07F12300 		add	r0, r7, #35
 1999 025c FFF7FEFF 		bl	WGet
 2000              	.LVL206:
 588:src/iface.c   ****     return errRspData(S3RC_ERR_DATA, aRspMsg, aReqMsg, aReqLen);
 2001              		.loc 1 588 0
 2002 0260 0928     		cmp	r0, #9
 2003 0262 40F3BA80 		ble	.L312
 596:src/iface.c   ****   memcpy(buf, abRRand+4, 4);
 2004              		.loc 1 596 0
 2005 0266 06AE     		add	r6, sp, #24
 2006 0268 3046     		mov	r0, r6
 2007              	.LVL207:
 2008 026a 0821     		movs	r1, #8
 591:src/iface.c   ****   bKIdx = aReqMsg[OSET_REQ_DATA+1];
 2009              		.loc 1 591 0
 2010 026c 97F825A0 		ldrb	r10, [r7, #37]	@ zero_extendqisi2
 2011              	.LVL208:
 592:src/iface.c   ****   pTRand = aReqMsg + OSET_REQ_DATA + 2;
 2012              		.loc 1 592 0
 2013 0270 97F82680 		ldrb	r8, [r7, #38]	@ zero_extendqisi2
 2014              	.LVL209:
 596:src/iface.c   ****   memcpy(buf, abRRand+4, 4);
 2015              		.loc 1 596 0
 2016 0274 FFF7FEFF 		bl	Random
 2017              	.LVL210:
 597:src/iface.c   ****   memcpy(buf+4, pTRand, 4);
 2018              		.loc 1 597 0
 2019 0278 079B     		ldr	r3, [sp, #28]
 598:src/iface.c   ****   memcpy(buf+8, abRRand, 4);
 2020              		.loc 1 598 0
 2021 027a 07F12701 		add	r1, r7, #39
 2022 027e 0422     		movs	r2, #4
 2023 0280 09A8     		add	r0, sp, #36
 597:src/iface.c   ****   memcpy(buf+4, pTRand, 4);
 2024              		.loc 1 597 0
 2025 0282 0893     		str	r3, [sp, #32]
 598:src/iface.c   ****   memcpy(buf+8, abRRand, 4);
 2026              		.loc 1 598 0
 2027 0284 FFF7FEFF 		bl	memcpy
 2028              	.LVL211:
 601:src/iface.c   ****       || (keyPut(buf, bKType|SKEY_MASK, bKIdx) == FALSE)) {
 2029              		.loc 1 601 0
 2030 0288 4FF01009 		mov	r9, #16
 599:src/iface.c   ****   memcpy(buf+12, pTRand+4, 4);
ARM GAS  C:\Users\AHMED~1.ELE\AppData\Local\Temp\ccqMlapz.s 			page 65


 2031              		.loc 1 599 0
 2032 028c 069B     		ldr	r3, [sp, #24]
 600:src/iface.c   ****   if ((encrypt(S3TDES, bKType, bKIdx, buf, 16) == FALSE)
 2033              		.loc 1 600 0
 2034 028e 07F12B01 		add	r1, r7, #43
 2035 0292 0422     		movs	r2, #4
 2036 0294 0BA8     		add	r0, sp, #44
 599:src/iface.c   ****   memcpy(buf+12, pTRand+4, 4);
 2037              		.loc 1 599 0
 2038 0296 0A93     		str	r3, [sp, #40]
 600:src/iface.c   ****   if ((encrypt(S3TDES, bKType, bKIdx, buf, 16) == FALSE)
 2039              		.loc 1 600 0
 2040 0298 FFF7FEFF 		bl	memcpy
 2041              	.LVL212:
 601:src/iface.c   ****       || (keyPut(buf, bKType|SKEY_MASK, bKIdx) == FALSE)) {
 2042              		.loc 1 601 0
 2043 029c CDF80090 		str	r9, [sp]
 2044 02a0 0320     		movs	r0, #3
 2045 02a2 5146     		mov	r1, r10
 2046 02a4 4246     		mov	r2, r8
 2047 02a6 08AB     		add	r3, sp, #32
 2048 02a8 FFF7FEFF 		bl	encrypt
 2049              	.LVL213:
 2050 02ac 0028     		cmp	r0, #0
 2051 02ae 00F0A980 		beq	.L311
 602:src/iface.c   ****     return errRspData(S3RC_ERR_KEY, aRspMsg, aReqMsg, aReqLen);
 2052              		.loc 1 602 0
 2053 02b2 4AF0800B 		orr	fp, r10, #128
 2054 02b6 08A8     		add	r0, sp, #32
 2055 02b8 5946     		mov	r1, fp
 2056 02ba 4246     		mov	r2, r8
 2057 02bc FFF7FEFF 		bl	keyPut
 2058              	.LVL214:
 2059 02c0 0028     		cmp	r0, #0
 2060 02c2 00F09F80 		beq	.L311
 607:src/iface.c   ****   memcpy(buf+8, abRRand, 8);
 2061              		.loc 1 607 0
 2062 02c6 07F12701 		add	r1, r7, #39
 2063 02ca 0822     		movs	r2, #8
 2064 02cc 08A8     		add	r0, sp, #32
 2065 02ce FFF7FEFF 		bl	memcpy
 2066              	.LVL215:
 608:src/iface.c   ****   if (encrypt(S3TDES, bKType|SKEY_MASK, bKIdx, buf, 16) == FALSE) {
 2067              		.loc 1 608 0
 2068 02d2 0CAB     		add	r3, sp, #48
 2069 02d4 96E80300 		ldmia	r6, {r0, r1}
 609:src/iface.c   ****     return errRspData(S3RC_ERR_KEY, aRspMsg, aReqMsg, aReqLen);
 2070              		.loc 1 609 0
 2071 02d8 4246     		mov	r2, r8
 608:src/iface.c   ****   if (encrypt(S3TDES, bKType|SKEY_MASK, bKIdx, buf, 16) == FALSE) {
 2072              		.loc 1 608 0
 2073 02da 03E90300 		stmdb	r3, {r0, r1}
 609:src/iface.c   ****     return errRspData(S3RC_ERR_KEY, aRspMsg, aReqMsg, aReqLen);
 2074              		.loc 1 609 0
 2075 02de CDF80090 		str	r9, [sp]
 2076 02e2 0320     		movs	r0, #3
 2077 02e4 5946     		mov	r1, fp
ARM GAS  C:\Users\AHMED~1.ELE\AppData\Local\Temp\ccqMlapz.s 			page 66


 2078 02e6 08AB     		add	r3, sp, #32
 2079 02e8 FFF7FEFF 		bl	encrypt
 2080              	.LVL216:
 2081 02ec 0028     		cmp	r0, #0
 2082 02ee 00F08980 		beq	.L311
 615:src/iface.c   ****   memcpy(gabTRand, pTRand, 8);  // save for mutu auth
 2083              		.loc 1 615 0
 2084 02f2 3146     		mov	r1, r6
 2085 02f4 0822     		movs	r2, #8
 2086 02f6 A348     		ldr	r0, .L317
 614:src/iface.c   ****   memcpy(gabRRand, abRRand, 8); // save for mutu auth
 2087              		.loc 1 614 0
 2088 02f8 87F81A46 		strb	r4, [r7, #1562]
 615:src/iface.c   ****   memcpy(gabTRand, pTRand, 8);  // save for mutu auth
 2089              		.loc 1 615 0
 2090 02fc FFF7FEFF 		bl	memcpy
 2091              	.LVL217:
 616:src/iface.c   **** 
 2092              		.loc 1 616 0
 2093 0300 07F12701 		add	r1, r7, #39
 2094 0304 0822     		movs	r2, #8
 2095 0306 07F54960 		add	r0, r7, #3216
 2096 030a FFF7FEFF 		bl	memcpy
 2097              	.LVL218:
 625:src/iface.c   ****   iLen += 8;
 2098              		.loc 1 625 0
 2099 030e 3146     		mov	r1, r6
 2100 0310 0822     		movs	r2, #8
 621:src/iface.c   **** 
 2101              		.loc 1 621 0
 2102 0312 6C73     		strb	r4, [r5, #13]
 2103              	.LVL219:
 623:src/iface.c   ****   pRCode[iLen++] = bKIdx;
 2104              		.loc 1 623 0
 2105 0314 85F80EA0 		strb	r10, [r5, #14]
 2106              	.LVL220:
 624:src/iface.c   ****   memcpy(pRCode+iLen, abRRand, 8);
 2107              		.loc 1 624 0
 2108 0318 85F80F80 		strb	r8, [r5, #15]
 625:src/iface.c   ****   iLen += 8;
 2109              		.loc 1 625 0
 2110 031c 05F11000 		add	r0, r5, #16
 2111 0320 FFF7FEFF 		bl	memcpy
 2112              	.LVL221:
 627:src/iface.c   ****   iLen += 16;
 2113              		.loc 1 627 0
 2114 0324 08A9     		add	r1, sp, #32
 2115 0326 05F11800 		add	r0, r5, #24
 2116 032a 4A46     		mov	r2, r9
 2117 032c FFF7FEFF 		bl	memcpy
 2118              	.LVL222:
 631:src/iface.c   ****   iLen += 2;
 2119              		.loc 1 631 0
 2120 0330 05F10B00 		add	r0, r5, #11
 2121 0334 1B21     		movs	r1, #27
 2122 0336 80E0     		b	.L308
 2123              	.LVL223:
ARM GAS  C:\Users\AHMED~1.ELE\AppData\Local\Temp\ccqMlapz.s 			page 67


 2124              	.L228:
 2125              	.LBE46:
 2126              	.LBE45:
 2127              	.LBB47:
 2128              	.LBB48:
 651:src/iface.c   ****   if (i < 19) {
 2129              		.loc 1 651 0
 2130 0338 07F12300 		add	r0, r7, #35
 2131 033c FFF7FEFF 		bl	WGet
 2132              	.LVL224:
 652:src/iface.c   ****     return errRspData(S3RC_ERR_DATA, aRspMsg, aReqMsg, aReqLen);
 2133              		.loc 1 652 0
 2134 0340 1228     		cmp	r0, #18
 2135 0342 4ADD     		ble	.L312
 661:src/iface.c   ****   memcpy(buf+4, gabRRand, 4);
 2136              		.loc 1 661 0
 2137 0344 9049     		ldr	r1, .L317+4
 2138 0346 0422     		movs	r2, #4
 2139 0348 08A8     		add	r0, sp, #32
 2140              	.LVL225:
 655:src/iface.c   ****   bKIdx = aReqMsg[OSET_REQ_DATA+1];
 2141              		.loc 1 655 0
 2142 034a 97F825B0 		ldrb	fp, [r7, #37]	@ zero_extendqisi2
 2143              	.LVL226:
 656:src/iface.c   ****   pERand = aReqMsg + OSET_REQ_DATA + 2;
 2144              		.loc 1 656 0
 2145 034e 97F826A0 		ldrb	r10, [r7, #38]	@ zero_extendqisi2
 2146              	.LVL227:
 658:src/iface.c   **** 
 2147              		.loc 1 658 0
 2148 0352 97F83790 		ldrb	r9, [r7, #55]	@ zero_extendqisi2
 2149              	.LVL228:
 661:src/iface.c   ****   memcpy(buf+4, gabRRand, 4);
 2150              		.loc 1 661 0
 2151 0356 FFF7FEFF 		bl	memcpy
 2152              	.LVL229:
 662:src/iface.c   ****   memcpy(buf+8, gabTRand, 4);
 2153              		.loc 1 662 0
 2154 035a 8A49     		ldr	r1, .L317
 2155 035c 0422     		movs	r2, #4
 2156 035e 09A8     		add	r0, sp, #36
 2157 0360 FFF7FEFF 		bl	memcpy
 2158              	.LVL230:
 665:src/iface.c   ****     return errRspData(S3RC_ERR_KEY, aRspMsg, aReqMsg, aReqLen);
 2159              		.loc 1 665 0
 2160 0364 4FF01008 		mov	r8, #16
 2161              	.LVL231:
 663:src/iface.c   ****   memcpy(buf+12, gabRRand+4, 4);
 2162              		.loc 1 663 0
 2163 0368 07F54961 		add	r1, r7, #3216
 2164 036c 0422     		movs	r2, #4
 2165 036e 0AA8     		add	r0, sp, #40
 2166 0370 FFF7FEFF 		bl	memcpy
 2167              	.LVL232:
 664:src/iface.c   ****   if (encrypt(S3TDES, bKType|SKEY_MASK, bKIdx, buf, 16) == FALSE) {
 2168              		.loc 1 664 0
 2169 0374 8549     		ldr	r1, .L317+8
ARM GAS  C:\Users\AHMED~1.ELE\AppData\Local\Temp\ccqMlapz.s 			page 68


 2170 0376 0422     		movs	r2, #4
 2171 0378 0BA8     		add	r0, sp, #44
 2172 037a FFF7FEFF 		bl	memcpy
 2173              	.LVL233:
 665:src/iface.c   ****     return errRspData(S3RC_ERR_KEY, aRspMsg, aReqMsg, aReqLen);
 2174              		.loc 1 665 0
 2175 037e CDF80080 		str	r8, [sp]
 2176 0382 3046     		mov	r0, r6
 2177 0384 4BF08001 		orr	r1, fp, #128
 2178 0388 5246     		mov	r2, r10
 2179 038a 08AB     		add	r3, sp, #32
 2180 038c FFF7FEFF 		bl	encrypt
 2181              	.LVL234:
 2182 0390 C0B3     		cbz	r0, .L311
 668:src/iface.c   ****     return errRspData(S3RC_ERR_KEY, aRspMsg, aReqMsg, aReqLen);
 2183              		.loc 1 668 0
 2184 0392 07F12700 		add	r0, r7, #39
 2185 0396 08A9     		add	r1, sp, #32
 2186 0398 4246     		mov	r2, r8
 2187 039a FFF7FEFF 		bl	memcmp
 2188              	.LVL235:
 2189 039e 0646     		mov	r6, r0
 2190 03a0 80BB     		cbnz	r0, .L311
 674:src/iface.c   ****   memset(gabTRand, 0x00, 8);
 2191              		.loc 1 674 0
 2192 03a2 4FF00108 		mov	r8, #1
 675:src/iface.c   ****   memset(gabRRand, 0x00, 8);
 2193              		.loc 1 675 0
 2194 03a6 3146     		mov	r1, r6
 2195 03a8 0822     		movs	r2, #8
 2196 03aa 07F54960 		add	r0, r7, #3216
 673:src/iface.c   ****   gwSeqNum = 1;
 2197              		.loc 1 673 0
 2198 03ae 87F81A96 		strb	r9, [r7, #1562]
 674:src/iface.c   ****   memset(gabTRand, 0x00, 8);
 2199              		.loc 1 674 0
 2200 03b2 A7F81886 		strh	r8, [r7, #1560]	@ movhi
 675:src/iface.c   ****   memset(gabRRand, 0x00, 8);
 2201              		.loc 1 675 0
 2202 03b6 FFF7FEFF 		bl	memset
 2203              	.LVL236:
 676:src/iface.c   **** 
 2204              		.loc 1 676 0
 2205 03ba 3146     		mov	r1, r6
 2206 03bc 7148     		ldr	r0, .L317
 2207 03be 0822     		movs	r2, #8
 2208 03c0 FFF7FEFF 		bl	memset
 2209              	.LVL237:
 681:src/iface.c   **** 
 2210              		.loc 1 681 0
 2211 03c4 6C73     		strb	r4, [r5, #13]
 684:src/iface.c   ****   iLen += 2;
 2212              		.loc 1 684 0
 2213 03c6 05F10B00 		add	r0, r5, #11
 2214 03ca 4146     		mov	r1, r8
 2215 03cc 35E0     		b	.L308
 2216              	.LVL238:
ARM GAS  C:\Users\AHMED~1.ELE\AppData\Local\Temp\ccqMlapz.s 			page 69


 2217              	.L234:
 2218              	.LBE48:
 2219              	.LBE47:
 2220              	.LBB49:
 2221              	.LBB50:
 704:src/iface.c   ****   if (i < 22) {
 2222              		.loc 1 704 0
 2223 03ce 07F12300 		add	r0, r7, #35
 2224 03d2 FFF7FEFF 		bl	WGet
 2225              	.LVL239:
 705:src/iface.c   ****     return errRspData(S3RC_ERR_DATA, aRspMsg, aReqMsg, aReqLen);
 2226              		.loc 1 705 0
 2227 03d6 1528     		cmp	r0, #21
 2228 03d8 01DC     		bgt	.L246
 2229              	.LVL240:
 2230              	.L312:
 706:src/iface.c   ****   }
 2231              		.loc 1 706 0
 2232 03da 8220     		movs	r0, #130
 2233 03dc C5E0     		b	.L307
 2234              	.LVL241:
 2235              	.L246:
 708:src/iface.c   ****   bKIdx = aReqMsg[OSET_REQ_DATA+1];
 2236              		.loc 1 708 0
 2237 03de 97F82590 		ldrb	r9, [r7, #37]	@ zero_extendqisi2
 2238              	.LVL242:
 709:src/iface.c   ****   pEKey = aReqMsg + OSET_REQ_DATA + 2;
 2239              		.loc 1 709 0
 2240 03e2 97F82680 		ldrb	r8, [r7, #38]	@ zero_extendqisi2
 2241              	.LVL243:
 714:src/iface.c   ****   if (encrypt(S3TDES2, bKType|SKEY_MASK, bKIdx, buf, 16) == FALSE) {
 2242              		.loc 1 714 0
 2243 03e6 07F12701 		add	r1, r7, #39
 2244 03ea 3246     		mov	r2, r6
 2245 03ec 08A8     		add	r0, sp, #32
 2246              	.LVL244:
 2247 03ee FFF7FEFF 		bl	memcpy
 2248              	.LVL245:
 715:src/iface.c   ****     return errRspData(S3RC_ERR_KEY, aRspMsg, aReqMsg, aReqLen);
 2249              		.loc 1 715 0
 2250 03f2 0096     		str	r6, [sp]
 2251 03f4 0420     		movs	r0, #4
 2252 03f6 49F08001 		orr	r1, r9, #128
 2253 03fa 4246     		mov	r2, r8
 2254 03fc 08AB     		add	r3, sp, #32
 2255 03fe FFF7FEFF 		bl	encrypt
 2256              	.LVL246:
 2257 0402 08B9     		cbnz	r0, .L248
 2258              	.LVL247:
 2259              	.L311:
 716:src/iface.c   ****   }
 2260              		.loc 1 716 0
 2261 0404 8520     		movs	r0, #133
 2262 0406 B0E0     		b	.L307
 2263              	.LVL248:
 2264              	.L248:
 721:src/iface.c   ****   if (memcmp(pKvc, abKvc, 4) != 0) { // KVC not match
ARM GAS  C:\Users\AHMED~1.ELE\AppData\Local\Temp\ccqMlapz.s 			page 70


 2265              		.loc 1 721 0
 2266 0408 08A8     		add	r0, sp, #32
 2267 040a 06A9     		add	r1, sp, #24
 2268 040c 0822     		movs	r2, #8
 720:src/iface.c   ****   TDes(buf, abKvc, 8);
 2269              		.loc 1 720 0
 2270 040e 0694     		str	r4, [sp, #24]
 2271 0410 0794     		str	r4, [sp, #28]
 721:src/iface.c   ****   if (memcmp(pKvc, abKvc, 4) != 0) { // KVC not match
 2272              		.loc 1 721 0
 2273 0412 FFF7FEFF 		bl	TDes
 2274              	.LVL249:
 722:src/iface.c   ****     return errRspData(S3RC_ERR_KVC, aRspMsg, aReqMsg, aReqLen);
 2275              		.loc 1 722 0
 2276 0416 07F13700 		add	r0, r7, #55
 2277 041a 06A9     		add	r1, sp, #24
 2278 041c 0422     		movs	r2, #4
 2279 041e FFF7FEFF 		bl	memcmp
 2280              	.LVL250:
 2281 0422 08B1     		cbz	r0, .L249
 723:src/iface.c   ****   }
 2282              		.loc 1 723 0
 2283 0424 8720     		movs	r0, #135
 2284 0426 A0E0     		b	.L307
 2285              	.L249:
 727:src/iface.c   **** 
 2286              		.loc 1 727 0
 2287 0428 4946     		mov	r1, r9
 2288 042a 08A8     		add	r0, sp, #32
 2289 042c 4246     		mov	r2, r8
 2290 042e FFF7FEFF 		bl	keyPut
 2291              	.LVL251:
 735:src/iface.c   ****   iLen += 2;
 2292              		.loc 1 735 0
 2293 0432 05F10B00 		add	r0, r5, #11
 2294 0436 0121     		movs	r1, #1
 732:src/iface.c   **** 
 2295              		.loc 1 732 0
 2296 0438 6C73     		strb	r4, [r5, #13]
 2297              	.LVL252:
 2298              	.L308:
 735:src/iface.c   ****   iLen += 2;
 2299              		.loc 1 735 0
 2300 043a FFF7FEFF 		bl	WPut
 2301              	.LVL253:
 2302 043e 99E0     		b	.L301
 2303              	.LVL254:
 2304              	.L233:
 2305              	.LBE50:
 2306              	.LBE49:
 997:src/iface.c   ****       memcpy(gGDS->s_ecr_data.sb_content, "\xDF\x04\x06", 3);             // ECR Amount
 2307              		.loc 1 997 0
 2308 0440 534E     		ldr	r6, .L317+12
 994:src/iface.c   ****       LongBeep();
 2309              		.loc 1 994 0
 2310 0442 FFF7FEFF 		bl	ClearResponse
 2311              	.LVL255:
ARM GAS  C:\Users\AHMED~1.ELE\AppData\Local\Temp\ccqMlapz.s 			page 71


 995:src/iface.c   ****       // convert to existing ECR interface
 2312              		.loc 1 995 0
 2313 0446 FFF7FEFF 		bl	LongBeep
 2314              	.LVL256:
 997:src/iface.c   ****       memcpy(gGDS->s_ecr_data.sb_content, "\xDF\x04\x06", 3);             // ECR Amount
 2315              		.loc 1 997 0
 2316 044a 0123     		movs	r3, #1
 2317 044c 3468     		ldr	r4, [r6]
 998:src/iface.c   ****       memcpy(&gGDS->s_ecr_data.sb_content[3], aReqMsg+OSET_REQ_DATA, 6);  // Copy from Request
 2318              		.loc 1 998 0
 2319 044e 5149     		ldr	r1, .L317+16
 997:src/iface.c   ****       memcpy(gGDS->s_ecr_data.sb_content, "\xDF\x04\x06", 3);             // ECR Amount
 2320              		.loc 1 997 0
 2321 0450 04F57154 		add	r4, r4, #15424
 998:src/iface.c   ****       memcpy(&gGDS->s_ecr_data.sb_content[3], aReqMsg+OSET_REQ_DATA, 6);  // Copy from Request
 2322              		.loc 1 998 0
 2323 0454 04F11A00 		add	r0, r4, #26
 997:src/iface.c   ****       memcpy(gGDS->s_ecr_data.sb_content, "\xDF\x04\x06", 3);             // ECR Amount
 2324              		.loc 1 997 0
 2325 0458 2376     		strb	r3, [r4, #24]
 998:src/iface.c   ****       memcpy(&gGDS->s_ecr_data.sb_content[3], aReqMsg+OSET_REQ_DATA, 6);  // Copy from Request
 2326              		.loc 1 998 0
 2327 045a 0322     		movs	r2, #3
 2328 045c FFF7FEFF 		bl	memcpy
 2329              	.LVL257:
 999:src/iface.c   ****       pbTlv = TlvSeek(aReqMsg+OSET_REQ_DATA+6, aReqLen-OSET_REQ_DATA-6, ITFTAG_TXNTYPE);
 2330              		.loc 1 999 0
 2331 0460 04F11D00 		add	r0, r4, #29
 2332 0464 4C49     		ldr	r1, .L317+20
 2333 0466 0622     		movs	r2, #6
 2334 0468 FFF7FEFF 		bl	memcpy
 2335              	.LVL258:
1000:src/iface.c   ****       if (pbTlv != NULL) {
 2336              		.loc 1 1000 0
 2337 046c A8F11301 		sub	r1, r8, #19
 2338 0470 4FF47F42 		mov	r2, #65280
 2339 0474 8CB2     		uxth	r4, r1
 2340 0476 4948     		ldr	r0, .L317+24
 2341 0478 2146     		mov	r1, r4
 2342 047a FFF7FEFF 		bl	TlvSeek
 2343              	.LVL259:
1001:src/iface.c   ****         pb = TlvVPtr(pbTlv);
 2344              		.loc 1 1001 0
 2345 047e 0246     		mov	r2, r0
 2346 0480 10B1     		cbz	r0, .L250
1002:src/iface.c   ****         gGDS->s_ecr_data.b_cmd = *pb;
 2347              		.loc 1 1002 0
 2348 0482 FFF7FEFF 		bl	TlvVPtr
 2349              	.LVL260:
1003:src/iface.c   ****       }
 2350              		.loc 1 1003 0
 2351 0486 0278     		ldrb	r2, [r0]	@ zero_extendqisi2
 2352              	.LVL261:
 2353              	.L250:
1006:src/iface.c   ****       gGDS->i_ecr_len = 11;
 2354              		.loc 1 1006 0
 2355 0488 3368     		ldr	r3, [r6]
ARM GAS  C:\Users\AHMED~1.ELE\AppData\Local\Temp\ccqMlapz.s 			page 72


1008:src/iface.c   ****       switch (gGDS->s_ecr_data.b_cmd) {
 2356              		.loc 1 1008 0
 2357 048a 4548     		ldr	r0, .L317+28
1006:src/iface.c   ****       gGDS->i_ecr_len = 11;
 2358              		.loc 1 1006 0
 2359 048c 03F57153 		add	r3, r3, #15424
1008:src/iface.c   ****       switch (gGDS->s_ecr_data.b_cmd) {
 2360              		.loc 1 1008 0
 2361 0490 0021     		movs	r1, #0
1006:src/iface.c   ****       gGDS->i_ecr_len = 11;
 2362              		.loc 1 1006 0
 2363 0492 5A76     		strb	r2, [r3, #25]
1007:src/iface.c   ****       memset(&gTermTotal, 0, sizeof(struct TOTAL_STRUCT));
 2364              		.loc 1 1007 0
 2365 0494 3768     		ldr	r7, [r6]
 2366 0496 0B22     		movs	r2, #11
 2367 0498 07F58443 		add	r3, r7, #16896
1009:src/iface.c   ****         case ECR_EDC_SALE:
 2368              		.loc 1 1009 0
 2369 049c 07F57157 		add	r7, r7, #15424
1007:src/iface.c   ****       memset(&gTermTotal, 0, sizeof(struct TOTAL_STRUCT));
 2370              		.loc 1 1007 0
 2371 04a0 DA65     		str	r2, [r3, #92]
1008:src/iface.c   ****       switch (gGDS->s_ecr_data.b_cmd) {
 2372              		.loc 1 1008 0
 2373 04a2 6822     		movs	r2, #104
 2374 04a4 FFF7FEFF 		bl	memset
 2375              	.LVL262:
1009:src/iface.c   ****         case ECR_EDC_SALE:
 2376              		.loc 1 1009 0
 2377 04a8 7B7E     		ldrb	r3, [r7, #25]	@ zero_extendqisi2
 2378 04aa 092B     		cmp	r3, #9
 2379 04ac 2ED8     		bhi	.L265
 2380 04ae DFE803F0 		tbb	[pc, r3]
 2381              	.L254:
 2382 04b2 05       		.byte	(.L253-.L254)/2
 2383 04b3 07       		.byte	(.L255-.L254)/2
 2384 04b4 09       		.byte	(.L256-.L254)/2
 2385 04b5 0B       		.byte	(.L257-.L254)/2
 2386 04b6 2D       		.byte	(.L265-.L254)/2
 2387 04b7 2D       		.byte	(.L265-.L254)/2
 2388 04b8 2D       		.byte	(.L265-.L254)/2
 2389 04b9 23       		.byte	(.L258-.L254)/2
 2390 04ba 26       		.byte	(.L259-.L254)/2
 2391 04bb 2A       		.byte	(.L260-.L254)/2
 2392              		.p2align 1
 2393              	.L253:
1011:src/iface.c   ****           break;
 2394              		.loc 1 1011 0
 2395 04bc 0220     		movs	r0, #2
 2396 04be 1FE0     		b	.L306
 2397              	.L255:
1014:src/iface.c   ****           break;
 2398              		.loc 1 1014 0
 2399 04c0 0720     		movs	r0, #7
 2400 04c2 1DE0     		b	.L306
 2401              	.L256:
ARM GAS  C:\Users\AHMED~1.ELE\AppData\Local\Temp\ccqMlapz.s 			page 73


1017:src/iface.c   ****           break;
 2402              		.loc 1 1017 0
 2403 04c4 0620     		movs	r0, #6
 2404 04c6 1BE0     		b	.L306
 2405              	.L257:
1020:src/iface.c   ****           if (pbTlv != NULL)
 2406              		.loc 1 1020 0
 2407 04c8 3448     		ldr	r0, .L317+24
 2408 04ca 2146     		mov	r1, r4
 2409 04cc 49F64172 		movw	r2, #40769
 2410 04d0 FFF7FEFF 		bl	TlvSeek
 2411              	.LVL263:
1021:src/iface.c   ****             memcpy(INPUT.sb_roc_no, TlvVPtr(pbTlv), TlvLen(pbTlv));
 2412              		.loc 1 1021 0
 2413 04d4 0746     		mov	r7, r0
 2414 04d6 50B1     		cbz	r0, .L262
1022:src/iface.c   ****           ret = ItfVoid();
 2415              		.loc 1 1022 0
 2416 04d8 FFF7FEFF 		bl	TlvVPtr
 2417              	.LVL264:
 2418 04dc 0446     		mov	r4, r0
 2419 04de 3846     		mov	r0, r7
 2420 04e0 FFF7FEFF 		bl	TlvLen
 2421              	.LVL265:
 2422 04e4 2146     		mov	r1, r4
 2423 04e6 0246     		mov	r2, r0
 2424 04e8 2E48     		ldr	r0, .L317+32
 2425 04ea FFF7FEFF 		bl	memcpy
 2426              	.LVL266:
 2427              	.L262:
 2428              	.LBB51:
 2429              	.LBB52:
 920:src/iface.c   ****   return TXN_OK;
 2430              		.loc 1 920 0
 2431 04ee 4FF0FF30 		mov	r0, #-1
 2432 04f2 FFF7FEFF 		bl	VoidTrans
 2433              	.LVL267:
 2434 04f6 09E0     		b	.L265
 2435              	.LVL268:
 2436              	.L258:
 2437              	.LBE52:
 2438              	.LBE51:
1026:src/iface.c   ****           break;
 2439              		.loc 1 1026 0
 2440 04f8 FFF7FEFF 		bl	ItfHostTot
 2441              	.LVL269:
 2442 04fc 05E0     		b	.L261
 2443              	.LVL270:
 2444              	.L259:
1029:src/iface.c   ****           break;
 2445              		.loc 1 1029 0
 2446 04fe 0020     		movs	r0, #0
 2447              	.L306:
 2448 0500 FFF7FEFF 		bl	WaitCardTrans
 2449              	.LVL271:
 2450 0504 01E0     		b	.L261
 2451              	.LVL272:
ARM GAS  C:\Users\AHMED~1.ELE\AppData\Local\Temp\ccqMlapz.s 			page 74


 2452              	.L260:
1032:src/iface.c   ****           break;
 2453              		.loc 1 1032 0
 2454 0506 FFF7FEFF 		bl	ItfSettle
 2455              	.LVL273:
 2456              	.L261:
1035:src/iface.c   ****         packFullEmvData(&sOut);
 2457              		.loc 1 1035 0
 2458 050a F8B1     		cbz	r0, .L263
 2459              	.LVL274:
 2460              	.L265:
1036:src/iface.c   ****         iLen = setFullEmvData(S3RC_OK, 0, aRspMsg, &sOut);
 2461              		.loc 1 1036 0
 2462 050c 04A8     		add	r0, sp, #16
 2463 050e FFF7FEFF 		bl	packFullEmvData
 2464              	.LVL275:
 2465              	.LBB53:
 2466              	.LBB54:
 760:src/iface.c   ****   UPut(pRCode+iLen, aEId);
 2467              		.loc 1 760 0
 2468 0512 0021     		movs	r1, #0
 761:src/iface.c   ****   iLen += 4;
 2469              		.loc 1 761 0
 2470 0514 05F10E00 		add	r0, r5, #14
 760:src/iface.c   ****   UPut(pRCode+iLen, aEId);
 2471              		.loc 1 760 0
 2472 0518 6973     		strb	r1, [r5, #13]
 761:src/iface.c   ****   iLen += 4;
 2473              		.loc 1 761 0
 2474 051a FFF7FEFF 		bl	UPut
 2475              	.LVL276:
 763:src/iface.c   ****   iLen += 2;
 2476              		.loc 1 763 0
 2477 051e 05F11200 		add	r0, r5, #18
 2478 0522 BDF81010 		ldrh	r1, [sp, #16]
 2479 0526 FFF7FEFF 		bl	WPut
 2480              	.LVL277:
 765:src/iface.c   ****   iLen += asOut->wLen;
 2481              		.loc 1 765 0
 2482 052a BDF81040 		ldrh	r4, [sp, #16]
 2483 052e 0599     		ldr	r1, [sp, #20]
 2484 0530 2246     		mov	r2, r4
 2485 0532 05F11400 		add	r0, r5, #20
 2486 0536 FFF7FEFF 		bl	memcpy
 2487              	.LVL278:
 766:src/iface.c   **** 
 2488              		.loc 1 766 0
 2489 053a E11D     		adds	r1, r4, #7
 2490              	.LVL279:
 769:src/iface.c   ****   iLen += 2;
 2491              		.loc 1 769 0
 2492 053c 05F10B00 		add	r0, r5, #11
 2493 0540 89B2     		uxth	r1, r1
 2494              	.LVL280:
 2495 0542 FFF7FEFF 		bl	WPut
 2496              	.LVL281:
 770:src/iface.c   ****   return iLen;
ARM GAS  C:\Users\AHMED~1.ELE\AppData\Local\Temp\ccqMlapz.s 			page 75


 2497              		.loc 1 770 0
 2498 0546 04F10900 		add	r0, r4, #9
 2499              	.LVL282:
 2500 054a 03E0     		b	.L264
 2501              	.LVL283:
 2502              	.L263:
 2503              	.LBE54:
 2504              	.LBE53:
1040:src/iface.c   ****       gGDS->i_ecr_len = 0;
 2505              		.loc 1 1040 0
 2506 054c 4020     		movs	r0, #64
 2507              	.LVL284:
 2508 054e 2946     		mov	r1, r5
 2509 0550 FFF7FEFF 		bl	errRspData.isra.0
 2510              	.LVL285:
 2511              	.L264:
1041:src/iface.c   ****       ResetTerm();
 2512              		.loc 1 1041 0
 2513 0554 3368     		ldr	r3, [r6]
 2514 0556 0022     		movs	r2, #0
 2515 0558 03F58443 		add	r3, r3, #16896
 2516 055c 0390     		str	r0, [sp, #12]
 2517              	.LVL286:
 2518 055e DA65     		str	r2, [r3, #92]
1042:src/iface.c   ****       break;
 2519              		.loc 1 1042 0
 2520 0560 FFF7FEFF 		bl	ResetTerm
 2521              	.LVL287:
 2522 0564 0398     		ldr	r0, [sp, #12]
 2523 0566 03E0     		b	.L236
 2524              	.LVL288:
 2525              	.L300:
1046:src/iface.c   ****       break;
 2526              		.loc 1 1046 0
 2527 0568 8620     		movs	r0, #134
 2528              	.LVL289:
 2529              	.L307:
 2530 056a 2946     		mov	r1, r5
 2531 056c FFF7FEFF 		bl	errRspData.isra.0
 2532              	.LVL290:
 2533              	.L236:
 2534              	.LBE56:
 2535              	.LBE60:
1205:src/iface.c   ****     return iRet;
 2536              		.loc 1 1205 0
 2537 0570 0028     		cmp	r0, #0
 2538 0572 02DB     		blt	.L273
 2539              	.L301:
1208:src/iface.c   ****   return iRet;
 2540              		.loc 1 1208 0
 2541 0574 2846     		mov	r0, r5
 2542 0576 FFF7FEFF 		bl	rspPackFmt.isra.6.constprop.9
 2543              	.LVL291:
 2544              	.L273:
 2545 057a 0446     		mov	r4, r0
 2546              	.L225:
1210:src/iface.c   **** 
ARM GAS  C:\Users\AHMED~1.ELE\AppData\Local\Temp\ccqMlapz.s 			page 76


 2547              		.loc 1 1210 0
 2548 057c 2046     		mov	r0, r4
 2549 057e 0DB0     		add	sp, sp, #52
 2550              		.cfi_def_cfa_offset 36
 2551              		@ sp needed
 2552 0580 BDE8F08F 		pop	{r4, r5, r6, r7, r8, r9, r10, fp, pc}
 2553              	.LVL292:
 2554              	.L318:
 2555              		.align	2
 2556              	.L317:
 2557 0584 880C0000 		.word	.LANCHOR1+3208
 2558 0588 940C0000 		.word	.LANCHOR1+3220
 2559 058c 8C0C0000 		.word	.LANCHOR1+3212
 2560 0590 00000000 		.word	gGDS
 2561 0594 1A000000 		.word	.LC4
 2562 0598 25000000 		.word	.LANCHOR1+37
 2563 059c 2B000000 		.word	.LANCHOR1+43
 2564 05a0 20060000 		.word	.LANCHOR1+1568
 2565 05a4 06000000 		.word	gGTS+6
 2566              		.cfi_endproc
 2567              	.LFE19:
 2568              		.size	Spt3MsgHdr, .-Spt3MsgHdr
 2569              		.section	.text.IfaceInit,"ax",%progbits
 2570              		.align	1
 2571              		.global	IfaceInit
 2572              		.thumb
 2573              		.thumb_func
 2574              		.type	IfaceInit, %function
 2575              	IfaceInit:
 2576              	.LFB20:
1222:src/iface.c   ****   //return APM_IFACE_Open(aForceInit);
 2577              		.loc 1 1222 0
 2578              		.cfi_startproc
 2579              		@ args = 0, pretend = 0, frame = 0
 2580              		@ frame_needed = 0, uses_anonymous_args = 0
 2581              		@ link register save eliminated.
 2582              	.LVL293:
1225:src/iface.c   **** 
 2583              		.loc 1 1225 0
 2584 0000 0120     		movs	r0, #1
 2585              	.LVL294:
 2586 0002 7047     		bx	lr
 2587              		.cfi_endproc
 2588              	.LFE20:
 2589              		.size	IfaceInit, .-IfaceInit
 2590              		.section	.text.IfaceClose,"ax",%progbits
 2591              		.align	1
 2592              		.global	IfaceClose
 2593              		.thumb
 2594              		.thumb_func
 2595              		.type	IfaceClose, %function
 2596              	IfaceClose:
 2597              	.LFB21:
1236:src/iface.c   ****   //return APM_IFACE_Close();
 2598              		.loc 1 1236 0
 2599              		.cfi_startproc
 2600              		@ args = 0, pretend = 0, frame = 0
ARM GAS  C:\Users\AHMED~1.ELE\AppData\Local\Temp\ccqMlapz.s 			page 77


 2601              		@ frame_needed = 0, uses_anonymous_args = 0
 2602              		@ link register save eliminated.
1239:src/iface.c   **** 
 2603              		.loc 1 1239 0
 2604 0000 0120     		movs	r0, #1
 2605 0002 7047     		bx	lr
 2606              		.cfi_endproc
 2607              	.LFE21:
 2608              		.size	IfaceClose, .-IfaceClose
 2609              		.section	.text.debugAuxIface,"ax",%progbits
 2610              		.align	1
 2611              		.global	debugAuxIface
 2612              		.thumb
 2613              		.thumb_func
 2614              		.type	debugAuxIface, %function
 2615              	debugAuxIface:
 2616              	.LFB22:
1251:src/iface.c   ****   BYTE buf[20];
 2617              		.loc 1 1251 0
 2618              		.cfi_startproc
 2619              		@ args = 0, pretend = 0, frame = 24
 2620              		@ frame_needed = 0, uses_anonymous_args = 0
 2621              	.LVL295:
 2622 0000 2DE9F041 		push	{r4, r5, r6, r7, r8, lr}
 2623              		.cfi_def_cfa_offset 24
 2624              		.cfi_offset 4, -24
 2625              		.cfi_offset 5, -20
 2626              		.cfi_offset 6, -16
 2627              		.cfi_offset 7, -12
 2628              		.cfi_offset 8, -8
 2629              		.cfi_offset 14, -4
1256:src/iface.c   ****   if (txbuf == NULL)
 2630              		.loc 1 1256 0
 2631 0004 02F10A05 		add	r5, r2, #10
1251:src/iface.c   ****   BYTE buf[20];
 2632              		.loc 1 1251 0
 2633 0008 88B0     		sub	sp, sp, #32
 2634              		.cfi_def_cfa_offset 56
1256:src/iface.c   ****   if (txbuf == NULL)
 2635              		.loc 1 1256 0
 2636 000a 6D00     		lsls	r5, r5, #1
1251:src/iface.c   ****   BYTE buf[20];
 2637              		.loc 1 1251 0
 2638 000c 8046     		mov	r8, r0
 2639 000e 0F46     		mov	r7, r1
1256:src/iface.c   ****   if (txbuf == NULL)
 2640              		.loc 1 1256 0
 2641 0010 9220     		movs	r0, #146
 2642              	.LVL296:
 2643 0012 2946     		mov	r1, r5
 2644              	.LVL297:
1251:src/iface.c   ****   BYTE buf[20];
 2645              		.loc 1 1251 0
 2646 0014 1446     		mov	r4, r2
1256:src/iface.c   ****   if (txbuf == NULL)
 2647              		.loc 1 1256 0
 2648 0016 FFF7FEFF 		bl	sys_func1
ARM GAS  C:\Users\AHMED~1.ELE\AppData\Local\Temp\ccqMlapz.s 			page 78


 2649              	.LVL298:
1257:src/iface.c   ****     return;
 2650              		.loc 1 1257 0
 2651 001a 0646     		mov	r6, r0
 2652 001c 0028     		cmp	r0, #0
 2653 001e 68D0     		beq	.L321
1260:src/iface.c   ****   memset(buf, 0, sizeof(buf));
 2654              		.loc 1 1260 0
 2655 0020 2946     		mov	r1, r5
 2656 0022 FFF7FEFF 		bl	set_pptr
 2657              	.LVL299:
1261:src/iface.c   ****   if (aIn)
 2658              		.loc 1 1261 0
 2659 0026 03A8     		add	r0, sp, #12
 2660 0028 0021     		movs	r1, #0
 2661 002a 1422     		movs	r2, #20
 2662 002c FFF7FEFF 		bl	memset
 2663              	.LVL300:
1263:src/iface.c   ****   else
 2664              		.loc 1 1263 0
 2665 0030 03A8     		add	r0, sp, #12
1262:src/iface.c   ****     sprintf(buf, "Iface-In (%d):", aLen);
 2666              		.loc 1 1262 0
 2667 0032 B8F1000F 		cmp	r8, #0
 2668 0036 01D0     		beq	.L323
1263:src/iface.c   ****   else
 2669              		.loc 1 1263 0
 2670 0038 2F49     		ldr	r1, .L339
 2671 003a 00E0     		b	.L338
 2672              	.L323:
1265:src/iface.c   ****   pack_mem(buf, strlen(buf));
 2673              		.loc 1 1265 0
 2674 003c 2F49     		ldr	r1, .L339+4
 2675              	.L338:
 2676 003e 2246     		mov	r2, r4
 2677 0040 FFF7FEFF 		bl	sprintf
 2678              	.LVL301:
1266:src/iface.c   ****   split_data(pData, aLen);
 2679              		.loc 1 1266 0
 2680 0044 03A8     		add	r0, sp, #12
 2681 0046 FFF7FEFF 		bl	strlen
 2682              	.LVL302:
 2683 004a 0146     		mov	r1, r0
 2684 004c 03A8     		add	r0, sp, #12
 2685 004e FFF7FEFF 		bl	pack_mem
 2686              	.LVL303:
1267:src/iface.c   ****   pack_mem("\r\n", 2);
 2687              		.loc 1 1267 0
 2688 0052 3846     		mov	r0, r7
 2689 0054 2146     		mov	r1, r4
 2690 0056 FFF7FEFF 		bl	split_data
 2691              	.LVL304:
1268:src/iface.c   **** 
 2692              		.loc 1 1268 0
 2693 005a 2948     		ldr	r0, .L339+8
 2694 005c 0221     		movs	r1, #2
 2695 005e FFF7FEFF 		bl	pack_mem
ARM GAS  C:\Users\AHMED~1.ELE\AppData\Local\Temp\ccqMlapz.s 			page 79


 2696              	.LVL305:
1270:src/iface.c   ****     DispLineMW("AuxOpen Err!", MW_LINE5, MW_CENTER|MW_CLRDISP|MW_BIGFONT);
 2697              		.loc 1 1270 0
 2698 0062 FFF7FEFF 		bl	AuxOpen
 2699              	.LVL306:
 2700 0066 0546     		mov	r5, r0
 2701 0068 08BB     		cbnz	r0, .L325
 2702              	.LVL307:
 2703              	.LBB61:
1271:src/iface.c   ****     APM_WaitKey(9000, 0);
 2704              		.loc 1 1271 0
 2705 006a 9220     		movs	r0, #146
 2706 006c 0D21     		movs	r1, #13
 2707 006e FFF7FEFF 		bl	sys_func1
 2708              	.LVL308:
 2709 0072 0446     		mov	r4, r0
 2710              	.LVL309:
 2711 0074 90B1     		cbz	r0, .L326
1271:src/iface.c   ****     APM_WaitKey(9000, 0);
 2712              		.loc 1 1271 0 is_stmt 0 discriminator 1
 2713 0076 2349     		ldr	r1, .L339+12
 2714 0078 0C22     		movs	r2, #12
 2715 007a FFF7FEFF 		bl	memcpy
 2716              	.LVL310:
 2717 007e 41F28203 		movw	r3, #4226
 2718 0082 2573     		strb	r5, [r4, #12]
 2719 0084 2521     		movs	r1, #37
 2720 0086 0093     		str	r3, [sp]
 2721 0088 0F20     		movs	r0, #15
 2722 008a 2246     		mov	r2, r4
 2723 008c 4FF4A063 		mov	r3, #1280
 2724 0090 FFF7FEFF 		bl	lib_app_call
 2725              	.LVL311:
 2726 0094 9420     		movs	r0, #148
 2727 0096 2146     		mov	r1, r4
 2728 0098 FFF7FEFF 		bl	sys_func1
 2729              	.LVL312:
 2730              	.L326:
 2731              	.LBE61:
1272:src/iface.c   ****     return;
 2732              		.loc 1 1272 0 is_stmt 1
 2733 009c 0023     		movs	r3, #0
 2734 009e 0321     		movs	r1, #3
 2735 00a0 0093     		str	r3, [sp]
 2736 00a2 42F22832 		movw	r2, #9000
 2737 00a6 1020     		movs	r0, #16
 2738 00a8 FFF7FEFF 		bl	lib_app_call
 2739              	.LVL313:
1273:src/iface.c   ****   }
 2740              		.loc 1 1273 0
 2741 00ac 21E0     		b	.L321
 2742              	.LVL314:
 2743              	.L325:
1276:src/iface.c   ****   while (FreeRunMW() < free_run + 200*2) {   // 2 sec timeout for send
 2744              		.loc 1 1276 0
 2745 00ae 40F29F10 		movw	r0, #415
 2746 00b2 FFF7FEFF 		bl	sys_func0
ARM GAS  C:\Users\AHMED~1.ELE\AppData\Local\Temp\ccqMlapz.s 			page 80


 2747              	.LVL315:
 2748 00b6 0446     		mov	r4, r0
 2749              	.LVL316:
 2750              	.L327:
1277:src/iface.c   ****     if (AuxTxRdy()) {
 2751              		.loc 1 1277 0
 2752 00b8 40F29F10 		movw	r0, #415
 2753 00bc FFF7FEFF 		bl	sys_func0
 2754              	.LVL317:
 2755 00c0 04F5C873 		add	r3, r4, #400
 2756 00c4 9842     		cmp	r0, r3
 2757 00c6 0ED2     		bcs	.L329
1278:src/iface.c   ****       AuxWrite(txbuf, get_distance());
 2758              		.loc 1 1278 0
 2759 00c8 FFF7FEFF 		bl	AuxTxRdy
 2760              	.LVL318:
 2761 00cc 30B1     		cbz	r0, .L328
1279:src/iface.c   ****       break;
 2762              		.loc 1 1279 0
 2763 00ce FFF7FEFF 		bl	get_distance
 2764              	.LVL319:
 2765 00d2 0146     		mov	r1, r0
 2766 00d4 3046     		mov	r0, r6
 2767 00d6 FFF7FEFF 		bl	AuxWrite
 2768              	.LVL320:
1280:src/iface.c   ****     }
 2769              		.loc 1 1280 0
 2770 00da 04E0     		b	.L329
 2771              	.L328:
1282:src/iface.c   ****   }
 2772              		.loc 1 1282 0
 2773 00dc 4FF4CE70 		mov	r0, #412
 2774 00e0 FFF7FEFF 		bl	sys_func0
 2775              	.LVL321:
 2776 00e4 E8E7     		b	.L327
 2777              	.L329:
1284:src/iface.c   ****   FreeMW(txbuf);
 2778              		.loc 1 1284 0
 2779 00e6 FFF7FEFF 		bl	AuxClose
 2780              	.LVL322:
1285:src/iface.c   **** }
 2781              		.loc 1 1285 0
 2782 00ea 9420     		movs	r0, #148
 2783 00ec 3146     		mov	r1, r6
 2784 00ee FFF7FEFF 		bl	sys_func1
 2785              	.LVL323:
 2786              	.L321:
1286:src/iface.c   **** //=============================================================================
 2787              		.loc 1 1286 0
 2788 00f2 08B0     		add	sp, sp, #32
 2789              		.cfi_def_cfa_offset 24
 2790              		@ sp needed
 2791 00f4 BDE8F081 		pop	{r4, r5, r6, r7, r8, pc}
 2792              	.LVL324:
 2793              	.L340:
 2794              		.align	2
 2795              	.L339:
ARM GAS  C:\Users\AHMED~1.ELE\AppData\Local\Temp\ccqMlapz.s 			page 81


 2796 00f8 1E000000 		.word	.LC5
 2797 00fc 2D000000 		.word	.LC6
 2798 0100 3C000000 		.word	.LC7
 2799 0104 3F000000 		.word	.LC8
 2800              		.cfi_endproc
 2801              	.LFE22:
 2802              		.size	debugAuxIface, .-debugAuxIface
 2803              		.section	.text.IfaceTx,"ax",%progbits
 2804              		.align	1
 2805              		.global	IfaceTx
 2806              		.thumb
 2807              		.thumb_func
 2808              		.type	IfaceTx, %function
 2809              	IfaceTx:
 2810              	.LFB23:
1296:src/iface.c   ****   BYTE buf[MAX_IFACE_BUF];
 2811              		.loc 1 1296 0
 2812              		.cfi_startproc
 2813              		@ args = 0, pretend = 0, frame = 1536
 2814              		@ frame_needed = 0, uses_anonymous_args = 0
 2815              	.LVL325:
 2816 0000 10B5     		push	{r4, lr}
 2817              		.cfi_def_cfa_offset 8
 2818              		.cfi_offset 4, -8
 2819              		.cfi_offset 14, -4
 2820 0002 0346     		mov	r3, r0
 2821 0004 ADF5C16D 		sub	sp, sp, #1544
 2822              		.cfi_def_cfa_offset 1552
1296:src/iface.c   ****   BYTE buf[MAX_IFACE_BUF];
 2823              		.loc 1 1296 0
 2824 0008 0C46     		mov	r4, r1
1299:src/iface.c   ****   //debugAuxIface(0, aData, aLen);
 2825              		.loc 1 1299 0
 2826 000a 2246     		mov	r2, r4
 2827 000c 1946     		mov	r1, r3
 2828              	.LVL326:
 2829 000e 02A8     		add	r0, sp, #8
 2830              	.LVL327:
 2831 0010 FFF7FEFF 		bl	memcpy
 2832              	.LVL328:
1301:src/iface.c   **** }
 2833              		.loc 1 1301 0
 2834 0014 0023     		movs	r3, #0
 2835 0016 0221     		movs	r1, #2
 2836 0018 0093     		str	r3, [sp]
 2837 001a 02AA     		add	r2, sp, #8
 2838 001c 2346     		mov	r3, r4
 2839 001e 7D20     		movs	r0, #125
 2840 0020 FFF7FEFF 		bl	lib_app_call
 2841              	.LVL329:
1302:src/iface.c   **** 
 2842              		.loc 1 1302 0
 2843 0024 0DF5C16D 		add	sp, sp, #1544
 2844              		.cfi_def_cfa_offset 8
 2845              		@ sp needed
 2846 0028 10BD     		pop	{r4, pc}
 2847              		.cfi_endproc
ARM GAS  C:\Users\AHMED~1.ELE\AppData\Local\Temp\ccqMlapz.s 			page 82


 2848              	.LFE23:
 2849              		.size	IfaceTx, .-IfaceTx
 2850              		.section	.text.IfaceRx,"ax",%progbits
 2851              		.align	1
 2852              		.global	IfaceRx
 2853              		.thumb
 2854              		.thumb_func
 2855              		.type	IfaceRx, %function
 2856              	IfaceRx:
 2857              	.LFB24:
1313:src/iface.c   ****   BYTE buf[MAX_IFACE_BUF];
 2858              		.loc 1 1313 0
 2859              		.cfi_startproc
 2860              		@ args = 0, pretend = 0, frame = 0
 2861              		@ frame_needed = 0, uses_anonymous_args = 0
 2862              	.LVL330:
 2863 0000 37B5     		push	{r0, r1, r2, r4, r5, lr}
 2864              		.cfi_def_cfa_offset 24
 2865              		.cfi_offset 4, -12
 2866              		.cfi_offset 5, -8
 2867              		.cfi_offset 14, -4
1317:src/iface.c   ****     return 0;
 2868              		.loc 1 1317 0
 2869 0002 0022     		movs	r2, #0
1313:src/iface.c   ****   BYTE buf[MAX_IFACE_BUF];
 2870              		.loc 1 1313 0
 2871 0004 0546     		mov	r5, r0
 2872 0006 0C46     		mov	r4, r1
1317:src/iface.c   ****     return 0;
 2873              		.loc 1 1317 0
 2874 0008 0092     		str	r2, [sp]
 2875 000a 7D20     		movs	r0, #125
 2876              	.LVL331:
 2877 000c 0521     		movs	r1, #5
 2878              	.LVL332:
 2879 000e 1346     		mov	r3, r2
 2880 0010 FFF7FEFF 		bl	lib_app_call
 2881              	.LVL333:
 2882 0014 30B1     		cbz	r0, .L343
 2883 0016 2846     		mov	r0, r5
 2884 0018 2146     		mov	r1, r4
 2885              		.loc 1 1326 0
 2886 001a 03B0     		add	sp, sp, #12
 2887              		.cfi_remember_state
 2888              		.cfi_def_cfa_offset 12
 2889              		@ sp needed
 2890 001c BDE83040 		pop	{r4, r5, lr}
 2891              		.cfi_restore 14
 2892              		.cfi_restore 5
 2893              		.cfi_restore 4
 2894              		.cfi_def_cfa_offset 0
 2895              	.LVL334:
 2896 0020 FFF7FEBF 		b	IfaceRx.part.8
 2897              	.LVL335:
 2898              	.L343:
 2899              		.cfi_restore_state
 2900 0024 03B0     		add	sp, sp, #12
ARM GAS  C:\Users\AHMED~1.ELE\AppData\Local\Temp\ccqMlapz.s 			page 83


 2901              		.cfi_def_cfa_offset 12
 2902              		@ sp needed
 2903 0026 30BD     		pop	{r4, r5, pc}
 2904              		.cfi_endproc
 2905              	.LFE24:
 2906              		.size	IfaceRx, .-IfaceRx
 2907              		.section	.text.IfaceProcess,"ax",%progbits
 2908              		.align	1
 2909              		.global	IfaceProcess
 2910              		.thumb
 2911              		.thumb_func
 2912              		.type	IfaceProcess, %function
 2913              	IfaceProcess:
 2914              	.LFB25:
1327:src/iface.c   **** 
1328:src/iface.c   **** //=============================================================================
1329:src/iface.c   **** //  Function        : IfaceProcess
1330:src/iface.c   **** //  Description     : interface process
1331:src/iface.c   **** //  Input           :
1332:src/iface.c   **** //  Return          : >=0 - length of response sent
1333:src/iface.c   **** //                    <0  - error status
1334:src/iface.c   **** //  Note            : N/A
1335:src/iface.c   **** //  Globals Changed : N/A
1336:src/iface.c   **** //=============================================================================
1337:src/iface.c   **** int IfaceProcess(void)
1338:src/iface.c   **** {
 2915              		.loc 1 1338 0
 2916              		.cfi_startproc
 2917              		@ args = 0, pretend = 0, frame = 0
 2918              		@ frame_needed = 0, uses_anonymous_args = 0
 2919 0000 37B5     		push	{r0, r1, r2, r4, r5, lr}
 2920              		.cfi_def_cfa_offset 24
 2921              		.cfi_offset 4, -12
 2922              		.cfi_offset 5, -8
 2923              		.cfi_offset 14, -4
1339:src/iface.c   ****   int iLen;
1340:src/iface.c   **** 
1341:src/iface.c   ****   iLen = IfaceRx(gIfBuf, MAX_IFACE_BUF);
 2924              		.loc 1 1341 0
 2925 0002 1548     		ldr	r0, .L349
 2926 0004 4FF4C061 		mov	r1, #1536
 2927 0008 FFF7FEFF 		bl	IfaceRx
 2928              	.LVL336:
 2929 000c 0022     		movs	r2, #0
1342:src/iface.c   **** 
1343:src/iface.c   ****   if (iLen <= 0) {
 2930              		.loc 1 1343 0
 2931 000e 041E     		subs	r4, r0, #0
 2932 0010 1FDD     		ble	.L348
1344:src/iface.c   ****     return 0;
1345:src/iface.c   ****   }
1346:src/iface.c   **** 
1347:src/iface.c   ****   ECR_Clear();
 2933              		.loc 1 1347 0
 2934 0012 0092     		str	r2, [sp]
 2935 0014 0421     		movs	r1, #4
 2936 0016 1346     		mov	r3, r2
ARM GAS  C:\Users\AHMED~1.ELE\AppData\Local\Temp\ccqMlapz.s 			page 84


 2937 0018 7D20     		movs	r0, #125
 2938              	.LVL337:
 2939 001a FFF7FEFF 		bl	lib_app_call
 2940              	.LVL338:
 2941 001e 0F4D     		ldr	r5, .L349+4
1348:src/iface.c   ****   ClearResponse();
 2942              		.loc 1 1348 0
 2943 0020 FFF7FEFF 		bl	ClearResponse
 2944              	.LVL339:
1349:src/iface.c   ****   
1350:src/iface.c   ****   // pack response
1351:src/iface.c   ****   iLen = Spt3MsgHdr(gIfBuf, iLen);
 2945              		.loc 1 1351 0
 2946 0024 A1B2     		uxth	r1, r4
 2947 0026 0C48     		ldr	r0, .L349
 2948 0028 FFF7FEFF 		bl	Spt3MsgHdr
 2949              	.LVL340:
1352:src/iface.c   ****   if (iLen < 0) {
 2950              		.loc 1 1352 0
 2951 002c 041E     		subs	r4, r0, #0
 2952 002e 0BDB     		blt	.L347
1353:src/iface.c   ****     gIdleCnt = FreeRunMark();             //25-07-17 JC ++
1354:src/iface.c   ****     return iLen;
1355:src/iface.c   ****   }
1356:src/iface.c   **** 
1357:src/iface.c   ****   // send response
1358:src/iface.c   ****   if (IfaceTx(gIfBuf, iLen) <= 0) {
 2953              		.loc 1 1358 0
 2954 0030 0948     		ldr	r0, .L349
 2955              	.LVL341:
 2956 0032 A1B2     		uxth	r1, r4
 2957 0034 FFF7FEFF 		bl	IfaceTx
 2958              	.LVL342:
 2959 0038 0028     		cmp	r0, #0
 2960 003a 05DC     		bgt	.L347
1359:src/iface.c   ****     gIdleCnt = FreeRunMark();             //25-07-17 JC ++
 2961              		.loc 1 1359 0
 2962 003c FFF7FEFF 		bl	FreeRunMark
 2963              	.LVL343:
 2964 0040 2860     		str	r0, [r5]
1360:src/iface.c   ****     return -1;
 2965              		.loc 1 1360 0
 2966 0042 4FF0FF30 		mov	r0, #-1
 2967 0046 05E0     		b	.L345
 2968              	.L347:
1361:src/iface.c   ****   }
1362:src/iface.c   ****   gIdleCnt = FreeRunMark();               //25-07-17 JC ++
 2969              		.loc 1 1362 0
 2970 0048 FFF7FEFF 		bl	FreeRunMark
 2971              	.LVL344:
 2972 004c 2860     		str	r0, [r5]
1363:src/iface.c   ****   return iLen;
 2973              		.loc 1 1363 0
 2974 004e 2046     		mov	r0, r4
 2975 0050 00E0     		b	.L345
 2976              	.LVL345:
 2977              	.L348:
ARM GAS  C:\Users\AHMED~1.ELE\AppData\Local\Temp\ccqMlapz.s 			page 85


1344:src/iface.c   ****   }
 2978              		.loc 1 1344 0
 2979 0052 1046     		mov	r0, r2
 2980              	.LVL346:
 2981              	.L345:
1364:src/iface.c   **** }
 2982              		.loc 1 1364 0
 2983 0054 03B0     		add	sp, sp, #12
 2984              		.cfi_def_cfa_offset 12
 2985              		@ sp needed
 2986 0056 30BD     		pop	{r4, r5, pc}
 2987              	.LVL347:
 2988              	.L350:
 2989              		.align	2
 2990              	.L349:
 2991 0058 980C0000 		.word	.LANCHOR1+3224
 2992 005c 00000000 		.word	gIdleCnt
 2993              		.cfi_endproc
 2994              	.LFE25:
 2995              		.size	IfaceProcess, .-IfaceProcess
 2996              		.global	gIfaceData
 2997              		.global	KItfRespTbl
 2998              		.global	KItfSettleResp
 2999              		.global	KItfHostTotResp
 3000              		.global	KItfHostNameResp
 3001              		.global	KItfLastTrace
 3002              		.global	KItfOfflSaleResp
 3003              		.global	KItfSaleResp
 3004              		.section	.rodata
 3005              		.align	1
 3006              		.set	.LANCHOR0,. + 0
 3007              		.type	KIfaceFile, %object
 3008              		.size	KIfaceFile, 10
 3009              	KIfaceFile:
 3010 0000 49666163 		.ascii	"IfaceFile\000"
 3010      6546696C 
 3010      6500
 3011              	.LC1:
 3012 000a 53706563 		.ascii	"Spectra\000\000"
 3012      74726100 
 3012      00
 3013              	.LC3:
 3014 0013 000100   		.ascii	"\000\001\000"
 3015              		.type	KItfSettleResp, %object
 3016              		.size	KItfSettleResp, 8
 3017              	KItfSettleResp:
 3018 0016 8A00     		.short	138
 3019 0018 85DF     		.short	-8315
 3020 001a 00FF     		.short	-256
 3021 001c 0000     		.short	0
 3022              		.type	KItfHostTotResp, %object
 3023              		.size	KItfHostTotResp, 8
 3024              	KItfHostTotResp:
 3025 001e 8A00     		.short	138
 3026 0020 85DF     		.short	-8315
 3027 0022 00FF     		.short	-256
 3028 0024 0000     		.short	0
ARM GAS  C:\Users\AHMED~1.ELE\AppData\Local\Temp\ccqMlapz.s 			page 86


 3029              		.type	KItfHostNameResp, %object
 3030              		.size	KItfHostNameResp, 8
 3031              	KItfHostNameResp:
 3032 0026 8A00     		.short	138
 3033 0028 84DF     		.short	-8316
 3034 002a 00FF     		.short	-256
 3035 002c 0000     		.short	0
 3036              		.type	KItfLastTrace, %object
 3037              		.size	KItfLastTrace, 10
 3038              	KItfLastTrace:
 3039 002e 419F     		.short	-24767
 3040 0030 81DF     		.short	-8319
 3041 0032 8A00     		.short	138
 3042 0034 00FF     		.short	-256
 3043 0036 0000     		.short	0
 3044              		.type	KItfOfflSaleResp, %object
 3045              		.size	KItfOfflSaleResp, 36
 3046              	KItfOfflSaleResp:
 3047 0038 5A00     		.short	90
 3048 003a 029F     		.short	-24830
 3049 003c 419F     		.short	-24767
 3050 003e 219F     		.short	-24799
 3051 0040 9A00     		.short	154
 3052 0042 245F     		.short	24356
 3053 0044 8900     		.short	137
 3054 0046 8A00     		.short	138
 3055 0048 1C9F     		.short	-24804
 3056 004a 169F     		.short	-24810
 3057 004c 205F     		.short	24352
 3058 004e 039F     		.short	-24829
 3059 0050 399F     		.short	-24775
 3060 0052 3CDF     		.short	-8388
 3061 0054 81DF     		.short	-8319
 3062 0056 00FF     		.short	-256
 3063 0058 069F     		.short	-24826
 3064 005a 0000     		.short	0
 3065              		.type	KItfSaleResp, %object
 3066              		.size	KItfSaleResp, 38
 3067              	KItfSaleResp:
 3068 005c 5A00     		.short	90
 3069 005e 029F     		.short	-24830
 3070 0060 419F     		.short	-24767
 3071 0062 219F     		.short	-24799
 3072 0064 9A00     		.short	154
 3073 0066 245F     		.short	24356
 3074 0068 25DF     		.short	-8411
 3075 006a 8900     		.short	137
 3076 006c 8A00     		.short	138
 3077 006e 1C9F     		.short	-24804
 3078 0070 169F     		.short	-24810
 3079 0072 205F     		.short	24352
 3080 0074 039F     		.short	-24829
 3081 0076 399F     		.short	-24775
 3082 0078 3CDF     		.short	-8388
 3083 007a 81DF     		.short	-8319
 3084 007c 00FF     		.short	-256
 3085 007e 069F     		.short	-24826
ARM GAS  C:\Users\AHMED~1.ELE\AppData\Local\Temp\ccqMlapz.s 			page 87


 3086 0080 0000     		.short	0
 3087              		.section	.rodata.str1.1,"aMS",%progbits,1
 3088              	.LC0:
 3089 0000 46696C65 		.ascii	"File WR Err!\000"
 3089      20575220 
 3089      45727221 
 3089      00
 3090              	.LC2:
 3091 000d 46696C65 		.ascii	"File RD Err!\000"
 3091      20524420 
 3091      45727221 
 3091      00
 3092              	.LC4:
 3093 001a DF040600 		.ascii	"\337\004\006\000"
 3094              	.LC5:
 3095 001e 49666163 		.ascii	"Iface-In (%d):\000"
 3095      652D496E 
 3095      20282564 
 3095      293A00
 3096              	.LC6:
 3097 002d 49666163 		.ascii	"Iface-Out(%d):\000"
 3097      652D4F75 
 3097      74282564 
 3097      293A00
 3098              	.LC7:
 3099 003c 0D0A00   		.ascii	"\015\012\000"
 3100              	.LC8:
 3101 003f 4175784F 		.ascii	"AuxOpen Err!\000"
 3101      70656E20 
 3101      45727221 
 3101      00
 3102              		.data
 3103              		.align	2
 3104              		.set	.LANCHOR2,. + 0
 3105              		.type	KItfRespTbl, %object
 3106              		.size	KItfRespTbl, 40
 3107              	KItfRespTbl:
 3108 0000 00000000 		.word	KItfSaleResp
 3109 0004 00000000 		.word	KItfOfflSaleResp
 3110 0008 00000000 		.word	KItfSaleResp
 3111 000c 00000000 		.word	KItfSaleResp
 3112 0010 00000000 		.word	KItfSaleResp
 3113 0014 00000000 		.word	KItfLastTrace
 3114 0018 00000000 		.word	KItfHostNameResp
 3115 001c 00000000 		.word	KItfHostTotResp
 3116 0020 00000000 		.word	KItfSaleResp
 3117 0024 00000000 		.word	KItfSettleResp
 3118              		.bss
 3119              		.align	3
 3120              		.set	.LANCHOR1,. + 0
 3121              		.type	gIfaceData, %object
 3122              		.size	gIfaceData, 4
 3123              	gIfaceData:
 3124 0000 00000000 		.space	4
 3125              		.type	gsSKey, %object
 3126              		.size	gsSKey, 20
 3127              	gsSKey:
ARM GAS  C:\Users\AHMED~1.ELE\AppData\Local\Temp\ccqMlapz.s 			page 88


 3128 0004 00000000 		.space	20
 3128      00000000 
 3128      00000000 
 3128      00000000 
 3128      00000000 
 3129              		.type	gReqBuf, %object
 3130              		.size	gReqBuf, 1536
 3131              	gReqBuf:
 3132 0018 00000000 		.space	1536
 3132      00000000 
 3132      00000000 
 3132      00000000 
 3132      00000000 
 3133              		.type	gwSeqNum, %object
 3134              		.size	gwSeqNum, 2
 3135              	gwSeqNum:
 3136 0618 0000     		.space	2
 3137              		.type	gbMode, %object
 3138              		.size	gbMode, 1
 3139              	gbMode:
 3140 061a 00       		.space	1
 3141 061b 00000000 		.space	5
 3141      00
 3142              		.type	gTermTotal, %object
 3143              		.size	gTermTotal, 104
 3144              	gTermTotal:
 3145 0620 00000000 		.space	104
 3145      00000000 
 3145      00000000 
 3145      00000000 
 3145      00000000 
 3146              		.type	gRspBuf, %object
 3147              		.size	gRspBuf, 1536
 3148              	gRspBuf:
 3149 0688 00000000 		.space	1536
 3149      00000000 
 3149      00000000 
 3149      00000000 
 3149      00000000 
 3150              		.type	gabRRand, %object
 3151              		.size	gabRRand, 8
 3152              	gabRRand:
 3153 0c88 00000000 		.space	8
 3153      00000000 
 3154              		.type	gabTRand, %object
 3155              		.size	gabTRand, 8
 3156              	gabTRand:
 3157 0c90 00000000 		.space	8
 3157      00000000 
 3158              		.type	gIfBuf, %object
 3159              		.size	gIfBuf, 1536
 3160              	gIfBuf:
 3161 0c98 00000000 		.space	1536
 3161      00000000 
 3161      00000000 
 3161      00000000 
 3161      00000000 
ARM GAS  C:\Users\AHMED~1.ELE\AppData\Local\Temp\ccqMlapz.s 			page 89


 3162              		.text
 3163              	.Letext0:
 3164              		.file 2 "c:\\devtools\\gcc_v49_2014q4\\lib\\gcc\\arm-none-eabi\\4.9.3\\include\\stddef.h"
 3165              		.file 3 "../LibA5T1000/common.h"
 3166              		.file 4 "../LibA5T1000/midware.h"
 3167              		.file 5 "../LibA5T1000/system.h"
 3168              		.file 6 "src/sysutil.h"
 3169              		.file 7 "../LibA5T1000/emv2dll.h"
 3170              		.file 8 "../LibA5T1000/apm.h"
 3171              		.file 9 "../LibA5T1000/emvcl2dll.h"
 3172              		.file 10 "../LibA5T1000/ecrdll.h"
 3173              		.file 11 "src/corevar.h"
 3174              		.file 12 "src/tranutil.h"
 3175              		.file 13 "src/constant.h"
 3176              		.file 14 "src/iface.h"
 3177              		.file 15 "src/hardware.h"
 3178              		.file 16 "c:\\devtools\\gcc_v49_2014q4\\arm-none-eabi\\include\\string.h"
 3179              		.file 17 "src/iface_util.h"
 3180              		.file 18 "src/tlvutil.h"
 3181              		.file 19 "../LibA5T1000/util.h"
 3182              		.file 20 "src/void.h"
 3183              		.file 21 "src/settle.h"
 3184              		.file 22 "src/input.h"
 3185              		.file 23 "c:\\devtools\\gcc_v49_2014q4\\arm-none-eabi\\include\\stdio.h"
 3186              		.file 24 "src/auxcom.h"