ARM GAS  C:\Users\AHMEDH~1\AppData\Local\Temp\cclxJjJK.s 			page 1


   1              		.syntax unified
   2              		.cpu cortex-a5
   3              		.fpu softvfp
   4              		.eabi_attribute 20, 1
   5              		.eabi_attribute 21, 1
   6              		.eabi_attribute 23, 3
   7              		.eabi_attribute 24, 1
   8              		.eabi_attribute 25, 1
   9              		.eabi_attribute 26, 1
  10              		.eabi_attribute 30, 4
  11              		.eabi_attribute 34, 0
  12              		.eabi_attribute 18, 4
  13              		.thumb
  14              		.file	"iface.c"
  15              		.text
  16              	.Ltext0:
  17              		.cfi_sections	.debug_frame
  18              		.section	.text.UpdIfaceDat,"ax",%progbits
  19              		.align	1
  20              		.thumb
  21              		.thumb_func
  22              		.type	UpdIfaceDat, %function
  23              	UpdIfaceDat:
  24              	.LFB1:
  25              		.file 1 "src/iface.c"
   1:src/iface.c   **** //-----------------------------------------------------------------------------
   2:src/iface.c   **** //  File          : iface.c
   3:src/iface.c   **** //  Module        :
   4:src/iface.c   **** //  Description   : interface for spectra proprietary
   5:src/iface.c   **** //  Author        : Pody
   6:src/iface.c   **** //  Notes         :
   7:src/iface.c   **** //
   8:src/iface.c   **** // ============================================================================
   9:src/iface.c   **** // | Naming conventions                                                       |
  10:src/iface.c   **** // | ~~~~~~~~~~~~~~~~~~                                                       |
  11:src/iface.c   **** // |             Constant : Leading K                                         |
  12:src/iface.c   **** // |      Global Variable : Leading g                                         |
  13:src/iface.c   **** // |    Function argument : Leading a                                         |
  14:src/iface.c   **** // |       Local Variable : All lower case                                    |
  15:src/iface.c   **** // |            Char size : Leading c                                         |
  16:src/iface.c   **** // |             Int size : Leading i                                         |
  17:src/iface.c   **** // |            Byte size : Leading b                                         |
  18:src/iface.c   **** // |            Word size : Leading w                                         |
  19:src/iface.c   **** // |           Dword size : Leading d                                         |
  20:src/iface.c   **** // |          DDword size : Leading dd                                        |
  21:src/iface.c   **** // |          Struct size : Leading s                                         |
  22:src/iface.c   **** // |                Array : Leading a, (ab = arrary of byte, etc)             |
  23:src/iface.c   **** // |              Pointer : Leading p, (pb = pointer of byte, etc)            |
  24:src/iface.c   **** // ============================================================================
  25:src/iface.c   **** //  Date          Who         Action
  26:src/iface.c   **** //  ------------  ----------- -------------------------------------------------
  27:src/iface.c   **** //  2008 Apr      Pody        Initial Version.
  28:src/iface.c   **** //-----------------------------------------------------------------------------
  29:src/iface.c   **** #include <stdlib.h>
  30:src/iface.c   **** #include "util.h"
  31:src/iface.c   **** #include "midware.h"
  32:src/iface.c   **** #include "sysutil.h"
ARM GAS  C:\Users\AHMEDH~1\AppData\Local\Temp\cclxJjJK.s 			page 2


  33:src/iface.c   **** #include "key2dll.h"
  34:src/iface.c   **** #include "emv2dll.h"
  35:src/iface.c   **** #include "apm.h"
  36:src/iface.c   **** #include "corevar.h"
  37:src/iface.c   **** #include "tranutil.h"
  38:src/iface.c   **** #include "tlvutil.h"
  39:src/iface.c   **** #include "constant.h"
  40:src/iface.c   **** #include "input.h"
  41:src/iface.c   **** #include "ecrdll.h"
  42:src/iface.c   **** #include "ecr.h"
  43:src/iface.c   **** #include "void.h"
  44:src/iface.c   **** #include "settle.h"
  45:src/iface.c   **** #include "auxcom.h"
  46:src/iface.c   **** #include "iface_util.h"
  47:src/iface.c   **** #include "iface.h"
  48:src/iface.c   **** 
  49:src/iface.c   **** //-----------------------------------------------------------------------------
  50:src/iface.c   **** // Defines
  51:src/iface.c   **** //-----------------------------------------------------------------------------
  52:src/iface.c   **** #define S3_FMT_ID                 (DWORD)1      // spectra 3 format id
  53:src/iface.c   **** #define SKEY_MASK                 (BYTE)0x80    //Session Key bit
  54:src/iface.c   **** #define ANY_SKEY                  (BYTE)0xFF    //for get any Session Key
  55:src/iface.c   **** #define MRMK                      (BYTE)0x00    //Master Reader Message Key
  56:src/iface.c   **** #define RMK                       (BYTE)0x01    //Reader Message Key
  57:src/iface.c   **** 
  58:src/iface.c   **** // offset
  59:src/iface.c   **** #define OSET_STX                  (WORD)0
  60:src/iface.c   **** #define OSET_FMT_ID               (WORD)1
  61:src/iface.c   **** #define OSET_TX_ID                (WORD)5
  62:src/iface.c   **** #define OSET_RX_ID                (WORD)6
  63:src/iface.c   **** #define OSET_SEQ_NUM              (WORD)7
  64:src/iface.c   **** #define OSET_INS                  (WORD)9
  65:src/iface.c   **** #define OSET_DATA_FMT             (WORD)10
  66:src/iface.c   **** #define OSET_DATA_LEN             (WORD)11
  67:src/iface.c   **** #define OSET_REQ_DATA             (WORD)13
  68:src/iface.c   **** #define OSET_RSP_CODE             (WORD)13
  69:src/iface.c   **** #define OSET_RSP_DATA             (WORD)14
  70:src/iface.c   **** #define MIN_MSG_LEN               (WORD)(OSET_DATA_LEN + 7)
  71:src/iface.c   **** #define MAX_VDATA_LEN             (WORD)(2048 - MIN_MSG_LEN)
  72:src/iface.c   **** 
  73:src/iface.c   **** // variable parameter tag
  74:src/iface.c   **** #define MAX_VTAG_SIZE             (WORD)256
  75:src/iface.c   **** #define VTAG_START                (WORD)0xFFA0
  76:src/iface.c   **** #define VTAG_UIM_START            (WORD)VTAG_START      //ui msg tag start
  77:src/iface.c   **** #define VTAG_UIM_END              (WORD)(VTAG_UIM_START+UI_END)
  78:src/iface.c   **** #define VTAG_END                  (WORD)VTAG_UIM_END                  
  79:src/iface.c   **** 
  80:src/iface.c   **** #define PORT_PDATA_MASK         0xFF
  81:src/iface.c   **** 
  82:src/iface.c   **** #define DbFErr
  83:src/iface.c   **** #define DbStep
  84:src/iface.c   **** 
  85:src/iface.c   **** //----------------------------------------------------------------------------
  86:src/iface.c   **** // Constant
  87:src/iface.c   **** //----------------------------------------------------------------------------
  88:src/iface.c   **** static const BYTE KIfaceFile[] = {"IfaceFile"};
  89:src/iface.c   **** 
ARM GAS  C:\Users\AHMEDH~1\AppData\Local\Temp\cclxJjJK.s 			page 3


  90:src/iface.c   **** const WORD KItfSaleResp[] = {
  91:src/iface.c   ****   ITFTAG_PAN,       ITFTAG_TXNAMT,   ITFTAG_TRACE,     ITFTAG_TXNTIME,
  92:src/iface.c   ****   ITFTAG_TXNDATE,   ITFTAG_EXPDATE,  ITFTAG_RRN,       ITFTAG_AUTH_RESP,
  93:src/iface.c   ****   ITFTAG_RESP_CODE, ITFTAG_TERMID,   ITFTAG_MERCHID,   ITFTAG_CARDHOLDERNAME,
  94:src/iface.c   ****   ITFTAG_ADDAMT,    ITFTAG_ENTRYMODE,ITFTAG_BATCHNO,   ITFTAG_ECRREF,
  95:src/iface.c   ****   ITFTAG_TXNTYPE,   ITFTAG_AID,      0x00
  96:src/iface.c   **** };
  97:src/iface.c   **** 
  98:src/iface.c   **** const WORD KItfOfflSaleResp[] = {
  99:src/iface.c   ****   ITFTAG_PAN,       ITFTAG_TXNAMT,   ITFTAG_TRACE,     ITFTAG_TXNTIME,
 100:src/iface.c   ****   ITFTAG_TXNDATE,   ITFTAG_EXPDATE,                    ITFTAG_AUTH_RESP,
 101:src/iface.c   ****   ITFTAG_RESP_CODE, ITFTAG_TERMID,   ITFTAG_MERCHID,   ITFTAG_CARDHOLDERNAME,
 102:src/iface.c   ****   ITFTAG_ADDAMT,    ITFTAG_ENTRYMODE,ITFTAG_BATCHNO,  ITFTAG_ECRREF,
 103:src/iface.c   ****   ITFTAG_TXNTYPE,   ITFTAG_AID,      0x00
 104:src/iface.c   **** };
 105:src/iface.c   **** 
 106:src/iface.c   **** const WORD KItfLastTrace[] = {
 107:src/iface.c   ****   ITFTAG_TRACE, ITFTAG_ECRREF, ITFTAG_RESP_CODE, ITFTAG_TXNTYPE, 0x00
 108:src/iface.c   **** };
 109:src/iface.c   **** 
 110:src/iface.c   **** const WORD KItfHostNameResp[] = {
 111:src/iface.c   ****   ITFTAG_RESP_CODE, ITFTAG_HOSTNAME, ITFTAG_TXNTYPE, 0x00
 112:src/iface.c   **** };
 113:src/iface.c   **** 
 114:src/iface.c   **** const WORD KItfHostTotResp[] = {
 115:src/iface.c   ****   ITFTAG_RESP_CODE, ITFTAG_HOSTTOT, ITFTAG_TXNTYPE, 0x00
 116:src/iface.c   **** };
 117:src/iface.c   **** const WORD KItfSettleResp[] = {
 118:src/iface.c   ****   ITFTAG_RESP_CODE, ITFTAG_HOSTTOT, ITFTAG_TXNTYPE, 0x00
 119:src/iface.c   **** };
 120:src/iface.c   **** const WORD *KItfRespTbl[MAX_ECREDC_CMD] = {
 121:src/iface.c   ****   KItfSaleResp,      // ITF_EDC_SALE
 122:src/iface.c   ****   KItfOfflSaleResp,  // ITF_EDC_OFFLSALE
 123:src/iface.c   ****   KItfSaleResp,      // ITF_EDC_REFUND
 124:src/iface.c   ****   KItfSaleResp,      // ITF_EDC_VOID
 125:src/iface.c   ****   KItfSaleResp,      // ITF_EDC_GETTXN
 126:src/iface.c   ****   KItfLastTrace,     // ITF_EDC_LASTTRACE
 127:src/iface.c   ****   KItfHostNameResp,  // ITF_EDC_HOSTNAME
 128:src/iface.c   ****   KItfHostTotResp,   // ITF_EDC_HOSTTOTAL
 129:src/iface.c   ****   KItfSaleResp,      // ITF_EDC_AUTH
 130:src/iface.c   ****   KItfSettleResp,    // ITF_EDC_SETTLE
 131:src/iface.c   **** };
 132:src/iface.c   **** 
 133:src/iface.c   **** //----------------------------------------------------------------------------
 134:src/iface.c   **** // Globals
 135:src/iface.c   **** //----------------------------------------------------------------------------
 136:src/iface.c   **** static BYTE gbMode = 0x00;  // mode
 137:src/iface.c   **** static WORD gwSeqNum = 0;   // seq num
 138:src/iface.c   **** static S3KEY gsSKey;        // session key
 139:src/iface.c   **** static BYTE gabRRand[8];    // reader random
 140:src/iface.c   **** static BYTE gabTRand[8];    // terminal random
 141:src/iface.c   **** 
 142:src/iface.c   **** struct IFACE_DATA *gIfaceData=NULL;
 143:src/iface.c   **** static BYTE gIfBuf[MAX_IFACE_BUF];      // Tx/Rx Buffer
 144:src/iface.c   **** static BYTE gReqBuf[MAX_IFACE_BUF];     // Rx Buffer
 145:src/iface.c   **** static BYTE gRspBuf[MAX_IFACE_BUF];     // Tx Buffer
 146:src/iface.c   **** static struct TOTAL_STRUCT gTermTotal;
ARM GAS  C:\Users\AHMEDH~1\AppData\Local\Temp\cclxJjJK.s 			page 4


 147:src/iface.c   **** 
 148:src/iface.c   **** //----------------------------------------------------------------------------
 149:src/iface.c   **** // Generic API
 150:src/iface.c   **** //----------------------------------------------------------------------------
 151:src/iface.c   **** 
 152:src/iface.c   **** 
 153:src/iface.c   **** //*****************************************************************************
 154:src/iface.c   **** //  Function        : IfaceInitData
 155:src/iface.c   **** //  Description     : Load Interface data.
 156:src/iface.c   **** //  Input           : N/A
 157:src/iface.c   **** //  Return          : N/A
 158:src/iface.c   **** //  Note            : N/A
 159:src/iface.c   **** //  Globals Changed : N/A
 160:src/iface.c   **** //*****************************************************************************
 161:src/iface.c   **** void IfaceInitData(void)
 162:src/iface.c   **** {
 163:src/iface.c   ****   BYTE filename[32];
 164:src/iface.c   ****   DWORD len;
 165:src/iface.c   ****   int  fd;
 166:src/iface.c   **** 
 167:src/iface.c   ****   if (gIfaceData == NULL) {
 168:src/iface.c   ****     gIfaceData = (struct IFACE_DATA*) MallocMW(sizeof(struct IFACE_DATA));
 169:src/iface.c   ****     if (gIfaceData == NULL) {
 170:src/iface.c   ****       MemFatalErr(gIfaceData);  // Check Memory
 171:src/iface.c   ****       return;
 172:src/iface.c   ****     }
 173:src/iface.c   ****   }
 174:src/iface.c   ****   strcpy(filename, KIfaceFile);
 175:src/iface.c   ****   fd = fOpenMW(filename);
 176:src/iface.c   ****   if (fd < 0) {
 177:src/iface.c   ****     fd = fCreateMW(filename, 0);
 178:src/iface.c   ****     memset(gIfaceData, 0, sizeof(struct IFACE_DATA));
 179:src/iface.c   ****     len = fWriteMW(fd, gIfaceData, sizeof(struct IFACE_DATA));
 180:src/iface.c   ****     if (len != sizeof(struct IFACE_DATA)) {
 181:src/iface.c   ****       DispLineMW("File WR Err!", MW_LINE1, MW_CLRDISP|MW_BIGFONT);
 182:src/iface.c   ****       ErrorDelay();
 183:src/iface.c   ****     }
 184:src/iface.c   ****     fCommitAllMW();
 185:src/iface.c   ****   }
 186:src/iface.c   ****   else {
 187:src/iface.c   ****     len = fReadMW(fd, gIfaceData, sizeof(struct IFACE_DATA));
 188:src/iface.c   ****     if (len != sizeof(struct IFACE_DATA)) {
 189:src/iface.c   ****       DispLineMW("File RD Err!", MW_LINE1, MW_CLRDISP|MW_BIGFONT);
 190:src/iface.c   ****       ErrorDelay();
 191:src/iface.c   ****     }
 192:src/iface.c   ****   }
 193:src/iface.c   ****   fCloseMW(fd);
 194:src/iface.c   **** }
 195:src/iface.c   **** //*****************************************************************************
 196:src/iface.c   **** //  Function        : UpdIfaceDat
 197:src/iface.c   **** //  Description     : Update Interface data.
 198:src/iface.c   **** //  Input           : N/A
 199:src/iface.c   **** //  Return          : N/A
 200:src/iface.c   **** //  Note            : N/A
 201:src/iface.c   **** //  Globals Changed : N/A
 202:src/iface.c   **** //*****************************************************************************
 203:src/iface.c   **** static void UpdIfaceDat(void)
ARM GAS  C:\Users\AHMEDH~1\AppData\Local\Temp\cclxJjJK.s 			page 5


 204:src/iface.c   **** {
  26              		.loc 1 204 0
  27              		.cfi_startproc
  28              		@ args = 0, pretend = 0, frame = 32
  29              		@ frame_needed = 0, uses_anonymous_args = 0
  30 0000 70B5     		push	{r4, r5, r6, lr}
  31              		.cfi_def_cfa_offset 16
  32              		.cfi_offset 4, -16
  33              		.cfi_offset 5, -12
  34              		.cfi_offset 6, -8
  35              		.cfi_offset 14, -4
 205:src/iface.c   ****   BYTE filename[32];
 206:src/iface.c   ****   DWORD len;
 207:src/iface.c   ****   int  fd;
 208:src/iface.c   **** 
 209:src/iface.c   ****   strcpy(filename, KIfaceFile);
 210:src/iface.c   ****   fd = fOpenMW(filename);
  36              		.loc 1 210 0
  37 0002 0025     		movs	r5, #0
 204:src/iface.c   ****   BYTE filename[32];
  38              		.loc 1 204 0
  39 0004 8AB0     		sub	sp, sp, #40
  40              		.cfi_def_cfa_offset 56
 209:src/iface.c   ****   fd = fOpenMW(filename);
  41              		.loc 1 209 0
  42 0006 1E49     		ldr	r1, .L13
  43 0008 02A8     		add	r0, sp, #8
  44 000a FFF7FEFF 		bl	strcpy
  45              	.LVL0:
  46              		.loc 1 210 0
  47 000e 0095     		str	r5, [sp]
  48 0010 0F20     		movs	r0, #15
  49 0012 0D21     		movs	r1, #13
  50 0014 02AA     		add	r2, sp, #8
  51 0016 2B46     		mov	r3, r5
  52 0018 FFF7FEFF 		bl	lib_app_call
  53              	.LVL1:
 211:src/iface.c   ****   if (fd >= 0) {
  54              		.loc 1 211 0
  55 001c 061E     		subs	r6, r0, #0
  56 001e 25DB     		blt	.L3
 212:src/iface.c   ****     len = fWriteMW(fd, gIfaceData, sizeof(struct IFACE_DATA));
  57              		.loc 1 212 0
  58 0020 2823     		movs	r3, #40
  59 0022 0F20     		movs	r0, #15
  60              	.LVL2:
  61 0024 0093     		str	r3, [sp]
  62 0026 174B     		ldr	r3, .L13+4
  63 0028 1221     		movs	r1, #18
  64 002a 3246     		mov	r2, r6
  65 002c 1B68     		ldr	r3, [r3]
  66 002e FFF7FEFF 		bl	lib_app_call
  67              	.LVL3:
 213:src/iface.c   ****     if (len != sizeof(struct IFACE_DATA)) {
  68              		.loc 1 213 0
  69 0032 2828     		cmp	r0, #40
  70 0034 1AD0     		beq	.L3
ARM GAS  C:\Users\AHMEDH~1\AppData\Local\Temp\cclxJjJK.s 			page 6


  71              	.LVL4:
  72              	.LBB6:
 214:src/iface.c   ****       DispLineMW("File WR Err!", MW_LINE1, MW_CLRDISP|MW_BIGFONT);
  73              		.loc 1 214 0
  74 0036 9220     		movs	r0, #146
  75              	.LVL5:
  76 0038 0D21     		movs	r1, #13
  77 003a FFF7FEFF 		bl	sys_func1
  78              	.LVL6:
  79 003e 0446     		mov	r4, r0
  80 0040 90B1     		cbz	r0, .L5
  81              		.loc 1 214 0 is_stmt 0 discriminator 1
  82 0042 1149     		ldr	r1, .L13+8
  83 0044 0C22     		movs	r2, #12
  84 0046 FFF7FEFF 		bl	memcpy
  85              	.LVL7:
  86 004a 4FF48453 		mov	r3, #4224
  87 004e 2573     		strb	r5, [r4, #12]
  88 0050 2521     		movs	r1, #37
  89 0052 0093     		str	r3, [sp]
  90 0054 0F20     		movs	r0, #15
  91 0056 2246     		mov	r2, r4
  92 0058 4FF48073 		mov	r3, #256
  93 005c FFF7FEFF 		bl	lib_app_call
  94              	.LVL8:
  95 0060 9420     		movs	r0, #148
  96 0062 2146     		mov	r1, r4
  97 0064 FFF7FEFF 		bl	sys_func1
  98              	.LVL9:
  99              	.L5:
 100              	.LBE6:
 215:src/iface.c   ****       ErrorDelay();
 101              		.loc 1 215 0 is_stmt 1
 102 0068 FFF7FEFF 		bl	ErrorDelay
 103              	.LVL10:
 104              	.L3:
 216:src/iface.c   ****     }
 217:src/iface.c   ****   }
 218:src/iface.c   ****   fCloseMW(fd);
 105              		.loc 1 218 0
 106 006c 0023     		movs	r3, #0
 107 006e 0E21     		movs	r1, #14
 108 0070 0093     		str	r3, [sp]
 109 0072 3246     		mov	r2, r6
 110 0074 0F20     		movs	r0, #15
 111 0076 FFF7FEFF 		bl	lib_app_call
 112              	.LVL11:
 219:src/iface.c   **** }
 113              		.loc 1 219 0
 114 007a 0AB0     		add	sp, sp, #40
 115              		.cfi_def_cfa_offset 16
 116              		@ sp needed
 117 007c 70BD     		pop	{r4, r5, r6, pc}
 118              	.LVL12:
 119              	.L14:
 120 007e 00BF     		.align	2
 121              	.L13:
ARM GAS  C:\Users\AHMEDH~1\AppData\Local\Temp\cclxJjJK.s 			page 7


 122 0080 00000000 		.word	.LANCHOR0
 123 0084 00000000 		.word	.LANCHOR1
 124 0088 00000000 		.word	.LC0
 125              		.cfi_endproc
 126              	.LFE1:
 127              		.size	UpdIfaceDat, .-UpdIfaceDat
 128              		.section	.text.keyPut,"ax",%progbits
 129              		.align	1
 130              		.thumb
 131              		.thumb_func
 132              		.type	keyPut, %function
 133              	keyPut:
 134              	.LFB4:
 220:src/iface.c   **** //=============================================================================
 221:src/iface.c   **** //  Function        : errRspData
 222:src/iface.c   **** //  Description     : pack response error data
 223:src/iface.c   **** //  Input           :
 224:src/iface.c   **** //  Return          :
 225:src/iface.c   **** //  Note            : N/A
 226:src/iface.c   **** //  Globals Changed : N/A
 227:src/iface.c   **** //=============================================================================
 228:src/iface.c   **** static int errRspData(BYTE aRCode, BYTE *aRspMsg, BYTE *aReqMsg, WORD aReqLen)
 229:src/iface.c   **** {
 230:src/iface.c   ****   int iLen;
 231:src/iface.c   ****   BYTE *pRCode;
 232:src/iface.c   **** 
 233:src/iface.c   ****   // rsp code
 234:src/iface.c   ****   iLen = 0;
 235:src/iface.c   ****   pRCode = &aRspMsg[OSET_RSP_CODE];
 236:src/iface.c   ****   pRCode[iLen++] = aRCode;
 237:src/iface.c   **** 
 238:src/iface.c   ****   // rsp data len
 239:src/iface.c   ****   WPut(&aRspMsg[OSET_DATA_LEN], iLen);
 240:src/iface.c   ****   iLen += 2;
 241:src/iface.c   ****   return iLen;
 242:src/iface.c   **** }
 243:src/iface.c   **** 
 244:src/iface.c   **** //=============================================================================
 245:src/iface.c   **** //  Function        : keyGet
 246:src/iface.c   **** //  Description     :
 247:src/iface.c   **** //  Input           : aType, aIdx
 248:src/iface.c   **** //  Return          :
 249:src/iface.c   **** //  Note            : N/A
 250:src/iface.c   **** //  Globals Changed : N/A
 251:src/iface.c   **** //=============================================================================
 252:src/iface.c   **** #define KEK         (BYTE*)"Spectra\x00"
 253:src/iface.c   **** static BOOLEAN keyGet(BYTE *aKey, BYTE aType, BYTE aIdx)
 254:src/iface.c   **** {
 255:src/iface.c   ****   S3KEY sKey;
 256:src/iface.c   **** 
 257:src/iface.c   ****   
 258:src/iface.c   ****   // get MRMK or RMK
 259:src/iface.c   ****   switch (aType) {
 260:src/iface.c   ****     case MRMK:
 261:src/iface.c   ****       //PDataGet(&sKey, &gpsPD->sFS3PData.sMrmk, sizeof(S3KEY));
 262:src/iface.c   ****       memcpy(&sKey, &gIfaceData->sFS3PData.sMrmk, sizeof(S3KEY));
 263:src/iface.c   ****       if (!(sKey.bStatus & S3KEY_INJECTED)) { //initial master key
ARM GAS  C:\Users\AHMEDH~1\AppData\Local\Temp\cclxJjJK.s 			page 8


 264:src/iface.c   ****         memcpy(aKey, sKey.abDKey, 16);
 265:src/iface.c   ****         return TRUE;
 266:src/iface.c   ****       }
 267:src/iface.c   ****       else { // injected master key
 268:src/iface.c   ****         if ((sKey.bType == aType) && (sKey.bIdx == aIdx)) {
 269:src/iface.c   ****           memcpy(aKey, sKey.abDKey, 16);
 270:src/iface.c   ****           Des2(KEK, aKey, 16);
 271:src/iface.c   ****           return TRUE;
 272:src/iface.c   ****         }
 273:src/iface.c   ****       }
 274:src/iface.c   ****       break;
 275:src/iface.c   ****     case RMK:
 276:src/iface.c   ****       //PDataGet(&sKey, &gpsPD->sFS3PData.sRmk, sizeof(S3KEY));
 277:src/iface.c   ****       memcpy(&sKey, &gIfaceData->sFS3PData.sRmk, sizeof(S3KEY));
 278:src/iface.c   ****       if ((sKey.bStatus & S3KEY_INJECTED)
 279:src/iface.c   ****           && (sKey.bType == aType)
 280:src/iface.c   ****           && (sKey.bIdx == aIdx)) {
 281:src/iface.c   ****         memcpy(aKey, sKey.abDKey, 16);
 282:src/iface.c   ****         Des2(KEK, aKey, 16);
 283:src/iface.c   ****         return TRUE;
 284:src/iface.c   ****       }
 285:src/iface.c   ****       break;
 286:src/iface.c   ****     default:
 287:src/iface.c   ****       break;
 288:src/iface.c   ****   }
 289:src/iface.c   **** 
 290:src/iface.c   ****   // get SKEY
 291:src/iface.c   ****   if (aType & SKEY_MASK) {
 292:src/iface.c   ****     if (gsSKey.bStatus & S3KEY_INJECTED) {
 293:src/iface.c   ****       if ((aType == ANY_SKEY) // any skey
 294:src/iface.c   ****           || (gsSKey.bType < aType) // lower level key
 295:src/iface.c   ****           || ((gsSKey.bType == aType) && (gsSKey.bIdx == aIdx))) { // same level key and same idx
 296:src/iface.c   ****         memcpy(aKey, gsSKey.abDKey, 16);
 297:src/iface.c   ****         return TRUE;
 298:src/iface.c   ****       }
 299:src/iface.c   ****     }
 300:src/iface.c   ****   }
 301:src/iface.c   **** 
 302:src/iface.c   ****   return FALSE;
 303:src/iface.c   **** }
 304:src/iface.c   **** 
 305:src/iface.c   **** //=============================================================================
 306:src/iface.c   **** //  Function        : keyPut
 307:src/iface.c   **** //  Description     :
 308:src/iface.c   **** //  Input           : aKey - if NULL, erase key
 309:src/iface.c   **** //  Return          :
 310:src/iface.c   **** //  Note            : N/A
 311:src/iface.c   **** //  Globals Changed : N/A
 312:src/iface.c   **** //=============================================================================
 313:src/iface.c   **** static BOOLEAN keyPut(BYTE *aKey, BYTE aType, BYTE aIdx)
 314:src/iface.c   **** {
 135              		.loc 1 314 0
 136              		.cfi_startproc
 137              		@ args = 0, pretend = 0, frame = 24
 138              		@ frame_needed = 0, uses_anonymous_args = 0
 139              	.LVL13:
 140 0000 70B5     		push	{r4, r5, r6, lr}
ARM GAS  C:\Users\AHMEDH~1\AppData\Local\Temp\cclxJjJK.s 			page 9


 141              		.cfi_def_cfa_offset 16
 142              		.cfi_offset 4, -16
 143              		.cfi_offset 5, -12
 144              		.cfi_offset 6, -8
 145              		.cfi_offset 14, -4
 146 0002 0546     		mov	r5, r0
 147 0004 86B0     		sub	sp, sp, #24
 148              		.cfi_def_cfa_offset 40
 149              		.loc 1 314 0
 150 0006 0C46     		mov	r4, r1
 151 0008 1646     		mov	r6, r2
 315:src/iface.c   ****   S3KEY sKey;
 316:src/iface.c   **** 
 317:src/iface.c   ****   // format key
 318:src/iface.c   ****   memset(&sKey, 0x00, sizeof(S3KEY));
 152              		.loc 1 318 0
 153 000a 01A8     		add	r0, sp, #4
 154              	.LVL14:
 155 000c 0021     		movs	r1, #0
 156              	.LVL15:
 157 000e 1422     		movs	r2, #20
 158              	.LVL16:
 159 0010 FFF7FEFF 		bl	memset
 160              	.LVL17:
 319:src/iface.c   ****   if (aKey != NULL) { // not erase key
 161              		.loc 1 319 0
 162 0014 5DB1     		cbz	r5, .L16
 320:src/iface.c   ****     memcpy(sKey.abDKey, aKey, 16);
 163              		.loc 1 320 0
 164 0016 01A8     		add	r0, sp, #4
 165 0018 2946     		mov	r1, r5
 166 001a 1022     		movs	r2, #16
 167 001c FFF7FEFF 		bl	memcpy
 168              	.LVL18:
 321:src/iface.c   ****     sKey.bType = aType;
 322:src/iface.c   ****     sKey.bIdx = aIdx;
 323:src/iface.c   ****     sKey.bStatus |= S3KEY_INJECTED;
 169              		.loc 1 323 0
 170 0020 0123     		movs	r3, #1
 321:src/iface.c   ****     sKey.bType = aType;
 171              		.loc 1 321 0
 172 0022 8DF81440 		strb	r4, [sp, #20]
 322:src/iface.c   ****     sKey.bStatus |= S3KEY_INJECTED;
 173              		.loc 1 322 0
 174 0026 8DF81560 		strb	r6, [sp, #21]
 175              		.loc 1 323 0
 176 002a 8DF81730 		strb	r3, [sp, #23]
 177              	.L16:
 324:src/iface.c   ****   }
 325:src/iface.c   **** 
 326:src/iface.c   ****   // save key based on type
 327:src/iface.c   ****   switch (aType) {
 178              		.loc 1 327 0
 179 002e 54B1     		cbz	r4, .L18
 180 0030 012C     		cmp	r4, #1
 181 0032 16D1     		bne	.L28
 328:src/iface.c   ****     case MRMK:
ARM GAS  C:\Users\AHMEDH~1\AppData\Local\Temp\cclxJjJK.s 			page 10


 329:src/iface.c   ****       Des(KEK, sKey.abDKey, 16);
 330:src/iface.c   ****       //PDataPut(&gpsPD->sFS3PData.sMrmk, &sKey, sizeof(S3KEY));
 331:src/iface.c   ****       //PDataCrcUpdate(&gpsPD->bFStart, &gpsPD->wFCrc);
 332:src/iface.c   ****       memcpy(&gIfaceData->sFS3PData.sMrmk, &sKey, sizeof(S3KEY));
 333:src/iface.c   ****       UpdIfaceDat();
 334:src/iface.c   ****       return TRUE;
 335:src/iface.c   ****     case RMK:
 336:src/iface.c   ****       Des(KEK, sKey.abDKey, 16);
 182              		.loc 1 336 0
 183 0034 1148     		ldr	r0, .L29
 184 0036 01A9     		add	r1, sp, #4
 185 0038 1022     		movs	r2, #16
 186 003a FFF7FEFF 		bl	Des
 187              	.LVL19:
 337:src/iface.c   ****       //PDataPut(&gpsPD->sFS3PData.sRmk, &sKey, sizeof(S3KEY));
 338:src/iface.c   ****       //PDataCrcUpdate(&gpsPD->bFStart, &gpsPD->wFCrc);
 339:src/iface.c   ****       memcpy(&gIfaceData->sFS3PData.sRmk, &sKey, sizeof(S3KEY));
 188              		.loc 1 339 0
 189 003e 104B     		ldr	r3, .L29+4
 190 0040 1868     		ldr	r0, [r3]
 191 0042 1430     		adds	r0, r0, #20
 192 0044 06E0     		b	.L27
 193              	.L18:
 329:src/iface.c   ****       //PDataPut(&gpsPD->sFS3PData.sMrmk, &sKey, sizeof(S3KEY));
 194              		.loc 1 329 0
 195 0046 0D48     		ldr	r0, .L29
 196 0048 01A9     		add	r1, sp, #4
 197 004a 1022     		movs	r2, #16
 198 004c FFF7FEFF 		bl	Des
 199              	.LVL20:
 332:src/iface.c   ****       UpdIfaceDat();
 200              		.loc 1 332 0
 201 0050 0B4B     		ldr	r3, .L29+4
 202 0052 1868     		ldr	r0, [r3]
 203              	.L27:
 204              		.loc 1 339 0
 205 0054 01A9     		add	r1, sp, #4
 206 0056 1422     		movs	r2, #20
 207 0058 FFF7FEFF 		bl	memcpy
 208              	.LVL21:
 340:src/iface.c   ****       UpdIfaceDat();
 209              		.loc 1 340 0
 210 005c FFF7FEFF 		bl	UpdIfaceDat
 211              	.LVL22:
 212 0060 07E0     		b	.L26
 213              	.L28:
 341:src/iface.c   ****       return TRUE;
 342:src/iface.c   ****     default:
 343:src/iface.c   ****       break;
 344:src/iface.c   ****   }
 345:src/iface.c   **** 
 346:src/iface.c   ****   // save skey
 347:src/iface.c   ****   if (aType & SKEY_MASK) {
 214              		.loc 1 347 0
 215 0062 2306     		lsls	r3, r4, #24
 216 0064 07D5     		bpl	.L21
 348:src/iface.c   ****     memcpy(&gsSKey, &sKey, sizeof(S3KEY));
ARM GAS  C:\Users\AHMEDH~1\AppData\Local\Temp\cclxJjJK.s 			page 11


 217              		.loc 1 348 0
 218 0066 074D     		ldr	r5, .L29+8
 219              	.LVL23:
 220 0068 01AC     		add	r4, sp, #4
 221 006a 0FCC     		ldmia	r4!, {r0, r1, r2, r3}
 222 006c 0FC5     		stmia	r5!, {r0, r1, r2, r3}
 223 006e 2368     		ldr	r3, [r4]
 224 0070 2B60     		str	r3, [r5]
 225              	.L26:
 349:src/iface.c   ****     return TRUE;
 226              		.loc 1 349 0
 227 0072 0120     		movs	r0, #1
 228 0074 00E0     		b	.L20
 229              	.LVL24:
 230              	.L21:
 350:src/iface.c   ****   }
 351:src/iface.c   **** 
 352:src/iface.c   ****   return FALSE;
 231              		.loc 1 352 0
 232 0076 0020     		movs	r0, #0
 233              	.LVL25:
 234              	.L20:
 353:src/iface.c   **** }
 235              		.loc 1 353 0
 236 0078 06B0     		add	sp, sp, #24
 237              		.cfi_def_cfa_offset 16
 238              		@ sp needed
 239 007a 70BD     		pop	{r4, r5, r6, pc}
 240              	.L30:
 241              		.align	2
 242              	.L29:
 243 007c 0A000000 		.word	.LANCHOR0+10
 244 0080 00000000 		.word	.LANCHOR1
 245 0084 04000000 		.word	.LANCHOR1+4
 246              		.cfi_endproc
 247              	.LFE4:
 248              		.size	keyPut, .-keyPut
 249              		.section	.text.encrypt,"ax",%progbits
 250              		.align	1
 251              		.thumb
 252              		.thumb_func
 253              		.type	encrypt, %function
 254              	encrypt:
 255              	.LFB5:
 354:src/iface.c   **** 
 355:src/iface.c   **** //=============================================================================
 356:src/iface.c   **** //  Function        : encrypt
 357:src/iface.c   **** //  Description     :
 358:src/iface.c   **** //  Input           :
 359:src/iface.c   **** //  Return          :
 360:src/iface.c   **** //  Note            : N/A
 361:src/iface.c   **** //  Globals Changed : N/A
 362:src/iface.c   **** //=============================================================================
 363:src/iface.c   **** #define S3DES           (BYTE)0x01
 364:src/iface.c   **** #define S3DES2          (BYTE)0x02
 365:src/iface.c   **** #define S3TDES          (BYTE)0x03
 366:src/iface.c   **** #define S3TDES2         (BYTE)0x04
ARM GAS  C:\Users\AHMEDH~1\AppData\Local\Temp\cclxJjJK.s 			page 12


 367:src/iface.c   **** static BOOLEAN encrypt(BYTE aMode, BYTE aType, BYTE aIdx, BYTE *aInOut, WORD aLen)
 368:src/iface.c   **** {
 256              		.loc 1 368 0
 257              		.cfi_startproc
 258              		@ args = 4, pretend = 0, frame = 40
 259              		@ frame_needed = 0, uses_anonymous_args = 0
 260              	.LVL26:
 261 0000 2DE9F041 		push	{r4, r5, r6, r7, r8, lr}
 262              		.cfi_def_cfa_offset 24
 263              		.cfi_offset 4, -24
 264              		.cfi_offset 5, -20
 265              		.cfi_offset 6, -16
 266              		.cfi_offset 7, -12
 267              		.cfi_offset 8, -8
 268              		.cfi_offset 14, -4
 269 0004 8AB0     		sub	sp, sp, #40
 270              		.cfi_def_cfa_offset 64
 271              	.LVL27:
 272              		.loc 1 368 0
 273 0006 0746     		mov	r7, r0
 274 0008 9046     		mov	r8, r2
 275              	.LVL28:
 276 000a 1E46     		mov	r6, r3
 277 000c BDF84050 		ldrh	r5, [sp, #64]
 278              	.LBB9:
 279              	.LBB10:
 259:src/iface.c   ****     case MRMK:
 280              		.loc 1 259 0
 281 0010 0C46     		mov	r4, r1
 282 0012 11B1     		cbz	r1, .L33
 283 0014 0129     		cmp	r1, #1
 284 0016 20D0     		beq	.L34
 285 0018 2EE0     		b	.L32
 286              	.L33:
 262:src/iface.c   ****       if (!(sKey.bStatus & S3KEY_INJECTED)) { //initial master key
 287              		.loc 1 262 0
 288 001a 344A     		ldr	r2, .L65
 289              	.LVL29:
 290 001c 05AB     		add	r3, sp, #20
 291              	.LVL30:
 292 001e 1168     		ldr	r1, [r2]
 293              	.LVL31:
 294 0020 1846     		mov	r0, r3
 295              	.LVL32:
 296 0022 1422     		movs	r2, #20
 297 0024 FFF7FEFF 		bl	memcpy
 298              	.LVL33:
 263:src/iface.c   ****         memcpy(aKey, sKey.abDKey, 16);
 299              		.loc 1 263 0
 300 0028 9DF82720 		ldrb	r2, [sp, #39]	@ zero_extendqisi2
 301 002c D107     		lsls	r1, r2, #31
 262:src/iface.c   ****       if (!(sKey.bStatus & S3KEY_INJECTED)) { //initial master key
 302              		.loc 1 262 0
 303 002e 0346     		mov	r3, r0
 263:src/iface.c   ****         memcpy(aKey, sKey.abDKey, 16);
 304              		.loc 1 263 0
 305 0030 01D4     		bmi	.L35
ARM GAS  C:\Users\AHMEDH~1\AppData\Local\Temp\cclxJjJK.s 			page 13


 264:src/iface.c   ****         return TRUE;
 306              		.loc 1 264 0
 307 0032 01AC     		add	r4, sp, #4
 308              	.LVL34:
 309 0034 32E0     		b	.L63
 310              	.LVL35:
 311              	.L35:
 268:src/iface.c   ****           memcpy(aKey, sKey.abDKey, 16);
 312              		.loc 1 268 0
 313 0036 9DF82430 		ldrb	r3, [sp, #36]	@ zero_extendqisi2
 314 003a EBB9     		cbnz	r3, .L32
 315              	.L62:
 316 003c 9DF82530 		ldrb	r3, [sp, #37]	@ zero_extendqisi2
 317 0040 4345     		cmp	r3, r8
 318 0042 19D1     		bne	.L32
 269:src/iface.c   ****           Des2(KEK, aKey, 16);
 319              		.loc 1 269 0
 320 0044 01AC     		add	r4, sp, #4
 321              	.LVL36:
 322 0046 05AB     		add	r3, sp, #20
 323 0048 0FCB     		ldmia	r3, {r0, r1, r2, r3}
 324 004a 84E80F00 		stmia	r4, {r0, r1, r2, r3}
 270:src/iface.c   ****           return TRUE;
 325              		.loc 1 270 0
 326 004e 2848     		ldr	r0, .L65+4
 327 0050 2146     		mov	r1, r4
 328 0052 1022     		movs	r2, #16
 329 0054 FFF7FEFF 		bl	Des2
 330              	.LVL37:
 331 0058 23E0     		b	.L61
 332              	.LVL38:
 333              	.L34:
 277:src/iface.c   ****       if ((sKey.bStatus & S3KEY_INJECTED)
 334              		.loc 1 277 0
 335 005a 244B     		ldr	r3, .L65
 336              	.LVL39:
 337 005c 1422     		movs	r2, #20
 338              	.LVL40:
 339 005e 1968     		ldr	r1, [r3]
 340              	.LVL41:
 341 0060 05A8     		add	r0, sp, #20
 342              	.LVL42:
 343 0062 1431     		adds	r1, r1, #20
 344 0064 FFF7FEFF 		bl	memcpy
 345              	.LVL43:
 278:src/iface.c   ****           && (sKey.bType == aType)
 346              		.loc 1 278 0
 347 0068 9DF82730 		ldrb	r3, [sp, #39]	@ zero_extendqisi2
 348 006c DA07     		lsls	r2, r3, #31
 349 006e 03D5     		bpl	.L32
 279:src/iface.c   ****           && (sKey.bIdx == aIdx)) {
 350              		.loc 1 279 0
 351 0070 9DF82430 		ldrb	r3, [sp, #36]	@ zero_extendqisi2
 352 0074 012B     		cmp	r3, #1
 353 0076 E1D0     		beq	.L62
 354              	.L32:
 291:src/iface.c   ****     if (gsSKey.bStatus & S3KEY_INJECTED) {
ARM GAS  C:\Users\AHMEDH~1\AppData\Local\Temp\cclxJjJK.s 			page 14


 355              		.loc 1 291 0
 356 0078 2306     		lsls	r3, r4, #24
 357 007a 32D5     		bpl	.L50
 292:src/iface.c   ****       if ((aType == ANY_SKEY) // any skey
 358              		.loc 1 292 0
 359 007c 1B4B     		ldr	r3, .L65
 360 007e D87D     		ldrb	r0, [r3, #23]	@ zero_extendqisi2
 361 0080 10F00100 		ands	r0, r0, #1
 362 0084 2ED0     		beq	.L41
 293:src/iface.c   ****           || (gsSKey.bType < aType) // lower level key
 363              		.loc 1 293 0
 364 0086 FF2C     		cmp	r4, #255
 365 0088 06D0     		beq	.L40
 294:src/iface.c   ****           || ((gsSKey.bType == aType) && (gsSKey.bIdx == aIdx))) { // same level key and same idx
 366              		.loc 1 294 0
 367 008a 1A7D     		ldrb	r2, [r3, #20]	@ zero_extendqisi2
 368 008c A242     		cmp	r2, r4
 369 008e 03D3     		bcc	.L40
 295:src/iface.c   ****         memcpy(aKey, gsSKey.abDKey, 16);
 370              		.loc 1 295 0
 371 0090 27D1     		bne	.L50
 372 0092 5B7D     		ldrb	r3, [r3, #21]	@ zero_extendqisi2
 373 0094 4345     		cmp	r3, r8
 374 0096 24D1     		bne	.L50
 375              	.L40:
 296:src/iface.c   ****         return TRUE;
 376              		.loc 1 296 0
 377 0098 01AC     		add	r4, sp, #4
 378              	.LVL44:
 379 009a 164B     		ldr	r3, .L65+8
 380              	.L63:
 381 009c 0FCB     		ldmia	r3, {r0, r1, r2, r3}
 382 009e 84E80F00 		stmia	r4, {r0, r1, r2, r3}
 383              	.L61:
 384              	.LBE10:
 385              	.LBE9:
 369:src/iface.c   ****   BYTE abKey[16];
 370:src/iface.c   **** 
 371:src/iface.c   ****   if (keyGet(abKey, aType, aIdx) == FALSE) {
 372:src/iface.c   ****     return FALSE;
 373:src/iface.c   ****   }
 374:src/iface.c   **** 
 375:src/iface.c   ****   switch (aMode) {
 386              		.loc 1 375 0
 387 00a2 781E     		subs	r0, r7, #1
 388 00a4 0328     		cmp	r0, #3
 389 00a6 1CD8     		bhi	.L50
 390 00a8 DFE800F0 		tbb	[pc, r0]
 391              	.L43:
 392 00ac 02       		.byte	(.L42-.L43)/2
 393 00ad 08       		.byte	(.L44-.L43)/2
 394 00ae 0E       		.byte	(.L45-.L43)/2
 395 00af 14       		.byte	(.L46-.L43)/2
 396              		.p2align 1
 397              	.L42:
 376:src/iface.c   ****     case S3DES:
 377:src/iface.c   ****       Des(abKey, aInOut, aLen);
ARM GAS  C:\Users\AHMEDH~1\AppData\Local\Temp\cclxJjJK.s 			page 15


 398              		.loc 1 377 0
 399 00b0 01A8     		add	r0, sp, #4
 400 00b2 3146     		mov	r1, r6
 401 00b4 2A46     		mov	r2, r5
 402 00b6 FFF7FEFF 		bl	Des
 403              	.LVL45:
 404 00ba 10E0     		b	.L64
 405              	.L44:
 378:src/iface.c   ****       break;
 379:src/iface.c   ****     case S3DES2:
 380:src/iface.c   ****       Des2(abKey, aInOut, aLen);
 406              		.loc 1 380 0
 407 00bc 01A8     		add	r0, sp, #4
 408 00be 3146     		mov	r1, r6
 409 00c0 2A46     		mov	r2, r5
 410 00c2 FFF7FEFF 		bl	Des2
 411              	.LVL46:
 412 00c6 0AE0     		b	.L64
 413              	.L45:
 381:src/iface.c   ****       break;
 382:src/iface.c   ****     case S3TDES:
 383:src/iface.c   ****       TDes(abKey, aInOut, aLen);
 414              		.loc 1 383 0
 415 00c8 01A8     		add	r0, sp, #4
 416 00ca 3146     		mov	r1, r6
 417 00cc 2A46     		mov	r2, r5
 418 00ce FFF7FEFF 		bl	TDes
 419              	.LVL47:
 420 00d2 04E0     		b	.L64
 421              	.L46:
 384:src/iface.c   ****       break;
 385:src/iface.c   ****     case S3TDES2:
 386:src/iface.c   ****       TDes2(abKey, aInOut, aLen);
 422              		.loc 1 386 0
 423 00d4 01A8     		add	r0, sp, #4
 424 00d6 3146     		mov	r1, r6
 425 00d8 2A46     		mov	r2, r5
 426 00da FFF7FEFF 		bl	TDes2
 427              	.LVL48:
 428              	.L64:
 387:src/iface.c   ****       break;
 388:src/iface.c   ****     default:
 389:src/iface.c   ****       return FALSE;
 390:src/iface.c   ****   }
 391:src/iface.c   ****   return TRUE;
 429              		.loc 1 391 0
 430 00de 0120     		movs	r0, #1
 387:src/iface.c   ****       break;
 431              		.loc 1 387 0
 432 00e0 00E0     		b	.L41
 433              	.LVL49:
 434              	.L50:
 389:src/iface.c   ****   }
 435              		.loc 1 389 0
 436 00e2 0020     		movs	r0, #0
 437              	.L41:
 392:src/iface.c   **** }
ARM GAS  C:\Users\AHMEDH~1\AppData\Local\Temp\cclxJjJK.s 			page 16


 438              		.loc 1 392 0
 439 00e4 0AB0     		add	sp, sp, #40
 440              		.cfi_def_cfa_offset 24
 441              		@ sp needed
 442 00e6 BDE8F081 		pop	{r4, r5, r6, r7, r8, pc}
 443              	.LVL50:
 444              	.L66:
 445 00ea 00BF     		.align	2
 446              	.L65:
 447 00ec 00000000 		.word	.LANCHOR1
 448 00f0 0A000000 		.word	.LANCHOR0+10
 449 00f4 04000000 		.word	.LANCHOR1+4
 450              		.cfi_endproc
 451              	.LFE5:
 452              		.size	encrypt, .-encrypt
 453              		.section	.text.errRspData.isra.0,"ax",%progbits
 454              		.align	1
 455              		.thumb
 456              		.thumb_func
 457              		.type	errRspData.isra.0, %function
 458              	errRspData.isra.0:
 459              	.LFB26:
 228:src/iface.c   **** {
 460              		.loc 1 228 0
 461              		.cfi_startproc
 462              		@ args = 0, pretend = 0, frame = 0
 463              		@ frame_needed = 0, uses_anonymous_args = 0
 464              	.LVL51:
 465 0000 08B5     		push	{r3, lr}
 466              		.cfi_def_cfa_offset 8
 467              		.cfi_offset 3, -8
 468              		.cfi_offset 14, -4
 236:src/iface.c   **** 
 469              		.loc 1 236 0
 470 0002 4873     		strb	r0, [r1, #13]
 239:src/iface.c   ****   iLen += 2;
 471              		.loc 1 239 0
 472 0004 01F10B00 		add	r0, r1, #11
 473              	.LVL52:
 474 0008 0121     		movs	r1, #1
 475              	.LVL53:
 476 000a FFF7FEFF 		bl	WPut
 477              	.LVL54:
 242:src/iface.c   **** 
 478              		.loc 1 242 0
 479 000e 0320     		movs	r0, #3
 480 0010 08BD     		pop	{r3, pc}
 481              		.cfi_endproc
 482              	.LFE26:
 483              		.size	errRspData.isra.0, .-errRspData.isra.0
 484              		.section	.text.IfaceRx.part.8,"ax",%progbits
 485              		.align	1
 486              		.thumb
 487              		.thumb_func
 488              		.type	IfaceRx.part.8, %function
 489              	IfaceRx.part.8:
 490              	.LFB34:
ARM GAS  C:\Users\AHMEDH~1\AppData\Local\Temp\cclxJjJK.s 			page 17


 393:src/iface.c   **** 
 394:src/iface.c   **** //=============================================================================
 395:src/iface.c   **** //  Function        : reqCheck
 396:src/iface.c   **** //  Description     :
 397:src/iface.c   **** //  Input           :
 398:src/iface.c   **** //  Return          : 0 - request ok
 399:src/iface.c   **** //  Note            : N/A
 400:src/iface.c   **** //  Globals Changed : N/A
 401:src/iface.c   **** //=============================================================================
 402:src/iface.c   **** static int reqCheck(BYTE *aReq, WORD aLen)
 403:src/iface.c   **** {
 404:src/iface.c   ****   BYTE buf[16];
 405:src/iface.c   **** 
 406:src/iface.c   ****   // STX
 407:src/iface.c   ****   if (aReq[OSET_STX] != 0x02) {
 408:src/iface.c   ****     DbFErr("reqCheck(S3):StxErr\n");
 409:src/iface.c   ****     return IF_ERR_FMT;
 410:src/iface.c   ****   }
 411:src/iface.c   **** 
 412:src/iface.c   ****   // ETX
 413:src/iface.c   ****   if (aReq[aLen-1] != 0x03) {
 414:src/iface.c   ****     DbFErr("reqCheck(S3):EtxErr\n");
 415:src/iface.c   ****     return IF_ERR_FMT;
 416:src/iface.c   ****   }
 417:src/iface.c   **** 
 418:src/iface.c   ****   // check format id
 419:src/iface.c   ****   if (UGet(aReq+OSET_FMT_ID) != S3_FMT_ID) {
 420:src/iface.c   ****     DbFErr("reqCheck(S3):FmtIdErr\n");
 421:src/iface.c   ****     return IF_ERR_FMT;
 422:src/iface.c   ****   }
 423:src/iface.c   **** 
 424:src/iface.c   ****   // len check
 425:src/iface.c   ****   if (WGet(aReq+OSET_DATA_LEN)+MIN_MSG_LEN != aLen) {
 426:src/iface.c   ****     DbFErr("reqCheck(S3):LErr(%d,%d)\n", WGet(aReq+OSET_DATA_LEN)+MIN_MSG_LEN, aLen);
 427:src/iface.c   ****     return IF_ERR_FMT;
 428:src/iface.c   ****   }
 429:src/iface.c   **** 
 430:src/iface.c   ****   // check seq number
 431:src/iface.c   ****   if (WGet(aReq+OSET_SEQ_NUM) == 0) {
 432:src/iface.c   ****     if ((aReq[OSET_INS] & S3INS_CLASS_MASK) != S3INS_CLASS_GENERAL) {
 433:src/iface.c   ****       DbFErr("reqCheck(S3):SeqErr\n");
 434:src/iface.c   ****       return IF_ERR_SEQ;
 435:src/iface.c   ****     }
 436:src/iface.c   ****   }
 437:src/iface.c   ****   else {
 438:src/iface.c   ****     if (WGet(aReq+OSET_SEQ_NUM) < gwSeqNum) {
 439:src/iface.c   ****       DbFErr("reqCheck(S3):SeqErr\n");
 440:src/iface.c   ****       return IF_ERR_SEQ;
 441:src/iface.c   ****     }
 442:src/iface.c   ****   }
 443:src/iface.c   **** 
 444:src/iface.c   ****   // check ins
 445:src/iface.c   ****   switch (aReq[OSET_INS] & S3INS_CLASS_MASK) {
 446:src/iface.c   ****     case S3INS_CLASS_GENERAL:
 447:src/iface.c   ****       break;
 448:src/iface.c   ****     case S3INS_CLASS_SETUP:
 449:src/iface.c   ****       if ((gbMode & S3MODE_SETUP_ALLOW) == 0) {
ARM GAS  C:\Users\AHMEDH~1\AppData\Local\Temp\cclxJjJK.s 			page 18


 450:src/iface.c   ****         DbFErr("reqCheck(S3):InsErr\n");
 451:src/iface.c   ****         return IF_ERR_INS;
 452:src/iface.c   ****       }
 453:src/iface.c   ****       break;
 454:src/iface.c   ****     case S3INS_CLASS_TRANS:
 455:src/iface.c   ****       if ((gbMode & S3MODE_TRANS_ALLOW) == 0) {
 456:src/iface.c   ****         DbFErr("reqCheck(S3):InsErr\n");
 457:src/iface.c   ****         return IF_ERR_INS;
 458:src/iface.c   ****       }
 459:src/iface.c   ****       break;
 460:src/iface.c   ****     default:
 461:src/iface.c   ****       DbFErr("reqCheck(S3):InsErr\n");
 462:src/iface.c   ****       return IF_ERR_INS;
 463:src/iface.c   ****   }
 464:src/iface.c   **** 
 465:src/iface.c   ****   // CRC or MAC
 466:src/iface.c   ****   if ( (WGet(aReq+aLen-5) == 0) // use CRC
 467:src/iface.c   ****   && (((aReq[OSET_INS] & S3INS_CLASS_MASK) == S3INS_CLASS_GENERAL)) // !NormalMode or general cmd
 468:src/iface.c   ****   && (WGet(aReq+aLen-3) == Crc16(aReq+1, aLen-6, 0)) ) { // crc ok
 469:src/iface.c   ****       DbStep("reqCheck(S3): CRC OK\n");
 470:src/iface.c   ****   }
 471:src/iface.c   ****   else { // check MAC
 472:src/iface.c   ****     //MAC = TDEA(SKey, Seq(2) | Ins(1) | DataFmt(1) | DataLen(2) | Crc(2))
 473:src/iface.c   ****     memcpy(buf, aReq+OSET_SEQ_NUM, 6);
 474:src/iface.c   ****     WPut(buf+6, Crc16(aReq+1, aLen-6, 0));
 475:src/iface.c   ****     if ((encrypt(S3TDES, ANY_SKEY, 0x00, buf, 8) == FALSE)
 476:src/iface.c   ****     || (memcmp(buf, aReq+aLen-5, 4) != 0)) {
 477:src/iface.c   ****       DbFErr("reqCheck(S3):CrcErr\n");
 478:src/iface.c   ****       return IF_ERR_CRC;
 479:src/iface.c   ****     }
 480:src/iface.c   ****     DbStep("reqCheck(S3): MAC OK\n");
 481:src/iface.c   ****   }
 482:src/iface.c   **** 
 483:src/iface.c   ****   // decrypt input data
 484:src/iface.c   ****   if (WGet(aReq+OSET_DATA_LEN) > 0) {
 485:src/iface.c   ****     switch (aReq[OSET_DATA_FMT] & 0x0F) {
 486:src/iface.c   ****       case S3DFMT_PLAIN:
 487:src/iface.c   ****         break;
 488:src/iface.c   ****       case S3DFMT_ECB_DES:
 489:src/iface.c   ****         if (((WGet(aReq+OSET_DATA_LEN)%8) != 0)
 490:src/iface.c   ****             || (encrypt(S3DES2, ANY_SKEY, 0x00, aReq+OSET_REQ_DATA, WGet(aReq+OSET_DATA_LEN)) == FA
 491:src/iface.c   ****           DbFErr("reqCheck(S3):KeyErr\n");
 492:src/iface.c   ****           return IF_ERR_KEY;
 493:src/iface.c   ****         }
 494:src/iface.c   ****         break;
 495:src/iface.c   ****       case S3DFMT_ECB_TDES:
 496:src/iface.c   ****         if (((WGet(aReq+OSET_DATA_LEN)%8) != 0)
 497:src/iface.c   ****             || (encrypt(S3TDES2, ANY_SKEY, 0x00, aReq+OSET_REQ_DATA, WGet(aReq+OSET_DATA_LEN)) == F
 498:src/iface.c   ****           DbFErr("reqCheck(S3):KeyErr\n");
 499:src/iface.c   ****           return IF_ERR_KEY;
 500:src/iface.c   ****         }
 501:src/iface.c   ****         break;
 502:src/iface.c   ****       default:
 503:src/iface.c   ****         DbFErr("reqCheck(S3):KeyErr\n");
 504:src/iface.c   ****         return IF_ERR_KEY;
 505:src/iface.c   ****     }
 506:src/iface.c   ****   }
ARM GAS  C:\Users\AHMEDH~1\AppData\Local\Temp\cclxJjJK.s 			page 19


 507:src/iface.c   **** 
 508:src/iface.c   ****   return IF_OK;
 509:src/iface.c   **** }
 510:src/iface.c   **** 
 511:src/iface.c   **** //=============================================================================
 512:src/iface.c   **** //  Function        : rspEchoData
 513:src/iface.c   **** //  Description     :
 514:src/iface.c   **** //  Input           :
 515:src/iface.c   **** //  Return          :
 516:src/iface.c   **** //  Note            : N/A
 517:src/iface.c   **** //  Globals Changed : N/A
 518:src/iface.c   **** //=============================================================================
 519:src/iface.c   **** static int rspEchoData(BYTE *aRspMsg, BYTE *aReqMsg, WORD aReqLen)
 520:src/iface.c   **** {
 521:src/iface.c   ****   int i, iLen;
 522:src/iface.c   ****   BYTE *pRCode;
 523:src/iface.c   **** 
 524:src/iface.c   ****   // output data: RCode(1) | Mode(1) | Echo back msg(x)
 525:src/iface.c   ****   iLen = 0;
 526:src/iface.c   ****   pRCode = aRspMsg + OSET_RSP_CODE;
 527:src/iface.c   ****   pRCode[iLen++] = S3RC_OK;
 528:src/iface.c   ****   pRCode[iLen++] = gbMode;
 529:src/iface.c   **** 
 530:src/iface.c   ****   // echo back message
 531:src/iface.c   ****   i = WGet(aReqMsg + OSET_DATA_LEN);
 532:src/iface.c   ****   if (i > 0) {
 533:src/iface.c   ****     memcpy(pRCode+iLen, aReqMsg+OSET_REQ_DATA, i);
 534:src/iface.c   ****   }
 535:src/iface.c   ****   iLen += i;
 536:src/iface.c   **** 
 537:src/iface.c   ****   // rsp data len
 538:src/iface.c   ****   WPut(&aRspMsg[OSET_DATA_LEN], iLen);
 539:src/iface.c   ****   iLen += 2;
 540:src/iface.c   **** 
 541:src/iface.c   ****   return iLen;
 542:src/iface.c   **** }
 543:src/iface.c   **** 
 544:src/iface.c   **** //=============================================================================
 545:src/iface.c   **** //  Function        : rspInitModeData
 546:src/iface.c   **** //  Description     :
 547:src/iface.c   **** //  Input           :
 548:src/iface.c   **** //  Return          :
 549:src/iface.c   **** //  Note            : N/A
 550:src/iface.c   **** //  Globals Changed : N/A
 551:src/iface.c   **** //=============================================================================
 552:src/iface.c   **** static int rspInitModeData(BYTE *aRspMsg, BYTE *aReqMsg, WORD aReqLen)
 553:src/iface.c   **** {
 554:src/iface.c   ****   int iLen;
 555:src/iface.c   ****   BYTE *pRCode;
 556:src/iface.c   **** 
 557:src/iface.c   ****   // action
 558:src/iface.c   ****   gbMode = 0x00;
 559:src/iface.c   ****   keyPut(NULL, ANY_SKEY, 0x00);
 560:src/iface.c   **** 
 561:src/iface.c   ****   // output data: RCode(1)
 562:src/iface.c   ****   iLen = 0;
 563:src/iface.c   ****   pRCode = aRspMsg + OSET_RSP_CODE;
ARM GAS  C:\Users\AHMEDH~1\AppData\Local\Temp\cclxJjJK.s 			page 20


 564:src/iface.c   ****   pRCode[iLen++] = S3RC_OK;
 565:src/iface.c   **** 
 566:src/iface.c   ****   // rsp data len
 567:src/iface.c   ****   WPut(&aRspMsg[OSET_DATA_LEN], iLen);
 568:src/iface.c   ****   iLen += 2;
 569:src/iface.c   **** 
 570:src/iface.c   ****   return iLen;
 571:src/iface.c   **** }
 572:src/iface.c   **** 
 573:src/iface.c   **** //=============================================================================
 574:src/iface.c   **** //  Function        : rspInitAuthData
 575:src/iface.c   **** //  Description     :
 576:src/iface.c   **** //  Input           :
 577:src/iface.c   **** //  Return          :
 578:src/iface.c   **** //  Note            : N/A
 579:src/iface.c   **** //  Globals Changed : N/A
 580:src/iface.c   **** //=============================================================================
 581:src/iface.c   **** static int rspInitAuthData(BYTE *aRspMsg, BYTE *aReqMsg, WORD aReqLen)
 582:src/iface.c   **** {
 583:src/iface.c   ****   int i, iLen;
 584:src/iface.c   ****   BYTE *pRCode, bKType, bKIdx, *pTRand, abRRand[8], buf[16];
 585:src/iface.c   **** 
 586:src/iface.c   ****   // input: KeyType(1) | KeyIdx(1) | TRand(8)
 587:src/iface.c   ****   i = WGet(aReqMsg + OSET_DATA_LEN);
 588:src/iface.c   ****   if (i < 10) {
 589:src/iface.c   ****     return errRspData(S3RC_ERR_DATA, aRspMsg, aReqMsg, aReqLen);
 590:src/iface.c   ****   }
 591:src/iface.c   ****   bKType = aReqMsg[OSET_REQ_DATA];
 592:src/iface.c   ****   bKIdx = aReqMsg[OSET_REQ_DATA+1];
 593:src/iface.c   ****   pTRand = aReqMsg + OSET_REQ_DATA + 2;
 594:src/iface.c   **** 
 595:src/iface.c   ****   // generate SKey = TDEA(MRMK/RMK, RRand[5-8] | TRand[1-4] | RRand[1-4] | TRand[5-8])
 596:src/iface.c   ****   Random(abRRand, 8);
 597:src/iface.c   ****   memcpy(buf, abRRand+4, 4);
 598:src/iface.c   ****   memcpy(buf+4, pTRand, 4);
 599:src/iface.c   ****   memcpy(buf+8, abRRand, 4);
 600:src/iface.c   ****   memcpy(buf+12, pTRand+4, 4);
 601:src/iface.c   ****   if ((encrypt(S3TDES, bKType, bKIdx, buf, 16) == FALSE)
 602:src/iface.c   ****       || (keyPut(buf, bKType|SKEY_MASK, bKIdx) == FALSE)) {
 603:src/iface.c   ****     return errRspData(S3RC_ERR_KEY, aRspMsg, aReqMsg, aReqLen);
 604:src/iface.c   ****   }
 605:src/iface.c   **** 
 606:src/iface.c   ****   // EncRand = TDEA(SKey, TRand[1-8] | RRand[1-8])
 607:src/iface.c   ****   memcpy(buf, pTRand, 8);
 608:src/iface.c   ****   memcpy(buf+8, abRRand, 8);
 609:src/iface.c   ****   if (encrypt(S3TDES, bKType|SKEY_MASK, bKIdx, buf, 16) == FALSE) {
 610:src/iface.c   ****     return errRspData(S3RC_ERR_KEY, aRspMsg, aReqMsg, aReqLen);
 611:src/iface.c   ****   }
 612:src/iface.c   **** 
 613:src/iface.c   ****   // action
 614:src/iface.c   ****   gbMode = 0x00; // reset mode
 615:src/iface.c   ****   memcpy(gabRRand, abRRand, 8); // save for mutu auth
 616:src/iface.c   ****   memcpy(gabTRand, pTRand, 8);  // save for mutu auth
 617:src/iface.c   **** 
 618:src/iface.c   ****   // output data: RCode(1) | KeyType(1) | KeyIdx(1) | RRand(8) | EncRand(16)
 619:src/iface.c   ****   iLen = 0;
 620:src/iface.c   ****   pRCode = aRspMsg + OSET_RSP_CODE;
ARM GAS  C:\Users\AHMEDH~1\AppData\Local\Temp\cclxJjJK.s 			page 21


 621:src/iface.c   ****   pRCode[iLen++] = S3RC_OK;
 622:src/iface.c   **** 
 623:src/iface.c   ****   pRCode[iLen++] = bKType;
 624:src/iface.c   ****   pRCode[iLen++] = bKIdx;
 625:src/iface.c   ****   memcpy(pRCode+iLen, abRRand, 8);
 626:src/iface.c   ****   iLen += 8;
 627:src/iface.c   ****   memcpy(pRCode+iLen, buf, 16);
 628:src/iface.c   ****   iLen += 16;
 629:src/iface.c   **** 
 630:src/iface.c   ****   // rsp data len
 631:src/iface.c   ****   WPut(&aRspMsg[OSET_DATA_LEN], iLen);
 632:src/iface.c   ****   iLen += 2;
 633:src/iface.c   **** 
 634:src/iface.c   ****   return iLen;
 635:src/iface.c   **** }
 636:src/iface.c   **** 
 637:src/iface.c   **** //=============================================================================
 638:src/iface.c   **** //  Function        : rspMutuAuthData
 639:src/iface.c   **** //  Description     :
 640:src/iface.c   **** //  Input           :
 641:src/iface.c   **** //  Return          :
 642:src/iface.c   **** //  Note            : N/A
 643:src/iface.c   **** //  Globals Changed : N/A
 644:src/iface.c   **** //=============================================================================
 645:src/iface.c   **** static int rspMutuAuthData(BYTE *aRspMsg, BYTE *aReqMsg, WORD aReqLen)
 646:src/iface.c   **** {
 647:src/iface.c   ****   int i, iLen;
 648:src/iface.c   ****   BYTE *pRCode, bKType, bKIdx, bMode, *pERand, buf[16];
 649:src/iface.c   **** 
 650:src/iface.c   ****   // input: KeyType(1) | KeyIdx(1) | EncRand(16) | Mode(1)
 651:src/iface.c   ****   i = WGet(aReqMsg + OSET_DATA_LEN);
 652:src/iface.c   ****   if (i < 19) {
 653:src/iface.c   ****     return errRspData(S3RC_ERR_DATA, aRspMsg, aReqMsg, aReqLen);
 654:src/iface.c   ****   }
 655:src/iface.c   ****   bKType = aReqMsg[OSET_REQ_DATA];
 656:src/iface.c   ****   bKIdx = aReqMsg[OSET_REQ_DATA+1];
 657:src/iface.c   ****   pERand = aReqMsg + OSET_REQ_DATA + 2;
 658:src/iface.c   ****   bMode = aReqMsg[OSET_REQ_DATA+18];
 659:src/iface.c   **** 
 660:src/iface.c   ****   // EncRand = TDEA(SKey, TRand[5-8], RRand[1-4], TRand[1-4], RRand[5-8])
 661:src/iface.c   ****   memcpy(buf, gabTRand+4, 4);
 662:src/iface.c   ****   memcpy(buf+4, gabRRand, 4);
 663:src/iface.c   ****   memcpy(buf+8, gabTRand, 4);
 664:src/iface.c   ****   memcpy(buf+12, gabRRand+4, 4);
 665:src/iface.c   ****   if (encrypt(S3TDES, bKType|SKEY_MASK, bKIdx, buf, 16) == FALSE) {
 666:src/iface.c   ****     return errRspData(S3RC_ERR_KEY, aRspMsg, aReqMsg, aReqLen);
 667:src/iface.c   ****   }
 668:src/iface.c   ****   if (memcmp(pERand, buf, 16) != 0) { //EncRand not match
 669:src/iface.c   ****     return errRspData(S3RC_ERR_KEY, aRspMsg, aReqMsg, aReqLen);
 670:src/iface.c   ****   }
 671:src/iface.c   **** 
 672:src/iface.c   ****   // action
 673:src/iface.c   ****   gbMode = bMode;
 674:src/iface.c   ****   gwSeqNum = 1;
 675:src/iface.c   ****   memset(gabTRand, 0x00, 8);
 676:src/iface.c   ****   memset(gabRRand, 0x00, 8);
 677:src/iface.c   **** 
ARM GAS  C:\Users\AHMEDH~1\AppData\Local\Temp\cclxJjJK.s 			page 22


 678:src/iface.c   ****   // output data: RCode(1)
 679:src/iface.c   ****   iLen = 0;
 680:src/iface.c   ****   pRCode = aRspMsg + OSET_RSP_CODE;
 681:src/iface.c   ****   pRCode[iLen++] = S3RC_OK;
 682:src/iface.c   **** 
 683:src/iface.c   ****   // rsp data len
 684:src/iface.c   ****   WPut(&aRspMsg[OSET_DATA_LEN], iLen);
 685:src/iface.c   ****   iLen += 2;
 686:src/iface.c   **** 
 687:src/iface.c   ****   return iLen;
 688:src/iface.c   **** }
 689:src/iface.c   **** 
 690:src/iface.c   **** //=============================================================================
 691:src/iface.c   **** //  Function        : rspGenKeyData
 692:src/iface.c   **** //  Description     :
 693:src/iface.c   **** //  Input           :
 694:src/iface.c   **** //  Return          :
 695:src/iface.c   **** //  Note            : N/A
 696:src/iface.c   **** //  Globals Changed : N/A
 697:src/iface.c   **** //=============================================================================
 698:src/iface.c   **** static int rspGenKeyData(BYTE *aRspMsg, BYTE *aReqMsg, WORD aReqLen)
 699:src/iface.c   **** {
 700:src/iface.c   ****   int i, iLen;
 701:src/iface.c   ****   BYTE *pRCode, bKType, bKIdx, *pEKey, *pKvc, buf[16], abKvc[8];
 702:src/iface.c   **** 
 703:src/iface.c   ****   // input: KeyType(1) | KeyIdx(1) | EncKey(16) | KVC(4)
 704:src/iface.c   ****   i = WGet(aReqMsg + OSET_DATA_LEN);
 705:src/iface.c   ****   if (i < 22) {
 706:src/iface.c   ****     return errRspData(S3RC_ERR_DATA, aRspMsg, aReqMsg, aReqLen);
 707:src/iface.c   ****   }
 708:src/iface.c   ****   bKType = aReqMsg[OSET_REQ_DATA];
 709:src/iface.c   ****   bKIdx = aReqMsg[OSET_REQ_DATA+1];
 710:src/iface.c   ****   pEKey = aReqMsg + OSET_REQ_DATA + 2;
 711:src/iface.c   ****   pKvc = aReqMsg + OSET_REQ_DATA + 18;
 712:src/iface.c   **** 
 713:src/iface.c   ****   // MRMK/RMK = TDEA2(SKey, EncKey)
 714:src/iface.c   ****   memcpy(buf, pEKey, 16);
 715:src/iface.c   ****   if (encrypt(S3TDES2, bKType|SKEY_MASK, bKIdx, buf, 16) == FALSE) {
 716:src/iface.c   ****     return errRspData(S3RC_ERR_KEY, aRspMsg, aReqMsg, aReqLen);
 717:src/iface.c   ****   }
 718:src/iface.c   **** 
 719:src/iface.c   ****   // KVC check
 720:src/iface.c   ****   memset(abKvc, 0x00, 8);
 721:src/iface.c   ****   TDes(buf, abKvc, 8);
 722:src/iface.c   ****   if (memcmp(pKvc, abKvc, 4) != 0) { // KVC not match
 723:src/iface.c   ****     return errRspData(S3RC_ERR_KVC, aRspMsg, aReqMsg, aReqLen);
 724:src/iface.c   ****   }
 725:src/iface.c   **** 
 726:src/iface.c   ****   // action
 727:src/iface.c   ****   keyPut(buf, bKType, bKIdx);
 728:src/iface.c   **** 
 729:src/iface.c   ****   // output data: RCode(1)
 730:src/iface.c   ****   iLen = 0;
 731:src/iface.c   ****   pRCode = aRspMsg + OSET_RSP_CODE;
 732:src/iface.c   ****   pRCode[iLen++] = S3RC_OK;
 733:src/iface.c   **** 
 734:src/iface.c   ****   // rsp data len
ARM GAS  C:\Users\AHMEDH~1\AppData\Local\Temp\cclxJjJK.s 			page 23


 735:src/iface.c   ****   WPut(&aRspMsg[OSET_DATA_LEN], iLen);
 736:src/iface.c   ****   iLen += 2;
 737:src/iface.c   **** 
 738:src/iface.c   ****   return iLen;
 739:src/iface.c   **** }
 740:src/iface.c   **** 
 741:src/iface.c   **** //=============================================================================
 742:src/iface.c   **** //  Function        : setFullEmvData
 743:src/iface.c   **** //  Description     :
 744:src/iface.c   **** //  Input           :
 745:src/iface.c   **** //  Return          :
 746:src/iface.c   **** //  Note            : N/A
 747:src/iface.c   **** //  Globals Changed : N/A
 748:src/iface.c   **** //=============================================================================
 749:src/iface.c   **** static int setFullEmvData(BYTE aRCode, DWORD aEId, BYTE *aRspMsg, sIO_t *asOut)
 750:src/iface.c   **** {
 751:src/iface.c   ****   int iLen;
 752:src/iface.c   ****   BYTE *pRCode;
 753:src/iface.c   **** 
 754:src/iface.c   ****   //=> output init
 755:src/iface.c   ****   // output data: RCode(1) | EId(4) | Len(2) | Data(x)
 756:src/iface.c   ****   //DbOut("RC[%02X] EId[%02X] Len(%d)\n", aRCode, aEId, asOut->wLen);
 757:src/iface.c   **** 
 758:src/iface.c   ****   iLen = 0;
 759:src/iface.c   ****   pRCode = aRspMsg+OSET_RSP_CODE;
 760:src/iface.c   ****   pRCode[iLen++] = aRCode;
 761:src/iface.c   ****   UPut(pRCode+iLen, aEId);
 762:src/iface.c   ****   iLen += 4;
 763:src/iface.c   ****   WPut(pRCode+iLen, asOut->wLen);
 764:src/iface.c   ****   iLen += 2;
 765:src/iface.c   ****   memcpy(pRCode+iLen, asOut->bMsg, asOut->wLen);
 766:src/iface.c   ****   iLen += asOut->wLen;
 767:src/iface.c   **** 
 768:src/iface.c   ****   // rsp data len
 769:src/iface.c   ****   WPut(aRspMsg+OSET_DATA_LEN, iLen);
 770:src/iface.c   ****   iLen += 2;
 771:src/iface.c   ****   return iLen;
 772:src/iface.c   **** }
 773:src/iface.c   **** //*****************************************************************************
 774:src/iface.c   **** //  Function        : packFullEmvData
 775:src/iface.c   **** //  Description     : Pack response
 776:src/iface.c   **** //  Input           : N/A
 777:src/iface.c   **** //  Return          : N/A
 778:src/iface.c   **** //  Note            : N/A
 779:src/iface.c   **** //  Globals Changed : N/A
 780:src/iface.c   **** //*****************************************************************************
 781:src/iface.c   **** void packFullEmvData(sIO_t *asOut)
 782:src/iface.c   **** {
 783:src/iface.c   ****   const WORD *pw;
 784:src/iface.c   ****   BYTE *pb, ab_tmp[32], ab_totresp[64], *pb_tmp;
 785:src/iface.c   ****   WORD w_rspcode, w_tmp;
 786:src/iface.c   **** 
 787:src/iface.c   ****   asOut->wLen = 0;
 788:src/iface.c   ****   if (gGDS->s_ecr_data.b_cmd >= MAX_ECREDC_CMD)
 789:src/iface.c   ****     return;
 790:src/iface.c   **** 
 791:src/iface.c   ****   w_rspcode = 'L'*256+'C';
ARM GAS  C:\Users\AHMEDH~1\AppData\Local\Temp\cclxJjJK.s 			page 24


 792:src/iface.c   ****   if (INPUT.b_entry_mode == ICC)
 793:src/iface.c   ****     memcpy(asOut->bMsg, gGDS->s_EMVOut.bMsg, 2);
 794:src/iface.c   ****   else if (INPUT.b_entry_mode == CONTACTLESS)
 795:src/iface.c   ****     memcpy(asOut->bMsg, gGDS->s_CTLOut.pbMsg, 2);
 796:src/iface.c   ****   else
 797:src/iface.c   ****     memcpy(asOut->bMsg, "\x00\x01", 2);           // default signature for swipe/manual
 798:src/iface.c   ****   asOut->wLen = 2;
 799:src/iface.c   ****   
 800:src/iface.c   ****   if (RSP_DATA.b_response == TRANS_ACP)
 801:src/iface.c   ****     asOut->bMsg[1] |= ACT_APPROVED;
 802:src/iface.c   ****   pb = asOut->bMsg + 2;
 803:src/iface.c   ****   pw = KItfRespTbl[gGDS->s_ecr_data.b_cmd];
 804:src/iface.c   ****   while (*pw != 0x00) {
 805:src/iface.c   ****     switch (*pw) {
 806:src/iface.c   ****       case ITFTAG_PAN:
 807:src/iface.c   ****         split(ab_tmp, INPUT.sb_pan, 10);
 808:src/iface.c   ****         w_tmp = fndb(&ab_tmp[1], 'F', 19);
 809:src/iface.c   ****         w_tmp = (w_tmp/2) + (w_tmp%2);
 810:src/iface.c   ****         pb += TlvPack(*pw, w_tmp, INPUT.sb_pan, pb);
 811:src/iface.c   ****         break;
 812:src/iface.c   ****       case ITFTAG_TXNAMT:
 813:src/iface.c   ****         DDWORD2bcd(ab_tmp, INPUT.dd_amount);
 814:src/iface.c   ****         pb += TlvPack(*pw, 6, &ab_tmp[4], pb);
 815:src/iface.c   ****         break;
 816:src/iface.c   ****       case ITFTAG_TRACE:
 817:src/iface.c   ****         pb += TlvPack(*pw, 3, INPUT.sb_trace_no, pb);
 818:src/iface.c   ****         break;
 819:src/iface.c   ****       case ITFTAG_TXNTIME:
 820:src/iface.c   ****         pb += TlvPack(*pw, 3, &RSP_DATA.s_dtg.b_hour, pb);
 821:src/iface.c   ****         break;
 822:src/iface.c   ****       case ITFTAG_TXNDATE:
 823:src/iface.c   ****         pb += TlvPack(*pw, 2, &RSP_DATA.s_dtg.b_month, pb);
 824:src/iface.c   ****         break;
 825:src/iface.c   ****       case ITFTAG_EXPDATE:
 826:src/iface.c   ****         pb += TlvPack(*pw, 2, INPUT.sb_exp_date, pb);
 827:src/iface.c   ****         break;
 828:src/iface.c   ****       case ITFTAG_RRN:
 829:src/iface.c   ****         pb += TlvPack(*pw, 12, RSP_DATA.sb_rrn, pb);
 830:src/iface.c   ****         break;
 831:src/iface.c   ****       case ITFTAG_AUTH_RESP:
 832:src/iface.c   ****         pb += TlvPack(*pw, 6, RSP_DATA.sb_auth_code, pb);
 833:src/iface.c   ****         break;
 834:src/iface.c   ****       case ITFTAG_RESP_CODE:
 835:src/iface.c   ****         if ((RSP_DATA.w_rspcode == 'A'*256+'P') || (RSP_DATA.w_rspcode == 'T'*256+'A') || (RSP_DATA
 836:src/iface.c   ****           w_rspcode = '0'*256+'0';
 837:src/iface.c   ****         else
 838:src/iface.c   ****           w_rspcode = RSP_DATA.w_rspcode;
 839:src/iface.c   ****         ab_tmp[0] = (BYTE)((w_rspcode>>8)&0xFF);
 840:src/iface.c   ****         ab_tmp[1] = (BYTE)(w_rspcode&0xFF);
 841:src/iface.c   ****         pb += TlvPack(*pw, 2, ab_tmp, pb);
 842:src/iface.c   ****         break;
 843:src/iface.c   ****       case ITFTAG_TERMID :
 844:src/iface.c   ****         pb += TlvPack(*pw, 8, STIS_ACQ_TBL(0).sb_term_id, pb);
 845:src/iface.c   ****         break;
 846:src/iface.c   ****       case ITFTAG_MERCHID:
 847:src/iface.c   ****         pb += TlvPack(*pw, 15, STIS_ACQ_TBL(0).sb_acceptor_id, pb);
 848:src/iface.c   ****         break;
ARM GAS  C:\Users\AHMEDH~1\AppData\Local\Temp\cclxJjJK.s 			page 25


 849:src/iface.c   ****       case ITFTAG_CARDHOLDERNAME :
 850:src/iface.c   ****         pb += TlvPack(*pw, 26, INPUT.sb_holder_name, pb);
 851:src/iface.c   ****         break;
 852:src/iface.c   ****       case ITFTAG_ADDAMT :
 853:src/iface.c   ****         DDWORD2bcd(ab_tmp, INPUT.dd_tip);
 854:src/iface.c   ****         pb += TlvPack(*pw, 6, &ab_tmp[4], pb);
 855:src/iface.c   ****         break;
 856:src/iface.c   ****       case ITFTAG_BATCHNO:
 857:src/iface.c   ****         pb += TlvPack(*pw, 3, STIS_ACQ_TBL(0).sb_curr_batch_no, pb);
 858:src/iface.c   ****         break;
 859:src/iface.c   ****       case ITFTAG_ECRREF:
 860:src/iface.c   ****         pb += TlvPack(*pw, 16, INPUT.sb_ecr_ref, pb);
 861:src/iface.c   ****         break;
 862:src/iface.c   ****       case ITFTAG_HOSTNAME:
 863:src/iface.c   ****         pb += TlvPack(*pw, 10, STIS_ACQ_TBL(0).sb_name, pb);
 864:src/iface.c   ****         break;
 865:src/iface.c   ****       case ITFTAG_HOSTTOT:
 866:src/iface.c   ****         pb_tmp = ab_totresp;
 867:src/iface.c   ****         DDWORD2bcd(ab_tmp, gTermTotal.s_sale_tot.w_count);
 868:src/iface.c   ****         memcpy(pb_tmp, &ab_tmp[8], 2);
 869:src/iface.c   ****         pb_tmp += 2;
 870:src/iface.c   ****         DDWORD2bcd(ab_tmp, gTermTotal.s_sale_tot.dd_amount);
 871:src/iface.c   ****         memcpy(pb_tmp, &ab_tmp[4], 6);
 872:src/iface.c   ****         pb_tmp += 6;
 873:src/iface.c   ****         DDWORD2bcd(ab_tmp, gTermTotal.s_refund_tot.w_count);
 874:src/iface.c   ****         memcpy(pb_tmp, &ab_tmp[8], 2);
 875:src/iface.c   ****         pb_tmp += 2;
 876:src/iface.c   ****         DDWORD2bcd(ab_tmp, gTermTotal.s_refund_tot.dd_amount);
 877:src/iface.c   ****         memcpy(pb_tmp, &ab_tmp[4], 6);
 878:src/iface.c   ****         pb_tmp += 6;
 879:src/iface.c   ****         pb += TlvPack(*pw, 16, ab_totresp, pb);
 880:src/iface.c   ****         break;
 881:src/iface.c   ****       case ITFTAG_ENTRYMODE:
 882:src/iface.c   ****         switch (INPUT.b_entry_mode) {
 883:src/iface.c   ****           case MANUAL:
 884:src/iface.c   ****           case MANUAL_4DBC:
 885:src/iface.c   ****             ab_tmp[0] = 0x01;
 886:src/iface.c   ****             break;
 887:src/iface.c   ****           case SWIPE:
 888:src/iface.c   ****           case SWIPE_4DBC:
 889:src/iface.c   ****           case FALLBACK_4DBC:
 890:src/iface.c   ****           case FALLBACK:
 891:src/iface.c   ****             ab_tmp[0] = 0x02;
 892:src/iface.c   ****             break;
 893:src/iface.c   ****           default :
 894:src/iface.c   ****             ab_tmp[0] = 0x05;
 895:src/iface.c   ****             break;
 896:src/iface.c   ****         }
 897:src/iface.c   ****         pb += TlvPack(*pw, 1, ab_tmp, pb);
 898:src/iface.c   ****         break;
 899:src/iface.c   ****       case ITFTAG_TXNTYPE:
 900:src/iface.c   ****         pb += TlvPack(*pw, 1, &gGDS->s_ecr_data.b_cmd, pb);
 901:src/iface.c   ****         break;
 902:src/iface.c   ****       case ITFTAG_AID:
 903:src/iface.c   ****         pb += TlvPack(*pw, INPUT.s_icc_data.b_aid_len, INPUT.s_icc_data.sb_aid, pb);
 904:src/iface.c   ****         break;
 905:src/iface.c   ****     }
ARM GAS  C:\Users\AHMEDH~1\AppData\Local\Temp\cclxJjJK.s 			page 26


 906:src/iface.c   ****     pw++;
 907:src/iface.c   ****   }
 908:src/iface.c   ****   asOut->wLen = (DWORD)pb - (DWORD)asOut->bMsg;
 909:src/iface.c   **** }
 910:src/iface.c   **** //*****************************************************************************
 911:src/iface.c   **** //  Function        : ItfVoid
 912:src/iface.c   **** //  Description     : Process Void request from ECR.
 913:src/iface.c   **** //  Input           : N/A
 914:src/iface.c   **** //  Return          : N/A
 915:src/iface.c   **** //  Note            : N/A
 916:src/iface.c   **** //  Globals Changed : N/A
 917:src/iface.c   **** //*****************************************************************************
 918:src/iface.c   **** DWORD ItfVoid(void)
 919:src/iface.c   **** {
 920:src/iface.c   ****   VoidTrans(-1);
 921:src/iface.c   ****   return TXN_OK;
 922:src/iface.c   **** }
 923:src/iface.c   **** //*****************************************************************************
 924:src/iface.c   **** //  Function        : ItfHostTot
 925:src/iface.c   **** //  Description     : Process Host Total request from ECR.
 926:src/iface.c   **** //  Input           : N/A
 927:src/iface.c   **** //  Return          : N/A
 928:src/iface.c   **** //  Note            : N/A
 929:src/iface.c   **** //  Globals Changed : N/A
 930:src/iface.c   **** //*****************************************************************************
 931:src/iface.c   **** DWORD ItfHostTot(void)
 932:src/iface.c   **** {
 933:src/iface.c   ****   CalTotals(FALSE);
 934:src/iface.c   ****   memcpy(&gTermTotal, &TERM_TOT, sizeof(struct TOTAL_STRUCT));
 935:src/iface.c   ****   return TXN_OK;
 936:src/iface.c   **** }
 937:src/iface.c   **** //*****************************************************************************
 938:src/iface.c   **** //  Function        : ItfSettle
 939:src/iface.c   **** //  Description     : Process Settlement request from ECR.
 940:src/iface.c   **** //  Input           : N/A
 941:src/iface.c   **** //  Return          : N/A
 942:src/iface.c   **** //  Note            : N/A
 943:src/iface.c   **** //  Globals Changed : N/A
 944:src/iface.c   **** //*****************************************************************************
 945:src/iface.c   **** DWORD ItfSettle(void)
 946:src/iface.c   **** {
 947:src/iface.c   ****   CalTotals(FALSE);
 948:src/iface.c   ****   memcpy(&gTermTotal, &TERM_TOT, sizeof(struct TOTAL_STRUCT));    // backup total in batch
 949:src/iface.c   ****   RSP_DATA.w_rspcode = 'D'*256 + 'E';
 950:src/iface.c   ****   INPUT.w_host_idx = 0;
 951:src/iface.c   ****   if (SettleTrans() == TRUE)
 952:src/iface.c   ****     return TXN_OK;
 953:src/iface.c   ****   return TXN_ERR;
 954:src/iface.c   **** }
 955:src/iface.c   **** //=============================================================================
 956:src/iface.c   **** //  Function        : rspPackData
 957:src/iface.c   **** //  Description     : pack response data
 958:src/iface.c   **** //  Input           :
 959:src/iface.c   **** //  Return          : >=0 - total data len included len(2) and rsp code(1) field
 960:src/iface.c   **** //                    < 0 - error status
 961:src/iface.c   **** //  Note            : N/A
 962:src/iface.c   **** //  Globals Changed : N/A
ARM GAS  C:\Users\AHMEDH~1\AppData\Local\Temp\cclxJjJK.s 			page 27


 963:src/iface.c   **** //=============================================================================
 964:src/iface.c   **** static int rspPackData(BYTE *aRspMsg, BYTE *aReqMsg, WORD aReqLen)
 965:src/iface.c   **** {
 966:src/iface.c   ****   sIO_t sOut;
 967:src/iface.c   ****   int iLen;
 968:src/iface.c   ****   BYTE *pb, *pbTlv;
 969:src/iface.c   ****   DWORD ret=TXN_ERR;
 970:src/iface.c   **** 
 971:src/iface.c   ****   sOut.bMsg = gRspBuf;
 972:src/iface.c   ****   // instruction
 973:src/iface.c   ****   switch (aReqMsg[OSET_INS]) {
 974:src/iface.c   ****       // general ins
 975:src/iface.c   ****     case S3INS_ECHO:
 976:src/iface.c   ****       iLen = rspEchoData(aRspMsg, aReqMsg, aReqLen);
 977:src/iface.c   ****       break;
 978:src/iface.c   ****     case S3INS_INIT_MODE:
 979:src/iface.c   ****       iLen = rspInitModeData(aRspMsg, aReqMsg, aReqLen);
 980:src/iface.c   ****       break;
 981:src/iface.c   ****     case S3INS_INIT_AUTH:
 982:src/iface.c   ****       iLen = rspInitAuthData(aRspMsg, aReqMsg, aReqLen);
 983:src/iface.c   ****       break;
 984:src/iface.c   ****     case S3INS_MUTU_AUTH:
 985:src/iface.c   ****       iLen = rspMutuAuthData(aRspMsg, aReqMsg, aReqLen);
 986:src/iface.c   ****       break;
 987:src/iface.c   ****       // setup ins
 988:src/iface.c   ****     case S3INS_GEN_KEY:
 989:src/iface.c   ****       iLen = rspGenKeyData(aRspMsg, aReqMsg, aReqLen);
 990:src/iface.c   ****       break;
 991:src/iface.c   ****       // transaction ins
 992:src/iface.c   ****     case S3INS_TRANS:
 993:src/iface.c   ****     case S3INS_FULL_EMV:  
 994:src/iface.c   ****       ClearResponse();
 995:src/iface.c   ****       LongBeep();
 996:src/iface.c   ****       // convert to existing ECR interface
 997:src/iface.c   ****       gGDS->s_ecr_data.b_cla = ECR_CLA_EDC;
 998:src/iface.c   ****       memcpy(gGDS->s_ecr_data.sb_content, "\xDF\x04\x06", 3);             // ECR Amount
 999:src/iface.c   ****       memcpy(&gGDS->s_ecr_data.sb_content[3], aReqMsg+OSET_REQ_DATA, 6);  // Copy from Request
1000:src/iface.c   ****       pbTlv = TlvSeek(aReqMsg+OSET_REQ_DATA+6, aReqLen-OSET_REQ_DATA-6, ITFTAG_TXNTYPE);
1001:src/iface.c   ****       if (pbTlv != NULL) {
1002:src/iface.c   ****         pb = TlvVPtr(pbTlv);
1003:src/iface.c   ****         gGDS->s_ecr_data.b_cmd = *pb;
1004:src/iface.c   ****       }
1005:src/iface.c   ****       else
1006:src/iface.c   ****         gGDS->s_ecr_data.b_cmd = ECR_EDC_SALE;
1007:src/iface.c   ****       gGDS->i_ecr_len = 11;
1008:src/iface.c   ****       memset(&gTermTotal, 0, sizeof(struct TOTAL_STRUCT));
1009:src/iface.c   ****       switch (gGDS->s_ecr_data.b_cmd) {
1010:src/iface.c   ****         case ECR_EDC_SALE:
1011:src/iface.c   ****           ret = WaitCardTrans(SALE_SWIPE);
1012:src/iface.c   ****           break;
1013:src/iface.c   ****         case ECR_EDC_OFFLSALE:
1014:src/iface.c   ****           ret = WaitCardTrans(SALE_OFFLINE);
1015:src/iface.c   ****           break;
1016:src/iface.c   ****         case ECR_EDC_REFUND:
1017:src/iface.c   ****           ret = WaitCardTrans(REFUND);
1018:src/iface.c   ****           break;
1019:src/iface.c   ****         case ECR_EDC_VOID:
ARM GAS  C:\Users\AHMEDH~1\AppData\Local\Temp\cclxJjJK.s 			page 28


1020:src/iface.c   ****           pbTlv = TlvSeek(aReqMsg+OSET_REQ_DATA+6, aReqLen-OSET_REQ_DATA-6, ITFTAG_TRACE);
1021:src/iface.c   ****           if (pbTlv != NULL)
1022:src/iface.c   ****             memcpy(INPUT.sb_roc_no, TlvVPtr(pbTlv), TlvLen(pbTlv));
1023:src/iface.c   ****           ret = ItfVoid();
1024:src/iface.c   ****           break;
1025:src/iface.c   ****         case ECR_EDC_HOSTTOTAL:
1026:src/iface.c   ****           ret = ItfHostTot();
1027:src/iface.c   ****           break;
1028:src/iface.c   ****         case ECR_EDC_AUTH:
1029:src/iface.c   ****           ret = WaitCardTrans(AUTH_SWIPE);
1030:src/iface.c   ****           break;
1031:src/iface.c   ****         case ECR_EDC_SETTLE:
1032:src/iface.c   ****           ret = ItfSettle();
1033:src/iface.c   ****           break;
1034:src/iface.c   ****       }
1035:src/iface.c   ****       if (ret != TXN_CANCEL) {
1036:src/iface.c   ****         packFullEmvData(&sOut);
1037:src/iface.c   ****         iLen = setFullEmvData(S3RC_OK, 0, aRspMsg, &sOut);
1038:src/iface.c   ****       }
1039:src/iface.c   ****       else
1040:src/iface.c   ****         iLen = errRspData(S3RC_CANCEL, aRspMsg, aReqMsg, aReqLen);
1041:src/iface.c   ****       gGDS->i_ecr_len = 0;
1042:src/iface.c   ****       ResetTerm();
1043:src/iface.c   ****       break;
1044:src/iface.c   ****     //// !2011-09--
1045:src/iface.c   ****     default: // unknown
1046:src/iface.c   ****       iLen = errRspData(S3RC_ERR_INS, aRspMsg, aReqMsg, aReqLen);
1047:src/iface.c   ****       break;
1048:src/iface.c   ****   }
1049:src/iface.c   **** 
1050:src/iface.c   ****   return iLen;
1051:src/iface.c   **** }
1052:src/iface.c   **** 
1053:src/iface.c   **** //=============================================================================
1054:src/iface.c   **** //  Function        : RspFmtPack
1055:src/iface.c   **** //  Description     : pack response format
1056:src/iface.c   **** //  Input           :
1057:src/iface.c   **** //  Return          : >= 0 - total rsp len
1058:src/iface.c   **** //                    <0   - error status
1059:src/iface.c   **** //  Note            : N/A
1060:src/iface.c   **** //  Globals Changed : N/A
1061:src/iface.c   **** //=============================================================================
1062:src/iface.c   **** static int rspPackFmt(BYTE *aRspMsg, BYTE *aReqMsg, WORD aReqLen)
1063:src/iface.c   **** {
1064:src/iface.c   ****   int i, iLen;
1065:src/iface.c   ****   BYTE buf[16];
1066:src/iface.c   **** 
1067:src/iface.c   ****   // stx
1068:src/iface.c   ****   iLen = 0;
1069:src/iface.c   ****   aRspMsg[iLen++] = 0x02;
1070:src/iface.c   **** 
1071:src/iface.c   ****   // format id
1072:src/iface.c   ****   UPut(aRspMsg+iLen, S3_FMT_ID);
1073:src/iface.c   ****   iLen += 4;
1074:src/iface.c   **** 
1075:src/iface.c   ****   // sender & receiver
1076:src/iface.c   ****   aRspMsg[iLen++] = aReqMsg[OSET_RX_ID];
ARM GAS  C:\Users\AHMEDH~1\AppData\Local\Temp\cclxJjJK.s 			page 29


1077:src/iface.c   ****   aRspMsg[iLen++] = aReqMsg[OSET_TX_ID];
1078:src/iface.c   **** 
1079:src/iface.c   ****   // seq num
1080:src/iface.c   ****   i = WGet(aReqMsg+OSET_SEQ_NUM);
1081:src/iface.c   ****   if (i == 0) {
1082:src/iface.c   ****     WPut(aRspMsg+iLen, gwSeqNum-1);
1083:src/iface.c   ****   }
1084:src/iface.c   ****   else if (i == 0xFFFF) {
1085:src/iface.c   ****     gbMode = 0x00;
1086:src/iface.c   ****     gwSeqNum = i;
1087:src/iface.c   ****     WPut(aRspMsg+iLen, i);
1088:src/iface.c   ****   }
1089:src/iface.c   ****   else {
1090:src/iface.c   ****     gwSeqNum = i + 1;
1091:src/iface.c   ****     WPut(aRspMsg+iLen, gwSeqNum-1);
1092:src/iface.c   ****   }
1093:src/iface.c   ****   iLen += 2;
1094:src/iface.c   **** 
1095:src/iface.c   ****   // ins
1096:src/iface.c   ****   aRspMsg[iLen++] = aReqMsg[OSET_INS];
1097:src/iface.c   **** 
1098:src/iface.c   ****   // data format
1099:src/iface.c   ****   aRspMsg[iLen++] = aReqMsg[OSET_DATA_FMT]>>4;
1100:src/iface.c   **** 
1101:src/iface.c   ****   // rsp data len(2) + rsp code(1) + rsp data(x)
1102:src/iface.c   ****   i = WGet(aRspMsg+OSET_DATA_LEN);
1103:src/iface.c   ****   if (i > 1) {
1104:src/iface.c   ****     switch (aRspMsg[OSET_DATA_FMT] & 0x0F) {
1105:src/iface.c   ****       case S3DFMT_PLAIN:
1106:src/iface.c   ****         break;
1107:src/iface.c   ****       case S3DFMT_ECB_DES:
1108:src/iface.c   ****         i = i - 1; // ignore rsp code
1109:src/iface.c   ****         memset(aRspMsg+OSET_RSP_DATA+i, 0x00, 8);
1110:src/iface.c   ****         i = ((i+7)/8)*8; // rsp data len
1111:src/iface.c   ****         if (encrypt(S3DES, ANY_SKEY, 0x00, aRspMsg+OSET_RSP_DATA, i) == FALSE) {
1112:src/iface.c   ****           errRspData(S3RC_ERR_KEY, aRspMsg, aReqMsg, aReqLen);
1113:src/iface.c   ****           i = 1;
1114:src/iface.c   ****           break;
1115:src/iface.c   ****         }
1116:src/iface.c   ****         i ++; // include rsp code
1117:src/iface.c   ****         WPut(aRspMsg+OSET_DATA_LEN, i);
1118:src/iface.c   ****         break;
1119:src/iface.c   ****       case S3DFMT_ECB_TDES:
1120:src/iface.c   ****         i = i - 1; // ignore rsp code
1121:src/iface.c   ****         memset(aRspMsg+OSET_RSP_DATA+i, 0x00, 8);
1122:src/iface.c   ****         i = ((i+7)/8)*8; // rsp data len
1123:src/iface.c   ****         if (encrypt(S3TDES, ANY_SKEY, 0x00, aRspMsg+OSET_RSP_DATA, i) == FALSE) {
1124:src/iface.c   ****           errRspData(S3RC_ERR_KEY, aRspMsg, aReqMsg, aReqLen);
1125:src/iface.c   ****           i = 1;
1126:src/iface.c   ****           break;
1127:src/iface.c   ****         }
1128:src/iface.c   ****         i ++; // include rsp code
1129:src/iface.c   ****         WPut(aRspMsg+OSET_DATA_LEN, i);
1130:src/iface.c   ****         break;
1131:src/iface.c   ****       default:
1132:src/iface.c   ****         errRspData(S3RC_ERR_KEY, aRspMsg, aReqMsg, aReqLen);
1133:src/iface.c   ****         i = 1;
ARM GAS  C:\Users\AHMEDH~1\AppData\Local\Temp\cclxJjJK.s 			page 30


1134:src/iface.c   ****         break;
1135:src/iface.c   ****     }
1136:src/iface.c   ****   }
1137:src/iface.c   ****   iLen += i + 2;
1138:src/iface.c   **** 
1139:src/iface.c   ****   // crc or mac
1140:src/iface.c   ****   UPut(aRspMsg+iLen ,Crc16(aRspMsg+1, iLen-1, 0)); // put crc
1141:src/iface.c   ****   //MAC = TDEA(SKey, Seq(2) | Ins(1) | DataFmt(1) | DataLen(2) | Crc(2))
1142:src/iface.c   ****   if (aRspMsg[OSET_INS] != S3INS_INIT_AUTH) { // use CRC if init auth
1143:src/iface.c   ****     memcpy(buf, aRspMsg+OSET_SEQ_NUM, 6);
1144:src/iface.c   ****     memcpy(buf+6, aRspMsg+iLen+2, 2);
1145:src/iface.c   ****     if (encrypt(S3TDES, ANY_SKEY, 0x00, buf, 8) == TRUE) { // MAC ok
1146:src/iface.c   ****       memcpy(aRspMsg+iLen, buf, 4);
1147:src/iface.c   ****     }
1148:src/iface.c   ****   }
1149:src/iface.c   ****   iLen += 4;
1150:src/iface.c   **** 
1151:src/iface.c   ****   // etx
1152:src/iface.c   ****   aRspMsg[iLen++] = 0x03;
1153:src/iface.c   ****   return iLen;
1154:src/iface.c   **** }
1155:src/iface.c   **** 
1156:src/iface.c   **** //=============================================================================
1157:src/iface.c   **** //  Function        : Spt3MsgHdr
1158:src/iface.c   **** //  Description     : Spectra message interface handler
1159:src/iface.c   **** //  Input           :
1160:src/iface.c   **** //  Return          : <0 error
1161:src/iface.c   **** //                    >0 response message len
1162:src/iface.c   **** //  Note            : N/A
1163:src/iface.c   **** //  Globals Changed : N/A
1164:src/iface.c   **** //=============================================================================
1165:src/iface.c   **** int Spt3MsgHdr(BYTE *aInOutMsg, WORD aInLen)
1166:src/iface.c   **** {
1167:src/iface.c   ****   int iRet;
1168:src/iface.c   ****   BYTE *pmReq;
1169:src/iface.c   **** 
1170:src/iface.c   ****   // init
1171:src/iface.c   ****   pmReq = gReqBuf;
1172:src/iface.c   ****   memcpy(pmReq, aInOutMsg, aInLen);
1173:src/iface.c   **** 
1174:src/iface.c   ****   // check input format
1175:src/iface.c   ****   iRet = reqCheck(pmReq, aInLen);
1176:src/iface.c   ****   if (iRet < 0) { // if error
1177:src/iface.c   ****     switch (iRet) {
1178:src/iface.c   ****       case IF_ERR_FMT: // format error -> return to try other interface
1179:src/iface.c   ****         return iRet;
1180:src/iface.c   ****       case IF_ERR_CRC:
1181:src/iface.c   ****         iRet = errRspData(S3RC_ERR_CSUM, aInOutMsg, pmReq, aInLen);
1182:src/iface.c   ****         break;
1183:src/iface.c   ****       case IF_ERR_SEQ:
1184:src/iface.c   ****         iRet = errRspData(S3RC_ERR_SEQ, aInOutMsg, pmReq, aInLen);
1185:src/iface.c   ****         break;
1186:src/iface.c   ****       case IF_ERR_INS:
1187:src/iface.c   ****         iRet = errRspData(S3RC_ERR_INS, aInOutMsg, pmReq, aInLen);
1188:src/iface.c   ****         break;
1189:src/iface.c   ****       case IF_ERR_KEY:
1190:src/iface.c   ****         iRet = errRspData(S3RC_ERR_KEY, aInOutMsg, pmReq, aInLen);
ARM GAS  C:\Users\AHMEDH~1\AppData\Local\Temp\cclxJjJK.s 			page 31


1191:src/iface.c   ****         break;
1192:src/iface.c   ****       default:
1193:src/iface.c   ****         iRet = errRspData(S3RC_ERR_FMT, aInOutMsg, pmReq, aInLen);
1194:src/iface.c   ****         break;
1195:src/iface.c   ****     }
1196:src/iface.c   ****     if (iRet < 0) {
1197:src/iface.c   ****       return iRet;
1198:src/iface.c   ****     }
1199:src/iface.c   ****     iRet = rspPackFmt(aInOutMsg, pmReq, aInLen);
1200:src/iface.c   ****     return iRet;
1201:src/iface.c   ****   }
1202:src/iface.c   **** 
1203:src/iface.c   ****   // response pack
1204:src/iface.c   ****   iRet = rspPackData(aInOutMsg, pmReq, aInLen);
1205:src/iface.c   ****   if (iRet < 0) {
1206:src/iface.c   ****     return iRet;
1207:src/iface.c   ****   }
1208:src/iface.c   ****   iRet = rspPackFmt(aInOutMsg, pmReq, aInLen);
1209:src/iface.c   ****   return iRet;
1210:src/iface.c   **** }
1211:src/iface.c   **** 
1212:src/iface.c   **** //=============================================================================
1213:src/iface.c   **** //  Function        : IfaceInit
1214:src/iface.c   **** //  Description     :
1215:src/iface.c   **** //  Input           :
1216:src/iface.c   **** //  Return          :
1217:src/iface.c   **** //  Note            : N/A
1218:src/iface.c   **** //  Globals Changed :
1219:src/iface.c   **** //  * PC1506 add force init input
1220:src/iface.c   **** //=============================================================================
1221:src/iface.c   **** BOOLEAN IfaceInit(BOOLEAN aForceInit)
1222:src/iface.c   **** {
1223:src/iface.c   ****   //return APM_IFACE_Open(aForceInit);
1224:src/iface.c   ****   return TRUE;
1225:src/iface.c   **** }
1226:src/iface.c   **** 
1227:src/iface.c   **** //=============================================================================
1228:src/iface.c   **** //  Function        : IfaceClose
1229:src/iface.c   **** //  Description     :
1230:src/iface.c   **** //  Input           :
1231:src/iface.c   **** //  Return          :
1232:src/iface.c   **** //  Note            : N/A
1233:src/iface.c   **** //  Globals Changed : N/A
1234:src/iface.c   **** //=============================================================================
1235:src/iface.c   **** BOOLEAN IfaceClose(void)
1236:src/iface.c   **** {
1237:src/iface.c   ****   //return APM_IFACE_Close();
1238:src/iface.c   ****   return TRUE;
1239:src/iface.c   **** }
1240:src/iface.c   **** 
1241:src/iface.c   **** /******************************************************************************
1242:src/iface.c   ****  *  Function        : debugAuxIface
1243:src/iface.c   ****  *  Description     : Debug Iface Tx/Rx to COM1.
1244:src/iface.c   ****  *  Input           : N/A
1245:src/iface.c   ****  *  Return          : N/A
1246:src/iface.c   ****  *  Note            : N/A
1247:src/iface.c   ****  *  Globals Changed : N/A
ARM GAS  C:\Users\AHMEDH~1\AppData\Local\Temp\cclxJjJK.s 			page 32


1248:src/iface.c   ****  ******************************************************************************
1249:src/iface.c   ****  */
1250:src/iface.c   **** void debugAuxIface(BYTE aIn, BYTE *pData, DWORD aLen)
1251:src/iface.c   **** {
1252:src/iface.c   ****   BYTE buf[20];
1253:src/iface.c   ****   BYTE *txbuf;
1254:src/iface.c   ****   DWORD free_run;
1255:src/iface.c   ****   
1256:src/iface.c   ****   txbuf = MallocMW(aLen*2+20);
1257:src/iface.c   ****   if (txbuf == NULL)
1258:src/iface.c   ****     return;
1259:src/iface.c   ****   
1260:src/iface.c   ****   set_pptr(txbuf, aLen*2+20);
1261:src/iface.c   ****   memset(buf, 0, sizeof(buf));
1262:src/iface.c   ****   if (aIn)
1263:src/iface.c   ****     sprintf(buf, "Iface-In (%d):", aLen);
1264:src/iface.c   ****   else
1265:src/iface.c   ****     sprintf(buf, "Iface-Out(%d):", aLen);
1266:src/iface.c   ****   pack_mem(buf, strlen(buf));
1267:src/iface.c   ****   split_data(pData, aLen);
1268:src/iface.c   ****   pack_mem("\r\n", 2);
1269:src/iface.c   **** 
1270:src/iface.c   ****   if (!AuxOpen()) {
1271:src/iface.c   ****     DispLineMW("AuxOpen Err!", MW_LINE5, MW_CENTER|MW_CLRDISP|MW_BIGFONT);
1272:src/iface.c   ****     APM_WaitKey(9000, 0);
1273:src/iface.c   ****     return;
1274:src/iface.c   ****   }
1275:src/iface.c   **** 
1276:src/iface.c   ****   free_run = FreeRunMW();
1277:src/iface.c   ****   while (FreeRunMW() < free_run + 200*2) {   // 2 sec timeout for send
1278:src/iface.c   ****     if (AuxTxRdy()) {
1279:src/iface.c   ****       AuxWrite(txbuf, get_distance());
1280:src/iface.c   ****       break;
1281:src/iface.c   ****     }
1282:src/iface.c   ****     SleepMW();
1283:src/iface.c   ****   }
1284:src/iface.c   ****   AuxClose();
1285:src/iface.c   ****   FreeMW(txbuf);
1286:src/iface.c   **** }
1287:src/iface.c   **** //=============================================================================
1288:src/iface.c   **** //  Function        : IfaceTx
1289:src/iface.c   **** //  Description     :
1290:src/iface.c   **** //  Input           :
1291:src/iface.c   **** //  Return          :
1292:src/iface.c   **** //  Note            : N/A
1293:src/iface.c   **** //  Globals Changed : N/A
1294:src/iface.c   **** //=============================================================================
1295:src/iface.c   **** int IfaceTx(BYTE *aData, WORD aLen)
1296:src/iface.c   **** {
1297:src/iface.c   ****   BYTE buf[MAX_IFACE_BUF];
1298:src/iface.c   ****   
1299:src/iface.c   ****   memcpy(buf, aData, aLen);
1300:src/iface.c   ****   //debugAuxIface(0, aData, aLen);
1301:src/iface.c   ****   return ECR_Send(buf, aLen);
1302:src/iface.c   **** }
1303:src/iface.c   **** 
1304:src/iface.c   **** //=============================================================================
ARM GAS  C:\Users\AHMEDH~1\AppData\Local\Temp\cclxJjJK.s 			page 33


1305:src/iface.c   **** //  Function        : IfaceRx
1306:src/iface.c   **** //  Description     :
1307:src/iface.c   **** //  Input           :
1308:src/iface.c   **** //  Return          :
1309:src/iface.c   **** //  Note            : N/A
1310:src/iface.c   **** //  Globals Changed : N/A
1311:src/iface.c   **** //=============================================================================
1312:src/iface.c   **** int IfaceRx(BYTE *aData, WORD aMaxLen)
 491              		.loc 1 1312 0
 492              		.cfi_startproc
 493              		@ args = 0, pretend = 0, frame = 1536
 494              		@ frame_needed = 0, uses_anonymous_args = 0
 495              	.LVL55:
 496 0000 30B5     		push	{r4, r5, lr}
 497              		.cfi_def_cfa_offset 12
 498              		.cfi_offset 4, -12
 499              		.cfi_offset 5, -8
 500              		.cfi_offset 14, -4
1313:src/iface.c   **** {
1314:src/iface.c   ****   BYTE buf[MAX_IFACE_BUF];
1315:src/iface.c   ****   int ret;
1316:src/iface.c   ****   
1317:src/iface.c   ****   if (!ECR_RxRdy())
1318:src/iface.c   ****     return 0;
1319:src/iface.c   ****     
1320:src/iface.c   ****   ret = ECR_Rcvd(buf, aMaxLen);
 501              		.loc 1 1320 0
 502 0002 0022     		movs	r2, #0
1312:src/iface.c   **** {
 503              		.loc 1 1312 0
 504 0004 ADF20C6D 		subw	sp, sp, #1548
 505              		.cfi_def_cfa_offset 1560
1312:src/iface.c   **** {
 506              		.loc 1 1312 0
 507 0008 0B46     		mov	r3, r1
 508              		.loc 1 1320 0
 509 000a 0092     		str	r2, [sp]
1312:src/iface.c   **** {
 510              		.loc 1 1312 0
 511 000c 0546     		mov	r5, r0
 512              		.loc 1 1320 0
 513 000e 0321     		movs	r1, #3
 514              	.LVL56:
 515 0010 7D20     		movs	r0, #125
 516              	.LVL57:
 517 0012 02AA     		add	r2, sp, #8
 518 0014 FFF7FEFF 		bl	lib_app_call
 519              	.LVL58:
1321:src/iface.c   ****   if (ret > 0) {
 520              		.loc 1 1321 0
 521 0018 041E     		subs	r4, r0, #0
 522 001a 04DD     		ble	.L69
1322:src/iface.c   ****     memcpy(aData, buf, ret);
 523              		.loc 1 1322 0
 524 001c 2846     		mov	r0, r5
 525              	.LVL59:
 526 001e 02A9     		add	r1, sp, #8
ARM GAS  C:\Users\AHMEDH~1\AppData\Local\Temp\cclxJjJK.s 			page 34


 527 0020 2246     		mov	r2, r4
 528 0022 FFF7FEFF 		bl	memcpy
 529              	.LVL60:
 530              	.L69:
1323:src/iface.c   ****     //debugAuxIface(1, aData, ret);
1324:src/iface.c   ****   }
1325:src/iface.c   ****   return ret;
1326:src/iface.c   **** }
 531              		.loc 1 1326 0
 532 0026 2046     		mov	r0, r4
 533 0028 0DF20C6D 		addw	sp, sp, #1548
 534              		.cfi_def_cfa_offset 12
 535              		@ sp needed
 536 002c 30BD     		pop	{r4, r5, pc}
 537              		.cfi_endproc
 538              	.LFE34:
 539              		.size	IfaceRx.part.8, .-IfaceRx.part.8
 540              		.section	.text.rspPackFmt.isra.6.constprop.9,"ax",%progbits
 541              		.align	1
 542              		.thumb
 543              		.thumb_func
 544              		.type	rspPackFmt.isra.6.constprop.9, %function
 545              	rspPackFmt.isra.6.constprop.9:
 546              	.LFB42:
1062:src/iface.c   **** {
 547              		.loc 1 1062 0
 548              		.cfi_startproc
 549              		@ args = 0, pretend = 0, frame = 16
 550              		@ frame_needed = 0, uses_anonymous_args = 0
 551              	.LVL61:
 552 0000 2DE9F043 		push	{r4, r5, r6, r7, r8, r9, lr}
 553              		.cfi_def_cfa_offset 28
 554              		.cfi_offset 4, -28
 555              		.cfi_offset 5, -24
 556              		.cfi_offset 6, -20
 557              		.cfi_offset 7, -16
 558              		.cfi_offset 8, -12
 559              		.cfi_offset 9, -8
 560              		.cfi_offset 14, -4
1069:src/iface.c   **** 
 561              		.loc 1 1069 0
 562 0004 0223     		movs	r3, #2
 563 0006 0746     		mov	r7, r0
1076:src/iface.c   ****   aRspMsg[iLen++] = aReqMsg[OSET_TX_ID];
 564              		.loc 1 1076 0
 565 0008 504C     		ldr	r4, .L91
1062:src/iface.c   **** {
 566              		.loc 1 1062 0
 567 000a 0546     		mov	r5, r0
1069:src/iface.c   **** 
 568              		.loc 1 1069 0
 569 000c 07F8013B 		strb	r3, [r7], #1
1072:src/iface.c   ****   iLen += 4;
 570              		.loc 1 1072 0
 571 0010 0121     		movs	r1, #1
1062:src/iface.c   **** {
 572              		.loc 1 1062 0
ARM GAS  C:\Users\AHMEDH~1\AppData\Local\Temp\cclxJjJK.s 			page 35


 573 0012 87B0     		sub	sp, sp, #28
 574              		.cfi_def_cfa_offset 56
1072:src/iface.c   ****   iLen += 4;
 575              		.loc 1 1072 0
 576 0014 3846     		mov	r0, r7
 577              	.LVL62:
 578 0016 FFF7FEFF 		bl	UPut
 579              	.LVL63:
1076:src/iface.c   ****   aRspMsg[iLen++] = aReqMsg[OSET_TX_ID];
 580              		.loc 1 1076 0
 581 001a A37F     		ldrb	r3, [r4, #30]	@ zero_extendqisi2
1080:src/iface.c   ****   if (i == 0) {
 582              		.loc 1 1080 0
 583 001c 04F11F00 		add	r0, r4, #31
1076:src/iface.c   ****   aRspMsg[iLen++] = aReqMsg[OSET_TX_ID];
 584              		.loc 1 1076 0
 585 0020 6B71     		strb	r3, [r5, #5]
 586              	.LVL64:
1077:src/iface.c   **** 
 587              		.loc 1 1077 0
 588 0022 637F     		ldrb	r3, [r4, #29]	@ zero_extendqisi2
 589 0024 05F10708 		add	r8, r5, #7
 590 0028 AB71     		strb	r3, [r5, #6]
1080:src/iface.c   ****   if (i == 0) {
 591              		.loc 1 1080 0
 592 002a FFF7FEFF 		bl	WGet
 593              	.LVL65:
1081:src/iface.c   ****     WPut(aRspMsg+iLen, gwSeqNum-1);
 594              		.loc 1 1081 0
 595 002e 0146     		mov	r1, r0
 596 0030 28B9     		cbnz	r0, .L71
1082:src/iface.c   ****   }
 597              		.loc 1 1082 0
 598 0032 B4F81816 		ldrh	r1, [r4, #1560]
 599 0036 4046     		mov	r0, r8
 600              	.LVL66:
 601 0038 0139     		subs	r1, r1, #1
 602 003a 89B2     		uxth	r1, r1
 603 003c 0DE0     		b	.L87
 604              	.LVL67:
 605              	.L71:
1084:src/iface.c   ****     gbMode = 0x00;
 606              		.loc 1 1084 0
 607 003e 4FF6FF73 		movw	r3, #65535
 608 0042 9842     		cmp	r0, r3
1090:src/iface.c   ****     WPut(aRspMsg+iLen, gwSeqNum-1);
 609              		.loc 1 1090 0
 610 0044 12BF     		itee	ne
 611 0046 431C     		addne	r3, r0, #1
1085:src/iface.c   ****     gwSeqNum = i;
 612              		.loc 1 1085 0
 613 0048 0023     		moveq	r3, #0
1086:src/iface.c   ****     WPut(aRspMsg+iLen, i);
 614              		.loc 1 1086 0
 615 004a A4F81806 		strheq	r0, [r4, #1560]	@ movhi
1091:src/iface.c   ****   }
 616              		.loc 1 1091 0
ARM GAS  C:\Users\AHMEDH~1\AppData\Local\Temp\cclxJjJK.s 			page 36


 617 004e 4046     		mov	r0, r8
 618              	.LVL68:
1085:src/iface.c   ****     gwSeqNum = i;
 619              		.loc 1 1085 0
 620 0050 0CBF     		ite	eq
 621 0052 84F81A36 		strbeq	r3, [r4, #1562]
1090:src/iface.c   ****     WPut(aRspMsg+iLen, gwSeqNum-1);
 622              		.loc 1 1090 0
 623 0056 A4F81836 		strhne	r3, [r4, #1560]	@ movhi
 624              	.LVL69:
 625              	.L87:
1091:src/iface.c   ****   }
 626              		.loc 1 1091 0
 627 005a FFF7FEFF 		bl	WPut
 628              	.LVL70:
1096:src/iface.c   **** 
 629              		.loc 1 1096 0
 630 005e 94F82130 		ldrb	r3, [r4, #33]	@ zero_extendqisi2
1102:src/iface.c   ****   if (i > 1) {
 631              		.loc 1 1102 0
 632 0062 05F10B09 		add	r9, r5, #11
1096:src/iface.c   **** 
 633              		.loc 1 1096 0
 634 0066 6B72     		strb	r3, [r5, #9]
 635              	.LVL71:
1099:src/iface.c   **** 
 636              		.loc 1 1099 0
 637 0068 94F82230 		ldrb	r3, [r4, #34]	@ zero_extendqisi2
1102:src/iface.c   ****   if (i > 1) {
 638              		.loc 1 1102 0
 639 006c 4846     		mov	r0, r9
1099:src/iface.c   **** 
 640              		.loc 1 1099 0
 641 006e 1B09     		lsrs	r3, r3, #4
 642 0070 AB72     		strb	r3, [r5, #10]
1102:src/iface.c   ****   if (i > 1) {
 643              		.loc 1 1102 0
 644 0072 FFF7FEFF 		bl	WGet
 645              	.LVL72:
1103:src/iface.c   ****     switch (aRspMsg[OSET_DATA_FMT] & 0x0F) {
 646              		.loc 1 1103 0
 647 0076 0128     		cmp	r0, #1
1102:src/iface.c   ****   if (i > 1) {
 648              		.loc 1 1102 0
 649 0078 0446     		mov	r4, r0
 650              	.LVL73:
1103:src/iface.c   ****     switch (aRspMsg[OSET_DATA_FMT] & 0x0F) {
 651              		.loc 1 1103 0
 652 007a 32DD     		ble	.L74
1104:src/iface.c   ****       case S3DFMT_PLAIN:
 653              		.loc 1 1104 0
 654 007c AE7A     		ldrb	r6, [r5, #10]	@ zero_extendqisi2
 655 007e 06F00F06 		and	r6, r6, #15
 656 0082 012E     		cmp	r6, #1
 657 0084 0FD0     		beq	.L76
 658 0086 2CD3     		bcc	.L74
 659 0088 022E     		cmp	r6, #2
ARM GAS  C:\Users\AHMEDH~1\AppData\Local\Temp\cclxJjJK.s 			page 37


 660 008a 25D1     		bne	.L86
 661              	.LVL74:
1122:src/iface.c   ****         if (encrypt(S3TDES, ANY_SKEY, 0x00, aRspMsg+OSET_RSP_DATA, i) == FALSE) {
 662              		.loc 1 1122 0
 663 008c 0634     		adds	r4, r4, #6
1121:src/iface.c   ****         i = ((i+7)/8)*8; // rsp data len
 664              		.loc 1 1121 0
 665 008e 0D30     		adds	r0, r0, #13
 666              	.LVL75:
1122:src/iface.c   ****         if (encrypt(S3TDES, ANY_SKEY, 0x00, aRspMsg+OSET_RSP_DATA, i) == FALSE) {
 667              		.loc 1 1122 0
 668 0090 24F00704 		bic	r4, r4, #7
1121:src/iface.c   ****         i = ((i+7)/8)*8; // rsp data len
 669              		.loc 1 1121 0
 670 0094 2844     		add	r0, r0, r5
 671              	.LVL76:
 672 0096 0021     		movs	r1, #0
 673 0098 0822     		movs	r2, #8
 674 009a FFF7FEFF 		bl	memset
 675              	.LVL77:
1123:src/iface.c   ****           errRspData(S3RC_ERR_KEY, aRspMsg, aReqMsg, aReqLen);
 676              		.loc 1 1123 0
 677 009e A3B2     		uxth	r3, r4
 678 00a0 0320     		movs	r0, #3
 679 00a2 0093     		str	r3, [sp]
 680 00a4 0BE0     		b	.L90
 681              	.LVL78:
 682              	.L76:
1110:src/iface.c   ****         if (encrypt(S3DES, ANY_SKEY, 0x00, aRspMsg+OSET_RSP_DATA, i) == FALSE) {
 683              		.loc 1 1110 0
 684 00a6 0634     		adds	r4, r4, #6
1109:src/iface.c   ****         i = ((i+7)/8)*8; // rsp data len
 685              		.loc 1 1109 0
 686 00a8 0D30     		adds	r0, r0, #13
 687              	.LVL79:
1110:src/iface.c   ****         if (encrypt(S3DES, ANY_SKEY, 0x00, aRspMsg+OSET_RSP_DATA, i) == FALSE) {
 688              		.loc 1 1110 0
 689 00aa 24F00704 		bic	r4, r4, #7
 690              	.LVL80:
1109:src/iface.c   ****         i = ((i+7)/8)*8; // rsp data len
 691              		.loc 1 1109 0
 692 00ae 2844     		add	r0, r0, r5
 693              	.LVL81:
 694 00b0 0021     		movs	r1, #0
 695 00b2 0822     		movs	r2, #8
 696 00b4 FFF7FEFF 		bl	memset
 697              	.LVL82:
1111:src/iface.c   ****           errRspData(S3RC_ERR_KEY, aRspMsg, aReqMsg, aReqLen);
 698              		.loc 1 1111 0
 699 00b8 A3B2     		uxth	r3, r4
 700 00ba 3046     		mov	r0, r6
 701 00bc 0093     		str	r3, [sp]
 702              	.L90:
1123:src/iface.c   ****           errRspData(S3RC_ERR_KEY, aRspMsg, aReqMsg, aReqLen);
 703              		.loc 1 1123 0
 704 00be FF21     		movs	r1, #255
 705 00c0 0022     		movs	r2, #0
ARM GAS  C:\Users\AHMEDH~1\AppData\Local\Temp\cclxJjJK.s 			page 38


 706 00c2 05F10E03 		add	r3, r5, #14
 707 00c6 FFF7FEFF 		bl	encrypt
 708              	.LVL83:
 709 00ca 28B1     		cbz	r0, .L86
1128:src/iface.c   ****         WPut(aRspMsg+OSET_DATA_LEN, i);
 710              		.loc 1 1128 0
 711 00cc 0134     		adds	r4, r4, #1
 712              	.LVL84:
1129:src/iface.c   ****         break;
 713              		.loc 1 1129 0
 714 00ce 4846     		mov	r0, r9
 715 00d0 A1B2     		uxth	r1, r4
 716 00d2 FFF7FEFF 		bl	WPut
 717              	.LVL85:
 718 00d6 04E0     		b	.L74
 719              	.L86:
1132:src/iface.c   ****         i = 1;
 720              		.loc 1 1132 0
 721 00d8 8520     		movs	r0, #133
 722 00da 2946     		mov	r1, r5
 723 00dc FFF7FEFF 		bl	errRspData.isra.0
 724              	.LVL86:
1133:src/iface.c   ****         break;
 725              		.loc 1 1133 0
 726 00e0 0124     		movs	r4, #1
 727              	.LVL87:
 728              	.L74:
1140:src/iface.c   ****   //MAC = TDEA(SKey, Seq(2) | Ins(1) | DataFmt(1) | DataLen(2) | Crc(2))
 729              		.loc 1 1140 0
 730 00e2 04F10C01 		add	r1, r4, #12
 731 00e6 0022     		movs	r2, #0
 732 00e8 89B2     		uxth	r1, r1
 733 00ea 3846     		mov	r0, r7
 734 00ec FFF7FEFF 		bl	Crc16
 735              	.LVL88:
1137:src/iface.c   **** 
 736              		.loc 1 1137 0
 737 00f0 04F10D06 		add	r6, r4, #13
 738              	.LVL89:
1140:src/iface.c   ****   //MAC = TDEA(SKey, Seq(2) | Ins(1) | DataFmt(1) | DataLen(2) | Crc(2))
 739              		.loc 1 1140 0
 740 00f4 2E44     		add	r6, r6, r5
 741              	.LVL90:
 742 00f6 0146     		mov	r1, r0
 743 00f8 3046     		mov	r0, r6
 744 00fa FFF7FEFF 		bl	UPut
 745              	.LVL91:
1142:src/iface.c   ****     memcpy(buf, aRspMsg+OSET_SEQ_NUM, 6);
 746              		.loc 1 1142 0
 747 00fe 6B7A     		ldrb	r3, [r5, #9]	@ zero_extendqisi2
 748 0100 022B     		cmp	r3, #2
 749 0102 1BD0     		beq	.L81
1143:src/iface.c   ****     memcpy(buf+6, aRspMsg+iLen+2, 2);
 750              		.loc 1 1143 0
 751 0104 4146     		mov	r1, r8
 752 0106 0622     		movs	r2, #6
 753 0108 02A8     		add	r0, sp, #8
ARM GAS  C:\Users\AHMEDH~1\AppData\Local\Temp\cclxJjJK.s 			page 39


 754 010a FFF7FEFF 		bl	memcpy
 755              	.LVL92:
1144:src/iface.c   ****     if (encrypt(S3TDES, ANY_SKEY, 0x00, buf, 8) == TRUE) { // MAC ok
 756              		.loc 1 1144 0
 757 010e 04F10F01 		add	r1, r4, #15
 758 0112 2944     		add	r1, r1, r5
 759 0114 0222     		movs	r2, #2
 760 0116 0DF10E00 		add	r0, sp, #14
 761 011a FFF7FEFF 		bl	memcpy
 762              	.LVL93:
1145:src/iface.c   ****       memcpy(aRspMsg+iLen, buf, 4);
 763              		.loc 1 1145 0
 764 011e 0823     		movs	r3, #8
 765 0120 0320     		movs	r0, #3
 766 0122 0093     		str	r3, [sp]
 767 0124 FF21     		movs	r1, #255
 768 0126 0022     		movs	r2, #0
 769 0128 6B44     		add	r3, sp, r3
 770 012a FFF7FEFF 		bl	encrypt
 771              	.LVL94:
 772 012e 0128     		cmp	r0, #1
 773 0130 04D1     		bne	.L81
1146:src/iface.c   ****     }
 774              		.loc 1 1146 0
 775 0132 3046     		mov	r0, r6
 776 0134 02A9     		add	r1, sp, #8
 777 0136 0422     		movs	r2, #4
 778 0138 FFF7FEFF 		bl	memcpy
 779              	.LVL95:
 780              	.L81:
1152:src/iface.c   ****   return iLen;
 781              		.loc 1 1152 0
 782 013c 2544     		add	r5, r5, r4
 783              	.LVL96:
 784 013e 0323     		movs	r3, #3
1154:src/iface.c   **** 
 785              		.loc 1 1154 0
 786 0140 04F11200 		add	r0, r4, #18
 787              	.LVL97:
1152:src/iface.c   ****   return iLen;
 788              		.loc 1 1152 0
 789 0144 6B74     		strb	r3, [r5, #17]
1154:src/iface.c   **** 
 790              		.loc 1 1154 0
 791 0146 07B0     		add	sp, sp, #28
 792              		.cfi_def_cfa_offset 28
 793              		@ sp needed
 794 0148 BDE8F083 		pop	{r4, r5, r6, r7, r8, r9, pc}
 795              	.LVL98:
 796              	.L92:
 797              		.align	2
 798              	.L91:
 799 014c 00000000 		.word	.LANCHOR1
 800              		.cfi_endproc
 801              	.LFE42:
 802              		.size	rspPackFmt.isra.6.constprop.9, .-rspPackFmt.isra.6.constprop.9
 803              		.section	.text.IfaceInitData,"ax",%progbits
ARM GAS  C:\Users\AHMEDH~1\AppData\Local\Temp\cclxJjJK.s 			page 40


 804              		.align	1
 805              		.global	IfaceInitData
 806              		.thumb
 807              		.thumb_func
 808              		.type	IfaceInitData, %function
 809              	IfaceInitData:
 810              	.LFB0:
 162:src/iface.c   ****   BYTE filename[32];
 811              		.loc 1 162 0
 812              		.cfi_startproc
 813              		@ args = 0, pretend = 0, frame = 32
 814              		@ frame_needed = 0, uses_anonymous_args = 0
 815 0000 F0B5     		push	{r4, r5, r6, r7, lr}
 816              		.cfi_def_cfa_offset 20
 817              		.cfi_offset 4, -20
 818              		.cfi_offset 5, -16
 819              		.cfi_offset 6, -12
 820              		.cfi_offset 7, -8
 821              		.cfi_offset 14, -4
 167:src/iface.c   ****     gIfaceData = (struct IFACE_DATA*) MallocMW(sizeof(struct IFACE_DATA));
 822              		.loc 1 167 0
 823 0002 424C     		ldr	r4, .L113
 162:src/iface.c   ****   BYTE filename[32];
 824              		.loc 1 162 0
 825 0004 8BB0     		sub	sp, sp, #44
 826              		.cfi_def_cfa_offset 64
 167:src/iface.c   ****     gIfaceData = (struct IFACE_DATA*) MallocMW(sizeof(struct IFACE_DATA));
 827              		.loc 1 167 0
 828 0006 2368     		ldr	r3, [r4]
 829 0008 2646     		mov	r6, r4
 830 000a 43B9     		cbnz	r3, .L94
 168:src/iface.c   ****     if (gIfaceData == NULL) {
 831              		.loc 1 168 0
 832 000c 9220     		movs	r0, #146
 833 000e 2821     		movs	r1, #40
 834 0010 FFF7FEFF 		bl	sys_func1
 835              	.LVL99:
 836 0014 2060     		str	r0, [r4]
 169:src/iface.c   ****       MemFatalErr(gIfaceData);  // Check Memory
 837              		.loc 1 169 0
 838 0016 10B9     		cbnz	r0, .L94
 170:src/iface.c   ****       return;
 839              		.loc 1 170 0
 840 0018 FFF7FEFF 		bl	MemFatalErr
 841              	.LVL100:
 842 001c 73E0     		b	.L93
 843              	.L94:
 175:src/iface.c   ****   if (fd < 0) {
 844              		.loc 1 175 0
 845 001e 0024     		movs	r4, #0
 174:src/iface.c   ****   fd = fOpenMW(filename);
 846              		.loc 1 174 0
 847 0020 3B49     		ldr	r1, .L113+4
 848 0022 02A8     		add	r0, sp, #8
 849 0024 FFF7FEFF 		bl	strcpy
 850              	.LVL101:
 175:src/iface.c   ****   if (fd < 0) {
ARM GAS  C:\Users\AHMEDH~1\AppData\Local\Temp\cclxJjJK.s 			page 41


 851              		.loc 1 175 0
 852 0028 0094     		str	r4, [sp]
 853 002a 0F20     		movs	r0, #15
 854 002c 0D21     		movs	r1, #13
 855 002e 02AA     		add	r2, sp, #8
 856 0030 2346     		mov	r3, r4
 857 0032 FFF7FEFF 		bl	lib_app_call
 858              	.LVL102:
 176:src/iface.c   ****     fd = fCreateMW(filename, 0);
 859              		.loc 1 176 0
 860 0036 051E     		subs	r5, r0, #0
 861 0038 39DA     		bge	.L96
 177:src/iface.c   ****     memset(gIfaceData, 0, sizeof(struct IFACE_DATA));
 862              		.loc 1 177 0
 863 003a 2346     		mov	r3, r4
 864 003c 0B21     		movs	r1, #11
 865 003e 02AA     		add	r2, sp, #8
 866 0040 0094     		str	r4, [sp]
 867 0042 0F20     		movs	r0, #15
 868              	.LVL103:
 869 0044 FFF7FEFF 		bl	lib_app_call
 870              	.LVL104:
 178:src/iface.c   ****     len = fWriteMW(fd, gIfaceData, sizeof(struct IFACE_DATA));
 871              		.loc 1 178 0
 872 0048 2827     		movs	r7, #40
 873 004a 2146     		mov	r1, r4
 874 004c 3A46     		mov	r2, r7
 177:src/iface.c   ****     memset(gIfaceData, 0, sizeof(struct IFACE_DATA));
 875              		.loc 1 177 0
 876 004e 0546     		mov	r5, r0
 877              	.LVL105:
 178:src/iface.c   ****     len = fWriteMW(fd, gIfaceData, sizeof(struct IFACE_DATA));
 878              		.loc 1 178 0
 879 0050 3068     		ldr	r0, [r6]
 880              	.LVL106:
 881 0052 FFF7FEFF 		bl	memset
 882              	.LVL107:
 179:src/iface.c   ****     if (len != sizeof(struct IFACE_DATA)) {
 883              		.loc 1 179 0
 884 0056 0097     		str	r7, [sp]
 885 0058 0F20     		movs	r0, #15
 886 005a 1221     		movs	r1, #18
 887 005c 2A46     		mov	r2, r5
 888 005e 3368     		ldr	r3, [r6]
 889 0060 FFF7FEFF 		bl	lib_app_call
 890              	.LVL108:
 180:src/iface.c   ****       DispLineMW("File WR Err!", MW_LINE1, MW_CLRDISP|MW_BIGFONT);
 891              		.loc 1 180 0
 892 0064 B842     		cmp	r0, r7
 893 0066 1AD0     		beq	.L97
 894              	.LVL109:
 895              	.LBB11:
 181:src/iface.c   ****       ErrorDelay();
 896              		.loc 1 181 0
 897 0068 9220     		movs	r0, #146
 898              	.LVL110:
 899 006a 0D21     		movs	r1, #13
ARM GAS  C:\Users\AHMEDH~1\AppData\Local\Temp\cclxJjJK.s 			page 42


 900 006c FFF7FEFF 		bl	sys_func1
 901              	.LVL111:
 902 0070 0646     		mov	r6, r0
 903 0072 90B1     		cbz	r0, .L98
 181:src/iface.c   ****       ErrorDelay();
 904              		.loc 1 181 0 is_stmt 0 discriminator 1
 905 0074 2749     		ldr	r1, .L113+8
 906 0076 0C22     		movs	r2, #12
 907 0078 FFF7FEFF 		bl	memcpy
 908              	.LVL112:
 909 007c 4FF48453 		mov	r3, #4224
 910 0080 3473     		strb	r4, [r6, #12]
 911 0082 2521     		movs	r1, #37
 912 0084 0093     		str	r3, [sp]
 913 0086 0F20     		movs	r0, #15
 914 0088 3246     		mov	r2, r6
 915 008a 4FF48073 		mov	r3, #256
 916 008e FFF7FEFF 		bl	lib_app_call
 917              	.LVL113:
 918 0092 9420     		movs	r0, #148
 919 0094 3146     		mov	r1, r6
 920 0096 FFF7FEFF 		bl	sys_func1
 921              	.LVL114:
 922              	.L98:
 923              	.LBE11:
 182:src/iface.c   ****     }
 924              		.loc 1 182 0 is_stmt 1
 925 009a FFF7FEFF 		bl	ErrorDelay
 926              	.LVL115:
 927              	.L97:
 184:src/iface.c   ****   }
 928              		.loc 1 184 0
 929 009e 0022     		movs	r2, #0
 930 00a0 1321     		movs	r1, #19
 931 00a2 0092     		str	r2, [sp]
 932 00a4 1346     		mov	r3, r2
 933 00a6 0F20     		movs	r0, #15
 934 00a8 FFF7FEFF 		bl	lib_app_call
 935              	.LVL116:
 936 00ac 24E0     		b	.L99
 937              	.LVL117:
 938              	.L96:
 187:src/iface.c   ****     if (len != sizeof(struct IFACE_DATA)) {
 939              		.loc 1 187 0
 940 00ae 2823     		movs	r3, #40
 941 00b0 0F20     		movs	r0, #15
 942              	.LVL118:
 943 00b2 0093     		str	r3, [sp]
 944 00b4 1121     		movs	r1, #17
 945 00b6 2A46     		mov	r2, r5
 946 00b8 3368     		ldr	r3, [r6]
 947 00ba FFF7FEFF 		bl	lib_app_call
 948              	.LVL119:
 188:src/iface.c   ****       DispLineMW("File RD Err!", MW_LINE1, MW_CLRDISP|MW_BIGFONT);
 949              		.loc 1 188 0
 950 00be 2828     		cmp	r0, #40
 951 00c0 1AD0     		beq	.L99
ARM GAS  C:\Users\AHMEDH~1\AppData\Local\Temp\cclxJjJK.s 			page 43


 952              	.LVL120:
 953              	.LBB12:
 189:src/iface.c   ****       ErrorDelay();
 954              		.loc 1 189 0
 955 00c2 9220     		movs	r0, #146
 956              	.LVL121:
 957 00c4 0D21     		movs	r1, #13
 958 00c6 FFF7FEFF 		bl	sys_func1
 959              	.LVL122:
 960 00ca 0646     		mov	r6, r0
 961 00cc 90B1     		cbz	r0, .L100
 189:src/iface.c   ****       ErrorDelay();
 962              		.loc 1 189 0 is_stmt 0 discriminator 1
 963 00ce 1249     		ldr	r1, .L113+12
 964 00d0 0C22     		movs	r2, #12
 965 00d2 FFF7FEFF 		bl	memcpy
 966              	.LVL123:
 967 00d6 4FF48453 		mov	r3, #4224
 968 00da 3473     		strb	r4, [r6, #12]
 969 00dc 2521     		movs	r1, #37
 970 00de 0093     		str	r3, [sp]
 971 00e0 0F20     		movs	r0, #15
 972 00e2 3246     		mov	r2, r6
 973 00e4 4FF48073 		mov	r3, #256
 974 00e8 FFF7FEFF 		bl	lib_app_call
 975              	.LVL124:
 976 00ec 9420     		movs	r0, #148
 977 00ee 3146     		mov	r1, r6
 978 00f0 FFF7FEFF 		bl	sys_func1
 979              	.LVL125:
 980              	.L100:
 981              	.LBE12:
 190:src/iface.c   ****     }
 982              		.loc 1 190 0 is_stmt 1
 983 00f4 FFF7FEFF 		bl	ErrorDelay
 984              	.LVL126:
 985              	.L99:
 193:src/iface.c   **** }
 986              		.loc 1 193 0
 987 00f8 0023     		movs	r3, #0
 988 00fa 0F20     		movs	r0, #15
 989 00fc 0093     		str	r3, [sp]
 990 00fe 0E21     		movs	r1, #14
 991 0100 2A46     		mov	r2, r5
 992 0102 FFF7FEFF 		bl	lib_app_call
 993              	.LVL127:
 994              	.L93:
 194:src/iface.c   **** //*****************************************************************************
 995              		.loc 1 194 0
 996 0106 0BB0     		add	sp, sp, #44
 997              		.cfi_def_cfa_offset 20
 998              		@ sp needed
 999 0108 F0BD     		pop	{r4, r5, r6, r7, pc}
 1000              	.L114:
 1001 010a 00BF     		.align	2
 1002              	.L113:
 1003 010c 00000000 		.word	.LANCHOR1
ARM GAS  C:\Users\AHMEDH~1\AppData\Local\Temp\cclxJjJK.s 			page 44


 1004 0110 00000000 		.word	.LANCHOR0
 1005 0114 00000000 		.word	.LC0
 1006 0118 0D000000 		.word	.LC2
 1007              		.cfi_endproc
 1008              	.LFE0:
 1009              		.size	IfaceInitData, .-IfaceInitData
 1010              		.section	.text.packFullEmvData,"ax",%progbits
 1011              		.align	1
 1012              		.global	packFullEmvData
 1013              		.thumb
 1014              		.thumb_func
 1015              		.type	packFullEmvData, %function
 1016              	packFullEmvData:
 1017              	.LFB13:
 782:src/iface.c   ****   const WORD *pw;
 1018              		.loc 1 782 0
 1019              		.cfi_startproc
 1020              		@ args = 0, pretend = 0, frame = 96
 1021              		@ frame_needed = 0, uses_anonymous_args = 0
 1022              	.LVL128:
 1023 0000 2DE9F04F 		push	{r4, r5, r6, r7, r8, r9, r10, fp, lr}
 1024              		.cfi_def_cfa_offset 36
 1025              		.cfi_offset 4, -36
 1026              		.cfi_offset 5, -32
 1027              		.cfi_offset 6, -28
 1028              		.cfi_offset 7, -24
 1029              		.cfi_offset 8, -20
 1030              		.cfi_offset 9, -16
 1031              		.cfi_offset 10, -12
 1032              		.cfi_offset 11, -8
 1033              		.cfi_offset 14, -4
 787:src/iface.c   ****   if (gGDS->s_ecr_data.b_cmd >= MAX_ECREDC_CMD)
 1034              		.loc 1 787 0
 1035 0004 0023     		movs	r3, #0
 788:src/iface.c   ****     return;
 1036              		.loc 1 788 0
 1037 0006 AB4E     		ldr	r6, .L184
 787:src/iface.c   ****   if (gGDS->s_ecr_data.b_cmd >= MAX_ECREDC_CMD)
 1038              		.loc 1 787 0
 1039 0008 0380     		strh	r3, [r0]	@ movhi
 788:src/iface.c   ****     return;
 1040              		.loc 1 788 0
 1041 000a 3368     		ldr	r3, [r6]
 782:src/iface.c   ****   const WORD *pw;
 1042              		.loc 1 782 0
 1043 000c 99B0     		sub	sp, sp, #100
 1044              		.cfi_def_cfa_offset 136
 788:src/iface.c   ****     return;
 1045              		.loc 1 788 0
 1046 000e 03F57152 		add	r2, r3, #15424
 782:src/iface.c   ****   const WORD *pw;
 1047              		.loc 1 782 0
 1048 0012 8046     		mov	r8, r0
 788:src/iface.c   ****     return;
 1049              		.loc 1 788 0
 1050 0014 527E     		ldrb	r2, [r2, #25]	@ zero_extendqisi2
 1051 0016 092A     		cmp	r2, #9
ARM GAS  C:\Users\AHMEDH~1\AppData\Local\Temp\cclxJjJK.s 			page 45


 1052 0018 00F24881 		bhi	.L115
 1053              	.LVL129:
 792:src/iface.c   ****     memcpy(asOut->bMsg, gGDS->s_EMVOut.bMsg, 2);
 1054              		.loc 1 792 0
 1055 001c A64F     		ldr	r7, .L184+4
 1056 001e 4068     		ldr	r0, [r0, #4]
 1057              	.LVL130:
 1058 0020 97F83420 		ldrb	r2, [r7, #52]	@ zero_extendqisi2
 1059 0024 492A     		cmp	r2, #73
 1060 0026 03D1     		bne	.L117
 793:src/iface.c   ****   else if (INPUT.b_entry_mode == CONTACTLESS)
 1061              		.loc 1 793 0
 1062 0028 03F55E53 		add	r3, r3, #14208
 1063 002c D968     		ldr	r1, [r3, #12]
 1064 002e 05E0     		b	.L178
 1065              	.L117:
 794:src/iface.c   ****     memcpy(asOut->bMsg, gGDS->s_CTLOut.pbMsg, 2);
 1066              		.loc 1 794 0
 1067 0030 542A     		cmp	r2, #84
 795:src/iface.c   ****   else
 1068              		.loc 1 795 0
 1069 0032 0ABF     		itet	eq
 1070 0034 03F55E53 		addeq	r3, r3, #14208
 797:src/iface.c   ****   asOut->wLen = 2;
 1071              		.loc 1 797 0
 1072 0038 A049     		ldrne	r1, .L184+8
 795:src/iface.c   ****   else
 1073              		.loc 1 795 0
 1074 003a D969     		ldreq	r1, [r3, #28]
 1075              	.L178:
 797:src/iface.c   ****   asOut->wLen = 2;
 1076              		.loc 1 797 0
 1077 003c 0222     		movs	r2, #2
 1078 003e FFF7FEFF 		bl	memcpy
 1079              	.LVL131:
 1080              	.LBB15:
 1081              	.LBB16:
 798:src/iface.c   ****   
 1082              		.loc 1 798 0
 1083 0042 0223     		movs	r3, #2
 1084 0044 A8F80030 		strh	r3, [r8]	@ movhi
 800:src/iface.c   ****     asOut->bMsg[1] |= ACT_APPROVED;
 1085              		.loc 1 800 0
 1086 0048 97F80037 		ldrb	r3, [r7, #1792]	@ zero_extendqisi2
 1087 004c 2BB9     		cbnz	r3, .L120
 801:src/iface.c   ****   pb = asOut->bMsg + 2;
 1088              		.loc 1 801 0
 1089 004e D8F80420 		ldr	r2, [r8, #4]
 1090 0052 5378     		ldrb	r3, [r2, #1]	@ zero_extendqisi2
 1091 0054 63F07F03 		orn	r3, r3, #127
 1092 0058 5370     		strb	r3, [r2, #1]
 1093              	.L120:
 803:src/iface.c   ****   while (*pw != 0x00) {
 1094              		.loc 1 803 0
 1095 005a 3368     		ldr	r3, [r6]
 802:src/iface.c   ****   pw = KItfRespTbl[gGDS->s_ecr_data.b_cmd];
 1096              		.loc 1 802 0
ARM GAS  C:\Users\AHMEDH~1\AppData\Local\Temp\cclxJjJK.s 			page 46


 1097 005c D8F80440 		ldr	r4, [r8, #4]
 803:src/iface.c   ****   while (*pw != 0x00) {
 1098              		.loc 1 803 0
 1099 0060 03F57153 		add	r3, r3, #15424
 802:src/iface.c   ****   pw = KItfRespTbl[gGDS->s_ecr_data.b_cmd];
 1100              		.loc 1 802 0
 1101 0064 0234     		adds	r4, r4, #2
 1102              	.LVL132:
 803:src/iface.c   ****   while (*pw != 0x00) {
 1103              		.loc 1 803 0
 1104 0066 5A7E     		ldrb	r2, [r3, #25]	@ zero_extendqisi2
 1105 0068 954B     		ldr	r3, .L184+12
 1106 006a 53F82250 		ldr	r5, [r3, r2, lsl #2]
 1107 006e 023D     		subs	r5, r5, #2
 1108              	.LVL133:
 1109              	.L121:
 804:src/iface.c   ****     switch (*pw) {
 1110              		.loc 1 804 0
 1111 0070 35F8020F 		ldrh	r0, [r5, #2]!
 1112              	.LVL134:
 1113 0074 0028     		cmp	r0, #0
 1114 0076 00F01481 		beq	.L183
 805:src/iface.c   ****       case ITFTAG_PAN:
 1115              		.loc 1 805 0
 1116 007a 49F61673 		movw	r3, #40726
 1117 007e 9842     		cmp	r0, r3
 1118 0080 00F0A080 		beq	.L123
 1119 0084 3BD8     		bhi	.L124
 1120 0086 45F62073 		movw	r3, #24352
 1121 008a 9842     		cmp	r0, r3
 1122 008c 00F09F80 		beq	.L125
 1123 0090 1ED8     		bhi	.L126
 1124 0092 8928     		cmp	r0, #137
 1125 0094 77D0     		beq	.L127
 1126 0096 14D8     		bhi	.L128
 1127 0098 5A28     		cmp	r0, #90
 1128 009a E9D1     		bne	.L121
 807:src/iface.c   ****         w_tmp = fndb(&ab_tmp[1], 'F', 19);
 1129              		.loc 1 807 0
 1130 009c 6846     		mov	r0, sp
 1131 009e 8949     		ldr	r1, .L184+16
 1132 00a0 0A22     		movs	r2, #10
 1133 00a2 FFF7FEFF 		bl	split
 1134              	.LVL135:
 808:src/iface.c   ****         w_tmp = (w_tmp/2) + (w_tmp%2);
 1135              		.loc 1 808 0
 1136 00a6 4621     		movs	r1, #70
 1137 00a8 1322     		movs	r2, #19
 1138 00aa 0DF10100 		add	r0, sp, #1
 1139 00ae FFF7FEFF 		bl	fndb
 1140              	.LVL136:
 810:src/iface.c   ****         break;
 1141              		.loc 1 810 0
 1142 00b2 844A     		ldr	r2, .L184+16
 808:src/iface.c   ****         w_tmp = (w_tmp/2) + (w_tmp%2);
 1143              		.loc 1 808 0
 1144 00b4 83B2     		uxth	r3, r0
ARM GAS  C:\Users\AHMEDH~1\AppData\Local\Temp\cclxJjJK.s 			page 47


 1145              	.LVL137:
 809:src/iface.c   ****         pb += TlvPack(*pw, w_tmp, INPUT.sb_pan, pb);
 1146              		.loc 1 809 0
 1147 00b6 03F00101 		and	r1, r3, #1
 1148              	.LVL138:
 810:src/iface.c   ****         break;
 1149              		.loc 1 810 0
 1150 00ba 2888     		ldrh	r0, [r5]
 1151 00bc 01EB5301 		add	r1, r1, r3, lsr #1
 1152              	.LVL139:
 1153 00c0 EAE0     		b	.L180
 1154              	.LVL140:
 1155              	.L128:
 805:src/iface.c   ****       case ITFTAG_PAN:
 1156              		.loc 1 805 0
 1157 00c2 8A28     		cmp	r0, #138
 1158 00c4 62D0     		beq	.L130
 1159 00c6 9A28     		cmp	r0, #154
 1160 00c8 D2D1     		bne	.L121
 823:src/iface.c   ****         break;
 1161              		.loc 1 823 0
 1162 00ca 0221     		movs	r1, #2
 1163 00cc 7E4A     		ldr	r2, .L184+20
 1164 00ce E3E0     		b	.L180
 1165              	.L126:
 805:src/iface.c   ****       case ITFTAG_PAN:
 1166              		.loc 1 805 0
 1167 00d0 49F60273 		movw	r3, #40706
 1168 00d4 9842     		cmp	r0, r3
 1169 00d6 4CD0     		beq	.L132
 1170 00d8 06D8     		bhi	.L133
 1171 00da 45F62473 		movw	r3, #24356
 1172 00de 9842     		cmp	r0, r3
 1173 00e0 C6D1     		bne	.L121
 826:src/iface.c   ****         break;
 1174              		.loc 1 826 0
 1175 00e2 0221     		movs	r1, #2
 1176 00e4 794A     		ldr	r2, .L184+24
 1177 00e6 D7E0     		b	.L180
 1178              	.L133:
 805:src/iface.c   ****       case ITFTAG_PAN:
 1179              		.loc 1 805 0
 1180 00e8 49F60373 		movw	r3, #40707
 1181 00ec 9842     		cmp	r0, r3
 1182 00ee 71D0     		beq	.L135
 1183 00f0 0333     		adds	r3, r3, #3
 1184 00f2 9842     		cmp	r0, r3
 1185 00f4 BCD1     		bne	.L121
 903:src/iface.c   ****         break;
 1186              		.loc 1 903 0
 1187 00f6 97F89410 		ldrb	r1, [r7, #148]	@ zero_extendqisi2
 1188 00fa 754A     		ldr	r2, .L184+28
 1189 00fc CCE0     		b	.L180
 1190              	.L124:
 805:src/iface.c   ****       case ITFTAG_PAN:
 1191              		.loc 1 805 0
 1192 00fe 4DF62573 		movw	r3, #57125
ARM GAS  C:\Users\AHMEDH~1\AppData\Local\Temp\cclxJjJK.s 			page 48


 1193 0102 9842     		cmp	r0, r3
 1194 0104 3CD0     		beq	.L137
 1195 0106 18D8     		bhi	.L138
 1196 0108 49F62173 		movw	r3, #40737
 1197 010c 9842     		cmp	r0, r3
 1198 010e 34D0     		beq	.L139
 1199 0110 08D8     		bhi	.L140
 1200 0112 49F61C73 		movw	r3, #40732
 1201 0116 9842     		cmp	r0, r3
 1202 0118 AAD1     		bne	.L121
 844:src/iface.c   ****         break;
 1203              		.loc 1 844 0
 1204 011a 3268     		ldr	r2, [r6]
 1205 011c 0821     		movs	r1, #8
 1206 011e 02F56772 		add	r2, r2, #924
 1207 0122 B9E0     		b	.L180
 1208              	.L140:
 805:src/iface.c   ****       case ITFTAG_PAN:
 1209              		.loc 1 805 0
 1210 0124 49F63973 		movw	r3, #40761
 1211 0128 9842     		cmp	r0, r3
 1212 012a 00F09A80 		beq	.L142
 1213 012e 0833     		adds	r3, r3, #8
 1214 0130 9842     		cmp	r0, r3
 1215 0132 9DD1     		bne	.L121
 817:src/iface.c   ****         break;
 1216              		.loc 1 817 0
 1217 0134 0321     		movs	r1, #3
 1218 0136 674A     		ldr	r2, .L184+32
 1219 0138 AEE0     		b	.L180
 1220              	.L138:
 805:src/iface.c   ****       case ITFTAG_PAN:
 1221              		.loc 1 805 0
 1222 013a 4DF68473 		movw	r3, #57220
 1223 013e 9842     		cmp	r0, r3
 1224 0140 56D0     		beq	.L144
 1225 0142 09D8     		bhi	.L145
 1226 0144 4DF63C73 		movw	r3, #57148
 1227 0148 9842     		cmp	r0, r3
 1228 014a 4CD0     		beq	.L146
 1229 014c 4533     		adds	r3, r3, #69
 1230 014e 9842     		cmp	r0, r3
 1231 0150 8ED1     		bne	.L121
 860:src/iface.c   ****         break;
 1232              		.loc 1 860 0
 1233 0152 1021     		movs	r1, #16
 1234 0154 604A     		ldr	r2, .L184+36
 1235 0156 9FE0     		b	.L180
 1236              	.L145:
 805:src/iface.c   ****       case ITFTAG_PAN:
 1237              		.loc 1 805 0
 1238 0158 4DF68573 		movw	r3, #57221
 1239 015c 9842     		cmp	r0, r3
 1240 015e 4CD0     		beq	.L148
 1241 0160 B0F57F4F 		cmp	r0, #65280
 1242 0164 84D1     		bne	.L121
 900:src/iface.c   ****         break;
ARM GAS  C:\Users\AHMEDH~1\AppData\Local\Temp\cclxJjJK.s 			page 49


 1243              		.loc 1 900 0
 1244 0166 3268     		ldr	r2, [r6]
 1245 0168 0121     		movs	r1, #1
 1246 016a 02F57152 		add	r2, r2, #15424
 1247 016e 1932     		adds	r2, r2, #25
 1248 0170 92E0     		b	.L180
 1249              	.L132:
 813:src/iface.c   ****         pb += TlvPack(*pw, 6, &ab_tmp[4], pb);
 1250              		.loc 1 813 0
 1251 0172 6846     		mov	r0, sp
 1252 0174 D7E90623 		ldrd	r2, [r7, #24]
 1253 0178 2FE0     		b	.L182
 1254              	.L139:
 820:src/iface.c   ****         break;
 1255              		.loc 1 820 0
 1256 017a 0321     		movs	r1, #3
 1257 017c 574A     		ldr	r2, .L184+40
 1258 017e 8BE0     		b	.L180
 1259              	.L137:
 829:src/iface.c   ****         break;
 1260              		.loc 1 829 0
 1261 0180 0C21     		movs	r1, #12
 1262 0182 574A     		ldr	r2, .L184+44
 1263 0184 88E0     		b	.L180
 1264              	.L127:
 832:src/iface.c   ****         break;
 1265              		.loc 1 832 0
 1266 0186 0621     		movs	r1, #6
 1267 0188 564A     		ldr	r2, .L184+48
 1268 018a 85E0     		b	.L180
 1269              	.L130:
 835:src/iface.c   ****           w_rspcode = '0'*256+'0';
 1270              		.loc 1 835 0
 1271 018c B7F86E35 		ldrh	r3, [r7, #1390]
 1272 0190 44F25012 		movw	r2, #16720
 1273 0194 9342     		cmp	r3, r2
 1274 0196 0BD0     		beq	.L158
 1275 0198 45F24142 		movw	r2, #21569
 1276 019c 9342     		cmp	r3, r2
 1277 019e 07D0     		beq	.L158
 836:src/iface.c   ****         else
 1278              		.loc 1 836 0
 1279 01a0 43F23002 		movw	r2, #12336
 1280 01a4 45F25361 		movw	r1, #22099
 1281 01a8 8B42     		cmp	r3, r1
 1282 01aa 08BF     		it	eq
 1283 01ac 1346     		moveq	r3, r2
 1284 01ae 01E0     		b	.L150
 1285              	.L158:
 1286 01b0 43F23003 		movw	r3, #12336
 1287              	.L150:
 1288              	.LVL141:
 839:src/iface.c   ****         ab_tmp[1] = (BYTE)(w_rspcode&0xFF);
 1289              		.loc 1 839 0
 1290 01b4 1A0A     		lsrs	r2, r3, #8
 840:src/iface.c   ****         pb += TlvPack(*pw, 2, ab_tmp, pb);
 1291              		.loc 1 840 0
ARM GAS  C:\Users\AHMEDH~1\AppData\Local\Temp\cclxJjJK.s 			page 50


 1292 01b6 8DF80130 		strb	r3, [sp, #1]
 839:src/iface.c   ****         ab_tmp[1] = (BYTE)(w_rspcode&0xFF);
 1293              		.loc 1 839 0
 1294 01ba 8DF80020 		strb	r2, [sp]
 841:src/iface.c   ****         break;
 1295              		.loc 1 841 0
 1296 01be 0221     		movs	r1, #2
 1297 01c0 2888     		ldrh	r0, [r5]
 1298 01c2 68E0     		b	.L181
 1299              	.LVL142:
 1300              	.L123:
 847:src/iface.c   ****         break;
 1301              		.loc 1 847 0
 1302 01c4 3268     		ldr	r2, [r6]
 1303 01c6 0F21     		movs	r1, #15
 1304 01c8 02F56972 		add	r2, r2, #932
 1305 01cc 64E0     		b	.L180
 1306              	.L125:
 850:src/iface.c   ****         break;
 1307              		.loc 1 850 0
 1308 01ce 1A21     		movs	r1, #26
 1309 01d0 454A     		ldr	r2, .L184+52
 1310 01d2 61E0     		b	.L180
 1311              	.L135:
 853:src/iface.c   ****         pb += TlvPack(*pw, 6, &ab_tmp[4], pb);
 1312              		.loc 1 853 0
 1313 01d4 D7E90823 		ldrd	r2, [r7, #32]
 1314 01d8 6846     		mov	r0, sp
 1315              	.L182:
 1316 01da FFF7FEFF 		bl	DDWORD2bcd
 1317              	.LVL143:
 854:src/iface.c   ****         break;
 1318              		.loc 1 854 0
 1319 01de 2888     		ldrh	r0, [r5]
 1320 01e0 0621     		movs	r1, #6
 1321 01e2 01AA     		add	r2, sp, #4
 1322 01e4 58E0     		b	.L180
 1323              	.L146:
 857:src/iface.c   ****         break;
 1324              		.loc 1 857 0
 1325 01e6 3268     		ldr	r2, [r6]
 1326 01e8 0321     		movs	r1, #3
 1327 01ea 02F56D72 		add	r2, r2, #948
 1328 01ee 53E0     		b	.L180
 1329              	.L144:
 863:src/iface.c   ****         break;
 1330              		.loc 1 863 0
 1331 01f0 3268     		ldr	r2, [r6]
 1332 01f2 0A21     		movs	r1, #10
 1333 01f4 02F25332 		addw	r2, r2, #851
 1334 01f8 4EE0     		b	.L180
 1335              	.L148:
 1336              	.LVL144:
 867:src/iface.c   ****         memcpy(pb_tmp, &ab_tmp[8], 2);
 1337              		.loc 1 867 0
 1338 01fa DFF8F090 		ldr	r9, .L184+56
 1339 01fe 6846     		mov	r0, sp
ARM GAS  C:\Users\AHMEDH~1\AppData\Local\Temp\cclxJjJK.s 			page 51


 1340 0200 B9F82826 		ldrh	r2, [r9, #1576]
 1341 0204 0023     		movs	r3, #0
 1342 0206 FFF7FEFF 		bl	DDWORD2bcd
 1343              	.LVL145:
 870:src/iface.c   ****         memcpy(pb_tmp, &ab_tmp[4], 6);
 1344              		.loc 1 870 0
 1345 020a 09F5C46B 		add	fp, r9, #1568
 868:src/iface.c   ****         pb_tmp += 2;
 1346              		.loc 1 868 0
 1347 020e BDF80830 		ldrh	r3, [sp, #8]
 870:src/iface.c   ****         memcpy(pb_tmp, &ab_tmp[4], 6);
 1348              		.loc 1 870 0
 1349 0212 6846     		mov	r0, sp
 868:src/iface.c   ****         pb_tmp += 2;
 1350              		.loc 1 868 0
 1351 0214 ADF82030 		strh	r3, [sp, #32]	@ movhi
 1352              	.LVL146:
 871:src/iface.c   ****         pb_tmp += 6;
 1353              		.loc 1 871 0
 1354 0218 0DF1040A 		add	r10, sp, #4
 870:src/iface.c   ****         memcpy(pb_tmp, &ab_tmp[4], 6);
 1355              		.loc 1 870 0
 1356 021c DBE90423 		ldrd	r2, [fp, #16]
 1357 0220 FFF7FEFF 		bl	DDWORD2bcd
 1358              	.LVL147:
 871:src/iface.c   ****         pb_tmp += 6;
 1359              		.loc 1 871 0
 1360 0224 5146     		mov	r1, r10
 1361 0226 0622     		movs	r2, #6
 1362 0228 0DF12200 		add	r0, sp, #34
 1363              	.LVL148:
 1364 022c FFF7FEFF 		bl	memcpy
 1365              	.LVL149:
 873:src/iface.c   ****         memcpy(pb_tmp, &ab_tmp[8], 2);
 1366              		.loc 1 873 0
 1367 0230 6846     		mov	r0, sp
 1368 0232 B9F84826 		ldrh	r2, [r9, #1608]
 1369 0236 0023     		movs	r3, #0
 1370 0238 FFF7FEFF 		bl	DDWORD2bcd
 1371              	.LVL150:
 874:src/iface.c   ****         pb_tmp += 2;
 1372              		.loc 1 874 0
 1373 023c BDF80830 		ldrh	r3, [sp, #8]
 876:src/iface.c   ****         memcpy(pb_tmp, &ab_tmp[4], 6);
 1374              		.loc 1 876 0
 1375 0240 6846     		mov	r0, sp
 874:src/iface.c   ****         pb_tmp += 2;
 1376              		.loc 1 874 0
 1377 0242 ADF82830 		strh	r3, [sp, #40]	@ movhi
 1378              	.LVL151:
 876:src/iface.c   ****         memcpy(pb_tmp, &ab_tmp[4], 6);
 1379              		.loc 1 876 0
 1380 0246 DBE90C23 		ldrd	r2, [fp, #48]
 1381 024a FFF7FEFF 		bl	DDWORD2bcd
 1382              	.LVL152:
 877:src/iface.c   ****         pb_tmp += 6;
 1383              		.loc 1 877 0
ARM GAS  C:\Users\AHMEDH~1\AppData\Local\Temp\cclxJjJK.s 			page 52


 1384 024e 5146     		mov	r1, r10
 1385 0250 0622     		movs	r2, #6
 1386 0252 0DF12A00 		add	r0, sp, #42
 1387              	.LVL153:
 1388 0256 FFF7FEFF 		bl	memcpy
 1389              	.LVL154:
 879:src/iface.c   ****         break;
 1390              		.loc 1 879 0
 1391 025a 2888     		ldrh	r0, [r5]
 1392 025c 1021     		movs	r1, #16
 1393 025e 08AA     		add	r2, sp, #32
 1394 0260 1AE0     		b	.L180
 1395              	.LVL155:
 1396              	.L142:
 882:src/iface.c   ****           case MANUAL:
 1397              		.loc 1 882 0
 1398 0262 97F83430 		ldrb	r3, [r7, #52]	@ zero_extendqisi2
 1399 0266 532B     		cmp	r3, #83
 1400 0268 0ED0     		beq	.L152
 1401 026a 04D8     		bhi	.L153
 1402 026c 462B     		cmp	r3, #70
 1403 026e 0BD0     		beq	.L152
 1404 0270 4D2B     		cmp	r3, #77
 1405 0272 07D0     		beq	.L154
 1406 0274 0AE0     		b	.L151
 1407              	.L153:
 1408 0276 6D2B     		cmp	r3, #109
 1409 0278 04D0     		beq	.L154
 1410 027a 732B     		cmp	r3, #115
 1411 027c 04D0     		beq	.L152
 1412 027e 662B     		cmp	r3, #102
 1413 0280 04D1     		bne	.L151
 1414 0282 01E0     		b	.L152
 1415              	.L154:
 885:src/iface.c   ****             break;
 1416              		.loc 1 885 0
 1417 0284 0123     		movs	r3, #1
 1418 0286 02E0     		b	.L179
 1419              	.L152:
 891:src/iface.c   ****             break;
 1420              		.loc 1 891 0
 1421 0288 0223     		movs	r3, #2
 1422 028a 00E0     		b	.L179
 1423              	.L151:
 894:src/iface.c   ****             break;
 1424              		.loc 1 894 0
 1425 028c 0523     		movs	r3, #5
 1426              	.L179:
 1427 028e 8DF80030 		strb	r3, [sp]
 897:src/iface.c   ****         break;
 1428              		.loc 1 897 0
 1429 0292 0121     		movs	r1, #1
 1430 0294 2888     		ldrh	r0, [r5]
 1431              	.L181:
 1432 0296 6A46     		mov	r2, sp
 1433              	.L180:
 903:src/iface.c   ****         break;
ARM GAS  C:\Users\AHMEDH~1\AppData\Local\Temp\cclxJjJK.s 			page 53


 1434              		.loc 1 903 0
 1435 0298 2346     		mov	r3, r4
 1436 029a FFF7FEFF 		bl	TlvPack
 1437              	.LVL156:
 1438 029e 0444     		add	r4, r4, r0
 1439              	.LVL157:
 1440 02a0 E6E6     		b	.L121
 1441              	.LVL158:
 1442              	.L183:
 908:src/iface.c   **** }
 1443              		.loc 1 908 0
 1444 02a2 D8F80430 		ldr	r3, [r8, #4]
 1445 02a6 E41A     		subs	r4, r4, r3
 1446              	.LVL159:
 1447 02a8 A8F80040 		strh	r4, [r8]	@ movhi
 1448              	.LVL160:
 1449              	.L115:
 1450              	.LBE16:
 1451              	.LBE15:
 909:src/iface.c   **** //*****************************************************************************
 1452              		.loc 1 909 0
 1453 02ac 19B0     		add	sp, sp, #100
 1454              		.cfi_def_cfa_offset 36
 1455              		@ sp needed
 1456 02ae BDE8F08F 		pop	{r4, r5, r6, r7, r8, r9, r10, fp, pc}
 1457              	.LVL161:
 1458              	.L185:
 1459 02b2 00BF     		.align	2
 1460              	.L184:
 1461 02b4 00000000 		.word	gGDS
 1462 02b8 00000000 		.word	gGTS
 1463 02bc 13000000 		.word	.LANCHOR0+19
 1464 02c0 00000000 		.word	.LANCHOR2
 1465 02c4 09000000 		.word	gGTS+9
 1466 02c8 86050000 		.word	gGTS+1414
 1467 02cc 13000000 		.word	gGTS+19
 1468 02d0 95000000 		.word	gGTS+149
 1469 02d4 02000000 		.word	gGTS+2
 1470 02d8 4F000000 		.word	gGTS+79
 1471 02dc 88050000 		.word	gGTS+1416
 1472 02e0 71050000 		.word	gGTS+1393
 1473 02e4 67050000 		.word	gGTS+1383
 1474 02e8 35000000 		.word	gGTS+53
 1475 02ec 00000000 		.word	.LANCHOR1
 1476              		.cfi_endproc
 1477              	.LFE13:
 1478              		.size	packFullEmvData, .-packFullEmvData
 1479              		.section	.text.ItfVoid,"ax",%progbits
 1480              		.align	1
 1481              		.global	ItfVoid
 1482              		.thumb
 1483              		.thumb_func
 1484              		.type	ItfVoid, %function
 1485              	ItfVoid:
 1486              	.LFB14:
 919:src/iface.c   ****   VoidTrans(-1);
 1487              		.loc 1 919 0
ARM GAS  C:\Users\AHMEDH~1\AppData\Local\Temp\cclxJjJK.s 			page 54


 1488              		.cfi_startproc
 1489              		@ args = 0, pretend = 0, frame = 0
 1490              		@ frame_needed = 0, uses_anonymous_args = 0
 1491 0000 08B5     		push	{r3, lr}
 1492              		.cfi_def_cfa_offset 8
 1493              		.cfi_offset 3, -8
 1494              		.cfi_offset 14, -4
 920:src/iface.c   ****   return TXN_OK;
 1495              		.loc 1 920 0
 1496 0002 4FF0FF30 		mov	r0, #-1
 1497 0006 FFF7FEFF 		bl	VoidTrans
 1498              	.LVL162:
 922:src/iface.c   **** //*****************************************************************************
 1499              		.loc 1 922 0
 1500 000a 0220     		movs	r0, #2
 1501 000c 08BD     		pop	{r3, pc}
 1502              		.cfi_endproc
 1503              	.LFE14:
 1504              		.size	ItfVoid, .-ItfVoid
 1505              		.section	.text.ItfHostTot,"ax",%progbits
 1506              		.align	1
 1507              		.global	ItfHostTot
 1508              		.thumb
 1509              		.thumb_func
 1510              		.type	ItfHostTot, %function
 1511              	ItfHostTot:
 1512              	.LFB15:
 932:src/iface.c   ****   CalTotals(FALSE);
 1513              		.loc 1 932 0
 1514              		.cfi_startproc
 1515              		@ args = 0, pretend = 0, frame = 0
 1516              		@ frame_needed = 0, uses_anonymous_args = 0
 1517 0000 08B5     		push	{r3, lr}
 1518              		.cfi_def_cfa_offset 8
 1519              		.cfi_offset 3, -8
 1520              		.cfi_offset 14, -4
 933:src/iface.c   ****   memcpy(&gTermTotal, &TERM_TOT, sizeof(struct TOTAL_STRUCT));
 1521              		.loc 1 933 0
 1522 0002 0020     		movs	r0, #0
 1523 0004 FFF7FEFF 		bl	CalTotals
 1524              	.LVL163:
 934:src/iface.c   ****   return TXN_OK;
 1525              		.loc 1 934 0
 1526 0008 044B     		ldr	r3, .L188
 1527 000a 6822     		movs	r2, #104
 1528 000c 1968     		ldr	r1, [r3]
 1529 000e 0448     		ldr	r0, .L188+4
 1530 0010 01F6C841 		addw	r1, r1, #3272
 1531 0014 FFF7FEFF 		bl	memcpy
 1532              	.LVL164:
 936:src/iface.c   **** //*****************************************************************************
 1533              		.loc 1 936 0
 1534 0018 0220     		movs	r0, #2
 1535 001a 08BD     		pop	{r3, pc}
 1536              	.L189:
 1537              		.align	2
 1538              	.L188:
ARM GAS  C:\Users\AHMEDH~1\AppData\Local\Temp\cclxJjJK.s 			page 55


 1539 001c 00000000 		.word	gGDS
 1540 0020 20060000 		.word	.LANCHOR1+1568
 1541              		.cfi_endproc
 1542              	.LFE15:
 1543              		.size	ItfHostTot, .-ItfHostTot
 1544              		.section	.text.ItfSettle,"ax",%progbits
 1545              		.align	1
 1546              		.global	ItfSettle
 1547              		.thumb
 1548              		.thumb_func
 1549              		.type	ItfSettle, %function
 1550              	ItfSettle:
 1551              	.LFB16:
 946:src/iface.c   ****   CalTotals(FALSE);
 1552              		.loc 1 946 0
 1553              		.cfi_startproc
 1554              		@ args = 0, pretend = 0, frame = 0
 1555              		@ frame_needed = 0, uses_anonymous_args = 0
 1556 0000 08B5     		push	{r3, lr}
 1557              		.cfi_def_cfa_offset 8
 1558              		.cfi_offset 3, -8
 1559              		.cfi_offset 14, -4
 947:src/iface.c   ****   memcpy(&gTermTotal, &TERM_TOT, sizeof(struct TOTAL_STRUCT));    // backup total in batch
 1560              		.loc 1 947 0
 1561 0002 0020     		movs	r0, #0
 1562 0004 FFF7FEFF 		bl	CalTotals
 1563              	.LVL165:
 948:src/iface.c   ****   RSP_DATA.w_rspcode = 'D'*256 + 'E';
 1564              		.loc 1 948 0
 1565 0008 0B4B     		ldr	r3, .L193
 1566 000a 6822     		movs	r2, #104
 1567 000c 1968     		ldr	r1, [r3]
 1568 000e 0B48     		ldr	r0, .L193+4
 1569 0010 01F6C841 		addw	r1, r1, #3272
 1570 0014 FFF7FEFF 		bl	memcpy
 1571              	.LVL166:
 949:src/iface.c   ****   INPUT.w_host_idx = 0;
 1572              		.loc 1 949 0
 1573 0018 094B     		ldr	r3, .L193+8
 1574 001a 44F24542 		movw	r2, #17477
 1575 001e A3F86E25 		strh	r2, [r3, #1390]	@ movhi
 950:src/iface.c   ****   if (SettleTrans() == TRUE)
 1576              		.loc 1 950 0
 1577 0022 0022     		movs	r2, #0
 1578 0024 A3F87620 		strh	r2, [r3, #118]	@ movhi
 951:src/iface.c   ****     return TXN_OK;
 1579              		.loc 1 951 0
 1580 0028 FFF7FEFF 		bl	SettleTrans
 1581              	.LVL167:
 954:src/iface.c   **** //=============================================================================
 1582              		.loc 1 954 0
 1583 002c 0128     		cmp	r0, #1
 1584 002e 0CBF     		ite	eq
 1585 0030 0220     		moveq	r0, #2
 1586 0032 0120     		movne	r0, #1
 1587 0034 08BD     		pop	{r3, pc}
 1588              	.L194:
ARM GAS  C:\Users\AHMEDH~1\AppData\Local\Temp\cclxJjJK.s 			page 56


 1589 0036 00BF     		.align	2
 1590              	.L193:
 1591 0038 00000000 		.word	gGDS
 1592 003c 20060000 		.word	.LANCHOR1+1568
 1593 0040 00000000 		.word	gGTS
 1594              		.cfi_endproc
 1595              	.LFE16:
 1596              		.size	ItfSettle, .-ItfSettle
 1597              		.section	.text.Spt3MsgHdr,"ax",%progbits
 1598              		.align	1
 1599              		.global	Spt3MsgHdr
 1600              		.thumb
 1601              		.thumb_func
 1602              		.type	Spt3MsgHdr, %function
 1603              	Spt3MsgHdr:
 1604              	.LFB19:
1166:src/iface.c   ****   int iRet;
 1605              		.loc 1 1166 0
 1606              		.cfi_startproc
 1607              		@ args = 0, pretend = 0, frame = 40
 1608              		@ frame_needed = 0, uses_anonymous_args = 0
 1609              	.LVL168:
 1610 0000 2DE9F04F 		push	{r4, r5, r6, r7, r8, r9, r10, fp, lr}
 1611              		.cfi_def_cfa_offset 36
 1612              		.cfi_offset 4, -36
 1613              		.cfi_offset 5, -32
 1614              		.cfi_offset 6, -28
 1615              		.cfi_offset 7, -24
 1616              		.cfi_offset 8, -20
 1617              		.cfi_offset 9, -16
 1618              		.cfi_offset 10, -12
 1619              		.cfi_offset 11, -8
 1620              		.cfi_offset 14, -4
1172:src/iface.c   **** 
 1621              		.loc 1 1172 0
 1622 0004 914C     		ldr	r4, .L315
1166:src/iface.c   ****   int iRet;
 1623              		.loc 1 1166 0
 1624 0006 0546     		mov	r5, r0
 1625 0008 8846     		mov	r8, r1
 1626 000a 8DB0     		sub	sp, sp, #52
 1627              		.cfi_def_cfa_offset 88
1172:src/iface.c   **** 
 1628              		.loc 1 1172 0
 1629 000c 04F11800 		add	r0, r4, #24
 1630              	.LVL169:
 1631 0010 2946     		mov	r1, r5
 1632              	.LVL170:
 1633 0012 4246     		mov	r2, r8
 1634 0014 FFF7FEFF 		bl	memcpy
 1635              	.LVL171:
 1636              	.LBB35:
 1637              	.LBB36:
 407:src/iface.c   ****     DbFErr("reqCheck(S3):StxErr\n");
 1638              		.loc 1 407 0
 1639 0018 237E     		ldrb	r3, [r4, #24]	@ zero_extendqisi2
 1640 001a 2646     		mov	r6, r4
ARM GAS  C:\Users\AHMEDH~1\AppData\Local\Temp\cclxJjJK.s 			page 57


 1641 001c 022B     		cmp	r3, #2
 1642 001e 15D1     		bne	.L304
 413:src/iface.c   ****     DbFErr("reqCheck(S3):EtxErr\n");
 1643              		.loc 1 413 0
 1644 0020 04EB0803 		add	r3, r4, r8
 1645 0024 DB7D     		ldrb	r3, [r3, #23]	@ zero_extendqisi2
 1646 0026 032B     		cmp	r3, #3
 1647 0028 10D1     		bne	.L304
 419:src/iface.c   ****     DbFErr("reqCheck(S3):FmtIdErr\n");
 1648              		.loc 1 419 0
 1649 002a 04F11900 		add	r0, r4, #25
 1650 002e FFF7FEFF 		bl	UGet
 1651              	.LVL172:
 1652 0032 0128     		cmp	r0, #1
 1653 0034 0AD1     		bne	.L304
 425:src/iface.c   ****     DbFErr("reqCheck(S3):LErr(%d,%d)\n", WGet(aReq+OSET_DATA_LEN)+MIN_MSG_LEN, aLen);
 1654              		.loc 1 425 0
 1655 0036 04F12300 		add	r0, r4, #35
 1656 003a FFF7FEFF 		bl	WGet
 1657              	.LVL173:
 1658 003e 1230     		adds	r0, r0, #18
 1659 0040 4045     		cmp	r0, r8
 1660 0042 06D0     		beq	.L199
 426:src/iface.c   ****     return IF_ERR_FMT;
 1661              		.loc 1 426 0
 1662 0044 04F12300 		add	r0, r4, #35
 1663 0048 FFF7FEFF 		bl	WGet
 1664              	.LVL174:
 1665              	.L304:
 427:src/iface.c   ****   }
 1666              		.loc 1 427 0
 1667 004c 6FF00204 		mvn	r4, #2
 1668 0050 B5E0     		b	.L295
 1669              	.L199:
 431:src/iface.c   ****     if ((aReq[OSET_INS] & S3INS_CLASS_MASK) != S3INS_CLASS_GENERAL) {
 1670              		.loc 1 431 0
 1671 0052 04F11F00 		add	r0, r4, #31
 1672 0056 FFF7FEFF 		bl	WGet
 1673              	.LVL175:
 1674 005a 88B9     		cbnz	r0, .L200
 432:src/iface.c   ****       DbFErr("reqCheck(S3):SeqErr\n");
 1675              		.loc 1 432 0
 1676 005c 94F82130 		ldrb	r3, [r4, #33]	@ zero_extendqisi2
 1677 0060 13F0F00F 		tst	r3, #240
 1678 0064 14D1     		bne	.L201
 1679              	.L205:
 445:src/iface.c   ****     case S3INS_CLASS_GENERAL:
 1680              		.loc 1 445 0
 1681 0066 96F82130 		ldrb	r3, [r6, #33]	@ zero_extendqisi2
 1682 006a 784A     		ldr	r2, .L315
 1683 006c 03F0F003 		and	r3, r3, #240
 1684 0070 102B     		cmp	r3, #16
 1685 0072 10D0     		beq	.L202
 1686 0074 202B     		cmp	r3, #32
 1687 0076 13D0     		beq	.L203
 1688 0078 002B     		cmp	r3, #0
 1689 007a 40F09880 		bne	.L268
ARM GAS  C:\Users\AHMEDH~1\AppData\Local\Temp\cclxJjJK.s 			page 58


 1690 007e 15E0     		b	.L204
 1691              	.L200:
 438:src/iface.c   ****       DbFErr("reqCheck(S3):SeqErr\n");
 1692              		.loc 1 438 0
 1693 0080 04F11F00 		add	r0, r4, #31
 1694 0084 FFF7FEFF 		bl	WGet
 1695              	.LVL176:
 1696 0088 B4F81836 		ldrh	r3, [r4, #1560]
 1697 008c 8342     		cmp	r3, r0
 1698 008e EAD9     		bls	.L205
 1699              	.L201:
 434:src/iface.c   ****     }
 1700              		.loc 1 434 0
 1701 0090 6FF00704 		mvn	r4, #7
 1702 0094 93E0     		b	.L295
 1703              	.L202:
 449:src/iface.c   ****         DbFErr("reqCheck(S3):InsErr\n");
 1704              		.loc 1 449 0
 1705 0096 92F81A36 		ldrb	r3, [r2, #1562]	@ zero_extendqisi2
 1706 009a 13F0010F 		tst	r3, #1
 1707 009e 03E0     		b	.L310
 1708              	.L203:
 455:src/iface.c   ****         DbFErr("reqCheck(S3):InsErr\n");
 1709              		.loc 1 455 0
 1710 00a0 92F81A36 		ldrb	r3, [r2, #1562]	@ zero_extendqisi2
 1711 00a4 13F0020F 		tst	r3, #2
 1712              	.L310:
 1713 00a8 00F08180 		beq	.L268
 1714              	.L204:
 466:src/iface.c   ****   && (((aReq[OSET_INS] & S3INS_CLASS_MASK) == S3INS_CLASS_GENERAL)) // !NormalMode or general cmd
 1715              		.loc 1 466 0
 1716 00ac DFF89C91 		ldr	r9, .L315
 1717 00b0 A8F10504 		sub	r4, r8, #5
 1718 00b4 09F1180B 		add	fp, r9, #24
 1719 00b8 5C44     		add	r4, r4, fp
 1720 00ba 2046     		mov	r0, r4
 1721 00bc FFF7FEFF 		bl	WGet
 1722              	.LVL177:
 1723 00c0 A8F1060A 		sub	r10, r8, #6
 1724 00c4 C8B1     		cbz	r0, .L206
 1725              	.L208:
 473:src/iface.c   ****     WPut(buf+6, Crc16(aReq+1, aLen-6, 0));
 1726              		.loc 1 473 0
 1727 00c6 6249     		ldr	r1, .L315+4
 1728 00c8 0622     		movs	r2, #6
 1729 00ca 08A8     		add	r0, sp, #32
 1730 00cc FFF7FEFF 		bl	memcpy
 1731              	.LVL178:
 474:src/iface.c   ****     if ((encrypt(S3TDES, ANY_SKEY, 0x00, buf, 8) == FALSE)
 1732              		.loc 1 474 0
 1733 00d0 0022     		movs	r2, #0
 1734 00d2 1FFA8AF1 		uxth	r1, r10
 1735 00d6 5F48     		ldr	r0, .L315+8
 1736 00d8 FFF7FEFF 		bl	Crc16
 1737              	.LVL179:
 1738 00dc 0146     		mov	r1, r0
 1739 00de 0DF12600 		add	r0, sp, #38
ARM GAS  C:\Users\AHMEDH~1\AppData\Local\Temp\cclxJjJK.s 			page 59


 1740 00e2 FFF7FEFF 		bl	WPut
 1741              	.LVL180:
 475:src/iface.c   ****     || (memcmp(buf, aReq+aLen-5, 4) != 0)) {
 1742              		.loc 1 475 0
 1743 00e6 0823     		movs	r3, #8
 1744 00e8 0320     		movs	r0, #3
 1745 00ea 0093     		str	r3, [sp]
 1746 00ec FF21     		movs	r1, #255
 1747 00ee 0022     		movs	r2, #0
 1748 00f0 08AB     		add	r3, sp, #32
 1749 00f2 FFF7FEFF 		bl	encrypt
 1750              	.LVL181:
 1751 00f6 D8B9     		cbnz	r0, .L297
 1752 00f8 5CE0     		b	.L270
 1753              	.L206:
 467:src/iface.c   ****   && (WGet(aReq+aLen-3) == Crc16(aReq+1, aLen-6, 0)) ) { // crc ok
 1754              		.loc 1 467 0
 1755 00fa 99F82120 		ldrb	r2, [r9, #33]	@ zero_extendqisi2
 1756 00fe 12F0F007 		ands	r7, r2, #240
 1757 0102 E0D1     		bne	.L208
 468:src/iface.c   ****       DbStep("reqCheck(S3): CRC OK\n");
 1758              		.loc 1 468 0
 1759 0104 A8F10300 		sub	r0, r8, #3
 1760 0108 5844     		add	r0, r0, fp
 1761 010a FFF7FEFF 		bl	WGet
 1762              	.LVL182:
 1763 010e 1FFA8AF1 		uxth	r1, r10
 1764 0112 3A46     		mov	r2, r7
 1765 0114 8346     		mov	fp, r0
 1766 0116 09F11900 		add	r0, r9, #25
 1767 011a FFF7FEFF 		bl	Crc16
 1768              	.LVL183:
 1769 011e 8345     		cmp	fp, r0
 1770 0120 D1D1     		bne	.L208
 1771              	.L211:
 484:src/iface.c   ****     switch (aReq[OSET_DATA_FMT] & 0x0F) {
 1772              		.loc 1 484 0
 1773 0122 4A4C     		ldr	r4, .L315
 1774 0124 04F12300 		add	r0, r4, #35
 1775 0128 FFF7FEFF 		bl	WGet
 1776              	.LVL184:
 1777 012c 40B9     		cbnz	r0, .L209
 1778 012e 25E0     		b	.L213
 1779              	.L297:
 476:src/iface.c   ****       DbFErr("reqCheck(S3):CrcErr\n");
 1780              		.loc 1 476 0
 1781 0130 08A8     		add	r0, sp, #32
 1782 0132 2146     		mov	r1, r4
 1783 0134 0422     		movs	r2, #4
 1784 0136 FFF7FEFF 		bl	memcmp
 1785              	.LVL185:
 1786 013a 0028     		cmp	r0, #0
 1787 013c F1D0     		beq	.L211
 1788 013e 39E0     		b	.L270
 1789              	.L209:
 485:src/iface.c   ****       case S3DFMT_PLAIN:
 1790              		.loc 1 485 0
ARM GAS  C:\Users\AHMEDH~1\AppData\Local\Temp\cclxJjJK.s 			page 60


 1791 0140 94F82230 		ldrb	r3, [r4, #34]	@ zero_extendqisi2
 1792 0144 03F00F03 		and	r3, r3, #15
 1793 0148 012B     		cmp	r3, #1
 1794 014a 03D0     		beq	.L212
 1795 014c 16D3     		bcc	.L213
 1796 014e 022B     		cmp	r3, #2
 1797 0150 1FD0     		beq	.L214
 1798 0152 32E0     		b	.L298
 1799              	.L212:
 489:src/iface.c   ****             || (encrypt(S3DES2, ANY_SKEY, 0x00, aReq+OSET_REQ_DATA, WGet(aReq+OSET_DATA_LEN)) == FA
 1800              		.loc 1 489 0
 1801 0154 04F12300 		add	r0, r4, #35
 1802 0158 FFF7FEFF 		bl	WGet
 1803              	.LVL186:
 1804 015c 10F00707 		ands	r7, r0, #7
 1805 0160 2BD1     		bne	.L298
 490:src/iface.c   ****           DbFErr("reqCheck(S3):KeyErr\n");
 1806              		.loc 1 490 0
 1807 0162 04F12300 		add	r0, r4, #35
 1808 0166 FFF7FEFF 		bl	WGet
 1809              	.LVL187:
 1810 016a 0090     		str	r0, [sp]
 1811 016c 0220     		movs	r0, #2
 1812              	.L303:
 1813 016e FF21     		movs	r1, #255
 1814 0170 3A46     		mov	r2, r7
 1815 0172 04F12503 		add	r3, r4, #37
 1816 0176 FFF7FEFF 		bl	encrypt
 1817              	.LVL188:
 1818 017a F0B1     		cbz	r0, .L298
 1819              	.L213:
 1820              	.LBE36:
 1821              	.LBE35:
 1822              	.LBB39:
 1823              	.LBB40:
 971:src/iface.c   ****   // instruction
 1824              		.loc 1 971 0
 1825 017c 334F     		ldr	r7, .L315
 973:src/iface.c   ****       // general ins
 1826              		.loc 1 973 0
 1827 017e 96F82160 		ldrb	r6, [r6, #33]	@ zero_extendqisi2
 971:src/iface.c   ****   // instruction
 1828              		.loc 1 971 0
 1829 0182 07F5D163 		add	r3, r7, #1672
 973:src/iface.c   ****       // general ins
 1830              		.loc 1 973 0
 1831 0186 032E     		cmp	r6, #3
 1832              	.LBE40:
 1833              	.LBE39:
 1834              	.LBB57:
 1835              	.LBB37:
 508:src/iface.c   **** }
 1836              		.loc 1 508 0
 1837 0188 4FF00004 		mov	r4, #0
 1838              	.LVL189:
 1839              	.LBE37:
 1840              	.LBE57:
ARM GAS  C:\Users\AHMEDH~1\AppData\Local\Temp\cclxJjJK.s 			page 61


 1841              	.LBB58:
 1842              	.LBB55:
 971:src/iface.c   ****   // instruction
 1843              		.loc 1 971 0
 1844 018c 0593     		str	r3, [sp, #20]
 973:src/iface.c   ****       // general ins
 1845              		.loc 1 973 0
 1846 018e 29D1     		bne	.L313
 1847 0190 D2E0     		b	.L228
 1848              	.LVL190:
 1849              	.L214:
 1850              	.LBE55:
 1851              	.LBE58:
 1852              	.LBB59:
 1853              	.LBB38:
 496:src/iface.c   ****             || (encrypt(S3TDES2, ANY_SKEY, 0x00, aReq+OSET_REQ_DATA, WGet(aReq+OSET_DATA_LEN)) == F
 1854              		.loc 1 496 0
 1855 0192 04F12300 		add	r0, r4, #35
 1856 0196 FFF7FEFF 		bl	WGet
 1857              	.LVL191:
 1858 019a 10F00707 		ands	r7, r0, #7
 1859 019e 0CD1     		bne	.L298
 497:src/iface.c   ****           DbFErr("reqCheck(S3):KeyErr\n");
 1860              		.loc 1 497 0
 1861 01a0 04F12300 		add	r0, r4, #35
 1862 01a4 FFF7FEFF 		bl	WGet
 1863              	.LVL192:
 1864 01a8 0090     		str	r0, [sp]
 1865 01aa 0420     		movs	r0, #4
 1866 01ac DFE7     		b	.L303
 1867              	.L268:
 451:src/iface.c   ****       }
 1868              		.loc 1 451 0
 1869 01ae 6FF00504 		mvn	r4, #5
 1870 01b2 04E0     		b	.L295
 1871              	.L270:
 478:src/iface.c   ****     }
 1872              		.loc 1 478 0
 1873 01b4 6FF00604 		mvn	r4, #6
 1874 01b8 01E0     		b	.L295
 1875              	.L298:
 504:src/iface.c   ****     }
 1876              		.loc 1 504 0
 1877 01ba 6FF00804 		mvn	r4, #8
 1878              	.L295:
 1879              	.LBE38:
 1880              	.LBE59:
1177:src/iface.c   ****       case IF_ERR_FMT: // format error -> return to try other interface
 1881              		.loc 1 1177 0
 1882 01be 04F10903 		add	r3, r4, #9
 1883 01c2 062B     		cmp	r3, #6
 1884 01c4 0CD8     		bhi	.L219
 1885 01c6 DFE813F0 		tbh	[pc, r3, lsl #1]
 1886              	.L221:
 1887 01ca 1D01     		.2byte	(.L311-.L221)/2
 1888 01cc 0900     		.2byte	(.L222-.L221)/2
 1889 01ce 0700     		.2byte	(.L223-.L221)/2
ARM GAS  C:\Users\AHMEDH~1\AppData\Local\Temp\cclxJjJK.s 			page 62


 1890 01d0 CF01     		.2byte	(.L300-.L221)/2
 1891 01d2 0B00     		.2byte	(.L219-.L221)/2
 1892 01d4 0B00     		.2byte	(.L219-.L221)/2
 1893 01d6 D901     		.2byte	(.L225-.L221)/2
 1894              		.p2align 1
 1895              	.L223:
1181:src/iface.c   ****         break;
 1896              		.loc 1 1181 0
 1897 01d8 8120     		movs	r0, #129
 1898 01da C6E1     		b	.L307
 1899              	.L222:
1184:src/iface.c   ****         break;
 1900              		.loc 1 1184 0
 1901 01dc 8820     		movs	r0, #136
 1902 01de C4E1     		b	.L307
 1903              	.L219:
1193:src/iface.c   ****         break;
 1904              		.loc 1 1193 0
 1905 01e0 8320     		movs	r0, #131
 1906 01e2 C2E1     		b	.L307
 1907              	.LVL193:
 1908              	.L313:
 1909              	.LBB60:
 1910              	.LBB56:
 973:src/iface.c   ****       // general ins
 1911              		.loc 1 973 0
 1912 01e4 03D8     		bhi	.L229
 1913 01e6 012E     		cmp	r6, #1
 1914 01e8 24D0     		beq	.L230
 1915 01ea 0AD9     		bls	.L299
 1916 01ec 34E0     		b	.L314
 1917              	.L229:
 1918 01ee 202E     		cmp	r6, #32
 1919 01f0 00F02681 		beq	.L233
 1920 01f4 232E     		cmp	r6, #35
 1921 01f6 00F02381 		beq	.L233
 1922 01fa 102E     		cmp	r6, #16
 1923 01fc 00F0E780 		beq	.L234
 1924 0200 B2E1     		b	.L300
 1925              	.L299:
 1926              	.LVL194:
 1927              	.LBB41:
 1928              	.LBB42:
 528:src/iface.c   **** 
 1929              		.loc 1 528 0
 1930 0202 97F81A36 		ldrb	r3, [r7, #1562]	@ zero_extendqisi2
 527:src/iface.c   ****   pRCode[iLen++] = gbMode;
 1931              		.loc 1 527 0
 1932 0206 6C73     		strb	r4, [r5, #13]
 1933              	.LVL195:
 528:src/iface.c   **** 
 1934              		.loc 1 528 0
 1935 0208 AB73     		strb	r3, [r5, #14]
 531:src/iface.c   ****   if (i > 0) {
 1936              		.loc 1 531 0
 1937 020a 07F12300 		add	r0, r7, #35
 1938 020e FFF7FEFF 		bl	WGet
ARM GAS  C:\Users\AHMEDH~1\AppData\Local\Temp\cclxJjJK.s 			page 63


 1939              	.LVL196:
 532:src/iface.c   ****     memcpy(pRCode+iLen, aReqMsg+OSET_REQ_DATA, i);
 1940              		.loc 1 532 0
 1941 0212 0446     		mov	r4, r0
 1942 0214 30B1     		cbz	r0, .L235
 533:src/iface.c   ****   }
 1943              		.loc 1 533 0
 1944 0216 05F10F00 		add	r0, r5, #15
 1945              	.LVL197:
 1946 021a 07F12501 		add	r1, r7, #37
 1947 021e 2246     		mov	r2, r4
 1948 0220 FFF7FEFF 		bl	memcpy
 1949              	.LVL198:
 1950              	.L235:
 535:src/iface.c   **** 
 1951              		.loc 1 535 0
 1952 0224 A11C     		adds	r1, r4, #2
 1953              	.LVL199:
 538:src/iface.c   ****   iLen += 2;
 1954              		.loc 1 538 0
 1955 0226 05F10B00 		add	r0, r5, #11
 1956 022a 89B2     		uxth	r1, r1
 1957              	.LVL200:
 1958 022c FFF7FEFF 		bl	WPut
 1959              	.LVL201:
 539:src/iface.c   **** 
 1960              		.loc 1 539 0
 1961 0230 201D     		adds	r0, r4, #4
 1962              	.LVL202:
 1963 0232 9DE1     		b	.L236
 1964              	.LVL203:
 1965              	.L230:
 1966              	.LBE42:
 1967              	.LBE41:
 1968              	.LBB43:
 1969              	.LBB44:
 559:src/iface.c   **** 
 1970              		.loc 1 559 0
 1971 0234 0020     		movs	r0, #0
 1972 0236 FF21     		movs	r1, #255
 1973 0238 0246     		mov	r2, r0
 558:src/iface.c   ****   keyPut(NULL, ANY_SKEY, 0x00);
 1974              		.loc 1 558 0
 1975 023a 87F81A46 		strb	r4, [r7, #1562]
 559:src/iface.c   **** 
 1976              		.loc 1 559 0
 1977 023e FFF7FEFF 		bl	keyPut
 1978              	.LVL204:
 564:src/iface.c   **** 
 1979              		.loc 1 564 0
 1980 0242 6C73     		strb	r4, [r5, #13]
 567:src/iface.c   ****   iLen += 2;
 1981              		.loc 1 567 0
 1982 0244 05F10B00 		add	r0, r5, #11
 1983 0248 3146     		mov	r1, r6
 1984 024a F6E0     		b	.L308
 1985              	.L316:
ARM GAS  C:\Users\AHMEDH~1\AppData\Local\Temp\cclxJjJK.s 			page 64


 1986              		.align	2
 1987              	.L315:
 1988 024c 00000000 		.word	.LANCHOR1
 1989 0250 1F000000 		.word	.LANCHOR1+31
 1990 0254 19000000 		.word	.LANCHOR1+25
 1991              	.LVL205:
 1992              	.L314:
 1993              	.LBE44:
 1994              	.LBE43:
 1995              	.LBB45:
 1996              	.LBB46:
 587:src/iface.c   ****   if (i < 10) {
 1997              		.loc 1 587 0
 1998 0258 07F12300 		add	r0, r7, #35
 1999 025c FFF7FEFF 		bl	WGet
 2000              	.LVL206:
 588:src/iface.c   ****     return errRspData(S3RC_ERR_DATA, aRspMsg, aReqMsg, aReqLen);
 2001              		.loc 1 588 0
 2002 0260 0928     		cmp	r0, #9
 2003 0262 40F3BA80 		ble	.L312
 596:src/iface.c   ****   memcpy(buf, abRRand+4, 4);
 2004              		.loc 1 596 0
 2005 0266 06AE     		add	r6, sp, #24
 2006 0268 3046     		mov	r0, r6
 2007              	.LVL207:
 2008 026a 0821     		movs	r1, #8
 591:src/iface.c   ****   bKIdx = aReqMsg[OSET_REQ_DATA+1];
 2009              		.loc 1 591 0
 2010 026c 97F825A0 		ldrb	r10, [r7, #37]	@ zero_extendqisi2
 2011              	.LVL208:
 592:src/iface.c   ****   pTRand = aReqMsg + OSET_REQ_DATA + 2;
 2012              		.loc 1 592 0
 2013 0270 97F82680 		ldrb	r8, [r7, #38]	@ zero_extendqisi2
 2014              	.LVL209:
 596:src/iface.c   ****   memcpy(buf, abRRand+4, 4);
 2015              		.loc 1 596 0
 2016 0274 FFF7FEFF 		bl	Random
 2017              	.LVL210:
 597:src/iface.c   ****   memcpy(buf+4, pTRand, 4);
 2018              		.loc 1 597 0
 2019 0278 079B     		ldr	r3, [sp, #28]
 598:src/iface.c   ****   memcpy(buf+8, abRRand, 4);
 2020              		.loc 1 598 0
 2021 027a 07F12701 		add	r1, r7, #39
 2022 027e 0422     		movs	r2, #4
 2023 0280 09A8     		add	r0, sp, #36
 597:src/iface.c   ****   memcpy(buf+4, pTRand, 4);
 2024              		.loc 1 597 0
 2025 0282 0893     		str	r3, [sp, #32]
 598:src/iface.c   ****   memcpy(buf+8, abRRand, 4);
 2026              		.loc 1 598 0
 2027 0284 FFF7FEFF 		bl	memcpy
 2028              	.LVL211:
 601:src/iface.c   ****       || (keyPut(buf, bKType|SKEY_MASK, bKIdx) == FALSE)) {
 2029              		.loc 1 601 0
 2030 0288 4FF01009 		mov	r9, #16
 599:src/iface.c   ****   memcpy(buf+12, pTRand+4, 4);
ARM GAS  C:\Users\AHMEDH~1\AppData\Local\Temp\cclxJjJK.s 			page 65


 2031              		.loc 1 599 0
 2032 028c 069B     		ldr	r3, [sp, #24]
 600:src/iface.c   ****   if ((encrypt(S3TDES, bKType, bKIdx, buf, 16) == FALSE)
 2033              		.loc 1 600 0
 2034 028e 07F12B01 		add	r1, r7, #43
 2035 0292 0422     		movs	r2, #4
 2036 0294 0BA8     		add	r0, sp, #44
 599:src/iface.c   ****   memcpy(buf+12, pTRand+4, 4);
 2037              		.loc 1 599 0
 2038 0296 0A93     		str	r3, [sp, #40]
 600:src/iface.c   ****   if ((encrypt(S3TDES, bKType, bKIdx, buf, 16) == FALSE)
 2039              		.loc 1 600 0
 2040 0298 FFF7FEFF 		bl	memcpy
 2041              	.LVL212:
 601:src/iface.c   ****       || (keyPut(buf, bKType|SKEY_MASK, bKIdx) == FALSE)) {
 2042              		.loc 1 601 0
 2043 029c CDF80090 		str	r9, [sp]
 2044 02a0 0320     		movs	r0, #3
 2045 02a2 5146     		mov	r1, r10
 2046 02a4 4246     		mov	r2, r8
 2047 02a6 08AB     		add	r3, sp, #32
 2048 02a8 FFF7FEFF 		bl	encrypt
 2049              	.LVL213:
 2050 02ac 0028     		cmp	r0, #0
 2051 02ae 00F0A980 		beq	.L311
 602:src/iface.c   ****     return errRspData(S3RC_ERR_KEY, aRspMsg, aReqMsg, aReqLen);
 2052              		.loc 1 602 0
 2053 02b2 4AF0800B 		orr	fp, r10, #128
 2054 02b6 08A8     		add	r0, sp, #32
 2055 02b8 5946     		mov	r1, fp
 2056 02ba 4246     		mov	r2, r8
 2057 02bc FFF7FEFF 		bl	keyPut
 2058              	.LVL214:
 2059 02c0 0028     		cmp	r0, #0
 2060 02c2 00F09F80 		beq	.L311
 607:src/iface.c   ****   memcpy(buf+8, abRRand, 8);
 2061              		.loc 1 607 0
 2062 02c6 07F12701 		add	r1, r7, #39
 2063 02ca 0822     		movs	r2, #8
 2064 02cc 08A8     		add	r0, sp, #32
 2065 02ce FFF7FEFF 		bl	memcpy
 2066              	.LVL215:
 608:src/iface.c   ****   if (encrypt(S3TDES, bKType|SKEY_MASK, bKIdx, buf, 16) == FALSE) {
 2067              		.loc 1 608 0
 2068 02d2 0CAB     		add	r3, sp, #48
 2069 02d4 96E80300 		ldmia	r6, {r0, r1}
 609:src/iface.c   ****     return errRspData(S3RC_ERR_KEY, aRspMsg, aReqMsg, aReqLen);
 2070              		.loc 1 609 0
 2071 02d8 4246     		mov	r2, r8
 608:src/iface.c   ****   if (encrypt(S3TDES, bKType|SKEY_MASK, bKIdx, buf, 16) == FALSE) {
 2072              		.loc 1 608 0
 2073 02da 03E90300 		stmdb	r3, {r0, r1}
 609:src/iface.c   ****     return errRspData(S3RC_ERR_KEY, aRspMsg, aReqMsg, aReqLen);
 2074              		.loc 1 609 0
 2075 02de CDF80090 		str	r9, [sp]
 2076 02e2 0320     		movs	r0, #3
 2077 02e4 5946     		mov	r1, fp
ARM GAS  C:\Users\AHMEDH~1\AppData\Local\Temp\cclxJjJK.s 			page 66


 2078 02e6 08AB     		add	r3, sp, #32
 2079 02e8 FFF7FEFF 		bl	encrypt
 2080              	.LVL216:
 2081 02ec 0028     		cmp	r0, #0
 2082 02ee 00F08980 		beq	.L311
 615:src/iface.c   ****   memcpy(gabTRand, pTRand, 8);  // save for mutu auth
 2083              		.loc 1 615 0
 2084 02f2 3146     		mov	r1, r6
 2085 02f4 0822     		movs	r2, #8
 2086 02f6 A348     		ldr	r0, .L317
 614:src/iface.c   ****   memcpy(gabRRand, abRRand, 8); // save for mutu auth
 2087              		.loc 1 614 0
 2088 02f8 87F81A46 		strb	r4, [r7, #1562]
 615:src/iface.c   ****   memcpy(gabTRand, pTRand, 8);  // save for mutu auth
 2089              		.loc 1 615 0
 2090 02fc FFF7FEFF 		bl	memcpy
 2091              	.LVL217:
 616:src/iface.c   **** 
 2092              		.loc 1 616 0
 2093 0300 07F12701 		add	r1, r7, #39
 2094 0304 0822     		movs	r2, #8
 2095 0306 07F54960 		add	r0, r7, #3216
 2096 030a FFF7FEFF 		bl	memcpy
 2097              	.LVL218:
 625:src/iface.c   ****   iLen += 8;
 2098              		.loc 1 625 0
 2099 030e 3146     		mov	r1, r6
 2100 0310 0822     		movs	r2, #8
 621:src/iface.c   **** 
 2101              		.loc 1 621 0
 2102 0312 6C73     		strb	r4, [r5, #13]
 2103              	.LVL219:
 623:src/iface.c   ****   pRCode[iLen++] = bKIdx;
 2104              		.loc 1 623 0
 2105 0314 85F80EA0 		strb	r10, [r5, #14]
 2106              	.LVL220:
 624:src/iface.c   ****   memcpy(pRCode+iLen, abRRand, 8);
 2107              		.loc 1 624 0
 2108 0318 85F80F80 		strb	r8, [r5, #15]
 625:src/iface.c   ****   iLen += 8;
 2109              		.loc 1 625 0
 2110 031c 05F11000 		add	r0, r5, #16
 2111 0320 FFF7FEFF 		bl	memcpy
 2112              	.LVL221:
 627:src/iface.c   ****   iLen += 16;
 2113              		.loc 1 627 0
 2114 0324 08A9     		add	r1, sp, #32
 2115 0326 05F11800 		add	r0, r5, #24
 2116 032a 4A46     		mov	r2, r9
 2117 032c FFF7FEFF 		bl	memcpy
 2118              	.LVL222:
 631:src/iface.c   ****   iLen += 2;
 2119              		.loc 1 631 0
 2120 0330 05F10B00 		add	r0, r5, #11
 2121 0334 1B21     		movs	r1, #27
 2122 0336 80E0     		b	.L308
 2123              	.LVL223:
ARM GAS  C:\Users\AHMEDH~1\AppData\Local\Temp\cclxJjJK.s 			page 67


 2124              	.L228:
 2125              	.LBE46:
 2126              	.LBE45:
 2127              	.LBB47:
 2128              	.LBB48:
 651:src/iface.c   ****   if (i < 19) {
 2129              		.loc 1 651 0
 2130 0338 07F12300 		add	r0, r7, #35
 2131 033c FFF7FEFF 		bl	WGet
 2132              	.LVL224:
 652:src/iface.c   ****     return errRspData(S3RC_ERR_DATA, aRspMsg, aReqMsg, aReqLen);
 2133              		.loc 1 652 0
 2134 0340 1228     		cmp	r0, #18
 2135 0342 4ADD     		ble	.L312
 661:src/iface.c   ****   memcpy(buf+4, gabRRand, 4);
 2136              		.loc 1 661 0
 2137 0344 9049     		ldr	r1, .L317+4
 2138 0346 0422     		movs	r2, #4
 2139 0348 08A8     		add	r0, sp, #32
 2140              	.LVL225:
 655:src/iface.c   ****   bKIdx = aReqMsg[OSET_REQ_DATA+1];
 2141              		.loc 1 655 0
 2142 034a 97F825B0 		ldrb	fp, [r7, #37]	@ zero_extendqisi2
 2143              	.LVL226:
 656:src/iface.c   ****   pERand = aReqMsg + OSET_REQ_DATA + 2;
 2144              		.loc 1 656 0
 2145 034e 97F826A0 		ldrb	r10, [r7, #38]	@ zero_extendqisi2
 2146              	.LVL227:
 658:src/iface.c   **** 
 2147              		.loc 1 658 0
 2148 0352 97F83790 		ldrb	r9, [r7, #55]	@ zero_extendqisi2
 2149              	.LVL228:
 661:src/iface.c   ****   memcpy(buf+4, gabRRand, 4);
 2150              		.loc 1 661 0
 2151 0356 FFF7FEFF 		bl	memcpy
 2152              	.LVL229:
 662:src/iface.c   ****   memcpy(buf+8, gabTRand, 4);
 2153              		.loc 1 662 0
 2154 035a 8A49     		ldr	r1, .L317
 2155 035c 0422     		movs	r2, #4
 2156 035e 09A8     		add	r0, sp, #36
 2157 0360 FFF7FEFF 		bl	memcpy
 2158              	.LVL230:
 665:src/iface.c   ****     return errRspData(S3RC_ERR_KEY, aRspMsg, aReqMsg, aReqLen);
 2159              		.loc 1 665 0
 2160 0364 4FF01008 		mov	r8, #16
 2161              	.LVL231:
 663:src/iface.c   ****   memcpy(buf+12, gabRRand+4, 4);
 2162              		.loc 1 663 0
 2163 0368 07F54961 		add	r1, r7, #3216
 2164 036c 0422     		movs	r2, #4
 2165 036e 0AA8     		add	r0, sp, #40
 2166 0370 FFF7FEFF 		bl	memcpy
 2167              	.LVL232:
 664:src/iface.c   ****   if (encrypt(S3TDES, bKType|SKEY_MASK, bKIdx, buf, 16) == FALSE) {
 2168              		.loc 1 664 0
 2169 0374 8549     		ldr	r1, .L317+8
ARM GAS  C:\Users\AHMEDH~1\AppData\Local\Temp\cclxJjJK.s 			page 68


 2170 0376 0422     		movs	r2, #4
 2171 0378 0BA8     		add	r0, sp, #44
 2172 037a FFF7FEFF 		bl	memcpy
 2173              	.LVL233:
 665:src/iface.c   ****     return errRspData(S3RC_ERR_KEY, aRspMsg, aReqMsg, aReqLen);
 2174              		.loc 1 665 0
 2175 037e CDF80080 		str	r8, [sp]
 2176 0382 3046     		mov	r0, r6
 2177 0384 4BF08001 		orr	r1, fp, #128
 2178 0388 5246     		mov	r2, r10
 2179 038a 08AB     		add	r3, sp, #32
 2180 038c FFF7FEFF 		bl	encrypt
 2181              	.LVL234:
 2182 0390 C0B3     		cbz	r0, .L311
 668:src/iface.c   ****     return errRspData(S3RC_ERR_KEY, aRspMsg, aReqMsg, aReqLen);
 2183              		.loc 1 668 0
 2184 0392 07F12700 		add	r0, r7, #39
 2185 0396 08A9     		add	r1, sp, #32
 2186 0398 4246     		mov	r2, r8
 2187 039a FFF7FEFF 		bl	memcmp
 2188              	.LVL235:
 2189 039e 0646     		mov	r6, r0
 2190 03a0 80BB     		cbnz	r0, .L311
 674:src/iface.c   ****   memset(gabTRand, 0x00, 8);
 2191              		.loc 1 674 0
 2192 03a2 4FF00108 		mov	r8, #1
 675:src/iface.c   ****   memset(gabRRand, 0x00, 8);
 2193              		.loc 1 675 0
 2194 03a6 3146     		mov	r1, r6
 2195 03a8 0822     		movs	r2, #8
 2196 03aa 07F54960 		add	r0, r7, #3216
 673:src/iface.c   ****   gwSeqNum = 1;
 2197              		.loc 1 673 0
 2198 03ae 87F81A96 		strb	r9, [r7, #1562]
 674:src/iface.c   ****   memset(gabTRand, 0x00, 8);
 2199              		.loc 1 674 0
 2200 03b2 A7F81886 		strh	r8, [r7, #1560]	@ movhi
 675:src/iface.c   ****   memset(gabRRand, 0x00, 8);
 2201              		.loc 1 675 0
 2202 03b6 FFF7FEFF 		bl	memset
 2203              	.LVL236:
 676:src/iface.c   **** 
 2204              		.loc 1 676 0
 2205 03ba 3146     		mov	r1, r6
 2206 03bc 7148     		ldr	r0, .L317
 2207 03be 0822     		movs	r2, #8
 2208 03c0 FFF7FEFF 		bl	memset
 2209              	.LVL237:
 681:src/iface.c   **** 
 2210              		.loc 1 681 0
 2211 03c4 6C73     		strb	r4, [r5, #13]
 684:src/iface.c   ****   iLen += 2;
 2212              		.loc 1 684 0
 2213 03c6 05F10B00 		add	r0, r5, #11
 2214 03ca 4146     		mov	r1, r8
 2215 03cc 35E0     		b	.L308
 2216              	.LVL238:
ARM GAS  C:\Users\AHMEDH~1\AppData\Local\Temp\cclxJjJK.s 			page 69


 2217              	.L234:
 2218              	.LBE48:
 2219              	.LBE47:
 2220              	.LBB49:
 2221              	.LBB50:
 704:src/iface.c   ****   if (i < 22) {
 2222              		.loc 1 704 0
 2223 03ce 07F12300 		add	r0, r7, #35
 2224 03d2 FFF7FEFF 		bl	WGet
 2225              	.LVL239:
 705:src/iface.c   ****     return errRspData(S3RC_ERR_DATA, aRspMsg, aReqMsg, aReqLen);
 2226              		.loc 1 705 0
 2227 03d6 1528     		cmp	r0, #21
 2228 03d8 01DC     		bgt	.L246
 2229              	.LVL240:
 2230              	.L312:
 706:src/iface.c   ****   }
 2231              		.loc 1 706 0
 2232 03da 8220     		movs	r0, #130
 2233 03dc C5E0     		b	.L307
 2234              	.LVL241:
 2235              	.L246:
 708:src/iface.c   ****   bKIdx = aReqMsg[OSET_REQ_DATA+1];
 2236              		.loc 1 708 0
 2237 03de 97F82590 		ldrb	r9, [r7, #37]	@ zero_extendqisi2
 2238              	.LVL242:
 709:src/iface.c   ****   pEKey = aReqMsg + OSET_REQ_DATA + 2;
 2239              		.loc 1 709 0
 2240 03e2 97F82680 		ldrb	r8, [r7, #38]	@ zero_extendqisi2
 2241              	.LVL243:
 714:src/iface.c   ****   if (encrypt(S3TDES2, bKType|SKEY_MASK, bKIdx, buf, 16) == FALSE) {
 2242              		.loc 1 714 0
 2243 03e6 07F12701 		add	r1, r7, #39
 2244 03ea 3246     		mov	r2, r6
 2245 03ec 08A8     		add	r0, sp, #32
 2246              	.LVL244:
 2247 03ee FFF7FEFF 		bl	memcpy
 2248              	.LVL245:
 715:src/iface.c   ****     return errRspData(S3RC_ERR_KEY, aRspMsg, aReqMsg, aReqLen);
 2249              		.loc 1 715 0
 2250 03f2 0096     		str	r6, [sp]
 2251 03f4 0420     		movs	r0, #4
 2252 03f6 49F08001 		orr	r1, r9, #128
 2253 03fa 4246     		mov	r2, r8
 2254 03fc 08AB     		add	r3, sp, #32
 2255 03fe FFF7FEFF 		bl	encrypt
 2256              	.LVL246:
 2257 0402 08B9     		cbnz	r0, .L248
 2258              	.LVL247:
 2259              	.L311:
 716:src/iface.c   ****   }
 2260              		.loc 1 716 0
 2261 0404 8520     		movs	r0, #133
 2262 0406 B0E0     		b	.L307
 2263              	.LVL248:
 2264              	.L248:
 721:src/iface.c   ****   if (memcmp(pKvc, abKvc, 4) != 0) { // KVC not match
ARM GAS  C:\Users\AHMEDH~1\AppData\Local\Temp\cclxJjJK.s 			page 70


 2265              		.loc 1 721 0
 2266 0408 08A8     		add	r0, sp, #32
 2267 040a 06A9     		add	r1, sp, #24
 2268 040c 0822     		movs	r2, #8
 720:src/iface.c   ****   TDes(buf, abKvc, 8);
 2269              		.loc 1 720 0
 2270 040e 0694     		str	r4, [sp, #24]
 2271 0410 0794     		str	r4, [sp, #28]
 721:src/iface.c   ****   if (memcmp(pKvc, abKvc, 4) != 0) { // KVC not match
 2272              		.loc 1 721 0
 2273 0412 FFF7FEFF 		bl	TDes
 2274              	.LVL249:
 722:src/iface.c   ****     return errRspData(S3RC_ERR_KVC, aRspMsg, aReqMsg, aReqLen);
 2275              		.loc 1 722 0
 2276 0416 07F13700 		add	r0, r7, #55
 2277 041a 06A9     		add	r1, sp, #24
 2278 041c 0422     		movs	r2, #4
 2279 041e FFF7FEFF 		bl	memcmp
 2280              	.LVL250:
 2281 0422 08B1     		cbz	r0, .L249
 723:src/iface.c   ****   }
 2282              		.loc 1 723 0
 2283 0424 8720     		movs	r0, #135
 2284 0426 A0E0     		b	.L307
 2285              	.L249:
 727:src/iface.c   **** 
 2286              		.loc 1 727 0
 2287 0428 4946     		mov	r1, r9
 2288 042a 08A8     		add	r0, sp, #32
 2289 042c 4246     		mov	r2, r8
 2290 042e FFF7FEFF 		bl	keyPut
 2291              	.LVL251:
 735:src/iface.c   ****   iLen += 2;
 2292              		.loc 1 735 0
 2293 0432 05F10B00 		add	r0, r5, #11
 2294 0436 0121     		movs	r1, #1
 732:src/iface.c   **** 
 2295              		.loc 1 732 0
 2296 0438 6C73     		strb	r4, [r5, #13]
 2297              	.LVL252:
 2298              	.L308:
 735:src/iface.c   ****   iLen += 2;
 2299              		.loc 1 735 0
 2300 043a FFF7FEFF 		bl	WPut
 2301              	.LVL253:
 2302 043e 99E0     		b	.L301
 2303              	.LVL254:
 2304              	.L233:
 2305              	.LBE50:
 2306              	.LBE49:
 997:src/iface.c   ****       memcpy(gGDS->s_ecr_data.sb_content, "\xDF\x04\x06", 3);             // ECR Amount
 2307              		.loc 1 997 0
 2308 0440 534E     		ldr	r6, .L317+12
 994:src/iface.c   ****       LongBeep();
 2309              		.loc 1 994 0
 2310 0442 FFF7FEFF 		bl	ClearResponse
 2311              	.LVL255:
ARM GAS  C:\Users\AHMEDH~1\AppData\Local\Temp\cclxJjJK.s 			page 71


 995:src/iface.c   ****       // convert to existing ECR interface
 2312              		.loc 1 995 0
 2313 0446 FFF7FEFF 		bl	LongBeep
 2314              	.LVL256:
 997:src/iface.c   ****       memcpy(gGDS->s_ecr_data.sb_content, "\xDF\x04\x06", 3);             // ECR Amount
 2315              		.loc 1 997 0
 2316 044a 0123     		movs	r3, #1
 2317 044c 3468     		ldr	r4, [r6]
 998:src/iface.c   ****       memcpy(&gGDS->s_ecr_data.sb_content[3], aReqMsg+OSET_REQ_DATA, 6);  // Copy from Request
 2318              		.loc 1 998 0
 2319 044e 5149     		ldr	r1, .L317+16
 997:src/iface.c   ****       memcpy(gGDS->s_ecr_data.sb_content, "\xDF\x04\x06", 3);             // ECR Amount
 2320              		.loc 1 997 0
 2321 0450 04F57154 		add	r4, r4, #15424
 998:src/iface.c   ****       memcpy(&gGDS->s_ecr_data.sb_content[3], aReqMsg+OSET_REQ_DATA, 6);  // Copy from Request
 2322              		.loc 1 998 0
 2323 0454 04F11A00 		add	r0, r4, #26
 997:src/iface.c   ****       memcpy(gGDS->s_ecr_data.sb_content, "\xDF\x04\x06", 3);             // ECR Amount
 2324              		.loc 1 997 0
 2325 0458 2376     		strb	r3, [r4, #24]
 998:src/iface.c   ****       memcpy(&gGDS->s_ecr_data.sb_content[3], aReqMsg+OSET_REQ_DATA, 6);  // Copy from Request
 2326              		.loc 1 998 0
 2327 045a 0322     		movs	r2, #3
 2328 045c FFF7FEFF 		bl	memcpy
 2329              	.LVL257:
 999:src/iface.c   ****       pbTlv = TlvSeek(aReqMsg+OSET_REQ_DATA+6, aReqLen-OSET_REQ_DATA-6, ITFTAG_TXNTYPE);
 2330              		.loc 1 999 0
 2331 0460 04F11D00 		add	r0, r4, #29
 2332 0464 4C49     		ldr	r1, .L317+20
 2333 0466 0622     		movs	r2, #6
 2334 0468 FFF7FEFF 		bl	memcpy
 2335              	.LVL258:
1000:src/iface.c   ****       if (pbTlv != NULL) {
 2336              		.loc 1 1000 0
 2337 046c A8F11301 		sub	r1, r8, #19
 2338 0470 4FF47F42 		mov	r2, #65280
 2339 0474 8CB2     		uxth	r4, r1
 2340 0476 4948     		ldr	r0, .L317+24
 2341 0478 2146     		mov	r1, r4
 2342 047a FFF7FEFF 		bl	TlvSeek
 2343              	.LVL259:
1001:src/iface.c   ****         pb = TlvVPtr(pbTlv);
 2344              		.loc 1 1001 0
 2345 047e 0246     		mov	r2, r0
 2346 0480 10B1     		cbz	r0, .L250
1002:src/iface.c   ****         gGDS->s_ecr_data.b_cmd = *pb;
 2347              		.loc 1 1002 0
 2348 0482 FFF7FEFF 		bl	TlvVPtr
 2349              	.LVL260:
1003:src/iface.c   ****       }
 2350              		.loc 1 1003 0
 2351 0486 0278     		ldrb	r2, [r0]	@ zero_extendqisi2
 2352              	.LVL261:
 2353              	.L250:
1006:src/iface.c   ****       gGDS->i_ecr_len = 11;
 2354              		.loc 1 1006 0
 2355 0488 3368     		ldr	r3, [r6]
ARM GAS  C:\Users\AHMEDH~1\AppData\Local\Temp\cclxJjJK.s 			page 72


1008:src/iface.c   ****       switch (gGDS->s_ecr_data.b_cmd) {
 2356              		.loc 1 1008 0
 2357 048a 4548     		ldr	r0, .L317+28
1006:src/iface.c   ****       gGDS->i_ecr_len = 11;
 2358              		.loc 1 1006 0
 2359 048c 03F57153 		add	r3, r3, #15424
1008:src/iface.c   ****       switch (gGDS->s_ecr_data.b_cmd) {
 2360              		.loc 1 1008 0
 2361 0490 0021     		movs	r1, #0
1006:src/iface.c   ****       gGDS->i_ecr_len = 11;
 2362              		.loc 1 1006 0
 2363 0492 5A76     		strb	r2, [r3, #25]
1007:src/iface.c   ****       memset(&gTermTotal, 0, sizeof(struct TOTAL_STRUCT));
 2364              		.loc 1 1007 0
 2365 0494 3768     		ldr	r7, [r6]
 2366 0496 0B22     		movs	r2, #11
 2367 0498 07F58443 		add	r3, r7, #16896
1009:src/iface.c   ****         case ECR_EDC_SALE:
 2368              		.loc 1 1009 0
 2369 049c 07F57157 		add	r7, r7, #15424
1007:src/iface.c   ****       memset(&gTermTotal, 0, sizeof(struct TOTAL_STRUCT));
 2370              		.loc 1 1007 0
 2371 04a0 DA65     		str	r2, [r3, #92]
1008:src/iface.c   ****       switch (gGDS->s_ecr_data.b_cmd) {
 2372              		.loc 1 1008 0
 2373 04a2 6822     		movs	r2, #104
 2374 04a4 FFF7FEFF 		bl	memset
 2375              	.LVL262:
1009:src/iface.c   ****         case ECR_EDC_SALE:
 2376              		.loc 1 1009 0
 2377 04a8 7B7E     		ldrb	r3, [r7, #25]	@ zero_extendqisi2
 2378 04aa 092B     		cmp	r3, #9
 2379 04ac 2ED8     		bhi	.L265
 2380 04ae DFE803F0 		tbb	[pc, r3]
 2381              	.L254:
 2382 04b2 05       		.byte	(.L253-.L254)/2
 2383 04b3 07       		.byte	(.L255-.L254)/2
 2384 04b4 09       		.byte	(.L256-.L254)/2
 2385 04b5 0B       		.byte	(.L257-.L254)/2
 2386 04b6 2D       		.byte	(.L265-.L254)/2
 2387 04b7 2D       		.byte	(.L265-.L254)/2
 2388 04b8 2D       		.byte	(.L265-.L254)/2
 2389 04b9 23       		.byte	(.L258-.L254)/2
 2390 04ba 26       		.byte	(.L259-.L254)/2
 2391 04bb 2A       		.byte	(.L260-.L254)/2
 2392              		.p2align 1
 2393              	.L253:
1011:src/iface.c   ****           break;
 2394              		.loc 1 1011 0
 2395 04bc 0220     		movs	r0, #2
 2396 04be 1FE0     		b	.L306
 2397              	.L255:
1014:src/iface.c   ****           break;
 2398              		.loc 1 1014 0
 2399 04c0 0720     		movs	r0, #7
 2400 04c2 1DE0     		b	.L306
 2401              	.L256:
ARM GAS  C:\Users\AHMEDH~1\AppData\Local\Temp\cclxJjJK.s 			page 73


1017:src/iface.c   ****           break;
 2402              		.loc 1 1017 0
 2403 04c4 0620     		movs	r0, #6
 2404 04c6 1BE0     		b	.L306
 2405              	.L257:
1020:src/iface.c   ****           if (pbTlv != NULL)
 2406              		.loc 1 1020 0
 2407 04c8 3448     		ldr	r0, .L317+24
 2408 04ca 2146     		mov	r1, r4
 2409 04cc 49F64172 		movw	r2, #40769
 2410 04d0 FFF7FEFF 		bl	TlvSeek
 2411              	.LVL263:
1021:src/iface.c   ****             memcpy(INPUT.sb_roc_no, TlvVPtr(pbTlv), TlvLen(pbTlv));
 2412              		.loc 1 1021 0
 2413 04d4 0746     		mov	r7, r0
 2414 04d6 50B1     		cbz	r0, .L262
1022:src/iface.c   ****           ret = ItfVoid();
 2415              		.loc 1 1022 0
 2416 04d8 FFF7FEFF 		bl	TlvVPtr
 2417              	.LVL264:
 2418 04dc 0446     		mov	r4, r0
 2419 04de 3846     		mov	r0, r7
 2420 04e0 FFF7FEFF 		bl	TlvLen
 2421              	.LVL265:
 2422 04e4 2146     		mov	r1, r4
 2423 04e6 0246     		mov	r2, r0
 2424 04e8 2E48     		ldr	r0, .L317+32
 2425 04ea FFF7FEFF 		bl	memcpy
 2426              	.LVL266:
 2427              	.L262:
 2428              	.LBB51:
 2429              	.LBB52:
 920:src/iface.c   ****   return TXN_OK;
 2430              		.loc 1 920 0
 2431 04ee 4FF0FF30 		mov	r0, #-1
 2432 04f2 FFF7FEFF 		bl	VoidTrans
 2433              	.LVL267:
 2434 04f6 09E0     		b	.L265
 2435              	.LVL268:
 2436              	.L258:
 2437              	.LBE52:
 2438              	.LBE51:
1026:src/iface.c   ****           break;
 2439              		.loc 1 1026 0
 2440 04f8 FFF7FEFF 		bl	ItfHostTot
 2441              	.LVL269:
 2442 04fc 05E0     		b	.L261
 2443              	.LVL270:
 2444              	.L259:
1029:src/iface.c   ****           break;
 2445              		.loc 1 1029 0
 2446 04fe 0020     		movs	r0, #0
 2447              	.L306:
 2448 0500 FFF7FEFF 		bl	WaitCardTrans
 2449              	.LVL271:
 2450 0504 01E0     		b	.L261
 2451              	.LVL272:
ARM GAS  C:\Users\AHMEDH~1\AppData\Local\Temp\cclxJjJK.s 			page 74


 2452              	.L260:
1032:src/iface.c   ****           break;
 2453              		.loc 1 1032 0
 2454 0506 FFF7FEFF 		bl	ItfSettle
 2455              	.LVL273:
 2456              	.L261:
1035:src/iface.c   ****         packFullEmvData(&sOut);
 2457              		.loc 1 1035 0
 2458 050a F8B1     		cbz	r0, .L263
 2459              	.LVL274:
 2460              	.L265:
1036:src/iface.c   ****         iLen = setFullEmvData(S3RC_OK, 0, aRspMsg, &sOut);
 2461              		.loc 1 1036 0
 2462 050c 04A8     		add	r0, sp, #16
 2463 050e FFF7FEFF 		bl	packFullEmvData
 2464              	.LVL275:
 2465              	.LBB53:
 2466              	.LBB54:
 760:src/iface.c   ****   UPut(pRCode+iLen, aEId);
 2467              		.loc 1 760 0
 2468 0512 0021     		movs	r1, #0
 761:src/iface.c   ****   iLen += 4;
 2469              		.loc 1 761 0
 2470 0514 05F10E00 		add	r0, r5, #14
 760:src/iface.c   ****   UPut(pRCode+iLen, aEId);
 2471              		.loc 1 760 0
 2472 0518 6973     		strb	r1, [r5, #13]
 761:src/iface.c   ****   iLen += 4;
 2473              		.loc 1 761 0
 2474 051a FFF7FEFF 		bl	UPut
 2475              	.LVL276:
 763:src/iface.c   ****   iLen += 2;
 2476              		.loc 1 763 0
 2477 051e 05F11200 		add	r0, r5, #18
 2478 0522 BDF81010 		ldrh	r1, [sp, #16]
 2479 0526 FFF7FEFF 		bl	WPut
 2480              	.LVL277:
 765:src/iface.c   ****   iLen += asOut->wLen;
 2481              		.loc 1 765 0
 2482 052a BDF81040 		ldrh	r4, [sp, #16]
 2483 052e 0599     		ldr	r1, [sp, #20]
 2484 0530 2246     		mov	r2, r4
 2485 0532 05F11400 		add	r0, r5, #20
 2486 0536 FFF7FEFF 		bl	memcpy
 2487              	.LVL278:
 766:src/iface.c   **** 
 2488              		.loc 1 766 0
 2489 053a E11D     		adds	r1, r4, #7
 2490              	.LVL279:
 769:src/iface.c   ****   iLen += 2;
 2491              		.loc 1 769 0
 2492 053c 05F10B00 		add	r0, r5, #11
 2493 0540 89B2     		uxth	r1, r1
 2494              	.LVL280:
 2495 0542 FFF7FEFF 		bl	WPut
 2496              	.LVL281:
 770:src/iface.c   ****   return iLen;
ARM GAS  C:\Users\AHMEDH~1\AppData\Local\Temp\cclxJjJK.s 			page 75


 2497              		.loc 1 770 0
 2498 0546 04F10900 		add	r0, r4, #9
 2499              	.LVL282:
 2500 054a 03E0     		b	.L264
 2501              	.LVL283:
 2502              	.L263:
 2503              	.LBE54:
 2504              	.LBE53:
1040:src/iface.c   ****       gGDS->i_ecr_len = 0;
 2505              		.loc 1 1040 0
 2506 054c 4020     		movs	r0, #64
 2507              	.LVL284:
 2508 054e 2946     		mov	r1, r5
 2509 0550 FFF7FEFF 		bl	errRspData.isra.0
 2510              	.LVL285:
 2511              	.L264:
1041:src/iface.c   ****       ResetTerm();
 2512              		.loc 1 1041 0
 2513 0554 3368     		ldr	r3, [r6]
 2514 0556 0022     		movs	r2, #0
 2515 0558 03F58443 		add	r3, r3, #16896
 2516 055c 0390     		str	r0, [sp, #12]
 2517              	.LVL286:
 2518 055e DA65     		str	r2, [r3, #92]
1042:src/iface.c   ****       break;
 2519              		.loc 1 1042 0
 2520 0560 FFF7FEFF 		bl	ResetTerm
 2521              	.LVL287:
 2522 0564 0398     		ldr	r0, [sp, #12]
 2523 0566 03E0     		b	.L236
 2524              	.LVL288:
 2525              	.L300:
1046:src/iface.c   ****       break;
 2526              		.loc 1 1046 0
 2527 0568 8620     		movs	r0, #134
 2528              	.LVL289:
 2529              	.L307:
 2530 056a 2946     		mov	r1, r5
 2531 056c FFF7FEFF 		bl	errRspData.isra.0
 2532              	.LVL290:
 2533              	.L236:
 2534              	.LBE56:
 2535              	.LBE60:
1205:src/iface.c   ****     return iRet;
 2536              		.loc 1 1205 0
 2537 0570 0028     		cmp	r0, #0
 2538 0572 02DB     		blt	.L273
 2539              	.L301:
1208:src/iface.c   ****   return iRet;
 2540              		.loc 1 1208 0
 2541 0574 2846     		mov	r0, r5
 2542 0576 FFF7FEFF 		bl	rspPackFmt.isra.6.constprop.9
 2543              	.LVL291:
 2544              	.L273:
 2545 057a 0446     		mov	r4, r0
 2546              	.L225:
1210:src/iface.c   **** 
ARM GAS  C:\Users\AHMEDH~1\AppData\Local\Temp\cclxJjJK.s 			page 76


 2547              		.loc 1 1210 0
 2548 057c 2046     		mov	r0, r4
 2549 057e 0DB0     		add	sp, sp, #52
 2550              		.cfi_def_cfa_offset 36
 2551              		@ sp needed
 2552 0580 BDE8F08F 		pop	{r4, r5, r6, r7, r8, r9, r10, fp, pc}
 2553              	.LVL292:
 2554              	.L318:
 2555              		.align	2
 2556              	.L317:
 2557 0584 880C0000 		.word	.LANCHOR1+3208
 2558 0588 940C0000 		.word	.LANCHOR1+3220
 2559 058c 8C0C0000 		.word	.LANCHOR1+3212
 2560 0590 00000000 		.word	gGDS
 2561 0594 1A000000 		.word	.LC4
 2562 0598 25000000 		.word	.LANCHOR1+37
 2563 059c 2B000000 		.word	.LANCHOR1+43
 2564 05a0 20060000 		.word	.LANCHOR1+1568
 2565 05a4 06000000 		.word	gGTS+6
 2566              		.cfi_endproc
 2567              	.LFE19:
 2568              		.size	Spt3MsgHdr, .-Spt3MsgHdr
 2569              		.section	.text.IfaceInit,"ax",%progbits
 2570              		.align	1
 2571              		.global	IfaceInit
 2572              		.thumb
 2573              		.thumb_func
 2574              		.type	IfaceInit, %function
 2575              	IfaceInit:
 2576              	.LFB20:
1222:src/iface.c   ****   //return APM_IFACE_Open(aForceInit);
 2577              		.loc 1 1222 0
 2578              		.cfi_startproc
 2579              		@ args = 0, pretend = 0, frame = 0
 2580              		@ frame_needed = 0, uses_anonymous_args = 0
 2581              		@ link register save eliminated.
 2582              	.LVL293:
1225:src/iface.c   **** 
 2583              		.loc 1 1225 0
 2584 0000 0120     		movs	r0, #1
 2585              	.LVL294:
 2586 0002 7047     		bx	lr
 2587              		.cfi_endproc
 2588              	.LFE20:
 2589              		.size	IfaceInit, .-IfaceInit
 2590              		.section	.text.IfaceClose,"ax",%progbits
 2591              		.align	1
 2592              		.global	IfaceClose
 2593              		.thumb
 2594              		.thumb_func
 2595              		.type	IfaceClose, %function
 2596              	IfaceClose:
 2597              	.LFB21:
1236:src/iface.c   ****   //return APM_IFACE_Close();
 2598              		.loc 1 1236 0
 2599              		.cfi_startproc
 2600              		@ args = 0, pretend = 0, frame = 0
ARM GAS  C:\Users\AHMEDH~1\AppData\Local\Temp\cclxJjJK.s 			page 77


 2601              		@ frame_needed = 0, uses_anonymous_args = 0
 2602              		@ link register save eliminated.
1239:src/iface.c   **** 
 2603              		.loc 1 1239 0
 2604 0000 0120     		movs	r0, #1
 2605 0002 7047     		bx	lr
 2606              		.cfi_endproc
 2607              	.LFE21:
 2608              		.size	IfaceClose, .-IfaceClose
 2609              		.section	.text.debugAuxIface,"ax",%progbits
 2610              		.align	1
 2611              		.global	debugAuxIface
 2612              		.thumb
 2613              		.thumb_func
 2614              		.type	debugAuxIface, %function
 2615              	debugAuxIface:
 2616              	.LFB22:
1251:src/iface.c   ****   BYTE buf[20];
 2617              		.loc 1 1251 0
 2618              		.cfi_startproc
 2619              		@ args = 0, pretend = 0, frame = 24
 2620              		@ frame_needed = 0, uses_anonymous_args = 0
 2621              	.LVL295:
 2622 0000 2DE9F041 		push	{r4, r5, r6, r7, r8, lr}
 2623              		.cfi_def_cfa_offset 24
 2624              		.cfi_offset 4, -24
 2625              		.cfi_offset 5, -20
 2626              		.cfi_offset 6, -16
 2627              		.cfi_offset 7, -12
 2628              		.cfi_offset 8, -8
 2629              		.cfi_offset 14, -4
1256:src/iface.c   ****   if (txbuf == NULL)
 2630              		.loc 1 1256 0
 2631 0004 02F10A05 		add	r5, r2, #10
1251:src/iface.c   ****   BYTE buf[20];
 2632              		.loc 1 1251 0
 2633 0008 88B0     		sub	sp, sp, #32
 2634              		.cfi_def_cfa_offset 56
1256:src/iface.c   ****   if (txbuf == NULL)
 2635              		.loc 1 1256 0
 2636 000a 6D00     		lsls	r5, r5, #1
1251:src/iface.c   ****   BYTE buf[20];
 2637              		.loc 1 1251 0
 2638 000c 8046     		mov	r8, r0
 2639 000e 0F46     		mov	r7, r1
1256:src/iface.c   ****   if (txbuf == NULL)
 2640              		.loc 1 1256 0
 2641 0010 9220     		movs	r0, #146
 2642              	.LVL296:
 2643 0012 2946     		mov	r1, r5
 2644              	.LVL297:
1251:src/iface.c   ****   BYTE buf[20];
 2645              		.loc 1 1251 0
 2646 0014 1446     		mov	r4, r2
1256:src/iface.c   ****   if (txbuf == NULL)
 2647              		.loc 1 1256 0
 2648 0016 FFF7FEFF 		bl	sys_func1
ARM GAS  C:\Users\AHMEDH~1\AppData\Local\Temp\cclxJjJK.s 			page 78


 2649              	.LVL298:
1257:src/iface.c   ****     return;
 2650              		.loc 1 1257 0
 2651 001a 0646     		mov	r6, r0
 2652 001c 0028     		cmp	r0, #0
 2653 001e 68D0     		beq	.L321
1260:src/iface.c   ****   memset(buf, 0, sizeof(buf));
 2654              		.loc 1 1260 0
 2655 0020 2946     		mov	r1, r5
 2656 0022 FFF7FEFF 		bl	set_pptr
 2657              	.LVL299:
1261:src/iface.c   ****   if (aIn)
 2658              		.loc 1 1261 0
 2659 0026 03A8     		add	r0, sp, #12
 2660 0028 0021     		movs	r1, #0
 2661 002a 1422     		movs	r2, #20
 2662 002c FFF7FEFF 		bl	memset
 2663              	.LVL300:
1263:src/iface.c   ****   else
 2664              		.loc 1 1263 0
 2665 0030 03A8     		add	r0, sp, #12
1262:src/iface.c   ****     sprintf(buf, "Iface-In (%d):", aLen);
 2666              		.loc 1 1262 0
 2667 0032 B8F1000F 		cmp	r8, #0
 2668 0036 01D0     		beq	.L323
1263:src/iface.c   ****   else
 2669              		.loc 1 1263 0
 2670 0038 2F49     		ldr	r1, .L339
 2671 003a 00E0     		b	.L338
 2672              	.L323:
1265:src/iface.c   ****   pack_mem(buf, strlen(buf));
 2673              		.loc 1 1265 0
 2674 003c 2F49     		ldr	r1, .L339+4
 2675              	.L338:
 2676 003e 2246     		mov	r2, r4
 2677 0040 FFF7FEFF 		bl	sprintf
 2678              	.LVL301:
1266:src/iface.c   ****   split_data(pData, aLen);
 2679              		.loc 1 1266 0
 2680 0044 03A8     		add	r0, sp, #12
 2681 0046 FFF7FEFF 		bl	strlen
 2682              	.LVL302:
 2683 004a 0146     		mov	r1, r0
 2684 004c 03A8     		add	r0, sp, #12
 2685 004e FFF7FEFF 		bl	pack_mem
 2686              	.LVL303:
1267:src/iface.c   ****   pack_mem("\r\n", 2);
 2687              		.loc 1 1267 0
 2688 0052 3846     		mov	r0, r7
 2689 0054 2146     		mov	r1, r4
 2690 0056 FFF7FEFF 		bl	split_data
 2691              	.LVL304:
1268:src/iface.c   **** 
 2692              		.loc 1 1268 0
 2693 005a 2948     		ldr	r0, .L339+8
 2694 005c 0221     		movs	r1, #2
 2695 005e FFF7FEFF 		bl	pack_mem
ARM GAS  C:\Users\AHMEDH~1\AppData\Local\Temp\cclxJjJK.s 			page 79


 2696              	.LVL305:
1270:src/iface.c   ****     DispLineMW("AuxOpen Err!", MW_LINE5, MW_CENTER|MW_CLRDISP|MW_BIGFONT);
 2697              		.loc 1 1270 0
 2698 0062 FFF7FEFF 		bl	AuxOpen
 2699              	.LVL306:
 2700 0066 0546     		mov	r5, r0
 2701 0068 08BB     		cbnz	r0, .L325
 2702              	.LVL307:
 2703              	.LBB61:
1271:src/iface.c   ****     APM_WaitKey(9000, 0);
 2704              		.loc 1 1271 0
 2705 006a 9220     		movs	r0, #146
 2706 006c 0D21     		movs	r1, #13
 2707 006e FFF7FEFF 		bl	sys_func1
 2708              	.LVL308:
 2709 0072 0446     		mov	r4, r0
 2710              	.LVL309:
 2711 0074 90B1     		cbz	r0, .L326
1271:src/iface.c   ****     APM_WaitKey(9000, 0);
 2712              		.loc 1 1271 0 is_stmt 0 discriminator 1
 2713 0076 2349     		ldr	r1, .L339+12
 2714 0078 0C22     		movs	r2, #12
 2715 007a FFF7FEFF 		bl	memcpy
 2716              	.LVL310:
 2717 007e 41F28203 		movw	r3, #4226
 2718 0082 2573     		strb	r5, [r4, #12]
 2719 0084 2521     		movs	r1, #37
 2720 0086 0093     		str	r3, [sp]
 2721 0088 0F20     		movs	r0, #15
 2722 008a 2246     		mov	r2, r4
 2723 008c 4FF4A063 		mov	r3, #1280
 2724 0090 FFF7FEFF 		bl	lib_app_call
 2725              	.LVL311:
 2726 0094 9420     		movs	r0, #148
 2727 0096 2146     		mov	r1, r4
 2728 0098 FFF7FEFF 		bl	sys_func1
 2729              	.LVL312:
 2730              	.L326:
 2731              	.LBE61:
1272:src/iface.c   ****     return;
 2732              		.loc 1 1272 0 is_stmt 1
 2733 009c 0023     		movs	r3, #0
 2734 009e 0321     		movs	r1, #3
 2735 00a0 0093     		str	r3, [sp]
 2736 00a2 42F22832 		movw	r2, #9000
 2737 00a6 1020     		movs	r0, #16
 2738 00a8 FFF7FEFF 		bl	lib_app_call
 2739              	.LVL313:
1273:src/iface.c   ****   }
 2740              		.loc 1 1273 0
 2741 00ac 21E0     		b	.L321
 2742              	.LVL314:
 2743              	.L325:
1276:src/iface.c   ****   while (FreeRunMW() < free_run + 200*2) {   // 2 sec timeout for send
 2744              		.loc 1 1276 0
 2745 00ae 40F29F10 		movw	r0, #415
 2746 00b2 FFF7FEFF 		bl	sys_func0
ARM GAS  C:\Users\AHMEDH~1\AppData\Local\Temp\cclxJjJK.s 			page 80


 2747              	.LVL315:
 2748 00b6 0446     		mov	r4, r0
 2749              	.LVL316:
 2750              	.L327:
1277:src/iface.c   ****     if (AuxTxRdy()) {
 2751              		.loc 1 1277 0
 2752 00b8 40F29F10 		movw	r0, #415
 2753 00bc FFF7FEFF 		bl	sys_func0
 2754              	.LVL317:
 2755 00c0 04F5C873 		add	r3, r4, #400
 2756 00c4 9842     		cmp	r0, r3
 2757 00c6 0ED2     		bcs	.L329
1278:src/iface.c   ****       AuxWrite(txbuf, get_distance());
 2758              		.loc 1 1278 0
 2759 00c8 FFF7FEFF 		bl	AuxTxRdy
 2760              	.LVL318:
 2761 00cc 30B1     		cbz	r0, .L328
1279:src/iface.c   ****       break;
 2762              		.loc 1 1279 0
 2763 00ce FFF7FEFF 		bl	get_distance
 2764              	.LVL319:
 2765 00d2 0146     		mov	r1, r0
 2766 00d4 3046     		mov	r0, r6
 2767 00d6 FFF7FEFF 		bl	AuxWrite
 2768              	.LVL320:
1280:src/iface.c   ****     }
 2769              		.loc 1 1280 0
 2770 00da 04E0     		b	.L329
 2771              	.L328:
1282:src/iface.c   ****   }
 2772              		.loc 1 1282 0
 2773 00dc 4FF4CE70 		mov	r0, #412
 2774 00e0 FFF7FEFF 		bl	sys_func0
 2775              	.LVL321:
 2776 00e4 E8E7     		b	.L327
 2777              	.L329:
1284:src/iface.c   ****   FreeMW(txbuf);
 2778              		.loc 1 1284 0
 2779 00e6 FFF7FEFF 		bl	AuxClose
 2780              	.LVL322:
1285:src/iface.c   **** }
 2781              		.loc 1 1285 0
 2782 00ea 9420     		movs	r0, #148
 2783 00ec 3146     		mov	r1, r6
 2784 00ee FFF7FEFF 		bl	sys_func1
 2785              	.LVL323:
 2786              	.L321:
1286:src/iface.c   **** //=============================================================================
 2787              		.loc 1 1286 0
 2788 00f2 08B0     		add	sp, sp, #32
 2789              		.cfi_def_cfa_offset 24
 2790              		@ sp needed
 2791 00f4 BDE8F081 		pop	{r4, r5, r6, r7, r8, pc}
 2792              	.LVL324:
 2793              	.L340:
 2794              		.align	2
 2795              	.L339:
ARM GAS  C:\Users\AHMEDH~1\AppData\Local\Temp\cclxJjJK.s 			page 81


 2796 00f8 1E000000 		.word	.LC5
 2797 00fc 2D000000 		.word	.LC6
 2798 0100 3C000000 		.word	.LC7
 2799 0104 3F000000 		.word	.LC8
 2800              		.cfi_endproc
 2801              	.LFE22:
 2802              		.size	debugAuxIface, .-debugAuxIface
 2803              		.section	.text.IfaceTx,"ax",%progbits
 2804              		.align	1
 2805              		.global	IfaceTx
 2806              		.thumb
 2807              		.thumb_func
 2808              		.type	IfaceTx, %function
 2809              	IfaceTx:
 2810              	.LFB23:
1296:src/iface.c   ****   BYTE buf[MAX_IFACE_BUF];
 2811              		.loc 1 1296 0
 2812              		.cfi_startproc
 2813              		@ args = 0, pretend = 0, frame = 1536
 2814              		@ frame_needed = 0, uses_anonymous_args = 0
 2815              	.LVL325:
 2816 0000 10B5     		push	{r4, lr}
 2817              		.cfi_def_cfa_offset 8
 2818              		.cfi_offset 4, -8
 2819              		.cfi_offset 14, -4
 2820 0002 0346     		mov	r3, r0
 2821 0004 ADF5C16D 		sub	sp, sp, #1544
 2822              		.cfi_def_cfa_offset 1552
1296:src/iface.c   ****   BYTE buf[MAX_IFACE_BUF];
 2823              		.loc 1 1296 0
 2824 0008 0C46     		mov	r4, r1
1299:src/iface.c   ****   //debugAuxIface(0, aData, aLen);
 2825              		.loc 1 1299 0
 2826 000a 2246     		mov	r2, r4
 2827 000c 1946     		mov	r1, r3
 2828              	.LVL326:
 2829 000e 02A8     		add	r0, sp, #8
 2830              	.LVL327:
 2831 0010 FFF7FEFF 		bl	memcpy
 2832              	.LVL328:
1301:src/iface.c   **** }
 2833              		.loc 1 1301 0
 2834 0014 0023     		movs	r3, #0
 2835 0016 0221     		movs	r1, #2
 2836 0018 0093     		str	r3, [sp]
 2837 001a 02AA     		add	r2, sp, #8
 2838 001c 2346     		mov	r3, r4
 2839 001e 7D20     		movs	r0, #125
 2840 0020 FFF7FEFF 		bl	lib_app_call
 2841              	.LVL329:
1302:src/iface.c   **** 
 2842              		.loc 1 1302 0
 2843 0024 0DF5C16D 		add	sp, sp, #1544
 2844              		.cfi_def_cfa_offset 8
 2845              		@ sp needed
 2846 0028 10BD     		pop	{r4, pc}
 2847              		.cfi_endproc
ARM GAS  C:\Users\AHMEDH~1\AppData\Local\Temp\cclxJjJK.s 			page 82


 2848              	.LFE23:
 2849              		.size	IfaceTx, .-IfaceTx
 2850              		.section	.text.IfaceRx,"ax",%progbits
 2851              		.align	1
 2852              		.global	IfaceRx
 2853              		.thumb
 2854              		.thumb_func
 2855              		.type	IfaceRx, %function
 2856              	IfaceRx:
 2857              	.LFB24:
1313:src/iface.c   ****   BYTE buf[MAX_IFACE_BUF];
 2858              		.loc 1 1313 0
 2859              		.cfi_startproc
 2860              		@ args = 0, pretend = 0, frame = 0
 2861              		@ frame_needed = 0, uses_anonymous_args = 0
 2862              	.LVL330:
 2863 0000 37B5     		push	{r0, r1, r2, r4, r5, lr}
 2864              		.cfi_def_cfa_offset 24
 2865              		.cfi_offset 4, -12
 2866              		.cfi_offset 5, -8
 2867              		.cfi_offset 14, -4
1317:src/iface.c   ****     return 0;
 2868              		.loc 1 1317 0
 2869 0002 0022     		movs	r2, #0
1313:src/iface.c   ****   BYTE buf[MAX_IFACE_BUF];
 2870              		.loc 1 1313 0
 2871 0004 0546     		mov	r5, r0
 2872 0006 0C46     		mov	r4, r1
1317:src/iface.c   ****     return 0;
 2873              		.loc 1 1317 0
 2874 0008 0092     		str	r2, [sp]
 2875 000a 7D20     		movs	r0, #125
 2876              	.LVL331:
 2877 000c 0521     		movs	r1, #5
 2878              	.LVL332:
 2879 000e 1346     		mov	r3, r2
 2880 0010 FFF7FEFF 		bl	lib_app_call
 2881              	.LVL333:
 2882 0014 30B1     		cbz	r0, .L343
 2883 0016 2846     		mov	r0, r5
 2884 0018 2146     		mov	r1, r4
 2885              		.loc 1 1326 0
 2886 001a 03B0     		add	sp, sp, #12
 2887              		.cfi_remember_state
 2888              		.cfi_def_cfa_offset 12
 2889              		@ sp needed
 2890 001c BDE83040 		pop	{r4, r5, lr}
 2891              		.cfi_restore 14
 2892              		.cfi_restore 5
 2893              		.cfi_restore 4
 2894              		.cfi_def_cfa_offset 0
 2895              	.LVL334:
 2896 0020 FFF7FEBF 		b	IfaceRx.part.8
 2897              	.LVL335:
 2898              	.L343:
 2899              		.cfi_restore_state
 2900 0024 03B0     		add	sp, sp, #12
ARM GAS  C:\Users\AHMEDH~1\AppData\Local\Temp\cclxJjJK.s 			page 83


 2901              		.cfi_def_cfa_offset 12
 2902              		@ sp needed
 2903 0026 30BD     		pop	{r4, r5, pc}
 2904              		.cfi_endproc
 2905              	.LFE24:
 2906              		.size	IfaceRx, .-IfaceRx
 2907              		.section	.text.IfaceProcess,"ax",%progbits
 2908              		.align	1
 2909              		.global	IfaceProcess
 2910              		.thumb
 2911              		.thumb_func
 2912              		.type	IfaceProcess, %function
 2913              	IfaceProcess:
 2914              	.LFB25:
1327:src/iface.c   **** 
1328:src/iface.c   **** //=============================================================================
1329:src/iface.c   **** //  Function        : IfaceProcess
1330:src/iface.c   **** //  Description     : interface process
1331:src/iface.c   **** //  Input           :
1332:src/iface.c   **** //  Return          : >=0 - length of response sent
1333:src/iface.c   **** //                    <0  - error status
1334:src/iface.c   **** //  Note            : N/A
1335:src/iface.c   **** //  Globals Changed : N/A
1336:src/iface.c   **** //=============================================================================
1337:src/iface.c   **** int IfaceProcess(void)
1338:src/iface.c   **** {
 2915              		.loc 1 1338 0
 2916              		.cfi_startproc
 2917              		@ args = 0, pretend = 0, frame = 0
 2918              		@ frame_needed = 0, uses_anonymous_args = 0
 2919 0000 37B5     		push	{r0, r1, r2, r4, r5, lr}
 2920              		.cfi_def_cfa_offset 24
 2921              		.cfi_offset 4, -12
 2922              		.cfi_offset 5, -8
 2923              		.cfi_offset 14, -4
1339:src/iface.c   ****   int iLen;
1340:src/iface.c   **** 
1341:src/iface.c   ****   iLen = IfaceRx(gIfBuf, MAX_IFACE_BUF);
 2924              		.loc 1 1341 0
 2925 0002 1548     		ldr	r0, .L349
 2926 0004 4FF4C061 		mov	r1, #1536
 2927 0008 FFF7FEFF 		bl	IfaceRx
 2928              	.LVL336:
 2929 000c 0022     		movs	r2, #0
1342:src/iface.c   **** 
1343:src/iface.c   ****   if (iLen <= 0) {
 2930              		.loc 1 1343 0
 2931 000e 041E     		subs	r4, r0, #0
 2932 0010 1FDD     		ble	.L348
1344:src/iface.c   ****     return 0;
1345:src/iface.c   ****   }
1346:src/iface.c   **** 
1347:src/iface.c   ****   ECR_Clear();
 2933              		.loc 1 1347 0
 2934 0012 0092     		str	r2, [sp]
 2935 0014 0421     		movs	r1, #4
 2936 0016 1346     		mov	r3, r2
ARM GAS  C:\Users\AHMEDH~1\AppData\Local\Temp\cclxJjJK.s 			page 84


 2937 0018 7D20     		movs	r0, #125
 2938              	.LVL337:
 2939 001a FFF7FEFF 		bl	lib_app_call
 2940              	.LVL338:
 2941 001e 0F4D     		ldr	r5, .L349+4
1348:src/iface.c   ****   ClearResponse();
 2942              		.loc 1 1348 0
 2943 0020 FFF7FEFF 		bl	ClearResponse
 2944              	.LVL339:
1349:src/iface.c   ****   
1350:src/iface.c   ****   // pack response
1351:src/iface.c   ****   iLen = Spt3MsgHdr(gIfBuf, iLen);
 2945              		.loc 1 1351 0
 2946 0024 A1B2     		uxth	r1, r4
 2947 0026 0C48     		ldr	r0, .L349
 2948 0028 FFF7FEFF 		bl	Spt3MsgHdr
 2949              	.LVL340:
1352:src/iface.c   ****   if (iLen < 0) {
 2950              		.loc 1 1352 0
 2951 002c 041E     		subs	r4, r0, #0
 2952 002e 0BDB     		blt	.L347
1353:src/iface.c   ****     gIdleCnt = FreeRunMark();             //25-07-17 JC ++
1354:src/iface.c   ****     return iLen;
1355:src/iface.c   ****   }
1356:src/iface.c   **** 
1357:src/iface.c   ****   // send response
1358:src/iface.c   ****   if (IfaceTx(gIfBuf, iLen) <= 0) {
 2953              		.loc 1 1358 0
 2954 0030 0948     		ldr	r0, .L349
 2955              	.LVL341:
 2956 0032 A1B2     		uxth	r1, r4
 2957 0034 FFF7FEFF 		bl	IfaceTx
 2958              	.LVL342:
 2959 0038 0028     		cmp	r0, #0
 2960 003a 05DC     		bgt	.L347
1359:src/iface.c   ****     gIdleCnt = FreeRunMark();             //25-07-17 JC ++
 2961              		.loc 1 1359 0
 2962 003c FFF7FEFF 		bl	FreeRunMark
 2963              	.LVL343:
 2964 0040 2860     		str	r0, [r5]
1360:src/iface.c   ****     return -1;
 2965              		.loc 1 1360 0
 2966 0042 4FF0FF30 		mov	r0, #-1
 2967 0046 05E0     		b	.L345
 2968              	.L347:
1361:src/iface.c   ****   }
1362:src/iface.c   ****   gIdleCnt = FreeRunMark();               //25-07-17 JC ++
 2969              		.loc 1 1362 0
 2970 0048 FFF7FEFF 		bl	FreeRunMark
 2971              	.LVL344:
 2972 004c 2860     		str	r0, [r5]
1363:src/iface.c   ****   return iLen;
 2973              		.loc 1 1363 0
 2974 004e 2046     		mov	r0, r4
 2975 0050 00E0     		b	.L345
 2976              	.LVL345:
 2977              	.L348:
ARM GAS  C:\Users\AHMEDH~1\AppData\Local\Temp\cclxJjJK.s 			page 85


1344:src/iface.c   ****   }
 2978              		.loc 1 1344 0
 2979 0052 1046     		mov	r0, r2
 2980              	.LVL346:
 2981              	.L345:
1364:src/iface.c   **** }
 2982              		.loc 1 1364 0
 2983 0054 03B0     		add	sp, sp, #12
 2984              		.cfi_def_cfa_offset 12
 2985              		@ sp needed
 2986 0056 30BD     		pop	{r4, r5, pc}
 2987              	.LVL347:
 2988              	.L350:
 2989              		.align	2
 2990              	.L349:
 2991 0058 980C0000 		.word	.LANCHOR1+3224
 2992 005c 00000000 		.word	gIdleCnt
 2993              		.cfi_endproc
 2994              	.LFE25:
 2995              		.size	IfaceProcess, .-IfaceProcess
 2996              		.global	gIfaceData
 2997              		.global	KItfRespTbl
 2998              		.global	KItfSettleResp
 2999              		.global	KItfHostTotResp
 3000              		.global	KItfHostNameResp
 3001              		.global	KItfLastTrace
 3002              		.global	KItfOfflSaleResp
 3003              		.global	KItfSaleResp
 3004              		.section	.rodata
 3005              		.align	1
 3006              		.set	.LANCHOR0,. + 0
 3007              		.type	KIfaceFile, %object
 3008              		.size	KIfaceFile, 10
 3009              	KIfaceFile:
 3010 0000 49666163 		.ascii	"IfaceFile\000"
 3010      6546696C 
 3010      6500
 3011              	.LC1:
 3012 000a 53706563 		.ascii	"Spectra\000\000"
 3012      74726100 
 3012      00
 3013              	.LC3:
 3014 0013 000100   		.ascii	"\000\001\000"
 3015              		.type	KItfSettleResp, %object
 3016              		.size	KItfSettleResp, 8
 3017              	KItfSettleResp:
 3018 0016 8A00     		.short	138
 3019 0018 85DF     		.short	-8315
 3020 001a 00FF     		.short	-256
 3021 001c 0000     		.short	0
 3022              		.type	KItfHostTotResp, %object
 3023              		.size	KItfHostTotResp, 8
 3024              	KItfHostTotResp:
 3025 001e 8A00     		.short	138
 3026 0020 85DF     		.short	-8315
 3027 0022 00FF     		.short	-256
 3028 0024 0000     		.short	0
ARM GAS  C:\Users\AHMEDH~1\AppData\Local\Temp\cclxJjJK.s 			page 86


 3029              		.type	KItfHostNameResp, %object
 3030              		.size	KItfHostNameResp, 8
 3031              	KItfHostNameResp:
 3032 0026 8A00     		.short	138
 3033 0028 84DF     		.short	-8316
 3034 002a 00FF     		.short	-256
 3035 002c 0000     		.short	0
 3036              		.type	KItfLastTrace, %object
 3037              		.size	KItfLastTrace, 10
 3038              	KItfLastTrace:
 3039 002e 419F     		.short	-24767
 3040 0030 81DF     		.short	-8319
 3041 0032 8A00     		.short	138
 3042 0034 00FF     		.short	-256
 3043 0036 0000     		.short	0
 3044              		.type	KItfOfflSaleResp, %object
 3045              		.size	KItfOfflSaleResp, 36
 3046              	KItfOfflSaleResp:
 3047 0038 5A00     		.short	90
 3048 003a 029F     		.short	-24830
 3049 003c 419F     		.short	-24767
 3050 003e 219F     		.short	-24799
 3051 0040 9A00     		.short	154
 3052 0042 245F     		.short	24356
 3053 0044 8900     		.short	137
 3054 0046 8A00     		.short	138
 3055 0048 1C9F     		.short	-24804
 3056 004a 169F     		.short	-24810
 3057 004c 205F     		.short	24352
 3058 004e 039F     		.short	-24829
 3059 0050 399F     		.short	-24775
 3060 0052 3CDF     		.short	-8388
 3061 0054 81DF     		.short	-8319
 3062 0056 00FF     		.short	-256
 3063 0058 069F     		.short	-24826
 3064 005a 0000     		.short	0
 3065              		.type	KItfSaleResp, %object
 3066              		.size	KItfSaleResp, 38
 3067              	KItfSaleResp:
 3068 005c 5A00     		.short	90
 3069 005e 029F     		.short	-24830
 3070 0060 419F     		.short	-24767
 3071 0062 219F     		.short	-24799
 3072 0064 9A00     		.short	154
 3073 0066 245F     		.short	24356
 3074 0068 25DF     		.short	-8411
 3075 006a 8900     		.short	137
 3076 006c 8A00     		.short	138
 3077 006e 1C9F     		.short	-24804
 3078 0070 169F     		.short	-24810
 3079 0072 205F     		.short	24352
 3080 0074 039F     		.short	-24829
 3081 0076 399F     		.short	-24775
 3082 0078 3CDF     		.short	-8388
 3083 007a 81DF     		.short	-8319
 3084 007c 00FF     		.short	-256
 3085 007e 069F     		.short	-24826
ARM GAS  C:\Users\AHMEDH~1\AppData\Local\Temp\cclxJjJK.s 			page 87


 3086 0080 0000     		.short	0
 3087              		.section	.rodata.str1.1,"aMS",%progbits,1
 3088              	.LC0:
 3089 0000 46696C65 		.ascii	"File WR Err!\000"
 3089      20575220 
 3089      45727221 
 3089      00
 3090              	.LC2:
 3091 000d 46696C65 		.ascii	"File RD Err!\000"
 3091      20524420 
 3091      45727221 
 3091      00
 3092              	.LC4:
 3093 001a DF040600 		.ascii	"\337\004\006\000"
 3094              	.LC5:
 3095 001e 49666163 		.ascii	"Iface-In (%d):\000"
 3095      652D496E 
 3095      20282564 
 3095      293A00
 3096              	.LC6:
 3097 002d 49666163 		.ascii	"Iface-Out(%d):\000"
 3097      652D4F75 
 3097      74282564 
 3097      293A00
 3098              	.LC7:
 3099 003c 0D0A00   		.ascii	"\015\012\000"
 3100              	.LC8:
 3101 003f 4175784F 		.ascii	"AuxOpen Err!\000"
 3101      70656E20 
 3101      45727221 
 3101      00
 3102              		.data
 3103              		.align	2
 3104              		.set	.LANCHOR2,. + 0
 3105              		.type	KItfRespTbl, %object
 3106              		.size	KItfRespTbl, 40
 3107              	KItfRespTbl:
 3108 0000 00000000 		.word	KItfSaleResp
 3109 0004 00000000 		.word	KItfOfflSaleResp
 3110 0008 00000000 		.word	KItfSaleResp
 3111 000c 00000000 		.word	KItfSaleResp
 3112 0010 00000000 		.word	KItfSaleResp
 3113 0014 00000000 		.word	KItfLastTrace
 3114 0018 00000000 		.word	KItfHostNameResp
 3115 001c 00000000 		.word	KItfHostTotResp
 3116 0020 00000000 		.word	KItfSaleResp
 3117 0024 00000000 		.word	KItfSettleResp
 3118              		.bss
 3119              		.align	3
 3120              		.set	.LANCHOR1,. + 0
 3121              		.type	gIfaceData, %object
 3122              		.size	gIfaceData, 4
 3123              	gIfaceData:
 3124 0000 00000000 		.space	4
 3125              		.type	gsSKey, %object
 3126              		.size	gsSKey, 20
 3127              	gsSKey:
ARM GAS  C:\Users\AHMEDH~1\AppData\Local\Temp\cclxJjJK.s 			page 88


 3128 0004 00000000 		.space	20
 3128      00000000 
 3128      00000000 
 3128      00000000 
 3128      00000000 
 3129              		.type	gReqBuf, %object
 3130              		.size	gReqBuf, 1536
 3131              	gReqBuf:
 3132 0018 00000000 		.space	1536
 3132      00000000 
 3132      00000000 
 3132      00000000 
 3132      00000000 
 3133              		.type	gwSeqNum, %object
 3134              		.size	gwSeqNum, 2
 3135              	gwSeqNum:
 3136 0618 0000     		.space	2
 3137              		.type	gbMode, %object
 3138              		.size	gbMode, 1
 3139              	gbMode:
 3140 061a 00       		.space	1
 3141 061b 00000000 		.space	5
 3141      00
 3142              		.type	gTermTotal, %object
 3143              		.size	gTermTotal, 104
 3144              	gTermTotal:
 3145 0620 00000000 		.space	104
 3145      00000000 
 3145      00000000 
 3145      00000000 
 3145      00000000 
 3146              		.type	gRspBuf, %object
 3147              		.size	gRspBuf, 1536
 3148              	gRspBuf:
 3149 0688 00000000 		.space	1536
 3149      00000000 
 3149      00000000 
 3149      00000000 
 3149      00000000 
 3150              		.type	gabRRand, %object
 3151              		.size	gabRRand, 8
 3152              	gabRRand:
 3153 0c88 00000000 		.space	8
 3153      00000000 
 3154              		.type	gabTRand, %object
 3155              		.size	gabTRand, 8
 3156              	gabTRand:
 3157 0c90 00000000 		.space	8
 3157      00000000 
 3158              		.type	gIfBuf, %object
 3159              		.size	gIfBuf, 1536
 3160              	gIfBuf:
 3161 0c98 00000000 		.space	1536
 3161      00000000 
 3161      00000000 
 3161      00000000 
 3161      00000000 
ARM GAS  C:\Users\AHMEDH~1\AppData\Local\Temp\cclxJjJK.s 			page 89


 3162              		.text
 3163              	.Letext0:
 3164              		.file 2 "c:\\devtools\\gcc_v49_2014q4\\lib\\gcc\\arm-none-eabi\\4.9.3\\include\\stddef.h"
 3165              		.file 3 "../LibA5T1000/common.h"
 3166              		.file 4 "../LibA5T1000/midware.h"
 3167              		.file 5 "../LibA5T1000/system.h"
 3168              		.file 6 "src/sysutil.h"
 3169              		.file 7 "../LibA5T1000/emv2dll.h"
 3170              		.file 8 "../LibA5T1000/apm.h"
 3171              		.file 9 "../LibA5T1000/emvcl2dll.h"
 3172              		.file 10 "../LibA5T1000/ecrdll.h"
 3173              		.file 11 "src/corevar.h"
 3174              		.file 12 "src/tranutil.h"
 3175              		.file 13 "src/constant.h"
 3176              		.file 14 "src/iface.h"
 3177              		.file 15 "src/hardware.h"
 3178              		.file 16 "c:\\devtools\\gcc_v49_2014q4\\arm-none-eabi\\include\\string.h"
 3179              		.file 17 "src/iface_util.h"
 3180              		.file 18 "src/tlvutil.h"
 3181              		.file 19 "../LibA5T1000/util.h"
 3182              		.file 20 "src/void.h"
 3183              		.file 21 "src/settle.h"
 3184              		.file 22 "src/input.h"
 3185              		.file 23 "c:\\devtools\\gcc_v49_2014q4\\arm-none-eabi\\include\\stdio.h"
 3186              		.file 24 "src/auxcom.h"
 3187              		.section	.debug_info,"",%progbits
 3188              	.Ldebug_info0:
 3189 0000 794E0000 		.4byte	0x4e79
 3190 0004 0400     		.2byte	0x4
 3191 0006 00000000 		.4byte	.Ldebug_abbrev0
 3192 000a 04       		.byte	0x4
 3193 000b 01       		.uleb128 0x1
 3194 000c 2A2D0000 		.4byte	.LASF1041
 3195 0010 01       		.byte	0x1
 3196 0011 7A280000 		.4byte	.LASF1042
 3197 0015 6D360000 		.4byte	.LASF1043
 3198 0019 40000000 		.4byte	.Ldebug_ranges0+0x40
 3199 001d 00000000 		.4byte	0
 3200 0021 00000000 		.4byte	.Ldebug_line0
 3201 0025 02       		.uleb128 0x2
 3202 0026 3E090000 		.4byte	.LASF11
 3203 002a 02       		.byte	0x2
 3204 002b D4       		.byte	0xd4
 3205 002c 30000000 		.4byte	0x30
 3206 0030 03       		.uleb128 0x3
 3207 0031 04       		.byte	0x4
 3208 0032 07       		.byte	0x7
 3209 0033 6B3C0000 		.4byte	.LASF0
 3210 0037 04       		.uleb128 0x4
 3211 0038 04       		.byte	0x4
 3212 0039 05       		.byte	0x5
 3213 003a 696E7400 		.ascii	"int\000"
 3214 003e 03       		.uleb128 0x3
 3215 003f 01       		.byte	0x1
 3216 0040 06       		.byte	0x6
 3217 0041 06310000 		.4byte	.LASF1
 3218 0045 03       		.uleb128 0x3
ARM GAS  C:\Users\AHMEDH~1\AppData\Local\Temp\cclxJjJK.s 			page 90


 3219 0046 01       		.byte	0x1
 3220 0047 08       		.byte	0x8
 3221 0048 C91D0000 		.4byte	.LASF2
 3222 004c 03       		.uleb128 0x3
 3223 004d 02       		.byte	0x2
 3224 004e 05       		.byte	0x5
 3225 004f E6270000 		.4byte	.LASF3
 3226 0053 03       		.uleb128 0x3
 3227 0054 02       		.byte	0x2
 3228 0055 07       		.byte	0x7
 3229 0056 701A0000 		.4byte	.LASF4
 3230 005a 03       		.uleb128 0x3
 3231 005b 04       		.byte	0x4
 3232 005c 05       		.byte	0x5
 3233 005d 5F2A0000 		.4byte	.LASF5
 3234 0061 03       		.uleb128 0x3
 3235 0062 04       		.byte	0x4
 3236 0063 07       		.byte	0x7
 3237 0064 03010000 		.4byte	.LASF6
 3238 0068 03       		.uleb128 0x3
 3239 0069 08       		.byte	0x8
 3240 006a 05       		.byte	0x5
 3241 006b 24000000 		.4byte	.LASF7
 3242 006f 03       		.uleb128 0x3
 3243 0070 08       		.byte	0x8
 3244 0071 07       		.byte	0x7
 3245 0072 28330000 		.4byte	.LASF8
 3246 0076 03       		.uleb128 0x3
 3247 0077 04       		.byte	0x4
 3248 0078 07       		.byte	0x7
 3249 0079 232C0000 		.4byte	.LASF9
 3250 007d 05       		.uleb128 0x5
 3251 007e 04       		.byte	0x4
 3252 007f 06       		.uleb128 0x6
 3253 0080 04       		.byte	0x4
 3254 0081 85000000 		.4byte	0x85
 3255 0085 03       		.uleb128 0x3
 3256 0086 01       		.byte	0x1
 3257 0087 06       		.byte	0x6
 3258 0088 01360000 		.4byte	.LASF10
 3259 008c 06       		.uleb128 0x6
 3260 008d 04       		.byte	0x4
 3261 008e 92000000 		.4byte	0x92
 3262 0092 07       		.uleb128 0x7
 3263 0093 85000000 		.4byte	0x85
 3264 0097 06       		.uleb128 0x6
 3265 0098 04       		.byte	0x4
 3266 0099 9D000000 		.4byte	0x9d
 3267 009d 08       		.uleb128 0x8
 3268 009e 02       		.uleb128 0x2
 3269 009f 5A040000 		.4byte	.LASF12
 3270 00a3 03       		.byte	0x3
 3271 00a4 0D       		.byte	0xd
 3272 00a5 45000000 		.4byte	0x45
 3273 00a9 02       		.uleb128 0x2
 3274 00aa D0320000 		.4byte	.LASF13
 3275 00ae 03       		.byte	0x3
ARM GAS  C:\Users\AHMEDH~1\AppData\Local\Temp\cclxJjJK.s 			page 91


 3276 00af 0E       		.byte	0xe
 3277 00b0 45000000 		.4byte	0x45
 3278 00b4 02       		.uleb128 0x2
 3279 00b5 50190000 		.4byte	.LASF14
 3280 00b9 03       		.byte	0x3
 3281 00ba 0F       		.byte	0xf
 3282 00bb 53000000 		.4byte	0x53
 3283 00bf 02       		.uleb128 0x2
 3284 00c0 021E0000 		.4byte	.LASF15
 3285 00c4 03       		.byte	0x3
 3286 00c5 10       		.byte	0x10
 3287 00c6 30000000 		.4byte	0x30
 3288 00ca 02       		.uleb128 0x2
 3289 00cb D51A0000 		.4byte	.LASF16
 3290 00cf 03       		.byte	0x3
 3291 00d0 11       		.byte	0x11
 3292 00d1 6F000000 		.4byte	0x6f
 3293 00d5 06       		.uleb128 0x6
 3294 00d6 04       		.byte	0x4
 3295 00d7 DB000000 		.4byte	0xdb
 3296 00db 07       		.uleb128 0x7
 3297 00dc A9000000 		.4byte	0xa9
 3298 00e0 09       		.uleb128 0x9
 3299 00e1 A9000000 		.4byte	0xa9
 3300 00e5 F0000000 		.4byte	0xf0
 3301 00e9 0A       		.uleb128 0xa
 3302 00ea 76000000 		.4byte	0x76
 3303 00ee 01       		.byte	0x1
 3304 00ef 00       		.byte	0
 3305 00f0 06       		.uleb128 0x6
 3306 00f1 04       		.byte	0x4
 3307 00f2 A9000000 		.4byte	0xa9
 3308 00f6 09       		.uleb128 0x9
 3309 00f7 A9000000 		.4byte	0xa9
 3310 00fb 06010000 		.4byte	0x106
 3311 00ff 0A       		.uleb128 0xa
 3312 0100 76000000 		.4byte	0x76
 3313 0104 03       		.byte	0x3
 3314 0105 00       		.byte	0
 3315 0106 09       		.uleb128 0x9
 3316 0107 A9000000 		.4byte	0xa9
 3317 010b 16010000 		.4byte	0x116
 3318 010f 0A       		.uleb128 0xa
 3319 0110 76000000 		.4byte	0x76
 3320 0114 3F       		.byte	0x3f
 3321 0115 00       		.byte	0
 3322 0116 09       		.uleb128 0x9
 3323 0117 A9000000 		.4byte	0xa9
 3324 011b 26010000 		.4byte	0x126
 3325 011f 0A       		.uleb128 0xa
 3326 0120 76000000 		.4byte	0x76
 3327 0124 09       		.byte	0x9
 3328 0125 00       		.byte	0
 3329 0126 09       		.uleb128 0x9
 3330 0127 A9000000 		.4byte	0xa9
 3331 012b 36010000 		.4byte	0x136
 3332 012f 0A       		.uleb128 0xa
ARM GAS  C:\Users\AHMEDH~1\AppData\Local\Temp\cclxJjJK.s 			page 92


 3333 0130 76000000 		.4byte	0x76
 3334 0134 1F       		.byte	0x1f
 3335 0135 00       		.byte	0
 3336 0136 09       		.uleb128 0x9
 3337 0137 A9000000 		.4byte	0xa9
 3338 013b 46010000 		.4byte	0x146
 3339 013f 0A       		.uleb128 0xa
 3340 0140 76000000 		.4byte	0x76
 3341 0144 0F       		.byte	0xf
 3342 0145 00       		.byte	0
 3343 0146 09       		.uleb128 0x9
 3344 0147 A9000000 		.4byte	0xa9
 3345 014b 56010000 		.4byte	0x156
 3346 014f 0A       		.uleb128 0xa
 3347 0150 76000000 		.4byte	0x76
 3348 0154 07       		.byte	0x7
 3349 0155 00       		.byte	0
 3350 0156 09       		.uleb128 0x9
 3351 0157 A9000000 		.4byte	0xa9
 3352 015b 66010000 		.4byte	0x166
 3353 015f 0A       		.uleb128 0xa
 3354 0160 76000000 		.4byte	0x76
 3355 0164 13       		.byte	0x13
 3356 0165 00       		.byte	0
 3357 0166 0B       		.uleb128 0xb
 3358 0167 BB0C0000 		.4byte	.LASF1044
 3359 016b 02       		.byte	0x2
 3360 016c 05       		.byte	0x5
 3361 016d 9A04     		.2byte	0x49a
 3362 016f 230E0000 		.4byte	0xe23
 3363 0173 0C       		.uleb128 0xc
 3364 0174 C1370000 		.4byte	.LASF17
 3365 0178 00       		.sleb128 0
 3366 0179 0C       		.uleb128 0xc
 3367 017a 0D090000 		.4byte	.LASF18
 3368 017e 01       		.sleb128 1
 3369 017f 0C       		.uleb128 0xc
 3370 0180 6C040000 		.4byte	.LASF19
 3371 0184 02       		.sleb128 2
 3372 0185 0C       		.uleb128 0xc
 3373 0186 A00C0000 		.4byte	.LASF20
 3374 018a 03       		.sleb128 3
 3375 018b 0C       		.uleb128 0xc
 3376 018c D31B0000 		.4byte	.LASF21
 3377 0190 04       		.sleb128 4
 3378 0191 0C       		.uleb128 0xc
 3379 0192 E51E0000 		.4byte	.LASF22
 3380 0196 05       		.sleb128 5
 3381 0197 0C       		.uleb128 0xc
 3382 0198 0A140000 		.4byte	.LASF23
 3383 019c 06       		.sleb128 6
 3384 019d 0C       		.uleb128 0xc
 3385 019e BB0A0000 		.4byte	.LASF24
 3386 01a2 07       		.sleb128 7
 3387 01a3 0C       		.uleb128 0xc
 3388 01a4 841D0000 		.4byte	.LASF25
 3389 01a8 08       		.sleb128 8
ARM GAS  C:\Users\AHMEDH~1\AppData\Local\Temp\cclxJjJK.s 			page 93


 3390 01a9 0C       		.uleb128 0xc
 3391 01aa F9150000 		.4byte	.LASF26
 3392 01ae 09       		.sleb128 9
 3393 01af 0C       		.uleb128 0xc
 3394 01b0 F0360000 		.4byte	.LASF27
 3395 01b4 0A       		.sleb128 10
 3396 01b5 0C       		.uleb128 0xc
 3397 01b6 E81D0000 		.4byte	.LASF28
 3398 01ba 0B       		.sleb128 11
 3399 01bb 0C       		.uleb128 0xc
 3400 01bc 860C0000 		.4byte	.LASF29
 3401 01c0 0C       		.sleb128 12
 3402 01c1 0C       		.uleb128 0xc
 3403 01c2 3E260000 		.4byte	.LASF30
 3404 01c6 0D       		.sleb128 13
 3405 01c7 0C       		.uleb128 0xc
 3406 01c8 563B0000 		.4byte	.LASF31
 3407 01cc 0E       		.sleb128 14
 3408 01cd 0C       		.uleb128 0xc
 3409 01ce FD080000 		.4byte	.LASF32
 3410 01d2 0F       		.sleb128 15
 3411 01d3 0C       		.uleb128 0xc
 3412 01d4 AD240000 		.4byte	.LASF33
 3413 01d8 10       		.sleb128 16
 3414 01d9 0C       		.uleb128 0xc
 3415 01da 6B290000 		.4byte	.LASF34
 3416 01de 11       		.sleb128 17
 3417 01df 0C       		.uleb128 0xc
 3418 01e0 D9010000 		.4byte	.LASF35
 3419 01e4 12       		.sleb128 18
 3420 01e5 0C       		.uleb128 0xc
 3421 01e6 2C240000 		.4byte	.LASF36
 3422 01ea 13       		.sleb128 19
 3423 01eb 0C       		.uleb128 0xc
 3424 01ec 081C0000 		.4byte	.LASF37
 3425 01f0 14       		.sleb128 20
 3426 01f1 0C       		.uleb128 0xc
 3427 01f2 A4090000 		.4byte	.LASF38
 3428 01f6 15       		.sleb128 21
 3429 01f7 0C       		.uleb128 0xc
 3430 01f8 BB020000 		.4byte	.LASF39
 3431 01fc 16       		.sleb128 22
 3432 01fd 0C       		.uleb128 0xc
 3433 01fe 26030000 		.4byte	.LASF40
 3434 0202 17       		.sleb128 23
 3435 0203 0C       		.uleb128 0xc
 3436 0204 FA020000 		.4byte	.LASF41
 3437 0208 18       		.sleb128 24
 3438 0209 0C       		.uleb128 0xc
 3439 020a 01320000 		.4byte	.LASF42
 3440 020e 19       		.sleb128 25
 3441 020f 0C       		.uleb128 0xc
 3442 0210 D4020000 		.4byte	.LASF43
 3443 0214 1A       		.sleb128 26
 3444 0215 0C       		.uleb128 0xc
 3445 0216 16030000 		.4byte	.LASF44
 3446 021a 1B       		.sleb128 27
ARM GAS  C:\Users\AHMEDH~1\AppData\Local\Temp\cclxJjJK.s 			page 94


 3447 021b 0C       		.uleb128 0xc
 3448 021c 11320000 		.4byte	.LASF45
 3449 0220 1C       		.sleb128 28
 3450 0221 0C       		.uleb128 0xc
 3451 0222 97160000 		.4byte	.LASF46
 3452 0226 1D       		.sleb128 29
 3453 0227 0C       		.uleb128 0xc
 3454 0228 BF2B0000 		.4byte	.LASF47
 3455 022c 1E       		.sleb128 30
 3456 022d 0C       		.uleb128 0xc
 3457 022e C3280000 		.4byte	.LASF48
 3458 0232 1F       		.sleb128 31
 3459 0233 0C       		.uleb128 0xc
 3460 0234 5F1A0000 		.4byte	.LASF49
 3461 0238 20       		.sleb128 32
 3462 0239 0C       		.uleb128 0xc
 3463 023a 1B220000 		.4byte	.LASF50
 3464 023e 21       		.sleb128 33
 3465 023f 0C       		.uleb128 0xc
 3466 0240 B10B0000 		.4byte	.LASF51
 3467 0244 22       		.sleb128 34
 3468 0245 0C       		.uleb128 0xc
 3469 0246 C8250000 		.4byte	.LASF52
 3470 024a 23       		.sleb128 35
 3471 024b 0C       		.uleb128 0xc
 3472 024c 762B0000 		.4byte	.LASF53
 3473 0250 24       		.sleb128 36
 3474 0251 0C       		.uleb128 0xc
 3475 0252 50280000 		.4byte	.LASF54
 3476 0256 25       		.sleb128 37
 3477 0257 0C       		.uleb128 0xc
 3478 0258 AC0F0000 		.4byte	.LASF55
 3479 025c 26       		.sleb128 38
 3480 025d 0C       		.uleb128 0xc
 3481 025e CB330000 		.4byte	.LASF56
 3482 0262 27       		.sleb128 39
 3483 0263 0C       		.uleb128 0xc
 3484 0264 BC200000 		.4byte	.LASF57
 3485 0268 28       		.sleb128 40
 3486 0269 0C       		.uleb128 0xc
 3487 026a CE120000 		.4byte	.LASF58
 3488 026e 29       		.sleb128 41
 3489 026f 0C       		.uleb128 0xc
 3490 0270 312F0000 		.4byte	.LASF59
 3491 0274 2A       		.sleb128 42
 3492 0275 0C       		.uleb128 0xc
 3493 0276 37040000 		.4byte	.LASF60
 3494 027a 2B       		.sleb128 43
 3495 027b 0C       		.uleb128 0xc
 3496 027c CD260000 		.4byte	.LASF61
 3497 0280 2C       		.sleb128 44
 3498 0281 0C       		.uleb128 0xc
 3499 0282 181C0000 		.4byte	.LASF62
 3500 0286 2D       		.sleb128 45
 3501 0287 0C       		.uleb128 0xc
 3502 0288 8C070000 		.4byte	.LASF63
 3503 028c 2E       		.sleb128 46
ARM GAS  C:\Users\AHMEDH~1\AppData\Local\Temp\cclxJjJK.s 			page 95


 3504 028d 0C       		.uleb128 0xc
 3505 028e A61A0000 		.4byte	.LASF64
 3506 0292 2F       		.sleb128 47
 3507 0293 0C       		.uleb128 0xc
 3508 0294 59100000 		.4byte	.LASF65
 3509 0298 30       		.sleb128 48
 3510 0299 0C       		.uleb128 0xc
 3511 029a D8340000 		.4byte	.LASF66
 3512 029e 31       		.sleb128 49
 3513 029f 0C       		.uleb128 0xc
 3514 02a0 260D0000 		.4byte	.LASF67
 3515 02a4 32       		.sleb128 50
 3516 02a5 0C       		.uleb128 0xc
 3517 02a6 86280000 		.4byte	.LASF68
 3518 02aa 33       		.sleb128 51
 3519 02ab 0C       		.uleb128 0xc
 3520 02ac 653B0000 		.4byte	.LASF69
 3521 02b0 34       		.sleb128 52
 3522 02b1 0C       		.uleb128 0xc
 3523 02b2 6D390000 		.4byte	.LASF70
 3524 02b6 35       		.sleb128 53
 3525 02b7 0C       		.uleb128 0xc
 3526 02b8 2D300000 		.4byte	.LASF71
 3527 02bc 36       		.sleb128 54
 3528 02bd 0C       		.uleb128 0xc
 3529 02be 96170000 		.4byte	.LASF72
 3530 02c2 37       		.sleb128 55
 3531 02c3 0C       		.uleb128 0xc
 3532 02c4 52160000 		.4byte	.LASF73
 3533 02c8 38       		.sleb128 56
 3534 02c9 0C       		.uleb128 0xc
 3535 02ca D20B0000 		.4byte	.LASF74
 3536 02ce 39       		.sleb128 57
 3537 02cf 0C       		.uleb128 0xc
 3538 02d0 9A0A0000 		.4byte	.LASF75
 3539 02d4 3A       		.sleb128 58
 3540 02d5 0C       		.uleb128 0xc
 3541 02d6 54080000 		.4byte	.LASF76
 3542 02da 3B       		.sleb128 59
 3543 02db 0C       		.uleb128 0xc
 3544 02dc 16230000 		.4byte	.LASF77
 3545 02e0 3C       		.sleb128 60
 3546 02e1 0C       		.uleb128 0xc
 3547 02e2 01370000 		.4byte	.LASF78
 3548 02e6 3D       		.sleb128 61
 3549 02e7 0C       		.uleb128 0xc
 3550 02e8 8C0F0000 		.4byte	.LASF79
 3551 02ec 3E       		.sleb128 62
 3552 02ed 0C       		.uleb128 0xc
 3553 02ee 92050000 		.4byte	.LASF80
 3554 02f2 3F       		.sleb128 63
 3555 02f3 0C       		.uleb128 0xc
 3556 02f4 18280000 		.4byte	.LASF81
 3557 02f8 C000     		.sleb128 64
 3558 02fa 0C       		.uleb128 0xc
 3559 02fb B9100000 		.4byte	.LASF82
 3560 02ff C100     		.sleb128 65
ARM GAS  C:\Users\AHMEDH~1\AppData\Local\Temp\cclxJjJK.s 			page 96


 3561 0301 0C       		.uleb128 0xc
 3562 0302 49060000 		.4byte	.LASF83
 3563 0306 C200     		.sleb128 66
 3564 0308 0C       		.uleb128 0xc
 3565 0309 CC200000 		.4byte	.LASF84
 3566 030d C300     		.sleb128 67
 3567 030f 0C       		.uleb128 0xc
 3568 0310 1D290000 		.4byte	.LASF85
 3569 0314 C400     		.sleb128 68
 3570 0316 0C       		.uleb128 0xc
 3571 0317 B9120000 		.4byte	.LASF86
 3572 031b C500     		.sleb128 69
 3573 031d 0C       		.uleb128 0xc
 3574 031e 3D3B0000 		.4byte	.LASF87
 3575 0322 C600     		.sleb128 70
 3576 0324 0C       		.uleb128 0xc
 3577 0325 91260000 		.4byte	.LASF88
 3578 0329 C700     		.sleb128 71
 3579 032b 0C       		.uleb128 0xc
 3580 032c 35360000 		.4byte	.LASF89
 3581 0330 C800     		.sleb128 72
 3582 0332 0C       		.uleb128 0xc
 3583 0333 F2070000 		.4byte	.LASF90
 3584 0337 C900     		.sleb128 73
 3585 0339 0C       		.uleb128 0xc
 3586 033a 06360000 		.4byte	.LASF91
 3587 033e CA00     		.sleb128 74
 3588 0340 0C       		.uleb128 0xc
 3589 0341 C31B0000 		.4byte	.LASF92
 3590 0345 CB00     		.sleb128 75
 3591 0347 0C       		.uleb128 0xc
 3592 0348 96220000 		.4byte	.LASF93
 3593 034c CC00     		.sleb128 76
 3594 034e 0C       		.uleb128 0xc
 3595 034f 82220000 		.4byte	.LASF94
 3596 0353 CD00     		.sleb128 77
 3597 0355 0C       		.uleb128 0xc
 3598 0356 C5070000 		.4byte	.LASF95
 3599 035a CE00     		.sleb128 78
 3600 035c 0C       		.uleb128 0xc
 3601 035d AB1B0000 		.4byte	.LASF96
 3602 0361 CF00     		.sleb128 79
 3603 0363 0C       		.uleb128 0xc
 3604 0364 A8220000 		.4byte	.LASF97
 3605 0368 D000     		.sleb128 80
 3606 036a 0C       		.uleb128 0xc
 3607 036b 8A1F0000 		.4byte	.LASF98
 3608 036f D100     		.sleb128 81
 3609 0371 0C       		.uleb128 0xc
 3610 0372 7F110000 		.4byte	.LASF99
 3611 0376 D200     		.sleb128 82
 3612 0378 0C       		.uleb128 0xc
 3613 0379 B71A0000 		.4byte	.LASF100
 3614 037d D300     		.sleb128 83
 3615 037f 0C       		.uleb128 0xc
 3616 0380 31220000 		.4byte	.LASF101
 3617 0384 D400     		.sleb128 84
ARM GAS  C:\Users\AHMEDH~1\AppData\Local\Temp\cclxJjJK.s 			page 97


 3618 0386 0C       		.uleb128 0xc
 3619 0387 F60A0000 		.4byte	.LASF102
 3620 038b D500     		.sleb128 85
 3621 038d 0C       		.uleb128 0xc
 3622 038e 5A060000 		.4byte	.LASF103
 3623 0392 D600     		.sleb128 86
 3624 0394 0C       		.uleb128 0xc
 3625 0395 45090000 		.4byte	.LASF104
 3626 0399 D700     		.sleb128 87
 3627 039b 0C       		.uleb128 0xc
 3628 039c 96290000 		.4byte	.LASF105
 3629 03a0 D800     		.sleb128 88
 3630 03a2 0C       		.uleb128 0xc
 3631 03a3 C5350000 		.4byte	.LASF106
 3632 03a7 D900     		.sleb128 89
 3633 03a9 0C       		.uleb128 0xc
 3634 03aa AA0A0000 		.4byte	.LASF107
 3635 03ae DA00     		.sleb128 90
 3636 03b0 0C       		.uleb128 0xc
 3637 03b1 1D2A0000 		.4byte	.LASF108
 3638 03b5 DB00     		.sleb128 91
 3639 03b7 0C       		.uleb128 0xc
 3640 03b8 610A0000 		.4byte	.LASF109
 3641 03bc DC00     		.sleb128 92
 3642 03be 0C       		.uleb128 0xc
 3643 03bf 8C090000 		.4byte	.LASF110
 3644 03c3 DD00     		.sleb128 93
 3645 03c5 0C       		.uleb128 0xc
 3646 03c6 F52B0000 		.4byte	.LASF111
 3647 03ca DE00     		.sleb128 94
 3648 03cc 0C       		.uleb128 0xc
 3649 03cd 48040000 		.4byte	.LASF112
 3650 03d1 DF00     		.sleb128 95
 3651 03d3 0C       		.uleb128 0xc
 3652 03d4 E6140000 		.4byte	.LASF113
 3653 03d8 E000     		.sleb128 96
 3654 03da 0C       		.uleb128 0xc
 3655 03db AD0D0000 		.4byte	.LASF114
 3656 03df E100     		.sleb128 97
 3657 03e1 0C       		.uleb128 0xc
 3658 03e2 210F0000 		.4byte	.LASF115
 3659 03e6 E200     		.sleb128 98
 3660 03e8 0C       		.uleb128 0xc
 3661 03e9 2A3A0000 		.4byte	.LASF116
 3662 03ed E300     		.sleb128 99
 3663 03ef 0C       		.uleb128 0xc
 3664 03f0 A5040000 		.4byte	.LASF117
 3665 03f4 E400     		.sleb128 100
 3666 03f6 0C       		.uleb128 0xc
 3667 03f7 EF350000 		.4byte	.LASF118
 3668 03fb E500     		.sleb128 101
 3669 03fd 0C       		.uleb128 0xc
 3670 03fe 170A0000 		.4byte	.LASF119
 3671 0402 E600     		.sleb128 102
 3672 0404 0C       		.uleb128 0xc
 3673 0405 1A120000 		.4byte	.LASF120
 3674 0409 E700     		.sleb128 103
ARM GAS  C:\Users\AHMEDH~1\AppData\Local\Temp\cclxJjJK.s 			page 98


 3675 040b 0C       		.uleb128 0xc
 3676 040c E31B0000 		.4byte	.LASF121
 3677 0410 E800     		.sleb128 104
 3678 0412 0C       		.uleb128 0xc
 3679 0413 7B290000 		.4byte	.LASF122
 3680 0417 E900     		.sleb128 105
 3681 0419 0C       		.uleb128 0xc
 3682 041a 3C1C0000 		.4byte	.LASF123
 3683 041e EA00     		.sleb128 106
 3684 0420 0C       		.uleb128 0xc
 3685 0421 360E0000 		.4byte	.LASF124
 3686 0425 EB00     		.sleb128 107
 3687 0427 0C       		.uleb128 0xc
 3688 0428 A9370000 		.4byte	.LASF125
 3689 042c EC00     		.sleb128 108
 3690 042e 0C       		.uleb128 0xc
 3691 042f F2130000 		.4byte	.LASF126
 3692 0433 ED00     		.sleb128 109
 3693 0435 0C       		.uleb128 0xc
 3694 0436 870B0000 		.4byte	.LASF127
 3695 043a EE00     		.sleb128 110
 3696 043c 0C       		.uleb128 0xc
 3697 043d D80E0000 		.4byte	.LASF128
 3698 0441 EF00     		.sleb128 111
 3699 0443 0C       		.uleb128 0xc
 3700 0444 88160000 		.4byte	.LASF129
 3701 0448 F000     		.sleb128 112
 3702 044a 0C       		.uleb128 0xc
 3703 044b 78300000 		.4byte	.LASF130
 3704 044f F100     		.sleb128 113
 3705 0451 0C       		.uleb128 0xc
 3706 0452 97000000 		.4byte	.LASF131
 3707 0456 F200     		.sleb128 114
 3708 0458 0C       		.uleb128 0xc
 3709 0459 5C270000 		.4byte	.LASF132
 3710 045d F300     		.sleb128 115
 3711 045f 0C       		.uleb128 0xc
 3712 0460 42000000 		.4byte	.LASF133
 3713 0464 F400     		.sleb128 116
 3714 0466 0C       		.uleb128 0xc
 3715 0467 3B150000 		.4byte	.LASF134
 3716 046b F500     		.sleb128 117
 3717 046d 0C       		.uleb128 0xc
 3718 046e D23B0000 		.4byte	.LASF135
 3719 0472 F600     		.sleb128 118
 3720 0474 0C       		.uleb128 0xc
 3721 0475 45110000 		.4byte	.LASF136
 3722 0479 F700     		.sleb128 119
 3723 047b 0C       		.uleb128 0xc
 3724 047c A1120000 		.4byte	.LASF137
 3725 0480 F800     		.sleb128 120
 3726 0482 0C       		.uleb128 0xc
 3727 0483 0E0F0000 		.4byte	.LASF138
 3728 0487 F900     		.sleb128 121
 3729 0489 0C       		.uleb128 0xc
 3730 048a 85120000 		.4byte	.LASF139
 3731 048e FA00     		.sleb128 122
ARM GAS  C:\Users\AHMEDH~1\AppData\Local\Temp\cclxJjJK.s 			page 99


 3732 0490 0C       		.uleb128 0xc
 3733 0491 DE330000 		.4byte	.LASF140
 3734 0495 FB00     		.sleb128 123
 3735 0497 0C       		.uleb128 0xc
 3736 0498 221B0000 		.4byte	.LASF141
 3737 049c FC00     		.sleb128 124
 3738 049e 0C       		.uleb128 0xc
 3739 049f 67350000 		.4byte	.LASF142
 3740 04a3 FD00     		.sleb128 125
 3741 04a5 0C       		.uleb128 0xc
 3742 04a6 182D0000 		.4byte	.LASF143
 3743 04aa FE00     		.sleb128 126
 3744 04ac 0C       		.uleb128 0xc
 3745 04ad 8C3B0000 		.4byte	.LASF144
 3746 04b1 FF00     		.sleb128 127
 3747 04b3 0C       		.uleb128 0xc
 3748 04b4 082B0000 		.4byte	.LASF145
 3749 04b8 8001     		.sleb128 128
 3750 04ba 0C       		.uleb128 0xc
 3751 04bb 820A0000 		.4byte	.LASF146
 3752 04bf 8101     		.sleb128 129
 3753 04c1 0C       		.uleb128 0xc
 3754 04c2 C5190000 		.4byte	.LASF147
 3755 04c6 8201     		.sleb128 130
 3756 04c8 0C       		.uleb128 0xc
 3757 04c9 FF2F0000 		.4byte	.LASF148
 3758 04cd 8301     		.sleb128 131
 3759 04cf 0C       		.uleb128 0xc
 3760 04d0 1A140000 		.4byte	.LASF149
 3761 04d4 8401     		.sleb128 132
 3762 04d6 0C       		.uleb128 0xc
 3763 04d7 170D0000 		.4byte	.LASF150
 3764 04db 8501     		.sleb128 133
 3765 04dd 0C       		.uleb128 0xc
 3766 04de FF290000 		.4byte	.LASF151
 3767 04e2 8601     		.sleb128 134
 3768 04e4 0C       		.uleb128 0xc
 3769 04e5 55090000 		.4byte	.LASF152
 3770 04e9 8701     		.sleb128 135
 3771 04eb 0C       		.uleb128 0xc
 3772 04ec 3F230000 		.4byte	.LASF153
 3773 04f0 8801     		.sleb128 136
 3774 04f2 0C       		.uleb128 0xc
 3775 04f3 9F1E0000 		.4byte	.LASF154
 3776 04f7 8901     		.sleb128 137
 3777 04f9 0C       		.uleb128 0xc
 3778 04fa 78120000 		.4byte	.LASF155
 3779 04fe 8A01     		.sleb128 138
 3780 0500 0C       		.uleb128 0xc
 3781 0501 530B0000 		.4byte	.LASF156
 3782 0505 8B01     		.sleb128 139
 3783 0507 0C       		.uleb128 0xc
 3784 0508 A3380000 		.4byte	.LASF157
 3785 050c 8C01     		.sleb128 140
 3786 050e 0C       		.uleb128 0xc
 3787 050f 3A210000 		.4byte	.LASF158
 3788 0513 8D01     		.sleb128 141
ARM GAS  C:\Users\AHMEDH~1\AppData\Local\Temp\cclxJjJK.s 			page 100


 3789 0515 0C       		.uleb128 0xc
 3790 0516 682A0000 		.4byte	.LASF159
 3791 051a 8E01     		.sleb128 142
 3792 051c 0C       		.uleb128 0xc
 3793 051d 73270000 		.4byte	.LASF160
 3794 0521 8F01     		.sleb128 143
 3795 0523 0C       		.uleb128 0xc
 3796 0524 96310000 		.4byte	.LASF161
 3797 0528 9001     		.sleb128 144
 3798 052a 0C       		.uleb128 0xc
 3799 052b 46240000 		.4byte	.LASF162
 3800 052f 9101     		.sleb128 145
 3801 0531 0C       		.uleb128 0xc
 3802 0532 BA140000 		.4byte	.LASF163
 3803 0536 9201     		.sleb128 146
 3804 0538 0C       		.uleb128 0xc
 3805 0539 230C0000 		.4byte	.LASF164
 3806 053d 9301     		.sleb128 147
 3807 053f 0C       		.uleb128 0xc
 3808 0540 7A2E0000 		.4byte	.LASF165
 3809 0544 9401     		.sleb128 148
 3810 0546 0C       		.uleb128 0xc
 3811 0547 7C3A0000 		.4byte	.LASF166
 3812 054b 9501     		.sleb128 149
 3813 054d 0C       		.uleb128 0xc
 3814 054e 831A0000 		.4byte	.LASF167
 3815 0552 9601     		.sleb128 150
 3816 0554 0C       		.uleb128 0xc
 3817 0555 D9200000 		.4byte	.LASF168
 3818 0559 9701     		.sleb128 151
 3819 055b 0C       		.uleb128 0xc
 3820 055c EB2C0000 		.4byte	.LASF169
 3821 0560 9801     		.sleb128 152
 3822 0562 0C       		.uleb128 0xc
 3823 0563 B1170000 		.4byte	.LASF170
 3824 0567 9901     		.sleb128 153
 3825 0569 0C       		.uleb128 0xc
 3826 056a 9F260000 		.4byte	.LASF171
 3827 056e 9A01     		.sleb128 154
 3828 0570 0C       		.uleb128 0xc
 3829 0571 34050000 		.4byte	.LASF172
 3830 0575 9B01     		.sleb128 155
 3831 0577 0C       		.uleb128 0xc
 3832 0578 890D0000 		.4byte	.LASF173
 3833 057c 9C01     		.sleb128 156
 3834 057e 0C       		.uleb128 0xc
 3835 057f DB110000 		.4byte	.LASF174
 3836 0583 9D01     		.sleb128 157
 3837 0585 0C       		.uleb128 0xc
 3838 0586 46200000 		.4byte	.LASF175
 3839 058a 9E01     		.sleb128 158
 3840 058c 0C       		.uleb128 0xc
 3841 058d C7340000 		.4byte	.LASF176
 3842 0591 9F01     		.sleb128 159
 3843 0593 0C       		.uleb128 0xc
 3844 0594 C9010000 		.4byte	.LASF177
 3845 0598 A001     		.sleb128 160
ARM GAS  C:\Users\AHMEDH~1\AppData\Local\Temp\cclxJjJK.s 			page 101


 3846 059a 0C       		.uleb128 0xc
 3847 059b DD300000 		.4byte	.LASF178
 3848 059f A101     		.sleb128 161
 3849 05a1 0C       		.uleb128 0xc
 3850 05a2 9E070000 		.4byte	.LASF179
 3851 05a6 A201     		.sleb128 162
 3852 05a8 0C       		.uleb128 0xc
 3853 05a9 14100000 		.4byte	.LASF180
 3854 05ad A301     		.sleb128 163
 3855 05af 0C       		.uleb128 0xc
 3856 05b0 5E340000 		.4byte	.LASF181
 3857 05b4 A401     		.sleb128 164
 3858 05b6 0C       		.uleb128 0xc
 3859 05b7 A1270000 		.4byte	.LASF182
 3860 05bb A501     		.sleb128 165
 3861 05bd 0C       		.uleb128 0xc
 3862 05be 351F0000 		.4byte	.LASF183
 3863 05c2 A601     		.sleb128 166
 3864 05c4 0C       		.uleb128 0xc
 3865 05c5 0B0E0000 		.4byte	.LASF184
 3866 05c9 A701     		.sleb128 167
 3867 05cb 0C       		.uleb128 0xc
 3868 05cc E9050000 		.4byte	.LASF185
 3869 05d0 A801     		.sleb128 168
 3870 05d2 0C       		.uleb128 0xc
 3871 05d3 C3090000 		.4byte	.LASF186
 3872 05d7 A901     		.sleb128 169
 3873 05d9 0C       		.uleb128 0xc
 3874 05da 451B0000 		.4byte	.LASF187
 3875 05de AA01     		.sleb128 170
 3876 05e0 0C       		.uleb128 0xc
 3877 05e1 6C0E0000 		.4byte	.LASF188
 3878 05e5 AB01     		.sleb128 171
 3879 05e7 0C       		.uleb128 0xc
 3880 05e8 AA230000 		.4byte	.LASF189
 3881 05ec AC01     		.sleb128 172
 3882 05ee 0C       		.uleb128 0xc
 3883 05ef 63140000 		.4byte	.LASF190
 3884 05f3 AD01     		.sleb128 173
 3885 05f5 0C       		.uleb128 0xc
 3886 05f6 FF0F0000 		.4byte	.LASF191
 3887 05fa AE01     		.sleb128 174
 3888 05fc 0C       		.uleb128 0xc
 3889 05fd 40220000 		.4byte	.LASF192
 3890 0601 AF01     		.sleb128 175
 3891 0603 0C       		.uleb128 0xc
 3892 0604 8B2B0000 		.4byte	.LASF193
 3893 0608 B001     		.sleb128 176
 3894 060a 0C       		.uleb128 0xc
 3895 060b C5210000 		.4byte	.LASF194
 3896 060f B101     		.sleb128 177
 3897 0611 0C       		.uleb128 0xc
 3898 0612 DE000000 		.4byte	.LASF195
 3899 0616 B201     		.sleb128 178
 3900 0618 0C       		.uleb128 0xc
 3901 0619 341B0000 		.4byte	.LASF196
 3902 061d B301     		.sleb128 179
ARM GAS  C:\Users\AHMEDH~1\AppData\Local\Temp\cclxJjJK.s 			page 102


 3903 061f 0C       		.uleb128 0xc
 3904 0620 07280000 		.4byte	.LASF197
 3905 0624 B401     		.sleb128 180
 3906 0626 0C       		.uleb128 0xc
 3907 0627 2C340000 		.4byte	.LASF198
 3908 062b B501     		.sleb128 181
 3909 062d 0C       		.uleb128 0xc
 3910 062e D6130000 		.4byte	.LASF199
 3911 0632 B601     		.sleb128 182
 3912 0634 0C       		.uleb128 0xc
 3913 0635 FD0E0000 		.4byte	.LASF200
 3914 0639 B701     		.sleb128 183
 3915 063b 0C       		.uleb128 0xc
 3916 063c A03C0000 		.4byte	.LASF201
 3917 0640 B801     		.sleb128 184
 3918 0642 0C       		.uleb128 0xc
 3919 0643 B0390000 		.4byte	.LASF202
 3920 0647 B901     		.sleb128 185
 3921 0649 0C       		.uleb128 0xc
 3922 064a DB100000 		.4byte	.LASF203
 3923 064e BA01     		.sleb128 186
 3924 0650 0C       		.uleb128 0xc
 3925 0651 8C010000 		.4byte	.LASF204
 3926 0655 BB01     		.sleb128 187
 3927 0657 0C       		.uleb128 0xc
 3928 0658 42120000 		.4byte	.LASF205
 3929 065c BC01     		.sleb128 188
 3930 065e 0C       		.uleb128 0xc
 3931 065f DD280000 		.4byte	.LASF206
 3932 0663 BD01     		.sleb128 189
 3933 0665 0C       		.uleb128 0xc
 3934 0666 CD0D0000 		.4byte	.LASF207
 3935 066a BE01     		.sleb128 190
 3936 066c 0C       		.uleb128 0xc
 3937 066d DE1C0000 		.4byte	.LASF208
 3938 0671 BF01     		.sleb128 191
 3939 0673 0C       		.uleb128 0xc
 3940 0674 F8140000 		.4byte	.LASF209
 3941 0678 C001     		.sleb128 192
 3942 067a 0C       		.uleb128 0xc
 3943 067b 1F390000 		.4byte	.LASF210
 3944 067f C101     		.sleb128 193
 3945 0681 0C       		.uleb128 0xc
 3946 0682 16170000 		.4byte	.LASF211
 3947 0686 C201     		.sleb128 194
 3948 0688 0C       		.uleb128 0xc
 3949 0689 E92E0000 		.4byte	.LASF212
 3950 068d C301     		.sleb128 195
 3951 068f 0C       		.uleb128 0xc
 3952 0690 4E1E0000 		.4byte	.LASF213
 3953 0694 C401     		.sleb128 196
 3954 0696 0C       		.uleb128 0xc
 3955 0697 2E170000 		.4byte	.LASF214
 3956 069b C501     		.sleb128 197
 3957 069d 0C       		.uleb128 0xc
 3958 069e 3F0D0000 		.4byte	.LASF215
 3959 06a2 C601     		.sleb128 198
ARM GAS  C:\Users\AHMEDH~1\AppData\Local\Temp\cclxJjJK.s 			page 103


 3960 06a4 0C       		.uleb128 0xc
 3961 06a5 1C2B0000 		.4byte	.LASF216
 3962 06a9 C701     		.sleb128 199
 3963 06ab 0C       		.uleb128 0xc
 3964 06ac F61B0000 		.4byte	.LASF217
 3965 06b0 C801     		.sleb128 200
 3966 06b2 0C       		.uleb128 0xc
 3967 06b3 4F070000 		.4byte	.LASF218
 3968 06b7 C901     		.sleb128 201
 3969 06b9 0C       		.uleb128 0xc
 3970 06ba 9E340000 		.4byte	.LASF219
 3971 06be CA01     		.sleb128 202
 3972 06c0 0C       		.uleb128 0xc
 3973 06c1 9B230000 		.4byte	.LASF220
 3974 06c5 CB01     		.sleb128 203
 3975 06c7 0C       		.uleb128 0xc
 3976 06c8 931D0000 		.4byte	.LASF221
 3977 06cc CC01     		.sleb128 204
 3978 06ce 0C       		.uleb128 0xc
 3979 06cf 55240000 		.4byte	.LASF222
 3980 06d3 CD01     		.sleb128 205
 3981 06d5 0C       		.uleb128 0xc
 3982 06d6 1F350000 		.4byte	.LASF223
 3983 06da CE01     		.sleb128 206
 3984 06dc 0C       		.uleb128 0xc
 3985 06dd 00170000 		.4byte	.LASF224
 3986 06e1 CF01     		.sleb128 207
 3987 06e3 0C       		.uleb128 0xc
 3988 06e4 62070000 		.4byte	.LASF225
 3989 06e8 D001     		.sleb128 208
 3990 06ea 0C       		.uleb128 0xc
 3991 06eb FE0D0000 		.4byte	.LASF226
 3992 06ef D101     		.sleb128 209
 3993 06f1 0C       		.uleb128 0xc
 3994 06f2 43290000 		.4byte	.LASF227
 3995 06f6 D201     		.sleb128 210
 3996 06f8 0C       		.uleb128 0xc
 3997 06f9 882C0000 		.4byte	.LASF228
 3998 06fd D301     		.sleb128 211
 3999 06ff 0C       		.uleb128 0xc
 4000 0700 310C0000 		.4byte	.LASF229
 4001 0704 D401     		.sleb128 212
 4002 0706 0C       		.uleb128 0xc
 4003 0707 7A1E0000 		.4byte	.LASF230
 4004 070b D501     		.sleb128 213
 4005 070d 0C       		.uleb128 0xc
 4006 070e 5A300000 		.4byte	.LASF231
 4007 0712 D601     		.sleb128 214
 4008 0714 0C       		.uleb128 0xc
 4009 0715 1D240000 		.4byte	.LASF232
 4010 0719 D701     		.sleb128 215
 4011 071b 0C       		.uleb128 0xc
 4012 071c 690F0000 		.4byte	.LASF233
 4013 0720 D801     		.sleb128 216
 4014 0722 0C       		.uleb128 0xc
 4015 0723 AB280000 		.4byte	.LASF234
 4016 0727 D901     		.sleb128 217
ARM GAS  C:\Users\AHMEDH~1\AppData\Local\Temp\cclxJjJK.s 			page 104


 4017 0729 0C       		.uleb128 0xc
 4018 072a 472E0000 		.4byte	.LASF235
 4019 072e DA01     		.sleb128 218
 4020 0730 0C       		.uleb128 0xc
 4021 0731 C7140000 		.4byte	.LASF236
 4022 0735 DB01     		.sleb128 219
 4023 0737 0C       		.uleb128 0xc
 4024 0738 49010000 		.4byte	.LASF237
 4025 073c DC01     		.sleb128 220
 4026 073e 0C       		.uleb128 0xc
 4027 073f 602F0000 		.4byte	.LASF238
 4028 0743 DD01     		.sleb128 221
 4029 0745 0C       		.uleb128 0xc
 4030 0746 A83B0000 		.4byte	.LASF239
 4031 074a DE01     		.sleb128 222
 4032 074c 0C       		.uleb128 0xc
 4033 074d 00110000 		.4byte	.LASF240
 4034 0751 DF01     		.sleb128 223
 4035 0753 0C       		.uleb128 0xc
 4036 0754 8C150000 		.4byte	.LASF241
 4037 0758 E001     		.sleb128 224
 4038 075a 0C       		.uleb128 0xc
 4039 075b 10350000 		.4byte	.LASF242
 4040 075f E101     		.sleb128 225
 4041 0761 0C       		.uleb128 0xc
 4042 0762 D7190000 		.4byte	.LASF243
 4043 0766 E201     		.sleb128 226
 4044 0768 0C       		.uleb128 0xc
 4045 0769 58010000 		.4byte	.LASF244
 4046 076d E301     		.sleb128 227
 4047 076f 0C       		.uleb128 0xc
 4048 0770 CC000000 		.4byte	.LASF245
 4049 0774 E401     		.sleb128 228
 4050 0776 0C       		.uleb128 0xc
 4051 0777 EA0E0000 		.4byte	.LASF246
 4052 077b E501     		.sleb128 229
 4053 077d 0C       		.uleb128 0xc
 4054 077e 6B060000 		.4byte	.LASF247
 4055 0782 E601     		.sleb128 230
 4056 0784 0C       		.uleb128 0xc
 4057 0785 23160000 		.4byte	.LASF248
 4058 0789 E701     		.sleb128 231
 4059 078b 0C       		.uleb128 0xc
 4060 078c 1D260000 		.4byte	.LASF249
 4061 0790 E801     		.sleb128 232
 4062 0792 0C       		.uleb128 0xc
 4063 0793 16180000 		.4byte	.LASF250
 4064 0797 E901     		.sleb128 233
 4065 0799 0C       		.uleb128 0xc
 4066 079a 28370000 		.4byte	.LASF251
 4067 079e EA01     		.sleb128 234
 4068 07a0 0C       		.uleb128 0xc
 4069 07a1 B8220000 		.4byte	.LASF252
 4070 07a5 EB01     		.sleb128 235
 4071 07a7 0C       		.uleb128 0xc
 4072 07a8 B12C0000 		.4byte	.LASF253
 4073 07ac EC01     		.sleb128 236
ARM GAS  C:\Users\AHMEDH~1\AppData\Local\Temp\cclxJjJK.s 			page 105


 4074 07ae 0C       		.uleb128 0xc
 4075 07af F3310000 		.4byte	.LASF254
 4076 07b3 ED01     		.sleb128 237
 4077 07b5 0C       		.uleb128 0xc
 4078 07b6 31260000 		.4byte	.LASF255
 4079 07ba EE01     		.sleb128 238
 4080 07bc 0C       		.uleb128 0xc
 4081 07bd E71F0000 		.4byte	.LASF256
 4082 07c1 EF01     		.sleb128 239
 4083 07c3 0C       		.uleb128 0xc
 4084 07c4 1B250000 		.4byte	.LASF257
 4085 07c8 F001     		.sleb128 240
 4086 07ca 0C       		.uleb128 0xc
 4087 07cb F5180000 		.4byte	.LASF258
 4088 07cf F101     		.sleb128 241
 4089 07d1 0C       		.uleb128 0xc
 4090 07d2 4F390000 		.4byte	.LASF259
 4091 07d6 F201     		.sleb128 242
 4092 07d8 0C       		.uleb128 0xc
 4093 07d9 560F0000 		.4byte	.LASF260
 4094 07dd F301     		.sleb128 243
 4095 07df 0C       		.uleb128 0xc
 4096 07e0 F11C0000 		.4byte	.LASF261
 4097 07e4 F401     		.sleb128 244
 4098 07e6 0C       		.uleb128 0xc
 4099 07e7 102C0000 		.4byte	.LASF262
 4100 07eb F501     		.sleb128 245
 4101 07ed 0C       		.uleb128 0xc
 4102 07ee 672E0000 		.4byte	.LASF263
 4103 07f2 F601     		.sleb128 246
 4104 07f4 0C       		.uleb128 0xc
 4105 07f5 48270000 		.4byte	.LASF264
 4106 07f9 F701     		.sleb128 247
 4107 07fb 0C       		.uleb128 0xc
 4108 07fc E30B0000 		.4byte	.LASF265
 4109 0800 F801     		.sleb128 248
 4110 0802 0C       		.uleb128 0xc
 4111 0803 9B140000 		.4byte	.LASF266
 4112 0807 F901     		.sleb128 249
 4113 0809 0C       		.uleb128 0xc
 4114 080a E1310000 		.4byte	.LASF267
 4115 080e FA01     		.sleb128 250
 4116 0810 0C       		.uleb128 0xc
 4117 0811 C2170000 		.4byte	.LASF268
 4118 0815 FB01     		.sleb128 251
 4119 0817 0C       		.uleb128 0xc
 4120 0818 C3030000 		.4byte	.LASF269
 4121 081c FC01     		.sleb128 252
 4122 081e 0C       		.uleb128 0xc
 4123 081f 2A250000 		.4byte	.LASF270
 4124 0823 FD01     		.sleb128 253
 4125 0825 0C       		.uleb128 0xc
 4126 0826 052F0000 		.4byte	.LASF271
 4127 082a FE01     		.sleb128 254
 4128 082c 0C       		.uleb128 0xc
 4129 082d 73330000 		.4byte	.LASF272
 4130 0831 FF01     		.sleb128 255
ARM GAS  C:\Users\AHMEDH~1\AppData\Local\Temp\cclxJjJK.s 			page 106


 4131 0833 0C       		.uleb128 0xc
 4132 0834 D71D0000 		.4byte	.LASF273
 4133 0838 8002     		.sleb128 256
 4134 083a 0C       		.uleb128 0xc
 4135 083b BF0E0000 		.4byte	.LASF274
 4136 083f 8102     		.sleb128 257
 4137 0841 0C       		.uleb128 0xc
 4138 0842 B2360000 		.4byte	.LASF275
 4139 0846 8202     		.sleb128 258
 4140 0848 0C       		.uleb128 0xc
 4141 0849 DC1A0000 		.4byte	.LASF276
 4142 084d 8302     		.sleb128 259
 4143 084f 0C       		.uleb128 0xc
 4144 0850 EE100000 		.4byte	.LASF277
 4145 0854 8402     		.sleb128 260
 4146 0856 0C       		.uleb128 0xc
 4147 0857 F3370000 		.4byte	.LASF278
 4148 085b 8502     		.sleb128 261
 4149 085d 0C       		.uleb128 0xc
 4150 085e F90C0000 		.4byte	.LASF279
 4151 0862 8602     		.sleb128 262
 4152 0864 0C       		.uleb128 0xc
 4153 0865 BE230000 		.4byte	.LASF280
 4154 0869 8702     		.sleb128 263
 4155 086b 0C       		.uleb128 0xc
 4156 086c 16190000 		.4byte	.LASF281
 4157 0870 8802     		.sleb128 264
 4158 0872 0C       		.uleb128 0xc
 4159 0873 27130000 		.4byte	.LASF282
 4160 0877 8902     		.sleb128 265
 4161 0879 0C       		.uleb128 0xc
 4162 087a B93B0000 		.4byte	.LASF283
 4163 087e 8A02     		.sleb128 266
 4164 0880 0C       		.uleb128 0xc
 4165 0881 D1310000 		.4byte	.LASF284
 4166 0885 8B02     		.sleb128 267
 4167 0887 0C       		.uleb128 0xc
 4168 0888 8C130000 		.4byte	.LASF285
 4169 088c 8C02     		.sleb128 268
 4170 088e 0C       		.uleb128 0xc
 4171 088f AF0E0000 		.4byte	.LASF286
 4172 0893 8D02     		.sleb128 269
 4173 0895 0C       		.uleb128 0xc
 4174 0896 9E080000 		.4byte	.LASF287
 4175 089a 8E02     		.sleb128 270
 4176 089c 0C       		.uleb128 0xc
 4177 089d 401D0000 		.4byte	.LASF288
 4178 08a1 8F02     		.sleb128 271
 4179 08a3 0C       		.uleb128 0xc
 4180 08a4 97280000 		.4byte	.LASF289
 4181 08a8 9002     		.sleb128 272
 4182 08aa 0C       		.uleb128 0xc
 4183 08ab 283B0000 		.4byte	.LASF290
 4184 08af 9102     		.sleb128 273
 4185 08b1 0C       		.uleb128 0xc
 4186 08b2 48170000 		.4byte	.LASF291
 4187 08b6 9202     		.sleb128 274
ARM GAS  C:\Users\AHMEDH~1\AppData\Local\Temp\cclxJjJK.s 			page 107


 4188 08b8 0C       		.uleb128 0xc
 4189 08b9 0D0B0000 		.4byte	.LASF292
 4190 08bd 9302     		.sleb128 275
 4191 08bf 0C       		.uleb128 0xc
 4192 08c0 F1000000 		.4byte	.LASF293
 4193 08c4 9402     		.sleb128 276
 4194 08c6 0C       		.uleb128 0xc
 4195 08c7 00220000 		.4byte	.LASF294
 4196 08cb 9502     		.sleb128 277
 4197 08cd 0C       		.uleb128 0xc
 4198 08ce 26270000 		.4byte	.LASF295
 4199 08d2 9602     		.sleb128 278
 4200 08d4 0C       		.uleb128 0xc
 4201 08d5 59210000 		.4byte	.LASF296
 4202 08d9 9702     		.sleb128 279
 4203 08db 0C       		.uleb128 0xc
 4204 08dc 352C0000 		.4byte	.LASF297
 4205 08e0 9802     		.sleb128 280
 4206 08e2 0C       		.uleb128 0xc
 4207 08e3 C6290000 		.4byte	.LASF298
 4208 08e7 9902     		.sleb128 281
 4209 08e9 0C       		.uleb128 0xc
 4210 08ea E3320000 		.4byte	.LASF299
 4211 08ee 9A02     		.sleb128 282
 4212 08f0 0C       		.uleb128 0xc
 4213 08f1 82380000 		.4byte	.LASF300
 4214 08f5 9B02     		.sleb128 283
 4215 08f7 0C       		.uleb128 0xc
 4216 08f8 7D060000 		.4byte	.LASF301
 4217 08fc 9C02     		.sleb128 284
 4218 08fe 0C       		.uleb128 0xc
 4219 08ff D11F0000 		.4byte	.LASF302
 4220 0903 9D02     		.sleb128 285
 4221 0905 0C       		.uleb128 0xc
 4222 0906 FD050000 		.4byte	.LASF303
 4223 090a 9E02     		.sleb128 286
 4224 090c 0C       		.uleb128 0xc
 4225 090d 8F210000 		.4byte	.LASF304
 4226 0911 9F02     		.sleb128 287
 4227 0913 0C       		.uleb128 0xc
 4228 0914 571D0000 		.4byte	.LASF305
 4229 0918 A002     		.sleb128 288
 4230 091a 0C       		.uleb128 0xc
 4231 091b 742C0000 		.4byte	.LASF306
 4232 091f A102     		.sleb128 289
 4233 0921 0C       		.uleb128 0xc
 4234 0922 8C2A0000 		.4byte	.LASF307
 4235 0926 A202     		.sleb128 290
 4236 0928 0C       		.uleb128 0xc
 4237 0929 B5290000 		.4byte	.LASF308
 4238 092d A302     		.sleb128 291
 4239 092f 0C       		.uleb128 0xc
 4240 0930 290A0000 		.4byte	.LASF309
 4241 0934 A402     		.sleb128 292
 4242 0936 0C       		.uleb128 0xc
 4243 0937 4C1A0000 		.4byte	.LASF310
 4244 093b A502     		.sleb128 293
ARM GAS  C:\Users\AHMEDH~1\AppData\Local\Temp\cclxJjJK.s 			page 108


 4245 093d 0C       		.uleb128 0xc
 4246 093e EE090000 		.4byte	.LASF311
 4247 0942 A602     		.sleb128 294
 4248 0944 0C       		.uleb128 0xc
 4249 0945 27230000 		.4byte	.LASF312
 4250 0949 A702     		.sleb128 295
 4251 094b 0C       		.uleb128 0xc
 4252 094c 7C1C0000 		.4byte	.LASF313
 4253 0950 A802     		.sleb128 296
 4254 0952 0C       		.uleb128 0xc
 4255 0953 0C150000 		.4byte	.LASF314
 4256 0957 A902     		.sleb128 297
 4257 0959 0C       		.uleb128 0xc
 4258 095a 0F110000 		.4byte	.LASF315
 4259 095e AA02     		.sleb128 298
 4260 0960 0C       		.uleb128 0xc
 4261 0961 09250000 		.4byte	.LASF316
 4262 0965 AB02     		.sleb128 299
 4263 0967 0C       		.uleb128 0xc
 4264 0968 49300000 		.4byte	.LASF317
 4265 096c AC02     		.sleb128 300
 4266 096e 0C       		.uleb128 0xc
 4267 096f EB200000 		.4byte	.LASF318
 4268 0973 AD02     		.sleb128 301
 4269 0975 0C       		.uleb128 0xc
 4270 0976 6E190000 		.4byte	.LASF319
 4271 097a AE02     		.sleb128 302
 4272 097c 0C       		.uleb128 0xc
 4273 097d 96370000 		.4byte	.LASF320
 4274 0981 AF02     		.sleb128 303
 4275 0983 0C       		.uleb128 0xc
 4276 0984 9C240000 		.4byte	.LASF321
 4277 0988 B002     		.sleb128 304
 4278 098a 0C       		.uleb128 0xc
 4279 098b 62330000 		.4byte	.LASF322
 4280 098f B102     		.sleb128 305
 4281 0991 0C       		.uleb128 0xc
 4282 0992 D7350000 		.4byte	.LASF323
 4283 0996 B202     		.sleb128 306
 4284 0998 0C       		.uleb128 0xc
 4285 0999 EC0D0000 		.4byte	.LASF324
 4286 099d B302     		.sleb128 307
 4287 099f 0C       		.uleb128 0xc
 4288 09a0 990B0000 		.4byte	.LASF325
 4289 09a4 B402     		.sleb128 308
 4290 09a6 0C       		.uleb128 0xc
 4291 09a7 20110000 		.4byte	.LASF326
 4292 09ab B502     		.sleb128 309
 4293 09ad 0C       		.uleb128 0xc
 4294 09ae A0010000 		.4byte	.LASF327
 4295 09b2 B602     		.sleb128 310
 4296 09b4 0C       		.uleb128 0xc
 4297 09b5 F5170000 		.4byte	.LASF328
 4298 09b9 B702     		.sleb128 311
 4299 09bb 0C       		.uleb128 0xc
 4300 09bc D73A0000 		.4byte	.LASF329
 4301 09c0 B802     		.sleb128 312
ARM GAS  C:\Users\AHMEDH~1\AppData\Local\Temp\cclxJjJK.s 			page 109


 4302 09c2 0C       		.uleb128 0xc
 4303 09c3 AE3A0000 		.4byte	.LASF330
 4304 09c7 B902     		.sleb128 313
 4305 09c9 0C       		.uleb128 0xc
 4306 09ca F6340000 		.4byte	.LASF331
 4307 09ce BA02     		.sleb128 314
 4308 09d0 0C       		.uleb128 0xc
 4309 09d1 6E150000 		.4byte	.LASF332
 4310 09d5 BB02     		.sleb128 315
 4311 09d7 0C       		.uleb128 0xc
 4312 09d8 910E0000 		.4byte	.LASF333
 4313 09dc BC02     		.sleb128 316
 4314 09de 0C       		.uleb128 0xc
 4315 09df DA0A0000 		.4byte	.LASF334
 4316 09e3 BD02     		.sleb128 317
 4317 09e5 0C       		.uleb128 0xc
 4318 09e6 B1260000 		.4byte	.LASF335
 4319 09ea BE02     		.sleb128 318
 4320 09ec 0C       		.uleb128 0xc
 4321 09ed 7D390000 		.4byte	.LASF336
 4322 09f1 BF02     		.sleb128 319
 4323 09f3 0C       		.uleb128 0xc
 4324 09f4 E7190000 		.4byte	.LASF337
 4325 09f8 C002     		.sleb128 320
 4326 09fa 0C       		.uleb128 0xc
 4327 09fb F33A0000 		.4byte	.LASF338
 4328 09ff C102     		.sleb128 321
 4329 0a01 0C       		.uleb128 0xc
 4330 0a02 1D1D0000 		.4byte	.LASF339
 4331 0a06 C202     		.sleb128 322
 4332 0a08 0C       		.uleb128 0xc
 4333 0a09 2E140000 		.4byte	.LASF340
 4334 0a0d C302     		.sleb128 323
 4335 0a0f 0C       		.uleb128 0xc
 4336 0a10 51320000 		.4byte	.LASF341
 4337 0a14 C402     		.sleb128 324
 4338 0a16 0C       		.uleb128 0xc
 4339 0a17 98390000 		.4byte	.LASF342
 4340 0a1b C502     		.sleb128 325
 4341 0a1d 0C       		.uleb128 0xc
 4342 0a1e EC2F0000 		.4byte	.LASF343
 4343 0a22 C602     		.sleb128 326
 4344 0a24 0C       		.uleb128 0xc
 4345 0a25 1A070000 		.4byte	.LASF344
 4346 0a29 C702     		.sleb128 327
 4347 0a2b 0C       		.uleb128 0xc
 4348 0a2c 60120000 		.4byte	.LASF345
 4349 0a30 C802     		.sleb128 328
 4350 0a32 0C       		.uleb128 0xc
 4351 0a33 29120000 		.4byte	.LASF346
 4352 0a37 C902     		.sleb128 329
 4353 0a39 0C       		.uleb128 0xc
 4354 0a3a 23100000 		.4byte	.LASF347
 4355 0a3e CA02     		.sleb128 330
 4356 0a40 0C       		.uleb128 0xc
 4357 0a41 E7060000 		.4byte	.LASF348
 4358 0a45 CB02     		.sleb128 331
ARM GAS  C:\Users\AHMEDH~1\AppData\Local\Temp\cclxJjJK.s 			page 110


 4359 0a47 0C       		.uleb128 0xc
 4360 0a48 CE360000 		.4byte	.LASF349
 4361 0a4c CC02     		.sleb128 332
 4362 0a4e 0C       		.uleb128 0xc
 4363 0a4f AB300000 		.4byte	.LASF350
 4364 0a53 CD02     		.sleb128 333
 4365 0a55 0C       		.uleb128 0xc
 4366 0a56 A32A0000 		.4byte	.LASF351
 4367 0a5a CE02     		.sleb128 334
 4368 0a5c 0C       		.uleb128 0xc
 4369 0a5d 2C320000 		.4byte	.LASF352
 4370 0a61 CF02     		.sleb128 335
 4371 0a63 0C       		.uleb128 0xc
 4372 0a64 452C0000 		.4byte	.LASF353
 4373 0a68 D002     		.sleb128 336
 4374 0a6a 0C       		.uleb128 0xc
 4375 0a6b 6B170000 		.4byte	.LASF354
 4376 0a6f D102     		.sleb128 337
 4377 0a71 0C       		.uleb128 0xc
 4378 0a72 9C0F0000 		.4byte	.LASF355
 4379 0a76 D202     		.sleb128 338
 4380 0a78 0C       		.uleb128 0xc
 4381 0a79 6B0C0000 		.4byte	.LASF356
 4382 0a7d D302     		.sleb128 339
 4383 0a7f 0C       		.uleb128 0xc
 4384 0a80 76370000 		.4byte	.LASF357
 4385 0a84 D402     		.sleb128 340
 4386 0a86 0C       		.uleb128 0xc
 4387 0a87 7A100000 		.4byte	.LASF358
 4388 0a8b D502     		.sleb128 341
 4389 0a8d 0C       		.uleb128 0xc
 4390 0a8e 413C0000 		.4byte	.LASF359
 4391 0a92 D602     		.sleb128 342
 4392 0a94 0C       		.uleb128 0xc
 4393 0a95 E0180000 		.4byte	.LASF360
 4394 0a99 D702     		.sleb128 343
 4395 0a9b 0C       		.uleb128 0xc
 4396 0a9c 36160000 		.4byte	.LASF361
 4397 0aa0 D802     		.sleb128 344
 4398 0aa2 0C       		.uleb128 0xc
 4399 0aa3 42370000 		.4byte	.LASF362
 4400 0aa7 D902     		.sleb128 345
 4401 0aa9 0C       		.uleb128 0xc
 4402 0aaa 312A0000 		.4byte	.LASF363
 4403 0aae DA02     		.sleb128 346
 4404 0ab0 0C       		.uleb128 0xc
 4405 0ab1 75160000 		.4byte	.LASF364
 4406 0ab5 DB02     		.sleb128 347
 4407 0ab7 0C       		.uleb128 0xc
 4408 0ab8 891B0000 		.4byte	.LASF365
 4409 0abc DC02     		.sleb128 348
 4410 0abe 0C       		.uleb128 0xc
 4411 0abf 47310000 		.4byte	.LASF366
 4412 0ac3 DD02     		.sleb128 349
 4413 0ac5 0C       		.uleb128 0xc
 4414 0ac6 BD2E0000 		.4byte	.LASF367
 4415 0aca DE02     		.sleb128 350
ARM GAS  C:\Users\AHMEDH~1\AppData\Local\Temp\cclxJjJK.s 			page 111


 4416 0acc 0C       		.uleb128 0xc
 4417 0acd F9330000 		.4byte	.LASF368
 4418 0ad1 DF02     		.sleb128 351
 4419 0ad3 0C       		.uleb128 0xc
 4420 0ad4 310F0000 		.4byte	.LASF369
 4421 0ad8 E002     		.sleb128 352
 4422 0ada 0C       		.uleb128 0xc
 4423 0adb 69300000 		.4byte	.LASF370
 4424 0adf E102     		.sleb128 353
 4425 0ae1 0C       		.uleb128 0xc
 4426 0ae2 F6010000 		.4byte	.LASF371
 4427 0ae6 E202     		.sleb128 354
 4428 0ae8 0C       		.uleb128 0xc
 4429 0ae9 C8220000 		.4byte	.LASF372
 4430 0aed E302     		.sleb128 355
 4431 0aef 0C       		.uleb128 0xc
 4432 0af0 C8380000 		.4byte	.LASF373
 4433 0af4 E402     		.sleb128 356
 4434 0af6 0C       		.uleb128 0xc
 4435 0af7 20050000 		.4byte	.LASF374
 4436 0afb E502     		.sleb128 357
 4437 0afd 0C       		.uleb128 0xc
 4438 0afe B7210000 		.4byte	.LASF375
 4439 0b02 E602     		.sleb128 358
 4440 0b04 0C       		.uleb128 0xc
 4441 0b05 DA240000 		.4byte	.LASF376
 4442 0b09 E702     		.sleb128 359
 4443 0b0b 0C       		.uleb128 0xc
 4444 0b0c F51E0000 		.4byte	.LASF377
 4445 0b10 E802     		.sleb128 360
 4446 0b12 0C       		.uleb128 0xc
 4447 0b13 AA330000 		.4byte	.LASF378
 4448 0b17 E902     		.sleb128 361
 4449 0b19 0C       		.uleb128 0xc
 4450 0b1a B5250000 		.4byte	.LASF379
 4451 0b1e EA02     		.sleb128 362
 4452 0b20 0C       		.uleb128 0xc
 4453 0b21 BB330000 		.4byte	.LASF380
 4454 0b25 EB02     		.sleb128 363
 4455 0b27 0C       		.uleb128 0xc
 4456 0b28 ED280000 		.4byte	.LASF381
 4457 0b2c EC02     		.sleb128 364
 4458 0b2e 0C       		.uleb128 0xc
 4459 0b2f 87350000 		.4byte	.LASF382
 4460 0b33 ED02     		.sleb128 365
 4461 0b35 0C       		.uleb128 0xc
 4462 0b36 CB080000 		.4byte	.LASF383
 4463 0b3a EE02     		.sleb128 366
 4464 0b3c 0C       		.uleb128 0xc
 4465 0b3d FB260000 		.4byte	.LASF384
 4466 0b41 EF02     		.sleb128 367
 4467 0b43 0C       		.uleb128 0xc
 4468 0b44 D5320000 		.4byte	.LASF385
 4469 0b48 F002     		.sleb128 368
 4470 0b4a 0C       		.uleb128 0xc
 4471 0b4b A02B0000 		.4byte	.LASF386
 4472 0b4f F102     		.sleb128 369
ARM GAS  C:\Users\AHMEDH~1\AppData\Local\Temp\cclxJjJK.s 			page 112


 4473 0b51 0C       		.uleb128 0xc
 4474 0b52 9A2F0000 		.4byte	.LASF387
 4475 0b56 F202     		.sleb128 370
 4476 0b58 0C       		.uleb128 0xc
 4477 0b59 8C3C0000 		.4byte	.LASF388
 4478 0b5d F302     		.sleb128 371
 4479 0b5f 0C       		.uleb128 0xc
 4480 0b60 28080000 		.4byte	.LASF389
 4481 0b64 F402     		.sleb128 372
 4482 0b66 0C       		.uleb128 0xc
 4483 0b67 132E0000 		.4byte	.LASF390
 4484 0b6b F502     		.sleb128 373
 4485 0b6d 0C       		.uleb128 0xc
 4486 0b6e CB1C0000 		.4byte	.LASF391
 4487 0b72 F602     		.sleb128 374
 4488 0b74 0C       		.uleb128 0xc
 4489 0b75 581F0000 		.4byte	.LASF392
 4490 0b79 F702     		.sleb128 375
 4491 0b7b 0C       		.uleb128 0xc
 4492 0b7c 3C390000 		.4byte	.LASF393
 4493 0b80 F802     		.sleb128 376
 4494 0b82 0C       		.uleb128 0xc
 4495 0b83 54350000 		.4byte	.LASF394
 4496 0b87 F902     		.sleb128 377
 4497 0b89 0C       		.uleb128 0xc
 4498 0b8a 06020000 		.4byte	.LASF395
 4499 0b8e FA02     		.sleb128 378
 4500 0b90 0C       		.uleb128 0xc
 4501 0b91 DF120000 		.4byte	.LASF396
 4502 0b95 FB02     		.sleb128 379
 4503 0b97 0C       		.uleb128 0xc
 4504 0b98 D9220000 		.4byte	.LASF397
 4505 0b9c FC02     		.sleb128 380
 4506 0b9e 0C       		.uleb128 0xc
 4507 0b9f 343A0000 		.4byte	.LASF398
 4508 0ba3 FD02     		.sleb128 381
 4509 0ba5 0C       		.uleb128 0xc
 4510 0ba6 B51D0000 		.4byte	.LASF399
 4511 0baa FE02     		.sleb128 382
 4512 0bac 0C       		.uleb128 0xc
 4513 0bad B0350000 		.4byte	.LASF400
 4514 0bb1 FF02     		.sleb128 383
 4515 0bb3 0C       		.uleb128 0xc
 4516 0bb4 12330000 		.4byte	.LASF401
 4517 0bb8 8003     		.sleb128 384
 4518 0bba 0C       		.uleb128 0xc
 4519 0bbb 943A0000 		.4byte	.LASF402
 4520 0bbf 8103     		.sleb128 385
 4521 0bc1 0C       		.uleb128 0xc
 4522 0bc2 5E2B0000 		.4byte	.LASF403
 4523 0bc6 8203     		.sleb128 386
 4524 0bc8 0C       		.uleb128 0xc
 4525 0bc9 FE090000 		.4byte	.LASF404
 4526 0bcd 8303     		.sleb128 387
 4527 0bcf 0C       		.uleb128 0xc
 4528 0bd0 5E110000 		.4byte	.LASF405
 4529 0bd4 8403     		.sleb128 388
ARM GAS  C:\Users\AHMEDH~1\AppData\Local\Temp\cclxJjJK.s 			page 113


 4530 0bd6 0C       		.uleb128 0xc
 4531 0bd7 98200000 		.4byte	.LASF406
 4532 0bdb 8503     		.sleb128 389
 4533 0bdd 0C       		.uleb128 0xc
 4534 0bde 623A0000 		.4byte	.LASF407
 4535 0be2 8603     		.sleb128 390
 4536 0be4 0C       		.uleb128 0xc
 4537 0be5 5E2C0000 		.4byte	.LASF408
 4538 0be9 8703     		.sleb128 391
 4539 0beb 0C       		.uleb128 0xc
 4540 0bec C6040000 		.4byte	.LASF409
 4541 0bf0 8803     		.sleb128 392
 4542 0bf2 0C       		.uleb128 0xc
 4543 0bf3 F6320000 		.4byte	.LASF410
 4544 0bf7 8903     		.sleb128 393
 4545 0bf9 0C       		.uleb128 0xc
 4546 0bfa 44350000 		.4byte	.LASF411
 4547 0bfe 8A03     		.sleb128 394
 4548 0c00 0C       		.uleb128 0xc
 4549 0c01 480A0000 		.4byte	.LASF412
 4550 0c05 8B03     		.sleb128 395
 4551 0c07 0C       		.uleb128 0xc
 4552 0c08 14300000 		.4byte	.LASF413
 4553 0c0c 8C03     		.sleb128 396
 4554 0c0e 0C       		.uleb128 0xc
 4555 0c0f 9C150000 		.4byte	.LASF414
 4556 0c13 8D03     		.sleb128 397
 4557 0c15 0C       		.uleb128 0xc
 4558 0c16 7D140000 		.4byte	.LASF415
 4559 0c1a 8E03     		.sleb128 398
 4560 0c1c 0C       		.uleb128 0xc
 4561 0c1d DC150000 		.4byte	.LASF416
 4562 0c21 8F03     		.sleb128 399
 4563 0c23 0C       		.uleb128 0xc
 4564 0c24 0A0D0000 		.4byte	.LASF417
 4565 0c28 9003     		.sleb128 400
 4566 0c2a 0C       		.uleb128 0xc
 4567 0c2b 7B320000 		.4byte	.LASF418
 4568 0c2f 9103     		.sleb128 401
 4569 0c31 0C       		.uleb128 0xc
 4570 0c32 B4270000 		.4byte	.LASF419
 4571 0c36 9203     		.sleb128 402
 4572 0c38 0C       		.uleb128 0xc
 4573 0c39 0C000000 		.4byte	.LASF420
 4574 0c3d 9303     		.sleb128 403
 4575 0c3f 0C       		.uleb128 0xc
 4576 0c40 8F030000 		.4byte	.LASF421
 4577 0c44 9403     		.sleb128 404
 4578 0c46 0C       		.uleb128 0xc
 4579 0c47 9B330000 		.4byte	.LASF422
 4580 0c4b 9503     		.sleb128 405
 4581 0c4d 0C       		.uleb128 0xc
 4582 0c4e 572E0000 		.4byte	.LASF423
 4583 0c52 9603     		.sleb128 406
 4584 0c54 0C       		.uleb128 0xc
 4585 0c55 8F270000 		.4byte	.LASF424
 4586 0c59 9703     		.sleb128 407
ARM GAS  C:\Users\AHMEDH~1\AppData\Local\Temp\cclxJjJK.s 			page 114


 4587 0c5b 0C       		.uleb128 0xc
 4588 0c5c BC240000 		.4byte	.LASF425
 4589 0c60 9803     		.sleb128 408
 4590 0c62 0C       		.uleb128 0xc
 4591 0c63 36100000 		.4byte	.LASF426
 4592 0c67 9903     		.sleb128 409
 4593 0c69 0C       		.uleb128 0xc
 4594 0c6a 12370000 		.4byte	.LASF427
 4595 0c6e 9A03     		.sleb128 410
 4596 0c70 0C       		.uleb128 0xc
 4597 0c71 FF230000 		.4byte	.LASF428
 4598 0c75 9B03     		.sleb128 411
 4599 0c77 0C       		.uleb128 0xc
 4600 0c78 FC190000 		.4byte	.LASF429
 4601 0c7c 9C03     		.sleb128 412
 4602 0c7e 0C       		.uleb128 0xc
 4603 0c7f 0D390000 		.4byte	.LASF430
 4604 0c83 9D03     		.sleb128 413
 4605 0c85 0C       		.uleb128 0xc
 4606 0c86 76380000 		.4byte	.LASF431
 4607 0c8a 9E03     		.sleb128 414
 4608 0c8c 0C       		.uleb128 0xc
 4609 0c8d 291E0000 		.4byte	.LASF432
 4610 0c91 9F03     		.sleb128 415
 4611 0c93 0C       		.uleb128 0xc
 4612 0c94 BC000000 		.4byte	.LASF433
 4613 0c98 A003     		.sleb128 416
 4614 0c9a 0C       		.uleb128 0xc
 4615 0c9b 55370000 		.4byte	.LASF434
 4616 0c9f A103     		.sleb128 417
 4617 0ca1 0C       		.uleb128 0xc
 4618 0ca2 0A030000 		.4byte	.LASF435
 4619 0ca6 A203     		.sleb128 418
 4620 0ca8 0C       		.uleb128 0xc
 4621 0ca9 372B0000 		.4byte	.LASF436
 4622 0cad A303     		.sleb128 419
 4623 0caf 0C       		.uleb128 0xc
 4624 0cb0 70000000 		.4byte	.LASF437
 4625 0cb4 A403     		.sleb128 420
 4626 0cb6 0C       		.uleb128 0xc
 4627 0cb7 30090000 		.4byte	.LASF438
 4628 0cbb A503     		.sleb128 421
 4629 0cbd 0C       		.uleb128 0xc
 4630 0cbe D7140000 		.4byte	.LASF439
 4631 0cc2 A603     		.sleb128 422
 4632 0cc4 0C       		.uleb128 0xc
 4633 0cc5 6C020000 		.4byte	.LASF440
 4634 0cc9 A703     		.sleb128 423
 4635 0ccb 0C       		.uleb128 0xc
 4636 0ccc A4100000 		.4byte	.LASF441
 4637 0cd0 A803     		.sleb128 424
 4638 0cd2 0C       		.uleb128 0xc
 4639 0cd3 00000000 		.4byte	.LASF442
 4640 0cd7 A903     		.sleb128 425
 4641 0cd9 0C       		.uleb128 0xc
 4642 0cda D10F0000 		.4byte	.LASF443
 4643 0cde AA03     		.sleb128 426
ARM GAS  C:\Users\AHMEDH~1\AppData\Local\Temp\cclxJjJK.s 			page 115


 4644 0ce0 0C       		.uleb128 0xc
 4645 0ce1 ED040000 		.4byte	.LASF444
 4646 0ce5 AB03     		.sleb128 427
 4647 0ce7 0C       		.uleb128 0xc
 4648 0ce8 982C0000 		.4byte	.LASF445
 4649 0cec AC03     		.sleb128 428
 4650 0cee 0C       		.uleb128 0xc
 4651 0cef 56200000 		.4byte	.LASF446
 4652 0cf3 AD03     		.sleb128 429
 4653 0cf5 0C       		.uleb128 0xc
 4654 0cf6 CC0C0000 		.4byte	.LASF447
 4655 0cfa AE03     		.sleb128 430
 4656 0cfc 0C       		.uleb128 0xc
 4657 0cfd 30070000 		.4byte	.LASF448
 4658 0d01 AF03     		.sleb128 431
 4659 0d03 0C       		.uleb128 0xc
 4660 0d04 55190000 		.4byte	.LASF449
 4661 0d08 B003     		.sleb128 432
 4662 0d0a 0C       		.uleb128 0xc
 4663 0d0b 2C200000 		.4byte	.LASF450
 4664 0d0f B103     		.sleb128 433
 4665 0d11 0C       		.uleb128 0xc
 4666 0d12 F9390000 		.4byte	.LASF451
 4667 0d16 B203     		.sleb128 434
 4668 0d18 0C       		.uleb128 0xc
 4669 0d19 E9080000 		.4byte	.LASF452
 4670 0d1d B303     		.sleb128 435
 4671 0d1f 0C       		.uleb128 0xc
 4672 0d20 6E220000 		.4byte	.LASF453
 4673 0d24 B403     		.sleb128 436
 4674 0d26 0C       		.uleb128 0xc
 4675 0d27 5C000000 		.4byte	.LASF454
 4676 0d2b B503     		.sleb128 437
 4677 0d2d 0C       		.uleb128 0xc
 4678 0d2e 473A0000 		.4byte	.LASF455
 4679 0d32 B603     		.sleb128 438
 4680 0d34 0C       		.uleb128 0xc
 4681 0d35 A3060000 		.4byte	.LASF456
 4682 0d39 B703     		.sleb128 439
 4683 0d3b 0C       		.uleb128 0xc
 4684 0d3c F92D0000 		.4byte	.LASF457
 4685 0d40 B803     		.sleb128 440
 4686 0d42 0C       		.uleb128 0xc
 4687 0d43 173A0000 		.4byte	.LASF458
 4688 0d47 B903     		.sleb128 441
 4689 0d49 0C       		.uleb128 0xc
 4690 0d4a EC220000 		.4byte	.LASF459
 4691 0d4e BA03     		.sleb128 442
 4692 0d50 0C       		.uleb128 0xc
 4693 0d51 621C0000 		.4byte	.LASF460
 4694 0d55 BB03     		.sleb128 443
 4695 0d57 0C       		.uleb128 0xc
 4696 0d58 1A020000 		.4byte	.LASF461
 4697 0d5c BC03     		.sleb128 444
 4698 0d5e 0C       		.uleb128 0xc
 4699 0d5f B4010000 		.4byte	.LASF462
 4700 0d63 BD03     		.sleb128 445
ARM GAS  C:\Users\AHMEDH~1\AppData\Local\Temp\cclxJjJK.s 			page 116


 4701 0d65 0C       		.uleb128 0xc
 4702 0d66 31110000 		.4byte	.LASF463
 4703 0d6a BE03     		.sleb128 446
 4704 0d6c 0C       		.uleb128 0xc
 4705 0d6d 74130000 		.4byte	.LASF464
 4706 0d71 BF03     		.sleb128 447
 4707 0d73 0C       		.uleb128 0xc
 4708 0d74 2F060000 		.4byte	.LASF465
 4709 0d78 C003     		.sleb128 448
 4710 0d7a 0C       		.uleb128 0xc
 4711 0d7b 46140000 		.4byte	.LASF466
 4712 0d7f C103     		.sleb128 449
 4713 0d81 0C       		.uleb128 0xc
 4714 0d82 D92B0000 		.4byte	.LASF467
 4715 0d86 C203     		.sleb128 450
 4716 0d88 0C       		.uleb128 0xc
 4717 0d89 500C0000 		.4byte	.LASF468
 4718 0d8d C303     		.sleb128 451
 4719 0d8f 0C       		.uleb128 0xc
 4720 0d90 A22E0000 		.4byte	.LASF469
 4721 0d94 C403     		.sleb128 452
 4722 0d96 0C       		.uleb128 0xc
 4723 0d97 34190000 		.4byte	.LASF470
 4724 0d9b C503     		.sleb128 453
 4725 0d9d 0C       		.uleb128 0xc
 4726 0d9e 09270000 		.4byte	.LASF471
 4727 0da2 C603     		.sleb128 454
 4728 0da4 0C       		.uleb128 0xc
 4729 0da5 83240000 		.4byte	.LASF472
 4730 0da9 C703     		.sleb128 455
 4731 0dab 0C       		.uleb128 0xc
 4732 0dac 153C0000 		.4byte	.LASF473
 4733 0db0 C803     		.sleb128 456
 4734 0db2 0C       		.uleb128 0xc
 4735 0db3 8A300000 		.4byte	.LASF474
 4736 0db7 C903     		.sleb128 457
 4737 0db9 0C       		.uleb128 0xc
 4738 0dba D1170000 		.4byte	.LASF475
 4739 0dbe CA03     		.sleb128 458
 4740 0dc0 0C       		.uleb128 0xc
 4741 0dc1 302E0000 		.4byte	.LASF476
 4742 0dc5 CB03     		.sleb128 459
 4743 0dc7 0C       		.uleb128 0xc
 4744 0dc8 A6110000 		.4byte	.LASF477
 4745 0dcc CC03     		.sleb128 460
 4746 0dce 0C       		.uleb128 0xc
 4747 0dcf 89040000 		.4byte	.LASF478
 4748 0dd3 CD03     		.sleb128 461
 4749 0dd5 0C       		.uleb128 0xc
 4750 0dd6 CE390000 		.4byte	.LASF479
 4751 0dda CE03     		.sleb128 462
 4752 0ddc 0C       		.uleb128 0xc
 4753 0ddd 89320000 		.4byte	.LASF480
 4754 0de1 CF03     		.sleb128 463
 4755 0de3 0C       		.uleb128 0xc
 4756 0de4 F1120000 		.4byte	.LASF481
 4757 0de8 D003     		.sleb128 464
ARM GAS  C:\Users\AHMEDH~1\AppData\Local\Temp\cclxJjJK.s 			page 117


 4758 0dea 0C       		.uleb128 0xc
 4759 0deb 381E0000 		.4byte	.LASF482
 4760 0def D103     		.sleb128 465
 4761 0df1 0C       		.uleb128 0xc
 4762 0df2 7F190000 		.4byte	.LASF483
 4763 0df6 D203     		.sleb128 466
 4764 0df8 0C       		.uleb128 0xc
 4765 0df9 141F0000 		.4byte	.LASF484
 4766 0dfd D303     		.sleb128 467
 4767 0dff 0C       		.uleb128 0xc
 4768 0e00 2F290000 		.4byte	.LASF485
 4769 0e04 D403     		.sleb128 468
 4770 0e06 0C       		.uleb128 0xc
 4771 0e07 7F200000 		.4byte	.LASF486
 4772 0e0b D503     		.sleb128 469
 4773 0e0d 0C       		.uleb128 0xc
 4774 0e0e 991F0000 		.4byte	.LASF487
 4775 0e12 D603     		.sleb128 470
 4776 0e14 0C       		.uleb128 0xc
 4777 0e15 D7290000 		.4byte	.LASF488
 4778 0e19 D703     		.sleb128 471
 4779 0e1b 0C       		.uleb128 0xc
 4780 0e1c A31D0000 		.4byte	.LASF489
 4781 0e20 D803     		.sleb128 472
 4782 0e22 00       		.byte	0
 4783 0e23 09       		.uleb128 0x9
 4784 0e24 A9000000 		.4byte	0xa9
 4785 0e28 330E0000 		.4byte	0xe33
 4786 0e2c 0A       		.uleb128 0xa
 4787 0e2d 76000000 		.4byte	0x76
 4788 0e31 06       		.byte	0x6
 4789 0e32 00       		.byte	0
 4790 0e33 09       		.uleb128 0x9
 4791 0e34 A9000000 		.4byte	0xa9
 4792 0e38 430E0000 		.4byte	0xe43
 4793 0e3c 0A       		.uleb128 0xa
 4794 0e3d 76000000 		.4byte	0x76
 4795 0e41 05       		.byte	0x5
 4796 0e42 00       		.byte	0
 4797 0e43 0D       		.uleb128 0xd
 4798 0e44 02       		.byte	0x2
 4799 0e45 05       		.byte	0x5
 4800 0e46 DD18     		.2byte	0x18dd
 4801 0e48 6C0E0000 		.4byte	0xe6c
 4802 0e4c 0C       		.uleb128 0xc
 4803 0e4d 68240000 		.4byte	.LASF490
 4804 0e51 00       		.sleb128 0
 4805 0e52 0C       		.uleb128 0xc
 4806 0e53 56180000 		.4byte	.LASF491
 4807 0e57 01       		.sleb128 1
 4808 0e58 0C       		.uleb128 0xc
 4809 0e59 670B0000 		.4byte	.LASF492
 4810 0e5d 02       		.sleb128 2
 4811 0e5e 0C       		.uleb128 0xc
 4812 0e5f 00210000 		.4byte	.LASF493
 4813 0e63 03       		.sleb128 3
 4814 0e64 0C       		.uleb128 0xc
ARM GAS  C:\Users\AHMEDH~1\AppData\Local\Temp\cclxJjJK.s 			page 118


 4815 0e65 13380000 		.4byte	.LASF494
 4816 0e69 8002     		.sleb128 256
 4817 0e6b 00       		.byte	0
 4818 0e6c 0E       		.uleb128 0xe
 4819 0e6d 84030000 		.4byte	.LASF497
 4820 0e71 A0       		.byte	0xa0
 4821 0e72 04       		.byte	0x4
 4822 0e73 3002     		.2byte	0x230
 4823 0e75 940E0000 		.4byte	0xe94
 4824 0e79 0F       		.uleb128 0xf
 4825 0e7a 4E380000 		.4byte	.LASF495
 4826 0e7e 04       		.byte	0x4
 4827 0e7f 3102     		.2byte	0x231
 4828 0e81 A9000000 		.4byte	0xa9
 4829 0e85 00       		.byte	0
 4830 0e86 0F       		.uleb128 0xf
 4831 0e87 C70B0000 		.4byte	.LASF496
 4832 0e8b 04       		.byte	0x4
 4833 0e8c 3202     		.2byte	0x232
 4834 0e8e 940E0000 		.4byte	0xe94
 4835 0e92 01       		.byte	0x1
 4836 0e93 00       		.byte	0
 4837 0e94 09       		.uleb128 0x9
 4838 0e95 A9000000 		.4byte	0xa9
 4839 0e99 A40E0000 		.4byte	0xea4
 4840 0e9d 0A       		.uleb128 0xa
 4841 0e9e 76000000 		.4byte	0x76
 4842 0ea2 9D       		.byte	0x9d
 4843 0ea3 00       		.byte	0
 4844 0ea4 0E       		.uleb128 0xe
 4845 0ea5 E12F0000 		.4byte	.LASF498
 4846 0ea9 54       		.byte	0x54
 4847 0eaa 04       		.byte	0x4
 4848 0eab 3902     		.2byte	0x239
 4849 0ead CC0E0000 		.4byte	0xecc
 4850 0eb1 0F       		.uleb128 0xf
 4851 0eb2 4E380000 		.4byte	.LASF495
 4852 0eb6 04       		.byte	0x4
 4853 0eb7 3A02     		.2byte	0x23a
 4854 0eb9 A9000000 		.4byte	0xa9
 4855 0ebd 00       		.byte	0
 4856 0ebe 0F       		.uleb128 0xf
 4857 0ebf C70B0000 		.4byte	.LASF496
 4858 0ec3 04       		.byte	0x4
 4859 0ec4 3B02     		.2byte	0x23b
 4860 0ec6 CC0E0000 		.4byte	0xecc
 4861 0eca 01       		.byte	0x1
 4862 0ecb 00       		.byte	0
 4863 0ecc 09       		.uleb128 0x9
 4864 0ecd A9000000 		.4byte	0xa9
 4865 0ed1 DC0E0000 		.4byte	0xedc
 4866 0ed5 0A       		.uleb128 0xa
 4867 0ed6 76000000 		.4byte	0x76
 4868 0eda 4F       		.byte	0x4f
 4869 0edb 00       		.byte	0
 4870 0edc 0D       		.uleb128 0xd
 4871 0edd 01       		.byte	0x1
ARM GAS  C:\Users\AHMEDH~1\AppData\Local\Temp\cclxJjJK.s 			page 119


 4872 0ede 04       		.byte	0x4
 4873 0edf DC07     		.2byte	0x7dc
 4874 0ee1 2A100000 		.4byte	0x102a
 4875 0ee5 0C       		.uleb128 0xc
 4876 0ee6 4F100000 		.4byte	.LASF499
 4877 0eea 00       		.sleb128 0
 4878 0eeb 0C       		.uleb128 0xc
 4879 0eec 813C0000 		.4byte	.LASF500
 4880 0ef0 01       		.sleb128 1
 4881 0ef1 0C       		.uleb128 0xc
 4882 0ef2 7F0C0000 		.4byte	.LASF501
 4883 0ef6 02       		.sleb128 2
 4884 0ef7 0C       		.uleb128 0xc
 4885 0ef8 E0370000 		.4byte	.LASF502
 4886 0efc 03       		.sleb128 3
 4887 0efd 0C       		.uleb128 0xc
 4888 0efe C8050000 		.4byte	.LASF503
 4889 0f02 04       		.sleb128 4
 4890 0f03 0C       		.uleb128 0xc
 4891 0f04 E1080000 		.4byte	.LASF504
 4892 0f08 05       		.sleb128 5
 4893 0f09 0C       		.uleb128 0xc
 4894 0f0a 8C100000 		.4byte	.LASF505
 4895 0f0e 06       		.sleb128 6
 4896 0f0f 0C       		.uleb128 0xc
 4897 0f10 12130000 		.4byte	.LASF506
 4898 0f14 07       		.sleb128 7
 4899 0f15 0C       		.uleb128 0xc
 4900 0f16 061D0000 		.4byte	.LASF507
 4901 0f1a 08       		.sleb128 8
 4902 0f1b 0C       		.uleb128 0xc
 4903 0f1c C00D0000 		.4byte	.LASF508
 4904 0f20 09       		.sleb128 9
 4905 0f21 0C       		.uleb128 0xc
 4906 0f22 B1200000 		.4byte	.LASF509
 4907 0f26 0A       		.sleb128 10
 4908 0f27 0C       		.uleb128 0xc
 4909 0f28 00080000 		.4byte	.LASF510
 4910 0f2c 0B       		.sleb128 11
 4911 0f2d 0C       		.uleb128 0xc
 4912 0f2e C4120000 		.4byte	.LASF511
 4913 0f32 0C       		.sleb128 12
 4914 0f33 0C       		.uleb128 0xc
 4915 0f34 15360000 		.4byte	.LASF512
 4916 0f38 0D       		.sleb128 13
 4917 0f39 0C       		.uleb128 0xc
 4918 0f3a 49160000 		.4byte	.LASF513
 4919 0f3e 0E       		.sleb128 14
 4920 0f3f 0C       		.uleb128 0xc
 4921 0f40 55050000 		.4byte	.LASF514
 4922 0f44 0F       		.sleb128 15
 4923 0f45 0C       		.uleb128 0xc
 4924 0f46 3F310000 		.4byte	.LASF515
 4925 0f4a 10       		.sleb128 16
 4926 0f4b 0C       		.uleb128 0xc
 4927 0f4c 772F0000 		.4byte	.LASF516
 4928 0f50 11       		.sleb128 17
ARM GAS  C:\Users\AHMEDH~1\AppData\Local\Temp\cclxJjJK.s 			page 120


 4929 0f51 0C       		.uleb128 0xc
 4930 0f52 A4130000 		.4byte	.LASF517
 4931 0f56 12       		.sleb128 18
 4932 0f57 0C       		.uleb128 0xc
 4933 0f58 F7240000 		.4byte	.LASF518
 4934 0f5c 13       		.sleb128 19
 4935 0f5d 0C       		.uleb128 0xc
 4936 0f5e BA280000 		.4byte	.LASF519
 4937 0f62 14       		.sleb128 20
 4938 0f63 0C       		.uleb128 0xc
 4939 0f64 E40C0000 		.4byte	.LASF520
 4940 0f68 15       		.sleb128 21
 4941 0f69 0C       		.uleb128 0xc
 4942 0f6a C6320000 		.4byte	.LASF521
 4943 0f6e 16       		.sleb128 22
 4944 0f6f 0C       		.uleb128 0xc
 4945 0f70 202F0000 		.4byte	.LASF522
 4946 0f74 17       		.sleb128 23
 4947 0f75 0C       		.uleb128 0xc
 4948 0f76 46070000 		.4byte	.LASF523
 4949 0f7a 18       		.sleb128 24
 4950 0f7b 0C       		.uleb128 0xc
 4951 0f7c 582B0000 		.4byte	.LASF524
 4952 0f80 19       		.sleb128 25
 4953 0f81 0C       		.uleb128 0xc
 4954 0f82 68310000 		.4byte	.LASF525
 4955 0f86 1A       		.sleb128 26
 4956 0f87 0C       		.uleb128 0xc
 4957 0f88 D5180000 		.4byte	.LASF526
 4958 0f8c 1B       		.sleb128 27
 4959 0f8d 0C       		.uleb128 0xc
 4960 0f8e CC0A0000 		.4byte	.LASF527
 4961 0f92 1C       		.sleb128 28
 4962 0f93 0C       		.uleb128 0xc
 4963 0f94 44030000 		.4byte	.LASF528
 4964 0f98 1D       		.sleb128 29
 4965 0f99 0C       		.uleb128 0xc
 4966 0f9a 4D2F0000 		.4byte	.LASF529
 4967 0f9e 1E       		.sleb128 30
 4968 0f9f 0C       		.uleb128 0xc
 4969 0fa0 B0070000 		.4byte	.LASF530
 4970 0fa4 1F       		.sleb128 31
 4971 0fa5 0C       		.uleb128 0xc
 4972 0fa6 6A380000 		.4byte	.LASF531
 4973 0faa 20       		.sleb128 32
 4974 0fab 0C       		.uleb128 0xc
 4975 0fac C2390000 		.4byte	.LASF532
 4976 0fb0 21       		.sleb128 33
 4977 0fb1 0C       		.uleb128 0xc
 4978 0fb2 36080000 		.4byte	.LASF533
 4979 0fb6 22       		.sleb128 34
 4980 0fb7 0C       		.uleb128 0xc
 4981 0fb8 AA180000 		.4byte	.LASF534
 4982 0fbc 23       		.sleb128 35
 4983 0fbd 0C       		.uleb128 0xc
 4984 0fbe 142F0000 		.4byte	.LASF535
 4985 0fc2 24       		.sleb128 36
ARM GAS  C:\Users\AHMEDH~1\AppData\Local\Temp\cclxJjJK.s 			page 121


 4986 0fc3 0C       		.uleb128 0xc
 4987 0fc4 EB240000 		.4byte	.LASF536
 4988 0fc8 25       		.sleb128 37
 4989 0fc9 0C       		.uleb128 0xc
 4990 0fca 4C1F0000 		.4byte	.LASF537
 4991 0fce 26       		.sleb128 38
 4992 0fcf 0C       		.uleb128 0xc
 4993 0fd0 89330000 		.4byte	.LASF538
 4994 0fd4 27       		.sleb128 39
 4995 0fd5 0C       		.uleb128 0xc
 4996 0fd6 B9070000 		.4byte	.LASF539
 4997 0fda 28       		.sleb128 40
 4998 0fdb 0C       		.uleb128 0xc
 4999 0fdc 7A0D0000 		.4byte	.LASF540
 5000 0fe0 29       		.sleb128 41
 5001 0fe1 0C       		.uleb128 0xc
 5002 0fe2 7D210000 		.4byte	.LASF541
 5003 0fe6 2A       		.sleb128 42
 5004 0fe7 0C       		.uleb128 0xc
 5005 0fe8 34310000 		.4byte	.LASF542
 5006 0fec 2B       		.sleb128 43
 5007 0fed 0C       		.uleb128 0xc
 5008 0fee AE380000 		.4byte	.LASF543
 5009 0ff2 2C       		.sleb128 44
 5010 0ff3 0C       		.uleb128 0xc
 5011 0ff4 E3380000 		.4byte	.LASF544
 5012 0ff8 2D       		.sleb128 45
 5013 0ff9 0C       		.uleb128 0xc
 5014 0ffa 210E0000 		.4byte	.LASF545
 5015 0ffe 2E       		.sleb128 46
 5016 0fff 0C       		.uleb128 0xc
 5017 1000 66280000 		.4byte	.LASF546
 5018 1004 2F       		.sleb128 47
 5019 1005 0C       		.uleb128 0xc
 5020 1006 A3320000 		.4byte	.LASF547
 5021 100a 30       		.sleb128 48
 5022 100b 0C       		.uleb128 0xc
 5023 100c B1080000 		.4byte	.LASF548
 5024 1010 31       		.sleb128 49
 5025 1011 0C       		.uleb128 0xc
 5026 1012 AB050000 		.4byte	.LASF549
 5027 1016 32       		.sleb128 50
 5028 1017 0C       		.uleb128 0xc
 5029 1018 89290000 		.4byte	.LASF550
 5030 101c 33       		.sleb128 51
 5031 101d 0C       		.uleb128 0xc
 5032 101e 541C0000 		.4byte	.LASF551
 5033 1022 34       		.sleb128 52
 5034 1023 0C       		.uleb128 0xc
 5035 1024 CE150000 		.4byte	.LASF552
 5036 1028 35       		.sleb128 53
 5037 1029 00       		.byte	0
 5038 102a 10       		.uleb128 0x10
 5039 102b 80340000 		.4byte	.LASF553
 5040 102f 08       		.byte	0x8
 5041 1030 06       		.byte	0x6
 5042 1031 3A       		.byte	0x3a
ARM GAS  C:\Users\AHMEDH~1\AppData\Local\Temp\cclxJjJK.s 			page 122


 5043 1032 8B100000 		.4byte	0x108b
 5044 1036 11       		.uleb128 0x11
 5045 1037 BA110000 		.4byte	.LASF554
 5046 103b 06       		.byte	0x6
 5047 103c 3B       		.byte	0x3b
 5048 103d A9000000 		.4byte	0xa9
 5049 1041 00       		.byte	0
 5050 1042 11       		.uleb128 0x11
 5051 1043 4D230000 		.4byte	.LASF555
 5052 1047 06       		.byte	0x6
 5053 1048 3C       		.byte	0x3c
 5054 1049 A9000000 		.4byte	0xa9
 5055 104d 01       		.byte	0x1
 5056 104e 11       		.uleb128 0x11
 5057 104f 2B3C0000 		.4byte	.LASF556
 5058 1053 06       		.byte	0x6
 5059 1054 3D       		.byte	0x3d
 5060 1055 A9000000 		.4byte	0xa9
 5061 1059 02       		.byte	0x2
 5062 105a 11       		.uleb128 0x11
 5063 105b 8A1E0000 		.4byte	.LASF557
 5064 105f 06       		.byte	0x6
 5065 1060 3E       		.byte	0x3e
 5066 1061 A9000000 		.4byte	0xa9
 5067 1065 03       		.byte	0x3
 5068 1066 11       		.uleb128 0x11
 5069 1067 37010000 		.4byte	.LASF558
 5070 106b 06       		.byte	0x6
 5071 106c 3F       		.byte	0x3f
 5072 106d A9000000 		.4byte	0xa9
 5073 1071 04       		.byte	0x4
 5074 1072 11       		.uleb128 0x11
 5075 1073 39000000 		.4byte	.LASF559
 5076 1077 06       		.byte	0x6
 5077 1078 40       		.byte	0x40
 5078 1079 A9000000 		.4byte	0xa9
 5079 107d 05       		.byte	0x5
 5080 107e 11       		.uleb128 0x11
 5081 107f 1D010000 		.4byte	.LASF560
 5082 1083 06       		.byte	0x6
 5083 1084 41       		.byte	0x41
 5084 1085 A9000000 		.4byte	0xa9
 5085 1089 06       		.byte	0x6
 5086 108a 00       		.byte	0
 5087 108b 09       		.uleb128 0x9
 5088 108c A9000000 		.4byte	0xa9
 5089 1090 9B100000 		.4byte	0x109b
 5090 1094 0A       		.uleb128 0xa
 5091 1095 76000000 		.4byte	0x76
 5092 1099 14       		.byte	0x14
 5093 109a 00       		.byte	0
 5094 109b 12       		.uleb128 0x12
 5095 109c 08       		.byte	0x8
 5096 109d 07       		.byte	0x7
 5097 109e 58       		.byte	0x58
 5098 109f BC100000 		.4byte	0x10bc
 5099 10a3 11       		.uleb128 0x11
ARM GAS  C:\Users\AHMEDH~1\AppData\Local\Temp\cclxJjJK.s 			page 123


 5100 10a4 F7380000 		.4byte	.LASF561
 5101 10a8 07       		.byte	0x7
 5102 10a9 59       		.byte	0x59
 5103 10aa B4000000 		.4byte	0xb4
 5104 10ae 00       		.byte	0
 5105 10af 11       		.uleb128 0x11
 5106 10b0 CF1E0000 		.4byte	.LASF562
 5107 10b4 07       		.byte	0x7
 5108 10b5 5A       		.byte	0x5a
 5109 10b6 F0000000 		.4byte	0xf0
 5110 10ba 04       		.byte	0x4
 5111 10bb 00       		.byte	0
 5112 10bc 02       		.uleb128 0x2
 5113 10bd 43300000 		.4byte	.LASF563
 5114 10c1 07       		.byte	0x7
 5115 10c2 5B       		.byte	0x5b
 5116 10c3 9B100000 		.4byte	0x109b
 5117 10c7 13       		.uleb128 0x13
 5118 10c8 544C00   		.ascii	"TL\000"
 5119 10cb 07       		.byte	0x7
 5120 10cc AD       		.byte	0xad
 5121 10cd 45000000 		.4byte	0x45
 5122 10d1 12       		.uleb128 0x12
 5123 10d2 08       		.byte	0x8
 5124 10d3 07       		.byte	0x7
 5125 10d4 B0       		.byte	0xb0
 5126 10d5 FE100000 		.4byte	0x10fe
 5127 10d9 11       		.uleb128 0x11
 5128 10da 70110000 		.4byte	.LASF564
 5129 10de 07       		.byte	0x7
 5130 10df B1       		.byte	0xb1
 5131 10e0 B4000000 		.4byte	0xb4
 5132 10e4 00       		.byte	0
 5133 10e5 11       		.uleb128 0x11
 5134 10e6 DC030000 		.4byte	.LASF565
 5135 10ea 07       		.byte	0x7
 5136 10eb B2       		.byte	0xb2
 5137 10ec C7100000 		.4byte	0x10c7
 5138 10f0 02       		.byte	0x2
 5139 10f1 11       		.uleb128 0x11
 5140 10f2 3D300000 		.4byte	.LASF566
 5141 10f6 07       		.byte	0x7
 5142 10f7 B3       		.byte	0xb3
 5143 10f8 F0000000 		.4byte	0xf0
 5144 10fc 04       		.byte	0x4
 5145 10fd 00       		.byte	0
 5146 10fe 02       		.uleb128 0x2
 5147 10ff 0A350000 		.4byte	.LASF567
 5148 1103 07       		.byte	0x7
 5149 1104 B4       		.byte	0xb4
 5150 1105 D1100000 		.4byte	0x10d1
 5151 1109 09       		.uleb128 0x9
 5152 110a A9000000 		.4byte	0xa9
 5153 110e 19110000 		.4byte	0x1119
 5154 1112 0A       		.uleb128 0xa
 5155 1113 76000000 		.4byte	0x76
 5156 1117 04       		.byte	0x4
ARM GAS  C:\Users\AHMEDH~1\AppData\Local\Temp\cclxJjJK.s 			page 124


 5157 1118 00       		.byte	0
 5158 1119 09       		.uleb128 0x9
 5159 111a A9000000 		.4byte	0xa9
 5160 111e 29110000 		.4byte	0x1129
 5161 1122 0A       		.uleb128 0xa
 5162 1123 76000000 		.4byte	0x76
 5163 1127 02       		.byte	0x2
 5164 1128 00       		.byte	0
 5165 1129 14       		.uleb128 0x14
 5166 112a 01       		.byte	0x1
 5167 112b 08       		.byte	0x8
 5168 112c 40       		.byte	0x40
 5169 112d 7C120000 		.4byte	0x127c
 5170 1131 0C       		.uleb128 0xc
 5171 1132 DE250000 		.4byte	.LASF568
 5172 1136 00       		.sleb128 0
 5173 1137 0C       		.uleb128 0xc
 5174 1138 89340000 		.4byte	.LASF569
 5175 113c 01       		.sleb128 1
 5176 113d 0C       		.uleb128 0xc
 5177 113e 7E1B0000 		.4byte	.LASF570
 5178 1142 02       		.sleb128 2
 5179 1143 0C       		.uleb128 0xc
 5180 1144 D7380000 		.4byte	.LASF571
 5181 1148 03       		.sleb128 3
 5182 1149 0C       		.uleb128 0xc
 5183 114a ED300000 		.4byte	.LASF572
 5184 114e 04       		.sleb128 4
 5185 114f 0C       		.uleb128 0xc
 5186 1150 A0190000 		.4byte	.LASF573
 5187 1154 05       		.sleb128 5
 5188 1155 0C       		.uleb128 0xc
 5189 1156 10240000 		.4byte	.LASF574
 5190 115a 06       		.sleb128 6
 5191 115b 0C       		.uleb128 0xc
 5192 115c 1A130000 		.4byte	.LASF575
 5193 1160 07       		.sleb128 7
 5194 1161 0C       		.uleb128 0xc
 5195 1162 5D1E0000 		.4byte	.LASF576
 5196 1166 08       		.sleb128 8
 5197 1167 0C       		.uleb128 0xc
 5198 1168 161A0000 		.4byte	.LASF577
 5199 116c 09       		.sleb128 9
 5200 116d 0C       		.uleb128 0xc
 5201 116e 95380000 		.4byte	.LASF578
 5202 1172 0A       		.sleb128 10
 5203 1173 0C       		.uleb128 0xc
 5204 1174 75250000 		.4byte	.LASF579
 5205 1178 0B       		.sleb128 11
 5206 1179 0C       		.uleb128 0xc
 5207 117a 333C0000 		.4byte	.LASF580
 5208 117e 0C       		.sleb128 12
 5209 117f 0C       		.uleb128 0xc
 5210 1180 CC240000 		.4byte	.LASF581
 5211 1184 0D       		.sleb128 13
 5212 1185 0C       		.uleb128 0xc
 5213 1186 2A280000 		.4byte	.LASF582
ARM GAS  C:\Users\AHMEDH~1\AppData\Local\Temp\cclxJjJK.s 			page 125


 5214 118a 0E       		.sleb128 14
 5215 118b 0C       		.uleb128 0xc
 5216 118c 36380000 		.4byte	.LASF583
 5217 1190 0F       		.sleb128 15
 5218 1191 0C       		.uleb128 0xc
 5219 1192 080C0000 		.4byte	.LASF584
 5220 1196 10       		.sleb128 16
 5221 1197 0C       		.uleb128 0xc
 5222 1198 2D390000 		.4byte	.LASF585
 5223 119c 11       		.sleb128 17
 5224 119d 0C       		.uleb128 0xc
 5225 119e BD2F0000 		.4byte	.LASF586
 5226 11a2 12       		.sleb128 18
 5227 11a3 0C       		.uleb128 0xc
 5228 11a4 E8340000 		.4byte	.LASF587
 5229 11a8 13       		.sleb128 19
 5230 11a9 0C       		.uleb128 0xc
 5231 11aa FF220000 		.4byte	.LASF588
 5232 11ae 14       		.sleb128 20
 5233 11af 0C       		.uleb128 0xc
 5234 11b0 5F360000 		.4byte	.LASF589
 5235 11b4 15       		.sleb128 21
 5236 11b5 0C       		.uleb128 0xc
 5237 11b6 CA100000 		.4byte	.LASF590
 5238 11ba 16       		.sleb128 22
 5239 11bb 0C       		.uleb128 0xc
 5240 11bc 1D200000 		.4byte	.LASF591
 5241 11c0 17       		.sleb128 23
 5242 11c1 0C       		.uleb128 0xc
 5243 11c2 B2030000 		.4byte	.LASF592
 5244 11c6 18       		.sleb128 24
 5245 11c7 0C       		.uleb128 0xc
 5246 11c8 932E0000 		.4byte	.LASF593
 5247 11cc 19       		.sleb128 25
 5248 11cd 0C       		.uleb128 0xc
 5249 11ce C2130000 		.4byte	.LASF594
 5250 11d2 1A       		.sleb128 26
 5251 11d3 0C       		.uleb128 0xc
 5252 11d4 46050000 		.4byte	.LASF595
 5253 11d8 1B       		.sleb128 27
 5254 11d9 0C       		.uleb128 0xc
 5255 11da 04200000 		.4byte	.LASF596
 5256 11de 1C       		.sleb128 28
 5257 11df 0C       		.uleb128 0xc
 5258 11e0 5C3C0000 		.4byte	.LASF597
 5259 11e4 1D       		.sleb128 29
 5260 11e5 0C       		.uleb128 0xc
 5261 11e6 50330000 		.4byte	.LASF598
 5262 11ea 1E       		.sleb128 30
 5263 11eb 0C       		.uleb128 0xc
 5264 11ec 911C0000 		.4byte	.LASF599
 5265 11f0 1F       		.sleb128 31
 5266 11f1 0C       		.uleb128 0xc
 5267 11f2 CD2E0000 		.4byte	.LASF600
 5268 11f6 20       		.sleb128 32
 5269 11f7 0C       		.uleb128 0xc
 5270 11f8 E7070000 		.4byte	.LASF601
ARM GAS  C:\Users\AHMEDH~1\AppData\Local\Temp\cclxJjJK.s 			page 126


 5271 11fc 21       		.sleb128 33
 5272 11fd 0C       		.uleb128 0xc
 5273 11fe B62A0000 		.4byte	.LASF602
 5274 1202 22       		.sleb128 34
 5275 1203 0C       		.uleb128 0xc
 5276 1204 BA150000 		.4byte	.LASF603
 5277 1208 23       		.sleb128 35
 5278 1209 0C       		.uleb128 0xc
 5279 120a 6A100000 		.4byte	.LASF604
 5280 120e 24       		.sleb128 36
 5281 120f 0C       		.uleb128 0xc
 5282 1210 9C0D0000 		.4byte	.LASF605
 5283 1214 25       		.sleb128 37
 5284 1215 0C       		.uleb128 0xc
 5285 1216 65080000 		.4byte	.LASF606
 5286 121a 26       		.sleb128 38
 5287 121b 0C       		.uleb128 0xc
 5288 121c C11F0000 		.4byte	.LASF607
 5289 1220 27       		.sleb128 39
 5290 1221 0C       		.uleb128 0xc
 5291 1222 19080000 		.4byte	.LASF608
 5292 1226 28       		.sleb128 40
 5293 1227 0C       		.uleb128 0xc
 5294 1228 5C150000 		.4byte	.LASF609
 5295 122c 29       		.sleb128 41
 5296 122d 0C       		.uleb128 0xc
 5297 122e 5F050000 		.4byte	.LASF610
 5298 1232 2A       		.sleb128 42
 5299 1233 0C       		.uleb128 0xc
 5300 1234 6A1E0000 		.4byte	.LASF611
 5301 1238 2B       		.sleb128 43
 5302 1239 0C       		.uleb128 0xc
 5303 123a BB1C0000 		.4byte	.LASF612
 5304 123e 2C       		.sleb128 44
 5305 123f 0C       		.uleb128 0xc
 5306 1240 D02F0000 		.4byte	.LASF613
 5307 1244 2D       		.sleb128 45
 5308 1245 0C       		.uleb128 0xc
 5309 1246 94100000 		.4byte	.LASF614
 5310 124a 2E       		.sleb128 46
 5311 124b 0C       		.uleb128 0xc
 5312 124c 111E0000 		.4byte	.LASF615
 5313 1250 2F       		.sleb128 47
 5314 1251 0C       		.uleb128 0xc
 5315 1252 CE2A0000 		.4byte	.LASF616
 5316 1256 30       		.sleb128 48
 5317 1257 0C       		.uleb128 0xc
 5318 1258 54230000 		.4byte	.LASF617
 5319 125c 31       		.sleb128 49
 5320 125d 0C       		.uleb128 0xc
 5321 125e 7C230000 		.4byte	.LASF618
 5322 1262 32       		.sleb128 50
 5323 1263 0C       		.uleb128 0xc
 5324 1264 1A040000 		.4byte	.LASF619
 5325 1268 33       		.sleb128 51
 5326 1269 0C       		.uleb128 0xc
 5327 126a 54260000 		.4byte	.LASF620
ARM GAS  C:\Users\AHMEDH~1\AppData\Local\Temp\cclxJjJK.s 			page 127


 5328 126e 34       		.sleb128 52
 5329 126f 0C       		.uleb128 0xc
 5330 1270 B22B0000 		.4byte	.LASF621
 5331 1274 35       		.sleb128 53
 5332 1275 0C       		.uleb128 0xc
 5333 1276 76080000 		.4byte	.LASF622
 5334 127a 36       		.sleb128 54
 5335 127b 00       		.byte	0
 5336 127c 15       		.uleb128 0x15
 5337 127d 04380000 		.4byte	.LASF623
 5338 1281 040C     		.2byte	0xc04
 5339 1283 08       		.byte	0x8
 5340 1284 1E01     		.2byte	0x11e
 5341 1286 A5120000 		.4byte	0x12a5
 5342 128a 0F       		.uleb128 0xf
 5343 128b F7380000 		.4byte	.LASF561
 5344 128f 08       		.byte	0x8
 5345 1290 1F01     		.2byte	0x11f
 5346 1292 B4000000 		.4byte	0xb4
 5347 1296 00       		.byte	0
 5348 1297 0F       		.uleb128 0xf
 5349 1298 25060000 		.4byte	.LASF624
 5350 129c 08       		.byte	0x8
 5351 129d 2001     		.2byte	0x120
 5352 129f A5120000 		.4byte	0x12a5
 5353 12a3 02       		.byte	0x2
 5354 12a4 00       		.byte	0
 5355 12a5 09       		.uleb128 0x9
 5356 12a6 A9000000 		.4byte	0xa9
 5357 12aa B6120000 		.4byte	0x12b6
 5358 12ae 16       		.uleb128 0x16
 5359 12af 76000000 		.4byte	0x76
 5360 12b3 FF0B     		.2byte	0xbff
 5361 12b5 00       		.byte	0
 5362 12b6 15       		.uleb128 0x15
 5363 12b7 94340000 		.4byte	.LASF625
 5364 12bb 7001     		.2byte	0x170
 5365 12bd 08       		.byte	0x8
 5366 12be 6401     		.2byte	0x164
 5367 12c0 D2150000 		.4byte	0x15d2
 5368 12c4 0F       		.uleb128 0xf
 5369 12c5 FA110000 		.4byte	.LASF626
 5370 12c9 08       		.byte	0x8
 5371 12ca 6501     		.2byte	0x165
 5372 12cc A9000000 		.4byte	0xa9
 5373 12d0 00       		.byte	0
 5374 12d1 0F       		.uleb128 0xf
 5375 12d2 71070000 		.4byte	.LASF627
 5376 12d6 08       		.byte	0x8
 5377 12d7 6601     		.2byte	0x166
 5378 12d9 A9000000 		.4byte	0xa9
 5379 12dd 01       		.byte	0x1
 5380 12de 0F       		.uleb128 0xf
 5381 12df 39350000 		.4byte	.LASF628
 5382 12e3 08       		.byte	0x8
 5383 12e4 6701     		.2byte	0x167
 5384 12e6 D2150000 		.4byte	0x15d2
ARM GAS  C:\Users\AHMEDH~1\AppData\Local\Temp\cclxJjJK.s 			page 128


 5385 12ea 02       		.byte	0x2
 5386 12eb 0F       		.uleb128 0xf
 5387 12ec C2360000 		.4byte	.LASF629
 5388 12f0 08       		.byte	0x8
 5389 12f1 6801     		.2byte	0x168
 5390 12f3 A9000000 		.4byte	0xa9
 5391 12f7 0B       		.byte	0xb
 5392 12f8 0F       		.uleb128 0xf
 5393 12f9 69010000 		.4byte	.LASF630
 5394 12fd 08       		.byte	0x8
 5395 12fe 6901     		.2byte	0x169
 5396 1300 E2150000 		.4byte	0x15e2
 5397 1304 0C       		.byte	0xc
 5398 1305 0F       		.uleb128 0xf
 5399 1306 11340000 		.4byte	.LASF631
 5400 130a 08       		.byte	0x8
 5401 130b 6A01     		.2byte	0x16a
 5402 130d A9000000 		.4byte	0xa9
 5403 1311 18       		.byte	0x18
 5404 1312 0F       		.uleb128 0xf
 5405 1313 AD130000 		.4byte	.LASF632
 5406 1317 08       		.byte	0x8
 5407 1318 6B01     		.2byte	0x16b
 5408 131a A9000000 		.4byte	0xa9
 5409 131e 19       		.byte	0x19
 5410 131f 0F       		.uleb128 0xf
 5411 1320 F0030000 		.4byte	.LASF633
 5412 1324 08       		.byte	0x8
 5413 1325 6C01     		.2byte	0x16c
 5414 1327 E2150000 		.4byte	0x15e2
 5415 132b 1A       		.byte	0x1a
 5416 132c 0F       		.uleb128 0xf
 5417 132d 06190000 		.4byte	.LASF634
 5418 1331 08       		.byte	0x8
 5419 1332 6D01     		.2byte	0x16d
 5420 1334 A9000000 		.4byte	0xa9
 5421 1338 26       		.byte	0x26
 5422 1339 0F       		.uleb128 0xf
 5423 133a 4E0E0000 		.4byte	.LASF635
 5424 133e 08       		.byte	0x8
 5425 133f 6E01     		.2byte	0x16e
 5426 1341 A9000000 		.4byte	0xa9
 5427 1345 27       		.byte	0x27
 5428 1346 0F       		.uleb128 0xf
 5429 1347 07050000 		.4byte	.LASF636
 5430 134b 08       		.byte	0x8
 5431 134c 6F01     		.2byte	0x16f
 5432 134e A9000000 		.4byte	0xa9
 5433 1352 28       		.byte	0x28
 5434 1353 0F       		.uleb128 0xf
 5435 1354 F0270000 		.4byte	.LASF637
 5436 1358 08       		.byte	0x8
 5437 1359 7001     		.2byte	0x170
 5438 135b A9000000 		.4byte	0xa9
 5439 135f 29       		.byte	0x29
 5440 1360 0F       		.uleb128 0xf
 5441 1361 6F2F0000 		.4byte	.LASF638
ARM GAS  C:\Users\AHMEDH~1\AppData\Local\Temp\cclxJjJK.s 			page 129


 5442 1365 08       		.byte	0x8
 5443 1366 7101     		.2byte	0x171
 5444 1368 F6000000 		.4byte	0xf6
 5445 136c 2A       		.byte	0x2a
 5446 136d 0F       		.uleb128 0xf
 5447 136e 30020000 		.4byte	.LASF639
 5448 1372 08       		.byte	0x8
 5449 1373 7201     		.2byte	0x172
 5450 1375 19110000 		.4byte	0x1119
 5451 1379 2E       		.byte	0x2e
 5452 137a 0F       		.uleb128 0xf
 5453 137b 75110000 		.4byte	.LASF640
 5454 137f 08       		.byte	0x8
 5455 1380 7301     		.2byte	0x173
 5456 1382 19110000 		.4byte	0x1119
 5457 1386 31       		.byte	0x31
 5458 1387 0F       		.uleb128 0xf
 5459 1388 8F230000 		.4byte	.LASF641
 5460 138c 08       		.byte	0x8
 5461 138d 7401     		.2byte	0x174
 5462 138f F6000000 		.4byte	0xf6
 5463 1393 34       		.byte	0x34
 5464 1394 0F       		.uleb128 0xf
 5465 1395 E7210000 		.4byte	.LASF642
 5466 1399 08       		.byte	0x8
 5467 139a 7501     		.2byte	0x175
 5468 139c E0000000 		.4byte	0xe0
 5469 13a0 38       		.byte	0x38
 5470 13a1 0F       		.uleb128 0xf
 5471 13a2 AE140000 		.4byte	.LASF643
 5472 13a6 08       		.byte	0x8
 5473 13a7 7601     		.2byte	0x176
 5474 13a9 E0000000 		.4byte	0xe0
 5475 13ad 3A       		.byte	0x3a
 5476 13ae 0F       		.uleb128 0xf
 5477 13af BB060000 		.4byte	.LASF644
 5478 13b3 08       		.byte	0x8
 5479 13b4 7701     		.2byte	0x177
 5480 13b6 A9000000 		.4byte	0xa9
 5481 13ba 3C       		.byte	0x3c
 5482 13bb 0F       		.uleb128 0xf
 5483 13bc C2180000 		.4byte	.LASF645
 5484 13c0 08       		.byte	0x8
 5485 13c1 7801     		.2byte	0x178
 5486 13c3 A9000000 		.4byte	0xa9
 5487 13c7 3D       		.byte	0x3d
 5488 13c8 0F       		.uleb128 0xf
 5489 13c9 92060000 		.4byte	.LASF646
 5490 13cd 08       		.byte	0x8
 5491 13ce 7901     		.2byte	0x179
 5492 13d0 A9000000 		.4byte	0xa9
 5493 13d4 3E       		.byte	0x3e
 5494 13d5 0F       		.uleb128 0xf
 5495 13d6 18090000 		.4byte	.LASF647
 5496 13da 08       		.byte	0x8
 5497 13db 7A01     		.2byte	0x17a
 5498 13dd B4000000 		.4byte	0xb4
ARM GAS  C:\Users\AHMEDH~1\AppData\Local\Temp\cclxJjJK.s 			page 130


 5499 13e1 40       		.byte	0x40
 5500 13e2 0F       		.uleb128 0xf
 5501 13e3 B9380000 		.4byte	.LASF648
 5502 13e7 08       		.byte	0x8
 5503 13e8 7B01     		.2byte	0x17b
 5504 13ea B4000000 		.4byte	0xb4
 5505 13ee 42       		.byte	0x42
 5506 13ef 0F       		.uleb128 0xf
 5507 13f0 63160000 		.4byte	.LASF649
 5508 13f4 08       		.byte	0x8
 5509 13f5 7C01     		.2byte	0x17c
 5510 13f7 CA000000 		.4byte	0xca
 5511 13fb 48       		.byte	0x48
 5512 13fc 0F       		.uleb128 0xf
 5513 13fd 850E0000 		.4byte	.LASF650
 5514 1401 08       		.byte	0x8
 5515 1402 7D01     		.2byte	0x17d
 5516 1404 A9000000 		.4byte	0xa9
 5517 1408 50       		.byte	0x50
 5518 1409 0F       		.uleb128 0xf
 5519 140a 813B0000 		.4byte	.LASF651
 5520 140e 08       		.byte	0x8
 5521 140f 7E01     		.2byte	0x17e
 5522 1411 A9000000 		.4byte	0xa9
 5523 1415 51       		.byte	0x51
 5524 1416 0F       		.uleb128 0xf
 5525 1417 ED380000 		.4byte	.LASF652
 5526 141b 08       		.byte	0x8
 5527 141c 8001     		.2byte	0x180
 5528 141e A9000000 		.4byte	0xa9
 5529 1422 52       		.byte	0x52
 5530 1423 0F       		.uleb128 0xf
 5531 1424 B31F0000 		.4byte	.LASF653
 5532 1428 08       		.byte	0x8
 5533 1429 8101     		.2byte	0x181
 5534 142b E0000000 		.4byte	0xe0
 5535 142f 53       		.byte	0x53
 5536 1430 0F       		.uleb128 0xf
 5537 1431 3A240000 		.4byte	.LASF654
 5538 1435 08       		.byte	0x8
 5539 1436 8201     		.2byte	0x182
 5540 1438 F6000000 		.4byte	0xf6
 5541 143c 55       		.byte	0x55
 5542 143d 0F       		.uleb128 0xf
 5543 143e DD2E0000 		.4byte	.LASF655
 5544 1442 08       		.byte	0x8
 5545 1443 8301     		.2byte	0x183
 5546 1445 CA000000 		.4byte	0xca
 5547 1449 60       		.byte	0x60
 5548 144a 0F       		.uleb128 0xf
 5549 144b C42C0000 		.4byte	.LASF656
 5550 144f 08       		.byte	0x8
 5551 1450 8401     		.2byte	0x184
 5552 1452 E0000000 		.4byte	0xe0
 5553 1456 68       		.byte	0x68
 5554 1457 0F       		.uleb128 0xf
 5555 1458 44340000 		.4byte	.LASF657
ARM GAS  C:\Users\AHMEDH~1\AppData\Local\Temp\cclxJjJK.s 			page 131


 5556 145c 08       		.byte	0x8
 5557 145d 8501     		.2byte	0x185
 5558 145f F6000000 		.4byte	0xf6
 5559 1463 6A       		.byte	0x6a
 5560 1464 0F       		.uleb128 0xf
 5561 1465 E1030000 		.4byte	.LASF658
 5562 1469 08       		.byte	0x8
 5563 146a 8601     		.2byte	0x186
 5564 146c CA000000 		.4byte	0xca
 5565 1470 70       		.byte	0x70
 5566 1471 0F       		.uleb128 0xf
 5567 1472 39250000 		.4byte	.LASF659
 5568 1476 08       		.byte	0x8
 5569 1477 8701     		.2byte	0x187
 5570 1479 E0000000 		.4byte	0xe0
 5571 147d 78       		.byte	0x78
 5572 147e 0F       		.uleb128 0xf
 5573 147f 2C150000 		.4byte	.LASF660
 5574 1483 08       		.byte	0x8
 5575 1484 8801     		.2byte	0x188
 5576 1486 F6000000 		.4byte	0xf6
 5577 148a 7A       		.byte	0x7a
 5578 148b 0F       		.uleb128 0xf
 5579 148c 69210000 		.4byte	.LASF661
 5580 1490 08       		.byte	0x8
 5581 1491 8901     		.2byte	0x189
 5582 1493 CA000000 		.4byte	0xca
 5583 1497 80       		.byte	0x80
 5584 1498 0F       		.uleb128 0xf
 5585 1499 CF230000 		.4byte	.LASF662
 5586 149d 08       		.byte	0x8
 5587 149e 8A01     		.2byte	0x18a
 5588 14a0 E0000000 		.4byte	0xe0
 5589 14a4 88       		.byte	0x88
 5590 14a5 0F       		.uleb128 0xf
 5591 14a6 27310000 		.4byte	.LASF663
 5592 14aa 08       		.byte	0x8
 5593 14ab 8B01     		.2byte	0x18b
 5594 14ad F6000000 		.4byte	0xf6
 5595 14b1 8A       		.byte	0x8a
 5596 14b2 0F       		.uleb128 0xf
 5597 14b3 8A000000 		.4byte	.LASF664
 5598 14b7 08       		.byte	0x8
 5599 14b8 8C01     		.2byte	0x18c
 5600 14ba CA000000 		.4byte	0xca
 5601 14be 90       		.byte	0x90
 5602 14bf 0F       		.uleb128 0xf
 5603 14c0 2A210000 		.4byte	.LASF665
 5604 14c4 08       		.byte	0x8
 5605 14c5 8D01     		.2byte	0x18d
 5606 14c7 E0000000 		.4byte	0xe0
 5607 14cb 98       		.byte	0x98
 5608 14cc 0F       		.uleb128 0xf
 5609 14cd ED1A0000 		.4byte	.LASF666
 5610 14d1 08       		.byte	0x8
 5611 14d2 8E01     		.2byte	0x18e
 5612 14d4 F6000000 		.4byte	0xf6
ARM GAS  C:\Users\AHMEDH~1\AppData\Local\Temp\cclxJjJK.s 			page 132


 5613 14d8 9A       		.byte	0x9a
 5614 14d9 0F       		.uleb128 0xf
 5615 14da 3A280000 		.4byte	.LASF667
 5616 14de 08       		.byte	0x8
 5617 14df 8F01     		.2byte	0x18f
 5618 14e1 CA000000 		.4byte	0xca
 5619 14e5 A0       		.byte	0xa0
 5620 14e6 0F       		.uleb128 0xf
 5621 14e7 9E1C0000 		.4byte	.LASF668
 5622 14eb 08       		.byte	0x8
 5623 14ec 9001     		.2byte	0x190
 5624 14ee 26010000 		.4byte	0x126
 5625 14f2 A8       		.byte	0xa8
 5626 14f3 0F       		.uleb128 0xf
 5627 14f4 21320000 		.4byte	.LASF669
 5628 14f8 08       		.byte	0x8
 5629 14f9 9101     		.2byte	0x191
 5630 14fb 26010000 		.4byte	0x126
 5631 14ff C8       		.byte	0xc8
 5632 1500 0F       		.uleb128 0xf
 5633 1501 A3210000 		.4byte	.LASF670
 5634 1505 08       		.byte	0x8
 5635 1506 9201     		.2byte	0x192
 5636 1508 26010000 		.4byte	0x126
 5637 150c E8       		.byte	0xe8
 5638 150d 17       		.uleb128 0x17
 5639 150e C32A0000 		.4byte	.LASF671
 5640 1512 08       		.byte	0x8
 5641 1513 9301     		.2byte	0x193
 5642 1515 26010000 		.4byte	0x126
 5643 1519 0801     		.2byte	0x108
 5644 151b 17       		.uleb128 0x17
 5645 151c DD070000 		.4byte	.LASF672
 5646 1520 08       		.byte	0x8
 5647 1521 9401     		.2byte	0x194
 5648 1523 F6000000 		.4byte	0xf6
 5649 1527 2801     		.2byte	0x128
 5650 1529 17       		.uleb128 0x17
 5651 152a 44360000 		.4byte	.LASF673
 5652 152e 08       		.byte	0x8
 5653 152f 9501     		.2byte	0x195
 5654 1531 E0000000 		.4byte	0xe0
 5655 1535 2C01     		.2byte	0x12c
 5656 1537 17       		.uleb128 0x17
 5657 1538 B5090000 		.4byte	.LASF674
 5658 153c 08       		.byte	0x8
 5659 153d 9601     		.2byte	0x196
 5660 153f F2150000 		.4byte	0x15f2
 5661 1543 2E01     		.2byte	0x12e
 5662 1545 17       		.uleb128 0x17
 5663 1546 3A1A0000 		.4byte	.LASF675
 5664 154a 08       		.byte	0x8
 5665 154b 9701     		.2byte	0x197
 5666 154d E2150000 		.4byte	0x15e2
 5667 1551 4701     		.2byte	0x147
 5668 1553 17       		.uleb128 0x17
 5669 1554 3C020000 		.4byte	.LASF676
ARM GAS  C:\Users\AHMEDH~1\AppData\Local\Temp\cclxJjJK.s 			page 133


 5670 1558 08       		.byte	0x8
 5671 1559 9801     		.2byte	0x198
 5672 155b A9000000 		.4byte	0xa9
 5673 155f 5301     		.2byte	0x153
 5674 1561 17       		.uleb128 0x17
 5675 1562 BD300000 		.4byte	.LASF677
 5676 1566 08       		.byte	0x8
 5677 1567 9901     		.2byte	0x199
 5678 1569 A9000000 		.4byte	0xa9
 5679 156d 5401     		.2byte	0x154
 5680 156f 17       		.uleb128 0x17
 5681 1570 25040000 		.4byte	.LASF678
 5682 1574 08       		.byte	0x8
 5683 1575 9A01     		.2byte	0x19a
 5684 1577 E2150000 		.4byte	0x15e2
 5685 157b 5501     		.2byte	0x155
 5686 157d 17       		.uleb128 0x17
 5687 157e 57250000 		.4byte	.LASF679
 5688 1582 08       		.byte	0x8
 5689 1583 9B01     		.2byte	0x19b
 5690 1585 A9000000 		.4byte	0xa9
 5691 1589 6101     		.2byte	0x161
 5692 158b 17       		.uleb128 0x17
 5693 158c EC2A0000 		.4byte	.LASF680
 5694 1590 08       		.byte	0x8
 5695 1591 9C01     		.2byte	0x19c
 5696 1593 A9000000 		.4byte	0xa9
 5697 1597 6201     		.2byte	0x162
 5698 1599 17       		.uleb128 0x17
 5699 159a BB080000 		.4byte	.LASF681
 5700 159e 08       		.byte	0x8
 5701 159f 9D01     		.2byte	0x19d
 5702 15a1 A9000000 		.4byte	0xa9
 5703 15a5 6301     		.2byte	0x163
 5704 15a7 17       		.uleb128 0x17
 5705 15a8 163B0000 		.4byte	.LASF682
 5706 15ac 08       		.byte	0x8
 5707 15ad 9E01     		.2byte	0x19e
 5708 15af B4000000 		.4byte	0xb4
 5709 15b3 6401     		.2byte	0x164
 5710 15b5 17       		.uleb128 0x17
 5711 15b6 7A090000 		.4byte	.LASF683
 5712 15ba 08       		.byte	0x8
 5713 15bb 9F01     		.2byte	0x19f
 5714 15bd A9000000 		.4byte	0xa9
 5715 15c1 6601     		.2byte	0x166
 5716 15c3 17       		.uleb128 0x17
 5717 15c4 6E130000 		.4byte	.LASF684
 5718 15c8 08       		.byte	0x8
 5719 15c9 A101     		.2byte	0x1a1
 5720 15cb BF000000 		.4byte	0xbf
 5721 15cf 6801     		.2byte	0x168
 5722 15d1 00       		.byte	0
 5723 15d2 09       		.uleb128 0x9
 5724 15d3 A9000000 		.4byte	0xa9
 5725 15d7 E2150000 		.4byte	0x15e2
 5726 15db 0A       		.uleb128 0xa
ARM GAS  C:\Users\AHMEDH~1\AppData\Local\Temp\cclxJjJK.s 			page 134


 5727 15dc 76000000 		.4byte	0x76
 5728 15e0 08       		.byte	0x8
 5729 15e1 00       		.byte	0
 5730 15e2 09       		.uleb128 0x9
 5731 15e3 A9000000 		.4byte	0xa9
 5732 15e7 F2150000 		.4byte	0x15f2
 5733 15eb 0A       		.uleb128 0xa
 5734 15ec 76000000 		.4byte	0x76
 5735 15f0 0B       		.byte	0xb
 5736 15f1 00       		.byte	0
 5737 15f2 09       		.uleb128 0x9
 5738 15f3 A9000000 		.4byte	0xa9
 5739 15f7 02160000 		.4byte	0x1602
 5740 15fb 0A       		.uleb128 0xa
 5741 15fc 76000000 		.4byte	0x76
 5742 1600 18       		.byte	0x18
 5743 1601 00       		.byte	0
 5744 1602 15       		.uleb128 0x15
 5745 1603 E4040000 		.4byte	.LASF685
 5746 1607 8801     		.2byte	0x188
 5747 1609 08       		.byte	0x8
 5748 160a AC01     		.2byte	0x1ac
 5749 160c AA170000 		.4byte	0x17aa
 5750 1610 0F       		.uleb128 0xf
 5751 1611 89230000 		.4byte	.LASF686
 5752 1615 08       		.byte	0x8
 5753 1616 AD01     		.2byte	0x1ad
 5754 1618 A9000000 		.4byte	0xa9
 5755 161c 00       		.byte	0
 5756 161d 0F       		.uleb128 0xf
 5757 161e 8B2F0000 		.4byte	.LASF687
 5758 1622 08       		.byte	0x8
 5759 1623 AE01     		.2byte	0x1ae
 5760 1625 A9000000 		.4byte	0xa9
 5761 1629 01       		.byte	0x1
 5762 162a 0F       		.uleb128 0xf
 5763 162b 1D360000 		.4byte	.LASF688
 5764 162f 08       		.byte	0x8
 5765 1630 AF01     		.2byte	0x1af
 5766 1632 A9000000 		.4byte	0xa9
 5767 1636 02       		.byte	0x2
 5768 1637 0F       		.uleb128 0xf
 5769 1638 25360000 		.4byte	.LASF689
 5770 163c 08       		.byte	0x8
 5771 163d B001     		.2byte	0x1b0
 5772 163f A9000000 		.4byte	0xa9
 5773 1643 03       		.byte	0x3
 5774 1644 0F       		.uleb128 0xf
 5775 1645 DF2A0000 		.4byte	.LASF690
 5776 1649 08       		.byte	0x8
 5777 164a B101     		.2byte	0x1b1
 5778 164c 330E0000 		.4byte	0xe33
 5779 1650 04       		.byte	0x4
 5780 1651 0F       		.uleb128 0xf
 5781 1652 6C0D0000 		.4byte	.LASF691
 5782 1656 08       		.byte	0x8
 5783 1657 B201     		.2byte	0x1b2
ARM GAS  C:\Users\AHMEDH~1\AppData\Local\Temp\cclxJjJK.s 			page 135


 5784 1659 A9000000 		.4byte	0xa9
 5785 165d 0A       		.byte	0xa
 5786 165e 0F       		.uleb128 0xf
 5787 165f AF0C0000 		.4byte	.LASF692
 5788 1663 08       		.byte	0x8
 5789 1664 B301     		.2byte	0x1b3
 5790 1666 E0000000 		.4byte	0xe0
 5791 166a 0B       		.byte	0xb
 5792 166b 0F       		.uleb128 0xf
 5793 166c 99180000 		.4byte	.LASF693
 5794 1670 08       		.byte	0x8
 5795 1671 B401     		.2byte	0x1b4
 5796 1673 E2150000 		.4byte	0x15e2
 5797 1677 0D       		.byte	0xd
 5798 1678 0F       		.uleb128 0xf
 5799 1679 C53A0000 		.4byte	.LASF694
 5800 167d 08       		.byte	0x8
 5801 167e B501     		.2byte	0x1b5
 5802 1680 F6000000 		.4byte	0xf6
 5803 1684 19       		.byte	0x19
 5804 1685 0F       		.uleb128 0xf
 5805 1686 2B2B0000 		.4byte	.LASF695
 5806 168a 08       		.byte	0x8
 5807 168b B601     		.2byte	0x1b6
 5808 168d AA170000 		.4byte	0x17aa
 5809 1691 1D       		.byte	0x1d
 5810 1692 0F       		.uleb128 0xf
 5811 1693 0B2D0000 		.4byte	.LASF696
 5812 1697 08       		.byte	0x8
 5813 1698 B701     		.2byte	0x1b7
 5814 169a BA170000 		.4byte	0x17ba
 5815 169e 4B       		.byte	0x4b
 5816 169f 0F       		.uleb128 0xf
 5817 16a0 2B0E0000 		.4byte	.LASF697
 5818 16a4 08       		.byte	0x8
 5819 16a5 B801     		.2byte	0x1b8
 5820 16a7 A9000000 		.4byte	0xa9
 5821 16ab 62       		.byte	0x62
 5822 16ac 0F       		.uleb128 0xf
 5823 16ad 96350000 		.4byte	.LASF698
 5824 16b1 08       		.byte	0x8
 5825 16b2 B901     		.2byte	0x1b9
 5826 16b4 A9000000 		.4byte	0xa9
 5827 16b8 63       		.byte	0x63
 5828 16b9 0F       		.uleb128 0xf
 5829 16ba EE250000 		.4byte	.LASF699
 5830 16be 08       		.byte	0x8
 5831 16bf BA01     		.2byte	0x1ba
 5832 16c1 A9000000 		.4byte	0xa9
 5833 16c5 64       		.byte	0x64
 5834 16c6 0F       		.uleb128 0xf
 5835 16c7 2D360000 		.4byte	.LASF700
 5836 16cb 08       		.byte	0x8
 5837 16cc BB01     		.2byte	0x1bb
 5838 16ce A9000000 		.4byte	0xa9
 5839 16d2 65       		.byte	0x65
 5840 16d3 0F       		.uleb128 0xf
ARM GAS  C:\Users\AHMEDH~1\AppData\Local\Temp\cclxJjJK.s 			page 136


 5841 16d4 7B310000 		.4byte	.LASF701
 5842 16d8 08       		.byte	0x8
 5843 16d9 BC01     		.2byte	0x1bc
 5844 16db A9000000 		.4byte	0xa9
 5845 16df 66       		.byte	0x66
 5846 16e0 0F       		.uleb128 0xf
 5847 16e1 5A170000 		.4byte	.LASF702
 5848 16e5 08       		.byte	0x8
 5849 16e6 BD01     		.2byte	0x1bd
 5850 16e8 19110000 		.4byte	0x1119
 5851 16ec 67       		.byte	0x67
 5852 16ed 0F       		.uleb128 0xf
 5853 16ee FC2C0000 		.4byte	.LASF703
 5854 16f2 08       		.byte	0x8
 5855 16f3 BE01     		.2byte	0x1be
 5856 16f5 A9000000 		.4byte	0xa9
 5857 16f9 6A       		.byte	0x6a
 5858 16fa 0F       		.uleb128 0xf
 5859 16fb B2340000 		.4byte	.LASF704
 5860 16ff 08       		.byte	0x8
 5861 1700 BF01     		.2byte	0x1bf
 5862 1702 56010000 		.4byte	0x156
 5863 1706 6B       		.byte	0x6b
 5864 1707 0F       		.uleb128 0xf
 5865 1708 4A180000 		.4byte	.LASF705
 5866 170c 08       		.byte	0x8
 5867 170d C001     		.2byte	0x1c0
 5868 170f CA170000 		.4byte	0x17ca
 5869 1713 7F       		.byte	0x7f
 5870 1714 0F       		.uleb128 0xf
 5871 1715 DE0D0000 		.4byte	.LASF706
 5872 1719 08       		.byte	0x8
 5873 171a C101     		.2byte	0x1c1
 5874 171c 36010000 		.4byte	0x136
 5875 1720 9D       		.byte	0x9d
 5876 1721 0F       		.uleb128 0xf
 5877 1722 72030000 		.4byte	.LASF707
 5878 1726 08       		.byte	0x8
 5879 1727 C201     		.2byte	0x1c2
 5880 1729 36010000 		.4byte	0x136
 5881 172d AD       		.byte	0xad
 5882 172e 0F       		.uleb128 0xf
 5883 172f ED020000 		.4byte	.LASF708
 5884 1733 08       		.byte	0x8
 5885 1734 C301     		.2byte	0x1c3
 5886 1736 26010000 		.4byte	0x126
 5887 173a BD       		.byte	0xbd
 5888 173b 0F       		.uleb128 0xf
 5889 173c 54380000 		.4byte	.LASF709
 5890 1740 08       		.byte	0x8
 5891 1741 C401     		.2byte	0x1c4
 5892 1743 26010000 		.4byte	0x126
 5893 1747 DD       		.byte	0xdd
 5894 1748 0F       		.uleb128 0xf
 5895 1749 450B0000 		.4byte	.LASF710
 5896 174d 08       		.byte	0x8
 5897 174e C501     		.2byte	0x1c5
ARM GAS  C:\Users\AHMEDH~1\AppData\Local\Temp\cclxJjJK.s 			page 137


 5898 1750 26010000 		.4byte	0x126
 5899 1754 FD       		.byte	0xfd
 5900 1755 17       		.uleb128 0x17
 5901 1756 36030000 		.4byte	.LASF711
 5902 175a 08       		.byte	0x8
 5903 175b C601     		.2byte	0x1c6
 5904 175d 26010000 		.4byte	0x126
 5905 1761 1D01     		.2byte	0x11d
 5906 1763 17       		.uleb128 0x17
 5907 1764 13200000 		.4byte	.LASF712
 5908 1768 08       		.byte	0x8
 5909 1769 C701     		.2byte	0x1c7
 5910 176b 26010000 		.4byte	0x126
 5911 176f 3D01     		.2byte	0x13d
 5912 1771 17       		.uleb128 0x17
 5913 1772 A7360000 		.4byte	.LASF713
 5914 1776 08       		.byte	0x8
 5915 1777 C801     		.2byte	0x1c8
 5916 1779 26010000 		.4byte	0x126
 5917 177d 5D01     		.2byte	0x15d
 5918 177f 17       		.uleb128 0x17
 5919 1780 86170000 		.4byte	.LASF714
 5920 1784 08       		.byte	0x8
 5921 1785 C901     		.2byte	0x1c9
 5922 1787 F6000000 		.4byte	0xf6
 5923 178b 7D01     		.2byte	0x17d
 5924 178d 17       		.uleb128 0x17
 5925 178e 4A1C0000 		.4byte	.LASF715
 5926 1792 08       		.byte	0x8
 5927 1793 CA01     		.2byte	0x1ca
 5928 1795 E0000000 		.4byte	0xe0
 5929 1799 8101     		.2byte	0x181
 5930 179b 17       		.uleb128 0x17
 5931 179c 6E130000 		.4byte	.LASF684
 5932 17a0 08       		.byte	0x8
 5933 17a1 CB01     		.2byte	0x1cb
 5934 17a3 B4000000 		.4byte	0xb4
 5935 17a7 8401     		.2byte	0x184
 5936 17a9 00       		.byte	0
 5937 17aa 09       		.uleb128 0x9
 5938 17ab A9000000 		.4byte	0xa9
 5939 17af BA170000 		.4byte	0x17ba
 5940 17b3 0A       		.uleb128 0xa
 5941 17b4 76000000 		.4byte	0x76
 5942 17b8 2D       		.byte	0x2d
 5943 17b9 00       		.byte	0
 5944 17ba 09       		.uleb128 0x9
 5945 17bb A9000000 		.4byte	0xa9
 5946 17bf CA170000 		.4byte	0x17ca
 5947 17c3 0A       		.uleb128 0xa
 5948 17c4 76000000 		.4byte	0x76
 5949 17c8 16       		.byte	0x16
 5950 17c9 00       		.byte	0
 5951 17ca 09       		.uleb128 0x9
 5952 17cb A9000000 		.4byte	0xa9
 5953 17cf DA170000 		.4byte	0x17da
 5954 17d3 0A       		.uleb128 0xa
ARM GAS  C:\Users\AHMEDH~1\AppData\Local\Temp\cclxJjJK.s 			page 138


 5955 17d4 76000000 		.4byte	0x76
 5956 17d8 1D       		.byte	0x1d
 5957 17d9 00       		.byte	0
 5958 17da 0E       		.uleb128 0xe
 5959 17db EA260000 		.4byte	.LASF716
 5960 17df 24       		.byte	0x24
 5961 17e0 08       		.byte	0x8
 5962 17e1 CE01     		.2byte	0x1ce
 5963 17e3 43180000 		.4byte	0x1843
 5964 17e7 0F       		.uleb128 0xf
 5965 17e8 791F0000 		.4byte	.LASF717
 5966 17ec 08       		.byte	0x8
 5967 17ed CF01     		.2byte	0x1cf
 5968 17ef 09110000 		.4byte	0x1109
 5969 17f3 00       		.byte	0
 5970 17f4 0F       		.uleb128 0xf
 5971 17f5 4D2A0000 		.4byte	.LASF718
 5972 17f9 08       		.byte	0x8
 5973 17fa D001     		.2byte	0x1d0
 5974 17fc 09110000 		.4byte	0x1109
 5975 1800 05       		.byte	0x5
 5976 1801 0F       		.uleb128 0xf
 5977 1802 C31E0000 		.4byte	.LASF719
 5978 1806 08       		.byte	0x8
 5979 1807 D101     		.2byte	0x1d1
 5980 1809 A9000000 		.4byte	0xa9
 5981 180d 0A       		.byte	0xa
 5982 180e 0F       		.uleb128 0xf
 5983 180f 073C0000 		.4byte	.LASF720
 5984 1813 08       		.byte	0x8
 5985 1814 D201     		.2byte	0x1d2
 5986 1816 A9000000 		.4byte	0xa9
 5987 181a 0B       		.byte	0xb
 5988 181b 0F       		.uleb128 0xf
 5989 181c B6310000 		.4byte	.LASF721
 5990 1820 08       		.byte	0x8
 5991 1821 D301     		.2byte	0x1d3
 5992 1823 A9000000 		.4byte	0xa9
 5993 1827 0C       		.byte	0xc
 5994 1828 0F       		.uleb128 0xf
 5995 1829 4A180000 		.4byte	.LASF705
 5996 182d 08       		.byte	0x8
 5997 182e D401     		.2byte	0x1d4
 5998 1830 56010000 		.4byte	0x156
 5999 1834 0D       		.byte	0xd
 6000 1835 0F       		.uleb128 0xf
 6001 1836 6E130000 		.4byte	.LASF684
 6002 183a 08       		.byte	0x8
 6003 183b D501     		.2byte	0x1d5
 6004 183d B4000000 		.4byte	0xb4
 6005 1841 22       		.byte	0x22
 6006 1842 00       		.byte	0
 6007 1843 0E       		.uleb128 0xe
 6008 1844 12290000 		.4byte	.LASF722
 6009 1848 38       		.byte	0x38
 6010 1849 08       		.byte	0x8
 6011 184a D801     		.2byte	0x1d8
ARM GAS  C:\Users\AHMEDH~1\AppData\Local\Temp\cclxJjJK.s 			page 139


 6012 184c C6180000 		.4byte	0x18c6
 6013 1850 0F       		.uleb128 0xf
 6014 1851 F5110000 		.4byte	.LASF723
 6015 1855 08       		.byte	0x8
 6016 1856 D901     		.2byte	0x1d9
 6017 1858 A9000000 		.4byte	0xa9
 6018 185c 00       		.byte	0
 6019 185d 0F       		.uleb128 0xf
 6020 185e 591B0000 		.4byte	.LASF724
 6021 1862 08       		.byte	0x8
 6022 1863 DA01     		.2byte	0x1da
 6023 1865 16010000 		.4byte	0x116
 6024 1869 01       		.byte	0x1
 6025 186a 0F       		.uleb128 0xf
 6026 186b 51030000 		.4byte	.LASF725
 6027 186f 08       		.byte	0x8
 6028 1870 DB01     		.2byte	0x1db
 6029 1872 E2150000 		.4byte	0x15e2
 6030 1876 0B       		.byte	0xb
 6031 1877 0F       		.uleb128 0xf
 6032 1878 C53A0000 		.4byte	.LASF694
 6033 187c 08       		.byte	0x8
 6034 187d DC01     		.2byte	0x1dc
 6035 187f F6000000 		.4byte	0xf6
 6036 1883 17       		.byte	0x17
 6037 1884 0F       		.uleb128 0xf
 6038 1885 FA030000 		.4byte	.LASF726
 6039 1889 08       		.byte	0x8
 6040 188a DD01     		.2byte	0x1dd
 6041 188c A9000000 		.4byte	0xa9
 6042 1890 1B       		.byte	0x1b
 6043 1891 0F       		.uleb128 0xf
 6044 1892 84050000 		.4byte	.LASF727
 6045 1896 08       		.byte	0x8
 6046 1897 DE01     		.2byte	0x1de
 6047 1899 E0000000 		.4byte	0xe0
 6048 189d 1C       		.byte	0x1c
 6049 189e 0F       		.uleb128 0xf
 6050 189f 98360000 		.4byte	.LASF728
 6051 18a3 08       		.byte	0x8
 6052 18a4 DF01     		.2byte	0x1df
 6053 18a6 E0000000 		.4byte	0xe0
 6054 18aa 1E       		.byte	0x1e
 6055 18ab 0F       		.uleb128 0xf
 6056 18ac 4A180000 		.4byte	.LASF705
 6057 18b0 08       		.byte	0x8
 6058 18b1 E001     		.2byte	0x1e0
 6059 18b3 56010000 		.4byte	0x156
 6060 18b7 20       		.byte	0x20
 6061 18b8 0F       		.uleb128 0xf
 6062 18b9 6E130000 		.4byte	.LASF684
 6063 18bd 08       		.byte	0x8
 6064 18be E101     		.2byte	0x1e1
 6065 18c0 B4000000 		.4byte	0xb4
 6066 18c4 34       		.byte	0x34
 6067 18c5 00       		.byte	0
 6068 18c6 0E       		.uleb128 0xe
ARM GAS  C:\Users\AHMEDH~1\AppData\Local\Temp\cclxJjJK.s 			page 140


 6069 18c7 A8290000 		.4byte	.LASF729
 6070 18cb AC       		.byte	0xac
 6071 18cc 08       		.byte	0x8
 6072 18cd EC01     		.2byte	0x1ec
 6073 18cf 8E1A0000 		.4byte	0x1a8e
 6074 18d3 0F       		.uleb128 0xf
 6075 18d4 F5110000 		.4byte	.LASF723
 6076 18d8 08       		.byte	0x8
 6077 18d9 ED01     		.2byte	0x1ed
 6078 18db A9000000 		.4byte	0xa9
 6079 18df 00       		.byte	0
 6080 18e0 0F       		.uleb128 0xf
 6081 18e1 53340000 		.4byte	.LASF730
 6082 18e5 08       		.byte	0x8
 6083 18e6 EE01     		.2byte	0x1ee
 6084 18e8 16010000 		.4byte	0x116
 6085 18ec 01       		.byte	0x1
 6086 18ed 0F       		.uleb128 0xf
 6087 18ee BA180000 		.4byte	.LASF731
 6088 18f2 08       		.byte	0x8
 6089 18f3 EF01     		.2byte	0x1ef
 6090 18f5 16010000 		.4byte	0x116
 6091 18f9 0B       		.byte	0xb
 6092 18fa 0F       		.uleb128 0xf
 6093 18fb D0270000 		.4byte	.LASF732
 6094 18ff 08       		.byte	0x8
 6095 1900 F001     		.2byte	0x1f0
 6096 1902 E2150000 		.4byte	0x15e2
 6097 1906 15       		.byte	0x15
 6098 1907 0F       		.uleb128 0xf
 6099 1908 E30F0000 		.4byte	.LASF733
 6100 190c 08       		.byte	0x8
 6101 190d F101     		.2byte	0x1f1
 6102 190f A9000000 		.4byte	0xa9
 6103 1913 21       		.byte	0x21
 6104 1914 0F       		.uleb128 0xf
 6105 1915 AB190000 		.4byte	.LASF734
 6106 1919 08       		.byte	0x8
 6107 191a F201     		.2byte	0x1f2
 6108 191c A9000000 		.4byte	0xa9
 6109 1920 22       		.byte	0x22
 6110 1921 0F       		.uleb128 0xf
 6111 1922 5B0E0000 		.4byte	.LASF735
 6112 1926 08       		.byte	0x8
 6113 1927 F301     		.2byte	0x1f3
 6114 1929 E2150000 		.4byte	0x15e2
 6115 192d 23       		.byte	0x23
 6116 192e 0F       		.uleb128 0xf
 6117 192f 66230000 		.4byte	.LASF736
 6118 1933 08       		.byte	0x8
 6119 1934 F401     		.2byte	0x1f4
 6120 1936 A9000000 		.4byte	0xa9
 6121 193a 2F       		.byte	0x2f
 6122 193b 0F       		.uleb128 0xf
 6123 193c A2020000 		.4byte	.LASF737
 6124 1940 08       		.byte	0x8
 6125 1941 F501     		.2byte	0x1f5
ARM GAS  C:\Users\AHMEDH~1\AppData\Local\Temp\cclxJjJK.s 			page 141


 6126 1943 A9000000 		.4byte	0xa9
 6127 1947 30       		.byte	0x30
 6128 1948 0F       		.uleb128 0xf
 6129 1949 7E020000 		.4byte	.LASF738
 6130 194d 08       		.byte	0x8
 6131 194e F601     		.2byte	0x1f6
 6132 1950 E2150000 		.4byte	0x15e2
 6133 1954 31       		.byte	0x31
 6134 1955 0F       		.uleb128 0xf
 6135 1956 412B0000 		.4byte	.LASF739
 6136 195a 08       		.byte	0x8
 6137 195b F701     		.2byte	0x1f7
 6138 195d A9000000 		.4byte	0xa9
 6139 1961 3D       		.byte	0x3d
 6140 1962 0F       		.uleb128 0xf
 6141 1963 67320000 		.4byte	.LASF740
 6142 1967 08       		.byte	0x8
 6143 1968 F801     		.2byte	0x1f8
 6144 196a A9000000 		.4byte	0xa9
 6145 196e 3E       		.byte	0x3e
 6146 196f 0F       		.uleb128 0xf
 6147 1970 39130000 		.4byte	.LASF741
 6148 1974 08       		.byte	0x8
 6149 1975 F901     		.2byte	0x1f9
 6150 1977 E2150000 		.4byte	0x15e2
 6151 197b 3F       		.byte	0x3f
 6152 197c 0F       		.uleb128 0xf
 6153 197d C4110000 		.4byte	.LASF742
 6154 1981 08       		.byte	0x8
 6155 1982 FA01     		.2byte	0x1fa
 6156 1984 A9000000 		.4byte	0xa9
 6157 1988 4B       		.byte	0x4b
 6158 1989 0F       		.uleb128 0xf
 6159 198a 5A220000 		.4byte	.LASF743
 6160 198e 08       		.byte	0x8
 6161 198f FB01     		.2byte	0x1fb
 6162 1991 A9000000 		.4byte	0xa9
 6163 1995 4C       		.byte	0x4c
 6164 1996 0F       		.uleb128 0xf
 6165 1997 BC160000 		.4byte	.LASF744
 6166 199b 08       		.byte	0x8
 6167 199c FC01     		.2byte	0x1fc
 6168 199e A9000000 		.4byte	0xa9
 6169 19a2 4D       		.byte	0x4d
 6170 19a3 0F       		.uleb128 0xf
 6171 19a4 C53A0000 		.4byte	.LASF694
 6172 19a8 08       		.byte	0x8
 6173 19a9 FD01     		.2byte	0x1fd
 6174 19ab F6000000 		.4byte	0xf6
 6175 19af 4E       		.byte	0x4e
 6176 19b0 0F       		.uleb128 0xf
 6177 19b1 73280000 		.4byte	.LASF745
 6178 19b5 08       		.byte	0x8
 6179 19b6 FE01     		.2byte	0x1fe
 6180 19b8 E0000000 		.4byte	0xe0
 6181 19bc 52       		.byte	0x52
 6182 19bd 0F       		.uleb128 0xf
ARM GAS  C:\Users\AHMEDH~1\AppData\Local\Temp\cclxJjJK.s 			page 142


 6183 19be 39350000 		.4byte	.LASF628
 6184 19c2 08       		.byte	0x8
 6185 19c3 FF01     		.2byte	0x1ff
 6186 19c5 46010000 		.4byte	0x146
 6187 19c9 54       		.byte	0x54
 6188 19ca 0F       		.uleb128 0xf
 6189 19cb 52290000 		.4byte	.LASF746
 6190 19cf 08       		.byte	0x8
 6191 19d0 0002     		.2byte	0x200
 6192 19d2 8E1A0000 		.4byte	0x1a8e
 6193 19d6 5C       		.byte	0x5c
 6194 19d7 0F       		.uleb128 0xf
 6195 19d8 E0090000 		.4byte	.LASF747
 6196 19dc 08       		.byte	0x8
 6197 19dd 0102     		.2byte	0x201
 6198 19df A9000000 		.4byte	0xa9
 6199 19e3 6B       		.byte	0x6b
 6200 19e4 0F       		.uleb128 0xf
 6201 19e5 AA1C0000 		.4byte	.LASF748
 6202 19e9 08       		.byte	0x8
 6203 19ea 0202     		.2byte	0x202
 6204 19ec 19110000 		.4byte	0x1119
 6205 19f0 6C       		.byte	0x6c
 6206 19f1 0F       		.uleb128 0xf
 6207 19f2 EF210000 		.4byte	.LASF749
 6208 19f6 08       		.byte	0x8
 6209 19f7 0302     		.2byte	0x203
 6210 19f9 19110000 		.4byte	0x1119
 6211 19fd 6F       		.byte	0x6f
 6212 19fe 0F       		.uleb128 0xf
 6213 19ff B7050000 		.4byte	.LASF750
 6214 1a03 08       		.byte	0x8
 6215 1a04 0402     		.2byte	0x204
 6216 1a06 BA170000 		.4byte	0x17ba
 6217 1a0a 72       		.byte	0x72
 6218 1a0b 0F       		.uleb128 0xf
 6219 1a0c 7A0F0000 		.4byte	.LASF751
 6220 1a10 08       		.byte	0x8
 6221 1a11 0502     		.2byte	0x205
 6222 1a13 A9000000 		.4byte	0xa9
 6223 1a17 89       		.byte	0x89
 6224 1a18 0F       		.uleb128 0xf
 6225 1a19 4A180000 		.4byte	.LASF705
 6226 1a1d 08       		.byte	0x8
 6227 1a1e 0602     		.2byte	0x206
 6228 1a20 8B100000 		.4byte	0x108b
 6229 1a24 8A       		.byte	0x8a
 6230 1a25 0F       		.uleb128 0xf
 6231 1a26 D41E0000 		.4byte	.LASF752
 6232 1a2a 08       		.byte	0x8
 6233 1a2b 0702     		.2byte	0x207
 6234 1a2d A9000000 		.4byte	0xa9
 6235 1a31 9F       		.byte	0x9f
 6236 1a32 0F       		.uleb128 0xf
 6237 1a33 7B350000 		.4byte	.LASF753
 6238 1a37 08       		.byte	0x8
 6239 1a38 0802     		.2byte	0x208
ARM GAS  C:\Users\AHMEDH~1\AppData\Local\Temp\cclxJjJK.s 			page 143


 6240 1a3a A9000000 		.4byte	0xa9
 6241 1a3e A0       		.byte	0xa0
 6242 1a3f 0F       		.uleb128 0xf
 6243 1a40 DD2C0000 		.4byte	.LASF754
 6244 1a44 08       		.byte	0x8
 6245 1a45 0902     		.2byte	0x209
 6246 1a47 A9000000 		.4byte	0xa9
 6247 1a4b A1       		.byte	0xa1
 6248 1a4c 0F       		.uleb128 0xf
 6249 1a4d 8F230000 		.4byte	.LASF641
 6250 1a51 08       		.byte	0x8
 6251 1a52 0A02     		.2byte	0x20a
 6252 1a54 F6000000 		.4byte	0xf6
 6253 1a58 A2       		.byte	0xa2
 6254 1a59 0F       		.uleb128 0xf
 6255 1a5a E7210000 		.4byte	.LASF642
 6256 1a5e 08       		.byte	0x8
 6257 1a5f 0B02     		.2byte	0x20b
 6258 1a61 E0000000 		.4byte	0xe0
 6259 1a65 A6       		.byte	0xa6
 6260 1a66 0F       		.uleb128 0xf
 6261 1a67 D4280000 		.4byte	.LASF755
 6262 1a6b 08       		.byte	0x8
 6263 1a6c 0C02     		.2byte	0x20c
 6264 1a6e A9000000 		.4byte	0xa9
 6265 1a72 A8       		.byte	0xa8
 6266 1a73 0F       		.uleb128 0xf
 6267 1a74 62040000 		.4byte	.LASF756
 6268 1a78 08       		.byte	0x8
 6269 1a79 0D02     		.2byte	0x20d
 6270 1a7b A9000000 		.4byte	0xa9
 6271 1a7f A9       		.byte	0xa9
 6272 1a80 0F       		.uleb128 0xf
 6273 1a81 6E130000 		.4byte	.LASF684
 6274 1a85 08       		.byte	0x8
 6275 1a86 0E02     		.2byte	0x20e
 6276 1a88 B4000000 		.4byte	0xb4
 6277 1a8c AA       		.byte	0xaa
 6278 1a8d 00       		.byte	0
 6279 1a8e 09       		.uleb128 0x9
 6280 1a8f A9000000 		.4byte	0xa9
 6281 1a93 9E1A0000 		.4byte	0x1a9e
 6282 1a97 0A       		.uleb128 0xa
 6283 1a98 76000000 		.4byte	0x76
 6284 1a9c 0E       		.byte	0xe
 6285 1a9d 00       		.byte	0
 6286 1a9e 0E       		.uleb128 0xe
 6287 1a9f 2C2C0000 		.4byte	.LASF757
 6288 1aa3 1C       		.byte	0x1c
 6289 1aa4 08       		.byte	0x8
 6290 1aa5 1102     		.2byte	0x211
 6291 1aa7 E01A0000 		.4byte	0x1ae0
 6292 1aab 0F       		.uleb128 0xf
 6293 1aac B6160000 		.4byte	.LASF758
 6294 1ab0 08       		.byte	0x8
 6295 1ab1 1202     		.2byte	0x212
 6296 1ab3 A9000000 		.4byte	0xa9
ARM GAS  C:\Users\AHMEDH~1\AppData\Local\Temp\cclxJjJK.s 			page 144


 6297 1ab7 00       		.byte	0
 6298 1ab8 0F       		.uleb128 0xf
 6299 1ab9 AD2F0000 		.4byte	.LASF759
 6300 1abd 08       		.byte	0x8
 6301 1abe 1302     		.2byte	0x213
 6302 1ac0 E0000000 		.4byte	0xe0
 6303 1ac4 01       		.byte	0x1
 6304 1ac5 0F       		.uleb128 0xf
 6305 1ac6 26010000 		.4byte	.LASF760
 6306 1aca 08       		.byte	0x8
 6307 1acb 1402     		.2byte	0x214
 6308 1acd 56010000 		.4byte	0x156
 6309 1ad1 03       		.byte	0x3
 6310 1ad2 0F       		.uleb128 0xf
 6311 1ad3 6E130000 		.4byte	.LASF684
 6312 1ad7 08       		.byte	0x8
 6313 1ad8 1502     		.2byte	0x215
 6314 1ada B4000000 		.4byte	0xb4
 6315 1ade 18       		.byte	0x18
 6316 1adf 00       		.byte	0
 6317 1ae0 18       		.uleb128 0x18
 6318 1ae1 08       		.byte	0x8
 6319 1ae2 09       		.byte	0x9
 6320 1ae3 2B01     		.2byte	0x12b
 6321 1ae5 041B0000 		.4byte	0x1b04
 6322 1ae9 0F       		.uleb128 0xf
 6323 1aea F7380000 		.4byte	.LASF561
 6324 1aee 09       		.byte	0x9
 6325 1aef 2C01     		.2byte	0x12c
 6326 1af1 B4000000 		.4byte	0xb4
 6327 1af5 00       		.byte	0
 6328 1af6 0F       		.uleb128 0xf
 6329 1af7 0A160000 		.4byte	.LASF761
 6330 1afb 09       		.byte	0x9
 6331 1afc 2D01     		.2byte	0x12d
 6332 1afe F0000000 		.4byte	0xf0
 6333 1b02 04       		.byte	0x4
 6334 1b03 00       		.byte	0
 6335 1b04 19       		.uleb128 0x19
 6336 1b05 DB080000 		.4byte	.LASF762
 6337 1b09 09       		.byte	0x9
 6338 1b0a 2E01     		.2byte	0x12e
 6339 1b0c E01A0000 		.4byte	0x1ae0
 6340 1b10 1A       		.uleb128 0x1a
 6341 1b11 D52C0000 		.4byte	.LASF763
 6342 1b15 0406     		.2byte	0x604
 6343 1b17 0A       		.byte	0xa
 6344 1b18 22       		.byte	0x22
 6345 1b19 421B0000 		.4byte	0x1b42
 6346 1b1d 11       		.uleb128 0x11
 6347 1b1e B5020000 		.4byte	.LASF764
 6348 1b22 0A       		.byte	0xa
 6349 1b23 23       		.byte	0x23
 6350 1b24 A9000000 		.4byte	0xa9
 6351 1b28 00       		.byte	0
 6352 1b29 11       		.uleb128 0x11
 6353 1b2a 7E030000 		.4byte	.LASF765
ARM GAS  C:\Users\AHMEDH~1\AppData\Local\Temp\cclxJjJK.s 			page 145


 6354 1b2e 0A       		.byte	0xa
 6355 1b2f 24       		.byte	0x24
 6356 1b30 A9000000 		.4byte	0xa9
 6357 1b34 01       		.byte	0x1
 6358 1b35 11       		.uleb128 0x11
 6359 1b36 C70B0000 		.4byte	.LASF496
 6360 1b3a 0A       		.byte	0xa
 6361 1b3b 25       		.byte	0x25
 6362 1b3c 421B0000 		.4byte	0x1b42
 6363 1b40 02       		.byte	0x2
 6364 1b41 00       		.byte	0
 6365 1b42 09       		.uleb128 0x9
 6366 1b43 A9000000 		.4byte	0xa9
 6367 1b47 531B0000 		.4byte	0x1b53
 6368 1b4b 16       		.uleb128 0x16
 6369 1b4c 76000000 		.4byte	0x76
 6370 1b50 FF05     		.2byte	0x5ff
 6371 1b52 00       		.byte	0
 6372 1b53 14       		.uleb128 0x14
 6373 1b54 01       		.byte	0x1
 6374 1b55 0A       		.byte	0xa
 6375 1b56 33       		.byte	0x33
 6376 1b57 8C1B0000 		.4byte	0x1b8c
 6377 1b5b 0C       		.uleb128 0xc
 6378 1b5c FB1A0000 		.4byte	.LASF766
 6379 1b60 00       		.sleb128 0
 6380 1b61 0C       		.uleb128 0xc
 6381 1b62 C7270000 		.4byte	.LASF767
 6382 1b66 01       		.sleb128 1
 6383 1b67 0C       		.uleb128 0xc
 6384 1b68 E4020000 		.4byte	.LASF768
 6385 1b6c 02       		.sleb128 2
 6386 1b6d 0C       		.uleb128 0xc
 6387 1b6e 09290000 		.4byte	.LASF769
 6388 1b72 03       		.sleb128 3
 6389 1b73 0C       		.uleb128 0xc
 6390 1b74 EB110000 		.4byte	.LASF770
 6391 1b78 04       		.sleb128 4
 6392 1b79 0C       		.uleb128 0xc
 6393 1b7a D4160000 		.4byte	.LASF771
 6394 1b7e 05       		.sleb128 5
 6395 1b7f 0C       		.uleb128 0xc
 6396 1b80 61290000 		.4byte	.LASF772
 6397 1b84 06       		.sleb128 6
 6398 1b85 0C       		.uleb128 0xc
 6399 1b86 50360000 		.4byte	.LASF773
 6400 1b8a 07       		.sleb128 7
 6401 1b8b 00       		.byte	0
 6402 1b8c 1A       		.uleb128 0x1a
 6403 1b8d 61380000 		.4byte	.LASF774
 6404 1b91 7401     		.2byte	0x174
 6405 1b93 0B       		.byte	0xb
 6406 1b94 5B       		.byte	0x5b
 6407 1b95 FA1B0000 		.4byte	0x1bfa
 6408 1b99 11       		.uleb128 0x11
 6409 1b9a FC250000 		.4byte	.LASF775
 6410 1b9e 0B       		.byte	0xb
ARM GAS  C:\Users\AHMEDH~1\AppData\Local\Temp\cclxJjJK.s 			page 146


 6411 1b9f 5C       		.byte	0x5c
 6412 1ba0 36010000 		.4byte	0x136
 6413 1ba4 00       		.byte	0
 6414 1ba5 11       		.uleb128 0x11
 6415 1ba6 62020000 		.4byte	.LASF776
 6416 1baa 0B       		.byte	0xb
 6417 1bab 5D       		.byte	0x5d
 6418 1bac A9000000 		.4byte	0xa9
 6419 1bb0 10       		.byte	0x10
 6420 1bb1 11       		.uleb128 0x11
 6421 1bb2 91200000 		.4byte	.LASF777
 6422 1bb6 0B       		.byte	0xb
 6423 1bb7 5E       		.byte	0x5e
 6424 1bb8 230E0000 		.4byte	0xe23
 6425 1bbc 11       		.byte	0x11
 6426 1bbd 11       		.uleb128 0x11
 6427 1bbe FE0B0000 		.4byte	.LASF778
 6428 1bc2 0B       		.byte	0xb
 6429 1bc3 5F       		.byte	0x5f
 6430 1bc4 09110000 		.4byte	0x1109
 6431 1bc8 18       		.byte	0x18
 6432 1bc9 11       		.uleb128 0x11
 6433 1bca 460C0000 		.4byte	.LASF779
 6434 1bce 0B       		.byte	0xb
 6435 1bcf 60       		.byte	0x60
 6436 1bd0 E0000000 		.4byte	0xe0
 6437 1bd4 1D       		.byte	0x1d
 6438 1bd5 11       		.uleb128 0x11
 6439 1bd6 721B0000 		.4byte	.LASF780
 6440 1bda 0B       		.byte	0xb
 6441 1bdb 61       		.byte	0x61
 6442 1bdc 46010000 		.4byte	0x146
 6443 1be0 1F       		.byte	0x1f
 6444 1be1 11       		.uleb128 0x11
 6445 1be2 71050000 		.4byte	.LASF781
 6446 1be6 0B       		.byte	0xb
 6447 1be7 62       		.byte	0x62
 6448 1be8 B4000000 		.4byte	0xb4
 6449 1bec 28       		.byte	0x28
 6450 1bed 11       		.uleb128 0x11
 6451 1bee 70340000 		.4byte	.LASF782
 6452 1bf2 0B       		.byte	0xb
 6453 1bf3 63       		.byte	0x63
 6454 1bf4 FA1B0000 		.4byte	0x1bfa
 6455 1bf8 2A       		.byte	0x2a
 6456 1bf9 00       		.byte	0
 6457 1bfa 09       		.uleb128 0x9
 6458 1bfb A9000000 		.4byte	0xa9
 6459 1bff 0B1C0000 		.4byte	0x1c0b
 6460 1c03 16       		.uleb128 0x16
 6461 1c04 76000000 		.4byte	0x76
 6462 1c08 4901     		.2byte	0x149
 6463 1c0a 00       		.byte	0
 6464 1c0b 1A       		.uleb128 0x1a
 6465 1c0c 763B0000 		.4byte	.LASF783
 6466 1c10 0002     		.2byte	0x200
 6467 1c12 0B       		.byte	0xb
ARM GAS  C:\Users\AHMEDH~1\AppData\Local\Temp\cclxJjJK.s 			page 147


 6468 1c13 66       		.byte	0x66
 6469 1c14 3A1D0000 		.4byte	0x1d3a
 6470 1c18 11       		.uleb128 0x11
 6471 1c19 6A030000 		.4byte	.LASF784
 6472 1c1d 0B       		.byte	0xb
 6473 1c1e 67       		.byte	0x67
 6474 1c1f A9000000 		.4byte	0xa9
 6475 1c23 00       		.byte	0
 6476 1c24 11       		.uleb128 0x11
 6477 1c25 901E0000 		.4byte	.LASF785
 6478 1c29 0B       		.byte	0xb
 6479 1c2a 67       		.byte	0x67
 6480 1c2b A9000000 		.4byte	0xa9
 6481 1c2f 01       		.byte	0x1
 6482 1c30 11       		.uleb128 0x11
 6483 1c31 30020000 		.4byte	.LASF639
 6484 1c35 0B       		.byte	0xb
 6485 1c36 67       		.byte	0x67
 6486 1c37 19110000 		.4byte	0x1119
 6487 1c3b 02       		.byte	0x2
 6488 1c3c 11       		.uleb128 0x11
 6489 1c3d 301A0000 		.4byte	.LASF786
 6490 1c41 0B       		.byte	0xb
 6491 1c42 67       		.byte	0x67
 6492 1c43 A9000000 		.4byte	0xa9
 6493 1c47 05       		.byte	0x5
 6494 1c48 11       		.uleb128 0x11
 6495 1c49 75110000 		.4byte	.LASF640
 6496 1c4d 0B       		.byte	0xb
 6497 1c4e 67       		.byte	0x67
 6498 1c4f 19110000 		.4byte	0x1119
 6499 1c53 06       		.byte	0x6
 6500 1c54 11       		.uleb128 0x11
 6501 1c55 9C2A0000 		.4byte	.LASF787
 6502 1c59 0B       		.byte	0xb
 6503 1c5a 67       		.byte	0x67
 6504 1c5b 16010000 		.4byte	0x116
 6505 1c5f 09       		.byte	0x9
 6506 1c60 11       		.uleb128 0x11
 6507 1c61 36370000 		.4byte	.LASF788
 6508 1c65 0B       		.byte	0xb
 6509 1c66 67       		.byte	0x67
 6510 1c67 E0000000 		.4byte	0xe0
 6511 1c6b 13       		.byte	0x13
 6512 1c6c 11       		.uleb128 0x11
 6513 1c6d 6D370000 		.4byte	.LASF789
 6514 1c71 0B       		.byte	0xb
 6515 1c72 67       		.byte	0x67
 6516 1c73 A9000000 		.4byte	0xa9
 6517 1c77 15       		.byte	0x15
 6518 1c78 11       		.uleb128 0x11
 6519 1c79 12310000 		.4byte	.LASF790
 6520 1c7d 0B       		.byte	0xb
 6521 1c7e 67       		.byte	0x67
 6522 1c7f CA000000 		.4byte	0xca
 6523 1c83 18       		.byte	0x18
 6524 1c84 11       		.uleb128 0x11
ARM GAS  C:\Users\AHMEDH~1\AppData\Local\Temp\cclxJjJK.s 			page 148


 6525 1c85 0F230000 		.4byte	.LASF791
 6526 1c89 0B       		.byte	0xb
 6527 1c8a 67       		.byte	0x67
 6528 1c8b CA000000 		.4byte	0xca
 6529 1c8f 20       		.byte	0x20
 6530 1c90 11       		.uleb128 0x11
 6531 1c91 0E1B0000 		.4byte	.LASF792
 6532 1c95 0B       		.byte	0xb
 6533 1c96 67       		.byte	0x67
 6534 1c97 CA000000 		.4byte	0xca
 6535 1c9b 28       		.byte	0x28
 6536 1c9c 11       		.uleb128 0x11
 6537 1c9d AF150000 		.4byte	.LASF793
 6538 1ca1 0B       		.byte	0xb
 6539 1ca2 67       		.byte	0x67
 6540 1ca3 F6000000 		.4byte	0xf6
 6541 1ca7 30       		.byte	0x30
 6542 1ca8 11       		.uleb128 0x11
 6543 1ca9 0A3A0000 		.4byte	.LASF794
 6544 1cad 0B       		.byte	0xb
 6545 1cae 67       		.byte	0x67
 6546 1caf A9000000 		.4byte	0xa9
 6547 1cb3 34       		.byte	0x34
 6548 1cb4 11       		.uleb128 0x11
 6549 1cb5 F7300000 		.4byte	.LASF795
 6550 1cb9 0B       		.byte	0xb
 6551 1cba 67       		.byte	0x67
 6552 1cbb 3A1D0000 		.4byte	0x1d3a
 6553 1cbf 35       		.byte	0x35
 6554 1cc0 11       		.uleb128 0x11
 6555 1cc1 21340000 		.4byte	.LASF796
 6556 1cc5 0B       		.byte	0xb
 6557 1cc6 67       		.byte	0x67
 6558 1cc7 36010000 		.4byte	0x136
 6559 1ccb 4F       		.byte	0x4f
 6560 1ccc 11       		.uleb128 0x11
 6561 1ccd D3370000 		.4byte	.LASF797
 6562 1cd1 0B       		.byte	0xb
 6563 1cd2 67       		.byte	0x67
 6564 1cd3 330E0000 		.4byte	0xe33
 6565 1cd7 5F       		.byte	0x5f
 6566 1cd8 11       		.uleb128 0x11
 6567 1cd9 82250000 		.4byte	.LASF798
 6568 1cdd 0B       		.byte	0xb
 6569 1cde 67       		.byte	0x67
 6570 1cdf B4000000 		.4byte	0xb4
 6571 1ce3 66       		.byte	0x66
 6572 1ce4 11       		.uleb128 0x11
 6573 1ce5 6B1F0000 		.4byte	.LASF799
 6574 1ce9 0B       		.byte	0xb
 6575 1cea 67       		.byte	0x67
 6576 1ceb A9000000 		.4byte	0xa9
 6577 1cef 68       		.byte	0x68
 6578 1cf0 11       		.uleb128 0x11
 6579 1cf1 FC380000 		.4byte	.LASF800
 6580 1cf5 0B       		.byte	0xb
 6581 1cf6 67       		.byte	0x67
ARM GAS  C:\Users\AHMEDH~1\AppData\Local\Temp\cclxJjJK.s 			page 149


 6582 1cf7 E2150000 		.4byte	0x15e2
 6583 1cfb 69       		.byte	0x69
 6584 1cfc 11       		.uleb128 0x11
 6585 1cfd FA2E0000 		.4byte	.LASF801
 6586 1d01 0B       		.byte	0xb
 6587 1d02 67       		.byte	0x67
 6588 1d03 B4000000 		.4byte	0xb4
 6589 1d07 76       		.byte	0x76
 6590 1d08 11       		.uleb128 0x11
 6591 1d09 C81A0000 		.4byte	.LASF802
 6592 1d0d 0B       		.byte	0xb
 6593 1d0e 67       		.byte	0x67
 6594 1d0f B4000000 		.4byte	0xb4
 6595 1d13 78       		.byte	0x78
 6596 1d14 11       		.uleb128 0x11
 6597 1d15 F90F0000 		.4byte	.LASF803
 6598 1d19 0B       		.byte	0xb
 6599 1d1a 67       		.byte	0x67
 6600 1d1b 2A100000 		.4byte	0x102a
 6601 1d1f 7C       		.byte	0x7c
 6602 1d20 11       		.uleb128 0x11
 6603 1d21 3E010000 		.4byte	.LASF804
 6604 1d25 0B       		.byte	0xb
 6605 1d26 67       		.byte	0x67
 6606 1d27 8C1B0000 		.4byte	0x1b8c
 6607 1d2b 84       		.byte	0x84
 6608 1d2c 1B       		.uleb128 0x1b
 6609 1d2d 6E130000 		.4byte	.LASF684
 6610 1d31 0B       		.byte	0xb
 6611 1d32 68       		.byte	0x68
 6612 1d33 B4000000 		.4byte	0xb4
 6613 1d37 F801     		.2byte	0x1f8
 6614 1d39 00       		.byte	0
 6615 1d3a 09       		.uleb128 0x9
 6616 1d3b A9000000 		.4byte	0xa9
 6617 1d3f 4A1D0000 		.4byte	0x1d4a
 6618 1d43 0A       		.uleb128 0xa
 6619 1d44 76000000 		.4byte	0x76
 6620 1d48 19       		.byte	0x19
 6621 1d49 00       		.byte	0
 6622 1d4a 1A       		.uleb128 0x1a
 6623 1d4b 4A250000 		.4byte	.LASF805
 6624 1d4f F801     		.2byte	0x1f8
 6625 1d51 0B       		.byte	0xb
 6626 1d52 6B       		.byte	0x6b
 6627 1d53 6C1E0000 		.4byte	0x1e6c
 6628 1d57 11       		.uleb128 0x11
 6629 1d58 6A030000 		.4byte	.LASF784
 6630 1d5c 0B       		.byte	0xb
 6631 1d5d 6C       		.byte	0x6c
 6632 1d5e A9000000 		.4byte	0xa9
 6633 1d62 00       		.byte	0
 6634 1d63 11       		.uleb128 0x11
 6635 1d64 901E0000 		.4byte	.LASF785
 6636 1d68 0B       		.byte	0xb
 6637 1d69 6C       		.byte	0x6c
 6638 1d6a A9000000 		.4byte	0xa9
ARM GAS  C:\Users\AHMEDH~1\AppData\Local\Temp\cclxJjJK.s 			page 150


 6639 1d6e 01       		.byte	0x1
 6640 1d6f 11       		.uleb128 0x11
 6641 1d70 30020000 		.4byte	.LASF639
 6642 1d74 0B       		.byte	0xb
 6643 1d75 6C       		.byte	0x6c
 6644 1d76 19110000 		.4byte	0x1119
 6645 1d7a 02       		.byte	0x2
 6646 1d7b 11       		.uleb128 0x11
 6647 1d7c 301A0000 		.4byte	.LASF786
 6648 1d80 0B       		.byte	0xb
 6649 1d81 6C       		.byte	0x6c
 6650 1d82 A9000000 		.4byte	0xa9
 6651 1d86 05       		.byte	0x5
 6652 1d87 11       		.uleb128 0x11
 6653 1d88 75110000 		.4byte	.LASF640
 6654 1d8c 0B       		.byte	0xb
 6655 1d8d 6C       		.byte	0x6c
 6656 1d8e 19110000 		.4byte	0x1119
 6657 1d92 06       		.byte	0x6
 6658 1d93 11       		.uleb128 0x11
 6659 1d94 9C2A0000 		.4byte	.LASF787
 6660 1d98 0B       		.byte	0xb
 6661 1d99 6C       		.byte	0x6c
 6662 1d9a 16010000 		.4byte	0x116
 6663 1d9e 09       		.byte	0x9
 6664 1d9f 11       		.uleb128 0x11
 6665 1da0 36370000 		.4byte	.LASF788
 6666 1da4 0B       		.byte	0xb
 6667 1da5 6C       		.byte	0x6c
 6668 1da6 E0000000 		.4byte	0xe0
 6669 1daa 13       		.byte	0x13
 6670 1dab 11       		.uleb128 0x11
 6671 1dac 6D370000 		.4byte	.LASF789
 6672 1db0 0B       		.byte	0xb
 6673 1db1 6C       		.byte	0x6c
 6674 1db2 A9000000 		.4byte	0xa9
 6675 1db6 15       		.byte	0x15
 6676 1db7 11       		.uleb128 0x11
 6677 1db8 12310000 		.4byte	.LASF790
 6678 1dbc 0B       		.byte	0xb
 6679 1dbd 6C       		.byte	0x6c
 6680 1dbe CA000000 		.4byte	0xca
 6681 1dc2 18       		.byte	0x18
 6682 1dc3 11       		.uleb128 0x11
 6683 1dc4 0F230000 		.4byte	.LASF791
 6684 1dc8 0B       		.byte	0xb
 6685 1dc9 6C       		.byte	0x6c
 6686 1dca CA000000 		.4byte	0xca
 6687 1dce 20       		.byte	0x20
 6688 1dcf 11       		.uleb128 0x11
 6689 1dd0 0E1B0000 		.4byte	.LASF792
 6690 1dd4 0B       		.byte	0xb
 6691 1dd5 6C       		.byte	0x6c
 6692 1dd6 CA000000 		.4byte	0xca
 6693 1dda 28       		.byte	0x28
 6694 1ddb 11       		.uleb128 0x11
 6695 1ddc AF150000 		.4byte	.LASF793
ARM GAS  C:\Users\AHMEDH~1\AppData\Local\Temp\cclxJjJK.s 			page 151


 6696 1de0 0B       		.byte	0xb
 6697 1de1 6C       		.byte	0x6c
 6698 1de2 F6000000 		.4byte	0xf6
 6699 1de6 30       		.byte	0x30
 6700 1de7 11       		.uleb128 0x11
 6701 1de8 0A3A0000 		.4byte	.LASF794
 6702 1dec 0B       		.byte	0xb
 6703 1ded 6C       		.byte	0x6c
 6704 1dee A9000000 		.4byte	0xa9
 6705 1df2 34       		.byte	0x34
 6706 1df3 11       		.uleb128 0x11
 6707 1df4 F7300000 		.4byte	.LASF795
 6708 1df8 0B       		.byte	0xb
 6709 1df9 6C       		.byte	0x6c
 6710 1dfa 3A1D0000 		.4byte	0x1d3a
 6711 1dfe 35       		.byte	0x35
 6712 1dff 11       		.uleb128 0x11
 6713 1e00 21340000 		.4byte	.LASF796
 6714 1e04 0B       		.byte	0xb
 6715 1e05 6C       		.byte	0x6c
 6716 1e06 36010000 		.4byte	0x136
 6717 1e0a 4F       		.byte	0x4f
 6718 1e0b 11       		.uleb128 0x11
 6719 1e0c D3370000 		.4byte	.LASF797
 6720 1e10 0B       		.byte	0xb
 6721 1e11 6C       		.byte	0x6c
 6722 1e12 330E0000 		.4byte	0xe33
 6723 1e16 5F       		.byte	0x5f
 6724 1e17 11       		.uleb128 0x11
 6725 1e18 82250000 		.4byte	.LASF798
 6726 1e1c 0B       		.byte	0xb
 6727 1e1d 6C       		.byte	0x6c
 6728 1e1e B4000000 		.4byte	0xb4
 6729 1e22 66       		.byte	0x66
 6730 1e23 11       		.uleb128 0x11
 6731 1e24 6B1F0000 		.4byte	.LASF799
 6732 1e28 0B       		.byte	0xb
 6733 1e29 6C       		.byte	0x6c
 6734 1e2a A9000000 		.4byte	0xa9
 6735 1e2e 68       		.byte	0x68
 6736 1e2f 11       		.uleb128 0x11
 6737 1e30 FC380000 		.4byte	.LASF800
 6738 1e34 0B       		.byte	0xb
 6739 1e35 6C       		.byte	0x6c
 6740 1e36 E2150000 		.4byte	0x15e2
 6741 1e3a 69       		.byte	0x69
 6742 1e3b 11       		.uleb128 0x11
 6743 1e3c FA2E0000 		.4byte	.LASF801
 6744 1e40 0B       		.byte	0xb
 6745 1e41 6C       		.byte	0x6c
 6746 1e42 B4000000 		.4byte	0xb4
 6747 1e46 76       		.byte	0x76
 6748 1e47 11       		.uleb128 0x11
 6749 1e48 C81A0000 		.4byte	.LASF802
 6750 1e4c 0B       		.byte	0xb
 6751 1e4d 6C       		.byte	0x6c
 6752 1e4e B4000000 		.4byte	0xb4
ARM GAS  C:\Users\AHMEDH~1\AppData\Local\Temp\cclxJjJK.s 			page 152


 6753 1e52 78       		.byte	0x78
 6754 1e53 11       		.uleb128 0x11
 6755 1e54 F90F0000 		.4byte	.LASF803
 6756 1e58 0B       		.byte	0xb
 6757 1e59 6C       		.byte	0x6c
 6758 1e5a 2A100000 		.4byte	0x102a
 6759 1e5e 7C       		.byte	0x7c
 6760 1e5f 11       		.uleb128 0x11
 6761 1e60 3E010000 		.4byte	.LASF804
 6762 1e64 0B       		.byte	0xb
 6763 1e65 6C       		.byte	0x6c
 6764 1e66 8C1B0000 		.4byte	0x1b8c
 6765 1e6a 84       		.byte	0x84
 6766 1e6b 00       		.byte	0
 6767 1e6c 1A       		.uleb128 0x1a
 6768 1e6d 783C0000 		.4byte	.LASF806
 6769 1e71 0802     		.2byte	0x208
 6770 1e73 0B       		.byte	0xb
 6771 1e74 6F       		.byte	0x6f
 6772 1e75 A81F0000 		.4byte	0x1fa8
 6773 1e79 11       		.uleb128 0x11
 6774 1e7a 6A030000 		.4byte	.LASF784
 6775 1e7e 0B       		.byte	0xb
 6776 1e7f 70       		.byte	0x70
 6777 1e80 A9000000 		.4byte	0xa9
 6778 1e84 00       		.byte	0
 6779 1e85 11       		.uleb128 0x11
 6780 1e86 901E0000 		.4byte	.LASF785
 6781 1e8a 0B       		.byte	0xb
 6782 1e8b 70       		.byte	0x70
 6783 1e8c A9000000 		.4byte	0xa9
 6784 1e90 01       		.byte	0x1
 6785 1e91 11       		.uleb128 0x11
 6786 1e92 30020000 		.4byte	.LASF639
 6787 1e96 0B       		.byte	0xb
 6788 1e97 70       		.byte	0x70
 6789 1e98 19110000 		.4byte	0x1119
 6790 1e9c 02       		.byte	0x2
 6791 1e9d 11       		.uleb128 0x11
 6792 1e9e 301A0000 		.4byte	.LASF786
 6793 1ea2 0B       		.byte	0xb
 6794 1ea3 70       		.byte	0x70
 6795 1ea4 A9000000 		.4byte	0xa9
 6796 1ea8 05       		.byte	0x5
 6797 1ea9 11       		.uleb128 0x11
 6798 1eaa 75110000 		.4byte	.LASF640
 6799 1eae 0B       		.byte	0xb
 6800 1eaf 70       		.byte	0x70
 6801 1eb0 19110000 		.4byte	0x1119
 6802 1eb4 06       		.byte	0x6
 6803 1eb5 11       		.uleb128 0x11
 6804 1eb6 9C2A0000 		.4byte	.LASF787
 6805 1eba 0B       		.byte	0xb
 6806 1ebb 70       		.byte	0x70
 6807 1ebc 16010000 		.4byte	0x116
 6808 1ec0 09       		.byte	0x9
 6809 1ec1 11       		.uleb128 0x11
ARM GAS  C:\Users\AHMEDH~1\AppData\Local\Temp\cclxJjJK.s 			page 153


 6810 1ec2 36370000 		.4byte	.LASF788
 6811 1ec6 0B       		.byte	0xb
 6812 1ec7 70       		.byte	0x70
 6813 1ec8 E0000000 		.4byte	0xe0
 6814 1ecc 13       		.byte	0x13
 6815 1ecd 11       		.uleb128 0x11
 6816 1ece 6D370000 		.4byte	.LASF789
 6817 1ed2 0B       		.byte	0xb
 6818 1ed3 70       		.byte	0x70
 6819 1ed4 A9000000 		.4byte	0xa9
 6820 1ed8 15       		.byte	0x15
 6821 1ed9 11       		.uleb128 0x11
 6822 1eda 12310000 		.4byte	.LASF790
 6823 1ede 0B       		.byte	0xb
 6824 1edf 70       		.byte	0x70
 6825 1ee0 CA000000 		.4byte	0xca
 6826 1ee4 18       		.byte	0x18
 6827 1ee5 11       		.uleb128 0x11
 6828 1ee6 0F230000 		.4byte	.LASF791
 6829 1eea 0B       		.byte	0xb
 6830 1eeb 70       		.byte	0x70
 6831 1eec CA000000 		.4byte	0xca
 6832 1ef0 20       		.byte	0x20
 6833 1ef1 11       		.uleb128 0x11
 6834 1ef2 0E1B0000 		.4byte	.LASF792
 6835 1ef6 0B       		.byte	0xb
 6836 1ef7 70       		.byte	0x70
 6837 1ef8 CA000000 		.4byte	0xca
 6838 1efc 28       		.byte	0x28
 6839 1efd 11       		.uleb128 0x11
 6840 1efe AF150000 		.4byte	.LASF793
 6841 1f02 0B       		.byte	0xb
 6842 1f03 70       		.byte	0x70
 6843 1f04 F6000000 		.4byte	0xf6
 6844 1f08 30       		.byte	0x30
 6845 1f09 11       		.uleb128 0x11
 6846 1f0a 0A3A0000 		.4byte	.LASF794
 6847 1f0e 0B       		.byte	0xb
 6848 1f0f 70       		.byte	0x70
 6849 1f10 A9000000 		.4byte	0xa9
 6850 1f14 34       		.byte	0x34
 6851 1f15 11       		.uleb128 0x11
 6852 1f16 F7300000 		.4byte	.LASF795
 6853 1f1a 0B       		.byte	0xb
 6854 1f1b 70       		.byte	0x70
 6855 1f1c 3A1D0000 		.4byte	0x1d3a
 6856 1f20 35       		.byte	0x35
 6857 1f21 11       		.uleb128 0x11
 6858 1f22 21340000 		.4byte	.LASF796
 6859 1f26 0B       		.byte	0xb
 6860 1f27 70       		.byte	0x70
 6861 1f28 36010000 		.4byte	0x136
 6862 1f2c 4F       		.byte	0x4f
 6863 1f2d 11       		.uleb128 0x11
 6864 1f2e D3370000 		.4byte	.LASF797
 6865 1f32 0B       		.byte	0xb
 6866 1f33 70       		.byte	0x70
ARM GAS  C:\Users\AHMEDH~1\AppData\Local\Temp\cclxJjJK.s 			page 154


 6867 1f34 330E0000 		.4byte	0xe33
 6868 1f38 5F       		.byte	0x5f
 6869 1f39 11       		.uleb128 0x11
 6870 1f3a 82250000 		.4byte	.LASF798
 6871 1f3e 0B       		.byte	0xb
 6872 1f3f 70       		.byte	0x70
 6873 1f40 B4000000 		.4byte	0xb4
 6874 1f44 66       		.byte	0x66
 6875 1f45 11       		.uleb128 0x11
 6876 1f46 6B1F0000 		.4byte	.LASF799
 6877 1f4a 0B       		.byte	0xb
 6878 1f4b 70       		.byte	0x70
 6879 1f4c A9000000 		.4byte	0xa9
 6880 1f50 68       		.byte	0x68
 6881 1f51 11       		.uleb128 0x11
 6882 1f52 FC380000 		.4byte	.LASF800
 6883 1f56 0B       		.byte	0xb
 6884 1f57 70       		.byte	0x70
 6885 1f58 E2150000 		.4byte	0x15e2
 6886 1f5c 69       		.byte	0x69
 6887 1f5d 11       		.uleb128 0x11
 6888 1f5e FA2E0000 		.4byte	.LASF801
 6889 1f62 0B       		.byte	0xb
 6890 1f63 70       		.byte	0x70
 6891 1f64 B4000000 		.4byte	0xb4
 6892 1f68 76       		.byte	0x76
 6893 1f69 11       		.uleb128 0x11
 6894 1f6a C81A0000 		.4byte	.LASF802
 6895 1f6e 0B       		.byte	0xb
 6896 1f6f 70       		.byte	0x70
 6897 1f70 B4000000 		.4byte	0xb4
 6898 1f74 78       		.byte	0x78
 6899 1f75 11       		.uleb128 0x11
 6900 1f76 F90F0000 		.4byte	.LASF803
 6901 1f7a 0B       		.byte	0xb
 6902 1f7b 70       		.byte	0x70
 6903 1f7c 2A100000 		.4byte	0x102a
 6904 1f80 7C       		.byte	0x7c
 6905 1f81 11       		.uleb128 0x11
 6906 1f82 3E010000 		.4byte	.LASF804
 6907 1f86 0B       		.byte	0xb
 6908 1f87 70       		.byte	0x70
 6909 1f88 8C1B0000 		.4byte	0x1b8c
 6910 1f8c 84       		.byte	0x84
 6911 1f8d 1B       		.uleb128 0x1b
 6912 1f8e 49330000 		.4byte	.LASF807
 6913 1f92 0B       		.byte	0xb
 6914 1f93 71       		.byte	0x71
 6915 1f94 A9000000 		.4byte	0xa9
 6916 1f98 F801     		.2byte	0x1f8
 6917 1f9a 1B       		.uleb128 0x1b
 6918 1f9b 39270000 		.4byte	.LASF808
 6919 1f9f 0B       		.byte	0xb
 6920 1fa0 72       		.byte	0x72
 6921 1fa1 CA000000 		.4byte	0xca
 6922 1fa5 0002     		.2byte	0x200
 6923 1fa7 00       		.byte	0
ARM GAS  C:\Users\AHMEDH~1\AppData\Local\Temp\cclxJjJK.s 			page 155


 6924 1fa8 10       		.uleb128 0x10
 6925 1fa9 41320000 		.4byte	.LASF809
 6926 1fad 10       		.byte	0x10
 6927 1fae 0B       		.byte	0xb
 6928 1faf 75       		.byte	0x75
 6929 1fb0 CD1F0000 		.4byte	0x1fcd
 6930 1fb4 11       		.uleb128 0x11
 6931 1fb5 9E1A0000 		.4byte	.LASF810
 6932 1fb9 0B       		.byte	0xb
 6933 1fba 76       		.byte	0x76
 6934 1fbb B4000000 		.4byte	0xb4
 6935 1fbf 00       		.byte	0
 6936 1fc0 11       		.uleb128 0x11
 6937 1fc1 12310000 		.4byte	.LASF790
 6938 1fc5 0B       		.byte	0xb
 6939 1fc6 77       		.byte	0x77
 6940 1fc7 CA000000 		.4byte	0xca
 6941 1fcb 08       		.byte	0x8
 6942 1fcc 00       		.byte	0
 6943 1fcd 10       		.uleb128 0x10
 6944 1fce A9160000 		.4byte	.LASF811
 6945 1fd2 68       		.byte	0x68
 6946 1fd3 0B       		.byte	0xb
 6947 1fd4 7A       		.byte	0x7a
 6948 1fd5 2E200000 		.4byte	0x202e
 6949 1fd9 11       		.uleb128 0x11
 6950 1fda C8060000 		.4byte	.LASF812
 6951 1fde 0B       		.byte	0xb
 6952 1fdf 7B       		.byte	0x7b
 6953 1fe0 BF000000 		.4byte	0xbf
 6954 1fe4 00       		.byte	0
 6955 1fe5 11       		.uleb128 0x11
 6956 1fe6 931A0000 		.4byte	.LASF813
 6957 1fea 0B       		.byte	0xb
 6958 1feb 7C       		.byte	0x7c
 6959 1fec A81F0000 		.4byte	0x1fa8
 6960 1ff0 08       		.byte	0x8
 6961 1ff1 11       		.uleb128 0x11
 6962 1ff2 251A0000 		.4byte	.LASF814
 6963 1ff6 0B       		.byte	0xb
 6964 1ff7 7D       		.byte	0x7d
 6965 1ff8 A81F0000 		.4byte	0x1fa8
 6966 1ffc 18       		.byte	0x18
 6967 1ffd 11       		.uleb128 0x11
 6968 1ffe 331D0000 		.4byte	.LASF815
 6969 2002 0B       		.byte	0xb
 6970 2003 7E       		.byte	0x7e
 6971 2004 A81F0000 		.4byte	0x1fa8
 6972 2008 28       		.byte	0x28
 6973 2009 11       		.uleb128 0x11
 6974 200a 0A180000 		.4byte	.LASF816
 6975 200e 0B       		.byte	0xb
 6976 200f 7F       		.byte	0x7f
 6977 2010 A81F0000 		.4byte	0x1fa8
 6978 2014 38       		.byte	0x38
 6979 2015 11       		.uleb128 0x11
 6980 2016 8C250000 		.4byte	.LASF817
ARM GAS  C:\Users\AHMEDH~1\AppData\Local\Temp\cclxJjJK.s 			page 156


 6981 201a 0B       		.byte	0xb
 6982 201b 80       		.byte	0x80
 6983 201c A81F0000 		.4byte	0x1fa8
 6984 2020 48       		.byte	0x48
 6985 2021 11       		.uleb128 0x11
 6986 2022 852E0000 		.4byte	.LASF818
 6987 2026 0B       		.byte	0xb
 6988 2027 81       		.byte	0x81
 6989 2028 A81F0000 		.4byte	0x1fa8
 6990 202c 58       		.byte	0x58
 6991 202d 00       		.byte	0
 6992 202e 1A       		.uleb128 0x1a
 6993 202f 960C0000 		.4byte	.LASF819
 6994 2033 5805     		.2byte	0x558
 6995 2035 0B       		.byte	0xb
 6996 2036 86       		.byte	0x86
 6997 2037 7C200000 		.4byte	0x207c
 6998 203b 11       		.uleb128 0x11
 6999 203c DE050000 		.4byte	.LASF820
 7000 2040 0B       		.byte	0xb
 7001 2041 87       		.byte	0x87
 7002 2042 02160000 		.4byte	0x1602
 7003 2046 00       		.byte	0
 7004 2047 1B       		.uleb128 0x1b
 7005 2048 252E0000 		.4byte	.LASF821
 7006 204c 0B       		.byte	0xb
 7007 204d 88       		.byte	0x88
 7008 204e 7C200000 		.4byte	0x207c
 7009 2052 8801     		.2byte	0x188
 7010 2054 1B       		.uleb128 0x1b
 7011 2055 F83B0000 		.4byte	.LASF822
 7012 2059 0B       		.byte	0xb
 7013 205a 89       		.byte	0x89
 7014 205b 8C200000 		.4byte	0x208c
 7015 205f 4803     		.2byte	0x348
 7016 2061 1B       		.uleb128 0x1b
 7017 2062 2A180000 		.4byte	.LASF823
 7018 2066 0B       		.byte	0xb
 7019 2067 8A       		.byte	0x8a
 7020 2068 9C200000 		.4byte	0x209c
 7021 206c A004     		.2byte	0x4a0
 7022 206e 1B       		.uleb128 0x1b
 7023 206f FC270000 		.4byte	.LASF824
 7024 2073 0B       		.byte	0xb
 7025 2074 8B       		.byte	0x8b
 7026 2075 AC200000 		.4byte	0x20ac
 7027 2079 1005     		.2byte	0x510
 7028 207b 00       		.byte	0
 7029 207c 09       		.uleb128 0x9
 7030 207d 9E1A0000 		.4byte	0x1a9e
 7031 2081 8C200000 		.4byte	0x208c
 7032 2085 0A       		.uleb128 0xa
 7033 2086 76000000 		.4byte	0x76
 7034 208a 0F       		.byte	0xf
 7035 208b 00       		.byte	0
 7036 208c 09       		.uleb128 0x9
 7037 208d C6180000 		.4byte	0x18c6
ARM GAS  C:\Users\AHMEDH~1\AppData\Local\Temp\cclxJjJK.s 			page 157


 7038 2091 9C200000 		.4byte	0x209c
 7039 2095 0A       		.uleb128 0xa
 7040 2096 76000000 		.4byte	0x76
 7041 209a 01       		.byte	0x1
 7042 209b 00       		.byte	0
 7043 209c 09       		.uleb128 0x9
 7044 209d 43180000 		.4byte	0x1843
 7045 20a1 AC200000 		.4byte	0x20ac
 7046 20a5 0A       		.uleb128 0xa
 7047 20a6 76000000 		.4byte	0x76
 7048 20aa 01       		.byte	0x1
 7049 20ab 00       		.byte	0
 7050 20ac 09       		.uleb128 0x9
 7051 20ad DA170000 		.4byte	0x17da
 7052 20b1 BC200000 		.4byte	0x20bc
 7053 20b5 0A       		.uleb128 0xa
 7054 20b6 76000000 		.4byte	0x76
 7055 20ba 01       		.byte	0x1
 7056 20bb 00       		.byte	0
 7057 20bc 10       		.uleb128 0x10
 7058 20bd 543C0000 		.4byte	.LASF825
 7059 20c1 04       		.byte	0x4
 7060 20c2 0B       		.byte	0xb
 7061 20c3 8E       		.byte	0x8e
 7062 20c4 E1200000 		.4byte	0x20e1
 7063 20c8 11       		.uleb128 0x11
 7064 20c9 E6130000 		.4byte	.LASF826
 7065 20cd 0B       		.byte	0xb
 7066 20ce 8F       		.byte	0x8f
 7067 20cf A9000000 		.4byte	0xa9
 7068 20d3 00       		.byte	0
 7069 20d4 11       		.uleb128 0x11
 7070 20d5 04250000 		.4byte	.LASF827
 7071 20d9 0B       		.byte	0xb
 7072 20da 90       		.byte	0x90
 7073 20db A9000000 		.4byte	0xa9
 7074 20df 01       		.byte	0x1
 7075 20e0 00       		.byte	0
 7076 20e1 1A       		.uleb128 0x1a
 7077 20e2 66130000 		.4byte	.LASF828
 7078 20e6 040C     		.2byte	0xc04
 7079 20e8 0B       		.byte	0xb
 7080 20e9 9B       		.byte	0x9b
 7081 20ea 07210000 		.4byte	0x2107
 7082 20ee 11       		.uleb128 0x11
 7083 20ef 580D0000 		.4byte	.LASF829
 7084 20f3 0B       		.byte	0xb
 7085 20f4 9C       		.byte	0x9c
 7086 20f5 BF000000 		.4byte	0xbf
 7087 20f9 00       		.byte	0
 7088 20fa 11       		.uleb128 0x11
 7089 20fb C70B0000 		.4byte	.LASF496
 7090 20ff 0B       		.byte	0xb
 7091 2100 9D       		.byte	0x9d
 7092 2101 A5120000 		.4byte	0x12a5
 7093 2105 04       		.byte	0x4
 7094 2106 00       		.byte	0
ARM GAS  C:\Users\AHMEDH~1\AppData\Local\Temp\cclxJjJK.s 			page 158


 7095 2107 1C       		.uleb128 0x1c
 7096 2108 47445300 		.ascii	"GDS\000"
 7097 210c 6042     		.2byte	0x4260
 7098 210e 0B       		.byte	0xb
 7099 210f A1       		.byte	0xa1
 7100 2110 18220000 		.4byte	0x2218
 7101 2114 11       		.uleb128 0x11
 7102 2115 081F0000 		.4byte	.LASF830
 7103 2119 0B       		.byte	0xb
 7104 211a A3       		.byte	0xa3
 7105 211b 2E200000 		.4byte	0x202e
 7106 211f 00       		.byte	0
 7107 2120 1B       		.uleb128 0x1b
 7108 2121 3C0A0000 		.4byte	.LASF831
 7109 2125 0B       		.byte	0xb
 7110 2126 A4       		.byte	0xa4
 7111 2127 B6120000 		.4byte	0x12b6
 7112 212b 5805     		.2byte	0x558
 7113 212d 1B       		.uleb128 0x1b
 7114 212e E9230000 		.4byte	.LASF832
 7115 2132 0B       		.byte	0xb
 7116 2133 A6       		.byte	0xa6
 7117 2134 0B1C0000 		.4byte	0x1c0b
 7118 2138 C806     		.2byte	0x6c8
 7119 213a 1B       		.uleb128 0x1b
 7120 213b 3E170000 		.4byte	.LASF833
 7121 213f 0B       		.byte	0xb
 7122 2140 A7       		.byte	0xa7
 7123 2141 4A1D0000 		.4byte	0x1d4a
 7124 2145 C808     		.2byte	0x8c8
 7125 2147 1B       		.uleb128 0x1b
 7126 2148 45380000 		.4byte	.LASF834
 7127 214c 0B       		.byte	0xb
 7128 214d A8       		.byte	0xa8
 7129 214e 6C1E0000 		.4byte	0x1e6c
 7130 2152 C00A     		.2byte	0xac0
 7131 2154 1B       		.uleb128 0x1b
 7132 2155 6E1D0000 		.4byte	.LASF835
 7133 2159 0B       		.byte	0xb
 7134 215a A9       		.byte	0xa9
 7135 215b CD1F0000 		.4byte	0x1fcd
 7136 215f C80C     		.2byte	0xcc8
 7137 2161 1B       		.uleb128 0x1b
 7138 2162 9D3B0000 		.4byte	.LASF836
 7139 2166 0B       		.byte	0xb
 7140 2167 AA       		.byte	0xaa
 7141 2168 CD1F0000 		.4byte	0x1fcd
 7142 216c 300D     		.2byte	0xd30
 7143 216e 1B       		.uleb128 0x1b
 7144 216f 7C0E0000 		.4byte	.LASF837
 7145 2173 0B       		.byte	0xb
 7146 2174 AB       		.byte	0xab
 7147 2175 E1200000 		.4byte	0x20e1
 7148 2179 980D     		.2byte	0xd98
 7149 217b 1B       		.uleb128 0x1b
 7150 217c 460E0000 		.4byte	.LASF838
 7151 2180 0B       		.byte	0xb
ARM GAS  C:\Users\AHMEDH~1\AppData\Local\Temp\cclxJjJK.s 			page 159


 7152 2181 AC       		.byte	0xac
 7153 2182 7C120000 		.4byte	0x127c
 7154 2186 9C19     		.2byte	0x199c
 7155 2188 1B       		.uleb128 0x1b
 7156 2189 8B2E0000 		.4byte	.LASF839
 7157 218d 0B       		.byte	0xb
 7158 218e AD       		.byte	0xad
 7159 218f 7C120000 		.4byte	0x127c
 7160 2193 A025     		.2byte	0x25a0
 7161 2195 1B       		.uleb128 0x1b
 7162 2196 E7360000 		.4byte	.LASF840
 7163 219a 0B       		.byte	0xb
 7164 219b AE       		.byte	0xae
 7165 219c 18220000 		.4byte	0x2218
 7166 21a0 A431     		.2byte	0x31a4
 7167 21a2 1B       		.uleb128 0x1b
 7168 21a3 0E1A0000 		.4byte	.LASF841
 7169 21a7 0B       		.byte	0xb
 7170 21a8 AF       		.byte	0xaf
 7171 21a9 BC100000 		.4byte	0x10bc
 7172 21ad 8037     		.2byte	0x3780
 7173 21af 1B       		.uleb128 0x1b
 7174 21b0 C0310000 		.4byte	.LASF842
 7175 21b4 0B       		.byte	0xb
 7176 21b5 B0       		.byte	0xb0
 7177 21b6 BC100000 		.4byte	0x10bc
 7178 21ba 8837     		.2byte	0x3788
 7179 21bc 1B       		.uleb128 0x1b
 7180 21bd 27290000 		.4byte	.LASF843
 7181 21c1 0B       		.byte	0xb
 7182 21c2 B1       		.byte	0xb1
 7183 21c3 041B0000 		.4byte	0x1b04
 7184 21c7 9037     		.2byte	0x3790
 7185 21c9 1B       		.uleb128 0x1b
 7186 21ca B7040000 		.4byte	.LASF844
 7187 21ce 0B       		.byte	0xb
 7188 21cf B2       		.byte	0xb2
 7189 21d0 041B0000 		.4byte	0x1b04
 7190 21d4 9837     		.2byte	0x3798
 7191 21d6 1B       		.uleb128 0x1b
 7192 21d7 90020000 		.4byte	.LASF845
 7193 21db 0B       		.byte	0xb
 7194 21dc B3       		.byte	0xb3
 7195 21dd 29220000 		.4byte	0x2229
 7196 21e1 A037     		.2byte	0x37a0
 7197 21e3 1B       		.uleb128 0x1b
 7198 21e4 DE160000 		.4byte	.LASF846
 7199 21e8 0B       		.byte	0xb
 7200 21e9 B4       		.byte	0xb4
 7201 21ea 9E000000 		.4byte	0x9e
 7202 21ee 503C     		.2byte	0x3c50
 7203 21f0 1B       		.uleb128 0x1b
 7204 21f1 2C380000 		.4byte	.LASF847
 7205 21f5 0B       		.byte	0xb
 7206 21f6 B5       		.byte	0xb5
 7207 21f7 BC200000 		.4byte	0x20bc
 7208 21fb 543C     		.2byte	0x3c54
ARM GAS  C:\Users\AHMEDH~1\AppData\Local\Temp\cclxJjJK.s 			page 160


 7209 21fd 1B       		.uleb128 0x1b
 7210 21fe DE230000 		.4byte	.LASF848
 7211 2202 0B       		.byte	0xb
 7212 2203 B6       		.byte	0xb6
 7213 2204 101B0000 		.4byte	0x1b10
 7214 2208 583C     		.2byte	0x3c58
 7215 220a 1B       		.uleb128 0x1b
 7216 220b 3F330000 		.4byte	.LASF849
 7217 220f 0B       		.byte	0xb
 7218 2210 B7       		.byte	0xb7
 7219 2211 37000000 		.4byte	0x37
 7220 2215 5C42     		.2byte	0x425c
 7221 2217 00       		.byte	0
 7222 2218 09       		.uleb128 0x9
 7223 2219 A9000000 		.4byte	0xa9
 7224 221d 29220000 		.4byte	0x2229
 7225 2221 16       		.uleb128 0x16
 7226 2222 76000000 		.4byte	0x76
 7227 2226 DB05     		.2byte	0x5db
 7228 2228 00       		.byte	0
 7229 2229 09       		.uleb128 0x9
 7230 222a FE100000 		.4byte	0x10fe
 7231 222e 39220000 		.4byte	0x2239
 7232 2232 0A       		.uleb128 0xa
 7233 2233 76000000 		.4byte	0x76
 7234 2237 95       		.byte	0x95
 7235 2238 00       		.byte	0
 7236 2239 1A       		.uleb128 0x1a
 7237 223a 07330000 		.4byte	.LASF850
 7238 223e 0003     		.2byte	0x300
 7239 2240 0C       		.byte	0xc
 7240 2241 33       		.byte	0x33
 7241 2242 A9230000 		.4byte	0x23a9
 7242 2246 11       		.uleb128 0x11
 7243 2247 6A030000 		.4byte	.LASF784
 7244 224b 0C       		.byte	0xc
 7245 224c 34       		.byte	0x34
 7246 224d A9000000 		.4byte	0xa9
 7247 2251 00       		.byte	0
 7248 2252 11       		.uleb128 0x11
 7249 2253 901E0000 		.4byte	.LASF785
 7250 2257 0C       		.byte	0xc
 7251 2258 34       		.byte	0x34
 7252 2259 A9000000 		.4byte	0xa9
 7253 225d 01       		.byte	0x1
 7254 225e 11       		.uleb128 0x11
 7255 225f 30020000 		.4byte	.LASF639
 7256 2263 0C       		.byte	0xc
 7257 2264 34       		.byte	0x34
 7258 2265 19110000 		.4byte	0x1119
 7259 2269 02       		.byte	0x2
 7260 226a 11       		.uleb128 0x11
 7261 226b 301A0000 		.4byte	.LASF786
 7262 226f 0C       		.byte	0xc
 7263 2270 34       		.byte	0x34
 7264 2271 A9000000 		.4byte	0xa9
 7265 2275 05       		.byte	0x5
ARM GAS  C:\Users\AHMEDH~1\AppData\Local\Temp\cclxJjJK.s 			page 161


 7266 2276 11       		.uleb128 0x11
 7267 2277 75110000 		.4byte	.LASF640
 7268 227b 0C       		.byte	0xc
 7269 227c 34       		.byte	0x34
 7270 227d 19110000 		.4byte	0x1119
 7271 2281 06       		.byte	0x6
 7272 2282 11       		.uleb128 0x11
 7273 2283 9C2A0000 		.4byte	.LASF787
 7274 2287 0C       		.byte	0xc
 7275 2288 34       		.byte	0x34
 7276 2289 16010000 		.4byte	0x116
 7277 228d 09       		.byte	0x9
 7278 228e 11       		.uleb128 0x11
 7279 228f 36370000 		.4byte	.LASF788
 7280 2293 0C       		.byte	0xc
 7281 2294 34       		.byte	0x34
 7282 2295 E0000000 		.4byte	0xe0
 7283 2299 13       		.byte	0x13
 7284 229a 11       		.uleb128 0x11
 7285 229b 6D370000 		.4byte	.LASF789
 7286 229f 0C       		.byte	0xc
 7287 22a0 34       		.byte	0x34
 7288 22a1 A9000000 		.4byte	0xa9
 7289 22a5 15       		.byte	0x15
 7290 22a6 11       		.uleb128 0x11
 7291 22a7 12310000 		.4byte	.LASF790
 7292 22ab 0C       		.byte	0xc
 7293 22ac 34       		.byte	0x34
 7294 22ad CA000000 		.4byte	0xca
 7295 22b1 18       		.byte	0x18
 7296 22b2 11       		.uleb128 0x11
 7297 22b3 0F230000 		.4byte	.LASF791
 7298 22b7 0C       		.byte	0xc
 7299 22b8 34       		.byte	0x34
 7300 22b9 CA000000 		.4byte	0xca
 7301 22bd 20       		.byte	0x20
 7302 22be 11       		.uleb128 0x11
 7303 22bf 0E1B0000 		.4byte	.LASF792
 7304 22c3 0C       		.byte	0xc
 7305 22c4 34       		.byte	0x34
 7306 22c5 CA000000 		.4byte	0xca
 7307 22c9 28       		.byte	0x28
 7308 22ca 11       		.uleb128 0x11
 7309 22cb AF150000 		.4byte	.LASF793
 7310 22cf 0C       		.byte	0xc
 7311 22d0 34       		.byte	0x34
 7312 22d1 F6000000 		.4byte	0xf6
 7313 22d5 30       		.byte	0x30
 7314 22d6 11       		.uleb128 0x11
 7315 22d7 0A3A0000 		.4byte	.LASF794
 7316 22db 0C       		.byte	0xc
 7317 22dc 34       		.byte	0x34
 7318 22dd A9000000 		.4byte	0xa9
 7319 22e1 34       		.byte	0x34
 7320 22e2 11       		.uleb128 0x11
 7321 22e3 F7300000 		.4byte	.LASF795
 7322 22e7 0C       		.byte	0xc
ARM GAS  C:\Users\AHMEDH~1\AppData\Local\Temp\cclxJjJK.s 			page 162


 7323 22e8 34       		.byte	0x34
 7324 22e9 3A1D0000 		.4byte	0x1d3a
 7325 22ed 35       		.byte	0x35
 7326 22ee 11       		.uleb128 0x11
 7327 22ef 21340000 		.4byte	.LASF796
 7328 22f3 0C       		.byte	0xc
 7329 22f4 34       		.byte	0x34
 7330 22f5 36010000 		.4byte	0x136
 7331 22f9 4F       		.byte	0x4f
 7332 22fa 11       		.uleb128 0x11
 7333 22fb D3370000 		.4byte	.LASF797
 7334 22ff 0C       		.byte	0xc
 7335 2300 34       		.byte	0x34
 7336 2301 330E0000 		.4byte	0xe33
 7337 2305 5F       		.byte	0x5f
 7338 2306 11       		.uleb128 0x11
 7339 2307 82250000 		.4byte	.LASF798
 7340 230b 0C       		.byte	0xc
 7341 230c 34       		.byte	0x34
 7342 230d B4000000 		.4byte	0xb4
 7343 2311 66       		.byte	0x66
 7344 2312 11       		.uleb128 0x11
 7345 2313 6B1F0000 		.4byte	.LASF799
 7346 2317 0C       		.byte	0xc
 7347 2318 34       		.byte	0x34
 7348 2319 A9000000 		.4byte	0xa9
 7349 231d 68       		.byte	0x68
 7350 231e 11       		.uleb128 0x11
 7351 231f FC380000 		.4byte	.LASF800
 7352 2323 0C       		.byte	0xc
 7353 2324 34       		.byte	0x34
 7354 2325 E2150000 		.4byte	0x15e2
 7355 2329 69       		.byte	0x69
 7356 232a 11       		.uleb128 0x11
 7357 232b FA2E0000 		.4byte	.LASF801
 7358 232f 0C       		.byte	0xc
 7359 2330 34       		.byte	0x34
 7360 2331 B4000000 		.4byte	0xb4
 7361 2335 76       		.byte	0x76
 7362 2336 11       		.uleb128 0x11
 7363 2337 C81A0000 		.4byte	.LASF802
 7364 233b 0C       		.byte	0xc
 7365 233c 34       		.byte	0x34
 7366 233d B4000000 		.4byte	0xb4
 7367 2341 78       		.byte	0x78
 7368 2342 11       		.uleb128 0x11
 7369 2343 F90F0000 		.4byte	.LASF803
 7370 2347 0C       		.byte	0xc
 7371 2348 34       		.byte	0x34
 7372 2349 2A100000 		.4byte	0x102a
 7373 234d 7C       		.byte	0x7c
 7374 234e 11       		.uleb128 0x11
 7375 234f 3E010000 		.4byte	.LASF804
 7376 2353 0C       		.byte	0xc
 7377 2354 34       		.byte	0x34
 7378 2355 8C1B0000 		.4byte	0x1b8c
 7379 2359 84       		.byte	0x84
ARM GAS  C:\Users\AHMEDH~1\AppData\Local\Temp\cclxJjJK.s 			page 163


 7380 235a 1B       		.uleb128 0x1b
 7381 235b A9350000 		.4byte	.LASF851
 7382 235f 0C       		.byte	0xc
 7383 2360 35       		.byte	0x35
 7384 2361 46010000 		.4byte	0x146
 7385 2365 F801     		.2byte	0x1f8
 7386 2367 1B       		.uleb128 0x1b
 7387 2368 47320000 		.4byte	.LASF852
 7388 236c 0C       		.byte	0xc
 7389 236d 36       		.byte	0x36
 7390 236e 6C0E0000 		.4byte	0xe6c
 7391 2372 0002     		.2byte	0x200
 7392 2374 1B       		.uleb128 0x1b
 7393 2375 FA1F0000 		.4byte	.LASF853
 7394 2379 0C       		.byte	0xc
 7395 237a 37       		.byte	0x37
 7396 237b A40E0000 		.4byte	0xea4
 7397 237f A002     		.2byte	0x2a0
 7398 2381 1B       		.uleb128 0x1b
 7399 2382 AB310000 		.4byte	.LASF854
 7400 2386 0C       		.byte	0xc
 7401 2387 38       		.byte	0x38
 7402 2388 B4000000 		.4byte	0xb4
 7403 238c F402     		.2byte	0x2f4
 7404 238e 1B       		.uleb128 0x1b
 7405 238f 0A080000 		.4byte	.LASF855
 7406 2393 0C       		.byte	0xc
 7407 2394 39       		.byte	0x39
 7408 2395 A9000000 		.4byte	0xa9
 7409 2399 F602     		.2byte	0x2f6
 7410 239b 1B       		.uleb128 0x1b
 7411 239c 10160000 		.4byte	.LASF856
 7412 23a0 0C       		.byte	0xc
 7413 23a1 3A       		.byte	0x3a
 7414 23a2 F6000000 		.4byte	0xf6
 7415 23a6 F702     		.2byte	0x2f7
 7416 23a8 00       		.byte	0
 7417 23a9 1A       		.uleb128 0x1a
 7418 23aa 15010000 		.4byte	.LASF857
 7419 23ae 0802     		.2byte	0x208
 7420 23b0 0C       		.byte	0xc
 7421 23b1 3D       		.byte	0x3d
 7422 23b2 FF240000 		.4byte	0x24ff
 7423 23b6 11       		.uleb128 0x11
 7424 23b7 6A030000 		.4byte	.LASF784
 7425 23bb 0C       		.byte	0xc
 7426 23bc 3E       		.byte	0x3e
 7427 23bd A9000000 		.4byte	0xa9
 7428 23c1 00       		.byte	0
 7429 23c2 11       		.uleb128 0x11
 7430 23c3 901E0000 		.4byte	.LASF785
 7431 23c7 0C       		.byte	0xc
 7432 23c8 3E       		.byte	0x3e
 7433 23c9 A9000000 		.4byte	0xa9
 7434 23cd 01       		.byte	0x1
 7435 23ce 11       		.uleb128 0x11
 7436 23cf 30020000 		.4byte	.LASF639
ARM GAS  C:\Users\AHMEDH~1\AppData\Local\Temp\cclxJjJK.s 			page 164


 7437 23d3 0C       		.byte	0xc
 7438 23d4 3E       		.byte	0x3e
 7439 23d5 19110000 		.4byte	0x1119
 7440 23d9 02       		.byte	0x2
 7441 23da 11       		.uleb128 0x11
 7442 23db 301A0000 		.4byte	.LASF786
 7443 23df 0C       		.byte	0xc
 7444 23e0 3E       		.byte	0x3e
 7445 23e1 A9000000 		.4byte	0xa9
 7446 23e5 05       		.byte	0x5
 7447 23e6 11       		.uleb128 0x11
 7448 23e7 75110000 		.4byte	.LASF640
 7449 23eb 0C       		.byte	0xc
 7450 23ec 3E       		.byte	0x3e
 7451 23ed 19110000 		.4byte	0x1119
 7452 23f1 06       		.byte	0x6
 7453 23f2 11       		.uleb128 0x11
 7454 23f3 9C2A0000 		.4byte	.LASF787
 7455 23f7 0C       		.byte	0xc
 7456 23f8 3E       		.byte	0x3e
 7457 23f9 16010000 		.4byte	0x116
 7458 23fd 09       		.byte	0x9
 7459 23fe 11       		.uleb128 0x11
 7460 23ff 36370000 		.4byte	.LASF788
 7461 2403 0C       		.byte	0xc
 7462 2404 3E       		.byte	0x3e
 7463 2405 E0000000 		.4byte	0xe0
 7464 2409 13       		.byte	0x13
 7465 240a 11       		.uleb128 0x11
 7466 240b 6D370000 		.4byte	.LASF789
 7467 240f 0C       		.byte	0xc
 7468 2410 3E       		.byte	0x3e
 7469 2411 A9000000 		.4byte	0xa9
 7470 2415 15       		.byte	0x15
 7471 2416 11       		.uleb128 0x11
 7472 2417 12310000 		.4byte	.LASF790
 7473 241b 0C       		.byte	0xc
 7474 241c 3E       		.byte	0x3e
 7475 241d CA000000 		.4byte	0xca
 7476 2421 18       		.byte	0x18
 7477 2422 11       		.uleb128 0x11
 7478 2423 0F230000 		.4byte	.LASF791
 7479 2427 0C       		.byte	0xc
 7480 2428 3E       		.byte	0x3e
 7481 2429 CA000000 		.4byte	0xca
 7482 242d 20       		.byte	0x20
 7483 242e 11       		.uleb128 0x11
 7484 242f 0E1B0000 		.4byte	.LASF792
 7485 2433 0C       		.byte	0xc
 7486 2434 3E       		.byte	0x3e
 7487 2435 CA000000 		.4byte	0xca
 7488 2439 28       		.byte	0x28
 7489 243a 11       		.uleb128 0x11
 7490 243b AF150000 		.4byte	.LASF793
 7491 243f 0C       		.byte	0xc
 7492 2440 3E       		.byte	0x3e
 7493 2441 F6000000 		.4byte	0xf6
ARM GAS  C:\Users\AHMEDH~1\AppData\Local\Temp\cclxJjJK.s 			page 165


 7494 2445 30       		.byte	0x30
 7495 2446 11       		.uleb128 0x11
 7496 2447 0A3A0000 		.4byte	.LASF794
 7497 244b 0C       		.byte	0xc
 7498 244c 3E       		.byte	0x3e
 7499 244d A9000000 		.4byte	0xa9
 7500 2451 34       		.byte	0x34
 7501 2452 11       		.uleb128 0x11
 7502 2453 F7300000 		.4byte	.LASF795
 7503 2457 0C       		.byte	0xc
 7504 2458 3E       		.byte	0x3e
 7505 2459 3A1D0000 		.4byte	0x1d3a
 7506 245d 35       		.byte	0x35
 7507 245e 11       		.uleb128 0x11
 7508 245f 21340000 		.4byte	.LASF796
 7509 2463 0C       		.byte	0xc
 7510 2464 3E       		.byte	0x3e
 7511 2465 36010000 		.4byte	0x136
 7512 2469 4F       		.byte	0x4f
 7513 246a 11       		.uleb128 0x11
 7514 246b D3370000 		.4byte	.LASF797
 7515 246f 0C       		.byte	0xc
 7516 2470 3E       		.byte	0x3e
 7517 2471 330E0000 		.4byte	0xe33
 7518 2475 5F       		.byte	0x5f
 7519 2476 11       		.uleb128 0x11
 7520 2477 82250000 		.4byte	.LASF798
 7521 247b 0C       		.byte	0xc
 7522 247c 3E       		.byte	0x3e
 7523 247d B4000000 		.4byte	0xb4
 7524 2481 66       		.byte	0x66
 7525 2482 11       		.uleb128 0x11
 7526 2483 6B1F0000 		.4byte	.LASF799
 7527 2487 0C       		.byte	0xc
 7528 2488 3E       		.byte	0x3e
 7529 2489 A9000000 		.4byte	0xa9
 7530 248d 68       		.byte	0x68
 7531 248e 11       		.uleb128 0x11
 7532 248f FC380000 		.4byte	.LASF800
 7533 2493 0C       		.byte	0xc
 7534 2494 3E       		.byte	0x3e
 7535 2495 E2150000 		.4byte	0x15e2
 7536 2499 69       		.byte	0x69
 7537 249a 11       		.uleb128 0x11
 7538 249b FA2E0000 		.4byte	.LASF801
 7539 249f 0C       		.byte	0xc
 7540 24a0 3E       		.byte	0x3e
 7541 24a1 B4000000 		.4byte	0xb4
 7542 24a5 76       		.byte	0x76
 7543 24a6 11       		.uleb128 0x11
 7544 24a7 C81A0000 		.4byte	.LASF802
 7545 24ab 0C       		.byte	0xc
 7546 24ac 3E       		.byte	0x3e
 7547 24ad B4000000 		.4byte	0xb4
 7548 24b1 78       		.byte	0x78
 7549 24b2 11       		.uleb128 0x11
 7550 24b3 F90F0000 		.4byte	.LASF803
ARM GAS  C:\Users\AHMEDH~1\AppData\Local\Temp\cclxJjJK.s 			page 166


 7551 24b7 0C       		.byte	0xc
 7552 24b8 3E       		.byte	0x3e
 7553 24b9 2A100000 		.4byte	0x102a
 7554 24bd 7C       		.byte	0x7c
 7555 24be 11       		.uleb128 0x11
 7556 24bf 3E010000 		.4byte	.LASF804
 7557 24c3 0C       		.byte	0xc
 7558 24c4 3E       		.byte	0x3e
 7559 24c5 8C1B0000 		.4byte	0x1b8c
 7560 24c9 84       		.byte	0x84
 7561 24ca 1B       		.uleb128 0x1b
 7562 24cb A9350000 		.4byte	.LASF851
 7563 24cf 0C       		.byte	0xc
 7564 24d0 3F       		.byte	0x3f
 7565 24d1 46010000 		.4byte	0x146
 7566 24d5 F801     		.2byte	0x1f8
 7567 24d7 1B       		.uleb128 0x1b
 7568 24d8 08040000 		.4byte	.LASF858
 7569 24dc 0C       		.byte	0xc
 7570 24dd 40       		.byte	0x40
 7571 24de 19110000 		.4byte	0x1119
 7572 24e2 0002     		.2byte	0x200
 7573 24e4 1B       		.uleb128 0x1b
 7574 24e5 7F2F0000 		.4byte	.LASF859
 7575 24e9 0C       		.byte	0xc
 7576 24ea 41       		.byte	0x41
 7577 24eb A9000000 		.4byte	0xa9
 7578 24ef 0302     		.2byte	0x203
 7579 24f1 1B       		.uleb128 0x1b
 7580 24f2 D7060000 		.4byte	.LASF860
 7581 24f6 0C       		.byte	0xc
 7582 24f7 42       		.byte	0x42
 7583 24f8 19110000 		.4byte	0x1119
 7584 24fc 0402     		.2byte	0x204
 7585 24fe 00       		.byte	0
 7586 24ff 1A       		.uleb128 0x1a
 7587 2500 A2050000 		.4byte	.LASF861
 7588 2504 4802     		.2byte	0x248
 7589 2506 0C       		.byte	0xc
 7590 2507 45       		.byte	0x45
 7591 2508 48260000 		.4byte	0x2648
 7592 250c 11       		.uleb128 0x11
 7593 250d 6A030000 		.4byte	.LASF784
 7594 2511 0C       		.byte	0xc
 7595 2512 46       		.byte	0x46
 7596 2513 A9000000 		.4byte	0xa9
 7597 2517 00       		.byte	0
 7598 2518 11       		.uleb128 0x11
 7599 2519 901E0000 		.4byte	.LASF785
 7600 251d 0C       		.byte	0xc
 7601 251e 46       		.byte	0x46
 7602 251f A9000000 		.4byte	0xa9
 7603 2523 01       		.byte	0x1
 7604 2524 11       		.uleb128 0x11
 7605 2525 30020000 		.4byte	.LASF639
 7606 2529 0C       		.byte	0xc
 7607 252a 46       		.byte	0x46
ARM GAS  C:\Users\AHMEDH~1\AppData\Local\Temp\cclxJjJK.s 			page 167


 7608 252b 19110000 		.4byte	0x1119
 7609 252f 02       		.byte	0x2
 7610 2530 11       		.uleb128 0x11
 7611 2531 301A0000 		.4byte	.LASF786
 7612 2535 0C       		.byte	0xc
 7613 2536 46       		.byte	0x46
 7614 2537 A9000000 		.4byte	0xa9
 7615 253b 05       		.byte	0x5
 7616 253c 11       		.uleb128 0x11
 7617 253d 75110000 		.4byte	.LASF640
 7618 2541 0C       		.byte	0xc
 7619 2542 46       		.byte	0x46
 7620 2543 19110000 		.4byte	0x1119
 7621 2547 06       		.byte	0x6
 7622 2548 11       		.uleb128 0x11
 7623 2549 9C2A0000 		.4byte	.LASF787
 7624 254d 0C       		.byte	0xc
 7625 254e 46       		.byte	0x46
 7626 254f 16010000 		.4byte	0x116
 7627 2553 09       		.byte	0x9
 7628 2554 11       		.uleb128 0x11
 7629 2555 36370000 		.4byte	.LASF788
 7630 2559 0C       		.byte	0xc
 7631 255a 46       		.byte	0x46
 7632 255b E0000000 		.4byte	0xe0
 7633 255f 13       		.byte	0x13
 7634 2560 11       		.uleb128 0x11
 7635 2561 6D370000 		.4byte	.LASF789
 7636 2565 0C       		.byte	0xc
 7637 2566 46       		.byte	0x46
 7638 2567 A9000000 		.4byte	0xa9
 7639 256b 15       		.byte	0x15
 7640 256c 11       		.uleb128 0x11
 7641 256d 12310000 		.4byte	.LASF790
 7642 2571 0C       		.byte	0xc
 7643 2572 46       		.byte	0x46
 7644 2573 CA000000 		.4byte	0xca
 7645 2577 18       		.byte	0x18
 7646 2578 11       		.uleb128 0x11
 7647 2579 0F230000 		.4byte	.LASF791
 7648 257d 0C       		.byte	0xc
 7649 257e 46       		.byte	0x46
 7650 257f CA000000 		.4byte	0xca
 7651 2583 20       		.byte	0x20
 7652 2584 11       		.uleb128 0x11
 7653 2585 0E1B0000 		.4byte	.LASF792
 7654 2589 0C       		.byte	0xc
 7655 258a 46       		.byte	0x46
 7656 258b CA000000 		.4byte	0xca
 7657 258f 28       		.byte	0x28
 7658 2590 11       		.uleb128 0x11
 7659 2591 AF150000 		.4byte	.LASF793
 7660 2595 0C       		.byte	0xc
 7661 2596 46       		.byte	0x46
 7662 2597 F6000000 		.4byte	0xf6
 7663 259b 30       		.byte	0x30
 7664 259c 11       		.uleb128 0x11
ARM GAS  C:\Users\AHMEDH~1\AppData\Local\Temp\cclxJjJK.s 			page 168


 7665 259d 0A3A0000 		.4byte	.LASF794
 7666 25a1 0C       		.byte	0xc
 7667 25a2 46       		.byte	0x46
 7668 25a3 A9000000 		.4byte	0xa9
 7669 25a7 34       		.byte	0x34
 7670 25a8 11       		.uleb128 0x11
 7671 25a9 F7300000 		.4byte	.LASF795
 7672 25ad 0C       		.byte	0xc
 7673 25ae 46       		.byte	0x46
 7674 25af 3A1D0000 		.4byte	0x1d3a
 7675 25b3 35       		.byte	0x35
 7676 25b4 11       		.uleb128 0x11
 7677 25b5 21340000 		.4byte	.LASF796
 7678 25b9 0C       		.byte	0xc
 7679 25ba 46       		.byte	0x46
 7680 25bb 36010000 		.4byte	0x136
 7681 25bf 4F       		.byte	0x4f
 7682 25c0 11       		.uleb128 0x11
 7683 25c1 D3370000 		.4byte	.LASF797
 7684 25c5 0C       		.byte	0xc
 7685 25c6 46       		.byte	0x46
 7686 25c7 330E0000 		.4byte	0xe33
 7687 25cb 5F       		.byte	0x5f
 7688 25cc 11       		.uleb128 0x11
 7689 25cd 82250000 		.4byte	.LASF798
 7690 25d1 0C       		.byte	0xc
 7691 25d2 46       		.byte	0x46
 7692 25d3 B4000000 		.4byte	0xb4
 7693 25d7 66       		.byte	0x66
 7694 25d8 11       		.uleb128 0x11
 7695 25d9 6B1F0000 		.4byte	.LASF799
 7696 25dd 0C       		.byte	0xc
 7697 25de 46       		.byte	0x46
 7698 25df A9000000 		.4byte	0xa9
 7699 25e3 68       		.byte	0x68
 7700 25e4 11       		.uleb128 0x11
 7701 25e5 FC380000 		.4byte	.LASF800
 7702 25e9 0C       		.byte	0xc
 7703 25ea 46       		.byte	0x46
 7704 25eb E2150000 		.4byte	0x15e2
 7705 25ef 69       		.byte	0x69
 7706 25f0 11       		.uleb128 0x11
 7707 25f1 FA2E0000 		.4byte	.LASF801
 7708 25f5 0C       		.byte	0xc
 7709 25f6 46       		.byte	0x46
 7710 25f7 B4000000 		.4byte	0xb4
 7711 25fb 76       		.byte	0x76
 7712 25fc 11       		.uleb128 0x11
 7713 25fd C81A0000 		.4byte	.LASF802
 7714 2601 0C       		.byte	0xc
 7715 2602 46       		.byte	0x46
 7716 2603 B4000000 		.4byte	0xb4
 7717 2607 78       		.byte	0x78
 7718 2608 11       		.uleb128 0x11
 7719 2609 F90F0000 		.4byte	.LASF803
 7720 260d 0C       		.byte	0xc
 7721 260e 46       		.byte	0x46
ARM GAS  C:\Users\AHMEDH~1\AppData\Local\Temp\cclxJjJK.s 			page 169


 7722 260f 2A100000 		.4byte	0x102a
 7723 2613 7C       		.byte	0x7c
 7724 2614 11       		.uleb128 0x11
 7725 2615 3E010000 		.4byte	.LASF804
 7726 2619 0C       		.byte	0xc
 7727 261a 46       		.byte	0x46
 7728 261b 8C1B0000 		.4byte	0x1b8c
 7729 261f 84       		.byte	0x84
 7730 2620 1B       		.uleb128 0x1b
 7731 2621 5F030000 		.4byte	.LASF862
 7732 2625 0C       		.byte	0xc
 7733 2626 47       		.byte	0x47
 7734 2627 A9000000 		.4byte	0xa9
 7735 262b F801     		.2byte	0x1f8
 7736 262d 1B       		.uleb128 0x1b
 7737 262e 67260000 		.4byte	.LASF863
 7738 2632 0C       		.byte	0xc
 7739 2633 48       		.byte	0x48
 7740 2634 48260000 		.4byte	0x2648
 7741 2638 F901     		.2byte	0x1f9
 7742 263a 1B       		.uleb128 0x1b
 7743 263b AA250000 		.4byte	.LASF864
 7744 263f 0C       		.byte	0xc
 7745 2640 49       		.byte	0x49
 7746 2641 19110000 		.4byte	0x1119
 7747 2645 3F02     		.2byte	0x23f
 7748 2647 00       		.byte	0
 7749 2648 09       		.uleb128 0x9
 7750 2649 A9000000 		.4byte	0xa9
 7751 264d 58260000 		.4byte	0x2658
 7752 2651 0A       		.uleb128 0xa
 7753 2652 76000000 		.4byte	0x76
 7754 2656 45       		.byte	0x45
 7755 2657 00       		.byte	0
 7756 2658 1A       		.uleb128 0x1a
 7757 2659 1C310000 		.4byte	.LASF865
 7758 265d 5007     		.2byte	0x750
 7759 265f 0C       		.byte	0xc
 7760 2660 4F       		.byte	0x4f
 7761 2661 8C260000 		.4byte	0x268c
 7762 2665 11       		.uleb128 0x11
 7763 2666 0A130000 		.4byte	.LASF866
 7764 266a 0C       		.byte	0xc
 7765 266b 50       		.byte	0x50
 7766 266c 39220000 		.4byte	0x2239
 7767 2670 00       		.byte	0
 7768 2671 1B       		.uleb128 0x1b
 7769 2672 03390000 		.4byte	.LASF867
 7770 2676 0C       		.byte	0xc
 7771 2677 51       		.byte	0x51
 7772 2678 A9230000 		.4byte	0x23a9
 7773 267c 0003     		.2byte	0x300
 7774 267e 1B       		.uleb128 0x1b
 7775 267f 2F0B0000 		.4byte	.LASF868
 7776 2683 0C       		.byte	0xc
 7777 2684 52       		.byte	0x52
 7778 2685 FF240000 		.4byte	0x24ff
ARM GAS  C:\Users\AHMEDH~1\AppData\Local\Temp\cclxJjJK.s 			page 170


 7779 2689 0805     		.2byte	0x508
 7780 268b 00       		.byte	0
 7781 268c 14       		.uleb128 0x14
 7782 268d 01       		.byte	0x1
 7783 268e 0D       		.byte	0xd
 7784 268f 33       		.byte	0x33
 7785 2690 38270000 		.4byte	0x2738
 7786 2694 0C       		.uleb128 0xc
 7787 2695 3A0B0000 		.4byte	.LASF869
 7788 2699 00       		.sleb128 0
 7789 269a 0C       		.uleb128 0xc
 7790 269b 0E070000 		.4byte	.LASF870
 7791 269f 01       		.sleb128 1
 7792 26a0 0C       		.uleb128 0xc
 7793 26a1 53110000 		.4byte	.LASF871
 7794 26a5 02       		.sleb128 2
 7795 26a6 0C       		.uleb128 0xc
 7796 26a7 6F310000 		.4byte	.LASF872
 7797 26ab 03       		.sleb128 3
 7798 26ac 0C       		.uleb128 0xc
 7799 26ad 0F2A0000 		.4byte	.LASF873
 7800 26b1 04       		.sleb128 4
 7801 26b2 0C       		.uleb128 0xc
 7802 26b3 AD000000 		.4byte	.LASF874
 7803 26b7 05       		.sleb128 5
 7804 26b8 0C       		.uleb128 0xc
 7805 26b9 83000000 		.4byte	.LASF875
 7806 26bd 06       		.sleb128 6
 7807 26be 0C       		.uleb128 0xc
 7808 26bf 1F150000 		.4byte	.LASF876
 7809 26c3 07       		.sleb128 7
 7810 26c4 0C       		.uleb128 0xc
 7811 26c5 9D030000 		.4byte	.LASF877
 7812 26c9 08       		.sleb128 8
 7813 26ca 0C       		.uleb128 0xc
 7814 26cb 83180000 		.4byte	.LASF878
 7815 26cf 09       		.sleb128 9
 7816 26d0 0C       		.uleb128 0xc
 7817 26d1 62260000 		.4byte	.LASF879
 7818 26d5 0A       		.sleb128 10
 7819 26d6 0C       		.uleb128 0xc
 7820 26d7 351C0000 		.4byte	.LASF880
 7821 26db 0B       		.sleb128 11
 7822 26dc 0C       		.uleb128 0xc
 7823 26dd 27190000 		.4byte	.LASF881
 7824 26e1 0C       		.sleb128 12
 7825 26e2 0C       		.uleb128 0xc
 7826 26e3 51150000 		.4byte	.LASF882
 7827 26e7 0D       		.sleb128 13
 7828 26e8 0C       		.uleb128 0xc
 7829 26e9 84150000 		.4byte	.LASF883
 7830 26ed 0E       		.sleb128 14
 7831 26ee 0C       		.uleb128 0xc
 7832 26ef 51120000 		.4byte	.LASF884
 7833 26f3 0F       		.sleb128 15
 7834 26f4 0C       		.uleb128 0xc
 7835 26f5 F6230000 		.4byte	.LASF885
ARM GAS  C:\Users\AHMEDH~1\AppData\Local\Temp\cclxJjJK.s 			page 171


 7836 26f9 10       		.sleb128 16
 7837 26fa 0C       		.uleb128 0xc
 7838 26fb 6C260000 		.4byte	.LASF886
 7839 26ff 11       		.sleb128 17
 7840 2700 0C       		.uleb128 0xc
 7841 2701 1F0B0000 		.4byte	.LASF887
 7842 2705 12       		.sleb128 18
 7843 2706 0C       		.uleb128 0xc
 7844 2707 7D010000 		.4byte	.LASF888
 7845 270b 13       		.sleb128 19
 7846 270c 0C       		.uleb128 0xc
 7847 270d D7090000 		.4byte	.LASF889
 7848 2711 14       		.sleb128 20
 7849 2712 0C       		.uleb128 0xc
 7850 2713 051B0000 		.4byte	.LASF890
 7851 2717 15       		.sleb128 21
 7852 2718 0C       		.uleb128 0xc
 7853 2719 791D0000 		.4byte	.LASF891
 7854 271d 16       		.sleb128 22
 7855 271e 0C       		.uleb128 0xc
 7856 271f CB020000 		.4byte	.LASF892
 7857 2723 17       		.sleb128 23
 7858 2724 0C       		.uleb128 0xc
 7859 2725 A8170000 		.4byte	.LASF893
 7860 2729 18       		.sleb128 24
 7861 272a 0C       		.uleb128 0xc
 7862 272b 5B310000 		.4byte	.LASF894
 7863 272f 19       		.sleb128 25
 7864 2730 0C       		.uleb128 0xc
 7865 2731 EA3B0000 		.4byte	.LASF895
 7866 2735 FF01     		.sleb128 255
 7867 2737 00       		.byte	0
 7868 2738 12       		.uleb128 0x12
 7869 2739 14       		.byte	0x14
 7870 273a 0E       		.byte	0xe
 7871 273b 95       		.byte	0x95
 7872 273c 7D270000 		.4byte	0x277d
 7873 2740 11       		.uleb128 0x11
 7874 2741 BE190000 		.4byte	.LASF896
 7875 2745 0E       		.byte	0xe
 7876 2746 96       		.byte	0x96
 7877 2747 36010000 		.4byte	0x136
 7878 274b 00       		.byte	0
 7879 274c 11       		.uleb128 0x11
 7880 274d 520D0000 		.4byte	.LASF897
 7881 2751 0E       		.byte	0xe
 7882 2752 97       		.byte	0x97
 7883 2753 A9000000 		.4byte	0xa9
 7884 2757 10       		.byte	0x10
 7885 2758 11       		.uleb128 0x11
 7886 2759 410C0000 		.4byte	.LASF898
 7887 275d 0E       		.byte	0xe
 7888 275e 98       		.byte	0x98
 7889 275f A9000000 		.4byte	0xa9
 7890 2763 11       		.byte	0x11
 7891 2764 11       		.uleb128 0x11
 7892 2765 75090000 		.4byte	.LASF899
ARM GAS  C:\Users\AHMEDH~1\AppData\Local\Temp\cclxJjJK.s 			page 172


 7893 2769 0E       		.byte	0xe
 7894 276a 99       		.byte	0x99
 7895 276b A9000000 		.4byte	0xa9
 7896 276f 12       		.byte	0x12
 7897 2770 11       		.uleb128 0x11
 7898 2771 48280000 		.4byte	.LASF900
 7899 2775 0E       		.byte	0xe
 7900 2776 9A       		.byte	0x9a
 7901 2777 A9000000 		.4byte	0xa9
 7902 277b 13       		.byte	0x13
 7903 277c 00       		.byte	0
 7904 277d 02       		.uleb128 0x2
 7905 277e 77260000 		.4byte	.LASF901
 7906 2782 0E       		.byte	0xe
 7907 2783 9B       		.byte	0x9b
 7908 2784 38270000 		.4byte	0x2738
 7909 2788 12       		.uleb128 0x12
 7910 2789 28       		.byte	0x28
 7911 278a 0E       		.byte	0xe
 7912 278b 9E       		.byte	0x9e
 7913 278c A9270000 		.4byte	0x27a9
 7914 2790 11       		.uleb128 0x11
 7915 2791 27300000 		.4byte	.LASF902
 7916 2795 0E       		.byte	0xe
 7917 2796 9F       		.byte	0x9f
 7918 2797 7D270000 		.4byte	0x277d
 7919 279b 00       		.byte	0
 7920 279c 11       		.uleb128 0x11
 7921 279d A5180000 		.4byte	.LASF903
 7922 27a1 0E       		.byte	0xe
 7923 27a2 A0       		.byte	0xa0
 7924 27a3 7D270000 		.4byte	0x277d
 7925 27a7 14       		.byte	0x14
 7926 27a8 00       		.byte	0
 7927 27a9 02       		.uleb128 0x2
 7928 27aa BB1E0000 		.4byte	.LASF904
 7929 27ae 0E       		.byte	0xe
 7930 27af A1       		.byte	0xa1
 7931 27b0 88270000 		.4byte	0x2788
 7932 27b4 10       		.uleb128 0x10
 7933 27b5 4B130000 		.4byte	.LASF905
 7934 27b9 28       		.byte	0x28
 7935 27ba 0E       		.byte	0xe
 7936 27bb A3       		.byte	0xa3
 7937 27bc CD270000 		.4byte	0x27cd
 7938 27c0 11       		.uleb128 0x11
 7939 27c1 432A0000 		.4byte	.LASF906
 7940 27c5 0E       		.byte	0xe
 7941 27c6 A4       		.byte	0xa4
 7942 27c7 A9270000 		.4byte	0x27a9
 7943 27cb 00       		.byte	0
 7944 27cc 00       		.byte	0
 7945 27cd 14       		.uleb128 0x14
 7946 27ce 01       		.byte	0x1
 7947 27cf 0E       		.byte	0xe
 7948 27d0 A7       		.byte	0xa7
 7949 27d1 E8270000 		.4byte	0x27e8
ARM GAS  C:\Users\AHMEDH~1\AppData\Local\Temp\cclxJjJK.s 			page 173


 7950 27d5 0C       		.uleb128 0xc
 7951 27d6 E8370000 		.4byte	.LASF907
 7952 27da 00       		.sleb128 0
 7953 27db 0C       		.uleb128 0xc
 7954 27dc 4E3B0000 		.4byte	.LASF908
 7955 27e0 01       		.sleb128 1
 7956 27e1 0C       		.uleb128 0xc
 7957 27e2 8F310000 		.4byte	.LASF909
 7958 27e6 02       		.sleb128 2
 7959 27e7 00       		.byte	0
 7960 27e8 1D       		.uleb128 0x1d
 7961 27e9 4B0F0000 		.4byte	.LASF916
 7962 27ed 01       		.byte	0x1
 7963 27ee E4       		.byte	0xe4
 7964 27ef 37000000 		.4byte	0x37
 7965 27f3 01       		.byte	0x1
 7966 27f4 3B280000 		.4byte	0x283b
 7967 27f8 1E       		.uleb128 0x1e
 7968 27f9 D03A0000 		.4byte	.LASF910
 7969 27fd 01       		.byte	0x1
 7970 27fe E4       		.byte	0xe4
 7971 27ff A9000000 		.4byte	0xa9
 7972 2803 1E       		.uleb128 0x1e
 7973 2804 AF210000 		.4byte	.LASF911
 7974 2808 01       		.byte	0x1
 7975 2809 E4       		.byte	0xe4
 7976 280a F0000000 		.4byte	0xf0
 7977 280e 1E       		.uleb128 0x1e
 7978 280f 4C080000 		.4byte	.LASF912
 7979 2813 01       		.byte	0x1
 7980 2814 E4       		.byte	0xe4
 7981 2815 F0000000 		.4byte	0xf0
 7982 2819 1E       		.uleb128 0x1e
 7983 281a FA1D0000 		.4byte	.LASF913
 7984 281e 01       		.byte	0x1
 7985 281f E4       		.byte	0xe4
 7986 2820 B4000000 		.4byte	0xb4
 7987 2824 1F       		.uleb128 0x1f
 7988 2825 EA350000 		.4byte	.LASF914
 7989 2829 01       		.byte	0x1
 7990 282a E6       		.byte	0xe6
 7991 282b 37000000 		.4byte	0x37
 7992 282f 1F       		.uleb128 0x1f
 7993 2830 88270000 		.4byte	.LASF915
 7994 2834 01       		.byte	0x1
 7995 2835 E7       		.byte	0xe7
 7996 2836 F0000000 		.4byte	0xf0
 7997 283a 00       		.byte	0
 7998 283b 20       		.uleb128 0x20
 7999 283c EA160000 		.4byte	.LASF917
 8000 2840 01       		.byte	0x1
 8001 2841 0702     		.2byte	0x207
 8002 2843 37000000 		.4byte	0x37
 8003 2847 01       		.byte	0x1
 8004 2848 93280000 		.4byte	0x2893
 8005 284c 21       		.uleb128 0x21
 8006 284d AF210000 		.4byte	.LASF911
ARM GAS  C:\Users\AHMEDH~1\AppData\Local\Temp\cclxJjJK.s 			page 174


 8007 2851 01       		.byte	0x1
 8008 2852 0702     		.2byte	0x207
 8009 2854 F0000000 		.4byte	0xf0
 8010 2858 21       		.uleb128 0x21
 8011 2859 4C080000 		.4byte	.LASF912
 8012 285d 01       		.byte	0x1
 8013 285e 0702     		.2byte	0x207
 8014 2860 F0000000 		.4byte	0xf0
 8015 2864 21       		.uleb128 0x21
 8016 2865 FA1D0000 		.4byte	.LASF913
 8017 2869 01       		.byte	0x1
 8018 286a 0702     		.2byte	0x207
 8019 286c B4000000 		.4byte	0xb4
 8020 2870 22       		.uleb128 0x22
 8021 2871 6900     		.ascii	"i\000"
 8022 2873 01       		.byte	0x1
 8023 2874 0902     		.2byte	0x209
 8024 2876 37000000 		.4byte	0x37
 8025 287a 23       		.uleb128 0x23
 8026 287b EA350000 		.4byte	.LASF914
 8027 287f 01       		.byte	0x1
 8028 2880 0902     		.2byte	0x209
 8029 2882 37000000 		.4byte	0x37
 8030 2886 23       		.uleb128 0x23
 8031 2887 88270000 		.4byte	.LASF915
 8032 288b 01       		.byte	0x1
 8033 288c 0A02     		.2byte	0x20a
 8034 288e F0000000 		.4byte	0xf0
 8035 2892 00       		.byte	0
 8036 2893 20       		.uleb128 0x20
 8037 2894 0D1D0000 		.4byte	.LASF918
 8038 2898 01       		.byte	0x1
 8039 2899 2802     		.2byte	0x228
 8040 289b 37000000 		.4byte	0x37
 8041 289f 01       		.byte	0x1
 8042 28a0 E1280000 		.4byte	0x28e1
 8043 28a4 21       		.uleb128 0x21
 8044 28a5 AF210000 		.4byte	.LASF911
 8045 28a9 01       		.byte	0x1
 8046 28aa 2802     		.2byte	0x228
 8047 28ac F0000000 		.4byte	0xf0
 8048 28b0 21       		.uleb128 0x21
 8049 28b1 4C080000 		.4byte	.LASF912
 8050 28b5 01       		.byte	0x1
 8051 28b6 2802     		.2byte	0x228
 8052 28b8 F0000000 		.4byte	0xf0
 8053 28bc 21       		.uleb128 0x21
 8054 28bd FA1D0000 		.4byte	.LASF913
 8055 28c1 01       		.byte	0x1
 8056 28c2 2802     		.2byte	0x228
 8057 28c4 B4000000 		.4byte	0xb4
 8058 28c8 23       		.uleb128 0x23
 8059 28c9 EA350000 		.4byte	.LASF914
 8060 28cd 01       		.byte	0x1
 8061 28ce 2A02     		.2byte	0x22a
 8062 28d0 37000000 		.4byte	0x37
 8063 28d4 23       		.uleb128 0x23
ARM GAS  C:\Users\AHMEDH~1\AppData\Local\Temp\cclxJjJK.s 			page 175


 8064 28d5 88270000 		.4byte	.LASF915
 8065 28d9 01       		.byte	0x1
 8066 28da 2B02     		.2byte	0x22b
 8067 28dc F0000000 		.4byte	0xf0
 8068 28e0 00       		.byte	0
 8069 28e1 20       		.uleb128 0x20
 8070 28e2 56130000 		.4byte	.LASF919
 8071 28e6 01       		.byte	0x1
 8072 28e7 8502     		.2byte	0x285
 8073 28e9 37000000 		.4byte	0x37
 8074 28ed 01       		.byte	0x1
 8075 28ee 75290000 		.4byte	0x2975
 8076 28f2 21       		.uleb128 0x21
 8077 28f3 AF210000 		.4byte	.LASF911
 8078 28f7 01       		.byte	0x1
 8079 28f8 8502     		.2byte	0x285
 8080 28fa F0000000 		.4byte	0xf0
 8081 28fe 21       		.uleb128 0x21
 8082 28ff 4C080000 		.4byte	.LASF912
 8083 2903 01       		.byte	0x1
 8084 2904 8502     		.2byte	0x285
 8085 2906 F0000000 		.4byte	0xf0
 8086 290a 21       		.uleb128 0x21
 8087 290b FA1D0000 		.4byte	.LASF913
 8088 290f 01       		.byte	0x1
 8089 2910 8502     		.2byte	0x285
 8090 2912 B4000000 		.4byte	0xb4
 8091 2916 22       		.uleb128 0x22
 8092 2917 6900     		.ascii	"i\000"
 8093 2919 01       		.byte	0x1
 8094 291a 8702     		.2byte	0x287
 8095 291c 37000000 		.4byte	0x37
 8096 2920 23       		.uleb128 0x23
 8097 2921 EA350000 		.4byte	.LASF914
 8098 2925 01       		.byte	0x1
 8099 2926 8702     		.2byte	0x287
 8100 2928 37000000 		.4byte	0x37
 8101 292c 23       		.uleb128 0x23
 8102 292d 88270000 		.4byte	.LASF915
 8103 2931 01       		.byte	0x1
 8104 2932 8802     		.2byte	0x288
 8105 2934 F0000000 		.4byte	0xf0
 8106 2938 23       		.uleb128 0x23
 8107 2939 32000000 		.4byte	.LASF920
 8108 293d 01       		.byte	0x1
 8109 293e 8802     		.2byte	0x288
 8110 2940 A9000000 		.4byte	0xa9
 8111 2944 23       		.uleb128 0x23
 8112 2945 1D160000 		.4byte	.LASF921
 8113 2949 01       		.byte	0x1
 8114 294a 8802     		.2byte	0x288
 8115 294c A9000000 		.4byte	0xa9
 8116 2950 23       		.uleb128 0x23
 8117 2951 6F250000 		.4byte	.LASF922
 8118 2955 01       		.byte	0x1
 8119 2956 8802     		.2byte	0x288
 8120 2958 A9000000 		.4byte	0xa9
ARM GAS  C:\Users\AHMEDH~1\AppData\Local\Temp\cclxJjJK.s 			page 176


 8121 295c 23       		.uleb128 0x23
 8122 295d F2330000 		.4byte	.LASF923
 8123 2961 01       		.byte	0x1
 8124 2962 8802     		.2byte	0x288
 8125 2964 F0000000 		.4byte	0xf0
 8126 2968 22       		.uleb128 0x22
 8127 2969 62756600 		.ascii	"buf\000"
 8128 296d 01       		.byte	0x1
 8129 296e 8802     		.2byte	0x288
 8130 2970 36010000 		.4byte	0x136
 8131 2974 00       		.byte	0
 8132 2975 20       		.uleb128 0x20
 8133 2976 8A360000 		.4byte	.LASF924
 8134 297a 01       		.byte	0x1
 8135 297b BA02     		.2byte	0x2ba
 8136 297d 37000000 		.4byte	0x37
 8137 2981 01       		.byte	0x1
 8138 2982 152A0000 		.4byte	0x2a15
 8139 2986 21       		.uleb128 0x21
 8140 2987 AF210000 		.4byte	.LASF911
 8141 298b 01       		.byte	0x1
 8142 298c BA02     		.2byte	0x2ba
 8143 298e F0000000 		.4byte	0xf0
 8144 2992 21       		.uleb128 0x21
 8145 2993 4C080000 		.4byte	.LASF912
 8146 2997 01       		.byte	0x1
 8147 2998 BA02     		.2byte	0x2ba
 8148 299a F0000000 		.4byte	0xf0
 8149 299e 21       		.uleb128 0x21
 8150 299f FA1D0000 		.4byte	.LASF913
 8151 29a3 01       		.byte	0x1
 8152 29a4 BA02     		.2byte	0x2ba
 8153 29a6 B4000000 		.4byte	0xb4
 8154 29aa 22       		.uleb128 0x22
 8155 29ab 6900     		.ascii	"i\000"
 8156 29ad 01       		.byte	0x1
 8157 29ae BC02     		.2byte	0x2bc
 8158 29b0 37000000 		.4byte	0x37
 8159 29b4 23       		.uleb128 0x23
 8160 29b5 EA350000 		.4byte	.LASF914
 8161 29b9 01       		.byte	0x1
 8162 29ba BC02     		.2byte	0x2bc
 8163 29bc 37000000 		.4byte	0x37
 8164 29c0 23       		.uleb128 0x23
 8165 29c1 88270000 		.4byte	.LASF915
 8166 29c5 01       		.byte	0x1
 8167 29c6 BD02     		.2byte	0x2bd
 8168 29c8 F0000000 		.4byte	0xf0
 8169 29cc 23       		.uleb128 0x23
 8170 29cd 32000000 		.4byte	.LASF920
 8171 29d1 01       		.byte	0x1
 8172 29d2 BD02     		.2byte	0x2bd
 8173 29d4 A9000000 		.4byte	0xa9
 8174 29d8 23       		.uleb128 0x23
 8175 29d9 1D160000 		.4byte	.LASF921
 8176 29dd 01       		.byte	0x1
 8177 29de BD02     		.2byte	0x2bd
ARM GAS  C:\Users\AHMEDH~1\AppData\Local\Temp\cclxJjJK.s 			page 177


 8178 29e0 A9000000 		.4byte	0xa9
 8179 29e4 23       		.uleb128 0x23
 8180 29e5 B3120000 		.4byte	.LASF925
 8181 29e9 01       		.byte	0x1
 8182 29ea BD02     		.2byte	0x2bd
 8183 29ec F0000000 		.4byte	0xf0
 8184 29f0 23       		.uleb128 0x23
 8185 29f1 241E0000 		.4byte	.LASF926
 8186 29f5 01       		.byte	0x1
 8187 29f6 BD02     		.2byte	0x2bd
 8188 29f8 F0000000 		.4byte	0xf0
 8189 29fc 22       		.uleb128 0x22
 8190 29fd 62756600 		.ascii	"buf\000"
 8191 2a01 01       		.byte	0x1
 8192 2a02 BD02     		.2byte	0x2bd
 8193 2a04 36010000 		.4byte	0x136
 8194 2a08 23       		.uleb128 0x23
 8195 2a09 ED3A0000 		.4byte	.LASF927
 8196 2a0d 01       		.byte	0x1
 8197 2a0e BD02     		.2byte	0x2bd
 8198 2a10 46010000 		.4byte	0x146
 8199 2a14 00       		.byte	0
 8200 2a15 20       		.uleb128 0x20
 8201 2a16 85080000 		.4byte	.LASF928
 8202 2a1a 01       		.byte	0x1
 8203 2a1b 4502     		.2byte	0x245
 8204 2a1d 37000000 		.4byte	0x37
 8205 2a21 01       		.byte	0x1
 8206 2a22 A92A0000 		.4byte	0x2aa9
 8207 2a26 21       		.uleb128 0x21
 8208 2a27 AF210000 		.4byte	.LASF911
 8209 2a2b 01       		.byte	0x1
 8210 2a2c 4502     		.2byte	0x245
 8211 2a2e F0000000 		.4byte	0xf0
 8212 2a32 21       		.uleb128 0x21
 8213 2a33 4C080000 		.4byte	.LASF912
 8214 2a37 01       		.byte	0x1
 8215 2a38 4502     		.2byte	0x245
 8216 2a3a F0000000 		.4byte	0xf0
 8217 2a3e 21       		.uleb128 0x21
 8218 2a3f FA1D0000 		.4byte	.LASF913
 8219 2a43 01       		.byte	0x1
 8220 2a44 4502     		.2byte	0x245
 8221 2a46 B4000000 		.4byte	0xb4
 8222 2a4a 22       		.uleb128 0x22
 8223 2a4b 6900     		.ascii	"i\000"
 8224 2a4d 01       		.byte	0x1
 8225 2a4e 4702     		.2byte	0x247
 8226 2a50 37000000 		.4byte	0x37
 8227 2a54 23       		.uleb128 0x23
 8228 2a55 EA350000 		.4byte	.LASF914
 8229 2a59 01       		.byte	0x1
 8230 2a5a 4702     		.2byte	0x247
 8231 2a5c 37000000 		.4byte	0x37
 8232 2a60 23       		.uleb128 0x23
 8233 2a61 88270000 		.4byte	.LASF915
 8234 2a65 01       		.byte	0x1
ARM GAS  C:\Users\AHMEDH~1\AppData\Local\Temp\cclxJjJK.s 			page 178


 8235 2a66 4802     		.2byte	0x248
 8236 2a68 F0000000 		.4byte	0xf0
 8237 2a6c 23       		.uleb128 0x23
 8238 2a6d 32000000 		.4byte	.LASF920
 8239 2a71 01       		.byte	0x1
 8240 2a72 4802     		.2byte	0x248
 8241 2a74 A9000000 		.4byte	0xa9
 8242 2a78 23       		.uleb128 0x23
 8243 2a79 1D160000 		.4byte	.LASF921
 8244 2a7d 01       		.byte	0x1
 8245 2a7e 4802     		.2byte	0x248
 8246 2a80 A9000000 		.4byte	0xa9
 8247 2a84 23       		.uleb128 0x23
 8248 2a85 92180000 		.4byte	.LASF929
 8249 2a89 01       		.byte	0x1
 8250 2a8a 4802     		.2byte	0x248
 8251 2a8c F0000000 		.4byte	0xf0
 8252 2a90 23       		.uleb128 0x23
 8253 2a91 81330000 		.4byte	.LASF930
 8254 2a95 01       		.byte	0x1
 8255 2a96 4802     		.2byte	0x248
 8256 2a98 46010000 		.4byte	0x146
 8257 2a9c 22       		.uleb128 0x22
 8258 2a9d 62756600 		.ascii	"buf\000"
 8259 2aa1 01       		.byte	0x1
 8260 2aa2 4802     		.2byte	0x248
 8261 2aa4 36010000 		.4byte	0x136
 8262 2aa8 00       		.byte	0
 8263 2aa9 20       		.uleb128 0x20
 8264 2aaa D2300000 		.4byte	.LASF931
 8265 2aae 01       		.byte	0x1
 8266 2aaf 2604     		.2byte	0x426
 8267 2ab1 37000000 		.4byte	0x37
 8268 2ab5 01       		.byte	0x1
 8269 2ab6 012B0000 		.4byte	0x2b01
 8270 2aba 21       		.uleb128 0x21
 8271 2abb AF210000 		.4byte	.LASF911
 8272 2abf 01       		.byte	0x1
 8273 2ac0 2604     		.2byte	0x426
 8274 2ac2 F0000000 		.4byte	0xf0
 8275 2ac6 21       		.uleb128 0x21
 8276 2ac7 4C080000 		.4byte	.LASF912
 8277 2acb 01       		.byte	0x1
 8278 2acc 2604     		.2byte	0x426
 8279 2ace F0000000 		.4byte	0xf0
 8280 2ad2 21       		.uleb128 0x21
 8281 2ad3 FA1D0000 		.4byte	.LASF913
 8282 2ad7 01       		.byte	0x1
 8283 2ad8 2604     		.2byte	0x426
 8284 2ada B4000000 		.4byte	0xb4
 8285 2ade 22       		.uleb128 0x22
 8286 2adf 6900     		.ascii	"i\000"
 8287 2ae1 01       		.byte	0x1
 8288 2ae2 2804     		.2byte	0x428
 8289 2ae4 37000000 		.4byte	0x37
 8290 2ae8 23       		.uleb128 0x23
 8291 2ae9 EA350000 		.4byte	.LASF914
ARM GAS  C:\Users\AHMEDH~1\AppData\Local\Temp\cclxJjJK.s 			page 179


 8292 2aed 01       		.byte	0x1
 8293 2aee 2804     		.2byte	0x428
 8294 2af0 37000000 		.4byte	0x37
 8295 2af4 22       		.uleb128 0x22
 8296 2af5 62756600 		.ascii	"buf\000"
 8297 2af9 01       		.byte	0x1
 8298 2afa 2904     		.2byte	0x429
 8299 2afc 36010000 		.4byte	0x136
 8300 2b00 00       		.byte	0
 8301 2b01 24       		.uleb128 0x24
 8302 2b02 05260000 		.4byte	.LASF997
 8303 2b06 01       		.byte	0x1
 8304 2b07 0D03     		.2byte	0x30d
 8305 2b09 01       		.byte	0x1
 8306 2b0a 6D2B0000 		.4byte	0x2b6d
 8307 2b0e 21       		.uleb128 0x21
 8308 2b0f 10170000 		.4byte	.LASF932
 8309 2b13 01       		.byte	0x1
 8310 2b14 0D03     		.2byte	0x30d
 8311 2b16 6D2B0000 		.4byte	0x2b6d
 8312 2b1a 22       		.uleb128 0x22
 8313 2b1b 707700   		.ascii	"pw\000"
 8314 2b1e 01       		.byte	0x1
 8315 2b1f 0F03     		.2byte	0x30f
 8316 2b21 732B0000 		.4byte	0x2b73
 8317 2b25 22       		.uleb128 0x22
 8318 2b26 706200   		.ascii	"pb\000"
 8319 2b29 01       		.byte	0x1
 8320 2b2a 1003     		.2byte	0x310
 8321 2b2c F0000000 		.4byte	0xf0
 8322 2b30 23       		.uleb128 0x23
 8323 2b31 CD160000 		.4byte	.LASF933
 8324 2b35 01       		.byte	0x1
 8325 2b36 1003     		.2byte	0x310
 8326 2b38 26010000 		.4byte	0x126
 8327 2b3c 23       		.uleb128 0x23
 8328 2b3d 15050000 		.4byte	.LASF934
 8329 2b41 01       		.byte	0x1
 8330 2b42 1003     		.2byte	0x310
 8331 2b44 06010000 		.4byte	0x106
 8332 2b48 23       		.uleb128 0x23
 8333 2b49 AB030000 		.4byte	.LASF935
 8334 2b4d 01       		.byte	0x1
 8335 2b4e 1003     		.2byte	0x310
 8336 2b50 F0000000 		.4byte	0xf0
 8337 2b54 23       		.uleb128 0x23
 8338 2b55 82250000 		.4byte	.LASF798
 8339 2b59 01       		.byte	0x1
 8340 2b5a 1103     		.2byte	0x311
 8341 2b5c B4000000 		.4byte	0xb4
 8342 2b60 23       		.uleb128 0x23
 8343 2b61 95230000 		.4byte	.LASF936
 8344 2b65 01       		.byte	0x1
 8345 2b66 1103     		.2byte	0x311
 8346 2b68 B4000000 		.4byte	0xb4
 8347 2b6c 00       		.byte	0
 8348 2b6d 06       		.uleb128 0x6
ARM GAS  C:\Users\AHMEDH~1\AppData\Local\Temp\cclxJjJK.s 			page 180


 8349 2b6e 04       		.byte	0x4
 8350 2b6f BC100000 		.4byte	0x10bc
 8351 2b73 06       		.uleb128 0x6
 8352 2b74 04       		.byte	0x4
 8353 2b75 792B0000 		.4byte	0x2b79
 8354 2b79 07       		.uleb128 0x7
 8355 2b7a B4000000 		.4byte	0xb4
 8356 2b7e 25       		.uleb128 0x25
 8357 2b7f D6050000 		.4byte	.LASF1016
 8358 2b83 01       		.byte	0x1
 8359 2b84 9603     		.2byte	0x396
 8360 2b86 BF000000 		.4byte	0xbf
 8361 2b8a 01       		.byte	0x1
 8362 2b8b 26       		.uleb128 0x26
 8363 2b8c 15260000 		.4byte	.LASF995
 8364 2b90 01       		.byte	0x1
 8365 2b91 2005     		.2byte	0x520
 8366 2b93 37000000 		.4byte	0x37
 8367 2b97 01       		.byte	0x1
 8368 2b98 CD2B0000 		.4byte	0x2bcd
 8369 2b9c 21       		.uleb128 0x21
 8370 2b9d 1C1B0000 		.4byte	.LASF937
 8371 2ba1 01       		.byte	0x1
 8372 2ba2 2005     		.2byte	0x520
 8373 2ba4 F0000000 		.4byte	0xf0
 8374 2ba8 21       		.uleb128 0x21
 8375 2ba9 BA130000 		.4byte	.LASF938
 8376 2bad 01       		.byte	0x1
 8377 2bae 2005     		.2byte	0x520
 8378 2bb0 B4000000 		.4byte	0xb4
 8379 2bb4 22       		.uleb128 0x22
 8380 2bb5 62756600 		.ascii	"buf\000"
 8381 2bb9 01       		.byte	0x1
 8382 2bba 2205     		.2byte	0x522
 8383 2bbc 421B0000 		.4byte	0x1b42
 8384 2bc0 22       		.uleb128 0x22
 8385 2bc1 72657400 		.ascii	"ret\000"
 8386 2bc5 01       		.byte	0x1
 8387 2bc6 2305     		.2byte	0x523
 8388 2bc8 37000000 		.4byte	0x37
 8389 2bcc 00       		.byte	0
 8390 2bcd 20       		.uleb128 0x20
 8391 2bce D3030000 		.4byte	.LASF939
 8392 2bd2 01       		.byte	0x1
 8393 2bd3 9201     		.2byte	0x192
 8394 2bd5 37000000 		.4byte	0x37
 8395 2bd9 01       		.byte	0x1
 8396 2bda 032C0000 		.4byte	0x2c03
 8397 2bde 21       		.uleb128 0x21
 8398 2bdf D0180000 		.4byte	.LASF940
 8399 2be3 01       		.byte	0x1
 8400 2be4 9201     		.2byte	0x192
 8401 2be6 F0000000 		.4byte	0xf0
 8402 2bea 21       		.uleb128 0x21
 8403 2beb 080B0000 		.4byte	.LASF941
 8404 2bef 01       		.byte	0x1
 8405 2bf0 9201     		.2byte	0x192
ARM GAS  C:\Users\AHMEDH~1\AppData\Local\Temp\cclxJjJK.s 			page 181


 8406 2bf2 B4000000 		.4byte	0xb4
 8407 2bf6 22       		.uleb128 0x22
 8408 2bf7 62756600 		.ascii	"buf\000"
 8409 2bfb 01       		.byte	0x1
 8410 2bfc 9401     		.2byte	0x194
 8411 2bfe 36010000 		.4byte	0x136
 8412 2c02 00       		.byte	0
 8413 2c03 20       		.uleb128 0x20
 8414 2c04 66090000 		.4byte	.LASF942
 8415 2c08 01       		.byte	0x1
 8416 2c09 ED02     		.2byte	0x2ed
 8417 2c0b 37000000 		.4byte	0x37
 8418 2c0f 01       		.byte	0x1
 8419 2c10 5D2C0000 		.4byte	0x2c5d
 8420 2c14 21       		.uleb128 0x21
 8421 2c15 D03A0000 		.4byte	.LASF910
 8422 2c19 01       		.byte	0x1
 8423 2c1a ED02     		.2byte	0x2ed
 8424 2c1c A9000000 		.4byte	0xa9
 8425 2c20 21       		.uleb128 0x21
 8426 2c21 15040000 		.4byte	.LASF943
 8427 2c25 01       		.byte	0x1
 8428 2c26 ED02     		.2byte	0x2ed
 8429 2c28 BF000000 		.4byte	0xbf
 8430 2c2c 21       		.uleb128 0x21
 8431 2c2d AF210000 		.4byte	.LASF911
 8432 2c31 01       		.byte	0x1
 8433 2c32 ED02     		.2byte	0x2ed
 8434 2c34 F0000000 		.4byte	0xf0
 8435 2c38 21       		.uleb128 0x21
 8436 2c39 10170000 		.4byte	.LASF932
 8437 2c3d 01       		.byte	0x1
 8438 2c3e ED02     		.2byte	0x2ed
 8439 2c40 6D2B0000 		.4byte	0x2b6d
 8440 2c44 23       		.uleb128 0x23
 8441 2c45 EA350000 		.4byte	.LASF914
 8442 2c49 01       		.byte	0x1
 8443 2c4a EF02     		.2byte	0x2ef
 8444 2c4c 37000000 		.4byte	0x37
 8445 2c50 23       		.uleb128 0x23
 8446 2c51 88270000 		.4byte	.LASF915
 8447 2c55 01       		.byte	0x1
 8448 2c56 F002     		.2byte	0x2f0
 8449 2c58 F0000000 		.4byte	0xf0
 8450 2c5c 00       		.byte	0
 8451 2c5d 20       		.uleb128 0x20
 8452 2c5e 37180000 		.4byte	.LASF944
 8453 2c62 01       		.byte	0x1
 8454 2c63 C403     		.2byte	0x3c4
 8455 2c65 37000000 		.4byte	0x37
 8456 2c69 01       		.byte	0x1
 8457 2c6a CE2C0000 		.4byte	0x2cce
 8458 2c6e 21       		.uleb128 0x21
 8459 2c6f AF210000 		.4byte	.LASF911
 8460 2c73 01       		.byte	0x1
 8461 2c74 C403     		.2byte	0x3c4
 8462 2c76 F0000000 		.4byte	0xf0
ARM GAS  C:\Users\AHMEDH~1\AppData\Local\Temp\cclxJjJK.s 			page 182


 8463 2c7a 21       		.uleb128 0x21
 8464 2c7b 4C080000 		.4byte	.LASF912
 8465 2c7f 01       		.byte	0x1
 8466 2c80 C403     		.2byte	0x3c4
 8467 2c82 F0000000 		.4byte	0xf0
 8468 2c86 21       		.uleb128 0x21
 8469 2c87 FA1D0000 		.4byte	.LASF913
 8470 2c8b 01       		.byte	0x1
 8471 2c8c C403     		.2byte	0x3c4
 8472 2c8e B4000000 		.4byte	0xb4
 8473 2c92 23       		.uleb128 0x23
 8474 2c93 5D330000 		.4byte	.LASF945
 8475 2c97 01       		.byte	0x1
 8476 2c98 C603     		.2byte	0x3c6
 8477 2c9a BC100000 		.4byte	0x10bc
 8478 2c9e 23       		.uleb128 0x23
 8479 2c9f EA350000 		.4byte	.LASF914
 8480 2ca3 01       		.byte	0x1
 8481 2ca4 C703     		.2byte	0x3c7
 8482 2ca6 37000000 		.4byte	0x37
 8483 2caa 22       		.uleb128 0x22
 8484 2cab 706200   		.ascii	"pb\000"
 8485 2cae 01       		.byte	0x1
 8486 2caf C803     		.2byte	0x3c8
 8487 2cb1 F0000000 		.4byte	0xf0
 8488 2cb5 23       		.uleb128 0x23
 8489 2cb6 2A090000 		.4byte	.LASF946
 8490 2cba 01       		.byte	0x1
 8491 2cbb C803     		.2byte	0x3c8
 8492 2cbd F0000000 		.4byte	0xf0
 8493 2cc1 22       		.uleb128 0x22
 8494 2cc2 72657400 		.ascii	"ret\000"
 8495 2cc6 01       		.byte	0x1
 8496 2cc7 C903     		.2byte	0x3c9
 8497 2cc9 BF000000 		.4byte	0xbf
 8498 2ccd 00       		.byte	0
 8499 2cce 27       		.uleb128 0x27
 8500 2ccf F20B0000 		.4byte	.LASF1045
 8501 2cd3 01       		.byte	0x1
 8502 2cd4 CB       		.byte	0xcb
 8503 2cd5 00000000 		.4byte	.LFB1
 8504 2cd9 8C000000 		.4byte	.LFE1-.LFB1
 8505 2cdd 01       		.uleb128 0x1
 8506 2cde 9C       		.byte	0x9c
 8507 2cdf 572E0000 		.4byte	0x2e57
 8508 2ce3 28       		.uleb128 0x28
 8509 2ce4 11120000 		.4byte	.LASF947
 8510 2ce8 01       		.byte	0x1
 8511 2ce9 CD       		.byte	0xcd
 8512 2cea 26010000 		.4byte	0x126
 8513 2cee 02       		.uleb128 0x2
 8514 2cef 91       		.byte	0x91
 8515 2cf0 50       		.sleb128 -48
 8516 2cf1 29       		.uleb128 0x29
 8517 2cf2 6C656E00 		.ascii	"len\000"
 8518 2cf6 01       		.byte	0x1
 8519 2cf7 CE       		.byte	0xce
ARM GAS  C:\Users\AHMEDH~1\AppData\Local\Temp\cclxJjJK.s 			page 183


 8520 2cf8 BF000000 		.4byte	0xbf
 8521 2cfc 00000000 		.4byte	.LLST0
 8522 2d00 29       		.uleb128 0x29
 8523 2d01 666400   		.ascii	"fd\000"
 8524 2d04 01       		.byte	0x1
 8525 2d05 CF       		.byte	0xcf
 8526 2d06 37000000 		.4byte	0x37
 8527 2d0a 13000000 		.4byte	.LLST1
 8528 2d0e 2A       		.uleb128 0x2a
 8529 2d0f 36000000 		.4byte	.LBB6
 8530 2d13 32000000 		.4byte	.LBE6-.LBB6
 8531 2d17 B92D0000 		.4byte	0x2db9
 8532 2d1b 29       		.uleb128 0x29
 8533 2d1c 6C656E00 		.ascii	"len\000"
 8534 2d20 01       		.byte	0x1
 8535 2d21 D6       		.byte	0xd6
 8536 2d22 BF000000 		.4byte	0xbf
 8537 2d26 31000000 		.4byte	.LLST2
 8538 2d2a 29       		.uleb128 0x29
 8539 2d2b 70747200 		.ascii	"ptr\000"
 8540 2d2f 01       		.byte	0x1
 8541 2d30 D6       		.byte	0xd6
 8542 2d31 F0000000 		.4byte	0xf0
 8543 2d35 45000000 		.4byte	.LLST3
 8544 2d39 2B       		.uleb128 0x2b
 8545 2d3a 3E000000 		.4byte	.LVL6
 8546 2d3e C74A0000 		.4byte	0x4ac7
 8547 2d42 522D0000 		.4byte	0x2d52
 8548 2d46 2C       		.uleb128 0x2c
 8549 2d47 01       		.uleb128 0x1
 8550 2d48 51       		.byte	0x51
 8551 2d49 01       		.uleb128 0x1
 8552 2d4a 3D       		.byte	0x3d
 8553 2d4b 2C       		.uleb128 0x2c
 8554 2d4c 01       		.uleb128 0x1
 8555 2d4d 50       		.byte	0x50
 8556 2d4e 02       		.uleb128 0x2
 8557 2d4f 08       		.byte	0x8
 8558 2d50 92       		.byte	0x92
 8559 2d51 00       		.byte	0
 8560 2d52 2B       		.uleb128 0x2b
 8561 2d53 4A000000 		.4byte	.LVL7
 8562 2d57 E14A0000 		.4byte	0x4ae1
 8563 2d5b 742D0000 		.4byte	0x2d74
 8564 2d5f 2C       		.uleb128 0x2c
 8565 2d60 01       		.uleb128 0x1
 8566 2d61 52       		.byte	0x52
 8567 2d62 01       		.uleb128 0x1
 8568 2d63 3C       		.byte	0x3c
 8569 2d64 2C       		.uleb128 0x2c
 8570 2d65 01       		.uleb128 0x1
 8571 2d66 51       		.byte	0x51
 8572 2d67 05       		.uleb128 0x5
 8573 2d68 03       		.byte	0x3
 8574 2d69 00000000 		.4byte	.LC0
 8575 2d6d 2C       		.uleb128 0x2c
 8576 2d6e 01       		.uleb128 0x1
ARM GAS  C:\Users\AHMEDH~1\AppData\Local\Temp\cclxJjJK.s 			page 184


 8577 2d6f 50       		.byte	0x50
 8578 2d70 02       		.uleb128 0x2
 8579 2d71 74       		.byte	0x74
 8580 2d72 00       		.sleb128 0
 8581 2d73 00       		.byte	0
 8582 2d74 2B       		.uleb128 0x2b
 8583 2d75 60000000 		.4byte	.LVL8
 8584 2d79 FE4A0000 		.4byte	0x4afe
 8585 2d7d A22D0000 		.4byte	0x2da2
 8586 2d81 2C       		.uleb128 0x2c
 8587 2d82 01       		.uleb128 0x1
 8588 2d83 53       		.byte	0x53
 8589 2d84 03       		.uleb128 0x3
 8590 2d85 0A       		.byte	0xa
 8591 2d86 0001     		.2byte	0x100
 8592 2d88 2C       		.uleb128 0x2c
 8593 2d89 01       		.uleb128 0x1
 8594 2d8a 52       		.byte	0x52
 8595 2d8b 02       		.uleb128 0x2
 8596 2d8c 74       		.byte	0x74
 8597 2d8d 00       		.sleb128 0
 8598 2d8e 2C       		.uleb128 0x2c
 8599 2d8f 01       		.uleb128 0x1
 8600 2d90 51       		.byte	0x51
 8601 2d91 02       		.uleb128 0x2
 8602 2d92 08       		.byte	0x8
 8603 2d93 25       		.byte	0x25
 8604 2d94 2C       		.uleb128 0x2c
 8605 2d95 01       		.uleb128 0x1
 8606 2d96 50       		.byte	0x50
 8607 2d97 01       		.uleb128 0x1
 8608 2d98 3F       		.byte	0x3f
 8609 2d99 2C       		.uleb128 0x2c
 8610 2d9a 02       		.uleb128 0x2
 8611 2d9b 7D       		.byte	0x7d
 8612 2d9c 00       		.sleb128 0
 8613 2d9d 03       		.uleb128 0x3
 8614 2d9e 0A       		.byte	0xa
 8615 2d9f 8010     		.2byte	0x1080
 8616 2da1 00       		.byte	0
 8617 2da2 2D       		.uleb128 0x2d
 8618 2da3 68000000 		.4byte	.LVL9
 8619 2da7 C74A0000 		.4byte	0x4ac7
 8620 2dab 2C       		.uleb128 0x2c
 8621 2dac 01       		.uleb128 0x1
 8622 2dad 51       		.byte	0x51
 8623 2dae 02       		.uleb128 0x2
 8624 2daf 74       		.byte	0x74
 8625 2db0 00       		.sleb128 0
 8626 2db1 2C       		.uleb128 0x2c
 8627 2db2 01       		.uleb128 0x1
 8628 2db3 50       		.byte	0x50
 8629 2db4 02       		.uleb128 0x2
 8630 2db5 08       		.byte	0x8
 8631 2db6 94       		.byte	0x94
 8632 2db7 00       		.byte	0
 8633 2db8 00       		.byte	0
ARM GAS  C:\Users\AHMEDH~1\AppData\Local\Temp\cclxJjJK.s 			page 185


 8634 2db9 2B       		.uleb128 0x2b
 8635 2dba 0E000000 		.4byte	.LVL0
 8636 2dbe 274B0000 		.4byte	0x4b27
 8637 2dc2 D62D0000 		.4byte	0x2dd6
 8638 2dc6 2C       		.uleb128 0x2c
 8639 2dc7 01       		.uleb128 0x1
 8640 2dc8 51       		.byte	0x51
 8641 2dc9 05       		.uleb128 0x5
 8642 2dca 03       		.byte	0x3
 8643 2dcb 00000000 		.4byte	.LANCHOR0
 8644 2dcf 2C       		.uleb128 0x2c
 8645 2dd0 01       		.uleb128 0x1
 8646 2dd1 50       		.byte	0x50
 8647 2dd2 02       		.uleb128 0x2
 8648 2dd3 91       		.byte	0x91
 8649 2dd4 50       		.sleb128 -48
 8650 2dd5 00       		.byte	0
 8651 2dd6 2B       		.uleb128 0x2b
 8652 2dd7 1C000000 		.4byte	.LVL1
 8653 2ddb FE4A0000 		.4byte	0x4afe
 8654 2ddf 012E0000 		.4byte	0x2e01
 8655 2de3 2C       		.uleb128 0x2c
 8656 2de4 01       		.uleb128 0x1
 8657 2de5 53       		.byte	0x53
 8658 2de6 02       		.uleb128 0x2
 8659 2de7 75       		.byte	0x75
 8660 2de8 00       		.sleb128 0
 8661 2de9 2C       		.uleb128 0x2c
 8662 2dea 01       		.uleb128 0x1
 8663 2deb 52       		.byte	0x52
 8664 2dec 02       		.uleb128 0x2
 8665 2ded 91       		.byte	0x91
 8666 2dee 50       		.sleb128 -48
 8667 2def 2C       		.uleb128 0x2c
 8668 2df0 01       		.uleb128 0x1
 8669 2df1 51       		.byte	0x51
 8670 2df2 01       		.uleb128 0x1
 8671 2df3 3D       		.byte	0x3d
 8672 2df4 2C       		.uleb128 0x2c
 8673 2df5 01       		.uleb128 0x1
 8674 2df6 50       		.byte	0x50
 8675 2df7 01       		.uleb128 0x1
 8676 2df8 3F       		.byte	0x3f
 8677 2df9 2C       		.uleb128 0x2c
 8678 2dfa 02       		.uleb128 0x2
 8679 2dfb 7D       		.byte	0x7d
 8680 2dfc 00       		.sleb128 0
 8681 2dfd 02       		.uleb128 0x2
 8682 2dfe 75       		.byte	0x75
 8683 2dff 00       		.sleb128 0
 8684 2e00 00       		.byte	0
 8685 2e01 2B       		.uleb128 0x2b
 8686 2e02 32000000 		.4byte	.LVL3
 8687 2e06 FE4A0000 		.4byte	0x4afe
 8688 2e0a 262E0000 		.4byte	0x2e26
 8689 2e0e 2C       		.uleb128 0x2c
 8690 2e0f 01       		.uleb128 0x1
ARM GAS  C:\Users\AHMEDH~1\AppData\Local\Temp\cclxJjJK.s 			page 186


 8691 2e10 52       		.byte	0x52
 8692 2e11 02       		.uleb128 0x2
 8693 2e12 76       		.byte	0x76
 8694 2e13 00       		.sleb128 0
 8695 2e14 2C       		.uleb128 0x2c
 8696 2e15 01       		.uleb128 0x1
 8697 2e16 51       		.byte	0x51
 8698 2e17 01       		.uleb128 0x1
 8699 2e18 42       		.byte	0x42
 8700 2e19 2C       		.uleb128 0x2c
 8701 2e1a 01       		.uleb128 0x1
 8702 2e1b 50       		.byte	0x50
 8703 2e1c 01       		.uleb128 0x1
 8704 2e1d 3F       		.byte	0x3f
 8705 2e1e 2C       		.uleb128 0x2c
 8706 2e1f 02       		.uleb128 0x2
 8707 2e20 7D       		.byte	0x7d
 8708 2e21 00       		.sleb128 0
 8709 2e22 02       		.uleb128 0x2
 8710 2e23 08       		.byte	0x8
 8711 2e24 28       		.byte	0x28
 8712 2e25 00       		.byte	0
 8713 2e26 2E       		.uleb128 0x2e
 8714 2e27 6C000000 		.4byte	.LVL10
 8715 2e2b 414B0000 		.4byte	0x4b41
 8716 2e2f 2D       		.uleb128 0x2d
 8717 2e30 7A000000 		.4byte	.LVL11
 8718 2e34 FE4A0000 		.4byte	0x4afe
 8719 2e38 2C       		.uleb128 0x2c
 8720 2e39 01       		.uleb128 0x1
 8721 2e3a 53       		.byte	0x53
 8722 2e3b 02       		.uleb128 0x2
 8723 2e3c 75       		.byte	0x75
 8724 2e3d 00       		.sleb128 0
 8725 2e3e 2C       		.uleb128 0x2c
 8726 2e3f 01       		.uleb128 0x1
 8727 2e40 52       		.byte	0x52
 8728 2e41 02       		.uleb128 0x2
 8729 2e42 76       		.byte	0x76
 8730 2e43 00       		.sleb128 0
 8731 2e44 2C       		.uleb128 0x2c
 8732 2e45 01       		.uleb128 0x1
 8733 2e46 51       		.byte	0x51
 8734 2e47 01       		.uleb128 0x1
 8735 2e48 3E       		.byte	0x3e
 8736 2e49 2C       		.uleb128 0x2c
 8737 2e4a 01       		.uleb128 0x1
 8738 2e4b 50       		.byte	0x50
 8739 2e4c 01       		.uleb128 0x1
 8740 2e4d 3F       		.byte	0x3f
 8741 2e4e 2C       		.uleb128 0x2c
 8742 2e4f 02       		.uleb128 0x2
 8743 2e50 7D       		.byte	0x7d
 8744 2e51 00       		.sleb128 0
 8745 2e52 02       		.uleb128 0x2
 8746 2e53 75       		.byte	0x75
 8747 2e54 00       		.sleb128 0
ARM GAS  C:\Users\AHMEDH~1\AppData\Local\Temp\cclxJjJK.s 			page 187


 8748 2e55 00       		.byte	0
 8749 2e56 00       		.byte	0
 8750 2e57 2F       		.uleb128 0x2f
 8751 2e58 0F3B0000 		.4byte	.LASF953
 8752 2e5c 01       		.byte	0x1
 8753 2e5d 3901     		.2byte	0x139
 8754 2e5f 9E000000 		.4byte	0x9e
 8755 2e63 00000000 		.4byte	.LFB4
 8756 2e67 88000000 		.4byte	.LFE4-.LFB4
 8757 2e6b 01       		.uleb128 0x1
 8758 2e6c 9C       		.byte	0x9c
 8759 2e6d 542F0000 		.4byte	0x2f54
 8760 2e71 30       		.uleb128 0x30
 8761 2e72 B3220000 		.4byte	.LASF948
 8762 2e76 01       		.byte	0x1
 8763 2e77 3901     		.2byte	0x139
 8764 2e79 F0000000 		.4byte	0xf0
 8765 2e7d 63000000 		.4byte	.LLST4
 8766 2e81 30       		.uleb128 0x30
 8767 2e82 C0040000 		.4byte	.LASF949
 8768 2e86 01       		.byte	0x1
 8769 2e87 3901     		.2byte	0x139
 8770 2e89 A9000000 		.4byte	0xa9
 8771 2e8d A8000000 		.4byte	.LLST5
 8772 2e91 30       		.uleb128 0x30
 8773 2e92 D91C0000 		.4byte	.LASF950
 8774 2e96 01       		.byte	0x1
 8775 2e97 3901     		.2byte	0x139
 8776 2e99 A9000000 		.4byte	0xa9
 8777 2e9d C9000000 		.4byte	.LLST6
 8778 2ea1 31       		.uleb128 0x31
 8779 2ea2 E01E0000 		.4byte	.LASF951
 8780 2ea6 01       		.byte	0x1
 8781 2ea7 3B01     		.2byte	0x13b
 8782 2ea9 7D270000 		.4byte	0x277d
 8783 2ead 02       		.uleb128 0x2
 8784 2eae 91       		.byte	0x91
 8785 2eaf 5C       		.sleb128 -36
 8786 2eb0 2B       		.uleb128 0x2b
 8787 2eb1 14000000 		.4byte	.LVL17
 8788 2eb5 484B0000 		.4byte	0x4b48
 8789 2eb9 CE2E0000 		.4byte	0x2ece
 8790 2ebd 2C       		.uleb128 0x2c
 8791 2ebe 01       		.uleb128 0x1
 8792 2ebf 52       		.byte	0x52
 8793 2ec0 01       		.uleb128 0x1
 8794 2ec1 44       		.byte	0x44
 8795 2ec2 2C       		.uleb128 0x2c
 8796 2ec3 01       		.uleb128 0x1
 8797 2ec4 51       		.byte	0x51
 8798 2ec5 01       		.uleb128 0x1
 8799 2ec6 30       		.byte	0x30
 8800 2ec7 2C       		.uleb128 0x2c
 8801 2ec8 01       		.uleb128 0x1
 8802 2ec9 50       		.byte	0x50
 8803 2eca 02       		.uleb128 0x2
 8804 2ecb 91       		.byte	0x91
ARM GAS  C:\Users\AHMEDH~1\AppData\Local\Temp\cclxJjJK.s 			page 188


 8805 2ecc 5C       		.sleb128 -36
 8806 2ecd 00       		.byte	0
 8807 2ece 2B       		.uleb128 0x2b
 8808 2ecf 20000000 		.4byte	.LVL18
 8809 2ed3 E14A0000 		.4byte	0x4ae1
 8810 2ed7 ED2E0000 		.4byte	0x2eed
 8811 2edb 2C       		.uleb128 0x2c
 8812 2edc 01       		.uleb128 0x1
 8813 2edd 52       		.byte	0x52
 8814 2ede 01       		.uleb128 0x1
 8815 2edf 40       		.byte	0x40
 8816 2ee0 2C       		.uleb128 0x2c
 8817 2ee1 01       		.uleb128 0x1
 8818 2ee2 51       		.byte	0x51
 8819 2ee3 02       		.uleb128 0x2
 8820 2ee4 75       		.byte	0x75
 8821 2ee5 00       		.sleb128 0
 8822 2ee6 2C       		.uleb128 0x2c
 8823 2ee7 01       		.uleb128 0x1
 8824 2ee8 50       		.byte	0x50
 8825 2ee9 02       		.uleb128 0x2
 8826 2eea 91       		.byte	0x91
 8827 2eeb 5C       		.sleb128 -36
 8828 2eec 00       		.byte	0
 8829 2eed 2B       		.uleb128 0x2b
 8830 2eee 3E000000 		.4byte	.LVL19
 8831 2ef2 654B0000 		.4byte	0x4b65
 8832 2ef6 0F2F0000 		.4byte	0x2f0f
 8833 2efa 2C       		.uleb128 0x2c
 8834 2efb 01       		.uleb128 0x1
 8835 2efc 52       		.byte	0x52
 8836 2efd 01       		.uleb128 0x1
 8837 2efe 40       		.byte	0x40
 8838 2eff 2C       		.uleb128 0x2c
 8839 2f00 01       		.uleb128 0x1
 8840 2f01 51       		.byte	0x51
 8841 2f02 02       		.uleb128 0x2
 8842 2f03 91       		.byte	0x91
 8843 2f04 5C       		.sleb128 -36
 8844 2f05 2C       		.uleb128 0x2c
 8845 2f06 01       		.uleb128 0x1
 8846 2f07 50       		.byte	0x50
 8847 2f08 05       		.uleb128 0x5
 8848 2f09 03       		.byte	0x3
 8849 2f0a 0A000000 		.4byte	.LANCHOR0+10
 8850 2f0e 00       		.byte	0
 8851 2f0f 2B       		.uleb128 0x2b
 8852 2f10 50000000 		.4byte	.LVL20
 8853 2f14 654B0000 		.4byte	0x4b65
 8854 2f18 312F0000 		.4byte	0x2f31
 8855 2f1c 2C       		.uleb128 0x2c
 8856 2f1d 01       		.uleb128 0x1
 8857 2f1e 52       		.byte	0x52
 8858 2f1f 01       		.uleb128 0x1
 8859 2f20 40       		.byte	0x40
 8860 2f21 2C       		.uleb128 0x2c
 8861 2f22 01       		.uleb128 0x1
ARM GAS  C:\Users\AHMEDH~1\AppData\Local\Temp\cclxJjJK.s 			page 189


 8862 2f23 51       		.byte	0x51
 8863 2f24 02       		.uleb128 0x2
 8864 2f25 91       		.byte	0x91
 8865 2f26 5C       		.sleb128 -36
 8866 2f27 2C       		.uleb128 0x2c
 8867 2f28 01       		.uleb128 0x1
 8868 2f29 50       		.byte	0x50
 8869 2f2a 05       		.uleb128 0x5
 8870 2f2b 03       		.byte	0x3
 8871 2f2c 0A000000 		.4byte	.LANCHOR0+10
 8872 2f30 00       		.byte	0
 8873 2f31 2B       		.uleb128 0x2b
 8874 2f32 5C000000 		.4byte	.LVL21
 8875 2f36 E14A0000 		.4byte	0x4ae1
 8876 2f3a 4A2F0000 		.4byte	0x2f4a
 8877 2f3e 2C       		.uleb128 0x2c
 8878 2f3f 01       		.uleb128 0x1
 8879 2f40 52       		.byte	0x52
 8880 2f41 01       		.uleb128 0x1
 8881 2f42 44       		.byte	0x44
 8882 2f43 2C       		.uleb128 0x2c
 8883 2f44 01       		.uleb128 0x1
 8884 2f45 51       		.byte	0x51
 8885 2f46 02       		.uleb128 0x2
 8886 2f47 91       		.byte	0x91
 8887 2f48 5C       		.sleb128 -36
 8888 2f49 00       		.byte	0
 8889 2f4a 2E       		.uleb128 0x2e
 8890 2f4b 60000000 		.4byte	.LVL22
 8891 2f4f CE2C0000 		.4byte	0x2cce
 8892 2f53 00       		.byte	0
 8893 2f54 1D       		.uleb128 0x1d
 8894 2f55 0C380000 		.4byte	.LASF952
 8895 2f59 01       		.byte	0x1
 8896 2f5a FD       		.byte	0xfd
 8897 2f5b 9E000000 		.4byte	0x9e
 8898 2f5f 01       		.byte	0x1
 8899 2f60 912F0000 		.4byte	0x2f91
 8900 2f64 1E       		.uleb128 0x1e
 8901 2f65 B3220000 		.4byte	.LASF948
 8902 2f69 01       		.byte	0x1
 8903 2f6a FD       		.byte	0xfd
 8904 2f6b F0000000 		.4byte	0xf0
 8905 2f6f 1E       		.uleb128 0x1e
 8906 2f70 C0040000 		.4byte	.LASF949
 8907 2f74 01       		.byte	0x1
 8908 2f75 FD       		.byte	0xfd
 8909 2f76 A9000000 		.4byte	0xa9
 8910 2f7a 1E       		.uleb128 0x1e
 8911 2f7b D91C0000 		.4byte	.LASF950
 8912 2f7f 01       		.byte	0x1
 8913 2f80 FD       		.byte	0xfd
 8914 2f81 A9000000 		.4byte	0xa9
 8915 2f85 1F       		.uleb128 0x1f
 8916 2f86 E01E0000 		.4byte	.LASF951
 8917 2f8a 01       		.byte	0x1
 8918 2f8b FF       		.byte	0xff
ARM GAS  C:\Users\AHMEDH~1\AppData\Local\Temp\cclxJjJK.s 			page 190


 8919 2f8c 7D270000 		.4byte	0x277d
 8920 2f90 00       		.byte	0
 8921 2f91 2F       		.uleb128 0x2f
 8922 2f92 E7010000 		.4byte	.LASF954
 8923 2f96 01       		.byte	0x1
 8924 2f97 6F01     		.2byte	0x16f
 8925 2f99 9E000000 		.4byte	0x9e
 8926 2f9d 00000000 		.4byte	.LFB5
 8927 2fa1 F8000000 		.4byte	.LFE5-.LFB5
 8928 2fa5 01       		.uleb128 0x1
 8929 2fa6 9C       		.byte	0x9c
 8930 2fa7 19310000 		.4byte	0x3119
 8931 2fab 30       		.uleb128 0x30
 8932 2fac CD1B0000 		.4byte	.LASF955
 8933 2fb0 01       		.byte	0x1
 8934 2fb1 6F01     		.2byte	0x16f
 8935 2fb3 A9000000 		.4byte	0xa9
 8936 2fb7 EA000000 		.4byte	.LLST7
 8937 2fbb 30       		.uleb128 0x30
 8938 2fbc C0040000 		.4byte	.LASF949
 8939 2fc0 01       		.byte	0x1
 8940 2fc1 6F01     		.2byte	0x16f
 8941 2fc3 A9000000 		.4byte	0xa9
 8942 2fc7 24010000 		.4byte	.LLST8
 8943 2fcb 30       		.uleb128 0x30
 8944 2fcc D91C0000 		.4byte	.LASF950
 8945 2fd0 01       		.byte	0x1
 8946 2fd1 6F01     		.2byte	0x16f
 8947 2fd3 A9000000 		.4byte	0xa9
 8948 2fd7 5E010000 		.4byte	.LLST9
 8949 2fdb 30       		.uleb128 0x30
 8950 2fdc 15060000 		.4byte	.LASF956
 8951 2fe0 01       		.byte	0x1
 8952 2fe1 6F01     		.2byte	0x16f
 8953 2fe3 F0000000 		.4byte	0xf0
 8954 2fe7 98010000 		.4byte	.LLST10
 8955 2feb 30       		.uleb128 0x30
 8956 2fec 080B0000 		.4byte	.LASF941
 8957 2ff0 01       		.byte	0x1
 8958 2ff1 6F01     		.2byte	0x16f
 8959 2ff3 B4000000 		.4byte	0xb4
 8960 2ff7 DA010000 		.4byte	.LLST11
 8961 2ffb 31       		.uleb128 0x31
 8962 2ffc 95330000 		.4byte	.LASF957
 8963 3000 01       		.byte	0x1
 8964 3001 7101     		.2byte	0x171
 8965 3003 36010000 		.4byte	0x136
 8966 3007 02       		.uleb128 0x2
 8967 3008 91       		.byte	0x91
 8968 3009 44       		.sleb128 -60
 8969 300a 32       		.uleb128 0x32
 8970 300b 542F0000 		.4byte	0x2f54
 8971 300f 10000000 		.4byte	.LBB9
 8972 3013 92000000 		.4byte	.LBE9-.LBB9
 8973 3017 01       		.byte	0x1
 8974 3018 7301     		.2byte	0x173
 8975 301a 9C300000 		.4byte	0x309c
ARM GAS  C:\Users\AHMEDH~1\AppData\Local\Temp\cclxJjJK.s 			page 191


 8976 301e 33       		.uleb128 0x33
 8977 301f 7A2F0000 		.4byte	0x2f7a
 8978 3023 FA010000 		.4byte	.LLST12
 8979 3027 33       		.uleb128 0x33
 8980 3028 6F2F0000 		.4byte	0x2f6f
 8981 302c 0D020000 		.4byte	.LLST13
 8982 3030 33       		.uleb128 0x33
 8983 3031 642F0000 		.4byte	0x2f64
 8984 3035 47020000 		.4byte	.LLST14
 8985 3039 34       		.uleb128 0x34
 8986 303a 10000000 		.4byte	.LBB10
 8987 303e 92000000 		.4byte	.LBE10-.LBB10
 8988 3042 35       		.uleb128 0x35
 8989 3043 852F0000 		.4byte	0x2f85
 8990 3047 02       		.uleb128 0x2
 8991 3048 91       		.byte	0x91
 8992 3049 54       		.sleb128 -44
 8993 304a 2B       		.uleb128 0x2b
 8994 304b 28000000 		.4byte	.LVL33
 8995 304f E14A0000 		.4byte	0x4ae1
 8996 3053 63300000 		.4byte	0x3063
 8997 3057 2C       		.uleb128 0x2c
 8998 3058 01       		.uleb128 0x1
 8999 3059 52       		.byte	0x52
 9000 305a 01       		.uleb128 0x1
 9001 305b 44       		.byte	0x44
 9002 305c 2C       		.uleb128 0x2c
 9003 305d 01       		.uleb128 0x1
 9004 305e 50       		.byte	0x50
 9005 305f 02       		.uleb128 0x2
 9006 3060 91       		.byte	0x91
 9007 3061 54       		.sleb128 -44
 9008 3062 00       		.byte	0
 9009 3063 2B       		.uleb128 0x2b
 9010 3064 58000000 		.4byte	.LVL37
 9011 3068 804B0000 		.4byte	0x4b80
 9012 306c 85300000 		.4byte	0x3085
 9013 3070 2C       		.uleb128 0x2c
 9014 3071 01       		.uleb128 0x1
 9015 3072 52       		.byte	0x52
 9016 3073 01       		.uleb128 0x1
 9017 3074 40       		.byte	0x40
 9018 3075 2C       		.uleb128 0x2c
 9019 3076 01       		.uleb128 0x1
 9020 3077 51       		.byte	0x51
 9021 3078 02       		.uleb128 0x2
 9022 3079 74       		.byte	0x74
 9023 307a 00       		.sleb128 0
 9024 307b 2C       		.uleb128 0x2c
 9025 307c 01       		.uleb128 0x1
 9026 307d 50       		.byte	0x50
 9027 307e 05       		.uleb128 0x5
 9028 307f 03       		.byte	0x3
 9029 3080 0A000000 		.4byte	.LANCHOR0+10
 9030 3084 00       		.byte	0
 9031 3085 2D       		.uleb128 0x2d
 9032 3086 68000000 		.4byte	.LVL43
ARM GAS  C:\Users\AHMEDH~1\AppData\Local\Temp\cclxJjJK.s 			page 192


 9033 308a E14A0000 		.4byte	0x4ae1
 9034 308e 2C       		.uleb128 0x2c
 9035 308f 01       		.uleb128 0x1
 9036 3090 52       		.byte	0x52
 9037 3091 01       		.uleb128 0x1
 9038 3092 44       		.byte	0x44
 9039 3093 2C       		.uleb128 0x2c
 9040 3094 01       		.uleb128 0x1
 9041 3095 50       		.byte	0x50
 9042 3096 02       		.uleb128 0x2
 9043 3097 91       		.byte	0x91
 9044 3098 54       		.sleb128 -44
 9045 3099 00       		.byte	0
 9046 309a 00       		.byte	0
 9047 309b 00       		.byte	0
 9048 309c 2B       		.uleb128 0x2b
 9049 309d BA000000 		.4byte	.LVL45
 9050 30a1 654B0000 		.4byte	0x4b65
 9051 30a5 BC300000 		.4byte	0x30bc
 9052 30a9 2C       		.uleb128 0x2c
 9053 30aa 01       		.uleb128 0x1
 9054 30ab 52       		.byte	0x52
 9055 30ac 02       		.uleb128 0x2
 9056 30ad 75       		.byte	0x75
 9057 30ae 00       		.sleb128 0
 9058 30af 2C       		.uleb128 0x2c
 9059 30b0 01       		.uleb128 0x1
 9060 30b1 51       		.byte	0x51
 9061 30b2 02       		.uleb128 0x2
 9062 30b3 76       		.byte	0x76
 9063 30b4 00       		.sleb128 0
 9064 30b5 2C       		.uleb128 0x2c
 9065 30b6 01       		.uleb128 0x1
 9066 30b7 50       		.byte	0x50
 9067 30b8 02       		.uleb128 0x2
 9068 30b9 74       		.byte	0x74
 9069 30ba 00       		.sleb128 0
 9070 30bb 00       		.byte	0
 9071 30bc 2B       		.uleb128 0x2b
 9072 30bd C6000000 		.4byte	.LVL46
 9073 30c1 804B0000 		.4byte	0x4b80
 9074 30c5 DC300000 		.4byte	0x30dc
 9075 30c9 2C       		.uleb128 0x2c
 9076 30ca 01       		.uleb128 0x1
 9077 30cb 52       		.byte	0x52
 9078 30cc 02       		.uleb128 0x2
 9079 30cd 75       		.byte	0x75
 9080 30ce 00       		.sleb128 0
 9081 30cf 2C       		.uleb128 0x2c
 9082 30d0 01       		.uleb128 0x1
 9083 30d1 51       		.byte	0x51
 9084 30d2 02       		.uleb128 0x2
 9085 30d3 76       		.byte	0x76
 9086 30d4 00       		.sleb128 0
 9087 30d5 2C       		.uleb128 0x2c
 9088 30d6 01       		.uleb128 0x1
 9089 30d7 50       		.byte	0x50
ARM GAS  C:\Users\AHMEDH~1\AppData\Local\Temp\cclxJjJK.s 			page 193


 9090 30d8 02       		.uleb128 0x2
 9091 30d9 74       		.byte	0x74
 9092 30da 00       		.sleb128 0
 9093 30db 00       		.byte	0
 9094 30dc 2B       		.uleb128 0x2b
 9095 30dd D2000000 		.4byte	.LVL47
 9096 30e1 9B4B0000 		.4byte	0x4b9b
 9097 30e5 FC300000 		.4byte	0x30fc
 9098 30e9 2C       		.uleb128 0x2c
 9099 30ea 01       		.uleb128 0x1
 9100 30eb 52       		.byte	0x52
 9101 30ec 02       		.uleb128 0x2
 9102 30ed 75       		.byte	0x75
 9103 30ee 00       		.sleb128 0
 9104 30ef 2C       		.uleb128 0x2c
 9105 30f0 01       		.uleb128 0x1
 9106 30f1 51       		.byte	0x51
 9107 30f2 02       		.uleb128 0x2
 9108 30f3 76       		.byte	0x76
 9109 30f4 00       		.sleb128 0
 9110 30f5 2C       		.uleb128 0x2c
 9111 30f6 01       		.uleb128 0x1
 9112 30f7 50       		.byte	0x50
 9113 30f8 02       		.uleb128 0x2
 9114 30f9 74       		.byte	0x74
 9115 30fa 00       		.sleb128 0
 9116 30fb 00       		.byte	0
 9117 30fc 2D       		.uleb128 0x2d
 9118 30fd DE000000 		.4byte	.LVL48
 9119 3101 B64B0000 		.4byte	0x4bb6
 9120 3105 2C       		.uleb128 0x2c
 9121 3106 01       		.uleb128 0x1
 9122 3107 52       		.byte	0x52
 9123 3108 02       		.uleb128 0x2
 9124 3109 75       		.byte	0x75
 9125 310a 00       		.sleb128 0
 9126 310b 2C       		.uleb128 0x2c
 9127 310c 01       		.uleb128 0x1
 9128 310d 51       		.byte	0x51
 9129 310e 02       		.uleb128 0x2
 9130 310f 76       		.byte	0x76
 9131 3110 00       		.sleb128 0
 9132 3111 2C       		.uleb128 0x2c
 9133 3112 01       		.uleb128 0x1
 9134 3113 50       		.byte	0x50
 9135 3114 02       		.uleb128 0x2
 9136 3115 74       		.byte	0x74
 9137 3116 00       		.sleb128 0
 9138 3117 00       		.byte	0
 9139 3118 00       		.byte	0
 9140 3119 36       		.uleb128 0x36
 9141 311a E8270000 		.4byte	0x27e8
 9142 311e 00000000 		.4byte	.LFB26
 9143 3122 12000000 		.4byte	.LFE26-.LFB26
 9144 3126 01       		.uleb128 0x1
 9145 3127 9C       		.byte	0x9c
 9146 3128 81310000 		.4byte	0x3181
ARM GAS  C:\Users\AHMEDH~1\AppData\Local\Temp\cclxJjJK.s 			page 194


 9147 312c 33       		.uleb128 0x33
 9148 312d F8270000 		.4byte	0x27f8
 9149 3131 B1020000 		.4byte	.LLST15
 9150 3135 33       		.uleb128 0x33
 9151 3136 03280000 		.4byte	0x2803
 9152 313a EA020000 		.4byte	.LLST16
 9153 313e 37       		.uleb128 0x37
 9154 313f 19280000 		.4byte	0x2819
 9155 3143 06       		.uleb128 0x6
 9156 3144 FA       		.byte	0xfa
 9157 3145 19280000 		.4byte	0x2819
 9158 3149 9F       		.byte	0x9f
 9159 314a 37       		.uleb128 0x37
 9160 314b 0E280000 		.4byte	0x280e
 9161 314f 06       		.uleb128 0x6
 9162 3150 FA       		.byte	0xfa
 9163 3151 0E280000 		.4byte	0x280e
 9164 3155 9F       		.byte	0x9f
 9165 3156 38       		.uleb128 0x38
 9166 3157 24280000 		.4byte	0x2824
 9167 315b 18030000 		.4byte	.LLST17
 9168 315f 38       		.uleb128 0x38
 9169 3160 2F280000 		.4byte	0x282f
 9170 3164 38030000 		.4byte	.LLST18
 9171 3168 2D       		.uleb128 0x2d
 9172 3169 0E000000 		.4byte	.LVL54
 9173 316d D14B0000 		.4byte	0x4bd1
 9174 3171 2C       		.uleb128 0x2c
 9175 3172 01       		.uleb128 0x1
 9176 3173 51       		.byte	0x51
 9177 3174 01       		.uleb128 0x1
 9178 3175 31       		.byte	0x31
 9179 3176 2C       		.uleb128 0x2c
 9180 3177 01       		.uleb128 0x1
 9181 3178 50       		.byte	0x50
 9182 3179 05       		.uleb128 0x5
 9183 317a F3       		.byte	0xf3
 9184 317b 01       		.uleb128 0x1
 9185 317c 51       		.byte	0x51
 9186 317d 23       		.byte	0x23
 9187 317e 0B       		.uleb128 0xb
 9188 317f 00       		.byte	0
 9189 3180 00       		.byte	0
 9190 3181 36       		.uleb128 0x36
 9191 3182 8B2B0000 		.4byte	0x2b8b
 9192 3186 00000000 		.4byte	.LFB34
 9193 318a 2E000000 		.4byte	.LFE34-.LFB34
 9194 318e 01       		.uleb128 0x1
 9195 318f 9C       		.byte	0x9c
 9196 3190 FC310000 		.4byte	0x31fc
 9197 3194 33       		.uleb128 0x33
 9198 3195 9C2B0000 		.4byte	0x2b9c
 9199 3199 6A030000 		.4byte	.LLST19
 9200 319d 33       		.uleb128 0x33
 9201 319e A82B0000 		.4byte	0x2ba8
 9202 31a2 88030000 		.4byte	.LLST20
 9203 31a6 35       		.uleb128 0x35
ARM GAS  C:\Users\AHMEDH~1\AppData\Local\Temp\cclxJjJK.s 			page 195


 9204 31a7 B42B0000 		.4byte	0x2bb4
 9205 31ab 03       		.uleb128 0x3
 9206 31ac 91       		.byte	0x91
 9207 31ad F073     		.sleb128 -1552
 9208 31af 38       		.uleb128 0x38
 9209 31b0 C02B0000 		.4byte	0x2bc0
 9210 31b4 A9030000 		.4byte	.LLST21
 9211 31b8 2B       		.uleb128 0x2b
 9212 31b9 18000000 		.4byte	.LVL58
 9213 31bd FE4A0000 		.4byte	0x4afe
 9214 31c1 DE310000 		.4byte	0x31de
 9215 31c5 2C       		.uleb128 0x2c
 9216 31c6 01       		.uleb128 0x1
 9217 31c7 52       		.byte	0x52
 9218 31c8 03       		.uleb128 0x3
 9219 31c9 91       		.byte	0x91
 9220 31ca F073     		.sleb128 -1552
 9221 31cc 2C       		.uleb128 0x2c
 9222 31cd 01       		.uleb128 0x1
 9223 31ce 51       		.byte	0x51
 9224 31cf 01       		.uleb128 0x1
 9225 31d0 33       		.byte	0x33
 9226 31d1 2C       		.uleb128 0x2c
 9227 31d2 01       		.uleb128 0x1
 9228 31d3 50       		.byte	0x50
 9229 31d4 02       		.uleb128 0x2
 9230 31d5 08       		.byte	0x8
 9231 31d6 7D       		.byte	0x7d
 9232 31d7 2C       		.uleb128 0x2c
 9233 31d8 02       		.uleb128 0x2
 9234 31d9 7D       		.byte	0x7d
 9235 31da 00       		.sleb128 0
 9236 31db 01       		.uleb128 0x1
 9237 31dc 30       		.byte	0x30
 9238 31dd 00       		.byte	0
 9239 31de 2D       		.uleb128 0x2d
 9240 31df 26000000 		.4byte	.LVL60
 9241 31e3 E14A0000 		.4byte	0x4ae1
 9242 31e7 2C       		.uleb128 0x2c
 9243 31e8 01       		.uleb128 0x1
 9244 31e9 52       		.byte	0x52
 9245 31ea 02       		.uleb128 0x2
 9246 31eb 74       		.byte	0x74
 9247 31ec 00       		.sleb128 0
 9248 31ed 2C       		.uleb128 0x2c
 9249 31ee 01       		.uleb128 0x1
 9250 31ef 51       		.byte	0x51
 9251 31f0 03       		.uleb128 0x3
 9252 31f1 91       		.byte	0x91
 9253 31f2 F073     		.sleb128 -1552
 9254 31f4 2C       		.uleb128 0x2c
 9255 31f5 01       		.uleb128 0x1
 9256 31f6 50       		.byte	0x50
 9257 31f7 02       		.uleb128 0x2
 9258 31f8 75       		.byte	0x75
 9259 31f9 00       		.sleb128 0
 9260 31fa 00       		.byte	0
ARM GAS  C:\Users\AHMEDH~1\AppData\Local\Temp\cclxJjJK.s 			page 196


 9261 31fb 00       		.byte	0
 9262 31fc 36       		.uleb128 0x36
 9263 31fd A92A0000 		.4byte	0x2aa9
 9264 3201 00000000 		.4byte	.LFB42
 9265 3205 50010000 		.4byte	.LFE42-.LFB42
 9266 3209 01       		.uleb128 0x1
 9267 320a 9C       		.byte	0x9c
 9268 320b DE330000 		.4byte	0x33de
 9269 320f 33       		.uleb128 0x33
 9270 3210 BA2A0000 		.4byte	0x2aba
 9271 3214 C7030000 		.4byte	.LLST22
 9272 3218 37       		.uleb128 0x37
 9273 3219 D22A0000 		.4byte	0x2ad2
 9274 321d 06       		.uleb128 0x6
 9275 321e FA       		.byte	0xfa
 9276 321f D22A0000 		.4byte	0x2ad2
 9277 3223 9F       		.byte	0x9f
 9278 3224 38       		.uleb128 0x38
 9279 3225 DE2A0000 		.4byte	0x2ade
 9280 3229 00040000 		.4byte	.LLST23
 9281 322d 38       		.uleb128 0x38
 9282 322e E82A0000 		.4byte	0x2ae8
 9283 3232 AF040000 		.4byte	.LLST24
 9284 3236 35       		.uleb128 0x35
 9285 3237 F42A0000 		.4byte	0x2af4
 9286 323b 02       		.uleb128 0x2
 9287 323c 91       		.byte	0x91
 9288 323d 50       		.sleb128 -48
 9289 323e 37       		.uleb128 0x37
 9290 323f C62A0000 		.4byte	0x2ac6
 9291 3243 06       		.uleb128 0x6
 9292 3244 03       		.byte	0x3
 9293 3245 18000000 		.4byte	gReqBuf
 9294 3249 9F       		.byte	0x9f
 9295 324a 2B       		.uleb128 0x2b
 9296 324b 1A000000 		.4byte	.LVL63
 9297 324f E74B0000 		.4byte	0x4be7
 9298 3253 63320000 		.4byte	0x3263
 9299 3257 2C       		.uleb128 0x2c
 9300 3258 01       		.uleb128 0x1
 9301 3259 51       		.byte	0x51
 9302 325a 01       		.uleb128 0x1
 9303 325b 31       		.byte	0x31
 9304 325c 2C       		.uleb128 0x2c
 9305 325d 01       		.uleb128 0x1
 9306 325e 50       		.byte	0x50
 9307 325f 02       		.uleb128 0x2
 9308 3260 77       		.byte	0x77
 9309 3261 00       		.sleb128 0
 9310 3262 00       		.byte	0
 9311 3263 2B       		.uleb128 0x2b
 9312 3264 2E000000 		.4byte	.LVL65
 9313 3268 FD4B0000 		.4byte	0x4bfd
 9314 326c 77320000 		.4byte	0x3277
 9315 3270 2C       		.uleb128 0x2c
 9316 3271 01       		.uleb128 0x1
 9317 3272 50       		.byte	0x50
ARM GAS  C:\Users\AHMEDH~1\AppData\Local\Temp\cclxJjJK.s 			page 197


 9318 3273 02       		.uleb128 0x2
 9319 3274 74       		.byte	0x74
 9320 3275 1F       		.sleb128 31
 9321 3276 00       		.byte	0
 9322 3277 2E       		.uleb128 0x2e
 9323 3278 5E000000 		.4byte	.LVL70
 9324 327c D14B0000 		.4byte	0x4bd1
 9325 3280 2B       		.uleb128 0x2b
 9326 3281 76000000 		.4byte	.LVL72
 9327 3285 FD4B0000 		.4byte	0x4bfd
 9328 3289 94320000 		.4byte	0x3294
 9329 328d 2C       		.uleb128 0x2c
 9330 328e 01       		.uleb128 0x1
 9331 328f 50       		.byte	0x50
 9332 3290 02       		.uleb128 0x2
 9333 3291 79       		.byte	0x79
 9334 3292 00       		.sleb128 0
 9335 3293 00       		.byte	0
 9336 3294 2B       		.uleb128 0x2b
 9337 3295 9E000000 		.4byte	.LVL77
 9338 3299 484B0000 		.4byte	0x4b48
 9339 329d AC320000 		.4byte	0x32ac
 9340 32a1 2C       		.uleb128 0x2c
 9341 32a2 01       		.uleb128 0x1
 9342 32a3 52       		.byte	0x52
 9343 32a4 01       		.uleb128 0x1
 9344 32a5 38       		.byte	0x38
 9345 32a6 2C       		.uleb128 0x2c
 9346 32a7 01       		.uleb128 0x1
 9347 32a8 51       		.byte	0x51
 9348 32a9 01       		.uleb128 0x1
 9349 32aa 30       		.byte	0x30
 9350 32ab 00       		.byte	0
 9351 32ac 2B       		.uleb128 0x2b
 9352 32ad B8000000 		.4byte	.LVL82
 9353 32b1 484B0000 		.4byte	0x4b48
 9354 32b5 C4320000 		.4byte	0x32c4
 9355 32b9 2C       		.uleb128 0x2c
 9356 32ba 01       		.uleb128 0x1
 9357 32bb 52       		.byte	0x52
 9358 32bc 01       		.uleb128 0x1
 9359 32bd 38       		.byte	0x38
 9360 32be 2C       		.uleb128 0x2c
 9361 32bf 01       		.uleb128 0x1
 9362 32c0 51       		.byte	0x51
 9363 32c1 01       		.uleb128 0x1
 9364 32c2 30       		.byte	0x30
 9365 32c3 00       		.byte	0
 9366 32c4 2B       		.uleb128 0x2b
 9367 32c5 CA000000 		.4byte	.LVL83
 9368 32c9 912F0000 		.4byte	0x2f91
 9369 32cd E3320000 		.4byte	0x32e3
 9370 32d1 2C       		.uleb128 0x2c
 9371 32d2 01       		.uleb128 0x1
 9372 32d3 53       		.byte	0x53
 9373 32d4 02       		.uleb128 0x2
 9374 32d5 75       		.byte	0x75
ARM GAS  C:\Users\AHMEDH~1\AppData\Local\Temp\cclxJjJK.s 			page 198


 9375 32d6 0E       		.sleb128 14
 9376 32d7 2C       		.uleb128 0x2c
 9377 32d8 01       		.uleb128 0x1
 9378 32d9 52       		.byte	0x52
 9379 32da 01       		.uleb128 0x1
 9380 32db 30       		.byte	0x30
 9381 32dc 2C       		.uleb128 0x2c
 9382 32dd 01       		.uleb128 0x1
 9383 32de 51       		.byte	0x51
 9384 32df 02       		.uleb128 0x2
 9385 32e0 09       		.byte	0x9
 9386 32e1 FF       		.byte	0xff
 9387 32e2 00       		.byte	0
 9388 32e3 2B       		.uleb128 0x2b
 9389 32e4 D6000000 		.4byte	.LVL85
 9390 32e8 D14B0000 		.4byte	0x4bd1
 9391 32ec FD320000 		.4byte	0x32fd
 9392 32f0 2C       		.uleb128 0x2c
 9393 32f1 01       		.uleb128 0x1
 9394 32f2 51       		.byte	0x51
 9395 32f3 02       		.uleb128 0x2
 9396 32f4 74       		.byte	0x74
 9397 32f5 00       		.sleb128 0
 9398 32f6 2C       		.uleb128 0x2c
 9399 32f7 01       		.uleb128 0x1
 9400 32f8 50       		.byte	0x50
 9401 32f9 02       		.uleb128 0x2
 9402 32fa 79       		.byte	0x79
 9403 32fb 00       		.sleb128 0
 9404 32fc 00       		.byte	0
 9405 32fd 2B       		.uleb128 0x2b
 9406 32fe E0000000 		.4byte	.LVL86
 9407 3302 19310000 		.4byte	0x3119
 9408 3306 22330000 		.4byte	0x3322
 9409 330a 2C       		.uleb128 0x2c
 9410 330b 01       		.uleb128 0x1
 9411 330c 51       		.byte	0x51
 9412 330d 02       		.uleb128 0x2
 9413 330e 75       		.byte	0x75
 9414 330f 00       		.sleb128 0
 9415 3310 2C       		.uleb128 0x2c
 9416 3311 01       		.uleb128 0x1
 9417 3312 50       		.byte	0x50
 9418 3313 02       		.uleb128 0x2
 9419 3314 09       		.byte	0x9
 9420 3315 85       		.byte	0x85
 9421 3316 39       		.uleb128 0x39
 9422 3317 19280000 		.4byte	0x2819
 9423 331b 05       		.uleb128 0x5
 9424 331c FA       		.byte	0xfa
 9425 331d D22A0000 		.4byte	0x2ad2
 9426 3321 00       		.byte	0
 9427 3322 2B       		.uleb128 0x2b
 9428 3323 F0000000 		.4byte	.LVL88
 9429 3327 124C0000 		.4byte	0x4c12
 9430 332b 41330000 		.4byte	0x3341
 9431 332f 2C       		.uleb128 0x2c
ARM GAS  C:\Users\AHMEDH~1\AppData\Local\Temp\cclxJjJK.s 			page 199


 9432 3330 01       		.uleb128 0x1
 9433 3331 52       		.byte	0x52
 9434 3332 01       		.uleb128 0x1
 9435 3333 30       		.byte	0x30
 9436 3334 2C       		.uleb128 0x2c
 9437 3335 01       		.uleb128 0x1
 9438 3336 51       		.byte	0x51
 9439 3337 02       		.uleb128 0x2
 9440 3338 74       		.byte	0x74
 9441 3339 0C       		.sleb128 12
 9442 333a 2C       		.uleb128 0x2c
 9443 333b 01       		.uleb128 0x1
 9444 333c 50       		.byte	0x50
 9445 333d 02       		.uleb128 0x2
 9446 333e 77       		.byte	0x77
 9447 333f 00       		.sleb128 0
 9448 3340 00       		.byte	0
 9449 3341 2B       		.uleb128 0x2b
 9450 3342 FE000000 		.4byte	.LVL91
 9451 3346 E74B0000 		.4byte	0x4be7
 9452 334a 55330000 		.4byte	0x3355
 9453 334e 2C       		.uleb128 0x2c
 9454 334f 01       		.uleb128 0x1
 9455 3350 50       		.byte	0x50
 9456 3351 02       		.uleb128 0x2
 9457 3352 76       		.byte	0x76
 9458 3353 00       		.sleb128 0
 9459 3354 00       		.byte	0
 9460 3355 2B       		.uleb128 0x2b
 9461 3356 0E010000 		.4byte	.LVL92
 9462 335a E14A0000 		.4byte	0x4ae1
 9463 335e 74330000 		.4byte	0x3374
 9464 3362 2C       		.uleb128 0x2c
 9465 3363 01       		.uleb128 0x1
 9466 3364 52       		.byte	0x52
 9467 3365 01       		.uleb128 0x1
 9468 3366 36       		.byte	0x36
 9469 3367 2C       		.uleb128 0x2c
 9470 3368 01       		.uleb128 0x1
 9471 3369 51       		.byte	0x51
 9472 336a 02       		.uleb128 0x2
 9473 336b 78       		.byte	0x78
 9474 336c 00       		.sleb128 0
 9475 336d 2C       		.uleb128 0x2c
 9476 336e 01       		.uleb128 0x1
 9477 336f 50       		.byte	0x50
 9478 3370 02       		.uleb128 0x2
 9479 3371 91       		.byte	0x91
 9480 3372 50       		.sleb128 -48
 9481 3373 00       		.byte	0
 9482 3374 2B       		.uleb128 0x2b
 9483 3375 1E010000 		.4byte	.LVL93
 9484 3379 E14A0000 		.4byte	0x4ae1
 9485 337d 98330000 		.4byte	0x3398
 9486 3381 2C       		.uleb128 0x2c
 9487 3382 01       		.uleb128 0x1
 9488 3383 52       		.byte	0x52
ARM GAS  C:\Users\AHMEDH~1\AppData\Local\Temp\cclxJjJK.s 			page 200


 9489 3384 01       		.uleb128 0x1
 9490 3385 32       		.byte	0x32
 9491 3386 2C       		.uleb128 0x2c
 9492 3387 01       		.uleb128 0x1
 9493 3388 51       		.byte	0x51
 9494 3389 07       		.uleb128 0x7
 9495 338a 75       		.byte	0x75
 9496 338b 00       		.sleb128 0
 9497 338c 74       		.byte	0x74
 9498 338d 00       		.sleb128 0
 9499 338e 22       		.byte	0x22
 9500 338f 23       		.byte	0x23
 9501 3390 0F       		.uleb128 0xf
 9502 3391 2C       		.uleb128 0x2c
 9503 3392 01       		.uleb128 0x1
 9504 3393 50       		.byte	0x50
 9505 3394 02       		.uleb128 0x2
 9506 3395 91       		.byte	0x91
 9507 3396 56       		.sleb128 -42
 9508 3397 00       		.byte	0
 9509 3398 2B       		.uleb128 0x2b
 9510 3399 2E010000 		.4byte	.LVL94
 9511 339d 912F0000 		.4byte	0x2f91
 9512 33a1 C2330000 		.4byte	0x33c2
 9513 33a5 2C       		.uleb128 0x2c
 9514 33a6 01       		.uleb128 0x1
 9515 33a7 53       		.byte	0x53
 9516 33a8 02       		.uleb128 0x2
 9517 33a9 91       		.byte	0x91
 9518 33aa 50       		.sleb128 -48
 9519 33ab 2C       		.uleb128 0x2c
 9520 33ac 01       		.uleb128 0x1
 9521 33ad 52       		.byte	0x52
 9522 33ae 01       		.uleb128 0x1
 9523 33af 30       		.byte	0x30
 9524 33b0 2C       		.uleb128 0x2c
 9525 33b1 01       		.uleb128 0x1
 9526 33b2 51       		.byte	0x51
 9527 33b3 02       		.uleb128 0x2
 9528 33b4 09       		.byte	0x9
 9529 33b5 FF       		.byte	0xff
 9530 33b6 2C       		.uleb128 0x2c
 9531 33b7 01       		.uleb128 0x1
 9532 33b8 50       		.byte	0x50
 9533 33b9 01       		.uleb128 0x1
 9534 33ba 33       		.byte	0x33
 9535 33bb 2C       		.uleb128 0x2c
 9536 33bc 02       		.uleb128 0x2
 9537 33bd 7D       		.byte	0x7d
 9538 33be 00       		.sleb128 0
 9539 33bf 01       		.uleb128 0x1
 9540 33c0 38       		.byte	0x38
 9541 33c1 00       		.byte	0
 9542 33c2 2D       		.uleb128 0x2d
 9543 33c3 3C010000 		.4byte	.LVL95
 9544 33c7 E14A0000 		.4byte	0x4ae1
 9545 33cb 2C       		.uleb128 0x2c
ARM GAS  C:\Users\AHMEDH~1\AppData\Local\Temp\cclxJjJK.s 			page 201


 9546 33cc 01       		.uleb128 0x1
 9547 33cd 52       		.byte	0x52
 9548 33ce 01       		.uleb128 0x1
 9549 33cf 34       		.byte	0x34
 9550 33d0 2C       		.uleb128 0x2c
 9551 33d1 01       		.uleb128 0x1
 9552 33d2 51       		.byte	0x51
 9553 33d3 02       		.uleb128 0x2
 9554 33d4 91       		.byte	0x91
 9555 33d5 50       		.sleb128 -48
 9556 33d6 2C       		.uleb128 0x2c
 9557 33d7 01       		.uleb128 0x1
 9558 33d8 50       		.byte	0x50
 9559 33d9 02       		.uleb128 0x2
 9560 33da 76       		.byte	0x76
 9561 33db 00       		.sleb128 0
 9562 33dc 00       		.byte	0
 9563 33dd 00       		.byte	0
 9564 33de 3A       		.uleb128 0x3a
 9565 33df 00070000 		.4byte	.LASF967
 9566 33e3 01       		.byte	0x1
 9567 33e4 A1       		.byte	0xa1
 9568 33e5 00000000 		.4byte	.LFB0
 9569 33e9 1C010000 		.4byte	.LFE0-.LFB0
 9570 33ed 01       		.uleb128 0x1
 9571 33ee 9C       		.byte	0x9c
 9572 33ef D3360000 		.4byte	0x36d3
 9573 33f3 28       		.uleb128 0x28
 9574 33f4 11120000 		.4byte	.LASF947
 9575 33f8 01       		.byte	0x1
 9576 33f9 A3       		.byte	0xa3
 9577 33fa 26010000 		.4byte	0x126
 9578 33fe 02       		.uleb128 0x2
 9579 33ff 91       		.byte	0x91
 9580 3400 48       		.sleb128 -56
 9581 3401 29       		.uleb128 0x29
 9582 3402 6C656E00 		.ascii	"len\000"
 9583 3406 01       		.byte	0x1
 9584 3407 A4       		.byte	0xa4
 9585 3408 BF000000 		.4byte	0xbf
 9586 340c 23050000 		.4byte	.LLST25
 9587 3410 29       		.uleb128 0x29
 9588 3411 666400   		.ascii	"fd\000"
 9589 3414 01       		.byte	0x1
 9590 3415 A5       		.byte	0xa5
 9591 3416 37000000 		.4byte	0x37
 9592 341a 41050000 		.4byte	.LLST26
 9593 341e 2A       		.uleb128 0x2a
 9594 341f 68000000 		.4byte	.LBB11
 9595 3423 32000000 		.4byte	.LBE11-.LBB11
 9596 3427 C9340000 		.4byte	0x34c9
 9597 342b 29       		.uleb128 0x29
 9598 342c 6C656E00 		.ascii	"len\000"
 9599 3430 01       		.byte	0x1
 9600 3431 B5       		.byte	0xb5
 9601 3432 BF000000 		.4byte	0xbf
 9602 3436 8B050000 		.4byte	.LLST27
ARM GAS  C:\Users\AHMEDH~1\AppData\Local\Temp\cclxJjJK.s 			page 202


 9603 343a 29       		.uleb128 0x29
 9604 343b 70747200 		.ascii	"ptr\000"
 9605 343f 01       		.byte	0x1
 9606 3440 B5       		.byte	0xb5
 9607 3441 F0000000 		.4byte	0xf0
 9608 3445 9F050000 		.4byte	.LLST28
 9609 3449 2B       		.uleb128 0x2b
 9610 344a 70000000 		.4byte	.LVL111
 9611 344e C74A0000 		.4byte	0x4ac7
 9612 3452 62340000 		.4byte	0x3462
 9613 3456 2C       		.uleb128 0x2c
 9614 3457 01       		.uleb128 0x1
 9615 3458 51       		.byte	0x51
 9616 3459 01       		.uleb128 0x1
 9617 345a 3D       		.byte	0x3d
 9618 345b 2C       		.uleb128 0x2c
 9619 345c 01       		.uleb128 0x1
 9620 345d 50       		.byte	0x50
 9621 345e 02       		.uleb128 0x2
 9622 345f 08       		.byte	0x8
 9623 3460 92       		.byte	0x92
 9624 3461 00       		.byte	0
 9625 3462 2B       		.uleb128 0x2b
 9626 3463 7C000000 		.4byte	.LVL112
 9627 3467 E14A0000 		.4byte	0x4ae1
 9628 346b 84340000 		.4byte	0x3484
 9629 346f 2C       		.uleb128 0x2c
 9630 3470 01       		.uleb128 0x1
 9631 3471 52       		.byte	0x52
 9632 3472 01       		.uleb128 0x1
 9633 3473 3C       		.byte	0x3c
 9634 3474 2C       		.uleb128 0x2c
 9635 3475 01       		.uleb128 0x1
 9636 3476 51       		.byte	0x51
 9637 3477 05       		.uleb128 0x5
 9638 3478 03       		.byte	0x3
 9639 3479 00000000 		.4byte	.LC0
 9640 347d 2C       		.uleb128 0x2c
 9641 347e 01       		.uleb128 0x1
 9642 347f 50       		.byte	0x50
 9643 3480 02       		.uleb128 0x2
 9644 3481 76       		.byte	0x76
 9645 3482 00       		.sleb128 0
 9646 3483 00       		.byte	0
 9647 3484 2B       		.uleb128 0x2b
 9648 3485 92000000 		.4byte	.LVL113
 9649 3489 FE4A0000 		.4byte	0x4afe
 9650 348d B2340000 		.4byte	0x34b2
 9651 3491 2C       		.uleb128 0x2c
 9652 3492 01       		.uleb128 0x1
 9653 3493 53       		.byte	0x53
 9654 3494 03       		.uleb128 0x3
 9655 3495 0A       		.byte	0xa
 9656 3496 0001     		.2byte	0x100
 9657 3498 2C       		.uleb128 0x2c
 9658 3499 01       		.uleb128 0x1
 9659 349a 52       		.byte	0x52
ARM GAS  C:\Users\AHMEDH~1\AppData\Local\Temp\cclxJjJK.s 			page 203


 9660 349b 02       		.uleb128 0x2
 9661 349c 76       		.byte	0x76
 9662 349d 00       		.sleb128 0
 9663 349e 2C       		.uleb128 0x2c
 9664 349f 01       		.uleb128 0x1
 9665 34a0 51       		.byte	0x51
 9666 34a1 02       		.uleb128 0x2
 9667 34a2 08       		.byte	0x8
 9668 34a3 25       		.byte	0x25
 9669 34a4 2C       		.uleb128 0x2c
 9670 34a5 01       		.uleb128 0x1
 9671 34a6 50       		.byte	0x50
 9672 34a7 01       		.uleb128 0x1
 9673 34a8 3F       		.byte	0x3f
 9674 34a9 2C       		.uleb128 0x2c
 9675 34aa 02       		.uleb128 0x2
 9676 34ab 7D       		.byte	0x7d
 9677 34ac 00       		.sleb128 0
 9678 34ad 03       		.uleb128 0x3
 9679 34ae 0A       		.byte	0xa
 9680 34af 8010     		.2byte	0x1080
 9681 34b1 00       		.byte	0
 9682 34b2 2D       		.uleb128 0x2d
 9683 34b3 9A000000 		.4byte	.LVL114
 9684 34b7 C74A0000 		.4byte	0x4ac7
 9685 34bb 2C       		.uleb128 0x2c
 9686 34bc 01       		.uleb128 0x1
 9687 34bd 51       		.byte	0x51
 9688 34be 02       		.uleb128 0x2
 9689 34bf 76       		.byte	0x76
 9690 34c0 00       		.sleb128 0
 9691 34c1 2C       		.uleb128 0x2c
 9692 34c2 01       		.uleb128 0x1
 9693 34c3 50       		.byte	0x50
 9694 34c4 02       		.uleb128 0x2
 9695 34c5 08       		.byte	0x8
 9696 34c6 94       		.byte	0x94
 9697 34c7 00       		.byte	0
 9698 34c8 00       		.byte	0
 9699 34c9 2A       		.uleb128 0x2a
 9700 34ca C2000000 		.4byte	.LBB12
 9701 34ce 32000000 		.4byte	.LBE12-.LBB12
 9702 34d2 74350000 		.4byte	0x3574
 9703 34d6 29       		.uleb128 0x29
 9704 34d7 6C656E00 		.ascii	"len\000"
 9705 34db 01       		.byte	0x1
 9706 34dc BD       		.byte	0xbd
 9707 34dd BF000000 		.4byte	0xbf
 9708 34e1 BD050000 		.4byte	.LLST29
 9709 34e5 29       		.uleb128 0x29
 9710 34e6 70747200 		.ascii	"ptr\000"
 9711 34ea 01       		.byte	0x1
 9712 34eb BD       		.byte	0xbd
 9713 34ec F0000000 		.4byte	0xf0
 9714 34f0 D1050000 		.4byte	.LLST30
 9715 34f4 2B       		.uleb128 0x2b
 9716 34f5 CA000000 		.4byte	.LVL122
ARM GAS  C:\Users\AHMEDH~1\AppData\Local\Temp\cclxJjJK.s 			page 204


 9717 34f9 C74A0000 		.4byte	0x4ac7
 9718 34fd 0D350000 		.4byte	0x350d
 9719 3501 2C       		.uleb128 0x2c
 9720 3502 01       		.uleb128 0x1
 9721 3503 51       		.byte	0x51
 9722 3504 01       		.uleb128 0x1
 9723 3505 3D       		.byte	0x3d
 9724 3506 2C       		.uleb128 0x2c
 9725 3507 01       		.uleb128 0x1
 9726 3508 50       		.byte	0x50
 9727 3509 02       		.uleb128 0x2
 9728 350a 08       		.byte	0x8
 9729 350b 92       		.byte	0x92
 9730 350c 00       		.byte	0
 9731 350d 2B       		.uleb128 0x2b
 9732 350e D6000000 		.4byte	.LVL123
 9733 3512 E14A0000 		.4byte	0x4ae1
 9734 3516 2F350000 		.4byte	0x352f
 9735 351a 2C       		.uleb128 0x2c
 9736 351b 01       		.uleb128 0x1
 9737 351c 52       		.byte	0x52
 9738 351d 01       		.uleb128 0x1
 9739 351e 3C       		.byte	0x3c
 9740 351f 2C       		.uleb128 0x2c
 9741 3520 01       		.uleb128 0x1
 9742 3521 51       		.byte	0x51
 9743 3522 05       		.uleb128 0x5
 9744 3523 03       		.byte	0x3
 9745 3524 0D000000 		.4byte	.LC2
 9746 3528 2C       		.uleb128 0x2c
 9747 3529 01       		.uleb128 0x1
 9748 352a 50       		.byte	0x50
 9749 352b 02       		.uleb128 0x2
 9750 352c 76       		.byte	0x76
 9751 352d 00       		.sleb128 0
 9752 352e 00       		.byte	0
 9753 352f 2B       		.uleb128 0x2b
 9754 3530 EC000000 		.4byte	.LVL124
 9755 3534 FE4A0000 		.4byte	0x4afe
 9756 3538 5D350000 		.4byte	0x355d
 9757 353c 2C       		.uleb128 0x2c
 9758 353d 01       		.uleb128 0x1
 9759 353e 53       		.byte	0x53
 9760 353f 03       		.uleb128 0x3
 9761 3540 0A       		.byte	0xa
 9762 3541 0001     		.2byte	0x100
 9763 3543 2C       		.uleb128 0x2c
 9764 3544 01       		.uleb128 0x1
 9765 3545 52       		.byte	0x52
 9766 3546 02       		.uleb128 0x2
 9767 3547 76       		.byte	0x76
 9768 3548 00       		.sleb128 0
 9769 3549 2C       		.uleb128 0x2c
 9770 354a 01       		.uleb128 0x1
 9771 354b 51       		.byte	0x51
 9772 354c 02       		.uleb128 0x2
 9773 354d 08       		.byte	0x8
ARM GAS  C:\Users\AHMEDH~1\AppData\Local\Temp\cclxJjJK.s 			page 205


 9774 354e 25       		.byte	0x25
 9775 354f 2C       		.uleb128 0x2c
 9776 3550 01       		.uleb128 0x1
 9777 3551 50       		.byte	0x50
 9778 3552 01       		.uleb128 0x1
 9779 3553 3F       		.byte	0x3f
 9780 3554 2C       		.uleb128 0x2c
 9781 3555 02       		.uleb128 0x2
 9782 3556 7D       		.byte	0x7d
 9783 3557 00       		.sleb128 0
 9784 3558 03       		.uleb128 0x3
 9785 3559 0A       		.byte	0xa
 9786 355a 8010     		.2byte	0x1080
 9787 355c 00       		.byte	0
 9788 355d 2D       		.uleb128 0x2d
 9789 355e F4000000 		.4byte	.LVL125
 9790 3562 C74A0000 		.4byte	0x4ac7
 9791 3566 2C       		.uleb128 0x2c
 9792 3567 01       		.uleb128 0x1
 9793 3568 51       		.byte	0x51
 9794 3569 02       		.uleb128 0x2
 9795 356a 76       		.byte	0x76
 9796 356b 00       		.sleb128 0
 9797 356c 2C       		.uleb128 0x2c
 9798 356d 01       		.uleb128 0x1
 9799 356e 50       		.byte	0x50
 9800 356f 02       		.uleb128 0x2
 9801 3570 08       		.byte	0x8
 9802 3571 94       		.byte	0x94
 9803 3572 00       		.byte	0
 9804 3573 00       		.byte	0
 9805 3574 2B       		.uleb128 0x2b
 9806 3575 14000000 		.4byte	.LVL99
 9807 3579 C74A0000 		.4byte	0x4ac7
 9808 357d 8E350000 		.4byte	0x358e
 9809 3581 2C       		.uleb128 0x2c
 9810 3582 01       		.uleb128 0x1
 9811 3583 51       		.byte	0x51
 9812 3584 02       		.uleb128 0x2
 9813 3585 08       		.byte	0x8
 9814 3586 28       		.byte	0x28
 9815 3587 2C       		.uleb128 0x2c
 9816 3588 01       		.uleb128 0x1
 9817 3589 50       		.byte	0x50
 9818 358a 02       		.uleb128 0x2
 9819 358b 08       		.byte	0x8
 9820 358c 92       		.byte	0x92
 9821 358d 00       		.byte	0
 9822 358e 2E       		.uleb128 0x2e
 9823 358f 1C000000 		.4byte	.LVL100
 9824 3593 314C0000 		.4byte	0x4c31
 9825 3597 2B       		.uleb128 0x2b
 9826 3598 28000000 		.4byte	.LVL101
 9827 359c 274B0000 		.4byte	0x4b27
 9828 35a0 B4350000 		.4byte	0x35b4
 9829 35a4 2C       		.uleb128 0x2c
 9830 35a5 01       		.uleb128 0x1
ARM GAS  C:\Users\AHMEDH~1\AppData\Local\Temp\cclxJjJK.s 			page 206


 9831 35a6 51       		.byte	0x51
 9832 35a7 05       		.uleb128 0x5
 9833 35a8 03       		.byte	0x3
 9834 35a9 00000000 		.4byte	.LANCHOR0
 9835 35ad 2C       		.uleb128 0x2c
 9836 35ae 01       		.uleb128 0x1
 9837 35af 50       		.byte	0x50
 9838 35b0 02       		.uleb128 0x2
 9839 35b1 91       		.byte	0x91
 9840 35b2 48       		.sleb128 -56
 9841 35b3 00       		.byte	0
 9842 35b4 2B       		.uleb128 0x2b
 9843 35b5 36000000 		.4byte	.LVL102
 9844 35b9 FE4A0000 		.4byte	0x4afe
 9845 35bd DF350000 		.4byte	0x35df
 9846 35c1 2C       		.uleb128 0x2c
 9847 35c2 01       		.uleb128 0x1
 9848 35c3 53       		.byte	0x53
 9849 35c4 02       		.uleb128 0x2
 9850 35c5 74       		.byte	0x74
 9851 35c6 00       		.sleb128 0
 9852 35c7 2C       		.uleb128 0x2c
 9853 35c8 01       		.uleb128 0x1
 9854 35c9 52       		.byte	0x52
 9855 35ca 02       		.uleb128 0x2
 9856 35cb 91       		.byte	0x91
 9857 35cc 48       		.sleb128 -56
 9858 35cd 2C       		.uleb128 0x2c
 9859 35ce 01       		.uleb128 0x1
 9860 35cf 51       		.byte	0x51
 9861 35d0 01       		.uleb128 0x1
 9862 35d1 3D       		.byte	0x3d
 9863 35d2 2C       		.uleb128 0x2c
 9864 35d3 01       		.uleb128 0x1
 9865 35d4 50       		.byte	0x50
 9866 35d5 01       		.uleb128 0x1
 9867 35d6 3F       		.byte	0x3f
 9868 35d7 2C       		.uleb128 0x2c
 9869 35d8 02       		.uleb128 0x2
 9870 35d9 7D       		.byte	0x7d
 9871 35da 00       		.sleb128 0
 9872 35db 02       		.uleb128 0x2
 9873 35dc 74       		.byte	0x74
 9874 35dd 00       		.sleb128 0
 9875 35de 00       		.byte	0
 9876 35df 2B       		.uleb128 0x2b
 9877 35e0 48000000 		.4byte	.LVL104
 9878 35e4 FE4A0000 		.4byte	0x4afe
 9879 35e8 0A360000 		.4byte	0x360a
 9880 35ec 2C       		.uleb128 0x2c
 9881 35ed 01       		.uleb128 0x1
 9882 35ee 53       		.byte	0x53
 9883 35ef 02       		.uleb128 0x2
 9884 35f0 74       		.byte	0x74
 9885 35f1 00       		.sleb128 0
 9886 35f2 2C       		.uleb128 0x2c
 9887 35f3 01       		.uleb128 0x1
ARM GAS  C:\Users\AHMEDH~1\AppData\Local\Temp\cclxJjJK.s 			page 207


 9888 35f4 52       		.byte	0x52
 9889 35f5 02       		.uleb128 0x2
 9890 35f6 91       		.byte	0x91
 9891 35f7 48       		.sleb128 -56
 9892 35f8 2C       		.uleb128 0x2c
 9893 35f9 01       		.uleb128 0x1
 9894 35fa 51       		.byte	0x51
 9895 35fb 01       		.uleb128 0x1
 9896 35fc 3B       		.byte	0x3b
 9897 35fd 2C       		.uleb128 0x2c
 9898 35fe 01       		.uleb128 0x1
 9899 35ff 50       		.byte	0x50
 9900 3600 01       		.uleb128 0x1
 9901 3601 3F       		.byte	0x3f
 9902 3602 2C       		.uleb128 0x2c
 9903 3603 02       		.uleb128 0x2
 9904 3604 7D       		.byte	0x7d
 9905 3605 00       		.sleb128 0
 9906 3606 02       		.uleb128 0x2
 9907 3607 74       		.byte	0x74
 9908 3608 00       		.sleb128 0
 9909 3609 00       		.byte	0
 9910 360a 2B       		.uleb128 0x2b
 9911 360b 56000000 		.4byte	.LVL107
 9912 360f 484B0000 		.4byte	0x4b48
 9913 3613 24360000 		.4byte	0x3624
 9914 3617 2C       		.uleb128 0x2c
 9915 3618 01       		.uleb128 0x1
 9916 3619 52       		.byte	0x52
 9917 361a 02       		.uleb128 0x2
 9918 361b 77       		.byte	0x77
 9919 361c 00       		.sleb128 0
 9920 361d 2C       		.uleb128 0x2c
 9921 361e 01       		.uleb128 0x1
 9922 361f 51       		.byte	0x51
 9923 3620 02       		.uleb128 0x2
 9924 3621 74       		.byte	0x74
 9925 3622 00       		.sleb128 0
 9926 3623 00       		.byte	0
 9927 3624 2B       		.uleb128 0x2b
 9928 3625 64000000 		.4byte	.LVL108
 9929 3629 FE4A0000 		.4byte	0x4afe
 9930 362d 49360000 		.4byte	0x3649
 9931 3631 2C       		.uleb128 0x2c
 9932 3632 01       		.uleb128 0x1
 9933 3633 52       		.byte	0x52
 9934 3634 02       		.uleb128 0x2
 9935 3635 75       		.byte	0x75
 9936 3636 00       		.sleb128 0
 9937 3637 2C       		.uleb128 0x2c
 9938 3638 01       		.uleb128 0x1
 9939 3639 51       		.byte	0x51
 9940 363a 01       		.uleb128 0x1
 9941 363b 42       		.byte	0x42
 9942 363c 2C       		.uleb128 0x2c
 9943 363d 01       		.uleb128 0x1
 9944 363e 50       		.byte	0x50
ARM GAS  C:\Users\AHMEDH~1\AppData\Local\Temp\cclxJjJK.s 			page 208


 9945 363f 01       		.uleb128 0x1
 9946 3640 3F       		.byte	0x3f
 9947 3641 2C       		.uleb128 0x2c
 9948 3642 02       		.uleb128 0x2
 9949 3643 7D       		.byte	0x7d
 9950 3644 00       		.sleb128 0
 9951 3645 02       		.uleb128 0x2
 9952 3646 77       		.byte	0x77
 9953 3647 00       		.sleb128 0
 9954 3648 00       		.byte	0
 9955 3649 2E       		.uleb128 0x2e
 9956 364a 9E000000 		.4byte	.LVL115
 9957 364e 414B0000 		.4byte	0x4b41
 9958 3652 2B       		.uleb128 0x2b
 9959 3653 AC000000 		.4byte	.LVL116
 9960 3657 FE4A0000 		.4byte	0x4afe
 9961 365b 7D360000 		.4byte	0x367d
 9962 365f 2C       		.uleb128 0x2c
 9963 3660 01       		.uleb128 0x1
 9964 3661 53       		.byte	0x53
 9965 3662 02       		.uleb128 0x2
 9966 3663 74       		.byte	0x74
 9967 3664 00       		.sleb128 0
 9968 3665 2C       		.uleb128 0x2c
 9969 3666 01       		.uleb128 0x1
 9970 3667 52       		.byte	0x52
 9971 3668 02       		.uleb128 0x2
 9972 3669 74       		.byte	0x74
 9973 366a 00       		.sleb128 0
 9974 366b 2C       		.uleb128 0x2c
 9975 366c 01       		.uleb128 0x1
 9976 366d 51       		.byte	0x51
 9977 366e 01       		.uleb128 0x1
 9978 366f 43       		.byte	0x43
 9979 3670 2C       		.uleb128 0x2c
 9980 3671 01       		.uleb128 0x1
 9981 3672 50       		.byte	0x50
 9982 3673 01       		.uleb128 0x1
 9983 3674 3F       		.byte	0x3f
 9984 3675 2C       		.uleb128 0x2c
 9985 3676 02       		.uleb128 0x2
 9986 3677 7D       		.byte	0x7d
 9987 3678 00       		.sleb128 0
 9988 3679 02       		.uleb128 0x2
 9989 367a 74       		.byte	0x74
 9990 367b 00       		.sleb128 0
 9991 367c 00       		.byte	0
 9992 367d 2B       		.uleb128 0x2b
 9993 367e BE000000 		.4byte	.LVL119
 9994 3682 FE4A0000 		.4byte	0x4afe
 9995 3686 A2360000 		.4byte	0x36a2
 9996 368a 2C       		.uleb128 0x2c
 9997 368b 01       		.uleb128 0x1
 9998 368c 52       		.byte	0x52
 9999 368d 02       		.uleb128 0x2
 10000 368e 75       		.byte	0x75
 10001 368f 00       		.sleb128 0
ARM GAS  C:\Users\AHMEDH~1\AppData\Local\Temp\cclxJjJK.s 			page 209


 10002 3690 2C       		.uleb128 0x2c
 10003 3691 01       		.uleb128 0x1
 10004 3692 51       		.byte	0x51
 10005 3693 01       		.uleb128 0x1
 10006 3694 41       		.byte	0x41
 10007 3695 2C       		.uleb128 0x2c
 10008 3696 01       		.uleb128 0x1
 10009 3697 50       		.byte	0x50
 10010 3698 01       		.uleb128 0x1
 10011 3699 3F       		.byte	0x3f
 10012 369a 2C       		.uleb128 0x2c
 10013 369b 02       		.uleb128 0x2
 10014 369c 7D       		.byte	0x7d
 10015 369d 00       		.sleb128 0
 10016 369e 02       		.uleb128 0x2
 10017 369f 08       		.byte	0x8
 10018 36a0 28       		.byte	0x28
 10019 36a1 00       		.byte	0
 10020 36a2 2E       		.uleb128 0x2e
 10021 36a3 F8000000 		.4byte	.LVL126
 10022 36a7 414B0000 		.4byte	0x4b41
 10023 36ab 2D       		.uleb128 0x2d
 10024 36ac 06010000 		.4byte	.LVL127
 10025 36b0 FE4A0000 		.4byte	0x4afe
 10026 36b4 2C       		.uleb128 0x2c
 10027 36b5 01       		.uleb128 0x1
 10028 36b6 53       		.byte	0x53
 10029 36b7 02       		.uleb128 0x2
 10030 36b8 74       		.byte	0x74
 10031 36b9 00       		.sleb128 0
 10032 36ba 2C       		.uleb128 0x2c
 10033 36bb 01       		.uleb128 0x1
 10034 36bc 52       		.byte	0x52
 10035 36bd 02       		.uleb128 0x2
 10036 36be 75       		.byte	0x75
 10037 36bf 00       		.sleb128 0
 10038 36c0 2C       		.uleb128 0x2c
 10039 36c1 01       		.uleb128 0x1
 10040 36c2 51       		.byte	0x51
 10041 36c3 01       		.uleb128 0x1
 10042 36c4 3E       		.byte	0x3e
 10043 36c5 2C       		.uleb128 0x2c
 10044 36c6 01       		.uleb128 0x1
 10045 36c7 50       		.byte	0x50
 10046 36c8 01       		.uleb128 0x1
 10047 36c9 3F       		.byte	0x3f
 10048 36ca 2C       		.uleb128 0x2c
 10049 36cb 02       		.uleb128 0x2
 10050 36cc 7D       		.byte	0x7d
 10051 36cd 00       		.sleb128 0
 10052 36ce 02       		.uleb128 0x2
 10053 36cf 74       		.byte	0x74
 10054 36d0 00       		.sleb128 0
 10055 36d1 00       		.byte	0
 10056 36d2 00       		.byte	0
 10057 36d3 36       		.uleb128 0x36
 10058 36d4 012B0000 		.4byte	0x2b01
ARM GAS  C:\Users\AHMEDH~1\AppData\Local\Temp\cclxJjJK.s 			page 210


 10059 36d8 00000000 		.4byte	.LFB13
 10060 36dc F0020000 		.4byte	.LFE13-.LFB13
 10061 36e0 01       		.uleb128 0x1
 10062 36e1 9C       		.byte	0x9c
 10063 36e2 68380000 		.4byte	0x3868
 10064 36e6 33       		.uleb128 0x33
 10065 36e7 0E2B0000 		.4byte	0x2b0e
 10066 36eb EF050000 		.4byte	.LLST31
 10067 36ef 3B       		.uleb128 0x3b
 10068 36f0 1A2B0000 		.4byte	0x2b1a
 10069 36f4 3B       		.uleb128 0x3b
 10070 36f5 252B0000 		.4byte	0x2b25
 10071 36f9 3B       		.uleb128 0x3b
 10072 36fa 302B0000 		.4byte	0x2b30
 10073 36fe 3B       		.uleb128 0x3b
 10074 36ff 3C2B0000 		.4byte	0x2b3c
 10075 3703 3B       		.uleb128 0x3b
 10076 3704 482B0000 		.4byte	0x2b48
 10077 3708 38       		.uleb128 0x38
 10078 3709 542B0000 		.4byte	0x2b54
 10079 370d 1B060000 		.4byte	.LLST32
 10080 3711 3B       		.uleb128 0x3b
 10081 3712 602B0000 		.4byte	0x2b60
 10082 3716 2A       		.uleb128 0x2a
 10083 3717 42000000 		.4byte	.LBB15
 10084 371b 6A020000 		.4byte	.LBE15-.LBB15
 10085 371f 58380000 		.4byte	0x3858
 10086 3723 33       		.uleb128 0x33
 10087 3724 0E2B0000 		.4byte	0x2b0e
 10088 3728 31060000 		.4byte	.LLST33
 10089 372c 34       		.uleb128 0x34
 10090 372d 42000000 		.4byte	.LBB16
 10091 3731 6A020000 		.4byte	.LBE16-.LBB16
 10092 3735 38       		.uleb128 0x38
 10093 3736 1A2B0000 		.4byte	0x2b1a
 10094 373a 44060000 		.4byte	.LLST34
 10095 373e 38       		.uleb128 0x38
 10096 373f 252B0000 		.4byte	0x2b25
 10097 3743 99060000 		.4byte	.LLST35
 10098 3747 35       		.uleb128 0x35
 10099 3748 302B0000 		.4byte	0x2b30
 10100 374c 03       		.uleb128 0x3
 10101 374d 91       		.byte	0x91
 10102 374e F87E     		.sleb128 -136
 10103 3750 35       		.uleb128 0x35
 10104 3751 3C2B0000 		.4byte	0x2b3c
 10105 3755 03       		.uleb128 0x3
 10106 3756 91       		.byte	0x91
 10107 3757 987F     		.sleb128 -104
 10108 3759 38       		.uleb128 0x38
 10109 375a 482B0000 		.4byte	0x2b48
 10110 375e AC060000 		.4byte	.LLST36
 10111 3762 38       		.uleb128 0x38
 10112 3763 542B0000 		.4byte	0x2b54
 10113 3767 2C070000 		.4byte	.LLST37
 10114 376b 38       		.uleb128 0x38
 10115 376c 602B0000 		.4byte	0x2b60
ARM GAS  C:\Users\AHMEDH~1\AppData\Local\Temp\cclxJjJK.s 			page 211


 10116 3770 3F070000 		.4byte	.LLST38
 10117 3774 2B       		.uleb128 0x2b
 10118 3775 A6000000 		.4byte	.LVL135
 10119 3779 424C0000 		.4byte	0x4c42
 10120 377d 8D370000 		.4byte	0x378d
 10121 3781 2C       		.uleb128 0x2c
 10122 3782 01       		.uleb128 0x1
 10123 3783 52       		.byte	0x52
 10124 3784 01       		.uleb128 0x1
 10125 3785 3A       		.byte	0x3a
 10126 3786 2C       		.uleb128 0x2c
 10127 3787 01       		.uleb128 0x1
 10128 3788 50       		.byte	0x50
 10129 3789 02       		.uleb128 0x2
 10130 378a 7D       		.byte	0x7d
 10131 378b 00       		.sleb128 0
 10132 378c 00       		.byte	0
 10133 378d 2B       		.uleb128 0x2b
 10134 378e B2000000 		.4byte	.LVL136
 10135 3792 5D4C0000 		.4byte	0x4c5d
 10136 3796 AD370000 		.4byte	0x37ad
 10137 379a 2C       		.uleb128 0x2c
 10138 379b 01       		.uleb128 0x1
 10139 379c 52       		.byte	0x52
 10140 379d 01       		.uleb128 0x1
 10141 379e 43       		.byte	0x43
 10142 379f 2C       		.uleb128 0x2c
 10143 37a0 01       		.uleb128 0x1
 10144 37a1 51       		.byte	0x51
 10145 37a2 02       		.uleb128 0x2
 10146 37a3 08       		.byte	0x8
 10147 37a4 46       		.byte	0x46
 10148 37a5 2C       		.uleb128 0x2c
 10149 37a6 01       		.uleb128 0x1
 10150 37a7 50       		.byte	0x50
 10151 37a8 03       		.uleb128 0x3
 10152 37a9 91       		.byte	0x91
 10153 37aa F97E     		.sleb128 -135
 10154 37ac 00       		.byte	0
 10155 37ad 2E       		.uleb128 0x2e
 10156 37ae DE010000 		.4byte	.LVL143
 10157 37b2 7C4C0000 		.4byte	0x4c7c
 10158 37b6 2B       		.uleb128 0x2b
 10159 37b7 0A020000 		.4byte	.LVL145
 10160 37bb 7C4C0000 		.4byte	0x4c7c
 10161 37bf CA370000 		.4byte	0x37ca
 10162 37c3 2C       		.uleb128 0x2c
 10163 37c4 01       		.uleb128 0x1
 10164 37c5 50       		.byte	0x50
 10165 37c6 02       		.uleb128 0x2
 10166 37c7 7D       		.byte	0x7d
 10167 37c8 00       		.sleb128 0
 10168 37c9 00       		.byte	0
 10169 37ca 2B       		.uleb128 0x2b
 10170 37cb 24020000 		.4byte	.LVL147
 10171 37cf 7C4C0000 		.4byte	0x4c7c
 10172 37d3 DE370000 		.4byte	0x37de
ARM GAS  C:\Users\AHMEDH~1\AppData\Local\Temp\cclxJjJK.s 			page 212


 10173 37d7 2C       		.uleb128 0x2c
 10174 37d8 01       		.uleb128 0x1
 10175 37d9 50       		.byte	0x50
 10176 37da 02       		.uleb128 0x2
 10177 37db 7D       		.byte	0x7d
 10178 37dc 00       		.sleb128 0
 10179 37dd 00       		.byte	0
 10180 37de 2B       		.uleb128 0x2b
 10181 37df 30020000 		.4byte	.LVL149
 10182 37e3 E14A0000 		.4byte	0x4ae1
 10183 37e7 FE370000 		.4byte	0x37fe
 10184 37eb 2C       		.uleb128 0x2c
 10185 37ec 01       		.uleb128 0x1
 10186 37ed 52       		.byte	0x52
 10187 37ee 01       		.uleb128 0x1
 10188 37ef 36       		.byte	0x36
 10189 37f0 2C       		.uleb128 0x2c
 10190 37f1 01       		.uleb128 0x1
 10191 37f2 51       		.byte	0x51
 10192 37f3 02       		.uleb128 0x2
 10193 37f4 7A       		.byte	0x7a
 10194 37f5 00       		.sleb128 0
 10195 37f6 2C       		.uleb128 0x2c
 10196 37f7 01       		.uleb128 0x1
 10197 37f8 50       		.byte	0x50
 10198 37f9 03       		.uleb128 0x3
 10199 37fa 91       		.byte	0x91
 10200 37fb 9A7F     		.sleb128 -102
 10201 37fd 00       		.byte	0
 10202 37fe 2B       		.uleb128 0x2b
 10203 37ff 3C020000 		.4byte	.LVL150
 10204 3803 7C4C0000 		.4byte	0x4c7c
 10205 3807 12380000 		.4byte	0x3812
 10206 380b 2C       		.uleb128 0x2c
 10207 380c 01       		.uleb128 0x1
 10208 380d 50       		.byte	0x50
 10209 380e 02       		.uleb128 0x2
 10210 380f 7D       		.byte	0x7d
 10211 3810 00       		.sleb128 0
 10212 3811 00       		.byte	0
 10213 3812 2B       		.uleb128 0x2b
 10214 3813 4E020000 		.4byte	.LVL152
 10215 3817 7C4C0000 		.4byte	0x4c7c
 10216 381b 26380000 		.4byte	0x3826
 10217 381f 2C       		.uleb128 0x2c
 10218 3820 01       		.uleb128 0x1
 10219 3821 50       		.byte	0x50
 10220 3822 02       		.uleb128 0x2
 10221 3823 7D       		.byte	0x7d
 10222 3824 00       		.sleb128 0
 10223 3825 00       		.byte	0
 10224 3826 2B       		.uleb128 0x2b
 10225 3827 5A020000 		.4byte	.LVL154
 10226 382b E14A0000 		.4byte	0x4ae1
 10227 382f 46380000 		.4byte	0x3846
 10228 3833 2C       		.uleb128 0x2c
 10229 3834 01       		.uleb128 0x1
ARM GAS  C:\Users\AHMEDH~1\AppData\Local\Temp\cclxJjJK.s 			page 213


 10230 3835 52       		.byte	0x52
 10231 3836 01       		.uleb128 0x1
 10232 3837 36       		.byte	0x36
 10233 3838 2C       		.uleb128 0x2c
 10234 3839 01       		.uleb128 0x1
 10235 383a 51       		.byte	0x51
 10236 383b 02       		.uleb128 0x2
 10237 383c 7A       		.byte	0x7a
 10238 383d 00       		.sleb128 0
 10239 383e 2C       		.uleb128 0x2c
 10240 383f 01       		.uleb128 0x1
 10241 3840 50       		.byte	0x50
 10242 3841 03       		.uleb128 0x3
 10243 3842 91       		.byte	0x91
 10244 3843 A27F     		.sleb128 -94
 10245 3845 00       		.byte	0
 10246 3846 2D       		.uleb128 0x2d
 10247 3847 9E020000 		.4byte	.LVL156
 10248 384b 924C0000 		.4byte	0x4c92
 10249 384f 2C       		.uleb128 0x2c
 10250 3850 01       		.uleb128 0x1
 10251 3851 53       		.byte	0x53
 10252 3852 02       		.uleb128 0x2
 10253 3853 74       		.byte	0x74
 10254 3854 00       		.sleb128 0
 10255 3855 00       		.byte	0
 10256 3856 00       		.byte	0
 10257 3857 00       		.byte	0
 10258 3858 2D       		.uleb128 0x2d
 10259 3859 42000000 		.4byte	.LVL131
 10260 385d E14A0000 		.4byte	0x4ae1
 10261 3861 2C       		.uleb128 0x2c
 10262 3862 01       		.uleb128 0x1
 10263 3863 52       		.byte	0x52
 10264 3864 01       		.uleb128 0x1
 10265 3865 32       		.byte	0x32
 10266 3866 00       		.byte	0
 10267 3867 00       		.byte	0
 10268 3868 36       		.uleb128 0x36
 10269 3869 7E2B0000 		.4byte	0x2b7e
 10270 386d 00000000 		.4byte	.LFB14
 10271 3871 0E000000 		.4byte	.LFE14-.LFB14
 10272 3875 01       		.uleb128 0x1
 10273 3876 9C       		.byte	0x9c
 10274 3877 8C380000 		.4byte	0x388c
 10275 387b 2D       		.uleb128 0x2d
 10276 387c 0A000000 		.4byte	.LVL162
 10277 3880 B64C0000 		.4byte	0x4cb6
 10278 3884 2C       		.uleb128 0x2c
 10279 3885 01       		.uleb128 0x1
 10280 3886 50       		.byte	0x50
 10281 3887 02       		.uleb128 0x2
 10282 3888 09       		.byte	0x9
 10283 3889 FF       		.byte	0xff
 10284 388a 00       		.byte	0
 10285 388b 00       		.byte	0
 10286 388c 3C       		.uleb128 0x3c
ARM GAS  C:\Users\AHMEDH~1\AppData\Local\Temp\cclxJjJK.s 			page 214


 10287 388d 81070000 		.4byte	.LASF958
 10288 3891 01       		.byte	0x1
 10289 3892 A303     		.2byte	0x3a3
 10290 3894 BF000000 		.4byte	0xbf
 10291 3898 00000000 		.4byte	.LFB15
 10292 389c 24000000 		.4byte	.LFE15-.LFB15
 10293 38a0 01       		.uleb128 0x1
 10294 38a1 9C       		.byte	0x9c
 10295 38a2 D3380000 		.4byte	0x38d3
 10296 38a6 2B       		.uleb128 0x2b
 10297 38a7 08000000 		.4byte	.LVL163
 10298 38ab C74C0000 		.4byte	0x4cc7
 10299 38af B9380000 		.4byte	0x38b9
 10300 38b3 2C       		.uleb128 0x2c
 10301 38b4 01       		.uleb128 0x1
 10302 38b5 50       		.byte	0x50
 10303 38b6 01       		.uleb128 0x1
 10304 38b7 30       		.byte	0x30
 10305 38b8 00       		.byte	0
 10306 38b9 2D       		.uleb128 0x2d
 10307 38ba 18000000 		.4byte	.LVL164
 10308 38be E14A0000 		.4byte	0x4ae1
 10309 38c2 2C       		.uleb128 0x2c
 10310 38c3 01       		.uleb128 0x1
 10311 38c4 52       		.byte	0x52
 10312 38c5 02       		.uleb128 0x2
 10313 38c6 08       		.byte	0x8
 10314 38c7 68       		.byte	0x68
 10315 38c8 2C       		.uleb128 0x2c
 10316 38c9 01       		.uleb128 0x1
 10317 38ca 50       		.byte	0x50
 10318 38cb 05       		.uleb128 0x5
 10319 38cc 03       		.byte	0x3
 10320 38cd 20060000 		.4byte	.LANCHOR1+1568
 10321 38d1 00       		.byte	0
 10322 38d2 00       		.byte	0
 10323 38d3 3C       		.uleb128 0x3c
 10324 38d4 73010000 		.4byte	.LASF959
 10325 38d8 01       		.byte	0x1
 10326 38d9 B103     		.2byte	0x3b1
 10327 38db BF000000 		.4byte	0xbf
 10328 38df 00000000 		.4byte	.LFB16
 10329 38e3 44000000 		.4byte	.LFE16-.LFB16
 10330 38e7 01       		.uleb128 0x1
 10331 38e8 9C       		.byte	0x9c
 10332 38e9 27390000 		.4byte	0x3927
 10333 38ed 2B       		.uleb128 0x2b
 10334 38ee 08000000 		.4byte	.LVL165
 10335 38f2 C74C0000 		.4byte	0x4cc7
 10336 38f6 00390000 		.4byte	0x3900
 10337 38fa 2C       		.uleb128 0x2c
 10338 38fb 01       		.uleb128 0x1
 10339 38fc 50       		.byte	0x50
 10340 38fd 01       		.uleb128 0x1
 10341 38fe 30       		.byte	0x30
 10342 38ff 00       		.byte	0
 10343 3900 2B       		.uleb128 0x2b
ARM GAS  C:\Users\AHMEDH~1\AppData\Local\Temp\cclxJjJK.s 			page 215


 10344 3901 18000000 		.4byte	.LVL166
 10345 3905 E14A0000 		.4byte	0x4ae1
 10346 3909 1D390000 		.4byte	0x391d
 10347 390d 2C       		.uleb128 0x2c
 10348 390e 01       		.uleb128 0x1
 10349 390f 52       		.byte	0x52
 10350 3910 02       		.uleb128 0x2
 10351 3911 08       		.byte	0x8
 10352 3912 68       		.byte	0x68
 10353 3913 2C       		.uleb128 0x2c
 10354 3914 01       		.uleb128 0x1
 10355 3915 50       		.byte	0x50
 10356 3916 05       		.uleb128 0x5
 10357 3917 03       		.byte	0x3
 10358 3918 20060000 		.4byte	.LANCHOR1+1568
 10359 391c 00       		.byte	0
 10360 391d 2E       		.uleb128 0x2e
 10361 391e 2C000000 		.4byte	.LVL167
 10362 3922 D84C0000 		.4byte	0x4cd8
 10363 3926 00       		.byte	0
 10364 3927 3C       		.uleb128 0x3c
 10365 3928 23170000 		.4byte	.LASF960
 10366 392c 01       		.byte	0x1
 10367 392d 8D04     		.2byte	0x48d
 10368 392f 37000000 		.4byte	0x37
 10369 3933 00000000 		.4byte	.LFB19
 10370 3937 A8050000 		.4byte	.LFE19-.LFB19
 10371 393b 01       		.uleb128 0x1
 10372 393c 9C       		.byte	0x9c
 10373 393d 50440000 		.4byte	0x4450
 10374 3941 30       		.uleb128 0x30
 10375 3942 190C0000 		.4byte	.LASF961
 10376 3946 01       		.byte	0x1
 10377 3947 8D04     		.2byte	0x48d
 10378 3949 F0000000 		.4byte	0xf0
 10379 394d 78070000 		.4byte	.LLST39
 10380 3951 30       		.uleb128 0x30
 10381 3952 9D130000 		.4byte	.LASF962
 10382 3956 01       		.byte	0x1
 10383 3957 8D04     		.2byte	0x48d
 10384 3959 B4000000 		.4byte	0xb4
 10385 395d A4070000 		.4byte	.LLST40
 10386 3961 23       		.uleb128 0x23
 10387 3962 950A0000 		.4byte	.LASF963
 10388 3966 01       		.byte	0x1
 10389 3967 8F04     		.2byte	0x48f
 10390 3969 37000000 		.4byte	0x37
 10391 396d 31       		.uleb128 0x31
 10392 396e 84360000 		.4byte	.LASF964
 10393 3972 01       		.byte	0x1
 10394 3973 9004     		.2byte	0x490
 10395 3975 F0000000 		.4byte	0xf0
 10396 3979 06       		.uleb128 0x6
 10397 397a 03       		.byte	0x3
 10398 397b 18000000 		.4byte	gReqBuf
 10399 397f 9F       		.byte	0x9f
 10400 3980 3D       		.uleb128 0x3d
ARM GAS  C:\Users\AHMEDH~1\AppData\Local\Temp\cclxJjJK.s 			page 216


 10401 3981 CD2B0000 		.4byte	0x2bcd
 10402 3985 18000000 		.4byte	.LBB35
 10403 3989 00000000 		.4byte	.Ldebug_ranges0+0
 10404 398d 01       		.byte	0x1
 10405 398e 9704     		.2byte	0x497
 10406 3990 8A3B0000 		.4byte	0x3b8a
 10407 3994 37       		.uleb128 0x37
 10408 3995 DE2B0000 		.4byte	0x2bde
 10409 3999 06       		.uleb128 0x6
 10410 399a 03       		.byte	0x3
 10411 399b 18000000 		.4byte	gReqBuf
 10412 399f 9F       		.byte	0x9f
 10413 39a0 33       		.uleb128 0x33
 10414 39a1 EA2B0000 		.4byte	0x2bea
 10415 39a5 C5070000 		.4byte	.LLST41
 10416 39a9 3E       		.uleb128 0x3e
 10417 39aa 00000000 		.4byte	.Ldebug_ranges0+0
 10418 39ae 35       		.uleb128 0x35
 10419 39af F62B0000 		.4byte	0x2bf6
 10420 39b3 02       		.uleb128 0x2
 10421 39b4 91       		.byte	0x91
 10422 39b5 48       		.sleb128 -56
 10423 39b6 2B       		.uleb128 0x2b
 10424 39b7 32000000 		.4byte	.LVL172
 10425 39bb E34C0000 		.4byte	0x4ce3
 10426 39bf CA390000 		.4byte	0x39ca
 10427 39c3 2C       		.uleb128 0x2c
 10428 39c4 01       		.uleb128 0x1
 10429 39c5 50       		.byte	0x50
 10430 39c6 02       		.uleb128 0x2
 10431 39c7 74       		.byte	0x74
 10432 39c8 19       		.sleb128 25
 10433 39c9 00       		.byte	0
 10434 39ca 2B       		.uleb128 0x2b
 10435 39cb 3E000000 		.4byte	.LVL173
 10436 39cf FD4B0000 		.4byte	0x4bfd
 10437 39d3 DE390000 		.4byte	0x39de
 10438 39d7 2C       		.uleb128 0x2c
 10439 39d8 01       		.uleb128 0x1
 10440 39d9 50       		.byte	0x50
 10441 39da 02       		.uleb128 0x2
 10442 39db 74       		.byte	0x74
 10443 39dc 23       		.sleb128 35
 10444 39dd 00       		.byte	0
 10445 39de 2B       		.uleb128 0x2b
 10446 39df 4C000000 		.4byte	.LVL174
 10447 39e3 FD4B0000 		.4byte	0x4bfd
 10448 39e7 F2390000 		.4byte	0x39f2
 10449 39eb 2C       		.uleb128 0x2c
 10450 39ec 01       		.uleb128 0x1
 10451 39ed 50       		.byte	0x50
 10452 39ee 02       		.uleb128 0x2
 10453 39ef 74       		.byte	0x74
 10454 39f0 23       		.sleb128 35
 10455 39f1 00       		.byte	0
 10456 39f2 2B       		.uleb128 0x2b
 10457 39f3 5A000000 		.4byte	.LVL175
ARM GAS  C:\Users\AHMEDH~1\AppData\Local\Temp\cclxJjJK.s 			page 217


 10458 39f7 FD4B0000 		.4byte	0x4bfd
 10459 39fb 063A0000 		.4byte	0x3a06
 10460 39ff 2C       		.uleb128 0x2c
 10461 3a00 01       		.uleb128 0x1
 10462 3a01 50       		.byte	0x50
 10463 3a02 02       		.uleb128 0x2
 10464 3a03 74       		.byte	0x74
 10465 3a04 1F       		.sleb128 31
 10466 3a05 00       		.byte	0
 10467 3a06 2B       		.uleb128 0x2b
 10468 3a07 88000000 		.4byte	.LVL176
 10469 3a0b FD4B0000 		.4byte	0x4bfd
 10470 3a0f 1A3A0000 		.4byte	0x3a1a
 10471 3a13 2C       		.uleb128 0x2c
 10472 3a14 01       		.uleb128 0x1
 10473 3a15 50       		.byte	0x50
 10474 3a16 02       		.uleb128 0x2
 10475 3a17 74       		.byte	0x74
 10476 3a18 1F       		.sleb128 31
 10477 3a19 00       		.byte	0
 10478 3a1a 2B       		.uleb128 0x2b
 10479 3a1b C0000000 		.4byte	.LVL177
 10480 3a1f FD4B0000 		.4byte	0x4bfd
 10481 3a23 2E3A0000 		.4byte	0x3a2e
 10482 3a27 2C       		.uleb128 0x2c
 10483 3a28 01       		.uleb128 0x1
 10484 3a29 50       		.byte	0x50
 10485 3a2a 02       		.uleb128 0x2
 10486 3a2b 74       		.byte	0x74
 10487 3a2c 00       		.sleb128 0
 10488 3a2d 00       		.byte	0
 10489 3a2e 2B       		.uleb128 0x2b
 10490 3a2f D0000000 		.4byte	.LVL178
 10491 3a33 E14A0000 		.4byte	0x4ae1
 10492 3a37 503A0000 		.4byte	0x3a50
 10493 3a3b 2C       		.uleb128 0x2c
 10494 3a3c 01       		.uleb128 0x1
 10495 3a3d 52       		.byte	0x52
 10496 3a3e 01       		.uleb128 0x1
 10497 3a3f 36       		.byte	0x36
 10498 3a40 2C       		.uleb128 0x2c
 10499 3a41 01       		.uleb128 0x1
 10500 3a42 51       		.byte	0x51
 10501 3a43 05       		.uleb128 0x5
 10502 3a44 03       		.byte	0x3
 10503 3a45 1F000000 		.4byte	.LANCHOR1+31
 10504 3a49 2C       		.uleb128 0x2c
 10505 3a4a 01       		.uleb128 0x1
 10506 3a4b 50       		.byte	0x50
 10507 3a4c 02       		.uleb128 0x2
 10508 3a4d 91       		.byte	0x91
 10509 3a4e 48       		.sleb128 -56
 10510 3a4f 00       		.byte	0
 10511 3a50 2B       		.uleb128 0x2b
 10512 3a51 DC000000 		.4byte	.LVL179
 10513 3a55 124C0000 		.4byte	0x4c12
 10514 3a59 723A0000 		.4byte	0x3a72
ARM GAS  C:\Users\AHMEDH~1\AppData\Local\Temp\cclxJjJK.s 			page 218


 10515 3a5d 2C       		.uleb128 0x2c
 10516 3a5e 01       		.uleb128 0x1
 10517 3a5f 52       		.byte	0x52
 10518 3a60 01       		.uleb128 0x1
 10519 3a61 30       		.byte	0x30
 10520 3a62 2C       		.uleb128 0x2c
 10521 3a63 01       		.uleb128 0x1
 10522 3a64 51       		.byte	0x51
 10523 3a65 02       		.uleb128 0x2
 10524 3a66 7A       		.byte	0x7a
 10525 3a67 00       		.sleb128 0
 10526 3a68 2C       		.uleb128 0x2c
 10527 3a69 01       		.uleb128 0x1
 10528 3a6a 50       		.byte	0x50
 10529 3a6b 05       		.uleb128 0x5
 10530 3a6c 03       		.byte	0x3
 10531 3a6d 19000000 		.4byte	.LANCHOR1+25
 10532 3a71 00       		.byte	0
 10533 3a72 2B       		.uleb128 0x2b
 10534 3a73 E6000000 		.4byte	.LVL180
 10535 3a77 D14B0000 		.4byte	0x4bd1
 10536 3a7b 863A0000 		.4byte	0x3a86
 10537 3a7f 2C       		.uleb128 0x2c
 10538 3a80 01       		.uleb128 0x1
 10539 3a81 50       		.byte	0x50
 10540 3a82 02       		.uleb128 0x2
 10541 3a83 91       		.byte	0x91
 10542 3a84 4E       		.sleb128 -50
 10543 3a85 00       		.byte	0
 10544 3a86 2B       		.uleb128 0x2b
 10545 3a87 F6000000 		.4byte	.LVL181
 10546 3a8b 912F0000 		.4byte	0x2f91
 10547 3a8f B03A0000 		.4byte	0x3ab0
 10548 3a93 2C       		.uleb128 0x2c
 10549 3a94 01       		.uleb128 0x1
 10550 3a95 53       		.byte	0x53
 10551 3a96 02       		.uleb128 0x2
 10552 3a97 91       		.byte	0x91
 10553 3a98 48       		.sleb128 -56
 10554 3a99 2C       		.uleb128 0x2c
 10555 3a9a 01       		.uleb128 0x1
 10556 3a9b 52       		.byte	0x52
 10557 3a9c 01       		.uleb128 0x1
 10558 3a9d 30       		.byte	0x30
 10559 3a9e 2C       		.uleb128 0x2c
 10560 3a9f 01       		.uleb128 0x1
 10561 3aa0 51       		.byte	0x51
 10562 3aa1 02       		.uleb128 0x2
 10563 3aa2 09       		.byte	0x9
 10564 3aa3 FF       		.byte	0xff
 10565 3aa4 2C       		.uleb128 0x2c
 10566 3aa5 01       		.uleb128 0x1
 10567 3aa6 50       		.byte	0x50
 10568 3aa7 01       		.uleb128 0x1
 10569 3aa8 33       		.byte	0x33
 10570 3aa9 2C       		.uleb128 0x2c
 10571 3aaa 02       		.uleb128 0x2
ARM GAS  C:\Users\AHMEDH~1\AppData\Local\Temp\cclxJjJK.s 			page 219


 10572 3aab 7D       		.byte	0x7d
 10573 3aac 00       		.sleb128 0
 10574 3aad 01       		.uleb128 0x1
 10575 3aae 38       		.byte	0x38
 10576 3aaf 00       		.byte	0
 10577 3ab0 2B       		.uleb128 0x2b
 10578 3ab1 0E010000 		.4byte	.LVL182
 10579 3ab5 FD4B0000 		.4byte	0x4bfd
 10580 3ab9 C93A0000 		.4byte	0x3ac9
 10581 3abd 2C       		.uleb128 0x2c
 10582 3abe 01       		.uleb128 0x1
 10583 3abf 50       		.byte	0x50
 10584 3ac0 07       		.uleb128 0x7
 10585 3ac1 7B       		.byte	0x7b
 10586 3ac2 00       		.sleb128 0
 10587 3ac3 78       		.byte	0x78
 10588 3ac4 00       		.sleb128 0
 10589 3ac5 22       		.byte	0x22
 10590 3ac6 33       		.byte	0x33
 10591 3ac7 1C       		.byte	0x1c
 10592 3ac8 00       		.byte	0
 10593 3ac9 2B       		.uleb128 0x2b
 10594 3aca 1E010000 		.4byte	.LVL183
 10595 3ace 124C0000 		.4byte	0x4c12
 10596 3ad2 E93A0000 		.4byte	0x3ae9
 10597 3ad6 2C       		.uleb128 0x2c
 10598 3ad7 01       		.uleb128 0x1
 10599 3ad8 52       		.byte	0x52
 10600 3ad9 02       		.uleb128 0x2
 10601 3ada 77       		.byte	0x77
 10602 3adb 00       		.sleb128 0
 10603 3adc 2C       		.uleb128 0x2c
 10604 3add 01       		.uleb128 0x1
 10605 3ade 51       		.byte	0x51
 10606 3adf 02       		.uleb128 0x2
 10607 3ae0 7A       		.byte	0x7a
 10608 3ae1 00       		.sleb128 0
 10609 3ae2 2C       		.uleb128 0x2c
 10610 3ae3 01       		.uleb128 0x1
 10611 3ae4 50       		.byte	0x50
 10612 3ae5 02       		.uleb128 0x2
 10613 3ae6 76       		.byte	0x76
 10614 3ae7 19       		.sleb128 25
 10615 3ae8 00       		.byte	0
 10616 3ae9 2B       		.uleb128 0x2b
 10617 3aea 2C010000 		.4byte	.LVL184
 10618 3aee FD4B0000 		.4byte	0x4bfd
 10619 3af2 FD3A0000 		.4byte	0x3afd
 10620 3af6 2C       		.uleb128 0x2c
 10621 3af7 01       		.uleb128 0x1
 10622 3af8 50       		.byte	0x50
 10623 3af9 02       		.uleb128 0x2
 10624 3afa 74       		.byte	0x74
 10625 3afb 23       		.sleb128 35
 10626 3afc 00       		.byte	0
 10627 3afd 2B       		.uleb128 0x2b
 10628 3afe 3A010000 		.4byte	.LVL185
ARM GAS  C:\Users\AHMEDH~1\AppData\Local\Temp\cclxJjJK.s 			page 220


 10629 3b02 F84C0000 		.4byte	0x4cf8
 10630 3b06 1C3B0000 		.4byte	0x3b1c
 10631 3b0a 2C       		.uleb128 0x2c
 10632 3b0b 01       		.uleb128 0x1
 10633 3b0c 52       		.byte	0x52
 10634 3b0d 01       		.uleb128 0x1
 10635 3b0e 34       		.byte	0x34
 10636 3b0f 2C       		.uleb128 0x2c
 10637 3b10 01       		.uleb128 0x1
 10638 3b11 51       		.byte	0x51
 10639 3b12 02       		.uleb128 0x2
 10640 3b13 74       		.byte	0x74
 10641 3b14 00       		.sleb128 0
 10642 3b15 2C       		.uleb128 0x2c
 10643 3b16 01       		.uleb128 0x1
 10644 3b17 50       		.byte	0x50
 10645 3b18 02       		.uleb128 0x2
 10646 3b19 91       		.byte	0x91
 10647 3b1a 48       		.sleb128 -56
 10648 3b1b 00       		.byte	0
 10649 3b1c 2B       		.uleb128 0x2b
 10650 3b1d 5C010000 		.4byte	.LVL186
 10651 3b21 FD4B0000 		.4byte	0x4bfd
 10652 3b25 303B0000 		.4byte	0x3b30
 10653 3b29 2C       		.uleb128 0x2c
 10654 3b2a 01       		.uleb128 0x1
 10655 3b2b 50       		.byte	0x50
 10656 3b2c 02       		.uleb128 0x2
 10657 3b2d 74       		.byte	0x74
 10658 3b2e 23       		.sleb128 35
 10659 3b2f 00       		.byte	0
 10660 3b30 2B       		.uleb128 0x2b
 10661 3b31 6A010000 		.4byte	.LVL187
 10662 3b35 FD4B0000 		.4byte	0x4bfd
 10663 3b39 443B0000 		.4byte	0x3b44
 10664 3b3d 2C       		.uleb128 0x2c
 10665 3b3e 01       		.uleb128 0x1
 10666 3b3f 50       		.byte	0x50
 10667 3b40 02       		.uleb128 0x2
 10668 3b41 74       		.byte	0x74
 10669 3b42 23       		.sleb128 35
 10670 3b43 00       		.byte	0
 10671 3b44 2B       		.uleb128 0x2b
 10672 3b45 7A010000 		.4byte	.LVL188
 10673 3b49 912F0000 		.4byte	0x2f91
 10674 3b4d 643B0000 		.4byte	0x3b64
 10675 3b51 2C       		.uleb128 0x2c
 10676 3b52 01       		.uleb128 0x1
 10677 3b53 53       		.byte	0x53
 10678 3b54 02       		.uleb128 0x2
 10679 3b55 74       		.byte	0x74
 10680 3b56 25       		.sleb128 37
 10681 3b57 2C       		.uleb128 0x2c
 10682 3b58 01       		.uleb128 0x1
 10683 3b59 52       		.byte	0x52
 10684 3b5a 02       		.uleb128 0x2
 10685 3b5b 77       		.byte	0x77
ARM GAS  C:\Users\AHMEDH~1\AppData\Local\Temp\cclxJjJK.s 			page 221


 10686 3b5c 00       		.sleb128 0
 10687 3b5d 2C       		.uleb128 0x2c
 10688 3b5e 01       		.uleb128 0x1
 10689 3b5f 51       		.byte	0x51
 10690 3b60 02       		.uleb128 0x2
 10691 3b61 09       		.byte	0x9
 10692 3b62 FF       		.byte	0xff
 10693 3b63 00       		.byte	0
 10694 3b64 2B       		.uleb128 0x2b
 10695 3b65 9A010000 		.4byte	.LVL191
 10696 3b69 FD4B0000 		.4byte	0x4bfd
 10697 3b6d 783B0000 		.4byte	0x3b78
 10698 3b71 2C       		.uleb128 0x2c
 10699 3b72 01       		.uleb128 0x1
 10700 3b73 50       		.byte	0x50
 10701 3b74 02       		.uleb128 0x2
 10702 3b75 74       		.byte	0x74
 10703 3b76 23       		.sleb128 35
 10704 3b77 00       		.byte	0
 10705 3b78 2D       		.uleb128 0x2d
 10706 3b79 A8010000 		.4byte	.LVL192
 10707 3b7d FD4B0000 		.4byte	0x4bfd
 10708 3b81 2C       		.uleb128 0x2c
 10709 3b82 01       		.uleb128 0x1
 10710 3b83 50       		.byte	0x50
 10711 3b84 02       		.uleb128 0x2
 10712 3b85 74       		.byte	0x74
 10713 3b86 23       		.sleb128 35
 10714 3b87 00       		.byte	0
 10715 3b88 00       		.byte	0
 10716 3b89 00       		.byte	0
 10717 3b8a 3D       		.uleb128 0x3d
 10718 3b8b 5D2C0000 		.4byte	0x2c5d
 10719 3b8f 7C010000 		.4byte	.LBB39
 10720 3b93 20000000 		.4byte	.Ldebug_ranges0+0x20
 10721 3b97 01       		.byte	0x1
 10722 3b98 B404     		.2byte	0x4b4
 10723 3b9a 16440000 		.4byte	0x4416
 10724 3b9e 33       		.uleb128 0x33
 10725 3b9f 7A2C0000 		.4byte	0x2c7a
 10726 3ba3 F9070000 		.4byte	.LLST42
 10727 3ba7 33       		.uleb128 0x33
 10728 3ba8 862C0000 		.4byte	0x2c86
 10729 3bac 31080000 		.4byte	.LLST43
 10730 3bb0 33       		.uleb128 0x33
 10731 3bb1 6E2C0000 		.4byte	0x2c6e
 10732 3bb5 70080000 		.4byte	.LLST44
 10733 3bb9 3E       		.uleb128 0x3e
 10734 3bba 20000000 		.4byte	.Ldebug_ranges0+0x20
 10735 3bbe 35       		.uleb128 0x35
 10736 3bbf 922C0000 		.4byte	0x2c92
 10737 3bc3 03       		.uleb128 0x3
 10738 3bc4 91       		.byte	0x91
 10739 3bc5 B87F     		.sleb128 -72
 10740 3bc7 38       		.uleb128 0x38
 10741 3bc8 9E2C0000 		.4byte	0x2c9e
 10742 3bcc 99080000 		.4byte	.LLST45
ARM GAS  C:\Users\AHMEDH~1\AppData\Local\Temp\cclxJjJK.s 			page 222


 10743 3bd0 38       		.uleb128 0x38
 10744 3bd1 AA2C0000 		.4byte	0x2caa
 10745 3bd5 B9080000 		.4byte	.LLST46
 10746 3bd9 38       		.uleb128 0x38
 10747 3bda B52C0000 		.4byte	0x2cb5
 10748 3bde CC080000 		.4byte	.LLST47
 10749 3be2 38       		.uleb128 0x38
 10750 3be3 C12C0000 		.4byte	0x2cc1
 10751 3be7 F5080000 		.4byte	.LLST48
 10752 3beb 32       		.uleb128 0x32
 10753 3bec 3B280000 		.4byte	0x283b
 10754 3bf0 02020000 		.4byte	.LBB41
 10755 3bf4 32000000 		.4byte	.LBE41-.LBB41
 10756 3bf8 01       		.byte	0x1
 10757 3bf9 D003     		.2byte	0x3d0
 10758 3bfb 863C0000 		.4byte	0x3c86
 10759 3bff 33       		.uleb128 0x33
 10760 3c00 58280000 		.4byte	0x2858
 10761 3c04 71090000 		.4byte	.LLST49
 10762 3c08 3F       		.uleb128 0x3f
 10763 3c09 64280000 		.4byte	0x2864
 10764 3c0d 33       		.uleb128 0x33
 10765 3c0e 4C280000 		.4byte	0x284c
 10766 3c12 89090000 		.4byte	.LLST50
 10767 3c16 34       		.uleb128 0x34
 10768 3c17 02020000 		.4byte	.LBB42
 10769 3c1b 32000000 		.4byte	.LBE42-.LBB42
 10770 3c1f 38       		.uleb128 0x38
 10771 3c20 70280000 		.4byte	0x2870
 10772 3c24 9C090000 		.4byte	.LLST51
 10773 3c28 38       		.uleb128 0x38
 10774 3c29 7A280000 		.4byte	0x287a
 10775 3c2d BA090000 		.4byte	.LLST52
 10776 3c31 38       		.uleb128 0x38
 10777 3c32 86280000 		.4byte	0x2886
 10778 3c36 0A0A0000 		.4byte	.LLST53
 10779 3c3a 2B       		.uleb128 0x2b
 10780 3c3b 12020000 		.4byte	.LVL196
 10781 3c3f FD4B0000 		.4byte	0x4bfd
 10782 3c43 4E3C0000 		.4byte	0x3c4e
 10783 3c47 2C       		.uleb128 0x2c
 10784 3c48 01       		.uleb128 0x1
 10785 3c49 50       		.byte	0x50
 10786 3c4a 02       		.uleb128 0x2
 10787 3c4b 77       		.byte	0x77
 10788 3c4c 23       		.sleb128 35
 10789 3c4d 00       		.byte	0
 10790 3c4e 2B       		.uleb128 0x2b
 10791 3c4f 24020000 		.4byte	.LVL198
 10792 3c53 E14A0000 		.4byte	0x4ae1
 10793 3c57 6E3C0000 		.4byte	0x3c6e
 10794 3c5b 2C       		.uleb128 0x2c
 10795 3c5c 01       		.uleb128 0x1
 10796 3c5d 52       		.byte	0x52
 10797 3c5e 02       		.uleb128 0x2
 10798 3c5f 74       		.byte	0x74
 10799 3c60 00       		.sleb128 0
ARM GAS  C:\Users\AHMEDH~1\AppData\Local\Temp\cclxJjJK.s 			page 223


 10800 3c61 2C       		.uleb128 0x2c
 10801 3c62 01       		.uleb128 0x1
 10802 3c63 51       		.byte	0x51
 10803 3c64 02       		.uleb128 0x2
 10804 3c65 77       		.byte	0x77
 10805 3c66 25       		.sleb128 37
 10806 3c67 2C       		.uleb128 0x2c
 10807 3c68 01       		.uleb128 0x1
 10808 3c69 50       		.byte	0x50
 10809 3c6a 02       		.uleb128 0x2
 10810 3c6b 75       		.byte	0x75
 10811 3c6c 0F       		.sleb128 15
 10812 3c6d 00       		.byte	0
 10813 3c6e 2D       		.uleb128 0x2d
 10814 3c6f 30020000 		.4byte	.LVL201
 10815 3c73 D14B0000 		.4byte	0x4bd1
 10816 3c77 2C       		.uleb128 0x2c
 10817 3c78 01       		.uleb128 0x1
 10818 3c79 51       		.byte	0x51
 10819 3c7a 02       		.uleb128 0x2
 10820 3c7b 74       		.byte	0x74
 10821 3c7c 02       		.sleb128 2
 10822 3c7d 2C       		.uleb128 0x2c
 10823 3c7e 01       		.uleb128 0x1
 10824 3c7f 50       		.byte	0x50
 10825 3c80 02       		.uleb128 0x2
 10826 3c81 75       		.byte	0x75
 10827 3c82 0B       		.sleb128 11
 10828 3c83 00       		.byte	0
 10829 3c84 00       		.byte	0
 10830 3c85 00       		.byte	0
 10831 3c86 32       		.uleb128 0x32
 10832 3c87 93280000 		.4byte	0x2893
 10833 3c8b 34020000 		.4byte	.LBB43
 10834 3c8f 24000000 		.4byte	.LBE43-.LBB43
 10835 3c93 01       		.byte	0x1
 10836 3c94 D303     		.2byte	0x3d3
 10837 3c96 E63C0000 		.4byte	0x3ce6
 10838 3c9a 3F       		.uleb128 0x3f
 10839 3c9b B0280000 		.4byte	0x28b0
 10840 3c9f 3F       		.uleb128 0x3f
 10841 3ca0 BC280000 		.4byte	0x28bc
 10842 3ca4 33       		.uleb128 0x33
 10843 3ca5 A4280000 		.4byte	0x28a4
 10844 3ca9 1F0A0000 		.4byte	.LLST54
 10845 3cad 34       		.uleb128 0x34
 10846 3cae 34020000 		.4byte	.LBB44
 10847 3cb2 24000000 		.4byte	.LBE44-.LBB44
 10848 3cb6 38       		.uleb128 0x38
 10849 3cb7 C8280000 		.4byte	0x28c8
 10850 3cbb 320A0000 		.4byte	.LLST55
 10851 3cbf 38       		.uleb128 0x38
 10852 3cc0 D4280000 		.4byte	0x28d4
 10853 3cc4 460A0000 		.4byte	.LLST56
 10854 3cc8 2D       		.uleb128 0x2d
 10855 3cc9 42020000 		.4byte	.LVL204
 10856 3ccd 572E0000 		.4byte	0x2e57
ARM GAS  C:\Users\AHMEDH~1\AppData\Local\Temp\cclxJjJK.s 			page 224


 10857 3cd1 2C       		.uleb128 0x2c
 10858 3cd2 01       		.uleb128 0x1
 10859 3cd3 52       		.byte	0x52
 10860 3cd4 02       		.uleb128 0x2
 10861 3cd5 74       		.byte	0x74
 10862 3cd6 00       		.sleb128 0
 10863 3cd7 2C       		.uleb128 0x2c
 10864 3cd8 01       		.uleb128 0x1
 10865 3cd9 51       		.byte	0x51
 10866 3cda 02       		.uleb128 0x2
 10867 3cdb 09       		.byte	0x9
 10868 3cdc FF       		.byte	0xff
 10869 3cdd 2C       		.uleb128 0x2c
 10870 3cde 01       		.uleb128 0x1
 10871 3cdf 50       		.byte	0x50
 10872 3ce0 02       		.uleb128 0x2
 10873 3ce1 74       		.byte	0x74
 10874 3ce2 00       		.sleb128 0
 10875 3ce3 00       		.byte	0
 10876 3ce4 00       		.byte	0
 10877 3ce5 00       		.byte	0
 10878 3ce6 32       		.uleb128 0x32
 10879 3ce7 152A0000 		.4byte	0x2a15
 10880 3ceb 58020000 		.4byte	.LBB45
 10881 3cef E0000000 		.4byte	.LBE45-.LBB45
 10882 3cf3 01       		.byte	0x1
 10883 3cf4 D603     		.2byte	0x3d6
 10884 3cf6 E13E0000 		.4byte	0x3ee1
 10885 3cfa 33       		.uleb128 0x33
 10886 3cfb 322A0000 		.4byte	0x2a32
 10887 3cff 5B0A0000 		.4byte	.LLST57
 10888 3d03 3F       		.uleb128 0x3f
 10889 3d04 3E2A0000 		.4byte	0x2a3e
 10890 3d08 33       		.uleb128 0x33
 10891 3d09 262A0000 		.4byte	0x2a26
 10892 3d0d 730A0000 		.4byte	.LLST58
 10893 3d11 34       		.uleb128 0x34
 10894 3d12 58020000 		.4byte	.LBB46
 10895 3d16 E0000000 		.4byte	.LBE46-.LBB46
 10896 3d1a 38       		.uleb128 0x38
 10897 3d1b 4A2A0000 		.4byte	0x2a4a
 10898 3d1f 860A0000 		.4byte	.LLST59
 10899 3d23 38       		.uleb128 0x38
 10900 3d24 542A0000 		.4byte	0x2a54
 10901 3d28 9F0A0000 		.4byte	.LLST60
 10902 3d2c 38       		.uleb128 0x38
 10903 3d2d 602A0000 		.4byte	0x2a60
 10904 3d31 E30A0000 		.4byte	.LLST61
 10905 3d35 38       		.uleb128 0x38
 10906 3d36 6C2A0000 		.4byte	0x2a6c
 10907 3d3a F80A0000 		.4byte	.LLST62
 10908 3d3e 38       		.uleb128 0x38
 10909 3d3f 782A0000 		.4byte	0x2a78
 10910 3d43 0B0B0000 		.4byte	.LLST63
 10911 3d47 38       		.uleb128 0x38
 10912 3d48 842A0000 		.4byte	0x2a84
 10913 3d4c 1E0B0000 		.4byte	.LLST64
ARM GAS  C:\Users\AHMEDH~1\AppData\Local\Temp\cclxJjJK.s 			page 225


 10914 3d50 35       		.uleb128 0x35
 10915 3d51 902A0000 		.4byte	0x2a90
 10916 3d55 02       		.uleb128 0x2
 10917 3d56 91       		.byte	0x91
 10918 3d57 40       		.sleb128 -64
 10919 3d58 35       		.uleb128 0x35
 10920 3d59 9C2A0000 		.4byte	0x2a9c
 10921 3d5d 02       		.uleb128 0x2
 10922 3d5e 91       		.byte	0x91
 10923 3d5f 48       		.sleb128 -56
 10924 3d60 2B       		.uleb128 0x2b
 10925 3d61 60020000 		.4byte	.LVL206
 10926 3d65 FD4B0000 		.4byte	0x4bfd
 10927 3d69 743D0000 		.4byte	0x3d74
 10928 3d6d 2C       		.uleb128 0x2c
 10929 3d6e 01       		.uleb128 0x1
 10930 3d6f 50       		.byte	0x50
 10931 3d70 02       		.uleb128 0x2
 10932 3d71 77       		.byte	0x77
 10933 3d72 23       		.sleb128 35
 10934 3d73 00       		.byte	0
 10935 3d74 2B       		.uleb128 0x2b
 10936 3d75 78020000 		.4byte	.LVL210
 10937 3d79 174D0000 		.4byte	0x4d17
 10938 3d7d 8D3D0000 		.4byte	0x3d8d
 10939 3d81 2C       		.uleb128 0x2c
 10940 3d82 01       		.uleb128 0x1
 10941 3d83 51       		.byte	0x51
 10942 3d84 01       		.uleb128 0x1
 10943 3d85 38       		.byte	0x38
 10944 3d86 2C       		.uleb128 0x2c
 10945 3d87 01       		.uleb128 0x1
 10946 3d88 50       		.byte	0x50
 10947 3d89 02       		.uleb128 0x2
 10948 3d8a 76       		.byte	0x76
 10949 3d8b 00       		.sleb128 0
 10950 3d8c 00       		.byte	0
 10951 3d8d 2B       		.uleb128 0x2b
 10952 3d8e 88020000 		.4byte	.LVL211
 10953 3d92 E14A0000 		.4byte	0x4ae1
 10954 3d96 AC3D0000 		.4byte	0x3dac
 10955 3d9a 2C       		.uleb128 0x2c
 10956 3d9b 01       		.uleb128 0x1
 10957 3d9c 52       		.byte	0x52
 10958 3d9d 01       		.uleb128 0x1
 10959 3d9e 34       		.byte	0x34
 10960 3d9f 2C       		.uleb128 0x2c
 10961 3da0 01       		.uleb128 0x1
 10962 3da1 51       		.byte	0x51
 10963 3da2 02       		.uleb128 0x2
 10964 3da3 77       		.byte	0x77
 10965 3da4 27       		.sleb128 39
 10966 3da5 2C       		.uleb128 0x2c
 10967 3da6 01       		.uleb128 0x1
 10968 3da7 50       		.byte	0x50
 10969 3da8 02       		.uleb128 0x2
 10970 3da9 91       		.byte	0x91
ARM GAS  C:\Users\AHMEDH~1\AppData\Local\Temp\cclxJjJK.s 			page 226


 10971 3daa 4C       		.sleb128 -52
 10972 3dab 00       		.byte	0
 10973 3dac 2B       		.uleb128 0x2b
 10974 3dad 9C020000 		.4byte	.LVL212
 10975 3db1 E14A0000 		.4byte	0x4ae1
 10976 3db5 CB3D0000 		.4byte	0x3dcb
 10977 3db9 2C       		.uleb128 0x2c
 10978 3dba 01       		.uleb128 0x1
 10979 3dbb 52       		.byte	0x52
 10980 3dbc 01       		.uleb128 0x1
 10981 3dbd 34       		.byte	0x34
 10982 3dbe 2C       		.uleb128 0x2c
 10983 3dbf 01       		.uleb128 0x1
 10984 3dc0 51       		.byte	0x51
 10985 3dc1 02       		.uleb128 0x2
 10986 3dc2 77       		.byte	0x77
 10987 3dc3 2B       		.sleb128 43
 10988 3dc4 2C       		.uleb128 0x2c
 10989 3dc5 01       		.uleb128 0x1
 10990 3dc6 50       		.byte	0x50
 10991 3dc7 02       		.uleb128 0x2
 10992 3dc8 91       		.byte	0x91
 10993 3dc9 54       		.sleb128 -44
 10994 3dca 00       		.byte	0
 10995 3dcb 2B       		.uleb128 0x2b
 10996 3dcc AC020000 		.4byte	.LVL213
 10997 3dd0 912F0000 		.4byte	0x2f91
 10998 3dd4 F73D0000 		.4byte	0x3df7
 10999 3dd8 2C       		.uleb128 0x2c
 11000 3dd9 01       		.uleb128 0x1
 11001 3dda 53       		.byte	0x53
 11002 3ddb 02       		.uleb128 0x2
 11003 3ddc 91       		.byte	0x91
 11004 3ddd 48       		.sleb128 -56
 11005 3dde 2C       		.uleb128 0x2c
 11006 3ddf 01       		.uleb128 0x1
 11007 3de0 52       		.byte	0x52
 11008 3de1 02       		.uleb128 0x2
 11009 3de2 78       		.byte	0x78
 11010 3de3 00       		.sleb128 0
 11011 3de4 2C       		.uleb128 0x2c
 11012 3de5 01       		.uleb128 0x1
 11013 3de6 51       		.byte	0x51
 11014 3de7 02       		.uleb128 0x2
 11015 3de8 7A       		.byte	0x7a
 11016 3de9 00       		.sleb128 0
 11017 3dea 2C       		.uleb128 0x2c
 11018 3deb 01       		.uleb128 0x1
 11019 3dec 50       		.byte	0x50
 11020 3ded 01       		.uleb128 0x1
 11021 3dee 33       		.byte	0x33
 11022 3def 2C       		.uleb128 0x2c
 11023 3df0 02       		.uleb128 0x2
 11024 3df1 7D       		.byte	0x7d
 11025 3df2 00       		.sleb128 0
 11026 3df3 02       		.uleb128 0x2
 11027 3df4 79       		.byte	0x79
ARM GAS  C:\Users\AHMEDH~1\AppData\Local\Temp\cclxJjJK.s 			page 227


 11028 3df5 00       		.sleb128 0
 11029 3df6 00       		.byte	0
 11030 3df7 2B       		.uleb128 0x2b
 11031 3df8 C0020000 		.4byte	.LVL214
 11032 3dfc 572E0000 		.4byte	0x2e57
 11033 3e00 173E0000 		.4byte	0x3e17
 11034 3e04 2C       		.uleb128 0x2c
 11035 3e05 01       		.uleb128 0x1
 11036 3e06 52       		.byte	0x52
 11037 3e07 02       		.uleb128 0x2
 11038 3e08 78       		.byte	0x78
 11039 3e09 00       		.sleb128 0
 11040 3e0a 2C       		.uleb128 0x2c
 11041 3e0b 01       		.uleb128 0x1
 11042 3e0c 51       		.byte	0x51
 11043 3e0d 02       		.uleb128 0x2
 11044 3e0e 7B       		.byte	0x7b
 11045 3e0f 00       		.sleb128 0
 11046 3e10 2C       		.uleb128 0x2c
 11047 3e11 01       		.uleb128 0x1
 11048 3e12 50       		.byte	0x50
 11049 3e13 02       		.uleb128 0x2
 11050 3e14 91       		.byte	0x91
 11051 3e15 48       		.sleb128 -56
 11052 3e16 00       		.byte	0
 11053 3e17 2B       		.uleb128 0x2b
 11054 3e18 D2020000 		.4byte	.LVL215
 11055 3e1c E14A0000 		.4byte	0x4ae1
 11056 3e20 363E0000 		.4byte	0x3e36
 11057 3e24 2C       		.uleb128 0x2c
 11058 3e25 01       		.uleb128 0x1
 11059 3e26 52       		.byte	0x52
 11060 3e27 01       		.uleb128 0x1
 11061 3e28 38       		.byte	0x38
 11062 3e29 2C       		.uleb128 0x2c
 11063 3e2a 01       		.uleb128 0x1
 11064 3e2b 51       		.byte	0x51
 11065 3e2c 02       		.uleb128 0x2
 11066 3e2d 77       		.byte	0x77
 11067 3e2e 27       		.sleb128 39
 11068 3e2f 2C       		.uleb128 0x2c
 11069 3e30 01       		.uleb128 0x1
 11070 3e31 50       		.byte	0x50
 11071 3e32 02       		.uleb128 0x2
 11072 3e33 91       		.byte	0x91
 11073 3e34 48       		.sleb128 -56
 11074 3e35 00       		.byte	0
 11075 3e36 2B       		.uleb128 0x2b
 11076 3e37 EC020000 		.4byte	.LVL216
 11077 3e3b 912F0000 		.4byte	0x2f91
 11078 3e3f 623E0000 		.4byte	0x3e62
 11079 3e43 2C       		.uleb128 0x2c
 11080 3e44 01       		.uleb128 0x1
 11081 3e45 53       		.byte	0x53
 11082 3e46 02       		.uleb128 0x2
 11083 3e47 91       		.byte	0x91
 11084 3e48 48       		.sleb128 -56
ARM GAS  C:\Users\AHMEDH~1\AppData\Local\Temp\cclxJjJK.s 			page 228


 11085 3e49 2C       		.uleb128 0x2c
 11086 3e4a 01       		.uleb128 0x1
 11087 3e4b 52       		.byte	0x52
 11088 3e4c 02       		.uleb128 0x2
 11089 3e4d 78       		.byte	0x78
 11090 3e4e 00       		.sleb128 0
 11091 3e4f 2C       		.uleb128 0x2c
 11092 3e50 01       		.uleb128 0x1
 11093 3e51 51       		.byte	0x51
 11094 3e52 02       		.uleb128 0x2
 11095 3e53 7B       		.byte	0x7b
 11096 3e54 00       		.sleb128 0
 11097 3e55 2C       		.uleb128 0x2c
 11098 3e56 01       		.uleb128 0x1
 11099 3e57 50       		.byte	0x50
 11100 3e58 01       		.uleb128 0x1
 11101 3e59 33       		.byte	0x33
 11102 3e5a 2C       		.uleb128 0x2c
 11103 3e5b 02       		.uleb128 0x2
 11104 3e5c 7D       		.byte	0x7d
 11105 3e5d 00       		.sleb128 0
 11106 3e5e 02       		.uleb128 0x2
 11107 3e5f 79       		.byte	0x79
 11108 3e60 00       		.sleb128 0
 11109 3e61 00       		.byte	0
 11110 3e62 2B       		.uleb128 0x2b
 11111 3e63 00030000 		.4byte	.LVL217
 11112 3e67 E14A0000 		.4byte	0x4ae1
 11113 3e6b 843E0000 		.4byte	0x3e84
 11114 3e6f 2C       		.uleb128 0x2c
 11115 3e70 01       		.uleb128 0x1
 11116 3e71 52       		.byte	0x52
 11117 3e72 01       		.uleb128 0x1
 11118 3e73 38       		.byte	0x38
 11119 3e74 2C       		.uleb128 0x2c
 11120 3e75 01       		.uleb128 0x1
 11121 3e76 51       		.byte	0x51
 11122 3e77 02       		.uleb128 0x2
 11123 3e78 76       		.byte	0x76
 11124 3e79 00       		.sleb128 0
 11125 3e7a 2C       		.uleb128 0x2c
 11126 3e7b 01       		.uleb128 0x1
 11127 3e7c 50       		.byte	0x50
 11128 3e7d 05       		.uleb128 0x5
 11129 3e7e 03       		.byte	0x3
 11130 3e7f 880C0000 		.4byte	.LANCHOR1+3208
 11131 3e83 00       		.byte	0
 11132 3e84 2B       		.uleb128 0x2b
 11133 3e85 0E030000 		.4byte	.LVL218
 11134 3e89 E14A0000 		.4byte	0x4ae1
 11135 3e8d A43E0000 		.4byte	0x3ea4
 11136 3e91 2C       		.uleb128 0x2c
 11137 3e92 01       		.uleb128 0x1
 11138 3e93 52       		.byte	0x52
 11139 3e94 01       		.uleb128 0x1
 11140 3e95 38       		.byte	0x38
 11141 3e96 2C       		.uleb128 0x2c
ARM GAS  C:\Users\AHMEDH~1\AppData\Local\Temp\cclxJjJK.s 			page 229


 11142 3e97 01       		.uleb128 0x1
 11143 3e98 51       		.byte	0x51
 11144 3e99 02       		.uleb128 0x2
 11145 3e9a 77       		.byte	0x77
 11146 3e9b 27       		.sleb128 39
 11147 3e9c 2C       		.uleb128 0x2c
 11148 3e9d 01       		.uleb128 0x1
 11149 3e9e 50       		.byte	0x50
 11150 3e9f 03       		.uleb128 0x3
 11151 3ea0 77       		.byte	0x77
 11152 3ea1 9019     		.sleb128 3216
 11153 3ea3 00       		.byte	0
 11154 3ea4 2B       		.uleb128 0x2b
 11155 3ea5 24030000 		.4byte	.LVL221
 11156 3ea9 E14A0000 		.4byte	0x4ae1
 11157 3ead C33E0000 		.4byte	0x3ec3
 11158 3eb1 2C       		.uleb128 0x2c
 11159 3eb2 01       		.uleb128 0x1
 11160 3eb3 52       		.byte	0x52
 11161 3eb4 01       		.uleb128 0x1
 11162 3eb5 38       		.byte	0x38
 11163 3eb6 2C       		.uleb128 0x2c
 11164 3eb7 01       		.uleb128 0x1
 11165 3eb8 51       		.byte	0x51
 11166 3eb9 02       		.uleb128 0x2
 11167 3eba 76       		.byte	0x76
 11168 3ebb 00       		.sleb128 0
 11169 3ebc 2C       		.uleb128 0x2c
 11170 3ebd 01       		.uleb128 0x1
 11171 3ebe 50       		.byte	0x50
 11172 3ebf 02       		.uleb128 0x2
 11173 3ec0 75       		.byte	0x75
 11174 3ec1 10       		.sleb128 16
 11175 3ec2 00       		.byte	0
 11176 3ec3 2D       		.uleb128 0x2d
 11177 3ec4 30030000 		.4byte	.LVL222
 11178 3ec8 E14A0000 		.4byte	0x4ae1
 11179 3ecc 2C       		.uleb128 0x2c
 11180 3ecd 01       		.uleb128 0x1
 11181 3ece 52       		.byte	0x52
 11182 3ecf 02       		.uleb128 0x2
 11183 3ed0 79       		.byte	0x79
 11184 3ed1 00       		.sleb128 0
 11185 3ed2 2C       		.uleb128 0x2c
 11186 3ed3 01       		.uleb128 0x1
 11187 3ed4 51       		.byte	0x51
 11188 3ed5 02       		.uleb128 0x2
 11189 3ed6 91       		.byte	0x91
 11190 3ed7 48       		.sleb128 -56
 11191 3ed8 2C       		.uleb128 0x2c
 11192 3ed9 01       		.uleb128 0x1
 11193 3eda 50       		.byte	0x50
 11194 3edb 02       		.uleb128 0x2
 11195 3edc 75       		.byte	0x75
 11196 3edd 18       		.sleb128 24
 11197 3ede 00       		.byte	0
 11198 3edf 00       		.byte	0
ARM GAS  C:\Users\AHMEDH~1\AppData\Local\Temp\cclxJjJK.s 			page 230


 11199 3ee0 00       		.byte	0
 11200 3ee1 32       		.uleb128 0x32
 11201 3ee2 E1280000 		.4byte	0x28e1
 11202 3ee6 38030000 		.4byte	.LBB47
 11203 3eea 96000000 		.4byte	.LBE47-.LBB47
 11204 3eee 01       		.byte	0x1
 11205 3eef D903     		.2byte	0x3d9
 11206 3ef1 86400000 		.4byte	0x4086
 11207 3ef5 33       		.uleb128 0x33
 11208 3ef6 FE280000 		.4byte	0x28fe
 11209 3efa 360B0000 		.4byte	.LLST65
 11210 3efe 3F       		.uleb128 0x3f
 11211 3eff 0A290000 		.4byte	0x290a
 11212 3f03 33       		.uleb128 0x33
 11213 3f04 F2280000 		.4byte	0x28f2
 11214 3f08 4E0B0000 		.4byte	.LLST66
 11215 3f0c 34       		.uleb128 0x34
 11216 3f0d 38030000 		.4byte	.LBB48
 11217 3f11 96000000 		.4byte	.LBE48-.LBB48
 11218 3f15 38       		.uleb128 0x38
 11219 3f16 16290000 		.4byte	0x2916
 11220 3f1a 610B0000 		.4byte	.LLST67
 11221 3f1e 38       		.uleb128 0x38
 11222 3f1f 20290000 		.4byte	0x2920
 11223 3f23 7A0B0000 		.4byte	.LLST68
 11224 3f27 38       		.uleb128 0x38
 11225 3f28 2C290000 		.4byte	0x292c
 11226 3f2c 8E0B0000 		.4byte	.LLST69
 11227 3f30 38       		.uleb128 0x38
 11228 3f31 38290000 		.4byte	0x2938
 11229 3f35 A30B0000 		.4byte	.LLST70
 11230 3f39 38       		.uleb128 0x38
 11231 3f3a 44290000 		.4byte	0x2944
 11232 3f3e B60B0000 		.4byte	.LLST71
 11233 3f42 38       		.uleb128 0x38
 11234 3f43 50290000 		.4byte	0x2950
 11235 3f47 C90B0000 		.4byte	.LLST72
 11236 3f4b 38       		.uleb128 0x38
 11237 3f4c 5C290000 		.4byte	0x295c
 11238 3f50 DC0B0000 		.4byte	.LLST73
 11239 3f54 35       		.uleb128 0x35
 11240 3f55 68290000 		.4byte	0x2968
 11241 3f59 02       		.uleb128 0x2
 11242 3f5a 91       		.byte	0x91
 11243 3f5b 48       		.sleb128 -56
 11244 3f5c 2B       		.uleb128 0x2b
 11245 3f5d 40030000 		.4byte	.LVL224
 11246 3f61 FD4B0000 		.4byte	0x4bfd
 11247 3f65 703F0000 		.4byte	0x3f70
 11248 3f69 2C       		.uleb128 0x2c
 11249 3f6a 01       		.uleb128 0x1
 11250 3f6b 50       		.byte	0x50
 11251 3f6c 02       		.uleb128 0x2
 11252 3f6d 77       		.byte	0x77
 11253 3f6e 23       		.sleb128 35
 11254 3f6f 00       		.byte	0
 11255 3f70 2B       		.uleb128 0x2b
ARM GAS  C:\Users\AHMEDH~1\AppData\Local\Temp\cclxJjJK.s 			page 231


 11256 3f71 5A030000 		.4byte	.LVL229
 11257 3f75 E14A0000 		.4byte	0x4ae1
 11258 3f79 923F0000 		.4byte	0x3f92
 11259 3f7d 2C       		.uleb128 0x2c
 11260 3f7e 01       		.uleb128 0x1
 11261 3f7f 52       		.byte	0x52
 11262 3f80 01       		.uleb128 0x1
 11263 3f81 34       		.byte	0x34
 11264 3f82 2C       		.uleb128 0x2c
 11265 3f83 01       		.uleb128 0x1
 11266 3f84 51       		.byte	0x51
 11267 3f85 05       		.uleb128 0x5
 11268 3f86 03       		.byte	0x3
 11269 3f87 940C0000 		.4byte	.LANCHOR1+3220
 11270 3f8b 2C       		.uleb128 0x2c
 11271 3f8c 01       		.uleb128 0x1
 11272 3f8d 50       		.byte	0x50
 11273 3f8e 02       		.uleb128 0x2
 11274 3f8f 91       		.byte	0x91
 11275 3f90 48       		.sleb128 -56
 11276 3f91 00       		.byte	0
 11277 3f92 2B       		.uleb128 0x2b
 11278 3f93 64030000 		.4byte	.LVL230
 11279 3f97 E14A0000 		.4byte	0x4ae1
 11280 3f9b B43F0000 		.4byte	0x3fb4
 11281 3f9f 2C       		.uleb128 0x2c
 11282 3fa0 01       		.uleb128 0x1
 11283 3fa1 52       		.byte	0x52
 11284 3fa2 01       		.uleb128 0x1
 11285 3fa3 34       		.byte	0x34
 11286 3fa4 2C       		.uleb128 0x2c
 11287 3fa5 01       		.uleb128 0x1
 11288 3fa6 51       		.byte	0x51
 11289 3fa7 05       		.uleb128 0x5
 11290 3fa8 03       		.byte	0x3
 11291 3fa9 880C0000 		.4byte	.LANCHOR1+3208
 11292 3fad 2C       		.uleb128 0x2c
 11293 3fae 01       		.uleb128 0x1
 11294 3faf 50       		.byte	0x50
 11295 3fb0 02       		.uleb128 0x2
 11296 3fb1 91       		.byte	0x91
 11297 3fb2 4C       		.sleb128 -52
 11298 3fb3 00       		.byte	0
 11299 3fb4 2B       		.uleb128 0x2b
 11300 3fb5 74030000 		.4byte	.LVL232
 11301 3fb9 E14A0000 		.4byte	0x4ae1
 11302 3fbd D43F0000 		.4byte	0x3fd4
 11303 3fc1 2C       		.uleb128 0x2c
 11304 3fc2 01       		.uleb128 0x1
 11305 3fc3 52       		.byte	0x52
 11306 3fc4 01       		.uleb128 0x1
 11307 3fc5 34       		.byte	0x34
 11308 3fc6 2C       		.uleb128 0x2c
 11309 3fc7 01       		.uleb128 0x1
 11310 3fc8 51       		.byte	0x51
 11311 3fc9 03       		.uleb128 0x3
 11312 3fca 77       		.byte	0x77
ARM GAS  C:\Users\AHMEDH~1\AppData\Local\Temp\cclxJjJK.s 			page 232


 11313 3fcb 9019     		.sleb128 3216
 11314 3fcd 2C       		.uleb128 0x2c
 11315 3fce 01       		.uleb128 0x1
 11316 3fcf 50       		.byte	0x50
 11317 3fd0 02       		.uleb128 0x2
 11318 3fd1 91       		.byte	0x91
 11319 3fd2 50       		.sleb128 -48
 11320 3fd3 00       		.byte	0
 11321 3fd4 2B       		.uleb128 0x2b
 11322 3fd5 7E030000 		.4byte	.LVL233
 11323 3fd9 E14A0000 		.4byte	0x4ae1
 11324 3fdd F63F0000 		.4byte	0x3ff6
 11325 3fe1 2C       		.uleb128 0x2c
 11326 3fe2 01       		.uleb128 0x1
 11327 3fe3 52       		.byte	0x52
 11328 3fe4 01       		.uleb128 0x1
 11329 3fe5 34       		.byte	0x34
 11330 3fe6 2C       		.uleb128 0x2c
 11331 3fe7 01       		.uleb128 0x1
 11332 3fe8 51       		.byte	0x51
 11333 3fe9 05       		.uleb128 0x5
 11334 3fea 03       		.byte	0x3
 11335 3feb 8C0C0000 		.4byte	.LANCHOR1+3212
 11336 3fef 2C       		.uleb128 0x2c
 11337 3ff0 01       		.uleb128 0x1
 11338 3ff1 50       		.byte	0x50
 11339 3ff2 02       		.uleb128 0x2
 11340 3ff3 91       		.byte	0x91
 11341 3ff4 54       		.sleb128 -44
 11342 3ff5 00       		.byte	0
 11343 3ff6 2B       		.uleb128 0x2b
 11344 3ff7 90030000 		.4byte	.LVL234
 11345 3ffb 912F0000 		.4byte	0x2f91
 11346 3fff 26400000 		.4byte	0x4026
 11347 4003 2C       		.uleb128 0x2c
 11348 4004 01       		.uleb128 0x1
 11349 4005 53       		.byte	0x53
 11350 4006 02       		.uleb128 0x2
 11351 4007 91       		.byte	0x91
 11352 4008 48       		.sleb128 -56
 11353 4009 2C       		.uleb128 0x2c
 11354 400a 01       		.uleb128 0x1
 11355 400b 52       		.byte	0x52
 11356 400c 02       		.uleb128 0x2
 11357 400d 7A       		.byte	0x7a
 11358 400e 00       		.sleb128 0
 11359 400f 2C       		.uleb128 0x2c
 11360 4010 01       		.uleb128 0x1
 11361 4011 51       		.byte	0x51
 11362 4012 05       		.uleb128 0x5
 11363 4013 7B       		.byte	0x7b
 11364 4014 00       		.sleb128 0
 11365 4015 08       		.byte	0x8
 11366 4016 80       		.byte	0x80
 11367 4017 21       		.byte	0x21
 11368 4018 2C       		.uleb128 0x2c
 11369 4019 01       		.uleb128 0x1
ARM GAS  C:\Users\AHMEDH~1\AppData\Local\Temp\cclxJjJK.s 			page 233


 11370 401a 50       		.byte	0x50
 11371 401b 02       		.uleb128 0x2
 11372 401c 76       		.byte	0x76
 11373 401d 00       		.sleb128 0
 11374 401e 2C       		.uleb128 0x2c
 11375 401f 02       		.uleb128 0x2
 11376 4020 7D       		.byte	0x7d
 11377 4021 00       		.sleb128 0
 11378 4022 02       		.uleb128 0x2
 11379 4023 78       		.byte	0x78
 11380 4024 00       		.sleb128 0
 11381 4025 00       		.byte	0
 11382 4026 2B       		.uleb128 0x2b
 11383 4027 9E030000 		.4byte	.LVL235
 11384 402b F84C0000 		.4byte	0x4cf8
 11385 402f 46400000 		.4byte	0x4046
 11386 4033 2C       		.uleb128 0x2c
 11387 4034 01       		.uleb128 0x1
 11388 4035 52       		.byte	0x52
 11389 4036 02       		.uleb128 0x2
 11390 4037 78       		.byte	0x78
 11391 4038 00       		.sleb128 0
 11392 4039 2C       		.uleb128 0x2c
 11393 403a 01       		.uleb128 0x1
 11394 403b 51       		.byte	0x51
 11395 403c 02       		.uleb128 0x2
 11396 403d 91       		.byte	0x91
 11397 403e 48       		.sleb128 -56
 11398 403f 2C       		.uleb128 0x2c
 11399 4040 01       		.uleb128 0x1
 11400 4041 50       		.byte	0x50
 11401 4042 02       		.uleb128 0x2
 11402 4043 77       		.byte	0x77
 11403 4044 27       		.sleb128 39
 11404 4045 00       		.byte	0
 11405 4046 2B       		.uleb128 0x2b
 11406 4047 BA030000 		.4byte	.LVL236
 11407 404b 484B0000 		.4byte	0x4b48
 11408 404f 66400000 		.4byte	0x4066
 11409 4053 2C       		.uleb128 0x2c
 11410 4054 01       		.uleb128 0x1
 11411 4055 52       		.byte	0x52
 11412 4056 01       		.uleb128 0x1
 11413 4057 38       		.byte	0x38
 11414 4058 2C       		.uleb128 0x2c
 11415 4059 01       		.uleb128 0x1
 11416 405a 51       		.byte	0x51
 11417 405b 02       		.uleb128 0x2
 11418 405c 76       		.byte	0x76
 11419 405d 00       		.sleb128 0
 11420 405e 2C       		.uleb128 0x2c
 11421 405f 01       		.uleb128 0x1
 11422 4060 50       		.byte	0x50
 11423 4061 03       		.uleb128 0x3
 11424 4062 77       		.byte	0x77
 11425 4063 9019     		.sleb128 3216
 11426 4065 00       		.byte	0
ARM GAS  C:\Users\AHMEDH~1\AppData\Local\Temp\cclxJjJK.s 			page 234


 11427 4066 2D       		.uleb128 0x2d
 11428 4067 C4030000 		.4byte	.LVL237
 11429 406b 484B0000 		.4byte	0x4b48
 11430 406f 2C       		.uleb128 0x2c
 11431 4070 01       		.uleb128 0x1
 11432 4071 52       		.byte	0x52
 11433 4072 01       		.uleb128 0x1
 11434 4073 38       		.byte	0x38
 11435 4074 2C       		.uleb128 0x2c
 11436 4075 01       		.uleb128 0x1
 11437 4076 51       		.byte	0x51
 11438 4077 02       		.uleb128 0x2
 11439 4078 76       		.byte	0x76
 11440 4079 00       		.sleb128 0
 11441 407a 2C       		.uleb128 0x2c
 11442 407b 01       		.uleb128 0x1
 11443 407c 50       		.byte	0x50
 11444 407d 05       		.uleb128 0x5
 11445 407e 03       		.byte	0x3
 11446 407f 880C0000 		.4byte	.LANCHOR1+3208
 11447 4083 00       		.byte	0
 11448 4084 00       		.byte	0
 11449 4085 00       		.byte	0
 11450 4086 32       		.uleb128 0x32
 11451 4087 75290000 		.4byte	0x2975
 11452 408b CE030000 		.4byte	.LBB49
 11453 408f 72000000 		.4byte	.LBE49-.LBB49
 11454 4093 01       		.byte	0x1
 11455 4094 DD03     		.2byte	0x3dd
 11456 4096 D5410000 		.4byte	0x41d5
 11457 409a 33       		.uleb128 0x33
 11458 409b 92290000 		.4byte	0x2992
 11459 409f F40B0000 		.4byte	.LLST74
 11460 40a3 3F       		.uleb128 0x3f
 11461 40a4 9E290000 		.4byte	0x299e
 11462 40a8 33       		.uleb128 0x33
 11463 40a9 86290000 		.4byte	0x2986
 11464 40ad 2C0C0000 		.4byte	.LLST75
 11465 40b1 34       		.uleb128 0x34
 11466 40b2 CE030000 		.4byte	.LBB50
 11467 40b6 72000000 		.4byte	.LBE50-.LBB50
 11468 40ba 38       		.uleb128 0x38
 11469 40bb AA290000 		.4byte	0x29aa
 11470 40bf 550C0000 		.4byte	.LLST76
 11471 40c3 38       		.uleb128 0x38
 11472 40c4 B4290000 		.4byte	0x29b4
 11473 40c8 7F0C0000 		.4byte	.LLST77
 11474 40cc 38       		.uleb128 0x38
 11475 40cd C0290000 		.4byte	0x29c0
 11476 40d1 9F0C0000 		.4byte	.LLST78
 11477 40d5 38       		.uleb128 0x38
 11478 40d6 CC290000 		.4byte	0x29cc
 11479 40da B40C0000 		.4byte	.LLST79
 11480 40de 38       		.uleb128 0x38
 11481 40df D8290000 		.4byte	0x29d8
 11482 40e3 D20C0000 		.4byte	.LLST80
 11483 40e7 38       		.uleb128 0x38
ARM GAS  C:\Users\AHMEDH~1\AppData\Local\Temp\cclxJjJK.s 			page 235


 11484 40e8 E4290000 		.4byte	0x29e4
 11485 40ec F00C0000 		.4byte	.LLST81
 11486 40f0 38       		.uleb128 0x38
 11487 40f1 F0290000 		.4byte	0x29f0
 11488 40f5 180D0000 		.4byte	.LLST82
 11489 40f9 35       		.uleb128 0x35
 11490 40fa FC290000 		.4byte	0x29fc
 11491 40fe 02       		.uleb128 0x2
 11492 40ff 91       		.byte	0x91
 11493 4100 48       		.sleb128 -56
 11494 4101 35       		.uleb128 0x35
 11495 4102 082A0000 		.4byte	0x2a08
 11496 4106 02       		.uleb128 0x2
 11497 4107 91       		.byte	0x91
 11498 4108 40       		.sleb128 -64
 11499 4109 2B       		.uleb128 0x2b
 11500 410a D6030000 		.4byte	.LVL239
 11501 410e FD4B0000 		.4byte	0x4bfd
 11502 4112 1D410000 		.4byte	0x411d
 11503 4116 2C       		.uleb128 0x2c
 11504 4117 01       		.uleb128 0x1
 11505 4118 50       		.byte	0x50
 11506 4119 02       		.uleb128 0x2
 11507 411a 77       		.byte	0x77
 11508 411b 23       		.sleb128 35
 11509 411c 00       		.byte	0
 11510 411d 2B       		.uleb128 0x2b
 11511 411e F2030000 		.4byte	.LVL245
 11512 4122 E14A0000 		.4byte	0x4ae1
 11513 4126 3D410000 		.4byte	0x413d
 11514 412a 2C       		.uleb128 0x2c
 11515 412b 01       		.uleb128 0x1
 11516 412c 52       		.byte	0x52
 11517 412d 02       		.uleb128 0x2
 11518 412e 76       		.byte	0x76
 11519 412f 00       		.sleb128 0
 11520 4130 2C       		.uleb128 0x2c
 11521 4131 01       		.uleb128 0x1
 11522 4132 51       		.byte	0x51
 11523 4133 02       		.uleb128 0x2
 11524 4134 77       		.byte	0x77
 11525 4135 27       		.sleb128 39
 11526 4136 2C       		.uleb128 0x2c
 11527 4137 01       		.uleb128 0x1
 11528 4138 50       		.byte	0x50
 11529 4139 02       		.uleb128 0x2
 11530 413a 91       		.byte	0x91
 11531 413b 48       		.sleb128 -56
 11532 413c 00       		.byte	0
 11533 413d 2B       		.uleb128 0x2b
 11534 413e 02040000 		.4byte	.LVL246
 11535 4142 912F0000 		.4byte	0x2f91
 11536 4146 6C410000 		.4byte	0x416c
 11537 414a 2C       		.uleb128 0x2c
 11538 414b 01       		.uleb128 0x1
 11539 414c 53       		.byte	0x53
 11540 414d 02       		.uleb128 0x2
ARM GAS  C:\Users\AHMEDH~1\AppData\Local\Temp\cclxJjJK.s 			page 236


 11541 414e 91       		.byte	0x91
 11542 414f 48       		.sleb128 -56
 11543 4150 2C       		.uleb128 0x2c
 11544 4151 01       		.uleb128 0x1
 11545 4152 52       		.byte	0x52
 11546 4153 02       		.uleb128 0x2
 11547 4154 78       		.byte	0x78
 11548 4155 00       		.sleb128 0
 11549 4156 2C       		.uleb128 0x2c
 11550 4157 01       		.uleb128 0x1
 11551 4158 51       		.byte	0x51
 11552 4159 05       		.uleb128 0x5
 11553 415a 79       		.byte	0x79
 11554 415b 00       		.sleb128 0
 11555 415c 08       		.byte	0x8
 11556 415d 80       		.byte	0x80
 11557 415e 21       		.byte	0x21
 11558 415f 2C       		.uleb128 0x2c
 11559 4160 01       		.uleb128 0x1
 11560 4161 50       		.byte	0x50
 11561 4162 01       		.uleb128 0x1
 11562 4163 34       		.byte	0x34
 11563 4164 2C       		.uleb128 0x2c
 11564 4165 02       		.uleb128 0x2
 11565 4166 7D       		.byte	0x7d
 11566 4167 00       		.sleb128 0
 11567 4168 02       		.uleb128 0x2
 11568 4169 76       		.byte	0x76
 11569 416a 00       		.sleb128 0
 11570 416b 00       		.byte	0
 11571 416c 2B       		.uleb128 0x2b
 11572 416d 16040000 		.4byte	.LVL249
 11573 4171 9B4B0000 		.4byte	0x4b9b
 11574 4175 8B410000 		.4byte	0x418b
 11575 4179 2C       		.uleb128 0x2c
 11576 417a 01       		.uleb128 0x1
 11577 417b 52       		.byte	0x52
 11578 417c 01       		.uleb128 0x1
 11579 417d 38       		.byte	0x38
 11580 417e 2C       		.uleb128 0x2c
 11581 417f 01       		.uleb128 0x1
 11582 4180 51       		.byte	0x51
 11583 4181 02       		.uleb128 0x2
 11584 4182 91       		.byte	0x91
 11585 4183 40       		.sleb128 -64
 11586 4184 2C       		.uleb128 0x2c
 11587 4185 01       		.uleb128 0x1
 11588 4186 50       		.byte	0x50
 11589 4187 02       		.uleb128 0x2
 11590 4188 91       		.byte	0x91
 11591 4189 48       		.sleb128 -56
 11592 418a 00       		.byte	0
 11593 418b 2B       		.uleb128 0x2b
 11594 418c 22040000 		.4byte	.LVL250
 11595 4190 F84C0000 		.4byte	0x4cf8
 11596 4194 AA410000 		.4byte	0x41aa
 11597 4198 2C       		.uleb128 0x2c
ARM GAS  C:\Users\AHMEDH~1\AppData\Local\Temp\cclxJjJK.s 			page 237


 11598 4199 01       		.uleb128 0x1
 11599 419a 52       		.byte	0x52
 11600 419b 01       		.uleb128 0x1
 11601 419c 34       		.byte	0x34
 11602 419d 2C       		.uleb128 0x2c
 11603 419e 01       		.uleb128 0x1
 11604 419f 51       		.byte	0x51
 11605 41a0 02       		.uleb128 0x2
 11606 41a1 91       		.byte	0x91
 11607 41a2 40       		.sleb128 -64
 11608 41a3 2C       		.uleb128 0x2c
 11609 41a4 01       		.uleb128 0x1
 11610 41a5 50       		.byte	0x50
 11611 41a6 02       		.uleb128 0x2
 11612 41a7 77       		.byte	0x77
 11613 41a8 37       		.sleb128 55
 11614 41a9 00       		.byte	0
 11615 41aa 2B       		.uleb128 0x2b
 11616 41ab 32040000 		.4byte	.LVL251
 11617 41af 572E0000 		.4byte	0x2e57
 11618 41b3 CA410000 		.4byte	0x41ca
 11619 41b7 2C       		.uleb128 0x2c
 11620 41b8 01       		.uleb128 0x1
 11621 41b9 52       		.byte	0x52
 11622 41ba 02       		.uleb128 0x2
 11623 41bb 78       		.byte	0x78
 11624 41bc 00       		.sleb128 0
 11625 41bd 2C       		.uleb128 0x2c
 11626 41be 01       		.uleb128 0x1
 11627 41bf 51       		.byte	0x51
 11628 41c0 02       		.uleb128 0x2
 11629 41c1 79       		.byte	0x79
 11630 41c2 00       		.sleb128 0
 11631 41c3 2C       		.uleb128 0x2c
 11632 41c4 01       		.uleb128 0x1
 11633 41c5 50       		.byte	0x50
 11634 41c6 02       		.uleb128 0x2
 11635 41c7 91       		.byte	0x91
 11636 41c8 48       		.sleb128 -56
 11637 41c9 00       		.byte	0
 11638 41ca 2E       		.uleb128 0x2e
 11639 41cb 3E040000 		.4byte	.LVL253
 11640 41cf D14B0000 		.4byte	0x4bd1
 11641 41d3 00       		.byte	0
 11642 41d4 00       		.byte	0
 11643 41d5 32       		.uleb128 0x32
 11644 41d6 7E2B0000 		.4byte	0x2b7e
 11645 41da EE040000 		.4byte	.LBB51
 11646 41de 0A000000 		.4byte	.LBE51-.LBB51
 11647 41e2 01       		.byte	0x1
 11648 41e3 FF03     		.2byte	0x3ff
 11649 41e5 FA410000 		.4byte	0x41fa
 11650 41e9 2D       		.uleb128 0x2d
 11651 41ea F6040000 		.4byte	.LVL267
 11652 41ee B64C0000 		.4byte	0x4cb6
 11653 41f2 2C       		.uleb128 0x2c
 11654 41f3 01       		.uleb128 0x1
ARM GAS  C:\Users\AHMEDH~1\AppData\Local\Temp\cclxJjJK.s 			page 238


 11655 41f4 50       		.byte	0x50
 11656 41f5 02       		.uleb128 0x2
 11657 41f6 09       		.byte	0x9
 11658 41f7 FF       		.byte	0xff
 11659 41f8 00       		.byte	0
 11660 41f9 00       		.byte	0
 11661 41fa 32       		.uleb128 0x32
 11662 41fb 032C0000 		.4byte	0x2c03
 11663 41ff 12050000 		.4byte	.LBB53
 11664 4203 3A000000 		.4byte	.LBE53-.LBB53
 11665 4207 01       		.byte	0x1
 11666 4208 0D04     		.2byte	0x40d
 11667 420a AC420000 		.4byte	0x42ac
 11668 420e 33       		.uleb128 0x33
 11669 420f 142C0000 		.4byte	0x2c14
 11670 4213 400D0000 		.4byte	.LLST83
 11671 4217 33       		.uleb128 0x33
 11672 4218 202C0000 		.4byte	0x2c20
 11673 421c 400D0000 		.4byte	.LLST83
 11674 4220 33       		.uleb128 0x33
 11675 4221 382C0000 		.4byte	0x2c38
 11676 4225 540D0000 		.4byte	.LLST85
 11677 4229 33       		.uleb128 0x33
 11678 422a 2C2C0000 		.4byte	0x2c2c
 11679 422e 6A0D0000 		.4byte	.LLST86
 11680 4232 34       		.uleb128 0x34
 11681 4233 12050000 		.4byte	.LBB54
 11682 4237 3A000000 		.4byte	.LBE54-.LBB54
 11683 423b 38       		.uleb128 0x38
 11684 423c 442C0000 		.4byte	0x2c44
 11685 4240 7D0D0000 		.4byte	.LLST87
 11686 4244 38       		.uleb128 0x38
 11687 4245 502C0000 		.4byte	0x2c50
 11688 4249 D90D0000 		.4byte	.LLST88
 11689 424d 2B       		.uleb128 0x2b
 11690 424e 1E050000 		.4byte	.LVL276
 11691 4252 E74B0000 		.4byte	0x4be7
 11692 4256 66420000 		.4byte	0x4266
 11693 425a 2C       		.uleb128 0x2c
 11694 425b 01       		.uleb128 0x1
 11695 425c 51       		.byte	0x51
 11696 425d 01       		.uleb128 0x1
 11697 425e 30       		.byte	0x30
 11698 425f 2C       		.uleb128 0x2c
 11699 4260 01       		.uleb128 0x1
 11700 4261 50       		.byte	0x50
 11701 4262 02       		.uleb128 0x2
 11702 4263 75       		.byte	0x75
 11703 4264 0E       		.sleb128 14
 11704 4265 00       		.byte	0
 11705 4266 2B       		.uleb128 0x2b
 11706 4267 2A050000 		.4byte	.LVL277
 11707 426b D14B0000 		.4byte	0x4bd1
 11708 426f 7A420000 		.4byte	0x427a
 11709 4273 2C       		.uleb128 0x2c
 11710 4274 01       		.uleb128 0x1
 11711 4275 50       		.byte	0x50
ARM GAS  C:\Users\AHMEDH~1\AppData\Local\Temp\cclxJjJK.s 			page 239


 11712 4276 02       		.uleb128 0x2
 11713 4277 75       		.byte	0x75
 11714 4278 12       		.sleb128 18
 11715 4279 00       		.byte	0
 11716 427a 2B       		.uleb128 0x2b
 11717 427b 3A050000 		.4byte	.LVL278
 11718 427f E14A0000 		.4byte	0x4ae1
 11719 4283 94420000 		.4byte	0x4294
 11720 4287 2C       		.uleb128 0x2c
 11721 4288 01       		.uleb128 0x1
 11722 4289 52       		.byte	0x52
 11723 428a 02       		.uleb128 0x2
 11724 428b 74       		.byte	0x74
 11725 428c 00       		.sleb128 0
 11726 428d 2C       		.uleb128 0x2c
 11727 428e 01       		.uleb128 0x1
 11728 428f 50       		.byte	0x50
 11729 4290 02       		.uleb128 0x2
 11730 4291 75       		.byte	0x75
 11731 4292 14       		.sleb128 20
 11732 4293 00       		.byte	0
 11733 4294 2D       		.uleb128 0x2d
 11734 4295 46050000 		.4byte	.LVL281
 11735 4299 D14B0000 		.4byte	0x4bd1
 11736 429d 2C       		.uleb128 0x2c
 11737 429e 01       		.uleb128 0x1
 11738 429f 51       		.byte	0x51
 11739 42a0 02       		.uleb128 0x2
 11740 42a1 74       		.byte	0x74
 11741 42a2 07       		.sleb128 7
 11742 42a3 2C       		.uleb128 0x2c
 11743 42a4 01       		.uleb128 0x1
 11744 42a5 50       		.byte	0x50
 11745 42a6 02       		.uleb128 0x2
 11746 42a7 75       		.byte	0x75
 11747 42a8 0B       		.sleb128 11
 11748 42a9 00       		.byte	0
 11749 42aa 00       		.byte	0
 11750 42ab 00       		.byte	0
 11751 42ac 2E       		.uleb128 0x2e
 11752 42ad 46040000 		.4byte	.LVL255
 11753 42b1 2D4D0000 		.4byte	0x4d2d
 11754 42b5 2E       		.uleb128 0x2e
 11755 42b6 4A040000 		.4byte	.LVL256
 11756 42ba 344D0000 		.4byte	0x4d34
 11757 42be 2B       		.uleb128 0x2b
 11758 42bf 60040000 		.4byte	.LVL257
 11759 42c3 E14A0000 		.4byte	0x4ae1
 11760 42c7 E0420000 		.4byte	0x42e0
 11761 42cb 2C       		.uleb128 0x2c
 11762 42cc 01       		.uleb128 0x1
 11763 42cd 52       		.byte	0x52
 11764 42ce 01       		.uleb128 0x1
 11765 42cf 33       		.byte	0x33
 11766 42d0 2C       		.uleb128 0x2c
 11767 42d1 01       		.uleb128 0x1
 11768 42d2 51       		.byte	0x51
ARM GAS  C:\Users\AHMEDH~1\AppData\Local\Temp\cclxJjJK.s 			page 240


 11769 42d3 05       		.uleb128 0x5
 11770 42d4 03       		.byte	0x3
 11771 42d5 1A000000 		.4byte	.LC4
 11772 42d9 2C       		.uleb128 0x2c
 11773 42da 01       		.uleb128 0x1
 11774 42db 50       		.byte	0x50
 11775 42dc 02       		.uleb128 0x2
 11776 42dd 74       		.byte	0x74
 11777 42de 1A       		.sleb128 26
 11778 42df 00       		.byte	0
 11779 42e0 2B       		.uleb128 0x2b
 11780 42e1 6C040000 		.4byte	.LVL258
 11781 42e5 E14A0000 		.4byte	0x4ae1
 11782 42e9 02430000 		.4byte	0x4302
 11783 42ed 2C       		.uleb128 0x2c
 11784 42ee 01       		.uleb128 0x1
 11785 42ef 52       		.byte	0x52
 11786 42f0 01       		.uleb128 0x1
 11787 42f1 36       		.byte	0x36
 11788 42f2 2C       		.uleb128 0x2c
 11789 42f3 01       		.uleb128 0x1
 11790 42f4 51       		.byte	0x51
 11791 42f5 05       		.uleb128 0x5
 11792 42f6 03       		.byte	0x3
 11793 42f7 25000000 		.4byte	.LANCHOR1+37
 11794 42fb 2C       		.uleb128 0x2c
 11795 42fc 01       		.uleb128 0x1
 11796 42fd 50       		.byte	0x50
 11797 42fe 02       		.uleb128 0x2
 11798 42ff 74       		.byte	0x74
 11799 4300 1D       		.sleb128 29
 11800 4301 00       		.byte	0
 11801 4302 2B       		.uleb128 0x2b
 11802 4303 7E040000 		.4byte	.LVL259
 11803 4307 3B4D0000 		.4byte	0x4d3b
 11804 430b 26430000 		.4byte	0x4326
 11805 430f 2C       		.uleb128 0x2c
 11806 4310 01       		.uleb128 0x1
 11807 4311 52       		.byte	0x52
 11808 4312 03       		.uleb128 0x3
 11809 4313 0B       		.byte	0xb
 11810 4314 00FF     		.2byte	0xff00
 11811 4316 2C       		.uleb128 0x2c
 11812 4317 01       		.uleb128 0x1
 11813 4318 51       		.byte	0x51
 11814 4319 02       		.uleb128 0x2
 11815 431a 74       		.byte	0x74
 11816 431b 00       		.sleb128 0
 11817 431c 2C       		.uleb128 0x2c
 11818 431d 01       		.uleb128 0x1
 11819 431e 50       		.byte	0x50
 11820 431f 05       		.uleb128 0x5
 11821 4320 03       		.byte	0x3
 11822 4321 2B000000 		.4byte	.LANCHOR1+43
 11823 4325 00       		.byte	0
 11824 4326 2E       		.uleb128 0x2e
 11825 4327 86040000 		.4byte	.LVL260
ARM GAS  C:\Users\AHMEDH~1\AppData\Local\Temp\cclxJjJK.s 			page 241


 11826 432b 5A4D0000 		.4byte	0x4d5a
 11827 432f 2B       		.uleb128 0x2b
 11828 4330 A8040000 		.4byte	.LVL262
 11829 4334 484B0000 		.4byte	0x4b48
 11830 4338 51430000 		.4byte	0x4351
 11831 433c 2C       		.uleb128 0x2c
 11832 433d 01       		.uleb128 0x1
 11833 433e 52       		.byte	0x52
 11834 433f 02       		.uleb128 0x2
 11835 4340 08       		.byte	0x8
 11836 4341 68       		.byte	0x68
 11837 4342 2C       		.uleb128 0x2c
 11838 4343 01       		.uleb128 0x1
 11839 4344 51       		.byte	0x51
 11840 4345 01       		.uleb128 0x1
 11841 4346 30       		.byte	0x30
 11842 4347 2C       		.uleb128 0x2c
 11843 4348 01       		.uleb128 0x1
 11844 4349 50       		.byte	0x50
 11845 434a 05       		.uleb128 0x5
 11846 434b 03       		.byte	0x3
 11847 434c 20060000 		.4byte	.LANCHOR1+1568
 11848 4350 00       		.byte	0
 11849 4351 2B       		.uleb128 0x2b
 11850 4352 D4040000 		.4byte	.LVL263
 11851 4356 3B4D0000 		.4byte	0x4d3b
 11852 435a 75430000 		.4byte	0x4375
 11853 435e 2C       		.uleb128 0x2c
 11854 435f 01       		.uleb128 0x1
 11855 4360 52       		.byte	0x52
 11856 4361 03       		.uleb128 0x3
 11857 4362 0B       		.byte	0xb
 11858 4363 419F     		.2byte	0x9f41
 11859 4365 2C       		.uleb128 0x2c
 11860 4366 01       		.uleb128 0x1
 11861 4367 51       		.byte	0x51
 11862 4368 02       		.uleb128 0x2
 11863 4369 74       		.byte	0x74
 11864 436a 00       		.sleb128 0
 11865 436b 2C       		.uleb128 0x2c
 11866 436c 01       		.uleb128 0x1
 11867 436d 50       		.byte	0x50
 11868 436e 05       		.uleb128 0x5
 11869 436f 03       		.byte	0x3
 11870 4370 2B000000 		.4byte	.LANCHOR1+43
 11871 4374 00       		.byte	0
 11872 4375 2B       		.uleb128 0x2b
 11873 4376 DC040000 		.4byte	.LVL264
 11874 437a 5A4D0000 		.4byte	0x4d5a
 11875 437e 89430000 		.4byte	0x4389
 11876 4382 2C       		.uleb128 0x2c
 11877 4383 01       		.uleb128 0x1
 11878 4384 50       		.byte	0x50
 11879 4385 02       		.uleb128 0x2
 11880 4386 77       		.byte	0x77
 11881 4387 00       		.sleb128 0
 11882 4388 00       		.byte	0
ARM GAS  C:\Users\AHMEDH~1\AppData\Local\Temp\cclxJjJK.s 			page 242


 11883 4389 2B       		.uleb128 0x2b
 11884 438a E4040000 		.4byte	.LVL265
 11885 438e 6F4D0000 		.4byte	0x4d6f
 11886 4392 9D430000 		.4byte	0x439d
 11887 4396 2C       		.uleb128 0x2c
 11888 4397 01       		.uleb128 0x1
 11889 4398 50       		.byte	0x50
 11890 4399 02       		.uleb128 0x2
 11891 439a 77       		.byte	0x77
 11892 439b 00       		.sleb128 0
 11893 439c 00       		.byte	0
 11894 439d 2B       		.uleb128 0x2b
 11895 439e EE040000 		.4byte	.LVL266
 11896 43a2 E14A0000 		.4byte	0x4ae1
 11897 43a6 B1430000 		.4byte	0x43b1
 11898 43aa 2C       		.uleb128 0x2c
 11899 43ab 01       		.uleb128 0x1
 11900 43ac 51       		.byte	0x51
 11901 43ad 02       		.uleb128 0x2
 11902 43ae 74       		.byte	0x74
 11903 43af 00       		.sleb128 0
 11904 43b0 00       		.byte	0
 11905 43b1 2E       		.uleb128 0x2e
 11906 43b2 FC040000 		.4byte	.LVL269
 11907 43b6 8C380000 		.4byte	0x388c
 11908 43ba 2E       		.uleb128 0x2e
 11909 43bb 04050000 		.4byte	.LVL271
 11910 43bf 844D0000 		.4byte	0x4d84
 11911 43c3 2E       		.uleb128 0x2e
 11912 43c4 0A050000 		.4byte	.LVL273
 11913 43c8 D3380000 		.4byte	0x38d3
 11914 43cc 2B       		.uleb128 0x2b
 11915 43cd 12050000 		.4byte	.LVL275
 11916 43d1 012B0000 		.4byte	0x2b01
 11917 43d5 E1430000 		.4byte	0x43e1
 11918 43d9 2C       		.uleb128 0x2c
 11919 43da 01       		.uleb128 0x1
 11920 43db 50       		.byte	0x50
 11921 43dc 03       		.uleb128 0x3
 11922 43dd 91       		.byte	0x91
 11923 43de B87F     		.sleb128 -72
 11924 43e0 00       		.byte	0
 11925 43e1 2B       		.uleb128 0x2b
 11926 43e2 54050000 		.4byte	.LVL285
 11927 43e6 19310000 		.4byte	0x3119
 11928 43ea FB430000 		.4byte	0x43fb
 11929 43ee 2C       		.uleb128 0x2c
 11930 43ef 01       		.uleb128 0x1
 11931 43f0 51       		.byte	0x51
 11932 43f1 02       		.uleb128 0x2
 11933 43f2 75       		.byte	0x75
 11934 43f3 00       		.sleb128 0
 11935 43f4 2C       		.uleb128 0x2c
 11936 43f5 01       		.uleb128 0x1
 11937 43f6 50       		.byte	0x50
 11938 43f7 02       		.uleb128 0x2
 11939 43f8 08       		.byte	0x8
ARM GAS  C:\Users\AHMEDH~1\AppData\Local\Temp\cclxJjJK.s 			page 243


 11940 43f9 40       		.byte	0x40
 11941 43fa 00       		.byte	0
 11942 43fb 2E       		.uleb128 0x2e
 11943 43fc 64050000 		.4byte	.LVL287
 11944 4400 994D0000 		.4byte	0x4d99
 11945 4404 2D       		.uleb128 0x2d
 11946 4405 70050000 		.4byte	.LVL290
 11947 4409 19310000 		.4byte	0x3119
 11948 440d 2C       		.uleb128 0x2c
 11949 440e 01       		.uleb128 0x1
 11950 440f 51       		.byte	0x51
 11951 4410 02       		.uleb128 0x2
 11952 4411 75       		.byte	0x75
 11953 4412 00       		.sleb128 0
 11954 4413 00       		.byte	0
 11955 4414 00       		.byte	0
 11956 4415 00       		.byte	0
 11957 4416 2B       		.uleb128 0x2b
 11958 4417 18000000 		.4byte	.LVL171
 11959 441b E14A0000 		.4byte	0x4ae1
 11960 441f 36440000 		.4byte	0x4436
 11961 4423 2C       		.uleb128 0x2c
 11962 4424 01       		.uleb128 0x1
 11963 4425 52       		.byte	0x52
 11964 4426 02       		.uleb128 0x2
 11965 4427 78       		.byte	0x78
 11966 4428 00       		.sleb128 0
 11967 4429 2C       		.uleb128 0x2c
 11968 442a 01       		.uleb128 0x1
 11969 442b 51       		.byte	0x51
 11970 442c 02       		.uleb128 0x2
 11971 442d 75       		.byte	0x75
 11972 442e 00       		.sleb128 0
 11973 442f 2C       		.uleb128 0x2c
 11974 4430 01       		.uleb128 0x1
 11975 4431 50       		.byte	0x50
 11976 4432 02       		.uleb128 0x2
 11977 4433 74       		.byte	0x74
 11978 4434 18       		.sleb128 24
 11979 4435 00       		.byte	0
 11980 4436 2D       		.uleb128 0x2d
 11981 4437 7A050000 		.4byte	.LVL291
 11982 443b FC310000 		.4byte	0x31fc
 11983 443f 2C       		.uleb128 0x2c
 11984 4440 01       		.uleb128 0x1
 11985 4441 50       		.byte	0x50
 11986 4442 02       		.uleb128 0x2
 11987 4443 75       		.byte	0x75
 11988 4444 00       		.sleb128 0
 11989 4445 39       		.uleb128 0x39
 11990 4446 D22A0000 		.4byte	0x2ad2
 11991 444a 03       		.uleb128 0x3
 11992 444b F3       		.byte	0xf3
 11993 444c 01       		.uleb128 0x1
 11994 444d 51       		.byte	0x51
 11995 444e 00       		.byte	0
 11996 444f 00       		.byte	0
ARM GAS  C:\Users\AHMEDH~1\AppData\Local\Temp\cclxJjJK.s 			page 244


 11997 4450 3C       		.uleb128 0x3c
 11998 4451 F6160000 		.4byte	.LASF965
 11999 4455 01       		.byte	0x1
 12000 4456 C504     		.2byte	0x4c5
 12001 4458 9E000000 		.4byte	0x9e
 12002 445c 00000000 		.4byte	.LFB20
 12003 4460 04000000 		.4byte	.LFE20-.LFB20
 12004 4464 01       		.uleb128 0x1
 12005 4465 9C       		.byte	0x9c
 12006 4466 7B440000 		.4byte	0x447b
 12007 446a 30       		.uleb128 0x30
 12008 446b DC210000 		.4byte	.LASF966
 12009 446f 01       		.byte	0x1
 12010 4470 C504     		.2byte	0x4c5
 12011 4472 9E000000 		.4byte	0x9e
 12012 4476 EE0D0000 		.4byte	.LLST89
 12013 447a 00       		.byte	0
 12014 447b 40       		.uleb128 0x40
 12015 447c 06120000 		.4byte	.LASF1046
 12016 4480 01       		.byte	0x1
 12017 4481 D304     		.2byte	0x4d3
 12018 4483 9E000000 		.4byte	0x9e
 12019 4487 00000000 		.4byte	.LFB21
 12020 448b 04000000 		.4byte	.LFE21-.LFB21
 12021 448f 01       		.uleb128 0x1
 12022 4490 9C       		.byte	0x9c
 12023 4491 41       		.uleb128 0x41
 12024 4492 54020000 		.4byte	.LASF968
 12025 4496 01       		.byte	0x1
 12026 4497 E204     		.2byte	0x4e2
 12027 4499 00000000 		.4byte	.LFB22
 12028 449d 08010000 		.4byte	.LFE22-.LFB22
 12029 44a1 01       		.uleb128 0x1
 12030 44a2 9C       		.byte	0x9c
 12031 44a3 2F470000 		.4byte	0x472f
 12032 44a7 42       		.uleb128 0x42
 12033 44a8 61496E00 		.ascii	"aIn\000"
 12034 44ac 01       		.byte	0x1
 12035 44ad E204     		.2byte	0x4e2
 12036 44af A9000000 		.4byte	0xa9
 12037 44b3 0F0E0000 		.4byte	.LLST90
 12038 44b7 30       		.uleb128 0x30
 12039 44b8 2B2F0000 		.4byte	.LASF969
 12040 44bc 01       		.byte	0x1
 12041 44bd E204     		.2byte	0x4e2
 12042 44bf F0000000 		.4byte	0xf0
 12043 44c3 300E0000 		.4byte	.LLST91
 12044 44c7 30       		.uleb128 0x30
 12045 44c8 080B0000 		.4byte	.LASF941
 12046 44cc 01       		.byte	0x1
 12047 44cd E204     		.2byte	0x4e2
 12048 44cf BF000000 		.4byte	0xbf
 12049 44d3 5C0E0000 		.4byte	.LLST92
 12050 44d7 43       		.uleb128 0x43
 12051 44d8 62756600 		.ascii	"buf\000"
 12052 44dc 01       		.byte	0x1
 12053 44dd E404     		.2byte	0x4e4
ARM GAS  C:\Users\AHMEDH~1\AppData\Local\Temp\cclxJjJK.s 			page 245


 12054 44df 56010000 		.4byte	0x156
 12055 44e3 02       		.uleb128 0x2
 12056 44e4 91       		.byte	0x91
 12057 44e5 54       		.sleb128 -44
 12058 44e6 44       		.uleb128 0x44
 12059 44e7 5A120000 		.4byte	.LASF970
 12060 44eb 01       		.byte	0x1
 12061 44ec E504     		.2byte	0x4e5
 12062 44ee F0000000 		.4byte	0xf0
 12063 44f2 A10E0000 		.4byte	.LLST93
 12064 44f6 44       		.uleb128 0x44
 12065 44f7 64390000 		.4byte	.LASF971
 12066 44fb 01       		.byte	0x1
 12067 44fc E604     		.2byte	0x4e6
 12068 44fe BF000000 		.4byte	0xbf
 12069 4502 BF0E0000 		.4byte	.LLST94
 12070 4506 2A       		.uleb128 0x2a
 12071 4507 6A000000 		.4byte	.LBB61
 12072 450b 32000000 		.4byte	.LBE61-.LBB61
 12073 450f B3450000 		.4byte	0x45b3
 12074 4513 45       		.uleb128 0x45
 12075 4514 6C656E00 		.ascii	"len\000"
 12076 4518 01       		.byte	0x1
 12077 4519 F704     		.2byte	0x4f7
 12078 451b BF000000 		.4byte	0xbf
 12079 451f D20E0000 		.4byte	.LLST95
 12080 4523 45       		.uleb128 0x45
 12081 4524 70747200 		.ascii	"ptr\000"
 12082 4528 01       		.byte	0x1
 12083 4529 F704     		.2byte	0x4f7
 12084 452b F0000000 		.4byte	0xf0
 12085 452f E60E0000 		.4byte	.LLST96
 12086 4533 2B       		.uleb128 0x2b
 12087 4534 72000000 		.4byte	.LVL308
 12088 4538 C74A0000 		.4byte	0x4ac7
 12089 453c 4C450000 		.4byte	0x454c
 12090 4540 2C       		.uleb128 0x2c
 12091 4541 01       		.uleb128 0x1
 12092 4542 51       		.byte	0x51
 12093 4543 01       		.uleb128 0x1
 12094 4544 3D       		.byte	0x3d
 12095 4545 2C       		.uleb128 0x2c
 12096 4546 01       		.uleb128 0x1
 12097 4547 50       		.byte	0x50
 12098 4548 02       		.uleb128 0x2
 12099 4549 08       		.byte	0x8
 12100 454a 92       		.byte	0x92
 12101 454b 00       		.byte	0
 12102 454c 2B       		.uleb128 0x2b
 12103 454d 7E000000 		.4byte	.LVL310
 12104 4551 E14A0000 		.4byte	0x4ae1
 12105 4555 6E450000 		.4byte	0x456e
 12106 4559 2C       		.uleb128 0x2c
 12107 455a 01       		.uleb128 0x1
 12108 455b 52       		.byte	0x52
 12109 455c 01       		.uleb128 0x1
 12110 455d 3C       		.byte	0x3c
ARM GAS  C:\Users\AHMEDH~1\AppData\Local\Temp\cclxJjJK.s 			page 246


 12111 455e 2C       		.uleb128 0x2c
 12112 455f 01       		.uleb128 0x1
 12113 4560 51       		.byte	0x51
 12114 4561 05       		.uleb128 0x5
 12115 4562 03       		.byte	0x3
 12116 4563 3F000000 		.4byte	.LC8
 12117 4567 2C       		.uleb128 0x2c
 12118 4568 01       		.uleb128 0x1
 12119 4569 50       		.byte	0x50
 12120 456a 02       		.uleb128 0x2
 12121 456b 74       		.byte	0x74
 12122 456c 00       		.sleb128 0
 12123 456d 00       		.byte	0
 12124 456e 2B       		.uleb128 0x2b
 12125 456f 94000000 		.4byte	.LVL311
 12126 4573 FE4A0000 		.4byte	0x4afe
 12127 4577 9C450000 		.4byte	0x459c
 12128 457b 2C       		.uleb128 0x2c
 12129 457c 01       		.uleb128 0x1
 12130 457d 53       		.byte	0x53
 12131 457e 03       		.uleb128 0x3
 12132 457f 0A       		.byte	0xa
 12133 4580 0005     		.2byte	0x500
 12134 4582 2C       		.uleb128 0x2c
 12135 4583 01       		.uleb128 0x1
 12136 4584 52       		.byte	0x52
 12137 4585 02       		.uleb128 0x2
 12138 4586 74       		.byte	0x74
 12139 4587 00       		.sleb128 0
 12140 4588 2C       		.uleb128 0x2c
 12141 4589 01       		.uleb128 0x1
 12142 458a 51       		.byte	0x51
 12143 458b 02       		.uleb128 0x2
 12144 458c 08       		.byte	0x8
 12145 458d 25       		.byte	0x25
 12146 458e 2C       		.uleb128 0x2c
 12147 458f 01       		.uleb128 0x1
 12148 4590 50       		.byte	0x50
 12149 4591 01       		.uleb128 0x1
 12150 4592 3F       		.byte	0x3f
 12151 4593 2C       		.uleb128 0x2c
 12152 4594 02       		.uleb128 0x2
 12153 4595 7D       		.byte	0x7d
 12154 4596 00       		.sleb128 0
 12155 4597 03       		.uleb128 0x3
 12156 4598 0A       		.byte	0xa
 12157 4599 8210     		.2byte	0x1082
 12158 459b 00       		.byte	0
 12159 459c 2D       		.uleb128 0x2d
 12160 459d 9C000000 		.4byte	.LVL312
 12161 45a1 C74A0000 		.4byte	0x4ac7
 12162 45a5 2C       		.uleb128 0x2c
 12163 45a6 01       		.uleb128 0x1
 12164 45a7 51       		.byte	0x51
 12165 45a8 02       		.uleb128 0x2
 12166 45a9 74       		.byte	0x74
 12167 45aa 00       		.sleb128 0
ARM GAS  C:\Users\AHMEDH~1\AppData\Local\Temp\cclxJjJK.s 			page 247


 12168 45ab 2C       		.uleb128 0x2c
 12169 45ac 01       		.uleb128 0x1
 12170 45ad 50       		.byte	0x50
 12171 45ae 02       		.uleb128 0x2
 12172 45af 08       		.byte	0x8
 12173 45b0 94       		.byte	0x94
 12174 45b1 00       		.byte	0
 12175 45b2 00       		.byte	0
 12176 45b3 2B       		.uleb128 0x2b
 12177 45b4 1A000000 		.4byte	.LVL298
 12178 45b8 C74A0000 		.4byte	0x4ac7
 12179 45bc CD450000 		.4byte	0x45cd
 12180 45c0 2C       		.uleb128 0x2c
 12181 45c1 01       		.uleb128 0x1
 12182 45c2 51       		.byte	0x51
 12183 45c3 02       		.uleb128 0x2
 12184 45c4 75       		.byte	0x75
 12185 45c5 00       		.sleb128 0
 12186 45c6 2C       		.uleb128 0x2c
 12187 45c7 01       		.uleb128 0x1
 12188 45c8 50       		.byte	0x50
 12189 45c9 02       		.uleb128 0x2
 12190 45ca 08       		.byte	0x8
 12191 45cb 92       		.byte	0x92
 12192 45cc 00       		.byte	0
 12193 45cd 2B       		.uleb128 0x2b
 12194 45ce 26000000 		.4byte	.LVL299
 12195 45d2 A04D0000 		.4byte	0x4da0
 12196 45d6 E7450000 		.4byte	0x45e7
 12197 45da 2C       		.uleb128 0x2c
 12198 45db 01       		.uleb128 0x1
 12199 45dc 51       		.byte	0x51
 12200 45dd 02       		.uleb128 0x2
 12201 45de 75       		.byte	0x75
 12202 45df 00       		.sleb128 0
 12203 45e0 2C       		.uleb128 0x2c
 12204 45e1 01       		.uleb128 0x1
 12205 45e2 50       		.byte	0x50
 12206 45e3 02       		.uleb128 0x2
 12207 45e4 76       		.byte	0x76
 12208 45e5 00       		.sleb128 0
 12209 45e6 00       		.byte	0
 12210 45e7 2B       		.uleb128 0x2b
 12211 45e8 30000000 		.4byte	.LVL300
 12212 45ec 484B0000 		.4byte	0x4b48
 12213 45f0 05460000 		.4byte	0x4605
 12214 45f4 2C       		.uleb128 0x2c
 12215 45f5 01       		.uleb128 0x1
 12216 45f6 52       		.byte	0x52
 12217 45f7 01       		.uleb128 0x1
 12218 45f8 44       		.byte	0x44
 12219 45f9 2C       		.uleb128 0x2c
 12220 45fa 01       		.uleb128 0x1
 12221 45fb 51       		.byte	0x51
 12222 45fc 01       		.uleb128 0x1
 12223 45fd 30       		.byte	0x30
 12224 45fe 2C       		.uleb128 0x2c
ARM GAS  C:\Users\AHMEDH~1\AppData\Local\Temp\cclxJjJK.s 			page 248


 12225 45ff 01       		.uleb128 0x1
 12226 4600 50       		.byte	0x50
 12227 4601 02       		.uleb128 0x2
 12228 4602 91       		.byte	0x91
 12229 4603 54       		.sleb128 -44
 12230 4604 00       		.byte	0
 12231 4605 2B       		.uleb128 0x2b
 12232 4606 44000000 		.4byte	.LVL301
 12233 460a BA4D0000 		.4byte	0x4dba
 12234 460e 19460000 		.4byte	0x4619
 12235 4612 2C       		.uleb128 0x2c
 12236 4613 01       		.uleb128 0x1
 12237 4614 52       		.byte	0x52
 12238 4615 02       		.uleb128 0x2
 12239 4616 74       		.byte	0x74
 12240 4617 00       		.sleb128 0
 12241 4618 00       		.byte	0
 12242 4619 2B       		.uleb128 0x2b
 12243 461a 4A000000 		.4byte	.LVL302
 12244 461e D54D0000 		.4byte	0x4dd5
 12245 4622 2D460000 		.4byte	0x462d
 12246 4626 2C       		.uleb128 0x2c
 12247 4627 01       		.uleb128 0x1
 12248 4628 50       		.byte	0x50
 12249 4629 02       		.uleb128 0x2
 12250 462a 91       		.byte	0x91
 12251 462b 54       		.sleb128 -44
 12252 462c 00       		.byte	0
 12253 462d 2B       		.uleb128 0x2b
 12254 462e 52000000 		.4byte	.LVL303
 12255 4632 EA4D0000 		.4byte	0x4dea
 12256 4636 41460000 		.4byte	0x4641
 12257 463a 2C       		.uleb128 0x2c
 12258 463b 01       		.uleb128 0x1
 12259 463c 50       		.byte	0x50
 12260 463d 02       		.uleb128 0x2
 12261 463e 91       		.byte	0x91
 12262 463f 54       		.sleb128 -44
 12263 4640 00       		.byte	0
 12264 4641 2B       		.uleb128 0x2b
 12265 4642 5A000000 		.4byte	.LVL304
 12266 4646 004E0000 		.4byte	0x4e00
 12267 464a 5B460000 		.4byte	0x465b
 12268 464e 2C       		.uleb128 0x2c
 12269 464f 01       		.uleb128 0x1
 12270 4650 51       		.byte	0x51
 12271 4651 02       		.uleb128 0x2
 12272 4652 74       		.byte	0x74
 12273 4653 00       		.sleb128 0
 12274 4654 2C       		.uleb128 0x2c
 12275 4655 01       		.uleb128 0x1
 12276 4656 50       		.byte	0x50
 12277 4657 02       		.uleb128 0x2
 12278 4658 77       		.byte	0x77
 12279 4659 00       		.sleb128 0
 12280 465a 00       		.byte	0
 12281 465b 2B       		.uleb128 0x2b
ARM GAS  C:\Users\AHMEDH~1\AppData\Local\Temp\cclxJjJK.s 			page 249


 12282 465c 62000000 		.4byte	.LVL305
 12283 4660 EA4D0000 		.4byte	0x4dea
 12284 4664 77460000 		.4byte	0x4677
 12285 4668 2C       		.uleb128 0x2c
 12286 4669 01       		.uleb128 0x1
 12287 466a 51       		.byte	0x51
 12288 466b 01       		.uleb128 0x1
 12289 466c 32       		.byte	0x32
 12290 466d 2C       		.uleb128 0x2c
 12291 466e 01       		.uleb128 0x1
 12292 466f 50       		.byte	0x50
 12293 4670 05       		.uleb128 0x5
 12294 4671 03       		.byte	0x3
 12295 4672 3C000000 		.4byte	.LC7
 12296 4676 00       		.byte	0
 12297 4677 2E       		.uleb128 0x2e
 12298 4678 66000000 		.4byte	.LVL306
 12299 467c 164E0000 		.4byte	0x4e16
 12300 4680 2B       		.uleb128 0x2b
 12301 4681 AC000000 		.4byte	.LVL313
 12302 4685 FE4A0000 		.4byte	0x4afe
 12303 4689 AA460000 		.4byte	0x46aa
 12304 468d 2C       		.uleb128 0x2c
 12305 468e 01       		.uleb128 0x1
 12306 468f 53       		.byte	0x53
 12307 4690 01       		.uleb128 0x1
 12308 4691 30       		.byte	0x30
 12309 4692 2C       		.uleb128 0x2c
 12310 4693 01       		.uleb128 0x1
 12311 4694 52       		.byte	0x52
 12312 4695 03       		.uleb128 0x3
 12313 4696 0A       		.byte	0xa
 12314 4697 2823     		.2byte	0x2328
 12315 4699 2C       		.uleb128 0x2c
 12316 469a 01       		.uleb128 0x1
 12317 469b 51       		.byte	0x51
 12318 469c 01       		.uleb128 0x1
 12319 469d 33       		.byte	0x33
 12320 469e 2C       		.uleb128 0x2c
 12321 469f 01       		.uleb128 0x1
 12322 46a0 50       		.byte	0x50
 12323 46a1 01       		.uleb128 0x1
 12324 46a2 40       		.byte	0x40
 12325 46a3 2C       		.uleb128 0x2c
 12326 46a4 02       		.uleb128 0x2
 12327 46a5 7D       		.byte	0x7d
 12328 46a6 00       		.sleb128 0
 12329 46a7 01       		.uleb128 0x1
 12330 46a8 30       		.byte	0x30
 12331 46a9 00       		.byte	0
 12332 46aa 2B       		.uleb128 0x2b
 12333 46ab B6000000 		.4byte	.LVL315
 12334 46af 214E0000 		.4byte	0x4e21
 12335 46b3 BF460000 		.4byte	0x46bf
 12336 46b7 2C       		.uleb128 0x2c
 12337 46b8 01       		.uleb128 0x1
 12338 46b9 50       		.byte	0x50
ARM GAS  C:\Users\AHMEDH~1\AppData\Local\Temp\cclxJjJK.s 			page 250


 12339 46ba 03       		.uleb128 0x3
 12340 46bb 0A       		.byte	0xa
 12341 46bc 9F01     		.2byte	0x19f
 12342 46be 00       		.byte	0
 12343 46bf 2B       		.uleb128 0x2b
 12344 46c0 C0000000 		.4byte	.LVL317
 12345 46c4 214E0000 		.4byte	0x4e21
 12346 46c8 D4460000 		.4byte	0x46d4
 12347 46cc 2C       		.uleb128 0x2c
 12348 46cd 01       		.uleb128 0x1
 12349 46ce 50       		.byte	0x50
 12350 46cf 03       		.uleb128 0x3
 12351 46d0 0A       		.byte	0xa
 12352 46d1 9F01     		.2byte	0x19f
 12353 46d3 00       		.byte	0
 12354 46d4 2E       		.uleb128 0x2e
 12355 46d5 CC000000 		.4byte	.LVL318
 12356 46d9 364E0000 		.4byte	0x4e36
 12357 46dd 2E       		.uleb128 0x2e
 12358 46de D2000000 		.4byte	.LVL319
 12359 46e2 414E0000 		.4byte	0x4e41
 12360 46e6 2B       		.uleb128 0x2b
 12361 46e7 DA000000 		.4byte	.LVL320
 12362 46eb 4C4E0000 		.4byte	0x4e4c
 12363 46ef FA460000 		.4byte	0x46fa
 12364 46f3 2C       		.uleb128 0x2c
 12365 46f4 01       		.uleb128 0x1
 12366 46f5 50       		.byte	0x50
 12367 46f6 02       		.uleb128 0x2
 12368 46f7 76       		.byte	0x76
 12369 46f8 00       		.sleb128 0
 12370 46f9 00       		.byte	0
 12371 46fa 2B       		.uleb128 0x2b
 12372 46fb E4000000 		.4byte	.LVL321
 12373 46ff 214E0000 		.4byte	0x4e21
 12374 4703 0F470000 		.4byte	0x470f
 12375 4707 2C       		.uleb128 0x2c
 12376 4708 01       		.uleb128 0x1
 12377 4709 50       		.byte	0x50
 12378 470a 03       		.uleb128 0x3
 12379 470b 0A       		.byte	0xa
 12380 470c 9C01     		.2byte	0x19c
 12381 470e 00       		.byte	0
 12382 470f 2E       		.uleb128 0x2e
 12383 4710 EA000000 		.4byte	.LVL322
 12384 4714 664E0000 		.4byte	0x4e66
 12385 4718 2D       		.uleb128 0x2d
 12386 4719 F2000000 		.4byte	.LVL323
 12387 471d C74A0000 		.4byte	0x4ac7
 12388 4721 2C       		.uleb128 0x2c
 12389 4722 01       		.uleb128 0x1
 12390 4723 51       		.byte	0x51
 12391 4724 02       		.uleb128 0x2
 12392 4725 76       		.byte	0x76
 12393 4726 00       		.sleb128 0
 12394 4727 2C       		.uleb128 0x2c
 12395 4728 01       		.uleb128 0x1
ARM GAS  C:\Users\AHMEDH~1\AppData\Local\Temp\cclxJjJK.s 			page 251


 12396 4729 50       		.byte	0x50
 12397 472a 02       		.uleb128 0x2
 12398 472b 08       		.byte	0x8
 12399 472c 94       		.byte	0x94
 12400 472d 00       		.byte	0
 12401 472e 00       		.byte	0
 12402 472f 3C       		.uleb128 0x3c
 12403 4730 F3260000 		.4byte	.LASF972
 12404 4734 01       		.byte	0x1
 12405 4735 0F05     		.2byte	0x50f
 12406 4737 37000000 		.4byte	0x37
 12407 473b 00000000 		.4byte	.LFB23
 12408 473f 2A000000 		.4byte	.LFE23-.LFB23
 12409 4743 01       		.uleb128 0x1
 12410 4744 9C       		.byte	0x9c
 12411 4745 C4470000 		.4byte	0x47c4
 12412 4749 30       		.uleb128 0x30
 12413 474a 1C1B0000 		.4byte	.LASF937
 12414 474e 01       		.byte	0x1
 12415 474f 0F05     		.2byte	0x50f
 12416 4751 F0000000 		.4byte	0xf0
 12417 4755 040F0000 		.4byte	.LLST97
 12418 4759 30       		.uleb128 0x30
 12419 475a 080B0000 		.4byte	.LASF941
 12420 475e 01       		.byte	0x1
 12421 475f 0F05     		.2byte	0x50f
 12422 4761 B4000000 		.4byte	0xb4
 12423 4765 300F0000 		.4byte	.LLST98
 12424 4769 43       		.uleb128 0x43
 12425 476a 62756600 		.ascii	"buf\000"
 12426 476e 01       		.byte	0x1
 12427 476f 1105     		.2byte	0x511
 12428 4771 421B0000 		.4byte	0x1b42
 12429 4775 03       		.uleb128 0x3
 12430 4776 91       		.byte	0x91
 12431 4777 F873     		.sleb128 -1544
 12432 4779 2B       		.uleb128 0x2b
 12433 477a 14000000 		.4byte	.LVL328
 12434 477e E14A0000 		.4byte	0x4ae1
 12435 4782 9B470000 		.4byte	0x479b
 12436 4786 2C       		.uleb128 0x2c
 12437 4787 01       		.uleb128 0x1
 12438 4788 52       		.byte	0x52
 12439 4789 02       		.uleb128 0x2
 12440 478a 74       		.byte	0x74
 12441 478b 00       		.sleb128 0
 12442 478c 2C       		.uleb128 0x2c
 12443 478d 01       		.uleb128 0x1
 12444 478e 51       		.byte	0x51
 12445 478f 03       		.uleb128 0x3
 12446 4790 F3       		.byte	0xf3
 12447 4791 01       		.uleb128 0x1
 12448 4792 50       		.byte	0x50
 12449 4793 2C       		.uleb128 0x2c
 12450 4794 01       		.uleb128 0x1
 12451 4795 50       		.byte	0x50
 12452 4796 03       		.uleb128 0x3
ARM GAS  C:\Users\AHMEDH~1\AppData\Local\Temp\cclxJjJK.s 			page 252


 12453 4797 91       		.byte	0x91
 12454 4798 F873     		.sleb128 -1544
 12455 479a 00       		.byte	0
 12456 479b 2D       		.uleb128 0x2d
 12457 479c 24000000 		.4byte	.LVL329
 12458 47a0 FE4A0000 		.4byte	0x4afe
 12459 47a4 2C       		.uleb128 0x2c
 12460 47a5 01       		.uleb128 0x1
 12461 47a6 53       		.byte	0x53
 12462 47a7 02       		.uleb128 0x2
 12463 47a8 74       		.byte	0x74
 12464 47a9 00       		.sleb128 0
 12465 47aa 2C       		.uleb128 0x2c
 12466 47ab 01       		.uleb128 0x1
 12467 47ac 52       		.byte	0x52
 12468 47ad 03       		.uleb128 0x3
 12469 47ae 91       		.byte	0x91
 12470 47af F873     		.sleb128 -1544
 12471 47b1 2C       		.uleb128 0x2c
 12472 47b2 01       		.uleb128 0x1
 12473 47b3 51       		.byte	0x51
 12474 47b4 01       		.uleb128 0x1
 12475 47b5 32       		.byte	0x32
 12476 47b6 2C       		.uleb128 0x2c
 12477 47b7 01       		.uleb128 0x1
 12478 47b8 50       		.byte	0x50
 12479 47b9 02       		.uleb128 0x2
 12480 47ba 08       		.byte	0x8
 12481 47bb 7D       		.byte	0x7d
 12482 47bc 2C       		.uleb128 0x2c
 12483 47bd 02       		.uleb128 0x2
 12484 47be 7D       		.byte	0x7d
 12485 47bf 00       		.sleb128 0
 12486 47c0 01       		.uleb128 0x1
 12487 47c1 30       		.byte	0x30
 12488 47c2 00       		.byte	0
 12489 47c3 00       		.byte	0
 12490 47c4 36       		.uleb128 0x36
 12491 47c5 8B2B0000 		.4byte	0x2b8b
 12492 47c9 00000000 		.4byte	.LFB24
 12493 47cd 28000000 		.4byte	.LFE24-.LFB24
 12494 47d1 01       		.uleb128 0x1
 12495 47d2 9C       		.byte	0x9c
 12496 47d3 2E480000 		.4byte	0x482e
 12497 47d7 33       		.uleb128 0x33
 12498 47d8 9C2B0000 		.4byte	0x2b9c
 12499 47dc 510F0000 		.4byte	.LLST99
 12500 47e0 33       		.uleb128 0x33
 12501 47e1 A82B0000 		.4byte	0x2ba8
 12502 47e5 930F0000 		.4byte	.LLST100
 12503 47e9 3B       		.uleb128 0x3b
 12504 47ea B42B0000 		.4byte	0x2bb4
 12505 47ee 3B       		.uleb128 0x3b
 12506 47ef C02B0000 		.4byte	0x2bc0
 12507 47f3 2B       		.uleb128 0x2b
 12508 47f4 14000000 		.4byte	.LVL333
 12509 47f8 FE4A0000 		.4byte	0x4afe
ARM GAS  C:\Users\AHMEDH~1\AppData\Local\Temp\cclxJjJK.s 			page 253


 12510 47fc 1C480000 		.4byte	0x481c
 12511 4800 2C       		.uleb128 0x2c
 12512 4801 01       		.uleb128 0x1
 12513 4802 53       		.byte	0x53
 12514 4803 01       		.uleb128 0x1
 12515 4804 30       		.byte	0x30
 12516 4805 2C       		.uleb128 0x2c
 12517 4806 01       		.uleb128 0x1
 12518 4807 52       		.byte	0x52
 12519 4808 01       		.uleb128 0x1
 12520 4809 30       		.byte	0x30
 12521 480a 2C       		.uleb128 0x2c
 12522 480b 01       		.uleb128 0x1
 12523 480c 51       		.byte	0x51
 12524 480d 01       		.uleb128 0x1
 12525 480e 35       		.byte	0x35
 12526 480f 2C       		.uleb128 0x2c
 12527 4810 01       		.uleb128 0x1
 12528 4811 50       		.byte	0x50
 12529 4812 02       		.uleb128 0x2
 12530 4813 08       		.byte	0x8
 12531 4814 7D       		.byte	0x7d
 12532 4815 2C       		.uleb128 0x2c
 12533 4816 02       		.uleb128 0x2
 12534 4817 7D       		.byte	0x7d
 12535 4818 00       		.sleb128 0
 12536 4819 01       		.uleb128 0x1
 12537 481a 30       		.byte	0x30
 12538 481b 00       		.byte	0
 12539 481c 46       		.uleb128 0x46
 12540 481d 24000000 		.4byte	.LVL335
 12541 4821 81310000 		.4byte	0x3181
 12542 4825 2C       		.uleb128 0x2c
 12543 4826 01       		.uleb128 0x1
 12544 4827 50       		.byte	0x50
 12545 4828 03       		.uleb128 0x3
 12546 4829 F3       		.byte	0xf3
 12547 482a 01       		.uleb128 0x1
 12548 482b 50       		.byte	0x50
 12549 482c 00       		.byte	0
 12550 482d 00       		.byte	0
 12551 482e 3C       		.uleb128 0x3c
 12552 482f 281C0000 		.4byte	.LASF973
 12553 4833 01       		.byte	0x1
 12554 4834 3905     		.2byte	0x539
 12555 4836 37000000 		.4byte	0x37
 12556 483a 00000000 		.4byte	.LFB25
 12557 483e 60000000 		.4byte	.LFE25-.LFB25
 12558 4842 01       		.uleb128 0x1
 12559 4843 9C       		.byte	0x9c
 12560 4844 F5480000 		.4byte	0x48f5
 12561 4848 44       		.uleb128 0x44
 12562 4849 EA350000 		.4byte	.LASF914
 12563 484d 01       		.byte	0x1
 12564 484e 3B05     		.2byte	0x53b
 12565 4850 37000000 		.4byte	0x37
 12566 4854 B40F0000 		.4byte	.LLST101
ARM GAS  C:\Users\AHMEDH~1\AppData\Local\Temp\cclxJjJK.s 			page 254


 12567 4858 2B       		.uleb128 0x2b
 12568 4859 0C000000 		.4byte	.LVL336
 12569 485d 8B2B0000 		.4byte	0x2b8b
 12570 4861 76480000 		.4byte	0x4876
 12571 4865 2C       		.uleb128 0x2c
 12572 4866 01       		.uleb128 0x1
 12573 4867 51       		.byte	0x51
 12574 4868 03       		.uleb128 0x3
 12575 4869 0A       		.byte	0xa
 12576 486a 0006     		.2byte	0x600
 12577 486c 2C       		.uleb128 0x2c
 12578 486d 01       		.uleb128 0x1
 12579 486e 50       		.byte	0x50
 12580 486f 05       		.uleb128 0x5
 12581 4870 03       		.byte	0x3
 12582 4871 980C0000 		.4byte	.LANCHOR1+3224
 12583 4875 00       		.byte	0
 12584 4876 2B       		.uleb128 0x2b
 12585 4877 1E000000 		.4byte	.LVL338
 12586 487b FE4A0000 		.4byte	0x4afe
 12587 487f 9F480000 		.4byte	0x489f
 12588 4883 2C       		.uleb128 0x2c
 12589 4884 01       		.uleb128 0x1
 12590 4885 53       		.byte	0x53
 12591 4886 01       		.uleb128 0x1
 12592 4887 30       		.byte	0x30
 12593 4888 2C       		.uleb128 0x2c
 12594 4889 01       		.uleb128 0x1
 12595 488a 52       		.byte	0x52
 12596 488b 01       		.uleb128 0x1
 12597 488c 30       		.byte	0x30
 12598 488d 2C       		.uleb128 0x2c
 12599 488e 01       		.uleb128 0x1
 12600 488f 51       		.byte	0x51
 12601 4890 01       		.uleb128 0x1
 12602 4891 34       		.byte	0x34
 12603 4892 2C       		.uleb128 0x2c
 12604 4893 01       		.uleb128 0x1
 12605 4894 50       		.byte	0x50
 12606 4895 02       		.uleb128 0x2
 12607 4896 08       		.byte	0x8
 12608 4897 7D       		.byte	0x7d
 12609 4898 2C       		.uleb128 0x2c
 12610 4899 02       		.uleb128 0x2
 12611 489a 7D       		.byte	0x7d
 12612 489b 00       		.sleb128 0
 12613 489c 01       		.uleb128 0x1
 12614 489d 30       		.byte	0x30
 12615 489e 00       		.byte	0
 12616 489f 2E       		.uleb128 0x2e
 12617 48a0 24000000 		.4byte	.LVL339
 12618 48a4 2D4D0000 		.4byte	0x4d2d
 12619 48a8 2B       		.uleb128 0x2b
 12620 48a9 2C000000 		.4byte	.LVL340
 12621 48ad 27390000 		.4byte	0x3927
 12622 48b1 C5480000 		.4byte	0x48c5
 12623 48b5 2C       		.uleb128 0x2c
ARM GAS  C:\Users\AHMEDH~1\AppData\Local\Temp\cclxJjJK.s 			page 255


 12624 48b6 01       		.uleb128 0x1
 12625 48b7 51       		.byte	0x51
 12626 48b8 02       		.uleb128 0x2
 12627 48b9 74       		.byte	0x74
 12628 48ba 00       		.sleb128 0
 12629 48bb 2C       		.uleb128 0x2c
 12630 48bc 01       		.uleb128 0x1
 12631 48bd 50       		.byte	0x50
 12632 48be 05       		.uleb128 0x5
 12633 48bf 03       		.byte	0x3
 12634 48c0 980C0000 		.4byte	.LANCHOR1+3224
 12635 48c4 00       		.byte	0
 12636 48c5 2B       		.uleb128 0x2b
 12637 48c6 38000000 		.4byte	.LVL342
 12638 48ca 2F470000 		.4byte	0x472f
 12639 48ce E2480000 		.4byte	0x48e2
 12640 48d2 2C       		.uleb128 0x2c
 12641 48d3 01       		.uleb128 0x1
 12642 48d4 51       		.byte	0x51
 12643 48d5 02       		.uleb128 0x2
 12644 48d6 74       		.byte	0x74
 12645 48d7 00       		.sleb128 0
 12646 48d8 2C       		.uleb128 0x2c
 12647 48d9 01       		.uleb128 0x1
 12648 48da 50       		.byte	0x50
 12649 48db 05       		.uleb128 0x5
 12650 48dc 03       		.byte	0x3
 12651 48dd 980C0000 		.4byte	.LANCHOR1+3224
 12652 48e1 00       		.byte	0
 12653 48e2 2E       		.uleb128 0x2e
 12654 48e3 40000000 		.4byte	.LVL343
 12655 48e7 714E0000 		.4byte	0x4e71
 12656 48eb 2E       		.uleb128 0x2e
 12657 48ec 4C000000 		.4byte	.LVL344
 12658 48f0 714E0000 		.4byte	0x4e71
 12659 48f4 00       		.byte	0
 12660 48f5 28       		.uleb128 0x28
 12661 48f6 422F0000 		.4byte	.LASF974
 12662 48fa 01       		.byte	0x1
 12663 48fb 58       		.byte	0x58
 12664 48fc 06490000 		.4byte	0x4906
 12665 4900 05       		.uleb128 0x5
 12666 4901 03       		.byte	0x3
 12667 4902 00000000 		.4byte	KIfaceFile
 12668 4906 07       		.uleb128 0x7
 12669 4907 16010000 		.4byte	0x116
 12670 490b 28       		.uleb128 0x28
 12671 490c 05150000 		.4byte	.LASF975
 12672 4910 01       		.byte	0x1
 12673 4911 88       		.byte	0x88
 12674 4912 A9000000 		.4byte	0xa9
 12675 4916 05       		.uleb128 0x5
 12676 4917 03       		.byte	0x3
 12677 4918 1A060000 		.4byte	gbMode
 12678 491c 28       		.uleb128 0x28
 12679 491d 64370000 		.4byte	.LASF976
 12680 4921 01       		.byte	0x1
ARM GAS  C:\Users\AHMEDH~1\AppData\Local\Temp\cclxJjJK.s 			page 256


 12681 4922 89       		.byte	0x89
 12682 4923 B4000000 		.4byte	0xb4
 12683 4927 05       		.uleb128 0x5
 12684 4928 03       		.byte	0x3
 12685 4929 18060000 		.4byte	gwSeqNum
 12686 492d 28       		.uleb128 0x28
 12687 492e 012B0000 		.4byte	.LASF977
 12688 4932 01       		.byte	0x1
 12689 4933 8A       		.byte	0x8a
 12690 4934 7D270000 		.4byte	0x277d
 12691 4938 05       		.uleb128 0x5
 12692 4939 03       		.byte	0x3
 12693 493a 04000000 		.4byte	gsSKey
 12694 493e 28       		.uleb128 0x28
 12695 493f 1C060000 		.4byte	.LASF978
 12696 4943 01       		.byte	0x1
 12697 4944 8B       		.byte	0x8b
 12698 4945 46010000 		.4byte	0x146
 12699 4949 05       		.uleb128 0x5
 12700 494a 03       		.byte	0x3
 12701 494b 880C0000 		.4byte	gabRRand
 12702 494f 28       		.uleb128 0x28
 12703 4950 7A180000 		.4byte	.LASF979
 12704 4954 01       		.byte	0x1
 12705 4955 8C       		.byte	0x8c
 12706 4956 46010000 		.4byte	0x146
 12707 495a 05       		.uleb128 0x5
 12708 495b 03       		.byte	0x3
 12709 495c 900C0000 		.4byte	gabTRand
 12710 4960 28       		.uleb128 0x28
 12711 4961 CF050000 		.4byte	.LASF980
 12712 4965 01       		.byte	0x1
 12713 4966 8F       		.byte	0x8f
 12714 4967 421B0000 		.4byte	0x1b42
 12715 496b 05       		.uleb128 0x5
 12716 496c 03       		.byte	0x3
 12717 496d 980C0000 		.4byte	gIfBuf
 12718 4971 28       		.uleb128 0x28
 12719 4972 8E170000 		.4byte	.LASF981
 12720 4976 01       		.byte	0x1
 12721 4977 90       		.byte	0x90
 12722 4978 421B0000 		.4byte	0x1b42
 12723 497c 05       		.uleb128 0x5
 12724 497d 03       		.byte	0x3
 12725 497e 18000000 		.4byte	gReqBuf
 12726 4982 28       		.uleb128 0x28
 12727 4983 9A020000 		.4byte	.LASF982
 12728 4987 01       		.byte	0x1
 12729 4988 91       		.byte	0x91
 12730 4989 421B0000 		.4byte	0x1b42
 12731 498d 05       		.uleb128 0x5
 12732 498e 03       		.byte	0x3
 12733 498f 88060000 		.4byte	gRspBuf
 12734 4993 28       		.uleb128 0x28
 12735 4994 9B110000 		.4byte	.LASF983
 12736 4998 01       		.byte	0x1
 12737 4999 92       		.byte	0x92
ARM GAS  C:\Users\AHMEDH~1\AppData\Local\Temp\cclxJjJK.s 			page 257


 12738 499a CD1F0000 		.4byte	0x1fcd
 12739 499e 05       		.uleb128 0x5
 12740 499f 03       		.byte	0x3
 12741 49a0 20060000 		.4byte	gTermTotal
 12742 49a4 47       		.uleb128 0x47
 12743 49a5 C93B0000 		.4byte	.LASF984
 12744 49a9 0F       		.byte	0xf
 12745 49aa 46       		.byte	0x46
 12746 49ab BF000000 		.4byte	0xbf
 12747 49af 47       		.uleb128 0x47
 12748 49b0 69190000 		.4byte	.LASF985
 12749 49b4 0B       		.byte	0xb
 12750 49b5 B9       		.byte	0xb9
 12751 49b6 BA490000 		.4byte	0x49ba
 12752 49ba 06       		.uleb128 0x6
 12753 49bb 04       		.byte	0x4
 12754 49bc 07210000 		.4byte	0x2107
 12755 49c0 47       		.uleb128 0x47
 12756 49c1 78210000 		.4byte	.LASF986
 12757 49c5 0C       		.byte	0xc
 12758 49c6 54       		.byte	0x54
 12759 49c7 58260000 		.4byte	0x2658
 12760 49cb 48       		.uleb128 0x48
 12761 49cc 2E350000 		.4byte	.LASF987
 12762 49d0 01       		.byte	0x1
 12763 49d1 8E       		.byte	0x8e
 12764 49d2 DC490000 		.4byte	0x49dc
 12765 49d6 05       		.uleb128 0x5
 12766 49d7 03       		.byte	0x3
 12767 49d8 00000000 		.4byte	gIfaceData
 12768 49dc 06       		.uleb128 0x6
 12769 49dd 04       		.byte	0x4
 12770 49de B4270000 		.4byte	0x27b4
 12771 49e2 09       		.uleb128 0x9
 12772 49e3 B4000000 		.4byte	0xb4
 12773 49e7 F2490000 		.4byte	0x49f2
 12774 49eb 0A       		.uleb128 0xa
 12775 49ec 76000000 		.4byte	0x76
 12776 49f0 12       		.byte	0x12
 12777 49f1 00       		.byte	0
 12778 49f2 48       		.uleb128 0x48
 12779 49f3 B4320000 		.4byte	.LASF988
 12780 49f7 01       		.byte	0x1
 12781 49f8 5A       		.byte	0x5a
 12782 49f9 034A0000 		.4byte	0x4a03
 12783 49fd 05       		.uleb128 0x5
 12784 49fe 03       		.byte	0x3
 12785 49ff 00000000 		.4byte	KItfSaleResp
 12786 4a03 07       		.uleb128 0x7
 12787 4a04 E2490000 		.4byte	0x49e2
 12788 4a08 09       		.uleb128 0x9
 12789 4a09 B4000000 		.4byte	0xb4
 12790 4a0d 184A0000 		.4byte	0x4a18
 12791 4a11 0A       		.uleb128 0xa
 12792 4a12 76000000 		.4byte	0x76
 12793 4a16 11       		.byte	0x11
 12794 4a17 00       		.byte	0
ARM GAS  C:\Users\AHMEDH~1\AppData\Local\Temp\cclxJjJK.s 			page 258


 12795 4a18 48       		.uleb128 0x48
 12796 4a19 6E200000 		.4byte	.LASF989
 12797 4a1d 01       		.byte	0x1
 12798 4a1e 62       		.byte	0x62
 12799 4a1f 294A0000 		.4byte	0x4a29
 12800 4a23 05       		.uleb128 0x5
 12801 4a24 03       		.byte	0x3
 12802 4a25 00000000 		.4byte	KItfOfflSaleResp
 12803 4a29 07       		.uleb128 0x7
 12804 4a2a 084A0000 		.4byte	0x4a08
 12805 4a2e 09       		.uleb128 0x9
 12806 4a2f B4000000 		.4byte	0xb4
 12807 4a33 3E4A0000 		.4byte	0x4a3e
 12808 4a37 0A       		.uleb128 0xa
 12809 4a38 76000000 		.4byte	0x76
 12810 4a3c 04       		.byte	0x4
 12811 4a3d 00       		.byte	0
 12812 4a3e 48       		.uleb128 0x48
 12813 4a3f 7E2A0000 		.4byte	.LASF990
 12814 4a43 01       		.byte	0x1
 12815 4a44 6A       		.byte	0x6a
 12816 4a45 4F4A0000 		.4byte	0x4a4f
 12817 4a49 05       		.uleb128 0x5
 12818 4a4a 03       		.byte	0x3
 12819 4a4b 00000000 		.4byte	KItfLastTrace
 12820 4a4f 07       		.uleb128 0x7
 12821 4a50 2E4A0000 		.4byte	0x4a2e
 12822 4a54 09       		.uleb128 0x9
 12823 4a55 B4000000 		.4byte	0xb4
 12824 4a59 644A0000 		.4byte	0x4a64
 12825 4a5d 0A       		.uleb128 0xa
 12826 4a5e 76000000 		.4byte	0x76
 12827 4a62 03       		.byte	0x3
 12828 4a63 00       		.byte	0
 12829 4a64 48       		.uleb128 0x48
 12830 4a65 E8390000 		.4byte	.LASF991
 12831 4a69 01       		.byte	0x1
 12832 4a6a 6E       		.byte	0x6e
 12833 4a6b 754A0000 		.4byte	0x4a75
 12834 4a6f 05       		.uleb128 0x5
 12835 4a70 03       		.byte	0x3
 12836 4a71 00000000 		.4byte	KItfHostNameResp
 12837 4a75 07       		.uleb128 0x7
 12838 4a76 544A0000 		.4byte	0x4a54
 12839 4a7a 48       		.uleb128 0x48
 12840 4a7b 9A250000 		.4byte	.LASF992
 12841 4a7f 01       		.byte	0x1
 12842 4a80 72       		.byte	0x72
 12843 4a81 8B4A0000 		.4byte	0x4a8b
 12844 4a85 05       		.uleb128 0x5
 12845 4a86 03       		.byte	0x3
 12846 4a87 00000000 		.4byte	KItfHostTotResp
 12847 4a8b 07       		.uleb128 0x7
 12848 4a8c 544A0000 		.4byte	0x4a54
 12849 4a90 48       		.uleb128 0x48
 12850 4a91 9C1B0000 		.4byte	.LASF993
 12851 4a95 01       		.byte	0x1
ARM GAS  C:\Users\AHMEDH~1\AppData\Local\Temp\cclxJjJK.s 			page 259


 12852 4a96 75       		.byte	0x75
 12853 4a97 A14A0000 		.4byte	0x4aa1
 12854 4a9b 05       		.uleb128 0x5
 12855 4a9c 03       		.byte	0x3
 12856 4a9d 00000000 		.4byte	KItfSettleResp
 12857 4aa1 07       		.uleb128 0x7
 12858 4aa2 544A0000 		.4byte	0x4a54
 12859 4aa6 09       		.uleb128 0x9
 12860 4aa7 732B0000 		.4byte	0x2b73
 12861 4aab B64A0000 		.4byte	0x4ab6
 12862 4aaf 0A       		.uleb128 0xa
 12863 4ab0 76000000 		.4byte	0x76
 12864 4ab4 09       		.byte	0x9
 12865 4ab5 00       		.byte	0
 12866 4ab6 48       		.uleb128 0x48
 12867 4ab7 661B0000 		.4byte	.LASF994
 12868 4abb 01       		.byte	0x1
 12869 4abc 78       		.byte	0x78
 12870 4abd A64A0000 		.4byte	0x4aa6
 12871 4ac1 05       		.uleb128 0x5
 12872 4ac2 03       		.byte	0x3
 12873 4ac3 00000000 		.4byte	KItfRespTbl
 12874 4ac7 49       		.uleb128 0x49
 12875 4ac8 87260000 		.4byte	.LASF996
 12876 4acc 05       		.byte	0x5
 12877 4acd A2       		.byte	0xa2
 12878 4ace BF000000 		.4byte	0xbf
 12879 4ad2 E14A0000 		.4byte	0x4ae1
 12880 4ad6 4A       		.uleb128 0x4a
 12881 4ad7 BF000000 		.4byte	0xbf
 12882 4adb 4A       		.uleb128 0x4a
 12883 4adc BF000000 		.4byte	0xbf
 12884 4ae0 00       		.byte	0
 12885 4ae1 4B       		.uleb128 0x4b
 12886 4ae2 C7150000 		.4byte	.LASF998
 12887 4ae6 7D000000 		.4byte	0x7d
 12888 4aea FE4A0000 		.4byte	0x4afe
 12889 4aee 4A       		.uleb128 0x4a
 12890 4aef 7D000000 		.4byte	0x7d
 12891 4af3 4A       		.uleb128 0x4a
 12892 4af4 97000000 		.4byte	0x97
 12893 4af8 4A       		.uleb128 0x4a
 12894 4af9 76000000 		.4byte	0x76
 12895 4afd 00       		.byte	0
 12896 4afe 49       		.uleb128 0x49
 12897 4aff 1D210000 		.4byte	.LASF999
 12898 4b03 05       		.byte	0x5
 12899 4b04 A0       		.byte	0xa0
 12900 4b05 BF000000 		.4byte	0xbf
 12901 4b09 274B0000 		.4byte	0x4b27
 12902 4b0d 4A       		.uleb128 0x4a
 12903 4b0e BF000000 		.4byte	0xbf
 12904 4b12 4A       		.uleb128 0x4a
 12905 4b13 BF000000 		.4byte	0xbf
 12906 4b17 4A       		.uleb128 0x4a
 12907 4b18 BF000000 		.4byte	0xbf
 12908 4b1c 4A       		.uleb128 0x4a
ARM GAS  C:\Users\AHMEDH~1\AppData\Local\Temp\cclxJjJK.s 			page 260


 12909 4b1d BF000000 		.4byte	0xbf
 12910 4b21 4A       		.uleb128 0x4a
 12911 4b22 BF000000 		.4byte	0xbf
 12912 4b26 00       		.byte	0
 12913 4b27 49       		.uleb128 0x49
 12914 4b28 45080000 		.4byte	.LASF1000
 12915 4b2c 10       		.byte	0x10
 12916 4b2d 1E       		.byte	0x1e
 12917 4b2e 7F000000 		.4byte	0x7f
 12918 4b32 414B0000 		.4byte	0x4b41
 12919 4b36 4A       		.uleb128 0x4a
 12920 4b37 7F000000 		.4byte	0x7f
 12921 4b3b 4A       		.uleb128 0x4a
 12922 4b3c 8C000000 		.4byte	0x8c
 12923 4b40 00       		.byte	0
 12924 4b41 4C       		.uleb128 0x4c
 12925 4b42 7E040000 		.4byte	.LASF1021
 12926 4b46 06       		.byte	0x6
 12927 4b47 34       		.byte	0x34
 12928 4b48 4B       		.uleb128 0x4b
 12929 4b49 EF010000 		.4byte	.LASF1001
 12930 4b4d 7D000000 		.4byte	0x7d
 12931 4b51 654B0000 		.4byte	0x4b65
 12932 4b55 4A       		.uleb128 0x4a
 12933 4b56 7D000000 		.4byte	0x7d
 12934 4b5a 4A       		.uleb128 0x4a
 12935 4b5b 37000000 		.4byte	0x37
 12936 4b5f 4A       		.uleb128 0x4a
 12937 4b60 76000000 		.4byte	0x76
 12938 4b64 00       		.byte	0
 12939 4b65 4D       		.uleb128 0x4d
 12940 4b66 44657300 		.ascii	"Des\000"
 12941 4b6a 11       		.byte	0x11
 12942 4b6b 38       		.byte	0x38
 12943 4b6c 804B0000 		.4byte	0x4b80
 12944 4b70 4A       		.uleb128 0x4a
 12945 4b71 F0000000 		.4byte	0xf0
 12946 4b75 4A       		.uleb128 0x4a
 12947 4b76 F0000000 		.4byte	0xf0
 12948 4b7a 4A       		.uleb128 0x4a
 12949 4b7b B4000000 		.4byte	0xb4
 12950 4b7f 00       		.byte	0
 12951 4b80 4E       		.uleb128 0x4e
 12952 4b81 10060000 		.4byte	.LASF1002
 12953 4b85 11       		.byte	0x11
 12954 4b86 39       		.byte	0x39
 12955 4b87 9B4B0000 		.4byte	0x4b9b
 12956 4b8b 4A       		.uleb128 0x4a
 12957 4b8c F0000000 		.4byte	0xf0
 12958 4b90 4A       		.uleb128 0x4a
 12959 4b91 F0000000 		.4byte	0xf0
 12960 4b95 4A       		.uleb128 0x4a
 12961 4b96 B4000000 		.4byte	0xb4
 12962 4b9a 00       		.byte	0
 12963 4b9b 4E       		.uleb128 0x4e
 12964 4b9c 75180000 		.4byte	.LASF1003
 12965 4ba0 11       		.byte	0x11
ARM GAS  C:\Users\AHMEDH~1\AppData\Local\Temp\cclxJjJK.s 			page 261


 12966 4ba1 3A       		.byte	0x3a
 12967 4ba2 B64B0000 		.4byte	0x4bb6
 12968 4ba6 4A       		.uleb128 0x4a
 12969 4ba7 F0000000 		.4byte	0xf0
 12970 4bab 4A       		.uleb128 0x4a
 12971 4bac F0000000 		.4byte	0xf0
 12972 4bb0 4A       		.uleb128 0x4a
 12973 4bb1 B4000000 		.4byte	0xb4
 12974 4bb5 00       		.byte	0
 12975 4bb6 4E       		.uleb128 0x4e
 12976 4bb7 4E260000 		.4byte	.LASF1004
 12977 4bbb 11       		.byte	0x11
 12978 4bbc 3B       		.byte	0x3b
 12979 4bbd D14B0000 		.4byte	0x4bd1
 12980 4bc1 4A       		.uleb128 0x4a
 12981 4bc2 F0000000 		.4byte	0xf0
 12982 4bc6 4A       		.uleb128 0x4a
 12983 4bc7 F0000000 		.4byte	0xf0
 12984 4bcb 4A       		.uleb128 0x4a
 12985 4bcc B4000000 		.4byte	0xb4
 12986 4bd0 00       		.byte	0
 12987 4bd1 4E       		.uleb128 0x4e
 12988 4bd2 CC0F0000 		.4byte	.LASF1005
 12989 4bd6 12       		.byte	0x12
 12990 4bd7 38       		.byte	0x38
 12991 4bd8 E74B0000 		.4byte	0x4be7
 12992 4bdc 4A       		.uleb128 0x4a
 12993 4bdd F0000000 		.4byte	0xf0
 12994 4be1 4A       		.uleb128 0x4a
 12995 4be2 B4000000 		.4byte	0xb4
 12996 4be6 00       		.byte	0
 12997 4be7 4E       		.uleb128 0x4e
 12998 4be8 C1320000 		.4byte	.LASF1006
 12999 4bec 11       		.byte	0x11
 13000 4bed 34       		.byte	0x34
 13001 4bee FD4B0000 		.4byte	0x4bfd
 13002 4bf2 4A       		.uleb128 0x4a
 13003 4bf3 F0000000 		.4byte	0xf0
 13004 4bf7 4A       		.uleb128 0x4a
 13005 4bf8 BF000000 		.4byte	0xbf
 13006 4bfc 00       		.byte	0
 13007 4bfd 49       		.uleb128 0x49
 13008 4bfe 7A0C0000 		.4byte	.LASF1007
 13009 4c02 11       		.byte	0x11
 13010 4c03 35       		.byte	0x35
 13011 4c04 B4000000 		.4byte	0xb4
 13012 4c08 124C0000 		.4byte	0x4c12
 13013 4c0c 4A       		.uleb128 0x4a
 13014 4c0d D5000000 		.4byte	0xd5
 13015 4c11 00       		.byte	0
 13016 4c12 49       		.uleb128 0x49
 13017 4c13 081A0000 		.4byte	.LASF1008
 13018 4c17 11       		.byte	0x11
 13019 4c18 3D       		.byte	0x3d
 13020 4c19 B4000000 		.4byte	0xb4
 13021 4c1d 314C0000 		.4byte	0x4c31
 13022 4c21 4A       		.uleb128 0x4a
ARM GAS  C:\Users\AHMEDH~1\AppData\Local\Temp\cclxJjJK.s 			page 262


 13023 4c22 F0000000 		.4byte	0xf0
 13024 4c26 4A       		.uleb128 0x4a
 13025 4c27 B4000000 		.4byte	0xb4
 13026 4c2b 4A       		.uleb128 0x4a
 13027 4c2c B4000000 		.4byte	0xb4
 13028 4c30 00       		.byte	0
 13029 4c31 4E       		.uleb128 0x4e
 13030 4c32 760A0000 		.4byte	.LASF1009
 13031 4c36 06       		.byte	0x6
 13032 4c37 62       		.byte	0x62
 13033 4c38 424C0000 		.4byte	0x4c42
 13034 4c3c 4A       		.uleb128 0x4a
 13035 4c3d 7D000000 		.4byte	0x7d
 13036 4c41 00       		.byte	0
 13037 4c42 4E       		.uleb128 0x4e
 13038 4c43 A5300000 		.4byte	.LASF1010
 13039 4c47 13       		.byte	0x13
 13040 4c48 29       		.byte	0x29
 13041 4c49 5D4C0000 		.4byte	0x4c5d
 13042 4c4d 4A       		.uleb128 0x4a
 13043 4c4e F0000000 		.4byte	0xf0
 13044 4c52 4A       		.uleb128 0x4a
 13045 4c53 F0000000 		.4byte	0xf0
 13046 4c57 4A       		.uleb128 0x4a
 13047 4c58 BF000000 		.4byte	0xbf
 13048 4c5c 00       		.byte	0
 13049 4c5d 49       		.uleb128 0x49
 13050 4c5e E1270000 		.4byte	.LASF1011
 13051 4c62 13       		.byte	0x13
 13052 4c63 24       		.byte	0x24
 13053 4c64 BF000000 		.4byte	0xbf
 13054 4c68 7C4C0000 		.4byte	0x4c7c
 13055 4c6c 4A       		.uleb128 0x4a
 13056 4c6d F0000000 		.4byte	0xf0
 13057 4c71 4A       		.uleb128 0x4a
 13058 4c72 BF000000 		.4byte	0xbf
 13059 4c76 4A       		.uleb128 0x4a
 13060 4c77 BF000000 		.4byte	0xbf
 13061 4c7b 00       		.byte	0
 13062 4c7c 4E       		.uleb128 0x4e
 13063 4c7d A40E0000 		.4byte	.LASF1012
 13064 4c81 12       		.byte	0x12
 13065 4c82 35       		.byte	0x35
 13066 4c83 924C0000 		.4byte	0x4c92
 13067 4c87 4A       		.uleb128 0x4a
 13068 4c88 F0000000 		.4byte	0xf0
 13069 4c8c 4A       		.uleb128 0x4a
 13070 4c8d CA000000 		.4byte	0xca
 13071 4c91 00       		.byte	0
 13072 4c92 49       		.uleb128 0x49
 13073 4c93 7C050000 		.4byte	.LASF1013
 13074 4c97 12       		.byte	0x12
 13075 4c98 44       		.byte	0x44
 13076 4c99 B4000000 		.4byte	0xb4
 13077 4c9d B64C0000 		.4byte	0x4cb6
 13078 4ca1 4A       		.uleb128 0x4a
 13079 4ca2 B4000000 		.4byte	0xb4
ARM GAS  C:\Users\AHMEDH~1\AppData\Local\Temp\cclxJjJK.s 			page 263


 13080 4ca6 4A       		.uleb128 0x4a
 13081 4ca7 B4000000 		.4byte	0xb4
 13082 4cab 4A       		.uleb128 0x4a
 13083 4cac F0000000 		.4byte	0xf0
 13084 4cb0 4A       		.uleb128 0x4a
 13085 4cb1 F0000000 		.4byte	0xf0
 13086 4cb5 00       		.byte	0
 13087 4cb6 4E       		.uleb128 0x4e
 13088 4cb7 3C200000 		.4byte	.LASF1014
 13089 4cbb 14       		.byte	0x14
 13090 4cbc 28       		.byte	0x28
 13091 4cbd C74C0000 		.4byte	0x4cc7
 13092 4cc1 4A       		.uleb128 0x4a
 13093 4cc2 BF000000 		.4byte	0xbf
 13094 4cc6 00       		.byte	0
 13095 4cc7 4E       		.uleb128 0x4e
 13096 4cc8 91110000 		.4byte	.LASF1015
 13097 4ccc 0C       		.byte	0xc
 13098 4ccd 6C       		.byte	0x6c
 13099 4cce D84C0000 		.4byte	0x4cd8
 13100 4cd2 4A       		.uleb128 0x4a
 13101 4cd3 9E000000 		.4byte	0x9e
 13102 4cd7 00       		.byte	0
 13103 4cd8 4F       		.uleb128 0x4f
 13104 4cd9 AF1E0000 		.4byte	.LASF1017
 13105 4cdd 15       		.byte	0x15
 13106 4cde 2A       		.byte	0x2a
 13107 4cdf 9E000000 		.4byte	0x9e
 13108 4ce3 49       		.uleb128 0x49
 13109 4ce4 5B2F0000 		.4byte	.LASF1018
 13110 4ce8 11       		.byte	0x11
 13111 4ce9 33       		.byte	0x33
 13112 4cea BF000000 		.4byte	0xbf
 13113 4cee F84C0000 		.4byte	0x4cf8
 13114 4cf2 4A       		.uleb128 0x4a
 13115 4cf3 D5000000 		.4byte	0xd5
 13116 4cf7 00       		.byte	0
 13117 4cf8 49       		.uleb128 0x49
 13118 4cf9 EB130000 		.4byte	.LASF1019
 13119 4cfd 10       		.byte	0x10
 13120 4cfe 16       		.byte	0x16
 13121 4cff 37000000 		.4byte	0x37
 13122 4d03 174D0000 		.4byte	0x4d17
 13123 4d07 4A       		.uleb128 0x4a
 13124 4d08 97000000 		.4byte	0x97
 13125 4d0c 4A       		.uleb128 0x4a
 13126 4d0d 97000000 		.4byte	0x97
 13127 4d11 4A       		.uleb128 0x4a
 13128 4d12 25000000 		.4byte	0x25
 13129 4d16 00       		.byte	0
 13130 4d17 4E       		.uleb128 0x4e
 13131 4d18 88210000 		.4byte	.LASF1020
 13132 4d1c 11       		.byte	0x11
 13133 4d1d 3E       		.byte	0x3e
 13134 4d1e 2D4D0000 		.4byte	0x4d2d
 13135 4d22 4A       		.uleb128 0x4a
 13136 4d23 F0000000 		.4byte	0xf0
ARM GAS  C:\Users\AHMEDH~1\AppData\Local\Temp\cclxJjJK.s 			page 264


 13137 4d27 4A       		.uleb128 0x4a
 13138 4d28 B4000000 		.4byte	0xb4
 13139 4d2c 00       		.byte	0
 13140 4d2d 4C       		.uleb128 0x4c
 13141 4d2e F1290000 		.4byte	.LASF1022
 13142 4d32 0C       		.byte	0xc
 13143 4d33 63       		.byte	0x63
 13144 4d34 4C       		.uleb128 0x4c
 13145 4d35 FE040000 		.4byte	.LASF1023
 13146 4d39 06       		.byte	0x6
 13147 4d3a 2F       		.byte	0x2f
 13148 4d3b 49       		.uleb128 0x49
 13149 4d3c 47100000 		.4byte	.LASF1024
 13150 4d40 12       		.byte	0x12
 13151 4d41 41       		.byte	0x41
 13152 4d42 F0000000 		.4byte	0xf0
 13153 4d46 5A4D0000 		.4byte	0x4d5a
 13154 4d4a 4A       		.uleb128 0x4a
 13155 4d4b F0000000 		.4byte	0xf0
 13156 4d4f 4A       		.uleb128 0x4a
 13157 4d50 B4000000 		.4byte	0xb4
 13158 4d54 4A       		.uleb128 0x4a
 13159 4d55 B4000000 		.4byte	0xb4
 13160 4d59 00       		.byte	0
 13161 4d5a 49       		.uleb128 0x49
 13162 4d5b 370D0000 		.4byte	.LASF1025
 13163 4d5f 12       		.byte	0x12
 13164 4d60 40       		.byte	0x40
 13165 4d61 F0000000 		.4byte	0xf0
 13166 4d65 6F4D0000 		.4byte	0x4d6f
 13167 4d69 4A       		.uleb128 0x4a
 13168 4d6a F0000000 		.4byte	0xf0
 13169 4d6e 00       		.byte	0
 13170 4d6f 49       		.uleb128 0x49
 13171 4d70 43180000 		.4byte	.LASF1026
 13172 4d74 12       		.byte	0x12
 13173 4d75 3F       		.byte	0x3f
 13174 4d76 B4000000 		.4byte	0xb4
 13175 4d7a 844D0000 		.4byte	0x4d84
 13176 4d7e 4A       		.uleb128 0x4a
 13177 4d7f F0000000 		.4byte	0xf0
 13178 4d83 00       		.byte	0
 13179 4d84 49       		.uleb128 0x49
 13180 4d85 5E0D0000 		.4byte	.LASF1027
 13181 4d89 16       		.byte	0x16
 13182 4d8a 3A       		.byte	0x3a
 13183 4d8b BF000000 		.4byte	0xbf
 13184 4d8f 994D0000 		.4byte	0x4d99
 13185 4d93 4A       		.uleb128 0x4a
 13186 4d94 37000000 		.4byte	0x37
 13187 4d98 00       		.byte	0
 13188 4d99 4C       		.uleb128 0x4c
 13189 4d9a EF0C0000 		.4byte	.LASF1028
 13190 4d9e 0C       		.byte	0xc
 13191 4d9f 75       		.byte	0x75
 13192 4da0 49       		.uleb128 0x49
 13193 4da1 081E0000 		.4byte	.LASF1029
ARM GAS  C:\Users\AHMEDH~1\AppData\Local\Temp\cclxJjJK.s 			page 265


 13194 4da5 13       		.byte	0x13
 13195 4da6 14       		.byte	0x14
 13196 4da7 F0000000 		.4byte	0xf0
 13197 4dab BA4D0000 		.4byte	0x4dba
 13198 4daf 4A       		.uleb128 0x4a
 13199 4db0 F0000000 		.4byte	0xf0
 13200 4db4 4A       		.uleb128 0x4a
 13201 4db5 BF000000 		.4byte	0xbf
 13202 4db9 00       		.byte	0
 13203 4dba 49       		.uleb128 0x49
 13204 4dbb 99120000 		.4byte	.LASF1030
 13205 4dbf 17       		.byte	0x17
 13206 4dc0 DD       		.byte	0xdd
 13207 4dc1 37000000 		.4byte	0x37
 13208 4dc5 D54D0000 		.4byte	0x4dd5
 13209 4dc9 4A       		.uleb128 0x4a
 13210 4dca 7F000000 		.4byte	0x7f
 13211 4dce 4A       		.uleb128 0x4a
 13212 4dcf 8C000000 		.4byte	0x8c
 13213 4dd3 50       		.uleb128 0x50
 13214 4dd4 00       		.byte	0
 13215 4dd5 49       		.uleb128 0x49
 13216 4dd6 A73A0000 		.4byte	.LASF1031
 13217 4dda 10       		.byte	0x10
 13218 4ddb 21       		.byte	0x21
 13219 4ddc 25000000 		.4byte	0x25
 13220 4de0 EA4D0000 		.4byte	0x4dea
 13221 4de4 4A       		.uleb128 0x4a
 13222 4de5 8C000000 		.4byte	0x8c
 13223 4de9 00       		.byte	0
 13224 4dea 4E       		.uleb128 0x4e
 13225 4deb 12220000 		.4byte	.LASF1032
 13226 4def 13       		.byte	0x13
 13227 4df0 08       		.byte	0x8
 13228 4df1 004E0000 		.4byte	0x4e00
 13229 4df5 4A       		.uleb128 0x4a
 13230 4df6 F0000000 		.4byte	0xf0
 13231 4dfa 4A       		.uleb128 0x4a
 13232 4dfb BF000000 		.4byte	0xbf
 13233 4dff 00       		.byte	0
 13234 4e00 4E       		.uleb128 0x4e
 13235 4e01 4E210000 		.4byte	.LASF1033
 13236 4e05 13       		.byte	0x13
 13237 4e06 21       		.byte	0x21
 13238 4e07 164E0000 		.4byte	0x4e16
 13239 4e0b 4A       		.uleb128 0x4a
 13240 4e0c F0000000 		.4byte	0xf0
 13241 4e10 4A       		.uleb128 0x4a
 13242 4e11 BF000000 		.4byte	0xbf
 13243 4e15 00       		.byte	0
 13244 4e16 4F       		.uleb128 0x4f
 13245 4e17 C9310000 		.4byte	.LASF1034
 13246 4e1b 18       		.byte	0x18
 13247 4e1c 1F       		.byte	0x1f
 13248 4e1d 9E000000 		.4byte	0x9e
 13249 4e21 49       		.uleb128 0x49
 13250 4e22 7D260000 		.4byte	.LASF1035
ARM GAS  C:\Users\AHMEDH~1\AppData\Local\Temp\cclxJjJK.s 			page 266


 13251 4e26 05       		.byte	0x5
 13252 4e27 A1       		.byte	0xa1
 13253 4e28 BF000000 		.4byte	0xbf
 13254 4e2c 364E0000 		.4byte	0x4e36
 13255 4e30 4A       		.uleb128 0x4a
 13256 4e31 BF000000 		.4byte	0xbf
 13257 4e35 00       		.byte	0
 13258 4e36 4F       		.uleb128 0x4f
 13259 4e37 95080000 		.4byte	.LASF1036
 13260 4e3b 18       		.byte	0x18
 13261 4e3c 24       		.byte	0x24
 13262 4e3d 9E000000 		.4byte	0x9e
 13263 4e41 4F       		.uleb128 0x4f
 13264 4e42 DD260000 		.4byte	.LASF1037
 13265 4e46 13       		.byte	0x13
 13266 4e47 16       		.byte	0x16
 13267 4e48 BF000000 		.4byte	0xbf
 13268 4e4c 49       		.uleb128 0x49
 13269 4e4d 2E010000 		.4byte	.LASF1038
 13270 4e51 18       		.byte	0x18
 13271 4e52 22       		.byte	0x22
 13272 4e53 9E000000 		.4byte	0x9e
 13273 4e57 664E0000 		.4byte	0x4e66
 13274 4e5b 4A       		.uleb128 0x4a
 13275 4e5c F0000000 		.4byte	0xf0
 13276 4e60 4A       		.uleb128 0x4a
 13277 4e61 BF000000 		.4byte	0xbf
 13278 4e65 00       		.byte	0
 13279 4e66 4F       		.uleb128 0x4f
 13280 4e67 8D370000 		.4byte	.LASF1039
 13281 4e6b 18       		.byte	0x18
 13282 4e6c 20       		.byte	0x20
 13283 4e6d 9E000000 		.4byte	0x9e
 13284 4e71 4F       		.uleb128 0x4f
 13285 4e72 FD280000 		.4byte	.LASF1040
 13286 4e76 06       		.byte	0x6
 13287 4e77 49       		.byte	0x49
 13288 4e78 BF000000 		.4byte	0xbf
 13289 4e7c 00       		.byte	0
 13290              		.section	.debug_abbrev,"",%progbits
 13291              	.Ldebug_abbrev0:
 13292 0000 01       		.uleb128 0x1
 13293 0001 11       		.uleb128 0x11
 13294 0002 01       		.byte	0x1
 13295 0003 25       		.uleb128 0x25
 13296 0004 0E       		.uleb128 0xe
 13297 0005 13       		.uleb128 0x13
 13298 0006 0B       		.uleb128 0xb
 13299 0007 03       		.uleb128 0x3
 13300 0008 0E       		.uleb128 0xe
 13301 0009 1B       		.uleb128 0x1b
 13302 000a 0E       		.uleb128 0xe
 13303 000b 55       		.uleb128 0x55
 13304 000c 17       		.uleb128 0x17
 13305 000d 11       		.uleb128 0x11
 13306 000e 01       		.uleb128 0x1
 13307 000f 10       		.uleb128 0x10
ARM GAS  C:\Users\AHMEDH~1\AppData\Local\Temp\cclxJjJK.s 			page 267


 13308 0010 17       		.uleb128 0x17
 13309 0011 00       		.byte	0
 13310 0012 00       		.byte	0
 13311 0013 02       		.uleb128 0x2
 13312 0014 16       		.uleb128 0x16
 13313 0015 00       		.byte	0
 13314 0016 03       		.uleb128 0x3
 13315 0017 0E       		.uleb128 0xe
 13316 0018 3A       		.uleb128 0x3a
 13317 0019 0B       		.uleb128 0xb
 13318 001a 3B       		.uleb128 0x3b
 13319 001b 0B       		.uleb128 0xb
 13320 001c 49       		.uleb128 0x49
 13321 001d 13       		.uleb128 0x13
 13322 001e 00       		.byte	0
 13323 001f 00       		.byte	0
 13324 0020 03       		.uleb128 0x3
 13325 0021 24       		.uleb128 0x24
 13326 0022 00       		.byte	0
 13327 0023 0B       		.uleb128 0xb
 13328 0024 0B       		.uleb128 0xb
 13329 0025 3E       		.uleb128 0x3e
 13330 0026 0B       		.uleb128 0xb
 13331 0027 03       		.uleb128 0x3
 13332 0028 0E       		.uleb128 0xe
 13333 0029 00       		.byte	0
 13334 002a 00       		.byte	0
 13335 002b 04       		.uleb128 0x4
 13336 002c 24       		.uleb128 0x24
 13337 002d 00       		.byte	0
 13338 002e 0B       		.uleb128 0xb
 13339 002f 0B       		.uleb128 0xb
 13340 0030 3E       		.uleb128 0x3e
 13341 0031 0B       		.uleb128 0xb
 13342 0032 03       		.uleb128 0x3
 13343 0033 08       		.uleb128 0x8
 13344 0034 00       		.byte	0
 13345 0035 00       		.byte	0
 13346 0036 05       		.uleb128 0x5
 13347 0037 0F       		.uleb128 0xf
 13348 0038 00       		.byte	0
 13349 0039 0B       		.uleb128 0xb
 13350 003a 0B       		.uleb128 0xb
 13351 003b 00       		.byte	0
 13352 003c 00       		.byte	0
 13353 003d 06       		.uleb128 0x6
 13354 003e 0F       		.uleb128 0xf
 13355 003f 00       		.byte	0
 13356 0040 0B       		.uleb128 0xb
 13357 0041 0B       		.uleb128 0xb
 13358 0042 49       		.uleb128 0x49
 13359 0043 13       		.uleb128 0x13
 13360 0044 00       		.byte	0
 13361 0045 00       		.byte	0
 13362 0046 07       		.uleb128 0x7
 13363 0047 26       		.uleb128 0x26
 13364 0048 00       		.byte	0
ARM GAS  C:\Users\AHMEDH~1\AppData\Local\Temp\cclxJjJK.s 			page 268


 13365 0049 49       		.uleb128 0x49
 13366 004a 13       		.uleb128 0x13
 13367 004b 00       		.byte	0
 13368 004c 00       		.byte	0
 13369 004d 08       		.uleb128 0x8
 13370 004e 26       		.uleb128 0x26
 13371 004f 00       		.byte	0
 13372 0050 00       		.byte	0
 13373 0051 00       		.byte	0
 13374 0052 09       		.uleb128 0x9
 13375 0053 01       		.uleb128 0x1
 13376 0054 01       		.byte	0x1
 13377 0055 49       		.uleb128 0x49
 13378 0056 13       		.uleb128 0x13
 13379 0057 01       		.uleb128 0x1
 13380 0058 13       		.uleb128 0x13
 13381 0059 00       		.byte	0
 13382 005a 00       		.byte	0
 13383 005b 0A       		.uleb128 0xa
 13384 005c 21       		.uleb128 0x21
 13385 005d 00       		.byte	0
 13386 005e 49       		.uleb128 0x49
 13387 005f 13       		.uleb128 0x13
 13388 0060 2F       		.uleb128 0x2f
 13389 0061 0B       		.uleb128 0xb
 13390 0062 00       		.byte	0
 13391 0063 00       		.byte	0
 13392 0064 0B       		.uleb128 0xb
 13393 0065 04       		.uleb128 0x4
 13394 0066 01       		.byte	0x1
 13395 0067 03       		.uleb128 0x3
 13396 0068 0E       		.uleb128 0xe
 13397 0069 0B       		.uleb128 0xb
 13398 006a 0B       		.uleb128 0xb
 13399 006b 3A       		.uleb128 0x3a
 13400 006c 0B       		.uleb128 0xb
 13401 006d 3B       		.uleb128 0x3b
 13402 006e 05       		.uleb128 0x5
 13403 006f 01       		.uleb128 0x1
 13404 0070 13       		.uleb128 0x13
 13405 0071 00       		.byte	0
 13406 0072 00       		.byte	0
 13407 0073 0C       		.uleb128 0xc
 13408 0074 28       		.uleb128 0x28
 13409 0075 00       		.byte	0
 13410 0076 03       		.uleb128 0x3
 13411 0077 0E       		.uleb128 0xe
 13412 0078 1C       		.uleb128 0x1c
 13413 0079 0D       		.uleb128 0xd
 13414 007a 00       		.byte	0
 13415 007b 00       		.byte	0
 13416 007c 0D       		.uleb128 0xd
 13417 007d 04       		.uleb128 0x4
 13418 007e 01       		.byte	0x1
 13419 007f 0B       		.uleb128 0xb
 13420 0080 0B       		.uleb128 0xb
 13421 0081 3A       		.uleb128 0x3a
ARM GAS  C:\Users\AHMEDH~1\AppData\Local\Temp\cclxJjJK.s 			page 269


 13422 0082 0B       		.uleb128 0xb
 13423 0083 3B       		.uleb128 0x3b
 13424 0084 05       		.uleb128 0x5
 13425 0085 01       		.uleb128 0x1
 13426 0086 13       		.uleb128 0x13
 13427 0087 00       		.byte	0
 13428 0088 00       		.byte	0
 13429 0089 0E       		.uleb128 0xe
 13430 008a 13       		.uleb128 0x13
 13431 008b 01       		.byte	0x1
 13432 008c 03       		.uleb128 0x3
 13433 008d 0E       		.uleb128 0xe
 13434 008e 0B       		.uleb128 0xb
 13435 008f 0B       		.uleb128 0xb
 13436 0090 3A       		.uleb128 0x3a
 13437 0091 0B       		.uleb128 0xb
 13438 0092 3B       		.uleb128 0x3b
 13439 0093 05       		.uleb128 0x5
 13440 0094 01       		.uleb128 0x1
 13441 0095 13       		.uleb128 0x13
 13442 0096 00       		.byte	0
 13443 0097 00       		.byte	0
 13444 0098 0F       		.uleb128 0xf
 13445 0099 0D       		.uleb128 0xd
 13446 009a 00       		.byte	0
 13447 009b 03       		.uleb128 0x3
 13448 009c 0E       		.uleb128 0xe
 13449 009d 3A       		.uleb128 0x3a
 13450 009e 0B       		.uleb128 0xb
 13451 009f 3B       		.uleb128 0x3b
 13452 00a0 05       		.uleb128 0x5
 13453 00a1 49       		.uleb128 0x49
 13454 00a2 13       		.uleb128 0x13
 13455 00a3 38       		.uleb128 0x38
 13456 00a4 0B       		.uleb128 0xb
 13457 00a5 00       		.byte	0
 13458 00a6 00       		.byte	0
 13459 00a7 10       		.uleb128 0x10
 13460 00a8 13       		.uleb128 0x13
 13461 00a9 01       		.byte	0x1
 13462 00aa 03       		.uleb128 0x3
 13463 00ab 0E       		.uleb128 0xe
 13464 00ac 0B       		.uleb128 0xb
 13465 00ad 0B       		.uleb128 0xb
 13466 00ae 3A       		.uleb128 0x3a
 13467 00af 0B       		.uleb128 0xb
 13468 00b0 3B       		.uleb128 0x3b
 13469 00b1 0B       		.uleb128 0xb
 13470 00b2 01       		.uleb128 0x1
 13471 00b3 13       		.uleb128 0x13
 13472 00b4 00       		.byte	0
 13473 00b5 00       		.byte	0
 13474 00b6 11       		.uleb128 0x11
 13475 00b7 0D       		.uleb128 0xd
 13476 00b8 00       		.byte	0
 13477 00b9 03       		.uleb128 0x3
 13478 00ba 0E       		.uleb128 0xe
ARM GAS  C:\Users\AHMEDH~1\AppData\Local\Temp\cclxJjJK.s 			page 270


 13479 00bb 3A       		.uleb128 0x3a
 13480 00bc 0B       		.uleb128 0xb
 13481 00bd 3B       		.uleb128 0x3b
 13482 00be 0B       		.uleb128 0xb
 13483 00bf 49       		.uleb128 0x49
 13484 00c0 13       		.uleb128 0x13
 13485 00c1 38       		.uleb128 0x38
 13486 00c2 0B       		.uleb128 0xb
 13487 00c3 00       		.byte	0
 13488 00c4 00       		.byte	0
 13489 00c5 12       		.uleb128 0x12
 13490 00c6 13       		.uleb128 0x13
 13491 00c7 01       		.byte	0x1
 13492 00c8 0B       		.uleb128 0xb
 13493 00c9 0B       		.uleb128 0xb
 13494 00ca 3A       		.uleb128 0x3a
 13495 00cb 0B       		.uleb128 0xb
 13496 00cc 3B       		.uleb128 0x3b
 13497 00cd 0B       		.uleb128 0xb
 13498 00ce 01       		.uleb128 0x1
 13499 00cf 13       		.uleb128 0x13
 13500 00d0 00       		.byte	0
 13501 00d1 00       		.byte	0
 13502 00d2 13       		.uleb128 0x13
 13503 00d3 16       		.uleb128 0x16
 13504 00d4 00       		.byte	0
 13505 00d5 03       		.uleb128 0x3
 13506 00d6 08       		.uleb128 0x8
 13507 00d7 3A       		.uleb128 0x3a
 13508 00d8 0B       		.uleb128 0xb
 13509 00d9 3B       		.uleb128 0x3b
 13510 00da 0B       		.uleb128 0xb
 13511 00db 49       		.uleb128 0x49
 13512 00dc 13       		.uleb128 0x13
 13513 00dd 00       		.byte	0
 13514 00de 00       		.byte	0
 13515 00df 14       		.uleb128 0x14
 13516 00e0 04       		.uleb128 0x4
 13517 00e1 01       		.byte	0x1
 13518 00e2 0B       		.uleb128 0xb
 13519 00e3 0B       		.uleb128 0xb
 13520 00e4 3A       		.uleb128 0x3a
 13521 00e5 0B       		.uleb128 0xb
 13522 00e6 3B       		.uleb128 0x3b
 13523 00e7 0B       		.uleb128 0xb
 13524 00e8 01       		.uleb128 0x1
 13525 00e9 13       		.uleb128 0x13
 13526 00ea 00       		.byte	0
 13527 00eb 00       		.byte	0
 13528 00ec 15       		.uleb128 0x15
 13529 00ed 13       		.uleb128 0x13
 13530 00ee 01       		.byte	0x1
 13531 00ef 03       		.uleb128 0x3
 13532 00f0 0E       		.uleb128 0xe
 13533 00f1 0B       		.uleb128 0xb
 13534 00f2 05       		.uleb128 0x5
 13535 00f3 3A       		.uleb128 0x3a
ARM GAS  C:\Users\AHMEDH~1\AppData\Local\Temp\cclxJjJK.s 			page 271


 13536 00f4 0B       		.uleb128 0xb
 13537 00f5 3B       		.uleb128 0x3b
 13538 00f6 05       		.uleb128 0x5
 13539 00f7 01       		.uleb128 0x1
 13540 00f8 13       		.uleb128 0x13
 13541 00f9 00       		.byte	0
 13542 00fa 00       		.byte	0
 13543 00fb 16       		.uleb128 0x16
 13544 00fc 21       		.uleb128 0x21
 13545 00fd 00       		.byte	0
 13546 00fe 49       		.uleb128 0x49
 13547 00ff 13       		.uleb128 0x13
 13548 0100 2F       		.uleb128 0x2f
 13549 0101 05       		.uleb128 0x5
 13550 0102 00       		.byte	0
 13551 0103 00       		.byte	0
 13552 0104 17       		.uleb128 0x17
 13553 0105 0D       		.uleb128 0xd
 13554 0106 00       		.byte	0
 13555 0107 03       		.uleb128 0x3
 13556 0108 0E       		.uleb128 0xe
 13557 0109 3A       		.uleb128 0x3a
 13558 010a 0B       		.uleb128 0xb
 13559 010b 3B       		.uleb128 0x3b
 13560 010c 05       		.uleb128 0x5
 13561 010d 49       		.uleb128 0x49
 13562 010e 13       		.uleb128 0x13
 13563 010f 38       		.uleb128 0x38
 13564 0110 05       		.uleb128 0x5
 13565 0111 00       		.byte	0
 13566 0112 00       		.byte	0
 13567 0113 18       		.uleb128 0x18
 13568 0114 13       		.uleb128 0x13
 13569 0115 01       		.byte	0x1
 13570 0116 0B       		.uleb128 0xb
 13571 0117 0B       		.uleb128 0xb
 13572 0118 3A       		.uleb128 0x3a
 13573 0119 0B       		.uleb128 0xb
 13574 011a 3B       		.uleb128 0x3b
 13575 011b 05       		.uleb128 0x5
 13576 011c 01       		.uleb128 0x1
 13577 011d 13       		.uleb128 0x13
 13578 011e 00       		.byte	0
 13579 011f 00       		.byte	0
 13580 0120 19       		.uleb128 0x19
 13581 0121 16       		.uleb128 0x16
 13582 0122 00       		.byte	0
 13583 0123 03       		.uleb128 0x3
 13584 0124 0E       		.uleb128 0xe
 13585 0125 3A       		.uleb128 0x3a
 13586 0126 0B       		.uleb128 0xb
 13587 0127 3B       		.uleb128 0x3b
 13588 0128 05       		.uleb128 0x5
 13589 0129 49       		.uleb128 0x49
 13590 012a 13       		.uleb128 0x13
 13591 012b 00       		.byte	0
 13592 012c 00       		.byte	0
ARM GAS  C:\Users\AHMEDH~1\AppData\Local\Temp\cclxJjJK.s 			page 272


 13593 012d 1A       		.uleb128 0x1a
 13594 012e 13       		.uleb128 0x13
 13595 012f 01       		.byte	0x1
 13596 0130 03       		.uleb128 0x3
 13597 0131 0E       		.uleb128 0xe
 13598 0132 0B       		.uleb128 0xb
 13599 0133 05       		.uleb128 0x5
 13600 0134 3A       		.uleb128 0x3a
 13601 0135 0B       		.uleb128 0xb
 13602 0136 3B       		.uleb128 0x3b
 13603 0137 0B       		.uleb128 0xb
 13604 0138 01       		.uleb128 0x1
 13605 0139 13       		.uleb128 0x13
 13606 013a 00       		.byte	0
 13607 013b 00       		.byte	0
 13608 013c 1B       		.uleb128 0x1b
 13609 013d 0D       		.uleb128 0xd
 13610 013e 00       		.byte	0
 13611 013f 03       		.uleb128 0x3
 13612 0140 0E       		.uleb128 0xe
 13613 0141 3A       		.uleb128 0x3a
 13614 0142 0B       		.uleb128 0xb
 13615 0143 3B       		.uleb128 0x3b
 13616 0144 0B       		.uleb128 0xb
 13617 0145 49       		.uleb128 0x49
 13618 0146 13       		.uleb128 0x13
 13619 0147 38       		.uleb128 0x38
 13620 0148 05       		.uleb128 0x5
 13621 0149 00       		.byte	0
 13622 014a 00       		.byte	0
 13623 014b 1C       		.uleb128 0x1c
 13624 014c 13       		.uleb128 0x13
 13625 014d 01       		.byte	0x1
 13626 014e 03       		.uleb128 0x3
 13627 014f 08       		.uleb128 0x8
 13628 0150 0B       		.uleb128 0xb
 13629 0151 05       		.uleb128 0x5
 13630 0152 3A       		.uleb128 0x3a
 13631 0153 0B       		.uleb128 0xb
 13632 0154 3B       		.uleb128 0x3b
 13633 0155 0B       		.uleb128 0xb
 13634 0156 01       		.uleb128 0x1
 13635 0157 13       		.uleb128 0x13
 13636 0158 00       		.byte	0
 13637 0159 00       		.byte	0
 13638 015a 1D       		.uleb128 0x1d
 13639 015b 2E       		.uleb128 0x2e
 13640 015c 01       		.byte	0x1
 13641 015d 03       		.uleb128 0x3
 13642 015e 0E       		.uleb128 0xe
 13643 015f 3A       		.uleb128 0x3a
 13644 0160 0B       		.uleb128 0xb
 13645 0161 3B       		.uleb128 0x3b
 13646 0162 0B       		.uleb128 0xb
 13647 0163 27       		.uleb128 0x27
 13648 0164 19       		.uleb128 0x19
 13649 0165 49       		.uleb128 0x49
ARM GAS  C:\Users\AHMEDH~1\AppData\Local\Temp\cclxJjJK.s 			page 273


 13650 0166 13       		.uleb128 0x13
 13651 0167 20       		.uleb128 0x20
 13652 0168 0B       		.uleb128 0xb
 13653 0169 01       		.uleb128 0x1
 13654 016a 13       		.uleb128 0x13
 13655 016b 00       		.byte	0
 13656 016c 00       		.byte	0
 13657 016d 1E       		.uleb128 0x1e
 13658 016e 05       		.uleb128 0x5
 13659 016f 00       		.byte	0
 13660 0170 03       		.uleb128 0x3
 13661 0171 0E       		.uleb128 0xe
 13662 0172 3A       		.uleb128 0x3a
 13663 0173 0B       		.uleb128 0xb
 13664 0174 3B       		.uleb128 0x3b
 13665 0175 0B       		.uleb128 0xb
 13666 0176 49       		.uleb128 0x49
 13667 0177 13       		.uleb128 0x13
 13668 0178 00       		.byte	0
 13669 0179 00       		.byte	0
 13670 017a 1F       		.uleb128 0x1f
 13671 017b 34       		.uleb128 0x34
 13672 017c 00       		.byte	0
 13673 017d 03       		.uleb128 0x3
 13674 017e 0E       		.uleb128 0xe
 13675 017f 3A       		.uleb128 0x3a
 13676 0180 0B       		.uleb128 0xb
 13677 0181 3B       		.uleb128 0x3b
 13678 0182 0B       		.uleb128 0xb
 13679 0183 49       		.uleb128 0x49
 13680 0184 13       		.uleb128 0x13
 13681 0185 00       		.byte	0
 13682 0186 00       		.byte	0
 13683 0187 20       		.uleb128 0x20
 13684 0188 2E       		.uleb128 0x2e
 13685 0189 01       		.byte	0x1
 13686 018a 03       		.uleb128 0x3
 13687 018b 0E       		.uleb128 0xe
 13688 018c 3A       		.uleb128 0x3a
 13689 018d 0B       		.uleb128 0xb
 13690 018e 3B       		.uleb128 0x3b
 13691 018f 05       		.uleb128 0x5
 13692 0190 27       		.uleb128 0x27
 13693 0191 19       		.uleb128 0x19
 13694 0192 49       		.uleb128 0x49
 13695 0193 13       		.uleb128 0x13
 13696 0194 20       		.uleb128 0x20
 13697 0195 0B       		.uleb128 0xb
 13698 0196 01       		.uleb128 0x1
 13699 0197 13       		.uleb128 0x13
 13700 0198 00       		.byte	0
 13701 0199 00       		.byte	0
 13702 019a 21       		.uleb128 0x21
 13703 019b 05       		.uleb128 0x5
 13704 019c 00       		.byte	0
 13705 019d 03       		.uleb128 0x3
 13706 019e 0E       		.uleb128 0xe
ARM GAS  C:\Users\AHMEDH~1\AppData\Local\Temp\cclxJjJK.s 			page 274


 13707 019f 3A       		.uleb128 0x3a
 13708 01a0 0B       		.uleb128 0xb
 13709 01a1 3B       		.uleb128 0x3b
 13710 01a2 05       		.uleb128 0x5
 13711 01a3 49       		.uleb128 0x49
 13712 01a4 13       		.uleb128 0x13
 13713 01a5 00       		.byte	0
 13714 01a6 00       		.byte	0
 13715 01a7 22       		.uleb128 0x22
 13716 01a8 34       		.uleb128 0x34
 13717 01a9 00       		.byte	0
 13718 01aa 03       		.uleb128 0x3
 13719 01ab 08       		.uleb128 0x8
 13720 01ac 3A       		.uleb128 0x3a
 13721 01ad 0B       		.uleb128 0xb
 13722 01ae 3B       		.uleb128 0x3b
 13723 01af 05       		.uleb128 0x5
 13724 01b0 49       		.uleb128 0x49
 13725 01b1 13       		.uleb128 0x13
 13726 01b2 00       		.byte	0
 13727 01b3 00       		.byte	0
 13728 01b4 23       		.uleb128 0x23
 13729 01b5 34       		.uleb128 0x34
 13730 01b6 00       		.byte	0
 13731 01b7 03       		.uleb128 0x3
 13732 01b8 0E       		.uleb128 0xe
 13733 01b9 3A       		.uleb128 0x3a
 13734 01ba 0B       		.uleb128 0xb
 13735 01bb 3B       		.uleb128 0x3b
 13736 01bc 05       		.uleb128 0x5
 13737 01bd 49       		.uleb128 0x49
 13738 01be 13       		.uleb128 0x13
 13739 01bf 00       		.byte	0
 13740 01c0 00       		.byte	0
 13741 01c1 24       		.uleb128 0x24
 13742 01c2 2E       		.uleb128 0x2e
 13743 01c3 01       		.byte	0x1
 13744 01c4 3F       		.uleb128 0x3f
 13745 01c5 19       		.uleb128 0x19
 13746 01c6 03       		.uleb128 0x3
 13747 01c7 0E       		.uleb128 0xe
 13748 01c8 3A       		.uleb128 0x3a
 13749 01c9 0B       		.uleb128 0xb
 13750 01ca 3B       		.uleb128 0x3b
 13751 01cb 05       		.uleb128 0x5
 13752 01cc 27       		.uleb128 0x27
 13753 01cd 19       		.uleb128 0x19
 13754 01ce 20       		.uleb128 0x20
 13755 01cf 0B       		.uleb128 0xb
 13756 01d0 01       		.uleb128 0x1
 13757 01d1 13       		.uleb128 0x13
 13758 01d2 00       		.byte	0
 13759 01d3 00       		.byte	0
 13760 01d4 25       		.uleb128 0x25
 13761 01d5 2E       		.uleb128 0x2e
 13762 01d6 00       		.byte	0
 13763 01d7 3F       		.uleb128 0x3f
ARM GAS  C:\Users\AHMEDH~1\AppData\Local\Temp\cclxJjJK.s 			page 275


 13764 01d8 19       		.uleb128 0x19
 13765 01d9 03       		.uleb128 0x3
 13766 01da 0E       		.uleb128 0xe
 13767 01db 3A       		.uleb128 0x3a
 13768 01dc 0B       		.uleb128 0xb
 13769 01dd 3B       		.uleb128 0x3b
 13770 01de 05       		.uleb128 0x5
 13771 01df 27       		.uleb128 0x27
 13772 01e0 19       		.uleb128 0x19
 13773 01e1 49       		.uleb128 0x49
 13774 01e2 13       		.uleb128 0x13
 13775 01e3 20       		.uleb128 0x20
 13776 01e4 0B       		.uleb128 0xb
 13777 01e5 00       		.byte	0
 13778 01e6 00       		.byte	0
 13779 01e7 26       		.uleb128 0x26
 13780 01e8 2E       		.uleb128 0x2e
 13781 01e9 01       		.byte	0x1
 13782 01ea 3F       		.uleb128 0x3f
 13783 01eb 19       		.uleb128 0x19
 13784 01ec 03       		.uleb128 0x3
 13785 01ed 0E       		.uleb128 0xe
 13786 01ee 3A       		.uleb128 0x3a
 13787 01ef 0B       		.uleb128 0xb
 13788 01f0 3B       		.uleb128 0x3b
 13789 01f1 05       		.uleb128 0x5
 13790 01f2 27       		.uleb128 0x27
 13791 01f3 19       		.uleb128 0x19
 13792 01f4 49       		.uleb128 0x49
 13793 01f5 13       		.uleb128 0x13
 13794 01f6 20       		.uleb128 0x20
 13795 01f7 0B       		.uleb128 0xb
 13796 01f8 01       		.uleb128 0x1
 13797 01f9 13       		.uleb128 0x13
 13798 01fa 00       		.byte	0
 13799 01fb 00       		.byte	0
 13800 01fc 27       		.uleb128 0x27
 13801 01fd 2E       		.uleb128 0x2e
 13802 01fe 01       		.byte	0x1
 13803 01ff 03       		.uleb128 0x3
 13804 0200 0E       		.uleb128 0xe
 13805 0201 3A       		.uleb128 0x3a
 13806 0202 0B       		.uleb128 0xb
 13807 0203 3B       		.uleb128 0x3b
 13808 0204 0B       		.uleb128 0xb
 13809 0205 27       		.uleb128 0x27
 13810 0206 19       		.uleb128 0x19
 13811 0207 11       		.uleb128 0x11
 13812 0208 01       		.uleb128 0x1
 13813 0209 12       		.uleb128 0x12
 13814 020a 06       		.uleb128 0x6
 13815 020b 40       		.uleb128 0x40
 13816 020c 18       		.uleb128 0x18
 13817 020d 9742     		.uleb128 0x2117
 13818 020f 19       		.uleb128 0x19
 13819 0210 01       		.uleb128 0x1
 13820 0211 13       		.uleb128 0x13
ARM GAS  C:\Users\AHMEDH~1\AppData\Local\Temp\cclxJjJK.s 			page 276


 13821 0212 00       		.byte	0
 13822 0213 00       		.byte	0
 13823 0214 28       		.uleb128 0x28
 13824 0215 34       		.uleb128 0x34
 13825 0216 00       		.byte	0
 13826 0217 03       		.uleb128 0x3
 13827 0218 0E       		.uleb128 0xe
 13828 0219 3A       		.uleb128 0x3a
 13829 021a 0B       		.uleb128 0xb
 13830 021b 3B       		.uleb128 0x3b
 13831 021c 0B       		.uleb128 0xb
 13832 021d 49       		.uleb128 0x49
 13833 021e 13       		.uleb128 0x13
 13834 021f 02       		.uleb128 0x2
 13835 0220 18       		.uleb128 0x18
 13836 0221 00       		.byte	0
 13837 0222 00       		.byte	0
 13838 0223 29       		.uleb128 0x29
 13839 0224 34       		.uleb128 0x34
 13840 0225 00       		.byte	0
 13841 0226 03       		.uleb128 0x3
 13842 0227 08       		.uleb128 0x8
 13843 0228 3A       		.uleb128 0x3a
 13844 0229 0B       		.uleb128 0xb
 13845 022a 3B       		.uleb128 0x3b
 13846 022b 0B       		.uleb128 0xb
 13847 022c 49       		.uleb128 0x49
 13848 022d 13       		.uleb128 0x13
 13849 022e 02       		.uleb128 0x2
 13850 022f 17       		.uleb128 0x17
 13851 0230 00       		.byte	0
 13852 0231 00       		.byte	0
 13853 0232 2A       		.uleb128 0x2a
 13854 0233 0B       		.uleb128 0xb
 13855 0234 01       		.byte	0x1
 13856 0235 11       		.uleb128 0x11
 13857 0236 01       		.uleb128 0x1
 13858 0237 12       		.uleb128 0x12
 13859 0238 06       		.uleb128 0x6
 13860 0239 01       		.uleb128 0x1
 13861 023a 13       		.uleb128 0x13
 13862 023b 00       		.byte	0
 13863 023c 00       		.byte	0
 13864 023d 2B       		.uleb128 0x2b
 13865 023e 898201   		.uleb128 0x4109
 13866 0241 01       		.byte	0x1
 13867 0242 11       		.uleb128 0x11
 13868 0243 01       		.uleb128 0x1
 13869 0244 31       		.uleb128 0x31
 13870 0245 13       		.uleb128 0x13
 13871 0246 01       		.uleb128 0x1
 13872 0247 13       		.uleb128 0x13
 13873 0248 00       		.byte	0
 13874 0249 00       		.byte	0
 13875 024a 2C       		.uleb128 0x2c
 13876 024b 8A8201   		.uleb128 0x410a
 13877 024e 00       		.byte	0
ARM GAS  C:\Users\AHMEDH~1\AppData\Local\Temp\cclxJjJK.s 			page 277


 13878 024f 02       		.uleb128 0x2
 13879 0250 18       		.uleb128 0x18
 13880 0251 9142     		.uleb128 0x2111
 13881 0253 18       		.uleb128 0x18
 13882 0254 00       		.byte	0
 13883 0255 00       		.byte	0
 13884 0256 2D       		.uleb128 0x2d
 13885 0257 898201   		.uleb128 0x4109
 13886 025a 01       		.byte	0x1
 13887 025b 11       		.uleb128 0x11
 13888 025c 01       		.uleb128 0x1
 13889 025d 31       		.uleb128 0x31
 13890 025e 13       		.uleb128 0x13
 13891 025f 00       		.byte	0
 13892 0260 00       		.byte	0
 13893 0261 2E       		.uleb128 0x2e
 13894 0262 898201   		.uleb128 0x4109
 13895 0265 00       		.byte	0
 13896 0266 11       		.uleb128 0x11
 13897 0267 01       		.uleb128 0x1
 13898 0268 31       		.uleb128 0x31
 13899 0269 13       		.uleb128 0x13
 13900 026a 00       		.byte	0
 13901 026b 00       		.byte	0
 13902 026c 2F       		.uleb128 0x2f
 13903 026d 2E       		.uleb128 0x2e
 13904 026e 01       		.byte	0x1
 13905 026f 03       		.uleb128 0x3
 13906 0270 0E       		.uleb128 0xe
 13907 0271 3A       		.uleb128 0x3a
 13908 0272 0B       		.uleb128 0xb
 13909 0273 3B       		.uleb128 0x3b
 13910 0274 05       		.uleb128 0x5
 13911 0275 27       		.uleb128 0x27
 13912 0276 19       		.uleb128 0x19
 13913 0277 49       		.uleb128 0x49
 13914 0278 13       		.uleb128 0x13
 13915 0279 11       		.uleb128 0x11
 13916 027a 01       		.uleb128 0x1
 13917 027b 12       		.uleb128 0x12
 13918 027c 06       		.uleb128 0x6
 13919 027d 40       		.uleb128 0x40
 13920 027e 18       		.uleb128 0x18
 13921 027f 9742     		.uleb128 0x2117
 13922 0281 19       		.uleb128 0x19
 13923 0282 01       		.uleb128 0x1
 13924 0283 13       		.uleb128 0x13
 13925 0284 00       		.byte	0
 13926 0285 00       		.byte	0
 13927 0286 30       		.uleb128 0x30
 13928 0287 05       		.uleb128 0x5
 13929 0288 00       		.byte	0
 13930 0289 03       		.uleb128 0x3
 13931 028a 0E       		.uleb128 0xe
 13932 028b 3A       		.uleb128 0x3a
 13933 028c 0B       		.uleb128 0xb
 13934 028d 3B       		.uleb128 0x3b
ARM GAS  C:\Users\AHMEDH~1\AppData\Local\Temp\cclxJjJK.s 			page 278


 13935 028e 05       		.uleb128 0x5
 13936 028f 49       		.uleb128 0x49
 13937 0290 13       		.uleb128 0x13
 13938 0291 02       		.uleb128 0x2
 13939 0292 17       		.uleb128 0x17
 13940 0293 00       		.byte	0
 13941 0294 00       		.byte	0
 13942 0295 31       		.uleb128 0x31
 13943 0296 34       		.uleb128 0x34
 13944 0297 00       		.byte	0
 13945 0298 03       		.uleb128 0x3
 13946 0299 0E       		.uleb128 0xe
 13947 029a 3A       		.uleb128 0x3a
 13948 029b 0B       		.uleb128 0xb
 13949 029c 3B       		.uleb128 0x3b
 13950 029d 05       		.uleb128 0x5
 13951 029e 49       		.uleb128 0x49
 13952 029f 13       		.uleb128 0x13
 13953 02a0 02       		.uleb128 0x2
 13954 02a1 18       		.uleb128 0x18
 13955 02a2 00       		.byte	0
 13956 02a3 00       		.byte	0
 13957 02a4 32       		.uleb128 0x32
 13958 02a5 1D       		.uleb128 0x1d
 13959 02a6 01       		.byte	0x1
 13960 02a7 31       		.uleb128 0x31
 13961 02a8 13       		.uleb128 0x13
 13962 02a9 11       		.uleb128 0x11
 13963 02aa 01       		.uleb128 0x1
 13964 02ab 12       		.uleb128 0x12
 13965 02ac 06       		.uleb128 0x6
 13966 02ad 58       		.uleb128 0x58
 13967 02ae 0B       		.uleb128 0xb
 13968 02af 59       		.uleb128 0x59
 13969 02b0 05       		.uleb128 0x5
 13970 02b1 01       		.uleb128 0x1
 13971 02b2 13       		.uleb128 0x13
 13972 02b3 00       		.byte	0
 13973 02b4 00       		.byte	0
 13974 02b5 33       		.uleb128 0x33
 13975 02b6 05       		.uleb128 0x5
 13976 02b7 00       		.byte	0
 13977 02b8 31       		.uleb128 0x31
 13978 02b9 13       		.uleb128 0x13
 13979 02ba 02       		.uleb128 0x2
 13980 02bb 17       		.uleb128 0x17
 13981 02bc 00       		.byte	0
 13982 02bd 00       		.byte	0
 13983 02be 34       		.uleb128 0x34
 13984 02bf 0B       		.uleb128 0xb
 13985 02c0 01       		.byte	0x1
 13986 02c1 11       		.uleb128 0x11
 13987 02c2 01       		.uleb128 0x1
 13988 02c3 12       		.uleb128 0x12
 13989 02c4 06       		.uleb128 0x6
 13990 02c5 00       		.byte	0
 13991 02c6 00       		.byte	0
ARM GAS  C:\Users\AHMEDH~1\AppData\Local\Temp\cclxJjJK.s 			page 279


 13992 02c7 35       		.uleb128 0x35
 13993 02c8 34       		.uleb128 0x34
 13994 02c9 00       		.byte	0
 13995 02ca 31       		.uleb128 0x31
 13996 02cb 13       		.uleb128 0x13
 13997 02cc 02       		.uleb128 0x2
 13998 02cd 18       		.uleb128 0x18
 13999 02ce 00       		.byte	0
 14000 02cf 00       		.byte	0
 14001 02d0 36       		.uleb128 0x36
 14002 02d1 2E       		.uleb128 0x2e
 14003 02d2 01       		.byte	0x1
 14004 02d3 31       		.uleb128 0x31
 14005 02d4 13       		.uleb128 0x13
 14006 02d5 11       		.uleb128 0x11
 14007 02d6 01       		.uleb128 0x1
 14008 02d7 12       		.uleb128 0x12
 14009 02d8 06       		.uleb128 0x6
 14010 02d9 40       		.uleb128 0x40
 14011 02da 18       		.uleb128 0x18
 14012 02db 9742     		.uleb128 0x2117
 14013 02dd 19       		.uleb128 0x19
 14014 02de 01       		.uleb128 0x1
 14015 02df 13       		.uleb128 0x13
 14016 02e0 00       		.byte	0
 14017 02e1 00       		.byte	0
 14018 02e2 37       		.uleb128 0x37
 14019 02e3 05       		.uleb128 0x5
 14020 02e4 00       		.byte	0
 14021 02e5 31       		.uleb128 0x31
 14022 02e6 13       		.uleb128 0x13
 14023 02e7 02       		.uleb128 0x2
 14024 02e8 18       		.uleb128 0x18
 14025 02e9 00       		.byte	0
 14026 02ea 00       		.byte	0
 14027 02eb 38       		.uleb128 0x38
 14028 02ec 34       		.uleb128 0x34
 14029 02ed 00       		.byte	0
 14030 02ee 31       		.uleb128 0x31
 14031 02ef 13       		.uleb128 0x13
 14032 02f0 02       		.uleb128 0x2
 14033 02f1 17       		.uleb128 0x17
 14034 02f2 00       		.byte	0
 14035 02f3 00       		.byte	0
 14036 02f4 39       		.uleb128 0x39
 14037 02f5 8A8201   		.uleb128 0x410a
 14038 02f8 00       		.byte	0
 14039 02f9 31       		.uleb128 0x31
 14040 02fa 13       		.uleb128 0x13
 14041 02fb 9142     		.uleb128 0x2111
 14042 02fd 18       		.uleb128 0x18
 14043 02fe 00       		.byte	0
 14044 02ff 00       		.byte	0
 14045 0300 3A       		.uleb128 0x3a
 14046 0301 2E       		.uleb128 0x2e
 14047 0302 01       		.byte	0x1
 14048 0303 3F       		.uleb128 0x3f
ARM GAS  C:\Users\AHMEDH~1\AppData\Local\Temp\cclxJjJK.s 			page 280


 14049 0304 19       		.uleb128 0x19
 14050 0305 03       		.uleb128 0x3
 14051 0306 0E       		.uleb128 0xe
 14052 0307 3A       		.uleb128 0x3a
 14053 0308 0B       		.uleb128 0xb
 14054 0309 3B       		.uleb128 0x3b
 14055 030a 0B       		.uleb128 0xb
 14056 030b 27       		.uleb128 0x27
 14057 030c 19       		.uleb128 0x19
 14058 030d 11       		.uleb128 0x11
 14059 030e 01       		.uleb128 0x1
 14060 030f 12       		.uleb128 0x12
 14061 0310 06       		.uleb128 0x6
 14062 0311 40       		.uleb128 0x40
 14063 0312 18       		.uleb128 0x18
 14064 0313 9742     		.uleb128 0x2117
 14065 0315 19       		.uleb128 0x19
 14066 0316 01       		.uleb128 0x1
 14067 0317 13       		.uleb128 0x13
 14068 0318 00       		.byte	0
 14069 0319 00       		.byte	0
 14070 031a 3B       		.uleb128 0x3b
 14071 031b 34       		.uleb128 0x34
 14072 031c 00       		.byte	0
 14073 031d 31       		.uleb128 0x31
 14074 031e 13       		.uleb128 0x13
 14075 031f 00       		.byte	0
 14076 0320 00       		.byte	0
 14077 0321 3C       		.uleb128 0x3c
 14078 0322 2E       		.uleb128 0x2e
 14079 0323 01       		.byte	0x1
 14080 0324 3F       		.uleb128 0x3f
 14081 0325 19       		.uleb128 0x19
 14082 0326 03       		.uleb128 0x3
 14083 0327 0E       		.uleb128 0xe
 14084 0328 3A       		.uleb128 0x3a
 14085 0329 0B       		.uleb128 0xb
 14086 032a 3B       		.uleb128 0x3b
 14087 032b 05       		.uleb128 0x5
 14088 032c 27       		.uleb128 0x27
 14089 032d 19       		.uleb128 0x19
 14090 032e 49       		.uleb128 0x49
 14091 032f 13       		.uleb128 0x13
 14092 0330 11       		.uleb128 0x11
 14093 0331 01       		.uleb128 0x1
 14094 0332 12       		.uleb128 0x12
 14095 0333 06       		.uleb128 0x6
 14096 0334 40       		.uleb128 0x40
 14097 0335 18       		.uleb128 0x18
 14098 0336 9742     		.uleb128 0x2117
 14099 0338 19       		.uleb128 0x19
 14100 0339 01       		.uleb128 0x1
 14101 033a 13       		.uleb128 0x13
 14102 033b 00       		.byte	0
 14103 033c 00       		.byte	0
 14104 033d 3D       		.uleb128 0x3d
 14105 033e 1D       		.uleb128 0x1d
ARM GAS  C:\Users\AHMEDH~1\AppData\Local\Temp\cclxJjJK.s 			page 281


 14106 033f 01       		.byte	0x1
 14107 0340 31       		.uleb128 0x31
 14108 0341 13       		.uleb128 0x13
 14109 0342 52       		.uleb128 0x52
 14110 0343 01       		.uleb128 0x1
 14111 0344 55       		.uleb128 0x55
 14112 0345 17       		.uleb128 0x17
 14113 0346 58       		.uleb128 0x58
 14114 0347 0B       		.uleb128 0xb
 14115 0348 59       		.uleb128 0x59
 14116 0349 05       		.uleb128 0x5
 14117 034a 01       		.uleb128 0x1
 14118 034b 13       		.uleb128 0x13
 14119 034c 00       		.byte	0
 14120 034d 00       		.byte	0
 14121 034e 3E       		.uleb128 0x3e
 14122 034f 0B       		.uleb128 0xb
 14123 0350 01       		.byte	0x1
 14124 0351 55       		.uleb128 0x55
 14125 0352 17       		.uleb128 0x17
 14126 0353 00       		.byte	0
 14127 0354 00       		.byte	0
 14128 0355 3F       		.uleb128 0x3f
 14129 0356 05       		.uleb128 0x5
 14130 0357 00       		.byte	0
 14131 0358 31       		.uleb128 0x31
 14132 0359 13       		.uleb128 0x13
 14133 035a 00       		.byte	0
 14134 035b 00       		.byte	0
 14135 035c 40       		.uleb128 0x40
 14136 035d 2E       		.uleb128 0x2e
 14137 035e 00       		.byte	0
 14138 035f 3F       		.uleb128 0x3f
 14139 0360 19       		.uleb128 0x19
 14140 0361 03       		.uleb128 0x3
 14141 0362 0E       		.uleb128 0xe
 14142 0363 3A       		.uleb128 0x3a
 14143 0364 0B       		.uleb128 0xb
 14144 0365 3B       		.uleb128 0x3b
 14145 0366 05       		.uleb128 0x5
 14146 0367 27       		.uleb128 0x27
 14147 0368 19       		.uleb128 0x19
 14148 0369 49       		.uleb128 0x49
 14149 036a 13       		.uleb128 0x13
 14150 036b 11       		.uleb128 0x11
 14151 036c 01       		.uleb128 0x1
 14152 036d 12       		.uleb128 0x12
 14153 036e 06       		.uleb128 0x6
 14154 036f 40       		.uleb128 0x40
 14155 0370 18       		.uleb128 0x18
 14156 0371 9742     		.uleb128 0x2117
 14157 0373 19       		.uleb128 0x19
 14158 0374 00       		.byte	0
 14159 0375 00       		.byte	0
 14160 0376 41       		.uleb128 0x41
 14161 0377 2E       		.uleb128 0x2e
 14162 0378 01       		.byte	0x1
ARM GAS  C:\Users\AHMEDH~1\AppData\Local\Temp\cclxJjJK.s 			page 282


 14163 0379 3F       		.uleb128 0x3f
 14164 037a 19       		.uleb128 0x19
 14165 037b 03       		.uleb128 0x3
 14166 037c 0E       		.uleb128 0xe
 14167 037d 3A       		.uleb128 0x3a
 14168 037e 0B       		.uleb128 0xb
 14169 037f 3B       		.uleb128 0x3b
 14170 0380 05       		.uleb128 0x5
 14171 0381 27       		.uleb128 0x27
 14172 0382 19       		.uleb128 0x19
 14173 0383 11       		.uleb128 0x11
 14174 0384 01       		.uleb128 0x1
 14175 0385 12       		.uleb128 0x12
 14176 0386 06       		.uleb128 0x6
 14177 0387 40       		.uleb128 0x40
 14178 0388 18       		.uleb128 0x18
 14179 0389 9742     		.uleb128 0x2117
 14180 038b 19       		.uleb128 0x19
 14181 038c 01       		.uleb128 0x1
 14182 038d 13       		.uleb128 0x13
 14183 038e 00       		.byte	0
 14184 038f 00       		.byte	0
 14185 0390 42       		.uleb128 0x42
 14186 0391 05       		.uleb128 0x5
 14187 0392 00       		.byte	0
 14188 0393 03       		.uleb128 0x3
 14189 0394 08       		.uleb128 0x8
 14190 0395 3A       		.uleb128 0x3a
 14191 0396 0B       		.uleb128 0xb
 14192 0397 3B       		.uleb128 0x3b
 14193 0398 05       		.uleb128 0x5
 14194 0399 49       		.uleb128 0x49
 14195 039a 13       		.uleb128 0x13
 14196 039b 02       		.uleb128 0x2
 14197 039c 17       		.uleb128 0x17
 14198 039d 00       		.byte	0
 14199 039e 00       		.byte	0
 14200 039f 43       		.uleb128 0x43
 14201 03a0 34       		.uleb128 0x34
 14202 03a1 00       		.byte	0
 14203 03a2 03       		.uleb128 0x3
 14204 03a3 08       		.uleb128 0x8
 14205 03a4 3A       		.uleb128 0x3a
 14206 03a5 0B       		.uleb128 0xb
 14207 03a6 3B       		.uleb128 0x3b
 14208 03a7 05       		.uleb128 0x5
 14209 03a8 49       		.uleb128 0x49
 14210 03a9 13       		.uleb128 0x13
 14211 03aa 02       		.uleb128 0x2
 14212 03ab 18       		.uleb128 0x18
 14213 03ac 00       		.byte	0
 14214 03ad 00       		.byte	0
 14215 03ae 44       		.uleb128 0x44
 14216 03af 34       		.uleb128 0x34
 14217 03b0 00       		.byte	0
 14218 03b1 03       		.uleb128 0x3
 14219 03b2 0E       		.uleb128 0xe
ARM GAS  C:\Users\AHMEDH~1\AppData\Local\Temp\cclxJjJK.s 			page 283


 14220 03b3 3A       		.uleb128 0x3a
 14221 03b4 0B       		.uleb128 0xb
 14222 03b5 3B       		.uleb128 0x3b
 14223 03b6 05       		.uleb128 0x5
 14224 03b7 49       		.uleb128 0x49
 14225 03b8 13       		.uleb128 0x13
 14226 03b9 02       		.uleb128 0x2
 14227 03ba 17       		.uleb128 0x17
 14228 03bb 00       		.byte	0
 14229 03bc 00       		.byte	0
 14230 03bd 45       		.uleb128 0x45
 14231 03be 34       		.uleb128 0x34
 14232 03bf 00       		.byte	0
 14233 03c0 03       		.uleb128 0x3
 14234 03c1 08       		.uleb128 0x8
 14235 03c2 3A       		.uleb128 0x3a
 14236 03c3 0B       		.uleb128 0xb
 14237 03c4 3B       		.uleb128 0x3b
 14238 03c5 05       		.uleb128 0x5
 14239 03c6 49       		.uleb128 0x49
 14240 03c7 13       		.uleb128 0x13
 14241 03c8 02       		.uleb128 0x2
 14242 03c9 17       		.uleb128 0x17
 14243 03ca 00       		.byte	0
 14244 03cb 00       		.byte	0
 14245 03cc 46       		.uleb128 0x46
 14246 03cd 898201   		.uleb128 0x4109
 14247 03d0 01       		.byte	0x1
 14248 03d1 11       		.uleb128 0x11
 14249 03d2 01       		.uleb128 0x1
 14250 03d3 9542     		.uleb128 0x2115
 14251 03d5 19       		.uleb128 0x19
 14252 03d6 31       		.uleb128 0x31
 14253 03d7 13       		.uleb128 0x13
 14254 03d8 00       		.byte	0
 14255 03d9 00       		.byte	0
 14256 03da 47       		.uleb128 0x47
 14257 03db 34       		.uleb128 0x34
 14258 03dc 00       		.byte	0
 14259 03dd 03       		.uleb128 0x3
 14260 03de 0E       		.uleb128 0xe
 14261 03df 3A       		.uleb128 0x3a
 14262 03e0 0B       		.uleb128 0xb
 14263 03e1 3B       		.uleb128 0x3b
 14264 03e2 0B       		.uleb128 0xb
 14265 03e3 49       		.uleb128 0x49
 14266 03e4 13       		.uleb128 0x13
 14267 03e5 3F       		.uleb128 0x3f
 14268 03e6 19       		.uleb128 0x19
 14269 03e7 3C       		.uleb128 0x3c
 14270 03e8 19       		.uleb128 0x19
 14271 03e9 00       		.byte	0
 14272 03ea 00       		.byte	0
 14273 03eb 48       		.uleb128 0x48
 14274 03ec 34       		.uleb128 0x34
 14275 03ed 00       		.byte	0
 14276 03ee 03       		.uleb128 0x3
ARM GAS  C:\Users\AHMEDH~1\AppData\Local\Temp\cclxJjJK.s 			page 284


 14277 03ef 0E       		.uleb128 0xe
 14278 03f0 3A       		.uleb128 0x3a
 14279 03f1 0B       		.uleb128 0xb
 14280 03f2 3B       		.uleb128 0x3b
 14281 03f3 0B       		.uleb128 0xb
 14282 03f4 49       		.uleb128 0x49
 14283 03f5 13       		.uleb128 0x13
 14284 03f6 3F       		.uleb128 0x3f
 14285 03f7 19       		.uleb128 0x19
 14286 03f8 02       		.uleb128 0x2
 14287 03f9 18       		.uleb128 0x18
 14288 03fa 00       		.byte	0
 14289 03fb 00       		.byte	0
 14290 03fc 49       		.uleb128 0x49
 14291 03fd 2E       		.uleb128 0x2e
 14292 03fe 01       		.byte	0x1
 14293 03ff 3F       		.uleb128 0x3f
 14294 0400 19       		.uleb128 0x19
 14295 0401 03       		.uleb128 0x3
 14296 0402 0E       		.uleb128 0xe
 14297 0403 3A       		.uleb128 0x3a
 14298 0404 0B       		.uleb128 0xb
 14299 0405 3B       		.uleb128 0x3b
 14300 0406 0B       		.uleb128 0xb
 14301 0407 27       		.uleb128 0x27
 14302 0408 19       		.uleb128 0x19
 14303 0409 49       		.uleb128 0x49
 14304 040a 13       		.uleb128 0x13
 14305 040b 3C       		.uleb128 0x3c
 14306 040c 19       		.uleb128 0x19
 14307 040d 01       		.uleb128 0x1
 14308 040e 13       		.uleb128 0x13
 14309 040f 00       		.byte	0
 14310 0410 00       		.byte	0
 14311 0411 4A       		.uleb128 0x4a
 14312 0412 05       		.uleb128 0x5
 14313 0413 00       		.byte	0
 14314 0414 49       		.uleb128 0x49
 14315 0415 13       		.uleb128 0x13
 14316 0416 00       		.byte	0
 14317 0417 00       		.byte	0
 14318 0418 4B       		.uleb128 0x4b
 14319 0419 2E       		.uleb128 0x2e
 14320 041a 01       		.byte	0x1
 14321 041b 3F       		.uleb128 0x3f
 14322 041c 19       		.uleb128 0x19
 14323 041d 03       		.uleb128 0x3
 14324 041e 0E       		.uleb128 0xe
 14325 041f 27       		.uleb128 0x27
 14326 0420 19       		.uleb128 0x19
 14327 0421 49       		.uleb128 0x49
 14328 0422 13       		.uleb128 0x13
 14329 0423 34       		.uleb128 0x34
 14330 0424 19       		.uleb128 0x19
 14331 0425 3C       		.uleb128 0x3c
 14332 0426 19       		.uleb128 0x19
 14333 0427 01       		.uleb128 0x1
ARM GAS  C:\Users\AHMEDH~1\AppData\Local\Temp\cclxJjJK.s 			page 285


 14334 0428 13       		.uleb128 0x13
 14335 0429 00       		.byte	0
 14336 042a 00       		.byte	0
 14337 042b 4C       		.uleb128 0x4c
 14338 042c 2E       		.uleb128 0x2e
 14339 042d 00       		.byte	0
 14340 042e 3F       		.uleb128 0x3f
 14341 042f 19       		.uleb128 0x19
 14342 0430 03       		.uleb128 0x3
 14343 0431 0E       		.uleb128 0xe
 14344 0432 3A       		.uleb128 0x3a
 14345 0433 0B       		.uleb128 0xb
 14346 0434 3B       		.uleb128 0x3b
 14347 0435 0B       		.uleb128 0xb
 14348 0436 27       		.uleb128 0x27
 14349 0437 19       		.uleb128 0x19
 14350 0438 3C       		.uleb128 0x3c
 14351 0439 19       		.uleb128 0x19
 14352 043a 00       		.byte	0
 14353 043b 00       		.byte	0
 14354 043c 4D       		.uleb128 0x4d
 14355 043d 2E       		.uleb128 0x2e
 14356 043e 01       		.byte	0x1
 14357 043f 3F       		.uleb128 0x3f
 14358 0440 19       		.uleb128 0x19
 14359 0441 03       		.uleb128 0x3
 14360 0442 08       		.uleb128 0x8
 14361 0443 3A       		.uleb128 0x3a
 14362 0444 0B       		.uleb128 0xb
 14363 0445 3B       		.uleb128 0x3b
 14364 0446 0B       		.uleb128 0xb
 14365 0447 27       		.uleb128 0x27
 14366 0448 19       		.uleb128 0x19
 14367 0449 3C       		.uleb128 0x3c
 14368 044a 19       		.uleb128 0x19
 14369 044b 01       		.uleb128 0x1
 14370 044c 13       		.uleb128 0x13
 14371 044d 00       		.byte	0
 14372 044e 00       		.byte	0
 14373 044f 4E       		.uleb128 0x4e
 14374 0450 2E       		.uleb128 0x2e
 14375 0451 01       		.byte	0x1
 14376 0452 3F       		.uleb128 0x3f
 14377 0453 19       		.uleb128 0x19
 14378 0454 03       		.uleb128 0x3
 14379 0455 0E       		.uleb128 0xe
 14380 0456 3A       		.uleb128 0x3a
 14381 0457 0B       		.uleb128 0xb
 14382 0458 3B       		.uleb128 0x3b
 14383 0459 0B       		.uleb128 0xb
 14384 045a 27       		.uleb128 0x27
 14385 045b 19       		.uleb128 0x19
 14386 045c 3C       		.uleb128 0x3c
 14387 045d 19       		.uleb128 0x19
 14388 045e 01       		.uleb128 0x1
 14389 045f 13       		.uleb128 0x13
 14390 0460 00       		.byte	0
ARM GAS  C:\Users\AHMEDH~1\AppData\Local\Temp\cclxJjJK.s 			page 286


 14391 0461 00       		.byte	0
 14392 0462 4F       		.uleb128 0x4f
 14393 0463 2E       		.uleb128 0x2e
 14394 0464 00       		.byte	0
 14395 0465 3F       		.uleb128 0x3f
 14396 0466 19       		.uleb128 0x19
 14397 0467 03       		.uleb128 0x3
 14398 0468 0E       		.uleb128 0xe
 14399 0469 3A       		.uleb128 0x3a
 14400 046a 0B       		.uleb128 0xb
 14401 046b 3B       		.uleb128 0x3b
 14402 046c 0B       		.uleb128 0xb
 14403 046d 27       		.uleb128 0x27
 14404 046e 19       		.uleb128 0x19
 14405 046f 49       		.uleb128 0x49
 14406 0470 13       		.uleb128 0x13
 14407 0471 3C       		.uleb128 0x3c
 14408 0472 19       		.uleb128 0x19
 14409 0473 00       		.byte	0
 14410 0474 00       		.byte	0
 14411 0475 50       		.uleb128 0x50
 14412 0476 18       		.uleb128 0x18
 14413 0477 00       		.byte	0
 14414 0478 00       		.byte	0
 14415 0479 00       		.byte	0
 14416 047a 00       		.byte	0
 14417              		.section	.debug_loc,"",%progbits
 14418              	.Ldebug_loc0:
 14419              	.LLST0:
 14420 0000 32000000 		.4byte	.LVL3
 14421 0004 38000000 		.4byte	.LVL5
 14422 0008 0100     		.2byte	0x1
 14423 000a 50       		.byte	0x50
 14424 000b 00000000 		.4byte	0
 14425 000f 00000000 		.4byte	0
 14426              	.LLST1:
 14427 0013 1C000000 		.4byte	.LVL1
 14428 0017 24000000 		.4byte	.LVL2
 14429 001b 0100     		.2byte	0x1
 14430 001d 50       		.byte	0x50
 14431 001e 24000000 		.4byte	.LVL2
 14432 0022 7E000000 		.4byte	.LVL12
 14433 0026 0100     		.2byte	0x1
 14434 0028 56       		.byte	0x56
 14435 0029 00000000 		.4byte	0
 14436 002d 00000000 		.4byte	0
 14437              	.LLST2:
 14438 0031 36000000 		.4byte	.LVL4
 14439 0035 6C000000 		.4byte	.LVL10
 14440 0039 0200     		.2byte	0x2
 14441 003b 3C       		.byte	0x3c
 14442 003c 9F       		.byte	0x9f
 14443 003d 00000000 		.4byte	0
 14444 0041 00000000 		.4byte	0
 14445              	.LLST3:
 14446 0045 3E000000 		.4byte	.LVL6
 14447 0049 49000000 		.4byte	.LVL7-1
ARM GAS  C:\Users\AHMEDH~1\AppData\Local\Temp\cclxJjJK.s 			page 287


 14448 004d 0100     		.2byte	0x1
 14449 004f 50       		.byte	0x50
 14450 0050 49000000 		.4byte	.LVL7-1
 14451 0054 6C000000 		.4byte	.LVL10
 14452 0058 0100     		.2byte	0x1
 14453 005a 54       		.byte	0x54
 14454 005b 00000000 		.4byte	0
 14455 005f 00000000 		.4byte	0
 14456              	.LLST4:
 14457 0063 00000000 		.4byte	.LVL13
 14458 0067 0C000000 		.4byte	.LVL14
 14459 006b 0100     		.2byte	0x1
 14460 006d 50       		.byte	0x50
 14461 006e 0C000000 		.4byte	.LVL14
 14462 0072 68000000 		.4byte	.LVL23
 14463 0076 0100     		.2byte	0x1
 14464 0078 55       		.byte	0x55
 14465 0079 68000000 		.4byte	.LVL23
 14466 007d 76000000 		.4byte	.LVL24
 14467 0081 0400     		.2byte	0x4
 14468 0083 F3       		.byte	0xf3
 14469 0084 01       		.uleb128 0x1
 14470 0085 50       		.byte	0x50
 14471 0086 9F       		.byte	0x9f
 14472 0087 76000000 		.4byte	.LVL24
 14473 008b 78000000 		.4byte	.LVL25
 14474 008f 0100     		.2byte	0x1
 14475 0091 55       		.byte	0x55
 14476 0092 78000000 		.4byte	.LVL25
 14477 0096 88000000 		.4byte	.LFE4
 14478 009a 0400     		.2byte	0x4
 14479 009c F3       		.byte	0xf3
 14480 009d 01       		.uleb128 0x1
 14481 009e 50       		.byte	0x50
 14482 009f 9F       		.byte	0x9f
 14483 00a0 00000000 		.4byte	0
 14484 00a4 00000000 		.4byte	0
 14485              	.LLST5:
 14486 00a8 00000000 		.4byte	.LVL13
 14487 00ac 0E000000 		.4byte	.LVL15
 14488 00b0 0100     		.2byte	0x1
 14489 00b2 51       		.byte	0x51
 14490 00b3 0E000000 		.4byte	.LVL15
 14491 00b7 88000000 		.4byte	.LFE4
 14492 00bb 0400     		.2byte	0x4
 14493 00bd F3       		.byte	0xf3
 14494 00be 01       		.uleb128 0x1
 14495 00bf 51       		.byte	0x51
 14496 00c0 9F       		.byte	0x9f
 14497 00c1 00000000 		.4byte	0
 14498 00c5 00000000 		.4byte	0
 14499              	.LLST6:
 14500 00c9 00000000 		.4byte	.LVL13
 14501 00cd 10000000 		.4byte	.LVL16
 14502 00d1 0100     		.2byte	0x1
 14503 00d3 52       		.byte	0x52
 14504 00d4 10000000 		.4byte	.LVL16
ARM GAS  C:\Users\AHMEDH~1\AppData\Local\Temp\cclxJjJK.s 			page 288


 14505 00d8 88000000 		.4byte	.LFE4
 14506 00dc 0400     		.2byte	0x4
 14507 00de F3       		.byte	0xf3
 14508 00df 01       		.uleb128 0x1
 14509 00e0 52       		.byte	0x52
 14510 00e1 9F       		.byte	0x9f
 14511 00e2 00000000 		.4byte	0
 14512 00e6 00000000 		.4byte	0
 14513              	.LLST7:
 14514 00ea 00000000 		.4byte	.LVL26
 14515 00ee 22000000 		.4byte	.LVL32
 14516 00f2 0100     		.2byte	0x1
 14517 00f4 50       		.byte	0x50
 14518 00f5 22000000 		.4byte	.LVL32
 14519 00f9 5A000000 		.4byte	.LVL38
 14520 00fd 0400     		.2byte	0x4
 14521 00ff F3       		.byte	0xf3
 14522 0100 01       		.uleb128 0x1
 14523 0101 50       		.byte	0x50
 14524 0102 9F       		.byte	0x9f
 14525 0103 5A000000 		.4byte	.LVL38
 14526 0107 62000000 		.4byte	.LVL42
 14527 010b 0100     		.2byte	0x1
 14528 010d 50       		.byte	0x50
 14529 010e 62000000 		.4byte	.LVL42
 14530 0112 F8000000 		.4byte	.LFE5
 14531 0116 0400     		.2byte	0x4
 14532 0118 F3       		.byte	0xf3
 14533 0119 01       		.uleb128 0x1
 14534 011a 50       		.byte	0x50
 14535 011b 9F       		.byte	0x9f
 14536 011c 00000000 		.4byte	0
 14537 0120 00000000 		.4byte	0
 14538              	.LLST8:
 14539 0124 00000000 		.4byte	.LVL26
 14540 0128 20000000 		.4byte	.LVL31
 14541 012c 0100     		.2byte	0x1
 14542 012e 51       		.byte	0x51
 14543 012f 20000000 		.4byte	.LVL31
 14544 0133 5A000000 		.4byte	.LVL38
 14545 0137 0400     		.2byte	0x4
 14546 0139 F3       		.byte	0xf3
 14547 013a 01       		.uleb128 0x1
 14548 013b 51       		.byte	0x51
 14549 013c 9F       		.byte	0x9f
 14550 013d 5A000000 		.4byte	.LVL38
 14551 0141 60000000 		.4byte	.LVL41
 14552 0145 0100     		.2byte	0x1
 14553 0147 51       		.byte	0x51
 14554 0148 60000000 		.4byte	.LVL41
 14555 014c F8000000 		.4byte	.LFE5
 14556 0150 0400     		.2byte	0x4
 14557 0152 F3       		.byte	0xf3
 14558 0153 01       		.uleb128 0x1
 14559 0154 51       		.byte	0x51
 14560 0155 9F       		.byte	0x9f
 14561 0156 00000000 		.4byte	0
ARM GAS  C:\Users\AHMEDH~1\AppData\Local\Temp\cclxJjJK.s 			page 289


 14562 015a 00000000 		.4byte	0
 14563              	.LLST9:
 14564 015e 00000000 		.4byte	.LVL26
 14565 0162 1C000000 		.4byte	.LVL29
 14566 0166 0100     		.2byte	0x1
 14567 0168 52       		.byte	0x52
 14568 0169 1C000000 		.4byte	.LVL29
 14569 016d 5A000000 		.4byte	.LVL38
 14570 0171 0400     		.2byte	0x4
 14571 0173 F3       		.byte	0xf3
 14572 0174 01       		.uleb128 0x1
 14573 0175 52       		.byte	0x52
 14574 0176 9F       		.byte	0x9f
 14575 0177 5A000000 		.4byte	.LVL38
 14576 017b 5E000000 		.4byte	.LVL40
 14577 017f 0100     		.2byte	0x1
 14578 0181 52       		.byte	0x52
 14579 0182 5E000000 		.4byte	.LVL40
 14580 0186 F8000000 		.4byte	.LFE5
 14581 018a 0400     		.2byte	0x4
 14582 018c F3       		.byte	0xf3
 14583 018d 01       		.uleb128 0x1
 14584 018e 52       		.byte	0x52
 14585 018f 9F       		.byte	0x9f
 14586 0190 00000000 		.4byte	0
 14587 0194 00000000 		.4byte	0
 14588              	.LLST10:
 14589 0198 00000000 		.4byte	.LVL26
 14590 019c 1E000000 		.4byte	.LVL30
 14591 01a0 0100     		.2byte	0x1
 14592 01a2 53       		.byte	0x53
 14593 01a3 1E000000 		.4byte	.LVL30
 14594 01a7 5A000000 		.4byte	.LVL38
 14595 01ab 0100     		.2byte	0x1
 14596 01ad 56       		.byte	0x56
 14597 01ae 5A000000 		.4byte	.LVL38
 14598 01b2 5C000000 		.4byte	.LVL39
 14599 01b6 0100     		.2byte	0x1
 14600 01b8 53       		.byte	0x53
 14601 01b9 5C000000 		.4byte	.LVL39
 14602 01bd EA000000 		.4byte	.LVL50
 14603 01c1 0100     		.2byte	0x1
 14604 01c3 56       		.byte	0x56
 14605 01c4 EA000000 		.4byte	.LVL50
 14606 01c8 F8000000 		.4byte	.LFE5
 14607 01cc 0400     		.2byte	0x4
 14608 01ce F3       		.byte	0xf3
 14609 01cf 01       		.uleb128 0x1
 14610 01d0 53       		.byte	0x53
 14611 01d1 9F       		.byte	0x9f
 14612 01d2 00000000 		.4byte	0
 14613 01d6 00000000 		.4byte	0
 14614              	.LLST11:
 14615 01da 00000000 		.4byte	.LVL26
 14616 01de EA000000 		.4byte	.LVL50
 14617 01e2 0200     		.2byte	0x2
 14618 01e4 91       		.byte	0x91
ARM GAS  C:\Users\AHMEDH~1\AppData\Local\Temp\cclxJjJK.s 			page 290


 14619 01e5 00       		.sleb128 0
 14620 01e6 EA000000 		.4byte	.LVL50
 14621 01ea F8000000 		.4byte	.LFE5
 14622 01ee 0200     		.2byte	0x2
 14623 01f0 7D       		.byte	0x7d
 14624 01f1 00       		.sleb128 0
 14625 01f2 00000000 		.4byte	0
 14626 01f6 00000000 		.4byte	0
 14627              	.LLST12:
 14628 01fa 0A000000 		.4byte	.LVL28
 14629 01fe EA000000 		.4byte	.LVL50
 14630 0202 0100     		.2byte	0x1
 14631 0204 58       		.byte	0x58
 14632 0205 00000000 		.4byte	0
 14633 0209 00000000 		.4byte	0
 14634              	.LLST13:
 14635 020d 06000000 		.4byte	.LVL27
 14636 0211 20000000 		.4byte	.LVL31
 14637 0215 0100     		.2byte	0x1
 14638 0217 51       		.byte	0x51
 14639 0218 20000000 		.4byte	.LVL31
 14640 021c 5A000000 		.4byte	.LVL38
 14641 0220 0400     		.2byte	0x4
 14642 0222 F3       		.byte	0xf3
 14643 0223 01       		.uleb128 0x1
 14644 0224 51       		.byte	0x51
 14645 0225 9F       		.byte	0x9f
 14646 0226 5A000000 		.4byte	.LVL38
 14647 022a 60000000 		.4byte	.LVL41
 14648 022e 0100     		.2byte	0x1
 14649 0230 51       		.byte	0x51
 14650 0231 60000000 		.4byte	.LVL41
 14651 0235 F8000000 		.4byte	.LFE5
 14652 0239 0400     		.2byte	0x4
 14653 023b F3       		.byte	0xf3
 14654 023c 01       		.uleb128 0x1
 14655 023d 51       		.byte	0x51
 14656 023e 9F       		.byte	0x9f
 14657 023f 00000000 		.4byte	0
 14658 0243 00000000 		.4byte	0
 14659              	.LLST14:
 14660 0247 06000000 		.4byte	.LVL27
 14661 024b 34000000 		.4byte	.LVL34
 14662 024f 0300     		.2byte	0x3
 14663 0251 91       		.byte	0x91
 14664 0252 44       		.sleb128 -60
 14665 0253 9F       		.byte	0x9f
 14666 0254 34000000 		.4byte	.LVL34
 14667 0258 36000000 		.4byte	.LVL35
 14668 025c 0100     		.2byte	0x1
 14669 025e 54       		.byte	0x54
 14670 025f 36000000 		.4byte	.LVL35
 14671 0263 46000000 		.4byte	.LVL36
 14672 0267 0300     		.2byte	0x3
 14673 0269 91       		.byte	0x91
 14674 026a 44       		.sleb128 -60
 14675 026b 9F       		.byte	0x9f
ARM GAS  C:\Users\AHMEDH~1\AppData\Local\Temp\cclxJjJK.s 			page 291


 14676 026c 46000000 		.4byte	.LVL36
 14677 0270 5A000000 		.4byte	.LVL38
 14678 0274 0100     		.2byte	0x1
 14679 0276 54       		.byte	0x54
 14680 0277 5A000000 		.4byte	.LVL38
 14681 027b 9A000000 		.4byte	.LVL44
 14682 027f 0300     		.2byte	0x3
 14683 0281 91       		.byte	0x91
 14684 0282 44       		.sleb128 -60
 14685 0283 9F       		.byte	0x9f
 14686 0284 9A000000 		.4byte	.LVL44
 14687 0288 E2000000 		.4byte	.LVL49
 14688 028c 0100     		.2byte	0x1
 14689 028e 54       		.byte	0x54
 14690 028f E2000000 		.4byte	.LVL49
 14691 0293 EA000000 		.4byte	.LVL50
 14692 0297 0300     		.2byte	0x3
 14693 0299 91       		.byte	0x91
 14694 029a 44       		.sleb128 -60
 14695 029b 9F       		.byte	0x9f
 14696 029c EA000000 		.4byte	.LVL50
 14697 02a0 F8000000 		.4byte	.LFE5
 14698 02a4 0300     		.2byte	0x3
 14699 02a6 7D       		.byte	0x7d
 14700 02a7 44       		.sleb128 -60
 14701 02a8 9F       		.byte	0x9f
 14702 02a9 00000000 		.4byte	0
 14703 02ad 00000000 		.4byte	0
 14704              	.LLST15:
 14705 02b1 00000000 		.4byte	.LVL51
 14706 02b5 08000000 		.4byte	.LVL52
 14707 02b9 0100     		.2byte	0x1
 14708 02bb 50       		.byte	0x50
 14709 02bc 08000000 		.4byte	.LVL52
 14710 02c0 0A000000 		.4byte	.LVL53
 14711 02c4 0200     		.2byte	0x2
 14712 02c6 71       		.byte	0x71
 14713 02c7 0D       		.sleb128 13
 14714 02c8 0A000000 		.4byte	.LVL53
 14715 02cc 0D000000 		.4byte	.LVL54-1
 14716 02d0 0200     		.2byte	0x2
 14717 02d2 70       		.byte	0x70
 14718 02d3 02       		.sleb128 2
 14719 02d4 0D000000 		.4byte	.LVL54-1
 14720 02d8 12000000 		.4byte	.LFE26
 14721 02dc 0400     		.2byte	0x4
 14722 02de F3       		.byte	0xf3
 14723 02df 01       		.uleb128 0x1
 14724 02e0 50       		.byte	0x50
 14725 02e1 9F       		.byte	0x9f
 14726 02e2 00000000 		.4byte	0
 14727 02e6 00000000 		.4byte	0
 14728              	.LLST16:
 14729 02ea 00000000 		.4byte	.LVL51
 14730 02ee 0A000000 		.4byte	.LVL53
 14731 02f2 0100     		.2byte	0x1
 14732 02f4 51       		.byte	0x51
ARM GAS  C:\Users\AHMEDH~1\AppData\Local\Temp\cclxJjJK.s 			page 292


 14733 02f5 0A000000 		.4byte	.LVL53
 14734 02f9 0D000000 		.4byte	.LVL54-1
 14735 02fd 0300     		.2byte	0x3
 14736 02ff 70       		.byte	0x70
 14737 0300 75       		.sleb128 -11
 14738 0301 9F       		.byte	0x9f
 14739 0302 0D000000 		.4byte	.LVL54-1
 14740 0306 12000000 		.4byte	.LFE26
 14741 030a 0400     		.2byte	0x4
 14742 030c F3       		.byte	0xf3
 14743 030d 01       		.uleb128 0x1
 14744 030e 51       		.byte	0x51
 14745 030f 9F       		.byte	0x9f
 14746 0310 00000000 		.4byte	0
 14747 0314 00000000 		.4byte	0
 14748              	.LLST17:
 14749 0318 00000000 		.4byte	.LVL51
 14750 031c 0E000000 		.4byte	.LVL54
 14751 0320 0200     		.2byte	0x2
 14752 0322 31       		.byte	0x31
 14753 0323 9F       		.byte	0x9f
 14754 0324 0E000000 		.4byte	.LVL54
 14755 0328 12000000 		.4byte	.LFE26
 14756 032c 0200     		.2byte	0x2
 14757 032e 33       		.byte	0x33
 14758 032f 9F       		.byte	0x9f
 14759 0330 00000000 		.4byte	0
 14760 0334 00000000 		.4byte	0
 14761              	.LLST18:
 14762 0338 00000000 		.4byte	.LVL51
 14763 033c 0A000000 		.4byte	.LVL53
 14764 0340 0300     		.2byte	0x3
 14765 0342 71       		.byte	0x71
 14766 0343 0D       		.sleb128 13
 14767 0344 9F       		.byte	0x9f
 14768 0345 0A000000 		.4byte	.LVL53
 14769 0349 0D000000 		.4byte	.LVL54-1
 14770 034d 0300     		.2byte	0x3
 14771 034f 70       		.byte	0x70
 14772 0350 02       		.sleb128 2
 14773 0351 9F       		.byte	0x9f
 14774 0352 0D000000 		.4byte	.LVL54-1
 14775 0356 12000000 		.4byte	.LFE26
 14776 035a 0600     		.2byte	0x6
 14777 035c F3       		.byte	0xf3
 14778 035d 01       		.uleb128 0x1
 14779 035e 51       		.byte	0x51
 14780 035f 23       		.byte	0x23
 14781 0360 0D       		.uleb128 0xd
 14782 0361 9F       		.byte	0x9f
 14783 0362 00000000 		.4byte	0
 14784 0366 00000000 		.4byte	0
 14785              	.LLST19:
 14786 036a 00000000 		.4byte	.LVL55
 14787 036e 12000000 		.4byte	.LVL57
 14788 0372 0100     		.2byte	0x1
 14789 0374 50       		.byte	0x50
ARM GAS  C:\Users\AHMEDH~1\AppData\Local\Temp\cclxJjJK.s 			page 293


 14790 0375 12000000 		.4byte	.LVL57
 14791 0379 2E000000 		.4byte	.LFE34
 14792 037d 0100     		.2byte	0x1
 14793 037f 55       		.byte	0x55
 14794 0380 00000000 		.4byte	0
 14795 0384 00000000 		.4byte	0
 14796              	.LLST20:
 14797 0388 00000000 		.4byte	.LVL55
 14798 038c 10000000 		.4byte	.LVL56
 14799 0390 0100     		.2byte	0x1
 14800 0392 51       		.byte	0x51
 14801 0393 10000000 		.4byte	.LVL56
 14802 0397 2E000000 		.4byte	.LFE34
 14803 039b 0400     		.2byte	0x4
 14804 039d F3       		.byte	0xf3
 14805 039e 01       		.uleb128 0x1
 14806 039f 51       		.byte	0x51
 14807 03a0 9F       		.byte	0x9f
 14808 03a1 00000000 		.4byte	0
 14809 03a5 00000000 		.4byte	0
 14810              	.LLST21:
 14811 03a9 18000000 		.4byte	.LVL58
 14812 03ad 1E000000 		.4byte	.LVL59
 14813 03b1 0100     		.2byte	0x1
 14814 03b3 50       		.byte	0x50
 14815 03b4 1E000000 		.4byte	.LVL59
 14816 03b8 2E000000 		.4byte	.LFE34
 14817 03bc 0100     		.2byte	0x1
 14818 03be 54       		.byte	0x54
 14819 03bf 00000000 		.4byte	0
 14820 03c3 00000000 		.4byte	0
 14821              	.LLST22:
 14822 03c7 00000000 		.4byte	.LVL61
 14823 03cb 16000000 		.4byte	.LVL62
 14824 03cf 0100     		.2byte	0x1
 14825 03d1 50       		.byte	0x50
 14826 03d2 16000000 		.4byte	.LVL62
 14827 03d6 3E010000 		.4byte	.LVL96
 14828 03da 0100     		.2byte	0x1
 14829 03dc 55       		.byte	0x55
 14830 03dd 3E010000 		.4byte	.LVL96
 14831 03e1 4C010000 		.4byte	.LVL98
 14832 03e5 0300     		.2byte	0x3
 14833 03e7 79       		.byte	0x79
 14834 03e8 75       		.sleb128 -11
 14835 03e9 9F       		.byte	0x9f
 14836 03ea 4C010000 		.4byte	.LVL98
 14837 03ee 50010000 		.4byte	.LFE42
 14838 03f2 0400     		.2byte	0x4
 14839 03f4 F3       		.byte	0xf3
 14840 03f5 01       		.uleb128 0x1
 14841 03f6 50       		.byte	0x50
 14842 03f7 9F       		.byte	0x9f
 14843 03f8 00000000 		.4byte	0
 14844 03fc 00000000 		.4byte	0
 14845              	.LLST23:
 14846 0400 2E000000 		.4byte	.LVL65
ARM GAS  C:\Users\AHMEDH~1\AppData\Local\Temp\cclxJjJK.s 			page 294


 14847 0404 38000000 		.4byte	.LVL66
 14848 0408 0100     		.2byte	0x1
 14849 040a 50       		.byte	0x50
 14850 040b 3E000000 		.4byte	.LVL67
 14851 040f 50000000 		.4byte	.LVL68
 14852 0413 0100     		.2byte	0x1
 14853 0415 50       		.byte	0x50
 14854 0416 50000000 		.4byte	.LVL68
 14855 041a 5A000000 		.4byte	.LVL69
 14856 041e 0100     		.2byte	0x1
 14857 0420 51       		.byte	0x51
 14858 0421 7A000000 		.4byte	.LVL73
 14859 0425 8C000000 		.4byte	.LVL74
 14860 0429 0100     		.2byte	0x1
 14861 042b 50       		.byte	0x50
 14862 042c 8C000000 		.4byte	.LVL74
 14863 0430 90000000 		.4byte	.LVL75
 14864 0434 0300     		.2byte	0x3
 14865 0436 70       		.byte	0x70
 14866 0437 7F       		.sleb128 -1
 14867 0438 9F       		.byte	0x9f
 14868 0439 90000000 		.4byte	.LVL75
 14869 043d 96000000 		.4byte	.LVL76
 14870 0441 0300     		.2byte	0x3
 14871 0443 70       		.byte	0x70
 14872 0444 72       		.sleb128 -14
 14873 0445 9F       		.byte	0x9f
 14874 0446 9E000000 		.4byte	.LVL77
 14875 044a A6000000 		.4byte	.LVL78
 14876 044e 0100     		.2byte	0x1
 14877 0450 54       		.byte	0x54
 14878 0451 A6000000 		.4byte	.LVL78
 14879 0455 AA000000 		.4byte	.LVL79
 14880 0459 0300     		.2byte	0x3
 14881 045b 70       		.byte	0x70
 14882 045c 7F       		.sleb128 -1
 14883 045d 9F       		.byte	0x9f
 14884 045e AA000000 		.4byte	.LVL79
 14885 0462 AE000000 		.4byte	.LVL80
 14886 0466 0300     		.2byte	0x3
 14887 0468 74       		.byte	0x74
 14888 0469 79       		.sleb128 -7
 14889 046a 9F       		.byte	0x9f
 14890 046b AE000000 		.4byte	.LVL80
 14891 046f B0000000 		.4byte	.LVL81
 14892 0473 0300     		.2byte	0x3
 14893 0475 70       		.byte	0x70
 14894 0476 72       		.sleb128 -14
 14895 0477 9F       		.byte	0x9f
 14896 0478 B8000000 		.4byte	.LVL82
 14897 047c E0000000 		.4byte	.LVL86
 14898 0480 0100     		.2byte	0x1
 14899 0482 54       		.byte	0x54
 14900 0483 E0000000 		.4byte	.LVL86
 14901 0487 E2000000 		.4byte	.LVL87
 14902 048b 0200     		.2byte	0x2
 14903 048d 31       		.byte	0x31
ARM GAS  C:\Users\AHMEDH~1\AppData\Local\Temp\cclxJjJK.s 			page 295


 14904 048e 9F       		.byte	0x9f
 14905 048f E2000000 		.4byte	.LVL87
 14906 0493 4C010000 		.4byte	.LVL98
 14907 0497 0100     		.2byte	0x1
 14908 0499 54       		.byte	0x54
 14909 049a 4C010000 		.4byte	.LVL98
 14910 049e 50010000 		.4byte	.LFE42
 14911 04a2 0300     		.2byte	0x3
 14912 04a4 70       		.byte	0x70
 14913 04a5 6E       		.sleb128 -18
 14914 04a6 9F       		.byte	0x9f
 14915 04a7 00000000 		.4byte	0
 14916 04ab 00000000 		.4byte	0
 14917              	.LLST24:
 14918 04af 00000000 		.4byte	.LVL61
 14919 04b3 1A000000 		.4byte	.LVL63
 14920 04b7 0200     		.2byte	0x2
 14921 04b9 31       		.byte	0x31
 14922 04ba 9F       		.byte	0x9f
 14923 04bb 1A000000 		.4byte	.LVL63
 14924 04bf 22000000 		.4byte	.LVL64
 14925 04c3 0200     		.2byte	0x2
 14926 04c5 36       		.byte	0x36
 14927 04c6 9F       		.byte	0x9f
 14928 04c7 22000000 		.4byte	.LVL64
 14929 04cb 5E000000 		.4byte	.LVL70
 14930 04cf 0200     		.2byte	0x2
 14931 04d1 37       		.byte	0x37
 14932 04d2 9F       		.byte	0x9f
 14933 04d3 5E000000 		.4byte	.LVL70
 14934 04d7 68000000 		.4byte	.LVL71
 14935 04db 0200     		.2byte	0x2
 14936 04dd 3A       		.byte	0x3a
 14937 04de 9F       		.byte	0x9f
 14938 04df 68000000 		.4byte	.LVL71
 14939 04e3 F4000000 		.4byte	.LVL89
 14940 04e7 0200     		.2byte	0x2
 14941 04e9 3B       		.byte	0x3b
 14942 04ea 9F       		.byte	0x9f
 14943 04eb F4000000 		.4byte	.LVL89
 14944 04ef F6000000 		.4byte	.LVL90
 14945 04f3 0100     		.2byte	0x1
 14946 04f5 56       		.byte	0x56
 14947 04f6 F6000000 		.4byte	.LVL90
 14948 04fa 3C010000 		.4byte	.LVL95
 14949 04fe 0300     		.2byte	0x3
 14950 0500 74       		.byte	0x74
 14951 0501 0D       		.sleb128 13
 14952 0502 9F       		.byte	0x9f
 14953 0503 3C010000 		.4byte	.LVL95
 14954 0507 44010000 		.4byte	.LVL97
 14955 050b 0300     		.2byte	0x3
 14956 050d 74       		.byte	0x74
 14957 050e 12       		.sleb128 18
 14958 050f 9F       		.byte	0x9f
 14959 0510 44010000 		.4byte	.LVL97
 14960 0514 50010000 		.4byte	.LFE42
ARM GAS  C:\Users\AHMEDH~1\AppData\Local\Temp\cclxJjJK.s 			page 296


 14961 0518 0100     		.2byte	0x1
 14962 051a 50       		.byte	0x50
 14963 051b 00000000 		.4byte	0
 14964 051f 00000000 		.4byte	0
 14965              	.LLST25:
 14966 0523 64000000 		.4byte	.LVL108
 14967 0527 6A000000 		.4byte	.LVL110
 14968 052b 0100     		.2byte	0x1
 14969 052d 50       		.byte	0x50
 14970 052e BE000000 		.4byte	.LVL119
 14971 0532 C4000000 		.4byte	.LVL121
 14972 0536 0100     		.2byte	0x1
 14973 0538 50       		.byte	0x50
 14974 0539 00000000 		.4byte	0
 14975 053d 00000000 		.4byte	0
 14976              	.LLST26:
 14977 0541 36000000 		.4byte	.LVL102
 14978 0545 44000000 		.4byte	.LVL103
 14979 0549 0100     		.2byte	0x1
 14980 054b 50       		.byte	0x50
 14981 054c 44000000 		.4byte	.LVL103
 14982 0550 50000000 		.4byte	.LVL105
 14983 0554 0100     		.2byte	0x1
 14984 0556 55       		.byte	0x55
 14985 0557 50000000 		.4byte	.LVL105
 14986 055b 52000000 		.4byte	.LVL106
 14987 055f 0100     		.2byte	0x1
 14988 0561 50       		.byte	0x50
 14989 0562 52000000 		.4byte	.LVL106
 14990 0566 AE000000 		.4byte	.LVL117
 14991 056a 0100     		.2byte	0x1
 14992 056c 55       		.byte	0x55
 14993 056d AE000000 		.4byte	.LVL117
 14994 0571 B2000000 		.4byte	.LVL118
 14995 0575 0100     		.2byte	0x1
 14996 0577 50       		.byte	0x50
 14997 0578 B2000000 		.4byte	.LVL118
 14998 057c 06010000 		.4byte	.LVL127
 14999 0580 0100     		.2byte	0x1
 15000 0582 55       		.byte	0x55
 15001 0583 00000000 		.4byte	0
 15002 0587 00000000 		.4byte	0
 15003              	.LLST27:
 15004 058b 68000000 		.4byte	.LVL109
 15005 058f 9E000000 		.4byte	.LVL115
 15006 0593 0200     		.2byte	0x2
 15007 0595 3C       		.byte	0x3c
 15008 0596 9F       		.byte	0x9f
 15009 0597 00000000 		.4byte	0
 15010 059b 00000000 		.4byte	0
 15011              	.LLST28:
 15012 059f 70000000 		.4byte	.LVL111
 15013 05a3 7B000000 		.4byte	.LVL112-1
 15014 05a7 0100     		.2byte	0x1
 15015 05a9 50       		.byte	0x50
 15016 05aa 7B000000 		.4byte	.LVL112-1
 15017 05ae 9E000000 		.4byte	.LVL115
ARM GAS  C:\Users\AHMEDH~1\AppData\Local\Temp\cclxJjJK.s 			page 297


 15018 05b2 0100     		.2byte	0x1
 15019 05b4 56       		.byte	0x56
 15020 05b5 00000000 		.4byte	0
 15021 05b9 00000000 		.4byte	0
 15022              	.LLST29:
 15023 05bd C2000000 		.4byte	.LVL120
 15024 05c1 F8000000 		.4byte	.LVL126
 15025 05c5 0200     		.2byte	0x2
 15026 05c7 3C       		.byte	0x3c
 15027 05c8 9F       		.byte	0x9f
 15028 05c9 00000000 		.4byte	0
 15029 05cd 00000000 		.4byte	0
 15030              	.LLST30:
 15031 05d1 CA000000 		.4byte	.LVL122
 15032 05d5 D5000000 		.4byte	.LVL123-1
 15033 05d9 0100     		.2byte	0x1
 15034 05db 50       		.byte	0x50
 15035 05dc D5000000 		.4byte	.LVL123-1
 15036 05e0 F8000000 		.4byte	.LVL126
 15037 05e4 0100     		.2byte	0x1
 15038 05e6 56       		.byte	0x56
 15039 05e7 00000000 		.4byte	0
 15040 05eb 00000000 		.4byte	0
 15041              	.LLST31:
 15042 05ef 00000000 		.4byte	.LVL128
 15043 05f3 20000000 		.4byte	.LVL130
 15044 05f7 0100     		.2byte	0x1
 15045 05f9 50       		.byte	0x50
 15046 05fa 20000000 		.4byte	.LVL130
 15047 05fe B2020000 		.4byte	.LVL161
 15048 0602 0100     		.2byte	0x1
 15049 0604 58       		.byte	0x58
 15050 0605 B2020000 		.4byte	.LVL161
 15051 0609 F0020000 		.4byte	.LFE13
 15052 060d 0400     		.2byte	0x4
 15053 060f F3       		.byte	0xf3
 15054 0610 01       		.uleb128 0x1
 15055 0611 50       		.byte	0x50
 15056 0612 9F       		.byte	0x9f
 15057 0613 00000000 		.4byte	0
 15058 0617 00000000 		.4byte	0
 15059              	.LLST32:
 15060 061b 1C000000 		.4byte	.LVL129
 15061 061f AC020000 		.4byte	.LVL160
 15062 0623 0400     		.2byte	0x4
 15063 0625 0A       		.byte	0xa
 15064 0626 434C     		.2byte	0x4c43
 15065 0628 9F       		.byte	0x9f
 15066 0629 00000000 		.4byte	0
 15067 062d 00000000 		.4byte	0
 15068              	.LLST33:
 15069 0631 42000000 		.4byte	.LVL131
 15070 0635 AC020000 		.4byte	.LVL160
 15071 0639 0100     		.2byte	0x1
 15072 063b 58       		.byte	0x58
 15073 063c 00000000 		.4byte	0
 15074 0640 00000000 		.4byte	0
ARM GAS  C:\Users\AHMEDH~1\AppData\Local\Temp\cclxJjJK.s 			page 298


 15075              	.LLST34:
 15076 0644 66000000 		.4byte	.LVL132
 15077 0648 70000000 		.4byte	.LVL133
 15078 064c 1300     		.2byte	0x13
 15079 064e 76       		.byte	0x76
 15080 064f 00       		.sleb128 0
 15081 0650 06       		.byte	0x6
 15082 0651 23       		.byte	0x23
 15083 0652 D978     		.uleb128 0x3c59
 15084 0654 94       		.byte	0x94
 15085 0655 01       		.byte	0x1
 15086 0656 08       		.byte	0x8
 15087 0657 FF       		.byte	0xff
 15088 0658 1A       		.byte	0x1a
 15089 0659 32       		.byte	0x32
 15090 065a 24       		.byte	0x24
 15091 065b 03       		.byte	0x3
 15092 065c 00000000 		.4byte	KItfRespTbl
 15093 0660 22       		.byte	0x22
 15094 0661 70000000 		.4byte	.LVL133
 15095 0665 74000000 		.4byte	.LVL134
 15096 0669 0300     		.2byte	0x3
 15097 066b 75       		.byte	0x75
 15098 066c 02       		.sleb128 2
 15099 066d 9F       		.byte	0x9f
 15100 066e 74000000 		.4byte	.LVL134
 15101 0672 A0020000 		.4byte	.LVL157
 15102 0676 0100     		.2byte	0x1
 15103 0678 55       		.byte	0x55
 15104 0679 A0020000 		.4byte	.LVL157
 15105 067d A2020000 		.4byte	.LVL158
 15106 0681 0300     		.2byte	0x3
 15107 0683 75       		.byte	0x75
 15108 0684 02       		.sleb128 2
 15109 0685 9F       		.byte	0x9f
 15110 0686 A2020000 		.4byte	.LVL158
 15111 068a AC020000 		.4byte	.LVL160
 15112 068e 0100     		.2byte	0x1
 15113 0690 55       		.byte	0x55
 15114 0691 00000000 		.4byte	0
 15115 0695 00000000 		.4byte	0
 15116              	.LLST35:
 15117 0699 66000000 		.4byte	.LVL132
 15118 069d A8020000 		.4byte	.LVL159
 15119 06a1 0100     		.2byte	0x1
 15120 06a3 54       		.byte	0x54
 15121 06a4 00000000 		.4byte	0
 15122 06a8 00000000 		.4byte	0
 15123              	.LLST36:
 15124 06ac FA010000 		.4byte	.LVL144
 15125 06b0 18020000 		.4byte	.LVL146
 15126 06b4 0400     		.2byte	0x4
 15127 06b6 91       		.byte	0x91
 15128 06b7 987F     		.sleb128 -104
 15129 06b9 9F       		.byte	0x9f
 15130 06ba 18020000 		.4byte	.LVL146
 15131 06be 2C020000 		.4byte	.LVL148
ARM GAS  C:\Users\AHMEDH~1\AppData\Local\Temp\cclxJjJK.s 			page 299


 15132 06c2 0400     		.2byte	0x4
 15133 06c4 91       		.byte	0x91
 15134 06c5 9A7F     		.sleb128 -102
 15135 06c7 9F       		.byte	0x9f
 15136 06c8 2C020000 		.4byte	.LVL148
 15137 06cc 2F020000 		.4byte	.LVL149-1
 15138 06d0 0100     		.2byte	0x1
 15139 06d2 50       		.byte	0x50
 15140 06d3 2F020000 		.4byte	.LVL149-1
 15141 06d7 30020000 		.4byte	.LVL149
 15142 06db 0400     		.2byte	0x4
 15143 06dd 91       		.byte	0x91
 15144 06de 9A7F     		.sleb128 -102
 15145 06e0 9F       		.byte	0x9f
 15146 06e1 30020000 		.4byte	.LVL149
 15147 06e5 46020000 		.4byte	.LVL151
 15148 06e9 0400     		.2byte	0x4
 15149 06eb 91       		.byte	0x91
 15150 06ec A07F     		.sleb128 -96
 15151 06ee 9F       		.byte	0x9f
 15152 06ef 46020000 		.4byte	.LVL151
 15153 06f3 56020000 		.4byte	.LVL153
 15154 06f7 0400     		.2byte	0x4
 15155 06f9 91       		.byte	0x91
 15156 06fa A27F     		.sleb128 -94
 15157 06fc 9F       		.byte	0x9f
 15158 06fd 56020000 		.4byte	.LVL153
 15159 0701 59020000 		.4byte	.LVL154-1
 15160 0705 0100     		.2byte	0x1
 15161 0707 50       		.byte	0x50
 15162 0708 59020000 		.4byte	.LVL154-1
 15163 070c 5A020000 		.4byte	.LVL154
 15164 0710 0400     		.2byte	0x4
 15165 0712 91       		.byte	0x91
 15166 0713 A27F     		.sleb128 -94
 15167 0715 9F       		.byte	0x9f
 15168 0716 5A020000 		.4byte	.LVL154
 15169 071a 62020000 		.4byte	.LVL155
 15170 071e 0400     		.2byte	0x4
 15171 0720 91       		.byte	0x91
 15172 0721 A87F     		.sleb128 -88
 15173 0723 9F       		.byte	0x9f
 15174 0724 00000000 		.4byte	0
 15175 0728 00000000 		.4byte	0
 15176              	.LLST37:
 15177 072c B4010000 		.4byte	.LVL141
 15178 0730 C4010000 		.4byte	.LVL142
 15179 0734 0100     		.2byte	0x1
 15180 0736 53       		.byte	0x53
 15181 0737 00000000 		.4byte	0
 15182 073b 00000000 		.4byte	0
 15183              	.LLST38:
 15184 073f B6000000 		.4byte	.LVL137
 15185 0743 BA000000 		.4byte	.LVL138
 15186 0747 0100     		.2byte	0x1
 15187 0749 53       		.byte	0x53
 15188 074a BA000000 		.4byte	.LVL138
ARM GAS  C:\Users\AHMEDH~1\AppData\Local\Temp\cclxJjJK.s 			page 300


 15189 074e C0000000 		.4byte	.LVL139
 15190 0752 0800     		.2byte	0x8
 15191 0754 73       		.byte	0x73
 15192 0755 00       		.sleb128 0
 15193 0756 31       		.byte	0x31
 15194 0757 25       		.byte	0x25
 15195 0758 71       		.byte	0x71
 15196 0759 00       		.sleb128 0
 15197 075a 22       		.byte	0x22
 15198 075b 9F       		.byte	0x9f
 15199 075c C0000000 		.4byte	.LVL139
 15200 0760 C2000000 		.4byte	.LVL140
 15201 0764 0A00     		.2byte	0xa
 15202 0766 73       		.byte	0x73
 15203 0767 00       		.sleb128 0
 15204 0768 31       		.byte	0x31
 15205 0769 25       		.byte	0x25
 15206 076a 73       		.byte	0x73
 15207 076b 00       		.sleb128 0
 15208 076c 31       		.byte	0x31
 15209 076d 1A       		.byte	0x1a
 15210 076e 22       		.byte	0x22
 15211 076f 9F       		.byte	0x9f
 15212 0770 00000000 		.4byte	0
 15213 0774 00000000 		.4byte	0
 15214              	.LLST39:
 15215 0778 00000000 		.4byte	.LVL168
 15216 077c 10000000 		.4byte	.LVL169
 15217 0780 0100     		.2byte	0x1
 15218 0782 50       		.byte	0x50
 15219 0783 10000000 		.4byte	.LVL169
 15220 0787 84050000 		.4byte	.LVL292
 15221 078b 0100     		.2byte	0x1
 15222 078d 55       		.byte	0x55
 15223 078e 84050000 		.4byte	.LVL292
 15224 0792 A8050000 		.4byte	.LFE19
 15225 0796 0400     		.2byte	0x4
 15226 0798 F3       		.byte	0xf3
 15227 0799 01       		.uleb128 0x1
 15228 079a 50       		.byte	0x50
 15229 079b 9F       		.byte	0x9f
 15230 079c 00000000 		.4byte	0
 15231 07a0 00000000 		.4byte	0
 15232              	.LLST40:
 15233 07a4 00000000 		.4byte	.LVL168
 15234 07a8 12000000 		.4byte	.LVL170
 15235 07ac 0100     		.2byte	0x1
 15236 07ae 51       		.byte	0x51
 15237 07af 12000000 		.4byte	.LVL170
 15238 07b3 A8050000 		.4byte	.LFE19
 15239 07b7 0400     		.2byte	0x4
 15240 07b9 F3       		.byte	0xf3
 15241 07ba 01       		.uleb128 0x1
 15242 07bb 51       		.byte	0x51
 15243 07bc 9F       		.byte	0x9f
 15244 07bd 00000000 		.4byte	0
 15245 07c1 00000000 		.4byte	0
ARM GAS  C:\Users\AHMEDH~1\AppData\Local\Temp\cclxJjJK.s 			page 301


 15246              	.LLST41:
 15247 07c5 18000000 		.4byte	.LVL171
 15248 07c9 74020000 		.4byte	.LVL209
 15249 07cd 0100     		.2byte	0x1
 15250 07cf 58       		.byte	0x58
 15251 07d0 38030000 		.4byte	.LVL223
 15252 07d4 68030000 		.4byte	.LVL231
 15253 07d8 0100     		.2byte	0x1
 15254 07da 58       		.byte	0x58
 15255 07db CE030000 		.4byte	.LVL238
 15256 07df E6030000 		.4byte	.LVL243
 15257 07e3 0100     		.2byte	0x1
 15258 07e5 58       		.byte	0x58
 15259 07e6 40040000 		.4byte	.LVL254
 15260 07ea 6A050000 		.4byte	.LVL289
 15261 07ee 0100     		.2byte	0x1
 15262 07f0 58       		.byte	0x58
 15263 07f1 00000000 		.4byte	0
 15264 07f5 00000000 		.4byte	0
 15265              	.LLST42:
 15266 07f9 8C010000 		.4byte	.LVL189
 15267 07fd 92010000 		.4byte	.LVL190
 15268 0801 0600     		.2byte	0x6
 15269 0803 03       		.byte	0x3
 15270 0804 18000000 		.4byte	gReqBuf
 15271 0808 9F       		.byte	0x9f
 15272 0809 E4010000 		.4byte	.LVL193
 15273 080d 04040000 		.4byte	.LVL247
 15274 0811 0600     		.2byte	0x6
 15275 0813 03       		.byte	0x3
 15276 0814 18000000 		.4byte	gReqBuf
 15277 0818 9F       		.byte	0x9f
 15278 0819 08040000 		.4byte	.LVL248
 15279 081d 68050000 		.4byte	.LVL288
 15280 0821 0600     		.2byte	0x6
 15281 0823 03       		.byte	0x3
 15282 0824 18000000 		.4byte	gReqBuf
 15283 0828 9F       		.byte	0x9f
 15284 0829 00000000 		.4byte	0
 15285 082d 00000000 		.4byte	0
 15286              	.LLST43:
 15287 0831 8C010000 		.4byte	.LVL189
 15288 0835 92010000 		.4byte	.LVL190
 15289 0839 0100     		.2byte	0x1
 15290 083b 58       		.byte	0x58
 15291 083c E4010000 		.4byte	.LVL193
 15292 0840 74020000 		.4byte	.LVL209
 15293 0844 0100     		.2byte	0x1
 15294 0846 58       		.byte	0x58
 15295 0847 38030000 		.4byte	.LVL223
 15296 084b 68030000 		.4byte	.LVL231
 15297 084f 0100     		.2byte	0x1
 15298 0851 58       		.byte	0x58
 15299 0852 CE030000 		.4byte	.LVL238
 15300 0856 E6030000 		.4byte	.LVL243
 15301 085a 0100     		.2byte	0x1
 15302 085c 58       		.byte	0x58
ARM GAS  C:\Users\AHMEDH~1\AppData\Local\Temp\cclxJjJK.s 			page 302


 15303 085d 40040000 		.4byte	.LVL254
 15304 0861 68050000 		.4byte	.LVL288
 15305 0865 0100     		.2byte	0x1
 15306 0867 58       		.byte	0x58
 15307 0868 00000000 		.4byte	0
 15308 086c 00000000 		.4byte	0
 15309              	.LLST44:
 15310 0870 8C010000 		.4byte	.LVL189
 15311 0874 92010000 		.4byte	.LVL190
 15312 0878 0100     		.2byte	0x1
 15313 087a 55       		.byte	0x55
 15314 087b E4010000 		.4byte	.LVL193
 15315 087f 04040000 		.4byte	.LVL247
 15316 0883 0100     		.2byte	0x1
 15317 0885 55       		.byte	0x55
 15318 0886 08040000 		.4byte	.LVL248
 15319 088a 68050000 		.4byte	.LVL288
 15320 088e 0100     		.2byte	0x1
 15321 0890 55       		.byte	0x55
 15322 0891 00000000 		.4byte	0
 15323 0895 00000000 		.4byte	0
 15324              	.LLST45:
 15325 0899 5E050000 		.4byte	.LVL286
 15326 089d 63050000 		.4byte	.LVL287-1
 15327 08a1 0100     		.2byte	0x1
 15328 08a3 50       		.byte	0x50
 15329 08a4 63050000 		.4byte	.LVL287-1
 15330 08a8 68050000 		.4byte	.LVL288
 15331 08ac 0300     		.2byte	0x3
 15332 08ae 91       		.byte	0x91
 15333 08af B47F     		.sleb128 -76
 15334 08b1 00000000 		.4byte	0
 15335 08b5 00000000 		.4byte	0
 15336              	.LLST46:
 15337 08b9 86040000 		.4byte	.LVL260
 15338 08bd 88040000 		.4byte	.LVL261
 15339 08c1 0100     		.2byte	0x1
 15340 08c3 50       		.byte	0x50
 15341 08c4 00000000 		.4byte	0
 15342 08c8 00000000 		.4byte	0
 15343              	.LLST47:
 15344 08cc 7E040000 		.4byte	.LVL259
 15345 08d0 85040000 		.4byte	.LVL260-1
 15346 08d4 0100     		.2byte	0x1
 15347 08d6 50       		.byte	0x50
 15348 08d7 D4040000 		.4byte	.LVL263
 15349 08db DB040000 		.4byte	.LVL264-1
 15350 08df 0100     		.2byte	0x1
 15351 08e1 50       		.byte	0x50
 15352 08e2 DB040000 		.4byte	.LVL264-1
 15353 08e6 F8040000 		.4byte	.LVL268
 15354 08ea 0100     		.2byte	0x1
 15355 08ec 57       		.byte	0x57
 15356 08ed 00000000 		.4byte	0
 15357 08f1 00000000 		.4byte	0
 15358              	.LLST48:
 15359 08f5 8C010000 		.4byte	.LVL189
ARM GAS  C:\Users\AHMEDH~1\AppData\Local\Temp\cclxJjJK.s 			page 303


 15360 08f9 92010000 		.4byte	.LVL190
 15361 08fd 0200     		.2byte	0x2
 15362 08ff 31       		.byte	0x31
 15363 0900 9F       		.byte	0x9f
 15364 0901 E4010000 		.4byte	.LVL193
 15365 0905 04040000 		.4byte	.LVL247
 15366 0909 0200     		.2byte	0x2
 15367 090b 31       		.byte	0x31
 15368 090c 9F       		.byte	0x9f
 15369 090d 08040000 		.4byte	.LVL248
 15370 0911 F6040000 		.4byte	.LVL267
 15371 0915 0200     		.2byte	0x2
 15372 0917 31       		.byte	0x31
 15373 0918 9F       		.byte	0x9f
 15374 0919 F8040000 		.4byte	.LVL268
 15375 091d FC040000 		.4byte	.LVL269
 15376 0921 0200     		.2byte	0x2
 15377 0923 31       		.byte	0x31
 15378 0924 9F       		.byte	0x9f
 15379 0925 FC040000 		.4byte	.LVL269
 15380 0929 FE040000 		.4byte	.LVL270
 15381 092d 0100     		.2byte	0x1
 15382 092f 50       		.byte	0x50
 15383 0930 FE040000 		.4byte	.LVL270
 15384 0934 04050000 		.4byte	.LVL271
 15385 0938 0200     		.2byte	0x2
 15386 093a 31       		.byte	0x31
 15387 093b 9F       		.byte	0x9f
 15388 093c 04050000 		.4byte	.LVL271
 15389 0940 06050000 		.4byte	.LVL272
 15390 0944 0100     		.2byte	0x1
 15391 0946 50       		.byte	0x50
 15392 0947 06050000 		.4byte	.LVL272
 15393 094b 0A050000 		.4byte	.LVL273
 15394 094f 0200     		.2byte	0x2
 15395 0951 31       		.byte	0x31
 15396 0952 9F       		.byte	0x9f
 15397 0953 0A050000 		.4byte	.LVL273
 15398 0957 0C050000 		.4byte	.LVL274
 15399 095b 0100     		.2byte	0x1
 15400 095d 50       		.byte	0x50
 15401 095e 4C050000 		.4byte	.LVL283
 15402 0962 4E050000 		.4byte	.LVL284
 15403 0966 0100     		.2byte	0x1
 15404 0968 50       		.byte	0x50
 15405 0969 00000000 		.4byte	0
 15406 096d 00000000 		.4byte	0
 15407              	.LLST49:
 15408 0971 02020000 		.4byte	.LVL194
 15409 0975 34020000 		.4byte	.LVL203
 15410 0979 0600     		.2byte	0x6
 15411 097b 03       		.byte	0x3
 15412 097c 18000000 		.4byte	gReqBuf
 15413 0980 9F       		.byte	0x9f
 15414 0981 00000000 		.4byte	0
 15415 0985 00000000 		.4byte	0
 15416              	.LLST50:
ARM GAS  C:\Users\AHMEDH~1\AppData\Local\Temp\cclxJjJK.s 			page 304


 15417 0989 02020000 		.4byte	.LVL194
 15418 098d 34020000 		.4byte	.LVL203
 15419 0991 0100     		.2byte	0x1
 15420 0993 55       		.byte	0x55
 15421 0994 00000000 		.4byte	0
 15422 0998 00000000 		.4byte	0
 15423              	.LLST51:
 15424 099c 12020000 		.4byte	.LVL196
 15425 09a0 1A020000 		.4byte	.LVL197
 15426 09a4 0100     		.2byte	0x1
 15427 09a6 50       		.byte	0x50
 15428 09a7 1A020000 		.4byte	.LVL197
 15429 09ab 34020000 		.4byte	.LVL203
 15430 09af 0100     		.2byte	0x1
 15431 09b1 54       		.byte	0x54
 15432 09b2 00000000 		.4byte	0
 15433 09b6 00000000 		.4byte	0
 15434              	.LLST52:
 15435 09ba 02020000 		.4byte	.LVL194
 15436 09be 08020000 		.4byte	.LVL195
 15437 09c2 0200     		.2byte	0x2
 15438 09c4 31       		.byte	0x31
 15439 09c5 9F       		.byte	0x9f
 15440 09c6 08020000 		.4byte	.LVL195
 15441 09ca 24020000 		.4byte	.LVL198
 15442 09ce 0200     		.2byte	0x2
 15443 09d0 32       		.byte	0x32
 15444 09d1 9F       		.byte	0x9f
 15445 09d2 24020000 		.4byte	.LVL198
 15446 09d6 26020000 		.4byte	.LVL199
 15447 09da 0300     		.2byte	0x3
 15448 09dc 74       		.byte	0x74
 15449 09dd 02       		.sleb128 2
 15450 09de 9F       		.byte	0x9f
 15451 09df 26020000 		.4byte	.LVL199
 15452 09e3 2C020000 		.4byte	.LVL200
 15453 09e7 0100     		.2byte	0x1
 15454 09e9 51       		.byte	0x51
 15455 09ea 2C020000 		.4byte	.LVL200
 15456 09ee 32020000 		.4byte	.LVL202
 15457 09f2 0300     		.2byte	0x3
 15458 09f4 74       		.byte	0x74
 15459 09f5 02       		.sleb128 2
 15460 09f6 9F       		.byte	0x9f
 15461 09f7 32020000 		.4byte	.LVL202
 15462 09fb 34020000 		.4byte	.LVL203
 15463 09ff 0100     		.2byte	0x1
 15464 0a01 50       		.byte	0x50
 15465 0a02 00000000 		.4byte	0
 15466 0a06 00000000 		.4byte	0
 15467              	.LLST53:
 15468 0a0a 02020000 		.4byte	.LVL194
 15469 0a0e 34020000 		.4byte	.LVL203
 15470 0a12 0300     		.2byte	0x3
 15471 0a14 75       		.byte	0x75
 15472 0a15 0D       		.sleb128 13
 15473 0a16 9F       		.byte	0x9f
ARM GAS  C:\Users\AHMEDH~1\AppData\Local\Temp\cclxJjJK.s 			page 305


 15474 0a17 00000000 		.4byte	0
 15475 0a1b 00000000 		.4byte	0
 15476              	.LLST54:
 15477 0a1f 34020000 		.4byte	.LVL203
 15478 0a23 58020000 		.4byte	.LVL205
 15479 0a27 0100     		.2byte	0x1
 15480 0a29 55       		.byte	0x55
 15481 0a2a 00000000 		.4byte	0
 15482 0a2e 00000000 		.4byte	0
 15483              	.LLST55:
 15484 0a32 42020000 		.4byte	.LVL204
 15485 0a36 58020000 		.4byte	.LVL205
 15486 0a3a 0200     		.2byte	0x2
 15487 0a3c 31       		.byte	0x31
 15488 0a3d 9F       		.byte	0x9f
 15489 0a3e 00000000 		.4byte	0
 15490 0a42 00000000 		.4byte	0
 15491              	.LLST56:
 15492 0a46 42020000 		.4byte	.LVL204
 15493 0a4a 58020000 		.4byte	.LVL205
 15494 0a4e 0300     		.2byte	0x3
 15495 0a50 75       		.byte	0x75
 15496 0a51 0D       		.sleb128 13
 15497 0a52 9F       		.byte	0x9f
 15498 0a53 00000000 		.4byte	0
 15499 0a57 00000000 		.4byte	0
 15500              	.LLST57:
 15501 0a5b 58020000 		.4byte	.LVL205
 15502 0a5f 38030000 		.4byte	.LVL223
 15503 0a63 0600     		.2byte	0x6
 15504 0a65 03       		.byte	0x3
 15505 0a66 18000000 		.4byte	gReqBuf
 15506 0a6a 9F       		.byte	0x9f
 15507 0a6b 00000000 		.4byte	0
 15508 0a6f 00000000 		.4byte	0
 15509              	.LLST58:
 15510 0a73 58020000 		.4byte	.LVL205
 15511 0a77 38030000 		.4byte	.LVL223
 15512 0a7b 0100     		.2byte	0x1
 15513 0a7d 55       		.byte	0x55
 15514 0a7e 00000000 		.4byte	0
 15515 0a82 00000000 		.4byte	0
 15516              	.LLST59:
 15517 0a86 60020000 		.4byte	.LVL206
 15518 0a8a 6A020000 		.4byte	.LVL207
 15519 0a8e 0700     		.2byte	0x7
 15520 0a90 70       		.byte	0x70
 15521 0a91 00       		.sleb128 0
 15522 0a92 0A       		.byte	0xa
 15523 0a93 FFFF     		.2byte	0xffff
 15524 0a95 1A       		.byte	0x1a
 15525 0a96 9F       		.byte	0x9f
 15526 0a97 00000000 		.4byte	0
 15527 0a9b 00000000 		.4byte	0
 15528              	.LLST60:
 15529 0a9f 0E030000 		.4byte	.LVL218
 15530 0aa3 14030000 		.4byte	.LVL219
ARM GAS  C:\Users\AHMEDH~1\AppData\Local\Temp\cclxJjJK.s 			page 306


 15531 0aa7 0200     		.2byte	0x2
 15532 0aa9 31       		.byte	0x31
 15533 0aaa 9F       		.byte	0x9f
 15534 0aab 14030000 		.4byte	.LVL219
 15535 0aaf 18030000 		.4byte	.LVL220
 15536 0ab3 0200     		.2byte	0x2
 15537 0ab5 32       		.byte	0x32
 15538 0ab6 9F       		.byte	0x9f
 15539 0ab7 18030000 		.4byte	.LVL220
 15540 0abb 24030000 		.4byte	.LVL221
 15541 0abf 0200     		.2byte	0x2
 15542 0ac1 33       		.byte	0x33
 15543 0ac2 9F       		.byte	0x9f
 15544 0ac3 24030000 		.4byte	.LVL221
 15545 0ac7 30030000 		.4byte	.LVL222
 15546 0acb 0200     		.2byte	0x2
 15547 0acd 3B       		.byte	0x3b
 15548 0ace 9F       		.byte	0x9f
 15549 0acf 30030000 		.4byte	.LVL222
 15550 0ad3 38030000 		.4byte	.LVL223
 15551 0ad7 0200     		.2byte	0x2
 15552 0ad9 4B       		.byte	0x4b
 15553 0ada 9F       		.byte	0x9f
 15554 0adb 00000000 		.4byte	0
 15555 0adf 00000000 		.4byte	0
 15556              	.LLST61:
 15557 0ae3 0E030000 		.4byte	.LVL218
 15558 0ae7 38030000 		.4byte	.LVL223
 15559 0aeb 0300     		.2byte	0x3
 15560 0aed 75       		.byte	0x75
 15561 0aee 0D       		.sleb128 13
 15562 0aef 9F       		.byte	0x9f
 15563 0af0 00000000 		.4byte	0
 15564 0af4 00000000 		.4byte	0
 15565              	.LLST62:
 15566 0af8 70020000 		.4byte	.LVL208
 15567 0afc 38030000 		.4byte	.LVL223
 15568 0b00 0100     		.2byte	0x1
 15569 0b02 5A       		.byte	0x5a
 15570 0b03 00000000 		.4byte	0
 15571 0b07 00000000 		.4byte	0
 15572              	.LLST63:
 15573 0b0b 74020000 		.4byte	.LVL209
 15574 0b0f 38030000 		.4byte	.LVL223
 15575 0b13 0100     		.2byte	0x1
 15576 0b15 58       		.byte	0x58
 15577 0b16 00000000 		.4byte	0
 15578 0b1a 00000000 		.4byte	0
 15579              	.LLST64:
 15580 0b1e 74020000 		.4byte	.LVL209
 15581 0b22 38030000 		.4byte	.LVL223
 15582 0b26 0600     		.2byte	0x6
 15583 0b28 03       		.byte	0x3
 15584 0b29 27000000 		.4byte	gReqBuf+15
 15585 0b2d 9F       		.byte	0x9f
 15586 0b2e 00000000 		.4byte	0
 15587 0b32 00000000 		.4byte	0
ARM GAS  C:\Users\AHMEDH~1\AppData\Local\Temp\cclxJjJK.s 			page 307


 15588              	.LLST65:
 15589 0b36 38030000 		.4byte	.LVL223
 15590 0b3a CE030000 		.4byte	.LVL238
 15591 0b3e 0600     		.2byte	0x6
 15592 0b40 03       		.byte	0x3
 15593 0b41 18000000 		.4byte	gReqBuf
 15594 0b45 9F       		.byte	0x9f
 15595 0b46 00000000 		.4byte	0
 15596 0b4a 00000000 		.4byte	0
 15597              	.LLST66:
 15598 0b4e 38030000 		.4byte	.LVL223
 15599 0b52 CE030000 		.4byte	.LVL238
 15600 0b56 0100     		.2byte	0x1
 15601 0b58 55       		.byte	0x55
 15602 0b59 00000000 		.4byte	0
 15603 0b5d 00000000 		.4byte	0
 15604              	.LLST67:
 15605 0b61 40030000 		.4byte	.LVL224
 15606 0b65 4A030000 		.4byte	.LVL225
 15607 0b69 0700     		.2byte	0x7
 15608 0b6b 70       		.byte	0x70
 15609 0b6c 00       		.sleb128 0
 15610 0b6d 0A       		.byte	0xa
 15611 0b6e FFFF     		.2byte	0xffff
 15612 0b70 1A       		.byte	0x1a
 15613 0b71 9F       		.byte	0x9f
 15614 0b72 00000000 		.4byte	0
 15615 0b76 00000000 		.4byte	0
 15616              	.LLST68:
 15617 0b7a C4030000 		.4byte	.LVL237
 15618 0b7e CE030000 		.4byte	.LVL238
 15619 0b82 0200     		.2byte	0x2
 15620 0b84 31       		.byte	0x31
 15621 0b85 9F       		.byte	0x9f
 15622 0b86 00000000 		.4byte	0
 15623 0b8a 00000000 		.4byte	0
 15624              	.LLST69:
 15625 0b8e C4030000 		.4byte	.LVL237
 15626 0b92 CE030000 		.4byte	.LVL238
 15627 0b96 0300     		.2byte	0x3
 15628 0b98 75       		.byte	0x75
 15629 0b99 0D       		.sleb128 13
 15630 0b9a 9F       		.byte	0x9f
 15631 0b9b 00000000 		.4byte	0
 15632 0b9f 00000000 		.4byte	0
 15633              	.LLST70:
 15634 0ba3 4E030000 		.4byte	.LVL226
 15635 0ba7 CE030000 		.4byte	.LVL238
 15636 0bab 0100     		.2byte	0x1
 15637 0bad 5B       		.byte	0x5b
 15638 0bae 00000000 		.4byte	0
 15639 0bb2 00000000 		.4byte	0
 15640              	.LLST71:
 15641 0bb6 52030000 		.4byte	.LVL227
 15642 0bba CE030000 		.4byte	.LVL238
 15643 0bbe 0100     		.2byte	0x1
 15644 0bc0 5A       		.byte	0x5a
ARM GAS  C:\Users\AHMEDH~1\AppData\Local\Temp\cclxJjJK.s 			page 308


 15645 0bc1 00000000 		.4byte	0
 15646 0bc5 00000000 		.4byte	0
 15647              	.LLST72:
 15648 0bc9 56030000 		.4byte	.LVL228
 15649 0bcd CE030000 		.4byte	.LVL238
 15650 0bd1 0100     		.2byte	0x1
 15651 0bd3 59       		.byte	0x59
 15652 0bd4 00000000 		.4byte	0
 15653 0bd8 00000000 		.4byte	0
 15654              	.LLST73:
 15655 0bdc 52030000 		.4byte	.LVL227
 15656 0be0 CE030000 		.4byte	.LVL238
 15657 0be4 0600     		.2byte	0x6
 15658 0be6 03       		.byte	0x3
 15659 0be7 27000000 		.4byte	gReqBuf+15
 15660 0beb 9F       		.byte	0x9f
 15661 0bec 00000000 		.4byte	0
 15662 0bf0 00000000 		.4byte	0
 15663              	.LLST74:
 15664 0bf4 CE030000 		.4byte	.LVL238
 15665 0bf8 DA030000 		.4byte	.LVL240
 15666 0bfc 0600     		.2byte	0x6
 15667 0bfe 03       		.byte	0x3
 15668 0bff 18000000 		.4byte	gReqBuf
 15669 0c03 9F       		.byte	0x9f
 15670 0c04 DE030000 		.4byte	.LVL241
 15671 0c08 04040000 		.4byte	.LVL247
 15672 0c0c 0600     		.2byte	0x6
 15673 0c0e 03       		.byte	0x3
 15674 0c0f 18000000 		.4byte	gReqBuf
 15675 0c13 9F       		.byte	0x9f
 15676 0c14 08040000 		.4byte	.LVL248
 15677 0c18 3A040000 		.4byte	.LVL252
 15678 0c1c 0600     		.2byte	0x6
 15679 0c1e 03       		.byte	0x3
 15680 0c1f 18000000 		.4byte	gReqBuf
 15681 0c23 9F       		.byte	0x9f
 15682 0c24 00000000 		.4byte	0
 15683 0c28 00000000 		.4byte	0
 15684              	.LLST75:
 15685 0c2c CE030000 		.4byte	.LVL238
 15686 0c30 DA030000 		.4byte	.LVL240
 15687 0c34 0100     		.2byte	0x1
 15688 0c36 55       		.byte	0x55
 15689 0c37 DE030000 		.4byte	.LVL241
 15690 0c3b 04040000 		.4byte	.LVL247
 15691 0c3f 0100     		.2byte	0x1
 15692 0c41 55       		.byte	0x55
 15693 0c42 08040000 		.4byte	.LVL248
 15694 0c46 3A040000 		.4byte	.LVL252
 15695 0c4a 0100     		.2byte	0x1
 15696 0c4c 55       		.byte	0x55
 15697 0c4d 00000000 		.4byte	0
 15698 0c51 00000000 		.4byte	0
 15699              	.LLST76:
 15700 0c55 D6030000 		.4byte	.LVL239
 15701 0c59 DA030000 		.4byte	.LVL240
ARM GAS  C:\Users\AHMEDH~1\AppData\Local\Temp\cclxJjJK.s 			page 309


 15702 0c5d 0700     		.2byte	0x7
 15703 0c5f 70       		.byte	0x70
 15704 0c60 00       		.sleb128 0
 15705 0c61 0A       		.byte	0xa
 15706 0c62 FFFF     		.2byte	0xffff
 15707 0c64 1A       		.byte	0x1a
 15708 0c65 9F       		.byte	0x9f
 15709 0c66 DE030000 		.4byte	.LVL241
 15710 0c6a EE030000 		.4byte	.LVL244
 15711 0c6e 0700     		.2byte	0x7
 15712 0c70 70       		.byte	0x70
 15713 0c71 00       		.sleb128 0
 15714 0c72 0A       		.byte	0xa
 15715 0c73 FFFF     		.2byte	0xffff
 15716 0c75 1A       		.byte	0x1a
 15717 0c76 9F       		.byte	0x9f
 15718 0c77 00000000 		.4byte	0
 15719 0c7b 00000000 		.4byte	0
 15720              	.LLST77:
 15721 0c7f 32040000 		.4byte	.LVL251
 15722 0c83 3A040000 		.4byte	.LVL252
 15723 0c87 0200     		.2byte	0x2
 15724 0c89 31       		.byte	0x31
 15725 0c8a 9F       		.byte	0x9f
 15726 0c8b 3E040000 		.4byte	.LVL253
 15727 0c8f 40040000 		.4byte	.LVL254
 15728 0c93 0200     		.2byte	0x2
 15729 0c95 33       		.byte	0x33
 15730 0c96 9F       		.byte	0x9f
 15731 0c97 00000000 		.4byte	0
 15732 0c9b 00000000 		.4byte	0
 15733              	.LLST78:
 15734 0c9f 32040000 		.4byte	.LVL251
 15735 0ca3 3A040000 		.4byte	.LVL252
 15736 0ca7 0300     		.2byte	0x3
 15737 0ca9 75       		.byte	0x75
 15738 0caa 0D       		.sleb128 13
 15739 0cab 9F       		.byte	0x9f
 15740 0cac 00000000 		.4byte	0
 15741 0cb0 00000000 		.4byte	0
 15742              	.LLST79:
 15743 0cb4 E2030000 		.4byte	.LVL242
 15744 0cb8 04040000 		.4byte	.LVL247
 15745 0cbc 0100     		.2byte	0x1
 15746 0cbe 59       		.byte	0x59
 15747 0cbf 08040000 		.4byte	.LVL248
 15748 0cc3 3A040000 		.4byte	.LVL252
 15749 0cc7 0100     		.2byte	0x1
 15750 0cc9 59       		.byte	0x59
 15751 0cca 00000000 		.4byte	0
 15752 0cce 00000000 		.4byte	0
 15753              	.LLST80:
 15754 0cd2 E6030000 		.4byte	.LVL243
 15755 0cd6 04040000 		.4byte	.LVL247
 15756 0cda 0100     		.2byte	0x1
 15757 0cdc 58       		.byte	0x58
 15758 0cdd 08040000 		.4byte	.LVL248
ARM GAS  C:\Users\AHMEDH~1\AppData\Local\Temp\cclxJjJK.s 			page 310


 15759 0ce1 3A040000 		.4byte	.LVL252
 15760 0ce5 0100     		.2byte	0x1
 15761 0ce7 58       		.byte	0x58
 15762 0ce8 00000000 		.4byte	0
 15763 0cec 00000000 		.4byte	0
 15764              	.LLST81:
 15765 0cf0 E6030000 		.4byte	.LVL243
 15766 0cf4 04040000 		.4byte	.LVL247
 15767 0cf8 0600     		.2byte	0x6
 15768 0cfa 03       		.byte	0x3
 15769 0cfb 27000000 		.4byte	gReqBuf+15
 15770 0cff 9F       		.byte	0x9f
 15771 0d00 08040000 		.4byte	.LVL248
 15772 0d04 3A040000 		.4byte	.LVL252
 15773 0d08 0600     		.2byte	0x6
 15774 0d0a 03       		.byte	0x3
 15775 0d0b 27000000 		.4byte	gReqBuf+15
 15776 0d0f 9F       		.byte	0x9f
 15777 0d10 00000000 		.4byte	0
 15778 0d14 00000000 		.4byte	0
 15779              	.LLST82:
 15780 0d18 E6030000 		.4byte	.LVL243
 15781 0d1c 04040000 		.4byte	.LVL247
 15782 0d20 0600     		.2byte	0x6
 15783 0d22 03       		.byte	0x3
 15784 0d23 37000000 		.4byte	gReqBuf+31
 15785 0d27 9F       		.byte	0x9f
 15786 0d28 08040000 		.4byte	.LVL248
 15787 0d2c 3A040000 		.4byte	.LVL252
 15788 0d30 0600     		.2byte	0x6
 15789 0d32 03       		.byte	0x3
 15790 0d33 37000000 		.4byte	gReqBuf+31
 15791 0d37 9F       		.byte	0x9f
 15792 0d38 00000000 		.4byte	0
 15793 0d3c 00000000 		.4byte	0
 15794              	.LLST83:
 15795 0d40 12050000 		.4byte	.LVL275
 15796 0d44 4C050000 		.4byte	.LVL283
 15797 0d48 0200     		.2byte	0x2
 15798 0d4a 30       		.byte	0x30
 15799 0d4b 9F       		.byte	0x9f
 15800 0d4c 00000000 		.4byte	0
 15801 0d50 00000000 		.4byte	0
 15802              	.LLST85:
 15803 0d54 12050000 		.4byte	.LVL275
 15804 0d58 4C050000 		.4byte	.LVL283
 15805 0d5c 0400     		.2byte	0x4
 15806 0d5e 91       		.byte	0x91
 15807 0d5f B87F     		.sleb128 -72
 15808 0d61 9F       		.byte	0x9f
 15809 0d62 00000000 		.4byte	0
 15810 0d66 00000000 		.4byte	0
 15811              	.LLST86:
 15812 0d6a 12050000 		.4byte	.LVL275
 15813 0d6e 4C050000 		.4byte	.LVL283
 15814 0d72 0100     		.2byte	0x1
 15815 0d74 55       		.byte	0x55
ARM GAS  C:\Users\AHMEDH~1\AppData\Local\Temp\cclxJjJK.s 			page 311


 15816 0d75 00000000 		.4byte	0
 15817 0d79 00000000 		.4byte	0
 15818              	.LLST87:
 15819 0d7d 12050000 		.4byte	.LVL275
 15820 0d81 1E050000 		.4byte	.LVL276
 15821 0d85 0200     		.2byte	0x2
 15822 0d87 31       		.byte	0x31
 15823 0d88 9F       		.byte	0x9f
 15824 0d89 1E050000 		.4byte	.LVL276
 15825 0d8d 2A050000 		.4byte	.LVL277
 15826 0d91 0200     		.2byte	0x2
 15827 0d93 35       		.byte	0x35
 15828 0d94 9F       		.byte	0x9f
 15829 0d95 2A050000 		.4byte	.LVL277
 15830 0d99 3A050000 		.4byte	.LVL278
 15831 0d9d 0200     		.2byte	0x2
 15832 0d9f 37       		.byte	0x37
 15833 0da0 9F       		.byte	0x9f
 15834 0da1 3A050000 		.4byte	.LVL278
 15835 0da5 3C050000 		.4byte	.LVL279
 15836 0da9 0300     		.2byte	0x3
 15837 0dab 74       		.byte	0x74
 15838 0dac 07       		.sleb128 7
 15839 0dad 9F       		.byte	0x9f
 15840 0dae 3C050000 		.4byte	.LVL279
 15841 0db2 42050000 		.4byte	.LVL280
 15842 0db6 0100     		.2byte	0x1
 15843 0db8 51       		.byte	0x51
 15844 0db9 42050000 		.4byte	.LVL280
 15845 0dbd 4A050000 		.4byte	.LVL282
 15846 0dc1 0300     		.2byte	0x3
 15847 0dc3 74       		.byte	0x74
 15848 0dc4 07       		.sleb128 7
 15849 0dc5 9F       		.byte	0x9f
 15850 0dc6 4A050000 		.4byte	.LVL282
 15851 0dca 4C050000 		.4byte	.LVL283
 15852 0dce 0100     		.2byte	0x1
 15853 0dd0 50       		.byte	0x50
 15854 0dd1 00000000 		.4byte	0
 15855 0dd5 00000000 		.4byte	0
 15856              	.LLST88:
 15857 0dd9 12050000 		.4byte	.LVL275
 15858 0ddd 4C050000 		.4byte	.LVL283
 15859 0de1 0300     		.2byte	0x3
 15860 0de3 75       		.byte	0x75
 15861 0de4 0D       		.sleb128 13
 15862 0de5 9F       		.byte	0x9f
 15863 0de6 00000000 		.4byte	0
 15864 0dea 00000000 		.4byte	0
 15865              	.LLST89:
 15866 0dee 00000000 		.4byte	.LVL293
 15867 0df2 02000000 		.4byte	.LVL294
 15868 0df6 0100     		.2byte	0x1
 15869 0df8 50       		.byte	0x50
 15870 0df9 02000000 		.4byte	.LVL294
 15871 0dfd 04000000 		.4byte	.LFE20
 15872 0e01 0400     		.2byte	0x4
ARM GAS  C:\Users\AHMEDH~1\AppData\Local\Temp\cclxJjJK.s 			page 312


 15873 0e03 F3       		.byte	0xf3
 15874 0e04 01       		.uleb128 0x1
 15875 0e05 50       		.byte	0x50
 15876 0e06 9F       		.byte	0x9f
 15877 0e07 00000000 		.4byte	0
 15878 0e0b 00000000 		.4byte	0
 15879              	.LLST90:
 15880 0e0f 00000000 		.4byte	.LVL295
 15881 0e13 12000000 		.4byte	.LVL296
 15882 0e17 0100     		.2byte	0x1
 15883 0e19 50       		.byte	0x50
 15884 0e1a 12000000 		.4byte	.LVL296
 15885 0e1e 08010000 		.4byte	.LFE22
 15886 0e22 0400     		.2byte	0x4
 15887 0e24 F3       		.byte	0xf3
 15888 0e25 01       		.uleb128 0x1
 15889 0e26 50       		.byte	0x50
 15890 0e27 9F       		.byte	0x9f
 15891 0e28 00000000 		.4byte	0
 15892 0e2c 00000000 		.4byte	0
 15893              	.LLST91:
 15894 0e30 00000000 		.4byte	.LVL295
 15895 0e34 14000000 		.4byte	.LVL297
 15896 0e38 0100     		.2byte	0x1
 15897 0e3a 51       		.byte	0x51
 15898 0e3b 14000000 		.4byte	.LVL297
 15899 0e3f F8000000 		.4byte	.LVL324
 15900 0e43 0100     		.2byte	0x1
 15901 0e45 57       		.byte	0x57
 15902 0e46 F8000000 		.4byte	.LVL324
 15903 0e4a 08010000 		.4byte	.LFE22
 15904 0e4e 0400     		.2byte	0x4
 15905 0e50 F3       		.byte	0xf3
 15906 0e51 01       		.uleb128 0x1
 15907 0e52 51       		.byte	0x51
 15908 0e53 9F       		.byte	0x9f
 15909 0e54 00000000 		.4byte	0
 15910 0e58 00000000 		.4byte	0
 15911              	.LLST92:
 15912 0e5c 00000000 		.4byte	.LVL295
 15913 0e60 19000000 		.4byte	.LVL298-1
 15914 0e64 0100     		.2byte	0x1
 15915 0e66 52       		.byte	0x52
 15916 0e67 19000000 		.4byte	.LVL298-1
 15917 0e6b 74000000 		.4byte	.LVL309
 15918 0e6f 0100     		.2byte	0x1
 15919 0e71 54       		.byte	0x54
 15920 0e72 74000000 		.4byte	.LVL309
 15921 0e76 AE000000 		.4byte	.LVL314
 15922 0e7a 0400     		.2byte	0x4
 15923 0e7c F3       		.byte	0xf3
 15924 0e7d 01       		.uleb128 0x1
 15925 0e7e 52       		.byte	0x52
 15926 0e7f 9F       		.byte	0x9f
 15927 0e80 AE000000 		.4byte	.LVL314
 15928 0e84 B8000000 		.4byte	.LVL316
 15929 0e88 0100     		.2byte	0x1
ARM GAS  C:\Users\AHMEDH~1\AppData\Local\Temp\cclxJjJK.s 			page 313


 15930 0e8a 54       		.byte	0x54
 15931 0e8b B8000000 		.4byte	.LVL316
 15932 0e8f 08010000 		.4byte	.LFE22
 15933 0e93 0400     		.2byte	0x4
 15934 0e95 F3       		.byte	0xf3
 15935 0e96 01       		.uleb128 0x1
 15936 0e97 52       		.byte	0x52
 15937 0e98 9F       		.byte	0x9f
 15938 0e99 00000000 		.4byte	0
 15939 0e9d 00000000 		.4byte	0
 15940              	.LLST93:
 15941 0ea1 1A000000 		.4byte	.LVL298
 15942 0ea5 25000000 		.4byte	.LVL299-1
 15943 0ea9 0100     		.2byte	0x1
 15944 0eab 50       		.byte	0x50
 15945 0eac 25000000 		.4byte	.LVL299-1
 15946 0eb0 F8000000 		.4byte	.LVL324
 15947 0eb4 0100     		.2byte	0x1
 15948 0eb6 56       		.byte	0x56
 15949 0eb7 00000000 		.4byte	0
 15950 0ebb 00000000 		.4byte	0
 15951              	.LLST94:
 15952 0ebf B8000000 		.4byte	.LVL316
 15953 0ec3 F2000000 		.4byte	.LVL323
 15954 0ec7 0100     		.2byte	0x1
 15955 0ec9 54       		.byte	0x54
 15956 0eca 00000000 		.4byte	0
 15957 0ece 00000000 		.4byte	0
 15958              	.LLST95:
 15959 0ed2 6A000000 		.4byte	.LVL307
 15960 0ed6 AE000000 		.4byte	.LVL314
 15961 0eda 0200     		.2byte	0x2
 15962 0edc 3C       		.byte	0x3c
 15963 0edd 9F       		.byte	0x9f
 15964 0ede 00000000 		.4byte	0
 15965 0ee2 00000000 		.4byte	0
 15966              	.LLST96:
 15967 0ee6 72000000 		.4byte	.LVL308
 15968 0eea 7D000000 		.4byte	.LVL310-1
 15969 0eee 0100     		.2byte	0x1
 15970 0ef0 50       		.byte	0x50
 15971 0ef1 7D000000 		.4byte	.LVL310-1
 15972 0ef5 AE000000 		.4byte	.LVL314
 15973 0ef9 0100     		.2byte	0x1
 15974 0efb 54       		.byte	0x54
 15975 0efc 00000000 		.4byte	0
 15976 0f00 00000000 		.4byte	0
 15977              	.LLST97:
 15978 0f04 00000000 		.4byte	.LVL325
 15979 0f08 10000000 		.4byte	.LVL327
 15980 0f0c 0100     		.2byte	0x1
 15981 0f0e 50       		.byte	0x50
 15982 0f0f 10000000 		.4byte	.LVL327
 15983 0f13 13000000 		.4byte	.LVL328-1
 15984 0f17 0100     		.2byte	0x1
 15985 0f19 51       		.byte	0x51
 15986 0f1a 13000000 		.4byte	.LVL328-1
ARM GAS  C:\Users\AHMEDH~1\AppData\Local\Temp\cclxJjJK.s 			page 314


 15987 0f1e 2A000000 		.4byte	.LFE23
 15988 0f22 0400     		.2byte	0x4
 15989 0f24 F3       		.byte	0xf3
 15990 0f25 01       		.uleb128 0x1
 15991 0f26 50       		.byte	0x50
 15992 0f27 9F       		.byte	0x9f
 15993 0f28 00000000 		.4byte	0
 15994 0f2c 00000000 		.4byte	0
 15995              	.LLST98:
 15996 0f30 00000000 		.4byte	.LVL325
 15997 0f34 0E000000 		.4byte	.LVL326
 15998 0f38 0100     		.2byte	0x1
 15999 0f3a 51       		.byte	0x51
 16000 0f3b 0E000000 		.4byte	.LVL326
 16001 0f3f 2A000000 		.4byte	.LFE23
 16002 0f43 0400     		.2byte	0x4
 16003 0f45 F3       		.byte	0xf3
 16004 0f46 01       		.uleb128 0x1
 16005 0f47 51       		.byte	0x51
 16006 0f48 9F       		.byte	0x9f
 16007 0f49 00000000 		.4byte	0
 16008 0f4d 00000000 		.4byte	0
 16009              	.LLST99:
 16010 0f51 00000000 		.4byte	.LVL330
 16011 0f55 0C000000 		.4byte	.LVL331
 16012 0f59 0100     		.2byte	0x1
 16013 0f5b 50       		.byte	0x50
 16014 0f5c 0C000000 		.4byte	.LVL331
 16015 0f60 20000000 		.4byte	.LVL334
 16016 0f64 0100     		.2byte	0x1
 16017 0f66 55       		.byte	0x55
 16018 0f67 20000000 		.4byte	.LVL334
 16019 0f6b 23000000 		.4byte	.LVL335-1
 16020 0f6f 0100     		.2byte	0x1
 16021 0f71 50       		.byte	0x50
 16022 0f72 23000000 		.4byte	.LVL335-1
 16023 0f76 24000000 		.4byte	.LVL335
 16024 0f7a 0400     		.2byte	0x4
 16025 0f7c F3       		.byte	0xf3
 16026 0f7d 01       		.uleb128 0x1
 16027 0f7e 50       		.byte	0x50
 16028 0f7f 9F       		.byte	0x9f
 16029 0f80 24000000 		.4byte	.LVL335
 16030 0f84 28000000 		.4byte	.LFE24
 16031 0f88 0100     		.2byte	0x1
 16032 0f8a 55       		.byte	0x55
 16033 0f8b 00000000 		.4byte	0
 16034 0f8f 00000000 		.4byte	0
 16035              	.LLST100:
 16036 0f93 00000000 		.4byte	.LVL330
 16037 0f97 0E000000 		.4byte	.LVL332
 16038 0f9b 0100     		.2byte	0x1
 16039 0f9d 51       		.byte	0x51
 16040 0f9e 0E000000 		.4byte	.LVL332
 16041 0fa2 28000000 		.4byte	.LFE24
 16042 0fa6 0400     		.2byte	0x4
 16043 0fa8 F3       		.byte	0xf3
ARM GAS  C:\Users\AHMEDH~1\AppData\Local\Temp\cclxJjJK.s 			page 315


 16044 0fa9 01       		.uleb128 0x1
 16045 0faa 51       		.byte	0x51
 16046 0fab 9F       		.byte	0x9f
 16047 0fac 00000000 		.4byte	0
 16048 0fb0 00000000 		.4byte	0
 16049              	.LLST101:
 16050 0fb4 0C000000 		.4byte	.LVL336
 16051 0fb8 1A000000 		.4byte	.LVL337
 16052 0fbc 0100     		.2byte	0x1
 16053 0fbe 50       		.byte	0x50
 16054 0fbf 1A000000 		.4byte	.LVL337
 16055 0fc3 2C000000 		.4byte	.LVL340
 16056 0fc7 0100     		.2byte	0x1
 16057 0fc9 54       		.byte	0x54
 16058 0fca 2C000000 		.4byte	.LVL340
 16059 0fce 32000000 		.4byte	.LVL341
 16060 0fd2 0100     		.2byte	0x1
 16061 0fd4 50       		.byte	0x50
 16062 0fd5 32000000 		.4byte	.LVL341
 16063 0fd9 52000000 		.4byte	.LVL345
 16064 0fdd 0100     		.2byte	0x1
 16065 0fdf 54       		.byte	0x54
 16066 0fe0 52000000 		.4byte	.LVL345
 16067 0fe4 54000000 		.4byte	.LVL346
 16068 0fe8 0100     		.2byte	0x1
 16069 0fea 50       		.byte	0x50
 16070 0feb 54000000 		.4byte	.LVL346
 16071 0fef 58000000 		.4byte	.LVL347
 16072 0ff3 0100     		.2byte	0x1
 16073 0ff5 54       		.byte	0x54
 16074 0ff6 00000000 		.4byte	0
 16075 0ffa 00000000 		.4byte	0
 16076              		.section	.debug_aranges,"",%progbits
 16077 0000 A4000000 		.4byte	0xa4
 16078 0004 0200     		.2byte	0x2
 16079 0006 00000000 		.4byte	.Ldebug_info0
 16080 000a 04       		.byte	0x4
 16081 000b 00       		.byte	0
 16082 000c 0000     		.2byte	0
 16083 000e 0000     		.2byte	0
 16084 0010 00000000 		.4byte	.LFB1
 16085 0014 8C000000 		.4byte	.LFE1-.LFB1
 16086 0018 00000000 		.4byte	.LFB4
 16087 001c 88000000 		.4byte	.LFE4-.LFB4
 16088 0020 00000000 		.4byte	.LFB5
 16089 0024 F8000000 		.4byte	.LFE5-.LFB5
 16090 0028 00000000 		.4byte	.LFB26
 16091 002c 12000000 		.4byte	.LFE26-.LFB26
 16092 0030 00000000 		.4byte	.LFB34
 16093 0034 2E000000 		.4byte	.LFE34-.LFB34
 16094 0038 00000000 		.4byte	.LFB42
 16095 003c 50010000 		.4byte	.LFE42-.LFB42
 16096 0040 00000000 		.4byte	.LFB0
 16097 0044 1C010000 		.4byte	.LFE0-.LFB0
 16098 0048 00000000 		.4byte	.LFB13
 16099 004c F0020000 		.4byte	.LFE13-.LFB13
 16100 0050 00000000 		.4byte	.LFB14
ARM GAS  C:\Users\AHMEDH~1\AppData\Local\Temp\cclxJjJK.s 			page 316


 16101 0054 0E000000 		.4byte	.LFE14-.LFB14
 16102 0058 00000000 		.4byte	.LFB15
 16103 005c 24000000 		.4byte	.LFE15-.LFB15
 16104 0060 00000000 		.4byte	.LFB16
 16105 0064 44000000 		.4byte	.LFE16-.LFB16
 16106 0068 00000000 		.4byte	.LFB19
 16107 006c A8050000 		.4byte	.LFE19-.LFB19
 16108 0070 00000000 		.4byte	.LFB20
 16109 0074 04000000 		.4byte	.LFE20-.LFB20
 16110 0078 00000000 		.4byte	.LFB21
 16111 007c 04000000 		.4byte	.LFE21-.LFB21
 16112 0080 00000000 		.4byte	.LFB22
 16113 0084 08010000 		.4byte	.LFE22-.LFB22
 16114 0088 00000000 		.4byte	.LFB23
 16115 008c 2A000000 		.4byte	.LFE23-.LFB23
 16116 0090 00000000 		.4byte	.LFB24
 16117 0094 28000000 		.4byte	.LFE24-.LFB24
 16118 0098 00000000 		.4byte	.LFB25
 16119 009c 60000000 		.4byte	.LFE25-.LFB25
 16120 00a0 00000000 		.4byte	0
 16121 00a4 00000000 		.4byte	0
 16122              		.section	.debug_ranges,"",%progbits
 16123              	.Ldebug_ranges0:
 16124 0000 18000000 		.4byte	.LBB35
 16125 0004 7C010000 		.4byte	.LBE35
 16126 0008 88010000 		.4byte	.LBB57
 16127 000c 8C010000 		.4byte	.LBE57
 16128 0010 92010000 		.4byte	.LBB59
 16129 0014 BE010000 		.4byte	.LBE59
 16130 0018 00000000 		.4byte	0
 16131 001c 00000000 		.4byte	0
 16132 0020 7C010000 		.4byte	.LBB39
 16133 0024 88010000 		.4byte	.LBE39
 16134 0028 8C010000 		.4byte	.LBB58
 16135 002c 92010000 		.4byte	.LBE58
 16136 0030 E4010000 		.4byte	.LBB60
 16137 0034 70050000 		.4byte	.LBE60
 16138 0038 00000000 		.4byte	0
 16139 003c 00000000 		.4byte	0
 16140 0040 00000000 		.4byte	.LFB1
 16141 0044 8C000000 		.4byte	.LFE1
 16142 0048 00000000 		.4byte	.LFB4
 16143 004c 88000000 		.4byte	.LFE4
 16144 0050 00000000 		.4byte	.LFB5
 16145 0054 F8000000 		.4byte	.LFE5
 16146 0058 00000000 		.4byte	.LFB26
 16147 005c 12000000 		.4byte	.LFE26
 16148 0060 00000000 		.4byte	.LFB34
 16149 0064 2E000000 		.4byte	.LFE34
 16150 0068 00000000 		.4byte	.LFB42
 16151 006c 50010000 		.4byte	.LFE42
 16152 0070 00000000 		.4byte	.LFB0
 16153 0074 1C010000 		.4byte	.LFE0
 16154 0078 00000000 		.4byte	.LFB13
 16155 007c F0020000 		.4byte	.LFE13
 16156 0080 00000000 		.4byte	.LFB14
 16157 0084 0E000000 		.4byte	.LFE14
ARM GAS  C:\Users\AHMEDH~1\AppData\Local\Temp\cclxJjJK.s 			page 317


 16158 0088 00000000 		.4byte	.LFB15
 16159 008c 24000000 		.4byte	.LFE15
 16160 0090 00000000 		.4byte	.LFB16
 16161 0094 44000000 		.4byte	.LFE16
 16162 0098 00000000 		.4byte	.LFB19
 16163 009c A8050000 		.4byte	.LFE19
 16164 00a0 00000000 		.4byte	.LFB20
 16165 00a4 04000000 		.4byte	.LFE20
 16166 00a8 00000000 		.4byte	.LFB21
 16167 00ac 04000000 		.4byte	.LFE21
 16168 00b0 00000000 		.4byte	.LFB22
 16169 00b4 08010000 		.4byte	.LFE22
 16170 00b8 00000000 		.4byte	.LFB23
 16171 00bc 2A000000 		.4byte	.LFE23
 16172 00c0 00000000 		.4byte	.LFB24
 16173 00c4 28000000 		.4byte	.LFE24
 16174 00c8 00000000 		.4byte	.LFB25
 16175 00cc 60000000 		.4byte	.LFE25
 16176 00d0 00000000 		.4byte	0
 16177 00d4 00000000 		.4byte	0
 16178              		.section	.debug_line,"",%progbits
 16179              	.Ldebug_line0:
 16180 0000 89050000 		.section	.debug_str,"MS",%progbits,1
 16180      0200BC01 
 16180      00000201 
 16180      FB0E0D00 
 16180      01010101 
 16181              	.LASF442:
 16182 0000 4F535F46 		.ascii	"OS_FN_POWER\000"
 16182      4E5F504F 
 16182      57455200 
 16183              	.LASF420:
 16184 000c 4F535F46 		.ascii	"OS_FN_GPRS_GET_GPS_INFO\000"
 16184      4E5F4750 
 16184      52535F47 
 16184      45545F47 
 16184      50535F49 
 16185              	.LASF7:
 16186 0024 6C6F6E67 		.ascii	"long long int\000"
 16186      206C6F6E 
 16186      6720696E 
 16186      7400
 16187              	.LASF920:
 16188 0032 624B5479 		.ascii	"bKType\000"
 16188      706500
 16189              	.LASF559:
 16190 0039 625F6D69 		.ascii	"b_minute\000"
 16190      6E757465 
 16190      00
 16191              	.LASF133:
 16192 0042 4F535F46 		.ascii	"OS_FN_KEY_SAVE_TMK_CBC_NC\000"
 16192      4E5F4B45 
 16192      595F5341 
 16192      56455F54 
 16192      4D4B5F43 
 16193              	.LASF454:
 16194 005c 4F535F46 		.ascii	"OS_FN_FPRT_INFO_GET\000"
ARM GAS  C:\Users\AHMEDH~1\AppData\Local\Temp\cclxJjJK.s 			page 318


 16194      4E5F4650 
 16194      52545F49 
 16194      4E464F5F 
 16194      47455400 
 16195              	.LASF437:
 16196 0070 4F535F46 		.ascii	"OS_FN_DMK_KVC_READ\000"
 16196      4E5F444D 
 16196      4B5F4B56 
 16196      435F5245 
 16196      414400
 16197              	.LASF875:
 16198 0083 52454655 		.ascii	"REFUND\000"
 16198      4E4400
 16199              	.LASF664:
 16200 008a 73625F78 		.ascii	"sb_xapp_size\000"
 16200      6170705F 
 16200      73697A65 
 16200      00
 16201              	.LASF131:
 16202 0097 4F535F46 		.ascii	"OS_FN_KEY_SAVE_TMK_NC\000"
 16202      4E5F4B45 
 16202      595F5341 
 16202      56455F54 
 16202      4D4B5F4E 
 16203              	.LASF874:
 16204 00ad 4F4E4C5F 		.ascii	"ONL_REFUND_MNL\000"
 16204      52454655 
 16204      4E445F4D 
 16204      4E4C00
 16205              	.LASF433:
 16206 00bc 4F535F46 		.ascii	"OS_FN_HD_CONFIG\000"
 16206      4E5F4844 
 16206      5F434F4E 
 16206      46494700 
 16207              	.LASF245:
 16208 00cc 4F535F46 		.ascii	"OS_FN_USBSER_OPEN\000"
 16208      4E5F5553 
 16208      42534552 
 16208      5F4F5045 
 16208      4E00
 16209              	.LASF195:
 16210 00de 4F535F46 		.ascii	"OS_FN_FILE_READDIR\000"
 16210      4E5F4649 
 16210      4C455F52 
 16210      45414444 
 16210      495200
 16211              	.LASF293:
 16212 00f1 4F535F46 		.ascii	"OS_FN_GPRS_STATUS\000"
 16212      4E5F4750 
 16212      52535F53 
 16212      54415455 
 16212      5300
 16213              	.LASF6:
 16214 0103 6C6F6E67 		.ascii	"long unsigned int\000"
 16214      20756E73 
 16214      69676E65 
 16214      6420696E 
ARM GAS  C:\Users\AHMEDH~1\AppData\Local\Temp\cclxJjJK.s 			page 319


 16214      7400
 16215              	.LASF857:
 16216 0115 54585F44 		.ascii	"TX_DATA\000"
 16216      41544100 
 16217              	.LASF560:
 16218 011d 625F7365 		.ascii	"b_second\000"
 16218      636F6E64 
 16218      00
 16219              	.LASF760:
 16220 0126 73625F74 		.ascii	"sb_text\000"
 16220      65787400 
 16221              	.LASF1038:
 16222 012e 41757857 		.ascii	"AuxWrite\000"
 16222      72697465 
 16222      00
 16223              	.LASF558:
 16224 0137 625F686F 		.ascii	"b_hour\000"
 16224      757200
 16225              	.LASF804:
 16226 013e 735F6963 		.ascii	"s_icc_data\000"
 16226      635F6461 
 16226      746100
 16227              	.LASF237:
 16228 0149 4F535F46 		.ascii	"OS_FN_MSR_GETC\000"
 16228      4E5F4D53 
 16228      525F4745 
 16228      544300
 16229              	.LASF244:
 16230 0158 4F535F46 		.ascii	"OS_FN_LPT_STATUS\000"
 16230      4E5F4C50 
 16230      545F5354 
 16230      41545553 
 16230      00
 16231              	.LASF630:
 16232 0169 73625F70 		.ascii	"sb_pri_no\000"
 16232      72695F6E 
 16232      6F00
 16233              	.LASF959:
 16234 0173 49746653 		.ascii	"ItfSettle\000"
 16234      6574746C 
 16234      6500
 16235              	.LASF888:
 16236 017d 4553414C 		.ascii	"ESALE_COMPLETE\000"
 16236      455F434F 
 16236      4D504C45 
 16236      544500
 16237              	.LASF204:
 16238 018c 4F535F46 		.ascii	"OS_FN_CONFIG_UPDATE\000"
 16238      4E5F434F 
 16238      4E464947 
 16238      5F555044 
 16238      41544500 
 16239              	.LASF327:
 16240 01a0 4F535F46 		.ascii	"OS_FN_CLICC_EMV_LV1\000"
 16240      4E5F434C 
 16240      4943435F 
 16240      454D565F 
ARM GAS  C:\Users\AHMEDH~1\AppData\Local\Temp\cclxJjJK.s 			page 320


 16240      4C563100 
 16241              	.LASF462:
 16242 01b4 4F535F46 		.ascii	"OS_FN_GCM_AES_FINISH\000"
 16242      4E5F4743 
 16242      4D5F4145 
 16242      535F4649 
 16242      4E495348 
 16243              	.LASF177:
 16244 01c9 4F535F46 		.ascii	"OS_FN_FILE_PUTC\000"
 16244      4E5F4649 
 16244      4C455F50 
 16244      55544300 
 16245              	.LASF35:
 16246 01d9 4F535F46 		.ascii	"OS_FN_RTC_GET\000"
 16246      4E5F5254 
 16246      435F4745 
 16246      5400
 16247              	.LASF954:
 16248 01e7 656E6372 		.ascii	"encrypt\000"
 16248      79707400 
 16249              	.LASF1001:
 16250 01ef 6D656D73 		.ascii	"memset\000"
 16250      657400
 16251              	.LASF371:
 16252 01f6 4F535F46 		.ascii	"OS_FN_MIF_CLOSE\000"
 16252      4E5F4D49 
 16252      465F434C 
 16252      4F534500 
 16253              	.LASF395:
 16254 0206 4F535F46 		.ascii	"OS_FN_BARCODE_CLOSE\000"
 16254      4E5F4241 
 16254      52434F44 
 16254      455F434C 
 16254      4F534500 
 16255              	.LASF461:
 16256 021a 4F535F46 		.ascii	"OS_FN_GCM_AES_PROCESS\000"
 16256      4E5F4743 
 16256      4D5F4145 
 16256      535F5052 
 16256      4F434553 
 16257              	.LASF639:
 16258 0230 73625F74 		.ascii	"sb_trace_no\000"
 16258      72616365 
 16258      5F6E6F00 
 16259              	.LASF676:
 16260 023c 625F6368 		.ascii	"b_checkin_pri_conn_time\000"
 16260      65636B69 
 16260      6E5F7072 
 16260      695F636F 
 16260      6E6E5F74 
 16261              	.LASF968:
 16262 0254 64656275 		.ascii	"debugAuxIface\000"
 16262      67417578 
 16262      49666163 
 16262      6500
 16263              	.LASF776:
 16264 0262 625F6169 		.ascii	"b_aid_len\000"
ARM GAS  C:\Users\AHMEDH~1\AppData\Local\Temp\cclxJjJK.s 			page 321


 16264      645F6C65 
 16264      6E00
 16265              	.LASF440:
 16266 026c 4F535F46 		.ascii	"OS_FN_RMB_CONTROL\000"
 16266      4E5F524D 
 16266      425F434F 
 16266      4E54524F 
 16266      4C00
 16267              	.LASF738:
 16268 027e 73625F70 		.ascii	"sb_pri_settle_tel\000"
 16268      72695F73 
 16268      6574746C 
 16268      655F7465 
 16268      6C00
 16269              	.LASF845:
 16270 0290 735F5461 		.ascii	"s_TagList\000"
 16270      674C6973 
 16270      7400
 16271              	.LASF982:
 16272 029a 67527370 		.ascii	"gRspBuf\000"
 16272      42756600 
 16273              	.LASF737:
 16274 02a2 625F7365 		.ascii	"b_sec_trans_redial\000"
 16274      635F7472 
 16274      616E735F 
 16274      72656469 
 16274      616C00
 16275              	.LASF764:
 16276 02b5 625F636C 		.ascii	"b_cla\000"
 16276      6100
 16277              	.LASF39:
 16278 02bb 4F535F46 		.ascii	"OS_FN_DISP_PUTC\000"
 16278      4E5F4449 
 16278      53505F50 
 16278      55544300 
 16279              	.LASF892:
 16280 02cb 54455354 		.ascii	"TEST_MSG\000"
 16280      5F4D5347 
 16280      00
 16281              	.LASF43:
 16282 02d4 4F535F46 		.ascii	"OS_FN_DISP_PUTG\000"
 16282      4E5F4449 
 16282      53505F50 
 16282      55544700 
 16283              	.LASF768:
 16284 02e4 4543525F 		.ascii	"ECR_SEND\000"
 16284      53454E44 
 16284      00
 16285              	.LASF708:
 16286 02ed 61706E5F 		.ascii	"apn_username\000"
 16286      75736572 
 16286      6E616D65 
 16286      00
 16287              	.LASF41:
 16288 02fa 4F535F46 		.ascii	"OS_FN_DISP_PUTN\000"
 16288      4E5F4449 
 16288      53505F50 
ARM GAS  C:\Users\AHMEDH~1\AppData\Local\Temp\cclxJjJK.s 			page 322


 16288      55544E00 
 16289              	.LASF435:
 16290 030a 4F535F46 		.ascii	"OS_FN_DUMMY\000"
 16290      4E5F4455 
 16290      4D4D5900 
 16291              	.LASF44:
 16292 0316 4F535F46 		.ascii	"OS_FN_DISP_PUTP\000"
 16292      4E5F4449 
 16292      53505F50 
 16292      55545000 
 16293              	.LASF40:
 16294 0326 4F535F46 		.ascii	"OS_FN_DISP_PUTS\000"
 16294      4E5F4449 
 16294      53505F50 
 16294      55545300 
 16295              	.LASF711:
 16296 0336 61706E32 		.ascii	"apn2_password\000"
 16296      5F706173 
 16296      73776F72 
 16296      6400
 16297              	.LASF528:
 16298 0344 5343484E 		.ascii	"SCHNLSETUPMW\000"
 16298      4C534554 
 16298      55504D57 
 16298      00
 16299              	.LASF725:
 16300 0351 73625F72 		.ascii	"sb_ref_tel_no\000"
 16300      65665F74 
 16300      656C5F6E 
 16300      6F00
 16301              	.LASF862:
 16302 035f 625F7265 		.ascii	"b_response\000"
 16302      73706F6E 
 16302      736500
 16303              	.LASF784:
 16304 036a 625F7472 		.ascii	"b_trans\000"
 16304      616E7300 
 16305              	.LASF707:
 16306 0372 73625F70 		.ascii	"sb_psw_void\000"
 16306      73775F76 
 16306      6F696400 
 16307              	.LASF765:
 16308 037e 625F636D 		.ascii	"b_cmd\000"
 16308      6400
 16309              	.LASF497:
 16310 0384 4D575F54 		.ascii	"MW_TRK1BUF\000"
 16310      524B3142 
 16310      554600
 16311              	.LASF421:
 16312 038f 4F535F46 		.ascii	"OS_FN_GPS_CMD\000"
 16312      4E5F4750 
 16312      535F434D 
 16312      4400
 16313              	.LASF877:
 16314 039d 53414C45 		.ascii	"SALE_COMPLETE\000"
 16314      5F434F4D 
 16314      504C4554 
ARM GAS  C:\Users\AHMEDH~1\AppData\Local\Temp\cclxJjJK.s 			page 323


 16314      4500
 16315              	.LASF935:
 16316 03ab 70625F74 		.ascii	"pb_tmp\000"
 16316      6D7000
 16317              	.LASF592:
 16318 03b2 41504D5F 		.ascii	"APM_GETLOGOCOUNT\000"
 16318      4745544C 
 16318      4F474F43 
 16318      4F554E54 
 16318      00
 16319              	.LASF269:
 16320 03c3 4F535F46 		.ascii	"OS_FN_MDM_CLOSE\000"
 16320      4E5F4D44 
 16320      4D5F434C 
 16320      4F534500 
 16321              	.LASF939:
 16322 03d3 72657143 		.ascii	"reqCheck\000"
 16322      6865636B 
 16322      00
 16323              	.LASF565:
 16324 03dc 734C656E 		.ascii	"sLen\000"
 16324      00
 16325              	.LASF658:
 16326 03e1 73625F65 		.ascii	"sb_emvapp_size\000"
 16326      6D766170 
 16326      705F7369 
 16326      7A6500
 16327              	.LASF633:
 16328 03f0 73625F73 		.ascii	"sb_sec_no\000"
 16328      65635F6E 
 16328      6F00
 16329              	.LASF726:
 16330 03fa 625F6465 		.ascii	"b_default_acc\000"
 16330      6661756C 
 16330      745F6163 
 16330      6300
 16331              	.LASF858:
 16332 0408 73625F70 		.ascii	"sb_proc_code\000"
 16332      726F635F 
 16332      636F6465 
 16332      00
 16333              	.LASF943:
 16334 0415 61454964 		.ascii	"aEId\000"
 16334      00
 16335              	.LASF619:
 16336 041a 41504D5F 		.ascii	"APM_SELAPP\000"
 16336      53454C41 
 16336      505000
 16337              	.LASF678:
 16338 0425 73625F63 		.ascii	"sb_checkin_sec_no\000"
 16338      6865636B 
 16338      696E5F73 
 16338      65635F6E 
 16338      6F00
 16339              	.LASF60:
 16340 0437 4F535F46 		.ascii	"OS_FN_COM1_TXRDY\000"
 16340      4E5F434F 
ARM GAS  C:\Users\AHMEDH~1\AppData\Local\Temp\cclxJjJK.s 			page 324


 16340      4D315F54 
 16340      58524459 
 16340      00
 16341              	.LASF112:
 16342 0448 4F535F46 		.ascii	"OS_FN_SM2_ENCRYPT\000"
 16342      4E5F534D 
 16342      325F454E 
 16342      43525950 
 16342      5400
 16343              	.LASF12:
 16344 045a 424F4F4C 		.ascii	"BOOLEAN\000"
 16344      45414E00 
 16345              	.LASF756:
 16346 0462 625F7065 		.ascii	"b_pending\000"
 16346      6E64696E 
 16346      6700
 16347              	.LASF19:
 16348 046c 4F535F46 		.ascii	"OS_FN_RAND_UPDATE\000"
 16348      4E5F5241 
 16348      4E445F55 
 16348      50444154 
 16348      4500
 16349              	.LASF1021:
 16350 047e 4572726F 		.ascii	"ErrorDelay\000"
 16350      7244656C 
 16350      617900
 16351              	.LASF478:
 16352 0489 4F535F46 		.ascii	"OS_FN_GPRS_IS_HL6RD_OLD_FRM\000"
 16352      4E5F4750 
 16352      52535F49 
 16352      535F484C 
 16352      3652445F 
 16353              	.LASF117:
 16354 04a5 4F535F46 		.ascii	"OS_FN_SM4_SET_KEY\000"
 16354      4E5F534D 
 16354      345F5345 
 16354      545F4B45 
 16354      5900
 16355              	.LASF844:
 16356 04b7 735F4354 		.ascii	"s_CTLOut\000"
 16356      4C4F7574 
 16356      00
 16357              	.LASF949:
 16358 04c0 61547970 		.ascii	"aType\000"
 16358      6500
 16359              	.LASF409:
 16360 04c6 4F535F46 		.ascii	"OS_FN_NFC_SEND_FELICA_COMMAND\000"
 16360      4E5F4E46 
 16360      435F5345 
 16360      4E445F46 
 16360      454C4943 
 16361              	.LASF685:
 16362 04e4 5445524D 		.ascii	"TERM_CFG\000"
 16362      5F434647 
 16362      00
 16363              	.LASF444:
 16364 04ed 4F535F46 		.ascii	"OS_FN_DMK_INJECT\000"
ARM GAS  C:\Users\AHMEDH~1\AppData\Local\Temp\cclxJjJK.s 			page 325


 16364      4E5F444D 
 16364      4B5F494E 
 16364      4A454354 
 16364      00
 16365              	.LASF1023:
 16366 04fe 4C6F6E67 		.ascii	"LongBeep\000"
 16366      42656570 
 16366      00
 16367              	.LASF636:
 16368 0507 625F6173 		.ascii	"b_async_delay\000"
 16368      796E635F 
 16368      64656C61 
 16368      7900
 16369              	.LASF934:
 16370 0515 61625F74 		.ascii	"ab_totresp\000"
 16370      6F747265 
 16370      737000
 16371              	.LASF374:
 16372 0520 4F535F46 		.ascii	"OS_FN_MIF_CARD_TYPE\000"
 16372      4E5F4D49 
 16372      465F4341 
 16372      52445F54 
 16372      59504500 
 16373              	.LASF172:
 16374 0534 4F535F46 		.ascii	"OS_FN_FILE_DELETE\000"
 16374      4E5F4649 
 16374      4C455F44 
 16374      454C4554 
 16374      4500
 16375              	.LASF595:
 16376 0546 41504D5F 		.ascii	"APM_GETEXPARAM\000"
 16376      47455445 
 16376      58504152 
 16376      414D00
 16377              	.LASF514:
 16378 0555 464C454E 		.ascii	"FLENGTHMW\000"
 16378      4754484D 
 16378      5700
 16379              	.LASF610:
 16380 055f 41504D5F 		.ascii	"APM_GET_BATCH_REC\000"
 16380      4745545F 
 16380      42415443 
 16380      485F5245 
 16380      4300
 16381              	.LASF781:
 16382 0571 775F6D69 		.ascii	"w_misc_len\000"
 16382      73635F6C 
 16382      656E00
 16383              	.LASF1013:
 16384 057c 546C7650 		.ascii	"TlvPack\000"
 16384      61636B00 
 16385              	.LASF727:
 16386 0584 73625F70 		.ascii	"sb_pan_format\000"
 16386      616E5F66 
 16386      6F726D61 
 16386      7400
 16387              	.LASF80:
ARM GAS  C:\Users\AHMEDH~1\AppData\Local\Temp\cclxJjJK.s 			page 326


 16388 0592 4F535F46 		.ascii	"OS_FN_COM3_SEND\000"
 16388      4E5F434F 
 16388      4D335F53 
 16388      454E4400 
 16389              	.LASF861:
 16390 05a2 5253505F 		.ascii	"RSP_DATA\000"
 16390      44415441 
 16390      00
 16391              	.LASF549:
 16392 05ab 46545255 		.ascii	"FTRUNCATEMW\000"
 16392      4E434154 
 16392      454D5700 
 16393              	.LASF750:
 16394 05b7 73625F76 		.ascii	"sb_visa1_term_id\000"
 16394      69736131 
 16394      5F746572 
 16394      6D5F6964 
 16394      00
 16395              	.LASF503:
 16396 05c8 52454144 		.ascii	"READMW\000"
 16396      4D5700
 16397              	.LASF980:
 16398 05cf 67496642 		.ascii	"gIfBuf\000"
 16398      756600
 16399              	.LASF1016:
 16400 05d6 49746656 		.ascii	"ItfVoid\000"
 16400      6F696400 
 16401              	.LASF820:
 16402 05de 735F7465 		.ascii	"s_term_cfg\000"
 16402      726D5F63 
 16402      666700
 16403              	.LASF185:
 16404 05e9 4F535F46 		.ascii	"OS_FN_FILE_ACTIVATE\000"
 16404      4E5F4649 
 16404      4C455F41 
 16404      43544956 
 16404      41544500 
 16405              	.LASF303:
 16406 05fd 4F535F46 		.ascii	"OS_FN_GPRS_SMS_ACK\000"
 16406      4E5F4750 
 16406      52535F53 
 16406      4D535F41 
 16406      434B00
 16407              	.LASF1002:
 16408 0610 44657332 		.ascii	"Des2\000"
 16408      00
 16409              	.LASF956:
 16410 0615 61496E4F 		.ascii	"aInOut\000"
 16410      757400
 16411              	.LASF978:
 16412 061c 67616252 		.ascii	"gabRRand\000"
 16412      52616E64 
 16412      00
 16413              	.LASF624:
 16414 0625 7362436F 		.ascii	"sbContent\000"
 16414      6E74656E 
 16414      7400
ARM GAS  C:\Users\AHMEDH~1\AppData\Local\Temp\cclxJjJK.s 			page 327


 16415              	.LASF465:
 16416 062f 4F535F46 		.ascii	"OS_FN_WIFI_SOCKET_CONNECT\000"
 16416      4E5F5749 
 16416      46495F53 
 16416      4F434B45 
 16416      545F434F 
 16417              	.LASF83:
 16418 0649 4F535F46 		.ascii	"OS_FN_COM3_SSEND\000"
 16418      4E5F434F 
 16418      4D335F53 
 16418      53454E44 
 16418      00
 16419              	.LASF103:
 16420 065a 4F535F46 		.ascii	"OS_FN_SHA_FINISH\000"
 16420      4E5F5348 
 16420      415F4649 
 16420      4E495348 
 16420      00
 16421              	.LASF247:
 16422 066b 4F535F46 		.ascii	"OS_FN_USBSER_READ\000"
 16422      4E5F5553 
 16422      42534552 
 16422      5F524541 
 16422      4400
 16423              	.LASF301:
 16424 067d 4F535F46 		.ascii	"OS_FN_GPRS_READ_USSD\000"
 16424      4E5F4750 
 16424      52535F52 
 16424      4541445F 
 16424      55535344 
 16425              	.LASF646:
 16426 0692 625F7265 		.ascii	"b_return_timeout\000"
 16426      7475726E 
 16426      5F74696D 
 16426      656F7574 
 16426      00
 16427              	.LASF456:
 16428 06a3 4F535F46 		.ascii	"OS_FN_ECC_PUBKEY_VERIFY\000"
 16428      4E5F4543 
 16428      435F5055 
 16428      424B4559 
 16428      5F564552 
 16429              	.LASF644:
 16430 06bb 625F656D 		.ascii	"b_emv_enable\000"
 16430      765F656E 
 16430      61626C65 
 16430      00
 16431              	.LASF812:
 16432 06c8 645F6164 		.ascii	"d_adjust_count\000"
 16432      6A757374 
 16432      5F636F75 
 16432      6E7400
 16433              	.LASF860:
 16434 06d7 73625F6F 		.ascii	"sb_org_trace_no\000"
 16434      72675F74 
 16434      72616365 
 16434      5F6E6F00 
ARM GAS  C:\Users\AHMEDH~1\AppData\Local\Temp\cclxJjJK.s 			page 328


 16435              	.LASF348:
 16436 06e7 4F535F46 		.ascii	"OS_FN_DEVICE_SEARCH_INIT\000"
 16436      4E5F4445 
 16436      56494345 
 16436      5F534541 
 16436      5243485F 
 16437              	.LASF967:
 16438 0700 49666163 		.ascii	"IfaceInitData\000"
 16438      65496E69 
 16438      74446174 
 16438      6100
 16439              	.LASF870:
 16440 070e 41555448 		.ascii	"AUTH_MANUAL\000"
 16440      5F4D414E 
 16440      55414C00 
 16441              	.LASF344:
 16442 071a 4F535F46 		.ascii	"OS_FN_DEVICE_REGISTER\000"
 16442      4E5F4445 
 16442      56494345 
 16442      5F524547 
 16442      49535445 
 16443              	.LASF448:
 16444 0730 4F535F46 		.ascii	"OS_FN_LPT_RESET_COUNT\000"
 16444      4E5F4C50 
 16444      545F5245 
 16444      5345545F 
 16444      434F554E 
 16445              	.LASF523:
 16446 0746 4445534B 		.ascii	"DESKEYMW\000"
 16446      45594D57 
 16446      00
 16447              	.LASF218:
 16448 074f 4F535F46 		.ascii	"OS_FN_MMC_BLK_READ\000"
 16448      4E5F4D4D 
 16448      435F424C 
 16448      4B5F5245 
 16448      414400
 16449              	.LASF225:
 16450 0762 4F535F46 		.ascii	"OS_FN_SLE_HIST\000"
 16450      4E5F534C 
 16450      455F4849 
 16450      535400
 16451              	.LASF627:
 16452 0771 625F6469 		.ascii	"b_disp_contrast\000"
 16452      73705F63 
 16452      6F6E7472 
 16452      61737400 
 16453              	.LASF958:
 16454 0781 49746648 		.ascii	"ItfHostTot\000"
 16454      6F737454 
 16454      6F7400
 16455              	.LASF63:
 16456 078c 4F535F46 		.ascii	"OS_FN_COM1_STATUS\000"
 16456      4E5F434F 
 16456      4D315F53 
 16456      54415455 
 16456      5300
ARM GAS  C:\Users\AHMEDH~1\AppData\Local\Temp\cclxJjJK.s 			page 329


 16457              	.LASF179:
 16458 079e 4F535F46 		.ascii	"OS_FN_FILE_LENGTH\000"
 16458      4E5F4649 
 16458      4C455F4C 
 16458      454E4754 
 16458      4800
 16459              	.LASF530:
 16460 07b0 4C4C5345 		.ascii	"LLSEEKMW\000"
 16460      454B4D57 
 16460      00
 16461              	.LASF539:
 16462 07b9 44495350 		.ascii	"DISP_PUTGMW\000"
 16462      5F505554 
 16462      474D5700 
 16463              	.LASF95:
 16464 07c5 4F535F46 		.ascii	"OS_FN_AES_ENCRYPT_BLOCK\000"
 16464      4E5F4145 
 16464      535F454E 
 16464      43525950 
 16464      545F424C 
 16465              	.LASF672:
 16466 07dd 73625F70 		.ascii	"sb_ppp_ip\000"
 16466      70705F69 
 16466      7000
 16467              	.LASF601:
 16468 07e7 41504D5F 		.ascii	"APM_SETROC\000"
 16468      53455452 
 16468      4F4300
 16469              	.LASF90:
 16470 07f2 4F535F46 		.ascii	"OS_FN_NEW_DES\000"
 16470      4E5F4E45 
 16470      575F4445 
 16470      5300
 16471              	.LASF510:
 16472 0800 46435245 		.ascii	"FCREATEMW\000"
 16472      4154454D 
 16472      5700
 16473              	.LASF855:
 16474 080a 625F6361 		.ascii	"b_card_expired\000"
 16474      72645F65 
 16474      78706972 
 16474      656400
 16475              	.LASF608:
 16476 0819 41504D5F 		.ascii	"APM_BATCH_FULL\000"
 16476      42415443 
 16476      485F4655 
 16476      4C4C00
 16477              	.LASF389:
 16478 0828 4F535F46 		.ascii	"OS_FN_MIF_SNO\000"
 16478      4E5F4D49 
 16478      465F534E 
 16478      4F00
 16479              	.LASF533:
 16480 0836 44495350 		.ascii	"DISP_CLRLINEMW\000"
 16480      5F434C52 
 16480      4C494E45 
 16480      4D5700
ARM GAS  C:\Users\AHMEDH~1\AppData\Local\Temp\cclxJjJK.s 			page 330


 16481              	.LASF1000:
 16482 0845 73747263 		.ascii	"strcpy\000"
 16482      707900
 16483              	.LASF912:
 16484 084c 61526571 		.ascii	"aReqMsg\000"
 16484      4D736700 
 16485              	.LASF76:
 16486 0854 4F535F46 		.ascii	"OS_FN_COM3_CLOSE\000"
 16486      4E5F434F 
 16486      4D335F43 
 16486      4C4F5345 
 16486      00
 16487              	.LASF606:
 16488 0865 41504D5F 		.ascii	"APM_TERMDATA_UPD\000"
 16488      5445524D 
 16488      44415441 
 16488      5F555044 
 16488      00
 16489              	.LASF622:
 16490 0876 41504D5F 		.ascii	"APM_FUNC_COUNT\000"
 16490      46554E43 
 16490      5F434F55 
 16490      4E5400
 16491              	.LASF928:
 16492 0885 72737049 		.ascii	"rspInitAuthData\000"
 16492      6E697441 
 16492      75746844 
 16492      61746100 
 16493              	.LASF1036:
 16494 0895 41757854 		.ascii	"AuxTxRdy\000"
 16494      78526479 
 16494      00
 16495              	.LASF287:
 16496 089e 4F535F46 		.ascii	"OS_FN_BATT_CONTROL\000"
 16496      4E5F4241 
 16496      54545F43 
 16496      4F4E5452 
 16496      4F4C00
 16497              	.LASF548:
 16498 08b1 4652454E 		.ascii	"FRENAMEMW\000"
 16498      414D454D 
 16498      5700
 16499              	.LASF681:
 16500 08bb 625F696E 		.ascii	"b_init_fallback\000"
 16500      69745F66 
 16500      616C6C62 
 16500      61636B00 
 16501              	.LASF383:
 16502 08cb 4F535F46 		.ascii	"OS_FN_MIF_WRITE\000"
 16502      4E5F4D49 
 16502      465F5752 
 16502      49544500 
 16503              	.LASF762:
 16504 08db 434C5F49 		.ascii	"CL_IO\000"
 16504      4F00
 16505              	.LASF504:
 16506 08e1 57524954 		.ascii	"WRITEMW\000"
ARM GAS  C:\Users\AHMEDH~1\AppData\Local\Temp\cclxJjJK.s 			page 331


 16506      454D5700 
 16507              	.LASF452:
 16508 08e9 4F535F46 		.ascii	"OS_FN_FPRT_SCAN_IMG\000"
 16508      4E5F4650 
 16508      52545F53 
 16508      43414E5F 
 16508      494D4700 
 16509              	.LASF32:
 16510 08fd 4F535F46 		.ascii	"OS_FN_BUZ_CLOSE\000"
 16510      4E5F4255 
 16510      5A5F434C 
 16510      4F534500 
 16511              	.LASF18:
 16512 090d 4F535F46 		.ascii	"OS_FN_RAND\000"
 16512      4E5F5241 
 16512      4E4400
 16513              	.LASF647:
 16514 0918 775F7472 		.ascii	"w_training_status\000"
 16514      61696E69 
 16514      6E675F73 
 16514      74617475 
 16514      7300
 16515              	.LASF946:
 16516 092a 7062546C 		.ascii	"pbTlv\000"
 16516      7600
 16517              	.LASF438:
 16518 0930 4F535F46 		.ascii	"OS_FN_DLL_REQ\000"
 16518      4E5F444C 
 16518      4C5F5245 
 16518      5100
 16519              	.LASF11:
 16520 093e 73697A65 		.ascii	"size_t\000"
 16520      5F7400
 16521              	.LASF104:
 16522 0945 4F535F46 		.ascii	"OS_FN_RC4_SETUP\000"
 16522      4E5F5243 
 16522      345F5345 
 16522      54555000 
 16523              	.LASF152:
 16524 0955 4F535F46 		.ascii	"OS_FN_LED_STATUS\000"
 16524      4E5F4C45 
 16524      445F5354 
 16524      41545553 
 16524      00
 16525              	.LASF942:
 16526 0966 73657446 		.ascii	"setFullEmvData\000"
 16526      756C6C45 
 16526      6D764461 
 16526      746100
 16527              	.LASF899:
 16528 0975 62526675 		.ascii	"bRfu\000"
 16528      00
 16529              	.LASF683:
 16530 097a 625F6170 		.ascii	"b_app_list_upload\000"
 16530      705F6C69 
 16530      73745F75 
 16530      706C6F61 
ARM GAS  C:\Users\AHMEDH~1\AppData\Local\Temp\cclxJjJK.s 			page 332


 16530      6400
 16531              	.LASF110:
 16532 098c 4F535F46 		.ascii	"OS_FN_SM2_GET_SIGNATURE\000"
 16532      4E5F534D 
 16532      325F4745 
 16532      545F5349 
 16532      474E4154 
 16533              	.LASF38:
 16534 09a4 4F535F46 		.ascii	"OS_FN_DISP_CLOSE\000"
 16534      4E5F4449 
 16534      53505F43 
 16534      4C4F5345 
 16534      00
 16535              	.LASF674:
 16536 09b5 73625F73 		.ascii	"sb_server_key\000"
 16536      65727665 
 16536      725F6B65 
 16536      7900
 16537              	.LASF186:
 16538 09c3 4F535F46 		.ascii	"OS_FN_FILE_GET_NAME\000"
 16538      4E5F4649 
 16538      4C455F47 
 16538      45545F4E 
 16538      414D4500 
 16539              	.LASF889:
 16540 09d7 53414C45 		.ascii	"SALE_CTL\000"
 16540      5F43544C 
 16540      00
 16541              	.LASF747:
 16542 09e0 625F7469 		.ascii	"b_timeout_val\000"
 16542      6D656F75 
 16542      745F7661 
 16542      6C00
 16543              	.LASF311:
 16544 09ee 4F535F46 		.ascii	"OS_FN_TPAD_CPOS\000"
 16544      4E5F5450 
 16544      41445F43 
 16544      504F5300 
 16545              	.LASF404:
 16546 09fe 4F535F46 		.ascii	"OS_FN_WIFI_RECV_RESPONSE\000"
 16546      4E5F5749 
 16546      46495F52 
 16546      4543565F 
 16546      52455350 
 16547              	.LASF119:
 16548 0a17 4F535F46 		.ascii	"OS_FN_SM4_DECRYPT\000"
 16548      4E5F534D 
 16548      345F4445 
 16548      43525950 
 16548      5400
 16549              	.LASF309:
 16550 0a29 4F535F46 		.ascii	"OS_FN_TPAD_ADD_OBJ\000"
 16550      4E5F5450 
 16550      41445F41 
 16550      44445F4F 
 16550      424A00
 16551              	.LASF831:
ARM GAS  C:\Users\AHMEDH~1\AppData\Local\Temp\cclxJjJK.s 			page 333


 16552 0a3c 735F7465 		.ascii	"s_term_data\000"
 16552      726D5F64 
 16552      61746100 
 16553              	.LASF412:
 16554 0a48 4F535F46 		.ascii	"OS_FN_NFC_GET_VALID_RESP\000"
 16554      4E5F4E46 
 16554      435F4745 
 16554      545F5641 
 16554      4C49445F 
 16555              	.LASF109:
 16556 0a61 4F535F46 		.ascii	"OS_FN_SM2_FREE_CURVE\000"
 16556      4E5F534D 
 16556      325F4652 
 16556      45455F43 
 16556      55525645 
 16557              	.LASF1009:
 16558 0a76 4D656D46 		.ascii	"MemFatalErr\000"
 16558      6174616C 
 16558      45727200 
 16559              	.LASF146:
 16560 0a82 4F535F46 		.ascii	"OS_FN_BUFMAN_ALLOC\000"
 16560      4E5F4255 
 16560      464D414E 
 16560      5F414C4C 
 16560      4F4300
 16561              	.LASF963:
 16562 0a95 69526574 		.ascii	"iRet\000"
 16562      00
 16563              	.LASF75:
 16564 0a9a 4F535F46 		.ascii	"OS_FN_COM3_OPEN\000"
 16564      4E5F434F 
 16564      4D335F4F 
 16564      50454E00 
 16565              	.LASF107:
 16566 0aaa 4F535F46 		.ascii	"OS_FN_MD4_FINISH\000"
 16566      4E5F4D44 
 16566      345F4649 
 16566      4E495348 
 16566      00
 16567              	.LASF24:
 16568 0abb 4F535F46 		.ascii	"OS_FN_KBD_GETKEY\000"
 16568      4E5F4B42 
 16568      445F4745 
 16568      544B4559 
 16568      00
 16569              	.LASF527:
 16570 0acc 49434349 		.ascii	"ICCINSERTEDMW\000"
 16570      4E534552 
 16570      5445444D 
 16570      5700
 16571              	.LASF334:
 16572 0ada 4F535F46 		.ascii	"OS_FN_USBHOST_SUBMIT_BUFFER\000"
 16572      4E5F5553 
 16572      42484F53 
 16572      545F5355 
 16572      424D4954 
 16573              	.LASF102:
ARM GAS  C:\Users\AHMEDH~1\AppData\Local\Temp\cclxJjJK.s 			page 334


 16574 0af6 4F535F46 		.ascii	"OS_FN_SHA_PROCESS\000"
 16574      4E5F5348 
 16574      415F5052 
 16574      4F434553 
 16574      5300
 16575              	.LASF941:
 16576 0b08 614C656E 		.ascii	"aLen\000"
 16576      00
 16577              	.LASF292:
 16578 0b0d 4F535F46 		.ascii	"OS_FN_GPRS_SIGNAL\000"
 16578      4E5F4750 
 16578      52535F53 
 16578      49474E41 
 16578      4C00
 16579              	.LASF887:
 16580 0b1f 4553414C 		.ascii	"ESALE_UNDER_LMT\000"
 16580      455F554E 
 16580      4445525F 
 16580      4C4D5400 
 16581              	.LASF868:
 16582 0b2f 735F7273 		.ascii	"s_rsp_data\000"
 16582      705F6461 
 16582      746100
 16583              	.LASF869:
 16584 0b3a 41555448 		.ascii	"AUTH_SWIPE\000"
 16584      5F535749 
 16584      504500
 16585              	.LASF710:
 16586 0b45 61706E32 		.ascii	"apn2_username\000"
 16586      5F757365 
 16586      726E616D 
 16586      6500
 16587              	.LASF156:
 16588 0b53 4F535F46 		.ascii	"OS_FN_GET_CHALLENGE\000"
 16588      4E5F4745 
 16588      545F4348 
 16588      414C4C45 
 16588      4E474500 
 16589              	.LASF492:
 16590 0b67 55534246 		.ascii	"USBFPRT_GENERAL_INFO_IMG_HEIGHT\000"
 16590      5052545F 
 16590      47454E45 
 16590      52414C5F 
 16590      494E464F 
 16591              	.LASF127:
 16592 0b87 4F535F46 		.ascii	"OS_FN_KEY_CUP_MAC\000"
 16592      4E5F4B45 
 16592      595F4355 
 16592      505F4D41 
 16592      4300
 16593              	.LASF325:
 16594 0b99 4F535F46 		.ascii	"OS_FN_CLICC_SENDCOMMAND\000"
 16594      4E5F434C 
 16594      4943435F 
 16594      53454E44 
 16594      434F4D4D 
 16595              	.LASF51:
ARM GAS  C:\Users\AHMEDH~1\AppData\Local\Temp\cclxJjJK.s 			page 335


 16596 0bb1 4F535F46 		.ascii	"OS_FN_DISP_BL_CONTROL\000"
 16596      4E5F4449 
 16596      53505F42 
 16596      4C5F434F 
 16596      4E54524F 
 16597              	.LASF496:
 16598 0bc7 73625F63 		.ascii	"sb_content\000"
 16598      6F6E7465 
 16598      6E7400
 16599              	.LASF74:
 16600 0bd2 4F535F46 		.ascii	"OS_FN_COM2_SSEND\000"
 16600      4E5F434F 
 16600      4D325F53 
 16600      53454E44 
 16600      00
 16601              	.LASF265:
 16602 0be3 4F535F46 		.ascii	"OS_FN_FL_CREAD\000"
 16602      4E5F464C 
 16602      5F435245 
 16602      414400
 16603              	.LASF1045:
 16604 0bf2 55706449 		.ascii	"UpdIfaceDat\000"
 16604      66616365 
 16604      44617400 
 16605              	.LASF778:
 16606 0bfe 73625F74 		.ascii	"sb_tag_95\000"
 16606      61675F39 
 16606      3500
 16607              	.LASF584:
 16608 0c08 41504D5F 		.ascii	"APM_GETCARDCOUNT\000"
 16608      47455443 
 16608      41524443 
 16608      4F554E54 
 16608      00
 16609              	.LASF961:
 16610 0c19 61496E4F 		.ascii	"aInOutMsg\000"
 16610      75744D73 
 16610      6700
 16611              	.LASF164:
 16612 0c23 4F535F46 		.ascii	"OS_FN_REALLOC\000"
 16612      4E5F5245 
 16612      414C4C4F 
 16612      4300
 16613              	.LASF229:
 16614 0c31 4F535F46 		.ascii	"OS_FN_LAN_RXRDY\000"
 16614      4E5F4C41 
 16614      4E5F5258 
 16614      52445900 
 16615              	.LASF898:
 16616 0c41 62496478 		.ascii	"bIdx\000"
 16616      00
 16617              	.LASF779:
 16618 0c46 73625F74 		.ascii	"sb_tag_9b\000"
 16618      61675F39 
 16618      6200
 16619              	.LASF468:
 16620 0c50 4F535F46 		.ascii	"OS_FN_WIFI_SOCKET_SEND_TCP\000"
ARM GAS  C:\Users\AHMEDH~1\AppData\Local\Temp\cclxJjJK.s 			page 336


 16620      4E5F5749 
 16620      46495F53 
 16620      4F434B45 
 16620      545F5345 
 16621              	.LASF356:
 16622 0c6b 4F535F46 		.ascii	"OS_FN_BUS_STOP\000"
 16622      4E5F4255 
 16622      535F5354 
 16622      4F5000
 16623              	.LASF1007:
 16624 0c7a 57476574 		.ascii	"WGet\000"
 16624      00
 16625              	.LASF501:
 16626 0c7f 4F50454E 		.ascii	"OPENMW\000"
 16626      4D5700
 16627              	.LASF29:
 16628 0c86 4F535F46 		.ascii	"OS_FN_TIMER_SET\000"
 16628      4E5F5449 
 16628      4D45525F 
 16628      53455400 
 16629              	.LASF819:
 16630 0c96 53544953 		.ascii	"STIS_DATA\000"
 16630      5F444154 
 16630      4100
 16631              	.LASF20:
 16632 0ca0 4F535F46 		.ascii	"OS_FN_KBD_OPEN\000"
 16632      4E5F4B42 
 16632      445F4F50 
 16632      454E00
 16633              	.LASF692:
 16634 0caf 73625F70 		.ascii	"sb_password\000"
 16634      61737377 
 16634      6F726400 
 16635              	.LASF1044:
 16636 0cbb 73797374 		.ascii	"system_call_list\000"
 16636      656D5F63 
 16636      616C6C5F 
 16636      6C697374 
 16636      00
 16637              	.LASF447:
 16638 0ccc 4F535F46 		.ascii	"OS_FN_DTIMER_LATCH_TIME\000"
 16638      4E5F4454 
 16638      494D4552 
 16638      5F4C4154 
 16638      43485F54 
 16639              	.LASF520:
 16640 0ce4 46445345 		.ascii	"FDSEARCHMW\000"
 16640      41524348 
 16640      4D5700
 16641              	.LASF1028:
 16642 0cef 52657365 		.ascii	"ResetTerm\000"
 16642      74546572 
 16642      6D00
 16643              	.LASF279:
 16644 0cf9 4F535F46 		.ascii	"OS_FN_MCOM_TXRDY\000"
 16644      4E5F4D43 
 16644      4F4D5F54 
ARM GAS  C:\Users\AHMEDH~1\AppData\Local\Temp\cclxJjJK.s 			page 337


 16644      58524459 
 16644      00
 16645              	.LASF417:
 16646 0d0a 4F535F46 		.ascii	"OS_FN_GPS_ON\000"
 16646      4E5F4750 
 16646      535F4F4E 
 16646      00
 16647              	.LASF150:
 16648 0d17 4F535F46 		.ascii	"OS_FN_LED_OPEN\000"
 16648      4E5F4C45 
 16648      445F4F50 
 16648      454E00
 16649              	.LASF67:
 16650 0d26 4F535F46 		.ascii	"OS_FN_COM2_CLOSE\000"
 16650      4E5F434F 
 16650      4D325F43 
 16650      4C4F5345 
 16650      00
 16651              	.LASF1025:
 16652 0d37 546C7656 		.ascii	"TlvVPtr\000"
 16652      50747200 
 16653              	.LASF215:
 16654 0d3f 4F535F46 		.ascii	"OS_FN_MMC_BLK_SIZE\000"
 16654      4E5F4D4D 
 16654      435F424C 
 16654      4B5F5349 
 16654      5A4500
 16655              	.LASF897:
 16656 0d52 62547970 		.ascii	"bType\000"
 16656      6500
 16657              	.LASF829:
 16658 0d58 645F6C65 		.ascii	"d_len\000"
 16658      6E00
 16659              	.LASF1027:
 16660 0d5e 57616974 		.ascii	"WaitCardTrans\000"
 16660      43617264 
 16660      5472616E 
 16660      7300
 16661              	.LASF691:
 16662 0d6c 625F6469 		.ascii	"b_dial_option\000"
 16662      616C5F6F 
 16662      7074696F 
 16662      6E00
 16663              	.LASF540:
 16664 0d7a 4745545F 		.ascii	"GET_LCD_TYPEMW\000"
 16664      4C43445F 
 16664      54595045 
 16664      4D5700
 16665              	.LASF173:
 16666 0d89 4F535F46 		.ascii	"OS_FN_FILE_FLUSHED\000"
 16666      4E5F4649 
 16666      4C455F46 
 16666      4C555348 
 16666      454400
 16667              	.LASF605:
 16668 0d9c 41504D5F 		.ascii	"APM_TERMDATA_CLR\000"
 16668      5445524D 
ARM GAS  C:\Users\AHMEDH~1\AppData\Local\Temp\cclxJjJK.s 			page 338


 16668      44415441 
 16668      5F434C52 
 16668      00
 16669              	.LASF114:
 16670 0dad 4F535F46 		.ascii	"OS_FN_SM2_GET_MESS\000"
 16670      4E5F534D 
 16670      325F4745 
 16670      545F4D45 
 16670      535300
 16671              	.LASF508:
 16672 0dc0 4745544C 		.ascii	"GETLASTERRMW\000"
 16672      41535445 
 16672      52524D57 
 16672      00
 16673              	.LASF207:
 16674 0dcd 4F535F46 		.ascii	"OS_FN_SAM_SELECT\000"
 16674      4E5F5341 
 16674      4D5F5345 
 16674      4C454354 
 16674      00
 16675              	.LASF706:
 16676 0dde 73625F70 		.ascii	"sb_psw_refund\000"
 16676      73775F72 
 16676      6566756E 
 16676      6400
 16677              	.LASF324:
 16678 0dec 4F535F46 		.ascii	"OS_FN_CLICC_CLOSE\000"
 16678      4E5F434C 
 16678      4943435F 
 16678      434C4F53 
 16678      4500
 16679              	.LASF226:
 16680 0dfe 4F535F46 		.ascii	"OS_FN_SLE_IO\000"
 16680      4E5F534C 
 16680      455F494F 
 16680      00
 16681              	.LASF184:
 16682 0e0b 4F535F46 		.ascii	"OS_FN_FILE_DEACTIVATE\000"
 16682      4E5F4649 
 16682      4C455F44 
 16682      45414354 
 16682      49564154 
 16683              	.LASF545:
 16684 0e21 534D535F 		.ascii	"SMS_TX_MW\000"
 16684      54585F4D 
 16684      5700
 16685              	.LASF697:
 16686 0e2b 625F6375 		.ascii	"b_currency\000"
 16686      7272656E 
 16686      637900
 16687              	.LASF124:
 16688 0e36 4F535F46 		.ascii	"OS_FN_KEY_FLUSH\000"
 16688      4E5F4B45 
 16688      595F464C 
 16688      55534800 
 16689              	.LASF838:
 16690 0e46 735F5478 		.ascii	"s_TxBuf\000"
ARM GAS  C:\Users\AHMEDH~1\AppData\Local\Temp\cclxJjJK.s 			page 339


 16690      42756600 
 16691              	.LASF635:
 16692 0e4e 625F7365 		.ascii	"b_sec_redial\000"
 16692      635F7265 
 16692      6469616C 
 16692      00
 16693              	.LASF735:
 16694 0e5b 73625F73 		.ascii	"sb_sec_trans_tel\000"
 16694      65635F74 
 16694      72616E73 
 16694      5F74656C 
 16694      00
 16695              	.LASF188:
 16696 0e6c 4F535F46 		.ascii	"OS_FN_FILE_AUTH\000"
 16696      4E5F4649 
 16696      4C455F41 
 16696      55544800 
 16697              	.LASF837:
 16698 0e7c 735F4D73 		.ascii	"s_MsgBuf\000"
 16698      67427566 
 16698      00
 16699              	.LASF650:
 16700 0e85 625F7070 		.ascii	"b_ppad_port\000"
 16700      61645F70 
 16700      6F727400 
 16701              	.LASF333:
 16702 0e91 4F535F46 		.ascii	"OS_FN_CLICC_LED_ON\000"
 16702      4E5F434C 
 16702      4943435F 
 16702      4C45445F 
 16702      4F4E00
 16703              	.LASF1012:
 16704 0ea4 4444574F 		.ascii	"DDWORD2bcd\000"
 16704      52443262 
 16704      636400
 16705              	.LASF286:
 16706 0eaf 4F535F46 		.ascii	"OS_FN_BATT_TEMP\000"
 16706      4E5F4241 
 16706      54545F54 
 16706      454D5000 
 16707              	.LASF274:
 16708 0ebf 4F535F46 		.ascii	"OS_FN_MDM_LAST_CONN_STAT\000"
 16708      4E5F4D44 
 16708      4D5F4C41 
 16708      53545F43 
 16708      4F4E4E5F 
 16709              	.LASF128:
 16710 0ed8 4F535F46 		.ascii	"OS_FN_KEY_CBC_MAC\000"
 16710      4E5F4B45 
 16710      595F4342 
 16710      435F4D41 
 16710      4300
 16711              	.LASF246:
 16712 0eea 4F535F46 		.ascii	"OS_FN_USBSER_CLOSE\000"
 16712      4E5F5553 
 16712      42534552 
 16712      5F434C4F 
ARM GAS  C:\Users\AHMEDH~1\AppData\Local\Temp\cclxJjJK.s 			page 340


 16712      534500
 16713              	.LASF200:
 16714 0efd 4F535F46 		.ascii	"OS_FN_FILE_IOCTL\000"
 16714      4E5F4649 
 16714      4C455F49 
 16714      4F43544C 
 16714      00
 16715              	.LASF138:
 16716 0f0e 4F535F46 		.ascii	"OS_FN_THREAD_CLOSE\000"
 16716      4E5F5448 
 16716      52454144 
 16716      5F434C4F 
 16716      534500
 16717              	.LASF115:
 16718 0f21 4F535F46 		.ascii	"OS_FN_SM3_ASCII\000"
 16718      4E5F534D 
 16718      335F4153 
 16718      43494900 
 16719              	.LASF369:
 16720 0f31 4F535F46 		.ascii	"OS_FN_TAMPER_RESET_STATUS\000"
 16720      4E5F5441 
 16720      4D504552 
 16720      5F524553 
 16720      45545F53 
 16721              	.LASF916:
 16722 0f4b 65727252 		.ascii	"errRspData\000"
 16722      73704461 
 16722      746100
 16723              	.LASF260:
 16724 0f56 4F535F46 		.ascii	"OS_FN_FL_ERASE_END\000"
 16724      4E5F464C 
 16724      5F455241 
 16724      53455F45 
 16724      4E4400
 16725              	.LASF233:
 16726 0f69 4F535F46 		.ascii	"OS_FN_LAN_STATUS\000"
 16726      4E5F4C41 
 16726      4E5F5354 
 16726      41545553 
 16726      00
 16727              	.LASF751:
 16728 0f7a 625F7365 		.ascii	"b_settle_mdm_mode\000"
 16728      74746C65 
 16728      5F6D646D 
 16728      5F6D6F64 
 16728      6500
 16729              	.LASF79:
 16730 0f8c 4F535F46 		.ascii	"OS_FN_COM3_READ\000"
 16730      4E5F434F 
 16730      4D335F52 
 16730      45414400 
 16731              	.LASF355:
 16732 0f9c 4F535F46 		.ascii	"OS_FN_BUS_START\000"
 16732      4E5F4255 
 16732      535F5354 
 16732      41525400 
 16733              	.LASF55:
ARM GAS  C:\Users\AHMEDH~1\AppData\Local\Temp\cclxJjJK.s 			page 341


 16734 0fac 4F535F46 		.ascii	"OS_FN_DISP_ICON_SET_SIGNAL_TYPE\000"
 16734      4E5F4449 
 16734      53505F49 
 16734      434F4E5F 
 16734      5345545F 
 16735              	.LASF1005:
 16736 0fcc 57507574 		.ascii	"WPut\000"
 16736      00
 16737              	.LASF443:
 16738 0fd1 4F535F46 		.ascii	"OS_FN_CLICC_DEBUG\000"
 16738      4E5F434C 
 16738      4943435F 
 16738      44454255 
 16738      4700
 16739              	.LASF733:
 16740 0fe3 625F7072 		.ascii	"b_pri_trans_conn_time\000"
 16740      695F7472 
 16740      616E735F 
 16740      636F6E6E 
 16740      5F74696D 
 16741              	.LASF803:
 16742 0ff9 735F6474 		.ascii	"s_dtg\000"
 16742      6700
 16743              	.LASF191:
 16744 0fff 4F535F46 		.ascii	"OS_FN_FILE_FREESPACE\000"
 16744      4E5F4649 
 16744      4C455F46 
 16744      52454553 
 16744      50414345 
 16745              	.LASF180:
 16746 1014 4F535F46 		.ascii	"OS_FN_FILE_END\000"
 16746      4E5F4649 
 16746      4C455F45 
 16746      4E4400
 16747              	.LASF347:
 16748 1023 4F535F46 		.ascii	"OS_FN_DEVICE_IOCTL\000"
 16748      4E5F4445 
 16748      56494345 
 16748      5F494F43 
 16748      544C00
 16749              	.LASF426:
 16750 1036 4F535F46 		.ascii	"OS_FN_BREG_WRITE\000"
 16750      4E5F4252 
 16750      45475F57 
 16750      52495445 
 16750      00
 16751              	.LASF1024:
 16752 1047 546C7653 		.ascii	"TlvSeek\000"
 16752      65656B00 
 16753              	.LASF499:
 16754 104f 53544152 		.ascii	"STARTUPMW\000"
 16754      5455504D 
 16754      5700
 16755              	.LASF65:
 16756 1059 4F535F46 		.ascii	"OS_FN_COM1_SSEND\000"
 16756      4E5F434F 
 16756      4D315F53 
ARM GAS  C:\Users\AHMEDH~1\AppData\Local\Temp\cclxJjJK.s 			page 342


 16756      53454E44 
 16756      00
 16757              	.LASF604:
 16758 106a 41504D5F 		.ascii	"APM_STIS_ADDTBL\000"
 16758      53544953 
 16758      5F414444 
 16758      54424C00 
 16759              	.LASF358:
 16760 107a 4F535F46 		.ascii	"OS_FN_NETDEV_OPEN\000"
 16760      4E5F4E45 
 16760      54444556 
 16760      5F4F5045 
 16760      4E00
 16761              	.LASF505:
 16762 108c 4C534545 		.ascii	"LSEEKMW\000"
 16762      4B4D5700 
 16763              	.LASF614:
 16764 1094 41504D5F 		.ascii	"APM_UPD_BAT_REC\000"
 16764      5550445F 
 16764      4241545F 
 16764      52454300 
 16765              	.LASF441:
 16766 10a4 4F535F46 		.ascii	"OS_FN_APPCALL_RETURN\000"
 16766      4E5F4150 
 16766      5043414C 
 16766      4C5F5245 
 16766      5455524E 
 16767              	.LASF82:
 16768 10b9 4F535F46 		.ascii	"OS_FN_COM3_SREAD\000"
 16768      4E5F434F 
 16768      4D335F53 
 16768      52454144 
 16768      00
 16769              	.LASF590:
 16770 10ca 41504D5F 		.ascii	"APM_GETDESCCOUNT\000"
 16770      47455444 
 16770      45534343 
 16770      4F554E54 
 16770      00
 16771              	.LASF203:
 16772 10db 4F535F46 		.ascii	"OS_FN_CONFIG_WRITE\000"
 16772      4E5F434F 
 16772      4E464947 
 16772      5F575249 
 16772      544500
 16773              	.LASF277:
 16774 10ee 4F535F46 		.ascii	"OS_FN_MCOM_PERMIT\000"
 16774      4E5F4D43 
 16774      4F4D5F50 
 16774      45524D49 
 16774      5400
 16775              	.LASF240:
 16776 1100 4F535F46 		.ascii	"OS_FN_LPT_OPEN\000"
 16776      4E5F4C50 
 16776      545F4F50 
 16776      454E00
 16777              	.LASF315:
ARM GAS  C:\Users\AHMEDH~1\AppData\Local\Temp\cclxJjJK.s 			page 343


 16778 110f 4F535F46 		.ascii	"OS_FN_CODEC_OPEN\000"
 16778      4E5F434F 
 16778      4445435F 
 16778      4F50454E 
 16778      00
 16779              	.LASF326:
 16780 1120 4F535F46 		.ascii	"OS_FN_CLICC_CTRL\000"
 16780      4E5F434C 
 16780      4943435F 
 16780      4354524C 
 16780      00
 16781              	.LASF463:
 16782 1131 4F535F46 		.ascii	"OS_FN_GCM_AES_CLOSE\000"
 16782      4E5F4743 
 16782      4D5F4145 
 16782      535F434C 
 16782      4F534500 
 16783              	.LASF136:
 16784 1145 4F535F46 		.ascii	"OS_FN_PCI_DSS\000"
 16784      4E5F5043 
 16784      495F4453 
 16784      5300
 16785              	.LASF871:
 16786 1153 53414C45 		.ascii	"SALE_SWIPE\000"
 16786      5F535749 
 16786      504500
 16787              	.LASF405:
 16788 115e 4F535F46 		.ascii	"OS_FN_WIFI_STATUS\000"
 16788      4E5F5749 
 16788      46495F53 
 16788      54415455 
 16788      5300
 16789              	.LASF564:
 16790 1170 77546167 		.ascii	"wTag\000"
 16790      00
 16791              	.LASF640:
 16792 1175 73625F72 		.ascii	"sb_roc_no\000"
 16792      6F635F6E 
 16792      6F00
 16793              	.LASF99:
 16794 117f 4F535F46 		.ascii	"OS_FN_MD5_PROCESS\000"
 16794      4E5F4D44 
 16794      355F5052 
 16794      4F434553 
 16794      5300
 16795              	.LASF1015:
 16796 1191 43616C54 		.ascii	"CalTotals\000"
 16796      6F74616C 
 16796      7300
 16797              	.LASF983:
 16798 119b 67546572 		.ascii	"gTermTotal\000"
 16798      6D546F74 
 16798      616C00
 16799              	.LASF477:
 16800 11a6 4F535F46 		.ascii	"OS_FN_GPRS_IS_HL6RD\000"
 16800      4E5F4750 
 16800      52535F49 
ARM GAS  C:\Users\AHMEDH~1\AppData\Local\Temp\cclxJjJK.s 			page 344


 16800      535F484C 
 16800      36524400 
 16801              	.LASF554:
 16802 11ba 625F6365 		.ascii	"b_century\000"
 16802      6E747572 
 16802      7900
 16803              	.LASF742:
 16804 11c4 625F7365 		.ascii	"b_sec_settle_conn_time\000"
 16804      635F7365 
 16804      74746C65 
 16804      5F636F6E 
 16804      6E5F7469 
 16805              	.LASF174:
 16806 11db 4F535F46 		.ascii	"OS_FN_FILE_SEEK\000"
 16806      4E5F4649 
 16806      4C455F53 
 16806      45454B00 
 16807              	.LASF770:
 16808 11eb 4543525F 		.ascii	"ECR_CLEAR\000"
 16808      434C4541 
 16808      5200
 16809              	.LASF723:
 16810 11f5 625F6964 		.ascii	"b_id\000"
 16810      00
 16811              	.LASF626:
 16812 11fa 625F7374 		.ascii	"b_stis_mode\000"
 16812      69735F6D 
 16812      6F646500 
 16813              	.LASF1046:
 16814 1206 49666163 		.ascii	"IfaceClose\000"
 16814      65436C6F 
 16814      736500
 16815              	.LASF947:
 16816 1211 66696C65 		.ascii	"filename\000"
 16816      6E616D65 
 16816      00
 16817              	.LASF120:
 16818 121a 4F535F46 		.ascii	"OS_FN_KEY_SAVE\000"
 16818      4E5F4B45 
 16818      595F5341 
 16818      564500
 16819              	.LASF346:
 16820 1229 4F535F46 		.ascii	"OS_FN_DEVICE_ALLOC_MEDIA\000"
 16820      4E5F4445 
 16820      56494345 
 16820      5F414C4C 
 16820      4F435F4D 
 16821              	.LASF205:
 16822 1242 4F535F46 		.ascii	"OS_FN_SAM_OPEN\000"
 16822      4E5F5341 
 16822      4D5F4F50 
 16822      454E00
 16823              	.LASF884:
 16824 1251 53414C45 		.ascii	"SALE_ICC\000"
 16824      5F494343 
 16824      00
 16825              	.LASF970:
ARM GAS  C:\Users\AHMEDH~1\AppData\Local\Temp\cclxJjJK.s 			page 345


 16826 125a 74786275 		.ascii	"txbuf\000"
 16826      6600
 16827              	.LASF345:
 16828 1260 4F535F46 		.ascii	"OS_FN_DEVICE_UNREGISTER\000"
 16828      4E5F4445 
 16828      56494345 
 16828      5F554E52 
 16828      45474953 
 16829              	.LASF155:
 16830 1278 4F535F46 		.ascii	"OS_FN_LED_ON\000"
 16830      4E5F4C45 
 16830      445F4F4E 
 16830      00
 16831              	.LASF139:
 16832 1285 4F535F46 		.ascii	"OS_FN_THREAD_CREATE\000"
 16832      4E5F5448 
 16832      52454144 
 16832      5F435245 
 16832      41544500 
 16833              	.LASF1030:
 16834 1299 73707269 		.ascii	"sprintf\000"
 16834      6E746600 
 16835              	.LASF137:
 16836 12a1 4F535F46 		.ascii	"OS_FN_THREAD_OPEN\000"
 16836      4E5F5448 
 16836      52454144 
 16836      5F4F5045 
 16836      4E00
 16837              	.LASF925:
 16838 12b3 70454B65 		.ascii	"pEKey\000"
 16838      7900
 16839              	.LASF86:
 16840 12b9 4F535F46 		.ascii	"OS_FN_DES2\000"
 16840      4E5F4445 
 16840      533200
 16841              	.LASF511:
 16842 12c4 4644454C 		.ascii	"FDELETEMW\000"
 16842      4554454D 
 16842      5700
 16843              	.LASF58:
 16844 12ce 4F535F46 		.ascii	"OS_FN_COM1_CLOSE\000"
 16844      4E5F434F 
 16844      4D315F43 
 16844      4C4F5345 
 16844      00
 16845              	.LASF396:
 16846 12df 4F535F46 		.ascii	"OS_FN_BARCODE_CMD\000"
 16846      4E5F4241 
 16846      52434F44 
 16846      455F434D 
 16846      4400
 16847              	.LASF481:
 16848 12f1 4F535F46 		.ascii	"OS_FN_DISP_PUTS_ANYWHERE\000"
 16848      4E5F4449 
 16848      53505F50 
 16848      5554535F 
 16848      414E5957 
ARM GAS  C:\Users\AHMEDH~1\AppData\Local\Temp\cclxJjJK.s 			page 346


 16849              	.LASF866:
 16850 130a 735F696E 		.ascii	"s_input\000"
 16850      70757400 
 16851              	.LASF506:
 16852 1312 494F4354 		.ascii	"IOCTLMW\000"
 16852      4C4D5700 
 16853              	.LASF575:
 16854 131a 41504D5F 		.ascii	"APM_GETKBDTO\000"
 16854      4745544B 
 16854      4244544F 
 16854      00
 16855              	.LASF282:
 16856 1327 4F535F46 		.ascii	"OS_FN_MCOM_STATUS\000"
 16856      4E5F4D43 
 16856      4F4D5F53 
 16856      54415455 
 16856      5300
 16857              	.LASF741:
 16858 1339 73625F73 		.ascii	"sb_sec_settle_tel\000"
 16858      65635F73 
 16858      6574746C 
 16858      655F7465 
 16858      6C00
 16859              	.LASF905:
 16860 134b 49464143 		.ascii	"IFACE_DATA\000"
 16860      455F4441 
 16860      544100
 16861              	.LASF919:
 16862 1356 7273704D 		.ascii	"rspMutuAuthData\000"
 16862      75747541 
 16862      75746844 
 16862      61746100 
 16863              	.LASF828:
 16864 1366 4D53475F 		.ascii	"MSG_BUF\000"
 16864      42554600 
 16865              	.LASF684:
 16866 136e 775F6372 		.ascii	"w_crc\000"
 16866      6300
 16867              	.LASF464:
 16868 1374 4F535F46 		.ascii	"OS_FN_SYS_THREAD_CREATE\000"
 16868      4E5F5359 
 16868      535F5448 
 16868      52454144 
 16868      5F435245 
 16869              	.LASF285:
 16870 138c 4F535F46 		.ascii	"OS_FN_BATT_LEVEL\000"
 16870      4E5F4241 
 16870      54545F4C 
 16870      4556454C 
 16870      00
 16871              	.LASF962:
 16872 139d 61496E4C 		.ascii	"aInLen\000"
 16872      656E00
 16873              	.LASF517:
 16874 13a4 46575249 		.ascii	"FWRITEMW\000"
 16874      54454D57 
 16874      00
ARM GAS  C:\Users\AHMEDH~1\AppData\Local\Temp\cclxJjJK.s 			page 347


 16875              	.LASF632:
 16876 13ad 625F7072 		.ascii	"b_pri_redial\000"
 16876      695F7265 
 16876      6469616C 
 16876      00
 16877              	.LASF938:
 16878 13ba 614D6178 		.ascii	"aMaxLen\000"
 16878      4C656E00 
 16879              	.LASF594:
 16880 13c2 41504D5F 		.ascii	"APM_GETEXPARAMCOUNT\000"
 16880      47455445 
 16880      58504152 
 16880      414D434F 
 16880      554E5400 
 16881              	.LASF199:
 16882 13d6 4F535F46 		.ascii	"OS_FN_FILE_SYNC\000"
 16882      4E5F4649 
 16882      4C455F53 
 16882      594E4300 
 16883              	.LASF826:
 16884 13e6 625F6D6D 		.ascii	"b_mm\000"
 16884      00
 16885              	.LASF1019:
 16886 13eb 6D656D63 		.ascii	"memcmp\000"
 16886      6D7000
 16887              	.LASF126:
 16888 13f2 4F535F46 		.ascii	"OS_FN_KEY_DUKPT_MAC_CAL\000"
 16888      4E5F4B45 
 16888      595F4455 
 16888      4B50545F 
 16888      4D41435F 
 16889              	.LASF23:
 16890 140a 4F535F46 		.ascii	"OS_FN_KBD_SCODE\000"
 16890      4E5F4B42 
 16890      445F5343 
 16890      4F444500 
 16891              	.LASF149:
 16892 141a 4F535F46 		.ascii	"OS_FN_BUFMAN_SHRINK\000"
 16892      4E5F4255 
 16892      464D414E 
 16892      5F534852 
 16892      494E4B00 
 16893              	.LASF340:
 16894 142e 4F535F46 		.ascii	"OS_FN_USBHOST_DEVICEMAP\000"
 16894      4E5F5553 
 16894      42484F53 
 16894      545F4445 
 16894      56494345 
 16895              	.LASF466:
 16896 1446 4F535F46 		.ascii	"OS_FN_WIFI_SOCKET_DISCONNECT\000"
 16896      4E5F5749 
 16896      46495F53 
 16896      4F434B45 
 16896      545F4449 
 16897              	.LASF190:
 16898 1463 4F535F46 		.ascii	"OS_FN_FILE_GET_FREE_SPACE\000"
 16898      4E5F4649 
ARM GAS  C:\Users\AHMEDH~1\AppData\Local\Temp\cclxJjJK.s 			page 348


 16898      4C455F47 
 16898      45545F46 
 16898      5245455F 
 16899              	.LASF415:
 16900 147d 4F535F46 		.ascii	"OS_FN_NFC_IC_REG_DIRECT_WRITE\000"
 16900      4E5F4E46 
 16900      435F4943 
 16900      5F524547 
 16900      5F444952 
 16901              	.LASF266:
 16902 149b 4F535F46 		.ascii	"OS_FN_FL_CREAD_END\000"
 16902      4E5F464C 
 16902      5F435245 
 16902      41445F45 
 16902      4E4400
 16903              	.LASF643:
 16904 14ae 73625F69 		.ascii	"sb_init_nii\000"
 16904      6E69745F 
 16904      6E696900 
 16905              	.LASF163:
 16906 14ba 4F535F46 		.ascii	"OS_FN_MALLOC\000"
 16906      4E5F4D41 
 16906      4C4C4F43 
 16906      00
 16907              	.LASF236:
 16908 14c7 4F535F46 		.ascii	"OS_FN_MSR_RXLEN\000"
 16908      4E5F4D53 
 16908      525F5258 
 16908      4C454E00 
 16909              	.LASF439:
 16910 14d7 4F535F46 		.ascii	"OS_FN_GET_MCLK\000"
 16910      4E5F4745 
 16910      545F4D43 
 16910      4C4B00
 16911              	.LASF113:
 16912 14e6 4F535F46 		.ascii	"OS_FN_SM2_DECRYPT\000"
 16912      4E5F534D 
 16912      325F4445 
 16912      43525950 
 16912      5400
 16913              	.LASF209:
 16914 14f8 4F535F46 		.ascii	"OS_FN_SAM_ON\000"
 16914      4E5F5341 
 16914      4D5F4F4E 
 16914      00
 16915              	.LASF975:
 16916 1505 67624D6F 		.ascii	"gbMode\000"
 16916      646500
 16917              	.LASF314:
 16918 150c 4F535F46 		.ascii	"OS_FN_TPAD_RAW_POS\000"
 16918      4E5F5450 
 16918      41445F52 
 16918      41575F50 
 16918      4F5300
 16919              	.LASF876:
 16920 151f 53414C45 		.ascii	"SALE_OFFLINE\000"
 16920      5F4F4646 
ARM GAS  C:\Users\AHMEDH~1\AppData\Local\Temp\cclxJjJK.s 			page 349


 16920      4C494E45 
 16920      00
 16921              	.LASF660:
 16922 152c 73625F65 		.ascii	"sb_emvkey_date\000"
 16922      6D766B65 
 16922      795F6461 
 16922      746500
 16923              	.LASF134:
 16924 153b 4F535F46 		.ascii	"OS_FN_PCI_DSS_GET_KVC\000"
 16924      4E5F5043 
 16924      495F4453 
 16924      535F4745 
 16924      545F4B56 
 16925              	.LASF882:
 16926 1551 53455454 		.ascii	"SETTLEMENT\000"
 16926      4C454D45 
 16926      4E5400
 16927              	.LASF609:
 16928 155c 41504D5F 		.ascii	"APM_GET_REC_COUNT\000"
 16928      4745545F 
 16928      5245435F 
 16928      434F554E 
 16928      5400
 16929              	.LASF332:
 16930 156e 4F535F46 		.ascii	"OS_FN_CLICC_LED_CLEAR\000"
 16930      4E5F434C 
 16930      4943435F 
 16930      4C45445F 
 16930      434C4541 
 16931              	.LASF883:
 16932 1584 4544435F 		.ascii	"EDC_REV\000"
 16932      52455600 
 16933              	.LASF241:
 16934 158c 4F535F46 		.ascii	"OS_FN_LPT_CLOSE\000"
 16934      4E5F4C50 
 16934      545F434C 
 16934      4F534500 
 16935              	.LASF414:
 16936 159c 4F535F46 		.ascii	"OS_FN_NFC_INFO_SET\000"
 16936      4E5F4E46 
 16936      435F494E 
 16936      464F5F53 
 16936      455400
 16937              	.LASF793:
 16938 15af 73625F70 		.ascii	"sb_product\000"
 16938      726F6475 
 16938      637400
 16939              	.LASF603:
 16940 15ba 41504D5F 		.ascii	"APM_STIS_CLR\000"
 16940      53544953 
 16940      5F434C52 
 16940      00
 16941              	.LASF998:
 16942 15c7 6D656D63 		.ascii	"memcpy\000"
 16942      707900
 16943              	.LASF552:
 16944 15ce 4D575F46 		.ascii	"MW_FUNC_COUNT\000"
ARM GAS  C:\Users\AHMEDH~1\AppData\Local\Temp\cclxJjJK.s 			page 350


 16944      554E435F 
 16944      434F554E 
 16944      5400
 16945              	.LASF416:
 16946 15dc 4F535F46 		.ascii	"OS_FN_NFC_IC_REG_DIRECT_READ\000"
 16946      4E5F4E46 
 16946      435F4943 
 16946      5F524547 
 16946      5F444952 
 16947              	.LASF26:
 16948 15f9 4F535F46 		.ascii	"OS_FN_KBD_UNLOCK\000"
 16948      4E5F4B42 
 16948      445F554E 
 16948      4C4F434B 
 16948      00
 16949              	.LASF761:
 16950 160a 70624D73 		.ascii	"pbMsg\000"
 16950      6700
 16951              	.LASF856:
 16952 1610 73625F61 		.ascii	"sb_amex_4DBC\000"
 16952      6D65785F 
 16952      34444243 
 16952      00
 16953              	.LASF921:
 16954 161d 624B4964 		.ascii	"bKIdx\000"
 16954      7800
 16955              	.LASF248:
 16956 1623 4F535F46 		.ascii	"OS_FN_USBSER_WRITE\000"
 16956      4E5F5553 
 16956      42534552 
 16956      5F575249 
 16956      544500
 16957              	.LASF361:
 16958 1636 4F535F46 		.ascii	"OS_FN_NETDEV_EVENT\000"
 16958      4E5F4E45 
 16958      54444556 
 16958      5F455645 
 16958      4E5400
 16959              	.LASF513:
 16960 1649 46434C4F 		.ascii	"FCLOSEMW\000"
 16960      53454D57 
 16960      00
 16961              	.LASF73:
 16962 1652 4F535F46 		.ascii	"OS_FN_COM2_SREAD\000"
 16962      4E5F434F 
 16962      4D325F53 
 16962      52454144 
 16962      00
 16963              	.LASF649:
 16964 1663 64645F64 		.ascii	"dd_default_amount\000"
 16964      65666175 
 16964      6C745F61 
 16964      6D6F756E 
 16964      7400
 16965              	.LASF364:
 16966 1675 4F535F46 		.ascii	"OS_FN_USBKBD_CLOSE\000"
 16966      4E5F5553 
ARM GAS  C:\Users\AHMEDH~1\AppData\Local\Temp\cclxJjJK.s 			page 351


 16966      424B4244 
 16966      5F434C4F 
 16966      534500
 16967              	.LASF129:
 16968 1688 4F535F46 		.ascii	"OS_FN_KEY_HASH\000"
 16968      4E5F4B45 
 16968      595F4841 
 16968      534800
 16969              	.LASF46:
 16970 1697 4F535F46 		.ascii	"OS_FN_DISP_LENGTH\000"
 16970      4E5F4449 
 16970      53505F4C 
 16970      454E4754 
 16970      4800
 16971              	.LASF811:
 16972 16a9 544F5441 		.ascii	"TOTAL_STRUCT\000"
 16972      4C5F5354 
 16972      52554354 
 16972      00
 16973              	.LASF758:
 16974 16b6 625F6B65 		.ascii	"b_key\000"
 16974      7900
 16975              	.LASF744:
 16976 16bc 625F7472 		.ascii	"b_trans_mdm_mode\000"
 16976      616E735F 
 16976      6D646D5F 
 16976      6D6F6465 
 16976      00
 16977              	.LASF933:
 16978 16cd 61625F74 		.ascii	"ab_tmp\000"
 16978      6D7000
 16979              	.LASF771:
 16980 16d4 4543525F 		.ascii	"ECR_RXRDY\000"
 16980      52585244 
 16980      5900
 16981              	.LASF846:
 16982 16de 625F6469 		.ascii	"b_disp_chgd\000"
 16982      73705F63 
 16982      68676400 
 16983              	.LASF917:
 16984 16ea 72737045 		.ascii	"rspEchoData\000"
 16984      63686F44 
 16984      61746100 
 16985              	.LASF965:
 16986 16f6 49666163 		.ascii	"IfaceInit\000"
 16986      65496E69 
 16986      7400
 16987              	.LASF224:
 16988 1700 4F535F46 		.ascii	"OS_FN_SLE_CLOSE\000"
 16988      4E5F534C 
 16988      455F434C 
 16988      4F534500 
 16989              	.LASF932:
 16990 1710 61734F75 		.ascii	"asOut\000"
 16990      7400
 16991              	.LASF211:
 16992 1716 4F535F46 		.ascii	"OS_FN_SAM_T1\000"
ARM GAS  C:\Users\AHMEDH~1\AppData\Local\Temp\cclxJjJK.s 			page 352


 16992      4E5F5341 
 16992      4D5F5431 
 16992      00
 16993              	.LASF960:
 16994 1723 53707433 		.ascii	"Spt3MsgHdr\000"
 16994      4D736748 
 16994      647200
 16995              	.LASF214:
 16996 172e 4F535F46 		.ascii	"OS_FN_MMC_CLOSE\000"
 16996      4E5F4D4D 
 16996      435F434C 
 16996      4F534500 
 16997              	.LASF833:
 16998 173e 735F6163 		.ascii	"s_acq_rev\000"
 16998      715F7265 
 16998      7600
 16999              	.LASF291:
 17000 1748 4F535F46 		.ascii	"OS_FN_ADC_CH_READ\000"
 17000      4E5F4144 
 17000      435F4348 
 17000      5F524541 
 17000      4400
 17001              	.LASF702:
 17002 175a 73625F63 		.ascii	"sb_currency_name\000"
 17002      75727265 
 17002      6E63795F 
 17002      6E616D65 
 17002      00
 17003              	.LASF354:
 17004 176b 4F535F46 		.ascii	"OS_FN_INTERRUPT_UNREGISTER\000"
 17004      4E5F494E 
 17004      54455252 
 17004      5550545F 
 17004      554E5245 
 17005              	.LASF714:
 17006 1786 61706E32 		.ascii	"apn2_ip\000"
 17006      5F697000 
 17007              	.LASF981:
 17008 178e 67526571 		.ascii	"gReqBuf\000"
 17008      42756600 
 17009              	.LASF72:
 17010 1796 4F535F46 		.ascii	"OS_FN_COM2_STATUS\000"
 17010      4E5F434F 
 17010      4D325F53 
 17010      54415455 
 17010      5300
 17011              	.LASF893:
 17012 17a8 53455454 		.ascii	"SETT_ADV\000"
 17012      5F414456 
 17012      00
 17013              	.LASF170:
 17014 17b1 4F535F46 		.ascii	"OS_FN_FILE_EXIST\000"
 17014      4E5F4649 
 17014      4C455F45 
 17014      58495354 
 17014      00
 17015              	.LASF268:
ARM GAS  C:\Users\AHMEDH~1\AppData\Local\Temp\cclxJjJK.s 			page 353


 17016 17c2 4F535F46 		.ascii	"OS_FN_MDM_OPEN\000"
 17016      4E5F4D44 
 17016      4D5F4F50 
 17016      454E00
 17017              	.LASF475:
 17018 17d1 4F535F46 		.ascii	"OS_FN_IMG_SENSOR_GET_FRAME_COMPLETE\000"
 17018      4E5F494D 
 17018      475F5345 
 17018      4E534F52 
 17018      5F474554 
 17019              	.LASF328:
 17020 17f5 4F535F46 		.ascii	"OS_FN_CLICC_LED_OPEN\000"
 17020      4E5F434C 
 17020      4943435F 
 17020      4C45445F 
 17020      4F50454E 
 17021              	.LASF816:
 17022 180a 735F766F 		.ascii	"s_void_sale\000"
 17022      69645F73 
 17022      616C6500 
 17023              	.LASF250:
 17024 1816 4F535F46 		.ascii	"OS_FN_USBSER_ENABLE\000"
 17024      4E5F5553 
 17024      42534552 
 17024      5F454E41 
 17024      424C4500 
 17025              	.LASF823:
 17026 182a 735F6973 		.ascii	"s_issuer_tbl\000"
 17026      73756572 
 17026      5F74626C 
 17026      00
 17027              	.LASF944:
 17028 1837 72737050 		.ascii	"rspPackData\000"
 17028      61636B44 
 17028      61746100 
 17029              	.LASF1026:
 17030 1843 546C764C 		.ascii	"TlvLen\000"
 17030      656E00
 17031              	.LASF705:
 17032 184a 73625F72 		.ascii	"sb_reserved\000"
 17032      65736572 
 17032      76656400 
 17033              	.LASF491:
 17034 1856 55534246 		.ascii	"USBFPRT_GENERAL_INFO_IMG_WIDTH\000"
 17034      5052545F 
 17034      47454E45 
 17034      52414C5F 
 17034      494E464F 
 17035              	.LASF1003:
 17036 1875 54446573 		.ascii	"TDes\000"
 17036      00
 17037              	.LASF979:
 17038 187a 67616254 		.ascii	"gabTRand\000"
 17038      52616E64 
 17038      00
 17039              	.LASF878:
 17040 1883 53414C45 		.ascii	"SALE_UNDER_LMT\000"
ARM GAS  C:\Users\AHMEDH~1\AppData\Local\Temp\cclxJjJK.s 			page 354


 17040      5F554E44 
 17040      45525F4C 
 17040      4D5400
 17041              	.LASF929:
 17042 1892 70545261 		.ascii	"pTRand\000"
 17042      6E6400
 17043              	.LASF693:
 17044 1899 73625F68 		.ascii	"sb_help_tel\000"
 17044      656C705F 
 17044      74656C00 
 17045              	.LASF903:
 17046 18a5 73526D6B 		.ascii	"sRmk\000"
 17046      00
 17047              	.LASF534:
 17048 18aa 44495350 		.ascii	"DISP_CLRBELOWMW\000"
 17048      5F434C52 
 17048      42454C4F 
 17048      574D5700 
 17049              	.LASF731:
 17050 18ba 73625F6E 		.ascii	"sb_name\000"
 17050      616D6500 
 17051              	.LASF645:
 17052 18c2 625F6465 		.ascii	"b_default_app\000"
 17052      6661756C 
 17052      745F6170 
 17052      7000
 17053              	.LASF940:
 17054 18d0 61526571 		.ascii	"aReq\000"
 17054      00
 17055              	.LASF526:
 17056 18d5 44495350 		.ascii	"DISPLOGOMW\000"
 17056      4C4F474F 
 17056      4D5700
 17057              	.LASF360:
 17058 18e0 4F535F46 		.ascii	"OS_FN_NETDEV_GETLINK\000"
 17058      4E5F4E45 
 17058      54444556 
 17058      5F474554 
 17058      4C494E4B 
 17059              	.LASF258:
 17060 18f5 4F535F46 		.ascii	"OS_FN_FL_PGM_END\000"
 17060      4E5F464C 
 17060      5F50474D 
 17060      5F454E44 
 17060      00
 17061              	.LASF634:
 17062 1906 625F7365 		.ascii	"b_sec_conn_time\000"
 17062      635F636F 
 17062      6E6E5F74 
 17062      696D6500 
 17063              	.LASF281:
 17064 1916 4F535F46 		.ascii	"OS_FN_MCOM_SSEND\000"
 17064      4E5F4D43 
 17064      4F4D5F53 
 17064      53454E44 
 17064      00
 17065              	.LASF881:
ARM GAS  C:\Users\AHMEDH~1\AppData\Local\Temp\cclxJjJK.s 			page 355


 17066 1927 5452414E 		.ascii	"TRANS_UPLOAD\000"
 17066      535F5550 
 17066      4C4F4144 
 17066      00
 17067              	.LASF470:
 17068 1934 4F535F46 		.ascii	"OS_FN_WIFI_GET_DEVICE_STATE\000"
 17068      4E5F5749 
 17068      46495F47 
 17068      45545F44 
 17068      45564943 
 17069              	.LASF14:
 17070 1950 574F5244 		.ascii	"WORD\000"
 17070      00
 17071              	.LASF449:
 17072 1955 4F535F46 		.ascii	"OS_FN_LPT_GET_COUNT\000"
 17072      4E5F4C50 
 17072      545F4745 
 17072      545F434F 
 17072      554E5400 
 17073              	.LASF985:
 17074 1969 67474453 		.ascii	"gGDS\000"
 17074      00
 17075              	.LASF319:
 17076 196e 4F535F46 		.ascii	"OS_FN_CODEC_STOP\000"
 17076      4E5F434F 
 17076      4445435F 
 17076      53544F50 
 17076      00
 17077              	.LASF483:
 17078 197f 4F535F46 		.ascii	"OS_FN_WIFI_GET_REGULATORY_DOMAIN\000"
 17078      4E5F5749 
 17078      46495F47 
 17078      45545F52 
 17078      4547554C 
 17079              	.LASF573:
 17080 19a0 41504D5F 		.ascii	"APM_GETKBD\000"
 17080      4745544B 
 17080      424400
 17081              	.LASF734:
 17082 19ab 625F7072 		.ascii	"b_pri_trans_redial\000"
 17082      695F7472 
 17082      616E735F 
 17082      72656469 
 17082      616C00
 17083              	.LASF896:
 17084 19be 6162444B 		.ascii	"abDKey\000"
 17084      657900
 17085              	.LASF147:
 17086 19c5 4F535F46 		.ascii	"OS_FN_BUFMAN_FREE\000"
 17086      4E5F4255 
 17086      464D414E 
 17086      5F465245 
 17086      4500
 17087              	.LASF243:
 17088 19d7 4F535F46 		.ascii	"OS_FN_LPT_PUTDW\000"
 17088      4E5F4C50 
 17088      545F5055 
ARM GAS  C:\Users\AHMEDH~1\AppData\Local\Temp\cclxJjJK.s 			page 356


 17088      54445700 
 17089              	.LASF337:
 17090 19e7 4F535F46 		.ascii	"OS_FN_USBHOST_STATUS\000"
 17090      4E5F5553 
 17090      42484F53 
 17090      545F5354 
 17090      41545553 
 17091              	.LASF429:
 17092 19fc 4F535F46 		.ascii	"OS_FN_SLEEP\000"
 17092      4E5F534C 
 17092      45455000 
 17093              	.LASF1008:
 17094 1a08 43726331 		.ascii	"Crc16\000"
 17094      3600
 17095              	.LASF841:
 17096 1a0e 735F454D 		.ascii	"s_EMVIn\000"
 17096      56496E00 
 17097              	.LASF577:
 17098 1a16 41504D5F 		.ascii	"APM_PRECONNECT\000"
 17098      50524543 
 17098      4F4E4E45 
 17098      435400
 17099              	.LASF814:
 17100 1a25 735F7469 		.ascii	"s_tips_tot\000"
 17100      70735F74 
 17100      6F7400
 17101              	.LASF786:
 17102 1a30 625F6163 		.ascii	"b_acc_ind\000"
 17102      635F696E 
 17102      6400
 17103              	.LASF675:
 17104 1a3a 73625F63 		.ascii	"sb_checkin_pri_no\000"
 17104      6865636B 
 17104      696E5F70 
 17104      72695F6E 
 17104      6F00
 17105              	.LASF310:
 17106 1a4c 4F535F46 		.ascii	"OS_FN_TPAD_DEL_OBJ\000"
 17106      4E5F5450 
 17106      41445F44 
 17106      454C5F4F 
 17106      424A00
 17107              	.LASF49:
 17108 1a5f 4F535F46 		.ascii	"OS_FN_DISP_BACKC\000"
 17108      4E5F4449 
 17108      53505F42 
 17108      41434B43 
 17108      00
 17109              	.LASF4:
 17110 1a70 73686F72 		.ascii	"short unsigned int\000"
 17110      7420756E 
 17110      7369676E 
 17110      65642069 
 17110      6E7400
 17111              	.LASF167:
 17112 1a83 4F535F46 		.ascii	"OS_FN_FILE_OPEN\000"
 17112      4E5F4649 
ARM GAS  C:\Users\AHMEDH~1\AppData\Local\Temp\cclxJjJK.s 			page 357


 17112      4C455F4F 
 17112      50454E00 
 17113              	.LASF813:
 17114 1a93 735F7361 		.ascii	"s_sale_tot\000"
 17114      6C655F74 
 17114      6F7400
 17115              	.LASF810:
 17116 1a9e 775F636F 		.ascii	"w_count\000"
 17116      756E7400 
 17117              	.LASF64:
 17118 1aa6 4F535F46 		.ascii	"OS_FN_COM1_SREAD\000"
 17118      4E5F434F 
 17118      4D315F53 
 17118      52454144 
 17118      00
 17119              	.LASF100:
 17120 1ab7 4F535F46 		.ascii	"OS_FN_MD5_FINISH\000"
 17120      4E5F4D44 
 17120      355F4649 
 17120      4E495348 
 17120      00
 17121              	.LASF802:
 17122 1ac8 775F6973 		.ascii	"w_issuer_idx\000"
 17122      73756572 
 17122      5F696478 
 17122      00
 17123              	.LASF16:
 17124 1ad5 4444574F 		.ascii	"DDWORD\000"
 17124      524400
 17125              	.LASF276:
 17126 1adc 4F535F46 		.ascii	"OS_FN_MCOM_CLOSE\000"
 17126      4E5F4D43 
 17126      4F4D5F43 
 17126      4C4F5345 
 17126      00
 17127              	.LASF666:
 17128 1aed 73625F6C 		.ascii	"sb_lxapp_date\000"
 17128      78617070 
 17128      5F646174 
 17128      6500
 17129              	.LASF766:
 17130 1afb 4543525F 		.ascii	"ECR_START\000"
 17130      53544152 
 17130      5400
 17131              	.LASF890:
 17132 1b05 41555448 		.ascii	"AUTH_CTL\000"
 17132      5F43544C 
 17132      00
 17133              	.LASF792:
 17134 1b0e 64645F6F 		.ascii	"dd_org_amount\000"
 17134      72675F61 
 17134      6D6F756E 
 17134      7400
 17135              	.LASF937:
 17136 1b1c 61446174 		.ascii	"aData\000"
 17136      6100
 17137              	.LASF141:
ARM GAS  C:\Users\AHMEDH~1\AppData\Local\Temp\cclxJjJK.s 			page 358


 17138 1b22 4F535F46 		.ascii	"OS_FN_THREAD_LOCK\000"
 17138      4E5F5448 
 17138      52454144 
 17138      5F4C4F43 
 17138      4B00
 17139              	.LASF196:
 17140 1b34 4F535F46 		.ascii	"OS_FN_FILE_MKDIR\000"
 17140      4E5F4649 
 17140      4C455F4D 
 17140      4B444952 
 17140      00
 17141              	.LASF187:
 17142 1b45 4F535F46 		.ascii	"OS_FN_FILE_TRUNCATE\000"
 17142      4E5F4649 
 17142      4C455F54 
 17142      52554E43 
 17142      41544500 
 17143              	.LASF724:
 17144 1b59 73625F63 		.ascii	"sb_card_name\000"
 17144      6172645F 
 17144      6E616D65 
 17144      00
 17145              	.LASF994:
 17146 1b66 4B497466 		.ascii	"KItfRespTbl\000"
 17146      52657370 
 17146      54626C00 
 17147              	.LASF780:
 17148 1b72 73625F74 		.ascii	"sb_tag_9f26\000"
 17148      61675F39 
 17148      66323600 
 17149              	.LASF570:
 17150 1b7e 41504D5F 		.ascii	"APM_GETKEY\000"
 17150      4745544B 
 17150      455900
 17151              	.LASF365:
 17152 1b89 4F535F46 		.ascii	"OS_FN_USBKBD_INKEY\000"
 17152      4E5F5553 
 17152      424B4244 
 17152      5F494E4B 
 17152      455900
 17153              	.LASF993:
 17154 1b9c 4B497466 		.ascii	"KItfSettleResp\000"
 17154      53657474 
 17154      6C655265 
 17154      737000
 17155              	.LASF96:
 17156 1bab 4F535F46 		.ascii	"OS_FN_AES_DECRYPT_BLOCK\000"
 17156      4E5F4145 
 17156      535F4445 
 17156      43525950 
 17156      545F424C 
 17157              	.LASF92:
 17158 1bc3 4F535F46 		.ascii	"OS_FN_RSA\000"
 17158      4E5F5253 
 17158      4100
 17159              	.LASF955:
 17160 1bcd 614D6F64 		.ascii	"aMode\000"
ARM GAS  C:\Users\AHMEDH~1\AppData\Local\Temp\cclxJjJK.s 			page 359


 17160      6500
 17161              	.LASF21:
 17162 1bd3 4F535F46 		.ascii	"OS_FN_KBD_CLOSE\000"
 17162      4E5F4B42 
 17162      445F434C 
 17162      4F534500 
 17163              	.LASF121:
 17164 1be3 4F535F46 		.ascii	"OS_FN_KEY_SAVE_TMK\000"
 17164      4E5F4B45 
 17164      595F5341 
 17164      56455F54 
 17164      4D4B00
 17165              	.LASF217:
 17166 1bf6 4F535F46 		.ascii	"OS_FN_MMC_PSTATUS\000"
 17166      4E5F4D4D 
 17166      435F5053 
 17166      54415455 
 17166      5300
 17167              	.LASF37:
 17168 1c08 4F535F46 		.ascii	"OS_FN_DISP_OPEN\000"
 17168      4E5F4449 
 17168      53505F4F 
 17168      50454E00 
 17169              	.LASF62:
 17170 1c18 4F535F46 		.ascii	"OS_FN_COM1_SEND\000"
 17170      4E5F434F 
 17170      4D315F53 
 17170      454E4400 
 17171              	.LASF973:
 17172 1c28 49666163 		.ascii	"IfaceProcess\000"
 17172      6550726F 
 17172      63657373 
 17172      00
 17173              	.LASF880:
 17174 1c35 41444A55 		.ascii	"ADJUST\000"
 17174      535400
 17175              	.LASF123:
 17176 1c3c 4F535F46 		.ascii	"OS_FN_KEY_RSA\000"
 17176      4E5F4B45 
 17176      595F5253 
 17176      4100
 17177              	.LASF715:
 17178 1c4a 61706E32 		.ascii	"apn2_port\000"
 17178      5F706F72 
 17178      7400
 17179              	.LASF551:
 17180 1c54 41505049 		.ascii	"APPINFO_GETMW\000"
 17180      4E464F5F 
 17180      4745544D 
 17180      5700
 17181              	.LASF460:
 17182 1c62 4F535F46 		.ascii	"OS_FN_GCM_AES_PROCESS_AAD\000"
 17182      4E5F4743 
 17182      4D5F4145 
 17182      535F5052 
 17182      4F434553 
 17183              	.LASF313:
ARM GAS  C:\Users\AHMEDH~1\AppData\Local\Temp\cclxJjJK.s 			page 360


 17184 1c7c 4F535F46 		.ascii	"OS_FN_TPAD_CALIBRATE\000"
 17184      4E5F5450 
 17184      41445F43 
 17184      414C4942 
 17184      52415445 
 17185              	.LASF599:
 17186 1c91 41504D5F 		.ascii	"APM_SETBATCH\000"
 17186      53455442 
 17186      41544348 
 17186      00
 17187              	.LASF668:
 17188 1c9e 73625F66 		.ascii	"sb_ftp_user\000"
 17188      74705F75 
 17188      73657200 
 17189              	.LASF748:
 17190 1caa 73625F63 		.ascii	"sb_curr_batch_no\000"
 17190      7572725F 
 17190      62617463 
 17190      685F6E6F 
 17190      00
 17191              	.LASF612:
 17192 1cbb 41504D5F 		.ascii	"APM_CLR_REV_REC\000"
 17192      434C525F 
 17192      5245565F 
 17192      52454300 
 17193              	.LASF391:
 17194 1ccb 4F535F46 		.ascii	"OS_FN_MIF_GET\000"
 17194      4E5F4D49 
 17194      465F4745 
 17194      5400
 17195              	.LASF950:
 17196 1cd9 61496478 		.ascii	"aIdx\000"
 17196      00
 17197              	.LASF208:
 17198 1cde 4F535F46 		.ascii	"OS_FN_SAM_INSERTED\000"
 17198      4E5F5341 
 17198      4D5F494E 
 17198      53455254 
 17198      454400
 17199              	.LASF261:
 17200 1cf1 4F535F46 		.ascii	"OS_FN_FL_COPYB_START\000"
 17200      4E5F464C 
 17200      5F434F50 
 17200      59425F53 
 17200      54415254 
 17201              	.LASF507:
 17202 1d06 53544154 		.ascii	"STATMW\000"
 17202      4D5700
 17203              	.LASF918:
 17204 1d0d 72737049 		.ascii	"rspInitModeData\000"
 17204      6E69744D 
 17204      6F646544 
 17204      61746100 
 17205              	.LASF339:
 17206 1d1d 4F535F46 		.ascii	"OS_FN_USBHOST_DEVINFO\000"
 17206      4E5F5553 
 17206      42484F53 
ARM GAS  C:\Users\AHMEDH~1\AppData\Local\Temp\cclxJjJK.s 			page 361


 17206      545F4445 
 17206      56494E46 
 17207              	.LASF815:
 17208 1d33 735F7265 		.ascii	"s_refund_tot\000"
 17208      66756E64 
 17208      5F746F74 
 17208      00
 17209              	.LASF288:
 17210 1d40 4F535F46 		.ascii	"OS_FN_BATT_CHARGE_MODE\000"
 17210      4E5F4241 
 17210      54545F43 
 17210      48415247 
 17210      455F4D4F 
 17211              	.LASF305:
 17212 1d57 4F535F46 		.ascii	"OS_FN_GPRS_SMS_CONTROL\000"
 17212      4E5F4750 
 17212      52535F53 
 17212      4D535F43 
 17212      4F4E5452 
 17213              	.LASF835:
 17214 1d6e 735F7465 		.ascii	"s_term_tot\000"
 17214      726D5F74 
 17214      6F7400
 17215              	.LASF891:
 17216 1d79 52454655 		.ascii	"REFUND_CTL\000"
 17216      4E445F43 
 17216      544C00
 17217              	.LASF25:
 17218 1d84 4F535F46 		.ascii	"OS_FN_KBD_LOCK\000"
 17218      4E5F4B42 
 17218      445F4C4F 
 17218      434B00
 17219              	.LASF221:
 17220 1d93 4F535F46 		.ascii	"OS_FN_MMC_WRITE\000"
 17220      4E5F4D4D 
 17220      435F5752 
 17220      49544500 
 17221              	.LASF489:
 17222 1da3 454E445F 		.ascii	"END_OF_OS_FN_LIST\000"
 17222      4F465F4F 
 17222      535F464E 
 17222      5F4C4953 
 17222      5400
 17223              	.LASF399:
 17224 1db5 4F535F46 		.ascii	"OS_FN_BARCODE_ABORT\000"
 17224      4E5F4241 
 17224      52434F44 
 17224      455F4142 
 17224      4F525400 
 17225              	.LASF2:
 17226 1dc9 756E7369 		.ascii	"unsigned char\000"
 17226      676E6564 
 17226      20636861 
 17226      7200
 17227              	.LASF273:
 17228 1dd7 4F535F46 		.ascii	"OS_FN_MDM_STATUS\000"
 17228      4E5F4D44 
ARM GAS  C:\Users\AHMEDH~1\AppData\Local\Temp\cclxJjJK.s 			page 362


 17228      4D5F5354 
 17228      41545553 
 17228      00
 17229              	.LASF28:
 17230 1de8 4F535F46 		.ascii	"OS_FN_TIMER_CLOSE\000"
 17230      4E5F5449 
 17230      4D45525F 
 17230      434C4F53 
 17230      4500
 17231              	.LASF913:
 17232 1dfa 61526571 		.ascii	"aReqLen\000"
 17232      4C656E00 
 17233              	.LASF15:
 17234 1e02 44574F52 		.ascii	"DWORD\000"
 17234      4400
 17235              	.LASF1029:
 17236 1e08 7365745F 		.ascii	"set_pptr\000"
 17236      70707472 
 17236      00
 17237              	.LASF615:
 17238 1e11 41504D5F 		.ascii	"APM_TRACE_IN_BATCH\000"
 17238      54524143 
 17238      455F494E 
 17238      5F424154 
 17238      434800
 17239              	.LASF926:
 17240 1e24 704B7663 		.ascii	"pKvc\000"
 17240      00
 17241              	.LASF432:
 17242 1e29 4F535F46 		.ascii	"OS_FN_FREE_RUN\000"
 17242      4E5F4652 
 17242      45455F52 
 17242      554E00
 17243              	.LASF482:
 17244 1e38 4F535F46 		.ascii	"OS_FN_BATT_CHARGE_NOW\000"
 17244      4E5F4241 
 17244      54545F43 
 17244      48415247 
 17244      455F4E4F 
 17245              	.LASF213:
 17246 1e4e 4F535F46 		.ascii	"OS_FN_MMC_OPEN\000"
 17246      4E5F4D4D 
 17246      435F4F50 
 17246      454E00
 17247              	.LASF576:
 17248 1e5d 41504D5F 		.ascii	"APM_PACKCOMM\000"
 17248      5041434B 
 17248      434F4D4D 
 17248      00
 17249              	.LASF611:
 17250 1e6a 41504D5F 		.ascii	"APM_GET_REV_REC\000"
 17250      4745545F 
 17250      5245565F 
 17250      52454300 
 17251              	.LASF230:
 17252 1e7a 4F535F46 		.ascii	"OS_FN_LAN_TXRDY\000"
 17252      4E5F4C41 
ARM GAS  C:\Users\AHMEDH~1\AppData\Local\Temp\cclxJjJK.s 			page 363


 17252      4E5F5458 
 17252      52445900 
 17253              	.LASF557:
 17254 1e8a 625F6461 		.ascii	"b_day\000"
 17254      7900
 17255              	.LASF785:
 17256 1e90 625F7472 		.ascii	"b_trans_status\000"
 17256      616E735F 
 17256      73746174 
 17256      757300
 17257              	.LASF154:
 17258 1e9f 4F535F46 		.ascii	"OS_FN_LED_CLEAR\000"
 17258      4E5F4C45 
 17258      445F434C 
 17258      45415200 
 17259              	.LASF1017:
 17260 1eaf 53657474 		.ascii	"SettleTrans\000"
 17260      6C655472 
 17260      616E7300 
 17261              	.LASF904:
 17262 1ebb 53335044 		.ascii	"S3PDATA\000"
 17262      41544100 
 17263              	.LASF719:
 17264 1ec3 625F6973 		.ascii	"b_issuer_id\000"
 17264      73756572 
 17264      5F696400 
 17265              	.LASF562:
 17266 1ecf 624D7367 		.ascii	"bMsg\000"
 17266      00
 17267              	.LASF752:
 17268 1ed4 625F686F 		.ascii	"b_host_type\000"
 17268      73745F74 
 17268      79706500 
 17269              	.LASF951:
 17270 1ee0 734B6579 		.ascii	"sKey\000"
 17270      00
 17271              	.LASF22:
 17272 1ee5 4F535F46 		.ascii	"OS_FN_KBD_INKEY\000"
 17272      4E5F4B42 
 17272      445F494E 
 17272      4B455900 
 17273              	.LASF377:
 17274 1ef5 4F535F46 		.ascii	"OS_FN_MIF_ANTICOLL\000"
 17274      4E5F4D49 
 17274      465F414E 
 17274      5449434F 
 17274      4C4C00
 17275              	.LASF830:
 17276 1f08 735F7374 		.ascii	"s_stis_data\000"
 17276      69735F64 
 17276      61746100 
 17277              	.LASF484:
 17278 1f14 4F535F46 		.ascii	"OS_FN_WIFI_SET_REGULATORY_DOMAIN\000"
 17278      4E5F5749 
 17278      46495F53 
 17278      45545F52 
 17278      4547554C 
ARM GAS  C:\Users\AHMEDH~1\AppData\Local\Temp\cclxJjJK.s 			page 364


 17279              	.LASF183:
 17280 1f35 4F535F46 		.ascii	"OS_FN_FILE_DSEARCH_ALL\000"
 17280      4E5F4649 
 17280      4C455F44 
 17280      53454152 
 17280      43485F41 
 17281              	.LASF537:
 17282 1f4c 44495350 		.ascii	"DISP_SETPMW\000"
 17282      5F534554 
 17282      504D5700 
 17283              	.LASF392:
 17284 1f58 4F535F46 		.ascii	"OS_FN_MIF_INFO_SET\000"
 17284      4E5F4D49 
 17284      465F494E 
 17284      464F5F53 
 17284      455400
 17285              	.LASF799:
 17286 1f6b 625F5069 		.ascii	"b_PinVerified\000"
 17286      6E566572 
 17286      69666965 
 17286      6400
 17287              	.LASF717:
 17288 1f79 73625F70 		.ascii	"sb_pan_range_low\000"
 17288      616E5F72 
 17288      616E6765 
 17288      5F6C6F77 
 17288      00
 17289              	.LASF98:
 17290 1f8a 4F535F46 		.ascii	"OS_FN_MD5_INIT\000"
 17290      4E5F4D44 
 17290      355F494E 
 17290      495400
 17291              	.LASF487:
 17292 1f99 4F535F46 		.ascii	"OS_FN_IMG_SENSOR_SET_MODE\000"
 17292      4E5F494D 
 17292      475F5345 
 17292      4E534F52 
 17292      5F534554 
 17293              	.LASF653:
 17294 1fb3 73625F65 		.ascii	"sb_edc_chksum\000"
 17294      64635F63 
 17294      686B7375 
 17294      6D00
 17295              	.LASF607:
 17296 1fc1 41504D5F 		.ascii	"APM_BATCH_CLEAR\000"
 17296      42415443 
 17296      485F434C 
 17296      45415200 
 17297              	.LASF302:
 17298 1fd1 4F535F46 		.ascii	"OS_FN_GPRS_SMS_DECODE\000"
 17298      4E5F4750 
 17298      52535F53 
 17298      4D535F44 
 17298      45434F44 
 17299              	.LASF256:
 17300 1fe7 4F535F46 		.ascii	"OS_FN_FL_PGM_START\000"
 17300      4E5F464C 
ARM GAS  C:\Users\AHMEDH~1\AppData\Local\Temp\cclxJjJK.s 			page 365


 17300      5F50474D 
 17300      5F535441 
 17300      525400
 17301              	.LASF853:
 17302 1ffa 735F7472 		.ascii	"s_trk2buf\000"
 17302      6B326275 
 17302      6600
 17303              	.LASF596:
 17304 2004 41504D5F 		.ascii	"APM_GETPENDING\000"
 17304      47455450 
 17304      454E4449 
 17304      4E4700
 17305              	.LASF712:
 17306 2013 61706E63 		.ascii	"apnconfig\000"
 17306      6F6E6669 
 17306      6700
 17307              	.LASF591:
 17308 201d 41504D5F 		.ascii	"APM_GETDESCTBL\000"
 17308      47455444 
 17308      45534354 
 17308      424C00
 17309              	.LASF450:
 17310 202c 4F535F46 		.ascii	"OS_FN_FPRT_OPEN\000"
 17310      4E5F4650 
 17310      52545F4F 
 17310      50454E00 
 17311              	.LASF1014:
 17312 203c 566F6964 		.ascii	"VoidTrans\000"
 17312      5472616E 
 17312      7300
 17313              	.LASF175:
 17314 2046 4F535F46 		.ascii	"OS_FN_FILE_READ\000"
 17314      4E5F4649 
 17314      4C455F52 
 17314      45414400 
 17315              	.LASF446:
 17316 2056 4F535F46 		.ascii	"OS_FN_DTIMER_LATCH_STOP\000"
 17316      4E5F4454 
 17316      494D4552 
 17316      5F4C4154 
 17316      43485F53 
 17317              	.LASF989:
 17318 206e 4B497466 		.ascii	"KItfOfflSaleResp\000"
 17318      4F66666C 
 17318      53616C65 
 17318      52657370 
 17318      00
 17319              	.LASF486:
 17320 207f 4F535F46 		.ascii	"OS_FN_BATT_LEVEL2\000"
 17320      4E5F4241 
 17320      54545F4C 
 17320      4556454C 
 17320      3200
 17321              	.LASF777:
 17322 2091 73625F61 		.ascii	"sb_aid\000"
 17322      696400
 17323              	.LASF406:
ARM GAS  C:\Users\AHMEDH~1\AppData\Local\Temp\cclxJjJK.s 			page 366


 17324 2098 4F535F46 		.ascii	"OS_FN_WIFI_PROFILES_READ\000"
 17324      4E5F5749 
 17324      46495F50 
 17324      524F4649 
 17324      4C45535F 
 17325              	.LASF509:
 17326 20b1 46535953 		.ascii	"FSYSINITMW\000"
 17326      494E4954 
 17326      4D5700
 17327              	.LASF57:
 17328 20bc 4F535F46 		.ascii	"OS_FN_COM1_OPEN\000"
 17328      4E5F434F 
 17328      4D315F4F 
 17328      50454E00 
 17329              	.LASF84:
 17330 20cc 4F535F46 		.ascii	"OS_FN_DESKEY\000"
 17330      4E5F4445 
 17330      534B4559 
 17330      00
 17331              	.LASF168:
 17332 20d9 4F535F46 		.ascii	"OS_FN_FILE_CREATE\000"
 17332      4E5F4649 
 17332      4C455F43 
 17332      52454154 
 17332      4500
 17333              	.LASF318:
 17334 20eb 4F535F46 		.ascii	"OS_FN_CODEC_PLAY_RAM\000"
 17334      4E5F434F 
 17334      4445435F 
 17334      504C4159 
 17334      5F52414D 
 17335              	.LASF493:
 17336 2100 55534246 		.ascii	"USBFPRT_GENERAL_INFO_IMG_BPP\000"
 17336      5052545F 
 17336      47454E45 
 17336      52414C5F 
 17336      494E464F 
 17337              	.LASF999:
 17338 211d 6C69625F 		.ascii	"lib_app_call\000"
 17338      6170705F 
 17338      63616C6C 
 17338      00
 17339              	.LASF665:
 17340 212a 73625F6C 		.ascii	"sb_lxapp_chksum\000"
 17340      78617070 
 17340      5F63686B 
 17340      73756D00 
 17341              	.LASF158:
 17342 213a 4F535F46 		.ascii	"OS_FN_APP_SEARCH_ID\000"
 17342      4E5F4150 
 17342      505F5345 
 17342      41524348 
 17342      5F494400 
 17343              	.LASF1033:
 17344 214e 73706C69 		.ascii	"split_data\000"
 17344      745F6461 
 17344      746100
ARM GAS  C:\Users\AHMEDH~1\AppData\Local\Temp\cclxJjJK.s 			page 367


 17345              	.LASF296:
 17346 2159 4F535F46 		.ascii	"OS_FN_GPRS_SEND\000"
 17346      4E5F4750 
 17346      52535F53 
 17346      454E4400 
 17347              	.LASF661:
 17348 2169 73625F65 		.ascii	"sb_emvkey_size\000"
 17348      6D766B65 
 17348      795F7369 
 17348      7A6500
 17349              	.LASF986:
 17350 2178 67475453 		.ascii	"gGTS\000"
 17350      00
 17351              	.LASF541:
 17352 217d 4F535F43 		.ascii	"OS_CALL_MW\000"
 17352      414C4C5F 
 17352      4D5700
 17353              	.LASF1020:
 17354 2188 52616E64 		.ascii	"Random\000"
 17354      6F6D00
 17355              	.LASF304:
 17356 218f 4F535F46 		.ascii	"OS_FN_GPRS_SMS_SEND\000"
 17356      4E5F4750 
 17356      52535F53 
 17356      4D535F53 
 17356      454E4400 
 17357              	.LASF670:
 17358 21a3 73625F70 		.ascii	"sb_ppp_user\000"
 17358      70705F75 
 17358      73657200 
 17359              	.LASF911:
 17360 21af 61527370 		.ascii	"aRspMsg\000"
 17360      4D736700 
 17361              	.LASF375:
 17362 21b7 4F535F46 		.ascii	"OS_FN_MIF_TAG\000"
 17362      4E5F4D49 
 17362      465F5441 
 17362      4700
 17363              	.LASF194:
 17364 21c5 4F535F46 		.ascii	"OS_FN_FILE_INIT_SEARCH\000"
 17364      4E5F4649 
 17364      4C455F49 
 17364      4E49545F 
 17364      53454152 
 17365              	.LASF966:
 17366 21dc 61466F72 		.ascii	"aForceInit\000"
 17366      6365496E 
 17366      697400
 17367              	.LASF642:
 17368 21e7 73625F70 		.ascii	"sb_port\000"
 17368      6F727400 
 17369              	.LASF749:
 17370 21ef 73625F6E 		.ascii	"sb_next_batch_no\000"
 17370      6578745F 
 17370      62617463 
 17370      685F6E6F 
 17370      00
ARM GAS  C:\Users\AHMEDH~1\AppData\Local\Temp\cclxJjJK.s 			page 368


 17371              	.LASF294:
 17372 2200 4F535F46 		.ascii	"OS_FN_GPRS_AT_CMD\000"
 17372      4E5F4750 
 17372      52535F41 
 17372      545F434D 
 17372      4400
 17373              	.LASF1032:
 17374 2212 7061636B 		.ascii	"pack_mem\000"
 17374      5F6D656D 
 17374      00
 17375              	.LASF50:
 17376 221b 4F535F46 		.ascii	"OS_FN_DISP_BRIGHTNESS\000"
 17376      4E5F4449 
 17376      53505F42 
 17376      52494748 
 17376      544E4553 
 17377              	.LASF101:
 17378 2231 4F535F46 		.ascii	"OS_FN_SHA_INIT\000"
 17378      4E5F5348 
 17378      415F494E 
 17378      495400
 17379              	.LASF192:
 17380 2240 4F535F46 		.ascii	"OS_FN_FILE_GET_SYSTEMINFO\000"
 17380      4E5F4649 
 17380      4C455F47 
 17380      45545F53 
 17380      59535445 
 17381              	.LASF743:
 17382 225a 625F7365 		.ascii	"b_sec_settle_redial\000"
 17382      635F7365 
 17382      74746C65 
 17382      5F726564 
 17382      69616C00 
 17383              	.LASF453:
 17384 226e 4F535F46 		.ascii	"OS_FN_FPRT_INFO_SET\000"
 17384      4E5F4650 
 17384      52545F49 
 17384      4E464F5F 
 17384      53455400 
 17385              	.LASF94:
 17386 2282 4F535F46 		.ascii	"OS_FN_AES_SETUP_KEY\000"
 17386      4E5F4145 
 17386      535F5345 
 17386      5455505F 
 17386      4B455900 
 17387              	.LASF93:
 17388 2296 4F535F46 		.ascii	"OS_FN_RSA_PRIVATE\000"
 17388      4E5F5253 
 17388      415F5052 
 17388      49564154 
 17388      4500
 17389              	.LASF97:
 17390 22a8 4F535F46 		.ascii	"OS_FN_SHA1\000"
 17390      4E5F5348 
 17390      413100
 17391              	.LASF948:
 17392 22b3 614B6579 		.ascii	"aKey\000"
ARM GAS  C:\Users\AHMEDH~1\AppData\Local\Temp\cclxJjJK.s 			page 369


 17392      00
 17393              	.LASF252:
 17394 22b8 4F535F46 		.ascii	"OS_FN_FL_STATUS\000"
 17394      4E5F464C 
 17394      5F535441 
 17394      54555300 
 17395              	.LASF372:
 17396 22c8 4F535F46 		.ascii	"OS_FN_MIF_CANCEL\000"
 17396      4E5F4D49 
 17396      465F4341 
 17396      4E43454C 
 17396      00
 17397              	.LASF397:
 17398 22d9 4F535F46 		.ascii	"OS_FN_BARCODE_SCAN\000"
 17398      4E5F4241 
 17398      52434F44 
 17398      455F5343 
 17398      414E00
 17399              	.LASF459:
 17400 22ec 4F535F46 		.ascii	"OS_FN_GCM_AES_INIT\000"
 17400      4E5F4743 
 17400      4D5F4145 
 17400      535F494E 
 17400      495400
 17401              	.LASF588:
 17402 22ff 41504D5F 		.ascii	"APM_GETACQCOUNT\000"
 17402      47455441 
 17402      4351434F 
 17402      554E5400 
 17403              	.LASF791:
 17404 230f 64645F74 		.ascii	"dd_tip\000"
 17404      697000
 17405              	.LASF77:
 17406 2316 4F535F46 		.ascii	"OS_FN_COM3_RXRDY\000"
 17406      4E5F434F 
 17406      4D335F52 
 17406      58524459 
 17406      00
 17407              	.LASF312:
 17408 2327 4F535F46 		.ascii	"OS_FN_TPAD_ALERT_RETURN\000"
 17408      4E5F5450 
 17408      41445F41 
 17408      4C455254 
 17408      5F524554 
 17409              	.LASF153:
 17410 233f 4F535F46 		.ascii	"OS_FN_LED_SET\000"
 17410      4E5F4C45 
 17410      445F5345 
 17410      5400
 17411              	.LASF555:
 17412 234d 625F7965 		.ascii	"b_year\000"
 17412      617200
 17413              	.LASF617:
 17414 2354 41504D5F 		.ascii	"APM_GETACCESSCODE\000"
 17414      47455441 
 17414      43434553 
 17414      53434F44 
ARM GAS  C:\Users\AHMEDH~1\AppData\Local\Temp\cclxJjJK.s 			page 370


 17414      4500
 17415              	.LASF736:
 17416 2366 625F7365 		.ascii	"b_sec_trans_conn_time\000"
 17416      635F7472 
 17416      616E735F 
 17416      636F6E6E 
 17416      5F74696D 
 17417              	.LASF618:
 17418 237c 41504D5F 		.ascii	"APM_SELYESNO\000"
 17418      53454C59 
 17418      45534E4F 
 17418      00
 17419              	.LASF686:
 17420 2389 625F646C 		.ascii	"b_dll\000"
 17420      6C00
 17421              	.LASF641:
 17422 238f 73625F69 		.ascii	"sb_ip\000"
 17422      7000
 17423              	.LASF936:
 17424 2395 775F746D 		.ascii	"w_tmp\000"
 17424      7000
 17425              	.LASF220:
 17426 239b 4F535F46 		.ascii	"OS_FN_MMC_READ\000"
 17426      4E5F4D4D 
 17426      435F5245 
 17426      414400
 17427              	.LASF189:
 17428 23aa 4F535F46 		.ascii	"OS_FN_FILE_SET_LOCK\000"
 17428      4E5F4649 
 17428      4C455F53 
 17428      45545F4C 
 17428      4F434B00 
 17429              	.LASF280:
 17430 23be 4F535F46 		.ascii	"OS_FN_MCOM_SREAD\000"
 17430      4E5F4D43 
 17430      4F4D5F53 
 17430      52454144 
 17430      00
 17431              	.LASF662:
 17432 23cf 73625F78 		.ascii	"sb_xapp_chksum\000"
 17432      6170705F 
 17432      63686B73 
 17432      756D00
 17433              	.LASF848:
 17434 23de 735F6563 		.ascii	"s_ecr_data\000"
 17434      725F6461 
 17434      746100
 17435              	.LASF832:
 17436 23e9 735F7265 		.ascii	"s_record_buf\000"
 17436      636F7264 
 17436      5F627566 
 17436      00
 17437              	.LASF885:
 17438 23f6 41555448 		.ascii	"AUTH_ICC\000"
 17438      5F494343 
 17438      00
 17439              	.LASF428:
ARM GAS  C:\Users\AHMEDH~1\AppData\Local\Temp\cclxJjJK.s 			page 371


 17440 23ff 4F535F46 		.ascii	"OS_FN_GET_CALLID\000"
 17440      4E5F4745 
 17440      545F4341 
 17440      4C4C4944 
 17440      00
 17441              	.LASF574:
 17442 2410 41504D5F 		.ascii	"APM_SETKBDTO\000"
 17442      5345544B 
 17442      4244544F 
 17442      00
 17443              	.LASF232:
 17444 241d 4F535F46 		.ascii	"OS_FN_LAN_SEND\000"
 17444      4E5F4C41 
 17444      4E5F5345 
 17444      4E4400
 17445              	.LASF36:
 17446 242c 4F535F46 		.ascii	"OS_FN_RTC_SET\000"
 17446      4E5F5254 
 17446      435F5345 
 17446      5400
 17447              	.LASF654:
 17448 243a 73625F65 		.ascii	"sb_edc_date\000"
 17448      64635F64 
 17448      61746500 
 17449              	.LASF162:
 17450 2446 4F535F46 		.ascii	"OS_FN_APP_INFO\000"
 17450      4E5F4150 
 17450      505F494E 
 17450      464F00
 17451              	.LASF222:
 17452 2455 4F535F46 		.ascii	"OS_FN_MMC_INSERTED\000"
 17452      4E5F4D4D 
 17452      435F494E 
 17452      53455254 
 17452      454400
 17453              	.LASF490:
 17454 2468 55534246 		.ascii	"USBFPRT_GENERAL_INFO_MODEL\000"
 17454      5052545F 
 17454      47454E45 
 17454      52414C5F 
 17454      494E464F 
 17455              	.LASF472:
 17456 2483 4F535F46 		.ascii	"OS_FN_WIFI_SOCKET_LISTEN\000"
 17456      4E5F5749 
 17456      46495F53 
 17456      4F434B45 
 17456      545F4C49 
 17457              	.LASF321:
 17458 249c 4F535F46 		.ascii	"OS_FN_CLICC_OPEN\000"
 17458      4E5F434C 
 17458      4943435F 
 17458      4F50454E 
 17458      00
 17459              	.LASF33:
 17460 24ad 4F535F46 		.ascii	"OS_FN_BUZ_BEEP\000"
 17460      4E5F4255 
 17460      5A5F4245 
ARM GAS  C:\Users\AHMEDH~1\AppData\Local\Temp\cclxJjJK.s 			page 372


 17460      455000
 17461              	.LASF425:
 17462 24bc 4F535F46 		.ascii	"OS_FN_BREG_READ\000"
 17462      4E5F4252 
 17462      45475F52 
 17462      45414400 
 17463              	.LASF581:
 17464 24cc 41504D5F 		.ascii	"APM_RESETCOMM\000"
 17464      52455345 
 17464      54434F4D 
 17464      4D00
 17465              	.LASF376:
 17466 24da 4F535F46 		.ascii	"OS_FN_MIF_STATUS\000"
 17466      4E5F4D49 
 17466      465F5354 
 17466      41545553 
 17466      00
 17467              	.LASF536:
 17468 24eb 44495350 		.ascii	"DISP_LINEMW\000"
 17468      5F4C494E 
 17468      454D5700 
 17469              	.LASF518:
 17470 24f7 46434F4D 		.ascii	"FCOMMITALLMW\000"
 17470      4D495441 
 17470      4C4C4D57 
 17470      00
 17471              	.LASF827:
 17472 2504 625F6464 		.ascii	"b_dd\000"
 17472      00
 17473              	.LASF316:
 17474 2509 4F535F46 		.ascii	"OS_FN_CODEC_CLOSE\000"
 17474      4E5F434F 
 17474      4445435F 
 17474      434C4F53 
 17474      4500
 17475              	.LASF257:
 17476 251b 4F535F46 		.ascii	"OS_FN_FL_WRITE\000"
 17476      4E5F464C 
 17476      5F575249 
 17476      544500
 17477              	.LASF270:
 17478 252a 4F535F46 		.ascii	"OS_FN_MDM_DIAL\000"
 17478      4E5F4D44 
 17478      4D5F4449 
 17478      414C00
 17479              	.LASF659:
 17480 2539 73625F65 		.ascii	"sb_emvkey_chksum\000"
 17480      6D766B65 
 17480      795F6368 
 17480      6B73756D 
 17480      00
 17481              	.LASF805:
 17482 254a 41435155 		.ascii	"ACQUIRER_REV\000"
 17482      49524552 
 17482      5F524556 
 17482      00
 17483              	.LASF679:
ARM GAS  C:\Users\AHMEDH~1\AppData\Local\Temp\cclxJjJK.s 			page 373


 17484 2557 625F6368 		.ascii	"b_checkin_sec_conn_time\000"
 17484      65636B69 
 17484      6E5F7365 
 17484      635F636F 
 17484      6E6E5F74 
 17485              	.LASF922:
 17486 256f 624D6F64 		.ascii	"bMode\000"
 17486      6500
 17487              	.LASF579:
 17488 2575 41504D5F 		.ascii	"APM_SENDRCVD\000"
 17488      53454E44 
 17488      52435644 
 17488      00
 17489              	.LASF798:
 17490 2582 775F7273 		.ascii	"w_rspcode\000"
 17490      70636F64 
 17490      6500
 17491              	.LASF817:
 17492 258c 735F766F 		.ascii	"s_void_refund\000"
 17492      69645F72 
 17492      6566756E 
 17492      6400
 17493              	.LASF992:
 17494 259a 4B497466 		.ascii	"KItfHostTotResp\000"
 17494      486F7374 
 17494      546F7452 
 17494      65737000 
 17495              	.LASF864:
 17496 25aa 41637469 		.ascii	"Actioncode\000"
 17496      6F6E636F 
 17496      646500
 17497              	.LASF379:
 17498 25b5 4F535F46 		.ascii	"OS_FN_MIF_LOAD_KEY\000"
 17498      4E5F4D49 
 17498      465F4C4F 
 17498      41445F4B 
 17498      455900
 17499              	.LASF52:
 17500 25c8 4F535F46 		.ascii	"OS_FN_DISP_ICON_COLOR\000"
 17500      4E5F4449 
 17500      53505F49 
 17500      434F4E5F 
 17500      434F4C4F 
 17501              	.LASF568:
 17502 25de 41504D5F 		.ascii	"APM_GETHWHANDLE\000"
 17502      47455448 
 17502      5748414E 
 17502      444C4500 
 17503              	.LASF699:
 17504 25ee 625F6465 		.ascii	"b_decimal_pos\000"
 17504      63696D61 
 17504      6C5F706F 
 17504      7300
 17505              	.LASF775:
 17506 25fc 73625F6C 		.ascii	"sb_label\000"
 17506      6162656C 
 17506      00
ARM GAS  C:\Users\AHMEDH~1\AppData\Local\Temp\cclxJjJK.s 			page 374


 17507              	.LASF997:
 17508 2605 7061636B 		.ascii	"packFullEmvData\000"
 17508      46756C6C 
 17508      456D7644 
 17508      61746100 
 17509              	.LASF995:
 17510 2615 49666163 		.ascii	"IfaceRx\000"
 17510      65527800 
 17511              	.LASF249:
 17512 261d 4F535F46 		.ascii	"OS_FN_USBSER_STATUS\000"
 17512      4E5F5553 
 17512      42534552 
 17512      5F535441 
 17512      54555300 
 17513              	.LASF255:
 17514 2631 4F535F46 		.ascii	"OS_FN_FL_PGM\000"
 17514      4E5F464C 
 17514      5F50474D 
 17514      00
 17515              	.LASF30:
 17516 263e 4F535F46 		.ascii	"OS_FN_TIMER_GET\000"
 17516      4E5F5449 
 17516      4D45525F 
 17516      47455400 
 17517              	.LASF1004:
 17518 264e 54446573 		.ascii	"TDes2\000"
 17518      3200
 17519              	.LASF620:
 17520 2654 41504D5F 		.ascii	"APM_MERCHFUNC\000"
 17520      4D455243 
 17520      4846554E 
 17520      4300
 17521              	.LASF879:
 17522 2662 564F4944 		.ascii	"VOID\000"
 17522      00
 17523              	.LASF863:
 17524 2667 74657874 		.ascii	"text\000"
 17524      00
 17525              	.LASF886:
 17526 266c 52454655 		.ascii	"REFUND_ICC\000"
 17526      4E445F49 
 17526      434300
 17527              	.LASF901:
 17528 2677 53334B45 		.ascii	"S3KEY\000"
 17528      5900
 17529              	.LASF1035:
 17530 267d 7379735F 		.ascii	"sys_func0\000"
 17530      66756E63 
 17530      3000
 17531              	.LASF996:
 17532 2687 7379735F 		.ascii	"sys_func1\000"
 17532      66756E63 
 17532      3100
 17533              	.LASF88:
 17534 2691 4F535F46 		.ascii	"OS_FN_COM_DES\000"
 17534      4E5F434F 
 17534      4D5F4445 
ARM GAS  C:\Users\AHMEDH~1\AppData\Local\Temp\cclxJjJK.s 			page 375


 17534      5300
 17535              	.LASF171:
 17536 269f 4F535F46 		.ascii	"OS_FN_FILE_RENAME\000"
 17536      4E5F4649 
 17536      4C455F52 
 17536      454E414D 
 17536      4500
 17537              	.LASF335:
 17538 26b1 4F535F46 		.ascii	"OS_FN_USBHOST_UNLINK_BUFFER\000"
 17538      4E5F5553 
 17538      42484F53 
 17538      545F554E 
 17538      4C494E4B 
 17539              	.LASF61:
 17540 26cd 4F535F46 		.ascii	"OS_FN_COM1_READ\000"
 17540      4E5F434F 
 17540      4D315F52 
 17540      45414400 
 17541              	.LASF1037:
 17542 26dd 6765745F 		.ascii	"get_distance\000"
 17542      64697374 
 17542      616E6365 
 17542      00
 17543              	.LASF716:
 17544 26ea 43415244 		.ascii	"CARD_TBL\000"
 17544      5F54424C 
 17544      00
 17545              	.LASF972:
 17546 26f3 49666163 		.ascii	"IfaceTx\000"
 17546      65547800 
 17547              	.LASF384:
 17548 26fb 4F535F46 		.ascii	"OS_FN_MIF_INC\000"
 17548      4E5F4D49 
 17548      465F494E 
 17548      4300
 17549              	.LASF471:
 17550 2709 4F535F46 		.ascii	"OS_FN_WIFI_SOCKET_GET_STATUS\000"
 17550      4E5F5749 
 17550      46495F53 
 17550      4F434B45 
 17550      545F4745 
 17551              	.LASF295:
 17552 2726 4F535F46 		.ascii	"OS_FN_GPRS_AT_RESP\000"
 17552      4E5F4750 
 17552      52535F41 
 17552      545F5245 
 17552      535000
 17553              	.LASF808:
 17554 2739 64645F62 		.ascii	"dd_base_amount\000"
 17554      6173655F 
 17554      616D6F75 
 17554      6E7400
 17555              	.LASF264:
 17556 2748 4F535F46 		.ascii	"OS_FN_FL_CREAD_RAND\000"
 17556      4E5F464C 
 17556      5F435245 
 17556      41445F52 
ARM GAS  C:\Users\AHMEDH~1\AppData\Local\Temp\cclxJjJK.s 			page 376


 17556      414E4400 
 17557              	.LASF132:
 17558 275c 4F535F46 		.ascii	"OS_FN_KEY_SAVE_TMK_CBC\000"
 17558      4E5F4B45 
 17558      595F5341 
 17558      56455F54 
 17558      4D4B5F43 
 17559              	.LASF160:
 17560 2773 4F535F46 		.ascii	"OS_FN_APP_GET_VIRGIN\000"
 17560      4E5F4150 
 17560      505F4745 
 17560      545F5649 
 17560      5247494E 
 17561              	.LASF915:
 17562 2788 7052436F 		.ascii	"pRCode\000"
 17562      646500
 17563              	.LASF424:
 17564 278f 4F535F46 		.ascii	"OS_FN_GPS_ENABLED\000"
 17564      4E5F4750 
 17564      535F454E 
 17564      41424C45 
 17564      4400
 17565              	.LASF182:
 17566 27a1 4F535F46 		.ascii	"OS_FN_FILE_DSEARCH\000"
 17566      4E5F4649 
 17566      4C455F44 
 17566      53454152 
 17566      434800
 17567              	.LASF419:
 17568 27b4 4F535F46 		.ascii	"OS_FN_GPS_GET_INFO\000"
 17568      4E5F4750 
 17568      535F4745 
 17568      545F494E 
 17568      464F00
 17569              	.LASF767:
 17570 27c7 4543525F 		.ascii	"ECR_STOP\000"
 17570      53544F50 
 17570      00
 17571              	.LASF732:
 17572 27d0 73625F70 		.ascii	"sb_pri_trans_tel\000"
 17572      72695F74 
 17572      72616E73 
 17572      5F74656C 
 17572      00
 17573              	.LASF1011:
 17574 27e1 666E6462 		.ascii	"fndb\000"
 17574      00
 17575              	.LASF3:
 17576 27e6 73686F72 		.ascii	"short int\000"
 17576      7420696E 
 17576      7400
 17577              	.LASF637:
 17578 27f0 625F6469 		.ascii	"b_dial_mode\000"
 17578      616C5F6D 
 17578      6F646500 
 17579              	.LASF824:
 17580 27fc 735F6361 		.ascii	"s_card_tbl\000"
ARM GAS  C:\Users\AHMEDH~1\AppData\Local\Temp\cclxJjJK.s 			page 377


 17580      72645F74 
 17580      626C00
 17581              	.LASF197:
 17582 2807 4F535F46 		.ascii	"OS_FN_FILE_RMDIR\000"
 17582      4E5F4649 
 17582      4C455F52 
 17582      4D444952 
 17582      00
 17583              	.LASF81:
 17584 2818 4F535F46 		.ascii	"OS_FN_COM3_STATUS\000"
 17584      4E5F434F 
 17584      4D335F53 
 17584      54415455 
 17584      5300
 17585              	.LASF582:
 17586 282a 41504D5F 		.ascii	"APM_GETTERMDATA\000"
 17586      47455454 
 17586      45524D44 
 17586      41544100 
 17587              	.LASF667:
 17588 283a 73625F6C 		.ascii	"sb_lxapp_size\000"
 17588      78617070 
 17588      5F73697A 
 17588      6500
 17589              	.LASF900:
 17590 2848 62537461 		.ascii	"bStatus\000"
 17590      74757300 
 17591              	.LASF54:
 17592 2850 4F535F46 		.ascii	"OS_FN_DISP_ICON_TEXTC\000"
 17592      4E5F4449 
 17592      53505F49 
 17592      434F4E5F 
 17592      54455854 
 17593              	.LASF546:
 17594 2866 534D535F 		.ascii	"SMS_COUNT_MW\000"
 17594      434F554E 
 17594      545F4D57 
 17594      00
 17595              	.LASF745:
 17596 2873 73625F6E 		.ascii	"sb_nii\000"
 17596      696900
 17597              	.LASF1042:
 17598 287a 7372632F 		.ascii	"src/iface.c\000"
 17598      69666163 
 17598      652E6300 
 17599              	.LASF68:
 17600 2886 4F535F46 		.ascii	"OS_FN_COM2_RXRDY\000"
 17600      4E5F434F 
 17600      4D325F52 
 17600      58524459 
 17600      00
 17601              	.LASF289:
 17602 2897 4F535F46 		.ascii	"OS_FN_ADC_CH_ENABLE\000"
 17602      4E5F4144 
 17602      435F4348 
 17602      5F454E41 
 17602      424C4500 
ARM GAS  C:\Users\AHMEDH~1\AppData\Local\Temp\cclxJjJK.s 			page 378


 17603              	.LASF234:
 17604 28ab 4F535F46 		.ascii	"OS_FN_MSR_OPEN\000"
 17604      4E5F4D53 
 17604      525F4F50 
 17604      454E00
 17605              	.LASF519:
 17606 28ba 46464C55 		.ascii	"FFLUSHMW\000"
 17606      53484D57 
 17606      00
 17607              	.LASF48:
 17608 28c3 4F535F46 		.ascii	"OS_FN_DISP_TEXTC\000"
 17608      4E5F4449 
 17608      53505F54 
 17608      45585443 
 17608      00
 17609              	.LASF755:
 17610 28d4 625F7374 		.ascii	"b_status\000"
 17610      61747573 
 17610      00
 17611              	.LASF206:
 17612 28dd 4F535F46 		.ascii	"OS_FN_SAM_CLOSE\000"
 17612      4E5F5341 
 17612      4D5F434C 
 17612      4F534500 
 17613              	.LASF381:
 17614 28ed 4F535F46 		.ascii	"OS_FN_MIF_AUTH2\000"
 17614      4E5F4D49 
 17614      465F4155 
 17614      54483200 
 17615              	.LASF1040:
 17616 28fd 46726565 		.ascii	"FreeRunMark\000"
 17616      52756E4D 
 17616      61726B00 
 17617              	.LASF769:
 17618 2909 4543525F 		.ascii	"ECR_RCVD\000"
 17618      52435644 
 17618      00
 17619              	.LASF722:
 17620 2912 49535355 		.ascii	"ISSUER_TBL\000"
 17620      45525F54 
 17620      424C00
 17621              	.LASF85:
 17622 291d 4F535F46 		.ascii	"OS_FN_DES\000"
 17622      4E5F4445 
 17622      5300
 17623              	.LASF843:
 17624 2927 735F4354 		.ascii	"s_CTLIn\000"
 17624      4C496E00 
 17625              	.LASF485:
 17626 292f 4F535F46 		.ascii	"OS_FN_TAMPER_UNLOCK\000"
 17626      4E5F5441 
 17626      4D504552 
 17626      5F554E4C 
 17626      4F434B00 
 17627              	.LASF227:
 17628 2943 4F535F46 		.ascii	"OS_FN_LAN_OPEN\000"
 17628      4E5F4C41 
ARM GAS  C:\Users\AHMEDH~1\AppData\Local\Temp\cclxJjJK.s 			page 379


 17628      4E5F4F50 
 17628      454E00
 17629              	.LASF746:
 17630 2952 73625F61 		.ascii	"sb_acceptor_id\000"
 17630      63636570 
 17630      746F725F 
 17630      696400
 17631              	.LASF772:
 17632 2961 4543525F 		.ascii	"ECR_TXRDY\000"
 17632      54585244 
 17632      5900
 17633              	.LASF34:
 17634 296b 4F535F46 		.ascii	"OS_FN_BUZ_STATE\000"
 17634      4E5F4255 
 17634      5A5F5354 
 17634      41544500 
 17635              	.LASF122:
 17636 297b 4F535F46 		.ascii	"OS_FN_KEY_DES\000"
 17636      4E5F4B45 
 17636      595F4445 
 17636      5300
 17637              	.LASF550:
 17638 2989 46465452 		.ascii	"FFTRUNCATEMW\000"
 17638      554E4341 
 17638      54454D57 
 17638      00
 17639              	.LASF105:
 17640 2996 4F535F46 		.ascii	"OS_FN_RC4_ENCRYPT\000"
 17640      4E5F5243 
 17640      345F454E 
 17640      43525950 
 17640      5400
 17641              	.LASF729:
 17642 29a8 41435155 		.ascii	"ACQUIRER_TBL\000"
 17642      49524552 
 17642      5F54424C 
 17642      00
 17643              	.LASF308:
 17644 29b5 4F535F46 		.ascii	"OS_FN_TPAD_CLOSE\000"
 17644      4E5F5450 
 17644      41445F43 
 17644      4C4F5345 
 17644      00
 17645              	.LASF298:
 17646 29c6 4F535F46 		.ascii	"OS_FN_GPRS_RESET\000"
 17646      4E5F4750 
 17646      52535F52 
 17646      45534554 
 17646      00
 17647              	.LASF488:
 17648 29d7 4F535F46 		.ascii	"OS_FN_GPS_GET_DETAIL_INFO\000"
 17648      4E5F4750 
 17648      535F4745 
 17648      545F4445 
 17648      5441494C 
 17649              	.LASF1022:
 17650 29f1 436C6561 		.ascii	"ClearResponse\000"
ARM GAS  C:\Users\AHMEDH~1\AppData\Local\Temp\cclxJjJK.s 			page 380


 17650      72526573 
 17650      706F6E73 
 17650      6500
 17651              	.LASF151:
 17652 29ff 4F535F46 		.ascii	"OS_FN_LED_CLOSE\000"
 17652      4E5F4C45 
 17652      445F434C 
 17652      4F534500 
 17653              	.LASF873:
 17654 2a0f 4F4E4C5F 		.ascii	"ONL_REFUND_SW\000"
 17654      52454655 
 17654      4E445F53 
 17654      5700
 17655              	.LASF108:
 17656 2a1d 4F535F46 		.ascii	"OS_FN_SM2_SET_CURVE\000"
 17656      4E5F534D 
 17656      325F5345 
 17656      545F4355 
 17656      52564500 
 17657              	.LASF363:
 17658 2a31 4F535F46 		.ascii	"OS_FN_USBKBD_OPEN\000"
 17658      4E5F5553 
 17658      424B4244 
 17658      5F4F5045 
 17658      4E00
 17659              	.LASF906:
 17660 2a43 73465333 		.ascii	"sFS3PData\000"
 17660      50446174 
 17660      6100
 17661              	.LASF718:
 17662 2a4d 73625F70 		.ascii	"sb_pan_range_high\000"
 17662      616E5F72 
 17662      616E6765 
 17662      5F686967 
 17662      6800
 17663              	.LASF5:
 17664 2a5f 6C6F6E67 		.ascii	"long int\000"
 17664      20696E74 
 17664      00
 17665              	.LASF159:
 17666 2a68 4F535F46 		.ascii	"OS_FN_APP_SEARCH_NAME\000"
 17666      4E5F4150 
 17666      505F5345 
 17666      41524348 
 17666      5F4E414D 
 17667              	.LASF990:
 17668 2a7e 4B497466 		.ascii	"KItfLastTrace\000"
 17668      4C617374 
 17668      54726163 
 17668      6500
 17669              	.LASF307:
 17670 2a8c 4F535F46 		.ascii	"OS_FN_TPAD_OPEN\000"
 17670      4E5F5450 
 17670      41445F4F 
 17670      50454E00 
 17671              	.LASF787:
 17672 2a9c 73625F70 		.ascii	"sb_pan\000"
ARM GAS  C:\Users\AHMEDH~1\AppData\Local\Temp\cclxJjJK.s 			page 381


 17672      616E00
 17673              	.LASF351:
 17674 2aa3 4F535F46 		.ascii	"OS_FN_DEVICE_MOUNT\000"
 17674      4E5F4445 
 17674      56494345 
 17674      5F4D4F55 
 17674      4E5400
 17675              	.LASF602:
 17676 2ab6 41504D5F 		.ascii	"APM_SETTRACE\000"
 17676      53455454 
 17676      52414345 
 17676      00
 17677              	.LASF671:
 17678 2ac3 73625F70 		.ascii	"sb_ppp_pwd\000"
 17678      70705F70 
 17678      776400
 17679              	.LASF616:
 17680 2ace 41504D5F 		.ascii	"APM_TRACE_IN_REV\000"
 17680      54524143 
 17680      455F494E 
 17680      5F524556 
 17680      00
 17681              	.LASF690:
 17682 2adf 73625F64 		.ascii	"sb_date_time\000"
 17682      6174655F 
 17682      74696D65 
 17682      00
 17683              	.LASF680:
 17684 2aec 625F6368 		.ascii	"b_checkin_sec_redial\000"
 17684      65636B69 
 17684      6E5F7365 
 17684      635F7265 
 17684      6469616C 
 17685              	.LASF977:
 17686 2b01 6773534B 		.ascii	"gsSKey\000"
 17686      657900
 17687              	.LASF145:
 17688 2b08 4F535F46 		.ascii	"OS_FN_THREAD_RETURN\000"
 17688      4E5F5448 
 17688      52454144 
 17688      5F524554 
 17688      55524E00 
 17689              	.LASF216:
 17690 2b1c 4F535F46 		.ascii	"OS_FN_MMC_SIZE\000"
 17690      4E5F4D4D 
 17690      435F5349 
 17690      5A4500
 17691              	.LASF695:
 17692 2b2b 73625F6E 		.ascii	"sb_name_loc\000"
 17692      616D655F 
 17692      6C6F6300 
 17693              	.LASF436:
 17694 2b37 4F535F46 		.ascii	"OS_FN_OFF\000"
 17694      4E5F4F46 
 17694      4600
 17695              	.LASF739:
 17696 2b41 625F7072 		.ascii	"b_pri_settle_conn_time\000"
ARM GAS  C:\Users\AHMEDH~1\AppData\Local\Temp\cclxJjJK.s 			page 382


 17696      695F7365 
 17696      74746C65 
 17696      5F636F6E 
 17696      6E5F7469 
 17697              	.LASF524:
 17698 2b58 4445534D 		.ascii	"DESMW\000"
 17698      5700
 17699              	.LASF403:
 17700 2b5e 4F535F46 		.ascii	"OS_FN_WIFI_SEND_COMMAND\000"
 17700      4E5F5749 
 17700      46495F53 
 17700      454E445F 
 17700      434F4D4D 
 17701              	.LASF53:
 17702 2b76 4F535F46 		.ascii	"OS_FN_DISP_ICON_PUTC\000"
 17702      4E5F4449 
 17702      53505F49 
 17702      434F4E5F 
 17702      50555443 
 17703              	.LASF193:
 17704 2b8b 4F535F46 		.ascii	"OS_FN_FILE_FTRUNCATE\000"
 17704      4E5F4649 
 17704      4C455F46 
 17704      5452554E 
 17704      43415445 
 17705              	.LASF386:
 17706 2ba0 4F535F46 		.ascii	"OS_FN_MIF_RESTORE\000"
 17706      4E5F4D49 
 17706      465F5245 
 17706      53544F52 
 17706      4500
 17707              	.LASF621:
 17708 2bb2 41504D5F 		.ascii	"APM_PWRSLEEP\000"
 17708      50575253 
 17708      4C454550 
 17708      00
 17709              	.LASF47:
 17710 2bbf 4F535F46 		.ascii	"OS_FN_DISP_GET_LCD_BUFFER\000"
 17710      4E5F4449 
 17710      53505F47 
 17710      45545F4C 
 17710      43445F42 
 17711              	.LASF467:
 17712 2bd9 4F535F46 		.ascii	"OS_FN_WIFI_SOCKET_GET_STATE\000"
 17712      4E5F5749 
 17712      46495F53 
 17712      4F434B45 
 17712      545F4745 
 17713              	.LASF111:
 17714 2bf5 4F535F46 		.ascii	"OS_FN_SM2_VERIFY_SIGNATURE\000"
 17714      4E5F534D 
 17714      325F5645 
 17714      52494659 
 17714      5F534947 
 17715              	.LASF262:
 17716 2c10 4F535F46 		.ascii	"OS_FN_FL_COPYB_PGM\000"
 17716      4E5F464C 
ARM GAS  C:\Users\AHMEDH~1\AppData\Local\Temp\cclxJjJK.s 			page 383


 17716      5F434F50 
 17716      59425F50 
 17716      474D00
 17717              	.LASF9:
 17718 2c23 73697A65 		.ascii	"sizetype\000"
 17718      74797065 
 17718      00
 17719              	.LASF757:
 17720 2c2c 44455343 		.ascii	"DESC_TBL\000"
 17720      5F54424C 
 17720      00
 17721              	.LASF297:
 17722 2c35 4F535F46 		.ascii	"OS_FN_GPRS_READ\000"
 17722      4E5F4750 
 17722      52535F52 
 17722      45414400 
 17723              	.LASF353:
 17724 2c45 4F535F46 		.ascii	"OS_FN_INTERRUPT_REGISTER\000"
 17724      4E5F494E 
 17724      54455252 
 17724      5550545F 
 17724      52454749 
 17725              	.LASF408:
 17726 2c5e 4F535F46 		.ascii	"OS_FN_NFC_OPEN_FELICA\000"
 17726      4E5F4E46 
 17726      435F4F50 
 17726      454E5F46 
 17726      454C4943 
 17727              	.LASF306:
 17728 2c74 4F535F46 		.ascii	"OS_FN_GPRS_SMS_READ\000"
 17728      4E5F4750 
 17728      52535F53 
 17728      4D535F52 
 17728      45414400 
 17729              	.LASF228:
 17730 2c88 4F535F46 		.ascii	"OS_FN_LAN_CLOSE\000"
 17730      4E5F4C41 
 17730      4E5F434C 
 17730      4F534500 
 17731              	.LASF445:
 17732 2c98 4F535F46 		.ascii	"OS_FN_DTIMER_LATCH_START\000"
 17732      4E5F4454 
 17732      494D4552 
 17732      5F4C4154 
 17732      43485F53 
 17733              	.LASF253:
 17734 2cb1 4F535F46 		.ascii	"OS_FN_FL_PAGE_READ\000"
 17734      4E5F464C 
 17734      5F504147 
 17734      455F5245 
 17734      414400
 17735              	.LASF656:
 17736 2cc4 73625F65 		.ascii	"sb_emvapp_chksum\000"
 17736      6D766170 
 17736      705F6368 
 17736      6B73756D 
 17736      00
ARM GAS  C:\Users\AHMEDH~1\AppData\Local\Temp\cclxJjJK.s 			page 384


 17737              	.LASF763:
 17738 2cd5 45435244 		.ascii	"ECRDATA\000"
 17738      41544100 
 17739              	.LASF754:
 17740 2cdd 625F7373 		.ascii	"b_ssl_key_idx\000"
 17740      6C5F6B65 
 17740      795F6964 
 17740      7800
 17741              	.LASF169:
 17742 2ceb 4F535F46 		.ascii	"OS_FN_FILE_CLOSE\000"
 17742      4E5F4649 
 17742      4C455F43 
 17742      4C4F5345 
 17742      00
 17743              	.LASF703:
 17744 2cfc 625F6C6F 		.ascii	"b_local_option\000"
 17744      63616C5F 
 17744      6F707469 
 17744      6F6E00
 17745              	.LASF696:
 17746 2d0b 73625F64 		.ascii	"sb_dflt_name\000"
 17746      666C745F 
 17746      6E616D65 
 17746      00
 17747              	.LASF143:
 17748 2d18 4F535F46 		.ascii	"OS_FN_THREAD_PUSH\000"
 17748      4E5F5448 
 17748      52454144 
 17748      5F505553 
 17748      4800
 17749              	.LASF1041:
 17750 2d2a 474E5520 		.ascii	"GNU C 4.9.3 20141119 (release) [ARM/embedded-4_9-br"
 17750      4320342E 
 17750      392E3320 
 17750      32303134 
 17750      31313139 
 17751 2d5d 616E6368 		.ascii	"anch revision 218278] -mthumb -mcpu=cortex-a5 -mthu"
 17751      20726576 
 17751      6973696F 
 17751      6E203231 
 17751      38323738 
 17752 2d90 6D622D69 		.ascii	"mb-interwork -mstructure-size-boundary=32 -mno-unal"
 17752      6E746572 
 17752      776F726B 
 17752      202D6D73 
 17752      74727563 
 17753 2dc3 69676E65 		.ascii	"igned-access -g -Os -ffunction-sections -fsigned-ch"
 17753      642D6163 
 17753      63657373 
 17753      202D6720 
 17753      2D4F7320 
 17754 2df6 617200   		.ascii	"ar\000"
 17755              	.LASF457:
 17756 2df9 4F535F46 		.ascii	"OS_FN_ECC_SCALAR_MULTIPLY\000"
 17756      4E5F4543 
 17756      435F5343 
 17756      414C4152 
ARM GAS  C:\Users\AHMEDH~1\AppData\Local\Temp\cclxJjJK.s 			page 385


 17756      5F4D554C 
 17757              	.LASF390:
 17758 2e13 4F535F46 		.ascii	"OS_FN_MIF_SENDCMD\000"
 17758      4E5F4D49 
 17758      465F5345 
 17758      4E44434D 
 17758      4400
 17759              	.LASF821:
 17760 2e25 735F6465 		.ascii	"s_desc_tbl\000"
 17760      73635F74 
 17760      626C00
 17761              	.LASF476:
 17762 2e30 4F535F46 		.ascii	"OS_FN_IMG_SENSOR_CLOSE\000"
 17762      4E5F494D 
 17762      475F5345 
 17762      4E534F52 
 17762      5F434C4F 
 17763              	.LASF235:
 17764 2e47 4F535F46 		.ascii	"OS_FN_MSR_CLOSE\000"
 17764      4E5F4D53 
 17764      525F434C 
 17764      4F534500 
 17765              	.LASF423:
 17766 2e57 4F535F46 		.ascii	"OS_FN_GPS_RESET\000"
 17766      4E5F4750 
 17766      535F5245 
 17766      53455400 
 17767              	.LASF263:
 17768 2e67 4F535F46 		.ascii	"OS_FN_FL_COPYB_END\000"
 17768      4E5F464C 
 17768      5F434F50 
 17768      59425F45 
 17768      4E4400
 17769              	.LASF165:
 17770 2e7a 4F535F46 		.ascii	"OS_FN_FREE\000"
 17770      4E5F4652 
 17770      454500
 17771              	.LASF818:
 17772 2e85 735F414C 		.ascii	"s_ALL\000"
 17772      4C00
 17773              	.LASF839:
 17774 2e8b 735F5278 		.ascii	"s_RxMsg\000"
 17774      4D736700 
 17775              	.LASF593:
 17776 2e93 41504D5F 		.ascii	"APM_GETLOGOTBL\000"
 17776      4745544C 
 17776      4F474F54 
 17776      424C00
 17777              	.LASF469:
 17778 2ea2 4F535F46 		.ascii	"OS_FN_WIFI_SOCKET_SEND_UDP\000"
 17778      4E5F5749 
 17778      46495F53 
 17778      4F434B45 
 17778      545F5345 
 17779              	.LASF367:
 17780 2ebd 4F535F46 		.ascii	"OS_FN_TAMPER_ON\000"
 17780      4E5F5441 
ARM GAS  C:\Users\AHMEDH~1\AppData\Local\Temp\cclxJjJK.s 			page 386


 17780      4D504552 
 17780      5F4F4E00 
 17781              	.LASF600:
 17782 2ecd 41504D5F 		.ascii	"APM_SELACQUIRER\000"
 17782      53454C41 
 17782      43515549 
 17782      52455200 
 17783              	.LASF655:
 17784 2edd 73625F65 		.ascii	"sb_edc_size\000"
 17784      64635F73 
 17784      697A6500 
 17785              	.LASF212:
 17786 2ee9 4F535F46 		.ascii	"OS_FN_SAM_CHANGE\000"
 17786      4E5F5341 
 17786      4D5F4348 
 17786      414E4745 
 17786      00
 17787              	.LASF801:
 17788 2efa 775F686F 		.ascii	"w_host_idx\000"
 17788      73745F69 
 17788      647800
 17789              	.LASF271:
 17790 2f05 4F535F46 		.ascii	"OS_FN_MDM_DISC\000"
 17790      4E5F4D44 
 17790      4D5F4449 
 17790      534300
 17791              	.LASF535:
 17792 2f14 44495350 		.ascii	"DISP_GOTOMW\000"
 17792      5F474F54 
 17792      4F4D5700 
 17793              	.LASF522:
 17794 2f20 4B424453 		.ascii	"KBDSCODEMW\000"
 17794      434F4445 
 17794      4D5700
 17795              	.LASF969:
 17796 2f2b 70446174 		.ascii	"pData\000"
 17796      6100
 17797              	.LASF59:
 17798 2f31 4F535F46 		.ascii	"OS_FN_COM1_RXRDY\000"
 17798      4E5F434F 
 17798      4D315F52 
 17798      58524459 
 17798      00
 17799              	.LASF974:
 17800 2f42 4B496661 		.ascii	"KIfaceFile\000"
 17800      63654669 
 17800      6C6500
 17801              	.LASF529:
 17802 2f4d 5343484E 		.ascii	"SCHNLGETPINMW\000"
 17802      4C474554 
 17802      50494E4D 
 17802      5700
 17803              	.LASF1018:
 17804 2f5b 55476574 		.ascii	"UGet\000"
 17804      00
 17805              	.LASF238:
 17806 2f60 4F535F46 		.ascii	"OS_FN_MSR_READ\000"
ARM GAS  C:\Users\AHMEDH~1\AppData\Local\Temp\cclxJjJK.s 			page 387


 17806      4E5F4D53 
 17806      525F5245 
 17806      414400
 17807              	.LASF638:
 17808 2f6f 73625F70 		.ascii	"sb_pabx\000"
 17808      61627800 
 17809              	.LASF516:
 17810 2f77 46524541 		.ascii	"FREADMW\000"
 17810      444D5700 
 17811              	.LASF859:
 17812 2f7f 625F6F72 		.ascii	"b_org_trans\000"
 17812      675F7472 
 17812      616E7300 
 17813              	.LASF687:
 17814 2f8b 625F696E 		.ascii	"b_init_control\000"
 17814      69745F63 
 17814      6F6E7472 
 17814      6F6C00
 17815              	.LASF387:
 17816 2f9a 4F535F46 		.ascii	"OS_FN_MIF_TRANSFER\000"
 17816      4E5F4D49 
 17816      465F5452 
 17816      414E5346 
 17816      455200
 17817              	.LASF759:
 17818 2fad 73625F68 		.ascii	"sb_host_tx_code\000"
 17818      6F73745F 
 17818      74785F63 
 17818      6F646500 
 17819              	.LASF586:
 17820 2fbd 41504D5F 		.ascii	"APM_GETISSUERCOUNT\000"
 17820      47455449 
 17820      53535545 
 17820      52434F55 
 17820      4E5400
 17821              	.LASF613:
 17822 2fd0 41504D5F 		.ascii	"APM_SAVE_BAT_REC\000"
 17822      53415645 
 17822      5F424154 
 17822      5F524543 
 17822      00
 17823              	.LASF498:
 17824 2fe1 4D575F54 		.ascii	"MW_TRK2BUF\000"
 17824      524B3242 
 17824      554600
 17825              	.LASF343:
 17826 2fec 4F535F46 		.ascii	"OS_FN_DEVICE_ALLOC\000"
 17826      4E5F4445 
 17826      56494345 
 17826      5F414C4C 
 17826      4F4300
 17827              	.LASF148:
 17828 2fff 4F535F46 		.ascii	"OS_FN_BUFMAN_REALLOC\000"
 17828      4E5F4255 
 17828      464D414E 
 17828      5F524541 
 17828      4C4C4F43 
ARM GAS  C:\Users\AHMEDH~1\AppData\Local\Temp\cclxJjJK.s 			page 388


 17829              	.LASF413:
 17830 3014 4F535F46 		.ascii	"OS_FN_NFC_INFO_GET\000"
 17830      4E5F4E46 
 17830      435F494E 
 17830      464F5F47 
 17830      455400
 17831              	.LASF902:
 17832 3027 734D726D 		.ascii	"sMrmk\000"
 17832      6B00
 17833              	.LASF71:
 17834 302d 4F535F46 		.ascii	"OS_FN_COM2_SEND\000"
 17834      4E5F434F 
 17834      4D325F53 
 17834      454E4400 
 17835              	.LASF566:
 17836 303d 70624C6F 		.ascii	"pbLoc\000"
 17836      6300
 17837              	.LASF563:
 17838 3043 73494F5F 		.ascii	"sIO_t\000"
 17838      7400
 17839              	.LASF317:
 17840 3049 4F535F46 		.ascii	"OS_FN_CODEC_PLAY\000"
 17840      4E5F434F 
 17840      4445435F 
 17840      504C4159 
 17840      00
 17841              	.LASF231:
 17842 305a 4F535F46 		.ascii	"OS_FN_LAN_READ\000"
 17842      4E5F4C41 
 17842      4E5F5245 
 17842      414400
 17843              	.LASF370:
 17844 3069 4F535F46 		.ascii	"OS_FN_MIF_OPEN\000"
 17844      4E5F4D49 
 17844      465F4F50 
 17844      454E00
 17845              	.LASF130:
 17846 3078 4F535F46 		.ascii	"OS_FN_KEY_SAVE_NC\000"
 17846      4E5F4B45 
 17846      595F5341 
 17846      56455F4E 
 17846      4300
 17847              	.LASF474:
 17848 308a 4F535F46 		.ascii	"OS_FN_IMG_SENSOR_GET_FRAME\000"
 17848      4E5F494D 
 17848      475F5345 
 17848      4E534F52 
 17848      5F474554 
 17849              	.LASF1010:
 17850 30a5 73706C69 		.ascii	"split\000"
 17850      7400
 17851              	.LASF350:
 17852 30ab 4F535F46 		.ascii	"OS_FN_DEVICE_OPEN\000"
 17852      4E5F4445 
 17852      56494345 
 17852      5F4F5045 
 17852      4E00
ARM GAS  C:\Users\AHMEDH~1\AppData\Local\Temp\cclxJjJK.s 			page 389


 17853              	.LASF677:
 17854 30bd 625F6368 		.ascii	"b_checkin_pri_redial\000"
 17854      65636B69 
 17854      6E5F7072 
 17854      695F7265 
 17854      6469616C 
 17855              	.LASF931:
 17856 30d2 72737050 		.ascii	"rspPackFmt\000"
 17856      61636B46 
 17856      6D7400
 17857              	.LASF178:
 17858 30dd 4F535F46 		.ascii	"OS_FN_FILE_GETC\000"
 17858      4E5F4649 
 17858      4C455F47 
 17858      45544300 
 17859              	.LASF572:
 17860 30ed 41504D5F 		.ascii	"APM_YESNO\000"
 17860      5945534E 
 17860      4F00
 17861              	.LASF795:
 17862 30f7 73625F68 		.ascii	"sb_holder_name\000"
 17862      6F6C6465 
 17862      725F6E61 
 17862      6D6500
 17863              	.LASF1:
 17864 3106 7369676E 		.ascii	"signed char\000"
 17864      65642063 
 17864      68617200 
 17865              	.LASF790:
 17866 3112 64645F61 		.ascii	"dd_amount\000"
 17866      6D6F756E 
 17866      7400
 17867              	.LASF865:
 17868 311c 5452414E 		.ascii	"TRANS_DATA\000"
 17868      535F4441 
 17868      544100
 17869              	.LASF663:
 17870 3127 73625F78 		.ascii	"sb_xapp_date\000"
 17870      6170705F 
 17870      64617465 
 17870      00
 17871              	.LASF542:
 17872 3134 42535F43 		.ascii	"BS_CALL_MW\000"
 17872      414C4C5F 
 17872      4D5700
 17873              	.LASF515:
 17874 313f 46534545 		.ascii	"FSEEKMW\000"
 17874      4B4D5700 
 17875              	.LASF366:
 17876 3147 4F535F46 		.ascii	"OS_FN_USBKBD_GETKEY\000"
 17876      4E5F5553 
 17876      424B4244 
 17876      5F474554 
 17876      4B455900 
 17877              	.LASF894:
 17878 315b 4D41585F 		.ascii	"MAX_TXN_TYPE\000"
 17878      54584E5F 
ARM GAS  C:\Users\AHMEDH~1\AppData\Local\Temp\cclxJjJK.s 			page 390


 17878      54595045 
 17878      00
 17879              	.LASF525:
 17880 3168 44455332 		.ascii	"DES2MW\000"
 17880      4D5700
 17881              	.LASF872:
 17882 316f 53414C45 		.ascii	"SALE_MANUAL\000"
 17882      5F4D414E 
 17882      55414C00 
 17883              	.LASF701:
 17884 317b 625F7365 		.ascii	"b_settle_amount_len\000"
 17884      74746C65 
 17884      5F616D6F 
 17884      756E745F 
 17884      6C656E00 
 17885              	.LASF909:
 17886 318f 54584E5F 		.ascii	"TXN_OK\000"
 17886      4F4B00
 17887              	.LASF161:
 17888 3196 4F535F46 		.ascii	"OS_FN_APP_CLR_VIRGIN\000"
 17888      4E5F4150 
 17888      505F434C 
 17888      525F5649 
 17888      5247494E 
 17889              	.LASF854:
 17890 31ab 775F6361 		.ascii	"w_card_idx\000"
 17890      72645F69 
 17890      647800
 17891              	.LASF721:
 17892 31b6 625F7061 		.ascii	"b_pan_len\000"
 17892      6E5F6C65 
 17892      6E00
 17893              	.LASF842:
 17894 31c0 735F454D 		.ascii	"s_EMVOut\000"
 17894      564F7574 
 17894      00
 17895              	.LASF1034:
 17896 31c9 4175784F 		.ascii	"AuxOpen\000"
 17896      70656E00 
 17897              	.LASF284:
 17898 31d1 4F535F46 		.ascii	"OS_FN_MCOM_SEND\000"
 17898      4E5F4D43 
 17898      4F4D5F53 
 17898      454E4400 
 17899              	.LASF267:
 17900 31e1 4F535F46 		.ascii	"OS_FN_FL_COPYBACK\000"
 17900      4E5F464C 
 17900      5F434F50 
 17900      59424143 
 17900      4B00
 17901              	.LASF254:
 17902 31f3 4F535F46 		.ascii	"OS_FN_FL_PAGE\000"
 17902      4E5F464C 
 17902      5F504147 
 17902      4500
 17903              	.LASF42:
 17904 3201 4F535F46 		.ascii	"OS_FN_DISP_GETG\000"
ARM GAS  C:\Users\AHMEDH~1\AppData\Local\Temp\cclxJjJK.s 			page 391


 17904      4E5F4449 
 17904      53505F47 
 17904      45544700 
 17905              	.LASF45:
 17906 3211 4F535F46 		.ascii	"OS_FN_DISP_GETP\000"
 17906      4E5F4449 
 17906      53505F47 
 17906      45545000 
 17907              	.LASF669:
 17908 3221 73625F66 		.ascii	"sb_ftp_pwd\000"
 17908      74705F70 
 17908      776400
 17909              	.LASF352:
 17910 322c 4F535F46 		.ascii	"OS_FN_DEVICE_UNMOUNT\000"
 17910      4E5F4445 
 17910      56494345 
 17910      5F554E4D 
 17910      4F554E54 
 17911              	.LASF809:
 17912 3241 544F5441 		.ascii	"TOTAL\000"
 17912      4C00
 17913              	.LASF852:
 17914 3247 735F7472 		.ascii	"s_trk1buf\000"
 17914      6B316275 
 17914      6600
 17915              	.LASF341:
 17916 3251 4F535F46 		.ascii	"OS_FN_DRIVER_REGISTER\000"
 17916      4E5F4452 
 17916      49564552 
 17916      5F524547 
 17916      49535445 
 17917              	.LASF740:
 17918 3267 625F7072 		.ascii	"b_pri_settle_redial\000"
 17918      695F7365 
 17918      74746C65 
 17918      5F726564 
 17918      69616C00 
 17919              	.LASF418:
 17920 327b 4F535F46 		.ascii	"OS_FN_GPS_OFF\000"
 17920      4E5F4750 
 17920      535F4F46 
 17920      4600
 17921              	.LASF480:
 17922 3289 4F535F46 		.ascii	"OS_FN_IMG_SENSOR_LED_OPEN\000"
 17922      4E5F494D 
 17922      475F5345 
 17922      4E534F52 
 17922      5F4C4544 
 17923              	.LASF547:
 17924 32a3 534D535F 		.ascii	"SMS_CLEAR_ALL_MW\000"
 17924      434C4541 
 17924      525F414C 
 17924      4C5F4D57 
 17924      00
 17925              	.LASF988:
 17926 32b4 4B497466 		.ascii	"KItfSaleResp\000"
 17926      53616C65 
ARM GAS  C:\Users\AHMEDH~1\AppData\Local\Temp\cclxJjJK.s 			page 392


 17926      52657370 
 17926      00
 17927              	.LASF1006:
 17928 32c1 55507574 		.ascii	"UPut\000"
 17928      00
 17929              	.LASF521:
 17930 32c6 47455443 		.ascii	"GETCHARMW\000"
 17930      4841524D 
 17930      5700
 17931              	.LASF13:
 17932 32d0 42595445 		.ascii	"BYTE\000"
 17932      00
 17933              	.LASF385:
 17934 32d5 4F535F46 		.ascii	"OS_FN_MIF_DEC\000"
 17934      4E5F4D49 
 17934      465F4445 
 17934      4300
 17935              	.LASF299:
 17936 32e3 4F535F46 		.ascii	"OS_FN_GPRS_CONTROL\000"
 17936      4E5F4750 
 17936      52535F43 
 17936      4F4E5452 
 17936      4F4C00
 17937              	.LASF410:
 17938 32f6 4F535F46 		.ascii	"OS_FN_NFC_CANCEL\000"
 17938      4E5F4E46 
 17938      435F4341 
 17938      4E43454C 
 17938      00
 17939              	.LASF850:
 17940 3307 494E5055 		.ascii	"INPUT_DATA\000"
 17940      545F4441 
 17940      544100
 17941              	.LASF401:
 17942 3312 4F535F46 		.ascii	"OS_FN_BARCODE_ENABLED\000"
 17942      4E5F4241 
 17942      52434F44 
 17942      455F454E 
 17942      41424C45 
 17943              	.LASF8:
 17944 3328 6C6F6E67 		.ascii	"long long unsigned int\000"
 17944      206C6F6E 
 17944      6720756E 
 17944      7369676E 
 17944      65642069 
 17945              	.LASF849:
 17946 333f 695F6563 		.ascii	"i_ecr_len\000"
 17946      725F6C65 
 17946      6E00
 17947              	.LASF807:
 17948 3349 625F7479 		.ascii	"b_type\000"
 17948      706500
 17949              	.LASF598:
 17950 3350 41504D5F 		.ascii	"APM_GETBATCH\000"
 17950      47455442 
 17950      41544348 
 17950      00
ARM GAS  C:\Users\AHMEDH~1\AppData\Local\Temp\cclxJjJK.s 			page 393


 17951              	.LASF945:
 17952 335d 734F7574 		.ascii	"sOut\000"
 17952      00
 17953              	.LASF322:
 17954 3362 4F535F46 		.ascii	"OS_FN_CLICC_POLL\000"
 17954      4E5F434C 
 17954      4943435F 
 17954      504F4C4C 
 17954      00
 17955              	.LASF272:
 17956 3373 4F535F46 		.ascii	"OS_FN_MDM_CID\000"
 17956      4E5F4D44 
 17956      4D5F4349 
 17956      4400
 17957              	.LASF930:
 17958 3381 61625252 		.ascii	"abRRand\000"
 17958      616E6400 
 17959              	.LASF538:
 17960 3389 44495350 		.ascii	"DISP_GETGMW\000"
 17960      5F474554 
 17960      474D5700 
 17961              	.LASF957:
 17962 3395 61624B65 		.ascii	"abKey\000"
 17962      7900
 17963              	.LASF422:
 17964 339b 4F535F46 		.ascii	"OS_FN_GPS_RESP\000"
 17964      4E5F4750 
 17964      535F5245 
 17964      535000
 17965              	.LASF378:
 17966 33aa 4F535F46 		.ascii	"OS_FN_MIF_SELECT\000"
 17966      4E5F4D49 
 17966      465F5345 
 17966      4C454354 
 17966      00
 17967              	.LASF380:
 17968 33bb 4F535F46 		.ascii	"OS_FN_MIF_AUTH1\000"
 17968      4E5F4D49 
 17968      465F4155 
 17968      54483100 
 17969              	.LASF56:
 17970 33cb 4F535F46 		.ascii	"OS_FN_DISP_OVERLAY\000"
 17970      4E5F4449 
 17970      53505F4F 
 17970      5645524C 
 17970      415900
 17971              	.LASF140:
 17972 33de 4F535F46 		.ascii	"OS_FN_THREAD_DELETE\000"
 17972      4E5F5448 
 17972      52454144 
 17972      5F44454C 
 17972      45544500 
 17973              	.LASF923:
 17974 33f2 70455261 		.ascii	"pERand\000"
 17974      6E6400
 17975              	.LASF368:
 17976 33f9 4F535F46 		.ascii	"OS_FN_TAMPER_GET_STATUS\000"
ARM GAS  C:\Users\AHMEDH~1\AppData\Local\Temp\cclxJjJK.s 			page 394


 17976      4E5F5441 
 17976      4D504552 
 17976      5F474554 
 17976      5F535441 
 17977              	.LASF631:
 17978 3411 625F7072 		.ascii	"b_pri_conn_time\000"
 17978      695F636F 
 17978      6E6E5F74 
 17978      696D6500 
 17979              	.LASF796:
 17980 3421 73625F65 		.ascii	"sb_ecr_ref\000"
 17980      63725F72 
 17980      656600
 17981              	.LASF198:
 17982 342c 4F535F46 		.ascii	"OS_FN_FILE_GET_LONGNAME\000"
 17982      4E5F4649 
 17982      4C455F47 
 17982      45545F4C 
 17982      4F4E474E 
 17983              	.LASF657:
 17984 3444 73625F65 		.ascii	"sb_emvapp_date\000"
 17984      6D766170 
 17984      705F6461 
 17984      746500
 17985              	.LASF730:
 17986 3453 73625F70 		.ascii	"sb_program\000"
 17986      726F6772 
 17986      616D00
 17987              	.LASF181:
 17988 345e 4F535F46 		.ascii	"OS_FN_FILE_SEARCH\000"
 17988      4E5F4649 
 17988      4C455F53 
 17988      45415243 
 17988      4800
 17989              	.LASF782:
 17990 3470 73625F6D 		.ascii	"sb_misc_content\000"
 17990      6973635F 
 17990      636F6E74 
 17990      656E7400 
 17991              	.LASF553:
 17992 3480 44415445 		.ascii	"DATETIME\000"
 17992      54494D45 
 17992      00
 17993              	.LASF569:
 17994 3489 41504D5F 		.ascii	"APM_CLRKEY\000"
 17994      434C524B 
 17994      455900
 17995              	.LASF625:
 17996 3494 5445524D 		.ascii	"TERM_DATA\000"
 17996      5F444154 
 17996      4100
 17997              	.LASF219:
 17998 349e 4F535F46 		.ascii	"OS_FN_MMC_BLK_WRITE\000"
 17998      4E5F4D4D 
 17998      435F424C 
 17998      4B5F5752 
 17998      49544500 
ARM GAS  C:\Users\AHMEDH~1\AppData\Local\Temp\cclxJjJK.s 			page 395


 17999              	.LASF704:
 18000 34b2 73625F61 		.ascii	"sb_additional_prompt\000"
 18000      64646974 
 18000      696F6E61 
 18000      6C5F7072 
 18000      6F6D7074 
 18001              	.LASF176:
 18002 34c7 4F535F46 		.ascii	"OS_FN_FILE_WRITE\000"
 18002      4E5F4649 
 18002      4C455F57 
 18002      52495445 
 18002      00
 18003              	.LASF66:
 18004 34d8 4F535F46 		.ascii	"OS_FN_COM2_OPEN\000"
 18004      4E5F434F 
 18004      4D325F4F 
 18004      50454E00 
 18005              	.LASF587:
 18006 34e8 41504D5F 		.ascii	"APM_GETISSUER\000"
 18006      47455449 
 18006      53535545 
 18006      5200
 18007              	.LASF331:
 18008 34f6 4F535F46 		.ascii	"OS_FN_CLICC_LED_SET\000"
 18008      4E5F434C 
 18008      4943435F 
 18008      4C45445F 
 18008      53455400 
 18009              	.LASF567:
 18010 350a 544C4953 		.ascii	"TLIST\000"
 18010      5400
 18011              	.LASF242:
 18012 3510 4F535F46 		.ascii	"OS_FN_LPT_PUTC\000"
 18012      4E5F4C50 
 18012      545F5055 
 18012      544300
 18013              	.LASF223:
 18014 351f 4F535F46 		.ascii	"OS_FN_SLE_OPEN\000"
 18014      4E5F534C 
 18014      455F4F50 
 18014      454E00
 18015              	.LASF987:
 18016 352e 67496661 		.ascii	"gIfaceData\000"
 18016      63654461 
 18016      746100
 18017              	.LASF628:
 18018 3539 73625F74 		.ascii	"sb_term_id\000"
 18018      65726D5F 
 18018      696400
 18019              	.LASF411:
 18020 3544 4F535F46 		.ascii	"OS_FN_NFC_CLOSE\000"
 18020      4E5F4E46 
 18020      435F434C 
 18020      4F534500 
 18021              	.LASF394:
 18022 3554 4F535F46 		.ascii	"OS_FN_BARCODE_OPEN\000"
 18022      4E5F4241 
ARM GAS  C:\Users\AHMEDH~1\AppData\Local\Temp\cclxJjJK.s 			page 396


 18022      52434F44 
 18022      455F4F50 
 18022      454E00
 18023              	.LASF142:
 18024 3567 4F535F46 		.ascii	"OS_FN_THREAD_UNLOCK\000"
 18024      4E5F5448 
 18024      52454144 
 18024      5F554E4C 
 18024      4F434B00 
 18025              	.LASF753:
 18026 357b 625F7265 		.ascii	"b_reserved1\000"
 18026      73657276 
 18026      65643100 
 18027              	.LASF382:
 18028 3587 4F535F46 		.ascii	"OS_FN_MIF_READ\000"
 18028      4E5F4D49 
 18028      465F5245 
 18028      414400
 18029              	.LASF698:
 18030 3596 625F7472 		.ascii	"b_trans_amount_len\000"
 18030      616E735F 
 18030      616D6F75 
 18030      6E745F6C 
 18030      656E00
 18031              	.LASF851:
 18032 35a9 73625F70 		.ascii	"sb_pin\000"
 18032      696E00
 18033              	.LASF400:
 18034 35b0 4F535F46 		.ascii	"OS_FN_BARCODE_STATUS\000"
 18034      4E5F4241 
 18034      52434F44 
 18034      455F5354 
 18034      41545553 
 18035              	.LASF106:
 18036 35c5 4F535F46 		.ascii	"OS_FN_MD4_PROCESS\000"
 18036      4E5F4D44 
 18036      345F5052 
 18036      4F434553 
 18036      5300
 18037              	.LASF323:
 18038 35d7 4F535F46 		.ascii	"OS_FN_CLICC_REMOVE\000"
 18038      4E5F434C 
 18038      4943435F 
 18038      52454D4F 
 18038      564500
 18039              	.LASF914:
 18040 35ea 694C656E 		.ascii	"iLen\000"
 18040      00
 18041              	.LASF118:
 18042 35ef 4F535F46 		.ascii	"OS_FN_SM4_ENCRYPT\000"
 18042      4E5F534D 
 18042      345F454E 
 18042      43525950 
 18042      5400
 18043              	.LASF10:
 18044 3601 63686172 		.ascii	"char\000"
 18044      00
ARM GAS  C:\Users\AHMEDH~1\AppData\Local\Temp\cclxJjJK.s 			page 397


 18045              	.LASF91:
 18046 3606 4F535F46 		.ascii	"OS_FN_NEW_DES2\000"
 18046      4E5F4E45 
 18046      575F4445 
 18046      533200
 18047              	.LASF512:
 18048 3615 464F5045 		.ascii	"FOPENMW\000"
 18048      4E4D5700 
 18049              	.LASF688:
 18050 361d 625F7273 		.ascii	"b_rsvd0\000"
 18050      76643000 
 18051              	.LASF689:
 18052 3625 625F7273 		.ascii	"b_rsvd1\000"
 18052      76643100 
 18053              	.LASF700:
 18054 362d 625F7273 		.ascii	"b_rsvd2\000"
 18054      76643200 
 18055              	.LASF89:
 18056 3635 4F535F46 		.ascii	"OS_FN_COM_DES2\000"
 18056      4E5F434F 
 18056      4D5F4445 
 18056      533200
 18057              	.LASF673:
 18058 3644 73625F70 		.ascii	"sb_ppp_port\000"
 18058      70705F70 
 18058      6F727400 
 18059              	.LASF773:
 18060 3650 4543525F 		.ascii	"ECR_FUNC_COUNT\000"
 18060      46554E43 
 18060      5F434F55 
 18060      4E5400
 18061              	.LASF589:
 18062 365f 41504D5F 		.ascii	"APM_GETACQTBL\000"
 18062      47455441 
 18062      43515442 
 18062      4C00
 18063              	.LASF1043:
 18064 366d 433A5C47 		.ascii	"C:\\Git\\S_MISR\\APP\\MISR\000"
 18064      69745C53 
 18064      5F4D4953 
 18064      525C4150 
 18064      505C4D49 
 18065              	.LASF964:
 18066 3684 706D5265 		.ascii	"pmReq\000"
 18066      7100
 18067              	.LASF924:
 18068 368a 72737047 		.ascii	"rspGenKeyData\000"
 18068      656E4B65 
 18068      79446174 
 18068      6100
 18069              	.LASF728:
 18070 3698 73625F66 		.ascii	"sb_floor_limit\000"
 18070      6C6F6F72 
 18070      5F6C696D 
 18070      697400
 18071              	.LASF713:
 18072 36a7 61706E63 		.ascii	"apnconfig2\000"
ARM GAS  C:\Users\AHMEDH~1\AppData\Local\Temp\cclxJjJK.s 			page 398


 18072      6F6E6669 
 18072      673200
 18073              	.LASF275:
 18074 36b2 4F535F46 		.ascii	"OS_FN_MCOM_OPEN\000"
 18074      4E5F4D43 
 18074      4F4D5F4F 
 18074      50454E00 
 18075              	.LASF629:
 18076 36c2 625F696E 		.ascii	"b_init_mode\000"
 18076      69745F6D 
 18076      6F646500 
 18077              	.LASF349:
 18078 36ce 4F535F46 		.ascii	"OS_FN_DEVICE_SEARCH_NEXT\000"
 18078      4E5F4445 
 18078      56494345 
 18078      5F534541 
 18078      5243485F 
 18079              	.LASF840:
 18080 36e7 73625F49 		.ascii	"sb_IOBuf\000"
 18080      4F427566 
 18080      00
 18081              	.LASF27:
 18082 36f0 4F535F46 		.ascii	"OS_FN_TIMER_OPEN\000"
 18082      4E5F5449 
 18082      4D45525F 
 18082      4F50454E 
 18082      00
 18083              	.LASF78:
 18084 3701 4F535F46 		.ascii	"OS_FN_COM3_TXRDY\000"
 18084      4E5F434F 
 18084      4D335F54 
 18084      58524459 
 18084      00
 18085              	.LASF427:
 18086 3712 4F535F46 		.ascii	"OS_FN_APPDL_WRITE_APP\000"
 18086      4E5F4150 
 18086      50444C5F 
 18086      57524954 
 18086      455F4150 
 18087              	.LASF251:
 18088 3728 4F535F46 		.ascii	"OS_FN_FL_INFO\000"
 18088      4E5F464C 
 18088      5F494E46 
 18088      4F00
 18089              	.LASF788:
 18090 3736 73625F65 		.ascii	"sb_exp_date\000"
 18090      78705F64 
 18090      61746500 
 18091              	.LASF362:
 18092 3742 4F535F46 		.ascii	"OS_FN_NETDEV_IOCTL\000"
 18092      4E5F4E45 
 18092      54444556 
 18092      5F494F43 
 18092      544C00
 18093              	.LASF434:
 18094 3755 4F535F46 		.ascii	"OS_FN_RDLL_APP\000"
 18094      4E5F5244 
ARM GAS  C:\Users\AHMEDH~1\AppData\Local\Temp\cclxJjJK.s 			page 399


 18094      4C4C5F41 
 18094      505000
 18095              	.LASF976:
 18096 3764 67775365 		.ascii	"gwSeqNum\000"
 18096      714E756D 
 18096      00
 18097              	.LASF789:
 18098 376d 63757272 		.ascii	"currency\000"
 18098      656E6379 
 18098      00
 18099              	.LASF357:
 18100 3776 4F535F46 		.ascii	"OS_FN_USBOTG_GET_STATE\000"
 18100      4E5F5553 
 18100      424F5447 
 18100      5F474554 
 18100      5F535441 
 18101              	.LASF1039:
 18102 378d 41757843 		.ascii	"AuxClose\000"
 18102      6C6F7365 
 18102      00
 18103              	.LASF320:
 18104 3796 4F535F46 		.ascii	"OS_FN_CODEC_STATUS\000"
 18104      4E5F434F 
 18104      4445435F 
 18104      53544154 
 18104      555300
 18105              	.LASF125:
 18106 37a9 4F535F46 		.ascii	"OS_FN_KEY_DUKPT_ENCRYPT\000"
 18106      4E5F4B45 
 18106      595F4455 
 18106      4B50545F 
 18106      454E4352 
 18107              	.LASF17:
 18108 37c1 4F535F46 		.ascii	"OS_FN_GET_VERSION\000"
 18108      4E5F4745 
 18108      545F5645 
 18108      5253494F 
 18108      4E00
 18109              	.LASF797:
 18110 37d3 73625F61 		.ascii	"sb_auth_code\000"
 18110      7574685F 
 18110      636F6465 
 18110      00
 18111              	.LASF502:
 18112 37e0 434C4F53 		.ascii	"CLOSEMW\000"
 18112      454D5700 
 18113              	.LASF907:
 18114 37e8 54584E5F 		.ascii	"TXN_CANCEL\000"
 18114      43414E43 
 18114      454C00
 18115              	.LASF278:
 18116 37f3 4F535F46 		.ascii	"OS_FN_MCOM_RXRDY\000"
 18116      4E5F4D43 
 18116      4F4D5F52 
 18116      58524459 
 18116      00
 18117              	.LASF623:
ARM GAS  C:\Users\AHMEDH~1\AppData\Local\Temp\cclxJjJK.s 			page 400


 18118 3804 434F4D4D 		.ascii	"COMMBUF\000"
 18118      42554600 
 18119              	.LASF952:
 18120 380c 6B657947 		.ascii	"keyGet\000"
 18120      657400
 18121              	.LASF494:
 18122 3813 55534246 		.ascii	"USBFPRT_GENERAL_INFO_END\000"
 18122      5052545F 
 18122      47454E45 
 18122      52414C5F 
 18122      494E464F 
 18123              	.LASF847:
 18124 382c 735F6273 		.ascii	"s_bs_date\000"
 18124      5F646174 
 18124      6500
 18125              	.LASF583:
 18126 3836 41504D5F 		.ascii	"APM_GETTERMCFG\000"
 18126      47455454 
 18126      45524D43 
 18126      464700
 18127              	.LASF834:
 18128 3845 735F705F 		.ascii	"s_p_data\000"
 18128      64617461 
 18128      00
 18129              	.LASF495:
 18130 384e 625F6C65 		.ascii	"b_len\000"
 18130      6E00
 18131              	.LASF709:
 18132 3854 61706E5F 		.ascii	"apn_password\000"
 18132      70617373 
 18132      776F7264 
 18132      00
 18133              	.LASF774:
 18134 3861 4943435F 		.ascii	"ICC_DATA\000"
 18134      44415441 
 18134      00
 18135              	.LASF531:
 18136 386a 44495350 		.ascii	"DISP_PUTCMW\000"
 18136      5F505554 
 18136      434D5700 
 18137              	.LASF431:
 18138 3876 4F535F46 		.ascii	"OS_FN_RESET\000"
 18138      4E5F5245 
 18138      53455400 
 18139              	.LASF300:
 18140 3882 4F535F46 		.ascii	"OS_FN_GPRS_GET_CID\000"
 18140      4E5F4750 
 18140      52535F47 
 18140      45545F43 
 18140      494400
 18141              	.LASF578:
 18142 3895 41504D5F 		.ascii	"APM_CONNECTOK\000"
 18142      434F4E4E 
 18142      4543544F 
 18142      4B00
 18143              	.LASF157:
 18144 38a3 4F535F46 		.ascii	"OS_FN_AUTH\000"
ARM GAS  C:\Users\AHMEDH~1\AppData\Local\Temp\cclxJjJK.s 			page 401


 18144      4E5F4155 
 18144      544800
 18145              	.LASF543:
 18146 38ae 534D535F 		.ascii	"SMS_ENB_MW\000"
 18146      454E425F 
 18146      4D5700
 18147              	.LASF648:
 18148 38b9 775F6465 		.ascii	"w_debug_status\000"
 18148      6275675F 
 18148      73746174 
 18148      757300
 18149              	.LASF373:
 18150 38c8 4F535F46 		.ascii	"OS_FN_MIF_HALT\000"
 18150      4E5F4D49 
 18150      465F4841 
 18150      4C5400
 18151              	.LASF571:
 18152 38d7 41504D5F 		.ascii	"APM_WAITKEY\000"
 18152      57414954 
 18152      4B455900 
 18153              	.LASF544:
 18154 38e3 534D535F 		.ascii	"SMS_RX_MW\000"
 18154      52585F4D 
 18154      5700
 18155              	.LASF652:
 18156 38ed 625F6563 		.ascii	"b_ecr_ssl\000"
 18156      725F7373 
 18156      6C00
 18157              	.LASF561:
 18158 38f7 774C656E 		.ascii	"wLen\000"
 18158      00
 18159              	.LASF800:
 18160 38fc 73625F72 		.ascii	"sb_rrn\000"
 18160      726E00
 18161              	.LASF867:
 18162 3903 735F7478 		.ascii	"s_tx_data\000"
 18162      5F646174 
 18162      6100
 18163              	.LASF430:
 18164 390d 4F535F46 		.ascii	"OS_FN_POWER_SLEEP\000"
 18164      4E5F504F 
 18164      5745525F 
 18164      534C4545 
 18164      5000
 18165              	.LASF210:
 18166 391f 4F535F46 		.ascii	"OS_FN_SAM_OFF\000"
 18166      4E5F5341 
 18166      4D5F4F46 
 18166      4600
 18167              	.LASF585:
 18168 392d 41504D5F 		.ascii	"APM_GETCARDTBL\000"
 18168      47455443 
 18168      41524454 
 18168      424C00
 18169              	.LASF393:
 18170 393c 4F535F46 		.ascii	"OS_FN_MIF_INFO_GET\000"
 18170      4E5F4D49 
ARM GAS  C:\Users\AHMEDH~1\AppData\Local\Temp\cclxJjJK.s 			page 402


 18170      465F494E 
 18170      464F5F47 
 18170      455400
 18171              	.LASF259:
 18172 394f 4F535F46 		.ascii	"OS_FN_FL_ERASE_START\000"
 18172      4E5F464C 
 18172      5F455241 
 18172      53455F53 
 18172      54415254 
 18173              	.LASF971:
 18174 3964 66726565 		.ascii	"free_run\000"
 18174      5F72756E 
 18174      00
 18175              	.LASF70:
 18176 396d 4F535F46 		.ascii	"OS_FN_COM2_READ\000"
 18176      4E5F434F 
 18176      4D325F52 
 18176      45414400 
 18177              	.LASF336:
 18178 397d 4F535F46 		.ascii	"OS_FN_USBHOST_RESET_DEVICE\000"
 18178      4E5F5553 
 18178      42484F53 
 18178      545F5245 
 18178      5345545F 
 18179              	.LASF342:
 18180 3998 4F535F46 		.ascii	"OS_FN_DRIVER_UNREGISTER\000"
 18180      4E5F4452 
 18180      49564552 
 18180      5F554E52 
 18180      45474953 
 18181              	.LASF202:
 18182 39b0 4F535F46 		.ascii	"OS_FN_CONFIG_READ\000"
 18182      4E5F434F 
 18182      4E464947 
 18182      5F524541 
 18182      4400
 18183              	.LASF532:
 18184 39c2 44495350 		.ascii	"DISP_PUTNMW\000"
 18184      5F505554 
 18184      4E4D5700 
 18185              	.LASF479:
 18186 39ce 4F535F46 		.ascii	"OS_FN_GPRS_SET_PIN_STATUS\000"
 18186      4E5F4750 
 18186      52535F53 
 18186      45545F50 
 18186      494E5F53 
 18187              	.LASF991:
 18188 39e8 4B497466 		.ascii	"KItfHostNameResp\000"
 18188      486F7374 
 18188      4E616D65 
 18188      52657370 
 18188      00
 18189              	.LASF451:
 18190 39f9 4F535F46 		.ascii	"OS_FN_FPRT_CLOSE\000"
 18190      4E5F4650 
 18190      52545F43 
 18190      4C4F5345 
ARM GAS  C:\Users\AHMEDH~1\AppData\Local\Temp\cclxJjJK.s 			page 403


 18190      00
 18191              	.LASF794:
 18192 3a0a 625F656E 		.ascii	"b_entry_mode\000"
 18192      7472795F 
 18192      6D6F6465 
 18192      00
 18193              	.LASF458:
 18194 3a17 4F535F46 		.ascii	"OS_FN_GCM_AES_OPEN\000"
 18194      4E5F4743 
 18194      4D5F4145 
 18194      535F4F50 
 18194      454E00
 18195              	.LASF116:
 18196 3a2a 4F535F46 		.ascii	"OS_FN_SM3\000"
 18196      4E5F534D 
 18196      3300
 18197              	.LASF398:
 18198 3a34 4F535F46 		.ascii	"OS_FN_BARCODE_READ\000"
 18198      4E5F4241 
 18198      52434F44 
 18198      455F5245 
 18198      414400
 18199              	.LASF455:
 18200 3a47 4F535F46 		.ascii	"OS_FN_ECC_KEYPAIR_GENERATE\000"
 18200      4E5F4543 
 18200      435F4B45 
 18200      59504149 
 18200      525F4745 
 18201              	.LASF407:
 18202 3a62 4F535F46 		.ascii	"OS_FN_WIFI_PROFILES_WRITE\000"
 18202      4E5F5749 
 18202      46495F50 
 18202      524F4649 
 18202      4C45535F 
 18203              	.LASF166:
 18204 3a7c 4F535F46 		.ascii	"OS_FN_FILE_CREATE_OWNER\000"
 18204      4E5F4649 
 18204      4C455F43 
 18204      52454154 
 18204      455F4F57 
 18205              	.LASF402:
 18206 3a94 4F535F46 		.ascii	"OS_FN_WIFI_CONTROL\000"
 18206      4E5F5749 
 18206      46495F43 
 18206      4F4E5452 
 18206      4F4C00
 18207              	.LASF1031:
 18208 3aa7 7374726C 		.ascii	"strlen\000"
 18208      656E00
 18209              	.LASF330:
 18210 3aae 4F535F46 		.ascii	"OS_FN_CLICC_LED_STATUS\000"
 18210      4E5F434C 
 18210      4943435F 
 18210      4C45445F 
 18210      53544154 
 18211              	.LASF694:
 18212 3ac5 73625F6F 		.ascii	"sb_options\000"
ARM GAS  C:\Users\AHMEDH~1\AppData\Local\Temp\cclxJjJK.s 			page 404


 18212      7074696F 
 18212      6E7300
 18213              	.LASF910:
 18214 3ad0 6152436F 		.ascii	"aRCode\000"
 18214      646500
 18215              	.LASF329:
 18216 3ad7 4F535F46 		.ascii	"OS_FN_CLICC_LED_CLOSE\000"
 18216      4E5F434C 
 18216      4943435F 
 18216      4C45445F 
 18216      434C4F53 
 18217              	.LASF927:
 18218 3aed 61624B76 		.ascii	"abKvc\000"
 18218      6300
 18219              	.LASF338:
 18220 3af3 4F535F46 		.ascii	"OS_FN_USBHOST_RHPORT_STATUS\000"
 18220      4E5F5553 
 18220      42484F53 
 18220      545F5248 
 18220      504F5254 
 18221              	.LASF953:
 18222 3b0f 6B657950 		.ascii	"keyPut\000"
 18222      757400
 18223              	.LASF682:
 18224 3b16 775F6170 		.ascii	"w_app_list_chksum\000"
 18224      705F6C69 
 18224      73745F63 
 18224      686B7375 
 18224      6D00
 18225              	.LASF290:
 18226 3b28 4F535F46 		.ascii	"OS_FN_ADC_CH_DISABLE\000"
 18226      4E5F4144 
 18226      435F4348 
 18226      5F444953 
 18226      41424C45 
 18227              	.LASF87:
 18228 3b3d 4F535F46 		.ascii	"OS_FN_COM_DESKEY\000"
 18228      4E5F434F 
 18228      4D5F4445 
 18228      534B4559 
 18228      00
 18229              	.LASF908:
 18230 3b4e 54584E5F 		.ascii	"TXN_ERR\000"
 18230      45525200 
 18231              	.LASF31:
 18232 3b56 4F535F46 		.ascii	"OS_FN_BUZ_OPEN\000"
 18232      4E5F4255 
 18232      5A5F4F50 
 18232      454E00
 18233              	.LASF69:
 18234 3b65 4F535F46 		.ascii	"OS_FN_COM2_TXRDY\000"
 18234      4E5F434F 
 18234      4D325F54 
 18234      58524459 
 18234      00
 18235              	.LASF783:
 18236 3b76 54584E5F 		.ascii	"TXN_RECORD\000"
ARM GAS  C:\Users\AHMEDH~1\AppData\Local\Temp\cclxJjJK.s 			page 405


 18236      5245434F 
 18236      524400
 18237              	.LASF651:
 18238 3b81 625F6563 		.ascii	"b_ecr_port\000"
 18238      725F706F 
 18238      727400
 18239              	.LASF144:
 18240 3b8c 4F535F46 		.ascii	"OS_FN_THREAD_POP\000"
 18240      4E5F5448 
 18240      52454144 
 18240      5F504F50 
 18240      00
 18241              	.LASF836:
 18242 3b9d 745F7465 		.ascii	"t_term_tot\000"
 18242      726D5F74 
 18242      6F7400
 18243              	.LASF239:
 18244 3ba8 4F535F46 		.ascii	"OS_FN_MSR_STATUS\000"
 18244      4E5F4D53 
 18244      525F5354 
 18244      41545553 
 18244      00
 18245              	.LASF283:
 18246 3bb9 4F535F46 		.ascii	"OS_FN_MCOM_READ\000"
 18246      4E5F4D43 
 18246      4F4D5F52 
 18246      45414400 
 18247              	.LASF984:
 18248 3bc9 6749646C 		.ascii	"gIdleCnt\000"
 18248      65436E74 
 18248      00
 18249              	.LASF135:
 18250 3bd2 4F535F46 		.ascii	"OS_FN_PCI_DSS_REGEN_KEY\000"
 18250      4E5F5043 
 18250      495F4453 
 18250      535F5245 
 18250      47454E5F 
 18251              	.LASF895:
 18252 3bea 44454641 		.ascii	"DEFAULT_TRANS\000"
 18252      554C545F 
 18252      5452414E 
 18252      5300
 18253              	.LASF822:
 18254 3bf8 735F6163 		.ascii	"s_acquirer_tbl\000"
 18254      71756972 
 18254      65725F74 
 18254      626C00
 18255              	.LASF720:
 18256 3c07 625F6163 		.ascii	"b_acquirer_id\000"
 18256      71756972 
 18256      65725F69 
 18256      6400
 18257              	.LASF473:
 18258 3c15 4F535F46 		.ascii	"OS_FN_IMG_SENSOR_OPEN\000"
 18258      4E5F494D 
 18258      475F5345 
 18258      4E534F52 
ARM GAS  C:\Users\AHMEDH~1\AppData\Local\Temp\cclxJjJK.s 			page 406


 18258      5F4F5045 
 18259              	.LASF556:
 18260 3c2b 625F6D6F 		.ascii	"b_month\000"
 18260      6E746800 
 18261              	.LASF580:
 18262 3c33 41504D5F 		.ascii	"APM_FLUSHCOMM\000"
 18262      464C5553 
 18262      48434F4D 
 18262      4D00
 18263              	.LASF359:
 18264 3c41 4F535F46 		.ascii	"OS_FN_NETDEV_CLOSE\000"
 18264      4E5F4E45 
 18264      54444556 
 18264      5F434C4F 
 18264      534500
 18265              	.LASF825:
 18266 3c54 42535F44 		.ascii	"BS_DATE\000"
 18266      41544500 
 18267              	.LASF597:
 18268 3c5c 41504D5F 		.ascii	"APM_SETPENDING\000"
 18268      53455450 
 18268      454E4449 
 18268      4E4700
 18269              	.LASF0:
 18270 3c6b 756E7369 		.ascii	"unsigned int\000"
 18270      676E6564 
 18270      20696E74 
 18270      00
 18271              	.LASF806:
 18272 3c78 50524E5F 		.ascii	"PRN_DATA\000"
 18272      44415441 
 18272      00
 18273              	.LASF500:
 18274 3c81 53485554 		.ascii	"SHUTDOWNMW\000"
 18274      444F574E 
 18274      4D5700
 18275              	.LASF388:
 18276 3c8c 4F535F46 		.ascii	"OS_FN_MIF_DEC_TRANS\000"
 18276      4E5F4D49 
 18276      465F4445 
 18276      435F5452 
 18276      414E5300 
 18277              	.LASF201:
 18278 3ca0 4F535F46 		.ascii	"OS_FN_CONFIG_LENGTH\000"
 18278      4E5F434F 
 18278      4E464947 
 18278      5F4C454E 
 18278      47544800 
 18279              		.ident	"GCC: (GNU Tools for ARM Embedded Processors) 4.9.3 20141119 (release) [ARM/embedded-4_9-br
ARM GAS  C:\Users\AHMEDH~1\AppData\Local\Temp\cclxJjJK.s 			page 407


DEFINED SYMBOLS
                            *ABS*:00000000 iface.c
C:\Users\AHMEDH~1\AppData\Local\Temp\cclxJjJK.s:19     .text.UpdIfaceDat:00000000 $t
C:\Users\AHMEDH~1\AppData\Local\Temp\cclxJjJK.s:23     .text.UpdIfaceDat:00000000 UpdIfaceDat
C:\Users\AHMEDH~1\AppData\Local\Temp\cclxJjJK.s:122    .text.UpdIfaceDat:00000080 $d
C:\Users\AHMEDH~1\AppData\Local\Temp\cclxJjJK.s:129    .text.keyPut:00000000 $t
C:\Users\AHMEDH~1\AppData\Local\Temp\cclxJjJK.s:133    .text.keyPut:00000000 keyPut
C:\Users\AHMEDH~1\AppData\Local\Temp\cclxJjJK.s:243    .text.keyPut:0000007c $d
C:\Users\AHMEDH~1\AppData\Local\Temp\cclxJjJK.s:250    .text.encrypt:00000000 $t
C:\Users\AHMEDH~1\AppData\Local\Temp\cclxJjJK.s:254    .text.encrypt:00000000 encrypt
C:\Users\AHMEDH~1\AppData\Local\Temp\cclxJjJK.s:392    .text.encrypt:000000ac $d
C:\Users\AHMEDH~1\AppData\Local\Temp\cclxJjJK.s:396    .text.encrypt:000000b0 $t
C:\Users\AHMEDH~1\AppData\Local\Temp\cclxJjJK.s:447    .text.encrypt:000000ec $d
C:\Users\AHMEDH~1\AppData\Local\Temp\cclxJjJK.s:454    .text.errRspData.isra.0:00000000 $t
C:\Users\AHMEDH~1\AppData\Local\Temp\cclxJjJK.s:458    .text.errRspData.isra.0:00000000 errRspData.isra.0
C:\Users\AHMEDH~1\AppData\Local\Temp\cclxJjJK.s:485    .text.IfaceRx.part.8:00000000 $t
C:\Users\AHMEDH~1\AppData\Local\Temp\cclxJjJK.s:489    .text.IfaceRx.part.8:00000000 IfaceRx.part.8
C:\Users\AHMEDH~1\AppData\Local\Temp\cclxJjJK.s:541    .text.rspPackFmt.isra.6.constprop.9:00000000 $t
C:\Users\AHMEDH~1\AppData\Local\Temp\cclxJjJK.s:545    .text.rspPackFmt.isra.6.constprop.9:00000000 rspPackFmt.isra.6.constprop.9
C:\Users\AHMEDH~1\AppData\Local\Temp\cclxJjJK.s:799    .text.rspPackFmt.isra.6.constprop.9:0000014c $d
C:\Users\AHMEDH~1\AppData\Local\Temp\cclxJjJK.s:804    .text.IfaceInitData:00000000 $t
C:\Users\AHMEDH~1\AppData\Local\Temp\cclxJjJK.s:809    .text.IfaceInitData:00000000 IfaceInitData
C:\Users\AHMEDH~1\AppData\Local\Temp\cclxJjJK.s:1003   .text.IfaceInitData:0000010c $d
C:\Users\AHMEDH~1\AppData\Local\Temp\cclxJjJK.s:1011   .text.packFullEmvData:00000000 $t
C:\Users\AHMEDH~1\AppData\Local\Temp\cclxJjJK.s:1016   .text.packFullEmvData:00000000 packFullEmvData
C:\Users\AHMEDH~1\AppData\Local\Temp\cclxJjJK.s:1461   .text.packFullEmvData:000002b4 $d
C:\Users\AHMEDH~1\AppData\Local\Temp\cclxJjJK.s:1480   .text.ItfVoid:00000000 $t
C:\Users\AHMEDH~1\AppData\Local\Temp\cclxJjJK.s:1485   .text.ItfVoid:00000000 ItfVoid
C:\Users\AHMEDH~1\AppData\Local\Temp\cclxJjJK.s:1506   .text.ItfHostTot:00000000 $t
C:\Users\AHMEDH~1\AppData\Local\Temp\cclxJjJK.s:1511   .text.ItfHostTot:00000000 ItfHostTot
C:\Users\AHMEDH~1\AppData\Local\Temp\cclxJjJK.s:1539   .text.ItfHostTot:0000001c $d
C:\Users\AHMEDH~1\AppData\Local\Temp\cclxJjJK.s:1545   .text.ItfSettle:00000000 $t
C:\Users\AHMEDH~1\AppData\Local\Temp\cclxJjJK.s:1550   .text.ItfSettle:00000000 ItfSettle
C:\Users\AHMEDH~1\AppData\Local\Temp\cclxJjJK.s:1591   .text.ItfSettle:00000038 $d
C:\Users\AHMEDH~1\AppData\Local\Temp\cclxJjJK.s:1598   .text.Spt3MsgHdr:00000000 $t
C:\Users\AHMEDH~1\AppData\Local\Temp\cclxJjJK.s:1603   .text.Spt3MsgHdr:00000000 Spt3MsgHdr
C:\Users\AHMEDH~1\AppData\Local\Temp\cclxJjJK.s:1887   .text.Spt3MsgHdr:000001ca $d
C:\Users\AHMEDH~1\AppData\Local\Temp\cclxJjJK.s:1894   .text.Spt3MsgHdr:000001d8 $t
C:\Users\AHMEDH~1\AppData\Local\Temp\cclxJjJK.s:1988   .text.Spt3MsgHdr:0000024c $d
C:\Users\AHMEDH~1\AppData\Local\Temp\cclxJjJK.s:1998   .text.Spt3MsgHdr:00000258 $t
C:\Users\AHMEDH~1\AppData\Local\Temp\cclxJjJK.s:2382   .text.Spt3MsgHdr:000004b2 $d
C:\Users\AHMEDH~1\AppData\Local\Temp\cclxJjJK.s:2392   .text.Spt3MsgHdr:000004bc $t
C:\Users\AHMEDH~1\AppData\Local\Temp\cclxJjJK.s:2557   .text.Spt3MsgHdr:00000584 $d
C:\Users\AHMEDH~1\AppData\Local\Temp\cclxJjJK.s:2570   .text.IfaceInit:00000000 $t
C:\Users\AHMEDH~1\AppData\Local\Temp\cclxJjJK.s:2575   .text.IfaceInit:00000000 IfaceInit
C:\Users\AHMEDH~1\AppData\Local\Temp\cclxJjJK.s:2591   .text.IfaceClose:00000000 $t
C:\Users\AHMEDH~1\AppData\Local\Temp\cclxJjJK.s:2596   .text.IfaceClose:00000000 IfaceClose
C:\Users\AHMEDH~1\AppData\Local\Temp\cclxJjJK.s:2610   .text.debugAuxIface:00000000 $t
C:\Users\AHMEDH~1\AppData\Local\Temp\cclxJjJK.s:2615   .text.debugAuxIface:00000000 debugAuxIface
C:\Users\AHMEDH~1\AppData\Local\Temp\cclxJjJK.s:2796   .text.debugAuxIface:000000f8 $d
C:\Users\AHMEDH~1\AppData\Local\Temp\cclxJjJK.s:2804   .text.IfaceTx:00000000 $t
C:\Users\AHMEDH~1\AppData\Local\Temp\cclxJjJK.s:2809   .text.IfaceTx:00000000 IfaceTx
C:\Users\AHMEDH~1\AppData\Local\Temp\cclxJjJK.s:2851   .text.IfaceRx:00000000 $t
C:\Users\AHMEDH~1\AppData\Local\Temp\cclxJjJK.s:2856   .text.IfaceRx:00000000 IfaceRx
C:\Users\AHMEDH~1\AppData\Local\Temp\cclxJjJK.s:2908   .text.IfaceProcess:00000000 $t
C:\Users\AHMEDH~1\AppData\Local\Temp\cclxJjJK.s:2913   .text.IfaceProcess:00000000 IfaceProcess
C:\Users\AHMEDH~1\AppData\Local\Temp\cclxJjJK.s:2991   .text.IfaceProcess:00000058 $d
ARM GAS  C:\Users\AHMEDH~1\AppData\Local\Temp\cclxJjJK.s 			page 408


C:\Users\AHMEDH~1\AppData\Local\Temp\cclxJjJK.s:3123   .bss:00000000 gIfaceData
C:\Users\AHMEDH~1\AppData\Local\Temp\cclxJjJK.s:3107   .data:00000000 KItfRespTbl
C:\Users\AHMEDH~1\AppData\Local\Temp\cclxJjJK.s:3017   .rodata:00000016 KItfSettleResp
C:\Users\AHMEDH~1\AppData\Local\Temp\cclxJjJK.s:3024   .rodata:0000001e KItfHostTotResp
C:\Users\AHMEDH~1\AppData\Local\Temp\cclxJjJK.s:3031   .rodata:00000026 KItfHostNameResp
C:\Users\AHMEDH~1\AppData\Local\Temp\cclxJjJK.s:3038   .rodata:0000002e KItfLastTrace
C:\Users\AHMEDH~1\AppData\Local\Temp\cclxJjJK.s:3046   .rodata:00000038 KItfOfflSaleResp
C:\Users\AHMEDH~1\AppData\Local\Temp\cclxJjJK.s:3067   .rodata:0000005c KItfSaleResp
C:\Users\AHMEDH~1\AppData\Local\Temp\cclxJjJK.s:3005   .rodata:00000000 $d
C:\Users\AHMEDH~1\AppData\Local\Temp\cclxJjJK.s:3009   .rodata:00000000 KIfaceFile
C:\Users\AHMEDH~1\AppData\Local\Temp\cclxJjJK.s:3103   .data:00000000 $d
C:\Users\AHMEDH~1\AppData\Local\Temp\cclxJjJK.s:3119   .bss:00000000 $d
C:\Users\AHMEDH~1\AppData\Local\Temp\cclxJjJK.s:3127   .bss:00000004 gsSKey
C:\Users\AHMEDH~1\AppData\Local\Temp\cclxJjJK.s:3131   .bss:00000018 gReqBuf
C:\Users\AHMEDH~1\AppData\Local\Temp\cclxJjJK.s:3135   .bss:00000618 gwSeqNum
C:\Users\AHMEDH~1\AppData\Local\Temp\cclxJjJK.s:3139   .bss:0000061a gbMode
C:\Users\AHMEDH~1\AppData\Local\Temp\cclxJjJK.s:3144   .bss:00000620 gTermTotal
C:\Users\AHMEDH~1\AppData\Local\Temp\cclxJjJK.s:3148   .bss:00000688 gRspBuf
C:\Users\AHMEDH~1\AppData\Local\Temp\cclxJjJK.s:3152   .bss:00000c88 gabRRand
C:\Users\AHMEDH~1\AppData\Local\Temp\cclxJjJK.s:3156   .bss:00000c90 gabTRand
C:\Users\AHMEDH~1\AppData\Local\Temp\cclxJjJK.s:3160   .bss:00000c98 gIfBuf
                     .debug_frame:00000010 $d

UNDEFINED SYMBOLS
strcpy
lib_app_call
sys_func1
memcpy
ErrorDelay
memset
Des
Des2
TDes
TDes2
WPut
UPut
WGet
Crc16
MemFatalErr
split
fndb
DDWORD2bcd
TlvPack
gGDS
gGTS
VoidTrans
CalTotals
SettleTrans
UGet
memcmp
Random
ClearResponse
LongBeep
TlvSeek
TlvVPtr
TlvLen
WaitCardTrans
ARM GAS  C:\Users\AHMEDH~1\AppData\Local\Temp\cclxJjJK.s 			page 409


ResetTerm
set_pptr
sprintf
strlen
pack_mem
split_data
AuxOpen
sys_func0
AuxTxRdy
get_distance
AuxWrite
AuxClose
FreeRunMark
gIdleCnt
