ARM GAS  C:\Users\AHMEDH~1\AppData\Local\Temp\cck6gOO5.s 			page 1


   1              		.syntax unified
   2              		.cpu cortex-a5
   3              		.fpu softvfp
   4              		.eabi_attribute 20, 1
   5              		.eabi_attribute 21, 1
   6              		.eabi_attribute 23, 3
   7              		.eabi_attribute 24, 1
   8              		.eabi_attribute 25, 1
   9              		.eabi_attribute 26, 1
  10              		.eabi_attribute 30, 4
  11              		.eabi_attribute 34, 0
  12              		.eabi_attribute 18, 4
  13              		.thumb
  14              		.file	"input.c"
  15              		.text
  16              	.Ltext0:
  17              		.cfi_sections	.debug_frame
  18              		.section	.text.DispKeyinPAN,"ax",%progbits
  19              		.align	1
  20              		.thumb
  21              		.thumb_func
  22              		.type	DispKeyinPAN, %function
  23              	DispKeyinPAN:
  24              	.LFB16:
  25              		.file 1 "src/input.c"
   1:src/input.c   **** //-----------------------------------------------------------------------------
   2:src/input.c   **** //  File          : input.c
   3:src/input.c   **** //  Module        :
   4:src/input.c   **** //  Description   : Input related functions.
   5:src/input.c   **** //  Author        : Lewis
   6:src/input.c   **** //  Notes         :
   7:src/input.c   **** //
   8:src/input.c   **** // ============================================================================
   9:src/input.c   **** // | Naming conventions                                                       |
  10:src/input.c   **** // | ~~~~~~~~~~~~~~~~~~                                                       |
  11:src/input.c   **** // |        Struct define : Leading T                                         |
  12:src/input.c   **** // |         Struct/Array : Leading s                                         |
  13:src/input.c   **** // |             Constant : Leading K                                         |
  14:src/input.c   **** // |      Global Variable : Leading g  (variable use outside one C file)      |
  15:src/input.c   **** // |                                                                          |
  16:src/input.c   **** // |   BYTE( 8 Bits) size : Leading b                                         |
  17:src/input.c   **** // |   CHAR( 8 Bits) size : Leading c                                         |
  18:src/input.c   **** // |   WORD(16 Bits) size : Leading w                                         |
  19:src/input.c   **** // |  DWORD(32 Bits) size : Leading d                                         |
  20:src/input.c   **** // |    int(32 Bits) size : Leading i                                         |
  21:src/input.c   **** // | DDWORD(64 Bits) size : Leading dd                                        |
  22:src/input.c   **** // |              Pointer : Leading p                                         |
  23:src/input.c   **** // |                                                                          |
  24:src/input.c   **** // |    Function argument : Leading a                                         |
  25:src/input.c   **** // |       Local Variable : All lower case                                    |
  26:src/input.c   **** // |                                                                          |
  27:src/input.c   **** // | Examples:                                                                |
  28:src/input.c   **** // |                Array : Leading s, (sb = arrary of byte, etc)             |
  29:src/input.c   **** // |              Pointer : Leading p, (pb = pointer of byte, etc)            |
  30:src/input.c   **** // ============================================================================
  31:src/input.c   **** //
  32:src/input.c   **** //  Date          Who         Action
ARM GAS  C:\Users\AHMEDH~1\AppData\Local\Temp\cck6gOO5.s 			page 2


  33:src/input.c   **** //  ------------  ----------- -------------------------------------------------
  34:src/input.c   **** //  29 Sept 2008  Lewis       Initial Version.
  35:src/input.c   **** //-----------------------------------------------------------------------------
  36:src/input.c   **** #include <string.h>
  37:src/input.c   **** #include "corevar.h"
  38:src/input.c   **** #include "coremain.h"
  39:src/input.c   **** #include "chkoptn.h"
  40:src/input.c   **** #include "constant.h"
  41:src/input.c   **** #include "emvtrans.h"
  42:src/input.c   **** #include "message.h"
  43:src/input.c   **** #include "tranutil.h"
  44:src/input.c   **** #include "util.h"
  45:src/input.c   **** #include "ecr.h"
  46:src/input.c   **** #include "tlvutil.h"
  47:src/input.c   **** #include "sale.h"
  48:src/input.c   **** #include "saleoffl.h"
  49:src/input.c   **** #include "auth.h"
  50:src/input.c   **** #include "refund.h"
  51:src/input.c   **** #include "emvtrans.h"
  52:src/input.c   **** #include "ctltrans.h"
  53:src/input.c   **** #include "iface.h"
  54:src/input.c   **** #include "input.h"
  55:src/input.c   **** 
  56:src/input.c   **** //-----------------------------------------------------------------------------
  57:src/input.c   **** //      Defines
  58:src/input.c   **** //-----------------------------------------------------------------------------
  59:src/input.c   **** struct PRODUCT {
  60:src/input.c   ****   BOOLEAN b_selected;
  61:src/input.c   ****   struct DESC_TBL s_prod;
  62:src/input.c   **** };
  63:src/input.c   **** 
  64:src/input.c   **** #define SEPARATOR_5E   '^'
  65:src/input.c   **** 
  66:src/input.c   **** //-----------------------------------------------------------------------------
  67:src/input.c   **** //    Constant
  68:src/input.c   **** //-----------------------------------------------------------------------------
  69:src/input.c   **** static const DWORD KDecimalPos[4] = { DECIMAL_NONE, DECIMAL_POS1, DECIMAL_POS2, DECIMAL_POS3};
  70:src/input.c   **** 
  71:src/input.c   **** //-----------------------------------------------------------------------------
  72:src/input.c   **** //      Globals Variables
  73:src/input.c   **** //-----------------------------------------------------------------------------
  74:src/input.c   **** cur_info_t gCurInfo[MAX_CUR_SUPPORT] =
  75:src/input.c   **** {
  76:src/input.c   ****   {"EGP", "818"},
  77:src/input.c   ****   {"USD", "840"},
  78:src/input.c   ****   {"EUR", "978"},
  79:src/input.c   **** };
  80:src/input.c   **** 
  81:src/input.c   **** //*****************************************************************************
  82:src/input.c   **** //  Function        : Trk1Ready
  83:src/input.c   **** //  Description     : Return TRUE when TRK1 data ready.
  84:src/input.c   **** //  Input           : N/A
  85:src/input.c   **** //  Return          : TRUE;  // trk1 data ready.
  86:src/input.c   **** //  Note            : N/A
  87:src/input.c   **** //  Globals Changed : N/A
  88:src/input.c   **** //*****************************************************************************
  89:src/input.c   **** static BOOLEAN Trk1Ready(void)
ARM GAS  C:\Users\AHMEDH~1\AppData\Local\Temp\cck6gOO5.s 			page 3


  90:src/input.c   **** {
  91:src/input.c   ****   return ((INPUT.s_trk1buf.b_len != 0) && (INPUT.s_trk1buf.b_len != 0xFF));
  92:src/input.c   **** }
  93:src/input.c   **** //*****************************************************************************
  94:src/input.c   **** //  Function        : Trk2Ready
  95:src/input.c   **** //  Description     : Return TRUE when TRK2 data ready.
  96:src/input.c   **** //  Input           : N/A
  97:src/input.c   **** //  Return          : TRUE;  // trk2 data ready.
  98:src/input.c   **** //  Note            : N/A
  99:src/input.c   **** //  Globals Changed : N/A
 100:src/input.c   **** //*****************************************************************************
 101:src/input.c   **** static BOOLEAN Trk2Ready(void)
 102:src/input.c   **** {
 103:src/input.c   ****   return ((INPUT.s_trk2buf.b_len != 0) && (INPUT.s_trk2buf.b_len != 0xFF));
 104:src/input.c   **** }
 105:src/input.c   **** //*****************************************************************************
 106:src/input.c   **** //  Function        : FindSeperator
 107:src/input.c   **** //  Description     : Find card data seperator & return its position.
 108:src/input.c   **** //  Input           : aBuf;             // Buffer pointer
 109:src/input.c   **** //                    aIdx;             // start position.
 110:src/input.c   **** //  Return          : seperator's pos.
 111:src/input.c   **** //                    0xFF;    // not found
 112:src/input.c   **** //  Note            : N/A
 113:src/input.c   **** //  Globals Changed : N/A
 114:src/input.c   **** //*****************************************************************************
 115:src/input.c   **** static BYTE FindSeperator(BYTE *aBuf, BYTE aIdx)
 116:src/input.c   **** {
 117:src/input.c   ****   BYTE val;
 118:src/input.c   ****   BYTE i;
 119:src/input.c   **** 
 120:src/input.c   ****   for (i = 0; i != 22 + 1; i++) {
 121:src/input.c   ****     val = aBuf[i+aIdx];
 122:src/input.c   ****     //  *, ;, =, ^
 123:src/input.c   ****     if ((val == 0x2a) || (val == 0x3b) || (val == 0x3d) || (val == 0x5e))
 124:src/input.c   ****       return i;
 125:src/input.c   ****   }
 126:src/input.c   ****   return 0xff;
 127:src/input.c   **** }
 128:src/input.c   **** //*****************************************************************************
 129:src/input.c   **** //  Function        : CardServiceCode
 130:src/input.c   **** //  Description     : Return TRACK-2 SERVICE CODE.
 131:src/input.c   **** //  Input           : N/A
 132:src/input.c   **** //  Return          : TRUE/FALSE
 133:src/input.c   **** //  Note            : Track 1 & 2 must be checked before calling this func
 134:src/input.c   **** //                  : n/a
 135:src/input.c   **** //  Globals Changed : N/A;
 136:src/input.c   **** //*****************************************************************************
 137:src/input.c   **** static BYTE CardServiceCode(void)
 138:src/input.c   **** {
 139:src/input.c   ****   BYTE len;
 140:src/input.c   ****   BYTE scode = 0;
 141:src/input.c   **** 
 142:src/input.c   ****   // get service code
 143:src/input.c   ****   if ((INPUT.s_trk2buf.b_len == 0xff) || (INPUT.s_trk2buf.b_len == 0)) {
 144:src/input.c   ****     // track 2 missing, get it from track 1
 145:src/input.c   ****     len = (BYTE) fndb(INPUT.s_trk1buf.sb_content, (BYTE)SEPARATOR_5E, 22);
 146:src/input.c   ****     if (len < 22) {
ARM GAS  C:\Users\AHMEDH~1\AppData\Local\Temp\cck6gOO5.s 			page 4


 147:src/input.c   ****       scode = (BYTE) fndb(&INPUT.s_trk1buf.sb_content[len+1], (BYTE)SEPARATOR_5E, 30);
 148:src/input.c   ****       if (scode < 30)
 149:src/input.c   ****         scode = INPUT.s_trk1buf.sb_content[len+scode+2]; // SERVICE CODE POSITION
 150:src/input.c   ****       else
 151:src/input.c   ****         scode = 0;
 152:src/input.c   ****     }
 153:src/input.c   ****   }
 154:src/input.c   ****   else{
 155:src/input.c   ****     len = (BYTE) fndb(INPUT.s_trk2buf.sb_content, SEPERATOR2, 20);
 156:src/input.c   ****     if (len < 20)
 157:src/input.c   ****       scode = INPUT.s_trk2buf.sb_content[len+5]; // SERVICE CODE POSITION
 158:src/input.c   ****   }
 159:src/input.c   ****   return scode;
 160:src/input.c   **** }
 161:src/input.c   **** //*****************************************************************************
 162:src/input.c   **** //  Function        : ExtractPAN
 163:src/input.c   **** //  Description     : Extract PAN & expiry data from track data.
 164:src/input.c   **** //  Input           : aPAN;     // pointer to 10 bytes BCD PAN
 165:src/input.c   **** //                              // with packed trailing F;
 166:src/input.c   **** //                    aExpDate; // pointer 2 bytes BCD expiry date
 167:src/input.c   **** //  Return          : PAN len;
 168:src/input.c   **** //  Note            : N/A
 169:src/input.c   **** //  Globals Changed : N/A
 170:src/input.c   **** //*****************************************************************************
 171:src/input.c   **** static DWORD ExtractPAN(BYTE *aPAN, BYTE *aExpDate)
 172:src/input.c   **** {
 173:src/input.c   ****   DWORD idx;
 174:src/input.c   ****   DWORD len;
 175:src/input.c   ****   BYTE tmp[20];
 176:src/input.c   **** 
 177:src/input.c   ****   if (INPUT.s_trk2buf.b_len==0) {
 178:src/input.c   ****     for (idx=0;idx < INPUT.s_trk1buf.b_len; idx++) {
 179:src/input.c   ****       if (INPUT.s_trk1buf.sb_content[idx] == 'B')
 180:src/input.c   ****         break;
 181:src/input.c   ****     }
 182:src/input.c   **** 
 183:src/input.c   ****     idx++; // start of card #
 184:src/input.c   ****     len = 0;
 185:src/input.c   ****     memset(tmp, 'F', sizeof(tmp));
 186:src/input.c   ****     while (TRUE) {
 187:src/input.c   ****       if ((INPUT.s_trk1buf.sb_content[idx] == 0x2a) || (INPUT.s_trk1buf.sb_content[idx] == 0x3b) ||
 188:src/input.c   ****           (INPUT.s_trk1buf.sb_content[idx] == 0x3d) || (INPUT.s_trk1buf.sb_content[idx] == 0x5e) ||
 189:src/input.c   ****           (idx > 20)
 190:src/input.c   ****          )
 191:src/input.c   ****         break;
 192:src/input.c   ****       else {
 193:src/input.c   ****         if ((INPUT.s_trk1buf.sb_content[idx] >= '0') && (INPUT.s_trk1buf.sb_content[idx] <= '9'))
 194:src/input.c   ****           tmp[len++] = INPUT.s_trk1buf.sb_content[idx];
 195:src/input.c   ****       }
 196:src/input.c   ****       idx++;
 197:src/input.c   ****       if (idx >= INPUT.s_trk1buf.b_len)  // !2006-02-17
 198:src/input.c   ****         break;
 199:src/input.c   ****     }
 200:src/input.c   ****     compress(aPAN, tmp, (len+1)/2);
 201:src/input.c   ****     idx++;
 202:src/input.c   ****     for ( ;idx < 76; idx++) {
 203:src/input.c   ****       if (INPUT.s_trk1buf.sb_content[idx] == 0x5e)
ARM GAS  C:\Users\AHMEDH~1\AppData\Local\Temp\cck6gOO5.s 			page 5


 204:src/input.c   ****         break;
 205:src/input.c   ****     }
 206:src/input.c   ****     compress(aExpDate, &INPUT.s_trk1buf.sb_content[idx+1], 2);
 207:src/input.c   ****   }
 208:src/input.c   ****   else {
 209:src/input.c   ****     len = fndb(INPUT.s_trk2buf.sb_content, SEPERATOR2, INPUT.s_trk2buf.b_len);
 210:src/input.c   ****     if (len <= 19) {
 211:src/input.c   ****       INPUT.s_trk2buf.sb_content[len] = 0x3f; /* cater for odd len */
 212:src/input.c   ****       memset(aPAN, 0xFF, 10);
 213:src/input.c   ****       compress(aPAN, INPUT.s_trk2buf.sb_content, (BYTE)((len+1)/2));
 214:src/input.c   ****       INPUT.s_trk2buf.sb_content[len] = SEPERATOR2; /* cater for odd len */
 215:src/input.c   ****       compress(aExpDate, &INPUT.s_trk2buf.sb_content[1+len], 2);
 216:src/input.c   ****     }
 217:src/input.c   ****     else
 218:src/input.c   ****       len = 0;
 219:src/input.c   ****   }
 220:src/input.c   ****   return (len);
 221:src/input.c   **** }
 222:src/input.c   **** /******************************************************************************
 223:src/input.c   ****  *  Function        : CheckCurrency
 224:src/input.c   ****  *  Description     : Check currency selected with acquirer table
 225:src/input.c   ****  *  Input           : type: 0 - input.currency
 226:src/input.c   ****  *                          1 - tx_data.currency
 227:src/input.c   ****  *                    stop: TRUE  - show msg & stop if error
 228:src/input.c   ****  *                          FALSE - not stop even on error
 229:src/input.c   ****  *  Return          : TRUE;   // confirmed
 230:src/input.c   ****  *                    FALSE;  // failed
 231:src/input.c   ****  *  Note            : //15-10-15 JC ++
 232:src/input.c   ****  *  Globals Changed : N/A
 233:src/input.c   ****  ******************************************************************************
 234:src/input.c   ****  */
 235:src/input.c   **** BOOLEAN CheckCurrency(BYTE type, BOOLEAN stop) 
 236:src/input.c   **** {
 237:src/input.c   ****   if (INPUT.currency == 0xFF)
 238:src/input.c   ****     return TRUE;
 239:src/input.c   ****   
 240:src/input.c   ****   if (type == 0) {
 241:src/input.c   ****     if (!memcmp(STIS_ACQ_TBL(0).sb_program, gCurInfo[INPUT.currency].name, 3))
 242:src/input.c   ****       return TRUE;
 243:src/input.c   ****   }
 244:src/input.c   ****   else if (type == 1) {
 245:src/input.c   ****     if (!memcmp(STIS_ACQ_TBL(0).sb_program, gCurInfo[TX_DATA.currency].name, 3))
 246:src/input.c   ****       return TRUE;
 247:src/input.c   ****   }
 248:src/input.c   ****   
 249:src/input.c   ****   if (stop) {
 250:src/input.c   ****     DispClrBelowMW(MW_LINE3);
 251:src/input.c   ****     Disp2x16Msg(GetConstMsg(EDC_IN_CUR_ERROR), MW_LINE3, MW_BIGFONT);
 252:src/input.c   ****     ErrorDelay();
 253:src/input.c   ****   }
 254:src/input.c   ****   return FALSE;
 255:src/input.c   **** }
 256:src/input.c   **** 
 257:src/input.c   **** 
 258:src/input.c   **** //*****************************************************************************
 259:src/input.c   **** //  Function        : InCardTable
 260:src/input.c   **** //  Description     : Check card exist in table.
ARM GAS  C:\Users\AHMEDH~1\AppData\Local\Temp\cck6gOO5.s 			page 6


 261:src/input.c   **** //  Input           : N/A
 262:src/input.c   **** //  Return          : TRUE/FALSE;
 263:src/input.c   **** //  Note            : N/A
 264:src/input.c   **** //  Globals Changed : N/A
 265:src/input.c   **** //*****************************************************************************
 266:src/input.c   **** BOOLEAN InCardTable(void)
 267:src/input.c   **** {
 268:src/input.c   ****   BYTE card_idx, issuer_idx, acq_idx;
 269:src/input.c   ****   BYTE pan_len, pan[21];
 270:src/input.c   ****   WORD max_card   = APM_GetCardCount();
 271:src/input.c   ****   WORD max_issuer = APM_GetIssuerCount();
 272:src/input.c   ****   WORD max_acq    = APM_GetAcqCount();
 273:src/input.c   **** 
 274:src/input.c   **** 
 275:src/input.c   ****   split(&pan[1], INPUT.sb_pan, 10);
 276:src/input.c   ****   pan[0] = (BYTE) fndb(&pan[1], 'F', 19);
 277:src/input.c   **** 
 278:src/input.c   ****   for (card_idx = 0; card_idx < max_card; card_idx++) {
 279:src/input.c   ****     if (!APM_GetCardTbl(card_idx, &STIS_CARD_TBL(0)))
 280:src/input.c   ****       continue;
 281:src/input.c   ****     pan_len = (BYTE)bcd2bin(STIS_CARD_TBL(0).b_pan_len);
 282:src/input.c   ****     if ((memcmp(INPUT.sb_pan, STIS_CARD_TBL(0).sb_pan_range_low, 5) >= 0)  &&
 283:src/input.c   ****         (memcmp(INPUT.sb_pan, STIS_CARD_TBL(0).sb_pan_range_high, 5) <= 0) &&
 284:src/input.c   ****         ((pan[0] == pan_len) || (pan_len == 0))) {
 285:src/input.c   ****       // locate issuer
 286:src/input.c   ****       for (issuer_idx = 0; issuer_idx < max_issuer; issuer_idx++) {
 287:src/input.c   ****         if (!APM_GetIssuer(issuer_idx, &STIS_ISS_TBL(0)))
 288:src/input.c   ****           continue;
 289:src/input.c   ****         if (STIS_ISS_TBL(0).b_id == STIS_CARD_TBL(0).b_issuer_id)
 290:src/input.c   ****           break;
 291:src/input.c   ****       }
 292:src/input.c   ****       if (issuer_idx == max_issuer)
 293:src/input.c   ****         continue;
 294:src/input.c   ****       // locate acquirer
 295:src/input.c   ****       for (acq_idx = 0; acq_idx < max_acq; acq_idx++) {
 296:src/input.c   ****         if (!APM_GetAcqTbl(acq_idx, &STIS_ACQ_TBL(0)))
 297:src/input.c   ****           continue;
 298:src/input.c   ****         if (STIS_ACQ_TBL(0).b_status == NOT_LOADED)
 299:src/input.c   ****           continue;
 300:src/input.c   ****         if (!CorrectHost(GetHostType(0)))
 301:src/input.c   ****           continue;
 302:src/input.c   ****      //   if (STIS_ACQ_TBL(0).b_id == STIS_CARD_TBL(0).b_acquirer_id){
 303:src/input.c   ****      //     if (CheckCurrency(0, FALSE))   //15-10-15 JC ++
 304:src/input.c   ****      //       goto VALID_PAN2;
 305:src/input.c   ****     //    }
 306:src/input.c   **** 	  if (STIS_ACQ_TBL(0).b_id == STIS_CARD_TBL(0).b_acquirer_id)
 307:src/input.c   **** 
 308:src/input.c   **** 
 309:src/input.c   **** 
 310:src/input.c   ****           break;
 311:src/input.c   ****       }
 312:src/input.c   ****     //  if (card_idx < max_card)   // search next card table //13-07-11 JC ++
 313:src/input.c   ****     //    continue;
 314:src/input.c   **** 	
 315:src/input.c   **** 	  if (acq_idx == max_acq)
 316:src/input.c   ****         continue;
 317:src/input.c   ****       
ARM GAS  C:\Users\AHMEDH~1\AppData\Local\Temp\cck6gOO5.s 			page 7


 318:src/input.c   ****       //if (acq_idx == max_acq)
 319:src/input.c   ****       //  continue;
 320:src/input.c   ****      // goto INVALID_PAN;
 321:src/input.c   ****         
 322:src/input.c   **** //VALID_PAN2:
 323:src/input.c   ****       // found
 324:src/input.c   ****       INPUT.w_host_idx   = acq_idx;
 325:src/input.c   ****       INPUT.w_issuer_idx = issuer_idx;
 326:src/input.c   ****       return TRUE;
 327:src/input.c   ****     }
 328:src/input.c   ****   }
 329:src/input.c   **** //INVALID_PAN:
 330:src/input.c   ****   DispErrorMsg(GetConstMsg(EDC_RSP_UNSUPPORT_CARD));
 331:src/input.c   ****   RSP_DATA.w_rspcode = 'U'*256+'C';
 332:src/input.c   ****   return FALSE;
 333:src/input.c   **** }
 334:src/input.c   **** //*****************************************************************************
 335:src/input.c   **** //  Function        : ValidCard
 336:src/input.c   **** //  Description     : Check card format.
 337:src/input.c   **** //  Input           : N/A
 338:src/input.c   **** //  Return          : TRUE/FALSE;
 339:src/input.c   **** //  Note            : N/A
 340:src/input.c   **** //  Globals Changed : N/A
 341:src/input.c   **** //*****************************************************************************
 342:src/input.c   **** BOOLEAN ValidCard(void)
 343:src/input.c   **** {
 344:src/input.c   ****   BYTE idx, tlen;
 345:src/input.c   ****   BYTE disp_pan[21];
 346:src/input.c   **** 
 347:src/input.c   ****   memset(INPUT.sb_holder_name, ' ', sizeof(INPUT.sb_holder_name));
 348:src/input.c   **** 
 349:src/input.c   ****   if (INPUT.b_entry_mode == MANUAL || INPUT.b_entry_mode == ICC) {
 350:src/input.c   ****     if (!InCardTable())
 351:src/input.c   ****       return FALSE;
 352:src/input.c   ****     if (CheckPAN()) {
 353:src/input.c   ****       split(&disp_pan[1], INPUT.sb_pan, 10);
 354:src/input.c   ****       disp_pan[0] = (BYTE)fndb(&disp_pan[1], 'F', 19);
 355:src/input.c   ****       if (!chk_digit_ok(&disp_pan[1], disp_pan[0])) {
 356:src/input.c   ****         DispErrorMsg(GetConstMsg(EDC_IN_CHK_DIGIT_ERROR));
 357:src/input.c   ****         return FALSE;
 358:src/input.c   ****       }
 359:src/input.c   ****     }
 360:src/input.c   ****     if ((INPUT.b_entry_mode == ICC)&&EMVProcDisable()) {
 361:src/input.c   ****       DispErrorMsg(GetConstMsg(EDC_IN_SWIPE_CARD));
 362:src/input.c   ****       return FALSE;
 363:src/input.c   ****     }
 364:src/input.c   ****     if (INPUT.b_entry_mode == ICC) {
 365:src/input.c   ****       if (!ValidEMVData()) {
 366:src/input.c   ****         DispErrorMsg(GetConstMsg(EDC_RSP_READ_ERROR));
 367:src/input.c   ****         return FALSE;
 368:src/input.c   ****       }
 369:src/input.c   ****     }
 370:src/input.c   ****     return TRUE;
 371:src/input.c   ****   }
 372:src/input.c   **** 
 373:src/input.c   ****   if (!Trk2Ready() && !Trk1Ready()) {
 374:src/input.c   ****     DispErrorMsg(GetConstMsg(EDC_RSP_READ_ERROR));
ARM GAS  C:\Users\AHMEDH~1\AppData\Local\Temp\cck6gOO5.s 			page 8


 375:src/input.c   ****     return FALSE;
 376:src/input.c   ****   }
 377:src/input.c   ****   if (!Trk2Ready())
 378:src/input.c   ****     INPUT.s_trk2buf.b_len = 0;
 379:src/input.c   ****   if (!Trk1Ready())
 380:src/input.c   ****     INPUT.s_trk1buf.b_len = 0;
 381:src/input.c   **** 
 382:src/input.c   ****   memset(INPUT.sb_pan, 0xFF, 10);
 383:src/input.c   ****   disp_pan[0] = (BYTE) ExtractPAN(INPUT.sb_pan, INPUT.sb_exp_date);
 384:src/input.c   ****   
 385:src/input.c   ****   
 386:src/input.c   **** if (!Expire_diff())
 387:src/input.c   ****     return FALSE;
 388:src/input.c   **** 
 389:src/input.c   **** 
 390:src/input.c   ****   if (!InCardTable())
 391:src/input.c   ****     return FALSE;
 392:src/input.c   **** 
 393:src/input.c   **** 
 394:src/input.c   ****   if ((INPUT.b_entry_mode!=ICC)&&(INPUT.b_entry_mode!=FALLBACK)&&!EMVProcDisable()) {
 395:src/input.c   ****     idx = CardServiceCode();
 396:src/input.c   ****     if (idx == 0) {   // err chk: should be ASCII data
 397:src/input.c   ****       DispErrorMsg(GetConstMsg(EDC_RSP_INVALID_CARD));
 398:src/input.c   ****       return FALSE;
 399:src/input.c   ****     }
 400:src/input.c   ****     if ((idx == '2') || (idx == '6')) {
 401:src/input.c   ****       if (INPUT.b_entry_mode != FALLBACK) {
 402:src/input.c   ****         DispErrorMsg(GetConstMsg(EDC_IN_USE_ICC));
 403:src/input.c   ****         return FALSE; // EMV SMC
 404:src/input.c   ****       }
 405:src/input.c   ****     } else
 406:src/input.c   ****       INPUT.b_entry_mode = SWIPE;
 407:src/input.c   ****   }
 408:src/input.c   ****   if (CheckPAN()) {
 409:src/input.c   ****     split(&disp_pan[1], INPUT.sb_pan, 10);
 410:src/input.c   ****     if (!chk_digit_ok(&disp_pan[1], disp_pan[0])) {
 411:src/input.c   ****       DispErrorMsg(GetConstMsg(EDC_IN_CHK_DIGIT_ERROR));
 412:src/input.c   ****       return FALSE;
 413:src/input.c   ****     }
 414:src/input.c   ****   }
 415:src/input.c   ****   if ((INPUT.s_trk1buf.b_len != 0) && (INPUT.s_trk1buf.b_len != 0xFF)) {
 416:src/input.c   ****     idx = FindSeperator(INPUT.s_trk1buf.sb_content, 0) + 1;
 417:src/input.c   ****     if (idx) {
 418:src/input.c   ****       tlen = FindSeperator(INPUT.s_trk1buf.sb_content, idx);
 419:src/input.c   ****       if ((tlen == 0xFF) || (tlen > sizeof(INPUT.sb_holder_name)))
 420:src/input.c   ****         tlen = sizeof(INPUT.sb_holder_name);
 421:src/input.c   ****       //FormatHolderName(INPUT.sb_holder_name, &INPUT.s_trk1buf.sb_content[idx], (BYTE)tlen);
 422:src/input.c   ****       memcpy(INPUT.sb_holder_name, &INPUT.s_trk1buf.sb_content[idx], (BYTE)tlen);
 423:src/input.c   ****     }
 424:src/input.c   ****   }
 425:src/input.c   ****   if (INPUT.s_trk2buf.b_len == 0)
 426:src/input.c   ****     return TRUE;
 427:src/input.c   ****   else if (isbdigit(&INPUT.s_trk2buf.sb_content[1+disp_pan[0]], 4))
 428:src/input.c   ****     return TRUE;
 429:src/input.c   **** 
 430:src/input.c   ****   DispErrorMsg(GetConstMsg(EDC_IN_INVALID_CARD));
 431:src/input.c   ****   return FALSE;
ARM GAS  C:\Users\AHMEDH~1\AppData\Local\Temp\cck6gOO5.s 			page 9


 432:src/input.c   **** }
 433:src/input.c   **** //*****************************************************************************
 434:src/input.c   **** //  Function        : PromptYesNo
 435:src/input.c   **** //  Description     : Prompt user to Confirm.
 436:src/input.c   **** //  Input           : N/A
 437:src/input.c   **** //  Return          : 0 - Cancel key pressed,
 438:src/input.c   **** //                    1 - Clear key pressed(NO)
 439:src/input.c   **** //                    2 - Enter key pressed(YES)
 440:src/input.c   **** //  Note            : N/A
 441:src/input.c   **** //  Globals Changed : N/A
 442:src/input.c   **** //*****************************************************************************
 443:src/input.c   **** DWORD PromptYesNo(void)
 444:src/input.c   **** {
 445:src/input.c   ****   Disp2x16Msg(GetConstMsg(EDC_IN_CORRECT), MW_LINE5, MW_BIGFONT);
 446:src/input.c   ****   return APM_SelYesNo();
 447:src/input.c   **** }
 448:src/input.c   **** //*****************************************************************************
 449:src/input.c   **** //  Function        : GetAuthCode
 450:src/input.c   **** //  Description     : Prompt user to entry authorization code.
 451:src/input.c   **** //  Input           : N/A
 452:src/input.c   **** //  Return          : TRUE;  // valid Input.
 453:src/input.c   **** //                    FALSE; // user cancel
 454:src/input.c   **** //  Note            : N/A
 455:src/input.c   **** //  Globals Changed : RSP_DATA.w_rspcode;
 456:src/input.c   **** //*****************************************************************************
 457:src/input.c   **** BOOLEAN GetAuthCode(void)
 458:src/input.c   **** {
 459:src/input.c   ****   BYTE kbdbuf[32];
 460:src/input.c   ****   BYTE *pbTlv;
 461:src/input.c   ****   DWORD ecrdata_len;
 462:src/input.c   **** 
 463:src/input.c   ****   // ECR data ready
 464:src/input.c   ****   if (gGDS->i_ecr_len >= 2) {
 465:src/input.c   ****     ecrdata_len = gGDS->i_ecr_len - 2;
 466:src/input.c   ****     if (ecrdata_len) {
 467:src/input.c   ****       pbTlv = TlvSeek(gGDS->s_ecr_data.sb_content, ecrdata_len, ECRTAG_AUTH_RESP);
 468:src/input.c   ****       if (pbTlv != NULL) {
 469:src/input.c   ****         TlvVPtr(pbTlv);
 470:src/input.c   ****         kbdbuf[0] = TlvLen(pbTlv);
 471:src/input.c   ****         if (kbdbuf[0] > 6)
 472:src/input.c   ****           kbdbuf[0] = 6;
 473:src/input.c   ****         memset(RSP_DATA.sb_auth_code, ' ',6);
 474:src/input.c   ****         memcpy(RSP_DATA.sb_auth_code, TlvVPtr(pbTlv), kbdbuf[0]);
 475:src/input.c   ****         return TRUE;
 476:src/input.c   ****       }
 477:src/input.c   ****     }
 478:src/input.c   ****   }
 479:src/input.c   ****   while (1) {
 480:src/input.c   ****     kbdbuf[0] = 0;
 481:src/input.c   ****     Disp2x16Msg(GetConstMsg(EDC_IN_APP_CODE), MW_LINE3, MW_BIGFONT);
 482:src/input.c   ****     if (!APM_GetKbd(ALPHA_INPUT+ECHO+MW_BIGFONT+MW_LINE7+RIGHT_JUST, IMIN(2)+IMAX(6), kbdbuf))
 483:src/input.c   ****       return 0;
 484:src/input.c   ****     if (kbdbuf[0] >= 2) {
 485:src/input.c   ****       memset(RSP_DATA.sb_auth_code, ' ',6);
 486:src/input.c   ****       memcpy(RSP_DATA.sb_auth_code, &kbdbuf[1], kbdbuf[0]);
 487:src/input.c   ****       return 1;
 488:src/input.c   ****     }
ARM GAS  C:\Users\AHMEDH~1\AppData\Local\Temp\cck6gOO5.s 			page 10


 489:src/input.c   ****   }
 490:src/input.c   **** }
 491:src/input.c   **** //*****************************************************************************
 492:src/input.c   **** //  Function        : GetAmount
 493:src/input.c   **** //  Description     : Prompt user to input amount.
 494:src/input.c   **** //  Input           : aTipsNeeded;   // TRUE => also prompt tips.
 495:src/input.c   **** //                    aFirstKey;     // first key pressed
 496:src/input.c   **** //  Return          : TRUE;  // valid input.
 497:src/input.c   **** //                    FALSE; // user cancel
 498:src/input.c   **** //  Note            : N/A
 499:src/input.c   **** //  Globals Changed : N/A
 500:src/input.c   **** //*****************************************************************************
 501:src/input.c   **** BOOLEAN GetAmount(BOOLEAN aTipsNeeded, DWORD aFirstKey)
 502:src/input.c   **** {
 503:src/input.c   ****   BYTE kbdbuf[32];
 504:src/input.c   ****   DWORD ecrdata_len;
 505:src/input.c   **** 
 506:src/input.c   ****   INPUT.dd_tip=0;
 507:src/input.c   **** 
 508:src/input.c   ****   // ECR data ready
 509:src/input.c   ****   if (gGDS->i_ecr_len >= 2) {
 510:src/input.c   ****     ecrdata_len = gGDS->i_ecr_len - 2;
 511:src/input.c   ****     if (ecrdata_len) {
 512:src/input.c   ****       INPUT.dd_amount = EcrGetAmount();
 513:src/input.c   ****       if (INPUT.dd_amount != 0)
 514:src/input.c   ****         return TRUE;
 515:src/input.c   ****     }
 516:src/input.c   ****   }
 517:src/input.c   ****   if (STIS_TERM_DATA.dd_default_amount!=0) {
 518:src/input.c   ****     INPUT.dd_amount = STIS_TERM_DATA.dd_default_amount;
 519:src/input.c   ****     return TRUE;
 520:src/input.c   ****   }
 521:src/input.c   **** 
 522:src/input.c   ****   DispClrBelowMW(MW_LINE3);
 523:src/input.c   ****   APM_SetKbdTimeout(KBD_TIMEOUT);
 524:src/input.c   ****   while (1) {
 525:src/input.c   ****     if (aTipsNeeded)
 526:src/input.c   ****       Disp2x16Msg(GetConstMsg(EDC_IN_BASE_AMT), MW_LINE3, MW_BIGFONT);
 527:src/input.c   ****     else
 528:src/input.c   ****       Disp2x16Msg(GetConstMsg(EDC_IN_ENTER_AMOUNT), MW_LINE3, MW_BIGFONT);
 529:src/input.c   **** 
 530:src/input.c   ****      kbdbuf[0] = aFirstKey? 5: 4;
 531:src/input.c   ****   //  memcpy(&kbdbuf[1], STIS_TERM_CFG.sb_currency_name, 3);
 532:src/input.c   ****     memcpy(&kbdbuf[1],gCurInfo[INPUT.currency].name, 3);                               //15-10-15 J
 533:src/input.c   ****     kbdbuf[4] = ' ';//STIS_TERM_CFG.b_currency;
 534:src/input.c   ****     kbdbuf[5] = (BYTE)aFirstKey;
 535:src/input.c   ****     if (!APM_GetKbd(PREFIX_ENB+ECHO+AMOUNT_INPUT+MW_BIGFONT+MW_LINE7+KDecimalPos[STIS_TERM_CFG.b_de
 536:src/input.c   ****                     IMIN(1)+IMAX(STIS_TERM_CFG.b_trans_amount_len),  kbdbuf))
 537:src/input.c   ****       return 0;
 538:src/input.c   **** 
 539:src/input.c   ****     if (STIS_TERM_CFG.b_decimal_pos < 2) {  // 8583 expect 2 decimal pos.
 540:src/input.c   ****       memset(&kbdbuf[kbdbuf[0]+1], '0', 2);
 541:src/input.c   ****       kbdbuf[0] += (2-STIS_TERM_CFG.b_decimal_pos);
 542:src/input.c   ****     }
 543:src/input.c   ****     INPUT.dd_amount = decbin8b(&kbdbuf[1], kbdbuf[0]);
 544:src/input.c   **** 
 545:src/input.c   ****     if (!aTipsNeeded || !PromptTips())
ARM GAS  C:\Users\AHMEDH~1\AppData\Local\Temp\cck6gOO5.s 			page 11


 546:src/input.c   ****       return 1;
 547:src/input.c   **** 
 548:src/input.c   ****     Disp2x16Msg(GetConstMsg(EDC_IN_ENTER_TIPS), MW_LINE3, MW_BIGFONT);
 549:src/input.c   ****     if (!APM_GetKbd(AMOUNT_INPUT+MW_BIGFONT+MW_LINE7+KDecimalPos[STIS_TERM_CFG.b_decimal_pos], 
 550:src/input.c   ****                     IMIN(1)+IMAX(STIS_TERM_CFG.b_trans_amount_len),  kbdbuf))
 551:src/input.c   ****       return 0;
 552:src/input.c   ****     if (kbdbuf[0] == 0)
 553:src/input.c   ****       INPUT.dd_tip = 0;
 554:src/input.c   ****     else {
 555:src/input.c   ****       if (STIS_TERM_CFG.b_decimal_pos < 2) {  // 8583 expect 2 decimal pos.
 556:src/input.c   ****         memset(&kbdbuf[kbdbuf[0]+1], '0', 2);
 557:src/input.c   ****         kbdbuf[0] += (2-STIS_TERM_CFG.b_decimal_pos);
 558:src/input.c   ****       }
 559:src/input.c   ****       INPUT.dd_tip = decbin8b(&kbdbuf[1], kbdbuf[0]);
 560:src/input.c   ****     }
 561:src/input.c   **** 
 562:src/input.c   ****     if (OverMargin()) {
 563:src/input.c   ****       DispErrorMsg(GetConstMsg(EDC_IN_INV_TIPS));
 564:src/input.c   ****       return(FALSE);
 565:src/input.c   ****     }
 566:src/input.c   **** 
 567:src/input.c   ****     INPUT.dd_amount+=INPUT.dd_tip;
 568:src/input.c   ****     DispLineMW(GetConstMsg(EDC_IN_TOTAL_PROMPT), MW_LINE1, MW_CLRDISP|MW_BIGFONT);
 569:src/input.c   ****     DispAmount(INPUT.dd_amount, MW_LINE3, MW_BIGFONT);
 570:src/input.c   ****     switch (PromptYesNo()) {
 571:src/input.c   ****       case 0: /* cancel key */
 572:src/input.c   ****         return FALSE;
 573:src/input.c   ****       case 2:
 574:src/input.c   ****         return TRUE;
 575:src/input.c   ****     }
 576:src/input.c   ****   }
 577:src/input.c   **** }
 578:src/input.c   **** 
 579:src/input.c   **** //*****************************************************************************
 580:src/input.c   **** //  Function        : Expire_diff
 581:src/input.c   **** //  Description     : return true id allow expire date
 582:src/input.c   **** //  Input           : N/A
 583:src/input.c   **** //  Return          : TRUE;  // valid input
 584:src/input.c   **** //                    FALSE; // user cancel
 585:src/input.c   **** //  Note            : N/A
 586:src/input.c   **** //  Globals Changed : N/A
 587:src/input.c   **** //*****************************************************************************
 588:src/input.c   **** BOOLEAN Expire_diff(void)
 589:src/input.c   **** {
 590:src/input.c   **** struct DATETIME dtg;
 591:src/input.c   **** DWORD var_i, var_j;
 592:src/input.c   ****  ReadRTC(&dtg);
 593:src/input.c   ****       var_i = (BYTE)bcd2bin(dtg.b_year);
 594:src/input.c   ****       var_j = (BYTE)bcd2bin(INPUT.sb_exp_date[0]);
 595:src/input.c   ****       if (var_i == var_j) {
 596:src/input.c   ****         if (INPUT.sb_exp_date[1] >= dtg.b_month)
 597:src/input.c   ****           return TRUE;
 598:src/input.c   **** 	  }else if(var_i > var_j){
 599:src/input.c   **** 	   return TRUE;
 600:src/input.c   **** 	  }
 601:src/input.c   ****   DispErrorMsg(GetConstMsg(EDC_IN_CARD_EXPIRED));
 602:src/input.c   ****    if (APM_WaitKey(KBD_TIMEOUT, 300) == MWKEY_ENTER) {  
ARM GAS  C:\Users\AHMEDH~1\AppData\Local\Temp\cck6gOO5.s 			page 12


 603:src/input.c   ****    }
 604:src/input.c   **** 	//  return FALSE;
 605:src/input.c   ****    return TRUE;
 606:src/input.c   **** 
 607:src/input.c   **** }
 608:src/input.c   **** 
 609:src/input.c   **** //*****************************************************************************
 610:src/input.c   **** //  Function        : GetExpDate
 611:src/input.c   **** //  Description     : Prompt user to input card expire date.
 612:src/input.c   **** //  Input           : N/A
 613:src/input.c   **** //  Return          : TRUE;  // valid input
 614:src/input.c   **** //                    FALSE; // user cancel
 615:src/input.c   **** //  Note            : N/A
 616:src/input.c   **** //  Globals Changed : N/A
 617:src/input.c   **** //*****************************************************************************
 618:src/input.c   **** BOOLEAN GetExpDate(void)
 619:src/input.c   **** {
 620:src/input.c   ****   struct DATETIME dtg;
 621:src/input.c   ****   DWORD var_i, var_j;
 622:src/input.c   ****   BYTE kbdbuf[31];
 623:src/input.c   **** 
 624:src/input.c   ****   INPUT.b_card_expired = FALSE;
 625:src/input.c   ****   if (!ExpDateReqd()) {
 626:src/input.c   ****    // memset(INPUT.sb_exp_date, 0, sizeof(INPUT.sb_exp_date));
 627:src/input.c   ****     return TRUE;
 628:src/input.c   ****   }
 629:src/input.c   ****   while (1) {
 630:src/input.c   ****     if (INPUT.b_entry_mode == MANUAL) {
 631:src/input.c   ****       kbdbuf[0] = 0;
 632:src/input.c   ****       Disp2x16Msg(GetConstMsg(EDC_IN_EXPIRY_DATE), MW_LINE3, MW_BIGFONT);
 633:src/input.c   ****       if (!APM_GetKbd(NUMERIC_INPUT+ECHO+MW_BIGFONT+MW_LINE7+RIGHT_JUST,IMIN(4)+IMAX(4), kbdbuf))
 634:src/input.c   ****         return FALSE;
 635:src/input.c   ****       compress(&kbdbuf[5],&kbdbuf[1], 2);
 636:src/input.c   ****       INPUT.sb_exp_date[0] = kbdbuf[6];  // YY
 637:src/input.c   ****       INPUT.sb_exp_date[1] = kbdbuf[5];  // MM
 638:src/input.c   ****       if (((kbdbuf[6] & 0xf) > 9)  || (kbdbuf[6] > 0x99) ||
 639:src/input.c   ****           ((kbdbuf[5] & 0xf) > 9)  || !(kbdbuf[5]) || (kbdbuf[5] > 0x12) ) {
 640:src/input.c   ****         DispErrorMsg(GetConstMsg(EDC_IN_INV_EXPIRE));
 641:src/input.c   ****         continue;
 642:src/input.c   ****       }
 643:src/input.c   ****     }
 644:src/input.c   **** 
 645:src/input.c   ****     if ((var_i= (BYTE)(INPUT.sb_exp_date[1])) &&
 646:src/input.c   ****         (var_i < 0x13) && ((var_i & 0xf) < 0xa)) {
 647:src/input.c   ****       if (!CheckExpDate())
 648:src/input.c   ****         return TRUE;
 649:src/input.c   **** 
 650:src/input.c   ****       ReadRTC(&dtg);
 651:src/input.c   ****       var_i = (BYTE)bcd2bin(dtg.b_year);
 652:src/input.c   ****       var_j = (BYTE)bcd2bin(INPUT.sb_exp_date[0]);
 653:src/input.c   ****       if (var_i == var_j) {
 654:src/input.c   ****         if (INPUT.sb_exp_date[1] >= dtg.b_month)
 655:src/input.c   ****           return TRUE;
 656:src/input.c   ****       } else if (var_i > 49) {  // 1950-1999
 657:src/input.c   ****         if ((var_j < 50 ) || (var_j > var_i))
 658:src/input.c   ****           return TRUE;
 659:src/input.c   ****       } else { // 2000-2049
ARM GAS  C:\Users\AHMEDH~1\AppData\Local\Temp\cck6gOO5.s 			page 13


 660:src/input.c   ****         if ((var_j > var_i) && (var_j < 50))
 661:src/input.c   ****           return TRUE;
 662:src/input.c   ****       }
 663:src/input.c   ****     }
 664:src/input.c   **** 
 665:src/input.c   ****     DispErrorMsg(GetConstMsg(EDC_IN_CARD_EXPIRED));
 666:src/input.c   ****     if (!ExpiryReject()) {
 667:src/input.c   ****       INPUT.b_card_expired = TRUE;
 668:src/input.c   ****       return TRUE;
 669:src/input.c   ****     }
 670:src/input.c   **** 
 671:src/input.c   ****     if (INPUT.b_entry_mode != MANUAL)
 672:src/input.c   ****       return FALSE;
 673:src/input.c   ****   }
 674:src/input.c   **** }
 675:src/input.c   **** //*****************************************************************************
 676:src/input.c   **** //  Function        : GetProductCode
 677:src/input.c   **** //  Description     : Prompt user to entry product code.
 678:src/input.c   **** //  Input           : N/A
 679:src/input.c   **** //  Return          : TRUE;  // valid INPUT.
 680:src/input.c   **** //                    FALSE; // user cancel
 681:src/input.c   **** //  Note            : N/A
 682:src/input.c   **** //  Globals Changed : N/A
 683:src/input.c   **** //*****************************************************************************
 684:src/input.c   **** BOOLEAN GetProductCode(void)
 685:src/input.c   **** {
 686:src/input.c   ****   DWORD keyin, max_select, line_no;
 687:src/input.c   ****   BYTE  i, offset, start_offset, select_cnt;
 688:src/input.c   ****   BYTE  tmp[MW_MAX_LINESIZE+1];
 689:src/input.c   ****   struct PRODUCT *product_select;
 690:src/input.c   **** 
 691:src/input.c   ****   memset(INPUT.sb_product, 0xFF, sizeof(INPUT.sb_product));
 692:src/input.c   ****   if (!DescriptorReqd())
 693:src/input.c   ****     return TRUE;
 694:src/input.c   **** 
 695:src/input.c   ****   max_select = APM_GetDescCount();
 696:src/input.c   ****   if (max_select == 0)
 697:src/input.c   ****     return TRUE;
 698:src/input.c   **** 
 699:src/input.c   ****   if (max_select == 1) {
 700:src/input.c   ****     INPUT.sb_product[0]=0;
 701:src/input.c   ****     return TRUE;
 702:src/input.c   ****   }
 703:src/input.c   **** 
 704:src/input.c   ****   product_select = (struct PRODUCT *) MallocMW(sizeof(struct PRODUCT) * max_select);
 705:src/input.c   ****   memset(product_select, 0, sizeof(struct PRODUCT)*max_select);
 706:src/input.c   **** 
 707:src/input.c   ****   offset = 0;
 708:src/input.c   ****   for (i=0; i<max_select; i++) {
 709:src/input.c   ****     offset = i;
 710:src/input.c   ****     APM_GetDescTbl(i, &product_select[i].s_prod);
 711:src/input.c   ****   }
 712:src/input.c   **** 
 713:src/input.c   ****   DispLineMW(GetConstMsg(EDC_IN_ENTER_DESC), MW_LINE1, MW_CLRDISP|MW_REVERSE|MW_CENTER|MW_BIGFONT);
 714:src/input.c   ****   line_no = MW_LINE3;
 715:src/input.c   ****   start_offset = offset = 0;
 716:src/input.c   ****   select_cnt = 0;
ARM GAS  C:\Users\AHMEDH~1\AppData\Local\Temp\cck6gOO5.s 			page 14


 717:src/input.c   ****   do {
 718:src/input.c   ****     DispClrBelowMW(MW_LINE3);
 719:src/input.c   ****     while ((line_no<MW_MAX_LINE)&&(offset<max_select)) {
 720:src/input.c   ****       memset(tmp, ' ', sizeof(tmp));
 721:src/input.c   ****       tmp[MW_MAX_LINESIZE] = 0;
 722:src/input.c   ****       tmp[0] = product_select[offset].s_prod.b_key;
 723:src/input.c   ****       tmp[1] = ' ';
 724:src/input.c   ****       memcpy(&tmp[2], product_select[offset].s_prod.sb_text, 19);
 725:src/input.c   ****       DispLineMW(tmp, line_no, (product_select[offset].b_selected?MW_REVERSE:0)|MW_SPFONT);
 726:src/input.c   ****       line_no += (MW_LINE3-MW_LINE2);
 727:src/input.c   ****       offset++;
 728:src/input.c   ****     }
 729:src/input.c   ****     if (max_select > 5) {
 730:src/input.c   ****       if (offset < max_select) {
 731:src/input.c   ****         DispLineMW("<CLR>Down<ENT>Confirm", MW_MAX_LINE, MW_REVERSE|MW_SPFONT);
 732:src/input.c   ****       }
 733:src/input.c   ****       else {
 734:src/input.c   ****         DispLineMW("<CLR>Up  <ENT>Confirm", MW_MAX_LINE, MW_REVERSE|MW_SPFONT);
 735:src/input.c   ****       }
 736:src/input.c   ****     }
 737:src/input.c   ****     else
 738:src/input.c   ****       DispLineMW("         <ENT>Confirm", MW_MAX_LINE, MW_REVERSE|MW_SPFONT);
 739:src/input.c   **** 
 740:src/input.c   ****     keyin = APM_WaitKey(KBD_TIMEOUT, 0);
 741:src/input.c   ****     if ((keyin>='0')&&(keyin<='0'+max_select)) {
 742:src/input.c   ****       for (i=0; i < max_select; i++) {
 743:src/input.c   ****         if (product_select[i].s_prod.b_key == keyin) {
 744:src/input.c   ****           if ((!product_select[i].b_selected) && (select_cnt == 4)) {
 745:src/input.c   ****             LongBeep();
 746:src/input.c   ****             break;
 747:src/input.c   ****           }
 748:src/input.c   ****           product_select[i].b_selected = product_select[i].b_selected ? FALSE: TRUE;
 749:src/input.c   ****           select_cnt += product_select[i].b_selected?1:-1;
 750:src/input.c   ****           break;
 751:src/input.c   ****         }
 752:src/input.c   ****       }
 753:src/input.c   ****       if (i == max_select)
 754:src/input.c   ****         LongBeep();
 755:src/input.c   ****     }
 756:src/input.c   ****     if ((keyin == MWKEY_ENTER)&&(select_cnt>0))
 757:src/input.c   ****       break;
 758:src/input.c   ****     if (keyin == MWKEY_CLR)
 759:src/input.c   ****       start_offset=offset = (offset == max_select) ? 0 : offset;
 760:src/input.c   ****     else
 761:src/input.c   ****       offset = start_offset;
 762:src/input.c   ****     line_no = MW_LINE3;
 763:src/input.c   ****   } while (keyin != MWKEY_CANCL);
 764:src/input.c   **** 
 765:src/input.c   ****   if (keyin == MWKEY_CANCL) {
 766:src/input.c   ****     FreeMW(product_select);
 767:src/input.c   ****     return FALSE;
 768:src/input.c   ****   }
 769:src/input.c   **** 
 770:src/input.c   ****   offset=0;
 771:src/input.c   ****   for (i=0; i < max_select; i++) {
 772:src/input.c   ****     if (select_cnt == offset)
 773:src/input.c   ****       break;
ARM GAS  C:\Users\AHMEDH~1\AppData\Local\Temp\cck6gOO5.s 			page 15


 774:src/input.c   ****     if (product_select[i].b_selected) {
 775:src/input.c   ****       INPUT.sb_product[offset]=i;
 776:src/input.c   ****       offset++;
 777:src/input.c   ****     }
 778:src/input.c   ****   }
 779:src/input.c   ****   FreeMW(product_select);
 780:src/input.c   ****   return TRUE;
 781:src/input.c   **** }
 782:src/input.c   **** //*****************************************************************************
 783:src/input.c   **** //  Function        : Get4DBC
 784:src/input.c   **** //  Description     : Prompt user to entry 4DBC number.
 785:src/input.c   **** //  Input           : N/A
 786:src/input.c   **** //  Return          : TRUE/FALSE;  // valid input or cancel
 787:src/input.c   **** //  Note            : N/A
 788:src/input.c   **** //  Globals Changed : INPUT.b_entry_mode;
 789:src/input.c   **** //*****************************************************************************
 790:src/input.c   **** BOOLEAN Get4DBC(void)
 791:src/input.c   **** {
 792:src/input.c   ****   BYTE kbdbuf[32];
 793:src/input.c   **** 
 794:src/input.c   ****   DispHeader(NULL);
 795:src/input.c   ****   Disp2x16Msg(GetConstMsg(EDC_IN_4DBC), MW_LINE3, MW_BIGFONT);
 796:src/input.c   ****   kbdbuf[0] = 0;
 797:src/input.c   ****   memset(INPUT.sb_amex_4DBC, 0x00, sizeof(INPUT.sb_amex_4DBC));
 798:src/input.c   ****   if (!APM_GetKbd(NUMERIC_INPUT+MW_BIGFONT+MW_LINE7+RIGHT_JUST, IMIN(4)+IMAX(4), kbdbuf))
 799:src/input.c   ****     return FALSE;
 800:src/input.c   **** 
 801:src/input.c   ****   memcpy(INPUT.sb_amex_4DBC, &kbdbuf[1], kbdbuf[0]);
 802:src/input.c   ****   switch (INPUT.b_entry_mode) {
 803:src/input.c   ****     case MANUAL:
 804:src/input.c   ****       INPUT.b_entry_mode = MANUAL_4DBC;
 805:src/input.c   ****       break;
 806:src/input.c   ****     case SWIPE:
 807:src/input.c   ****       INPUT.b_entry_mode = SWIPE_4DBC;
 808:src/input.c   ****       break;
 809:src/input.c   ****     case FALLBACK:
 810:src/input.c   ****       INPUT.b_entry_mode = FALLBACK_4DBC;
 811:src/input.c   ****       break;
 812:src/input.c   ****   }
 813:src/input.c   ****   return TRUE;
 814:src/input.c   **** }
 815:src/input.c   **** //*****************************************************************************
 816:src/input.c   **** //  Function        : SearchRecord
 817:src/input.c   **** //  Description     : Search roc number in batch.
 818:src/input.c   **** //  Input           : aIncVoidTxn;      // Include Voided transaction.
 819:src/input.c   **** //  Return          : -1;               // Not Found
 820:src/input.c   **** //                    other value;      // index of record with same roc no.
 821:src/input.c   **** //  Note            : N/A
 822:src/input.c   **** //  Globals Changed : N/A
 823:src/input.c   **** //*****************************************************************************
 824:src/input.c   **** int SearchRecord(BOOLEAN aIncVoidTxn)
 825:src/input.c   **** {
 826:src/input.c   ****   BYTE kbdbuf[MAX_INPUT_LEN+1];
 827:src/input.c   ****   int   rec_idx;
 828:src/input.c   **** 
 829:src/input.c   ****   RSP_DATA.w_rspcode = '7'*256+'8';
 830:src/input.c   ****   while (1) {
ARM GAS  C:\Users\AHMEDH~1\AppData\Local\Temp\cck6gOO5.s 			page 16


 831:src/input.c   ****     kbdbuf[0] = 0;
 832:src/input.c   ****     DispClrBelowMW(MW_LINE3);
 833:src/input.c   ****     Disp2x16Msg(GetConstMsg(EDC_IN_TRACE), MW_LINE3, MW_BIGFONT);
 834:src/input.c   ****     if (!APM_GetKbd(NUMERIC_INPUT+ECHO+JUSTIFIED+MW_BIGFONT+MW_LINE7+RIGHT_JUST, IMIN(6)+IMAX(6), k
 835:src/input.c   ****       return -1;
 836:src/input.c   ****     CompressInputData(&kbdbuf[7], kbdbuf, 3);
 837:src/input.c   ****     rec_idx = APM_TraceInBatch(&kbdbuf[7]);
 838:src/input.c   ****     if (rec_idx != -1) {
 839:src/input.c   ****       APM_GetBatchRec(rec_idx, &RECORD_BUF, sizeof(RECORD_BUF));
 840:src/input.c   ****       ClearRspData();
 841:src/input.c   ****       memcpy(INPUT.sb_pan, RECORD_BUF.sb_pan, 10);
 842:src/input.c   ****       if (InCardTable()) {
 843:src/input.c   ****         if (((RECORD_BUF.b_trans_status & VOIDED) != 0) && (!aIncVoidTxn)) {
 844:src/input.c   ****           RSP_DATA.w_rspcode = 'V'*256+'D';
 845:src/input.c   ****           return -1;
 846:src/input.c   ****         }
 847:src/input.c   ****         memcpy(INPUT.sb_trace_no, &kbdbuf[7], 3);
 848:src/input.c   ****         return rec_idx;
 849:src/input.c   ****       }
 850:src/input.c   ****       else {
 851:src/input.c   ****         RSP_DATA.w_rspcode = '1'*256+'4';
 852:src/input.c   ****       }
 853:src/input.c   ****     }
 854:src/input.c   ****     DispClrBelowMW(MW_LINE3);
 855:src/input.c   ****     DispRspText(FALSE);
 856:src/input.c   ****     ErrorDelay();
 857:src/input.c   ****   }
 858:src/input.c   **** }
 859:src/input.c   **** //*****************************************************************************
 860:src/input.c   **** //  Function        : DispKeyinPAN
 861:src/input.c   **** //  Description     : Display the keyin PAN.
 862:src/input.c   **** //  Input           : aPan;  // pointer to buffer with 1st byte = len;
 863:src/input.c   **** //  Return          : N/A
 864:src/input.c   **** //  Note            : N/A
 865:src/input.c   **** //  Globals Changed : N/A
 866:src/input.c   **** //*****************************************************************************
 867:src/input.c   **** static void DispKeyinPAN(BYTE *aPan)
 868:src/input.c   **** {
  26              		.loc 1 868 0
  27              		.cfi_startproc
  28              		@ args = 0, pretend = 0, frame = 32
  29              		@ frame_needed = 0, uses_anonymous_args = 0
  30              	.LVL0:
 869:src/input.c   ****   BYTE tmpbuf[MW_MAX_LINESIZE+1];
 870:src/input.c   **** 
 871:src/input.c   ****   memcpy(tmpbuf, &aPan[1], aPan[0]);
  31              		.loc 1 871 0
  32 0000 0146     		mov	r1, r0
 868:src/input.c   ****   BYTE tmpbuf[MW_MAX_LINESIZE+1];
  33              		.loc 1 868 0
  34 0002 70B5     		push	{r4, r5, r6, lr}
  35              		.cfi_def_cfa_offset 16
  36              		.cfi_offset 4, -16
  37              		.cfi_offset 5, -12
  38              		.cfi_offset 6, -8
  39              		.cfi_offset 14, -4
  40 0004 8AB0     		sub	sp, sp, #40
ARM GAS  C:\Users\AHMEDH~1\AppData\Local\Temp\cck6gOO5.s 			page 17


  41              		.cfi_def_cfa_offset 56
  42              		.loc 1 871 0
  43 0006 11F8014B 		ldrb	r4, [r1], #1	@ zero_extendqisi2
 868:src/input.c   ****   BYTE tmpbuf[MW_MAX_LINESIZE+1];
  44              		.loc 1 868 0
  45 000a 0546     		mov	r5, r0
  46              		.loc 1 871 0
  47 000c 2246     		mov	r2, r4
  48 000e 03A8     		add	r0, sp, #12
  49              	.LVL1:
  50 0010 FFF7FEFF 		bl	memcpy
  51              	.LVL2:
 872:src/input.c   ****   tmpbuf[aPan[0]] = 0;
  52              		.loc 1 872 0
  53 0014 0AAB     		add	r3, sp, #40
  54 0016 2344     		add	r3, r3, r4
  55 0018 0024     		movs	r4, #0
 873:src/input.c   ****   DispClrBelowMW(MW_LINE7);
  56              		.loc 1 873 0
  57 001a 0F20     		movs	r0, #15
 872:src/input.c   ****   tmpbuf[aPan[0]] = 0;
  58              		.loc 1 872 0
  59 001c 03F81C4C 		strb	r4, [r3, #-28]
  60              		.loc 1 873 0
  61 0020 2321     		movs	r1, #35
  62 0022 2346     		mov	r3, r4
  63 0024 0094     		str	r4, [sp]
  64 0026 4FF4E062 		mov	r2, #1792
  65 002a FFF7FEFF 		bl	lib_app_call
  66              	.LVL3:
 874:src/input.c   ****   if (aPan[0] <= MW_NOR_LINESIZE) {
  67              		.loc 1 874 0
  68 002e 2B78     		ldrb	r3, [r5]	@ zero_extendqisi2
  69              	.LBB2:
 875:src/input.c   ****     DispLineMW(tmpbuf, MW_LINE7, MW_RIGHT|MW_BIGFONT); 
  70              		.loc 1 875 0
  71 0030 03A8     		add	r0, sp, #12
  72              	.LBE2:
 874:src/input.c   ****   if (aPan[0] <= MW_NOR_LINESIZE) {
  73              		.loc 1 874 0
  74 0032 142B     		cmp	r3, #20
  75 0034 10D8     		bhi	.L2
  76              	.LBB3:
  77              		.loc 1 875 0
  78 0036 FFF7FEFF 		bl	strlen
  79              	.LVL4:
  80 003a 0646     		mov	r6, r0
  81              	.LVL5:
  82 003c 711C     		adds	r1, r6, #1
  83 003e 9220     		movs	r0, #146
  84              	.LVL6:
  85 0040 FFF7FEFF 		bl	sys_func1
  86              	.LVL7:
  87 0044 0546     		mov	r5, r0
  88              	.LVL8:
  89 0046 18B3     		cbz	r0, .L1
  90              		.loc 1 875 0 is_stmt 0 discriminator 1
ARM GAS  C:\Users\AHMEDH~1\AppData\Local\Temp\cck6gOO5.s 			page 18


  91 0048 03A9     		add	r1, sp, #12
  92 004a 3246     		mov	r2, r6
  93 004c FFF7FEFF 		bl	memcpy
  94              	.LVL9:
  95 0050 AC55     		strb	r4, [r5, r6]
  96 0052 41F20103 		movw	r3, #4097
  97 0056 0FE0     		b	.L9
  98              	.LVL10:
  99              	.L2:
 100              	.LBE3:
 101              	.LBB4:
 876:src/input.c   ****   }
 877:src/input.c   ****   else {
 878:src/input.c   **** 	  DispLineMW(tmpbuf, MW_LINE7, MW_RIGHT|MW_SPFONT); 
 102              		.loc 1 878 0 is_stmt 1
 103 0058 FFF7FEFF 		bl	strlen
 104              	.LVL11:
 105 005c 0646     		mov	r6, r0
 106              	.LVL12:
 107 005e 711C     		adds	r1, r6, #1
 108 0060 9220     		movs	r0, #146
 109              	.LVL13:
 110 0062 FFF7FEFF 		bl	sys_func1
 111              	.LVL14:
 112 0066 0546     		mov	r5, r0
 113              	.LVL15:
 114 0068 90B1     		cbz	r0, .L1
 115              		.loc 1 878 0 is_stmt 0 discriminator 1
 116 006a 03A9     		add	r1, sp, #12
 117 006c 3246     		mov	r2, r6
 118 006e FFF7FEFF 		bl	memcpy
 119              	.LVL16:
 120 0072 42F20103 		movw	r3, #8193
 121 0076 AC55     		strb	r4, [r5, r6]
 122              	.LVL17:
 123              	.L9:
 124 0078 0093     		str	r3, [sp]
 125 007a 2521     		movs	r1, #37
 126 007c 0F20     		movs	r0, #15
 127 007e 2A46     		mov	r2, r5
 128 0080 4FF4E063 		mov	r3, #1792
 129 0084 FFF7FEFF 		bl	lib_app_call
 130              	.LVL18:
 131 0088 9420     		movs	r0, #148
 132 008a 2946     		mov	r1, r5
 133 008c FFF7FEFF 		bl	sys_func1
 134              	.LVL19:
 135              	.L1:
 136              	.LBE4:
 879:src/input.c   ****   }
 880:src/input.c   **** }
 137              		.loc 1 880 0 is_stmt 1
 138 0090 0AB0     		add	sp, sp, #40
 139              		.cfi_def_cfa_offset 16
 140              		@ sp needed
 141 0092 70BD     		pop	{r4, r5, r6, pc}
 142              		.cfi_endproc
ARM GAS  C:\Users\AHMEDH~1\AppData\Local\Temp\cck6gOO5.s 			page 19


 143              	.LFE16:
 144              		.size	DispKeyinPAN, .-DispKeyinPAN
 145              		.section	.text.FindSeperator.constprop.2,"ax",%progbits
 146              		.align	1
 147              		.thumb
 148              		.thumb_func
 149              		.type	FindSeperator.constprop.2, %function
 150              	FindSeperator.constprop.2:
 151              	.LFB23:
 115:src/input.c   **** {
 152              		.loc 1 115 0
 153              		.cfi_startproc
 154              		@ args = 0, pretend = 0, frame = 0
 155              		@ frame_needed = 0, uses_anonymous_args = 0
 156              	.LVL20:
 157 0000 0146     		mov	r1, r0
 158 0002 10B5     		push	{r4, lr}
 159              		.cfi_def_cfa_offset 8
 160              		.cfi_offset 4, -8
 161              		.cfi_offset 14, -4
 115:src/input.c   **** {
 162              		.loc 1 115 0
 163 0004 0023     		movs	r3, #0
 164              	.LVL21:
 165              	.L13:
 166 0006 094A     		ldr	r2, .L19
 167 0008 5C18     		adds	r4, r3, r1
 168 000a 2244     		add	r2, r2, r4
 169 000c D8B2     		uxtb	r0, r3
 170              	.LVL22:
 121:src/input.c   ****     //  *, ;, =, ^
 171              		.loc 1 121 0
 172 000e 92F80122 		ldrb	r2, [r2, #513]	@ zero_extendqisi2
 173              	.LVL23:
 123:src/input.c   ****       return i;
 174              		.loc 1 123 0
 175 0012 2A2A     		cmp	r2, #42
 176 0014 09D0     		beq	.L12
 177 0016 3B2A     		cmp	r2, #59
 178 0018 07D0     		beq	.L12
 179 001a 3D2A     		cmp	r2, #61
 180 001c 05D0     		beq	.L12
 181 001e 5E2A     		cmp	r2, #94
 182 0020 03D0     		beq	.L12
 183              	.LVL24:
 184 0022 0133     		adds	r3, r3, #1
 185              	.LVL25:
 120:src/input.c   ****     val = aBuf[i+aIdx];
 186              		.loc 1 120 0
 187 0024 172B     		cmp	r3, #23
 188 0026 EED1     		bne	.L13
 126:src/input.c   **** }
 189              		.loc 1 126 0
 190 0028 FF20     		movs	r0, #255
 191              	.LVL26:
 192              	.L12:
 127:src/input.c   **** //*****************************************************************************
ARM GAS  C:\Users\AHMEDH~1\AppData\Local\Temp\cck6gOO5.s 			page 20


 193              		.loc 1 127 0
 194 002a 10BD     		pop	{r4, pc}
 195              	.L20:
 196              		.align	2
 197              	.L19:
 198 002c 00000000 		.word	gGTS
 199              		.cfi_endproc
 200              	.LFE23:
 201              		.size	FindSeperator.constprop.2, .-FindSeperator.constprop.2
 202              		.section	.text.CheckCurrency,"ax",%progbits
 203              		.align	1
 204              		.global	CheckCurrency
 205              		.thumb
 206              		.thumb_func
 207              		.type	CheckCurrency, %function
 208              	CheckCurrency:
 209              	.LFB5:
 236:src/input.c   ****   if (INPUT.currency == 0xFF)
 210              		.loc 1 236 0
 211              		.cfi_startproc
 212              		@ args = 0, pretend = 0, frame = 0
 213              		@ frame_needed = 0, uses_anonymous_args = 0
 214              	.LVL27:
 237:src/input.c   ****     return TRUE;
 215              		.loc 1 237 0
 216 0000 1F4B     		ldr	r3, .L29
 236:src/input.c   ****   if (INPUT.currency == 0xFF)
 217              		.loc 1 236 0
 218 0002 37B5     		push	{r0, r1, r2, r4, r5, lr}
 219              		.cfi_def_cfa_offset 24
 220              		.cfi_offset 4, -12
 221              		.cfi_offset 5, -8
 222              		.cfi_offset 14, -4
 236:src/input.c   ****   if (INPUT.currency == 0xFF)
 223              		.loc 1 236 0
 224 0004 0546     		mov	r5, r0
 237:src/input.c   ****     return TRUE;
 225              		.loc 1 237 0
 226 0006 5A7D     		ldrb	r2, [r3, #21]	@ zero_extendqisi2
 236:src/input.c   ****   if (INPUT.currency == 0xFF)
 227              		.loc 1 236 0
 228 0008 0C46     		mov	r4, r1
 237:src/input.c   ****     return TRUE;
 229              		.loc 1 237 0
 230 000a FF2A     		cmp	r2, #255
 231 000c 31D0     		beq	.L26
 240:src/input.c   ****     if (!memcmp(STIS_ACQ_TBL(0).sb_program, gCurInfo[INPUT.currency].name, 3))
 232              		.loc 1 240 0
 233 000e 58B9     		cbnz	r0, .L23
 241:src/input.c   ****       return TRUE;
 234              		.loc 1 241 0
 235 0010 1C4B     		ldr	r3, .L29+4
 236 0012 1D49     		ldr	r1, .L29+8
 237              	.LVL28:
 238 0014 1868     		ldr	r0, [r3]
 239              	.LVL29:
 240 0016 01EBC201 		add	r1, r1, r2, lsl #3
ARM GAS  C:\Users\AHMEDH~1\AppData\Local\Temp\cck6gOO5.s 			page 21


 241 001a 00F24930 		addw	r0, r0, #841
 242 001e 0322     		movs	r2, #3
 243 0020 FFF7FEFF 		bl	memcmp
 244              	.LVL30:
 245 0024 78B9     		cbnz	r0, .L24
 246 0026 24E0     		b	.L26
 247              	.LVL31:
 248              	.L23:
 244:src/input.c   ****     if (!memcmp(STIS_ACQ_TBL(0).sb_program, gCurInfo[TX_DATA.currency].name, 3))
 249              		.loc 1 244 0
 250 0028 0128     		cmp	r0, #1
 251 002a 0CD1     		bne	.L24
 245:src/input.c   ****       return TRUE;
 252              		.loc 1 245 0
 253 002c 154A     		ldr	r2, .L29+4
 254 002e 93F81513 		ldrb	r1, [r3, #789]	@ zero_extendqisi2
 255              	.LVL32:
 256 0032 1068     		ldr	r0, [r2]
 257              	.LVL33:
 258 0034 144B     		ldr	r3, .L29+8
 259 0036 00F24930 		addw	r0, r0, #841
 260 003a 03EBC101 		add	r1, r3, r1, lsl #3
 261 003e 0322     		movs	r2, #3
 262 0040 FFF7FEFF 		bl	memcmp
 263              	.LVL34:
 264 0044 B8B1     		cbz	r0, .L27
 265              	.L24:
 266 0046 0025     		movs	r5, #0
 249:src/input.c   ****     DispClrBelowMW(MW_LINE3);
 267              		.loc 1 249 0
 268 0048 BCB1     		cbz	r4, .L28
 250:src/input.c   ****     Disp2x16Msg(GetConstMsg(EDC_IN_CUR_ERROR), MW_LINE3, MW_BIGFONT);
 269              		.loc 1 250 0
 270 004a 2B46     		mov	r3, r5
 271 004c 2321     		movs	r1, #35
 272 004e 4FF44072 		mov	r2, #768
 273 0052 0095     		str	r5, [sp]
 274 0054 0F20     		movs	r0, #15
 275 0056 FFF7FEFF 		bl	lib_app_call
 276              	.LVL35:
 251:src/input.c   ****     ErrorDelay();
 277              		.loc 1 251 0
 278 005a 2220     		movs	r0, #34
 279 005c FFF7FEFF 		bl	GetConstMsg
 280              	.LVL36:
 281 0060 4FF44071 		mov	r1, #768
 282 0064 4FF48052 		mov	r2, #4096
 283 0068 FFF7FEFF 		bl	Disp2x16Msg
 284              	.LVL37:
 252:src/input.c   ****   }
 285              		.loc 1 252 0
 286 006c FFF7FEFF 		bl	ErrorDelay
 287              	.LVL38:
 288 0070 01E0     		b	.L27
 289              	.L26:
 238:src/input.c   ****   
 290              		.loc 1 238 0
ARM GAS  C:\Users\AHMEDH~1\AppData\Local\Temp\cck6gOO5.s 			page 22


 291 0072 0120     		movs	r0, #1
 292 0074 02E0     		b	.L22
 293              	.L27:
 294 0076 2846     		mov	r0, r5
 295 0078 00E0     		b	.L22
 296              	.L28:
 254:src/input.c   **** }
 297              		.loc 1 254 0
 298 007a 2046     		mov	r0, r4
 299              	.L22:
 255:src/input.c   **** 
 300              		.loc 1 255 0
 301 007c 03B0     		add	sp, sp, #12
 302              		.cfi_def_cfa_offset 12
 303              		@ sp needed
 304 007e 30BD     		pop	{r4, r5, pc}
 305              	.L30:
 306              		.align	2
 307              	.L29:
 308 0080 00000000 		.word	gGTS
 309 0084 00000000 		.word	gGDS
 310 0088 00000000 		.word	.LANCHOR0
 311              		.cfi_endproc
 312              	.LFE5:
 313              		.size	CheckCurrency, .-CheckCurrency
 314              		.section	.text.InCardTable,"ax",%progbits
 315              		.align	1
 316              		.global	InCardTable
 317              		.thumb
 318              		.thumb_func
 319              		.type	InCardTable, %function
 320              	InCardTable:
 321              	.LFB6:
 267:src/input.c   ****   BYTE card_idx, issuer_idx, acq_idx;
 322              		.loc 1 267 0
 323              		.cfi_startproc
 324              		@ args = 0, pretend = 0, frame = 32
 325              		@ frame_needed = 0, uses_anonymous_args = 0
 326 0000 2DE9F04F 		push	{r4, r5, r6, r7, r8, r9, r10, fp, lr}
 327              		.cfi_def_cfa_offset 36
 328              		.cfi_offset 4, -36
 329              		.cfi_offset 5, -32
 330              		.cfi_offset 6, -28
 331              		.cfi_offset 7, -24
 332              		.cfi_offset 8, -20
 333              		.cfi_offset 9, -16
 334              		.cfi_offset 10, -12
 335              		.cfi_offset 11, -8
 336              		.cfi_offset 14, -4
 270:src/input.c   ****   WORD max_issuer = APM_GetIssuerCount();
 337              		.loc 1 270 0
 338 0004 0024     		movs	r4, #0
 267:src/input.c   ****   BYTE card_idx, issuer_idx, acq_idx;
 339              		.loc 1 267 0
 340 0006 8BB0     		sub	sp, sp, #44
 341              		.cfi_def_cfa_offset 80
 270:src/input.c   ****   WORD max_issuer = APM_GetIssuerCount();
ARM GAS  C:\Users\AHMEDH~1\AppData\Local\Temp\cck6gOO5.s 			page 23


 342              		.loc 1 270 0
 343 0008 1020     		movs	r0, #16
 344 000a 0146     		mov	r1, r0
 345 000c 2246     		mov	r2, r4
 346 000e 2346     		mov	r3, r4
 347 0010 0094     		str	r4, [sp]
 348 0012 FFF7FEFF 		bl	lib_app_call
 349              	.LVL39:
 271:src/input.c   ****   WORD max_acq    = APM_GetAcqCount();
 350              		.loc 1 271 0
 351 0016 1221     		movs	r1, #18
 352 0018 2246     		mov	r2, r4
 353 001a 0094     		str	r4, [sp]
 270:src/input.c   ****   WORD max_issuer = APM_GetIssuerCount();
 354              		.loc 1 270 0
 355 001c 83B2     		uxth	r3, r0
 271:src/input.c   ****   WORD max_acq    = APM_GetAcqCount();
 356              		.loc 1 271 0
 357 001e 1020     		movs	r0, #16
 270:src/input.c   ****   WORD max_issuer = APM_GetIssuerCount();
 358              		.loc 1 270 0
 359 0020 0293     		str	r3, [sp, #8]
 360              	.LVL40:
 271:src/input.c   ****   WORD max_acq    = APM_GetAcqCount();
 361              		.loc 1 271 0
 362 0022 2346     		mov	r3, r4
 363 0024 FFF7FEFF 		bl	lib_app_call
 364              	.LVL41:
 272:src/input.c   **** 
 365              		.loc 1 272 0
 366 0028 2346     		mov	r3, r4
 367 002a 1421     		movs	r1, #20
 368 002c 2246     		mov	r2, r4
 271:src/input.c   ****   WORD max_acq    = APM_GetAcqCount();
 369              		.loc 1 271 0
 370 002e 1FFA80F8 		uxth	r8, r0
 371              	.LVL42:
 272:src/input.c   **** 
 372              		.loc 1 272 0
 373 0032 0094     		str	r4, [sp]
 374 0034 1020     		movs	r0, #16
 375 0036 FFF7FEFF 		bl	lib_app_call
 376              	.LVL43:
 275:src/input.c   ****   pan[0] = (BYTE) fndb(&pan[1], 'F', 19);
 377              		.loc 1 275 0
 378 003a 5649     		ldr	r1, .L66
 379 003c 0A22     		movs	r2, #10
 272:src/input.c   **** 
 380              		.loc 1 272 0
 381 003e 1FFA80F9 		uxth	r9, r0
 382              	.LVL44:
 275:src/input.c   ****   pan[0] = (BYTE) fndb(&pan[1], 'F', 19);
 383              		.loc 1 275 0
 384 0042 0DF11100 		add	r0, sp, #17
 385 0046 FFF7FEFF 		bl	split
 386              	.LVL45:
 276:src/input.c   **** 
ARM GAS  C:\Users\AHMEDH~1\AppData\Local\Temp\cck6gOO5.s 			page 24


 387              		.loc 1 276 0
 388 004a 0DF11100 		add	r0, sp, #17
 389 004e 4621     		movs	r1, #70
 390 0050 1322     		movs	r2, #19
 391 0052 FFF7FEFF 		bl	fndb
 392              	.LVL46:
 393 0056 8DF81000 		strb	r0, [sp, #16]
 394              	.LVL47:
 395              	.L32:
 278:src/input.c   ****     if (!APM_GetCardTbl(card_idx, &STIS_CARD_TBL(0)))
 396              		.loc 1 278 0 discriminator 1
 397 005a 029B     		ldr	r3, [sp, #8]
 398 005c 9C42     		cmp	r4, r3
 399 005e 80F08B80 		bcs	.L64
 279:src/input.c   ****       continue;
 400              		.loc 1 279 0
 401 0062 4D4F     		ldr	r7, .L66+4
 402 0064 0025     		movs	r5, #0
 403 0066 3B68     		ldr	r3, [r7]
 404 0068 1020     		movs	r0, #16
 405 006a 0095     		str	r5, [sp]
 406 006c 1121     		movs	r1, #17
 407 006e 2246     		mov	r2, r4
 408 0070 03F5A263 		add	r3, r3, #1296
 409 0074 FFF7FEFF 		bl	lib_app_call
 410              	.LVL48:
 411 0078 BA46     		mov	r10, r7
 412 007a 10F0FF0F 		tst	r0, #255
 413 007e 78D0     		beq	.L49
 281:src/input.c   ****     if ((memcmp(INPUT.sb_pan, STIS_CARD_TBL(0).sb_pan_range_low, 5) >= 0)  &&
 414              		.loc 1 281 0
 415 0080 3B68     		ldr	r3, [r7]
 416 0082 93F81C05 		ldrb	r0, [r3, #1308]	@ zero_extendqisi2
 417 0086 FFF7FEFF 		bl	bcd2bin
 418              	.LVL49:
 282:src/input.c   ****         (memcmp(INPUT.sb_pan, STIS_CARD_TBL(0).sb_pan_range_high, 5) <= 0) &&
 419              		.loc 1 282 0
 420 008a 3F68     		ldr	r7, [r7]
 421 008c 0522     		movs	r2, #5
 422 008e 07F5A261 		add	r1, r7, #1296
 281:src/input.c   ****     if ((memcmp(INPUT.sb_pan, STIS_CARD_TBL(0).sb_pan_range_low, 5) >= 0)  &&
 423              		.loc 1 281 0
 424 0092 0646     		mov	r6, r0
 425              	.LVL50:
 282:src/input.c   ****         (memcmp(INPUT.sb_pan, STIS_CARD_TBL(0).sb_pan_range_high, 5) <= 0) &&
 426              		.loc 1 282 0
 427 0094 3F48     		ldr	r0, .L66
 428 0096 FFF7FEFF 		bl	memcmp
 429              	.LVL51:
 430 009a A842     		cmp	r0, r5
 431 009c 69DB     		blt	.L49
 283:src/input.c   ****         ((pan[0] == pan_len) || (pan_len == 0))) {
 432              		.loc 1 283 0 discriminator 1
 433 009e 3D48     		ldr	r0, .L66
 434 00a0 07F21551 		addw	r1, r7, #1301
 435 00a4 0522     		movs	r2, #5
 436 00a6 FFF7FEFF 		bl	memcmp
ARM GAS  C:\Users\AHMEDH~1\AppData\Local\Temp\cck6gOO5.s 			page 25


 437              	.LVL52:
 282:src/input.c   ****         (memcmp(INPUT.sb_pan, STIS_CARD_TBL(0).sb_pan_range_high, 5) <= 0) &&
 438              		.loc 1 282 0 discriminator 1
 439 00aa A842     		cmp	r0, r5
 440 00ac 61DC     		bgt	.L49
 283:src/input.c   ****         ((pan[0] == pan_len) || (pan_len == 0))) {
 441              		.loc 1 283 0
 442 00ae 9DF81030 		ldrb	r3, [sp, #16]	@ zero_extendqisi2
 281:src/input.c   ****     if ((memcmp(INPUT.sb_pan, STIS_CARD_TBL(0).sb_pan_range_low, 5) >= 0)  &&
 443              		.loc 1 281 0
 444 00b2 F0B2     		uxtb	r0, r6
 283:src/input.c   ****         ((pan[0] == pan_len) || (pan_len == 0))) {
 445              		.loc 1 283 0
 446 00b4 8342     		cmp	r3, r0
 447 00b6 02D0     		beq	.L62
 284:src/input.c   ****       // locate issuer
 448              		.loc 1 284 0
 449 00b8 0028     		cmp	r0, #0
 450 00ba 5AD1     		bne	.L49
 451 00bc 0546     		mov	r5, r0
 452              	.LVL53:
 453              	.L62:
 286:src/input.c   ****         if (!APM_GetIssuer(issuer_idx, &STIS_ISS_TBL(0)))
 454              		.loc 1 286 0 discriminator 1
 455 00be AEB2     		uxth	r6, r5
 456 00c0 4645     		cmp	r6, r8
 457 00c2 15D2     		bcs	.L38
 287:src/input.c   ****           continue;
 458              		.loc 1 287 0
 459 00c4 DAF80030 		ldr	r3, [r10]
 460 00c8 0022     		movs	r2, #0
 461 00ca 1020     		movs	r0, #16
 462 00cc 0092     		str	r2, [sp]
 463 00ce 1321     		movs	r1, #19
 464 00d0 2A46     		mov	r2, r5
 465 00d2 03F59463 		add	r3, r3, #1184
 466 00d6 FFF7FEFF 		bl	lib_app_call
 467              	.LVL54:
 468 00da 10F0FF0F 		tst	r0, #255
 469 00de 0BD0     		beq	.L35
 289:src/input.c   ****           break;
 470              		.loc 1 289 0
 471 00e0 2D4B     		ldr	r3, .L66+4
 472 00e2 1B68     		ldr	r3, [r3]
 473 00e4 93F8A024 		ldrb	r2, [r3, #1184]	@ zero_extendqisi2
 474 00e8 93F81A35 		ldrb	r3, [r3, #1306]	@ zero_extendqisi2
 475 00ec 9A42     		cmp	r2, r3
 476 00ee 03D1     		bne	.L35
 477              	.L38:
 292:src/input.c   ****         continue;
 478              		.loc 1 292 0
 479 00f0 4645     		cmp	r6, r8
 480 00f2 3ED0     		beq	.L49
 481 00f4 0025     		movs	r5, #0
 482              	.LVL55:
 483 00f6 1AE0     		b	.L36
 484              	.LVL56:
ARM GAS  C:\Users\AHMEDH~1\AppData\Local\Temp\cck6gOO5.s 			page 26


 485              	.L35:
 286:src/input.c   ****         if (!APM_GetIssuer(issuer_idx, &STIS_ISS_TBL(0)))
 486              		.loc 1 286 0 discriminator 2
 487 00f8 0135     		adds	r5, r5, #1
 488              	.LVL57:
 489 00fa EDB2     		uxtb	r5, r5
 490              	.LVL58:
 491 00fc DFE7     		b	.L62
 492              	.LVL59:
 493              	.L43:
 296:src/input.c   ****           continue;
 494              		.loc 1 296 0
 495 00fe 4FF0000C 		mov	ip, #0
 496 0102 DAF80030 		ldr	r3, [r10]
 497 0106 1020     		movs	r0, #16
 498 0108 CDF800C0 		str	ip, [sp]
 499 010c 1521     		movs	r1, #21
 500 010e 2A46     		mov	r2, r5
 501 0110 03F55273 		add	r3, r3, #840
 502 0114 CDF80CC0 		str	ip, [sp, #12]
 503 0118 FFF7FEFF 		bl	lib_app_call
 504              	.LVL60:
 505 011c DFF878B0 		ldr	fp, .L66+4
 506 0120 DDF80CC0 		ldr	ip, [sp, #12]
 507 0124 10F0FF0F 		tst	r0, #255
 508 0128 05D1     		bne	.L65
 509              	.L40:
 295:src/input.c   ****         if (!APM_GetAcqTbl(acq_idx, &STIS_ACQ_TBL(0)))
 510              		.loc 1 295 0 discriminator 2
 511 012a 0135     		adds	r5, r5, #1
 512              	.LVL61:
 513 012c EDB2     		uxtb	r5, r5
 514              	.LVL62:
 515              	.L36:
 295:src/input.c   ****         if (!APM_GetAcqTbl(acq_idx, &STIS_ACQ_TBL(0)))
 516              		.loc 1 295 0 is_stmt 0 discriminator 1
 517 012e AFB2     		uxth	r7, r5
 518 0130 4F45     		cmp	r7, r9
 519 0132 E4D3     		bcc	.L43
 520 0134 14E0     		b	.L44
 521              	.L65:
 298:src/input.c   ****           continue;
 522              		.loc 1 298 0 is_stmt 1
 523 0136 DBF80030 		ldr	r3, [fp]
 524 013a 93F8F033 		ldrb	r3, [r3, #1008]	@ zero_extendqisi2
 525 013e FF2B     		cmp	r3, #255
 526 0140 F3D0     		beq	.L40
 300:src/input.c   ****           continue;
 527              		.loc 1 300 0
 528 0142 6046     		mov	r0, ip
 529 0144 FFF7FEFF 		bl	GetHostType
 530              	.LVL63:
 531 0148 FFF7FEFF 		bl	CorrectHost
 532              	.LVL64:
 533 014c 0028     		cmp	r0, #0
 534 014e ECD0     		beq	.L40
 306:src/input.c   **** 
ARM GAS  C:\Users\AHMEDH~1\AppData\Local\Temp\cck6gOO5.s 			page 27


 535              		.loc 1 306 0
 536 0150 DBF80030 		ldr	r3, [fp]
 537 0154 93F84823 		ldrb	r2, [r3, #840]	@ zero_extendqisi2
 538 0158 93F81B35 		ldrb	r3, [r3, #1307]	@ zero_extendqisi2
 539 015c 9A42     		cmp	r2, r3
 540 015e E4D1     		bne	.L40
 541              	.L44:
 315:src/input.c   ****         continue;
 542              		.loc 1 315 0
 543 0160 4F45     		cmp	r7, r9
 544 0162 06D0     		beq	.L49
 324:src/input.c   ****       INPUT.w_issuer_idx = issuer_idx;
 545              		.loc 1 324 0
 546 0164 0D4B     		ldr	r3, .L66+8
 326:src/input.c   ****     }
 547              		.loc 1 326 0
 548 0166 0120     		movs	r0, #1
 324:src/input.c   ****       INPUT.w_issuer_idx = issuer_idx;
 549              		.loc 1 324 0
 550 0168 A3F87670 		strh	r7, [r3, #118]	@ movhi
 325:src/input.c   ****       return TRUE;
 551              		.loc 1 325 0
 552 016c A3F87860 		strh	r6, [r3, #120]	@ movhi
 326:src/input.c   ****     }
 553              		.loc 1 326 0
 554 0170 0DE0     		b	.L45
 555              	.LVL65:
 556              	.L49:
 278:src/input.c   ****     if (!APM_GetCardTbl(card_idx, &STIS_CARD_TBL(0)))
 557              		.loc 1 278 0 discriminator 2
 558 0172 0134     		adds	r4, r4, #1
 559              	.LVL66:
 560 0174 E4B2     		uxtb	r4, r4
 561              	.LVL67:
 562 0176 70E7     		b	.L32
 563              	.L64:
 330:src/input.c   ****   RSP_DATA.w_rspcode = 'U'*256+'C';
 564              		.loc 1 330 0
 565 0178 7C20     		movs	r0, #124
 566 017a FFF7FEFF 		bl	GetConstMsg
 567              	.LVL68:
 568 017e FFF7FEFF 		bl	DispErrorMsg
 569              	.LVL69:
 331:src/input.c   ****   return FALSE;
 570              		.loc 1 331 0
 571 0182 45F24352 		movw	r2, #21827
 572 0186 054B     		ldr	r3, .L66+8
 332:src/input.c   **** }
 573              		.loc 1 332 0
 574 0188 0020     		movs	r0, #0
 331:src/input.c   ****   return FALSE;
 575              		.loc 1 331 0
 576 018a A3F86E25 		strh	r2, [r3, #1390]	@ movhi
 577              	.L45:
 333:src/input.c   **** //*****************************************************************************
 578              		.loc 1 333 0
 579 018e 0BB0     		add	sp, sp, #44
ARM GAS  C:\Users\AHMEDH~1\AppData\Local\Temp\cck6gOO5.s 			page 28


 580              		.cfi_def_cfa_offset 36
 581              		@ sp needed
 582 0190 BDE8F08F 		pop	{r4, r5, r6, r7, r8, r9, r10, fp, pc}
 583              	.LVL70:
 584              	.L67:
 585              		.align	2
 586              	.L66:
 587 0194 09000000 		.word	gGTS+9
 588 0198 00000000 		.word	gGDS
 589 019c 00000000 		.word	gGTS
 590              		.cfi_endproc
 591              	.LFE6:
 592              		.size	InCardTable, .-InCardTable
 593              		.section	.text.PromptYesNo,"ax",%progbits
 594              		.align	1
 595              		.global	PromptYesNo
 596              		.thumb
 597              		.thumb_func
 598              		.type	PromptYesNo, %function
 599              	PromptYesNo:
 600              	.LFB8:
 444:src/input.c   ****   Disp2x16Msg(GetConstMsg(EDC_IN_CORRECT), MW_LINE5, MW_BIGFONT);
 601              		.loc 1 444 0
 602              		.cfi_startproc
 603              		@ args = 0, pretend = 0, frame = 0
 604              		@ frame_needed = 0, uses_anonymous_args = 0
 605 0000 07B5     		push	{r0, r1, r2, lr}
 606              		.cfi_def_cfa_offset 16
 607              		.cfi_offset 14, -4
 445:src/input.c   ****   return APM_SelYesNo();
 608              		.loc 1 445 0
 609 0002 1320     		movs	r0, #19
 610 0004 FFF7FEFF 		bl	GetConstMsg
 611              	.LVL71:
 612 0008 4FF4A061 		mov	r1, #1280
 613 000c 4FF48052 		mov	r2, #4096
 614 0010 FFF7FEFF 		bl	Disp2x16Msg
 615              	.LVL72:
 446:src/input.c   **** }
 616              		.loc 1 446 0
 617 0014 0022     		movs	r2, #0
 618 0016 3221     		movs	r1, #50
 619 0018 0092     		str	r2, [sp]
 620 001a 1346     		mov	r3, r2
 621 001c 1020     		movs	r0, #16
 622 001e FFF7FEFF 		bl	lib_app_call
 623              	.LVL73:
 447:src/input.c   **** //*****************************************************************************
 624              		.loc 1 447 0
 625 0022 03B0     		add	sp, sp, #12
 626              		.cfi_def_cfa_offset 4
 627              		@ sp needed
 628 0024 5DF804FB 		ldr	pc, [sp], #4
 629              		.cfi_endproc
 630              	.LFE8:
 631              		.size	PromptYesNo, .-PromptYesNo
 632              		.section	.text.GetAuthCode,"ax",%progbits
ARM GAS  C:\Users\AHMEDH~1\AppData\Local\Temp\cck6gOO5.s 			page 29


 633              		.align	1
 634              		.global	GetAuthCode
 635              		.thumb
 636              		.thumb_func
 637              		.type	GetAuthCode, %function
 638              	GetAuthCode:
 639              	.LFB9:
 458:src/input.c   ****   BYTE kbdbuf[32];
 640              		.loc 1 458 0
 641              		.cfi_startproc
 642              		@ args = 0, pretend = 0, frame = 32
 643              		@ frame_needed = 0, uses_anonymous_args = 0
 464:src/input.c   ****     ecrdata_len = gGDS->i_ecr_len - 2;
 644              		.loc 1 464 0
 645 0000 2B4B     		ldr	r3, .L86
 458:src/input.c   ****   BYTE kbdbuf[32];
 646              		.loc 1 458 0
 647 0002 30B5     		push	{r4, r5, lr}
 648              		.cfi_def_cfa_offset 12
 649              		.cfi_offset 4, -12
 650              		.cfi_offset 5, -8
 651              		.cfi_offset 14, -4
 652 0004 8BB0     		sub	sp, sp, #44
 653              		.cfi_def_cfa_offset 56
 464:src/input.c   ****     ecrdata_len = gGDS->i_ecr_len - 2;
 654              		.loc 1 464 0
 655 0006 1868     		ldr	r0, [r3]
 656 0008 00F58443 		add	r3, r0, #16896
 657 000c D96D     		ldr	r1, [r3, #92]
 658 000e 0129     		cmp	r1, #1
 659 0010 26DD     		ble	.L74
 660              	.LVL74:
 466:src/input.c   ****       pbTlv = TlvSeek(gGDS->s_ecr_data.sb_content, ecrdata_len, ECRTAG_AUTH_RESP);
 661              		.loc 1 466 0
 662 0012 0239     		subs	r1, r1, #2
 663              	.LVL75:
 664 0014 24D0     		beq	.L74
 467:src/input.c   ****       if (pbTlv != NULL) {
 665              		.loc 1 467 0
 666 0016 00F57150 		add	r0, r0, #15424
 667 001a 1A30     		adds	r0, r0, #26
 668 001c 89B2     		uxth	r1, r1
 669              	.LVL76:
 670 001e 4DF62672 		movw	r2, #57126
 671 0022 FFF7FEFF 		bl	TlvSeek
 672              	.LVL77:
 468:src/input.c   ****         TlvVPtr(pbTlv);
 673              		.loc 1 468 0
 674 0026 0446     		mov	r4, r0
 675 0028 D0B1     		cbz	r0, .L74
 469:src/input.c   ****         kbdbuf[0] = TlvLen(pbTlv);
 676              		.loc 1 469 0
 677 002a FFF7FEFF 		bl	TlvVPtr
 678              	.LVL78:
 470:src/input.c   ****         if (kbdbuf[0] > 6)
 679              		.loc 1 470 0
 680 002e 2046     		mov	r0, r4
ARM GAS  C:\Users\AHMEDH~1\AppData\Local\Temp\cck6gOO5.s 			page 30


 681 0030 FFF7FEFF 		bl	TlvLen
 682              	.LVL79:
 473:src/input.c   ****         memcpy(RSP_DATA.sb_auth_code, TlvVPtr(pbTlv), kbdbuf[0]);
 683              		.loc 1 473 0
 684 0034 2021     		movs	r1, #32
 685 0036 0622     		movs	r2, #6
 470:src/input.c   ****         if (kbdbuf[0] > 6)
 686              		.loc 1 470 0
 687 0038 C0B2     		uxtb	r0, r0
 471:src/input.c   ****           kbdbuf[0] = 6;
 688              		.loc 1 471 0
 689 003a 0628     		cmp	r0, #6
 472:src/input.c   ****         memset(RSP_DATA.sb_auth_code, ' ',6);
 690              		.loc 1 472 0
 691 003c 8CBF     		ite	hi
 692 003e 0623     		movhi	r3, #6
 470:src/input.c   ****         if (kbdbuf[0] > 6)
 693              		.loc 1 470 0
 694 0040 8DF80800 		strbls	r0, [sp, #8]
 473:src/input.c   ****         memcpy(RSP_DATA.sb_auth_code, TlvVPtr(pbTlv), kbdbuf[0]);
 695              		.loc 1 473 0
 696 0044 1B48     		ldr	r0, .L86+4
 472:src/input.c   ****         memset(RSP_DATA.sb_auth_code, ' ',6);
 697              		.loc 1 472 0
 698 0046 88BF     		it	hi
 699 0048 8DF80830 		strbhi	r3, [sp, #8]
 473:src/input.c   ****         memcpy(RSP_DATA.sb_auth_code, TlvVPtr(pbTlv), kbdbuf[0]);
 700              		.loc 1 473 0
 701 004c FFF7FEFF 		bl	memset
 702              	.LVL80:
 474:src/input.c   ****         return TRUE;
 703              		.loc 1 474 0
 704 0050 2046     		mov	r0, r4
 705 0052 FFF7FEFF 		bl	TlvVPtr
 706              	.LVL81:
 707 0056 9DF80820 		ldrb	r2, [sp, #8]	@ zero_extendqisi2
 708 005a 0146     		mov	r1, r0
 709 005c 1548     		ldr	r0, .L86+4
 710 005e 22E0     		b	.L85
 711              	.LVL82:
 712              	.L74:
 480:src/input.c   ****     Disp2x16Msg(GetConstMsg(EDC_IN_APP_CODE), MW_LINE3, MW_BIGFONT);
 713              		.loc 1 480 0
 714 0060 0023     		movs	r3, #0
 715 0062 0AAC     		add	r4, sp, #40
 481:src/input.c   ****     if (!APM_GetKbd(ALPHA_INPUT+ECHO+MW_BIGFONT+MW_LINE7+RIGHT_JUST, IMIN(2)+IMAX(6), kbdbuf))
 716              		.loc 1 481 0
 717 0064 1420     		movs	r0, #20
 480:src/input.c   ****     Disp2x16Msg(GetConstMsg(EDC_IN_APP_CODE), MW_LINE3, MW_BIGFONT);
 718              		.loc 1 480 0
 719 0066 04F8203D 		strb	r3, [r4, #-32]!
 481:src/input.c   ****     if (!APM_GetKbd(ALPHA_INPUT+ECHO+MW_BIGFONT+MW_LINE7+RIGHT_JUST, IMIN(2)+IMAX(6), kbdbuf))
 720              		.loc 1 481 0
 721 006a FFF7FEFF 		bl	GetConstMsg
 722              	.LVL83:
 723 006e 4FF44071 		mov	r1, #768
 724 0072 4FF48052 		mov	r2, #4096
ARM GAS  C:\Users\AHMEDH~1\AppData\Local\Temp\cck6gOO5.s 			page 31


 725 0076 FFF7FEFF 		bl	Disp2x16Msg
 726              	.LVL84:
 482:src/input.c   ****       return 0;
 727              		.loc 1 482 0
 728 007a 0094     		str	r4, [sp]
 729 007c 1020     		movs	r0, #16
 730 007e 0521     		movs	r1, #5
 731 0080 0D4A     		ldr	r2, .L86+8
 732 0082 40F20623 		movw	r3, #518
 733 0086 FFF7FEFF 		bl	lib_app_call
 734              	.LVL85:
 735 008a C0B2     		uxtb	r0, r0
 736 008c 70B1     		cbz	r0, .L73
 484:src/input.c   ****       memset(RSP_DATA.sb_auth_code, ' ',6);
 737              		.loc 1 484 0
 738 008e 9DF80850 		ldrb	r5, [sp, #8]	@ zero_extendqisi2
 739 0092 012D     		cmp	r5, #1
 740 0094 E4D9     		bls	.L74
 485:src/input.c   ****       memcpy(RSP_DATA.sb_auth_code, &kbdbuf[1], kbdbuf[0]);
 741              		.loc 1 485 0
 742 0096 2021     		movs	r1, #32
 743 0098 0622     		movs	r2, #6
 744 009a 0648     		ldr	r0, .L86+4
 745 009c FFF7FEFF 		bl	memset
 746              	.LVL86:
 486:src/input.c   ****       return 1;
 747              		.loc 1 486 0
 748 00a0 0448     		ldr	r0, .L86+4
 749 00a2 611C     		adds	r1, r4, #1
 750 00a4 2A46     		mov	r2, r5
 751              	.L85:
 752 00a6 FFF7FEFF 		bl	memcpy
 753              	.LVL87:
 487:src/input.c   ****     }
 754              		.loc 1 487 0
 755 00aa 0120     		movs	r0, #1
 756              	.L73:
 490:src/input.c   **** //*****************************************************************************
 757              		.loc 1 490 0
 758 00ac 0BB0     		add	sp, sp, #44
 759              		.cfi_def_cfa_offset 12
 760              		@ sp needed
 761 00ae 30BD     		pop	{r4, r5, pc}
 762              	.L87:
 763              		.align	2
 764              	.L86:
 765 00b0 00000000 		.word	gGDS
 766 00b4 67050000 		.word	gGTS+1383
 767 00b8 FF172200 		.word	2234367
 768              		.cfi_endproc
 769              	.LFE9:
 770              		.size	GetAuthCode, .-GetAuthCode
 771              		.section	.text.GetAmount,"ax",%progbits
 772              		.align	1
 773              		.global	GetAmount
 774              		.thumb
 775              		.thumb_func
ARM GAS  C:\Users\AHMEDH~1\AppData\Local\Temp\cck6gOO5.s 			page 32


 776              		.type	GetAmount, %function
 777              	GetAmount:
 778              	.LFB10:
 502:src/input.c   ****   BYTE kbdbuf[32];
 779              		.loc 1 502 0
 780              		.cfi_startproc
 781              		@ args = 0, pretend = 0, frame = 32
 782              		@ frame_needed = 0, uses_anonymous_args = 0
 783              	.LVL88:
 784 0000 2DE9F047 		push	{r4, r5, r6, r7, r8, r9, r10, lr}
 785              		.cfi_def_cfa_offset 32
 786              		.cfi_offset 4, -32
 787              		.cfi_offset 5, -28
 788              		.cfi_offset 6, -24
 789              		.cfi_offset 7, -20
 790              		.cfi_offset 8, -16
 791              		.cfi_offset 9, -12
 792              		.cfi_offset 10, -8
 793              		.cfi_offset 14, -4
 506:src/input.c   **** 
 794              		.loc 1 506 0
 795 0004 0023     		movs	r3, #0
 796 0006 904C     		ldr	r4, .L132
 797 0008 0022     		movs	r2, #0
 509:src/input.c   ****     ecrdata_len = gGDS->i_ecr_len - 2;
 798              		.loc 1 509 0
 799 000a 904D     		ldr	r5, .L132+4
 506:src/input.c   **** 
 800              		.loc 1 506 0
 801 000c C4E90823 		strd	r2, [r4, #32]
 509:src/input.c   ****     ecrdata_len = gGDS->i_ecr_len - 2;
 802              		.loc 1 509 0
 803 0010 2B68     		ldr	r3, [r5]
 502:src/input.c   ****   BYTE kbdbuf[32];
 804              		.loc 1 502 0
 805 0012 8AB0     		sub	sp, sp, #40
 806              		.cfi_def_cfa_offset 72
 509:src/input.c   ****     ecrdata_len = gGDS->i_ecr_len - 2;
 807              		.loc 1 509 0
 808 0014 03F58443 		add	r3, r3, #16896
 502:src/input.c   ****   BYTE kbdbuf[32];
 809              		.loc 1 502 0
 810 0018 8046     		mov	r8, r0
 509:src/input.c   ****     ecrdata_len = gGDS->i_ecr_len - 2;
 811              		.loc 1 509 0
 812 001a DB6D     		ldr	r3, [r3, #92]
 502:src/input.c   ****   BYTE kbdbuf[32];
 813              		.loc 1 502 0
 814 001c 0F46     		mov	r7, r1
 509:src/input.c   ****     ecrdata_len = gGDS->i_ecr_len - 2;
 815              		.loc 1 509 0
 816 001e 022B     		cmp	r3, #2
 817 0020 0ADC     		bgt	.L89
 818              	.LVL89:
 819              	.L92:
 517:src/input.c   ****     INPUT.dd_amount = STIS_TERM_DATA.dd_default_amount;
 820              		.loc 1 517 0
ARM GAS  C:\Users\AHMEDH~1\AppData\Local\Temp\cck6gOO5.s 			page 33


 821 0022 2B68     		ldr	r3, [r5]
 822 0024 03F5B463 		add	r3, r3, #1440
 823 0028 D3E90023 		ldrd	r2, [r3]
 824 002c 52EA0301 		orrs	r1, r2, r3
 825 0030 0AD0     		beq	.L131
 518:src/input.c   ****     return TRUE;
 826              		.loc 1 518 0
 827 0032 C4E90623 		strd	r2, [r4, #24]
 828 0036 02E1     		b	.L129
 829              	.LVL90:
 830              	.L89:
 512:src/input.c   ****       if (INPUT.dd_amount != 0)
 831              		.loc 1 512 0
 832 0038 FFF7FEFF 		bl	EcrGetAmount
 833              	.LVL91:
 513:src/input.c   ****         return TRUE;
 834              		.loc 1 513 0
 835 003c 50EA0103 		orrs	r3, r0, r1
 512:src/input.c   ****       if (INPUT.dd_amount != 0)
 836              		.loc 1 512 0
 837 0040 C4E90601 		strd	r0, [r4, #24]
 513:src/input.c   ****         return TRUE;
 838              		.loc 1 513 0
 839 0044 EDD0     		beq	.L92
 840 0046 FAE0     		b	.L129
 841              	.L131:
 522:src/input.c   ****   APM_SetKbdTimeout(KBD_TIMEOUT);
 842              		.loc 1 522 0
 843 0048 0026     		movs	r6, #0
 844 004a 2321     		movs	r1, #35
 845 004c 4FF44072 		mov	r2, #768
 846 0050 3346     		mov	r3, r6
 847 0052 0096     		str	r6, [sp]
 848 0054 0F20     		movs	r0, #15
 849 0056 FFF7FEFF 		bl	lib_app_call
 850              	.LVL92:
 523:src/input.c   ****   while (1) {
 851              		.loc 1 523 0
 852 005a 0096     		str	r6, [sp]
 853 005c 1020     		movs	r0, #16
 854 005e 0621     		movs	r1, #6
 855 0060 42F22832 		movw	r2, #9000
 856 0064 3346     		mov	r3, r6
 857 0066 FFF7FEFF 		bl	lib_app_call
 858              	.LVL93:
 859              	.L94:
 525:src/input.c   ****       Disp2x16Msg(GetConstMsg(EDC_IN_BASE_AMT), MW_LINE3, MW_BIGFONT);
 860              		.loc 1 525 0
 861 006a B8F1000F 		cmp	r8, #0
 862 006e 01D0     		beq	.L95
 526:src/input.c   ****     else
 863              		.loc 1 526 0
 864 0070 1520     		movs	r0, #21
 865 0072 00E0     		b	.L128
 866              	.L95:
 528:src/input.c   **** 
 867              		.loc 1 528 0
ARM GAS  C:\Users\AHMEDH~1\AppData\Local\Temp\cck6gOO5.s 			page 34


 868 0074 1620     		movs	r0, #22
 869              	.L128:
 870 0076 FFF7FEFF 		bl	GetConstMsg
 871              	.LVL94:
 872 007a 4FF44071 		mov	r1, #768
 873 007e 4FF48052 		mov	r2, #4096
 874 0082 FFF7FEFF 		bl	Disp2x16Msg
 875              	.LVL95:
 530:src/input.c   ****   //  memcpy(&kbdbuf[1], STIS_TERM_CFG.sb_currency_name, 3);
 876              		.loc 1 530 0
 877 0086 002F     		cmp	r7, #0
 878 0088 14BF     		ite	ne
 879 008a 0523     		movne	r3, #5
 880 008c 0423     		moveq	r3, #4
 532:src/input.c   ****     kbdbuf[4] = ' ';//STIS_TERM_CFG.b_currency;
 881              		.loc 1 532 0
 882 008e 617D     		ldrb	r1, [r4, #21]	@ zero_extendqisi2
 530:src/input.c   ****   //  memcpy(&kbdbuf[1], STIS_TERM_CFG.sb_currency_name, 3);
 883              		.loc 1 530 0
 884 0090 8DF80830 		strb	r3, [sp, #8]
 532:src/input.c   ****     kbdbuf[4] = ' ';//STIS_TERM_CFG.b_currency;
 885              		.loc 1 532 0
 886 0094 6E4B     		ldr	r3, .L132+8
 887 0096 0322     		movs	r2, #3
 888 0098 03EBC101 		add	r1, r3, r1, lsl #3
 889 009c 0DF10900 		add	r0, sp, #9
 890 00a0 FFF7FEFF 		bl	memcpy
 891              	.LVL96:
 533:src/input.c   ****     kbdbuf[5] = (BYTE)aFirstKey;
 892              		.loc 1 533 0
 893 00a4 2023     		movs	r3, #32
 535:src/input.c   ****                     IMIN(1)+IMAX(STIS_TERM_CFG.b_trans_amount_len),  kbdbuf))
 894              		.loc 1 535 0
 895 00a6 DFF8AC91 		ldr	r9, .L132+12
 533:src/input.c   ****     kbdbuf[5] = (BYTE)aFirstKey;
 896              		.loc 1 533 0
 897 00aa 8DF80C30 		strb	r3, [sp, #12]
 535:src/input.c   ****                     IMIN(1)+IMAX(STIS_TERM_CFG.b_trans_amount_len),  kbdbuf))
 898              		.loc 1 535 0
 899 00ae 2B68     		ldr	r3, [r5]
 900 00b0 02AE     		add	r6, sp, #8
 901 00b2 93F86420 		ldrb	r2, [r3, #100]	@ zero_extendqisi2
 902 00b6 93F86330 		ldrb	r3, [r3, #99]	@ zero_extendqisi2
 903 00ba 59F82220 		ldr	r2, [r9, r2, lsl #2]
 904 00be 0096     		str	r6, [sp]
 905 00c0 02F5C202 		add	r2, r2, #6356992
 906 00c4 1020     		movs	r0, #16
 907 00c6 0521     		movs	r1, #5
 908 00c8 02F5B852 		add	r2, r2, #5888
 909 00cc 03F58073 		add	r3, r3, #256
 534:src/input.c   ****     if (!APM_GetKbd(PREFIX_ENB+ECHO+AMOUNT_INPUT+MW_BIGFONT+MW_LINE7+KDecimalPos[STIS_TERM_CFG.b_de
 910              		.loc 1 534 0
 911 00d0 8DF80D70 		strb	r7, [sp, #13]
 535:src/input.c   ****                     IMIN(1)+IMAX(STIS_TERM_CFG.b_trans_amount_len),  kbdbuf))
 912              		.loc 1 535 0
 913 00d4 FFF7FEFF 		bl	lib_app_call
 914              	.LVL97:
ARM GAS  C:\Users\AHMEDH~1\AppData\Local\Temp\cck6gOO5.s 			page 35


 915 00d8 10F0FF0F 		tst	r0, #255
 916 00dc 72D0     		beq	.L130
 539:src/input.c   ****       memset(&kbdbuf[kbdbuf[0]+1], '0', 2);
 917              		.loc 1 539 0
 918 00de 5B4B     		ldr	r3, .L132+4
 919 00e0 D3F800A0 		ldr	r10, [r3]
 920 00e4 9AF86430 		ldrb	r3, [r10, #100]	@ zero_extendqisi2
 921 00e8 012B     		cmp	r3, #1
 922 00ea 0FD8     		bhi	.L99
 540:src/input.c   ****       kbdbuf[0] += (2-STIS_TERM_CFG.b_decimal_pos);
 923              		.loc 1 540 0
 924 00ec 9DF80800 		ldrb	r0, [sp, #8]	@ zero_extendqisi2
 925 00f0 0222     		movs	r2, #2
 926 00f2 0130     		adds	r0, r0, #1
 927 00f4 3044     		add	r0, r0, r6
 928 00f6 3021     		movs	r1, #48
 929 00f8 FFF7FEFF 		bl	memset
 930              	.LVL98:
 931 00fc 9DF80830 		ldrb	r3, [sp, #8]	@ zero_extendqisi2
 541:src/input.c   ****     }
 932              		.loc 1 541 0
 933 0100 9AF86420 		ldrb	r2, [r10, #100]	@ zero_extendqisi2
 934 0104 0233     		adds	r3, r3, #2
 935 0106 9B1A     		subs	r3, r3, r2
 936 0108 8DF80830 		strb	r3, [sp, #8]
 937              	.L99:
 543:src/input.c   **** 
 938              		.loc 1 543 0
 939 010c 701C     		adds	r0, r6, #1
 940 010e 9DF80810 		ldrb	r1, [sp, #8]	@ zero_extendqisi2
 941 0112 FFF7FEFF 		bl	decbin8b
 942              	.LVL99:
 943 0116 C4E90601 		strd	r0, [r4, #24]
 545:src/input.c   ****       return 1;
 944              		.loc 1 545 0
 945 011a B8F1000F 		cmp	r8, #0
 946 011e 00F08E80 		beq	.L129
 545:src/input.c   ****       return 1;
 947              		.loc 1 545 0 is_stmt 0 discriminator 1
 948 0122 FFF7FEFF 		bl	PromptTips
 949              	.LVL100:
 950 0126 0028     		cmp	r0, #0
 951 0128 00F08980 		beq	.L129
 548:src/input.c   ****     if (!APM_GetKbd(AMOUNT_INPUT+MW_BIGFONT+MW_LINE7+KDecimalPos[STIS_TERM_CFG.b_decimal_pos], 
 952              		.loc 1 548 0 is_stmt 1
 953 012c 1720     		movs	r0, #23
 954 012e FFF7FEFF 		bl	GetConstMsg
 955              	.LVL101:
 956 0132 4FF44071 		mov	r1, #768
 957 0136 4FF48052 		mov	r2, #4096
 958 013a FFF7FEFF 		bl	Disp2x16Msg
 959              	.LVL102:
 549:src/input.c   ****                     IMIN(1)+IMAX(STIS_TERM_CFG.b_trans_amount_len),  kbdbuf))
 960              		.loc 1 549 0
 961 013e 2B68     		ldr	r3, [r5]
 962 0140 1020     		movs	r0, #16
 963 0142 93F86420 		ldrb	r2, [r3, #100]	@ zero_extendqisi2
ARM GAS  C:\Users\AHMEDH~1\AppData\Local\Temp\cck6gOO5.s 			page 36


 964 0146 93F86330 		ldrb	r3, [r3, #99]	@ zero_extendqisi2
 965 014a 59F82220 		ldr	r2, [r9, r2, lsl #2]
 966 014e 0096     		str	r6, [sp]
 967 0150 02F58B32 		add	r2, r2, #71168
 968 0154 0521     		movs	r1, #5
 969 0156 02F58072 		add	r2, r2, #256
 970 015a 03F58073 		add	r3, r3, #256
 971 015e FFF7FEFF 		bl	lib_app_call
 972              	.LVL103:
 973 0162 10F0FF0F 		tst	r0, #255
 974 0166 2DD0     		beq	.L130
 552:src/input.c   ****       INPUT.dd_tip = 0;
 975              		.loc 1 552 0
 976 0168 9DF80800 		ldrb	r0, [sp, #8]	@ zero_extendqisi2
 977 016c 28B9     		cbnz	r0, .L102
 553:src/input.c   ****     else {
 978              		.loc 1 553 0
 979 016e 0020     		movs	r0, #0
 980 0170 0021     		movs	r1, #0
 981 0172 354B     		ldr	r3, .L132
 982 0174 C3E90801 		strd	r0, [r3, #32]
 983 0178 1BE0     		b	.L103
 984              	.L102:
 555:src/input.c   ****         memset(&kbdbuf[kbdbuf[0]+1], '0', 2);
 985              		.loc 1 555 0
 986 017a 344B     		ldr	r3, .L132+4
 987 017c D3F80090 		ldr	r9, [r3]
 988 0180 99F86430 		ldrb	r3, [r9, #100]	@ zero_extendqisi2
 989 0184 012B     		cmp	r3, #1
 990 0186 0DD8     		bhi	.L104
 556:src/input.c   ****         kbdbuf[0] += (2-STIS_TERM_CFG.b_decimal_pos);
 991              		.loc 1 556 0
 992 0188 0130     		adds	r0, r0, #1
 993 018a 0222     		movs	r2, #2
 994 018c 3044     		add	r0, r0, r6
 995 018e 3021     		movs	r1, #48
 996 0190 FFF7FEFF 		bl	memset
 997              	.LVL104:
 998 0194 9DF80830 		ldrb	r3, [sp, #8]	@ zero_extendqisi2
 557:src/input.c   ****       }
 999              		.loc 1 557 0
 1000 0198 99F86420 		ldrb	r2, [r9, #100]	@ zero_extendqisi2
 1001 019c 0233     		adds	r3, r3, #2
 1002 019e 9B1A     		subs	r3, r3, r2
 1003 01a0 8DF80830 		strb	r3, [sp, #8]
 1004              	.L104:
 559:src/input.c   ****     }
 1005              		.loc 1 559 0
 1006 01a4 701C     		adds	r0, r6, #1
 1007 01a6 9DF80810 		ldrb	r1, [sp, #8]	@ zero_extendqisi2
 1008 01aa FFF7FEFF 		bl	decbin8b
 1009              	.LVL105:
 1010 01ae C4E90801 		strd	r0, [r4, #32]
 1011              	.L103:
 562:src/input.c   ****       DispErrorMsg(GetConstMsg(EDC_IN_INV_TIPS));
 1012              		.loc 1 562 0
 1013 01b2 FFF7FEFF 		bl	OverMargin
ARM GAS  C:\Users\AHMEDH~1\AppData\Local\Temp\cck6gOO5.s 			page 37


 1014              	.LVL106:
 1015 01b6 0646     		mov	r6, r0
 1016 01b8 30B1     		cbz	r0, .L105
 563:src/input.c   ****       return(FALSE);
 1017              		.loc 1 563 0
 1018 01ba 1820     		movs	r0, #24
 1019 01bc FFF7FEFF 		bl	GetConstMsg
 1020              	.LVL107:
 1021 01c0 FFF7FEFF 		bl	DispErrorMsg
 1022              	.LVL108:
 1023              	.L130:
 564:src/input.c   ****     }
 1024              		.loc 1 564 0
 1025 01c4 0026     		movs	r6, #0
 1026 01c6 3BE0     		b	.L93
 1027              	.L105:
 567:src/input.c   ****     DispLineMW(GetConstMsg(EDC_IN_TOTAL_PROMPT), MW_LINE1, MW_CLRDISP|MW_BIGFONT);
 1028              		.loc 1 567 0
 1029 01c8 D4E90801 		ldrd	r0, [r4, #32]
 1030 01cc D4E90623 		ldrd	r2, [r4, #24]
 1031 01d0 1218     		adds	r2, r2, r0
 1032 01d2 4B41     		adcs	r3, r3, r1
 1033              	.LBB5:
 568:src/input.c   ****     DispAmount(INPUT.dd_amount, MW_LINE3, MW_BIGFONT);
 1034              		.loc 1 568 0
 1035 01d4 1920     		movs	r0, #25
 1036              	.LBE5:
 567:src/input.c   ****     DispLineMW(GetConstMsg(EDC_IN_TOTAL_PROMPT), MW_LINE1, MW_CLRDISP|MW_BIGFONT);
 1037              		.loc 1 567 0
 1038 01d6 C4E90623 		strd	r2, [r4, #24]
 1039              	.LBB6:
 568:src/input.c   ****     DispAmount(INPUT.dd_amount, MW_LINE3, MW_BIGFONT);
 1040              		.loc 1 568 0
 1041 01da FFF7FEFF 		bl	GetConstMsg
 1042              	.LVL109:
 1043 01de FFF7FEFF 		bl	strlen
 1044              	.LVL110:
 1045 01e2 8246     		mov	r10, r0
 1046              	.LVL111:
 1047 01e4 0AF10101 		add	r1, r10, #1
 1048 01e8 9220     		movs	r0, #146
 1049              	.LVL112:
 1050 01ea FFF7FEFF 		bl	sys_func1
 1051              	.LVL113:
 1052 01ee 8146     		mov	r9, r0
 1053 01f0 B8B1     		cbz	r0, .L106
 568:src/input.c   ****     DispAmount(INPUT.dd_amount, MW_LINE3, MW_BIGFONT);
 1054              		.loc 1 568 0 is_stmt 0 discriminator 1
 1055 01f2 1920     		movs	r0, #25
 1056              	.LVL114:
 1057 01f4 FFF7FEFF 		bl	GetConstMsg
 1058              	.LVL115:
 1059 01f8 5246     		mov	r2, r10
 1060 01fa 0146     		mov	r1, r0
 1061 01fc 4846     		mov	r0, r9
 1062 01fe FFF7FEFF 		bl	memcpy
 1063              	.LVL116:
ARM GAS  C:\Users\AHMEDH~1\AppData\Local\Temp\cck6gOO5.s 			page 38


 1064 0202 4FF48453 		mov	r3, #4224
 1065 0206 09F80A60 		strb	r6, [r9, r10]
 1066 020a 2521     		movs	r1, #37
 1067 020c 0093     		str	r3, [sp]
 1068 020e 0F20     		movs	r0, #15
 1069 0210 4A46     		mov	r2, r9
 1070 0212 4FF48073 		mov	r3, #256
 1071 0216 FFF7FEFF 		bl	lib_app_call
 1072              	.LVL117:
 1073 021a 9420     		movs	r0, #148
 1074 021c 4946     		mov	r1, r9
 1075 021e FFF7FEFF 		bl	sys_func1
 1076              	.LVL118:
 1077              	.L106:
 1078              	.LBE6:
 569:src/input.c   ****     switch (PromptYesNo()) {
 1079              		.loc 1 569 0 is_stmt 1
 1080 0222 D4E90601 		ldrd	r0, [r4, #24]
 1081 0226 4FF44072 		mov	r2, #768
 1082 022a 4FF48053 		mov	r3, #4096
 1083 022e FFF7FEFF 		bl	DispAmount
 1084              	.LVL119:
 570:src/input.c   ****       case 0: /* cancel key */
 1085              		.loc 1 570 0
 1086 0232 FFF7FEFF 		bl	PromptYesNo
 1087              	.LVL120:
 1088 0236 18B1     		cbz	r0, .L93
 1089 0238 0228     		cmp	r0, #2
 1090 023a 7FF416AF 		bne	.L94
 1091              	.LVL121:
 1092              	.L129:
 574:src/input.c   ****     }
 1093              		.loc 1 574 0
 1094 023e 0126     		movs	r6, #1
 1095              	.L93:
 577:src/input.c   **** 
 1096              		.loc 1 577 0
 1097 0240 3046     		mov	r0, r6
 1098 0242 0AB0     		add	sp, sp, #40
 1099              		.cfi_def_cfa_offset 32
 1100              		@ sp needed
 1101 0244 BDE8F087 		pop	{r4, r5, r6, r7, r8, r9, r10, pc}
 1102              	.LVL122:
 1103              	.L133:
 1104              		.align	2
 1105              	.L132:
 1106 0248 00000000 		.word	gGTS
 1107 024c 00000000 		.word	gGDS
 1108 0250 00000000 		.word	.LANCHOR0
 1109 0254 00000000 		.word	.LANCHOR1
 1110              		.cfi_endproc
 1111              	.LFE10:
 1112              		.size	GetAmount, .-GetAmount
 1113              		.section	.text.Expire_diff,"ax",%progbits
 1114              		.align	1
 1115              		.global	Expire_diff
 1116              		.thumb
ARM GAS  C:\Users\AHMEDH~1\AppData\Local\Temp\cck6gOO5.s 			page 39


 1117              		.thumb_func
 1118              		.type	Expire_diff, %function
 1119              	Expire_diff:
 1120              	.LFB11:
 589:src/input.c   **** struct DATETIME dtg;
 1121              		.loc 1 589 0
 1122              		.cfi_startproc
 1123              		@ args = 0, pretend = 0, frame = 8
 1124              		@ frame_needed = 0, uses_anonymous_args = 0
 1125 0000 30B5     		push	{r4, r5, lr}
 1126              		.cfi_def_cfa_offset 12
 1127              		.cfi_offset 4, -12
 1128              		.cfi_offset 5, -8
 1129              		.cfi_offset 14, -4
 1130 0002 85B0     		sub	sp, sp, #20
 1131              		.cfi_def_cfa_offset 32
 592:src/input.c   ****       var_i = (BYTE)bcd2bin(dtg.b_year);
 1132              		.loc 1 592 0
 1133 0004 02A8     		add	r0, sp, #8
 1134 0006 FFF7FEFF 		bl	ReadRTC
 1135              	.LVL123:
 593:src/input.c   ****       var_j = (BYTE)bcd2bin(INPUT.sb_exp_date[0]);
 1136              		.loc 1 593 0
 1137 000a 9DF80900 		ldrb	r0, [sp, #9]	@ zero_extendqisi2
 1138 000e FFF7FEFF 		bl	bcd2bin
 1139              	.LVL124:
 594:src/input.c   ****       if (var_i == var_j) {
 1140              		.loc 1 594 0
 1141 0012 104C     		ldr	r4, .L138
 593:src/input.c   ****       var_j = (BYTE)bcd2bin(INPUT.sb_exp_date[0]);
 1142              		.loc 1 593 0
 1143 0014 C5B2     		uxtb	r5, r0
 1144              	.LVL125:
 594:src/input.c   ****       if (var_i == var_j) {
 1145              		.loc 1 594 0
 1146 0016 E07C     		ldrb	r0, [r4, #19]	@ zero_extendqisi2
 1147 0018 FFF7FEFF 		bl	bcd2bin
 1148              	.LVL126:
 1149 001c C0B2     		uxtb	r0, r0
 1150              	.LVL127:
 595:src/input.c   ****         if (INPUT.sb_exp_date[1] >= dtg.b_month)
 1151              		.loc 1 595 0
 1152 001e 8542     		cmp	r5, r0
 1153 0020 05D1     		bne	.L135
 596:src/input.c   ****           return TRUE;
 1154              		.loc 1 596 0
 1155 0022 227D     		ldrb	r2, [r4, #20]	@ zero_extendqisi2
 1156 0024 9DF80A30 		ldrb	r3, [sp, #10]	@ zero_extendqisi2
 1157 0028 9A42     		cmp	r2, r3
 1158 002a 01D3     		bcc	.L137
 1159 002c 0FE0     		b	.L136
 1160              	.L135:
 598:src/input.c   **** 	   return TRUE;
 1161              		.loc 1 598 0
 1162 002e 0ED8     		bhi	.L136
 1163              	.L137:
 1164              	.LBB9:
ARM GAS  C:\Users\AHMEDH~1\AppData\Local\Temp\cck6gOO5.s 			page 40


 1165              	.LBB10:
 601:src/input.c   ****    if (APM_WaitKey(KBD_TIMEOUT, 300) == MWKEY_ENTER) {  
 1166              		.loc 1 601 0
 1167 0030 1C20     		movs	r0, #28
 1168              	.LVL128:
 1169 0032 FFF7FEFF 		bl	GetConstMsg
 1170              	.LVL129:
 1171 0036 FFF7FEFF 		bl	DispErrorMsg
 1172              	.LVL130:
 602:src/input.c   ****    }
 1173              		.loc 1 602 0
 1174 003a 0023     		movs	r3, #0
 1175 003c 1020     		movs	r0, #16
 1176 003e 0093     		str	r3, [sp]
 1177 0040 0321     		movs	r1, #3
 1178 0042 42F22832 		movw	r2, #9000
 1179 0046 4FF49673 		mov	r3, #300
 1180 004a FFF7FEFF 		bl	lib_app_call
 1181              	.LVL131:
 1182              	.L136:
 1183              	.LBE10:
 1184              	.LBE9:
 607:src/input.c   **** 
 1185              		.loc 1 607 0
 1186 004e 0120     		movs	r0, #1
 1187 0050 05B0     		add	sp, sp, #20
 1188              		.cfi_def_cfa_offset 12
 1189              		@ sp needed
 1190 0052 30BD     		pop	{r4, r5, pc}
 1191              	.LVL132:
 1192              	.L139:
 1193              		.align	2
 1194              	.L138:
 1195 0054 00000000 		.word	gGTS
 1196              		.cfi_endproc
 1197              	.LFE11:
 1198              		.size	Expire_diff, .-Expire_diff
 1199              		.section	.text.ValidCard,"ax",%progbits
 1200              		.align	1
 1201              		.global	ValidCard
 1202              		.thumb
 1203              		.thumb_func
 1204              		.type	ValidCard, %function
 1205              	ValidCard:
 1206              	.LFB7:
 343:src/input.c   ****   BYTE idx, tlen;
 1207              		.loc 1 343 0
 1208              		.cfi_startproc
 1209              		@ args = 0, pretend = 0, frame = 24
 1210              		@ frame_needed = 0, uses_anonymous_args = 0
 1211 0000 2DE9F041 		push	{r4, r5, r6, r7, r8, lr}
 1212              		.cfi_def_cfa_offset 24
 1213              		.cfi_offset 4, -24
 1214              		.cfi_offset 5, -20
 1215              		.cfi_offset 6, -16
 1216              		.cfi_offset 7, -12
 1217              		.cfi_offset 8, -8
ARM GAS  C:\Users\AHMEDH~1\AppData\Local\Temp\cck6gOO5.s 			page 41


 1218              		.cfi_offset 14, -4
 349:src/input.c   ****     if (!InCardTable())
 1219              		.loc 1 349 0
 1220 0004 BA4C     		ldr	r4, .L223
 343:src/input.c   ****   BYTE idx, tlen;
 1221              		.loc 1 343 0
 1222 0006 86B0     		sub	sp, sp, #24
 1223              		.cfi_def_cfa_offset 48
 347:src/input.c   **** 
 1224              		.loc 1 347 0
 1225 0008 BA48     		ldr	r0, .L223+4
 1226 000a 2021     		movs	r1, #32
 1227 000c 1A22     		movs	r2, #26
 1228 000e FFF7FEFF 		bl	memset
 1229              	.LVL133:
 349:src/input.c   ****     if (!InCardTable())
 1230              		.loc 1 349 0
 1231 0012 94F83430 		ldrb	r3, [r4, #52]	@ zero_extendqisi2
 1232 0016 2546     		mov	r5, r4
 1233 0018 03F0FB03 		and	r3, r3, #251
 1234 001c 492B     		cmp	r3, #73
 1235 001e 38D1     		bne	.L141
 350:src/input.c   ****       return FALSE;
 1236              		.loc 1 350 0
 1237 0020 FFF7FEFF 		bl	InCardTable
 1238              	.LVL134:
 1239 0024 38B3     		cbz	r0, .L219
 352:src/input.c   ****       split(&disp_pan[1], INPUT.sb_pan, 10);
 1240              		.loc 1 352 0
 1241 0026 FFF7FEFF 		bl	CheckPAN
 1242              	.LVL135:
 1243 002a C0B1     		cbz	r0, .L144
 353:src/input.c   ****       disp_pan[0] = (BYTE)fndb(&disp_pan[1], 'F', 19);
 1244              		.loc 1 353 0
 1245 002c 04F10901 		add	r1, r4, #9
 1246 0030 0DF10100 		add	r0, sp, #1
 1247 0034 0A22     		movs	r2, #10
 1248 0036 FFF7FEFF 		bl	split
 1249              	.LVL136:
 354:src/input.c   ****       if (!chk_digit_ok(&disp_pan[1], disp_pan[0])) {
 1250              		.loc 1 354 0
 1251 003a 4621     		movs	r1, #70
 1252 003c 1322     		movs	r2, #19
 1253 003e 0DF10100 		add	r0, sp, #1
 1254 0042 FFF7FEFF 		bl	fndb
 1255              	.LVL137:
 1256 0046 0146     		mov	r1, r0
 1257 0048 8DF80000 		strb	r0, [sp]
 355:src/input.c   ****         DispErrorMsg(GetConstMsg(EDC_IN_CHK_DIGIT_ERROR));
 1258              		.loc 1 355 0
 1259 004c C9B2     		uxtb	r1, r1
 1260 004e 0DF10100 		add	r0, sp, #1
 1261 0052 FFF7FEFF 		bl	chk_digit_ok
 1262              	.LVL138:
 1263 0056 0446     		mov	r4, r0
 1264 0058 0028     		cmp	r0, #0
 1265 005a 00F00E81 		beq	.L220
ARM GAS  C:\Users\AHMEDH~1\AppData\Local\Temp\cck6gOO5.s 			page 42


 1266              	.L144:
 360:src/input.c   ****       DispErrorMsg(GetConstMsg(EDC_IN_SWIPE_CARD));
 1267              		.loc 1 360 0
 1268 005e 95F83430 		ldrb	r3, [r5, #52]	@ zero_extendqisi2
 1269 0062 492B     		cmp	r3, #73
 1270 0064 09D1     		bne	.L145
 360:src/input.c   ****       DispErrorMsg(GetConstMsg(EDC_IN_SWIPE_CARD));
 1271              		.loc 1 360 0 is_stmt 0 discriminator 1
 1272 0066 FFF7FEFF 		bl	EMVProcDisable
 1273              	.LVL139:
 1274 006a 30B1     		cbz	r0, .L145
 361:src/input.c   ****       return FALSE;
 1275              		.loc 1 361 0 is_stmt 1
 1276 006c 1220     		movs	r0, #18
 1277 006e FFF7FEFF 		bl	GetConstMsg
 1278              	.LVL140:
 1279 0072 FFF7FEFF 		bl	DispErrorMsg
 1280              	.LVL141:
 1281              	.L219:
 362:src/input.c   ****     }
 1282              		.loc 1 362 0
 1283 0076 0024     		movs	r4, #0
 1284 0078 36E1     		b	.L143
 1285              	.L145:
 364:src/input.c   ****       if (!ValidEMVData()) {
 1286              		.loc 1 364 0
 1287 007a 95F83430 		ldrb	r3, [r5, #52]	@ zero_extendqisi2
 1288 007e 492B     		cmp	r3, #73
 1289 0080 01D0     		beq	.L146
 1290              	.L147:
 370:src/input.c   ****   }
 1291              		.loc 1 370 0
 1292 0082 0124     		movs	r4, #1
 1293 0084 30E1     		b	.L143
 1294              	.L146:
 365:src/input.c   ****         DispErrorMsg(GetConstMsg(EDC_RSP_READ_ERROR));
 1295              		.loc 1 365 0
 1296 0086 FFF7FEFF 		bl	ValidEMVData
 1297              	.LVL142:
 1298 008a 0446     		mov	r4, r0
 1299 008c 0028     		cmp	r0, #0
 1300 008e F8D1     		bne	.L147
 1301 0090 0CE0     		b	.L221
 1302              	.L141:
 1303              	.LBB21:
 1304              	.LBB22:
 103:src/input.c   **** }
 1305              		.loc 1 103 0
 1306 0092 94F8A032 		ldrb	r3, [r4, #672]	@ zero_extendqisi2
 1307 0096 013B     		subs	r3, r3, #1
 1308              	.LBE22:
 1309              	.LBE21:
 373:src/input.c   ****     DispErrorMsg(GetConstMsg(EDC_RSP_READ_ERROR));
 1310              		.loc 1 373 0
 1311 0098 DBB2     		uxtb	r3, r3
 1312 009a FD2B     		cmp	r3, #253
 1313 009c 0AD9     		bls	.L148
ARM GAS  C:\Users\AHMEDH~1\AppData\Local\Temp\cck6gOO5.s 			page 43


 1314              	.LBB23:
 1315              	.LBB24:
  91:src/input.c   **** }
 1316              		.loc 1 91 0
 1317 009e 94F80032 		ldrb	r3, [r4, #512]	@ zero_extendqisi2
 1318 00a2 0024     		movs	r4, #0
 1319 00a4 013B     		subs	r3, r3, #1
 1320              	.LBE24:
 1321              	.LBE23:
 373:src/input.c   ****     DispErrorMsg(GetConstMsg(EDC_RSP_READ_ERROR));
 1322              		.loc 1 373 0
 1323 00a6 DBB2     		uxtb	r3, r3
 1324 00a8 FD2B     		cmp	r3, #253
 1325 00aa 01D9     		bls	.L149
 1326              	.L221:
 374:src/input.c   ****     return FALSE;
 1327              		.loc 1 374 0
 1328 00ac 7520     		movs	r0, #117
 1329 00ae 17E1     		b	.L218
 1330              	.L149:
 378:src/input.c   ****   if (!Trk1Ready())
 1331              		.loc 1 378 0
 1332 00b0 85F8A042 		strb	r4, [r5, #672]
 1333              	.L148:
 1334              	.LBB25:
 1335              	.LBB26:
  91:src/input.c   **** }
 1336              		.loc 1 91 0
 1337 00b4 95F80032 		ldrb	r3, [r5, #512]	@ zero_extendqisi2
 1338              	.LBE26:
 1339              	.LBE25:
 382:src/input.c   ****   disp_pan[0] = (BYTE) ExtractPAN(INPUT.sb_pan, INPUT.sb_exp_date);
 1340              		.loc 1 382 0
 1341 00b8 8F48     		ldr	r0, .L223+8
 1342              	.LBB28:
 1343              	.LBB27:
  91:src/input.c   **** }
 1344              		.loc 1 91 0
 1345 00ba 013B     		subs	r3, r3, #1
 1346              	.LBE27:
 1347              	.LBE28:
 382:src/input.c   ****   disp_pan[0] = (BYTE) ExtractPAN(INPUT.sb_pan, INPUT.sb_exp_date);
 1348              		.loc 1 382 0
 1349 00bc FF21     		movs	r1, #255
 379:src/input.c   ****     INPUT.s_trk1buf.b_len = 0;
 1350              		.loc 1 379 0
 1351 00be DBB2     		uxtb	r3, r3
 1352 00c0 FD2B     		cmp	r3, #253
 380:src/input.c   **** 
 1353              		.loc 1 380 0
 1354 00c2 84BF     		itt	hi
 1355 00c4 0022     		movhi	r2, #0
 1356 00c6 8A4B     		ldrhi	r3, .L223
 1357              	.LBB29:
 1358              	.LBB30:
 177:src/input.c   ****     for (idx=0;idx < INPUT.s_trk1buf.b_len; idx++) {
 1359              		.loc 1 177 0
ARM GAS  C:\Users\AHMEDH~1\AppData\Local\Temp\cck6gOO5.s 			page 44


 1360 00c8 894F     		ldr	r7, .L223
 1361              	.LBE30:
 1362              	.LBE29:
 380:src/input.c   **** 
 1363              		.loc 1 380 0
 1364 00ca 88BF     		it	hi
 1365 00cc 83F80022 		strbhi	r2, [r3, #512]
 382:src/input.c   ****   disp_pan[0] = (BYTE) ExtractPAN(INPUT.sb_pan, INPUT.sb_exp_date);
 1366              		.loc 1 382 0
 1367 00d0 0A22     		movs	r2, #10
 1368 00d2 FFF7FEFF 		bl	memset
 1369              	.LVL143:
 1370              	.LBB32:
 1371              	.LBB31:
 177:src/input.c   ****     for (idx=0;idx < INPUT.s_trk1buf.b_len; idx++) {
 1372              		.loc 1 177 0
 1373 00d6 95F8A022 		ldrb	r2, [r5, #672]	@ zero_extendqisi2
 1374 00da 002A     		cmp	r2, #0
 1375 00dc 45D1     		bne	.L151
 178:src/input.c   ****       if (INPUT.s_trk1buf.sb_content[idx] == 'B')
 1376              		.loc 1 178 0
 1377 00de 97F80072 		ldrb	r7, [r7, #512]	@ zero_extendqisi2
 1378              	.L152:
 1379              	.LVL144:
 1380 00e2 BA42     		cmp	r2, r7
 1381 00e4 02F10104 		add	r4, r2, #1
 1382 00e8 04D2     		bcs	.L156
 1383 00ea 2A44     		add	r2, r2, r5
 1384              	.LVL145:
 179:src/input.c   ****         break;
 1385              		.loc 1 179 0
 1386 00ec 92F80132 		ldrb	r3, [r2, #513]	@ zero_extendqisi2
 1387 00f0 422B     		cmp	r3, #66
 1388 00f2 06D1     		bne	.L153
 1389              	.L156:
 1390              	.LVL146:
 185:src/input.c   ****     while (TRUE) {
 1391              		.loc 1 185 0
 1392 00f4 6846     		mov	r0, sp
 1393 00f6 4621     		movs	r1, #70
 1394 00f8 1422     		movs	r2, #20
 1395 00fa FFF7FEFF 		bl	memset
 1396              	.LVL147:
 184:src/input.c   ****     memset(tmp, 'F', sizeof(tmp));
 1397              		.loc 1 184 0
 1398 00fe 0026     		movs	r6, #0
 1399 0100 17E0     		b	.L154
 1400              	.LVL148:
 1401              	.L153:
 178:src/input.c   ****       if (INPUT.s_trk1buf.sb_content[idx] == 'B')
 1402              		.loc 1 178 0
 1403 0102 2246     		mov	r2, r4
 1404              	.LVL149:
 1405 0104 EDE7     		b	.L152
 1406              	.LVL150:
 1407              	.L222:
 187:src/input.c   ****           (INPUT.s_trk1buf.sb_content[idx] == 0x3d) || (INPUT.s_trk1buf.sb_content[idx] == 0x5e) ||
ARM GAS  C:\Users\AHMEDH~1\AppData\Local\Temp\cck6gOO5.s 			page 45


 1408              		.loc 1 187 0
 1409 0106 3B2B     		cmp	r3, #59
 1410 0108 18D0     		beq	.L157
 1411 010a 3D2B     		cmp	r3, #61
 1412 010c 16D0     		beq	.L157
 188:src/input.c   ****           (idx > 20)
 1413              		.loc 1 188 0
 1414 010e 5E2B     		cmp	r3, #94
 1415 0110 14D0     		beq	.L157
 1416 0112 142C     		cmp	r4, #20
 1417 0114 12D8     		bhi	.L157
 1418              	.LVL151:
 193:src/input.c   ****           tmp[len++] = INPUT.s_trk1buf.sb_content[idx];
 1419              		.loc 1 193 0
 1420 0116 A3F13002 		sub	r2, r3, #48
 1421 011a 092A     		cmp	r2, #9
 194:src/input.c   ****       }
 1422              		.loc 1 194 0
 1423 011c 9CBF     		itt	ls
 1424 011e 06AA     		addls	r2, sp, #24
 1425 0120 9219     		addls	r2, r2, r6
 196:src/input.c   ****       if (idx >= INPUT.s_trk1buf.b_len)  // !2006-02-17
 1426              		.loc 1 196 0
 1427 0122 04F10104 		add	r4, r4, #1
 1428              	.LVL152:
 194:src/input.c   ****       }
 1429              		.loc 1 194 0
 1430 0126 9CBF     		itt	ls
 1431 0128 02F8183C 		strbls	r3, [r2, #-24]
 1432 012c 0136     		addls	r6, r6, #1
 1433              	.LVL153:
 197:src/input.c   ****         break;
 1434              		.loc 1 197 0
 1435 012e BC42     		cmp	r4, r7
 1436 0130 04D2     		bcs	.L157
 1437              	.LVL154:
 1438              	.L154:
 1439 0132 2B19     		adds	r3, r5, r4
 187:src/input.c   ****           (INPUT.s_trk1buf.sb_content[idx] == 0x3d) || (INPUT.s_trk1buf.sb_content[idx] == 0x5e) ||
 1440              		.loc 1 187 0
 1441 0134 93F80132 		ldrb	r3, [r3, #513]	@ zero_extendqisi2
 1442 0138 2A2B     		cmp	r3, #42
 1443 013a E4D1     		bne	.L222
 1444              	.L157:
 200:src/input.c   ****     idx++;
 1445              		.loc 1 200 0
 1446 013c 721C     		adds	r2, r6, #1
 1447 013e 6E48     		ldr	r0, .L223+8
 1448              	.LVL155:
 1449 0140 6946     		mov	r1, sp
 1450 0142 5208     		lsrs	r2, r2, #1
 1451 0144 FFF7FEFF 		bl	compress
 1452              	.LVL156:
 201:src/input.c   ****     for ( ;idx < 76; idx++) {
 1453              		.loc 1 201 0
 1454 0148 0134     		adds	r4, r4, #1
 1455              	.LVL157:
ARM GAS  C:\Users\AHMEDH~1\AppData\Local\Temp\cck6gOO5.s 			page 46


 1456              	.L159:
 202:src/input.c   ****       if (INPUT.s_trk1buf.sb_content[idx] == 0x5e)
 1457              		.loc 1 202 0
 1458 014a 4B2C     		cmp	r4, #75
 1459 014c 04F10101 		add	r1, r4, #1
 1460 0150 04D8     		bhi	.L163
 1461 0152 2C44     		add	r4, r4, r5
 1462              	.LVL158:
 203:src/input.c   ****         break;
 1463              		.loc 1 203 0
 1464 0154 94F80132 		ldrb	r3, [r4, #513]	@ zero_extendqisi2
 1465 0158 5E2B     		cmp	r3, #94
 1466 015a 04D1     		bne	.L160
 1467              	.L163:
 206:src/input.c   ****   }
 1468              		.loc 1 206 0
 1469 015c 01F50071 		add	r1, r1, #512
 1470              	.LVL159:
 1471 0160 2944     		add	r1, r1, r5
 1472              	.LVL160:
 1473 0162 6648     		ldr	r0, .L223+12
 1474              	.LVL161:
 1475 0164 23E0     		b	.L217
 1476              	.LVL162:
 1477              	.L160:
 202:src/input.c   ****       if (INPUT.s_trk1buf.sb_content[idx] == 0x5e)
 1478              		.loc 1 202 0
 1479 0166 0C46     		mov	r4, r1
 1480              	.LVL163:
 1481 0168 EFE7     		b	.L159
 1482              	.LVL164:
 1483              	.L151:
 209:src/input.c   ****     if (len <= 19) {
 1484              		.loc 1 209 0
 1485 016a 6548     		ldr	r0, .L223+16
 1486 016c 3D21     		movs	r1, #61
 1487 016e FFF7FEFF 		bl	fndb
 1488              	.LVL165:
 210:src/input.c   ****       INPUT.s_trk2buf.sb_content[len] = 0x3f; /* cater for odd len */
 1489              		.loc 1 210 0
 1490 0172 1328     		cmp	r0, #19
 209:src/input.c   ****     if (len <= 19) {
 1491              		.loc 1 209 0
 1492 0174 0646     		mov	r6, r0
 1493              	.LVL166:
 210:src/input.c   ****       INPUT.s_trk2buf.sb_content[len] = 0x3f; /* cater for odd len */
 1494              		.loc 1 210 0
 1495 0176 1FD8     		bhi	.L176
 211:src/input.c   ****       memset(aPAN, 0xFF, 10);
 1496              		.loc 1 211 0
 1497 0178 3F23     		movs	r3, #63
 1498 017a 07EB0008 		add	r8, r7, r0
 212:src/input.c   ****       compress(aPAN, INPUT.s_trk2buf.sb_content, (BYTE)((len+1)/2));
 1499              		.loc 1 212 0
 1500 017e FF21     		movs	r1, #255
 1501 0180 0A22     		movs	r2, #10
 213:src/input.c   ****       INPUT.s_trk2buf.sb_content[len] = SEPERATOR2; /* cater for odd len */
ARM GAS  C:\Users\AHMEDH~1\AppData\Local\Temp\cck6gOO5.s 			page 47


 1502              		.loc 1 213 0
 1503 0182 741C     		adds	r4, r6, #1
 212:src/input.c   ****       compress(aPAN, INPUT.s_trk2buf.sb_content, (BYTE)((len+1)/2));
 1504              		.loc 1 212 0
 1505 0184 07F10900 		add	r0, r7, #9
 1506              	.LVL167:
 211:src/input.c   ****       memset(aPAN, 0xFF, 10);
 1507              		.loc 1 211 0
 1508 0188 88F8A132 		strb	r3, [r8, #673]
 212:src/input.c   ****       compress(aPAN, INPUT.s_trk2buf.sb_content, (BYTE)((len+1)/2));
 1509              		.loc 1 212 0
 1510 018c FFF7FEFF 		bl	memset
 1511              	.LVL168:
 213:src/input.c   ****       INPUT.s_trk2buf.sb_content[len] = SEPERATOR2; /* cater for odd len */
 1512              		.loc 1 213 0
 1513 0190 07F10900 		add	r0, r7, #9
 1514 0194 00F52671 		add	r1, r0, #664
 1515 0198 6208     		lsrs	r2, r4, #1
 1516 019a FFF7FEFF 		bl	compress
 1517              	.LVL169:
 215:src/input.c   ****     }
 1518              		.loc 1 215 0
 1519 019e 04F52871 		add	r1, r4, #672
 214:src/input.c   ****       compress(aExpDate, &INPUT.s_trk2buf.sb_content[1+len], 2);
 1520              		.loc 1 214 0
 1521 01a2 3D23     		movs	r3, #61
 215:src/input.c   ****     }
 1522              		.loc 1 215 0
 1523 01a4 3944     		add	r1, r1, r7
 1524 01a6 07F11300 		add	r0, r7, #19
 214:src/input.c   ****       compress(aExpDate, &INPUT.s_trk2buf.sb_content[1+len], 2);
 1525              		.loc 1 214 0
 1526 01aa 88F8A132 		strb	r3, [r8, #673]
 1527              	.L217:
 215:src/input.c   ****     }
 1528              		.loc 1 215 0
 1529 01ae 0131     		adds	r1, r1, #1
 1530 01b0 0222     		movs	r2, #2
 1531 01b2 FFF7FEFF 		bl	compress
 1532              	.LVL170:
 1533 01b6 00E0     		b	.L161
 1534              	.LVL171:
 1535              	.L176:
 218:src/input.c   ****   }
 1536              		.loc 1 218 0
 1537 01b8 0026     		movs	r6, #0
 1538              	.LVL172:
 1539              	.L161:
 1540              	.LBE31:
 1541              	.LBE32:
 383:src/input.c   ****   
 1542              		.loc 1 383 0
 1543 01ba 8DF80060 		strb	r6, [sp]
 386:src/input.c   ****     return FALSE;
 1544              		.loc 1 386 0
 1545 01be FFF7FEFF 		bl	Expire_diff
 1546              	.LVL173:
ARM GAS  C:\Users\AHMEDH~1\AppData\Local\Temp\cck6gOO5.s 			page 48


 1547 01c2 0028     		cmp	r0, #0
 1548 01c4 3FF457AF 		beq	.L219
 390:src/input.c   ****     return FALSE;
 1549              		.loc 1 390 0
 1550 01c8 FFF7FEFF 		bl	InCardTable
 1551              	.LVL174:
 1552 01cc 0028     		cmp	r0, #0
 1553 01ce 3FF452AF 		beq	.L219
 394:src/input.c   ****     idx = CardServiceCode();
 1554              		.loc 1 394 0
 1555 01d2 95F83430 		ldrb	r3, [r5, #52]	@ zero_extendqisi2
 1556 01d6 464F     		ldr	r7, .L223
 1557 01d8 492B     		cmp	r3, #73
 1558 01da 3DD0     		beq	.L166
 394:src/input.c   ****     idx = CardServiceCode();
 1559              		.loc 1 394 0 is_stmt 0 discriminator 1
 1560 01dc 462B     		cmp	r3, #70
 1561 01de 3BD0     		beq	.L166
 394:src/input.c   ****     idx = CardServiceCode();
 1562              		.loc 1 394 0 discriminator 2
 1563 01e0 FFF7FEFF 		bl	EMVProcDisable
 1564              	.LVL175:
 1565 01e4 0446     		mov	r4, r0
 1566 01e6 B8BB     		cbnz	r0, .L166
 1567              	.LVL176:
 1568              	.LBB33:
 1569              	.LBB34:
 143:src/input.c   ****     // track 2 missing, get it from track 1
 1570              		.loc 1 143 0 is_stmt 1
 1571 01e8 97F8A032 		ldrb	r3, [r7, #672]	@ zero_extendqisi2
 1572 01ec 013B     		subs	r3, r3, #1
 1573 01ee DBB2     		uxtb	r3, r3
 1574 01f0 FD2B     		cmp	r3, #253
 1575 01f2 16D9     		bls	.L168
 145:src/input.c   ****     if (len < 22) {
 1576              		.loc 1 145 0
 1577 01f4 4348     		ldr	r0, .L223+20
 1578 01f6 5E21     		movs	r1, #94
 1579 01f8 1622     		movs	r2, #22
 1580 01fa FFF7FEFF 		bl	fndb
 1581              	.LVL177:
 146:src/input.c   ****       scode = (BYTE) fndb(&INPUT.s_trk1buf.sb_content[len+1], (BYTE)SEPARATOR_5E, 30);
 1582              		.loc 1 146 0
 1583 01fe C6B2     		uxtb	r6, r0
 1584              	.LVL178:
 1585 0200 152E     		cmp	r6, #21
 1586 0202 1AD8     		bhi	.L175
 147:src/input.c   ****       if (scode < 30)
 1587              		.loc 1 147 0
 1588 0204 B819     		adds	r0, r7, r6
 1589              	.LVL179:
 1590 0206 00F20220 		addw	r0, r0, #514
 1591 020a 5E21     		movs	r1, #94
 1592 020c 1E22     		movs	r2, #30
 1593 020e FFF7FEFF 		bl	fndb
 1594              	.LVL180:
 148:src/input.c   ****         scode = INPUT.s_trk1buf.sb_content[len+scode+2]; // SERVICE CODE POSITION
ARM GAS  C:\Users\AHMEDH~1\AppData\Local\Temp\cck6gOO5.s 			page 49


 1595              		.loc 1 148 0
 1596 0212 C0B2     		uxtb	r0, r0
 1597 0214 1D28     		cmp	r0, #29
 1598 0216 10D8     		bhi	.L175
 149:src/input.c   ****       else
 1599              		.loc 1 149 0
 1600 0218 3E44     		add	r6, r6, r7
 1601              	.LVL181:
 1602 021a 0644     		add	r6, r6, r0
 1603 021c 96F80332 		ldrb	r3, [r6, #515]	@ zero_extendqisi2
 1604              	.LVL182:
 1605 0220 0AE0     		b	.L170
 1606              	.LVL183:
 1607              	.L168:
 155:src/input.c   ****     if (len < 20)
 1608              		.loc 1 155 0
 1609 0222 3748     		ldr	r0, .L223+16
 1610 0224 3D21     		movs	r1, #61
 1611 0226 1422     		movs	r2, #20
 1612 0228 FFF7FEFF 		bl	fndb
 1613              	.LVL184:
 156:src/input.c   ****       scode = INPUT.s_trk2buf.sb_content[len+5]; // SERVICE CODE POSITION
 1614              		.loc 1 156 0
 1615 022c C0B2     		uxtb	r0, r0
 1616 022e 1328     		cmp	r0, #19
 1617 0230 03D8     		bhi	.L175
 157:src/input.c   ****   }
 1618              		.loc 1 157 0
 1619 0232 3844     		add	r0, r0, r7
 1620              	.LVL185:
 1621 0234 90F8A632 		ldrb	r3, [r0, #678]	@ zero_extendqisi2
 1622              	.LVL186:
 1623              	.L170:
 1624              	.LBE34:
 1625              	.LBE33:
 396:src/input.c   ****       DispErrorMsg(GetConstMsg(EDC_RSP_INVALID_CARD));
 1626              		.loc 1 396 0
 1627 0238 0BB9     		cbnz	r3, .L171
 1628              	.LVL187:
 1629              	.L175:
 397:src/input.c   ****       return FALSE;
 1630              		.loc 1 397 0
 1631 023a 7D20     		movs	r0, #125
 1632 023c 50E0     		b	.L218
 1633              	.LVL188:
 1634              	.L171:
 400:src/input.c   ****       if (INPUT.b_entry_mode != FALLBACK) {
 1635              		.loc 1 400 0
 1636 023e 03F0FB03 		and	r3, r3, #251
 1637              	.LVL189:
 1638 0242 322B     		cmp	r3, #50
 1639 0244 05D1     		bne	.L172
 401:src/input.c   ****         DispErrorMsg(GetConstMsg(EDC_IN_USE_ICC));
 1640              		.loc 1 401 0
 1641 0246 95F83430 		ldrb	r3, [r5, #52]	@ zero_extendqisi2
 1642 024a 462B     		cmp	r3, #70
 1643 024c 04D0     		beq	.L166
ARM GAS  C:\Users\AHMEDH~1\AppData\Local\Temp\cck6gOO5.s 			page 50


 402:src/input.c   ****         return FALSE; // EMV SMC
 1644              		.loc 1 402 0
 1645 024e 1120     		movs	r0, #17
 1646 0250 46E0     		b	.L218
 1647              	.L172:
 406:src/input.c   ****   }
 1648              		.loc 1 406 0
 1649 0252 5323     		movs	r3, #83
 1650 0254 85F83430 		strb	r3, [r5, #52]
 1651              	.L166:
 408:src/input.c   ****     split(&disp_pan[1], INPUT.sb_pan, 10);
 1652              		.loc 1 408 0
 1653 0258 FFF7FEFF 		bl	CheckPAN
 1654              	.LVL190:
 1655 025c 78B1     		cbz	r0, .L173
 409:src/input.c   ****     if (!chk_digit_ok(&disp_pan[1], disp_pan[0])) {
 1656              		.loc 1 409 0
 1657 025e 0DF10100 		add	r0, sp, #1
 1658 0262 2549     		ldr	r1, .L223+8
 1659              	.LVL191:
 1660 0264 0A22     		movs	r2, #10
 1661 0266 FFF7FEFF 		bl	split
 1662              	.LVL192:
 410:src/input.c   ****       DispErrorMsg(GetConstMsg(EDC_IN_CHK_DIGIT_ERROR));
 1663              		.loc 1 410 0
 1664 026a 0DF10100 		add	r0, sp, #1
 1665 026e 9DF80010 		ldrb	r1, [sp]	@ zero_extendqisi2
 1666 0272 FFF7FEFF 		bl	chk_digit_ok
 1667              	.LVL193:
 1668 0276 0446     		mov	r4, r0
 1669 0278 08B9     		cbnz	r0, .L173
 1670              	.LVL194:
 1671              	.L220:
 411:src/input.c   ****       return FALSE;
 1672              		.loc 1 411 0
 1673 027a 1020     		movs	r0, #16
 1674 027c 30E0     		b	.L218
 1675              	.LVL195:
 1676              	.L173:
 415:src/input.c   ****     idx = FindSeperator(INPUT.s_trk1buf.sb_content, 0) + 1;
 1677              		.loc 1 415 0
 1678 027e 95F80032 		ldrb	r3, [r5, #512]	@ zero_extendqisi2
 1679 0282 1B4E     		ldr	r6, .L223
 1680 0284 013B     		subs	r3, r3, #1
 1681 0286 DBB2     		uxtb	r3, r3
 1682 0288 FD2B     		cmp	r3, #253
 1683 028a 16D8     		bhi	.L174
 416:src/input.c   ****     if (idx) {
 1684              		.loc 1 416 0
 1685 028c 0020     		movs	r0, #0
 1686 028e FFF7FEFF 		bl	FindSeperator.constprop.2
 1687              	.LVL196:
 1688 0292 0130     		adds	r0, r0, #1
 1689              	.LVL197:
 417:src/input.c   ****       tlen = FindSeperator(INPUT.s_trk1buf.sb_content, idx);
 1690              		.loc 1 417 0
 1691 0294 10F0FF04 		ands	r4, r0, #255
ARM GAS  C:\Users\AHMEDH~1\AppData\Local\Temp\cck6gOO5.s 			page 51


 1692 0298 0FD0     		beq	.L174
 418:src/input.c   ****       if ((tlen == 0xFF) || (tlen > sizeof(INPUT.sb_holder_name)))
 1693              		.loc 1 418 0
 1694 029a 2046     		mov	r0, r4
 1695              	.LVL198:
 1696 029c FFF7FEFF 		bl	FindSeperator.constprop.2
 1697              	.LVL199:
 422:src/input.c   ****     }
 1698              		.loc 1 422 0
 1699 02a0 04F50071 		add	r1, r4, #512
 1700 02a4 3144     		add	r1, r1, r6
 1701 02a6 0131     		adds	r1, r1, #1
 1702 02a8 1A28     		cmp	r0, #26
 1703 02aa 0246     		mov	r2, r0
 1704 02ac 28BF     		it	cs
 1705 02ae 1A22     		movcs	r2, #26
 1706 02b0 06F13500 		add	r0, r6, #53
 1707              	.LVL200:
 1708 02b4 D2B2     		uxtb	r2, r2
 1709 02b6 FFF7FEFF 		bl	memcpy
 1710              	.LVL201:
 1711              	.L174:
 425:src/input.c   ****     return TRUE;
 1712              		.loc 1 425 0
 1713 02ba 95F8A032 		ldrb	r3, [r5, #672]	@ zero_extendqisi2
 1714 02be 002B     		cmp	r3, #0
 1715 02c0 3FF4DFAE 		beq	.L147
 427:src/input.c   ****     return TRUE;
 1716              		.loc 1 427 0
 1717 02c4 9DF80030 		ldrb	r3, [sp]	@ zero_extendqisi2
 1718 02c8 0948     		ldr	r0, .L223
 1719 02ca 0421     		movs	r1, #4
 1720 02cc 1844     		add	r0, r0, r3
 1721 02ce 00F2A220 		addw	r0, r0, #674
 1722 02d2 FFF7FEFF 		bl	isbdigit
 1723              	.LVL202:
 1724 02d6 0446     		mov	r4, r0
 1725 02d8 0028     		cmp	r0, #0
 1726 02da 7FF4D2AE 		bne	.L147
 430:src/input.c   ****   return FALSE;
 1727              		.loc 1 430 0
 1728 02de 1F20     		movs	r0, #31
 1729              	.LVL203:
 1730              	.L218:
 1731 02e0 FFF7FEFF 		bl	GetConstMsg
 1732              	.LVL204:
 1733 02e4 FFF7FEFF 		bl	DispErrorMsg
 1734              	.LVL205:
 1735              	.L143:
 432:src/input.c   **** //*****************************************************************************
 1736              		.loc 1 432 0
 1737 02e8 2046     		mov	r0, r4
 1738 02ea 06B0     		add	sp, sp, #24
 1739              		.cfi_def_cfa_offset 24
 1740              		@ sp needed
 1741 02ec BDE8F081 		pop	{r4, r5, r6, r7, r8, pc}
 1742              	.L224:
ARM GAS  C:\Users\AHMEDH~1\AppData\Local\Temp\cck6gOO5.s 			page 52


 1743              		.align	2
 1744              	.L223:
 1745 02f0 00000000 		.word	gGTS
 1746 02f4 35000000 		.word	gGTS+53
 1747 02f8 09000000 		.word	gGTS+9
 1748 02fc 13000000 		.word	gGTS+19
 1749 0300 A1020000 		.word	gGTS+673
 1750 0304 01020000 		.word	gGTS+513
 1751              		.cfi_endproc
 1752              	.LFE7:
 1753              		.size	ValidCard, .-ValidCard
 1754              		.section	.text.GetExpDate,"ax",%progbits
 1755              		.align	1
 1756              		.global	GetExpDate
 1757              		.thumb
 1758              		.thumb_func
 1759              		.type	GetExpDate, %function
 1760              	GetExpDate:
 1761              	.LFB12:
 619:src/input.c   ****   struct DATETIME dtg;
 1762              		.loc 1 619 0
 1763              		.cfi_startproc
 1764              		@ args = 0, pretend = 0, frame = 40
 1765              		@ frame_needed = 0, uses_anonymous_args = 0
 1766 0000 70B5     		push	{r4, r5, r6, lr}
 1767              		.cfi_def_cfa_offset 16
 1768              		.cfi_offset 4, -16
 1769              		.cfi_offset 5, -12
 1770              		.cfi_offset 6, -8
 1771              		.cfi_offset 14, -4
 624:src/input.c   ****   if (!ExpDateReqd()) {
 1772              		.loc 1 624 0
 1773 0002 0023     		movs	r3, #0
 1774 0004 424C     		ldr	r4, .L247
 619:src/input.c   ****   struct DATETIME dtg;
 1775              		.loc 1 619 0
 1776 0006 8CB0     		sub	sp, sp, #48
 1777              		.cfi_def_cfa_offset 64
 624:src/input.c   ****   if (!ExpDateReqd()) {
 1778              		.loc 1 624 0
 1779 0008 84F8F632 		strb	r3, [r4, #758]
 625:src/input.c   ****    // memset(INPUT.sb_exp_date, 0, sizeof(INPUT.sb_exp_date));
 1780              		.loc 1 625 0
 1781 000c FFF7FEFF 		bl	ExpDateReqd
 1782              	.LVL206:
 1783 0010 68BB     		cbnz	r0, .L242
 1784              	.L236:
 627:src/input.c   ****   }
 1785              		.loc 1 627 0
 1786 0012 0120     		movs	r0, #1
 1787 0014 7AE0     		b	.L227
 1788              	.L246:
 631:src/input.c   ****       Disp2x16Msg(GetConstMsg(EDC_IN_EXPIRY_DATE), MW_LINE3, MW_BIGFONT);
 1789              		.loc 1 631 0
 1790 0016 0023     		movs	r3, #0
 1791 0018 0CAD     		add	r5, sp, #48
 632:src/input.c   ****       if (!APM_GetKbd(NUMERIC_INPUT+ECHO+MW_BIGFONT+MW_LINE7+RIGHT_JUST,IMIN(4)+IMAX(4), kbdbuf))
ARM GAS  C:\Users\AHMEDH~1\AppData\Local\Temp\cck6gOO5.s 			page 53


 1792              		.loc 1 632 0
 1793 001a 1A20     		movs	r0, #26
 631:src/input.c   ****       Disp2x16Msg(GetConstMsg(EDC_IN_EXPIRY_DATE), MW_LINE3, MW_BIGFONT);
 1794              		.loc 1 631 0
 1795 001c 05F8203D 		strb	r3, [r5, #-32]!
 632:src/input.c   ****       if (!APM_GetKbd(NUMERIC_INPUT+ECHO+MW_BIGFONT+MW_LINE7+RIGHT_JUST,IMIN(4)+IMAX(4), kbdbuf))
 1796              		.loc 1 632 0
 1797 0020 FFF7FEFF 		bl	GetConstMsg
 1798              	.LVL207:
 1799 0024 4FF44071 		mov	r1, #768
 1800 0028 4FF48052 		mov	r2, #4096
 1801 002c FFF7FEFF 		bl	Disp2x16Msg
 1802              	.LVL208:
 633:src/input.c   ****         return FALSE;
 1803              		.loc 1 633 0
 1804 0030 0095     		str	r5, [sp]
 1805 0032 1020     		movs	r0, #16
 1806 0034 0521     		movs	r1, #5
 1807 0036 374A     		ldr	r2, .L247+4
 1808 0038 40F20443 		movw	r3, #1028
 1809 003c FFF7FEFF 		bl	lib_app_call
 1810              	.LVL209:
 1811 0040 10F0FF0F 		tst	r0, #255
 1812 0044 1DD0     		beq	.L239
 635:src/input.c   ****       INPUT.sb_exp_date[0] = kbdbuf[6];  // YY
 1813              		.loc 1 635 0
 1814 0046 691C     		adds	r1, r5, #1
 1815 0048 0222     		movs	r2, #2
 1816 004a 681D     		adds	r0, r5, #5
 1817 004c FFF7FEFF 		bl	compress
 1818              	.LVL210:
 636:src/input.c   ****       INPUT.sb_exp_date[1] = kbdbuf[5];  // MM
 1819              		.loc 1 636 0
 1820 0050 9DF81620 		ldrb	r2, [sp, #22]	@ zero_extendqisi2
 637:src/input.c   ****       if (((kbdbuf[6] & 0xf) > 9)  || (kbdbuf[6] > 0x99) ||
 1821              		.loc 1 637 0
 1822 0054 9DF81530 		ldrb	r3, [sp, #21]	@ zero_extendqisi2
 638:src/input.c   ****           ((kbdbuf[5] & 0xf) > 9)  || !(kbdbuf[5]) || (kbdbuf[5] > 0x12) ) {
 1823              		.loc 1 638 0
 1824 0058 02F00F01 		and	r1, r2, #15
 1825 005c 0929     		cmp	r1, #9
 636:src/input.c   ****       INPUT.sb_exp_date[1] = kbdbuf[5];  // MM
 1826              		.loc 1 636 0
 1827 005e F274     		strb	r2, [r6, #19]
 637:src/input.c   ****       if (((kbdbuf[6] & 0xf) > 9)  || (kbdbuf[6] > 0x99) ||
 1828              		.loc 1 637 0
 1829 0060 3375     		strb	r3, [r6, #20]
 638:src/input.c   ****           ((kbdbuf[5] & 0xf) > 9)  || !(kbdbuf[5]) || (kbdbuf[5] > 0x12) ) {
 1830              		.loc 1 638 0
 1831 0062 10D9     		bls	.L245
 1832              	.L230:
 640:src/input.c   ****         continue;
 1833              		.loc 1 640 0
 1834 0064 1B20     		movs	r0, #27
 1835 0066 FFF7FEFF 		bl	GetConstMsg
 1836              	.LVL211:
 1837 006a FFF7FEFF 		bl	DispErrorMsg
ARM GAS  C:\Users\AHMEDH~1\AppData\Local\Temp\cck6gOO5.s 			page 54


 1838              	.LVL212:
 1839              	.L242:
 630:src/input.c   ****       kbdbuf[0] = 0;
 1840              		.loc 1 630 0
 1841 006e 94F83430 		ldrb	r3, [r4, #52]	@ zero_extendqisi2
 1842 0072 274E     		ldr	r6, .L247
 1843 0074 4D2B     		cmp	r3, #77
 1844 0076 0FD1     		bne	.L228
 1845 0078 CDE7     		b	.L246
 1846              	.L244:
 671:src/input.c   ****       return FALSE;
 1847              		.loc 1 671 0
 1848 007a 94F83430 		ldrb	r3, [r4, #52]	@ zero_extendqisi2
 1849 007e 4D2B     		cmp	r3, #77
 1850 0080 F5D0     		beq	.L242
 1851              	.L239:
 634:src/input.c   ****       compress(&kbdbuf[5],&kbdbuf[1], 2);
 1852              		.loc 1 634 0
 1853 0082 0020     		movs	r0, #0
 1854 0084 42E0     		b	.L227
 1855              	.L245:
 638:src/input.c   ****           ((kbdbuf[5] & 0xf) > 9)  || !(kbdbuf[5]) || (kbdbuf[5] > 0x12) ) {
 1856              		.loc 1 638 0 discriminator 1
 1857 0086 992A     		cmp	r2, #153
 1858 0088 ECD8     		bhi	.L230
 638:src/input.c   ****           ((kbdbuf[5] & 0xf) > 9)  || !(kbdbuf[5]) || (kbdbuf[5] > 0x12) ) {
 1859              		.loc 1 638 0 is_stmt 0 discriminator 2
 1860 008a 03F00F02 		and	r2, r3, #15
 1861 008e 092A     		cmp	r2, #9
 1862 0090 E8D8     		bhi	.L230
 639:src/input.c   ****         DispErrorMsg(GetConstMsg(EDC_IN_INV_EXPIRE));
 1863              		.loc 1 639 0 is_stmt 1
 1864 0092 013B     		subs	r3, r3, #1
 1865 0094 112B     		cmp	r3, #17
 1866 0096 E5D8     		bhi	.L230
 1867              	.L228:
 645:src/input.c   ****         (var_i < 0x13) && ((var_i & 0xf) < 0xa)) {
 1868              		.loc 1 645 0
 1869 0098 237D     		ldrb	r3, [r4, #20]	@ zero_extendqisi2
 1870              	.LVL213:
 1871 009a 1D4E     		ldr	r6, .L247
 1872 009c 5A1E     		subs	r2, r3, #1
 1873 009e 112A     		cmp	r2, #17
 1874 00a0 0CD9     		bls	.L232
 1875              	.LVL214:
 1876              	.L235:
 665:src/input.c   ****     if (!ExpiryReject()) {
 1877              		.loc 1 665 0
 1878 00a2 1C20     		movs	r0, #28
 1879 00a4 FFF7FEFF 		bl	GetConstMsg
 1880              	.LVL215:
 1881 00a8 FFF7FEFF 		bl	DispErrorMsg
 1882              	.LVL216:
 666:src/input.c   ****       INPUT.b_card_expired = TRUE;
 1883              		.loc 1 666 0
 1884 00ac FFF7FEFF 		bl	ExpiryReject
 1885              	.LVL217:
ARM GAS  C:\Users\AHMEDH~1\AppData\Local\Temp\cck6gOO5.s 			page 55


 1886 00b0 0028     		cmp	r0, #0
 1887 00b2 E2D1     		bne	.L244
 667:src/input.c   ****       return TRUE;
 1888              		.loc 1 667 0
 1889 00b4 0120     		movs	r0, #1
 1890 00b6 84F8F602 		strb	r0, [r4, #758]
 668:src/input.c   ****     }
 1891              		.loc 1 668 0
 1892 00ba 27E0     		b	.L227
 1893              	.LVL218:
 1894              	.L232:
 646:src/input.c   ****       if (!CheckExpDate())
 1895              		.loc 1 646 0
 1896 00bc 03F00F03 		and	r3, r3, #15
 1897              	.LVL219:
 1898 00c0 092B     		cmp	r3, #9
 1899 00c2 EED8     		bhi	.L235
 647:src/input.c   ****         return TRUE;
 1900              		.loc 1 647 0
 1901 00c4 FFF7FEFF 		bl	CheckExpDate
 1902              	.LVL220:
 1903 00c8 0028     		cmp	r0, #0
 1904 00ca A2D0     		beq	.L236
 650:src/input.c   ****       var_i = (BYTE)bcd2bin(dtg.b_year);
 1905              		.loc 1 650 0
 1906 00cc 02A8     		add	r0, sp, #8
 1907 00ce FFF7FEFF 		bl	ReadRTC
 1908              	.LVL221:
 651:src/input.c   ****       var_j = (BYTE)bcd2bin(INPUT.sb_exp_date[0]);
 1909              		.loc 1 651 0
 1910 00d2 9DF80900 		ldrb	r0, [sp, #9]	@ zero_extendqisi2
 1911 00d6 FFF7FEFF 		bl	bcd2bin
 1912              	.LVL222:
 1913 00da C5B2     		uxtb	r5, r0
 1914              	.LVL223:
 652:src/input.c   ****       if (var_i == var_j) {
 1915              		.loc 1 652 0
 1916 00dc F07C     		ldrb	r0, [r6, #19]	@ zero_extendqisi2
 1917 00de FFF7FEFF 		bl	bcd2bin
 1918              	.LVL224:
 1919 00e2 C0B2     		uxtb	r0, r0
 1920              	.LVL225:
 653:src/input.c   ****         if (INPUT.sb_exp_date[1] >= dtg.b_month)
 1921              		.loc 1 653 0
 1922 00e4 8542     		cmp	r5, r0
 1923 00e6 05D1     		bne	.L237
 654:src/input.c   ****           return TRUE;
 1924              		.loc 1 654 0
 1925 00e8 327D     		ldrb	r2, [r6, #20]	@ zero_extendqisi2
 1926 00ea 9DF80A30 		ldrb	r3, [sp, #10]	@ zero_extendqisi2
 1927 00ee 9A42     		cmp	r2, r3
 1928 00f0 D7D3     		bcc	.L235
 1929 00f2 8EE7     		b	.L236
 1930              	.L237:
 656:src/input.c   ****         if ((var_j < 50 ) || (var_j > var_i))
 1931              		.loc 1 656 0
 1932 00f4 312D     		cmp	r5, #49
ARM GAS  C:\Users\AHMEDH~1\AppData\Local\Temp\cck6gOO5.s 			page 56


 1933 00f6 04D9     		bls	.L238
 657:src/input.c   ****           return TRUE;
 1934              		.loc 1 657 0
 1935 00f8 3128     		cmp	r0, #49
 1936 00fa 8AD9     		bls	.L236
 657:src/input.c   ****           return TRUE;
 1937              		.loc 1 657 0 is_stmt 0 discriminator 1
 1938 00fc A842     		cmp	r0, r5
 1939 00fe D0D9     		bls	.L235
 1940 0100 87E7     		b	.L236
 1941              	.L238:
 660:src/input.c   ****           return TRUE;
 1942              		.loc 1 660 0 is_stmt 1
 1943 0102 A842     		cmp	r0, r5
 1944 0104 CDD9     		bls	.L235
 660:src/input.c   ****           return TRUE;
 1945              		.loc 1 660 0 is_stmt 0 discriminator 1
 1946 0106 3128     		cmp	r0, #49
 1947 0108 CBD8     		bhi	.L235
 1948 010a 82E7     		b	.L236
 1949              	.LVL226:
 1950              	.L227:
 674:src/input.c   **** //*****************************************************************************
 1951              		.loc 1 674 0 is_stmt 1
 1952 010c 0CB0     		add	sp, sp, #48
 1953              		.cfi_def_cfa_offset 16
 1954              		@ sp needed
 1955 010e 70BD     		pop	{r4, r5, r6, pc}
 1956              	.L248:
 1957              		.align	2
 1958              	.L247:
 1959 0110 00000000 		.word	gGTS
 1960 0114 FF172000 		.word	2103295
 1961              		.cfi_endproc
 1962              	.LFE12:
 1963              		.size	GetExpDate, .-GetExpDate
 1964              		.section	.text.GetProductCode,"ax",%progbits
 1965              		.align	1
 1966              		.global	GetProductCode
 1967              		.thumb
 1968              		.thumb_func
 1969              		.type	GetProductCode, %function
 1970              	GetProductCode:
 1971              	.LFB13:
 685:src/input.c   ****   DWORD keyin, max_select, line_no;
 1972              		.loc 1 685 0
 1973              		.cfi_startproc
 1974              		@ args = 0, pretend = 0, frame = 40
 1975              		@ frame_needed = 0, uses_anonymous_args = 0
 691:src/input.c   ****   if (!DescriptorReqd())
 1976              		.loc 1 691 0
 1977 0000 4FF0FF32 		mov	r2, #-1
 685:src/input.c   ****   DWORD keyin, max_select, line_no;
 1978              		.loc 1 685 0
 1979 0004 2DE9F04F 		push	{r4, r5, r6, r7, r8, r9, r10, fp, lr}
 1980              		.cfi_def_cfa_offset 36
 1981              		.cfi_offset 4, -36
ARM GAS  C:\Users\AHMEDH~1\AppData\Local\Temp\cck6gOO5.s 			page 57


 1982              		.cfi_offset 5, -32
 1983              		.cfi_offset 6, -28
 1984              		.cfi_offset 7, -24
 1985              		.cfi_offset 8, -20
 1986              		.cfi_offset 9, -16
 1987              		.cfi_offset 10, -12
 1988              		.cfi_offset 11, -8
 1989              		.cfi_offset 14, -4
 691:src/input.c   ****   if (!DescriptorReqd())
 1990              		.loc 1 691 0
 1991 0008 A84B     		ldr	r3, .L318
 685:src/input.c   ****   DWORD keyin, max_select, line_no;
 1992              		.loc 1 685 0
 1993 000a 8DB0     		sub	sp, sp, #52
 1994              		.cfi_def_cfa_offset 88
 691:src/input.c   ****   if (!DescriptorReqd())
 1995              		.loc 1 691 0
 1996 000c 1A60     		str	r2, [r3]
 692:src/input.c   ****     return TRUE;
 1997              		.loc 1 692 0
 1998 000e FFF7FEFF 		bl	DescriptorReqd
 1999              	.LVL227:
 2000 0012 0028     		cmp	r0, #0
 2001 0014 00F04581 		beq	.L315
 695:src/input.c   ****   if (max_select == 0)
 2002              		.loc 1 695 0
 2003 0018 0024     		movs	r4, #0
 2004 001a 1020     		movs	r0, #16
 2005 001c 0094     		str	r4, [sp]
 2006 001e 1621     		movs	r1, #22
 2007 0020 2246     		mov	r2, r4
 2008 0022 2346     		mov	r3, r4
 2009 0024 FFF7FEFF 		bl	lib_app_call
 2010              	.LVL228:
 696:src/input.c   ****     return TRUE;
 2011              		.loc 1 696 0
 2012 0028 0546     		mov	r5, r0
 2013 002a 0028     		cmp	r0, #0
 2014 002c 00F03981 		beq	.L315
 699:src/input.c   ****     INPUT.sb_product[0]=0;
 2015              		.loc 1 699 0
 2016 0030 0128     		cmp	r0, #1
 2017 0032 03D1     		bne	.L253
 700:src/input.c   ****     return TRUE;
 2018              		.loc 1 700 0
 2019 0034 9E4B     		ldr	r3, .L318+4
 2020 0036 83F83040 		strb	r4, [r3, #48]
 2021 003a 32E1     		b	.L315
 2022              	.L253:
 704:src/input.c   ****   memset(product_select, 0, sizeof(struct PRODUCT)*max_select);
 2023              		.loc 1 704 0
 2024 003c 4701     		lsls	r7, r0, #5
 2025 003e 3946     		mov	r1, r7
 2026 0040 9220     		movs	r0, #146
 2027              	.LVL229:
 2028 0042 FFF7FEFF 		bl	sys_func1
 2029              	.LVL230:
ARM GAS  C:\Users\AHMEDH~1\AppData\Local\Temp\cck6gOO5.s 			page 58


 705:src/input.c   **** 
 2030              		.loc 1 705 0
 2031 0046 2146     		mov	r1, r4
 2032 0048 3A46     		mov	r2, r7
 704:src/input.c   ****   memset(product_select, 0, sizeof(struct PRODUCT)*max_select);
 2033              		.loc 1 704 0
 2034 004a 0646     		mov	r6, r0
 2035              	.LVL231:
 705:src/input.c   **** 
 2036              		.loc 1 705 0
 2037 004c FFF7FEFF 		bl	memset
 2038              	.LVL232:
 2039              	.L254:
 708:src/input.c   ****     offset = i;
 2040              		.loc 1 708 0 discriminator 1
 2041 0050 AC42     		cmp	r4, r5
 2042 0052 0CD2     		bcs	.L316
 2043              	.LVL233:
 710:src/input.c   ****   }
 2044              		.loc 1 710 0 discriminator 3
 2045 0054 0022     		movs	r2, #0
 2046 0056 06EB4413 		add	r3, r6, r4, lsl #5
 2047 005a 0092     		str	r2, [sp]
 2048 005c 2246     		mov	r2, r4
 708:src/input.c   ****     offset = i;
 2049              		.loc 1 708 0 discriminator 3
 2050 005e 0134     		adds	r4, r4, #1
 2051              	.LVL234:
 710:src/input.c   ****   }
 2052              		.loc 1 710 0 discriminator 3
 2053 0060 1020     		movs	r0, #16
 2054 0062 1721     		movs	r1, #23
 2055 0064 0433     		adds	r3, r3, #4
 2056 0066 FFF7FEFF 		bl	lib_app_call
 2057              	.LVL235:
 708:src/input.c   ****     offset = i;
 2058              		.loc 1 708 0 discriminator 3
 2059 006a E4B2     		uxtb	r4, r4
 2060              	.LVL236:
 2061 006c F0E7     		b	.L254
 2062              	.L316:
 2063              	.LBB35:
 713:src/input.c   ****   line_no = MW_LINE3;
 2064              		.loc 1 713 0
 2065 006e 1D20     		movs	r0, #29
 2066 0070 FFF7FEFF 		bl	GetConstMsg
 2067              	.LVL237:
 2068 0074 FFF7FEFF 		bl	strlen
 2069              	.LVL238:
 2070 0078 0746     		mov	r7, r0
 2071              	.LVL239:
 2072 007a 791C     		adds	r1, r7, #1
 2073 007c 9220     		movs	r0, #146
 2074              	.LVL240:
 2075 007e FFF7FEFF 		bl	sys_func1
 2076              	.LVL241:
 2077 0082 0446     		mov	r4, r0
ARM GAS  C:\Users\AHMEDH~1\AppData\Local\Temp\cck6gOO5.s 			page 59


 2078              	.LVL242:
 2079 0084 B8B1     		cbz	r0, .L256
 713:src/input.c   ****   line_no = MW_LINE3;
 2080              		.loc 1 713 0 is_stmt 0 discriminator 1
 2081 0086 1D20     		movs	r0, #29
 2082              	.LVL243:
 2083 0088 FFF7FEFF 		bl	GetConstMsg
 2084              	.LVL244:
 2085 008c 3A46     		mov	r2, r7
 2086 008e 0146     		mov	r1, r0
 2087 0090 2046     		mov	r0, r4
 2088 0092 FFF7FEFF 		bl	memcpy
 2089              	.LVL245:
 2090 0096 0023     		movs	r3, #0
 2091 0098 2521     		movs	r1, #37
 2092 009a E355     		strb	r3, [r4, r7]
 2093 009c 41F29203 		movw	r3, #4242
 2094 00a0 0F20     		movs	r0, #15
 2095 00a2 0093     		str	r3, [sp]
 2096 00a4 2246     		mov	r2, r4
 2097 00a6 4FF48073 		mov	r3, #256
 2098 00aa FFF7FEFF 		bl	lib_app_call
 2099              	.LVL246:
 2100 00ae 9420     		movs	r0, #148
 2101 00b0 2146     		mov	r1, r4
 2102 00b2 FFF7FEFF 		bl	sys_func1
 2103              	.LVL247:
 2104              	.L256:
 2105              	.LBE35:
 708:src/input.c   ****     offset = i;
 2106              		.loc 1 708 0 is_stmt 1
 2107 00b6 0027     		movs	r7, #0
 2108              	.LVL248:
 2109 00b8 0297     		str	r7, [sp, #8]
 2110              	.LVL249:
 2111              	.L257:
 718:src/input.c   ****     while ((line_no<MW_MAX_LINE)&&(offset<max_select)) {
 2112              		.loc 1 718 0
 2113 00ba 0023     		movs	r3, #0
 2114 00bc 0F20     		movs	r0, #15
 2115 00be 0093     		str	r3, [sp]
 2116 00c0 2321     		movs	r1, #35
 2117 00c2 4FF44072 		mov	r2, #768
 2118 00c6 FFF7FEFF 		bl	lib_app_call
 2119              	.LVL250:
 2120 00ca 4FF44074 		mov	r4, #768
 2121 00ce DDF80890 		ldr	r9, [sp, #8]
 2122              	.LVL251:
 2123              	.L258:
 719:src/input.c   ****       memset(tmp, ' ', sizeof(tmp));
 2124              		.loc 1 719 0 discriminator 1
 2125 00d2 A945     		cmp	r9, r5
 2126 00d4 64D2     		bcs	.L317
 722:src/input.c   ****       tmp[1] = ' ';
 2127              		.loc 1 722 0
 2128 00d6 0FFA89FA 		sxth	r10, r9
 720:src/input.c   ****       tmp[MW_MAX_LINESIZE] = 0;
ARM GAS  C:\Users\AHMEDH~1\AppData\Local\Temp\cck6gOO5.s 			page 60


 2129              		.loc 1 720 0
 2130 00da 2021     		movs	r1, #32
 2131 00dc 1B22     		movs	r2, #27
 2132 00de 05A8     		add	r0, sp, #20
 2133 00e0 FFF7FEFF 		bl	memset
 2134              	.LVL252:
 722:src/input.c   ****       tmp[1] = ' ';
 2135              		.loc 1 722 0
 2136 00e4 4FEA4A13 		lsl	r3, r10, #5
 2137 00e8 F118     		adds	r1, r6, r3
 721:src/input.c   ****       tmp[0] = product_select[offset].s_prod.b_key;
 2138              		.loc 1 721 0
 2139 00ea 4FF0000B 		mov	fp, #0
 722:src/input.c   ****       tmp[1] = ' ';
 2140              		.loc 1 722 0
 2141 00ee 0393     		str	r3, [sp, #12]
 721:src/input.c   ****       tmp[0] = product_select[offset].s_prod.b_key;
 2142              		.loc 1 721 0
 2143 00f0 8DF82EB0 		strb	fp, [sp, #46]
 722:src/input.c   ****       tmp[1] = ' ';
 2144              		.loc 1 722 0
 2145 00f4 0B79     		ldrb	r3, [r1, #4]	@ zero_extendqisi2
 724:src/input.c   ****       DispLineMW(tmp, line_no, (product_select[offset].b_selected?MW_REVERSE:0)|MW_SPFONT);
 2146              		.loc 1 724 0
 2147 00f6 1322     		movs	r2, #19
 722:src/input.c   ****       tmp[1] = ' ';
 2148              		.loc 1 722 0
 2149 00f8 8DF81430 		strb	r3, [sp, #20]
 723:src/input.c   ****       memcpy(&tmp[2], product_select[offset].s_prod.sb_text, 19);
 2150              		.loc 1 723 0
 2151 00fc 2023     		movs	r3, #32
 724:src/input.c   ****       DispLineMW(tmp, line_no, (product_select[offset].b_selected?MW_REVERSE:0)|MW_SPFONT);
 2152              		.loc 1 724 0
 2153 00fe 0731     		adds	r1, r1, #7
 2154 0100 0DF11600 		add	r0, sp, #22
 723:src/input.c   ****       memcpy(&tmp[2], product_select[offset].s_prod.sb_text, 19);
 2155              		.loc 1 723 0
 2156 0104 8DF81530 		strb	r3, [sp, #21]
 724:src/input.c   ****       DispLineMW(tmp, line_no, (product_select[offset].b_selected?MW_REVERSE:0)|MW_SPFONT);
 2157              		.loc 1 724 0
 2158 0108 FFF7FEFF 		bl	memcpy
 2159              	.LVL253:
 2160              	.LBB36:
 725:src/input.c   ****       line_no += (MW_LINE3-MW_LINE2);
 2161              		.loc 1 725 0
 2162 010c 05A8     		add	r0, sp, #20
 2163 010e FFF7FEFF 		bl	strlen
 2164              	.LVL254:
 2165 0112 8246     		mov	r10, r0
 2166              	.LVL255:
 2167 0114 0AF10101 		add	r1, r10, #1
 2168 0118 9220     		movs	r0, #146
 2169              	.LVL256:
 2170 011a FFF7FEFF 		bl	sys_func1
 2171              	.LVL257:
 2172 011e 8046     		mov	r8, r0
 2173 0120 C0B1     		cbz	r0, .L259
ARM GAS  C:\Users\AHMEDH~1\AppData\Local\Temp\cck6gOO5.s 			page 61


 725:src/input.c   ****       line_no += (MW_LINE3-MW_LINE2);
 2174              		.loc 1 725 0 is_stmt 0 discriminator 1
 2175 0122 05A9     		add	r1, sp, #20
 2176 0124 5246     		mov	r2, r10
 2177 0126 FFF7FEFF 		bl	memcpy
 2178              	.LVL258:
 2179 012a 039B     		ldr	r3, [sp, #12]
 2180 012c 08F80AB0 		strb	fp, [r8, r10]
 2181 0130 F25C     		ldrb	r2, [r6, r3]	@ zero_extendqisi2
 2182 0132 42F21003 		movw	r3, #8208
 2183 0136 5A45     		cmp	r2, fp
 2184 0138 08BF     		it	eq
 2185 013a 4FF40053 		moveq	r3, #8192
 2186 013e 2521     		movs	r1, #37
 2187 0140 0093     		str	r3, [sp]
 2188 0142 0F20     		movs	r0, #15
 2189 0144 4246     		mov	r2, r8
 2190 0146 2346     		mov	r3, r4
 2191 0148 FFF7FEFF 		bl	lib_app_call
 2192              	.LVL259:
 2193 014c 9420     		movs	r0, #148
 2194 014e 4146     		mov	r1, r8
 2195 0150 FFF7FEFF 		bl	sys_func1
 2196              	.LVL260:
 2197              	.L259:
 2198              	.LBE36:
 726:src/input.c   ****       offset++;
 2199              		.loc 1 726 0 is_stmt 1
 2200 0154 04F58074 		add	r4, r4, #256
 2201              	.LVL261:
 727:src/input.c   ****     }
 2202              		.loc 1 727 0
 2203 0158 09F10109 		add	r9, r9, #1
 2204              	.LVL262:
 719:src/input.c   ****       memset(tmp, ' ', sizeof(tmp));
 2205              		.loc 1 719 0
 2206 015c B4F5106F 		cmp	r4, #2304
 727:src/input.c   ****     }
 2207              		.loc 1 727 0
 2208 0160 5FFA89F9 		uxtb	r9, r9
 2209              	.LVL263:
 719:src/input.c   ****       memset(tmp, ' ', sizeof(tmp));
 2210              		.loc 1 719 0
 2211 0164 B5D1     		bne	.L258
 729:src/input.c   ****       if (offset < max_select) {
 2212              		.loc 1 729 0
 2213 0166 052D     		cmp	r5, #5
 2214 0168 24D9     		bls	.L264
 730:src/input.c   ****         DispLineMW("<CLR>Down<ENT>Confirm", MW_MAX_LINE, MW_REVERSE|MW_SPFONT);
 2215              		.loc 1 730 0
 2216 016a A945     		cmp	r9, r5
 2217 016c 1AD2     		bcs	.L265
 2218              	.LVL264:
 2219              	.LBB37:
 731:src/input.c   ****       }
 2220              		.loc 1 731 0
 2221 016e 9220     		movs	r0, #146
ARM GAS  C:\Users\AHMEDH~1\AppData\Local\Temp\cck6gOO5.s 			page 62


 2222 0170 1621     		movs	r1, #22
 2223 0172 FFF7FEFF 		bl	sys_func1
 2224              	.LVL265:
 2225 0176 8246     		mov	r10, r0
 2226              	.LVL266:
 2227 0178 B0B3     		cbz	r0, .L266
 731:src/input.c   ****       }
 2228              		.loc 1 731 0 is_stmt 0 discriminator 1
 2229 017a 4E49     		ldr	r1, .L318+8
 2230 017c 1522     		movs	r2, #21
 2231 017e FFF7FEFF 		bl	memcpy
 2232              	.LVL267:
 2233 0182 0023     		movs	r3, #0
 2234 0184 2521     		movs	r1, #37
 2235 0186 8AF81530 		strb	r3, [r10, #21]
 2236 018a 42F21003 		movw	r3, #8208
 2237 018e 0F20     		movs	r0, #15
 2238 0190 0093     		str	r3, [sp]
 2239 0192 5246     		mov	r2, r10
 2240 0194 2346     		mov	r3, r4
 2241 0196 FFF7FEFF 		bl	lib_app_call
 2242              	.LVL268:
 2243 019a 9420     		movs	r0, #148
 2244 019c 5146     		mov	r1, r10
 2245 019e 21E0     		b	.L313
 2246              	.LVL269:
 2247              	.L317:
 2248              	.LBE37:
 729:src/input.c   ****       if (offset < max_select) {
 2249              		.loc 1 729 0 is_stmt 1
 2250 01a0 052D     		cmp	r5, #5
 2251 01a2 07D9     		bls	.L264
 2252              	.L265:
 2253              	.LVL270:
 2254              	.LBB38:
 734:src/input.c   ****       }
 2255              		.loc 1 734 0
 2256 01a4 9220     		movs	r0, #146
 2257 01a6 1621     		movs	r1, #22
 2258 01a8 FFF7FEFF 		bl	sys_func1
 2259              	.LVL271:
 2260 01ac 0446     		mov	r4, r0
 2261              	.LVL272:
 2262 01ae D8B1     		cbz	r0, .L266
 734:src/input.c   ****       }
 2263              		.loc 1 734 0 is_stmt 0 discriminator 1
 2264 01b0 4149     		ldr	r1, .L318+12
 2265 01b2 06E0     		b	.L314
 2266              	.LVL273:
 2267              	.L264:
 2268              	.LBE38:
 2269              	.LBB39:
 738:src/input.c   **** 
 2270              		.loc 1 738 0 is_stmt 1
 2271 01b4 9220     		movs	r0, #146
 2272 01b6 1621     		movs	r1, #22
 2273 01b8 FFF7FEFF 		bl	sys_func1
ARM GAS  C:\Users\AHMEDH~1\AppData\Local\Temp\cck6gOO5.s 			page 63


 2274              	.LVL274:
 2275 01bc 0446     		mov	r4, r0
 2276              	.LVL275:
 2277 01be 98B1     		cbz	r0, .L266
 738:src/input.c   **** 
 2278              		.loc 1 738 0 is_stmt 0 discriminator 1
 2279 01c0 3E49     		ldr	r1, .L318+16
 2280              	.LVL276:
 2281              	.L314:
 2282 01c2 1522     		movs	r2, #21
 2283 01c4 FFF7FEFF 		bl	memcpy
 2284              	.LVL277:
 2285 01c8 0023     		movs	r3, #0
 2286 01ca 2521     		movs	r1, #37
 2287 01cc 6375     		strb	r3, [r4, #21]
 2288              	.LVL278:
 2289 01ce 42F21003 		movw	r3, #8208
 2290 01d2 0F20     		movs	r0, #15
 2291 01d4 0093     		str	r3, [sp]
 2292 01d6 2246     		mov	r2, r4
 2293 01d8 4FF41063 		mov	r3, #2304
 2294 01dc FFF7FEFF 		bl	lib_app_call
 2295              	.LVL279:
 2296 01e0 9420     		movs	r0, #148
 2297 01e2 2146     		mov	r1, r4
 2298              	.L313:
 2299 01e4 FFF7FEFF 		bl	sys_func1
 2300              	.LVL280:
 2301              	.L266:
 2302              	.LBE39:
 740:src/input.c   ****     if ((keyin>='0')&&(keyin<='0'+max_select)) {
 2303              		.loc 1 740 0 is_stmt 1
 2304 01e8 0024     		movs	r4, #0
 2305 01ea 1020     		movs	r0, #16
 2306 01ec 0094     		str	r4, [sp]
 2307 01ee 0321     		movs	r1, #3
 2308 01f0 42F22832 		movw	r2, #9000
 2309 01f4 2346     		mov	r3, r4
 2310 01f6 FFF7FEFF 		bl	lib_app_call
 2311              	.LVL281:
 741:src/input.c   ****       for (i=0; i < max_select; i++) {
 2312              		.loc 1 741 0
 2313 01fa 2F28     		cmp	r0, #47
 740:src/input.c   ****     if ((keyin>='0')&&(keyin<='0'+max_select)) {
 2314              		.loc 1 740 0
 2315 01fc 8246     		mov	r10, r0
 2316              	.LVL282:
 741:src/input.c   ****       for (i=0; i < max_select; i++) {
 2317              		.loc 1 741 0
 2318 01fe 24D9     		bls	.L267
 741:src/input.c   ****       for (i=0; i < max_select; i++) {
 2319              		.loc 1 741 0 is_stmt 0 discriminator 1
 2320 0200 05F13003 		add	r3, r5, #48
 2321 0204 9842     		cmp	r0, r3
 2322 0206 2FD8     		bhi	.L278
 2323              	.L268:
 2324              	.LVL283:
ARM GAS  C:\Users\AHMEDH~1\AppData\Local\Temp\cck6gOO5.s 			page 64


 742:src/input.c   ****         if (product_select[i].s_prod.b_key == keyin) {
 2325              		.loc 1 742 0 is_stmt 1 discriminator 1
 2326 0208 AC42     		cmp	r4, r5
 2327 020a 19D2     		bcs	.L272
 743:src/input.c   ****           if ((!product_select[i].b_selected) && (select_cnt == 4)) {
 2328              		.loc 1 743 0
 2329 020c 06EB4412 		add	r2, r6, r4, lsl #5
 2330 0210 1379     		ldrb	r3, [r2, #4]	@ zero_extendqisi2
 2331 0212 5345     		cmp	r3, r10
 2332 0214 11D1     		bne	.L270
 744:src/input.c   ****             LongBeep();
 2333              		.loc 1 744 0
 2334 0216 1378     		ldrb	r3, [r2]	@ zero_extendqisi2
 2335 0218 23B9     		cbnz	r3, .L271
 744:src/input.c   ****             LongBeep();
 2336              		.loc 1 744 0 is_stmt 0 discriminator 1
 2337 021a 042F     		cmp	r7, #4
 2338 021c 02D1     		bne	.L271
 745:src/input.c   ****             break;
 2339              		.loc 1 745 0 is_stmt 1
 2340 021e FFF7FEFF 		bl	LongBeep
 2341              	.LVL284:
 746:src/input.c   ****           }
 2342              		.loc 1 746 0
 2343 0222 0DE0     		b	.L272
 2344              	.LVL285:
 2345              	.L271:
 748:src/input.c   ****           select_cnt += product_select[i].b_selected?1:-1;
 2346              		.loc 1 748 0
 2347 0224 B3FA83F3 		clz	r3, r3
 2348 0228 5B09     		lsrs	r3, r3, #5
 2349 022a 1370     		strb	r3, [r2]
 749:src/input.c   ****           break;
 2350              		.loc 1 749 0
 2351 022c 002B     		cmp	r3, #0
 2352 022e 14BF     		ite	ne
 2353 0230 0123     		movne	r3, #1
 2354 0232 FF23     		moveq	r3, #255
 2355 0234 1F44     		add	r7, r7, r3
 2356              	.LVL286:
 2357 0236 FFB2     		uxtb	r7, r7
 2358              	.LVL287:
 750:src/input.c   ****         }
 2359              		.loc 1 750 0
 2360 0238 02E0     		b	.L272
 2361              	.L270:
 742:src/input.c   ****         if (product_select[i].s_prod.b_key == keyin) {
 2362              		.loc 1 742 0 discriminator 2
 2363 023a 0134     		adds	r4, r4, #1
 2364              	.LVL288:
 2365 023c E4B2     		uxtb	r4, r4
 2366              	.LVL289:
 2367 023e E3E7     		b	.L268
 2368              	.LVL290:
 2369              	.L272:
 753:src/input.c   ****         LongBeep();
 2370              		.loc 1 753 0
ARM GAS  C:\Users\AHMEDH~1\AppData\Local\Temp\cck6gOO5.s 			page 65


 2371 0240 AC42     		cmp	r4, r5
 2372 0242 11D1     		bne	.L278
 754:src/input.c   ****     }
 2373              		.loc 1 754 0
 2374 0244 FFF7FEFF 		bl	LongBeep
 2375              	.LVL291:
 2376 0248 0EE0     		b	.L278
 2377              	.LVL292:
 2378              	.L267:
 756:src/input.c   ****       break;
 2379              		.loc 1 756 0
 2380 024a 1028     		cmp	r0, #16
 2381 024c 04D1     		bne	.L275
 756:src/input.c   ****       break;
 2382              		.loc 1 756 0 is_stmt 0 discriminator 1
 2383 024e 002F     		cmp	r7, #0
 2384 0250 3FF433AF 		beq	.L257
 756:src/input.c   ****       break;
 2385              		.loc 1 756 0
 2386 0254 2346     		mov	r3, r4
 2387 0256 1EE0     		b	.L284
 2388              	.L275:
 758:src/input.c   ****       start_offset=offset = (offset == max_select) ? 0 : offset;
 2389              		.loc 1 758 0 is_stmt 1
 2390 0258 1228     		cmp	r0, #18
 2391 025a 05D1     		bne	.L278
 759:src/input.c   ****     else
 2392              		.loc 1 759 0
 2393 025c 4B46     		mov	r3, r9
 2394 025e A945     		cmp	r9, r5
 2395 0260 08BF     		it	eq
 2396 0262 0023     		moveq	r3, #0
 2397 0264 0293     		str	r3, [sp, #8]
 2398              	.LVL293:
 2399 0266 28E7     		b	.L257
 2400              	.LVL294:
 2401              	.L278:
 763:src/input.c   **** 
 2402              		.loc 1 763 0
 2403 0268 BAF1110F 		cmp	r10, #17
 2404 026c 7FF425AF 		bne	.L257
 766:src/input.c   ****     return FALSE;
 2405              		.loc 1 766 0
 2406 0270 9420     		movs	r0, #148
 2407 0272 3146     		mov	r1, r6
 2408 0274 FFF7FEFF 		bl	sys_func1
 2409              	.LVL295:
 767:src/input.c   ****   }
 2410              		.loc 1 767 0
 2411 0278 0020     		movs	r0, #0
 2412 027a 13E0     		b	.L310
 2413              	.LVL296:
 2414              	.L283:
 772:src/input.c   ****       break;
 2415              		.loc 1 772 0
 2416 027c A742     		cmp	r7, r4
 2417 027e 0CD0     		beq	.L281
ARM GAS  C:\Users\AHMEDH~1\AppData\Local\Temp\cck6gOO5.s 			page 66


 774:src/input.c   ****       INPUT.sb_product[offset]=i;
 2418              		.loc 1 774 0
 2419 0280 5A01     		lsls	r2, r3, #5
 2420 0282 B25C     		ldrb	r2, [r6, r2]	@ zero_extendqisi2
 2421 0284 2AB1     		cbz	r2, .L282
 775:src/input.c   ****       offset++;
 2422              		.loc 1 775 0
 2423 0286 0A4A     		ldr	r2, .L318+4
 2424 0288 2244     		add	r2, r2, r4
 776:src/input.c   ****     }
 2425              		.loc 1 776 0
 2426 028a 0134     		adds	r4, r4, #1
 2427              	.LVL297:
 775:src/input.c   ****       offset++;
 2428              		.loc 1 775 0
 2429 028c 82F83030 		strb	r3, [r2, #48]
 776:src/input.c   ****     }
 2430              		.loc 1 776 0
 2431 0290 E4B2     		uxtb	r4, r4
 2432              	.LVL298:
 2433              	.L282:
 771:src/input.c   ****     if (select_cnt == offset)
 2434              		.loc 1 771 0 discriminator 2
 2435 0292 0133     		adds	r3, r3, #1
 2436              	.LVL299:
 2437 0294 DBB2     		uxtb	r3, r3
 2438              	.LVL300:
 2439              	.L284:
 771:src/input.c   ****     if (select_cnt == offset)
 2440              		.loc 1 771 0 is_stmt 0 discriminator 1
 2441 0296 AB42     		cmp	r3, r5
 2442 0298 F0D3     		bcc	.L283
 2443              	.L281:
 779:src/input.c   ****   return TRUE;
 2444              		.loc 1 779 0 is_stmt 1
 2445 029a 9420     		movs	r0, #148
 2446              	.LVL301:
 2447 029c 3146     		mov	r1, r6
 2448 029e FFF7FEFF 		bl	sys_func1
 2449              	.LVL302:
 2450              	.L315:
 780:src/input.c   **** }
 2451              		.loc 1 780 0
 2452 02a2 0120     		movs	r0, #1
 2453              	.L310:
 781:src/input.c   **** //*****************************************************************************
 2454              		.loc 1 781 0
 2455 02a4 0DB0     		add	sp, sp, #52
 2456              		.cfi_def_cfa_offset 36
 2457              		@ sp needed
 2458 02a6 BDE8F08F 		pop	{r4, r5, r6, r7, r8, r9, r10, fp, pc}
 2459              	.L319:
 2460 02aa 00BF     		.align	2
 2461              	.L318:
 2462 02ac 30000000 		.word	gGTS+48
 2463 02b0 00000000 		.word	gGTS
 2464 02b4 00000000 		.word	.LC0
ARM GAS  C:\Users\AHMEDH~1\AppData\Local\Temp\cck6gOO5.s 			page 67


 2465 02b8 16000000 		.word	.LC1
 2466 02bc 2C000000 		.word	.LC2
 2467              		.cfi_endproc
 2468              	.LFE13:
 2469              		.size	GetProductCode, .-GetProductCode
 2470              		.section	.text.Get4DBC,"ax",%progbits
 2471              		.align	1
 2472              		.global	Get4DBC
 2473              		.thumb
 2474              		.thumb_func
 2475              		.type	Get4DBC, %function
 2476              	Get4DBC:
 2477              	.LFB14:
 791:src/input.c   ****   BYTE kbdbuf[32];
 2478              		.loc 1 791 0
 2479              		.cfi_startproc
 2480              		@ args = 0, pretend = 0, frame = 32
 2481              		@ frame_needed = 0, uses_anonymous_args = 0
 2482 0000 10B5     		push	{r4, lr}
 2483              		.cfi_def_cfa_offset 8
 2484              		.cfi_offset 4, -8
 2485              		.cfi_offset 14, -4
 794:src/input.c   ****   Disp2x16Msg(GetConstMsg(EDC_IN_4DBC), MW_LINE3, MW_BIGFONT);
 2486              		.loc 1 794 0
 2487 0002 0020     		movs	r0, #0
 791:src/input.c   ****   BYTE kbdbuf[32];
 2488              		.loc 1 791 0
 2489 0004 8AB0     		sub	sp, sp, #40
 2490              		.cfi_def_cfa_offset 48
 794:src/input.c   ****   Disp2x16Msg(GetConstMsg(EDC_IN_4DBC), MW_LINE3, MW_BIGFONT);
 2491              		.loc 1 794 0
 2492 0006 FFF7FEFF 		bl	DispHeader
 2493              	.LVL303:
 795:src/input.c   ****   kbdbuf[0] = 0;
 2494              		.loc 1 795 0
 2495 000a 1E20     		movs	r0, #30
 2496 000c FFF7FEFF 		bl	GetConstMsg
 2497              	.LVL304:
 2498 0010 4FF44071 		mov	r1, #768
 2499 0014 4FF48052 		mov	r2, #4096
 2500 0018 FFF7FEFF 		bl	Disp2x16Msg
 2501              	.LVL305:
 796:src/input.c   ****   memset(INPUT.sb_amex_4DBC, 0x00, sizeof(INPUT.sb_amex_4DBC));
 2502              		.loc 1 796 0
 2503 001c 0AAC     		add	r4, sp, #40
 2504 001e 0021     		movs	r1, #0
 797:src/input.c   ****   if (!APM_GetKbd(NUMERIC_INPUT+MW_BIGFONT+MW_LINE7+RIGHT_JUST, IMIN(4)+IMAX(4), kbdbuf))
 2505              		.loc 1 797 0
 2506 0020 0422     		movs	r2, #4
 2507 0022 1448     		ldr	r0, .L331
 796:src/input.c   ****   memset(INPUT.sb_amex_4DBC, 0x00, sizeof(INPUT.sb_amex_4DBC));
 2508              		.loc 1 796 0
 2509 0024 04F8201D 		strb	r1, [r4, #-32]!
 797:src/input.c   ****   if (!APM_GetKbd(NUMERIC_INPUT+MW_BIGFONT+MW_LINE7+RIGHT_JUST, IMIN(4)+IMAX(4), kbdbuf))
 2510              		.loc 1 797 0
 2511 0028 FFF7FEFF 		bl	memset
 2512              	.LVL306:
ARM GAS  C:\Users\AHMEDH~1\AppData\Local\Temp\cck6gOO5.s 			page 68


 798:src/input.c   ****     return FALSE;
 2513              		.loc 1 798 0
 2514 002c 0094     		str	r4, [sp]
 2515 002e 1020     		movs	r0, #16
 2516 0030 0521     		movs	r1, #5
 2517 0032 41F2FF72 		movw	r2, #6143
 2518 0036 40F20443 		movw	r3, #1028
 2519 003a FFF7FEFF 		bl	lib_app_call
 2520              	.LVL307:
 2521 003e C0B2     		uxtb	r0, r0
 2522 0040 B0B1     		cbz	r0, .L321
 801:src/input.c   ****   switch (INPUT.b_entry_mode) {
 2523              		.loc 1 801 0
 2524 0042 9DF80820 		ldrb	r2, [sp, #8]	@ zero_extendqisi2
 2525 0046 0B48     		ldr	r0, .L331
 2526 0048 611C     		adds	r1, r4, #1
 2527 004a FFF7FEFF 		bl	memcpy
 2528              	.LVL308:
 802:src/input.c   ****     case MANUAL:
 2529              		.loc 1 802 0
 2530 004e 0A4B     		ldr	r3, .L331+4
 2531 0050 93F83420 		ldrb	r2, [r3, #52]	@ zero_extendqisi2
 2532 0054 4D2A     		cmp	r2, #77
 2533 0056 05D0     		beq	.L322
 2534 0058 532A     		cmp	r2, #83
 2535 005a 05D0     		beq	.L323
 2536 005c 462A     		cmp	r2, #70
 2537 005e 06D1     		bne	.L329
 810:src/input.c   ****       break;
 2538              		.loc 1 810 0
 2539 0060 6622     		movs	r2, #102
 2540 0062 02E0     		b	.L330
 2541              	.L322:
 804:src/input.c   ****       break;
 2542              		.loc 1 804 0
 2543 0064 6D22     		movs	r2, #109
 2544 0066 00E0     		b	.L330
 2545              	.L323:
 807:src/input.c   ****       break;
 2546              		.loc 1 807 0
 2547 0068 7322     		movs	r2, #115
 2548              	.L330:
 810:src/input.c   ****       break;
 2549              		.loc 1 810 0
 2550 006a 83F83420 		strb	r2, [r3, #52]
 2551              	.L329:
 813:src/input.c   **** }
 2552              		.loc 1 813 0
 2553 006e 0120     		movs	r0, #1
 2554              	.L321:
 814:src/input.c   **** //*****************************************************************************
 2555              		.loc 1 814 0
 2556 0070 0AB0     		add	sp, sp, #40
 2557              		.cfi_def_cfa_offset 8
 2558              		@ sp needed
 2559 0072 10BD     		pop	{r4, pc}
 2560              	.L332:
ARM GAS  C:\Users\AHMEDH~1\AppData\Local\Temp\cck6gOO5.s 			page 69


 2561              		.align	2
 2562              	.L331:
 2563 0074 F7020000 		.word	gGTS+759
 2564 0078 00000000 		.word	gGTS
 2565              		.cfi_endproc
 2566              	.LFE14:
 2567              		.size	Get4DBC, .-Get4DBC
 2568              		.section	.text.SearchRecord,"ax",%progbits
 2569              		.align	1
 2570              		.global	SearchRecord
 2571              		.thumb
 2572              		.thumb_func
 2573              		.type	SearchRecord, %function
 2574              	SearchRecord:
 2575              	.LFB15:
 825:src/input.c   ****   BYTE kbdbuf[MAX_INPUT_LEN+1];
 2576              		.loc 1 825 0
 2577              		.cfi_startproc
 2578              		@ args = 0, pretend = 0, frame = 56
 2579              		@ frame_needed = 0, uses_anonymous_args = 0
 2580              	.LVL309:
 2581 0000 F0B5     		push	{r4, r5, r6, r7, lr}
 2582              		.cfi_def_cfa_offset 20
 2583              		.cfi_offset 4, -20
 2584              		.cfi_offset 5, -16
 2585              		.cfi_offset 6, -12
 2586              		.cfi_offset 7, -8
 2587              		.cfi_offset 14, -4
 829:src/input.c   ****   while (1) {
 2588              		.loc 1 829 0
 2589 0002 43F23872 		movw	r2, #14136
 2590 0006 3C4B     		ldr	r3, .L346
 825:src/input.c   ****   BYTE kbdbuf[MAX_INPUT_LEN+1];
 2591              		.loc 1 825 0
 2592 0008 91B0     		sub	sp, sp, #68
 2593              		.cfi_def_cfa_offset 88
 825:src/input.c   ****   BYTE kbdbuf[MAX_INPUT_LEN+1];
 2594              		.loc 1 825 0
 2595 000a 0746     		mov	r7, r0
 829:src/input.c   ****   while (1) {
 2596              		.loc 1 829 0
 2597 000c A3F86E25 		strh	r2, [r3, #1390]	@ movhi
 2598              	.LVL310:
 2599              	.L338:
 831:src/input.c   ****     DispClrBelowMW(MW_LINE3);
 2600              		.loc 1 831 0
 2601 0010 0024     		movs	r4, #0
 2602 0012 10AD     		add	r5, sp, #64
 832:src/input.c   ****     Disp2x16Msg(GetConstMsg(EDC_IN_TRACE), MW_LINE3, MW_BIGFONT);
 2603              		.loc 1 832 0
 2604 0014 2346     		mov	r3, r4
 831:src/input.c   ****     DispClrBelowMW(MW_LINE3);
 2605              		.loc 1 831 0
 2606 0016 05F8384D 		strb	r4, [r5, #-56]!
 832:src/input.c   ****     Disp2x16Msg(GetConstMsg(EDC_IN_TRACE), MW_LINE3, MW_BIGFONT);
 2607              		.loc 1 832 0
 2608 001a 2321     		movs	r1, #35
ARM GAS  C:\Users\AHMEDH~1\AppData\Local\Temp\cck6gOO5.s 			page 70


 2609 001c 4FF44072 		mov	r2, #768
 2610 0020 0094     		str	r4, [sp]
 2611 0022 0F20     		movs	r0, #15
 2612 0024 FFF7FEFF 		bl	lib_app_call
 2613              	.LVL311:
 833:src/input.c   ****     if (!APM_GetKbd(NUMERIC_INPUT+ECHO+JUSTIFIED+MW_BIGFONT+MW_LINE7+RIGHT_JUST, IMIN(6)+IMAX(6), k
 2614              		.loc 1 833 0
 2615 0028 2020     		movs	r0, #32
 2616 002a FFF7FEFF 		bl	GetConstMsg
 2617              	.LVL312:
 2618 002e 4FF44071 		mov	r1, #768
 2619 0032 4FF48052 		mov	r2, #4096
 2620 0036 FFF7FEFF 		bl	Disp2x16Msg
 2621              	.LVL313:
 834:src/input.c   ****       return -1;
 2622              		.loc 1 834 0
 2623 003a 0095     		str	r5, [sp]
 2624 003c 1020     		movs	r0, #16
 2625 003e 0521     		movs	r1, #5
 2626 0040 2E4A     		ldr	r2, .L346+4
 2627 0042 40F20663 		movw	r3, #1542
 2628 0046 FFF7FEFF 		bl	lib_app_call
 2629              	.LVL314:
 2630 004a 10F0FF0F 		tst	r0, #255
 2631 004e 4FD0     		beq	.L339
 836:src/input.c   ****     rec_idx = APM_TraceInBatch(&kbdbuf[7]);
 2632              		.loc 1 836 0
 2633 0050 EE1D     		adds	r6, r5, #7
 2634 0052 3046     		mov	r0, r6
 2635 0054 2946     		mov	r1, r5
 2636 0056 0322     		movs	r2, #3
 2637 0058 FFF7FEFF 		bl	CompressInputData
 2638              	.LVL315:
 837:src/input.c   ****     if (rec_idx != -1) {
 2639              		.loc 1 837 0
 2640 005c 0094     		str	r4, [sp]
 2641 005e 3246     		mov	r2, r6
 2642 0060 2346     		mov	r3, r4
 2643 0062 1020     		movs	r0, #16
 2644 0064 2F21     		movs	r1, #47
 2645 0066 FFF7FEFF 		bl	lib_app_call
 2646              	.LVL316:
 838:src/input.c   ****       APM_GetBatchRec(rec_idx, &RECORD_BUF, sizeof(RECORD_BUF));
 2647              		.loc 1 838 0
 2648 006a 421C     		adds	r2, r0, #1
 837:src/input.c   ****     if (rec_idx != -1) {
 2649              		.loc 1 837 0
 2650 006c 0446     		mov	r4, r0
 2651              	.LVL317:
 838:src/input.c   ****       APM_GetBatchRec(rec_idx, &RECORD_BUF, sizeof(RECORD_BUF));
 2652              		.loc 1 838 0
 2653 006e 30D0     		beq	.L335
 839:src/input.c   ****       ClearRspData();
 2654              		.loc 1 839 0
 2655 0070 234E     		ldr	r6, .L346+8
 2656 0072 4FF40072 		mov	r2, #512
 2657 0076 3368     		ldr	r3, [r6]
ARM GAS  C:\Users\AHMEDH~1\AppData\Local\Temp\cck6gOO5.s 			page 71


 2658 0078 2A21     		movs	r1, #42
 2659 007a 03F5D963 		add	r3, r3, #1736
 2660 007e 0092     		str	r2, [sp]
 2661 0080 1020     		movs	r0, #16
 2662              	.LVL318:
 2663 0082 2246     		mov	r2, r4
 2664 0084 FFF7FEFF 		bl	lib_app_call
 2665              	.LVL319:
 841:src/input.c   ****       if (InCardTable()) {
 2666              		.loc 1 841 0
 2667 0088 1B4D     		ldr	r5, .L346
 840:src/input.c   ****       memcpy(INPUT.sb_pan, RECORD_BUF.sb_pan, 10);
 2668              		.loc 1 840 0
 2669 008a FFF7FEFF 		bl	ClearRspData
 2670              	.LVL320:
 841:src/input.c   ****       if (InCardTable()) {
 2671              		.loc 1 841 0
 2672 008e 3168     		ldr	r1, [r6]
 2673 0090 0A22     		movs	r2, #10
 2674 0092 01F2D161 		addw	r1, r1, #1745
 2675 0096 05F10900 		add	r0, r5, #9
 2676 009a FFF7FEFF 		bl	memcpy
 2677              	.LVL321:
 842:src/input.c   ****         if (((RECORD_BUF.b_trans_status & VOIDED) != 0) && (!aIncVoidTxn)) {
 2678              		.loc 1 842 0
 2679 009e FFF7FEFF 		bl	InCardTable
 2680              	.LVL322:
 2681 00a2 90B1     		cbz	r0, .L336
 843:src/input.c   ****           RSP_DATA.w_rspcode = 'V'*256+'D';
 2682              		.loc 1 843 0
 2683 00a4 3368     		ldr	r3, [r6]
 2684 00a6 93F8C936 		ldrb	r3, [r3, #1737]	@ zero_extendqisi2
 2685 00aa DB06     		lsls	r3, r3, #27
 2686 00ac 05D5     		bpl	.L337
 843:src/input.c   ****           RSP_DATA.w_rspcode = 'V'*256+'D';
 2687              		.loc 1 843 0 is_stmt 0 discriminator 1
 2688 00ae 27B9     		cbnz	r7, .L337
 844:src/input.c   ****           return -1;
 2689              		.loc 1 844 0 is_stmt 1
 2690 00b0 45F24463 		movw	r3, #22084
 2691 00b4 A5F86E35 		strh	r3, [r5, #1390]	@ movhi
 2692 00b8 1AE0     		b	.L339
 2693              	.L337:
 847:src/input.c   ****         return rec_idx;
 2694              		.loc 1 847 0
 2695 00ba 1248     		ldr	r0, .L346+12
 2696 00bc 0DF10F01 		add	r1, sp, #15
 2697 00c0 0322     		movs	r2, #3
 2698 00c2 FFF7FEFF 		bl	memcpy
 2699              	.LVL323:
 837:src/input.c   ****     if (rec_idx != -1) {
 2700              		.loc 1 837 0
 2701 00c6 2046     		mov	r0, r4
 848:src/input.c   ****       }
 2702              		.loc 1 848 0
 2703 00c8 14E0     		b	.L334
 2704              	.L336:
ARM GAS  C:\Users\AHMEDH~1\AppData\Local\Temp\cck6gOO5.s 			page 72


 851:src/input.c   ****       }
 2705              		.loc 1 851 0
 2706 00ca 43F23413 		movw	r3, #12596
 2707 00ce A5F86E35 		strh	r3, [r5, #1390]	@ movhi
 2708              	.L335:
 854:src/input.c   ****     DispRspText(FALSE);
 2709              		.loc 1 854 0
 2710 00d2 0024     		movs	r4, #0
 2711              	.LVL324:
 2712 00d4 2321     		movs	r1, #35
 2713 00d6 4FF44072 		mov	r2, #768
 2714 00da 2346     		mov	r3, r4
 2715 00dc 0094     		str	r4, [sp]
 2716 00de 0F20     		movs	r0, #15
 2717 00e0 FFF7FEFF 		bl	lib_app_call
 2718              	.LVL325:
 855:src/input.c   ****     ErrorDelay();
 2719              		.loc 1 855 0
 2720 00e4 2046     		mov	r0, r4
 2721 00e6 FFF7FEFF 		bl	DispRspText
 2722              	.LVL326:
 856:src/input.c   ****   }
 2723              		.loc 1 856 0
 2724 00ea FFF7FEFF 		bl	ErrorDelay
 2725              	.LVL327:
 857:src/input.c   **** }
 2726              		.loc 1 857 0
 2727 00ee 8FE7     		b	.L338
 2728              	.L339:
 835:src/input.c   ****     CompressInputData(&kbdbuf[7], kbdbuf, 3);
 2729              		.loc 1 835 0
 2730 00f0 4FF0FF30 		mov	r0, #-1
 2731              	.L334:
 858:src/input.c   **** //*****************************************************************************
 2732              		.loc 1 858 0
 2733 00f4 11B0     		add	sp, sp, #68
 2734              		.cfi_def_cfa_offset 20
 2735              		@ sp needed
 2736 00f6 F0BD     		pop	{r4, r5, r6, r7, pc}
 2737              	.L347:
 2738              		.align	2
 2739              	.L346:
 2740 00f8 00000000 		.word	gGTS
 2741 00fc FF173000 		.word	3151871
 2742 0100 00000000 		.word	gGDS
 2743 0104 02000000 		.word	gGTS+2
 2744              		.cfi_endproc
 2745              	.LFE15:
 2746              		.size	SearchRecord, .-SearchRecord
 2747              		.section	.text.GetCardNbr,"ax",%progbits
 2748              		.align	1
 2749              		.global	GetCardNbr
 2750              		.thumb
 2751              		.thumb_func
 2752              		.type	GetCardNbr, %function
 2753              	GetCardNbr:
 2754              	.LFB17:
ARM GAS  C:\Users\AHMEDH~1\AppData\Local\Temp\cck6gOO5.s 			page 73


 881:src/input.c   **** //*****************************************************************************
 882:src/input.c   **** //  Function        : GetCardNbr
 883:src/input.c   **** //  Description     : Get MANUAL key in card number & store to input.sb_pan.
 884:src/input.c   **** //  Input           : aFirstKey;            // 1st keyin char.
 885:src/input.c   **** //  Return          : MWKEY_CANCL/MWKEY_CLR/MWKEY_ENTER;
 886:src/input.c   **** //  Note            : N/A
 887:src/input.c   **** //  Globals Changed : INPUT.
 888:src/input.c   **** //*****************************************************************************
 889:src/input.c   **** DWORD GetCardNbr(DWORD aFirstKey)
 890:src/input.c   **** {
 2755              		.loc 1 890 0
 2756              		.cfi_startproc
 2757              		@ args = 0, pretend = 0, frame = 56
 2758              		@ frame_needed = 0, uses_anonymous_args = 0
 2759              	.LVL328:
 2760 0000 10B5     		push	{r4, lr}
 2761              		.cfi_def_cfa_offset 8
 2762              		.cfi_offset 4, -8
 2763              		.cfi_offset 14, -4
 891:src/input.c   ****   DWORD keyin;
 892:src/input.c   ****   BYTE kbdbuf[MAX_INPUT_LEN+1];
 893:src/input.c   **** 
 894:src/input.c   ****   kbdbuf[0] = 0;
 2764              		.loc 1 894 0
 2765 0002 0023     		movs	r3, #0
 890:src/input.c   ****   DWORD keyin;
 2766              		.loc 1 890 0
 2767 0004 90B0     		sub	sp, sp, #64
 2768              		.cfi_def_cfa_offset 72
 890:src/input.c   ****   DWORD keyin;
 2769              		.loc 1 890 0
 2770 0006 0446     		mov	r4, r0
 895:src/input.c   ****   keyin     = aFirstKey;
 896:src/input.c   ****   DispClrBelowMW(MW_LINE3);
 2771              		.loc 1 896 0
 2772 0008 0093     		str	r3, [sp]
 2773 000a 0F20     		movs	r0, #15
 2774              	.LVL329:
 2775 000c 2321     		movs	r1, #35
 2776 000e 4FF44072 		mov	r2, #768
 894:src/input.c   ****   keyin     = aFirstKey;
 2777              		.loc 1 894 0
 2778 0012 8DF80830 		strb	r3, [sp, #8]
 2779              	.LVL330:
 2780              		.loc 1 896 0
 2781 0016 FFF7FEFF 		bl	lib_app_call
 2782              	.LVL331:
 897:src/input.c   ****   while (TRUE) {
 898:src/input.c   ****     if (keyin == 0)
 2783              		.loc 1 898 0
 2784 001a 2CB9     		cbnz	r4, .L350
 2785              	.LVL332:
 2786              	.L366:
 899:src/input.c   ****       keyin=WaitKey(KBD_TIMEOUT, 0);
 2787              		.loc 1 899 0
 2788 001c 2146     		mov	r1, r4
 2789 001e 42F22830 		movw	r0, #9000
ARM GAS  C:\Users\AHMEDH~1\AppData\Local\Temp\cck6gOO5.s 			page 74


 2790 0022 FFF7FEFF 		bl	WaitKey
 2791              	.LVL333:
 2792 0026 0446     		mov	r4, r0
 2793              	.LVL334:
 2794              	.L350:
 900:src/input.c   ****     switch (keyin) {
 2795              		.loc 1 900 0
 2796 0028 122C     		cmp	r4, #18
 2797 002a 46D0     		beq	.L352
 2798 002c 04D8     		bhi	.L353
 2799 002e 102C     		cmp	r4, #16
 2800 0030 34D0     		beq	.L354
 2801 0032 112C     		cmp	r4, #17
 2802 0034 4ED0     		beq	.L362
 2803 0036 4AE0     		b	.L351
 2804              	.L353:
 2805 0038 302C     		cmp	r4, #48
 2806 003a 48D3     		bcc	.L351
 2807 003c 392C     		cmp	r4, #57
 2808 003e 18D9     		bls	.L356
 2809 0040 3A2C     		cmp	r4, #58
 2810 0042 44D1     		bne	.L351
 901:src/input.c   ****       case MWKEY_00:
 902:src/input.c   ****         if (kbdbuf[0] >= 18) {
 2811              		.loc 1 902 0
 2812 0044 9DF80800 		ldrb	r0, [sp, #8]	@ zero_extendqisi2
 2813 0048 1128     		cmp	r0, #17
 2814 004a 01D9     		bls	.L358
 903:src/input.c   ****           DispErrorMsg(GetConstMsg(EDC_IN_INVALID_CARD));
 2815              		.loc 1 903 0
 2816 004c 1F20     		movs	r0, #31
 2817 004e 15E0     		b	.L368
 2818              	.L358:
 904:src/input.c   ****           return(MWKEY_CLR);
 905:src/input.c   ****         }
 906:src/input.c   ****         memcpy(&kbdbuf[++kbdbuf[0]], "00", 2);
 2819              		.loc 1 906 0
 2820 0050 0130     		adds	r0, r0, #1
 2821 0052 10AC     		add	r4, sp, #64
 2822              	.LVL335:
 2823 0054 C0B2     		uxtb	r0, r0
 2824 0056 2149     		ldr	r1, .L370
 2825 0058 04F8380D 		strb	r0, [r4, #-56]!
 2826 005c 0222     		movs	r2, #2
 2827 005e 2044     		add	r0, r0, r4
 2828 0060 FFF7FEFF 		bl	memcpy
 2829              	.LVL336:
 907:src/input.c   ****         ++kbdbuf[0];
 2830              		.loc 1 907 0
 2831 0064 9DF80830 		ldrb	r3, [sp, #8]	@ zero_extendqisi2
 908:src/input.c   ****         DispKeyinPAN(kbdbuf);
 2832              		.loc 1 908 0
 2833 0068 2046     		mov	r0, r4
 907:src/input.c   ****         ++kbdbuf[0];
 2834              		.loc 1 907 0
 2835 006a 0133     		adds	r3, r3, #1
 2836 006c 8DF80830 		strb	r3, [sp, #8]
ARM GAS  C:\Users\AHMEDH~1\AppData\Local\Temp\cck6gOO5.s 			page 75


 2837 0070 2AE0     		b	.L367
 2838              	.LVL337:
 2839              	.L356:
 909:src/input.c   ****         break;
 910:src/input.c   ****       case MWKEY_0:
 911:src/input.c   ****       case MWKEY_1:
 912:src/input.c   ****       case MWKEY_2:
 913:src/input.c   ****       case MWKEY_3:
 914:src/input.c   ****       case MWKEY_4:
 915:src/input.c   ****       case MWKEY_5:
 916:src/input.c   ****       case MWKEY_6:
 917:src/input.c   ****       case MWKEY_7:
 918:src/input.c   ****       case MWKEY_8:
 919:src/input.c   ****       case MWKEY_9:
 920:src/input.c   ****         if (kbdbuf[0] >= 19) {
 2840              		.loc 1 920 0
 2841 0072 9DF80830 		ldrb	r3, [sp, #8]	@ zero_extendqisi2
 2842 0076 122B     		cmp	r3, #18
 2843 0078 06D9     		bls	.L360
 921:src/input.c   ****           DispErrorMsg(GetConstMsg(EDC_RSP_INVALID_CARD));
 2844              		.loc 1 921 0
 2845 007a 7D20     		movs	r0, #125
 2846              	.L368:
 2847 007c FFF7FEFF 		bl	GetConstMsg
 2848              	.LVL338:
 2849 0080 FFF7FEFF 		bl	DispErrorMsg
 2850              	.LVL339:
 922:src/input.c   ****           return(MWKEY_CLR);
 2851              		.loc 1 922 0
 2852 0084 1220     		movs	r0, #18
 2853 0086 26E0     		b	.L355
 2854              	.L360:
 923:src/input.c   ****         }
 924:src/input.c   ****         kbdbuf[++kbdbuf[0]] = (BYTE) keyin;
 2855              		.loc 1 924 0
 2856 0088 0133     		adds	r3, r3, #1
 2857 008a 10AA     		add	r2, sp, #64
 2858 008c DBB2     		uxtb	r3, r3
 925:src/input.c   ****         DispKeyinPAN(kbdbuf);
 2859              		.loc 1 925 0
 2860 008e 02A8     		add	r0, sp, #8
 924:src/input.c   ****         DispKeyinPAN(kbdbuf);
 2861              		.loc 1 924 0
 2862 0090 8DF80830 		strb	r3, [sp, #8]
 2863 0094 1344     		add	r3, r3, r2
 2864 0096 03F8384C 		strb	r4, [r3, #-56]
 2865 009a 15E0     		b	.L367
 2866              	.L354:
 926:src/input.c   ****         break;
 927:src/input.c   ****       case MWKEY_ENTER:
 928:src/input.c   ****         if (kbdbuf[0] != 0) {
 2867              		.loc 1 928 0
 2868 009c 9DF80830 		ldrb	r3, [sp, #8]	@ zero_extendqisi2
 2869 00a0 0BB9     		cbnz	r3, .L369
 2870              	.LVL340:
 2871              	.L359:
 2872 00a2 0024     		movs	r4, #0
ARM GAS  C:\Users\AHMEDH~1\AppData\Local\Temp\cck6gOO5.s 			page 76


 2873 00a4 BAE7     		b	.L366
 2874              	.LVL341:
 2875              	.L369:
 929:src/input.c   ****           CompressInputFData(INPUT.sb_pan, kbdbuf, 10);
 2876              		.loc 1 929 0
 2877 00a6 0A22     		movs	r2, #10
 2878 00a8 0D48     		ldr	r0, .L370+4
 2879 00aa 02A9     		add	r1, sp, #8
 2880 00ac FFF7FEFF 		bl	CompressInputFData
 2881              	.LVL342:
 930:src/input.c   ****           INPUT.b_entry_mode = MANUAL;
 2882              		.loc 1 930 0
 2883 00b0 4D22     		movs	r2, #77
 2884 00b2 0C4B     		ldr	r3, .L370+8
 2885 00b4 83F83420 		strb	r2, [r3, #52]
 2886 00b8 0CE0     		b	.L362
 2887              	.L352:
 931:src/input.c   ****           return(MWKEY_ENTER);
 932:src/input.c   ****         }
 933:src/input.c   ****         break;
 934:src/input.c   ****       case MWKEY_CLR:
 935:src/input.c   ****         if (kbdbuf[0] < 1)
 2888              		.loc 1 935 0
 2889 00ba 9DF80830 		ldrb	r3, [sp, #8]	@ zero_extendqisi2
 2890 00be 4BB1     		cbz	r3, .L362
 936:src/input.c   ****           return MWKEY_CLR;
 937:src/input.c   ****         kbdbuf[0]--;
 2891              		.loc 1 937 0
 2892 00c0 013B     		subs	r3, r3, #1
 2893 00c2 10A8     		add	r0, sp, #64
 2894 00c4 00F8383D 		strb	r3, [r0, #-56]!
 2895              	.LVL343:
 2896              	.L367:
 938:src/input.c   ****         DispKeyinPAN(kbdbuf);
 2897              		.loc 1 938 0
 2898 00c8 FFF7FEFF 		bl	DispKeyinPAN
 2899              	.LVL344:
 939:src/input.c   ****         break;
 2900              		.loc 1 939 0
 2901 00cc E9E7     		b	.L359
 2902              	.LVL345:
 2903              	.L351:
 940:src/input.c   ****       case MWKEY_CANCL:
 941:src/input.c   ****         return MWKEY_CANCL;
 942:src/input.c   ****       default:
 943:src/input.c   ****         LongBeep();
 2904              		.loc 1 943 0
 2905 00ce FFF7FEFF 		bl	LongBeep
 2906              	.LVL346:
 2907 00d2 E6E7     		b	.L359
 2908              	.L362:
 936:src/input.c   ****         kbdbuf[0]--;
 2909              		.loc 1 936 0
 2910 00d4 2046     		mov	r0, r4
 2911              	.L355:
 944:src/input.c   ****     }
 945:src/input.c   ****     keyin = 0;
ARM GAS  C:\Users\AHMEDH~1\AppData\Local\Temp\cck6gOO5.s 			page 77


 946:src/input.c   ****   }
 947:src/input.c   **** }
 2912              		.loc 1 947 0
 2913 00d6 10B0     		add	sp, sp, #64
 2914              		.cfi_def_cfa_offset 8
 2915              		@ sp needed
 2916 00d8 10BD     		pop	{r4, pc}
 2917              	.LVL347:
 2918              	.L371:
 2919 00da 00BF     		.align	2
 2920              	.L370:
 2921 00dc 42000000 		.word	.LC3
 2922 00e0 09000000 		.word	gGTS+9
 2923 00e4 00000000 		.word	gGTS
 2924              		.cfi_endproc
 2925              	.LFE17:
 2926              		.size	GetCardNbr, .-GetCardNbr
 2927              		.section	.text.GetCard,"ax",%progbits
 2928              		.align	1
 2929              		.global	GetCard
 2930              		.thumb
 2931              		.thumb_func
 2932              		.type	GetCard, %function
 2933              	GetCard:
 2934              	.LFB18:
 948:src/input.c   **** //*****************************************************************************
 949:src/input.c   **** //  Function        : GetCard
 950:src/input.c   **** //  Description     : Get & validate card data.
 951:src/input.c   **** //  Input           : debit_card;   // debit card required.
 952:src/input.c   **** //  Return          : TRUE;  // valid card input, manual (cr card ) or swipe
 953:src/input.c   **** //                    FALSE; // user cancel
 954:src/input.c   **** //  Note            : //21-08-12 JC ++
 955:src/input.c   **** //  Globals Changed : N/A
 956:src/input.c   **** //*****************************************************************************
 957:src/input.c   **** BOOLEAN GetCard(int aFirstKey, BOOLEAN aFallback)
 958:src/input.c   **** {
 2935              		.loc 1 958 0
 2936              		.cfi_startproc
 2937              		@ args = 0, pretend = 0, frame = 0
 2938              		@ frame_needed = 0, uses_anonymous_args = 0
 2939              	.LVL348:
 2940 0000 73B5     		push	{r0, r1, r4, r5, r6, lr}
 2941              		.cfi_def_cfa_offset 24
 2942              		.cfi_offset 4, -16
 2943              		.cfi_offset 5, -12
 2944              		.cfi_offset 6, -8
 2945              		.cfi_offset 14, -4
 2946              		.loc 1 958 0
 2947 0002 0546     		mov	r5, r0
 959:src/input.c   ****   DWORD keyin;
 960:src/input.c   **** 
 961:src/input.c   ****   DispHeader(NULL);
 2948              		.loc 1 961 0
 2949 0004 0020     		movs	r0, #0
 2950              	.LVL349:
 958:src/input.c   ****   DWORD keyin;
 2951              		.loc 1 958 0
ARM GAS  C:\Users\AHMEDH~1\AppData\Local\Temp\cck6gOO5.s 			page 78


 2952 0006 0E46     		mov	r6, r1
 2953              		.loc 1 961 0
 2954 0008 FFF7FEFF 		bl	DispHeader
 2955              	.LVL350:
 962:src/input.c   ****   memset(INPUT.sb_holder_name, ' ', sizeof(INPUT.sb_holder_name));
 2956              		.loc 1 962 0
 2957 000c 2021     		movs	r1, #32
 2958 000e 1A22     		movs	r2, #26
 2959 0010 3348     		ldr	r0, .L394
 2960 0012 FFF7FEFF 		bl	memset
 2961              	.LVL351:
 963:src/input.c   ****   memset(INPUT.sb_pan, 0xFF, sizeof(INPUT.sb_pan));
 2962              		.loc 1 963 0
 2963 0016 3348     		ldr	r0, .L394+4
 2964 0018 FF21     		movs	r1, #255
 2965 001a 0A22     		movs	r2, #10
 2966 001c FFF7FEFF 		bl	memset
 2967              	.LVL352:
 964:src/input.c   **** 
 965:src/input.c   ****   if (aFirstKey > 0)
 966:src/input.c   ****     keyin = aFirstKey;
 967:src/input.c   ****   else
 968:src/input.c   ****     keyin = 0;
 969:src/input.c   **** 
 970:src/input.c   ****   OnDevice(HW_MSR);                //01-08-17 JC ++
 2968              		.loc 1 970 0
 2969 0020 0120     		movs	r0, #1
 966:src/input.c   ****   else
 2970              		.loc 1 966 0
 2971 0022 25EAE575 		bic	r5, r5, r5, asr #31
 2972              	.LVL353:
 2973              		.loc 1 970 0
 2974 0026 FFF7FEFF 		bl	OnDevice
 2975              	.LVL354:
 2976              	.L379:
 971:src/input.c   ****   while (1) {
 972:src/input.c   ****     // already pressed
 973:src/input.c   ****     if ((keyin >= MWKEY_0)&&(keyin <= MWKEY_9)) {
 2977              		.loc 1 973 0
 2978 002a A5F13003 		sub	r3, r5, #48
 2979 002e 092B     		cmp	r3, #9
 2980 0030 07D8     		bhi	.L374
 974:src/input.c   ****       keyin = GetCardNbr(keyin);
 2981              		.loc 1 974 0
 2982 0032 2846     		mov	r0, r5
 2983 0034 FFF7FEFF 		bl	GetCardNbr
 2984              	.LVL355:
 975:src/input.c   ****       if (keyin == MWKEY_ENTER) {
 2985              		.loc 1 975 0
 2986 0038 1028     		cmp	r0, #16
 2987 003a 02D1     		bne	.L374
 976:src/input.c   ****         INPUT.b_entry_mode = MANUAL;
 2988              		.loc 1 976 0
 2989 003c 4D22     		movs	r2, #77
 2990 003e 2A4B     		ldr	r3, .L394+8
 2991 0040 15E0     		b	.L393
 2992              	.LVL356:
ARM GAS  C:\Users\AHMEDH~1\AppData\Local\Temp\cck6gOO5.s 			page 79


 2993              	.L374:
 977:src/input.c   ****         break;
 978:src/input.c   ****       }
 979:src/input.c   ****     }
 980:src/input.c   **** 
 981:src/input.c   ****     if (IOCtlMW(gMsrHandle, IO_MSR_STATUS, NULL) != 0) {
 2994              		.loc 1 981 0
 2995 0042 0023     		movs	r3, #0
 2996 0044 294D     		ldr	r5, .L394+12
 2997 0046 0093     		str	r3, [sp]
 2998 0048 0F20     		movs	r0, #15
 2999 004a 0721     		movs	r1, #7
 3000 004c 2A68     		ldr	r2, [r5]
 3001 004e 0223     		movs	r3, #2
 3002 0050 FFF7FEFF 		bl	lib_app_call
 3003              	.LVL357:
 3004 0054 10B3     		cbz	r0, .L376
 982:src/input.c   ****       if (MSRSwiped(&INPUT.s_trk1buf, &INPUT.s_trk2buf)) {
 3005              		.loc 1 982 0
 3006 0056 2648     		ldr	r0, .L394+16
 3007 0058 00F1A001 		add	r1, r0, #160
 3008 005c FFF7FEFF 		bl	MSRSwiped
 3009              	.LVL358:
 3010 0060 D0B1     		cbz	r0, .L377
 983:src/input.c   ****         if (INPUT.s_trk2buf.b_len > 0) {
 3011              		.loc 1 983 0
 3012 0062 244B     		ldr	r3, .L394+20
 3013 0064 93F8A022 		ldrb	r2, [r3, #672]	@ zero_extendqisi2
 3014 0068 B2B1     		cbz	r2, .L377
 984:src/input.c   ****           if (!aFallback)
 3015              		.loc 1 984 0
 3016 006a 9EB9     		cbnz	r6, .L378
 985:src/input.c   ****             INPUT.b_entry_mode = SWIPE;
 3017              		.loc 1 985 0
 3018 006c 5322     		movs	r2, #83
 3019              	.L393:
 986:src/input.c   ****           else
 987:src/input.c   ****             INPUT.b_entry_mode = FALLBACK;
 988:src/input.c   ****           break;
 989:src/input.c   ****         }
 990:src/input.c   ****       }
 991:src/input.c   ****       // Error
 992:src/input.c   ****       LongBeep();
 993:src/input.c   ****     }
 994:src/input.c   **** 
 995:src/input.c   ****     Disp2x16Msg(GetConstMsg(EDC_IN_SWIPE_CARD), MW_LINE5, MW_BIGFONT);
 996:src/input.c   ****     IOCtlMW(gMsrHandle, IO_MSR_RESET, NULL);
 997:src/input.c   ****     keyin = WaitKey(9000,WAIT_MSR_READY);
 998:src/input.c   ****     if (keyin == MWKEY_CANCL) {
 999:src/input.c   ****       OffDevice(HW_MSR);                //01-08-17 JC ++
1000:src/input.c   ****       return(FALSE);
1001:src/input.c   ****     }
1002:src/input.c   ****   }
1003:src/input.c   ****   OffDevice(HW_MSR);                //01-08-17 JC ++
 3020              		.loc 1 1003 0
 3021 006e 0120     		movs	r0, #1
 985:src/input.c   ****             INPUT.b_entry_mode = SWIPE;
ARM GAS  C:\Users\AHMEDH~1\AppData\Local\Temp\cck6gOO5.s 			page 80


 3022              		.loc 1 985 0
 3023 0070 83F83420 		strb	r2, [r3, #52]
 3024              		.loc 1 1003 0
 3025 0074 FFF7FEFF 		bl	OffDevice
 3026              	.LVL359:
1004:src/input.c   ****   Short1Beep();
 3027              		.loc 1 1004 0
 3028 0078 FFF7FEFF 		bl	Short1Beep
 3029              	.LVL360:
1005:src/input.c   ****   if (ValidCard())
 3030              		.loc 1 1005 0
 3031 007c FFF7FEFF 		bl	ValidCard
 3032              	.LVL361:
 3033 0080 0446     		mov	r4, r0
 3034 0082 48BB     		cbnz	r0, .L382
1006:src/input.c   ****     return TRUE;
1007:src/input.c   ****   RSP_DATA.w_rspcode = 'W'*256+'C';
 3035              		.loc 1 1007 0
 3036 0084 45F24372 		movw	r2, #22339
 3037 0088 174B     		ldr	r3, .L394+8
 3038 008a A3F86E25 		strh	r2, [r3, #1390]	@ movhi
1008:src/input.c   ****   LongBeep();
 3039              		.loc 1 1008 0
 3040 008e FFF7FEFF 		bl	LongBeep
 3041              	.LVL362:
1009:src/input.c   ****   return FALSE;
 3042              		.loc 1 1009 0
 3043 0092 22E0     		b	.L380
 3044              	.L378:
 987:src/input.c   ****           break;
 3045              		.loc 1 987 0
 3046 0094 4622     		movs	r2, #70
 3047 0096 EAE7     		b	.L393
 3048              	.L377:
 992:src/input.c   ****     }
 3049              		.loc 1 992 0
 3050 0098 FFF7FEFF 		bl	LongBeep
 3051              	.LVL363:
 3052              	.L376:
 995:src/input.c   ****     IOCtlMW(gMsrHandle, IO_MSR_RESET, NULL);
 3053              		.loc 1 995 0
 3054 009c 1220     		movs	r0, #18
 996:src/input.c   ****     keyin = WaitKey(9000,WAIT_MSR_READY);
 3055              		.loc 1 996 0
 3056 009e 0024     		movs	r4, #0
 995:src/input.c   ****     IOCtlMW(gMsrHandle, IO_MSR_RESET, NULL);
 3057              		.loc 1 995 0
 3058 00a0 FFF7FEFF 		bl	GetConstMsg
 3059              	.LVL364:
 3060 00a4 4FF4A061 		mov	r1, #1280
 3061 00a8 4FF48052 		mov	r2, #4096
 3062 00ac FFF7FEFF 		bl	Disp2x16Msg
 3063              	.LVL365:
 996:src/input.c   ****     keyin = WaitKey(9000,WAIT_MSR_READY);
 3064              		.loc 1 996 0
 3065 00b0 0094     		str	r4, [sp]
 3066 00b2 0721     		movs	r1, #7
ARM GAS  C:\Users\AHMEDH~1\AppData\Local\Temp\cck6gOO5.s 			page 81


 3067 00b4 2A68     		ldr	r2, [r5]
 3068 00b6 0423     		movs	r3, #4
 3069 00b8 0F20     		movs	r0, #15
 3070 00ba FFF7FEFF 		bl	lib_app_call
 3071              	.LVL366:
 997:src/input.c   ****     if (keyin == MWKEY_CANCL) {
 3072              		.loc 1 997 0
 3073 00be 42F22830 		movw	r0, #9000
 3074 00c2 4FF48061 		mov	r1, #1024
 3075 00c6 FFF7FEFF 		bl	WaitKey
 3076              	.LVL367:
 998:src/input.c   ****       OffDevice(HW_MSR);                //01-08-17 JC ++
 3077              		.loc 1 998 0
 3078 00ca 1128     		cmp	r0, #17
 997:src/input.c   ****     if (keyin == MWKEY_CANCL) {
 3079              		.loc 1 997 0
 3080 00cc 0546     		mov	r5, r0
 3081              	.LVL368:
 998:src/input.c   ****       OffDevice(HW_MSR);                //01-08-17 JC ++
 3082              		.loc 1 998 0
 3083 00ce ACD1     		bne	.L379
 999:src/input.c   ****       return(FALSE);
 3084              		.loc 1 999 0
 3085 00d0 0120     		movs	r0, #1
 3086              	.LVL369:
 3087 00d2 FFF7FEFF 		bl	OffDevice
 3088              	.LVL370:
1000:src/input.c   ****     }
 3089              		.loc 1 1000 0
 3090 00d6 00E0     		b	.L380
 3091              	.LVL371:
 3092              	.L382:
1006:src/input.c   ****   RSP_DATA.w_rspcode = 'W'*256+'C';
 3093              		.loc 1 1006 0
 3094 00d8 0124     		movs	r4, #1
 3095              	.L380:
1010:src/input.c   **** }
 3096              		.loc 1 1010 0
 3097 00da 2046     		mov	r0, r4
 3098 00dc 02B0     		add	sp, sp, #8
 3099              		.cfi_def_cfa_offset 16
 3100              		@ sp needed
 3101 00de 70BD     		pop	{r4, r5, r6, pc}
 3102              	.L395:
 3103              		.align	2
 3104              	.L394:
 3105 00e0 35000000 		.word	gGTS+53
 3106 00e4 09000000 		.word	gGTS+9
 3107 00e8 00000000 		.word	gGTS
 3108 00ec 00000000 		.word	gMsrHandle
 3109 00f0 00020000 		.word	gGTS+512
 3110 00f4 00000000 		.word	gGTS+0
 3111              		.cfi_endproc
 3112              	.LFE18:
 3113              		.size	GetCard, .-GetCard
 3114              		.section	.text.WaitCardTrans,"ax",%progbits
 3115              		.align	1
ARM GAS  C:\Users\AHMEDH~1\AppData\Local\Temp\cck6gOO5.s 			page 82


 3116              		.global	WaitCardTrans
 3117              		.thumb
 3118              		.thumb_func
 3119              		.type	WaitCardTrans, %function
 3120              	WaitCardTrans:
 3121              	.LFB19:
1011:src/input.c   **** //*****************************************************************************
1012:src/input.c   **** //  Function        : WaitCardTrans
1013:src/input.c   **** //  Description     : Wait user to input card data.
1014:src/input.c   **** //  Input           : N/A
1015:src/input.c   **** //  Return          : TRUE/FALSE
1016:src/input.c   **** //  Note            : N/A
1017:src/input.c   **** //  Globals Changed : N/A
1018:src/input.c   **** //*****************************************************************************
1019:src/input.c   **** DWORD WaitCardTrans(int aTxnType)
1020:src/input.c   **** {
 3122              		.loc 1 1020 0
 3123              		.cfi_startproc
 3124              		@ args = 0, pretend = 0, frame = 0
 3125              		@ frame_needed = 0, uses_anonymous_args = 0
 3126              	.LVL372:
 3127 0000 2DE9F347 		push	{r0, r1, r4, r5, r6, r7, r8, r9, r10, lr}
 3128              		.cfi_def_cfa_offset 40
 3129              		.cfi_offset 4, -32
 3130              		.cfi_offset 5, -28
 3131              		.cfi_offset 6, -24
 3132              		.cfi_offset 7, -20
 3133              		.cfi_offset 8, -16
 3134              		.cfi_offset 9, -12
 3135              		.cfi_offset 10, -8
 3136              		.cfi_offset 14, -4
 3137              		.loc 1 1020 0
 3138 0004 0546     		mov	r5, r0
1021:src/input.c   ****   WORD keyin;
1022:src/input.c   ****   DDWORD ecr_amt;
1023:src/input.c   ****   DWORD ret=TXN_CANCEL;
1024:src/input.c   ****   BYTE ctl_ctrl=0;
1025:src/input.c   **** 
1026:src/input.c   ****   OnDevice(HW_MSR|HW_CLICC);    //25-07-17 JC ++
1027:src/input.c   ****   INPUT.b_trans = aTxnType;
 3139              		.loc 1 1027 0
 3140 0006 B54E     		ldr	r6, .L479
1026:src/input.c   ****   INPUT.b_trans = aTxnType;
 3141              		.loc 1 1026 0
 3142 0008 0320     		movs	r0, #3
 3143              	.LVL373:
 3144 000a FFF7FEFF 		bl	OnDevice
 3145              	.LVL374:
1028:src/input.c   ****   RefreshDispAfter(0);
 3146              		.loc 1 1028 0
 3147 000e 0020     		movs	r0, #0
1027:src/input.c   ****   RefreshDispAfter(0);
 3148              		.loc 1 1027 0
 3149 0010 3570     		strb	r5, [r6]
 3150              		.loc 1 1028 0
 3151 0012 FFF7FEFF 		bl	RefreshDispAfter
 3152              	.LVL375:
ARM GAS  C:\Users\AHMEDH~1\AppData\Local\Temp\cck6gOO5.s 			page 83


1029:src/input.c   ****   gDispLogo = FALSE;
 3153              		.loc 1 1029 0
 3154 0016 0027     		movs	r7, #0
 3155 0018 B14B     		ldr	r3, .L479+4
1030:src/input.c   ****   while (1) {
1031:src/input.c   ****     // Disp amount from ECR exist
1032:src/input.c   ****     if (gGDS->i_ecr_len > 2) {
1033:src/input.c   ****       ecr_amt = EcrGetAmount();
1034:src/input.c   ****       if (ecr_amt != 0)
1035:src/input.c   ****         INPUT.dd_amount = ecr_amt;
1036:src/input.c   ****     }
1037:src/input.c   ****     #ifdef os_disp_bl_control
1038:src/input.c   ****     os_disp_bl_control(256); // on now
1039:src/input.c   ****     #endif
1040:src/input.c   ****   
1041:src/input.c   **** 	//TransModeDisp(FALSE);
1042:src/input.c   **** 	 os_disp_putc('\f');
1043:src/input.c   ****         ClearDispMW();
1044:src/input.c   ****     
1045:src/input.c   **** 	Disp2x16Msg(GetConstMsg(EDC_CO_SWIPE_INS), MW_LINE5, MW_BIGFONT);
1046:src/input.c   ****     APM_SetKbdTimeout(KBD_TIMEOUT);
1047:src/input.c   **** 	 CL_LedSet(CTL_LED_TAP_CARD);
1048:src/input.c   ****     keyin = APM_GetKeyin();
1049:src/input.c   ****     if (keyin == MWKEY_CANCL) {
1050:src/input.c   ****       INPUT.dd_amount = 0;
1051:src/input.c   ****       ret = TXN_CANCEL;
1052:src/input.c   ****       break;
1053:src/input.c   ****     }
1054:src/input.c   ****     else if ((keyin>=MWKEY_0) && (keyin <=MWKEY_9)) {
1055:src/input.c   ****       if (INPUT.dd_amount==0) {
1056:src/input.c   ****        // GetAmount(TIPsReqd(), keyin);
1057:src/input.c   ****         RefreshDispAfter(0);
1058:src/input.c   ****       }
1059:src/input.c   ****       else {
1060:src/input.c   ****         DispHeader(NULL);
1061:src/input.c   ****         if (GetCardNbr(keyin) == MWKEY_ENTER) {
1062:src/input.c   ****           if (ValidCard()) {
1063:src/input.c   ****             if (aTxnType == SALE_OFFLINE)
1064:src/input.c   ****               SaleOfflTrans(INPUT.b_entry_mode);
1065:src/input.c   ****             else if (aTxnType == AUTH_SWIPE)
1066:src/input.c   ****               AuthTrans(INPUT.b_entry_mode);
1067:src/input.c   ****             else if (aTxnType == REFUND)
1068:src/input.c   ****               RefundTrans(INPUT.b_entry_mode);
1069:src/input.c   ****             else
1070:src/input.c   ****               SaleTrans(INPUT.b_entry_mode);
1071:src/input.c   ****           }
1072:src/input.c   ****           TransEnd(FALSE);
1073:src/input.c   ****           ret = TXN_OK;
1074:src/input.c   ****           break;
1075:src/input.c   ****         }
1076:src/input.c   ****       }
1077:src/input.c   ****     }
1078:src/input.c   **** 
1079:src/input.c   ****     // Contactless transaction
1080:src/input.c   ****     if (CTLEnabled() && INPUT.dd_amount && CtlUnderTransLimit((DWORD)(INPUT.dd_amount))) {
1081:src/input.c   ****       if (!ctl_ctrl) {
1082:src/input.c   ****         if (aTxnType != REFUND)
ARM GAS  C:\Users\AHMEDH~1\AppData\Local\Temp\cck6gOO5.s 			page 84


1083:src/input.c   ****           ctl_ctrl = SALE_CTL;
1084:src/input.c   ****         else
1085:src/input.c   ****           ctl_ctrl = REFUND_CTL;
1086:src/input.c   ****         if (CTLPreProcess(ctl_ctrl) == FALSE) {
 3156              		.loc 1 1086 0
 3157 001a 062D     		cmp	r5, #6
 3158 001c 14BF     		ite	ne
 3159 001e 4FF01409 		movne	r9, #20
 3160 0022 4FF01609 		moveq	r9, #22
1029:src/input.c   ****   gDispLogo = FALSE;
 3161              		.loc 1 1029 0
 3162 0026 1F70     		strb	r7, [r3]
 3163              	.LVL376:
 3164              	.L431:
1032:src/input.c   ****       ecr_amt = EcrGetAmount();
 3165              		.loc 1 1032 0
 3166 0028 AE4A     		ldr	r2, .L479+8
 3167 002a 1368     		ldr	r3, [r2]
 3168 002c 9046     		mov	r8, r2
 3169 002e 03F58443 		add	r3, r3, #16896
 3170 0032 DB6D     		ldr	r3, [r3, #92]
 3171 0034 022B     		cmp	r3, #2
 3172 0036 06DD     		ble	.L398
1033:src/input.c   ****       if (ecr_amt != 0)
 3173              		.loc 1 1033 0
 3174 0038 FFF7FEFF 		bl	EcrGetAmount
 3175              	.LVL377:
1034:src/input.c   ****         INPUT.dd_amount = ecr_amt;
 3176              		.loc 1 1034 0
 3177 003c 50EA0103 		orrs	r3, r0, r1
 3178 0040 01D0     		beq	.L398
1035:src/input.c   ****     }
 3179              		.loc 1 1035 0
 3180 0042 C6E90601 		strd	r0, [r6, #24]
 3181              	.LVL378:
 3182              	.L398:
1038:src/input.c   ****     #endif
 3183              		.loc 1 1038 0
 3184 0046 4FF48071 		mov	r1, #256
 3185 004a 2220     		movs	r0, #34
 3186 004c FFF7FEFF 		bl	sys_func1
 3187              	.LVL379:
1042:src/input.c   ****         ClearDispMW();
 3188              		.loc 1 1042 0
 3189 0050 0C21     		movs	r1, #12
 3190 0052 1620     		movs	r0, #22
 3191 0054 FFF7FEFF 		bl	sys_func1
 3192              	.LVL380:
1043:src/input.c   ****     
 3193              		.loc 1 1043 0
 3194 0058 0C21     		movs	r1, #12
 3195 005a 1620     		movs	r0, #22
 3196 005c FFF7FEFF 		bl	sys_func1
 3197              	.LVL381:
1046:src/input.c   **** 	 CL_LedSet(CTL_LED_TAP_CARD);
 3198              		.loc 1 1046 0
 3199 0060 0024     		movs	r4, #0
ARM GAS  C:\Users\AHMEDH~1\AppData\Local\Temp\cck6gOO5.s 			page 85


1045:src/input.c   ****     APM_SetKbdTimeout(KBD_TIMEOUT);
 3200              		.loc 1 1045 0
 3201 0062 0020     		movs	r0, #0
 3202 0064 FFF7FEFF 		bl	GetConstMsg
 3203              	.LVL382:
 3204 0068 4FF4A061 		mov	r1, #1280
 3205 006c 4FF48052 		mov	r2, #4096
 3206 0070 FFF7FEFF 		bl	Disp2x16Msg
 3207              	.LVL383:
1046:src/input.c   **** 	 CL_LedSet(CTL_LED_TAP_CARD);
 3208              		.loc 1 1046 0
 3209 0074 0621     		movs	r1, #6
 3210 0076 42F22832 		movw	r2, #9000
 3211 007a 2346     		mov	r3, r4
 3212 007c 0094     		str	r4, [sp]
 3213 007e 1020     		movs	r0, #16
 3214 0080 FFF7FEFF 		bl	lib_app_call
 3215              	.LVL384:
1047:src/input.c   ****     keyin = APM_GetKeyin();
 3216              		.loc 1 1047 0
 3217 0084 0120     		movs	r0, #1
 3218 0086 FFF7FEFF 		bl	CL_LedSet
 3219              	.LVL385:
1048:src/input.c   ****     if (keyin == MWKEY_CANCL) {
 3220              		.loc 1 1048 0
 3221 008a 0094     		str	r4, [sp]
 3222 008c 1020     		movs	r0, #16
 3223 008e 0221     		movs	r1, #2
 3224 0090 2246     		mov	r2, r4
 3225 0092 2346     		mov	r3, r4
 3226 0094 FFF7FEFF 		bl	lib_app_call
 3227              	.LVL386:
 3228 0098 1FFA80FA 		uxth	r10, r0
 3229              	.LVL387:
1049:src/input.c   ****       INPUT.dd_amount = 0;
 3230              		.loc 1 1049 0
 3231 009c BAF1110F 		cmp	r10, #17
 3232 00a0 04D1     		bne	.L400
1050:src/input.c   ****       ret = TXN_CANCEL;
 3233              		.loc 1 1050 0
 3234 00a2 0022     		movs	r2, #0
 3235 00a4 0023     		movs	r3, #0
 3236 00a6 C6E90623 		strd	r2, [r6, #24]
1052:src/input.c   ****     }
 3237              		.loc 1 1052 0
 3238 00aa 30E1     		b	.L401
 3239              	.L400:
1054:src/input.c   ****       if (INPUT.dd_amount==0) {
 3240              		.loc 1 1054 0
 3241 00ac AAF13003 		sub	r3, r10, #48
 3242 00b0 092B     		cmp	r3, #9
 3243 00b2 28D8     		bhi	.L404
1055:src/input.c   ****        // GetAmount(TIPsReqd(), keyin);
 3244              		.loc 1 1055 0
 3245 00b4 D6E90623 		ldrd	r2, [r6, #24]
1057:src/input.c   ****       }
 3246              		.loc 1 1057 0
ARM GAS  C:\Users\AHMEDH~1\AppData\Local\Temp\cck6gOO5.s 			page 86


 3247 00b8 2046     		mov	r0, r4
1055:src/input.c   ****        // GetAmount(TIPsReqd(), keyin);
 3248              		.loc 1 1055 0
 3249 00ba 1343     		orrs	r3, r2, r3
 3250 00bc 02D1     		bne	.L403
1057:src/input.c   ****       }
 3251              		.loc 1 1057 0
 3252 00be FFF7FEFF 		bl	RefreshDispAfter
 3253              	.LVL388:
 3254 00c2 20E0     		b	.L404
 3255              	.L403:
1060:src/input.c   ****         if (GetCardNbr(keyin) == MWKEY_ENTER) {
 3256              		.loc 1 1060 0
 3257 00c4 FFF7FEFF 		bl	DispHeader
 3258              	.LVL389:
1061:src/input.c   ****           if (ValidCard()) {
 3259              		.loc 1 1061 0
 3260 00c8 5046     		mov	r0, r10
 3261 00ca FFF7FEFF 		bl	GetCardNbr
 3262              	.LVL390:
 3263 00ce 1028     		cmp	r0, #16
 3264 00d0 19D1     		bne	.L404
1062:src/input.c   ****             if (aTxnType == SALE_OFFLINE)
 3265              		.loc 1 1062 0
 3266 00d2 FFF7FEFF 		bl	ValidCard
 3267              	.LVL391:
 3268 00d6 90B1     		cbz	r0, .L405
 3269 00d8 804B     		ldr	r3, .L479
1063:src/input.c   ****               SaleOfflTrans(INPUT.b_entry_mode);
 3270              		.loc 1 1063 0
 3271 00da 072D     		cmp	r5, #7
 3272 00dc 93F83400 		ldrb	r0, [r3, #52]	@ zero_extendqisi2
 3273 00e0 02D1     		bne	.L406
1064:src/input.c   ****             else if (aTxnType == AUTH_SWIPE)
 3274              		.loc 1 1064 0
 3275 00e2 FFF7FEFF 		bl	SaleOfflTrans
 3276              	.LVL392:
 3277 00e6 0AE0     		b	.L405
 3278              	.L406:
1065:src/input.c   ****               AuthTrans(INPUT.b_entry_mode);
 3279              		.loc 1 1065 0
 3280 00e8 15B9     		cbnz	r5, .L407
1066:src/input.c   ****             else if (aTxnType == REFUND)
 3281              		.loc 1 1066 0
 3282 00ea FFF7FEFF 		bl	AuthTrans
 3283              	.LVL393:
 3284 00ee 06E0     		b	.L405
 3285              	.L407:
1067:src/input.c   ****               RefundTrans(INPUT.b_entry_mode);
 3286              		.loc 1 1067 0
 3287 00f0 062D     		cmp	r5, #6
 3288 00f2 02D1     		bne	.L408
1068:src/input.c   ****             else
 3289              		.loc 1 1068 0
 3290 00f4 FFF7FEFF 		bl	RefundTrans
 3291              	.LVL394:
 3292 00f8 01E0     		b	.L405
ARM GAS  C:\Users\AHMEDH~1\AppData\Local\Temp\cck6gOO5.s 			page 87


 3293              	.L408:
1070:src/input.c   ****           }
 3294              		.loc 1 1070 0
 3295 00fa FFF7FEFF 		bl	SaleTrans
 3296              	.LVL395:
 3297              	.L405:
1072:src/input.c   ****           ret = TXN_OK;
 3298              		.loc 1 1072 0
 3299 00fe 0020     		movs	r0, #0
 3300 0100 FFF7FEFF 		bl	TransEnd
 3301              	.LVL396:
 3302 0104 A8E0     		b	.L477
 3303              	.LVL397:
 3304              	.L404:
1080:src/input.c   ****       if (!ctl_ctrl) {
 3305              		.loc 1 1080 0
 3306 0106 FFF7FEFF 		bl	CTLEnabled
 3307              	.LVL398:
 3308 010a B8B3     		cbz	r0, .L409
1080:src/input.c   ****       if (!ctl_ctrl) {
 3309              		.loc 1 1080 0 is_stmt 0 discriminator 1
 3310 010c D6E90601 		ldrd	r0, [r6, #24]
 3311 0110 50EA0103 		orrs	r3, r0, r1
 3312 0114 32D0     		beq	.L409
1080:src/input.c   ****       if (!ctl_ctrl) {
 3313              		.loc 1 1080 0 discriminator 2
 3314 0116 FFF7FEFF 		bl	CtlUnderTransLimit
 3315              	.LVL399:
 3316 011a 78B3     		cbz	r0, .L409
1081:src/input.c   ****         if (aTxnType != REFUND)
 3317              		.loc 1 1081 0 is_stmt 1
 3318 011c 5FB9     		cbnz	r7, .L410
 3319              	.LVL400:
 3320              		.loc 1 1086 0
 3321 011e 4846     		mov	r0, r9
 3322 0120 FFF7FEFF 		bl	CTLPreProcess
 3323              	.LVL401:
 3324 0124 08B1     		cbz	r0, .L411
 3325              	.LVL402:
 3326              	.L412:
1087:src/input.c   ****           DispErrorMsg(GetConstMsg(EDC_CTL_PREPROCESS_ERR));
1088:src/input.c   ****           ret = TXN_ERR;
1089:src/input.c   ****           break;
1090:src/input.c   ****         }
1091:src/input.c   ****         ctl_ctrl = 1;
 3327              		.loc 1 1091 0
 3328 0126 0127     		movs	r7, #1
 3329 0128 28E0     		b	.L409
 3330              	.LVL403:
 3331              	.L411:
1087:src/input.c   ****           DispErrorMsg(GetConstMsg(EDC_CTL_PREPROCESS_ERR));
 3332              		.loc 1 1087 0
 3333 012a 8D20     		movs	r0, #141
 3334 012c FFF7FEFF 		bl	GetConstMsg
 3335              	.LVL404:
 3336 0130 FFF7FEFF 		bl	DispErrorMsg
 3337              	.LVL405:
ARM GAS  C:\Users\AHMEDH~1\AppData\Local\Temp\cck6gOO5.s 			page 88


 3338 0134 20E0     		b	.L478
 3339              	.LVL406:
 3340              	.L410:
1092:src/input.c   ****       }
1093:src/input.c   ****       else if (CTLWaitCard()) {
 3341              		.loc 1 1093 0
 3342 0136 FFF7FEFF 		bl	CTLWaitCard
 3343              	.LVL407:
 3344 013a 0028     		cmp	r0, #0
 3345 013c F3D0     		beq	.L412
1094:src/input.c   ****         OffDevice(HW_MSR);              //01-08-17 JC ++
 3346              		.loc 1 1094 0
 3347 013e 0120     		movs	r0, #1
 3348 0140 FFF7FEFF 		bl	OffDevice
 3349              	.LVL408:
1095:src/input.c   ****         if ((aTxnType == SALE_SWIPE)||(aTxnType == SALE_OFFLINE))
 3350              		.loc 1 1095 0
 3351 0144 022D     		cmp	r5, #2
 3352 0146 01D0     		beq	.L413
 3353              		.loc 1 1095 0 is_stmt 0 discriminator 1
 3354 0148 072D     		cmp	r5, #7
 3355 014a 01D1     		bne	.L414
 3356              	.L413:
1096:src/input.c   ****           CTLTrans(SALE_CTL);
 3357              		.loc 1 1096 0 is_stmt 1
 3358 014c 1420     		movs	r0, #20
 3359 014e 05E0     		b	.L475
 3360              	.L414:
1097:src/input.c   ****         else if (aTxnType == AUTH_SWIPE)
 3361              		.loc 1 1097 0
 3362 0150 0DB9     		cbnz	r5, .L416
1098:src/input.c   ****           CTLTrans(AUTH_CTL);
 3363              		.loc 1 1098 0
 3364 0152 1520     		movs	r0, #21
 3365 0154 02E0     		b	.L475
 3366              	.L416:
1099:src/input.c   ****         else if (aTxnType == REFUND)
 3367              		.loc 1 1099 0
 3368 0156 062D     		cmp	r5, #6
 3369 0158 06D1     		bne	.L417
1100:src/input.c   ****           CTLTrans(REFUND_CTL);
 3370              		.loc 1 1100 0
 3371 015a 1620     		movs	r0, #22
 3372              	.L475:
 3373 015c FFF7FEFF 		bl	CTLTrans
 3374              	.LVL409:
1101:src/input.c   ****         else {
1102:src/input.c   ****           CL_Close(0);
1103:src/input.c   ****           OffDevice(HW_CLICC);          //01-08-17 JC ++
1104:src/input.c   ****           LongBeep();
1105:src/input.c   ****           ret = TXN_ERR;
1106:src/input.c   ****           break;
1107:src/input.c   ****         }
1108:src/input.c   ****         OffDevice(HW_CLICC);            //01-08-17 JC ++
 3375              		.loc 1 1108 0
 3376 0160 0220     		movs	r0, #2
 3377 0162 FFF7FEFF 		bl	OffDevice
ARM GAS  C:\Users\AHMEDH~1\AppData\Local\Temp\cck6gOO5.s 			page 89


 3378              	.LVL410:
 3379 0166 77E0     		b	.L477
 3380              	.LVL411:
 3381              	.L417:
1102:src/input.c   ****           OffDevice(HW_CLICC);          //01-08-17 JC ++
 3382              		.loc 1 1102 0
 3383 0168 0020     		movs	r0, #0
 3384 016a FFF7FEFF 		bl	CL_Close
 3385              	.LVL412:
1103:src/input.c   ****           LongBeep();
 3386              		.loc 1 1103 0
 3387 016e 0220     		movs	r0, #2
 3388 0170 FFF7FEFF 		bl	OffDevice
 3389              	.LVL413:
1104:src/input.c   ****           ret = TXN_ERR;
 3390              		.loc 1 1104 0
 3391 0174 FFF7FEFF 		bl	LongBeep
 3392              	.LVL414:
 3393              	.L478:
1105:src/input.c   ****           break;
 3394              		.loc 1 1105 0
 3395 0178 0124     		movs	r4, #1
1106:src/input.c   ****         }
 3396              		.loc 1 1106 0
 3397 017a C8E0     		b	.L401
 3398              	.LVL415:
 3399              	.L409:
1109:src/input.c   ****         ret = TXN_OK;
1110:src/input.c   ****         break;
1111:src/input.c   ****       }
1112:src/input.c   ****     }
1113:src/input.c   ****     
1114:src/input.c   ****     // ICC
1115:src/input.c   ****     if (ICCInserted()) {
 3400              		.loc 1 1115 0
 3401 017c FFF7FEFF 		bl	ICCInserted
 3402              	.LVL416:
 3403 0180 0446     		mov	r4, r0
 3404 0182 0028     		cmp	r0, #0
 3405 0184 6AD0     		beq	.L418
1116:src/input.c   ****       OffDevice(HW_MSR|HW_CLICC);     //01-08-17 JC ++
 3406              		.loc 1 1116 0
 3407 0186 0320     		movs	r0, #3
 3408 0188 FFF7FEFF 		bl	OffDevice
 3409              	.LVL417:
1117:src/input.c   ****       if (PowerOnICC()) {
 3410              		.loc 1 1117 0
 3411 018c FFF7FEFF 		bl	PowerOnICC
 3412              	.LVL418:
 3413 0190 0446     		mov	r4, r0
 3414 0192 88B1     		cbz	r0, .L419
1118:src/input.c   ****         if ((aTxnType == SALE_SWIPE)||(aTxnType == SALE_OFFLINE))
 3415              		.loc 1 1118 0
 3416 0194 022D     		cmp	r5, #2
 3417 0196 01D0     		beq	.L420
 3418              		.loc 1 1118 0 is_stmt 0 discriminator 1
 3419 0198 072D     		cmp	r5, #7
ARM GAS  C:\Users\AHMEDH~1\AppData\Local\Temp\cck6gOO5.s 			page 90


 3420 019a 01D1     		bne	.L421
 3421              	.L420:
1119:src/input.c   ****           EMVTrans(SALE_ICC);
 3422              		.loc 1 1119 0 is_stmt 1
 3423 019c 0F20     		movs	r0, #15
 3424 019e 06E0     		b	.L476
 3425              	.L421:
1120:src/input.c   ****         else if (aTxnType == AUTH_SWIPE)
 3426              		.loc 1 1120 0
 3427 01a0 0DB9     		cbnz	r5, .L423
1121:src/input.c   ****           EMVTrans(AUTH_ICC);
 3428              		.loc 1 1121 0
 3429 01a2 1020     		movs	r0, #16
 3430 01a4 03E0     		b	.L476
 3431              	.L423:
1122:src/input.c   ****         else if (aTxnType == REFUND)
 3432              		.loc 1 1122 0
 3433 01a6 062D     		cmp	r5, #6
1123:src/input.c   ****           EMVTrans(REFUND_ICC);
 3434              		.loc 1 1123 0
 3435 01a8 0CBF     		ite	eq
 3436 01aa 1120     		moveq	r0, #17
1124:src/input.c   ****         else
1125:src/input.c   ****           EMVTrans(aTxnType);
 3437              		.loc 1 1125 0
 3438 01ac 2846     		movne	r0, r5
 3439              	.L476:
 3440 01ae FFF7FEFF 		bl	EMVTrans
 3441              	.LVL419:
1126:src/input.c   ****         PowerOffICC();
 3442              		.loc 1 1126 0
 3443 01b2 FFF7FEFF 		bl	PowerOffICC
 3444              	.LVL420:
 3445 01b6 2BE0     		b	.L429
 3446              	.LVL421:
 3447              	.L419:
1127:src/input.c   ****         ret = TXN_OK;
1128:src/input.c   ****       }
1129:src/input.c   ****       else {
1130:src/input.c   ****         RSP_DATA.w_rspcode = 'R'*256+'E';
 3448              		.loc 1 1130 0
 3449 01b8 45F24523 		movw	r3, #21061
1131:src/input.c   ****         //Added for MTIP02 Test01 S04 & S05
1132:src/input.c   ****         DispErrorMsg(GetConstMsg(EDC_RSP_READ_ERROR));
 3450              		.loc 1 1132 0
 3451 01bc 7520     		movs	r0, #117
1130:src/input.c   ****         //Added for MTIP02 Test01 S04 & S05
 3452              		.loc 1 1130 0
 3453 01be A6F86E35 		strh	r3, [r6, #1390]	@ movhi
 3454              		.loc 1 1132 0
 3455 01c2 FFF7FEFF 		bl	GetConstMsg
 3456              	.LVL422:
 3457 01c6 FFF7FEFF 		bl	DispErrorMsg
 3458              	.LVL423:
1133:src/input.c   ****         // do fallback
1134:src/input.c   ****         INPUT.b_entry_mode = ICC;
 3459              		.loc 1 1134 0
ARM GAS  C:\Users\AHMEDH~1\AppData\Local\Temp\cck6gOO5.s 			page 91


 3460 01ca 4923     		movs	r3, #73
1135:src/input.c   ****         INPUT.b_trans = SALE_ICC;
1136:src/input.c   ****         if (GetCard(0, TRUE))
 3461              		.loc 1 1136 0
 3462 01cc 2046     		mov	r0, r4
1134:src/input.c   ****         INPUT.b_trans = SALE_ICC;
 3463              		.loc 1 1134 0
 3464 01ce 86F83430 		strb	r3, [r6, #52]
1135:src/input.c   ****         INPUT.b_trans = SALE_ICC;
 3465              		.loc 1 1135 0
 3466 01d2 0F23     		movs	r3, #15
 3467              		.loc 1 1136 0
 3468 01d4 0121     		movs	r1, #1
1135:src/input.c   ****         INPUT.b_trans = SALE_ICC;
 3469              		.loc 1 1135 0
 3470 01d6 3370     		strb	r3, [r6]
 3471              		.loc 1 1136 0
 3472 01d8 FFF7FEFF 		bl	GetCard
 3473              	.LVL424:
 3474 01dc 20B1     		cbz	r0, .L426
1137:src/input.c   ****           SaleTrans(INPUT.b_entry_mode);
 3475              		.loc 1 1137 0
 3476 01de 3F4B     		ldr	r3, .L479
 3477 01e0 93F83400 		ldrb	r0, [r3, #52]	@ zero_extendqisi2
 3478 01e4 FFF7FEFF 		bl	SaleTrans
 3479              	.LVL425:
 3480              	.L426:
1138:src/input.c   ****         TransEnd((BOOLEAN)(RSP_DATA.b_response == TRANS_ACP));
 3481              		.loc 1 1138 0
 3482 01e8 96F80007 		ldrb	r0, [r6, #1792]	@ zero_extendqisi2
 3483 01ec B0FA80F0 		clz	r0, r0
 3484 01f0 4009     		lsrs	r0, r0, #5
 3485 01f2 FFF7FEFF 		bl	TransEnd
 3486              	.LVL426:
 3487 01f6 0BE0     		b	.L429
 3488              	.L428:
1139:src/input.c   ****         ret = TXN_OK;
1140:src/input.c   ****       }
1141:src/input.c   ****       while (!ICCReaderRdy()) {
1142:src/input.c   ****         if (TimerGetMW(gTimerHdl[TIMER_DISP]) == 0) {  // Already Disp Timeout
1143:src/input.c   ****           DispClrBelowMW(MW_LINE3);
1144:src/input.c   ****           Disp2x16Msg(GetConstMsg(EDC_CO_REMOVE_ICC), MW_LINE5, MW_BIGFONT);
1145:src/input.c   ****           gGDS->b_disp_chgd = TRUE;
1146:src/input.c   ****           WaitICCRemove();
1147:src/input.c   ****           break;
1148:src/input.c   ****         }
1149:src/input.c   ****         if (GetCharMW()==MWKEY_CANCL)
 3489              		.loc 1 1149 0
 3490 01f8 0094     		str	r4, [sp]
 3491 01fa 0F20     		movs	r0, #15
 3492 01fc 1621     		movs	r1, #22
 3493 01fe 2246     		mov	r2, r4
 3494 0200 2346     		mov	r3, r4
 3495 0202 FFF7FEFF 		bl	lib_app_call
 3496              	.LVL427:
 3497 0206 1128     		cmp	r0, #17
 3498 0208 02D1     		bne	.L429
ARM GAS  C:\Users\AHMEDH~1\AppData\Local\Temp\cck6gOO5.s 			page 92


1150:src/input.c   ****           RefreshDispAfter(0);
 3499              		.loc 1 1150 0
 3500 020a 2046     		mov	r0, r4
 3501 020c FFF7FEFF 		bl	RefreshDispAfter
 3502              	.LVL428:
 3503              	.L429:
1141:src/input.c   ****         if (TimerGetMW(gTimerHdl[TIMER_DISP]) == 0) {  // Already Disp Timeout
 3504              		.loc 1 1141 0
 3505 0210 FFF7FEFF 		bl	ICCReaderRdy
 3506              	.LVL429:
 3507 0214 0446     		mov	r4, r0
 3508 0216 F8B9     		cbnz	r0, .L477
1142:src/input.c   ****           DispClrBelowMW(MW_LINE3);
 3509              		.loc 1 1142 0
 3510 0218 334B     		ldr	r3, .L479+12
 3511 021a 0D20     		movs	r0, #13
 3512 021c 1968     		ldr	r1, [r3]
 3513 021e FFF7FEFF 		bl	sys_func1
 3514              	.LVL430:
 3515 0222 0346     		mov	r3, r0
 3516 0224 0028     		cmp	r0, #0
 3517 0226 E7D1     		bne	.L428
1143:src/input.c   ****           Disp2x16Msg(GetConstMsg(EDC_CO_REMOVE_ICC), MW_LINE5, MW_BIGFONT);
 3518              		.loc 1 1143 0
 3519 0228 2321     		movs	r1, #35
 3520 022a 4FF44072 		mov	r2, #768
 3521 022e 0090     		str	r0, [sp]
 3522 0230 0F20     		movs	r0, #15
 3523 0232 FFF7FEFF 		bl	lib_app_call
 3524              	.LVL431:
1144:src/input.c   ****           gGDS->b_disp_chgd = TRUE;
 3525              		.loc 1 1144 0
 3526 0236 0220     		movs	r0, #2
 3527 0238 FFF7FEFF 		bl	GetConstMsg
 3528              	.LVL432:
 3529 023c 4FF48052 		mov	r2, #4096
 3530 0240 4FF4A061 		mov	r1, #1280
 3531 0244 FFF7FEFF 		bl	Disp2x16Msg
 3532              	.LVL433:
1145:src/input.c   ****           WaitICCRemove();
 3533              		.loc 1 1145 0
 3534 0248 D8F80030 		ldr	r3, [r8]
 3535 024c 0122     		movs	r2, #1
 3536 024e 03F57153 		add	r3, r3, #15424
 3537 0252 1A74     		strb	r2, [r3, #16]
1146:src/input.c   ****           break;
 3538              		.loc 1 1146 0
 3539 0254 FFF7FEFF 		bl	WaitICCRemove
 3540              	.LVL434:
 3541              	.L477:
 3542 0258 0224     		movs	r4, #2
 3543 025a 58E0     		b	.L401
 3544              	.LVL435:
 3545              	.L418:
1151:src/input.c   ****       }
1152:src/input.c   ****       break;
1153:src/input.c   ****     }
ARM GAS  C:\Users\AHMEDH~1\AppData\Local\Temp\cck6gOO5.s 			page 93


1154:src/input.c   **** 
1155:src/input.c   ****     // MSR
1156:src/input.c   ****     if (IOCtlMW(gMsrHandle, IO_MSR_RXLEN, NULL) > 0) {
 3546              		.loc 1 1156 0
 3547 025c DFF89080 		ldr	r8, .L479+20
 3548 0260 0090     		str	r0, [sp]
 3549 0262 0721     		movs	r1, #7
 3550 0264 0F20     		movs	r0, #15
 3551 0266 D8F80020 		ldr	r2, [r8]
 3552 026a 0323     		movs	r3, #3
 3553 026c FFF7FEFF 		bl	lib_app_call
 3554              	.LVL436:
 3555 0270 0028     		cmp	r0, #0
 3556 0272 7FF7D9AE 		ble	.L431
1157:src/input.c   ****       if (MSRSwiped(&INPUT.s_trk1buf, &INPUT.s_trk2buf)) {
 3557              		.loc 1 1157 0
 3558 0276 1D48     		ldr	r0, .L479+16
 3559 0278 00F1A001 		add	r1, r0, #160
 3560 027c FFF7FEFF 		bl	MSRSwiped
 3561              	.LVL437:
 3562 0280 C0B3     		cbz	r0, .L439
1158:src/input.c   ****         if (CTLEnabled())
 3563              		.loc 1 1158 0
 3564 0282 FFF7FEFF 		bl	CTLEnabled
 3565              	.LVL438:
 3566 0286 10B1     		cbz	r0, .L433
1159:src/input.c   ****           CL_Close(0);
 3567              		.loc 1 1159 0
 3568 0288 2046     		mov	r0, r4
 3569 028a FFF7FEFF 		bl	CL_Close
 3570              	.LVL439:
 3571              	.L433:
1160:src/input.c   ****         OffDevice(HW_MSR|HW_CLICC);     //01-08-17 JC ++
 3572              		.loc 1 1160 0
 3573 028e 0320     		movs	r0, #3
 3574 0290 FFF7FEFF 		bl	OffDevice
 3575              	.LVL440:
1161:src/input.c   ****         if (INPUT.s_trk2buf.b_len > 0) {
 3576              		.loc 1 1161 0
 3577 0294 96F8A032 		ldrb	r3, [r6, #672]	@ zero_extendqisi2
 3578 0298 104C     		ldr	r4, .L479
 3579 029a CBB1     		cbz	r3, .L434
1162:src/input.c   ****           if (ValidCard()) {
 3580              		.loc 1 1162 0
 3581 029c FFF7FEFF 		bl	ValidCard
 3582              	.LVL441:
 3583 02a0 88B1     		cbz	r0, .L435
1163:src/input.c   ****             if (aTxnType == SALE_OFFLINE)
 3584              		.loc 1 1163 0
 3585 02a2 072D     		cmp	r5, #7
 3586 02a4 94F83400 		ldrb	r0, [r4, #52]	@ zero_extendqisi2
 3587 02a8 02D1     		bne	.L436
1164:src/input.c   ****               SaleOfflTrans(INPUT.b_entry_mode);
 3588              		.loc 1 1164 0
 3589 02aa FFF7FEFF 		bl	SaleOfflTrans
 3590              	.LVL442:
 3591 02ae 0AE0     		b	.L435
ARM GAS  C:\Users\AHMEDH~1\AppData\Local\Temp\cck6gOO5.s 			page 94


 3592              	.L436:
1165:src/input.c   ****             else if (aTxnType == AUTH_SWIPE)
 3593              		.loc 1 1165 0
 3594 02b0 15B9     		cbnz	r5, .L437
1166:src/input.c   ****               AuthTrans(INPUT.b_entry_mode);
 3595              		.loc 1 1166 0
 3596 02b2 FFF7FEFF 		bl	AuthTrans
 3597              	.LVL443:
 3598 02b6 06E0     		b	.L435
 3599              	.L437:
1167:src/input.c   ****             else if (aTxnType == REFUND)
 3600              		.loc 1 1167 0
 3601 02b8 062D     		cmp	r5, #6
 3602 02ba 02D1     		bne	.L438
1168:src/input.c   ****               RefundTrans(INPUT.b_entry_mode);
 3603              		.loc 1 1168 0
 3604 02bc FFF7FEFF 		bl	RefundTrans
 3605              	.LVL444:
 3606 02c0 01E0     		b	.L435
 3607              	.L438:
1169:src/input.c   ****             else
1170:src/input.c   ****               SaleTrans(INPUT.b_entry_mode);
 3608              		.loc 1 1170 0
 3609 02c2 FFF7FEFF 		bl	SaleTrans
 3610              	.LVL445:
 3611              	.L435:
1171:src/input.c   ****           }
1172:src/input.c   ****           TransEnd(FALSE);
 3612              		.loc 1 1172 0
 3613 02c6 0020     		movs	r0, #0
 3614 02c8 FFF7FEFF 		bl	TransEnd
 3615              	.LVL446:
1173:src/input.c   ****           ret = TXN_OK;
 3616              		.loc 1 1173 0
 3617 02cc 0224     		movs	r4, #2
 3618 02ce 12E0     		b	.L432
 3619              	.LVL447:
 3620              	.L434:
1174:src/input.c   ****         }
1175:src/input.c   ****         else {
1176:src/input.c   ****           RSP_DATA.w_rspcode = 'R'*256+'E';
 3621              		.loc 1 1176 0
 3622 02d0 45F24523 		movw	r3, #21061
 3623 02d4 A4F86E35 		strh	r3, [r4, #1390]	@ movhi
 3624              	.LVL448:
1177:src/input.c   ****           ret = TXN_ERR;
 3625              		.loc 1 1177 0
 3626 02d8 0124     		movs	r4, #1
 3627 02da 0CE0     		b	.L432
 3628              	.L480:
 3629              		.align	2
 3630              	.L479:
 3631 02dc 00000000 		.word	gGTS
 3632 02e0 00000000 		.word	gDispLogo
 3633 02e4 00000000 		.word	gGDS
 3634 02e8 00000000 		.word	gTimerHdl
 3635 02ec 00020000 		.word	gGTS+512
ARM GAS  C:\Users\AHMEDH~1\AppData\Local\Temp\cck6gOO5.s 			page 95


 3636 02f0 00000000 		.word	gMsrHandle
 3637              	.LVL449:
 3638              	.L439:
1023:src/input.c   ****   BYTE ctl_ctrl=0;
 3639              		.loc 1 1023 0
 3640 02f4 0446     		mov	r4, r0
 3641              	.LVL450:
 3642              	.L432:
1178:src/input.c   ****         }
1179:src/input.c   ****       }
1180:src/input.c   ****       IOCtlMW(gMsrHandle, IO_MSR_RESET, NULL);
 3643              		.loc 1 1180 0
 3644 02f6 0025     		movs	r5, #0
 3645              	.LVL451:
 3646 02f8 0F20     		movs	r0, #15
 3647 02fa 0095     		str	r5, [sp]
 3648 02fc 0721     		movs	r1, #7
 3649 02fe D8F80020 		ldr	r2, [r8]
 3650 0302 0423     		movs	r3, #4
 3651 0304 FFF7FEFF 		bl	lib_app_call
 3652              	.LVL452:
1181:src/input.c   ****       TransEnd(FALSE);
 3653              		.loc 1 1181 0
 3654 0308 2846     		mov	r0, r5
 3655 030a FFF7FEFF 		bl	TransEnd
 3656              	.LVL453:
 3657              	.L401:
1182:src/input.c   ****       break;
1183:src/input.c   ****     }
1184:src/input.c   ****   }
1185:src/input.c   **** 
1186:src/input.c   ****   OffDevice(HW_MSR|HW_CLICC);       //25-07-17 JC ++
 3658              		.loc 1 1186 0
 3659 030e 0320     		movs	r0, #3
 3660 0310 FFF7FEFF 		bl	OffDevice
 3661              	.LVL454:
1187:src/input.c   ****   gIdleCnt = FreeRunMark();         //25-07-17 JC ++
 3662              		.loc 1 1187 0
 3663 0314 FFF7FEFF 		bl	FreeRunMark
 3664              	.LVL455:
 3665 0318 024B     		ldr	r3, .L481
 3666 031a 1860     		str	r0, [r3]
1188:src/input.c   ****   return ret;
1189:src/input.c   **** }
 3667              		.loc 1 1189 0
 3668 031c 2046     		mov	r0, r4
 3669 031e 02B0     		add	sp, sp, #8
 3670              		.cfi_def_cfa_offset 32
 3671              		@ sp needed
 3672 0320 BDE8F087 		pop	{r4, r5, r6, r7, r8, r9, r10, pc}
 3673              	.LVL456:
 3674              	.L482:
 3675              		.align	2
 3676              	.L481:
 3677 0324 00000000 		.word	gIdleCnt
 3678              		.cfi_endproc
 3679              	.LFE19:
ARM GAS  C:\Users\AHMEDH~1\AppData\Local\Temp\cck6gOO5.s 			page 96


 3680              		.size	WaitCardTrans, .-WaitCardTrans
 3681              		.section	.text.GetEcrRef,"ax",%progbits
 3682              		.align	1
 3683              		.global	GetEcrRef
 3684              		.thumb
 3685              		.thumb_func
 3686              		.type	GetEcrRef, %function
 3687              	GetEcrRef:
 3688              	.LFB20:
1190:src/input.c   **** //*****************************************************************************
1191:src/input.c   **** //  Function        : GetEcrRef
1192:src/input.c   **** //  Description     : Prompt user to entry ECR reference number.
1193:src/input.c   **** //  Input           : TRUE;  // prompt user to get ECR ref if need
1194:src/input.c   **** //                    FALSE; // not prompt user
1195:src/input.c   **** //  Return          : TRUE;  // valid input.
1196:src/input.c   **** //                    FALSE; // user cancel
1197:src/input.c   **** //  Note            : N/A
1198:src/input.c   **** //  Globals Changed : INPUT.sb_ecr_ref;
1199:src/input.c   **** //*****************************************************************************
1200:src/input.c   **** BOOLEAN GetEcrRef(BOOLEAN aPrompt)
1201:src/input.c   **** {
 3689              		.loc 1 1201 0
 3690              		.cfi_startproc
 3691              		@ args = 0, pretend = 0, frame = 32
 3692              		@ frame_needed = 0, uses_anonymous_args = 0
 3693              	.LVL457:
 3694 0000 10B5     		push	{r4, lr}
 3695              		.cfi_def_cfa_offset 8
 3696              		.cfi_offset 4, -8
 3697              		.cfi_offset 14, -4
1202:src/input.c   ****   BYTE kbdbuf[31];
1203:src/input.c   **** 
1204:src/input.c   ****   memset(INPUT.sb_ecr_ref, ' ', 16);
 3698              		.loc 1 1204 0
 3699 0002 2021     		movs	r1, #32
1201:src/input.c   ****   BYTE kbdbuf[31];
 3700              		.loc 1 1201 0
 3701 0004 8AB0     		sub	sp, sp, #40
 3702              		.cfi_def_cfa_offset 48
1201:src/input.c   ****   BYTE kbdbuf[31];
 3703              		.loc 1 1201 0
 3704 0006 0446     		mov	r4, r0
 3705              		.loc 1 1204 0
 3706 0008 1022     		movs	r2, #16
 3707 000a 1B48     		ldr	r0, .L492
 3708              	.LVL458:
 3709 000c FFF7FEFF 		bl	memset
 3710              	.LVL459:
1205:src/input.c   **** 
1206:src/input.c   ****   if (gGDS->i_ecr_len> 0) {
 3711              		.loc 1 1206 0
 3712 0010 1A4B     		ldr	r3, .L492+4
 3713 0012 1B68     		ldr	r3, [r3]
 3714 0014 03F58443 		add	r3, r3, #16896
 3715 0018 DB6D     		ldr	r3, [r3, #92]
 3716 001a 002B     		cmp	r3, #0
 3717 001c 03DD     		ble	.L484
ARM GAS  C:\Users\AHMEDH~1\AppData\Local\Temp\cck6gOO5.s 			page 97


1207:src/input.c   ****     EcrGetRef(INPUT.sb_ecr_ref);
 3718              		.loc 1 1207 0
 3719 001e 1648     		ldr	r0, .L492
 3720 0020 FFF7FEFF 		bl	EcrGetRef
 3721              	.LVL460:
 3722 0024 25E0     		b	.L488
 3723              	.L484:
1208:src/input.c   ****     return TRUE;
1209:src/input.c   ****   }
1210:src/input.c   ****   if (!aPrompt)
 3724              		.loc 1 1210 0
 3725 0026 0CB9     		cbnz	r4, .L486
 3726              	.L487:
1211:src/input.c   ****     return FALSE;
 3727              		.loc 1 1211 0
 3728 0028 0020     		movs	r0, #0
 3729 002a 23E0     		b	.L485
 3730              	.L486:
1212:src/input.c   **** 
1213:src/input.c   ****   DispHeader(NULL);
 3731              		.loc 1 1213 0
 3732 002c 0020     		movs	r0, #0
 3733 002e FFF7FEFF 		bl	DispHeader
 3734              	.LVL461:
1214:src/input.c   ****   if (!EcrRefReqd())
 3735              		.loc 1 1214 0
 3736 0032 FFF7FEFF 		bl	EcrRefReqd
 3737              	.LVL462:
 3738 0036 E0B1     		cbz	r0, .L488
1215:src/input.c   ****     return TRUE;
1216:src/input.c   **** 
1217:src/input.c   ****   Disp2x16Msg(GetConstMsg(EDC_IN_ECRREF), MW_LINE3, MW_BIGFONT);
 3739              		.loc 1 1217 0
 3740 0038 2120     		movs	r0, #33
 3741 003a FFF7FEFF 		bl	GetConstMsg
 3742              	.LVL463:
 3743 003e 4FF44071 		mov	r1, #768
 3744 0042 4FF48052 		mov	r2, #4096
 3745 0046 FFF7FEFF 		bl	Disp2x16Msg
 3746              	.LVL464:
1218:src/input.c   **** 
1219:src/input.c   ****   kbdbuf[0] = 0;
 3747              		.loc 1 1219 0
 3748 004a 0AAC     		add	r4, sp, #40
 3749 004c 0023     		movs	r3, #0
1220:src/input.c   ****   if (!APM_GetKbd(ALPHA_INPUT+ECHO+MW_BIGFONT+MW_LINE7+RIGHT_JUST, IMAX(16), kbdbuf))
 3750              		.loc 1 1220 0
 3751 004e 1020     		movs	r0, #16
1219:src/input.c   ****   if (!APM_GetKbd(ALPHA_INPUT+ECHO+MW_BIGFONT+MW_LINE7+RIGHT_JUST, IMAX(16), kbdbuf))
 3752              		.loc 1 1219 0
 3753 0050 04F8203D 		strb	r3, [r4, #-32]!
 3754              		.loc 1 1220 0
 3755 0054 0521     		movs	r1, #5
 3756 0056 0094     		str	r4, [sp]
 3757 0058 094A     		ldr	r2, .L492+8
 3758 005a 0346     		mov	r3, r0
 3759 005c FFF7FEFF 		bl	lib_app_call
ARM GAS  C:\Users\AHMEDH~1\AppData\Local\Temp\cck6gOO5.s 			page 98


 3760              	.LVL465:
 3761 0060 10F0FF0F 		tst	r0, #255
 3762 0064 E0D0     		beq	.L487
1221:src/input.c   ****     return 0;
1222:src/input.c   **** 
1223:src/input.c   ****   memcpy(INPUT.sb_ecr_ref, &kbdbuf[1], kbdbuf[0]);
 3763              		.loc 1 1223 0
 3764 0066 0448     		ldr	r0, .L492
 3765 0068 611C     		adds	r1, r4, #1
 3766 006a 9DF80820 		ldrb	r2, [sp, #8]	@ zero_extendqisi2
 3767 006e FFF7FEFF 		bl	memcpy
 3768              	.LVL466:
 3769              	.L488:
1215:src/input.c   **** 
 3770              		.loc 1 1215 0
 3771 0072 0120     		movs	r0, #1
 3772              	.L485:
1224:src/input.c   ****   return TRUE;
1225:src/input.c   **** }
 3773              		.loc 1 1225 0
 3774 0074 0AB0     		add	sp, sp, #40
 3775              		.cfi_def_cfa_offset 8
 3776              		@ sp needed
 3777 0076 10BD     		pop	{r4, pc}
 3778              	.L493:
 3779              		.align	2
 3780              	.L492:
 3781 0078 4F000000 		.word	gGTS+79
 3782 007c 00000000 		.word	gGDS
 3783 0080 FF172200 		.word	2234367
 3784              		.cfi_endproc
 3785              	.LFE20:
 3786              		.size	GetEcrRef, .-GetEcrRef
 3787              		.section	.text.GetCashBackAmount,"ax",%progbits
 3788              		.align	1
 3789              		.global	GetCashBackAmount
 3790              		.thumb
 3791              		.thumb_func
 3792              		.type	GetCashBackAmount, %function
 3793              	GetCashBackAmount:
 3794              	.LFB21:
1226:src/input.c   **** //*****************************************************************************
1227:src/input.c   **** //  Function        : GetCashBackAmount
1228:src/input.c   **** //  Description     : Prompt user to enter cashback amount.
1229:src/input.c   **** //  Input           : N/A
1230:src/input.c   **** //  Return          : TRUE/FALSE;  // valid input or cancel
1231:src/input.c   **** //  Note            : N/A
1232:src/input.c   **** //  Globals Changed : N/A
1233:src/input.c   **** //*****************************************************************************
1234:src/input.c   **** BOOLEAN GetCashBackAmount(DDWORD *aCashbackAmt)
1235:src/input.c   **** {
 3795              		.loc 1 1235 0
 3796              		.cfi_startproc
 3797              		@ args = 0, pretend = 0, frame = 32
 3798              		@ frame_needed = 0, uses_anonymous_args = 0
 3799              	.LVL467:
 3800 0000 F0B5     		push	{r4, r5, r6, r7, lr}
ARM GAS  C:\Users\AHMEDH~1\AppData\Local\Temp\cck6gOO5.s 			page 99


 3801              		.cfi_def_cfa_offset 20
 3802              		.cfi_offset 4, -20
 3803              		.cfi_offset 5, -16
 3804              		.cfi_offset 6, -12
 3805              		.cfi_offset 7, -8
 3806              		.cfi_offset 14, -4
1236:src/input.c   ****   BYTE kbdbuf[32];
1237:src/input.c   ****   BYTE var_i = 0, var_j = 5;
1238:src/input.c   ****   DDWORD amt = 0;
1239:src/input.c   **** 
1240:src/input.c   ****   while (1) {    
1241:src/input.c   ****     amt = 0;
1242:src/input.c   ****     kbdbuf[0] = 4;
1243:src/input.c   ****      memcpy(&kbdbuf[1], STIS_TERM_CFG.sb_currency_name, 3);
 3807              		.loc 1 1243 0
 3808 0002 2E4E     		ldr	r6, .L502
1235:src/input.c   ****   BYTE kbdbuf[32];
 3809              		.loc 1 1235 0
 3810 0004 8BB0     		sub	sp, sp, #44
 3811              		.cfi_def_cfa_offset 64
1242:src/input.c   ****      memcpy(&kbdbuf[1], STIS_TERM_CFG.sb_currency_name, 3);
 3812              		.loc 1 1242 0
 3813 0006 0AAC     		add	r4, sp, #40
 3814 0008 0423     		movs	r3, #4
 3815              		.loc 1 1243 0
 3816 000a 3768     		ldr	r7, [r6]
1242:src/input.c   ****      memcpy(&kbdbuf[1], STIS_TERM_CFG.sb_currency_name, 3);
 3817              		.loc 1 1242 0
 3818 000c 04F8203D 		strb	r3, [r4, #-32]!
 3819              		.loc 1 1243 0
 3820 0010 07F16701 		add	r1, r7, #103
 3821 0014 0322     		movs	r2, #3
1235:src/input.c   ****   BYTE kbdbuf[32];
 3822              		.loc 1 1235 0
 3823 0016 0546     		mov	r5, r0
 3824              		.loc 1 1243 0
 3825 0018 601C     		adds	r0, r4, #1
 3826              	.LVL468:
 3827 001a FFF7FEFF 		bl	memcpy
 3828              	.LVL469:
1244:src/input.c   ****     kbdbuf[4] = STIS_TERM_CFG.b_currency;
 3829              		.loc 1 1244 0
 3830 001e 97F86230 		ldrb	r3, [r7, #98]	@ zero_extendqisi2
1245:src/input.c   ****     
1246:src/input.c   ****     DispClrBelowMW(MW_LINE3);
 3831              		.loc 1 1246 0
 3832 0022 2321     		movs	r1, #35
1244:src/input.c   ****     kbdbuf[4] = STIS_TERM_CFG.b_currency;
 3833              		.loc 1 1244 0
 3834 0024 8DF80C30 		strb	r3, [sp, #12]
 3835              		.loc 1 1246 0
 3836 0028 0023     		movs	r3, #0
 3837 002a 4FF44072 		mov	r2, #768
 3838 002e 0093     		str	r3, [sp]
 3839 0030 0F20     		movs	r0, #15
 3840 0032 FFF7FEFF 		bl	lib_app_call
 3841              	.LVL470:
ARM GAS  C:\Users\AHMEDH~1\AppData\Local\Temp\cck6gOO5.s 			page 100


1247:src/input.c   ****     Disp2x16Msg("Enter Cash Back Amount", MW_LINE3, MW_BIGFONT);
 3842              		.loc 1 1247 0
 3843 0036 2248     		ldr	r0, .L502+4
 3844 0038 4FF44071 		mov	r1, #768
 3845 003c 4FF48052 		mov	r2, #4096
 3846 0040 FFF7FEFF 		bl	Disp2x16Msg
 3847              	.LVL471:
1248:src/input.c   **** 
1249:src/input.c   ****     if (!APM_GetKbd(PREFIX_ENB+AMOUNT_INPUT+MW_BIGFONT+MW_LINE7+KDecimalPos[STIS_TERM_CFG.b_decimal
 3848              		.loc 1 1249 0
 3849 0044 3368     		ldr	r3, [r6]
 3850 0046 0521     		movs	r1, #5
 3851 0048 93F86420 		ldrb	r2, [r3, #100]	@ zero_extendqisi2
 3852 004c 1D4B     		ldr	r3, .L502+8
 3853 004e 0094     		str	r4, [sp]
 3854 0050 53F82220 		ldr	r2, [r3, r2, lsl #2]
 3855 0054 1020     		movs	r0, #16
 3856 0056 02F58202 		add	r2, r2, #4259840
 3857 005a 02F5B852 		add	r2, r2, #5888
 3858 005e 0B46     		mov	r3, r1
 3859 0060 FFF7FEFF 		bl	lib_app_call
 3860              	.LVL472:
 3861 0064 C0B2     		uxtb	r0, r0
 3862 0066 38B3     		cbz	r0, .L495
1250:src/input.c   ****             IMIN(var_i)+IMAX(var_j), kbdbuf))
1251:src/input.c   ****       return FALSE;
1252:src/input.c   ****     if (kbdbuf[0] == 0)
 3863              		.loc 1 1252 0
 3864 0068 9DF80800 		ldrb	r0, [sp, #8]	@ zero_extendqisi2
 3865 006c C0B1     		cbz	r0, .L498
1253:src/input.c   ****       amt = 0;
1254:src/input.c   ****     else {
1255:src/input.c   ****       if (STIS_TERM_CFG.b_decimal_pos < 2) {  // 8583 expect 2 decimal pos.
 3866              		.loc 1 1255 0
 3867 006e 3668     		ldr	r6, [r6]
 3868 0070 96F86430 		ldrb	r3, [r6, #100]	@ zero_extendqisi2
 3869 0074 012B     		cmp	r3, #1
 3870 0076 0DD8     		bhi	.L497
1256:src/input.c   ****         memset(&kbdbuf[kbdbuf[0]+1], '0', 2);
 3871              		.loc 1 1256 0
 3872 0078 0130     		adds	r0, r0, #1
 3873 007a 0222     		movs	r2, #2
 3874 007c 2044     		add	r0, r0, r4
 3875 007e 3021     		movs	r1, #48
 3876 0080 FFF7FEFF 		bl	memset
 3877              	.LVL473:
 3878 0084 9DF80830 		ldrb	r3, [sp, #8]	@ zero_extendqisi2
1257:src/input.c   ****         kbdbuf[0] += (2-STIS_TERM_CFG.b_decimal_pos);
 3879              		.loc 1 1257 0
 3880 0088 96F86420 		ldrb	r2, [r6, #100]	@ zero_extendqisi2
 3881 008c 0233     		adds	r3, r3, #2
 3882 008e 9B1A     		subs	r3, r3, r2
 3883 0090 8DF80830 		strb	r3, [sp, #8]
 3884              	.L497:
1258:src/input.c   ****       }
1259:src/input.c   ****       amt = decbin8b(&kbdbuf[1], kbdbuf[0]);
 3885              		.loc 1 1259 0
ARM GAS  C:\Users\AHMEDH~1\AppData\Local\Temp\cck6gOO5.s 			page 101


 3886 0094 601C     		adds	r0, r4, #1
 3887 0096 9DF80810 		ldrb	r1, [sp, #8]	@ zero_extendqisi2
 3888 009a FFF7FEFF 		bl	decbin8b
 3889              	.LVL474:
 3890 009e 01E0     		b	.L496
 3891              	.LVL475:
 3892              	.L498:
1253:src/input.c   ****     else {
 3893              		.loc 1 1253 0
 3894 00a0 0020     		movs	r0, #0
 3895 00a2 0021     		movs	r1, #0
 3896              	.LVL476:
 3897              	.L496:
1260:src/input.c   ****     }
1261:src/input.c   ****     INPUT.dd_amount += amt;
 3898              		.loc 1 1261 0
 3899 00a4 084C     		ldr	r4, .L502+12
 3900 00a6 D4E90623 		ldrd	r2, [r4, #24]
 3901 00aa 1218     		adds	r2, r2, r0
 3902 00ac 4B41     		adcs	r3, r3, r1
 3903 00ae C4E90623 		strd	r2, [r4, #24]
1262:src/input.c   ****     *aCashbackAmt = amt;
 3904              		.loc 1 1262 0
 3905 00b2 C5E90001 		strd	r0, [r5]
1263:src/input.c   ****     return TRUE;
 3906              		.loc 1 1263 0
 3907 00b6 0120     		movs	r0, #1
 3908              	.LVL477:
 3909              	.L495:
1264:src/input.c   ****   }
1265:src/input.c   **** 
1266:src/input.c   ****   return FALSE;
1267:src/input.c   **** }
 3910              		.loc 1 1267 0
 3911 00b8 0BB0     		add	sp, sp, #44
 3912              		.cfi_def_cfa_offset 20
 3913              		@ sp needed
 3914 00ba F0BD     		pop	{r4, r5, r6, r7, pc}
 3915              	.LVL478:
 3916              	.L503:
 3917              		.align	2
 3918              	.L502:
 3919 00bc 00000000 		.word	gGDS
 3920 00c0 45000000 		.word	.LC4
 3921 00c4 00000000 		.word	.LANCHOR1
 3922 00c8 00000000 		.word	gGTS
 3923              		.cfi_endproc
 3924              	.LFE21:
 3925              		.size	GetCashBackAmount, .-GetCashBackAmount
 3926              		.global	gCurInfo
 3927              		.section	.rodata
 3928              		.align	2
 3929              		.set	.LANCHOR1,. + 0
 3930              		.type	KDecimalPos, %object
 3931              		.size	KDecimalPos, 16
 3932              	KDecimalPos:
 3933 0000 00000000 		.word	0
ARM GAS  C:\Users\AHMEDH~1\AppData\Local\Temp\cck6gOO5.s 			page 102


 3934 0004 00000001 		.word	16777216
 3935 0008 00000002 		.word	33554432
 3936 000c 00000003 		.word	50331648
 3937              		.section	.rodata.str1.1,"aMS",%progbits,1
 3938              	.LC0:
 3939 0000 3C434C52 		.ascii	"<CLR>Down<ENT>Confirm\000"
 3939      3E446F77 
 3939      6E3C454E 
 3939      543E436F 
 3939      6E666972 
 3940              	.LC1:
 3941 0016 3C434C52 		.ascii	"<CLR>Up  <ENT>Confirm\000"
 3941      3E557020 
 3941      203C454E 
 3941      543E436F 
 3941      6E666972 
 3942              	.LC2:
 3943 002c 20202020 		.ascii	"         <ENT>Confirm\000"
 3943      20202020 
 3943      203C454E 
 3943      543E436F 
 3943      6E666972 
 3944              	.LC3:
 3945 0042 303000   		.ascii	"00\000"
 3946              	.LC4:
 3947 0045 456E7465 		.ascii	"Enter Cash Back Amount\000"
 3947      72204361 
 3947      73682042 
 3947      61636B20 
 3947      416D6F75 
 3948              		.data
 3949              		.align	2
 3950              		.set	.LANCHOR0,. + 0
 3951              		.type	gCurInfo, %object
 3952              		.size	gCurInfo, 24
 3953              	gCurInfo:
 3954 0000 454750   		.ascii	"EGP"
 3955 0003 383138   		.ascii	"818"
 3956 0006 0000     		.space	2
 3957 0008 555344   		.ascii	"USD"
 3958 000b 383430   		.ascii	"840"
 3959 000e 0000     		.space	2
 3960 0010 455552   		.ascii	"EUR"
 3961 0013 393738   		.ascii	"978"
 3962 0016 0000     		.space	2
 3963              		.text
 3964              	.Letext0:
 3965              		.file 2 "c:\\devtools\\gcc_v49_2014q4\\lib\\gcc\\arm-none-eabi\\4.9.3\\include\\stddef.h"
 3966              		.file 3 "../LibA5T1000/common.h"
 3967              		.file 4 "../LibA5T1000/emv2dll.h"
