ARM GAS  C:\Users\AHMED~1.ELE\AppData\Local\Temp\ccLLYyS4.s 			page 1


   1              		.syntax unified
   2              		.cpu cortex-a5
   3              		.fpu softvfp
   4              		.eabi_attribute 20, 1
   5              		.eabi_attribute 21, 1
   6              		.eabi_attribute 23, 3
   7              		.eabi_attribute 24, 1
   8              		.eabi_attribute 25, 1
   9              		.eabi_attribute 26, 1
  10              		.eabi_attribute 30, 4
  11              		.eabi_attribute 34, 0
  12              		.eabi_attribute 18, 4
  13              		.thumb
  14              		.file	"input.c"
  15              		.text
  16              	.Ltext0:
  17              		.cfi_sections	.debug_frame
  18              		.section	.text.DispKeyinPAN,"ax",%progbits
  19              		.align	1
  20              		.thumb
  21              		.thumb_func
  22              		.type	DispKeyinPAN, %function
  23              	DispKeyinPAN:
  24              	.LFB16:
  25              		.file 1 "src/input.c"
   1:src/input.c   **** //-----------------------------------------------------------------------------
   2:src/input.c   **** //  File          : input.c
   3:src/input.c   **** //  Module        :
   4:src/input.c   **** //  Description   : Input related functions.
   5:src/input.c   **** //  Author        : Lewis
   6:src/input.c   **** //  Notes         :
   7:src/input.c   **** //
   8:src/input.c   **** // ============================================================================
   9:src/input.c   **** // | Naming conventions                                                       |
  10:src/input.c   **** // | ~~~~~~~~~~~~~~~~~~                                                       |
  11:src/input.c   **** // |        Struct define : Leading T                                         |
  12:src/input.c   **** // |         Struct/Array : Leading s                                         |
  13:src/input.c   **** // |             Constant : Leading K                                         |
  14:src/input.c   **** // |      Global Variable : Leading g  (variable use outside one C file)      |
  15:src/input.c   **** // |                                                                          |
  16:src/input.c   **** // |   BYTE( 8 Bits) size : Leading b                                         |
  17:src/input.c   **** // |   CHAR( 8 Bits) size : Leading c                                         |
  18:src/input.c   **** // |   WORD(16 Bits) size : Leading w                                         |
  19:src/input.c   **** // |  DWORD(32 Bits) size : Leading d                                         |
  20:src/input.c   **** // |    int(32 Bits) size : Leading i                                         |
  21:src/input.c   **** // | DDWORD(64 Bits) size : Leading dd                                        |
  22:src/input.c   **** // |              Pointer : Leading p                                         |
  23:src/input.c   **** // |                                                                          |
  24:src/input.c   **** // |    Function argument : Leading a                                         |
  25:src/input.c   **** // |       Local Variable : All lower case                                    |
  26:src/input.c   **** // |                                                                          |
  27:src/input.c   **** // | Examples:                                                                |
  28:src/input.c   **** // |                Array : Leading s, (sb = arrary of byte, etc)             |
  29:src/input.c   **** // |              Pointer : Leading p, (pb = pointer of byte, etc)            |
  30:src/input.c   **** // ============================================================================
  31:src/input.c   **** //
  32:src/input.c   **** //  Date          Who         Action
ARM GAS  C:\Users\AHMED~1.ELE\AppData\Local\Temp\ccLLYyS4.s 			page 2


  33:src/input.c   **** //  ------------  ----------- -------------------------------------------------
  34:src/input.c   **** //  29 Sept 2008  Lewis       Initial Version.
  35:src/input.c   **** //-----------------------------------------------------------------------------
  36:src/input.c   **** #include <string.h>
  37:src/input.c   **** #include "corevar.h"
  38:src/input.c   **** #include "coremain.h"
  39:src/input.c   **** #include "chkoptn.h"
  40:src/input.c   **** #include "constant.h"
  41:src/input.c   **** #include "emvtrans.h"
  42:src/input.c   **** #include "message.h"
  43:src/input.c   **** #include "tranutil.h"
  44:src/input.c   **** #include "util.h"
  45:src/input.c   **** #include "ecr.h"
  46:src/input.c   **** #include "tlvutil.h"
  47:src/input.c   **** #include "sale.h"
  48:src/input.c   **** #include "saleoffl.h"
  49:src/input.c   **** #include "auth.h"
  50:src/input.c   **** #include "refund.h"
  51:src/input.c   **** #include "emvtrans.h"
  52:src/input.c   **** #include "ctltrans.h"
  53:src/input.c   **** #include "iface.h"
  54:src/input.c   **** #include "input.h"
  55:src/input.c   **** 
  56:src/input.c   **** //-----------------------------------------------------------------------------
  57:src/input.c   **** //      Defines
  58:src/input.c   **** //-----------------------------------------------------------------------------
  59:src/input.c   **** struct PRODUCT {
  60:src/input.c   ****   BOOLEAN b_selected;
  61:src/input.c   ****   struct DESC_TBL s_prod;
  62:src/input.c   **** };
  63:src/input.c   **** 
  64:src/input.c   **** #define SEPARATOR_5E   '^'
  65:src/input.c   **** 
  66:src/input.c   **** //-----------------------------------------------------------------------------
  67:src/input.c   **** //    Constant
  68:src/input.c   **** //-----------------------------------------------------------------------------
  69:src/input.c   **** static const DWORD KDecimalPos[4] = { DECIMAL_NONE, DECIMAL_POS1, DECIMAL_POS2, DECIMAL_POS3};
  70:src/input.c   **** 
  71:src/input.c   **** //-----------------------------------------------------------------------------
  72:src/input.c   **** //      Globals Variables
  73:src/input.c   **** //-----------------------------------------------------------------------------
  74:src/input.c   **** cur_info_t gCurInfo[MAX_CUR_SUPPORT] =
  75:src/input.c   **** {
  76:src/input.c   ****   {"EGP", "818"},
  77:src/input.c   ****   {"USD", "840"},
  78:src/input.c   ****   {"EUR", "978"},
  79:src/input.c   **** };
  80:src/input.c   **** 
  81:src/input.c   **** //*****************************************************************************
  82:src/input.c   **** //  Function        : Trk1Ready
  83:src/input.c   **** //  Description     : Return TRUE when TRK1 data ready.
  84:src/input.c   **** //  Input           : N/A
  85:src/input.c   **** //  Return          : TRUE;  // trk1 data ready.
  86:src/input.c   **** //  Note            : N/A
  87:src/input.c   **** //  Globals Changed : N/A
  88:src/input.c   **** //*****************************************************************************
  89:src/input.c   **** static BOOLEAN Trk1Ready(void)
ARM GAS  C:\Users\AHMED~1.ELE\AppData\Local\Temp\ccLLYyS4.s 			page 3


  90:src/input.c   **** {
  91:src/input.c   ****   return ((INPUT.s_trk1buf.b_len != 0) && (INPUT.s_trk1buf.b_len != 0xFF));
  92:src/input.c   **** }
  93:src/input.c   **** //*****************************************************************************
  94:src/input.c   **** //  Function        : Trk2Ready
  95:src/input.c   **** //  Description     : Return TRUE when TRK2 data ready.
  96:src/input.c   **** //  Input           : N/A
  97:src/input.c   **** //  Return          : TRUE;  // trk2 data ready.
  98:src/input.c   **** //  Note            : N/A
  99:src/input.c   **** //  Globals Changed : N/A
 100:src/input.c   **** //*****************************************************************************
 101:src/input.c   **** static BOOLEAN Trk2Ready(void)
 102:src/input.c   **** {
 103:src/input.c   ****   return ((INPUT.s_trk2buf.b_len != 0) && (INPUT.s_trk2buf.b_len != 0xFF));
 104:src/input.c   **** }
 105:src/input.c   **** //*****************************************************************************
 106:src/input.c   **** //  Function        : FindSeperator
 107:src/input.c   **** //  Description     : Find card data seperator & return its position.
 108:src/input.c   **** //  Input           : aBuf;             // Buffer pointer
 109:src/input.c   **** //                    aIdx;             // start position.
 110:src/input.c   **** //  Return          : seperator's pos.
 111:src/input.c   **** //                    0xFF;    // not found
 112:src/input.c   **** //  Note            : N/A
 113:src/input.c   **** //  Globals Changed : N/A
 114:src/input.c   **** //*****************************************************************************
 115:src/input.c   **** static BYTE FindSeperator(BYTE *aBuf, BYTE aIdx)
 116:src/input.c   **** {
 117:src/input.c   ****   BYTE val;
 118:src/input.c   ****   BYTE i;
 119:src/input.c   **** 
 120:src/input.c   ****   for (i = 0; i != 22 + 1; i++) {
 121:src/input.c   ****     val = aBuf[i+aIdx];
 122:src/input.c   ****     //  *, ;, =, ^
 123:src/input.c   ****     if ((val == 0x2a) || (val == 0x3b) || (val == 0x3d) || (val == 0x5e))
 124:src/input.c   ****       return i;
 125:src/input.c   ****   }
 126:src/input.c   ****   return 0xff;
 127:src/input.c   **** }
 128:src/input.c   **** //*****************************************************************************
 129:src/input.c   **** //  Function        : CardServiceCode
 130:src/input.c   **** //  Description     : Return TRACK-2 SERVICE CODE.
 131:src/input.c   **** //  Input           : N/A
 132:src/input.c   **** //  Return          : TRUE/FALSE
 133:src/input.c   **** //  Note            : Track 1 & 2 must be checked before calling this func
 134:src/input.c   **** //                  : n/a
 135:src/input.c   **** //  Globals Changed : N/A;
 136:src/input.c   **** //*****************************************************************************
 137:src/input.c   **** static BYTE CardServiceCode(void)
 138:src/input.c   **** {
 139:src/input.c   ****   BYTE len;
 140:src/input.c   ****   BYTE scode = 0;
 141:src/input.c   **** 
 142:src/input.c   ****   // get service code
 143:src/input.c   ****   if ((INPUT.s_trk2buf.b_len == 0xff) || (INPUT.s_trk2buf.b_len == 0)) {
 144:src/input.c   ****     // track 2 missing, get it from track 1
 145:src/input.c   ****     len = (BYTE) fndb(INPUT.s_trk1buf.sb_content, (BYTE)SEPARATOR_5E, 22);
 146:src/input.c   ****     if (len < 22) {
ARM GAS  C:\Users\AHMED~1.ELE\AppData\Local\Temp\ccLLYyS4.s 			page 4


 147:src/input.c   ****       scode = (BYTE) fndb(&INPUT.s_trk1buf.sb_content[len+1], (BYTE)SEPARATOR_5E, 30);
 148:src/input.c   ****       if (scode < 30)
 149:src/input.c   ****         scode = INPUT.s_trk1buf.sb_content[len+scode+2]; // SERVICE CODE POSITION
 150:src/input.c   ****       else
 151:src/input.c   ****         scode = 0;
 152:src/input.c   ****     }
 153:src/input.c   ****   }
 154:src/input.c   ****   else{
 155:src/input.c   ****     len = (BYTE) fndb(INPUT.s_trk2buf.sb_content, SEPERATOR2, 20);
 156:src/input.c   ****     if (len < 20)
 157:src/input.c   ****       scode = INPUT.s_trk2buf.sb_content[len+5]; // SERVICE CODE POSITION
 158:src/input.c   ****   }
 159:src/input.c   ****   return scode;
 160:src/input.c   **** }
 161:src/input.c   **** //*****************************************************************************
 162:src/input.c   **** //  Function        : ExtractPAN
 163:src/input.c   **** //  Description     : Extract PAN & expiry data from track data.
 164:src/input.c   **** //  Input           : aPAN;     // pointer to 10 bytes BCD PAN
 165:src/input.c   **** //                              // with packed trailing F;
 166:src/input.c   **** //                    aExpDate; // pointer 2 bytes BCD expiry date
 167:src/input.c   **** //  Return          : PAN len;
 168:src/input.c   **** //  Note            : N/A
 169:src/input.c   **** //  Globals Changed : N/A
 170:src/input.c   **** //*****************************************************************************
 171:src/input.c   **** static DWORD ExtractPAN(BYTE *aPAN, BYTE *aExpDate)
 172:src/input.c   **** {
 173:src/input.c   ****   DWORD idx;
 174:src/input.c   ****   DWORD len;
 175:src/input.c   ****   BYTE tmp[20];
 176:src/input.c   **** 
 177:src/input.c   ****   if (INPUT.s_trk2buf.b_len==0) {
 178:src/input.c   ****     for (idx=0;idx < INPUT.s_trk1buf.b_len; idx++) {
 179:src/input.c   ****       if (INPUT.s_trk1buf.sb_content[idx] == 'B')
 180:src/input.c   ****         break;
 181:src/input.c   ****     }
 182:src/input.c   **** 
 183:src/input.c   ****     idx++; // start of card #
 184:src/input.c   ****     len = 0;
 185:src/input.c   ****     memset(tmp, 'F', sizeof(tmp));
 186:src/input.c   ****     while (TRUE) {
 187:src/input.c   ****       if ((INPUT.s_trk1buf.sb_content[idx] == 0x2a) || (INPUT.s_trk1buf.sb_content[idx] == 0x3b) ||
 188:src/input.c   ****           (INPUT.s_trk1buf.sb_content[idx] == 0x3d) || (INPUT.s_trk1buf.sb_content[idx] == 0x5e) ||
 189:src/input.c   ****           (idx > 20)
 190:src/input.c   ****          )
 191:src/input.c   ****         break;
 192:src/input.c   ****       else {
 193:src/input.c   ****         if ((INPUT.s_trk1buf.sb_content[idx] >= '0') && (INPUT.s_trk1buf.sb_content[idx] <= '9'))
 194:src/input.c   ****           tmp[len++] = INPUT.s_trk1buf.sb_content[idx];
 195:src/input.c   ****       }
 196:src/input.c   ****       idx++;
 197:src/input.c   ****       if (idx >= INPUT.s_trk1buf.b_len)  // !2006-02-17
 198:src/input.c   ****         break;
 199:src/input.c   ****     }
 200:src/input.c   ****     compress(aPAN, tmp, (len+1)/2);
 201:src/input.c   ****     idx++;
 202:src/input.c   ****     for ( ;idx < 76; idx++) {
 203:src/input.c   ****       if (INPUT.s_trk1buf.sb_content[idx] == 0x5e)
ARM GAS  C:\Users\AHMED~1.ELE\AppData\Local\Temp\ccLLYyS4.s 			page 5


 204:src/input.c   ****         break;
 205:src/input.c   ****     }
 206:src/input.c   ****     compress(aExpDate, &INPUT.s_trk1buf.sb_content[idx+1], 2);
 207:src/input.c   ****   }
 208:src/input.c   ****   else {
 209:src/input.c   ****     len = fndb(INPUT.s_trk2buf.sb_content, SEPERATOR2, INPUT.s_trk2buf.b_len);
 210:src/input.c   ****     if (len <= 19) {
 211:src/input.c   ****       INPUT.s_trk2buf.sb_content[len] = 0x3f; /* cater for odd len */
 212:src/input.c   ****       memset(aPAN, 0xFF, 10);
 213:src/input.c   ****       compress(aPAN, INPUT.s_trk2buf.sb_content, (BYTE)((len+1)/2));
 214:src/input.c   ****       INPUT.s_trk2buf.sb_content[len] = SEPERATOR2; /* cater for odd len */
 215:src/input.c   ****       compress(aExpDate, &INPUT.s_trk2buf.sb_content[1+len], 2);
 216:src/input.c   ****     }
 217:src/input.c   ****     else
 218:src/input.c   ****       len = 0;
 219:src/input.c   ****   }
 220:src/input.c   ****   return (len);
 221:src/input.c   **** }
 222:src/input.c   **** /******************************************************************************
 223:src/input.c   ****  *  Function        : CheckCurrency
 224:src/input.c   ****  *  Description     : Check currency selected with acquirer table
 225:src/input.c   ****  *  Input           : type: 0 - input.currency
 226:src/input.c   ****  *                          1 - tx_data.currency
 227:src/input.c   ****  *                    stop: TRUE  - show msg & stop if error
 228:src/input.c   ****  *                          FALSE - not stop even on error
 229:src/input.c   ****  *  Return          : TRUE;   // confirmed
 230:src/input.c   ****  *                    FALSE;  // failed
 231:src/input.c   ****  *  Note            : //15-10-15 JC ++
 232:src/input.c   ****  *  Globals Changed : N/A
 233:src/input.c   ****  ******************************************************************************
 234:src/input.c   ****  */
 235:src/input.c   **** BOOLEAN CheckCurrency(BYTE type, BOOLEAN stop) 
 236:src/input.c   **** {
 237:src/input.c   ****   if (INPUT.currency == 0xFF)
 238:src/input.c   ****     return TRUE;
 239:src/input.c   ****   
 240:src/input.c   ****   if (type == 0) {
 241:src/input.c   ****     if (!memcmp(STIS_ACQ_TBL(0).sb_program, gCurInfo[INPUT.currency].name, 3))
 242:src/input.c   ****       return TRUE;
 243:src/input.c   ****   }
 244:src/input.c   ****   else if (type == 1) {
 245:src/input.c   ****     if (!memcmp(STIS_ACQ_TBL(0).sb_program, gCurInfo[TX_DATA.currency].name, 3))
 246:src/input.c   ****       return TRUE;
 247:src/input.c   ****   }
 248:src/input.c   ****   
 249:src/input.c   ****   if (stop) {
 250:src/input.c   ****     DispClrBelowMW(MW_LINE3);
 251:src/input.c   ****     Disp2x16Msg(GetConstMsg(EDC_IN_CUR_ERROR), MW_LINE3, MW_BIGFONT);
 252:src/input.c   ****     ErrorDelay();
 253:src/input.c   ****   }
 254:src/input.c   ****   return FALSE;
 255:src/input.c   **** }
 256:src/input.c   **** 
 257:src/input.c   **** 
 258:src/input.c   **** //*****************************************************************************
 259:src/input.c   **** //  Function        : InCardTable
 260:src/input.c   **** //  Description     : Check card exist in table.
ARM GAS  C:\Users\AHMED~1.ELE\AppData\Local\Temp\ccLLYyS4.s 			page 6


 261:src/input.c   **** //  Input           : N/A
 262:src/input.c   **** //  Return          : TRUE/FALSE;
 263:src/input.c   **** //  Note            : N/A
 264:src/input.c   **** //  Globals Changed : N/A
 265:src/input.c   **** //*****************************************************************************
 266:src/input.c   **** BOOLEAN InCardTable(void)
 267:src/input.c   **** {
 268:src/input.c   ****   BYTE card_idx, issuer_idx, acq_idx;
 269:src/input.c   ****   BYTE pan_len, pan[21];
 270:src/input.c   ****   WORD max_card   = APM_GetCardCount();
 271:src/input.c   ****   WORD max_issuer = APM_GetIssuerCount();
 272:src/input.c   ****   WORD max_acq    = APM_GetAcqCount();
 273:src/input.c   **** 
 274:src/input.c   **** 
 275:src/input.c   ****   split(&pan[1], INPUT.sb_pan, 10);
 276:src/input.c   ****   pan[0] = (BYTE) fndb(&pan[1], 'F', 19);
 277:src/input.c   **** 
 278:src/input.c   ****   for (card_idx = 0; card_idx < max_card; card_idx++) {
 279:src/input.c   ****     if (!APM_GetCardTbl(card_idx, &STIS_CARD_TBL(0)))
 280:src/input.c   ****       continue;
 281:src/input.c   ****     pan_len = (BYTE)bcd2bin(STIS_CARD_TBL(0).b_pan_len);
 282:src/input.c   ****     if ((memcmp(INPUT.sb_pan, STIS_CARD_TBL(0).sb_pan_range_low, 5) >= 0)  &&
 283:src/input.c   ****         (memcmp(INPUT.sb_pan, STIS_CARD_TBL(0).sb_pan_range_high, 5) <= 0) &&
 284:src/input.c   ****         ((pan[0] == pan_len) || (pan_len == 0))) {
 285:src/input.c   ****       // locate issuer
 286:src/input.c   ****       for (issuer_idx = 0; issuer_idx < max_issuer; issuer_idx++) {
 287:src/input.c   ****         if (!APM_GetIssuer(issuer_idx, &STIS_ISS_TBL(0)))
 288:src/input.c   ****           continue;
 289:src/input.c   ****         if (STIS_ISS_TBL(0).b_id == STIS_CARD_TBL(0).b_issuer_id)
 290:src/input.c   ****           break;
 291:src/input.c   ****       }
 292:src/input.c   ****       if (issuer_idx == max_issuer)
 293:src/input.c   ****         continue;
 294:src/input.c   ****       // locate acquirer
 295:src/input.c   ****       for (acq_idx = 0; acq_idx < max_acq; acq_idx++) {
 296:src/input.c   ****         if (!APM_GetAcqTbl(acq_idx, &STIS_ACQ_TBL(0)))
 297:src/input.c   ****           continue;
 298:src/input.c   ****         if (STIS_ACQ_TBL(0).b_status == NOT_LOADED)
 299:src/input.c   ****           continue;
 300:src/input.c   ****         if (!CorrectHost(GetHostType(0)))
 301:src/input.c   ****           continue;
 302:src/input.c   ****      //   if (STIS_ACQ_TBL(0).b_id == STIS_CARD_TBL(0).b_acquirer_id){
 303:src/input.c   ****      //     if (CheckCurrency(0, FALSE))   //15-10-15 JC ++
 304:src/input.c   ****      //       goto VALID_PAN2;
 305:src/input.c   ****     //    }
 306:src/input.c   **** 	  if (STIS_ACQ_TBL(0).b_id == STIS_CARD_TBL(0).b_acquirer_id)
 307:src/input.c   **** 
 308:src/input.c   **** 
 309:src/input.c   **** 
 310:src/input.c   ****           break;
 311:src/input.c   ****       }
 312:src/input.c   ****     //  if (card_idx < max_card)   // search next card table //13-07-11 JC ++
 313:src/input.c   ****     //    continue;
 314:src/input.c   **** 	
 315:src/input.c   **** 	  if (acq_idx == max_acq)
 316:src/input.c   ****         continue;
 317:src/input.c   ****       
ARM GAS  C:\Users\AHMED~1.ELE\AppData\Local\Temp\ccLLYyS4.s 			page 7


 318:src/input.c   ****       //if (acq_idx == max_acq)
 319:src/input.c   ****       //  continue;
 320:src/input.c   ****      // goto INVALID_PAN;
 321:src/input.c   ****         
 322:src/input.c   **** //VALID_PAN2:
 323:src/input.c   ****       // found
 324:src/input.c   ****       INPUT.w_host_idx   = acq_idx;
 325:src/input.c   ****       INPUT.w_issuer_idx = issuer_idx;
 326:src/input.c   ****       return TRUE;
 327:src/input.c   ****     }
 328:src/input.c   ****   }
 329:src/input.c   **** //INVALID_PAN:
 330:src/input.c   ****   DispErrorMsg(GetConstMsg(EDC_RSP_UNSUPPORT_CARD));
 331:src/input.c   ****   RSP_DATA.w_rspcode = 'U'*256+'C';
 332:src/input.c   ****   return FALSE;
 333:src/input.c   **** }
 334:src/input.c   **** //*****************************************************************************
 335:src/input.c   **** //  Function        : ValidCard
 336:src/input.c   **** //  Description     : Check card format.
 337:src/input.c   **** //  Input           : N/A
 338:src/input.c   **** //  Return          : TRUE/FALSE;
 339:src/input.c   **** //  Note            : N/A
 340:src/input.c   **** //  Globals Changed : N/A
 341:src/input.c   **** //*****************************************************************************
 342:src/input.c   **** BOOLEAN ValidCard(void)
 343:src/input.c   **** {
 344:src/input.c   ****   BYTE idx, tlen;
 345:src/input.c   ****   BYTE disp_pan[21];
 346:src/input.c   **** 
 347:src/input.c   ****   memset(INPUT.sb_holder_name, ' ', sizeof(INPUT.sb_holder_name));
 348:src/input.c   **** 
 349:src/input.c   ****   if (INPUT.b_entry_mode == MANUAL || INPUT.b_entry_mode == ICC) {
 350:src/input.c   ****     if (!InCardTable())
 351:src/input.c   ****       return FALSE;
 352:src/input.c   ****     if (CheckPAN()) {
 353:src/input.c   ****       split(&disp_pan[1], INPUT.sb_pan, 10);
 354:src/input.c   ****       disp_pan[0] = (BYTE)fndb(&disp_pan[1], 'F', 19);
 355:src/input.c   ****       if (!chk_digit_ok(&disp_pan[1], disp_pan[0])) {
 356:src/input.c   ****         DispErrorMsg(GetConstMsg(EDC_IN_CHK_DIGIT_ERROR));
 357:src/input.c   ****         return FALSE;
 358:src/input.c   ****       }
 359:src/input.c   ****     }
 360:src/input.c   ****     if ((INPUT.b_entry_mode == ICC)&&EMVProcDisable()) {
 361:src/input.c   ****       DispErrorMsg(GetConstMsg(EDC_IN_SWIPE_CARD));
 362:src/input.c   ****       return FALSE;
 363:src/input.c   ****     }
 364:src/input.c   ****     if (INPUT.b_entry_mode == ICC) {
 365:src/input.c   ****       if (!ValidEMVData()) {
 366:src/input.c   ****         DispErrorMsg(GetConstMsg(EDC_RSP_READ_ERROR));
 367:src/input.c   ****         return FALSE;
 368:src/input.c   ****       }
 369:src/input.c   ****     }
 370:src/input.c   ****     return TRUE;
 371:src/input.c   ****   }
 372:src/input.c   **** 
 373:src/input.c   ****   if (!Trk2Ready() && !Trk1Ready()) {
 374:src/input.c   ****     DispErrorMsg(GetConstMsg(EDC_RSP_READ_ERROR));
ARM GAS  C:\Users\AHMED~1.ELE\AppData\Local\Temp\ccLLYyS4.s 			page 8


 375:src/input.c   ****     return FALSE;
 376:src/input.c   ****   }
 377:src/input.c   ****   if (!Trk2Ready())
 378:src/input.c   ****     INPUT.s_trk2buf.b_len = 0;
 379:src/input.c   ****   if (!Trk1Ready())
 380:src/input.c   ****     INPUT.s_trk1buf.b_len = 0;
 381:src/input.c   **** 
 382:src/input.c   ****   memset(INPUT.sb_pan, 0xFF, 10);
 383:src/input.c   ****   disp_pan[0] = (BYTE) ExtractPAN(INPUT.sb_pan, INPUT.sb_exp_date);
 384:src/input.c   ****   
 385:src/input.c   ****   
 386:src/input.c   **** if (!Expire_diff())
 387:src/input.c   ****     return FALSE;
 388:src/input.c   **** 
 389:src/input.c   **** 
 390:src/input.c   ****   if (!InCardTable())
 391:src/input.c   ****     return FALSE;
 392:src/input.c   **** 
 393:src/input.c   **** 
 394:src/input.c   ****   if ((INPUT.b_entry_mode!=ICC)&&(INPUT.b_entry_mode!=FALLBACK)&&!EMVProcDisable()) {
 395:src/input.c   ****     idx = CardServiceCode();
 396:src/input.c   ****     if (idx == 0) {   // err chk: should be ASCII data
 397:src/input.c   ****       DispErrorMsg(GetConstMsg(EDC_RSP_INVALID_CARD));
 398:src/input.c   ****       return FALSE;
 399:src/input.c   ****     }
 400:src/input.c   ****     if ((idx == '2') || (idx == '6')) {
 401:src/input.c   ****       if (INPUT.b_entry_mode != FALLBACK) {
 402:src/input.c   ****         DispErrorMsg(GetConstMsg(EDC_IN_USE_ICC));
 403:src/input.c   ****         return FALSE; // EMV SMC
 404:src/input.c   ****       }
 405:src/input.c   ****     } else
 406:src/input.c   ****       INPUT.b_entry_mode = SWIPE;
 407:src/input.c   ****   }
 408:src/input.c   ****   if (CheckPAN()) {
 409:src/input.c   ****     split(&disp_pan[1], INPUT.sb_pan, 10);
 410:src/input.c   ****     if (!chk_digit_ok(&disp_pan[1], disp_pan[0])) {
 411:src/input.c   ****       DispErrorMsg(GetConstMsg(EDC_IN_CHK_DIGIT_ERROR));
 412:src/input.c   ****       return FALSE;
 413:src/input.c   ****     }
 414:src/input.c   ****   }
 415:src/input.c   ****   if ((INPUT.s_trk1buf.b_len != 0) && (INPUT.s_trk1buf.b_len != 0xFF)) {
 416:src/input.c   ****     idx = FindSeperator(INPUT.s_trk1buf.sb_content, 0) + 1;
 417:src/input.c   ****     if (idx) {
 418:src/input.c   ****       tlen = FindSeperator(INPUT.s_trk1buf.sb_content, idx);
 419:src/input.c   ****       if ((tlen == 0xFF) || (tlen > sizeof(INPUT.sb_holder_name)))
 420:src/input.c   ****         tlen = sizeof(INPUT.sb_holder_name);
 421:src/input.c   ****       //FormatHolderName(INPUT.sb_holder_name, &INPUT.s_trk1buf.sb_content[idx], (BYTE)tlen);
 422:src/input.c   ****       memcpy(INPUT.sb_holder_name, &INPUT.s_trk1buf.sb_content[idx], (BYTE)tlen);
 423:src/input.c   ****     }
 424:src/input.c   ****   }
 425:src/input.c   ****   if (INPUT.s_trk2buf.b_len == 0)
 426:src/input.c   ****     return TRUE;
 427:src/input.c   ****   else if (isbdigit(&INPUT.s_trk2buf.sb_content[1+disp_pan[0]], 4))
 428:src/input.c   ****     return TRUE;
 429:src/input.c   **** 
 430:src/input.c   ****   DispErrorMsg(GetConstMsg(EDC_IN_INVALID_CARD));
 431:src/input.c   ****   return FALSE;
ARM GAS  C:\Users\AHMED~1.ELE\AppData\Local\Temp\ccLLYyS4.s 			page 9


 432:src/input.c   **** }
 433:src/input.c   **** //*****************************************************************************
 434:src/input.c   **** //  Function        : PromptYesNo
 435:src/input.c   **** //  Description     : Prompt user to Confirm.
 436:src/input.c   **** //  Input           : N/A
 437:src/input.c   **** //  Return          : 0 - Cancel key pressed,
 438:src/input.c   **** //                    1 - Clear key pressed(NO)
 439:src/input.c   **** //                    2 - Enter key pressed(YES)
 440:src/input.c   **** //  Note            : N/A
 441:src/input.c   **** //  Globals Changed : N/A
 442:src/input.c   **** //*****************************************************************************
 443:src/input.c   **** DWORD PromptYesNo(void)
 444:src/input.c   **** {
 445:src/input.c   ****   Disp2x16Msg(GetConstMsg(EDC_IN_CORRECT), MW_LINE5, MW_BIGFONT);
 446:src/input.c   ****   return APM_SelYesNo();
 447:src/input.c   **** }
 448:src/input.c   **** //*****************************************************************************
 449:src/input.c   **** //  Function        : GetAuthCode
 450:src/input.c   **** //  Description     : Prompt user to entry authorization code.
 451:src/input.c   **** //  Input           : N/A
 452:src/input.c   **** //  Return          : TRUE;  // valid Input.
 453:src/input.c   **** //                    FALSE; // user cancel
 454:src/input.c   **** //  Note            : N/A
 455:src/input.c   **** //  Globals Changed : RSP_DATA.w_rspcode;
 456:src/input.c   **** //*****************************************************************************
 457:src/input.c   **** BOOLEAN GetAuthCode(void)
 458:src/input.c   **** {
 459:src/input.c   ****   BYTE kbdbuf[32];
 460:src/input.c   ****   BYTE *pbTlv;
 461:src/input.c   ****   DWORD ecrdata_len;
 462:src/input.c   **** 
 463:src/input.c   ****   // ECR data ready
 464:src/input.c   ****   if (gGDS->i_ecr_len >= 2) {
 465:src/input.c   ****     ecrdata_len = gGDS->i_ecr_len - 2;
 466:src/input.c   ****     if (ecrdata_len) {
 467:src/input.c   ****       pbTlv = TlvSeek(gGDS->s_ecr_data.sb_content, ecrdata_len, ECRTAG_AUTH_RESP);
 468:src/input.c   ****       if (pbTlv != NULL) {
 469:src/input.c   ****         TlvVPtr(pbTlv);
 470:src/input.c   ****         kbdbuf[0] = TlvLen(pbTlv);
 471:src/input.c   ****         if (kbdbuf[0] > 6)
 472:src/input.c   ****           kbdbuf[0] = 6;
 473:src/input.c   ****         memset(RSP_DATA.sb_auth_code, ' ',6);
 474:src/input.c   ****         memcpy(RSP_DATA.sb_auth_code, TlvVPtr(pbTlv), kbdbuf[0]);
 475:src/input.c   ****         return TRUE;
 476:src/input.c   ****       }
 477:src/input.c   ****     }
 478:src/input.c   ****   }
 479:src/input.c   ****   while (1) {
 480:src/input.c   ****     kbdbuf[0] = 0;
 481:src/input.c   ****     Disp2x16Msg(GetConstMsg(EDC_IN_APP_CODE), MW_LINE3, MW_BIGFONT);
 482:src/input.c   ****     if (!APM_GetKbd(ALPHA_INPUT+ECHO+MW_BIGFONT+MW_LINE7+RIGHT_JUST, IMIN(2)+IMAX(6), kbdbuf))
 483:src/input.c   ****       return 0;
 484:src/input.c   ****     if (kbdbuf[0] >= 2) {
 485:src/input.c   ****       memset(RSP_DATA.sb_auth_code, ' ',6);
 486:src/input.c   ****       memcpy(RSP_DATA.sb_auth_code, &kbdbuf[1], kbdbuf[0]);
 487:src/input.c   ****       return 1;
 488:src/input.c   ****     }
ARM GAS  C:\Users\AHMED~1.ELE\AppData\Local\Temp\ccLLYyS4.s 			page 10


 489:src/input.c   ****   }
 490:src/input.c   **** }
 491:src/input.c   **** //*****************************************************************************
 492:src/input.c   **** //  Function        : GetAmount
 493:src/input.c   **** //  Description     : Prompt user to input amount.
 494:src/input.c   **** //  Input           : aTipsNeeded;   // TRUE => also prompt tips.
 495:src/input.c   **** //                    aFirstKey;     // first key pressed
 496:src/input.c   **** //  Return          : TRUE;  // valid input.
 497:src/input.c   **** //                    FALSE; // user cancel
 498:src/input.c   **** //  Note            : N/A
 499:src/input.c   **** //  Globals Changed : N/A
 500:src/input.c   **** //*****************************************************************************
 501:src/input.c   **** BOOLEAN GetAmount(BOOLEAN aTipsNeeded, DWORD aFirstKey)
 502:src/input.c   **** {
 503:src/input.c   ****   BYTE kbdbuf[32];
 504:src/input.c   ****   DWORD ecrdata_len;
 505:src/input.c   **** 
 506:src/input.c   ****   INPUT.dd_tip=0;
 507:src/input.c   **** 
 508:src/input.c   ****   // ECR data ready
 509:src/input.c   ****   if (gGDS->i_ecr_len >= 2) {
 510:src/input.c   ****     ecrdata_len = gGDS->i_ecr_len - 2;
 511:src/input.c   ****     if (ecrdata_len) {
 512:src/input.c   ****       INPUT.dd_amount = EcrGetAmount();
 513:src/input.c   ****       if (INPUT.dd_amount != 0)
 514:src/input.c   ****         return TRUE;
 515:src/input.c   ****     }
 516:src/input.c   ****   }
 517:src/input.c   ****   if (STIS_TERM_DATA.dd_default_amount!=0) {
 518:src/input.c   ****     INPUT.dd_amount = STIS_TERM_DATA.dd_default_amount;
 519:src/input.c   ****     return TRUE;
 520:src/input.c   ****   }
 521:src/input.c   **** 
 522:src/input.c   ****   DispClrBelowMW(MW_LINE3);
 523:src/input.c   ****   while (1) {
 524:src/input.c   ****     if (aTipsNeeded)
 525:src/input.c   ****       Disp2x16Msg(GetConstMsg(EDC_IN_BASE_AMT), MW_LINE3, MW_BIGFONT);
 526:src/input.c   ****     else
 527:src/input.c   ****       Disp2x16Msg(GetConstMsg(EDC_IN_ENTER_AMOUNT), MW_LINE3, MW_BIGFONT);
 528:src/input.c   **** 
 529:src/input.c   ****      kbdbuf[0] = aFirstKey? 5: 4;
 530:src/input.c   ****   //  memcpy(&kbdbuf[1], STIS_TERM_CFG.sb_currency_name, 3);
 531:src/input.c   ****     memcpy(&kbdbuf[1],gCurInfo[INPUT.currency].name, 3);                               //15-10-15 J
 532:src/input.c   ****     kbdbuf[4] = ' ';//STIS_TERM_CFG.b_currency;
 533:src/input.c   ****     kbdbuf[5] = (BYTE)aFirstKey;
 534:src/input.c   ****     if (!APM_GetKbd(PREFIX_ENB+ECHO+AMOUNT_INPUT+MW_BIGFONT+MW_LINE7+KDecimalPos[STIS_TERM_CFG.b_de
 535:src/input.c   ****                     IMIN(1)+IMAX(STIS_TERM_CFG.b_trans_amount_len),  kbdbuf))
 536:src/input.c   ****       return 0;
 537:src/input.c   **** 
 538:src/input.c   ****     if (STIS_TERM_CFG.b_decimal_pos < 2) {  // 8583 expect 2 decimal pos.
 539:src/input.c   ****       memset(&kbdbuf[kbdbuf[0]+1], '0', 2);
 540:src/input.c   ****       kbdbuf[0] += (2-STIS_TERM_CFG.b_decimal_pos);
 541:src/input.c   ****     }
 542:src/input.c   ****     INPUT.dd_amount = decbin8b(&kbdbuf[1], kbdbuf[0]);
 543:src/input.c   **** 
 544:src/input.c   ****     if (!aTipsNeeded || !PromptTips())
 545:src/input.c   ****       return 1;
ARM GAS  C:\Users\AHMED~1.ELE\AppData\Local\Temp\ccLLYyS4.s 			page 11


 546:src/input.c   **** 
 547:src/input.c   ****     Disp2x16Msg(GetConstMsg(EDC_IN_ENTER_TIPS), MW_LINE3, MW_BIGFONT);
 548:src/input.c   ****     if (!APM_GetKbd(AMOUNT_INPUT+MW_BIGFONT+MW_LINE7+KDecimalPos[STIS_TERM_CFG.b_decimal_pos], 
 549:src/input.c   ****                     IMIN(1)+IMAX(STIS_TERM_CFG.b_trans_amount_len),  kbdbuf))
 550:src/input.c   ****       return 0;
 551:src/input.c   ****     if (kbdbuf[0] == 0)
 552:src/input.c   ****       INPUT.dd_tip = 0;
 553:src/input.c   ****     else {
 554:src/input.c   ****       if (STIS_TERM_CFG.b_decimal_pos < 2) {  // 8583 expect 2 decimal pos.
 555:src/input.c   ****         memset(&kbdbuf[kbdbuf[0]+1], '0', 2);
 556:src/input.c   ****         kbdbuf[0] += (2-STIS_TERM_CFG.b_decimal_pos);
 557:src/input.c   ****       }
 558:src/input.c   ****       INPUT.dd_tip = decbin8b(&kbdbuf[1], kbdbuf[0]);
 559:src/input.c   ****     }
 560:src/input.c   **** 
 561:src/input.c   ****     if (OverMargin()) {
 562:src/input.c   ****       DispErrorMsg(GetConstMsg(EDC_IN_INV_TIPS));
 563:src/input.c   ****       return(FALSE);
 564:src/input.c   ****     }
 565:src/input.c   **** 
 566:src/input.c   ****     INPUT.dd_amount+=INPUT.dd_tip;
 567:src/input.c   ****     DispLineMW(GetConstMsg(EDC_IN_TOTAL_PROMPT), MW_LINE1, MW_CLRDISP|MW_BIGFONT);
 568:src/input.c   ****     DispAmount(INPUT.dd_amount, MW_LINE3, MW_BIGFONT);
 569:src/input.c   ****     switch (PromptYesNo()) {
 570:src/input.c   ****       case 0: /* cancel key */
 571:src/input.c   ****         return FALSE;
 572:src/input.c   ****       case 2:
 573:src/input.c   ****         return TRUE;
 574:src/input.c   ****     }
 575:src/input.c   ****   }
 576:src/input.c   **** }
 577:src/input.c   **** 
 578:src/input.c   **** //*****************************************************************************
 579:src/input.c   **** //  Function        : Expire_diff
 580:src/input.c   **** //  Description     : return true id allow expire date
 581:src/input.c   **** //  Input           : N/A
 582:src/input.c   **** //  Return          : TRUE;  // valid input
 583:src/input.c   **** //                    FALSE; // user cancel
 584:src/input.c   **** //  Note            : N/A
 585:src/input.c   **** //  Globals Changed : N/A
 586:src/input.c   **** //*****************************************************************************
 587:src/input.c   **** BOOLEAN Expire_diff(void)
 588:src/input.c   **** {
 589:src/input.c   **** struct DATETIME dtg;
 590:src/input.c   **** DWORD var_i, var_j;
 591:src/input.c   ****  ReadRTC(&dtg);
 592:src/input.c   ****       var_i = (BYTE)bcd2bin(dtg.b_year);
 593:src/input.c   ****       var_j = (BYTE)bcd2bin(INPUT.sb_exp_date[0]);
 594:src/input.c   ****       if (var_i == var_j) {
 595:src/input.c   ****         if (INPUT.sb_exp_date[1] >= dtg.b_month)
 596:src/input.c   ****           return TRUE;
 597:src/input.c   **** 	  }else if(var_i > var_j){
 598:src/input.c   **** 	   return TRUE;
 599:src/input.c   **** 	  }
 600:src/input.c   ****   DispErrorMsg(GetConstMsg(EDC_IN_CARD_EXPIRED));
 601:src/input.c   ****    if (APM_WaitKey(KBD_TIMEOUT, 300) == MWKEY_ENTER) {  
 602:src/input.c   ****    }
ARM GAS  C:\Users\AHMED~1.ELE\AppData\Local\Temp\ccLLYyS4.s 			page 12


 603:src/input.c   **** 	//  return FALSE;
 604:src/input.c   ****    return TRUE;
 605:src/input.c   **** 
 606:src/input.c   **** }
 607:src/input.c   **** 
 608:src/input.c   **** //*****************************************************************************
 609:src/input.c   **** //  Function        : GetExpDate
 610:src/input.c   **** //  Description     : Prompt user to input card expire date.
 611:src/input.c   **** //  Input           : N/A
 612:src/input.c   **** //  Return          : TRUE;  // valid input
 613:src/input.c   **** //                    FALSE; // user cancel
 614:src/input.c   **** //  Note            : N/A
 615:src/input.c   **** //  Globals Changed : N/A
 616:src/input.c   **** //*****************************************************************************
 617:src/input.c   **** BOOLEAN GetExpDate(void)
 618:src/input.c   **** {
 619:src/input.c   ****   struct DATETIME dtg;
 620:src/input.c   ****   DWORD var_i, var_j;
 621:src/input.c   ****   BYTE kbdbuf[31];
 622:src/input.c   **** 
 623:src/input.c   ****   INPUT.b_card_expired = FALSE;
 624:src/input.c   ****   if (!ExpDateReqd()) {
 625:src/input.c   ****    // memset(INPUT.sb_exp_date, 0, sizeof(INPUT.sb_exp_date));
 626:src/input.c   ****     return TRUE;
 627:src/input.c   ****   }
 628:src/input.c   ****   while (1) {
 629:src/input.c   ****     if (INPUT.b_entry_mode == MANUAL) {
 630:src/input.c   ****       kbdbuf[0] = 0;
 631:src/input.c   ****       Disp2x16Msg(GetConstMsg(EDC_IN_EXPIRY_DATE), MW_LINE3, MW_BIGFONT);
 632:src/input.c   ****       if (!APM_GetKbd(NUMERIC_INPUT+ECHO+MW_BIGFONT+MW_LINE7+RIGHT_JUST,IMIN(4)+IMAX(4), kbdbuf))
 633:src/input.c   ****         return FALSE;
 634:src/input.c   ****       compress(&kbdbuf[5],&kbdbuf[1], 2);
 635:src/input.c   ****       INPUT.sb_exp_date[0] = kbdbuf[6];  // YY
 636:src/input.c   ****       INPUT.sb_exp_date[1] = kbdbuf[5];  // MM
 637:src/input.c   ****       if (((kbdbuf[6] & 0xf) > 9)  || (kbdbuf[6] > 0x99) ||
 638:src/input.c   ****           ((kbdbuf[5] & 0xf) > 9)  || !(kbdbuf[5]) || (kbdbuf[5] > 0x12) ) {
 639:src/input.c   ****         DispErrorMsg(GetConstMsg(EDC_IN_INV_EXPIRE));
 640:src/input.c   ****         continue;
 641:src/input.c   ****       }
 642:src/input.c   ****     }
 643:src/input.c   **** 
 644:src/input.c   ****     if ((var_i= (BYTE)(INPUT.sb_exp_date[1])) &&
 645:src/input.c   ****         (var_i < 0x13) && ((var_i & 0xf) < 0xa)) {
 646:src/input.c   ****       if (!CheckExpDate())
 647:src/input.c   ****         return TRUE;
 648:src/input.c   **** 
 649:src/input.c   ****       ReadRTC(&dtg);
 650:src/input.c   ****       var_i = (BYTE)bcd2bin(dtg.b_year);
 651:src/input.c   ****       var_j = (BYTE)bcd2bin(INPUT.sb_exp_date[0]);
 652:src/input.c   ****       if (var_i == var_j) {
 653:src/input.c   ****         if (INPUT.sb_exp_date[1] >= dtg.b_month)
 654:src/input.c   ****           return TRUE;
 655:src/input.c   ****       } else if (var_i > 49) {  // 1950-1999
 656:src/input.c   ****         if ((var_j < 50 ) || (var_j > var_i))
 657:src/input.c   ****           return TRUE;
 658:src/input.c   ****       } else { // 2000-2049
 659:src/input.c   ****         if ((var_j > var_i) && (var_j < 50))
ARM GAS  C:\Users\AHMED~1.ELE\AppData\Local\Temp\ccLLYyS4.s 			page 13


 660:src/input.c   ****           return TRUE;
 661:src/input.c   ****       }
 662:src/input.c   ****     }
 663:src/input.c   **** 
 664:src/input.c   ****     DispErrorMsg(GetConstMsg(EDC_IN_CARD_EXPIRED));
 665:src/input.c   ****     if (!ExpiryReject()) {
 666:src/input.c   ****       INPUT.b_card_expired = TRUE;
 667:src/input.c   ****       return TRUE;
 668:src/input.c   ****     }
 669:src/input.c   **** 
 670:src/input.c   ****     if (INPUT.b_entry_mode != MANUAL)
 671:src/input.c   ****       return FALSE;
 672:src/input.c   ****   }
 673:src/input.c   **** }
 674:src/input.c   **** //*****************************************************************************
 675:src/input.c   **** //  Function        : GetProductCode
 676:src/input.c   **** //  Description     : Prompt user to entry product code.
 677:src/input.c   **** //  Input           : N/A
 678:src/input.c   **** //  Return          : TRUE;  // valid INPUT.
 679:src/input.c   **** //                    FALSE; // user cancel
 680:src/input.c   **** //  Note            : N/A
 681:src/input.c   **** //  Globals Changed : N/A
 682:src/input.c   **** //*****************************************************************************
 683:src/input.c   **** BOOLEAN GetProductCode(void)
 684:src/input.c   **** {
 685:src/input.c   ****   DWORD keyin, max_select, line_no;
 686:src/input.c   ****   BYTE  i, offset, start_offset, select_cnt;
 687:src/input.c   ****   BYTE  tmp[MW_MAX_LINESIZE+1];
 688:src/input.c   ****   struct PRODUCT *product_select;
 689:src/input.c   **** 
 690:src/input.c   ****   memset(INPUT.sb_product, 0xFF, sizeof(INPUT.sb_product));
 691:src/input.c   ****   if (!DescriptorReqd())
 692:src/input.c   ****     return TRUE;
 693:src/input.c   **** 
 694:src/input.c   ****   max_select = APM_GetDescCount();
 695:src/input.c   ****   if (max_select == 0)
 696:src/input.c   ****     return TRUE;
 697:src/input.c   **** 
 698:src/input.c   ****   if (max_select == 1) {
 699:src/input.c   ****     INPUT.sb_product[0]=0;
 700:src/input.c   ****     return TRUE;
 701:src/input.c   ****   }
 702:src/input.c   **** 
 703:src/input.c   ****   product_select = (struct PRODUCT *) MallocMW(sizeof(struct PRODUCT) * max_select);
 704:src/input.c   ****   memset(product_select, 0, sizeof(struct PRODUCT)*max_select);
 705:src/input.c   **** 
 706:src/input.c   ****   offset = 0;
 707:src/input.c   ****   for (i=0; i<max_select; i++) {
 708:src/input.c   ****     offset = i;
 709:src/input.c   ****     APM_GetDescTbl(i, &product_select[i].s_prod);
 710:src/input.c   ****   }
 711:src/input.c   **** 
 712:src/input.c   ****   DispLineMW(GetConstMsg(EDC_IN_ENTER_DESC), MW_LINE1, MW_CLRDISP|MW_REVERSE|MW_CENTER|MW_BIGFONT);
 713:src/input.c   ****   line_no = MW_LINE3;
 714:src/input.c   ****   start_offset = offset = 0;
 715:src/input.c   ****   select_cnt = 0;
 716:src/input.c   ****   do {
ARM GAS  C:\Users\AHMED~1.ELE\AppData\Local\Temp\ccLLYyS4.s 			page 14


 717:src/input.c   ****     DispClrBelowMW(MW_LINE3);
 718:src/input.c   ****     while ((line_no<MW_MAX_LINE)&&(offset<max_select)) {
 719:src/input.c   ****       memset(tmp, ' ', sizeof(tmp));
 720:src/input.c   ****       tmp[MW_MAX_LINESIZE] = 0;
 721:src/input.c   ****       tmp[0] = product_select[offset].s_prod.b_key;
 722:src/input.c   ****       tmp[1] = ' ';
 723:src/input.c   ****       memcpy(&tmp[2], product_select[offset].s_prod.sb_text, 19);
 724:src/input.c   ****       DispLineMW(tmp, line_no, (product_select[offset].b_selected?MW_REVERSE:0)|MW_SPFONT);
 725:src/input.c   ****       line_no += (MW_LINE3-MW_LINE2);
 726:src/input.c   ****       offset++;
 727:src/input.c   ****     }
 728:src/input.c   ****     if (max_select > 5) {
 729:src/input.c   ****       if (offset < max_select) {
 730:src/input.c   ****         DispLineMW("<CLR>Down<ENT>Confirm", MW_MAX_LINE, MW_REVERSE|MW_SPFONT);
 731:src/input.c   ****       }
 732:src/input.c   ****       else {
 733:src/input.c   ****         DispLineMW("<CLR>Up  <ENT>Confirm", MW_MAX_LINE, MW_REVERSE|MW_SPFONT);
 734:src/input.c   ****       }
 735:src/input.c   ****     }
 736:src/input.c   ****     else
 737:src/input.c   ****       DispLineMW("         <ENT>Confirm", MW_MAX_LINE, MW_REVERSE|MW_SPFONT);
 738:src/input.c   **** 
 739:src/input.c   ****     keyin = APM_WaitKey(KBD_TIMEOUT, 0);
 740:src/input.c   ****     if ((keyin>='0')&&(keyin<='0'+max_select)) {
 741:src/input.c   ****       for (i=0; i < max_select; i++) {
 742:src/input.c   ****         if (product_select[i].s_prod.b_key == keyin) {
 743:src/input.c   ****           if ((!product_select[i].b_selected) && (select_cnt == 4)) {
 744:src/input.c   ****             LongBeep();
 745:src/input.c   ****             break;
 746:src/input.c   ****           }
 747:src/input.c   ****           product_select[i].b_selected = product_select[i].b_selected ? FALSE: TRUE;
 748:src/input.c   ****           select_cnt += product_select[i].b_selected?1:-1;
 749:src/input.c   ****           break;
 750:src/input.c   ****         }
 751:src/input.c   ****       }
 752:src/input.c   ****       if (i == max_select)
 753:src/input.c   ****         LongBeep();
 754:src/input.c   ****     }
 755:src/input.c   ****     if ((keyin == MWKEY_ENTER)&&(select_cnt>0))
 756:src/input.c   ****       break;
 757:src/input.c   ****     if (keyin == MWKEY_CLR)
 758:src/input.c   ****       start_offset=offset = (offset == max_select) ? 0 : offset;
 759:src/input.c   ****     else
 760:src/input.c   ****       offset = start_offset;
 761:src/input.c   ****     line_no = MW_LINE3;
 762:src/input.c   ****   } while (keyin != MWKEY_CANCL);
 763:src/input.c   **** 
 764:src/input.c   ****   if (keyin == MWKEY_CANCL) {
 765:src/input.c   ****     FreeMW(product_select);
 766:src/input.c   ****     return FALSE;
 767:src/input.c   ****   }
 768:src/input.c   **** 
 769:src/input.c   ****   offset=0;
 770:src/input.c   ****   for (i=0; i < max_select; i++) {
 771:src/input.c   ****     if (select_cnt == offset)
 772:src/input.c   ****       break;
 773:src/input.c   ****     if (product_select[i].b_selected) {
ARM GAS  C:\Users\AHMED~1.ELE\AppData\Local\Temp\ccLLYyS4.s 			page 15


 774:src/input.c   ****       INPUT.sb_product[offset]=i;
 775:src/input.c   ****       offset++;
 776:src/input.c   ****     }
 777:src/input.c   ****   }
 778:src/input.c   ****   FreeMW(product_select);
 779:src/input.c   ****   return TRUE;
 780:src/input.c   **** }
 781:src/input.c   **** //*****************************************************************************
 782:src/input.c   **** //  Function        : Get4DBC
 783:src/input.c   **** //  Description     : Prompt user to entry 4DBC number.
 784:src/input.c   **** //  Input           : N/A
 785:src/input.c   **** //  Return          : TRUE/FALSE;  // valid input or cancel
 786:src/input.c   **** //  Note            : N/A
 787:src/input.c   **** //  Globals Changed : INPUT.b_entry_mode;
 788:src/input.c   **** //*****************************************************************************
 789:src/input.c   **** BOOLEAN Get4DBC(void)
 790:src/input.c   **** {
 791:src/input.c   ****   BYTE kbdbuf[32];
 792:src/input.c   **** 
 793:src/input.c   ****   DispHeader(NULL);
 794:src/input.c   ****   Disp2x16Msg(GetConstMsg(EDC_IN_4DBC), MW_LINE3, MW_BIGFONT);
 795:src/input.c   ****   kbdbuf[0] = 0;
 796:src/input.c   ****   memset(INPUT.sb_amex_4DBC, 0x00, sizeof(INPUT.sb_amex_4DBC));
 797:src/input.c   ****   if (!APM_GetKbd(NUMERIC_INPUT+MW_BIGFONT+MW_LINE7+RIGHT_JUST, IMIN(4)+IMAX(4), kbdbuf))
 798:src/input.c   ****     return FALSE;
 799:src/input.c   **** 
 800:src/input.c   ****   memcpy(INPUT.sb_amex_4DBC, &kbdbuf[1], kbdbuf[0]);
 801:src/input.c   ****   switch (INPUT.b_entry_mode) {
 802:src/input.c   ****     case MANUAL:
 803:src/input.c   ****       INPUT.b_entry_mode = MANUAL_4DBC;
 804:src/input.c   ****       break;
 805:src/input.c   ****     case SWIPE:
 806:src/input.c   ****       INPUT.b_entry_mode = SWIPE_4DBC;
 807:src/input.c   ****       break;
 808:src/input.c   ****     case FALLBACK:
 809:src/input.c   ****       INPUT.b_entry_mode = FALLBACK_4DBC;
 810:src/input.c   ****       break;
 811:src/input.c   ****   }
 812:src/input.c   ****   return TRUE;
 813:src/input.c   **** }
 814:src/input.c   **** //*****************************************************************************
 815:src/input.c   **** //  Function        : SearchRecord
 816:src/input.c   **** //  Description     : Search roc number in batch.
 817:src/input.c   **** //  Input           : aIncVoidTxn;      // Include Voided transaction.
 818:src/input.c   **** //  Return          : -1;               // Not Found
 819:src/input.c   **** //                    other value;      // index of record with same roc no.
 820:src/input.c   **** //  Note            : N/A
 821:src/input.c   **** //  Globals Changed : N/A
 822:src/input.c   **** //*****************************************************************************
 823:src/input.c   **** int SearchRecord(BOOLEAN aIncVoidTxn)
 824:src/input.c   **** {
 825:src/input.c   ****   BYTE kbdbuf[MAX_INPUT_LEN+1];
 826:src/input.c   ****   int   rec_idx;
 827:src/input.c   **** 
 828:src/input.c   ****   RSP_DATA.w_rspcode = '7'*256+'8';
 829:src/input.c   ****   while (1) {
 830:src/input.c   ****     kbdbuf[0] = 0;
ARM GAS  C:\Users\AHMED~1.ELE\AppData\Local\Temp\ccLLYyS4.s 			page 16


 831:src/input.c   ****     DispClrBelowMW(MW_LINE3);
 832:src/input.c   ****     Disp2x16Msg(GetConstMsg(EDC_IN_TRACE), MW_LINE3, MW_BIGFONT);
 833:src/input.c   ****     if (!APM_GetKbd(NUMERIC_INPUT+ECHO+JUSTIFIED+MW_BIGFONT+MW_LINE7+RIGHT_JUST, IMIN(6)+IMAX(6), k
 834:src/input.c   ****       return -1;
 835:src/input.c   ****     CompressInputData(&kbdbuf[7], kbdbuf, 3);
 836:src/input.c   ****     rec_idx = APM_TraceInBatch(&kbdbuf[7]);
 837:src/input.c   ****     if (rec_idx != -1) {
 838:src/input.c   ****       APM_GetBatchRec(rec_idx, &RECORD_BUF, sizeof(RECORD_BUF));
 839:src/input.c   ****       ClearRspData();
 840:src/input.c   ****       memcpy(INPUT.sb_pan, RECORD_BUF.sb_pan, 10);
 841:src/input.c   ****       if (InCardTable()) {
 842:src/input.c   ****         if (((RECORD_BUF.b_trans_status & VOIDED) != 0) && (!aIncVoidTxn)) {
 843:src/input.c   ****           RSP_DATA.w_rspcode = 'V'*256+'D';
 844:src/input.c   ****           return -1;
 845:src/input.c   ****         }
 846:src/input.c   ****         memcpy(INPUT.sb_trace_no, &kbdbuf[7], 3);
 847:src/input.c   ****         return rec_idx;
 848:src/input.c   ****       }
 849:src/input.c   ****       else {
 850:src/input.c   ****         RSP_DATA.w_rspcode = '1'*256+'4';
 851:src/input.c   ****       }
 852:src/input.c   ****     }
 853:src/input.c   ****     DispClrBelowMW(MW_LINE3);
 854:src/input.c   ****     DispRspText(FALSE);
 855:src/input.c   ****     ErrorDelay();
 856:src/input.c   ****   }
 857:src/input.c   **** }
 858:src/input.c   **** //*****************************************************************************
 859:src/input.c   **** //  Function        : DispKeyinPAN
 860:src/input.c   **** //  Description     : Display the keyin PAN.
 861:src/input.c   **** //  Input           : aPan;  // pointer to buffer with 1st byte = len;
 862:src/input.c   **** //  Return          : N/A
 863:src/input.c   **** //  Note            : N/A
 864:src/input.c   **** //  Globals Changed : N/A
 865:src/input.c   **** //*****************************************************************************
 866:src/input.c   **** static void DispKeyinPAN(BYTE *aPan)
 867:src/input.c   **** {
  26              		.loc 1 867 0
  27              		.cfi_startproc
  28              		@ args = 0, pretend = 0, frame = 32
  29              		@ frame_needed = 0, uses_anonymous_args = 0
  30              	.LVL0:
 868:src/input.c   ****   BYTE tmpbuf[MW_MAX_LINESIZE+1];
 869:src/input.c   **** 
 870:src/input.c   ****   memcpy(tmpbuf, &aPan[1], aPan[0]);
  31              		.loc 1 870 0
  32 0000 0146     		mov	r1, r0
 867:src/input.c   ****   BYTE tmpbuf[MW_MAX_LINESIZE+1];
  33              		.loc 1 867 0
  34 0002 70B5     		push	{r4, r5, r6, lr}
  35              		.cfi_def_cfa_offset 16
  36              		.cfi_offset 4, -16
  37              		.cfi_offset 5, -12
  38              		.cfi_offset 6, -8
  39              		.cfi_offset 14, -4
  40 0004 8AB0     		sub	sp, sp, #40
  41              		.cfi_def_cfa_offset 56
ARM GAS  C:\Users\AHMED~1.ELE\AppData\Local\Temp\ccLLYyS4.s 			page 17


  42              		.loc 1 870 0
  43 0006 11F8014B 		ldrb	r4, [r1], #1	@ zero_extendqisi2
 867:src/input.c   ****   BYTE tmpbuf[MW_MAX_LINESIZE+1];
  44              		.loc 1 867 0
  45 000a 0546     		mov	r5, r0
  46              		.loc 1 870 0
  47 000c 2246     		mov	r2, r4
  48 000e 03A8     		add	r0, sp, #12
  49              	.LVL1:
  50 0010 FFF7FEFF 		bl	memcpy
  51              	.LVL2:
 871:src/input.c   ****   tmpbuf[aPan[0]] = 0;
  52              		.loc 1 871 0
  53 0014 0AAB     		add	r3, sp, #40
  54 0016 2344     		add	r3, r3, r4
  55 0018 0024     		movs	r4, #0
 872:src/input.c   ****   DispClrBelowMW(MW_LINE7);
  56              		.loc 1 872 0
  57 001a 0F20     		movs	r0, #15
 871:src/input.c   ****   tmpbuf[aPan[0]] = 0;
  58              		.loc 1 871 0
  59 001c 03F81C4C 		strb	r4, [r3, #-28]
  60              		.loc 1 872 0
  61 0020 2321     		movs	r1, #35
  62 0022 2346     		mov	r3, r4
  63 0024 0094     		str	r4, [sp]
  64 0026 4FF4E062 		mov	r2, #1792
  65 002a FFF7FEFF 		bl	lib_app_call
  66              	.LVL3:
 873:src/input.c   ****   if (aPan[0] <= MW_NOR_LINESIZE) {
  67              		.loc 1 873 0
  68 002e 2B78     		ldrb	r3, [r5]	@ zero_extendqisi2
  69              	.LBB2:
 874:src/input.c   ****     DispLineMW(tmpbuf, MW_LINE7, MW_RIGHT|MW_BIGFONT); 
  70              		.loc 1 874 0
  71 0030 03A8     		add	r0, sp, #12
  72              	.LBE2:
 873:src/input.c   ****   if (aPan[0] <= MW_NOR_LINESIZE) {
  73              		.loc 1 873 0
  74 0032 142B     		cmp	r3, #20
  75 0034 10D8     		bhi	.L2
  76              	.LBB3:
  77              		.loc 1 874 0
  78 0036 FFF7FEFF 		bl	strlen
  79              	.LVL4:
  80 003a 0646     		mov	r6, r0
  81              	.LVL5:
  82 003c 711C     		adds	r1, r6, #1
  83 003e 9220     		movs	r0, #146
  84              	.LVL6:
  85 0040 FFF7FEFF 		bl	sys_func1
  86              	.LVL7:
  87 0044 0546     		mov	r5, r0
  88              	.LVL8:
  89 0046 18B3     		cbz	r0, .L1
  90              		.loc 1 874 0 is_stmt 0 discriminator 1
  91 0048 03A9     		add	r1, sp, #12
ARM GAS  C:\Users\AHMED~1.ELE\AppData\Local\Temp\ccLLYyS4.s 			page 18


  92 004a 3246     		mov	r2, r6
  93 004c FFF7FEFF 		bl	memcpy
  94              	.LVL9:
  95 0050 AC55     		strb	r4, [r5, r6]
  96 0052 41F20103 		movw	r3, #4097
  97 0056 0FE0     		b	.L9
  98              	.LVL10:
  99              	.L2:
 100              	.LBE3:
 101              	.LBB4:
 875:src/input.c   ****   }
 876:src/input.c   ****   else {
 877:src/input.c   **** 	  DispLineMW(tmpbuf, MW_LINE7, MW_RIGHT|MW_SPFONT); 
 102              		.loc 1 877 0 is_stmt 1
 103 0058 FFF7FEFF 		bl	strlen
 104              	.LVL11:
 105 005c 0646     		mov	r6, r0
 106              	.LVL12:
 107 005e 711C     		adds	r1, r6, #1
 108 0060 9220     		movs	r0, #146
 109              	.LVL13:
 110 0062 FFF7FEFF 		bl	sys_func1
 111              	.LVL14:
 112 0066 0546     		mov	r5, r0
 113              	.LVL15:
 114 0068 90B1     		cbz	r0, .L1
 115              		.loc 1 877 0 is_stmt 0 discriminator 1
 116 006a 03A9     		add	r1, sp, #12
 117 006c 3246     		mov	r2, r6
 118 006e FFF7FEFF 		bl	memcpy
 119              	.LVL16:
 120 0072 42F20103 		movw	r3, #8193
 121 0076 AC55     		strb	r4, [r5, r6]
 122              	.LVL17:
 123              	.L9:
 124 0078 0093     		str	r3, [sp]
 125 007a 2521     		movs	r1, #37
 126 007c 0F20     		movs	r0, #15
 127 007e 2A46     		mov	r2, r5
 128 0080 4FF4E063 		mov	r3, #1792
 129 0084 FFF7FEFF 		bl	lib_app_call
 130              	.LVL18:
 131 0088 9420     		movs	r0, #148
 132 008a 2946     		mov	r1, r5
 133 008c FFF7FEFF 		bl	sys_func1
 134              	.LVL19:
 135              	.L1:
 136              	.LBE4:
 878:src/input.c   ****   }
 879:src/input.c   **** }
 137              		.loc 1 879 0 is_stmt 1
 138 0090 0AB0     		add	sp, sp, #40
 139              		.cfi_def_cfa_offset 16
 140              		@ sp needed
 141 0092 70BD     		pop	{r4, r5, r6, pc}
 142              		.cfi_endproc
 143              	.LFE16:
ARM GAS  C:\Users\AHMED~1.ELE\AppData\Local\Temp\ccLLYyS4.s 			page 19


 144              		.size	DispKeyinPAN, .-DispKeyinPAN
 145              		.section	.text.FindSeperator.constprop.2,"ax",%progbits
 146              		.align	1
 147              		.thumb
 148              		.thumb_func
 149              		.type	FindSeperator.constprop.2, %function
 150              	FindSeperator.constprop.2:
 151              	.LFB23:
 115:src/input.c   **** {
 152              		.loc 1 115 0
 153              		.cfi_startproc
 154              		@ args = 0, pretend = 0, frame = 0
 155              		@ frame_needed = 0, uses_anonymous_args = 0
 156              	.LVL20:
 157 0000 0146     		mov	r1, r0
 158 0002 10B5     		push	{r4, lr}
 159              		.cfi_def_cfa_offset 8
 160              		.cfi_offset 4, -8
 161              		.cfi_offset 14, -4
 115:src/input.c   **** {
 162              		.loc 1 115 0
 163 0004 0023     		movs	r3, #0
 164              	.LVL21:
 165              	.L13:
 166 0006 094A     		ldr	r2, .L19
 167 0008 5C18     		adds	r4, r3, r1
 168 000a 2244     		add	r2, r2, r4
 169 000c D8B2     		uxtb	r0, r3
 170              	.LVL22:
 121:src/input.c   ****     //  *, ;, =, ^
 171              		.loc 1 121 0
 172 000e 92F80122 		ldrb	r2, [r2, #513]	@ zero_extendqisi2
 173              	.LVL23:
 123:src/input.c   ****       return i;
 174              		.loc 1 123 0
 175 0012 2A2A     		cmp	r2, #42
 176 0014 09D0     		beq	.L12
 177 0016 3B2A     		cmp	r2, #59
 178 0018 07D0     		beq	.L12
 179 001a 3D2A     		cmp	r2, #61
 180 001c 05D0     		beq	.L12
 181 001e 5E2A     		cmp	r2, #94
 182 0020 03D0     		beq	.L12
 183              	.LVL24:
 184 0022 0133     		adds	r3, r3, #1
 185              	.LVL25:
 120:src/input.c   ****     val = aBuf[i+aIdx];
 186              		.loc 1 120 0
 187 0024 172B     		cmp	r3, #23
 188 0026 EED1     		bne	.L13
 126:src/input.c   **** }
 189              		.loc 1 126 0
 190 0028 FF20     		movs	r0, #255
 191              	.LVL26:
 192              	.L12:
 127:src/input.c   **** //*****************************************************************************
 193              		.loc 1 127 0
ARM GAS  C:\Users\AHMED~1.ELE\AppData\Local\Temp\ccLLYyS4.s 			page 20


 194 002a 10BD     		pop	{r4, pc}
 195              	.L20:
 196              		.align	2
 197              	.L19:
 198 002c 00000000 		.word	gGTS
 199              		.cfi_endproc
 200              	.LFE23:
 201              		.size	FindSeperator.constprop.2, .-FindSeperator.constprop.2
 202              		.section	.text.CheckCurrency,"ax",%progbits
 203              		.align	1
 204              		.global	CheckCurrency
 205              		.thumb
 206              		.thumb_func
 207              		.type	CheckCurrency, %function
 208              	CheckCurrency:
 209              	.LFB5:
 236:src/input.c   ****   if (INPUT.currency == 0xFF)
 210              		.loc 1 236 0
 211              		.cfi_startproc
 212              		@ args = 0, pretend = 0, frame = 0
 213              		@ frame_needed = 0, uses_anonymous_args = 0
 214              	.LVL27:
 237:src/input.c   ****     return TRUE;
 215              		.loc 1 237 0
 216 0000 1F4B     		ldr	r3, .L29
 236:src/input.c   ****   if (INPUT.currency == 0xFF)
 217              		.loc 1 236 0
 218 0002 37B5     		push	{r0, r1, r2, r4, r5, lr}
 219              		.cfi_def_cfa_offset 24
 220              		.cfi_offset 4, -12
 221              		.cfi_offset 5, -8
 222              		.cfi_offset 14, -4
 236:src/input.c   ****   if (INPUT.currency == 0xFF)
 223              		.loc 1 236 0
 224 0004 0546     		mov	r5, r0
 237:src/input.c   ****     return TRUE;
 225              		.loc 1 237 0
 226 0006 5A7D     		ldrb	r2, [r3, #21]	@ zero_extendqisi2
 236:src/input.c   ****   if (INPUT.currency == 0xFF)
 227              		.loc 1 236 0
 228 0008 0C46     		mov	r4, r1
 237:src/input.c   ****     return TRUE;
 229              		.loc 1 237 0
 230 000a FF2A     		cmp	r2, #255
 231 000c 31D0     		beq	.L26
 240:src/input.c   ****     if (!memcmp(STIS_ACQ_TBL(0).sb_program, gCurInfo[INPUT.currency].name, 3))
 232              		.loc 1 240 0
 233 000e 58B9     		cbnz	r0, .L23
 241:src/input.c   ****       return TRUE;
 234              		.loc 1 241 0
 235 0010 1C4B     		ldr	r3, .L29+4
 236 0012 1D49     		ldr	r1, .L29+8
 237              	.LVL28:
 238 0014 1868     		ldr	r0, [r3]
 239              	.LVL29:
 240 0016 01EBC201 		add	r1, r1, r2, lsl #3
 241 001a 00F24930 		addw	r0, r0, #841
ARM GAS  C:\Users\AHMED~1.ELE\AppData\Local\Temp\ccLLYyS4.s 			page 21


 242 001e 0322     		movs	r2, #3
 243 0020 FFF7FEFF 		bl	memcmp
 244              	.LVL30:
 245 0024 78B9     		cbnz	r0, .L24
 246 0026 24E0     		b	.L26
 247              	.LVL31:
 248              	.L23:
 244:src/input.c   ****     if (!memcmp(STIS_ACQ_TBL(0).sb_program, gCurInfo[TX_DATA.currency].name, 3))
 249              		.loc 1 244 0
 250 0028 0128     		cmp	r0, #1
 251 002a 0CD1     		bne	.L24
 245:src/input.c   ****       return TRUE;
 252              		.loc 1 245 0
 253 002c 154A     		ldr	r2, .L29+4
 254 002e 93F81513 		ldrb	r1, [r3, #789]	@ zero_extendqisi2
 255              	.LVL32:
 256 0032 1068     		ldr	r0, [r2]
 257              	.LVL33:
 258 0034 144B     		ldr	r3, .L29+8
 259 0036 00F24930 		addw	r0, r0, #841
 260 003a 03EBC101 		add	r1, r3, r1, lsl #3
 261 003e 0322     		movs	r2, #3
 262 0040 FFF7FEFF 		bl	memcmp
 263              	.LVL34:
 264 0044 B8B1     		cbz	r0, .L27
 265              	.L24:
 266 0046 0025     		movs	r5, #0
 249:src/input.c   ****     DispClrBelowMW(MW_LINE3);
 267              		.loc 1 249 0
 268 0048 BCB1     		cbz	r4, .L28
 250:src/input.c   ****     Disp2x16Msg(GetConstMsg(EDC_IN_CUR_ERROR), MW_LINE3, MW_BIGFONT);
 269              		.loc 1 250 0
 270 004a 2B46     		mov	r3, r5
 271 004c 2321     		movs	r1, #35
 272 004e 4FF44072 		mov	r2, #768
 273 0052 0095     		str	r5, [sp]
 274 0054 0F20     		movs	r0, #15
 275 0056 FFF7FEFF 		bl	lib_app_call
 276              	.LVL35:
 251:src/input.c   ****     ErrorDelay();
 277              		.loc 1 251 0
 278 005a 2120     		movs	r0, #33
 279 005c FFF7FEFF 		bl	GetConstMsg
 280              	.LVL36:
 281 0060 4FF44071 		mov	r1, #768
 282 0064 4FF48052 		mov	r2, #4096
 283 0068 FFF7FEFF 		bl	Disp2x16Msg
 284              	.LVL37:
 252:src/input.c   ****   }
 285              		.loc 1 252 0
 286 006c FFF7FEFF 		bl	ErrorDelay
 287              	.LVL38:
 288 0070 01E0     		b	.L27
 289              	.L26:
 238:src/input.c   ****   
 290              		.loc 1 238 0
 291 0072 0120     		movs	r0, #1
ARM GAS  C:\Users\AHMED~1.ELE\AppData\Local\Temp\ccLLYyS4.s 			page 22


 292 0074 02E0     		b	.L22
 293              	.L27:
 294 0076 2846     		mov	r0, r5
 295 0078 00E0     		b	.L22
 296              	.L28:
 254:src/input.c   **** }
 297              		.loc 1 254 0
 298 007a 2046     		mov	r0, r4
 299              	.L22:
 255:src/input.c   **** 
 300              		.loc 1 255 0
 301 007c 03B0     		add	sp, sp, #12
 302              		.cfi_def_cfa_offset 12
 303              		@ sp needed
 304 007e 30BD     		pop	{r4, r5, pc}
 305              	.L30:
 306              		.align	2
 307              	.L29:
 308 0080 00000000 		.word	gGTS
 309 0084 00000000 		.word	gGDS
 310 0088 00000000 		.word	.LANCHOR0
 311              		.cfi_endproc
 312              	.LFE5:
 313              		.size	CheckCurrency, .-CheckCurrency
 314              		.section	.text.InCardTable,"ax",%progbits
 315              		.align	1
 316              		.global	InCardTable
 317              		.thumb
 318              		.thumb_func
 319              		.type	InCardTable, %function
 320              	InCardTable:
 321              	.LFB6:
 267:src/input.c   ****   BYTE card_idx, issuer_idx, acq_idx;
 322              		.loc 1 267 0
 323              		.cfi_startproc
 324              		@ args = 0, pretend = 0, frame = 32
 325              		@ frame_needed = 0, uses_anonymous_args = 0
 326 0000 2DE9F04F 		push	{r4, r5, r6, r7, r8, r9, r10, fp, lr}
 327              		.cfi_def_cfa_offset 36
 328              		.cfi_offset 4, -36
 329              		.cfi_offset 5, -32
 330              		.cfi_offset 6, -28
 331              		.cfi_offset 7, -24
 332              		.cfi_offset 8, -20
 333              		.cfi_offset 9, -16
 334              		.cfi_offset 10, -12
 335              		.cfi_offset 11, -8
 336              		.cfi_offset 14, -4
 270:src/input.c   ****   WORD max_issuer = APM_GetIssuerCount();
 337              		.loc 1 270 0
 338 0004 0024     		movs	r4, #0
 267:src/input.c   ****   BYTE card_idx, issuer_idx, acq_idx;
 339              		.loc 1 267 0
 340 0006 8BB0     		sub	sp, sp, #44
 341              		.cfi_def_cfa_offset 80
 270:src/input.c   ****   WORD max_issuer = APM_GetIssuerCount();
 342              		.loc 1 270 0
ARM GAS  C:\Users\AHMED~1.ELE\AppData\Local\Temp\ccLLYyS4.s 			page 23


 343 0008 1020     		movs	r0, #16
 344 000a 0146     		mov	r1, r0
 345 000c 2246     		mov	r2, r4
 346 000e 2346     		mov	r3, r4
 347 0010 0094     		str	r4, [sp]
 348 0012 FFF7FEFF 		bl	lib_app_call
 349              	.LVL39:
 271:src/input.c   ****   WORD max_acq    = APM_GetAcqCount();
 350              		.loc 1 271 0
 351 0016 1221     		movs	r1, #18
 352 0018 2246     		mov	r2, r4
 353 001a 0094     		str	r4, [sp]
 270:src/input.c   ****   WORD max_issuer = APM_GetIssuerCount();
 354              		.loc 1 270 0
 355 001c 83B2     		uxth	r3, r0
 271:src/input.c   ****   WORD max_acq    = APM_GetAcqCount();
 356              		.loc 1 271 0
 357 001e 1020     		movs	r0, #16
 270:src/input.c   ****   WORD max_issuer = APM_GetIssuerCount();
 358              		.loc 1 270 0
 359 0020 0293     		str	r3, [sp, #8]
 360              	.LVL40:
 271:src/input.c   ****   WORD max_acq    = APM_GetAcqCount();
 361              		.loc 1 271 0
 362 0022 2346     		mov	r3, r4
 363 0024 FFF7FEFF 		bl	lib_app_call
 364              	.LVL41:
 272:src/input.c   **** 
 365              		.loc 1 272 0
 366 0028 2346     		mov	r3, r4
 367 002a 1421     		movs	r1, #20
 368 002c 2246     		mov	r2, r4
 271:src/input.c   ****   WORD max_acq    = APM_GetAcqCount();
 369              		.loc 1 271 0
 370 002e 1FFA80F8 		uxth	r8, r0
 371              	.LVL42:
 272:src/input.c   **** 
 372              		.loc 1 272 0
 373 0032 0094     		str	r4, [sp]
 374 0034 1020     		movs	r0, #16
 375 0036 FFF7FEFF 		bl	lib_app_call
 376              	.LVL43:
 275:src/input.c   ****   pan[0] = (BYTE) fndb(&pan[1], 'F', 19);
 377              		.loc 1 275 0
 378 003a 5649     		ldr	r1, .L66
 379 003c 0A22     		movs	r2, #10
 272:src/input.c   **** 
 380              		.loc 1 272 0
 381 003e 1FFA80F9 		uxth	r9, r0
 382              	.LVL44:
 275:src/input.c   ****   pan[0] = (BYTE) fndb(&pan[1], 'F', 19);
 383              		.loc 1 275 0
 384 0042 0DF11100 		add	r0, sp, #17
 385 0046 FFF7FEFF 		bl	split
 386              	.LVL45:
 276:src/input.c   **** 
 387              		.loc 1 276 0
ARM GAS  C:\Users\AHMED~1.ELE\AppData\Local\Temp\ccLLYyS4.s 			page 24


 388 004a 0DF11100 		add	r0, sp, #17
 389 004e 4621     		movs	r1, #70
 390 0050 1322     		movs	r2, #19
 391 0052 FFF7FEFF 		bl	fndb
 392              	.LVL46:
 393 0056 8DF81000 		strb	r0, [sp, #16]
 394              	.LVL47:
 395              	.L32:
 278:src/input.c   ****     if (!APM_GetCardTbl(card_idx, &STIS_CARD_TBL(0)))
 396              		.loc 1 278 0 discriminator 1
 397 005a 029B     		ldr	r3, [sp, #8]
 398 005c 9C42     		cmp	r4, r3
 399 005e 80F08B80 		bcs	.L64
 279:src/input.c   ****       continue;
 400              		.loc 1 279 0
 401 0062 4D4F     		ldr	r7, .L66+4
 402 0064 0025     		movs	r5, #0
 403 0066 3B68     		ldr	r3, [r7]
 404 0068 1020     		movs	r0, #16
 405 006a 0095     		str	r5, [sp]
 406 006c 1121     		movs	r1, #17
 407 006e 2246     		mov	r2, r4
 408 0070 03F5A263 		add	r3, r3, #1296
 409 0074 FFF7FEFF 		bl	lib_app_call
 410              	.LVL48:
 411 0078 BA46     		mov	r10, r7
 412 007a 10F0FF0F 		tst	r0, #255
 413 007e 78D0     		beq	.L49
 281:src/input.c   ****     if ((memcmp(INPUT.sb_pan, STIS_CARD_TBL(0).sb_pan_range_low, 5) >= 0)  &&
 414              		.loc 1 281 0
 415 0080 3B68     		ldr	r3, [r7]
 416 0082 93F81C05 		ldrb	r0, [r3, #1308]	@ zero_extendqisi2
 417 0086 FFF7FEFF 		bl	bcd2bin
 418              	.LVL49:
 282:src/input.c   ****         (memcmp(INPUT.sb_pan, STIS_CARD_TBL(0).sb_pan_range_high, 5) <= 0) &&
 419              		.loc 1 282 0
 420 008a 3F68     		ldr	r7, [r7]
 421 008c 0522     		movs	r2, #5
 422 008e 07F5A261 		add	r1, r7, #1296
 281:src/input.c   ****     if ((memcmp(INPUT.sb_pan, STIS_CARD_TBL(0).sb_pan_range_low, 5) >= 0)  &&
 423              		.loc 1 281 0
 424 0092 0646     		mov	r6, r0
 425              	.LVL50:
 282:src/input.c   ****         (memcmp(INPUT.sb_pan, STIS_CARD_TBL(0).sb_pan_range_high, 5) <= 0) &&
 426              		.loc 1 282 0
 427 0094 3F48     		ldr	r0, .L66
 428 0096 FFF7FEFF 		bl	memcmp
 429              	.LVL51:
 430 009a A842     		cmp	r0, r5
 431 009c 69DB     		blt	.L49
 283:src/input.c   ****         ((pan[0] == pan_len) || (pan_len == 0))) {
 432              		.loc 1 283 0 discriminator 1
 433 009e 3D48     		ldr	r0, .L66
 434 00a0 07F21551 		addw	r1, r7, #1301
 435 00a4 0522     		movs	r2, #5
 436 00a6 FFF7FEFF 		bl	memcmp
 437              	.LVL52:
ARM GAS  C:\Users\AHMED~1.ELE\AppData\Local\Temp\ccLLYyS4.s 			page 25


 282:src/input.c   ****         (memcmp(INPUT.sb_pan, STIS_CARD_TBL(0).sb_pan_range_high, 5) <= 0) &&
 438              		.loc 1 282 0 discriminator 1
 439 00aa A842     		cmp	r0, r5
 440 00ac 61DC     		bgt	.L49
 283:src/input.c   ****         ((pan[0] == pan_len) || (pan_len == 0))) {
 441              		.loc 1 283 0
 442 00ae 9DF81030 		ldrb	r3, [sp, #16]	@ zero_extendqisi2
 281:src/input.c   ****     if ((memcmp(INPUT.sb_pan, STIS_CARD_TBL(0).sb_pan_range_low, 5) >= 0)  &&
 443              		.loc 1 281 0
 444 00b2 F0B2     		uxtb	r0, r6
 283:src/input.c   ****         ((pan[0] == pan_len) || (pan_len == 0))) {
 445              		.loc 1 283 0
 446 00b4 8342     		cmp	r3, r0
 447 00b6 02D0     		beq	.L62
 284:src/input.c   ****       // locate issuer
 448              		.loc 1 284 0
 449 00b8 0028     		cmp	r0, #0
 450 00ba 5AD1     		bne	.L49
 451 00bc 0546     		mov	r5, r0
 452              	.LVL53:
 453              	.L62:
 286:src/input.c   ****         if (!APM_GetIssuer(issuer_idx, &STIS_ISS_TBL(0)))
 454              		.loc 1 286 0 discriminator 1
 455 00be AEB2     		uxth	r6, r5
 456 00c0 4645     		cmp	r6, r8
 457 00c2 15D2     		bcs	.L38
 287:src/input.c   ****           continue;
 458              		.loc 1 287 0
 459 00c4 DAF80030 		ldr	r3, [r10]
 460 00c8 0022     		movs	r2, #0
 461 00ca 1020     		movs	r0, #16
 462 00cc 0092     		str	r2, [sp]
 463 00ce 1321     		movs	r1, #19
 464 00d0 2A46     		mov	r2, r5
 465 00d2 03F59463 		add	r3, r3, #1184
 466 00d6 FFF7FEFF 		bl	lib_app_call
 467              	.LVL54:
 468 00da 10F0FF0F 		tst	r0, #255
 469 00de 0BD0     		beq	.L35
 289:src/input.c   ****           break;
 470              		.loc 1 289 0
 471 00e0 2D4B     		ldr	r3, .L66+4
 472 00e2 1B68     		ldr	r3, [r3]
 473 00e4 93F8A024 		ldrb	r2, [r3, #1184]	@ zero_extendqisi2
 474 00e8 93F81A35 		ldrb	r3, [r3, #1306]	@ zero_extendqisi2
 475 00ec 9A42     		cmp	r2, r3
 476 00ee 03D1     		bne	.L35
 477              	.L38:
 292:src/input.c   ****         continue;
 478              		.loc 1 292 0
 479 00f0 4645     		cmp	r6, r8
 480 00f2 3ED0     		beq	.L49
 481 00f4 0025     		movs	r5, #0
 482              	.LVL55:
 483 00f6 1AE0     		b	.L36
 484              	.LVL56:
 485              	.L35:
ARM GAS  C:\Users\AHMED~1.ELE\AppData\Local\Temp\ccLLYyS4.s 			page 26


 286:src/input.c   ****         if (!APM_GetIssuer(issuer_idx, &STIS_ISS_TBL(0)))
 486              		.loc 1 286 0 discriminator 2
 487 00f8 0135     		adds	r5, r5, #1
 488              	.LVL57:
 489 00fa EDB2     		uxtb	r5, r5
 490              	.LVL58:
 491 00fc DFE7     		b	.L62
 492              	.LVL59:
 493              	.L43:
 296:src/input.c   ****           continue;
 494              		.loc 1 296 0
 495 00fe 4FF0000C 		mov	ip, #0
 496 0102 DAF80030 		ldr	r3, [r10]
 497 0106 1020     		movs	r0, #16
 498 0108 CDF800C0 		str	ip, [sp]
 499 010c 1521     		movs	r1, #21
 500 010e 2A46     		mov	r2, r5
 501 0110 03F55273 		add	r3, r3, #840
 502 0114 CDF80CC0 		str	ip, [sp, #12]
 503 0118 FFF7FEFF 		bl	lib_app_call
 504              	.LVL60:
 505 011c DFF878B0 		ldr	fp, .L66+4
 506 0120 DDF80CC0 		ldr	ip, [sp, #12]
 507 0124 10F0FF0F 		tst	r0, #255
 508 0128 05D1     		bne	.L65
 509              	.L40:
 295:src/input.c   ****         if (!APM_GetAcqTbl(acq_idx, &STIS_ACQ_TBL(0)))
 510              		.loc 1 295 0 discriminator 2
 511 012a 0135     		adds	r5, r5, #1
 512              	.LVL61:
 513 012c EDB2     		uxtb	r5, r5
 514              	.LVL62:
 515              	.L36:
 295:src/input.c   ****         if (!APM_GetAcqTbl(acq_idx, &STIS_ACQ_TBL(0)))
 516              		.loc 1 295 0 is_stmt 0 discriminator 1
 517 012e AFB2     		uxth	r7, r5
 518 0130 4F45     		cmp	r7, r9
 519 0132 E4D3     		bcc	.L43
 520 0134 14E0     		b	.L44
 521              	.L65:
 298:src/input.c   ****           continue;
 522              		.loc 1 298 0 is_stmt 1
 523 0136 DBF80030 		ldr	r3, [fp]
 524 013a 93F8F033 		ldrb	r3, [r3, #1008]	@ zero_extendqisi2
 525 013e FF2B     		cmp	r3, #255
 526 0140 F3D0     		beq	.L40
 300:src/input.c   ****           continue;
 527              		.loc 1 300 0
 528 0142 6046     		mov	r0, ip
 529 0144 FFF7FEFF 		bl	GetHostType
 530              	.LVL63:
 531 0148 FFF7FEFF 		bl	CorrectHost
 532              	.LVL64:
 533 014c 0028     		cmp	r0, #0
 534 014e ECD0     		beq	.L40
 306:src/input.c   **** 
 535              		.loc 1 306 0
ARM GAS  C:\Users\AHMED~1.ELE\AppData\Local\Temp\ccLLYyS4.s 			page 27


 536 0150 DBF80030 		ldr	r3, [fp]
 537 0154 93F84823 		ldrb	r2, [r3, #840]	@ zero_extendqisi2
 538 0158 93F81B35 		ldrb	r3, [r3, #1307]	@ zero_extendqisi2
 539 015c 9A42     		cmp	r2, r3
 540 015e E4D1     		bne	.L40
 541              	.L44:
 315:src/input.c   ****         continue;
 542              		.loc 1 315 0
 543 0160 4F45     		cmp	r7, r9
 544 0162 06D0     		beq	.L49
 324:src/input.c   ****       INPUT.w_issuer_idx = issuer_idx;
 545              		.loc 1 324 0
 546 0164 0D4B     		ldr	r3, .L66+8
 326:src/input.c   ****     }
 547              		.loc 1 326 0
 548 0166 0120     		movs	r0, #1
 324:src/input.c   ****       INPUT.w_issuer_idx = issuer_idx;
 549              		.loc 1 324 0
 550 0168 A3F87670 		strh	r7, [r3, #118]	@ movhi
 325:src/input.c   ****       return TRUE;
 551              		.loc 1 325 0
 552 016c A3F87860 		strh	r6, [r3, #120]	@ movhi
 326:src/input.c   ****     }
 553              		.loc 1 326 0
 554 0170 0DE0     		b	.L45
 555              	.LVL65:
 556              	.L49:
 278:src/input.c   ****     if (!APM_GetCardTbl(card_idx, &STIS_CARD_TBL(0)))
 557              		.loc 1 278 0 discriminator 2
 558 0172 0134     		adds	r4, r4, #1
 559              	.LVL66:
 560 0174 E4B2     		uxtb	r4, r4
 561              	.LVL67:
 562 0176 70E7     		b	.L32
 563              	.L64:
 330:src/input.c   ****   RSP_DATA.w_rspcode = 'U'*256+'C';
 564              		.loc 1 330 0
 565 0178 7B20     		movs	r0, #123
 566 017a FFF7FEFF 		bl	GetConstMsg
 567              	.LVL68:
 568 017e FFF7FEFF 		bl	DispErrorMsg
 569              	.LVL69:
 331:src/input.c   ****   return FALSE;
 570              		.loc 1 331 0
 571 0182 45F24352 		movw	r2, #21827
 572 0186 054B     		ldr	r3, .L66+8
 332:src/input.c   **** }
 573              		.loc 1 332 0
 574 0188 0020     		movs	r0, #0
 331:src/input.c   ****   return FALSE;
 575              		.loc 1 331 0
 576 018a A3F86E25 		strh	r2, [r3, #1390]	@ movhi
 577              	.L45:
 333:src/input.c   **** //*****************************************************************************
 578              		.loc 1 333 0
 579 018e 0BB0     		add	sp, sp, #44
 580              		.cfi_def_cfa_offset 36
ARM GAS  C:\Users\AHMED~1.ELE\AppData\Local\Temp\ccLLYyS4.s 			page 28


 581              		@ sp needed
 582 0190 BDE8F08F 		pop	{r4, r5, r6, r7, r8, r9, r10, fp, pc}
 583              	.LVL70:
 584              	.L67:
 585              		.align	2
 586              	.L66:
 587 0194 09000000 		.word	gGTS+9
 588 0198 00000000 		.word	gGDS
 589 019c 00000000 		.word	gGTS
 590              		.cfi_endproc
 591              	.LFE6:
 592              		.size	InCardTable, .-InCardTable
 593              		.section	.text.PromptYesNo,"ax",%progbits
 594              		.align	1
 595              		.global	PromptYesNo
 596              		.thumb
 597              		.thumb_func
 598              		.type	PromptYesNo, %function
 599              	PromptYesNo:
 600              	.LFB8:
 444:src/input.c   ****   Disp2x16Msg(GetConstMsg(EDC_IN_CORRECT), MW_LINE5, MW_BIGFONT);
 601              		.loc 1 444 0
 602              		.cfi_startproc
 603              		@ args = 0, pretend = 0, frame = 0
 604              		@ frame_needed = 0, uses_anonymous_args = 0
 605 0000 07B5     		push	{r0, r1, r2, lr}
 606              		.cfi_def_cfa_offset 16
 607              		.cfi_offset 14, -4
 445:src/input.c   ****   return APM_SelYesNo();
 608              		.loc 1 445 0
 609 0002 1220     		movs	r0, #18
 610 0004 FFF7FEFF 		bl	GetConstMsg
 611              	.LVL71:
 612 0008 4FF4A061 		mov	r1, #1280
 613 000c 4FF48052 		mov	r2, #4096
 614 0010 FFF7FEFF 		bl	Disp2x16Msg
 615              	.LVL72:
 446:src/input.c   **** }
 616              		.loc 1 446 0
 617 0014 0022     		movs	r2, #0
 618 0016 3221     		movs	r1, #50
 619 0018 0092     		str	r2, [sp]
 620 001a 1346     		mov	r3, r2
 621 001c 1020     		movs	r0, #16
 622 001e FFF7FEFF 		bl	lib_app_call
 623              	.LVL73:
 447:src/input.c   **** //*****************************************************************************
 624              		.loc 1 447 0
 625 0022 03B0     		add	sp, sp, #12
 626              		.cfi_def_cfa_offset 4
 627              		@ sp needed
 628 0024 5DF804FB 		ldr	pc, [sp], #4
 629              		.cfi_endproc
 630              	.LFE8:
 631              		.size	PromptYesNo, .-PromptYesNo
 632              		.section	.text.GetAuthCode,"ax",%progbits
 633              		.align	1
ARM GAS  C:\Users\AHMED~1.ELE\AppData\Local\Temp\ccLLYyS4.s 			page 29


 634              		.global	GetAuthCode
 635              		.thumb
 636              		.thumb_func
 637              		.type	GetAuthCode, %function
 638              	GetAuthCode:
 639              	.LFB9:
 458:src/input.c   ****   BYTE kbdbuf[32];
 640              		.loc 1 458 0
 641              		.cfi_startproc
 642              		@ args = 0, pretend = 0, frame = 32
 643              		@ frame_needed = 0, uses_anonymous_args = 0
 464:src/input.c   ****     ecrdata_len = gGDS->i_ecr_len - 2;
 644              		.loc 1 464 0
 645 0000 2B4B     		ldr	r3, .L86
 458:src/input.c   ****   BYTE kbdbuf[32];
 646              		.loc 1 458 0
 647 0002 30B5     		push	{r4, r5, lr}
 648              		.cfi_def_cfa_offset 12
 649              		.cfi_offset 4, -12
 650              		.cfi_offset 5, -8
 651              		.cfi_offset 14, -4
 652 0004 8BB0     		sub	sp, sp, #44
 653              		.cfi_def_cfa_offset 56
 464:src/input.c   ****     ecrdata_len = gGDS->i_ecr_len - 2;
 654              		.loc 1 464 0
 655 0006 1868     		ldr	r0, [r3]
 656 0008 00F58443 		add	r3, r0, #16896
 657 000c D96D     		ldr	r1, [r3, #92]
 658 000e 0129     		cmp	r1, #1
 659 0010 26DD     		ble	.L74
 660              	.LVL74:
 466:src/input.c   ****       pbTlv = TlvSeek(gGDS->s_ecr_data.sb_content, ecrdata_len, ECRTAG_AUTH_RESP);
 661              		.loc 1 466 0
 662 0012 0239     		subs	r1, r1, #2
 663              	.LVL75:
 664 0014 24D0     		beq	.L74
 467:src/input.c   ****       if (pbTlv != NULL) {
 665              		.loc 1 467 0
 666 0016 00F57150 		add	r0, r0, #15424
 667 001a 1A30     		adds	r0, r0, #26
 668 001c 89B2     		uxth	r1, r1
 669              	.LVL76:
 670 001e 4DF62672 		movw	r2, #57126
 671 0022 FFF7FEFF 		bl	TlvSeek
 672              	.LVL77:
 468:src/input.c   ****         TlvVPtr(pbTlv);
 673              		.loc 1 468 0
 674 0026 0446     		mov	r4, r0
 675 0028 D0B1     		cbz	r0, .L74
 469:src/input.c   ****         kbdbuf[0] = TlvLen(pbTlv);
 676              		.loc 1 469 0
 677 002a FFF7FEFF 		bl	TlvVPtr
 678              	.LVL78:
 470:src/input.c   ****         if (kbdbuf[0] > 6)
 679              		.loc 1 470 0
 680 002e 2046     		mov	r0, r4
 681 0030 FFF7FEFF 		bl	TlvLen
ARM GAS  C:\Users\AHMED~1.ELE\AppData\Local\Temp\ccLLYyS4.s 			page 30


 682              	.LVL79:
 473:src/input.c   ****         memcpy(RSP_DATA.sb_auth_code, TlvVPtr(pbTlv), kbdbuf[0]);
 683              		.loc 1 473 0
 684 0034 2021     		movs	r1, #32
 685 0036 0622     		movs	r2, #6
 470:src/input.c   ****         if (kbdbuf[0] > 6)
 686              		.loc 1 470 0
 687 0038 C0B2     		uxtb	r0, r0
 471:src/input.c   ****           kbdbuf[0] = 6;
 688              		.loc 1 471 0
 689 003a 0628     		cmp	r0, #6
 472:src/input.c   ****         memset(RSP_DATA.sb_auth_code, ' ',6);
 690              		.loc 1 472 0
 691 003c 8CBF     		ite	hi
 692 003e 0623     		movhi	r3, #6
 470:src/input.c   ****         if (kbdbuf[0] > 6)
 693              		.loc 1 470 0
 694 0040 8DF80800 		strbls	r0, [sp, #8]
 473:src/input.c   ****         memcpy(RSP_DATA.sb_auth_code, TlvVPtr(pbTlv), kbdbuf[0]);
 695              		.loc 1 473 0
 696 0044 1B48     		ldr	r0, .L86+4
 472:src/input.c   ****         memset(RSP_DATA.sb_auth_code, ' ',6);
 697              		.loc 1 472 0
 698 0046 88BF     		it	hi
 699 0048 8DF80830 		strbhi	r3, [sp, #8]
 473:src/input.c   ****         memcpy(RSP_DATA.sb_auth_code, TlvVPtr(pbTlv), kbdbuf[0]);
 700              		.loc 1 473 0
 701 004c FFF7FEFF 		bl	memset
 702              	.LVL80:
 474:src/input.c   ****         return TRUE;
 703              		.loc 1 474 0
 704 0050 2046     		mov	r0, r4
 705 0052 FFF7FEFF 		bl	TlvVPtr
 706              	.LVL81:
 707 0056 9DF80820 		ldrb	r2, [sp, #8]	@ zero_extendqisi2
 708 005a 0146     		mov	r1, r0
 709 005c 1548     		ldr	r0, .L86+4
 710 005e 22E0     		b	.L85
 711              	.LVL82:
 712              	.L74:
 480:src/input.c   ****     Disp2x16Msg(GetConstMsg(EDC_IN_APP_CODE), MW_LINE3, MW_BIGFONT);
 713              		.loc 1 480 0
 714 0060 0023     		movs	r3, #0
 715 0062 0AAC     		add	r4, sp, #40
 481:src/input.c   ****     if (!APM_GetKbd(ALPHA_INPUT+ECHO+MW_BIGFONT+MW_LINE7+RIGHT_JUST, IMIN(2)+IMAX(6), kbdbuf))
 716              		.loc 1 481 0
 717 0064 1320     		movs	r0, #19
 480:src/input.c   ****     Disp2x16Msg(GetConstMsg(EDC_IN_APP_CODE), MW_LINE3, MW_BIGFONT);
 718              		.loc 1 480 0
 719 0066 04F8203D 		strb	r3, [r4, #-32]!
 481:src/input.c   ****     if (!APM_GetKbd(ALPHA_INPUT+ECHO+MW_BIGFONT+MW_LINE7+RIGHT_JUST, IMIN(2)+IMAX(6), kbdbuf))
 720              		.loc 1 481 0
 721 006a FFF7FEFF 		bl	GetConstMsg
 722              	.LVL83:
 723 006e 4FF44071 		mov	r1, #768
 724 0072 4FF48052 		mov	r2, #4096
 725 0076 FFF7FEFF 		bl	Disp2x16Msg
ARM GAS  C:\Users\AHMED~1.ELE\AppData\Local\Temp\ccLLYyS4.s 			page 31


 726              	.LVL84:
 482:src/input.c   ****       return 0;
 727              		.loc 1 482 0
 728 007a 0094     		str	r4, [sp]
 729 007c 1020     		movs	r0, #16
 730 007e 0521     		movs	r1, #5
 731 0080 0D4A     		ldr	r2, .L86+8
 732 0082 40F20623 		movw	r3, #518
 733 0086 FFF7FEFF 		bl	lib_app_call
 734              	.LVL85:
 735 008a C0B2     		uxtb	r0, r0
 736 008c 70B1     		cbz	r0, .L73
 484:src/input.c   ****       memset(RSP_DATA.sb_auth_code, ' ',6);
 737              		.loc 1 484 0
 738 008e 9DF80850 		ldrb	r5, [sp, #8]	@ zero_extendqisi2
 739 0092 012D     		cmp	r5, #1
 740 0094 E4D9     		bls	.L74
 485:src/input.c   ****       memcpy(RSP_DATA.sb_auth_code, &kbdbuf[1], kbdbuf[0]);
 741              		.loc 1 485 0
 742 0096 2021     		movs	r1, #32
 743 0098 0622     		movs	r2, #6
 744 009a 0648     		ldr	r0, .L86+4
 745 009c FFF7FEFF 		bl	memset
 746              	.LVL86:
 486:src/input.c   ****       return 1;
 747              		.loc 1 486 0
 748 00a0 0448     		ldr	r0, .L86+4
 749 00a2 611C     		adds	r1, r4, #1
 750 00a4 2A46     		mov	r2, r5
 751              	.L85:
 752 00a6 FFF7FEFF 		bl	memcpy
 753              	.LVL87:
 487:src/input.c   ****     }
 754              		.loc 1 487 0
 755 00aa 0120     		movs	r0, #1
 756              	.L73:
 490:src/input.c   **** //*****************************************************************************
 757              		.loc 1 490 0
 758 00ac 0BB0     		add	sp, sp, #44
 759              		.cfi_def_cfa_offset 12
 760              		@ sp needed
 761 00ae 30BD     		pop	{r4, r5, pc}
 762              	.L87:
 763              		.align	2
 764              	.L86:
 765 00b0 00000000 		.word	gGDS
 766 00b4 67050000 		.word	gGTS+1383
 767 00b8 FF172200 		.word	2234367
 768              		.cfi_endproc
 769              	.LFE9:
 770              		.size	GetAuthCode, .-GetAuthCode
 771              		.section	.text.GetAmount,"ax",%progbits
 772              		.align	1
 773              		.global	GetAmount
 774              		.thumb
 775              		.thumb_func
 776              		.type	GetAmount, %function
ARM GAS  C:\Users\AHMED~1.ELE\AppData\Local\Temp\ccLLYyS4.s 			page 32


 777              	GetAmount:
 778              	.LFB10:
 502:src/input.c   ****   BYTE kbdbuf[32];
 779              		.loc 1 502 0
 780              		.cfi_startproc
 781              		@ args = 0, pretend = 0, frame = 32
 782              		@ frame_needed = 0, uses_anonymous_args = 0
 783              	.LVL88:
 784 0000 2DE9F047 		push	{r4, r5, r6, r7, r8, r9, r10, lr}
 785              		.cfi_def_cfa_offset 32
 786              		.cfi_offset 4, -32
 787              		.cfi_offset 5, -28
 788              		.cfi_offset 6, -24
 789              		.cfi_offset 7, -20
 790              		.cfi_offset 8, -16
 791              		.cfi_offset 9, -12
 792              		.cfi_offset 10, -8
 793              		.cfi_offset 14, -4
 506:src/input.c   **** 
 794              		.loc 1 506 0
 795 0004 0023     		movs	r3, #0
 796 0006 8C4C     		ldr	r4, .L132
 797 0008 0022     		movs	r2, #0
 509:src/input.c   ****     ecrdata_len = gGDS->i_ecr_len - 2;
 798              		.loc 1 509 0
 799 000a 8C4D     		ldr	r5, .L132+4
 506:src/input.c   **** 
 800              		.loc 1 506 0
 801 000c C4E90823 		strd	r2, [r4, #32]
 509:src/input.c   ****     ecrdata_len = gGDS->i_ecr_len - 2;
 802              		.loc 1 509 0
 803 0010 2B68     		ldr	r3, [r5]
 502:src/input.c   ****   BYTE kbdbuf[32];
 804              		.loc 1 502 0
 805 0012 8AB0     		sub	sp, sp, #40
 806              		.cfi_def_cfa_offset 72
 509:src/input.c   ****     ecrdata_len = gGDS->i_ecr_len - 2;
 807              		.loc 1 509 0
 808 0014 03F58443 		add	r3, r3, #16896
 502:src/input.c   ****   BYTE kbdbuf[32];
 809              		.loc 1 502 0
 810 0018 8046     		mov	r8, r0
 509:src/input.c   ****     ecrdata_len = gGDS->i_ecr_len - 2;
 811              		.loc 1 509 0
 812 001a DB6D     		ldr	r3, [r3, #92]
 502:src/input.c   ****   BYTE kbdbuf[32];
 813              		.loc 1 502 0
 814 001c 0F46     		mov	r7, r1
 509:src/input.c   ****     ecrdata_len = gGDS->i_ecr_len - 2;
 815              		.loc 1 509 0
 816 001e 022B     		cmp	r3, #2
 817 0020 0ADC     		bgt	.L89
 818              	.LVL89:
 819              	.L92:
 517:src/input.c   ****     INPUT.dd_amount = STIS_TERM_DATA.dd_default_amount;
 820              		.loc 1 517 0
 821 0022 2B68     		ldr	r3, [r5]
ARM GAS  C:\Users\AHMED~1.ELE\AppData\Local\Temp\ccLLYyS4.s 			page 33


 822 0024 03F5B463 		add	r3, r3, #1440
 823 0028 D3E90023 		ldrd	r2, [r3]
 824 002c 52EA0301 		orrs	r1, r2, r3
 825 0030 0AD0     		beq	.L131
 518:src/input.c   ****     return TRUE;
 826              		.loc 1 518 0
 827 0032 C4E90623 		strd	r2, [r4, #24]
 828 0036 F9E0     		b	.L129
 829              	.LVL90:
 830              	.L89:
 512:src/input.c   ****       if (INPUT.dd_amount != 0)
 831              		.loc 1 512 0
 832 0038 FFF7FEFF 		bl	EcrGetAmount
 833              	.LVL91:
 513:src/input.c   ****         return TRUE;
 834              		.loc 1 513 0
 835 003c 50EA0103 		orrs	r3, r0, r1
 512:src/input.c   ****       if (INPUT.dd_amount != 0)
 836              		.loc 1 512 0
 837 0040 C4E90601 		strd	r0, [r4, #24]
 513:src/input.c   ****         return TRUE;
 838              		.loc 1 513 0
 839 0044 EDD0     		beq	.L92
 840 0046 F1E0     		b	.L129
 841              	.L131:
 522:src/input.c   ****   while (1) {
 842              		.loc 1 522 0
 843 0048 0023     		movs	r3, #0
 844 004a 0F20     		movs	r0, #15
 845 004c 0093     		str	r3, [sp]
 846 004e 2321     		movs	r1, #35
 847 0050 4FF44072 		mov	r2, #768
 848 0054 FFF7FEFF 		bl	lib_app_call
 849              	.LVL92:
 850              	.L94:
 524:src/input.c   ****       Disp2x16Msg(GetConstMsg(EDC_IN_BASE_AMT), MW_LINE3, MW_BIGFONT);
 851              		.loc 1 524 0
 852 0058 B8F1000F 		cmp	r8, #0
 853 005c 01D0     		beq	.L95
 525:src/input.c   ****     else
 854              		.loc 1 525 0
 855 005e 1420     		movs	r0, #20
 856 0060 00E0     		b	.L128
 857              	.L95:
 527:src/input.c   **** 
 858              		.loc 1 527 0
 859 0062 1520     		movs	r0, #21
 860              	.L128:
 861 0064 FFF7FEFF 		bl	GetConstMsg
 862              	.LVL93:
 863 0068 4FF44071 		mov	r1, #768
 864 006c 4FF48052 		mov	r2, #4096
 865 0070 FFF7FEFF 		bl	Disp2x16Msg
 866              	.LVL94:
 529:src/input.c   ****   //  memcpy(&kbdbuf[1], STIS_TERM_CFG.sb_currency_name, 3);
 867              		.loc 1 529 0
 868 0074 002F     		cmp	r7, #0
ARM GAS  C:\Users\AHMED~1.ELE\AppData\Local\Temp\ccLLYyS4.s 			page 34


 869 0076 14BF     		ite	ne
 870 0078 0523     		movne	r3, #5
 871 007a 0423     		moveq	r3, #4
 531:src/input.c   ****     kbdbuf[4] = ' ';//STIS_TERM_CFG.b_currency;
 872              		.loc 1 531 0
 873 007c 617D     		ldrb	r1, [r4, #21]	@ zero_extendqisi2
 529:src/input.c   ****   //  memcpy(&kbdbuf[1], STIS_TERM_CFG.sb_currency_name, 3);
 874              		.loc 1 529 0
 875 007e 8DF80830 		strb	r3, [sp, #8]
 531:src/input.c   ****     kbdbuf[4] = ' ';//STIS_TERM_CFG.b_currency;
 876              		.loc 1 531 0
 877 0082 6F4B     		ldr	r3, .L132+8
 878 0084 0322     		movs	r2, #3
 879 0086 03EBC101 		add	r1, r3, r1, lsl #3
 880 008a 0DF10900 		add	r0, sp, #9
 881 008e FFF7FEFF 		bl	memcpy
 882              	.LVL95:
 532:src/input.c   ****     kbdbuf[5] = (BYTE)aFirstKey;
 883              		.loc 1 532 0
 884 0092 2023     		movs	r3, #32
 534:src/input.c   ****                     IMIN(1)+IMAX(STIS_TERM_CFG.b_trans_amount_len),  kbdbuf))
 885              		.loc 1 534 0
 886 0094 DFF8AC91 		ldr	r9, .L132+12
 532:src/input.c   ****     kbdbuf[5] = (BYTE)aFirstKey;
 887              		.loc 1 532 0
 888 0098 8DF80C30 		strb	r3, [sp, #12]
 534:src/input.c   ****                     IMIN(1)+IMAX(STIS_TERM_CFG.b_trans_amount_len),  kbdbuf))
 889              		.loc 1 534 0
 890 009c 2B68     		ldr	r3, [r5]
 891 009e 02AE     		add	r6, sp, #8
 892 00a0 93F86420 		ldrb	r2, [r3, #100]	@ zero_extendqisi2
 893 00a4 93F86330 		ldrb	r3, [r3, #99]	@ zero_extendqisi2
 894 00a8 59F82220 		ldr	r2, [r9, r2, lsl #2]
 895 00ac 0096     		str	r6, [sp]
 896 00ae 02F5C202 		add	r2, r2, #6356992
 897 00b2 1020     		movs	r0, #16
 898 00b4 0521     		movs	r1, #5
 899 00b6 02F5B852 		add	r2, r2, #5888
 900 00ba 03F58073 		add	r3, r3, #256
 533:src/input.c   ****     if (!APM_GetKbd(PREFIX_ENB+ECHO+AMOUNT_INPUT+MW_BIGFONT+MW_LINE7+KDecimalPos[STIS_TERM_CFG.b_de
 901              		.loc 1 533 0
 902 00be 8DF80D70 		strb	r7, [sp, #13]
 534:src/input.c   ****                     IMIN(1)+IMAX(STIS_TERM_CFG.b_trans_amount_len),  kbdbuf))
 903              		.loc 1 534 0
 904 00c2 FFF7FEFF 		bl	lib_app_call
 905              	.LVL96:
 906 00c6 10F0FF0F 		tst	r0, #255
 907 00ca 72D0     		beq	.L130
 538:src/input.c   ****       memset(&kbdbuf[kbdbuf[0]+1], '0', 2);
 908              		.loc 1 538 0
 909 00cc 5B4B     		ldr	r3, .L132+4
 910 00ce D3F800A0 		ldr	r10, [r3]
 911 00d2 9AF86430 		ldrb	r3, [r10, #100]	@ zero_extendqisi2
 912 00d6 012B     		cmp	r3, #1
 913 00d8 0FD8     		bhi	.L99
 539:src/input.c   ****       kbdbuf[0] += (2-STIS_TERM_CFG.b_decimal_pos);
 914              		.loc 1 539 0
ARM GAS  C:\Users\AHMED~1.ELE\AppData\Local\Temp\ccLLYyS4.s 			page 35


 915 00da 9DF80800 		ldrb	r0, [sp, #8]	@ zero_extendqisi2
 916 00de 0222     		movs	r2, #2
 917 00e0 0130     		adds	r0, r0, #1
 918 00e2 3044     		add	r0, r0, r6
 919 00e4 3021     		movs	r1, #48
 920 00e6 FFF7FEFF 		bl	memset
 921              	.LVL97:
 922 00ea 9DF80830 		ldrb	r3, [sp, #8]	@ zero_extendqisi2
 540:src/input.c   ****     }
 923              		.loc 1 540 0
 924 00ee 9AF86420 		ldrb	r2, [r10, #100]	@ zero_extendqisi2
 925 00f2 0233     		adds	r3, r3, #2
 926 00f4 9B1A     		subs	r3, r3, r2
 927 00f6 8DF80830 		strb	r3, [sp, #8]
 928              	.L99:
 542:src/input.c   **** 
 929              		.loc 1 542 0
 930 00fa 701C     		adds	r0, r6, #1
 931 00fc 9DF80810 		ldrb	r1, [sp, #8]	@ zero_extendqisi2
 932 0100 FFF7FEFF 		bl	decbin8b
 933              	.LVL98:
 934 0104 C4E90601 		strd	r0, [r4, #24]
 544:src/input.c   ****       return 1;
 935              		.loc 1 544 0
 936 0108 B8F1000F 		cmp	r8, #0
 937 010c 00F08E80 		beq	.L129
 544:src/input.c   ****       return 1;
 938              		.loc 1 544 0 is_stmt 0 discriminator 1
 939 0110 FFF7FEFF 		bl	PromptTips
 940              	.LVL99:
 941 0114 0028     		cmp	r0, #0
 942 0116 00F08980 		beq	.L129
 547:src/input.c   ****     if (!APM_GetKbd(AMOUNT_INPUT+MW_BIGFONT+MW_LINE7+KDecimalPos[STIS_TERM_CFG.b_decimal_pos], 
 943              		.loc 1 547 0 is_stmt 1
 944 011a 1620     		movs	r0, #22
 945 011c FFF7FEFF 		bl	GetConstMsg
 946              	.LVL100:
 947 0120 4FF44071 		mov	r1, #768
 948 0124 4FF48052 		mov	r2, #4096
 949 0128 FFF7FEFF 		bl	Disp2x16Msg
 950              	.LVL101:
 548:src/input.c   ****                     IMIN(1)+IMAX(STIS_TERM_CFG.b_trans_amount_len),  kbdbuf))
 951              		.loc 1 548 0
 952 012c 2B68     		ldr	r3, [r5]
 953 012e 1020     		movs	r0, #16
 954 0130 93F86420 		ldrb	r2, [r3, #100]	@ zero_extendqisi2
 955 0134 93F86330 		ldrb	r3, [r3, #99]	@ zero_extendqisi2
 956 0138 59F82220 		ldr	r2, [r9, r2, lsl #2]
 957 013c 0096     		str	r6, [sp]
 958 013e 02F58B32 		add	r2, r2, #71168
 959 0142 0521     		movs	r1, #5
 960 0144 02F58072 		add	r2, r2, #256
 961 0148 03F58073 		add	r3, r3, #256
 962 014c FFF7FEFF 		bl	lib_app_call
 963              	.LVL102:
 964 0150 10F0FF0F 		tst	r0, #255
 965 0154 2DD0     		beq	.L130
ARM GAS  C:\Users\AHMED~1.ELE\AppData\Local\Temp\ccLLYyS4.s 			page 36


 551:src/input.c   ****       INPUT.dd_tip = 0;
 966              		.loc 1 551 0
 967 0156 9DF80800 		ldrb	r0, [sp, #8]	@ zero_extendqisi2
 968 015a 28B9     		cbnz	r0, .L102
 552:src/input.c   ****     else {
 969              		.loc 1 552 0
 970 015c 0020     		movs	r0, #0
 971 015e 0021     		movs	r1, #0
 972 0160 354B     		ldr	r3, .L132
 973 0162 C3E90801 		strd	r0, [r3, #32]
 974 0166 1BE0     		b	.L103
 975              	.L102:
 554:src/input.c   ****         memset(&kbdbuf[kbdbuf[0]+1], '0', 2);
 976              		.loc 1 554 0
 977 0168 344B     		ldr	r3, .L132+4
 978 016a D3F80090 		ldr	r9, [r3]
 979 016e 99F86430 		ldrb	r3, [r9, #100]	@ zero_extendqisi2
 980 0172 012B     		cmp	r3, #1
 981 0174 0DD8     		bhi	.L104
 555:src/input.c   ****         kbdbuf[0] += (2-STIS_TERM_CFG.b_decimal_pos);
 982              		.loc 1 555 0
 983 0176 0130     		adds	r0, r0, #1
 984 0178 0222     		movs	r2, #2
 985 017a 3044     		add	r0, r0, r6
 986 017c 3021     		movs	r1, #48
 987 017e FFF7FEFF 		bl	memset
 988              	.LVL103:
 989 0182 9DF80830 		ldrb	r3, [sp, #8]	@ zero_extendqisi2
 556:src/input.c   ****       }
 990              		.loc 1 556 0
 991 0186 99F86420 		ldrb	r2, [r9, #100]	@ zero_extendqisi2
 992 018a 0233     		adds	r3, r3, #2
 993 018c 9B1A     		subs	r3, r3, r2
 994 018e 8DF80830 		strb	r3, [sp, #8]
 995              	.L104:
 558:src/input.c   ****     }
 996              		.loc 1 558 0
 997 0192 701C     		adds	r0, r6, #1
 998 0194 9DF80810 		ldrb	r1, [sp, #8]	@ zero_extendqisi2
 999 0198 FFF7FEFF 		bl	decbin8b
 1000              	.LVL104:
 1001 019c C4E90801 		strd	r0, [r4, #32]
 1002              	.L103:
 561:src/input.c   ****       DispErrorMsg(GetConstMsg(EDC_IN_INV_TIPS));
 1003              		.loc 1 561 0
 1004 01a0 FFF7FEFF 		bl	OverMargin
 1005              	.LVL105:
 1006 01a4 0646     		mov	r6, r0
 1007 01a6 30B1     		cbz	r0, .L105
 562:src/input.c   ****       return(FALSE);
 1008              		.loc 1 562 0
 1009 01a8 1720     		movs	r0, #23
 1010 01aa FFF7FEFF 		bl	GetConstMsg
 1011              	.LVL106:
 1012 01ae FFF7FEFF 		bl	DispErrorMsg
 1013              	.LVL107:
 1014              	.L130:
ARM GAS  C:\Users\AHMED~1.ELE\AppData\Local\Temp\ccLLYyS4.s 			page 37


 563:src/input.c   ****     }
 1015              		.loc 1 563 0
 1016 01b2 0026     		movs	r6, #0
 1017 01b4 3BE0     		b	.L93
 1018              	.L105:
 566:src/input.c   ****     DispLineMW(GetConstMsg(EDC_IN_TOTAL_PROMPT), MW_LINE1, MW_CLRDISP|MW_BIGFONT);
 1019              		.loc 1 566 0
 1020 01b6 D4E90801 		ldrd	r0, [r4, #32]
 1021 01ba D4E90623 		ldrd	r2, [r4, #24]
 1022 01be 1218     		adds	r2, r2, r0
 1023 01c0 4B41     		adcs	r3, r3, r1
 1024              	.LBB5:
 567:src/input.c   ****     DispAmount(INPUT.dd_amount, MW_LINE3, MW_BIGFONT);
 1025              		.loc 1 567 0
 1026 01c2 1820     		movs	r0, #24
 1027              	.LBE5:
 566:src/input.c   ****     DispLineMW(GetConstMsg(EDC_IN_TOTAL_PROMPT), MW_LINE1, MW_CLRDISP|MW_BIGFONT);
 1028              		.loc 1 566 0
 1029 01c4 C4E90623 		strd	r2, [r4, #24]
 1030              	.LBB6:
 567:src/input.c   ****     DispAmount(INPUT.dd_amount, MW_LINE3, MW_BIGFONT);
 1031              		.loc 1 567 0
 1032 01c8 FFF7FEFF 		bl	GetConstMsg
 1033              	.LVL108:
 1034 01cc FFF7FEFF 		bl	strlen
 1035              	.LVL109:
 1036 01d0 8246     		mov	r10, r0
 1037              	.LVL110:
 1038 01d2 0AF10101 		add	r1, r10, #1
 1039 01d6 9220     		movs	r0, #146
 1040              	.LVL111:
 1041 01d8 FFF7FEFF 		bl	sys_func1
 1042              	.LVL112:
 1043 01dc 8146     		mov	r9, r0
 1044 01de B8B1     		cbz	r0, .L106
 567:src/input.c   ****     DispAmount(INPUT.dd_amount, MW_LINE3, MW_BIGFONT);
 1045              		.loc 1 567 0 is_stmt 0 discriminator 1
 1046 01e0 1820     		movs	r0, #24
 1047              	.LVL113:
 1048 01e2 FFF7FEFF 		bl	GetConstMsg
 1049              	.LVL114:
 1050 01e6 5246     		mov	r2, r10
 1051 01e8 0146     		mov	r1, r0
 1052 01ea 4846     		mov	r0, r9
 1053 01ec FFF7FEFF 		bl	memcpy
 1054              	.LVL115:
 1055 01f0 4FF48453 		mov	r3, #4224
 1056 01f4 09F80A60 		strb	r6, [r9, r10]
 1057 01f8 2521     		movs	r1, #37
 1058 01fa 0093     		str	r3, [sp]
 1059 01fc 0F20     		movs	r0, #15
 1060 01fe 4A46     		mov	r2, r9
 1061 0200 4FF48073 		mov	r3, #256
 1062 0204 FFF7FEFF 		bl	lib_app_call
 1063              	.LVL116:
 1064 0208 9420     		movs	r0, #148
 1065 020a 4946     		mov	r1, r9
ARM GAS  C:\Users\AHMED~1.ELE\AppData\Local\Temp\ccLLYyS4.s 			page 38


 1066 020c FFF7FEFF 		bl	sys_func1
 1067              	.LVL117:
 1068              	.L106:
 1069              	.LBE6:
 568:src/input.c   ****     switch (PromptYesNo()) {
 1070              		.loc 1 568 0 is_stmt 1
 1071 0210 D4E90601 		ldrd	r0, [r4, #24]
 1072 0214 4FF44072 		mov	r2, #768
 1073 0218 4FF48053 		mov	r3, #4096
 1074 021c FFF7FEFF 		bl	DispAmount
 1075              	.LVL118:
 569:src/input.c   ****       case 0: /* cancel key */
 1076              		.loc 1 569 0
 1077 0220 FFF7FEFF 		bl	PromptYesNo
 1078              	.LVL119:
 1079 0224 18B1     		cbz	r0, .L93
 1080 0226 0228     		cmp	r0, #2
 1081 0228 7FF416AF 		bne	.L94
 1082              	.LVL120:
 1083              	.L129:
 573:src/input.c   ****     }
 1084              		.loc 1 573 0
 1085 022c 0126     		movs	r6, #1
 1086              	.L93:
 576:src/input.c   **** 
 1087              		.loc 1 576 0
 1088 022e 3046     		mov	r0, r6
 1089 0230 0AB0     		add	sp, sp, #40
 1090              		.cfi_def_cfa_offset 32
 1091              		@ sp needed
 1092 0232 BDE8F087 		pop	{r4, r5, r6, r7, r8, r9, r10, pc}
 1093              	.LVL121:
 1094              	.L133:
 1095 0236 00BF     		.align	2
 1096              	.L132:
 1097 0238 00000000 		.word	gGTS
 1098 023c 00000000 		.word	gGDS
 1099 0240 00000000 		.word	.LANCHOR0
 1100 0244 00000000 		.word	.LANCHOR1
 1101              		.cfi_endproc
 1102              	.LFE10:
 1103              		.size	GetAmount, .-GetAmount
 1104              		.section	.text.Expire_diff,"ax",%progbits
 1105              		.align	1
 1106              		.global	Expire_diff
 1107              		.thumb
 1108              		.thumb_func
 1109              		.type	Expire_diff, %function
 1110              	Expire_diff:
 1111              	.LFB11:
 588:src/input.c   **** struct DATETIME dtg;
 1112              		.loc 1 588 0
 1113              		.cfi_startproc
 1114              		@ args = 0, pretend = 0, frame = 8
 1115              		@ frame_needed = 0, uses_anonymous_args = 0
 1116 0000 30B5     		push	{r4, r5, lr}
 1117              		.cfi_def_cfa_offset 12
ARM GAS  C:\Users\AHMED~1.ELE\AppData\Local\Temp\ccLLYyS4.s 			page 39


 1118              		.cfi_offset 4, -12
 1119              		.cfi_offset 5, -8
 1120              		.cfi_offset 14, -4
 1121 0002 85B0     		sub	sp, sp, #20
 1122              		.cfi_def_cfa_offset 32
 591:src/input.c   ****       var_i = (BYTE)bcd2bin(dtg.b_year);
 1123              		.loc 1 591 0
 1124 0004 02A8     		add	r0, sp, #8
 1125 0006 FFF7FEFF 		bl	ReadRTC
 1126              	.LVL122:
 592:src/input.c   ****       var_j = (BYTE)bcd2bin(INPUT.sb_exp_date[0]);
 1127              		.loc 1 592 0
 1128 000a 9DF80900 		ldrb	r0, [sp, #9]	@ zero_extendqisi2
 1129 000e FFF7FEFF 		bl	bcd2bin
 1130              	.LVL123:
 593:src/input.c   ****       if (var_i == var_j) {
 1131              		.loc 1 593 0
 1132 0012 104C     		ldr	r4, .L138
 592:src/input.c   ****       var_j = (BYTE)bcd2bin(INPUT.sb_exp_date[0]);
 1133              		.loc 1 592 0
 1134 0014 C5B2     		uxtb	r5, r0
 1135              	.LVL124:
 593:src/input.c   ****       if (var_i == var_j) {
 1136              		.loc 1 593 0
 1137 0016 E07C     		ldrb	r0, [r4, #19]	@ zero_extendqisi2
 1138 0018 FFF7FEFF 		bl	bcd2bin
 1139              	.LVL125:
 1140 001c C0B2     		uxtb	r0, r0
 1141              	.LVL126:
 594:src/input.c   ****         if (INPUT.sb_exp_date[1] >= dtg.b_month)
 1142              		.loc 1 594 0
 1143 001e 8542     		cmp	r5, r0
 1144 0020 05D1     		bne	.L135
 595:src/input.c   ****           return TRUE;
 1145              		.loc 1 595 0
 1146 0022 227D     		ldrb	r2, [r4, #20]	@ zero_extendqisi2
 1147 0024 9DF80A30 		ldrb	r3, [sp, #10]	@ zero_extendqisi2
 1148 0028 9A42     		cmp	r2, r3
 1149 002a 01D3     		bcc	.L137
 1150 002c 0FE0     		b	.L136
 1151              	.L135:
 597:src/input.c   **** 	   return TRUE;
 1152              		.loc 1 597 0
 1153 002e 0ED8     		bhi	.L136
 1154              	.L137:
 1155              	.LBB9:
 1156              	.LBB10:
 600:src/input.c   ****    if (APM_WaitKey(KBD_TIMEOUT, 300) == MWKEY_ENTER) {  
 1157              		.loc 1 600 0
 1158 0030 1B20     		movs	r0, #27
 1159              	.LVL127:
 1160 0032 FFF7FEFF 		bl	GetConstMsg
 1161              	.LVL128:
 1162 0036 FFF7FEFF 		bl	DispErrorMsg
 1163              	.LVL129:
 601:src/input.c   ****    }
 1164              		.loc 1 601 0
ARM GAS  C:\Users\AHMED~1.ELE\AppData\Local\Temp\ccLLYyS4.s 			page 40


 1165 003a 0023     		movs	r3, #0
 1166 003c 1020     		movs	r0, #16
 1167 003e 0093     		str	r3, [sp]
 1168 0040 0321     		movs	r1, #3
 1169 0042 42F22832 		movw	r2, #9000
 1170 0046 4FF49673 		mov	r3, #300
 1171 004a FFF7FEFF 		bl	lib_app_call
 1172              	.LVL130:
 1173              	.L136:
 1174              	.LBE10:
 1175              	.LBE9:
 606:src/input.c   **** 
 1176              		.loc 1 606 0
 1177 004e 0120     		movs	r0, #1
 1178 0050 05B0     		add	sp, sp, #20
 1179              		.cfi_def_cfa_offset 12
 1180              		@ sp needed
 1181 0052 30BD     		pop	{r4, r5, pc}
 1182              	.LVL131:
 1183              	.L139:
 1184              		.align	2
 1185              	.L138:
 1186 0054 00000000 		.word	gGTS
 1187              		.cfi_endproc
 1188              	.LFE11:
 1189              		.size	Expire_diff, .-Expire_diff
 1190              		.section	.text.ValidCard,"ax",%progbits
 1191              		.align	1
 1192              		.global	ValidCard
 1193              		.thumb
 1194              		.thumb_func
 1195              		.type	ValidCard, %function
 1196              	ValidCard:
 1197              	.LFB7:
 343:src/input.c   ****   BYTE idx, tlen;
 1198              		.loc 1 343 0
 1199              		.cfi_startproc
 1200              		@ args = 0, pretend = 0, frame = 24
 1201              		@ frame_needed = 0, uses_anonymous_args = 0
 1202 0000 2DE9F041 		push	{r4, r5, r6, r7, r8, lr}
 1203              		.cfi_def_cfa_offset 24
 1204              		.cfi_offset 4, -24
 1205              		.cfi_offset 5, -20
 1206              		.cfi_offset 6, -16
 1207              		.cfi_offset 7, -12
 1208              		.cfi_offset 8, -8
 1209              		.cfi_offset 14, -4
 349:src/input.c   ****     if (!InCardTable())
 1210              		.loc 1 349 0
 1211 0004 BA4C     		ldr	r4, .L223
 343:src/input.c   ****   BYTE idx, tlen;
 1212              		.loc 1 343 0
 1213 0006 86B0     		sub	sp, sp, #24
 1214              		.cfi_def_cfa_offset 48
 347:src/input.c   **** 
 1215              		.loc 1 347 0
 1216 0008 BA48     		ldr	r0, .L223+4
ARM GAS  C:\Users\AHMED~1.ELE\AppData\Local\Temp\ccLLYyS4.s 			page 41


 1217 000a 2021     		movs	r1, #32
 1218 000c 1A22     		movs	r2, #26
 1219 000e FFF7FEFF 		bl	memset
 1220              	.LVL132:
 349:src/input.c   ****     if (!InCardTable())
 1221              		.loc 1 349 0
 1222 0012 94F83430 		ldrb	r3, [r4, #52]	@ zero_extendqisi2
 1223 0016 2546     		mov	r5, r4
 1224 0018 03F0FB03 		and	r3, r3, #251
 1225 001c 492B     		cmp	r3, #73
 1226 001e 38D1     		bne	.L141
 350:src/input.c   ****       return FALSE;
 1227              		.loc 1 350 0
 1228 0020 FFF7FEFF 		bl	InCardTable
 1229              	.LVL133:
 1230 0024 38B3     		cbz	r0, .L219
 352:src/input.c   ****       split(&disp_pan[1], INPUT.sb_pan, 10);
 1231              		.loc 1 352 0
 1232 0026 FFF7FEFF 		bl	CheckPAN
 1233              	.LVL134:
 1234 002a C0B1     		cbz	r0, .L144
 353:src/input.c   ****       disp_pan[0] = (BYTE)fndb(&disp_pan[1], 'F', 19);
 1235              		.loc 1 353 0
 1236 002c 04F10901 		add	r1, r4, #9
 1237 0030 0DF10100 		add	r0, sp, #1
 1238 0034 0A22     		movs	r2, #10
 1239 0036 FFF7FEFF 		bl	split
 1240              	.LVL135:
 354:src/input.c   ****       if (!chk_digit_ok(&disp_pan[1], disp_pan[0])) {
 1241              		.loc 1 354 0
 1242 003a 4621     		movs	r1, #70
 1243 003c 1322     		movs	r2, #19
 1244 003e 0DF10100 		add	r0, sp, #1
 1245 0042 FFF7FEFF 		bl	fndb
 1246              	.LVL136:
 1247 0046 0146     		mov	r1, r0
 1248 0048 8DF80000 		strb	r0, [sp]
 355:src/input.c   ****         DispErrorMsg(GetConstMsg(EDC_IN_CHK_DIGIT_ERROR));
 1249              		.loc 1 355 0
 1250 004c C9B2     		uxtb	r1, r1
 1251 004e 0DF10100 		add	r0, sp, #1
 1252 0052 FFF7FEFF 		bl	chk_digit_ok
 1253              	.LVL137:
 1254 0056 0446     		mov	r4, r0
 1255 0058 0028     		cmp	r0, #0
 1256 005a 00F00E81 		beq	.L220
 1257              	.L144:
 360:src/input.c   ****       DispErrorMsg(GetConstMsg(EDC_IN_SWIPE_CARD));
 1258              		.loc 1 360 0
 1259 005e 95F83430 		ldrb	r3, [r5, #52]	@ zero_extendqisi2
 1260 0062 492B     		cmp	r3, #73
 1261 0064 09D1     		bne	.L145
 360:src/input.c   ****       DispErrorMsg(GetConstMsg(EDC_IN_SWIPE_CARD));
 1262              		.loc 1 360 0 is_stmt 0 discriminator 1
 1263 0066 FFF7FEFF 		bl	EMVProcDisable
 1264              	.LVL138:
 1265 006a 30B1     		cbz	r0, .L145
ARM GAS  C:\Users\AHMED~1.ELE\AppData\Local\Temp\ccLLYyS4.s 			page 42


 361:src/input.c   ****       return FALSE;
 1266              		.loc 1 361 0 is_stmt 1
 1267 006c 1120     		movs	r0, #17
 1268 006e FFF7FEFF 		bl	GetConstMsg
 1269              	.LVL139:
 1270 0072 FFF7FEFF 		bl	DispErrorMsg
 1271              	.LVL140:
 1272              	.L219:
 362:src/input.c   ****     }
 1273              		.loc 1 362 0
 1274 0076 0024     		movs	r4, #0
 1275 0078 36E1     		b	.L143
 1276              	.L145:
 364:src/input.c   ****       if (!ValidEMVData()) {
 1277              		.loc 1 364 0
 1278 007a 95F83430 		ldrb	r3, [r5, #52]	@ zero_extendqisi2
 1279 007e 492B     		cmp	r3, #73
 1280 0080 01D0     		beq	.L146
 1281              	.L147:
 370:src/input.c   ****   }
 1282              		.loc 1 370 0
 1283 0082 0124     		movs	r4, #1
 1284 0084 30E1     		b	.L143
 1285              	.L146:
 365:src/input.c   ****         DispErrorMsg(GetConstMsg(EDC_RSP_READ_ERROR));
 1286              		.loc 1 365 0
 1287 0086 FFF7FEFF 		bl	ValidEMVData
 1288              	.LVL141:
 1289 008a 0446     		mov	r4, r0
 1290 008c 0028     		cmp	r0, #0
 1291 008e F8D1     		bne	.L147
 1292 0090 0CE0     		b	.L221
 1293              	.L141:
 1294              	.LBB21:
 1295              	.LBB22:
 103:src/input.c   **** }
 1296              		.loc 1 103 0
 1297 0092 94F8A032 		ldrb	r3, [r4, #672]	@ zero_extendqisi2
 1298 0096 013B     		subs	r3, r3, #1
 1299              	.LBE22:
 1300              	.LBE21:
 373:src/input.c   ****     DispErrorMsg(GetConstMsg(EDC_RSP_READ_ERROR));
 1301              		.loc 1 373 0
 1302 0098 DBB2     		uxtb	r3, r3
 1303 009a FD2B     		cmp	r3, #253
 1304 009c 0AD9     		bls	.L148
 1305              	.LBB23:
 1306              	.LBB24:
  91:src/input.c   **** }
 1307              		.loc 1 91 0
 1308 009e 94F80032 		ldrb	r3, [r4, #512]	@ zero_extendqisi2
 1309 00a2 0024     		movs	r4, #0
 1310 00a4 013B     		subs	r3, r3, #1
 1311              	.LBE24:
 1312              	.LBE23:
 373:src/input.c   ****     DispErrorMsg(GetConstMsg(EDC_RSP_READ_ERROR));
 1313              		.loc 1 373 0
ARM GAS  C:\Users\AHMED~1.ELE\AppData\Local\Temp\ccLLYyS4.s 			page 43


 1314 00a6 DBB2     		uxtb	r3, r3
 1315 00a8 FD2B     		cmp	r3, #253
 1316 00aa 01D9     		bls	.L149
 1317              	.L221:
 374:src/input.c   ****     return FALSE;
 1318              		.loc 1 374 0
 1319 00ac 7420     		movs	r0, #116
 1320 00ae 17E1     		b	.L218
 1321              	.L149:
 378:src/input.c   ****   if (!Trk1Ready())
 1322              		.loc 1 378 0
 1323 00b0 85F8A042 		strb	r4, [r5, #672]
 1324              	.L148:
 1325              	.LBB25:
 1326              	.LBB26:
  91:src/input.c   **** }
 1327              		.loc 1 91 0
 1328 00b4 95F80032 		ldrb	r3, [r5, #512]	@ zero_extendqisi2
 1329              	.LBE26:
 1330              	.LBE25:
 382:src/input.c   ****   disp_pan[0] = (BYTE) ExtractPAN(INPUT.sb_pan, INPUT.sb_exp_date);
 1331              		.loc 1 382 0
 1332 00b8 8F48     		ldr	r0, .L223+8
 1333              	.LBB28:
 1334              	.LBB27:
  91:src/input.c   **** }
 1335              		.loc 1 91 0
 1336 00ba 013B     		subs	r3, r3, #1
 1337              	.LBE27:
 1338              	.LBE28:
 382:src/input.c   ****   disp_pan[0] = (BYTE) ExtractPAN(INPUT.sb_pan, INPUT.sb_exp_date);
 1339              		.loc 1 382 0
 1340 00bc FF21     		movs	r1, #255
 379:src/input.c   ****     INPUT.s_trk1buf.b_len = 0;
 1341              		.loc 1 379 0
 1342 00be DBB2     		uxtb	r3, r3
 1343 00c0 FD2B     		cmp	r3, #253
 380:src/input.c   **** 
 1344              		.loc 1 380 0
 1345 00c2 84BF     		itt	hi
 1346 00c4 0022     		movhi	r2, #0
 1347 00c6 8A4B     		ldrhi	r3, .L223
 1348              	.LBB29:
 1349              	.LBB30:
 177:src/input.c   ****     for (idx=0;idx < INPUT.s_trk1buf.b_len; idx++) {
 1350              		.loc 1 177 0
 1351 00c8 894F     		ldr	r7, .L223
 1352              	.LBE30:
 1353              	.LBE29:
 380:src/input.c   **** 
 1354              		.loc 1 380 0
 1355 00ca 88BF     		it	hi
 1356 00cc 83F80022 		strbhi	r2, [r3, #512]
 382:src/input.c   ****   disp_pan[0] = (BYTE) ExtractPAN(INPUT.sb_pan, INPUT.sb_exp_date);
 1357              		.loc 1 382 0
 1358 00d0 0A22     		movs	r2, #10
 1359 00d2 FFF7FEFF 		bl	memset
ARM GAS  C:\Users\AHMED~1.ELE\AppData\Local\Temp\ccLLYyS4.s 			page 44


 1360              	.LVL142:
 1361              	.LBB32:
 1362              	.LBB31:
 177:src/input.c   ****     for (idx=0;idx < INPUT.s_trk1buf.b_len; idx++) {
 1363              		.loc 1 177 0
 1364 00d6 95F8A022 		ldrb	r2, [r5, #672]	@ zero_extendqisi2
 1365 00da 002A     		cmp	r2, #0
 1366 00dc 45D1     		bne	.L151
 178:src/input.c   ****       if (INPUT.s_trk1buf.sb_content[idx] == 'B')
 1367              		.loc 1 178 0
 1368 00de 97F80072 		ldrb	r7, [r7, #512]	@ zero_extendqisi2
 1369              	.L152:
 1370              	.LVL143:
 1371 00e2 BA42     		cmp	r2, r7
 1372 00e4 02F10104 		add	r4, r2, #1
 1373 00e8 04D2     		bcs	.L156
 1374 00ea 2A44     		add	r2, r2, r5
 1375              	.LVL144:
 179:src/input.c   ****         break;
 1376              		.loc 1 179 0
 1377 00ec 92F80132 		ldrb	r3, [r2, #513]	@ zero_extendqisi2
 1378 00f0 422B     		cmp	r3, #66
 1379 00f2 06D1     		bne	.L153
 1380              	.L156:
 1381              	.LVL145:
 185:src/input.c   ****     while (TRUE) {
 1382              		.loc 1 185 0
 1383 00f4 6846     		mov	r0, sp
 1384 00f6 4621     		movs	r1, #70
 1385 00f8 1422     		movs	r2, #20
 1386 00fa FFF7FEFF 		bl	memset
 1387              	.LVL146:
 184:src/input.c   ****     memset(tmp, 'F', sizeof(tmp));
 1388              		.loc 1 184 0
 1389 00fe 0026     		movs	r6, #0
 1390 0100 17E0     		b	.L154
 1391              	.LVL147:
 1392              	.L153:
 178:src/input.c   ****       if (INPUT.s_trk1buf.sb_content[idx] == 'B')
 1393              		.loc 1 178 0
 1394 0102 2246     		mov	r2, r4
 1395              	.LVL148:
 1396 0104 EDE7     		b	.L152
 1397              	.LVL149:
 1398              	.L222:
 187:src/input.c   ****           (INPUT.s_trk1buf.sb_content[idx] == 0x3d) || (INPUT.s_trk1buf.sb_content[idx] == 0x5e) ||
 1399              		.loc 1 187 0
 1400 0106 3B2B     		cmp	r3, #59
 1401 0108 18D0     		beq	.L157
 1402 010a 3D2B     		cmp	r3, #61
 1403 010c 16D0     		beq	.L157
 188:src/input.c   ****           (idx > 20)
 1404              		.loc 1 188 0
 1405 010e 5E2B     		cmp	r3, #94
 1406 0110 14D0     		beq	.L157
 1407 0112 142C     		cmp	r4, #20
 1408 0114 12D8     		bhi	.L157
ARM GAS  C:\Users\AHMED~1.ELE\AppData\Local\Temp\ccLLYyS4.s 			page 45


 1409              	.LVL150:
 193:src/input.c   ****           tmp[len++] = INPUT.s_trk1buf.sb_content[idx];
 1410              		.loc 1 193 0
 1411 0116 A3F13002 		sub	r2, r3, #48
 1412 011a 092A     		cmp	r2, #9
 194:src/input.c   ****       }
 1413              		.loc 1 194 0
 1414 011c 9CBF     		itt	ls
 1415 011e 06AA     		addls	r2, sp, #24
 1416 0120 9219     		addls	r2, r2, r6
 196:src/input.c   ****       if (idx >= INPUT.s_trk1buf.b_len)  // !2006-02-17
 1417              		.loc 1 196 0
 1418 0122 04F10104 		add	r4, r4, #1
 1419              	.LVL151:
 194:src/input.c   ****       }
 1420              		.loc 1 194 0
 1421 0126 9CBF     		itt	ls
 1422 0128 02F8183C 		strbls	r3, [r2, #-24]
 1423 012c 0136     		addls	r6, r6, #1
 1424              	.LVL152:
 197:src/input.c   ****         break;
 1425              		.loc 1 197 0
 1426 012e BC42     		cmp	r4, r7
 1427 0130 04D2     		bcs	.L157
 1428              	.LVL153:
 1429              	.L154:
 1430 0132 2B19     		adds	r3, r5, r4
 187:src/input.c   ****           (INPUT.s_trk1buf.sb_content[idx] == 0x3d) || (INPUT.s_trk1buf.sb_content[idx] == 0x5e) ||
 1431              		.loc 1 187 0
 1432 0134 93F80132 		ldrb	r3, [r3, #513]	@ zero_extendqisi2
 1433 0138 2A2B     		cmp	r3, #42
 1434 013a E4D1     		bne	.L222
 1435              	.L157:
 200:src/input.c   ****     idx++;
 1436              		.loc 1 200 0
 1437 013c 721C     		adds	r2, r6, #1
 1438 013e 6E48     		ldr	r0, .L223+8
 1439              	.LVL154:
 1440 0140 6946     		mov	r1, sp
 1441 0142 5208     		lsrs	r2, r2, #1
 1442 0144 FFF7FEFF 		bl	compress
 1443              	.LVL155:
 201:src/input.c   ****     for ( ;idx < 76; idx++) {
 1444              		.loc 1 201 0
 1445 0148 0134     		adds	r4, r4, #1
 1446              	.LVL156:
 1447              	.L159:
 202:src/input.c   ****       if (INPUT.s_trk1buf.sb_content[idx] == 0x5e)
 1448              		.loc 1 202 0
 1449 014a 4B2C     		cmp	r4, #75
 1450 014c 04F10101 		add	r1, r4, #1
 1451 0150 04D8     		bhi	.L163
 1452 0152 2C44     		add	r4, r4, r5
 1453              	.LVL157:
 203:src/input.c   ****         break;
 1454              		.loc 1 203 0
 1455 0154 94F80132 		ldrb	r3, [r4, #513]	@ zero_extendqisi2
ARM GAS  C:\Users\AHMED~1.ELE\AppData\Local\Temp\ccLLYyS4.s 			page 46


 1456 0158 5E2B     		cmp	r3, #94
 1457 015a 04D1     		bne	.L160
 1458              	.L163:
 206:src/input.c   ****   }
 1459              		.loc 1 206 0
 1460 015c 01F50071 		add	r1, r1, #512
 1461              	.LVL158:
 1462 0160 2944     		add	r1, r1, r5
 1463              	.LVL159:
 1464 0162 6648     		ldr	r0, .L223+12
 1465              	.LVL160:
 1466 0164 23E0     		b	.L217
 1467              	.LVL161:
 1468              	.L160:
 202:src/input.c   ****       if (INPUT.s_trk1buf.sb_content[idx] == 0x5e)
 1469              		.loc 1 202 0
 1470 0166 0C46     		mov	r4, r1
 1471              	.LVL162:
 1472 0168 EFE7     		b	.L159
 1473              	.LVL163:
 1474              	.L151:
 209:src/input.c   ****     if (len <= 19) {
 1475              		.loc 1 209 0
 1476 016a 6548     		ldr	r0, .L223+16
 1477 016c 3D21     		movs	r1, #61
 1478 016e FFF7FEFF 		bl	fndb
 1479              	.LVL164:
 210:src/input.c   ****       INPUT.s_trk2buf.sb_content[len] = 0x3f; /* cater for odd len */
 1480              		.loc 1 210 0
 1481 0172 1328     		cmp	r0, #19
 209:src/input.c   ****     if (len <= 19) {
 1482              		.loc 1 209 0
 1483 0174 0646     		mov	r6, r0
 1484              	.LVL165:
 210:src/input.c   ****       INPUT.s_trk2buf.sb_content[len] = 0x3f; /* cater for odd len */
 1485              		.loc 1 210 0
 1486 0176 1FD8     		bhi	.L176
 211:src/input.c   ****       memset(aPAN, 0xFF, 10);
 1487              		.loc 1 211 0
 1488 0178 3F23     		movs	r3, #63
 1489 017a 07EB0008 		add	r8, r7, r0
 212:src/input.c   ****       compress(aPAN, INPUT.s_trk2buf.sb_content, (BYTE)((len+1)/2));
 1490              		.loc 1 212 0
 1491 017e FF21     		movs	r1, #255
 1492 0180 0A22     		movs	r2, #10
 213:src/input.c   ****       INPUT.s_trk2buf.sb_content[len] = SEPERATOR2; /* cater for odd len */
 1493              		.loc 1 213 0
 1494 0182 741C     		adds	r4, r6, #1
 212:src/input.c   ****       compress(aPAN, INPUT.s_trk2buf.sb_content, (BYTE)((len+1)/2));
 1495              		.loc 1 212 0
 1496 0184 07F10900 		add	r0, r7, #9
 1497              	.LVL166:
 211:src/input.c   ****       memset(aPAN, 0xFF, 10);
 1498              		.loc 1 211 0
 1499 0188 88F8A132 		strb	r3, [r8, #673]
 212:src/input.c   ****       compress(aPAN, INPUT.s_trk2buf.sb_content, (BYTE)((len+1)/2));
 1500              		.loc 1 212 0
ARM GAS  C:\Users\AHMED~1.ELE\AppData\Local\Temp\ccLLYyS4.s 			page 47


 1501 018c FFF7FEFF 		bl	memset
 1502              	.LVL167:
 213:src/input.c   ****       INPUT.s_trk2buf.sb_content[len] = SEPERATOR2; /* cater for odd len */
 1503              		.loc 1 213 0
 1504 0190 07F10900 		add	r0, r7, #9
 1505 0194 00F52671 		add	r1, r0, #664
 1506 0198 6208     		lsrs	r2, r4, #1
 1507 019a FFF7FEFF 		bl	compress
 1508              	.LVL168:
 215:src/input.c   ****     }
 1509              		.loc 1 215 0
 1510 019e 04F52871 		add	r1, r4, #672
 214:src/input.c   ****       compress(aExpDate, &INPUT.s_trk2buf.sb_content[1+len], 2);
 1511              		.loc 1 214 0
 1512 01a2 3D23     		movs	r3, #61
 215:src/input.c   ****     }
 1513              		.loc 1 215 0
 1514 01a4 3944     		add	r1, r1, r7
 1515 01a6 07F11300 		add	r0, r7, #19
 214:src/input.c   ****       compress(aExpDate, &INPUT.s_trk2buf.sb_content[1+len], 2);
 1516              		.loc 1 214 0
 1517 01aa 88F8A132 		strb	r3, [r8, #673]
 1518              	.L217:
 215:src/input.c   ****     }
 1519              		.loc 1 215 0
 1520 01ae 0131     		adds	r1, r1, #1
 1521 01b0 0222     		movs	r2, #2
 1522 01b2 FFF7FEFF 		bl	compress
 1523              	.LVL169:
 1524 01b6 00E0     		b	.L161
 1525              	.LVL170:
 1526              	.L176:
 218:src/input.c   ****   }
 1527              		.loc 1 218 0
 1528 01b8 0026     		movs	r6, #0
 1529              	.LVL171:
 1530              	.L161:
 1531              	.LBE31:
 1532              	.LBE32:
 383:src/input.c   ****   
 1533              		.loc 1 383 0
 1534 01ba 8DF80060 		strb	r6, [sp]
 386:src/input.c   ****     return FALSE;
 1535              		.loc 1 386 0
 1536 01be FFF7FEFF 		bl	Expire_diff
 1537              	.LVL172:
 1538 01c2 0028     		cmp	r0, #0
 1539 01c4 3FF457AF 		beq	.L219
 390:src/input.c   ****     return FALSE;
 1540              		.loc 1 390 0
 1541 01c8 FFF7FEFF 		bl	InCardTable
 1542              	.LVL173:
 1543 01cc 0028     		cmp	r0, #0
 1544 01ce 3FF452AF 		beq	.L219
 394:src/input.c   ****     idx = CardServiceCode();
 1545              		.loc 1 394 0
 1546 01d2 95F83430 		ldrb	r3, [r5, #52]	@ zero_extendqisi2
ARM GAS  C:\Users\AHMED~1.ELE\AppData\Local\Temp\ccLLYyS4.s 			page 48


 1547 01d6 464F     		ldr	r7, .L223
 1548 01d8 492B     		cmp	r3, #73
 1549 01da 3DD0     		beq	.L166
 394:src/input.c   ****     idx = CardServiceCode();
 1550              		.loc 1 394 0 is_stmt 0 discriminator 1
 1551 01dc 462B     		cmp	r3, #70
 1552 01de 3BD0     		beq	.L166
 394:src/input.c   ****     idx = CardServiceCode();
 1553              		.loc 1 394 0 discriminator 2
 1554 01e0 FFF7FEFF 		bl	EMVProcDisable
 1555              	.LVL174:
 1556 01e4 0446     		mov	r4, r0
 1557 01e6 B8BB     		cbnz	r0, .L166
 1558              	.LVL175:
 1559              	.LBB33:
 1560              	.LBB34:
 143:src/input.c   ****     // track 2 missing, get it from track 1
 1561              		.loc 1 143 0 is_stmt 1
 1562 01e8 97F8A032 		ldrb	r3, [r7, #672]	@ zero_extendqisi2
 1563 01ec 013B     		subs	r3, r3, #1
 1564 01ee DBB2     		uxtb	r3, r3
 1565 01f0 FD2B     		cmp	r3, #253
 1566 01f2 16D9     		bls	.L168
 145:src/input.c   ****     if (len < 22) {
 1567              		.loc 1 145 0
 1568 01f4 4348     		ldr	r0, .L223+20
 1569 01f6 5E21     		movs	r1, #94
 1570 01f8 1622     		movs	r2, #22
 1571 01fa FFF7FEFF 		bl	fndb
 1572              	.LVL176:
 146:src/input.c   ****       scode = (BYTE) fndb(&INPUT.s_trk1buf.sb_content[len+1], (BYTE)SEPARATOR_5E, 30);
 1573              		.loc 1 146 0
 1574 01fe C6B2     		uxtb	r6, r0
 1575              	.LVL177:
 1576 0200 152E     		cmp	r6, #21
 1577 0202 1AD8     		bhi	.L175
 147:src/input.c   ****       if (scode < 30)
 1578              		.loc 1 147 0
 1579 0204 B819     		adds	r0, r7, r6
 1580              	.LVL178:
 1581 0206 00F20220 		addw	r0, r0, #514
 1582 020a 5E21     		movs	r1, #94
 1583 020c 1E22     		movs	r2, #30
 1584 020e FFF7FEFF 		bl	fndb
 1585              	.LVL179:
 148:src/input.c   ****         scode = INPUT.s_trk1buf.sb_content[len+scode+2]; // SERVICE CODE POSITION
 1586              		.loc 1 148 0
 1587 0212 C0B2     		uxtb	r0, r0
 1588 0214 1D28     		cmp	r0, #29
 1589 0216 10D8     		bhi	.L175
 149:src/input.c   ****       else
 1590              		.loc 1 149 0
 1591 0218 3E44     		add	r6, r6, r7
 1592              	.LVL180:
 1593 021a 0644     		add	r6, r6, r0
 1594 021c 96F80332 		ldrb	r3, [r6, #515]	@ zero_extendqisi2
 1595              	.LVL181:
ARM GAS  C:\Users\AHMED~1.ELE\AppData\Local\Temp\ccLLYyS4.s 			page 49


 1596 0220 0AE0     		b	.L170
 1597              	.LVL182:
 1598              	.L168:
 155:src/input.c   ****     if (len < 20)
 1599              		.loc 1 155 0
 1600 0222 3748     		ldr	r0, .L223+16
 1601 0224 3D21     		movs	r1, #61
 1602 0226 1422     		movs	r2, #20
 1603 0228 FFF7FEFF 		bl	fndb
 1604              	.LVL183:
 156:src/input.c   ****       scode = INPUT.s_trk2buf.sb_content[len+5]; // SERVICE CODE POSITION
 1605              		.loc 1 156 0
 1606 022c C0B2     		uxtb	r0, r0
 1607 022e 1328     		cmp	r0, #19
 1608 0230 03D8     		bhi	.L175
 157:src/input.c   ****   }
 1609              		.loc 1 157 0
 1610 0232 3844     		add	r0, r0, r7
 1611              	.LVL184:
 1612 0234 90F8A632 		ldrb	r3, [r0, #678]	@ zero_extendqisi2
 1613              	.LVL185:
 1614              	.L170:
 1615              	.LBE34:
 1616              	.LBE33:
 396:src/input.c   ****       DispErrorMsg(GetConstMsg(EDC_RSP_INVALID_CARD));
 1617              		.loc 1 396 0
 1618 0238 0BB9     		cbnz	r3, .L171
 1619              	.LVL186:
 1620              	.L175:
 397:src/input.c   ****       return FALSE;
 1621              		.loc 1 397 0
 1622 023a 7C20     		movs	r0, #124
 1623 023c 50E0     		b	.L218
 1624              	.LVL187:
 1625              	.L171:
 400:src/input.c   ****       if (INPUT.b_entry_mode != FALLBACK) {
 1626              		.loc 1 400 0
 1627 023e 03F0FB03 		and	r3, r3, #251
 1628              	.LVL188:
 1629 0242 322B     		cmp	r3, #50
 1630 0244 05D1     		bne	.L172
 401:src/input.c   ****         DispErrorMsg(GetConstMsg(EDC_IN_USE_ICC));
 1631              		.loc 1 401 0
 1632 0246 95F83430 		ldrb	r3, [r5, #52]	@ zero_extendqisi2
 1633 024a 462B     		cmp	r3, #70
 1634 024c 04D0     		beq	.L166
 402:src/input.c   ****         return FALSE; // EMV SMC
 1635              		.loc 1 402 0
 1636 024e 1020     		movs	r0, #16
 1637 0250 46E0     		b	.L218
 1638              	.L172:
 406:src/input.c   ****   }
 1639              		.loc 1 406 0
 1640 0252 5323     		movs	r3, #83
 1641 0254 85F83430 		strb	r3, [r5, #52]
 1642              	.L166:
 408:src/input.c   ****     split(&disp_pan[1], INPUT.sb_pan, 10);
ARM GAS  C:\Users\AHMED~1.ELE\AppData\Local\Temp\ccLLYyS4.s 			page 50


 1643              		.loc 1 408 0
 1644 0258 FFF7FEFF 		bl	CheckPAN
 1645              	.LVL189:
 1646 025c 78B1     		cbz	r0, .L173
 409:src/input.c   ****     if (!chk_digit_ok(&disp_pan[1], disp_pan[0])) {
 1647              		.loc 1 409 0
 1648 025e 0DF10100 		add	r0, sp, #1
 1649 0262 2549     		ldr	r1, .L223+8
 1650              	.LVL190:
 1651 0264 0A22     		movs	r2, #10
 1652 0266 FFF7FEFF 		bl	split
 1653              	.LVL191:
 410:src/input.c   ****       DispErrorMsg(GetConstMsg(EDC_IN_CHK_DIGIT_ERROR));
 1654              		.loc 1 410 0
 1655 026a 0DF10100 		add	r0, sp, #1
 1656 026e 9DF80010 		ldrb	r1, [sp]	@ zero_extendqisi2
 1657 0272 FFF7FEFF 		bl	chk_digit_ok
 1658              	.LVL192:
 1659 0276 0446     		mov	r4, r0
 1660 0278 08B9     		cbnz	r0, .L173
 1661              	.LVL193:
 1662              	.L220:
 411:src/input.c   ****       return FALSE;
 1663              		.loc 1 411 0
 1664 027a 0F20     		movs	r0, #15
 1665 027c 30E0     		b	.L218
 1666              	.LVL194:
 1667              	.L173:
 415:src/input.c   ****     idx = FindSeperator(INPUT.s_trk1buf.sb_content, 0) + 1;
 1668              		.loc 1 415 0
 1669 027e 95F80032 		ldrb	r3, [r5, #512]	@ zero_extendqisi2
 1670 0282 1B4E     		ldr	r6, .L223
 1671 0284 013B     		subs	r3, r3, #1
 1672 0286 DBB2     		uxtb	r3, r3
 1673 0288 FD2B     		cmp	r3, #253
 1674 028a 16D8     		bhi	.L174
 416:src/input.c   ****     if (idx) {
 1675              		.loc 1 416 0
 1676 028c 0020     		movs	r0, #0
 1677 028e FFF7FEFF 		bl	FindSeperator.constprop.2
 1678              	.LVL195:
 1679 0292 0130     		adds	r0, r0, #1
 1680              	.LVL196:
 417:src/input.c   ****       tlen = FindSeperator(INPUT.s_trk1buf.sb_content, idx);
 1681              		.loc 1 417 0
 1682 0294 10F0FF04 		ands	r4, r0, #255
 1683 0298 0FD0     		beq	.L174
 418:src/input.c   ****       if ((tlen == 0xFF) || (tlen > sizeof(INPUT.sb_holder_name)))
 1684              		.loc 1 418 0
 1685 029a 2046     		mov	r0, r4
 1686              	.LVL197:
 1687 029c FFF7FEFF 		bl	FindSeperator.constprop.2
 1688              	.LVL198:
 422:src/input.c   ****     }
 1689              		.loc 1 422 0
 1690 02a0 04F50071 		add	r1, r4, #512
 1691 02a4 3144     		add	r1, r1, r6
ARM GAS  C:\Users\AHMED~1.ELE\AppData\Local\Temp\ccLLYyS4.s 			page 51


 1692 02a6 0131     		adds	r1, r1, #1
 1693 02a8 1A28     		cmp	r0, #26
 1694 02aa 0246     		mov	r2, r0
 1695 02ac 28BF     		it	cs
 1696 02ae 1A22     		movcs	r2, #26
 1697 02b0 06F13500 		add	r0, r6, #53
 1698              	.LVL199:
 1699 02b4 D2B2     		uxtb	r2, r2
 1700 02b6 FFF7FEFF 		bl	memcpy
 1701              	.LVL200:
 1702              	.L174:
 425:src/input.c   ****     return TRUE;
 1703              		.loc 1 425 0
 1704 02ba 95F8A032 		ldrb	r3, [r5, #672]	@ zero_extendqisi2
 1705 02be 002B     		cmp	r3, #0
 1706 02c0 3FF4DFAE 		beq	.L147
 427:src/input.c   ****     return TRUE;
 1707              		.loc 1 427 0
 1708 02c4 9DF80030 		ldrb	r3, [sp]	@ zero_extendqisi2
 1709 02c8 0948     		ldr	r0, .L223
 1710 02ca 0421     		movs	r1, #4
 1711 02cc 1844     		add	r0, r0, r3
 1712 02ce 00F2A220 		addw	r0, r0, #674
 1713 02d2 FFF7FEFF 		bl	isbdigit
 1714              	.LVL201:
 1715 02d6 0446     		mov	r4, r0
 1716 02d8 0028     		cmp	r0, #0
 1717 02da 7FF4D2AE 		bne	.L147
 430:src/input.c   ****   return FALSE;
 1718              		.loc 1 430 0
 1719 02de 1E20     		movs	r0, #30
 1720              	.LVL202:
 1721              	.L218:
 1722 02e0 FFF7FEFF 		bl	GetConstMsg
 1723              	.LVL203:
 1724 02e4 FFF7FEFF 		bl	DispErrorMsg
 1725              	.LVL204:
 1726              	.L143:
 432:src/input.c   **** //*****************************************************************************
 1727              		.loc 1 432 0
 1728 02e8 2046     		mov	r0, r4
 1729 02ea 06B0     		add	sp, sp, #24
 1730              		.cfi_def_cfa_offset 24
 1731              		@ sp needed
 1732 02ec BDE8F081 		pop	{r4, r5, r6, r7, r8, pc}
 1733              	.L224:
 1734              		.align	2
 1735              	.L223:
 1736 02f0 00000000 		.word	gGTS
 1737 02f4 35000000 		.word	gGTS+53
 1738 02f8 09000000 		.word	gGTS+9
 1739 02fc 13000000 		.word	gGTS+19
 1740 0300 A1020000 		.word	gGTS+673
 1741 0304 01020000 		.word	gGTS+513
 1742              		.cfi_endproc
 1743              	.LFE7:
 1744              		.size	ValidCard, .-ValidCard
ARM GAS  C:\Users\AHMED~1.ELE\AppData\Local\Temp\ccLLYyS4.s 			page 52


 1745              		.section	.text.GetExpDate,"ax",%progbits
 1746              		.align	1
 1747              		.global	GetExpDate
 1748              		.thumb
 1749              		.thumb_func
 1750              		.type	GetExpDate, %function
 1751              	GetExpDate:
 1752              	.LFB12:
 618:src/input.c   ****   struct DATETIME dtg;
 1753              		.loc 1 618 0
 1754              		.cfi_startproc
 1755              		@ args = 0, pretend = 0, frame = 40
 1756              		@ frame_needed = 0, uses_anonymous_args = 0
 1757 0000 70B5     		push	{r4, r5, r6, lr}
 1758              		.cfi_def_cfa_offset 16
 1759              		.cfi_offset 4, -16
 1760              		.cfi_offset 5, -12
 1761              		.cfi_offset 6, -8
 1762              		.cfi_offset 14, -4
 623:src/input.c   ****   if (!ExpDateReqd()) {
 1763              		.loc 1 623 0
 1764 0002 0023     		movs	r3, #0
 1765 0004 424C     		ldr	r4, .L247
 618:src/input.c   ****   struct DATETIME dtg;
 1766              		.loc 1 618 0
 1767 0006 8CB0     		sub	sp, sp, #48
 1768              		.cfi_def_cfa_offset 64
 623:src/input.c   ****   if (!ExpDateReqd()) {
 1769              		.loc 1 623 0
 1770 0008 84F8F632 		strb	r3, [r4, #758]
 624:src/input.c   ****    // memset(INPUT.sb_exp_date, 0, sizeof(INPUT.sb_exp_date));
 1771              		.loc 1 624 0
 1772 000c FFF7FEFF 		bl	ExpDateReqd
 1773              	.LVL205:
 1774 0010 68BB     		cbnz	r0, .L242
 1775              	.L236:
 626:src/input.c   ****   }
 1776              		.loc 1 626 0
 1777 0012 0120     		movs	r0, #1
 1778 0014 7AE0     		b	.L227
 1779              	.L246:
 630:src/input.c   ****       Disp2x16Msg(GetConstMsg(EDC_IN_EXPIRY_DATE), MW_LINE3, MW_BIGFONT);
 1780              		.loc 1 630 0
 1781 0016 0023     		movs	r3, #0
 1782 0018 0CAD     		add	r5, sp, #48
 631:src/input.c   ****       if (!APM_GetKbd(NUMERIC_INPUT+ECHO+MW_BIGFONT+MW_LINE7+RIGHT_JUST,IMIN(4)+IMAX(4), kbdbuf))
 1783              		.loc 1 631 0
 1784 001a 1920     		movs	r0, #25
 630:src/input.c   ****       Disp2x16Msg(GetConstMsg(EDC_IN_EXPIRY_DATE), MW_LINE3, MW_BIGFONT);
 1785              		.loc 1 630 0
 1786 001c 05F8203D 		strb	r3, [r5, #-32]!
 631:src/input.c   ****       if (!APM_GetKbd(NUMERIC_INPUT+ECHO+MW_BIGFONT+MW_LINE7+RIGHT_JUST,IMIN(4)+IMAX(4), kbdbuf))
 1787              		.loc 1 631 0
 1788 0020 FFF7FEFF 		bl	GetConstMsg
 1789              	.LVL206:
 1790 0024 4FF44071 		mov	r1, #768
 1791 0028 4FF48052 		mov	r2, #4096
ARM GAS  C:\Users\AHMED~1.ELE\AppData\Local\Temp\ccLLYyS4.s 			page 53


 1792 002c FFF7FEFF 		bl	Disp2x16Msg
 1793              	.LVL207:
 632:src/input.c   ****         return FALSE;
 1794              		.loc 1 632 0
 1795 0030 0095     		str	r5, [sp]
 1796 0032 1020     		movs	r0, #16
 1797 0034 0521     		movs	r1, #5
 1798 0036 374A     		ldr	r2, .L247+4
 1799 0038 40F20443 		movw	r3, #1028
 1800 003c FFF7FEFF 		bl	lib_app_call
 1801              	.LVL208:
 1802 0040 10F0FF0F 		tst	r0, #255
 1803 0044 1DD0     		beq	.L239
 634:src/input.c   ****       INPUT.sb_exp_date[0] = kbdbuf[6];  // YY
 1804              		.loc 1 634 0
 1805 0046 691C     		adds	r1, r5, #1
 1806 0048 0222     		movs	r2, #2
 1807 004a 681D     		adds	r0, r5, #5
 1808 004c FFF7FEFF 		bl	compress
 1809              	.LVL209:
 635:src/input.c   ****       INPUT.sb_exp_date[1] = kbdbuf[5];  // MM
 1810              		.loc 1 635 0
 1811 0050 9DF81620 		ldrb	r2, [sp, #22]	@ zero_extendqisi2
 636:src/input.c   ****       if (((kbdbuf[6] & 0xf) > 9)  || (kbdbuf[6] > 0x99) ||
 1812              		.loc 1 636 0
 1813 0054 9DF81530 		ldrb	r3, [sp, #21]	@ zero_extendqisi2
 637:src/input.c   ****           ((kbdbuf[5] & 0xf) > 9)  || !(kbdbuf[5]) || (kbdbuf[5] > 0x12) ) {
 1814              		.loc 1 637 0
 1815 0058 02F00F01 		and	r1, r2, #15
 1816 005c 0929     		cmp	r1, #9
 635:src/input.c   ****       INPUT.sb_exp_date[1] = kbdbuf[5];  // MM
 1817              		.loc 1 635 0
 1818 005e F274     		strb	r2, [r6, #19]
 636:src/input.c   ****       if (((kbdbuf[6] & 0xf) > 9)  || (kbdbuf[6] > 0x99) ||
 1819              		.loc 1 636 0
 1820 0060 3375     		strb	r3, [r6, #20]
 637:src/input.c   ****           ((kbdbuf[5] & 0xf) > 9)  || !(kbdbuf[5]) || (kbdbuf[5] > 0x12) ) {
 1821              		.loc 1 637 0
 1822 0062 10D9     		bls	.L245
 1823              	.L230:
 639:src/input.c   ****         continue;
 1824              		.loc 1 639 0
 1825 0064 1A20     		movs	r0, #26
 1826 0066 FFF7FEFF 		bl	GetConstMsg
 1827              	.LVL210:
 1828 006a FFF7FEFF 		bl	DispErrorMsg
 1829              	.LVL211:
 1830              	.L242:
 629:src/input.c   ****       kbdbuf[0] = 0;
 1831              		.loc 1 629 0
 1832 006e 94F83430 		ldrb	r3, [r4, #52]	@ zero_extendqisi2
 1833 0072 274E     		ldr	r6, .L247
 1834 0074 4D2B     		cmp	r3, #77
 1835 0076 0FD1     		bne	.L228
 1836 0078 CDE7     		b	.L246
 1837              	.L244:
 670:src/input.c   ****       return FALSE;
ARM GAS  C:\Users\AHMED~1.ELE\AppData\Local\Temp\ccLLYyS4.s 			page 54


 1838              		.loc 1 670 0
 1839 007a 94F83430 		ldrb	r3, [r4, #52]	@ zero_extendqisi2
 1840 007e 4D2B     		cmp	r3, #77
 1841 0080 F5D0     		beq	.L242
 1842              	.L239:
 633:src/input.c   ****       compress(&kbdbuf[5],&kbdbuf[1], 2);
 1843              		.loc 1 633 0
 1844 0082 0020     		movs	r0, #0
 1845 0084 42E0     		b	.L227
 1846              	.L245:
 637:src/input.c   ****           ((kbdbuf[5] & 0xf) > 9)  || !(kbdbuf[5]) || (kbdbuf[5] > 0x12) ) {
 1847              		.loc 1 637 0 discriminator 1
 1848 0086 992A     		cmp	r2, #153
 1849 0088 ECD8     		bhi	.L230
 637:src/input.c   ****           ((kbdbuf[5] & 0xf) > 9)  || !(kbdbuf[5]) || (kbdbuf[5] > 0x12) ) {
 1850              		.loc 1 637 0 is_stmt 0 discriminator 2
 1851 008a 03F00F02 		and	r2, r3, #15
 1852 008e 092A     		cmp	r2, #9
 1853 0090 E8D8     		bhi	.L230
 638:src/input.c   ****         DispErrorMsg(GetConstMsg(EDC_IN_INV_EXPIRE));
 1854              		.loc 1 638 0 is_stmt 1
 1855 0092 013B     		subs	r3, r3, #1
 1856 0094 112B     		cmp	r3, #17
 1857 0096 E5D8     		bhi	.L230
 1858              	.L228:
 644:src/input.c   ****         (var_i < 0x13) && ((var_i & 0xf) < 0xa)) {
 1859              		.loc 1 644 0
 1860 0098 237D     		ldrb	r3, [r4, #20]	@ zero_extendqisi2
 1861              	.LVL212:
 1862 009a 1D4E     		ldr	r6, .L247
 1863 009c 5A1E     		subs	r2, r3, #1
 1864 009e 112A     		cmp	r2, #17
 1865 00a0 0CD9     		bls	.L232
 1866              	.LVL213:
 1867              	.L235:
 664:src/input.c   ****     if (!ExpiryReject()) {
 1868              		.loc 1 664 0
 1869 00a2 1B20     		movs	r0, #27
 1870 00a4 FFF7FEFF 		bl	GetConstMsg
 1871              	.LVL214:
 1872 00a8 FFF7FEFF 		bl	DispErrorMsg
 1873              	.LVL215:
 665:src/input.c   ****       INPUT.b_card_expired = TRUE;
 1874              		.loc 1 665 0
 1875 00ac FFF7FEFF 		bl	ExpiryReject
 1876              	.LVL216:
 1877 00b0 0028     		cmp	r0, #0
 1878 00b2 E2D1     		bne	.L244
 666:src/input.c   ****       return TRUE;
 1879              		.loc 1 666 0
 1880 00b4 0120     		movs	r0, #1
 1881 00b6 84F8F602 		strb	r0, [r4, #758]
 667:src/input.c   ****     }
 1882              		.loc 1 667 0
 1883 00ba 27E0     		b	.L227
 1884              	.LVL217:
 1885              	.L232:
ARM GAS  C:\Users\AHMED~1.ELE\AppData\Local\Temp\ccLLYyS4.s 			page 55


 645:src/input.c   ****       if (!CheckExpDate())
 1886              		.loc 1 645 0
 1887 00bc 03F00F03 		and	r3, r3, #15
 1888              	.LVL218:
 1889 00c0 092B     		cmp	r3, #9
 1890 00c2 EED8     		bhi	.L235
 646:src/input.c   ****         return TRUE;
 1891              		.loc 1 646 0
 1892 00c4 FFF7FEFF 		bl	CheckExpDate
 1893              	.LVL219:
 1894 00c8 0028     		cmp	r0, #0
 1895 00ca A2D0     		beq	.L236
 649:src/input.c   ****       var_i = (BYTE)bcd2bin(dtg.b_year);
 1896              		.loc 1 649 0
 1897 00cc 02A8     		add	r0, sp, #8
 1898 00ce FFF7FEFF 		bl	ReadRTC
 1899              	.LVL220:
 650:src/input.c   ****       var_j = (BYTE)bcd2bin(INPUT.sb_exp_date[0]);
 1900              		.loc 1 650 0
 1901 00d2 9DF80900 		ldrb	r0, [sp, #9]	@ zero_extendqisi2
 1902 00d6 FFF7FEFF 		bl	bcd2bin
 1903              	.LVL221:
 1904 00da C5B2     		uxtb	r5, r0
 1905              	.LVL222:
 651:src/input.c   ****       if (var_i == var_j) {
 1906              		.loc 1 651 0
 1907 00dc F07C     		ldrb	r0, [r6, #19]	@ zero_extendqisi2
 1908 00de FFF7FEFF 		bl	bcd2bin
 1909              	.LVL223:
 1910 00e2 C0B2     		uxtb	r0, r0
 1911              	.LVL224:
 652:src/input.c   ****         if (INPUT.sb_exp_date[1] >= dtg.b_month)
 1912              		.loc 1 652 0
 1913 00e4 8542     		cmp	r5, r0
 1914 00e6 05D1     		bne	.L237
 653:src/input.c   ****           return TRUE;
 1915              		.loc 1 653 0
 1916 00e8 327D     		ldrb	r2, [r6, #20]	@ zero_extendqisi2
 1917 00ea 9DF80A30 		ldrb	r3, [sp, #10]	@ zero_extendqisi2
 1918 00ee 9A42     		cmp	r2, r3
 1919 00f0 D7D3     		bcc	.L235
 1920 00f2 8EE7     		b	.L236
 1921              	.L237:
 655:src/input.c   ****         if ((var_j < 50 ) || (var_j > var_i))
 1922              		.loc 1 655 0
 1923 00f4 312D     		cmp	r5, #49
 1924 00f6 04D9     		bls	.L238
 656:src/input.c   ****           return TRUE;
 1925              		.loc 1 656 0
 1926 00f8 3128     		cmp	r0, #49
 1927 00fa 8AD9     		bls	.L236
 656:src/input.c   ****           return TRUE;
 1928              		.loc 1 656 0 is_stmt 0 discriminator 1
 1929 00fc A842     		cmp	r0, r5
 1930 00fe D0D9     		bls	.L235
 1931 0100 87E7     		b	.L236
 1932              	.L238:
ARM GAS  C:\Users\AHMED~1.ELE\AppData\Local\Temp\ccLLYyS4.s 			page 56


 659:src/input.c   ****           return TRUE;
 1933              		.loc 1 659 0 is_stmt 1
 1934 0102 A842     		cmp	r0, r5
 1935 0104 CDD9     		bls	.L235
 659:src/input.c   ****           return TRUE;
 1936              		.loc 1 659 0 is_stmt 0 discriminator 1
 1937 0106 3128     		cmp	r0, #49
 1938 0108 CBD8     		bhi	.L235
 1939 010a 82E7     		b	.L236
 1940              	.LVL225:
 1941              	.L227:
 673:src/input.c   **** //*****************************************************************************
 1942              		.loc 1 673 0 is_stmt 1
 1943 010c 0CB0     		add	sp, sp, #48
 1944              		.cfi_def_cfa_offset 16
 1945              		@ sp needed
 1946 010e 70BD     		pop	{r4, r5, r6, pc}
 1947              	.L248:
 1948              		.align	2
 1949              	.L247:
 1950 0110 00000000 		.word	gGTS
 1951 0114 FF172000 		.word	2103295
 1952              		.cfi_endproc
 1953              	.LFE12:
 1954              		.size	GetExpDate, .-GetExpDate
 1955              		.section	.text.GetProductCode,"ax",%progbits
 1956              		.align	1
 1957              		.global	GetProductCode
 1958              		.thumb
 1959              		.thumb_func
 1960              		.type	GetProductCode, %function
 1961              	GetProductCode:
 1962              	.LFB13:
 684:src/input.c   ****   DWORD keyin, max_select, line_no;
 1963              		.loc 1 684 0
 1964              		.cfi_startproc
 1965              		@ args = 0, pretend = 0, frame = 40
 1966              		@ frame_needed = 0, uses_anonymous_args = 0
 690:src/input.c   ****   if (!DescriptorReqd())
 1967              		.loc 1 690 0
 1968 0000 4FF0FF32 		mov	r2, #-1
 684:src/input.c   ****   DWORD keyin, max_select, line_no;
 1969              		.loc 1 684 0
 1970 0004 2DE9F04F 		push	{r4, r5, r6, r7, r8, r9, r10, fp, lr}
 1971              		.cfi_def_cfa_offset 36
 1972              		.cfi_offset 4, -36
 1973              		.cfi_offset 5, -32
 1974              		.cfi_offset 6, -28
 1975              		.cfi_offset 7, -24
 1976              		.cfi_offset 8, -20
 1977              		.cfi_offset 9, -16
 1978              		.cfi_offset 10, -12
 1979              		.cfi_offset 11, -8
 1980              		.cfi_offset 14, -4
 690:src/input.c   ****   if (!DescriptorReqd())
 1981              		.loc 1 690 0
 1982 0008 A84B     		ldr	r3, .L318
ARM GAS  C:\Users\AHMED~1.ELE\AppData\Local\Temp\ccLLYyS4.s 			page 57


 684:src/input.c   ****   DWORD keyin, max_select, line_no;
 1983              		.loc 1 684 0
 1984 000a 8DB0     		sub	sp, sp, #52
 1985              		.cfi_def_cfa_offset 88
 690:src/input.c   ****   if (!DescriptorReqd())
 1986              		.loc 1 690 0
 1987 000c 1A60     		str	r2, [r3]
 691:src/input.c   ****     return TRUE;
 1988              		.loc 1 691 0
 1989 000e FFF7FEFF 		bl	DescriptorReqd
 1990              	.LVL226:
 1991 0012 0028     		cmp	r0, #0
 1992 0014 00F04581 		beq	.L315
 694:src/input.c   ****   if (max_select == 0)
 1993              		.loc 1 694 0
 1994 0018 0024     		movs	r4, #0
 1995 001a 1020     		movs	r0, #16
 1996 001c 0094     		str	r4, [sp]
 1997 001e 1621     		movs	r1, #22
 1998 0020 2246     		mov	r2, r4
 1999 0022 2346     		mov	r3, r4
 2000 0024 FFF7FEFF 		bl	lib_app_call
 2001              	.LVL227:
 695:src/input.c   ****     return TRUE;
 2002              		.loc 1 695 0
 2003 0028 0546     		mov	r5, r0
 2004 002a 0028     		cmp	r0, #0
 2005 002c 00F03981 		beq	.L315
 698:src/input.c   ****     INPUT.sb_product[0]=0;
 2006              		.loc 1 698 0
 2007 0030 0128     		cmp	r0, #1
 2008 0032 03D1     		bne	.L253
 699:src/input.c   ****     return TRUE;
 2009              		.loc 1 699 0
 2010 0034 9E4B     		ldr	r3, .L318+4
 2011 0036 83F83040 		strb	r4, [r3, #48]
 2012 003a 32E1     		b	.L315
 2013              	.L253:
 703:src/input.c   ****   memset(product_select, 0, sizeof(struct PRODUCT)*max_select);
 2014              		.loc 1 703 0
 2015 003c 4701     		lsls	r7, r0, #5
 2016 003e 3946     		mov	r1, r7
 2017 0040 9220     		movs	r0, #146
 2018              	.LVL228:
 2019 0042 FFF7FEFF 		bl	sys_func1
 2020              	.LVL229:
 704:src/input.c   **** 
 2021              		.loc 1 704 0
 2022 0046 2146     		mov	r1, r4
 2023 0048 3A46     		mov	r2, r7
 703:src/input.c   ****   memset(product_select, 0, sizeof(struct PRODUCT)*max_select);
 2024              		.loc 1 703 0
 2025 004a 0646     		mov	r6, r0
 2026              	.LVL230:
 704:src/input.c   **** 
 2027              		.loc 1 704 0
 2028 004c FFF7FEFF 		bl	memset
ARM GAS  C:\Users\AHMED~1.ELE\AppData\Local\Temp\ccLLYyS4.s 			page 58


 2029              	.LVL231:
 2030              	.L254:
 707:src/input.c   ****     offset = i;
 2031              		.loc 1 707 0 discriminator 1
 2032 0050 AC42     		cmp	r4, r5
 2033 0052 0CD2     		bcs	.L316
 2034              	.LVL232:
 709:src/input.c   ****   }
 2035              		.loc 1 709 0 discriminator 3
 2036 0054 0022     		movs	r2, #0
 2037 0056 06EB4413 		add	r3, r6, r4, lsl #5
 2038 005a 0092     		str	r2, [sp]
 2039 005c 2246     		mov	r2, r4
 707:src/input.c   ****     offset = i;
 2040              		.loc 1 707 0 discriminator 3
 2041 005e 0134     		adds	r4, r4, #1
 2042              	.LVL233:
 709:src/input.c   ****   }
 2043              		.loc 1 709 0 discriminator 3
 2044 0060 1020     		movs	r0, #16
 2045 0062 1721     		movs	r1, #23
 2046 0064 0433     		adds	r3, r3, #4
 2047 0066 FFF7FEFF 		bl	lib_app_call
 2048              	.LVL234:
 707:src/input.c   ****     offset = i;
 2049              		.loc 1 707 0 discriminator 3
 2050 006a E4B2     		uxtb	r4, r4
 2051              	.LVL235:
 2052 006c F0E7     		b	.L254
 2053              	.L316:
 2054              	.LBB35:
 712:src/input.c   ****   line_no = MW_LINE3;
 2055              		.loc 1 712 0
 2056 006e 1C20     		movs	r0, #28
 2057 0070 FFF7FEFF 		bl	GetConstMsg
 2058              	.LVL236:
 2059 0074 FFF7FEFF 		bl	strlen
 2060              	.LVL237:
 2061 0078 0746     		mov	r7, r0
 2062              	.LVL238:
 2063 007a 791C     		adds	r1, r7, #1
 2064 007c 9220     		movs	r0, #146
 2065              	.LVL239:
 2066 007e FFF7FEFF 		bl	sys_func1
 2067              	.LVL240:
 2068 0082 0446     		mov	r4, r0
 2069              	.LVL241:
 2070 0084 B8B1     		cbz	r0, .L256
 712:src/input.c   ****   line_no = MW_LINE3;
 2071              		.loc 1 712 0 is_stmt 0 discriminator 1
 2072 0086 1C20     		movs	r0, #28
 2073              	.LVL242:
 2074 0088 FFF7FEFF 		bl	GetConstMsg
 2075              	.LVL243:
 2076 008c 3A46     		mov	r2, r7
 2077 008e 0146     		mov	r1, r0
 2078 0090 2046     		mov	r0, r4
ARM GAS  C:\Users\AHMED~1.ELE\AppData\Local\Temp\ccLLYyS4.s 			page 59


 2079 0092 FFF7FEFF 		bl	memcpy
 2080              	.LVL244:
 2081 0096 0023     		movs	r3, #0
 2082 0098 2521     		movs	r1, #37
 2083 009a E355     		strb	r3, [r4, r7]
 2084 009c 41F29203 		movw	r3, #4242
 2085 00a0 0F20     		movs	r0, #15
 2086 00a2 0093     		str	r3, [sp]
 2087 00a4 2246     		mov	r2, r4
 2088 00a6 4FF48073 		mov	r3, #256
 2089 00aa FFF7FEFF 		bl	lib_app_call
 2090              	.LVL245:
 2091 00ae 9420     		movs	r0, #148
 2092 00b0 2146     		mov	r1, r4
 2093 00b2 FFF7FEFF 		bl	sys_func1
 2094              	.LVL246:
 2095              	.L256:
 2096              	.LBE35:
 707:src/input.c   ****     offset = i;
 2097              		.loc 1 707 0 is_stmt 1
 2098 00b6 0027     		movs	r7, #0
 2099              	.LVL247:
 2100 00b8 0297     		str	r7, [sp, #8]
 2101              	.LVL248:
 2102              	.L257:
 717:src/input.c   ****     while ((line_no<MW_MAX_LINE)&&(offset<max_select)) {
 2103              		.loc 1 717 0
 2104 00ba 0023     		movs	r3, #0
 2105 00bc 0F20     		movs	r0, #15
 2106 00be 0093     		str	r3, [sp]
 2107 00c0 2321     		movs	r1, #35
 2108 00c2 4FF44072 		mov	r2, #768
 2109 00c6 FFF7FEFF 		bl	lib_app_call
 2110              	.LVL249:
 2111 00ca 4FF44074 		mov	r4, #768
 2112 00ce DDF80890 		ldr	r9, [sp, #8]
 2113              	.LVL250:
 2114              	.L258:
 718:src/input.c   ****       memset(tmp, ' ', sizeof(tmp));
 2115              		.loc 1 718 0 discriminator 1
 2116 00d2 A945     		cmp	r9, r5
 2117 00d4 64D2     		bcs	.L317
 721:src/input.c   ****       tmp[1] = ' ';
 2118              		.loc 1 721 0
 2119 00d6 0FFA89FA 		sxth	r10, r9
 719:src/input.c   ****       tmp[MW_MAX_LINESIZE] = 0;
 2120              		.loc 1 719 0
 2121 00da 2021     		movs	r1, #32
 2122 00dc 1B22     		movs	r2, #27
 2123 00de 05A8     		add	r0, sp, #20
 2124 00e0 FFF7FEFF 		bl	memset
 2125              	.LVL251:
 721:src/input.c   ****       tmp[1] = ' ';
 2126              		.loc 1 721 0
 2127 00e4 4FEA4A13 		lsl	r3, r10, #5
 2128 00e8 F118     		adds	r1, r6, r3
 720:src/input.c   ****       tmp[0] = product_select[offset].s_prod.b_key;
ARM GAS  C:\Users\AHMED~1.ELE\AppData\Local\Temp\ccLLYyS4.s 			page 60


 2129              		.loc 1 720 0
 2130 00ea 4FF0000B 		mov	fp, #0
 721:src/input.c   ****       tmp[1] = ' ';
 2131              		.loc 1 721 0
 2132 00ee 0393     		str	r3, [sp, #12]
 720:src/input.c   ****       tmp[0] = product_select[offset].s_prod.b_key;
 2133              		.loc 1 720 0
 2134 00f0 8DF82EB0 		strb	fp, [sp, #46]
 721:src/input.c   ****       tmp[1] = ' ';
 2135              		.loc 1 721 0
 2136 00f4 0B79     		ldrb	r3, [r1, #4]	@ zero_extendqisi2
 723:src/input.c   ****       DispLineMW(tmp, line_no, (product_select[offset].b_selected?MW_REVERSE:0)|MW_SPFONT);
 2137              		.loc 1 723 0
 2138 00f6 1322     		movs	r2, #19
 721:src/input.c   ****       tmp[1] = ' ';
 2139              		.loc 1 721 0
 2140 00f8 8DF81430 		strb	r3, [sp, #20]
 722:src/input.c   ****       memcpy(&tmp[2], product_select[offset].s_prod.sb_text, 19);
 2141              		.loc 1 722 0
 2142 00fc 2023     		movs	r3, #32
 723:src/input.c   ****       DispLineMW(tmp, line_no, (product_select[offset].b_selected?MW_REVERSE:0)|MW_SPFONT);
 2143              		.loc 1 723 0
 2144 00fe 0731     		adds	r1, r1, #7
 2145 0100 0DF11600 		add	r0, sp, #22
 722:src/input.c   ****       memcpy(&tmp[2], product_select[offset].s_prod.sb_text, 19);
 2146              		.loc 1 722 0
 2147 0104 8DF81530 		strb	r3, [sp, #21]
 723:src/input.c   ****       DispLineMW(tmp, line_no, (product_select[offset].b_selected?MW_REVERSE:0)|MW_SPFONT);
 2148              		.loc 1 723 0
 2149 0108 FFF7FEFF 		bl	memcpy
 2150              	.LVL252:
 2151              	.LBB36:
 724:src/input.c   ****       line_no += (MW_LINE3-MW_LINE2);
 2152              		.loc 1 724 0
 2153 010c 05A8     		add	r0, sp, #20
 2154 010e FFF7FEFF 		bl	strlen
 2155              	.LVL253:
 2156 0112 8246     		mov	r10, r0
 2157              	.LVL254:
 2158 0114 0AF10101 		add	r1, r10, #1
 2159 0118 9220     		movs	r0, #146
 2160              	.LVL255:
 2161 011a FFF7FEFF 		bl	sys_func1
 2162              	.LVL256:
 2163 011e 8046     		mov	r8, r0
 2164 0120 C0B1     		cbz	r0, .L259
 724:src/input.c   ****       line_no += (MW_LINE3-MW_LINE2);
 2165              		.loc 1 724 0 is_stmt 0 discriminator 1
 2166 0122 05A9     		add	r1, sp, #20
 2167 0124 5246     		mov	r2, r10
 2168 0126 FFF7FEFF 		bl	memcpy
 2169              	.LVL257:
 2170 012a 039B     		ldr	r3, [sp, #12]
 2171 012c 08F80AB0 		strb	fp, [r8, r10]
 2172 0130 F25C     		ldrb	r2, [r6, r3]	@ zero_extendqisi2
 2173 0132 42F21003 		movw	r3, #8208
 2174 0136 5A45     		cmp	r2, fp
ARM GAS  C:\Users\AHMED~1.ELE\AppData\Local\Temp\ccLLYyS4.s 			page 61


 2175 0138 08BF     		it	eq
 2176 013a 4FF40053 		moveq	r3, #8192
 2177 013e 2521     		movs	r1, #37
 2178 0140 0093     		str	r3, [sp]
 2179 0142 0F20     		movs	r0, #15
 2180 0144 4246     		mov	r2, r8
 2181 0146 2346     		mov	r3, r4
 2182 0148 FFF7FEFF 		bl	lib_app_call
 2183              	.LVL258:
 2184 014c 9420     		movs	r0, #148
 2185 014e 4146     		mov	r1, r8
 2186 0150 FFF7FEFF 		bl	sys_func1
 2187              	.LVL259:
 2188              	.L259:
 2189              	.LBE36:
 725:src/input.c   ****       offset++;
 2190              		.loc 1 725 0 is_stmt 1
 2191 0154 04F58074 		add	r4, r4, #256
 2192              	.LVL260:
 726:src/input.c   ****     }
 2193              		.loc 1 726 0
 2194 0158 09F10109 		add	r9, r9, #1
 2195              	.LVL261:
 718:src/input.c   ****       memset(tmp, ' ', sizeof(tmp));
 2196              		.loc 1 718 0
 2197 015c B4F5106F 		cmp	r4, #2304
 726:src/input.c   ****     }
 2198              		.loc 1 726 0
 2199 0160 5FFA89F9 		uxtb	r9, r9
 2200              	.LVL262:
 718:src/input.c   ****       memset(tmp, ' ', sizeof(tmp));
 2201              		.loc 1 718 0
 2202 0164 B5D1     		bne	.L258
 728:src/input.c   ****       if (offset < max_select) {
 2203              		.loc 1 728 0
 2204 0166 052D     		cmp	r5, #5
 2205 0168 24D9     		bls	.L264
 729:src/input.c   ****         DispLineMW("<CLR>Down<ENT>Confirm", MW_MAX_LINE, MW_REVERSE|MW_SPFONT);
 2206              		.loc 1 729 0
 2207 016a A945     		cmp	r9, r5
 2208 016c 1AD2     		bcs	.L265
 2209              	.LVL263:
 2210              	.LBB37:
 730:src/input.c   ****       }
 2211              		.loc 1 730 0
 2212 016e 9220     		movs	r0, #146
 2213 0170 1621     		movs	r1, #22
 2214 0172 FFF7FEFF 		bl	sys_func1
 2215              	.LVL264:
 2216 0176 8246     		mov	r10, r0
 2217              	.LVL265:
 2218 0178 B0B3     		cbz	r0, .L266
 730:src/input.c   ****       }
 2219              		.loc 1 730 0 is_stmt 0 discriminator 1
 2220 017a 4E49     		ldr	r1, .L318+8
 2221 017c 1522     		movs	r2, #21
 2222 017e FFF7FEFF 		bl	memcpy
ARM GAS  C:\Users\AHMED~1.ELE\AppData\Local\Temp\ccLLYyS4.s 			page 62


 2223              	.LVL266:
 2224 0182 0023     		movs	r3, #0
 2225 0184 2521     		movs	r1, #37
 2226 0186 8AF81530 		strb	r3, [r10, #21]
 2227 018a 42F21003 		movw	r3, #8208
 2228 018e 0F20     		movs	r0, #15
 2229 0190 0093     		str	r3, [sp]
 2230 0192 5246     		mov	r2, r10
 2231 0194 2346     		mov	r3, r4
 2232 0196 FFF7FEFF 		bl	lib_app_call
 2233              	.LVL267:
 2234 019a 9420     		movs	r0, #148
 2235 019c 5146     		mov	r1, r10
 2236 019e 21E0     		b	.L313
 2237              	.LVL268:
 2238              	.L317:
 2239              	.LBE37:
 728:src/input.c   ****       if (offset < max_select) {
 2240              		.loc 1 728 0 is_stmt 1
 2241 01a0 052D     		cmp	r5, #5
 2242 01a2 07D9     		bls	.L264
 2243              	.L265:
 2244              	.LVL269:
 2245              	.LBB38:
 733:src/input.c   ****       }
 2246              		.loc 1 733 0
 2247 01a4 9220     		movs	r0, #146
 2248 01a6 1621     		movs	r1, #22
 2249 01a8 FFF7FEFF 		bl	sys_func1
 2250              	.LVL270:
 2251 01ac 0446     		mov	r4, r0
 2252              	.LVL271:
 2253 01ae D8B1     		cbz	r0, .L266
 733:src/input.c   ****       }
 2254              		.loc 1 733 0 is_stmt 0 discriminator 1
 2255 01b0 4149     		ldr	r1, .L318+12
 2256 01b2 06E0     		b	.L314
 2257              	.LVL272:
 2258              	.L264:
 2259              	.LBE38:
 2260              	.LBB39:
 737:src/input.c   **** 
 2261              		.loc 1 737 0 is_stmt 1
 2262 01b4 9220     		movs	r0, #146
 2263 01b6 1621     		movs	r1, #22
 2264 01b8 FFF7FEFF 		bl	sys_func1
 2265              	.LVL273:
 2266 01bc 0446     		mov	r4, r0
 2267              	.LVL274:
 2268 01be 98B1     		cbz	r0, .L266
 737:src/input.c   **** 
 2269              		.loc 1 737 0 is_stmt 0 discriminator 1
 2270 01c0 3E49     		ldr	r1, .L318+16
 2271              	.LVL275:
 2272              	.L314:
 2273 01c2 1522     		movs	r2, #21
 2274 01c4 FFF7FEFF 		bl	memcpy
ARM GAS  C:\Users\AHMED~1.ELE\AppData\Local\Temp\ccLLYyS4.s 			page 63


 2275              	.LVL276:
 2276 01c8 0023     		movs	r3, #0
 2277 01ca 2521     		movs	r1, #37
 2278 01cc 6375     		strb	r3, [r4, #21]
 2279              	.LVL277:
 2280 01ce 42F21003 		movw	r3, #8208
 2281 01d2 0F20     		movs	r0, #15
 2282 01d4 0093     		str	r3, [sp]
 2283 01d6 2246     		mov	r2, r4
 2284 01d8 4FF41063 		mov	r3, #2304
 2285 01dc FFF7FEFF 		bl	lib_app_call
 2286              	.LVL278:
 2287 01e0 9420     		movs	r0, #148
 2288 01e2 2146     		mov	r1, r4
 2289              	.L313:
 2290 01e4 FFF7FEFF 		bl	sys_func1
 2291              	.LVL279:
 2292              	.L266:
 2293              	.LBE39:
 739:src/input.c   ****     if ((keyin>='0')&&(keyin<='0'+max_select)) {
 2294              		.loc 1 739 0 is_stmt 1
 2295 01e8 0024     		movs	r4, #0
 2296 01ea 1020     		movs	r0, #16
 2297 01ec 0094     		str	r4, [sp]
 2298 01ee 0321     		movs	r1, #3
 2299 01f0 42F22832 		movw	r2, #9000
 2300 01f4 2346     		mov	r3, r4
 2301 01f6 FFF7FEFF 		bl	lib_app_call
 2302              	.LVL280:
 740:src/input.c   ****       for (i=0; i < max_select; i++) {
 2303              		.loc 1 740 0
 2304 01fa 2F28     		cmp	r0, #47
 739:src/input.c   ****     if ((keyin>='0')&&(keyin<='0'+max_select)) {
 2305              		.loc 1 739 0
 2306 01fc 8246     		mov	r10, r0
 2307              	.LVL281:
 740:src/input.c   ****       for (i=0; i < max_select; i++) {
 2308              		.loc 1 740 0
 2309 01fe 24D9     		bls	.L267
 740:src/input.c   ****       for (i=0; i < max_select; i++) {
 2310              		.loc 1 740 0 is_stmt 0 discriminator 1
 2311 0200 05F13003 		add	r3, r5, #48
 2312 0204 9842     		cmp	r0, r3
 2313 0206 2FD8     		bhi	.L278
 2314              	.L268:
 2315              	.LVL282:
 741:src/input.c   ****         if (product_select[i].s_prod.b_key == keyin) {
 2316              		.loc 1 741 0 is_stmt 1 discriminator 1
 2317 0208 AC42     		cmp	r4, r5
 2318 020a 19D2     		bcs	.L272
 742:src/input.c   ****           if ((!product_select[i].b_selected) && (select_cnt == 4)) {
 2319              		.loc 1 742 0
 2320 020c 06EB4412 		add	r2, r6, r4, lsl #5
 2321 0210 1379     		ldrb	r3, [r2, #4]	@ zero_extendqisi2
 2322 0212 5345     		cmp	r3, r10
 2323 0214 11D1     		bne	.L270
 743:src/input.c   ****             LongBeep();
ARM GAS  C:\Users\AHMED~1.ELE\AppData\Local\Temp\ccLLYyS4.s 			page 64


 2324              		.loc 1 743 0
 2325 0216 1378     		ldrb	r3, [r2]	@ zero_extendqisi2
 2326 0218 23B9     		cbnz	r3, .L271
 743:src/input.c   ****             LongBeep();
 2327              		.loc 1 743 0 is_stmt 0 discriminator 1
 2328 021a 042F     		cmp	r7, #4
 2329 021c 02D1     		bne	.L271
 744:src/input.c   ****             break;
 2330              		.loc 1 744 0 is_stmt 1
 2331 021e FFF7FEFF 		bl	LongBeep
 2332              	.LVL283:
 745:src/input.c   ****           }
 2333              		.loc 1 745 0
 2334 0222 0DE0     		b	.L272
 2335              	.LVL284:
 2336              	.L271:
 747:src/input.c   ****           select_cnt += product_select[i].b_selected?1:-1;
 2337              		.loc 1 747 0
 2338 0224 B3FA83F3 		clz	r3, r3
 2339 0228 5B09     		lsrs	r3, r3, #5
 2340 022a 1370     		strb	r3, [r2]
 748:src/input.c   ****           break;
 2341              		.loc 1 748 0
 2342 022c 002B     		cmp	r3, #0
 2343 022e 14BF     		ite	ne
 2344 0230 0123     		movne	r3, #1
 2345 0232 FF23     		moveq	r3, #255
 2346 0234 1F44     		add	r7, r7, r3
 2347              	.LVL285:
 2348 0236 FFB2     		uxtb	r7, r7
 2349              	.LVL286:
 749:src/input.c   ****         }
 2350              		.loc 1 749 0
 2351 0238 02E0     		b	.L272
 2352              	.L270:
 741:src/input.c   ****         if (product_select[i].s_prod.b_key == keyin) {
 2353              		.loc 1 741 0 discriminator 2
 2354 023a 0134     		adds	r4, r4, #1
 2355              	.LVL287:
 2356 023c E4B2     		uxtb	r4, r4
 2357              	.LVL288:
 2358 023e E3E7     		b	.L268
 2359              	.LVL289:
 2360              	.L272:
 752:src/input.c   ****         LongBeep();
 2361              		.loc 1 752 0
 2362 0240 AC42     		cmp	r4, r5
 2363 0242 11D1     		bne	.L278
 753:src/input.c   ****     }
 2364              		.loc 1 753 0
 2365 0244 FFF7FEFF 		bl	LongBeep
 2366              	.LVL290:
 2367 0248 0EE0     		b	.L278
 2368              	.LVL291:
 2369              	.L267:
 755:src/input.c   ****       break;
 2370              		.loc 1 755 0
ARM GAS  C:\Users\AHMED~1.ELE\AppData\Local\Temp\ccLLYyS4.s 			page 65


 2371 024a 1028     		cmp	r0, #16
 2372 024c 04D1     		bne	.L275
 755:src/input.c   ****       break;
 2373              		.loc 1 755 0 is_stmt 0 discriminator 1
 2374 024e 002F     		cmp	r7, #0
 2375 0250 3FF433AF 		beq	.L257
 755:src/input.c   ****       break;
 2376              		.loc 1 755 0
 2377 0254 2346     		mov	r3, r4
 2378 0256 1EE0     		b	.L284
 2379              	.L275:
 757:src/input.c   ****       start_offset=offset = (offset == max_select) ? 0 : offset;
 2380              		.loc 1 757 0 is_stmt 1
 2381 0258 1228     		cmp	r0, #18
 2382 025a 05D1     		bne	.L278
 758:src/input.c   ****     else
 2383              		.loc 1 758 0
 2384 025c 4B46     		mov	r3, r9
 2385 025e A945     		cmp	r9, r5
 2386 0260 08BF     		it	eq
 2387 0262 0023     		moveq	r3, #0
 2388 0264 0293     		str	r3, [sp, #8]
 2389              	.LVL292:
 2390 0266 28E7     		b	.L257
 2391              	.LVL293:
 2392              	.L278:
 762:src/input.c   **** 
 2393              		.loc 1 762 0
 2394 0268 BAF1110F 		cmp	r10, #17
 2395 026c 7FF425AF 		bne	.L257
 765:src/input.c   ****     return FALSE;
 2396              		.loc 1 765 0
 2397 0270 9420     		movs	r0, #148
 2398 0272 3146     		mov	r1, r6
 2399 0274 FFF7FEFF 		bl	sys_func1
 2400              	.LVL294:
 766:src/input.c   ****   }
 2401              		.loc 1 766 0
 2402 0278 0020     		movs	r0, #0
 2403 027a 13E0     		b	.L310
 2404              	.LVL295:
 2405              	.L283:
 771:src/input.c   ****       break;
 2406              		.loc 1 771 0
 2407 027c A742     		cmp	r7, r4
 2408 027e 0CD0     		beq	.L281
 773:src/input.c   ****       INPUT.sb_product[offset]=i;
 2409              		.loc 1 773 0
 2410 0280 5A01     		lsls	r2, r3, #5
 2411 0282 B25C     		ldrb	r2, [r6, r2]	@ zero_extendqisi2
 2412 0284 2AB1     		cbz	r2, .L282
 774:src/input.c   ****       offset++;
 2413              		.loc 1 774 0
 2414 0286 0A4A     		ldr	r2, .L318+4
 2415 0288 2244     		add	r2, r2, r4
 775:src/input.c   ****     }
 2416              		.loc 1 775 0
ARM GAS  C:\Users\AHMED~1.ELE\AppData\Local\Temp\ccLLYyS4.s 			page 66


 2417 028a 0134     		adds	r4, r4, #1
 2418              	.LVL296:
 774:src/input.c   ****       offset++;
 2419              		.loc 1 774 0
 2420 028c 82F83030 		strb	r3, [r2, #48]
 775:src/input.c   ****     }
 2421              		.loc 1 775 0
 2422 0290 E4B2     		uxtb	r4, r4
 2423              	.LVL297:
 2424              	.L282:
 770:src/input.c   ****     if (select_cnt == offset)
 2425              		.loc 1 770 0 discriminator 2
 2426 0292 0133     		adds	r3, r3, #1
 2427              	.LVL298:
 2428 0294 DBB2     		uxtb	r3, r3
 2429              	.LVL299:
 2430              	.L284:
 770:src/input.c   ****     if (select_cnt == offset)
 2431              		.loc 1 770 0 is_stmt 0 discriminator 1
 2432 0296 AB42     		cmp	r3, r5
 2433 0298 F0D3     		bcc	.L283
 2434              	.L281:
 778:src/input.c   ****   return TRUE;
 2435              		.loc 1 778 0 is_stmt 1
 2436 029a 9420     		movs	r0, #148
 2437              	.LVL300:
 2438 029c 3146     		mov	r1, r6
 2439 029e FFF7FEFF 		bl	sys_func1
 2440              	.LVL301:
 2441              	.L315:
 779:src/input.c   **** }
 2442              		.loc 1 779 0
 2443 02a2 0120     		movs	r0, #1
 2444              	.L310:
 780:src/input.c   **** //*****************************************************************************
 2445              		.loc 1 780 0
 2446 02a4 0DB0     		add	sp, sp, #52
 2447              		.cfi_def_cfa_offset 36
 2448              		@ sp needed
 2449 02a6 BDE8F08F 		pop	{r4, r5, r6, r7, r8, r9, r10, fp, pc}
 2450              	.L319:
 2451 02aa 00BF     		.align	2
 2452              	.L318:
 2453 02ac 30000000 		.word	gGTS+48
 2454 02b0 00000000 		.word	gGTS
 2455 02b4 00000000 		.word	.LC0
 2456 02b8 16000000 		.word	.LC1
 2457 02bc 2C000000 		.word	.LC2
 2458              		.cfi_endproc
 2459              	.LFE13:
 2460              		.size	GetProductCode, .-GetProductCode
 2461              		.section	.text.Get4DBC,"ax",%progbits
 2462              		.align	1
 2463              		.global	Get4DBC
 2464              		.thumb
 2465              		.thumb_func
 2466              		.type	Get4DBC, %function
ARM GAS  C:\Users\AHMED~1.ELE\AppData\Local\Temp\ccLLYyS4.s 			page 67


 2467              	Get4DBC:
 2468              	.LFB14:
 790:src/input.c   ****   BYTE kbdbuf[32];
 2469              		.loc 1 790 0
 2470              		.cfi_startproc
 2471              		@ args = 0, pretend = 0, frame = 32
 2472              		@ frame_needed = 0, uses_anonymous_args = 0
 2473 0000 10B5     		push	{r4, lr}
 2474              		.cfi_def_cfa_offset 8
 2475              		.cfi_offset 4, -8
 2476              		.cfi_offset 14, -4
 793:src/input.c   ****   Disp2x16Msg(GetConstMsg(EDC_IN_4DBC), MW_LINE3, MW_BIGFONT);
 2477              		.loc 1 793 0
 2478 0002 0020     		movs	r0, #0
 790:src/input.c   ****   BYTE kbdbuf[32];
 2479              		.loc 1 790 0
 2480 0004 8AB0     		sub	sp, sp, #40
 2481              		.cfi_def_cfa_offset 48
 793:src/input.c   ****   Disp2x16Msg(GetConstMsg(EDC_IN_4DBC), MW_LINE3, MW_BIGFONT);
 2482              		.loc 1 793 0
 2483 0006 FFF7FEFF 		bl	DispHeader
 2484              	.LVL302:
 794:src/input.c   ****   kbdbuf[0] = 0;
 2485              		.loc 1 794 0
 2486 000a 1D20     		movs	r0, #29
 2487 000c FFF7FEFF 		bl	GetConstMsg
 2488              	.LVL303:
 2489 0010 4FF44071 		mov	r1, #768
 2490 0014 4FF48052 		mov	r2, #4096
 2491 0018 FFF7FEFF 		bl	Disp2x16Msg
 2492              	.LVL304:
 795:src/input.c   ****   memset(INPUT.sb_amex_4DBC, 0x00, sizeof(INPUT.sb_amex_4DBC));
 2493              		.loc 1 795 0
 2494 001c 0AAC     		add	r4, sp, #40
 2495 001e 0021     		movs	r1, #0
 796:src/input.c   ****   if (!APM_GetKbd(NUMERIC_INPUT+MW_BIGFONT+MW_LINE7+RIGHT_JUST, IMIN(4)+IMAX(4), kbdbuf))
 2496              		.loc 1 796 0
 2497 0020 0422     		movs	r2, #4
 2498 0022 1448     		ldr	r0, .L331
 795:src/input.c   ****   memset(INPUT.sb_amex_4DBC, 0x00, sizeof(INPUT.sb_amex_4DBC));
 2499              		.loc 1 795 0
 2500 0024 04F8201D 		strb	r1, [r4, #-32]!
 796:src/input.c   ****   if (!APM_GetKbd(NUMERIC_INPUT+MW_BIGFONT+MW_LINE7+RIGHT_JUST, IMIN(4)+IMAX(4), kbdbuf))
 2501              		.loc 1 796 0
 2502 0028 FFF7FEFF 		bl	memset
 2503              	.LVL305:
 797:src/input.c   ****     return FALSE;
 2504              		.loc 1 797 0
 2505 002c 0094     		str	r4, [sp]
 2506 002e 1020     		movs	r0, #16
 2507 0030 0521     		movs	r1, #5
 2508 0032 41F2FF72 		movw	r2, #6143
 2509 0036 40F20443 		movw	r3, #1028
 2510 003a FFF7FEFF 		bl	lib_app_call
 2511              	.LVL306:
 2512 003e C0B2     		uxtb	r0, r0
 2513 0040 B0B1     		cbz	r0, .L321
ARM GAS  C:\Users\AHMED~1.ELE\AppData\Local\Temp\ccLLYyS4.s 			page 68


 800:src/input.c   ****   switch (INPUT.b_entry_mode) {
 2514              		.loc 1 800 0
 2515 0042 9DF80820 		ldrb	r2, [sp, #8]	@ zero_extendqisi2
 2516 0046 0B48     		ldr	r0, .L331
 2517 0048 611C     		adds	r1, r4, #1
 2518 004a FFF7FEFF 		bl	memcpy
 2519              	.LVL307:
 801:src/input.c   ****     case MANUAL:
 2520              		.loc 1 801 0
 2521 004e 0A4B     		ldr	r3, .L331+4
 2522 0050 93F83420 		ldrb	r2, [r3, #52]	@ zero_extendqisi2
 2523 0054 4D2A     		cmp	r2, #77
 2524 0056 05D0     		beq	.L322
 2525 0058 532A     		cmp	r2, #83
 2526 005a 05D0     		beq	.L323
 2527 005c 462A     		cmp	r2, #70
 2528 005e 06D1     		bne	.L329
 809:src/input.c   ****       break;
 2529              		.loc 1 809 0
 2530 0060 6622     		movs	r2, #102
 2531 0062 02E0     		b	.L330
 2532              	.L322:
 803:src/input.c   ****       break;
 2533              		.loc 1 803 0
 2534 0064 6D22     		movs	r2, #109
 2535 0066 00E0     		b	.L330
 2536              	.L323:
 806:src/input.c   ****       break;
 2537              		.loc 1 806 0
 2538 0068 7322     		movs	r2, #115
 2539              	.L330:
 809:src/input.c   ****       break;
 2540              		.loc 1 809 0
 2541 006a 83F83420 		strb	r2, [r3, #52]
 2542              	.L329:
 812:src/input.c   **** }
 2543              		.loc 1 812 0
 2544 006e 0120     		movs	r0, #1
 2545              	.L321:
 813:src/input.c   **** //*****************************************************************************
 2546              		.loc 1 813 0
 2547 0070 0AB0     		add	sp, sp, #40
 2548              		.cfi_def_cfa_offset 8
 2549              		@ sp needed
 2550 0072 10BD     		pop	{r4, pc}
 2551              	.L332:
 2552              		.align	2
 2553              	.L331:
 2554 0074 F7020000 		.word	gGTS+759
 2555 0078 00000000 		.word	gGTS
 2556              		.cfi_endproc
 2557              	.LFE14:
 2558              		.size	Get4DBC, .-Get4DBC
 2559              		.section	.text.SearchRecord,"ax",%progbits
 2560              		.align	1
 2561              		.global	SearchRecord
 2562              		.thumb
ARM GAS  C:\Users\AHMED~1.ELE\AppData\Local\Temp\ccLLYyS4.s 			page 69


 2563              		.thumb_func
 2564              		.type	SearchRecord, %function
 2565              	SearchRecord:
 2566              	.LFB15:
 824:src/input.c   ****   BYTE kbdbuf[MAX_INPUT_LEN+1];
 2567              		.loc 1 824 0
 2568              		.cfi_startproc
 2569              		@ args = 0, pretend = 0, frame = 56
 2570              		@ frame_needed = 0, uses_anonymous_args = 0
 2571              	.LVL308:
 2572 0000 F0B5     		push	{r4, r5, r6, r7, lr}
 2573              		.cfi_def_cfa_offset 20
 2574              		.cfi_offset 4, -20
 2575              		.cfi_offset 5, -16
 2576              		.cfi_offset 6, -12
 2577              		.cfi_offset 7, -8
 2578              		.cfi_offset 14, -4
 828:src/input.c   ****   while (1) {
 2579              		.loc 1 828 0
 2580 0002 43F23872 		movw	r2, #14136
 2581 0006 3C4B     		ldr	r3, .L346
 824:src/input.c   ****   BYTE kbdbuf[MAX_INPUT_LEN+1];
 2582              		.loc 1 824 0
 2583 0008 91B0     		sub	sp, sp, #68
 2584              		.cfi_def_cfa_offset 88
 824:src/input.c   ****   BYTE kbdbuf[MAX_INPUT_LEN+1];
 2585              		.loc 1 824 0
 2586 000a 0746     		mov	r7, r0
 828:src/input.c   ****   while (1) {
 2587              		.loc 1 828 0
 2588 000c A3F86E25 		strh	r2, [r3, #1390]	@ movhi
 2589              	.LVL309:
 2590              	.L338:
 830:src/input.c   ****     DispClrBelowMW(MW_LINE3);
 2591              		.loc 1 830 0
 2592 0010 0024     		movs	r4, #0
 2593 0012 10AD     		add	r5, sp, #64
 831:src/input.c   ****     Disp2x16Msg(GetConstMsg(EDC_IN_TRACE), MW_LINE3, MW_BIGFONT);
 2594              		.loc 1 831 0
 2595 0014 2346     		mov	r3, r4
 830:src/input.c   ****     DispClrBelowMW(MW_LINE3);
 2596              		.loc 1 830 0
 2597 0016 05F8384D 		strb	r4, [r5, #-56]!
 831:src/input.c   ****     Disp2x16Msg(GetConstMsg(EDC_IN_TRACE), MW_LINE3, MW_BIGFONT);
 2598              		.loc 1 831 0
 2599 001a 2321     		movs	r1, #35
 2600 001c 4FF44072 		mov	r2, #768
 2601 0020 0094     		str	r4, [sp]
 2602 0022 0F20     		movs	r0, #15
 2603 0024 FFF7FEFF 		bl	lib_app_call
 2604              	.LVL310:
 832:src/input.c   ****     if (!APM_GetKbd(NUMERIC_INPUT+ECHO+JUSTIFIED+MW_BIGFONT+MW_LINE7+RIGHT_JUST, IMIN(6)+IMAX(6), k
 2605              		.loc 1 832 0
 2606 0028 1F20     		movs	r0, #31
 2607 002a FFF7FEFF 		bl	GetConstMsg
 2608              	.LVL311:
 2609 002e 4FF44071 		mov	r1, #768
ARM GAS  C:\Users\AHMED~1.ELE\AppData\Local\Temp\ccLLYyS4.s 			page 70


 2610 0032 4FF48052 		mov	r2, #4096
 2611 0036 FFF7FEFF 		bl	Disp2x16Msg
 2612              	.LVL312:
 833:src/input.c   ****       return -1;
 2613              		.loc 1 833 0
 2614 003a 0095     		str	r5, [sp]
 2615 003c 1020     		movs	r0, #16
 2616 003e 0521     		movs	r1, #5
 2617 0040 2E4A     		ldr	r2, .L346+4
 2618 0042 40F20663 		movw	r3, #1542
 2619 0046 FFF7FEFF 		bl	lib_app_call
 2620              	.LVL313:
 2621 004a 10F0FF0F 		tst	r0, #255
 2622 004e 4FD0     		beq	.L339
 835:src/input.c   ****     rec_idx = APM_TraceInBatch(&kbdbuf[7]);
 2623              		.loc 1 835 0
 2624 0050 EE1D     		adds	r6, r5, #7
 2625 0052 3046     		mov	r0, r6
 2626 0054 2946     		mov	r1, r5
 2627 0056 0322     		movs	r2, #3
 2628 0058 FFF7FEFF 		bl	CompressInputData
 2629              	.LVL314:
 836:src/input.c   ****     if (rec_idx != -1) {
 2630              		.loc 1 836 0
 2631 005c 0094     		str	r4, [sp]
 2632 005e 3246     		mov	r2, r6
 2633 0060 2346     		mov	r3, r4
 2634 0062 1020     		movs	r0, #16
 2635 0064 2F21     		movs	r1, #47
 2636 0066 FFF7FEFF 		bl	lib_app_call
 2637              	.LVL315:
 837:src/input.c   ****       APM_GetBatchRec(rec_idx, &RECORD_BUF, sizeof(RECORD_BUF));
 2638              		.loc 1 837 0
 2639 006a 421C     		adds	r2, r0, #1
 836:src/input.c   ****     if (rec_idx != -1) {
 2640              		.loc 1 836 0
 2641 006c 0446     		mov	r4, r0
 2642              	.LVL316:
 837:src/input.c   ****       APM_GetBatchRec(rec_idx, &RECORD_BUF, sizeof(RECORD_BUF));
 2643              		.loc 1 837 0
 2644 006e 30D0     		beq	.L335
 838:src/input.c   ****       ClearRspData();
 2645              		.loc 1 838 0
 2646 0070 234E     		ldr	r6, .L346+8
 2647 0072 4FF40072 		mov	r2, #512
 2648 0076 3368     		ldr	r3, [r6]
 2649 0078 2A21     		movs	r1, #42
 2650 007a 03F5D963 		add	r3, r3, #1736
 2651 007e 0092     		str	r2, [sp]
 2652 0080 1020     		movs	r0, #16
 2653              	.LVL317:
 2654 0082 2246     		mov	r2, r4
 2655 0084 FFF7FEFF 		bl	lib_app_call
 2656              	.LVL318:
 840:src/input.c   ****       if (InCardTable()) {
 2657              		.loc 1 840 0
 2658 0088 1B4D     		ldr	r5, .L346
ARM GAS  C:\Users\AHMED~1.ELE\AppData\Local\Temp\ccLLYyS4.s 			page 71


 839:src/input.c   ****       memcpy(INPUT.sb_pan, RECORD_BUF.sb_pan, 10);
 2659              		.loc 1 839 0
 2660 008a FFF7FEFF 		bl	ClearRspData
 2661              	.LVL319:
 840:src/input.c   ****       if (InCardTable()) {
 2662              		.loc 1 840 0
 2663 008e 3168     		ldr	r1, [r6]
 2664 0090 0A22     		movs	r2, #10
 2665 0092 01F2D161 		addw	r1, r1, #1745
 2666 0096 05F10900 		add	r0, r5, #9
 2667 009a FFF7FEFF 		bl	memcpy
 2668              	.LVL320:
 841:src/input.c   ****         if (((RECORD_BUF.b_trans_status & VOIDED) != 0) && (!aIncVoidTxn)) {
 2669              		.loc 1 841 0
 2670 009e FFF7FEFF 		bl	InCardTable
 2671              	.LVL321:
 2672 00a2 90B1     		cbz	r0, .L336
 842:src/input.c   ****           RSP_DATA.w_rspcode = 'V'*256+'D';
 2673              		.loc 1 842 0
 2674 00a4 3368     		ldr	r3, [r6]
 2675 00a6 93F8C936 		ldrb	r3, [r3, #1737]	@ zero_extendqisi2
 2676 00aa DB06     		lsls	r3, r3, #27
 2677 00ac 05D5     		bpl	.L337
 842:src/input.c   ****           RSP_DATA.w_rspcode = 'V'*256+'D';
 2678              		.loc 1 842 0 is_stmt 0 discriminator 1
 2679 00ae 27B9     		cbnz	r7, .L337
 843:src/input.c   ****           return -1;
 2680              		.loc 1 843 0 is_stmt 1
 2681 00b0 45F24463 		movw	r3, #22084
 2682 00b4 A5F86E35 		strh	r3, [r5, #1390]	@ movhi
 2683 00b8 1AE0     		b	.L339
 2684              	.L337:
 846:src/input.c   ****         return rec_idx;
 2685              		.loc 1 846 0
 2686 00ba 1248     		ldr	r0, .L346+12
 2687 00bc 0DF10F01 		add	r1, sp, #15
 2688 00c0 0322     		movs	r2, #3
 2689 00c2 FFF7FEFF 		bl	memcpy
 2690              	.LVL322:
 836:src/input.c   ****     if (rec_idx != -1) {
 2691              		.loc 1 836 0
 2692 00c6 2046     		mov	r0, r4
 847:src/input.c   ****       }
 2693              		.loc 1 847 0
 2694 00c8 14E0     		b	.L334
 2695              	.L336:
 850:src/input.c   ****       }
 2696              		.loc 1 850 0
 2697 00ca 43F23413 		movw	r3, #12596
 2698 00ce A5F86E35 		strh	r3, [r5, #1390]	@ movhi
 2699              	.L335:
 853:src/input.c   ****     DispRspText(FALSE);
 2700              		.loc 1 853 0
 2701 00d2 0024     		movs	r4, #0
 2702              	.LVL323:
 2703 00d4 2321     		movs	r1, #35
 2704 00d6 4FF44072 		mov	r2, #768
ARM GAS  C:\Users\AHMED~1.ELE\AppData\Local\Temp\ccLLYyS4.s 			page 72


 2705 00da 2346     		mov	r3, r4
 2706 00dc 0094     		str	r4, [sp]
 2707 00de 0F20     		movs	r0, #15
 2708 00e0 FFF7FEFF 		bl	lib_app_call
 2709              	.LVL324:
 854:src/input.c   ****     ErrorDelay();
 2710              		.loc 1 854 0
 2711 00e4 2046     		mov	r0, r4
 2712 00e6 FFF7FEFF 		bl	DispRspText
 2713              	.LVL325:
 855:src/input.c   ****   }
 2714              		.loc 1 855 0
 2715 00ea FFF7FEFF 		bl	ErrorDelay
 2716              	.LVL326:
 856:src/input.c   **** }
 2717              		.loc 1 856 0
 2718 00ee 8FE7     		b	.L338
 2719              	.L339:
 834:src/input.c   ****     CompressInputData(&kbdbuf[7], kbdbuf, 3);
 2720              		.loc 1 834 0
 2721 00f0 4FF0FF30 		mov	r0, #-1
 2722              	.L334:
 857:src/input.c   **** //*****************************************************************************
 2723              		.loc 1 857 0
 2724 00f4 11B0     		add	sp, sp, #68
 2725              		.cfi_def_cfa_offset 20
 2726              		@ sp needed
 2727 00f6 F0BD     		pop	{r4, r5, r6, r7, pc}
 2728              	.L347:
 2729              		.align	2
 2730              	.L346:
 2731 00f8 00000000 		.word	gGTS
 2732 00fc FF173000 		.word	3151871
 2733 0100 00000000 		.word	gGDS
 2734 0104 02000000 		.word	gGTS+2
 2735              		.cfi_endproc
 2736              	.LFE15:
 2737              		.size	SearchRecord, .-SearchRecord
 2738              		.section	.text.GetCardNbr,"ax",%progbits
 2739              		.align	1
 2740              		.global	GetCardNbr
 2741              		.thumb
 2742              		.thumb_func
 2743              		.type	GetCardNbr, %function
 2744              	GetCardNbr:
 2745              	.LFB17:
 880:src/input.c   **** //*****************************************************************************
 881:src/input.c   **** //  Function        : GetCardNbr
 882:src/input.c   **** //  Description     : Get MANUAL key in card number & store to input.sb_pan.
 883:src/input.c   **** //  Input           : aFirstKey;            // 1st keyin char.
 884:src/input.c   **** //  Return          : MWKEY_CANCL/MWKEY_CLR/MWKEY_ENTER;
 885:src/input.c   **** //  Note            : N/A
 886:src/input.c   **** //  Globals Changed : INPUT.
 887:src/input.c   **** //*****************************************************************************
 888:src/input.c   **** DWORD GetCardNbr(DWORD aFirstKey)
 889:src/input.c   **** {
 2746              		.loc 1 889 0
ARM GAS  C:\Users\AHMED~1.ELE\AppData\Local\Temp\ccLLYyS4.s 			page 73


 2747              		.cfi_startproc
 2748              		@ args = 0, pretend = 0, frame = 56
 2749              		@ frame_needed = 0, uses_anonymous_args = 0
 2750              	.LVL327:
 2751 0000 10B5     		push	{r4, lr}
 2752              		.cfi_def_cfa_offset 8
 2753              		.cfi_offset 4, -8
 2754              		.cfi_offset 14, -4
 890:src/input.c   ****   DWORD keyin;
 891:src/input.c   ****   BYTE kbdbuf[MAX_INPUT_LEN+1];
 892:src/input.c   **** 
 893:src/input.c   ****   kbdbuf[0] = 0;
 2755              		.loc 1 893 0
 2756 0002 0023     		movs	r3, #0
 889:src/input.c   ****   DWORD keyin;
 2757              		.loc 1 889 0
 2758 0004 90B0     		sub	sp, sp, #64
 2759              		.cfi_def_cfa_offset 72
 889:src/input.c   ****   DWORD keyin;
 2760              		.loc 1 889 0
 2761 0006 0446     		mov	r4, r0
 894:src/input.c   ****   keyin     = aFirstKey;
 895:src/input.c   ****   DispClrBelowMW(MW_LINE3);
 2762              		.loc 1 895 0
 2763 0008 0093     		str	r3, [sp]
 2764 000a 0F20     		movs	r0, #15
 2765              	.LVL328:
 2766 000c 2321     		movs	r1, #35
 2767 000e 4FF44072 		mov	r2, #768
 893:src/input.c   ****   keyin     = aFirstKey;
 2768              		.loc 1 893 0
 2769 0012 8DF80830 		strb	r3, [sp, #8]
 2770              	.LVL329:
 2771              		.loc 1 895 0
 2772 0016 FFF7FEFF 		bl	lib_app_call
 2773              	.LVL330:
 896:src/input.c   ****   while (TRUE) {
 897:src/input.c   ****     if (keyin == 0)
 2774              		.loc 1 897 0
 2775 001a 2CB9     		cbnz	r4, .L350
 2776              	.LVL331:
 2777              	.L366:
 898:src/input.c   ****       keyin=WaitKey(KBD_TIMEOUT, 0);
 2778              		.loc 1 898 0
 2779 001c 2146     		mov	r1, r4
 2780 001e 42F22830 		movw	r0, #9000
 2781 0022 FFF7FEFF 		bl	WaitKey
 2782              	.LVL332:
 2783 0026 0446     		mov	r4, r0
 2784              	.LVL333:
 2785              	.L350:
 899:src/input.c   ****     switch (keyin) {
 2786              		.loc 1 899 0
 2787 0028 122C     		cmp	r4, #18
 2788 002a 46D0     		beq	.L352
 2789 002c 04D8     		bhi	.L353
 2790 002e 102C     		cmp	r4, #16
ARM GAS  C:\Users\AHMED~1.ELE\AppData\Local\Temp\ccLLYyS4.s 			page 74


 2791 0030 34D0     		beq	.L354
 2792 0032 112C     		cmp	r4, #17
 2793 0034 4ED0     		beq	.L362
 2794 0036 4AE0     		b	.L351
 2795              	.L353:
 2796 0038 302C     		cmp	r4, #48
 2797 003a 48D3     		bcc	.L351
 2798 003c 392C     		cmp	r4, #57
 2799 003e 18D9     		bls	.L356
 2800 0040 3A2C     		cmp	r4, #58
 2801 0042 44D1     		bne	.L351
 900:src/input.c   ****       case MWKEY_00:
 901:src/input.c   ****         if (kbdbuf[0] >= 18) {
 2802              		.loc 1 901 0
 2803 0044 9DF80800 		ldrb	r0, [sp, #8]	@ zero_extendqisi2
 2804 0048 1128     		cmp	r0, #17
 2805 004a 01D9     		bls	.L358
 902:src/input.c   ****           DispErrorMsg(GetConstMsg(EDC_IN_INVALID_CARD));
 2806              		.loc 1 902 0
 2807 004c 1E20     		movs	r0, #30
 2808 004e 15E0     		b	.L368
 2809              	.L358:
 903:src/input.c   ****           return(MWKEY_CLR);
 904:src/input.c   ****         }
 905:src/input.c   ****         memcpy(&kbdbuf[++kbdbuf[0]], "00", 2);
 2810              		.loc 1 905 0
 2811 0050 0130     		adds	r0, r0, #1
 2812 0052 10AC     		add	r4, sp, #64
 2813              	.LVL334:
 2814 0054 C0B2     		uxtb	r0, r0
 2815 0056 2149     		ldr	r1, .L370
 2816 0058 04F8380D 		strb	r0, [r4, #-56]!
 2817 005c 0222     		movs	r2, #2
 2818 005e 2044     		add	r0, r0, r4
 2819 0060 FFF7FEFF 		bl	memcpy
 2820              	.LVL335:
 906:src/input.c   ****         ++kbdbuf[0];
 2821              		.loc 1 906 0
 2822 0064 9DF80830 		ldrb	r3, [sp, #8]	@ zero_extendqisi2
 907:src/input.c   ****         DispKeyinPAN(kbdbuf);
 2823              		.loc 1 907 0
 2824 0068 2046     		mov	r0, r4
 906:src/input.c   ****         ++kbdbuf[0];
 2825              		.loc 1 906 0
 2826 006a 0133     		adds	r3, r3, #1
 2827 006c 8DF80830 		strb	r3, [sp, #8]
 2828 0070 2AE0     		b	.L367
 2829              	.LVL336:
 2830              	.L356:
 908:src/input.c   ****         break;
 909:src/input.c   ****       case MWKEY_0:
 910:src/input.c   ****       case MWKEY_1:
 911:src/input.c   ****       case MWKEY_2:
 912:src/input.c   ****       case MWKEY_3:
 913:src/input.c   ****       case MWKEY_4:
 914:src/input.c   ****       case MWKEY_5:
 915:src/input.c   ****       case MWKEY_6:
ARM GAS  C:\Users\AHMED~1.ELE\AppData\Local\Temp\ccLLYyS4.s 			page 75


 916:src/input.c   ****       case MWKEY_7:
 917:src/input.c   ****       case MWKEY_8:
 918:src/input.c   ****       case MWKEY_9:
 919:src/input.c   ****         if (kbdbuf[0] >= 19) {
 2831              		.loc 1 919 0
 2832 0072 9DF80830 		ldrb	r3, [sp, #8]	@ zero_extendqisi2
 2833 0076 122B     		cmp	r3, #18
 2834 0078 06D9     		bls	.L360
 920:src/input.c   ****           DispErrorMsg(GetConstMsg(EDC_RSP_INVALID_CARD));
 2835              		.loc 1 920 0
 2836 007a 7C20     		movs	r0, #124
 2837              	.L368:
 2838 007c FFF7FEFF 		bl	GetConstMsg
 2839              	.LVL337:
 2840 0080 FFF7FEFF 		bl	DispErrorMsg
 2841              	.LVL338:
 921:src/input.c   ****           return(MWKEY_CLR);
 2842              		.loc 1 921 0
 2843 0084 1220     		movs	r0, #18
 2844 0086 26E0     		b	.L355
 2845              	.L360:
 922:src/input.c   ****         }
 923:src/input.c   ****         kbdbuf[++kbdbuf[0]] = (BYTE) keyin;
 2846              		.loc 1 923 0
 2847 0088 0133     		adds	r3, r3, #1
 2848 008a 10AA     		add	r2, sp, #64
 2849 008c DBB2     		uxtb	r3, r3
 924:src/input.c   ****         DispKeyinPAN(kbdbuf);
 2850              		.loc 1 924 0
 2851 008e 02A8     		add	r0, sp, #8
 923:src/input.c   ****         DispKeyinPAN(kbdbuf);
 2852              		.loc 1 923 0
 2853 0090 8DF80830 		strb	r3, [sp, #8]
 2854 0094 1344     		add	r3, r3, r2
 2855 0096 03F8384C 		strb	r4, [r3, #-56]
 2856 009a 15E0     		b	.L367
 2857              	.L354:
 925:src/input.c   ****         break;
 926:src/input.c   ****       case MWKEY_ENTER:
 927:src/input.c   ****         if (kbdbuf[0] != 0) {
 2858              		.loc 1 927 0
 2859 009c 9DF80830 		ldrb	r3, [sp, #8]	@ zero_extendqisi2
 2860 00a0 0BB9     		cbnz	r3, .L369
 2861              	.LVL339:
 2862              	.L359:
 2863 00a2 0024     		movs	r4, #0
 2864 00a4 BAE7     		b	.L366
 2865              	.LVL340:
 2866              	.L369:
 928:src/input.c   ****           CompressInputFData(INPUT.sb_pan, kbdbuf, 10);
 2867              		.loc 1 928 0
 2868 00a6 0A22     		movs	r2, #10
 2869 00a8 0D48     		ldr	r0, .L370+4
 2870 00aa 02A9     		add	r1, sp, #8
 2871 00ac FFF7FEFF 		bl	CompressInputFData
 2872              	.LVL341:
 929:src/input.c   ****           INPUT.b_entry_mode = MANUAL;
ARM GAS  C:\Users\AHMED~1.ELE\AppData\Local\Temp\ccLLYyS4.s 			page 76


 2873              		.loc 1 929 0
 2874 00b0 4D22     		movs	r2, #77
 2875 00b2 0C4B     		ldr	r3, .L370+8
 2876 00b4 83F83420 		strb	r2, [r3, #52]
 2877 00b8 0CE0     		b	.L362
 2878              	.L352:
 930:src/input.c   ****           return(MWKEY_ENTER);
 931:src/input.c   ****         }
 932:src/input.c   ****         break;
 933:src/input.c   ****       case MWKEY_CLR:
 934:src/input.c   ****         if (kbdbuf[0] < 1)
 2879              		.loc 1 934 0
 2880 00ba 9DF80830 		ldrb	r3, [sp, #8]	@ zero_extendqisi2
 2881 00be 4BB1     		cbz	r3, .L362
 935:src/input.c   ****           return MWKEY_CLR;
 936:src/input.c   ****         kbdbuf[0]--;
 2882              		.loc 1 936 0
 2883 00c0 013B     		subs	r3, r3, #1
 2884 00c2 10A8     		add	r0, sp, #64
 2885 00c4 00F8383D 		strb	r3, [r0, #-56]!
 2886              	.LVL342:
 2887              	.L367:
 937:src/input.c   ****         DispKeyinPAN(kbdbuf);
 2888              		.loc 1 937 0
 2889 00c8 FFF7FEFF 		bl	DispKeyinPAN
 2890              	.LVL343:
 938:src/input.c   ****         break;
 2891              		.loc 1 938 0
 2892 00cc E9E7     		b	.L359
 2893              	.LVL344:
 2894              	.L351:
 939:src/input.c   ****       case MWKEY_CANCL:
 940:src/input.c   ****         return MWKEY_CANCL;
 941:src/input.c   ****       default:
 942:src/input.c   ****         LongBeep();
 2895              		.loc 1 942 0
 2896 00ce FFF7FEFF 		bl	LongBeep
 2897              	.LVL345:
 2898 00d2 E6E7     		b	.L359
 2899              	.L362:
 935:src/input.c   ****         kbdbuf[0]--;
 2900              		.loc 1 935 0
 2901 00d4 2046     		mov	r0, r4
 2902              	.L355:
 943:src/input.c   ****     }
 944:src/input.c   ****     keyin = 0;
 945:src/input.c   ****   }
 946:src/input.c   **** }
 2903              		.loc 1 946 0
 2904 00d6 10B0     		add	sp, sp, #64
 2905              		.cfi_def_cfa_offset 8
 2906              		@ sp needed
 2907 00d8 10BD     		pop	{r4, pc}
 2908              	.LVL346:
 2909              	.L371:
 2910 00da 00BF     		.align	2
 2911              	.L370:
ARM GAS  C:\Users\AHMED~1.ELE\AppData\Local\Temp\ccLLYyS4.s 			page 77


 2912 00dc 42000000 		.word	.LC3
 2913 00e0 09000000 		.word	gGTS+9
 2914 00e4 00000000 		.word	gGTS
 2915              		.cfi_endproc
 2916              	.LFE17:
 2917              		.size	GetCardNbr, .-GetCardNbr
 2918              		.section	.text.GetCard,"ax",%progbits
 2919              		.align	1
 2920              		.global	GetCard
 2921              		.thumb
 2922              		.thumb_func
 2923              		.type	GetCard, %function
 2924              	GetCard:
 2925              	.LFB18:
 947:src/input.c   **** //*****************************************************************************
 948:src/input.c   **** //  Function        : GetCard
 949:src/input.c   **** //  Description     : Get & validate card data.
 950:src/input.c   **** //  Input           : debit_card;   // debit card required.
 951:src/input.c   **** //  Return          : TRUE;  // valid card input, manual (cr card ) or swipe
 952:src/input.c   **** //                    FALSE; // user cancel
 953:src/input.c   **** //  Note            : //21-08-12 JC ++
 954:src/input.c   **** //  Globals Changed : N/A
 955:src/input.c   **** //*****************************************************************************
 956:src/input.c   **** BOOLEAN GetCard(int aFirstKey, BOOLEAN aFallback)
 957:src/input.c   **** {
 2926              		.loc 1 957 0
 2927              		.cfi_startproc
 2928              		@ args = 0, pretend = 0, frame = 0
 2929              		@ frame_needed = 0, uses_anonymous_args = 0
 2930              	.LVL347:
 2931 0000 73B5     		push	{r0, r1, r4, r5, r6, lr}
 2932              		.cfi_def_cfa_offset 24
 2933              		.cfi_offset 4, -16
 2934              		.cfi_offset 5, -12
 2935              		.cfi_offset 6, -8
 2936              		.cfi_offset 14, -4
 2937              		.loc 1 957 0
 2938 0002 0546     		mov	r5, r0
 958:src/input.c   ****   DWORD keyin;
 959:src/input.c   **** 
 960:src/input.c   ****   DispHeader(NULL);
 2939              		.loc 1 960 0
 2940 0004 0020     		movs	r0, #0
 2941              	.LVL348:
 957:src/input.c   ****   DWORD keyin;
 2942              		.loc 1 957 0
 2943 0006 0E46     		mov	r6, r1
 2944              		.loc 1 960 0
 2945 0008 FFF7FEFF 		bl	DispHeader
 2946              	.LVL349:
 961:src/input.c   ****   memset(INPUT.sb_holder_name, ' ', sizeof(INPUT.sb_holder_name));
 2947              		.loc 1 961 0
 2948 000c 2021     		movs	r1, #32
 2949 000e 1A22     		movs	r2, #26
 2950 0010 3348     		ldr	r0, .L394
 2951 0012 FFF7FEFF 		bl	memset
 2952              	.LVL350:
ARM GAS  C:\Users\AHMED~1.ELE\AppData\Local\Temp\ccLLYyS4.s 			page 78


 962:src/input.c   ****   memset(INPUT.sb_pan, 0xFF, sizeof(INPUT.sb_pan));
 2953              		.loc 1 962 0
 2954 0016 3348     		ldr	r0, .L394+4
 2955 0018 FF21     		movs	r1, #255
 2956 001a 0A22     		movs	r2, #10
 2957 001c FFF7FEFF 		bl	memset
 2958              	.LVL351:
 963:src/input.c   **** 
 964:src/input.c   ****   if (aFirstKey > 0)
 965:src/input.c   ****     keyin = aFirstKey;
 966:src/input.c   ****   else
 967:src/input.c   ****     keyin = 0;
 968:src/input.c   **** 
 969:src/input.c   ****   OnDevice(HW_MSR);                //01-08-17 JC ++
 2959              		.loc 1 969 0
 2960 0020 0120     		movs	r0, #1
 965:src/input.c   ****   else
 2961              		.loc 1 965 0
 2962 0022 25EAE575 		bic	r5, r5, r5, asr #31
 2963              	.LVL352:
 2964              		.loc 1 969 0
 2965 0026 FFF7FEFF 		bl	OnDevice
 2966              	.LVL353:
 2967              	.L379:
 970:src/input.c   ****   while (1) {
 971:src/input.c   ****     // already pressed
 972:src/input.c   ****     if ((keyin >= MWKEY_0)&&(keyin <= MWKEY_9)) {
 2968              		.loc 1 972 0
 2969 002a A5F13003 		sub	r3, r5, #48
 2970 002e 092B     		cmp	r3, #9
 2971 0030 07D8     		bhi	.L374
 973:src/input.c   ****       keyin = GetCardNbr(keyin);
 2972              		.loc 1 973 0
 2973 0032 2846     		mov	r0, r5
 2974 0034 FFF7FEFF 		bl	GetCardNbr
 2975              	.LVL354:
 974:src/input.c   ****       if (keyin == MWKEY_ENTER) {
 2976              		.loc 1 974 0
 2977 0038 1028     		cmp	r0, #16
 2978 003a 02D1     		bne	.L374
 975:src/input.c   ****         INPUT.b_entry_mode = MANUAL;
 2979              		.loc 1 975 0
 2980 003c 4D22     		movs	r2, #77
 2981 003e 2A4B     		ldr	r3, .L394+8
 2982 0040 15E0     		b	.L393
 2983              	.LVL355:
 2984              	.L374:
 976:src/input.c   ****         break;
 977:src/input.c   ****       }
 978:src/input.c   ****     }
 979:src/input.c   **** 
 980:src/input.c   ****     if (IOCtlMW(gMsrHandle, IO_MSR_STATUS, NULL) != 0) {
 2985              		.loc 1 980 0
 2986 0042 0023     		movs	r3, #0
 2987 0044 294D     		ldr	r5, .L394+12
 2988 0046 0093     		str	r3, [sp]
 2989 0048 0F20     		movs	r0, #15
ARM GAS  C:\Users\AHMED~1.ELE\AppData\Local\Temp\ccLLYyS4.s 			page 79


 2990 004a 0721     		movs	r1, #7
 2991 004c 2A68     		ldr	r2, [r5]
 2992 004e 0223     		movs	r3, #2
 2993 0050 FFF7FEFF 		bl	lib_app_call
 2994              	.LVL356:
 2995 0054 10B3     		cbz	r0, .L376
 981:src/input.c   ****       if (MSRSwiped(&INPUT.s_trk1buf, &INPUT.s_trk2buf)) {
 2996              		.loc 1 981 0
 2997 0056 2648     		ldr	r0, .L394+16
 2998 0058 00F1A001 		add	r1, r0, #160
 2999 005c FFF7FEFF 		bl	MSRSwiped
 3000              	.LVL357:
 3001 0060 D0B1     		cbz	r0, .L377
 982:src/input.c   ****         if (INPUT.s_trk2buf.b_len > 0) {
 3002              		.loc 1 982 0
 3003 0062 244B     		ldr	r3, .L394+20
 3004 0064 93F8A022 		ldrb	r2, [r3, #672]	@ zero_extendqisi2
 3005 0068 B2B1     		cbz	r2, .L377
 983:src/input.c   ****           if (!aFallback)
 3006              		.loc 1 983 0
 3007 006a 9EB9     		cbnz	r6, .L378
 984:src/input.c   ****             INPUT.b_entry_mode = SWIPE;
 3008              		.loc 1 984 0
 3009 006c 5322     		movs	r2, #83
 3010              	.L393:
 985:src/input.c   ****           else
 986:src/input.c   ****             INPUT.b_entry_mode = FALLBACK;
 987:src/input.c   ****           break;
 988:src/input.c   ****         }
 989:src/input.c   ****       }
 990:src/input.c   ****       // Error
 991:src/input.c   ****       LongBeep();
 992:src/input.c   ****     }
 993:src/input.c   **** 
 994:src/input.c   ****     Disp2x16Msg(GetConstMsg(EDC_IN_SWIPE_CARD), MW_LINE5, MW_BIGFONT);
 995:src/input.c   ****     IOCtlMW(gMsrHandle, IO_MSR_RESET, NULL);
 996:src/input.c   ****     keyin = WaitKey(9000,WAIT_MSR_READY);
 997:src/input.c   ****     if (keyin == MWKEY_CANCL) {
 998:src/input.c   ****       OffDevice(HW_MSR);                //01-08-17 JC ++
 999:src/input.c   ****       return(FALSE);
1000:src/input.c   ****     }
1001:src/input.c   ****   }
1002:src/input.c   ****   OffDevice(HW_MSR);                //01-08-17 JC ++
 3011              		.loc 1 1002 0
 3012 006e 0120     		movs	r0, #1
 984:src/input.c   ****             INPUT.b_entry_mode = SWIPE;
 3013              		.loc 1 984 0
 3014 0070 83F83420 		strb	r2, [r3, #52]
 3015              		.loc 1 1002 0
 3016 0074 FFF7FEFF 		bl	OffDevice
 3017              	.LVL358:
1003:src/input.c   ****   Short1Beep();
 3018              		.loc 1 1003 0
 3019 0078 FFF7FEFF 		bl	Short1Beep
 3020              	.LVL359:
1004:src/input.c   ****   if (ValidCard())
 3021              		.loc 1 1004 0
ARM GAS  C:\Users\AHMED~1.ELE\AppData\Local\Temp\ccLLYyS4.s 			page 80


 3022 007c FFF7FEFF 		bl	ValidCard
 3023              	.LVL360:
 3024 0080 0446     		mov	r4, r0
 3025 0082 48BB     		cbnz	r0, .L382
1005:src/input.c   ****     return TRUE;
1006:src/input.c   ****   RSP_DATA.w_rspcode = 'W'*256+'C';
 3026              		.loc 1 1006 0
 3027 0084 45F24372 		movw	r2, #22339
 3028 0088 174B     		ldr	r3, .L394+8
 3029 008a A3F86E25 		strh	r2, [r3, #1390]	@ movhi
1007:src/input.c   ****   LongBeep();
 3030              		.loc 1 1007 0
 3031 008e FFF7FEFF 		bl	LongBeep
 3032              	.LVL361:
1008:src/input.c   ****   return FALSE;
 3033              		.loc 1 1008 0
 3034 0092 22E0     		b	.L380
 3035              	.L378:
 986:src/input.c   ****           break;
 3036              		.loc 1 986 0
 3037 0094 4622     		movs	r2, #70
 3038 0096 EAE7     		b	.L393
 3039              	.L377:
 991:src/input.c   ****     }
 3040              		.loc 1 991 0
 3041 0098 FFF7FEFF 		bl	LongBeep
 3042              	.LVL362:
 3043              	.L376:
 994:src/input.c   ****     IOCtlMW(gMsrHandle, IO_MSR_RESET, NULL);
 3044              		.loc 1 994 0
 3045 009c 1120     		movs	r0, #17
 995:src/input.c   ****     keyin = WaitKey(9000,WAIT_MSR_READY);
 3046              		.loc 1 995 0
 3047 009e 0024     		movs	r4, #0
 994:src/input.c   ****     IOCtlMW(gMsrHandle, IO_MSR_RESET, NULL);
 3048              		.loc 1 994 0
 3049 00a0 FFF7FEFF 		bl	GetConstMsg
 3050              	.LVL363:
 3051 00a4 4FF4A061 		mov	r1, #1280
 3052 00a8 4FF48052 		mov	r2, #4096
 3053 00ac FFF7FEFF 		bl	Disp2x16Msg
 3054              	.LVL364:
 995:src/input.c   ****     keyin = WaitKey(9000,WAIT_MSR_READY);
 3055              		.loc 1 995 0
 3056 00b0 0094     		str	r4, [sp]
 3057 00b2 0721     		movs	r1, #7
 3058 00b4 2A68     		ldr	r2, [r5]
 3059 00b6 0423     		movs	r3, #4
 3060 00b8 0F20     		movs	r0, #15
 3061 00ba FFF7FEFF 		bl	lib_app_call
 3062              	.LVL365:
 996:src/input.c   ****     if (keyin == MWKEY_CANCL) {
 3063              		.loc 1 996 0
 3064 00be 42F22830 		movw	r0, #9000
 3065 00c2 4FF48061 		mov	r1, #1024
 3066 00c6 FFF7FEFF 		bl	WaitKey
 3067              	.LVL366:
ARM GAS  C:\Users\AHMED~1.ELE\AppData\Local\Temp\ccLLYyS4.s 			page 81


 997:src/input.c   ****       OffDevice(HW_MSR);                //01-08-17 JC ++
 3068              		.loc 1 997 0
 3069 00ca 1128     		cmp	r0, #17
 996:src/input.c   ****     if (keyin == MWKEY_CANCL) {
 3070              		.loc 1 996 0
 3071 00cc 0546     		mov	r5, r0
 3072              	.LVL367:
 997:src/input.c   ****       OffDevice(HW_MSR);                //01-08-17 JC ++
 3073              		.loc 1 997 0
 3074 00ce ACD1     		bne	.L379
 998:src/input.c   ****       return(FALSE);
 3075              		.loc 1 998 0
 3076 00d0 0120     		movs	r0, #1
 3077              	.LVL368:
 3078 00d2 FFF7FEFF 		bl	OffDevice
 3079              	.LVL369:
 999:src/input.c   ****     }
 3080              		.loc 1 999 0
 3081 00d6 00E0     		b	.L380
 3082              	.LVL370:
 3083              	.L382:
1005:src/input.c   ****   RSP_DATA.w_rspcode = 'W'*256+'C';
 3084              		.loc 1 1005 0
 3085 00d8 0124     		movs	r4, #1
 3086              	.L380:
1009:src/input.c   **** }
 3087              		.loc 1 1009 0
 3088 00da 2046     		mov	r0, r4
 3089 00dc 02B0     		add	sp, sp, #8
 3090              		.cfi_def_cfa_offset 16
 3091              		@ sp needed
 3092 00de 70BD     		pop	{r4, r5, r6, pc}
 3093              	.L395:
 3094              		.align	2
 3095              	.L394:
 3096 00e0 35000000 		.word	gGTS+53
 3097 00e4 09000000 		.word	gGTS+9
 3098 00e8 00000000 		.word	gGTS
 3099 00ec 00000000 		.word	gMsrHandle
 3100 00f0 00020000 		.word	gGTS+512
 3101 00f4 00000000 		.word	gGTS+0
 3102              		.cfi_endproc
 3103              	.LFE18:
 3104              		.size	GetCard, .-GetCard
 3105              		.section	.text.WaitCardTrans,"ax",%progbits
 3106              		.align	1
 3107              		.global	WaitCardTrans
 3108              		.thumb
 3109              		.thumb_func
 3110              		.type	WaitCardTrans, %function
 3111              	WaitCardTrans:
 3112              	.LFB19:
1010:src/input.c   **** //*****************************************************************************
1011:src/input.c   **** //  Function        : WaitCardTrans
1012:src/input.c   **** //  Description     : Wait user to input card data.
1013:src/input.c   **** //  Input           : N/A
1014:src/input.c   **** //  Return          : TRUE/FALSE
ARM GAS  C:\Users\AHMED~1.ELE\AppData\Local\Temp\ccLLYyS4.s 			page 82


1015:src/input.c   **** //  Note            : N/A
1016:src/input.c   **** //  Globals Changed : N/A
1017:src/input.c   **** //*****************************************************************************
1018:src/input.c   **** DWORD WaitCardTrans(int aTxnType)
1019:src/input.c   **** {
 3113              		.loc 1 1019 0
 3114              		.cfi_startproc
 3115              		@ args = 0, pretend = 0, frame = 0
 3116              		@ frame_needed = 0, uses_anonymous_args = 0
 3117              	.LVL371:
 3118 0000 2DE9F347 		push	{r0, r1, r4, r5, r6, r7, r8, r9, r10, lr}
 3119              		.cfi_def_cfa_offset 40
 3120              		.cfi_offset 4, -32
 3121              		.cfi_offset 5, -28
 3122              		.cfi_offset 6, -24
 3123              		.cfi_offset 7, -20
 3124              		.cfi_offset 8, -16
 3125              		.cfi_offset 9, -12
 3126              		.cfi_offset 10, -8
 3127              		.cfi_offset 14, -4
 3128              		.loc 1 1019 0
 3129 0004 0546     		mov	r5, r0
1020:src/input.c   ****   WORD keyin;
1021:src/input.c   ****   DDWORD ecr_amt;
1022:src/input.c   ****   DWORD ret=TXN_CANCEL;
1023:src/input.c   ****   BYTE ctl_ctrl=0;
1024:src/input.c   **** 
1025:src/input.c   ****   OnDevice(HW_MSR|HW_CLICC);    //25-07-17 JC ++
1026:src/input.c   ****   INPUT.b_trans = aTxnType;
 3130              		.loc 1 1026 0
 3131 0006 B54E     		ldr	r6, .L479
1025:src/input.c   ****   INPUT.b_trans = aTxnType;
 3132              		.loc 1 1025 0
 3133 0008 0320     		movs	r0, #3
 3134              	.LVL372:
 3135 000a FFF7FEFF 		bl	OnDevice
 3136              	.LVL373:
1027:src/input.c   ****   RefreshDispAfter(0);
 3137              		.loc 1 1027 0
 3138 000e 0020     		movs	r0, #0
1026:src/input.c   ****   RefreshDispAfter(0);
 3139              		.loc 1 1026 0
 3140 0010 3570     		strb	r5, [r6]
 3141              		.loc 1 1027 0
 3142 0012 FFF7FEFF 		bl	RefreshDispAfter
 3143              	.LVL374:
1028:src/input.c   ****   gDispLogo = FALSE;
 3144              		.loc 1 1028 0
 3145 0016 0027     		movs	r7, #0
 3146 0018 B14B     		ldr	r3, .L479+4
1029:src/input.c   ****   while (1) {
1030:src/input.c   ****     // Disp amount from ECR exist
1031:src/input.c   ****     if (gGDS->i_ecr_len > 2) {
1032:src/input.c   ****       ecr_amt = EcrGetAmount();
1033:src/input.c   ****       if (ecr_amt != 0)
1034:src/input.c   ****         INPUT.dd_amount = ecr_amt;
1035:src/input.c   ****     }
ARM GAS  C:\Users\AHMED~1.ELE\AppData\Local\Temp\ccLLYyS4.s 			page 83


1036:src/input.c   ****     #ifdef os_disp_bl_control
1037:src/input.c   ****     os_disp_bl_control(256); // on now
1038:src/input.c   ****     #endif
1039:src/input.c   ****   
1040:src/input.c   **** 	//TransModeDisp(FALSE);
1041:src/input.c   **** 	 os_disp_putc('\f');
1042:src/input.c   ****         ClearDispMW();
1043:src/input.c   ****     
1044:src/input.c   **** 	Disp2x16Msg(GetConstMsg(EDC_CO_SWIPE_INS), MW_LINE5, MW_BIGFONT);
1045:src/input.c   ****     APM_SetKbdTimeout(KBD_TIMEOUT);
1046:src/input.c   **** 	 CL_LedSet(CTL_LED_TAP_CARD);
1047:src/input.c   ****     keyin = APM_GetKeyin();
1048:src/input.c   ****     if (keyin == MWKEY_CANCL) {
1049:src/input.c   ****       INPUT.dd_amount = 0;
1050:src/input.c   ****       ret = TXN_CANCEL;
1051:src/input.c   ****       break;
1052:src/input.c   ****     }
1053:src/input.c   ****     else if ((keyin>=MWKEY_0) && (keyin <=MWKEY_9)) {
1054:src/input.c   ****       if (INPUT.dd_amount==0) {
1055:src/input.c   ****        // GetAmount(TIPsReqd(), keyin);
1056:src/input.c   ****         RefreshDispAfter(0);
1057:src/input.c   ****       }
1058:src/input.c   ****       else {
1059:src/input.c   ****         DispHeader(NULL);
1060:src/input.c   ****         if (GetCardNbr(keyin) == MWKEY_ENTER) {
1061:src/input.c   ****           if (ValidCard()) {
1062:src/input.c   ****             if (aTxnType == SALE_OFFLINE)
1063:src/input.c   ****               SaleOfflTrans(INPUT.b_entry_mode);
1064:src/input.c   ****             else if (aTxnType == AUTH_SWIPE)
1065:src/input.c   ****               AuthTrans(INPUT.b_entry_mode);
1066:src/input.c   ****             else if (aTxnType == REFUND)
1067:src/input.c   ****               RefundTrans(INPUT.b_entry_mode);
1068:src/input.c   ****             else
1069:src/input.c   ****               SaleTrans(INPUT.b_entry_mode);
1070:src/input.c   ****           }
1071:src/input.c   ****           TransEnd(FALSE);
1072:src/input.c   ****           ret = TXN_OK;
1073:src/input.c   ****           break;
1074:src/input.c   ****         }
1075:src/input.c   ****       }
1076:src/input.c   ****     }
1077:src/input.c   **** 
1078:src/input.c   ****     // Contactless transaction
1079:src/input.c   ****     if (CTLEnabled() && INPUT.dd_amount && CtlUnderTransLimit((DWORD)(INPUT.dd_amount))) {
1080:src/input.c   ****       if (!ctl_ctrl) {
1081:src/input.c   ****         if (aTxnType != REFUND)
1082:src/input.c   ****           ctl_ctrl = SALE_CTL;
1083:src/input.c   ****         else
1084:src/input.c   ****           ctl_ctrl = REFUND_CTL;
1085:src/input.c   ****         if (CTLPreProcess(ctl_ctrl) == FALSE) {
 3147              		.loc 1 1085 0
 3148 001a 062D     		cmp	r5, #6
 3149 001c 14BF     		ite	ne
 3150 001e 4FF01409 		movne	r9, #20
 3151 0022 4FF01609 		moveq	r9, #22
1028:src/input.c   ****   gDispLogo = FALSE;
 3152              		.loc 1 1028 0
ARM GAS  C:\Users\AHMED~1.ELE\AppData\Local\Temp\ccLLYyS4.s 			page 84


 3153 0026 1F70     		strb	r7, [r3]
 3154              	.LVL375:
 3155              	.L431:
1031:src/input.c   ****       ecr_amt = EcrGetAmount();
 3156              		.loc 1 1031 0
 3157 0028 AE4A     		ldr	r2, .L479+8
 3158 002a 1368     		ldr	r3, [r2]
 3159 002c 9046     		mov	r8, r2
 3160 002e 03F58443 		add	r3, r3, #16896
 3161 0032 DB6D     		ldr	r3, [r3, #92]
 3162 0034 022B     		cmp	r3, #2
 3163 0036 06DD     		ble	.L398
1032:src/input.c   ****       if (ecr_amt != 0)
 3164              		.loc 1 1032 0
 3165 0038 FFF7FEFF 		bl	EcrGetAmount
 3166              	.LVL376:
1033:src/input.c   ****         INPUT.dd_amount = ecr_amt;
 3167              		.loc 1 1033 0
 3168 003c 50EA0103 		orrs	r3, r0, r1
 3169 0040 01D0     		beq	.L398
1034:src/input.c   ****     }
 3170              		.loc 1 1034 0
 3171 0042 C6E90601 		strd	r0, [r6, #24]
 3172              	.LVL377:
 3173              	.L398:
1037:src/input.c   ****     #endif
 3174              		.loc 1 1037 0
 3175 0046 4FF48071 		mov	r1, #256
 3176 004a 2220     		movs	r0, #34
 3177 004c FFF7FEFF 		bl	sys_func1
 3178              	.LVL378:
1041:src/input.c   ****         ClearDispMW();
 3179              		.loc 1 1041 0
 3180 0050 0C21     		movs	r1, #12
 3181 0052 1620     		movs	r0, #22
 3182 0054 FFF7FEFF 		bl	sys_func1
 3183              	.LVL379:
1042:src/input.c   ****     
 3184              		.loc 1 1042 0
 3185 0058 0C21     		movs	r1, #12
 3186 005a 1620     		movs	r0, #22
 3187 005c FFF7FEFF 		bl	sys_func1
 3188              	.LVL380:
1045:src/input.c   **** 	 CL_LedSet(CTL_LED_TAP_CARD);
 3189              		.loc 1 1045 0
 3190 0060 0024     		movs	r4, #0
1044:src/input.c   ****     APM_SetKbdTimeout(KBD_TIMEOUT);
 3191              		.loc 1 1044 0
 3192 0062 0020     		movs	r0, #0
 3193 0064 FFF7FEFF 		bl	GetConstMsg
 3194              	.LVL381:
 3195 0068 4FF4A061 		mov	r1, #1280
 3196 006c 4FF48052 		mov	r2, #4096
 3197 0070 FFF7FEFF 		bl	Disp2x16Msg
 3198              	.LVL382:
1045:src/input.c   **** 	 CL_LedSet(CTL_LED_TAP_CARD);
 3199              		.loc 1 1045 0
ARM GAS  C:\Users\AHMED~1.ELE\AppData\Local\Temp\ccLLYyS4.s 			page 85


 3200 0074 0621     		movs	r1, #6
 3201 0076 42F22832 		movw	r2, #9000
 3202 007a 2346     		mov	r3, r4
 3203 007c 0094     		str	r4, [sp]
 3204 007e 1020     		movs	r0, #16
 3205 0080 FFF7FEFF 		bl	lib_app_call
 3206              	.LVL383:
1046:src/input.c   ****     keyin = APM_GetKeyin();
 3207              		.loc 1 1046 0
 3208 0084 0120     		movs	r0, #1
 3209 0086 FFF7FEFF 		bl	CL_LedSet
 3210              	.LVL384:
1047:src/input.c   ****     if (keyin == MWKEY_CANCL) {
 3211              		.loc 1 1047 0
 3212 008a 0094     		str	r4, [sp]
 3213 008c 1020     		movs	r0, #16
 3214 008e 0221     		movs	r1, #2
 3215 0090 2246     		mov	r2, r4
 3216 0092 2346     		mov	r3, r4
 3217 0094 FFF7FEFF 		bl	lib_app_call
 3218              	.LVL385:
 3219 0098 1FFA80FA 		uxth	r10, r0
 3220              	.LVL386:
1048:src/input.c   ****       INPUT.dd_amount = 0;
 3221              		.loc 1 1048 0
 3222 009c BAF1110F 		cmp	r10, #17
 3223 00a0 04D1     		bne	.L400
1049:src/input.c   ****       ret = TXN_CANCEL;
 3224              		.loc 1 1049 0
 3225 00a2 0022     		movs	r2, #0
 3226 00a4 0023     		movs	r3, #0
 3227 00a6 C6E90623 		strd	r2, [r6, #24]
1051:src/input.c   ****     }
 3228              		.loc 1 1051 0
 3229 00aa 30E1     		b	.L401
 3230              	.L400:
1053:src/input.c   ****       if (INPUT.dd_amount==0) {
 3231              		.loc 1 1053 0
 3232 00ac AAF13003 		sub	r3, r10, #48
 3233 00b0 092B     		cmp	r3, #9
 3234 00b2 28D8     		bhi	.L404
1054:src/input.c   ****        // GetAmount(TIPsReqd(), keyin);
 3235              		.loc 1 1054 0
 3236 00b4 D6E90623 		ldrd	r2, [r6, #24]
1056:src/input.c   ****       }
 3237              		.loc 1 1056 0
 3238 00b8 2046     		mov	r0, r4
1054:src/input.c   ****        // GetAmount(TIPsReqd(), keyin);
 3239              		.loc 1 1054 0
 3240 00ba 1343     		orrs	r3, r2, r3
 3241 00bc 02D1     		bne	.L403
1056:src/input.c   ****       }
 3242              		.loc 1 1056 0
 3243 00be FFF7FEFF 		bl	RefreshDispAfter
 3244              	.LVL387:
 3245 00c2 20E0     		b	.L404
 3246              	.L403:
ARM GAS  C:\Users\AHMED~1.ELE\AppData\Local\Temp\ccLLYyS4.s 			page 86


1059:src/input.c   ****         if (GetCardNbr(keyin) == MWKEY_ENTER) {
 3247              		.loc 1 1059 0
 3248 00c4 FFF7FEFF 		bl	DispHeader
 3249              	.LVL388:
1060:src/input.c   ****           if (ValidCard()) {
 3250              		.loc 1 1060 0
 3251 00c8 5046     		mov	r0, r10
 3252 00ca FFF7FEFF 		bl	GetCardNbr
 3253              	.LVL389:
 3254 00ce 1028     		cmp	r0, #16
 3255 00d0 19D1     		bne	.L404
1061:src/input.c   ****             if (aTxnType == SALE_OFFLINE)
 3256              		.loc 1 1061 0
 3257 00d2 FFF7FEFF 		bl	ValidCard
 3258              	.LVL390:
 3259 00d6 90B1     		cbz	r0, .L405
 3260 00d8 804B     		ldr	r3, .L479
1062:src/input.c   ****               SaleOfflTrans(INPUT.b_entry_mode);
 3261              		.loc 1 1062 0
 3262 00da 072D     		cmp	r5, #7
 3263 00dc 93F83400 		ldrb	r0, [r3, #52]	@ zero_extendqisi2
 3264 00e0 02D1     		bne	.L406
1063:src/input.c   ****             else if (aTxnType == AUTH_SWIPE)
 3265              		.loc 1 1063 0
 3266 00e2 FFF7FEFF 		bl	SaleOfflTrans
 3267              	.LVL391:
 3268 00e6 0AE0     		b	.L405
 3269              	.L406:
1064:src/input.c   ****               AuthTrans(INPUT.b_entry_mode);
 3270              		.loc 1 1064 0
 3271 00e8 15B9     		cbnz	r5, .L407
1065:src/input.c   ****             else if (aTxnType == REFUND)
 3272              		.loc 1 1065 0
 3273 00ea FFF7FEFF 		bl	AuthTrans
 3274              	.LVL392:
 3275 00ee 06E0     		b	.L405
 3276              	.L407:
1066:src/input.c   ****               RefundTrans(INPUT.b_entry_mode);
 3277              		.loc 1 1066 0
 3278 00f0 062D     		cmp	r5, #6
 3279 00f2 02D1     		bne	.L408
1067:src/input.c   ****             else
 3280              		.loc 1 1067 0
 3281 00f4 FFF7FEFF 		bl	RefundTrans
 3282              	.LVL393:
 3283 00f8 01E0     		b	.L405
 3284              	.L408:
1069:src/input.c   ****           }
 3285              		.loc 1 1069 0
 3286 00fa FFF7FEFF 		bl	SaleTrans
 3287              	.LVL394:
 3288              	.L405:
1071:src/input.c   ****           ret = TXN_OK;
 3289              		.loc 1 1071 0
 3290 00fe 0020     		movs	r0, #0
 3291 0100 FFF7FEFF 		bl	TransEnd
 3292              	.LVL395:
ARM GAS  C:\Users\AHMED~1.ELE\AppData\Local\Temp\ccLLYyS4.s 			page 87


 3293 0104 A8E0     		b	.L477
 3294              	.LVL396:
 3295              	.L404:
1079:src/input.c   ****       if (!ctl_ctrl) {
 3296              		.loc 1 1079 0
 3297 0106 FFF7FEFF 		bl	CTLEnabled
 3298              	.LVL397:
 3299 010a B8B3     		cbz	r0, .L409
1079:src/input.c   ****       if (!ctl_ctrl) {
 3300              		.loc 1 1079 0 is_stmt 0 discriminator 1
 3301 010c D6E90601 		ldrd	r0, [r6, #24]
 3302 0110 50EA0103 		orrs	r3, r0, r1
 3303 0114 32D0     		beq	.L409
1079:src/input.c   ****       if (!ctl_ctrl) {
 3304              		.loc 1 1079 0 discriminator 2
 3305 0116 FFF7FEFF 		bl	CtlUnderTransLimit
 3306              	.LVL398:
 3307 011a 78B3     		cbz	r0, .L409
1080:src/input.c   ****         if (aTxnType != REFUND)
 3308              		.loc 1 1080 0 is_stmt 1
 3309 011c 5FB9     		cbnz	r7, .L410
 3310              	.LVL399:
 3311              		.loc 1 1085 0
 3312 011e 4846     		mov	r0, r9
 3313 0120 FFF7FEFF 		bl	CTLPreProcess
 3314              	.LVL400:
 3315 0124 08B1     		cbz	r0, .L411
 3316              	.LVL401:
 3317              	.L412:
1086:src/input.c   ****           DispErrorMsg(GetConstMsg(EDC_CTL_PREPROCESS_ERR));
1087:src/input.c   ****           ret = TXN_ERR;
1088:src/input.c   ****           break;
1089:src/input.c   ****         }
1090:src/input.c   ****         ctl_ctrl = 1;
 3318              		.loc 1 1090 0
 3319 0126 0127     		movs	r7, #1
 3320 0128 28E0     		b	.L409
 3321              	.LVL402:
 3322              	.L411:
1086:src/input.c   ****           DispErrorMsg(GetConstMsg(EDC_CTL_PREPROCESS_ERR));
 3323              		.loc 1 1086 0
 3324 012a 8C20     		movs	r0, #140
 3325 012c FFF7FEFF 		bl	GetConstMsg
 3326              	.LVL403:
 3327 0130 FFF7FEFF 		bl	DispErrorMsg
 3328              	.LVL404:
 3329 0134 20E0     		b	.L478
 3330              	.LVL405:
 3331              	.L410:
1091:src/input.c   ****       }
1092:src/input.c   ****       else if (CTLWaitCard()) {
 3332              		.loc 1 1092 0
 3333 0136 FFF7FEFF 		bl	CTLWaitCard
 3334              	.LVL406:
 3335 013a 0028     		cmp	r0, #0
 3336 013c F3D0     		beq	.L412
1093:src/input.c   ****         OffDevice(HW_MSR);              //01-08-17 JC ++
ARM GAS  C:\Users\AHMED~1.ELE\AppData\Local\Temp\ccLLYyS4.s 			page 88


 3337              		.loc 1 1093 0
 3338 013e 0120     		movs	r0, #1
 3339 0140 FFF7FEFF 		bl	OffDevice
 3340              	.LVL407:
1094:src/input.c   ****         if ((aTxnType == SALE_SWIPE)||(aTxnType == SALE_OFFLINE))
 3341              		.loc 1 1094 0
 3342 0144 022D     		cmp	r5, #2
 3343 0146 01D0     		beq	.L413
 3344              		.loc 1 1094 0 is_stmt 0 discriminator 1
 3345 0148 072D     		cmp	r5, #7
 3346 014a 01D1     		bne	.L414
 3347              	.L413:
1095:src/input.c   ****           CTLTrans(SALE_CTL);
 3348              		.loc 1 1095 0 is_stmt 1
 3349 014c 1420     		movs	r0, #20
 3350 014e 05E0     		b	.L475
 3351              	.L414:
1096:src/input.c   ****         else if (aTxnType == AUTH_SWIPE)
 3352              		.loc 1 1096 0
 3353 0150 0DB9     		cbnz	r5, .L416
1097:src/input.c   ****           CTLTrans(AUTH_CTL);
 3354              		.loc 1 1097 0
 3355 0152 1520     		movs	r0, #21
 3356 0154 02E0     		b	.L475
 3357              	.L416:
1098:src/input.c   ****         else if (aTxnType == REFUND)
 3358              		.loc 1 1098 0
 3359 0156 062D     		cmp	r5, #6
 3360 0158 06D1     		bne	.L417
1099:src/input.c   ****           CTLTrans(REFUND_CTL);
 3361              		.loc 1 1099 0
 3362 015a 1620     		movs	r0, #22
 3363              	.L475:
 3364 015c FFF7FEFF 		bl	CTLTrans
 3365              	.LVL408:
1100:src/input.c   ****         else {
1101:src/input.c   ****           CL_Close(0);
1102:src/input.c   ****           OffDevice(HW_CLICC);          //01-08-17 JC ++
1103:src/input.c   ****           LongBeep();
1104:src/input.c   ****           ret = TXN_ERR;
1105:src/input.c   ****           break;
1106:src/input.c   ****         }
1107:src/input.c   ****         OffDevice(HW_CLICC);            //01-08-17 JC ++
 3366              		.loc 1 1107 0
 3367 0160 0220     		movs	r0, #2
 3368 0162 FFF7FEFF 		bl	OffDevice
 3369              	.LVL409:
 3370 0166 77E0     		b	.L477
 3371              	.LVL410:
 3372              	.L417:
1101:src/input.c   ****           OffDevice(HW_CLICC);          //01-08-17 JC ++
 3373              		.loc 1 1101 0
 3374 0168 0020     		movs	r0, #0
 3375 016a FFF7FEFF 		bl	CL_Close
 3376              	.LVL411:
1102:src/input.c   ****           LongBeep();
 3377              		.loc 1 1102 0
ARM GAS  C:\Users\AHMED~1.ELE\AppData\Local\Temp\ccLLYyS4.s 			page 89


 3378 016e 0220     		movs	r0, #2
 3379 0170 FFF7FEFF 		bl	OffDevice
 3380              	.LVL412:
1103:src/input.c   ****           ret = TXN_ERR;
 3381              		.loc 1 1103 0
 3382 0174 FFF7FEFF 		bl	LongBeep
 3383              	.LVL413:
 3384              	.L478:
1104:src/input.c   ****           break;
 3385              		.loc 1 1104 0
 3386 0178 0124     		movs	r4, #1
1105:src/input.c   ****         }
 3387              		.loc 1 1105 0
 3388 017a C8E0     		b	.L401
 3389              	.LVL414:
 3390              	.L409:
1108:src/input.c   ****         ret = TXN_OK;
1109:src/input.c   ****         break;
1110:src/input.c   ****       }
1111:src/input.c   ****     }
1112:src/input.c   ****     
1113:src/input.c   ****     // ICC
1114:src/input.c   ****     if (ICCInserted()) {
 3391              		.loc 1 1114 0
 3392 017c FFF7FEFF 		bl	ICCInserted
 3393              	.LVL415:
 3394 0180 0446     		mov	r4, r0
 3395 0182 0028     		cmp	r0, #0
 3396 0184 6AD0     		beq	.L418
1115:src/input.c   ****       OffDevice(HW_MSR|HW_CLICC);     //01-08-17 JC ++
 3397              		.loc 1 1115 0
 3398 0186 0320     		movs	r0, #3
 3399 0188 FFF7FEFF 		bl	OffDevice
 3400              	.LVL416:
1116:src/input.c   ****       if (PowerOnICC()) {
 3401              		.loc 1 1116 0
 3402 018c FFF7FEFF 		bl	PowerOnICC
 3403              	.LVL417:
 3404 0190 0446     		mov	r4, r0
 3405 0192 88B1     		cbz	r0, .L419
1117:src/input.c   ****         if ((aTxnType == SALE_SWIPE)||(aTxnType == SALE_OFFLINE))
 3406              		.loc 1 1117 0
 3407 0194 022D     		cmp	r5, #2
 3408 0196 01D0     		beq	.L420
 3409              		.loc 1 1117 0 is_stmt 0 discriminator 1
 3410 0198 072D     		cmp	r5, #7
 3411 019a 01D1     		bne	.L421
 3412              	.L420:
1118:src/input.c   ****           EMVTrans(SALE_ICC);
 3413              		.loc 1 1118 0 is_stmt 1
 3414 019c 0F20     		movs	r0, #15
 3415 019e 06E0     		b	.L476
 3416              	.L421:
1119:src/input.c   ****         else if (aTxnType == AUTH_SWIPE)
 3417              		.loc 1 1119 0
 3418 01a0 0DB9     		cbnz	r5, .L423
1120:src/input.c   ****           EMVTrans(AUTH_ICC);
ARM GAS  C:\Users\AHMED~1.ELE\AppData\Local\Temp\ccLLYyS4.s 			page 90


 3419              		.loc 1 1120 0
 3420 01a2 1020     		movs	r0, #16
 3421 01a4 03E0     		b	.L476
 3422              	.L423:
1121:src/input.c   ****         else if (aTxnType == REFUND)
 3423              		.loc 1 1121 0
 3424 01a6 062D     		cmp	r5, #6
1122:src/input.c   ****           EMVTrans(REFUND_ICC);
 3425              		.loc 1 1122 0
 3426 01a8 0CBF     		ite	eq
 3427 01aa 1120     		moveq	r0, #17
1123:src/input.c   ****         else
1124:src/input.c   ****           EMVTrans(aTxnType);
 3428              		.loc 1 1124 0
 3429 01ac 2846     		movne	r0, r5
 3430              	.L476:
 3431 01ae FFF7FEFF 		bl	EMVTrans
 3432              	.LVL418:
1125:src/input.c   ****         PowerOffICC();
 3433              		.loc 1 1125 0
 3434 01b2 FFF7FEFF 		bl	PowerOffICC
 3435              	.LVL419:
 3436 01b6 2BE0     		b	.L429
 3437              	.LVL420:
 3438              	.L419:
1126:src/input.c   ****         ret = TXN_OK;
1127:src/input.c   ****       }
1128:src/input.c   ****       else {
1129:src/input.c   ****         RSP_DATA.w_rspcode = 'R'*256+'E';
 3439              		.loc 1 1129 0
 3440 01b8 45F24523 		movw	r3, #21061
1130:src/input.c   ****         //Added for MTIP02 Test01 S04 & S05
1131:src/input.c   ****         DispErrorMsg(GetConstMsg(EDC_RSP_READ_ERROR));
 3441              		.loc 1 1131 0
 3442 01bc 7420     		movs	r0, #116
1129:src/input.c   ****         //Added for MTIP02 Test01 S04 & S05
 3443              		.loc 1 1129 0
 3444 01be A6F86E35 		strh	r3, [r6, #1390]	@ movhi
 3445              		.loc 1 1131 0
 3446 01c2 FFF7FEFF 		bl	GetConstMsg
 3447              	.LVL421:
 3448 01c6 FFF7FEFF 		bl	DispErrorMsg
 3449              	.LVL422:
1132:src/input.c   ****         // do fallback
1133:src/input.c   ****         INPUT.b_entry_mode = ICC;
 3450              		.loc 1 1133 0
 3451 01ca 4923     		movs	r3, #73
1134:src/input.c   ****         INPUT.b_trans = SALE_ICC;
1135:src/input.c   ****         if (GetCard(0, TRUE))
 3452              		.loc 1 1135 0
 3453 01cc 2046     		mov	r0, r4
1133:src/input.c   ****         INPUT.b_trans = SALE_ICC;
 3454              		.loc 1 1133 0
 3455 01ce 86F83430 		strb	r3, [r6, #52]
1134:src/input.c   ****         INPUT.b_trans = SALE_ICC;
 3456              		.loc 1 1134 0
 3457 01d2 0F23     		movs	r3, #15
ARM GAS  C:\Users\AHMED~1.ELE\AppData\Local\Temp\ccLLYyS4.s 			page 91


 3458              		.loc 1 1135 0
 3459 01d4 0121     		movs	r1, #1
1134:src/input.c   ****         INPUT.b_trans = SALE_ICC;
 3460              		.loc 1 1134 0
 3461 01d6 3370     		strb	r3, [r6]
 3462              		.loc 1 1135 0
 3463 01d8 FFF7FEFF 		bl	GetCard
 3464              	.LVL423:
 3465 01dc 20B1     		cbz	r0, .L426
1136:src/input.c   ****           SaleTrans(INPUT.b_entry_mode);
 3466              		.loc 1 1136 0
 3467 01de 3F4B     		ldr	r3, .L479
 3468 01e0 93F83400 		ldrb	r0, [r3, #52]	@ zero_extendqisi2
 3469 01e4 FFF7FEFF 		bl	SaleTrans
 3470              	.LVL424:
 3471              	.L426:
1137:src/input.c   ****         TransEnd((BOOLEAN)(RSP_DATA.b_response == TRANS_ACP));
 3472              		.loc 1 1137 0
 3473 01e8 96F80007 		ldrb	r0, [r6, #1792]	@ zero_extendqisi2
 3474 01ec B0FA80F0 		clz	r0, r0
 3475 01f0 4009     		lsrs	r0, r0, #5
 3476 01f2 FFF7FEFF 		bl	TransEnd
 3477              	.LVL425:
 3478 01f6 0BE0     		b	.L429
 3479              	.L428:
1138:src/input.c   ****         ret = TXN_OK;
1139:src/input.c   ****       }
1140:src/input.c   ****       while (!ICCReaderRdy()) {
1141:src/input.c   ****         if (TimerGetMW(gTimerHdl[TIMER_DISP]) == 0) {  // Already Disp Timeout
1142:src/input.c   ****           DispClrBelowMW(MW_LINE3);
1143:src/input.c   ****           Disp2x16Msg(GetConstMsg(EDC_CO_REMOVE_ICC), MW_LINE5, MW_BIGFONT);
1144:src/input.c   ****           gGDS->b_disp_chgd = TRUE;
1145:src/input.c   ****           WaitICCRemove();
1146:src/input.c   ****           break;
1147:src/input.c   ****         }
1148:src/input.c   ****         if (GetCharMW()==MWKEY_CANCL)
 3480              		.loc 1 1148 0
 3481 01f8 0094     		str	r4, [sp]
 3482 01fa 0F20     		movs	r0, #15
 3483 01fc 1621     		movs	r1, #22
 3484 01fe 2246     		mov	r2, r4
 3485 0200 2346     		mov	r3, r4
 3486 0202 FFF7FEFF 		bl	lib_app_call
 3487              	.LVL426:
 3488 0206 1128     		cmp	r0, #17
 3489 0208 02D1     		bne	.L429
1149:src/input.c   ****           RefreshDispAfter(0);
 3490              		.loc 1 1149 0
 3491 020a 2046     		mov	r0, r4
 3492 020c FFF7FEFF 		bl	RefreshDispAfter
 3493              	.LVL427:
 3494              	.L429:
1140:src/input.c   ****         if (TimerGetMW(gTimerHdl[TIMER_DISP]) == 0) {  // Already Disp Timeout
 3495              		.loc 1 1140 0
 3496 0210 FFF7FEFF 		bl	ICCReaderRdy
 3497              	.LVL428:
 3498 0214 0446     		mov	r4, r0
ARM GAS  C:\Users\AHMED~1.ELE\AppData\Local\Temp\ccLLYyS4.s 			page 92


 3499 0216 F8B9     		cbnz	r0, .L477
1141:src/input.c   ****           DispClrBelowMW(MW_LINE3);
 3500              		.loc 1 1141 0
 3501 0218 334B     		ldr	r3, .L479+12
 3502 021a 0D20     		movs	r0, #13
 3503 021c 1968     		ldr	r1, [r3]
 3504 021e FFF7FEFF 		bl	sys_func1
 3505              	.LVL429:
 3506 0222 0346     		mov	r3, r0
 3507 0224 0028     		cmp	r0, #0
 3508 0226 E7D1     		bne	.L428
1142:src/input.c   ****           Disp2x16Msg(GetConstMsg(EDC_CO_REMOVE_ICC), MW_LINE5, MW_BIGFONT);
 3509              		.loc 1 1142 0
 3510 0228 2321     		movs	r1, #35
 3511 022a 4FF44072 		mov	r2, #768
 3512 022e 0090     		str	r0, [sp]
 3513 0230 0F20     		movs	r0, #15
 3514 0232 FFF7FEFF 		bl	lib_app_call
 3515              	.LVL430:
1143:src/input.c   ****           gGDS->b_disp_chgd = TRUE;
 3516              		.loc 1 1143 0
 3517 0236 0220     		movs	r0, #2
 3518 0238 FFF7FEFF 		bl	GetConstMsg
 3519              	.LVL431:
 3520 023c 4FF48052 		mov	r2, #4096
 3521 0240 4FF4A061 		mov	r1, #1280
 3522 0244 FFF7FEFF 		bl	Disp2x16Msg
 3523              	.LVL432:
1144:src/input.c   ****           WaitICCRemove();
 3524              		.loc 1 1144 0
 3525 0248 D8F80030 		ldr	r3, [r8]
 3526 024c 0122     		movs	r2, #1
 3527 024e 03F57153 		add	r3, r3, #15424
 3528 0252 1A74     		strb	r2, [r3, #16]
1145:src/input.c   ****           break;
 3529              		.loc 1 1145 0
 3530 0254 FFF7FEFF 		bl	WaitICCRemove
 3531              	.LVL433:
 3532              	.L477:
 3533 0258 0224     		movs	r4, #2
 3534 025a 58E0     		b	.L401
 3535              	.LVL434:
 3536              	.L418:
1150:src/input.c   ****       }
1151:src/input.c   ****       break;
1152:src/input.c   ****     }
1153:src/input.c   **** 
1154:src/input.c   ****     // MSR
1155:src/input.c   ****     if (IOCtlMW(gMsrHandle, IO_MSR_RXLEN, NULL) > 0) {
 3537              		.loc 1 1155 0
 3538 025c DFF89080 		ldr	r8, .L479+20
 3539 0260 0090     		str	r0, [sp]
 3540 0262 0721     		movs	r1, #7
 3541 0264 0F20     		movs	r0, #15
 3542 0266 D8F80020 		ldr	r2, [r8]
 3543 026a 0323     		movs	r3, #3
 3544 026c FFF7FEFF 		bl	lib_app_call
ARM GAS  C:\Users\AHMED~1.ELE\AppData\Local\Temp\ccLLYyS4.s 			page 93


 3545              	.LVL435:
 3546 0270 0028     		cmp	r0, #0
 3547 0272 7FF7D9AE 		ble	.L431
1156:src/input.c   ****       if (MSRSwiped(&INPUT.s_trk1buf, &INPUT.s_trk2buf)) {
 3548              		.loc 1 1156 0
 3549 0276 1D48     		ldr	r0, .L479+16
 3550 0278 00F1A001 		add	r1, r0, #160
 3551 027c FFF7FEFF 		bl	MSRSwiped
 3552              	.LVL436:
 3553 0280 C0B3     		cbz	r0, .L439
1157:src/input.c   ****         if (CTLEnabled())
 3554              		.loc 1 1157 0
 3555 0282 FFF7FEFF 		bl	CTLEnabled
 3556              	.LVL437:
 3557 0286 10B1     		cbz	r0, .L433
1158:src/input.c   ****           CL_Close(0);
 3558              		.loc 1 1158 0
 3559 0288 2046     		mov	r0, r4
 3560 028a FFF7FEFF 		bl	CL_Close
 3561              	.LVL438:
 3562              	.L433:
1159:src/input.c   ****         OffDevice(HW_MSR|HW_CLICC);     //01-08-17 JC ++
 3563              		.loc 1 1159 0
 3564 028e 0320     		movs	r0, #3
 3565 0290 FFF7FEFF 		bl	OffDevice
 3566              	.LVL439:
1160:src/input.c   ****         if (INPUT.s_trk2buf.b_len > 0) {
 3567              		.loc 1 1160 0
 3568 0294 96F8A032 		ldrb	r3, [r6, #672]	@ zero_extendqisi2
 3569 0298 104C     		ldr	r4, .L479
 3570 029a CBB1     		cbz	r3, .L434
1161:src/input.c   ****           if (ValidCard()) {
 3571              		.loc 1 1161 0
 3572 029c FFF7FEFF 		bl	ValidCard
 3573              	.LVL440:
 3574 02a0 88B1     		cbz	r0, .L435
1162:src/input.c   ****             if (aTxnType == SALE_OFFLINE)
 3575              		.loc 1 1162 0
 3576 02a2 072D     		cmp	r5, #7
 3577 02a4 94F83400 		ldrb	r0, [r4, #52]	@ zero_extendqisi2
 3578 02a8 02D1     		bne	.L436
1163:src/input.c   ****               SaleOfflTrans(INPUT.b_entry_mode);
 3579              		.loc 1 1163 0
 3580 02aa FFF7FEFF 		bl	SaleOfflTrans
 3581              	.LVL441:
 3582 02ae 0AE0     		b	.L435
 3583              	.L436:
1164:src/input.c   ****             else if (aTxnType == AUTH_SWIPE)
 3584              		.loc 1 1164 0
 3585 02b0 15B9     		cbnz	r5, .L437
1165:src/input.c   ****               AuthTrans(INPUT.b_entry_mode);
 3586              		.loc 1 1165 0
 3587 02b2 FFF7FEFF 		bl	AuthTrans
 3588              	.LVL442:
 3589 02b6 06E0     		b	.L435
 3590              	.L437:
1166:src/input.c   ****             else if (aTxnType == REFUND)
ARM GAS  C:\Users\AHMED~1.ELE\AppData\Local\Temp\ccLLYyS4.s 			page 94


 3591              		.loc 1 1166 0
 3592 02b8 062D     		cmp	r5, #6
 3593 02ba 02D1     		bne	.L438
1167:src/input.c   ****               RefundTrans(INPUT.b_entry_mode);
 3594              		.loc 1 1167 0
 3595 02bc FFF7FEFF 		bl	RefundTrans
 3596              	.LVL443:
 3597 02c0 01E0     		b	.L435
 3598              	.L438:
1168:src/input.c   ****             else
1169:src/input.c   ****               SaleTrans(INPUT.b_entry_mode);
 3599              		.loc 1 1169 0
 3600 02c2 FFF7FEFF 		bl	SaleTrans
 3601              	.LVL444:
 3602              	.L435:
1170:src/input.c   ****           }
1171:src/input.c   ****           TransEnd(FALSE);
 3603              		.loc 1 1171 0
 3604 02c6 0020     		movs	r0, #0
 3605 02c8 FFF7FEFF 		bl	TransEnd
 3606              	.LVL445:
1172:src/input.c   ****           ret = TXN_OK;
 3607              		.loc 1 1172 0
 3608 02cc 0224     		movs	r4, #2
 3609 02ce 12E0     		b	.L432
 3610              	.LVL446:
 3611              	.L434:
1173:src/input.c   ****         }
1174:src/input.c   ****         else {
1175:src/input.c   ****           RSP_DATA.w_rspcode = 'R'*256+'E';
 3612              		.loc 1 1175 0
 3613 02d0 45F24523 		movw	r3, #21061
 3614 02d4 A4F86E35 		strh	r3, [r4, #1390]	@ movhi
 3615              	.LVL447:
1176:src/input.c   ****           ret = TXN_ERR;
 3616              		.loc 1 1176 0
 3617 02d8 0124     		movs	r4, #1
 3618 02da 0CE0     		b	.L432
 3619              	.L480:
 3620              		.align	2
 3621              	.L479:
 3622 02dc 00000000 		.word	gGTS
 3623 02e0 00000000 		.word	gDispLogo
 3624 02e4 00000000 		.word	gGDS
 3625 02e8 00000000 		.word	gTimerHdl
 3626 02ec 00020000 		.word	gGTS+512
 3627 02f0 00000000 		.word	gMsrHandle
 3628              	.LVL448:
 3629              	.L439:
1022:src/input.c   ****   BYTE ctl_ctrl=0;
 3630              		.loc 1 1022 0
 3631 02f4 0446     		mov	r4, r0
 3632              	.LVL449:
 3633              	.L432:
1177:src/input.c   ****         }
1178:src/input.c   ****       }
1179:src/input.c   ****       IOCtlMW(gMsrHandle, IO_MSR_RESET, NULL);
ARM GAS  C:\Users\AHMED~1.ELE\AppData\Local\Temp\ccLLYyS4.s 			page 95


 3634              		.loc 1 1179 0
 3635 02f6 0025     		movs	r5, #0
 3636              	.LVL450:
 3637 02f8 0F20     		movs	r0, #15
 3638 02fa 0095     		str	r5, [sp]
 3639 02fc 0721     		movs	r1, #7
 3640 02fe D8F80020 		ldr	r2, [r8]
 3641 0302 0423     		movs	r3, #4
 3642 0304 FFF7FEFF 		bl	lib_app_call
 3643              	.LVL451:
1180:src/input.c   ****       TransEnd(FALSE);
 3644              		.loc 1 1180 0
 3645 0308 2846     		mov	r0, r5
 3646 030a FFF7FEFF 		bl	TransEnd
 3647              	.LVL452:
 3648              	.L401:
1181:src/input.c   ****       break;
1182:src/input.c   ****     }
1183:src/input.c   ****   }
1184:src/input.c   **** 
1185:src/input.c   ****   OffDevice(HW_MSR|HW_CLICC);       //25-07-17 JC ++
 3649              		.loc 1 1185 0
 3650 030e 0320     		movs	r0, #3
 3651 0310 FFF7FEFF 		bl	OffDevice
 3652              	.LVL453:
1186:src/input.c   ****   gIdleCnt = FreeRunMark();         //25-07-17 JC ++
 3653              		.loc 1 1186 0
 3654 0314 FFF7FEFF 		bl	FreeRunMark
 3655              	.LVL454:
 3656 0318 024B     		ldr	r3, .L481
 3657 031a 1860     		str	r0, [r3]
1187:src/input.c   ****   return ret;
1188:src/input.c   **** }
 3658              		.loc 1 1188 0
 3659 031c 2046     		mov	r0, r4
 3660 031e 02B0     		add	sp, sp, #8
 3661              		.cfi_def_cfa_offset 32
 3662              		@ sp needed
 3663 0320 BDE8F087 		pop	{r4, r5, r6, r7, r8, r9, r10, pc}
 3664              	.LVL455:
 3665              	.L482:
 3666              		.align	2
 3667              	.L481:
 3668 0324 00000000 		.word	gIdleCnt
 3669              		.cfi_endproc
 3670              	.LFE19:
 3671              		.size	WaitCardTrans, .-WaitCardTrans
 3672              		.section	.text.GetEcrRef,"ax",%progbits
 3673              		.align	1
 3674              		.global	GetEcrRef
 3675              		.thumb
 3676              		.thumb_func
 3677              		.type	GetEcrRef, %function
 3678              	GetEcrRef:
 3679              	.LFB20:
1189:src/input.c   **** //*****************************************************************************
1190:src/input.c   **** //  Function        : GetEcrRef
ARM GAS  C:\Users\AHMED~1.ELE\AppData\Local\Temp\ccLLYyS4.s 			page 96


1191:src/input.c   **** //  Description     : Prompt user to entry ECR reference number.
1192:src/input.c   **** //  Input           : TRUE;  // prompt user to get ECR ref if need
1193:src/input.c   **** //                    FALSE; // not prompt user
1194:src/input.c   **** //  Return          : TRUE;  // valid input.
1195:src/input.c   **** //                    FALSE; // user cancel
1196:src/input.c   **** //  Note            : N/A
1197:src/input.c   **** //  Globals Changed : INPUT.sb_ecr_ref;
1198:src/input.c   **** //*****************************************************************************
1199:src/input.c   **** BOOLEAN GetEcrRef(BOOLEAN aPrompt)
1200:src/input.c   **** {
 3680              		.loc 1 1200 0
 3681              		.cfi_startproc
 3682              		@ args = 0, pretend = 0, frame = 32
 3683              		@ frame_needed = 0, uses_anonymous_args = 0
 3684              	.LVL456:
 3685 0000 10B5     		push	{r4, lr}
 3686              		.cfi_def_cfa_offset 8
 3687              		.cfi_offset 4, -8
 3688              		.cfi_offset 14, -4
1201:src/input.c   ****   BYTE kbdbuf[31];
1202:src/input.c   **** 
1203:src/input.c   ****   memset(INPUT.sb_ecr_ref, ' ', 16);
 3689              		.loc 1 1203 0
 3690 0002 2021     		movs	r1, #32
1200:src/input.c   ****   BYTE kbdbuf[31];
 3691              		.loc 1 1200 0
 3692 0004 8AB0     		sub	sp, sp, #40
 3693              		.cfi_def_cfa_offset 48
1200:src/input.c   ****   BYTE kbdbuf[31];
 3694              		.loc 1 1200 0
 3695 0006 0446     		mov	r4, r0
 3696              		.loc 1 1203 0
 3697 0008 1022     		movs	r2, #16
 3698 000a 1B48     		ldr	r0, .L492
 3699              	.LVL457:
 3700 000c FFF7FEFF 		bl	memset
 3701              	.LVL458:
1204:src/input.c   **** 
1205:src/input.c   ****   if (gGDS->i_ecr_len> 0) {
 3702              		.loc 1 1205 0
 3703 0010 1A4B     		ldr	r3, .L492+4
 3704 0012 1B68     		ldr	r3, [r3]
 3705 0014 03F58443 		add	r3, r3, #16896
 3706 0018 DB6D     		ldr	r3, [r3, #92]
 3707 001a 002B     		cmp	r3, #0
 3708 001c 03DD     		ble	.L484
1206:src/input.c   ****     EcrGetRef(INPUT.sb_ecr_ref);
 3709              		.loc 1 1206 0
 3710 001e 1648     		ldr	r0, .L492
 3711 0020 FFF7FEFF 		bl	EcrGetRef
 3712              	.LVL459:
 3713 0024 25E0     		b	.L488
 3714              	.L484:
1207:src/input.c   ****     return TRUE;
1208:src/input.c   ****   }
1209:src/input.c   ****   if (!aPrompt)
 3715              		.loc 1 1209 0
ARM GAS  C:\Users\AHMED~1.ELE\AppData\Local\Temp\ccLLYyS4.s 			page 97


 3716 0026 0CB9     		cbnz	r4, .L486
 3717              	.L487:
1210:src/input.c   ****     return FALSE;
 3718              		.loc 1 1210 0
 3719 0028 0020     		movs	r0, #0
 3720 002a 23E0     		b	.L485
 3721              	.L486:
1211:src/input.c   **** 
1212:src/input.c   ****   DispHeader(NULL);
 3722              		.loc 1 1212 0
 3723 002c 0020     		movs	r0, #0
 3724 002e FFF7FEFF 		bl	DispHeader
 3725              	.LVL460:
1213:src/input.c   ****   if (!EcrRefReqd())
 3726              		.loc 1 1213 0
 3727 0032 FFF7FEFF 		bl	EcrRefReqd
 3728              	.LVL461:
 3729 0036 E0B1     		cbz	r0, .L488
1214:src/input.c   ****     return TRUE;
1215:src/input.c   **** 
1216:src/input.c   ****   Disp2x16Msg(GetConstMsg(EDC_IN_ECRREF), MW_LINE3, MW_BIGFONT);
 3730              		.loc 1 1216 0
 3731 0038 2020     		movs	r0, #32
 3732 003a FFF7FEFF 		bl	GetConstMsg
 3733              	.LVL462:
 3734 003e 4FF44071 		mov	r1, #768
 3735 0042 4FF48052 		mov	r2, #4096
 3736 0046 FFF7FEFF 		bl	Disp2x16Msg
 3737              	.LVL463:
1217:src/input.c   **** 
1218:src/input.c   ****   kbdbuf[0] = 0;
 3738              		.loc 1 1218 0
 3739 004a 0AAC     		add	r4, sp, #40
 3740 004c 0023     		movs	r3, #0
1219:src/input.c   ****   if (!APM_GetKbd(ALPHA_INPUT+ECHO+MW_BIGFONT+MW_LINE7+RIGHT_JUST, IMAX(16), kbdbuf))
 3741              		.loc 1 1219 0
 3742 004e 1020     		movs	r0, #16
1218:src/input.c   ****   if (!APM_GetKbd(ALPHA_INPUT+ECHO+MW_BIGFONT+MW_LINE7+RIGHT_JUST, IMAX(16), kbdbuf))
 3743              		.loc 1 1218 0
 3744 0050 04F8203D 		strb	r3, [r4, #-32]!
 3745              		.loc 1 1219 0
 3746 0054 0521     		movs	r1, #5
 3747 0056 0094     		str	r4, [sp]
 3748 0058 094A     		ldr	r2, .L492+8
 3749 005a 0346     		mov	r3, r0
 3750 005c FFF7FEFF 		bl	lib_app_call
 3751              	.LVL464:
 3752 0060 10F0FF0F 		tst	r0, #255
 3753 0064 E0D0     		beq	.L487
1220:src/input.c   ****     return 0;
1221:src/input.c   **** 
1222:src/input.c   ****   memcpy(INPUT.sb_ecr_ref, &kbdbuf[1], kbdbuf[0]);
 3754              		.loc 1 1222 0
 3755 0066 0448     		ldr	r0, .L492
 3756 0068 611C     		adds	r1, r4, #1
 3757 006a 9DF80820 		ldrb	r2, [sp, #8]	@ zero_extendqisi2
 3758 006e FFF7FEFF 		bl	memcpy
ARM GAS  C:\Users\AHMED~1.ELE\AppData\Local\Temp\ccLLYyS4.s 			page 98


 3759              	.LVL465:
 3760              	.L488:
1214:src/input.c   **** 
 3761              		.loc 1 1214 0
 3762 0072 0120     		movs	r0, #1
 3763              	.L485:
1223:src/input.c   ****   return TRUE;
1224:src/input.c   **** }
 3764              		.loc 1 1224 0
 3765 0074 0AB0     		add	sp, sp, #40
 3766              		.cfi_def_cfa_offset 8
 3767              		@ sp needed
 3768 0076 10BD     		pop	{r4, pc}
 3769              	.L493:
 3770              		.align	2
 3771              	.L492:
 3772 0078 4F000000 		.word	gGTS+79
 3773 007c 00000000 		.word	gGDS
 3774 0080 FF172200 		.word	2234367
 3775              		.cfi_endproc
 3776              	.LFE20:
 3777              		.size	GetEcrRef, .-GetEcrRef
 3778              		.section	.text.GetCashBackAmount,"ax",%progbits
 3779              		.align	1
 3780              		.global	GetCashBackAmount
 3781              		.thumb
 3782              		.thumb_func
 3783              		.type	GetCashBackAmount, %function
 3784              	GetCashBackAmount:
 3785              	.LFB21:
1225:src/input.c   **** //*****************************************************************************
1226:src/input.c   **** //  Function        : GetCashBackAmount
1227:src/input.c   **** //  Description     : Prompt user to enter cashback amount.
1228:src/input.c   **** //  Input           : N/A
1229:src/input.c   **** //  Return          : TRUE/FALSE;  // valid input or cancel
1230:src/input.c   **** //  Note            : N/A
1231:src/input.c   **** //  Globals Changed : N/A
1232:src/input.c   **** //*****************************************************************************
1233:src/input.c   **** BOOLEAN GetCashBackAmount(DDWORD *aCashbackAmt)
1234:src/input.c   **** {
 3786              		.loc 1 1234 0
 3787              		.cfi_startproc
 3788              		@ args = 0, pretend = 0, frame = 32
 3789              		@ frame_needed = 0, uses_anonymous_args = 0
 3790              	.LVL466:
 3791 0000 F0B5     		push	{r4, r5, r6, r7, lr}
 3792              		.cfi_def_cfa_offset 20
 3793              		.cfi_offset 4, -20
 3794              		.cfi_offset 5, -16
 3795              		.cfi_offset 6, -12
 3796              		.cfi_offset 7, -8
 3797              		.cfi_offset 14, -4
1235:src/input.c   ****   BYTE kbdbuf[32];
1236:src/input.c   ****   BYTE var_i = 0, var_j = 5;
1237:src/input.c   ****   DDWORD amt = 0;
1238:src/input.c   **** 
1239:src/input.c   ****   while (1) {    
ARM GAS  C:\Users\AHMED~1.ELE\AppData\Local\Temp\ccLLYyS4.s 			page 99


1240:src/input.c   ****     amt = 0;
1241:src/input.c   ****     kbdbuf[0] = 4;
1242:src/input.c   ****      memcpy(&kbdbuf[1], STIS_TERM_CFG.sb_currency_name, 3);
 3798              		.loc 1 1242 0
 3799 0002 2E4E     		ldr	r6, .L502
1234:src/input.c   ****   BYTE kbdbuf[32];
 3800              		.loc 1 1234 0
 3801 0004 8BB0     		sub	sp, sp, #44
 3802              		.cfi_def_cfa_offset 64
1241:src/input.c   ****      memcpy(&kbdbuf[1], STIS_TERM_CFG.sb_currency_name, 3);
 3803              		.loc 1 1241 0
 3804 0006 0AAC     		add	r4, sp, #40
 3805 0008 0423     		movs	r3, #4
 3806              		.loc 1 1242 0
 3807 000a 3768     		ldr	r7, [r6]
1241:src/input.c   ****      memcpy(&kbdbuf[1], STIS_TERM_CFG.sb_currency_name, 3);
 3808              		.loc 1 1241 0
 3809 000c 04F8203D 		strb	r3, [r4, #-32]!
 3810              		.loc 1 1242 0
 3811 0010 07F16701 		add	r1, r7, #103
 3812 0014 0322     		movs	r2, #3
1234:src/input.c   ****   BYTE kbdbuf[32];
 3813              		.loc 1 1234 0
 3814 0016 0546     		mov	r5, r0
 3815              		.loc 1 1242 0
 3816 0018 601C     		adds	r0, r4, #1
 3817              	.LVL467:
 3818 001a FFF7FEFF 		bl	memcpy
 3819              	.LVL468:
1243:src/input.c   ****     kbdbuf[4] = STIS_TERM_CFG.b_currency;
 3820              		.loc 1 1243 0
 3821 001e 97F86230 		ldrb	r3, [r7, #98]	@ zero_extendqisi2
1244:src/input.c   ****     
1245:src/input.c   ****     DispClrBelowMW(MW_LINE3);
 3822              		.loc 1 1245 0
 3823 0022 2321     		movs	r1, #35
1243:src/input.c   ****     kbdbuf[4] = STIS_TERM_CFG.b_currency;
 3824              		.loc 1 1243 0
 3825 0024 8DF80C30 		strb	r3, [sp, #12]
 3826              		.loc 1 1245 0
 3827 0028 0023     		movs	r3, #0
 3828 002a 4FF44072 		mov	r2, #768
 3829 002e 0093     		str	r3, [sp]
 3830 0030 0F20     		movs	r0, #15
 3831 0032 FFF7FEFF 		bl	lib_app_call
 3832              	.LVL469:
1246:src/input.c   ****     Disp2x16Msg("Enter Cash Back Amount", MW_LINE3, MW_BIGFONT);
 3833              		.loc 1 1246 0
 3834 0036 2248     		ldr	r0, .L502+4
 3835 0038 4FF44071 		mov	r1, #768
 3836 003c 4FF48052 		mov	r2, #4096
 3837 0040 FFF7FEFF 		bl	Disp2x16Msg
 3838              	.LVL470:
1247:src/input.c   **** 
1248:src/input.c   ****     if (!APM_GetKbd(PREFIX_ENB+AMOUNT_INPUT+MW_BIGFONT+MW_LINE7+KDecimalPos[STIS_TERM_CFG.b_decimal
 3839              		.loc 1 1248 0
 3840 0044 3368     		ldr	r3, [r6]
ARM GAS  C:\Users\AHMED~1.ELE\AppData\Local\Temp\ccLLYyS4.s 			page 100


 3841 0046 0521     		movs	r1, #5
 3842 0048 93F86420 		ldrb	r2, [r3, #100]	@ zero_extendqisi2
 3843 004c 1D4B     		ldr	r3, .L502+8
 3844 004e 0094     		str	r4, [sp]
 3845 0050 53F82220 		ldr	r2, [r3, r2, lsl #2]
 3846 0054 1020     		movs	r0, #16
 3847 0056 02F58202 		add	r2, r2, #4259840
 3848 005a 02F5B852 		add	r2, r2, #5888
 3849 005e 0B46     		mov	r3, r1
 3850 0060 FFF7FEFF 		bl	lib_app_call
 3851              	.LVL471:
 3852 0064 C0B2     		uxtb	r0, r0
 3853 0066 38B3     		cbz	r0, .L495
1249:src/input.c   ****             IMIN(var_i)+IMAX(var_j), kbdbuf))
1250:src/input.c   ****       return FALSE;
1251:src/input.c   ****     if (kbdbuf[0] == 0)
 3854              		.loc 1 1251 0
 3855 0068 9DF80800 		ldrb	r0, [sp, #8]	@ zero_extendqisi2
 3856 006c C0B1     		cbz	r0, .L498
1252:src/input.c   ****       amt = 0;
1253:src/input.c   ****     else {
1254:src/input.c   ****       if (STIS_TERM_CFG.b_decimal_pos < 2) {  // 8583 expect 2 decimal pos.
 3857              		.loc 1 1254 0
 3858 006e 3668     		ldr	r6, [r6]
 3859 0070 96F86430 		ldrb	r3, [r6, #100]	@ zero_extendqisi2
 3860 0074 012B     		cmp	r3, #1
 3861 0076 0DD8     		bhi	.L497
1255:src/input.c   ****         memset(&kbdbuf[kbdbuf[0]+1], '0', 2);
 3862              		.loc 1 1255 0
 3863 0078 0130     		adds	r0, r0, #1
 3864 007a 0222     		movs	r2, #2
 3865 007c 2044     		add	r0, r0, r4
 3866 007e 3021     		movs	r1, #48
 3867 0080 FFF7FEFF 		bl	memset
 3868              	.LVL472:
 3869 0084 9DF80830 		ldrb	r3, [sp, #8]	@ zero_extendqisi2
1256:src/input.c   ****         kbdbuf[0] += (2-STIS_TERM_CFG.b_decimal_pos);
 3870              		.loc 1 1256 0
 3871 0088 96F86420 		ldrb	r2, [r6, #100]	@ zero_extendqisi2
 3872 008c 0233     		adds	r3, r3, #2
 3873 008e 9B1A     		subs	r3, r3, r2
 3874 0090 8DF80830 		strb	r3, [sp, #8]
 3875              	.L497:
1257:src/input.c   ****       }
1258:src/input.c   ****       amt = decbin8b(&kbdbuf[1], kbdbuf[0]);
 3876              		.loc 1 1258 0
 3877 0094 601C     		adds	r0, r4, #1
 3878 0096 9DF80810 		ldrb	r1, [sp, #8]	@ zero_extendqisi2
 3879 009a FFF7FEFF 		bl	decbin8b
 3880              	.LVL473:
 3881 009e 01E0     		b	.L496
 3882              	.LVL474:
 3883              	.L498:
1252:src/input.c   ****     else {
 3884              		.loc 1 1252 0
 3885 00a0 0020     		movs	r0, #0
 3886 00a2 0021     		movs	r1, #0
ARM GAS  C:\Users\AHMED~1.ELE\AppData\Local\Temp\ccLLYyS4.s 			page 101


 3887              	.LVL475:
 3888              	.L496:
1259:src/input.c   ****     }
1260:src/input.c   ****     INPUT.dd_amount += amt;
 3889              		.loc 1 1260 0
 3890 00a4 084C     		ldr	r4, .L502+12
 3891 00a6 D4E90623 		ldrd	r2, [r4, #24]
 3892 00aa 1218     		adds	r2, r2, r0
 3893 00ac 4B41     		adcs	r3, r3, r1
 3894 00ae C4E90623 		strd	r2, [r4, #24]
1261:src/input.c   ****     *aCashbackAmt = amt;
 3895              		.loc 1 1261 0
 3896 00b2 C5E90001 		strd	r0, [r5]
1262:src/input.c   ****     return TRUE;
 3897              		.loc 1 1262 0
 3898 00b6 0120     		movs	r0, #1
 3899              	.LVL476:
 3900              	.L495:
1263:src/input.c   ****   }
1264:src/input.c   **** 
1265:src/input.c   ****   return FALSE;
1266:src/input.c   **** }
 3901              		.loc 1 1266 0
 3902 00b8 0BB0     		add	sp, sp, #44
 3903              		.cfi_def_cfa_offset 20
 3904              		@ sp needed
 3905 00ba F0BD     		pop	{r4, r5, r6, r7, pc}
 3906              	.LVL477:
 3907              	.L503:
 3908              		.align	2
 3909              	.L502:
 3910 00bc 00000000 		.word	gGDS
 3911 00c0 45000000 		.word	.LC4
 3912 00c4 00000000 		.word	.LANCHOR1
 3913 00c8 00000000 		.word	gGTS
 3914              		.cfi_endproc
 3915              	.LFE21:
 3916              		.size	GetCashBackAmount, .-GetCashBackAmount
 3917              		.global	gCurInfo
 3918              		.section	.rodata
 3919              		.align	2
 3920              		.set	.LANCHOR1,. + 0
 3921              		.type	KDecimalPos, %object
 3922              		.size	KDecimalPos, 16
 3923              	KDecimalPos:
 3924 0000 00000000 		.word	0
 3925 0004 00000001 		.word	16777216
 3926 0008 00000002 		.word	33554432
 3927 000c 00000003 		.word	50331648
 3928              		.section	.rodata.str1.1,"aMS",%progbits,1
 3929              	.LC0:
 3930 0000 3C434C52 		.ascii	"<CLR>Down<ENT>Confirm\000"
 3930      3E446F77 
 3930      6E3C454E 
 3930      543E436F 
 3930      6E666972 
 3931              	.LC1:
ARM GAS  C:\Users\AHMED~1.ELE\AppData\Local\Temp\ccLLYyS4.s 			page 102


 3932 0016 3C434C52 		.ascii	"<CLR>Up  <ENT>Confirm\000"
 3932      3E557020 
 3932      203C454E 
 3932      543E436F 
 3932      6E666972 
 3933              	.LC2:
 3934 002c 20202020 		.ascii	"         <ENT>Confirm\000"
 3934      20202020 
 3934      203C454E 
 3934      543E436F 
 3934      6E666972 
 3935              	.LC3:
 3936 0042 303000   		.ascii	"00\000"
 3937              	.LC4:
 3938 0045 456E7465 		.ascii	"Enter Cash Back Amount\000"
 3938      72204361 
 3938      73682042 
 3938      61636B20 
 3938      416D6F75 
 3939              		.data
 3940              		.align	2
 3941              		.set	.LANCHOR0,. + 0
 3942              		.type	gCurInfo, %object
 3943              		.size	gCurInfo, 24
 3944              	gCurInfo:
 3945 0000 454750   		.ascii	"EGP"
 3946 0003 383138   		.ascii	"818"
 3947 0006 0000     		.space	2
 3948 0008 555344   		.ascii	"USD"
 3949 000b 383430   		.ascii	"840"
 3950 000e 0000     		.space	2
 3951 0010 455552   		.ascii	"EUR"
 3952 0013 393738   		.ascii	"978"
 3953 0016 0000     		.space	2
 3954              		.text
 3955              	.Letext0:
 3956              		.file 2 "c:\\devtools\\gcc_v49_2014q4\\lib\\gcc\\arm-none-eabi\\4.9.3\\include\\stddef.h"
 3957              		.file 3 "../LibA5T1000/common.h"
 3958              		.file 4 "../LibA5T1000/emv2dll.h"
 3959              		.file 5 "../LibA5T1000/emvcl2dll.h"
 3960              		.file 6 "../LibA5T1000/ecrdll.h"
 3961              		.file 7 "../LibA5T1000/midware.h"
 3962              		.file 8 "../LibA5T1000/system.h"
 3963              		.file 9 "../LibA5T1000/apm.h"
 3964              		.file 10 "src/sysutil.h"
 3965              		.file 11 "src/corevar.h"
 3966              		.file 12 "src/constant.h"
 3967              		.file 13 "src/message.h"
 3968              		.file 14 "src/tranutil.h"
 3969              		.file 15 "src/iface.h"
 3970              		.file 16 "src/input.h"
 3971              		.file 17 "src/hardware.h"
 3972              		.file 18 "src/coremain.h"
 3973              		.file 19 "c:\\devtools\\gcc_v49_2014q4\\arm-none-eabi\\include\\string.h"
 3974              		.file 20 "../LibA5T1000/util.h"
 3975              		.file 21 "src/chkoptn.h"
 3976              		.file 22 "src/tlvutil.h"
ARM GAS  C:\Users\AHMED~1.ELE\AppData\Local\Temp\ccLLYyS4.s 			page 103


 3977              		.file 23 "src/ecr.h"
 3978              		.file 24 "src/emvtrans.h"
 3979              		.file 25 "src/ctltrans.h"
 3980              		.file 26 "src/saleoffl.h"
 3981              		.file 27 "src/auth.h"
 3982              		.file 28 "src/refund.h"
 3983              		.file 29 "src/sale.h"
 3984              		.section	.debug_info,"",%progbits
 3985              	.Ldebug_info0:
 3986 0000 80510000 		.4byte	0x5180
 3987 0004 0400     		.2byte	0x4
 3988 0006 00000000 		.4byte	.Ldebug_abbrev0
 3989 000a 04       		.byte	0x4
 3990 000b 01       		.uleb128 0x1
 3991 000c 96340000 		.4byte	.LASF1177
 3992 0010 01       		.byte	0x1
 3993 0011 232C0000 		.4byte	.LASF1178
 3994 0015 CE150000 		.4byte	.LASF1179
 3995 0019 60000000 		.4byte	.Ldebug_ranges0+0x60
 3996 001d 00000000 		.4byte	0
 3997 0021 00000000 		.4byte	.Ldebug_line0
 3998 0025 02       		.uleb128 0x2
 3999 0026 04       		.byte	0x4
 4000 0027 05       		.byte	0x5
 4001 0028 696E7400 		.ascii	"int\000"
 4002 002c 03       		.uleb128 0x3
 4003 002d 5E0A0000 		.4byte	.LASF11
 4004 0031 02       		.byte	0x2
 4005 0032 D4       		.byte	0xd4
 4006 0033 37000000 		.4byte	0x37
 4007 0037 04       		.uleb128 0x4
 4008 0038 04       		.byte	0x4
 4009 0039 07       		.byte	0x7
 4010 003a F3460000 		.4byte	.LASF0
 4011 003e 04       		.uleb128 0x4
 4012 003f 01       		.byte	0x1
 4013 0040 06       		.byte	0x6
 4014 0041 D3380000 		.4byte	.LASF1
 4015 0045 04       		.uleb128 0x4
 4016 0046 01       		.byte	0x1
 4017 0047 08       		.byte	0x8
 4018 0048 A4220000 		.4byte	.LASF2
 4019 004c 04       		.uleb128 0x4
 4020 004d 02       		.byte	0x2
 4021 004e 05       		.byte	0x5
 4022 004f 212E0000 		.4byte	.LASF3
 4023 0053 04       		.uleb128 0x4
 4024 0054 02       		.byte	0x2
 4025 0055 07       		.byte	0x7
 4026 0056 011F0000 		.4byte	.LASF4
 4027 005a 04       		.uleb128 0x4
 4028 005b 04       		.byte	0x4
 4029 005c 05       		.byte	0x5
 4030 005d 18310000 		.4byte	.LASF5
 4031 0061 04       		.uleb128 0x4
 4032 0062 04       		.byte	0x4
 4033 0063 07       		.byte	0x7
ARM GAS  C:\Users\AHMED~1.ELE\AppData\Local\Temp\ccLLYyS4.s 			page 104


 4034 0064 30010000 		.4byte	.LASF6
 4035 0068 04       		.uleb128 0x4
 4036 0069 08       		.byte	0x8
 4037 006a 05       		.byte	0x5
 4038 006b 2C000000 		.4byte	.LASF7
 4039 006f 04       		.uleb128 0x4
 4040 0070 08       		.byte	0x8
 4041 0071 07       		.byte	0x7
 4042 0072 6E3B0000 		.4byte	.LASF8
 4043 0076 04       		.uleb128 0x4
 4044 0077 04       		.byte	0x4
 4045 0078 07       		.byte	0x7
 4046 0079 1E330000 		.4byte	.LASF9
 4047 007d 05       		.uleb128 0x5
 4048 007e 04       		.byte	0x4
 4049 007f 04       		.uleb128 0x4
 4050 0080 01       		.byte	0x1
 4051 0081 06       		.byte	0x6
 4052 0082 073F0000 		.4byte	.LASF10
 4053 0086 06       		.uleb128 0x6
 4054 0087 04       		.byte	0x4
 4055 0088 8C000000 		.4byte	0x8c
 4056 008c 07       		.uleb128 0x7
 4057 008d 7F000000 		.4byte	0x7f
 4058 0091 03       		.uleb128 0x3
 4059 0092 CA040000 		.4byte	.LASF12
 4060 0096 03       		.byte	0x3
 4061 0097 0D       		.byte	0xd
 4062 0098 45000000 		.4byte	0x45
 4063 009c 03       		.uleb128 0x3
 4064 009d 163B0000 		.4byte	.LASF13
 4065 00a1 03       		.byte	0x3
 4066 00a2 0E       		.byte	0xe
 4067 00a3 45000000 		.4byte	0x45
 4068 00a7 03       		.uleb128 0x3
 4069 00a8 A31D0000 		.4byte	.LASF14
 4070 00ac 03       		.byte	0x3
 4071 00ad 0F       		.byte	0xf
 4072 00ae 53000000 		.4byte	0x53
 4073 00b2 03       		.uleb128 0x3
 4074 00b3 E8220000 		.4byte	.LASF15
 4075 00b7 03       		.byte	0x3
 4076 00b8 10       		.byte	0x10
 4077 00b9 37000000 		.4byte	0x37
 4078 00bd 03       		.uleb128 0x3
 4079 00be 661F0000 		.4byte	.LASF16
 4080 00c2 03       		.byte	0x3
 4081 00c3 11       		.byte	0x11
 4082 00c4 6F000000 		.4byte	0x6f
 4083 00c8 06       		.uleb128 0x6
 4084 00c9 04       		.byte	0x4
 4085 00ca CE000000 		.4byte	0xce
 4086 00ce 07       		.uleb128 0x7
 4087 00cf 9C000000 		.4byte	0x9c
 4088 00d3 08       		.uleb128 0x8
 4089 00d4 9C000000 		.4byte	0x9c
 4090 00d8 E3000000 		.4byte	0xe3
ARM GAS  C:\Users\AHMED~1.ELE\AppData\Local\Temp\ccLLYyS4.s 			page 105


 4091 00dc 09       		.uleb128 0x9
 4092 00dd 76000000 		.4byte	0x76
 4093 00e1 01       		.byte	0x1
 4094 00e2 00       		.byte	0
 4095 00e3 06       		.uleb128 0x6
 4096 00e4 04       		.byte	0x4
 4097 00e5 9C000000 		.4byte	0x9c
 4098 00e9 08       		.uleb128 0x8
 4099 00ea 9C000000 		.4byte	0x9c
 4100 00ee F9000000 		.4byte	0xf9
 4101 00f2 09       		.uleb128 0x9
 4102 00f3 76000000 		.4byte	0x76
 4103 00f7 03       		.byte	0x3
 4104 00f8 00       		.byte	0
 4105 00f9 0A       		.uleb128 0xa
 4106 00fa 08       		.byte	0x8
 4107 00fb 04       		.byte	0x4
 4108 00fc 58       		.byte	0x58
 4109 00fd 1A010000 		.4byte	0x11a
 4110 0101 0B       		.uleb128 0xb
 4111 0102 75420000 		.4byte	.LASF17
 4112 0106 04       		.byte	0x4
 4113 0107 59       		.byte	0x59
 4114 0108 A7000000 		.4byte	0xa7
 4115 010c 00       		.byte	0
 4116 010d 0B       		.uleb128 0xb
 4117 010e F0230000 		.4byte	.LASF18
 4118 0112 04       		.byte	0x4
 4119 0113 5A       		.byte	0x5a
 4120 0114 E3000000 		.4byte	0xe3
 4121 0118 04       		.byte	0x4
 4122 0119 00       		.byte	0
 4123 011a 03       		.uleb128 0x3
 4124 011b E9370000 		.4byte	.LASF19
 4125 011f 04       		.byte	0x4
 4126 0120 5B       		.byte	0x5b
 4127 0121 F9000000 		.4byte	0xf9
 4128 0125 0C       		.uleb128 0xc
 4129 0126 544C00   		.ascii	"TL\000"
 4130 0129 04       		.byte	0x4
 4131 012a AD       		.byte	0xad
 4132 012b 45000000 		.4byte	0x45
 4133 012f 0A       		.uleb128 0xa
 4134 0130 08       		.byte	0x8
 4135 0131 04       		.byte	0x4
 4136 0132 B0       		.byte	0xb0
 4137 0133 5C010000 		.4byte	0x15c
 4138 0137 0B       		.uleb128 0xb
 4139 0138 95140000 		.4byte	.LASF20
 4140 013c 04       		.byte	0x4
 4141 013d B1       		.byte	0xb1
 4142 013e A7000000 		.4byte	0xa7
 4143 0142 00       		.byte	0
 4144 0143 0B       		.uleb128 0xb
 4145 0144 4C040000 		.4byte	.LASF21
 4146 0148 04       		.byte	0x4
 4147 0149 B2       		.byte	0xb2
ARM GAS  C:\Users\AHMED~1.ELE\AppData\Local\Temp\ccLLYyS4.s 			page 106


 4148 014a 25010000 		.4byte	0x125
 4149 014e 02       		.byte	0x2
 4150 014f 0B       		.uleb128 0xb
 4151 0150 DD370000 		.4byte	.LASF22
 4152 0154 04       		.byte	0x4
 4153 0155 B3       		.byte	0xb3
 4154 0156 E3000000 		.4byte	0xe3
 4155 015a 04       		.byte	0x4
 4156 015b 00       		.byte	0
 4157 015c 03       		.uleb128 0x3
 4158 015d 00380000 		.4byte	.LASF23
 4159 0161 04       		.byte	0x4
 4160 0162 B4       		.byte	0xb4
 4161 0163 2F010000 		.4byte	0x12f
 4162 0167 08       		.uleb128 0x8
 4163 0168 9C000000 		.4byte	0x9c
 4164 016c 77010000 		.4byte	0x177
 4165 0170 09       		.uleb128 0x9
 4166 0171 76000000 		.4byte	0x76
 4167 0175 04       		.byte	0x4
 4168 0176 00       		.byte	0
 4169 0177 08       		.uleb128 0x8
 4170 0178 9C000000 		.4byte	0x9c
 4171 017c 87010000 		.4byte	0x187
 4172 0180 09       		.uleb128 0x9
 4173 0181 76000000 		.4byte	0x76
 4174 0185 02       		.byte	0x2
 4175 0186 00       		.byte	0
 4176 0187 08       		.uleb128 0x8
 4177 0188 B2000000 		.4byte	0xb2
 4178 018c 97010000 		.4byte	0x197
 4179 0190 09       		.uleb128 0x9
 4180 0191 76000000 		.4byte	0x76
 4181 0195 03       		.byte	0x3
 4182 0196 00       		.byte	0
 4183 0197 08       		.uleb128 0x8
 4184 0198 9C000000 		.4byte	0x9c
 4185 019c A7010000 		.4byte	0x1a7
 4186 01a0 09       		.uleb128 0x9
 4187 01a1 76000000 		.4byte	0x76
 4188 01a5 09       		.byte	0x9
 4189 01a6 00       		.byte	0
 4190 01a7 08       		.uleb128 0x8
 4191 01a8 9C000000 		.4byte	0x9c
 4192 01ac B7010000 		.4byte	0x1b7
 4193 01b0 09       		.uleb128 0x9
 4194 01b1 76000000 		.4byte	0x76
 4195 01b5 1F       		.byte	0x1f
 4196 01b6 00       		.byte	0
 4197 01b7 08       		.uleb128 0x8
 4198 01b8 9C000000 		.4byte	0x9c
 4199 01bc C7010000 		.4byte	0x1c7
 4200 01c0 09       		.uleb128 0x9
 4201 01c1 76000000 		.4byte	0x76
 4202 01c5 0F       		.byte	0xf
 4203 01c6 00       		.byte	0
 4204 01c7 08       		.uleb128 0x8
ARM GAS  C:\Users\AHMED~1.ELE\AppData\Local\Temp\ccLLYyS4.s 			page 107


 4205 01c8 9C000000 		.4byte	0x9c
 4206 01cc D7010000 		.4byte	0x1d7
 4207 01d0 09       		.uleb128 0x9
 4208 01d1 76000000 		.4byte	0x76
 4209 01d5 07       		.byte	0x7
 4210 01d6 00       		.byte	0
 4211 01d7 08       		.uleb128 0x8
 4212 01d8 9C000000 		.4byte	0x9c
 4213 01dc E7010000 		.4byte	0x1e7
 4214 01e0 09       		.uleb128 0x9
 4215 01e1 76000000 		.4byte	0x76
 4216 01e5 13       		.byte	0x13
 4217 01e6 00       		.byte	0
 4218 01e7 0D       		.uleb128 0xd
 4219 01e8 C60E0000 		.4byte	.LASF1180
 4220 01ec 02       		.byte	0x2
 4221 01ed 08       		.byte	0x8
 4222 01ee 9A04     		.2byte	0x49a
 4223 01f0 A40E0000 		.4byte	0xea4
 4224 01f4 0E       		.uleb128 0xe
 4225 01f5 AA400000 		.4byte	.LASF24
 4226 01f9 00       		.sleb128 0
 4227 01fa 0E       		.uleb128 0xe
 4228 01fb 2D0A0000 		.4byte	.LASF25
 4229 01ff 01       		.sleb128 1
 4230 0200 0E       		.uleb128 0xe
 4231 0201 EC040000 		.4byte	.LASF26
 4232 0205 02       		.sleb128 2
 4233 0206 0E       		.uleb128 0xe
 4234 0207 510E0000 		.4byte	.LASF27
 4235 020b 03       		.sleb128 3
 4236 020c 0E       		.uleb128 0xe
 4237 020d 59200000 		.4byte	.LASF28
 4238 0211 04       		.sleb128 4
 4239 0212 0E       		.uleb128 0xe
 4240 0213 0C240000 		.4byte	.LASF29
 4241 0217 05       		.sleb128 5
 4242 0218 0E       		.uleb128 0xe
 4243 0219 95170000 		.4byte	.LASF30
 4244 021d 06       		.sleb128 6
 4245 021e 0E       		.uleb128 0xe
 4246 021f 3B0C0000 		.4byte	.LASF31
 4247 0223 07       		.sleb128 7
 4248 0224 0E       		.uleb128 0xe
 4249 0225 3D220000 		.4byte	.LASF32
 4250 0229 08       		.sleb128 8
 4251 022a 0E       		.uleb128 0xe
 4252 022b D6190000 		.4byte	.LASF33
 4253 022f 09       		.sleb128 9
 4254 0230 0E       		.uleb128 0xe
 4255 0231 E13F0000 		.4byte	.LASF34
 4256 0235 0A       		.sleb128 10
 4257 0236 0E       		.uleb128 0xe
 4258 0237 D6220000 		.4byte	.LASF35
 4259 023b 0B       		.sleb128 11
 4260 023c 0E       		.uleb128 0xe
 4261 023d 370E0000 		.4byte	.LASF36
ARM GAS  C:\Users\AHMED~1.ELE\AppData\Local\Temp\ccLLYyS4.s 			page 108


 4262 0241 0C       		.sleb128 12
 4263 0242 0E       		.uleb128 0xe
 4264 0243 132C0000 		.4byte	.LASF37
 4265 0247 0D       		.sleb128 13
 4266 0248 0E       		.uleb128 0xe
 4267 0249 8C450000 		.4byte	.LASF38
 4268 024d 0E       		.sleb128 14
 4269 024e 0E       		.uleb128 0xe
 4270 024f 1D0A0000 		.4byte	.LASF39
 4271 0253 0F       		.sleb128 15
 4272 0254 0E       		.uleb128 0xe
 4273 0255 742A0000 		.4byte	.LASF40
 4274 0259 10       		.sleb128 16
 4275 025a 0E       		.uleb128 0xe
 4276 025b E22F0000 		.4byte	.LASF41
 4277 025f 11       		.sleb128 17
 4278 0260 0E       		.uleb128 0xe
 4279 0261 01020000 		.4byte	.LASF42
 4280 0265 12       		.sleb128 18
 4281 0266 0E       		.uleb128 0xe
 4282 0267 F3290000 		.4byte	.LASF43
 4283 026b 13       		.sleb128 19
 4284 026c 0E       		.uleb128 0xe
 4285 026d 96200000 		.4byte	.LASF44
 4286 0271 14       		.sleb128 20
 4287 0272 0E       		.uleb128 0xe
 4288 0273 BC0A0000 		.4byte	.LASF45
 4289 0277 15       		.sleb128 21
 4290 0278 0E       		.uleb128 0xe
 4291 0279 00030000 		.4byte	.LASF46
 4292 027d 16       		.sleb128 22
 4293 027e 0E       		.uleb128 0xe
 4294 027f 62030000 		.4byte	.LASF47
 4295 0283 17       		.sleb128 23
 4296 0284 0E       		.uleb128 0xe
 4297 0285 36030000 		.4byte	.LASF48
 4298 0289 18       		.sleb128 24
 4299 028a 0E       		.uleb128 0xe
 4300 028b 2A3A0000 		.4byte	.LASF49
 4301 028f 19       		.sleb128 25
 4302 0290 0E       		.uleb128 0xe
 4303 0291 19030000 		.4byte	.LASF50
 4304 0295 1A       		.sleb128 26
 4305 0296 0E       		.uleb128 0xe
 4306 0297 52030000 		.4byte	.LASF51
 4307 029b 1B       		.sleb128 27
 4308 029c 0E       		.uleb128 0xe
 4309 029d 3A3A0000 		.4byte	.LASF52
 4310 02a1 1C       		.sleb128 28
 4311 02a2 0E       		.uleb128 0xe
 4312 02a3 B61A0000 		.4byte	.LASF53
 4313 02a7 1D       		.sleb128 29
 4314 02a8 0E       		.uleb128 0xe
 4315 02a9 A7320000 		.4byte	.LASF54
 4316 02ad 1E       		.sleb128 30
 4317 02ae 0E       		.uleb128 0xe
 4318 02af 282F0000 		.4byte	.LASF55
ARM GAS  C:\Users\AHMED~1.ELE\AppData\Local\Temp\ccLLYyS4.s 			page 109


 4319 02b3 1F       		.sleb128 31
 4320 02b4 0E       		.uleb128 0xe
 4321 02b5 F01E0000 		.4byte	.LASF56
 4322 02b9 20       		.sleb128 32
 4323 02ba 0E       		.uleb128 0xe
 4324 02bb 86270000 		.4byte	.LASF57
 4325 02bf 21       		.sleb128 33
 4326 02c0 0E       		.uleb128 0xe
 4327 02c1 540D0000 		.4byte	.LASF58
 4328 02c5 22       		.sleb128 34
 4329 02c6 0E       		.uleb128 0xe
 4330 02c7 B52B0000 		.4byte	.LASF59
 4331 02cb 23       		.sleb128 35
 4332 02cc 0E       		.uleb128 0xe
 4333 02cd 52320000 		.4byte	.LASF60
 4334 02d1 24       		.sleb128 36
 4335 02d2 0E       		.uleb128 0xe
 4336 02d3 962E0000 		.4byte	.LASF61
 4337 02d7 25       		.sleb128 37
 4338 02d8 0E       		.uleb128 0xe
 4339 02d9 8E120000 		.4byte	.LASF62
 4340 02dd 26       		.sleb128 38
 4341 02de 0E       		.uleb128 0xe
 4342 02df 0C3C0000 		.4byte	.LASF63
 4343 02e3 27       		.sleb128 39
 4344 02e4 0E       		.uleb128 0xe
 4345 02e5 19260000 		.4byte	.LASF64
 4346 02e9 28       		.sleb128 40
 4347 02ea 0E       		.uleb128 0xe
 4348 02eb 46160000 		.4byte	.LASF65
 4349 02ef 29       		.sleb128 41
 4350 02f0 0E       		.uleb128 0xe
 4351 02f1 D4360000 		.4byte	.LASF66
 4352 02f5 2A       		.sleb128 42
 4353 02f6 0E       		.uleb128 0xe
 4354 02f7 A7040000 		.4byte	.LASF67
 4355 02fb 2B       		.sleb128 43
 4356 02fc 0E       		.uleb128 0xe
 4357 02fd CE2C0000 		.4byte	.LASF68
 4358 0301 2C       		.sleb128 44
 4359 0302 0E       		.uleb128 0xe
 4360 0303 A6200000 		.4byte	.LASF69
 4361 0307 2D       		.sleb128 45
 4362 0308 0E       		.uleb128 0xe
 4363 0309 99080000 		.4byte	.LASF70
 4364 030d 2E       		.sleb128 46
 4365 030e 0E       		.uleb128 0xe
 4366 030f 371F0000 		.4byte	.LASF71
 4367 0313 2F       		.sleb128 47
 4368 0314 0E       		.uleb128 0xe
 4369 0315 41130000 		.4byte	.LASF72
 4370 0319 30       		.sleb128 48
 4371 031a 0E       		.uleb128 0xe
 4372 031b 6B3D0000 		.4byte	.LASF73
 4373 031f 31       		.sleb128 49
 4374 0320 0E       		.uleb128 0xe
 4375 0321 4E0F0000 		.4byte	.LASF74
ARM GAS  C:\Users\AHMED~1.ELE\AppData\Local\Temp\ccLLYyS4.s 			page 110


 4376 0325 32       		.sleb128 50
 4377 0326 0E       		.uleb128 0xe
 4378 0327 EB2E0000 		.4byte	.LASF75
 4379 032b 33       		.sleb128 51
 4380 032c 0E       		.uleb128 0xe
 4381 032d 9B450000 		.4byte	.LASF76
 4382 0331 34       		.sleb128 52
 4383 0332 0E       		.uleb128 0xe
 4384 0333 44430000 		.4byte	.LASF77
 4385 0337 35       		.sleb128 53
 4386 0338 0E       		.uleb128 0xe
 4387 0339 CD370000 		.4byte	.LASF78
 4388 033d 36       		.sleb128 54
 4389 033e 0E       		.uleb128 0xe
 4390 033f B81B0000 		.4byte	.LASF79
 4391 0343 37       		.sleb128 55
 4392 0344 0E       		.uleb128 0xe
 4393 0345 5B1A0000 		.4byte	.LASF80
 4394 0349 38       		.sleb128 56
 4395 034a 0E       		.uleb128 0xe
 4396 034b 750D0000 		.4byte	.LASF81
 4397 034f 39       		.sleb128 57
 4398 0350 0E       		.uleb128 0xe
 4399 0351 F80B0000 		.4byte	.LASF82
 4400 0355 3A       		.sleb128 58
 4401 0356 0E       		.uleb128 0xe
 4402 0357 82090000 		.4byte	.LASF83
 4403 035b 3B       		.sleb128 59
 4404 035c 0E       		.uleb128 0xe
 4405 035d 97280000 		.4byte	.LASF84
 4406 0361 3C       		.sleb128 60
 4407 0362 0E       		.uleb128 0xe
 4408 0363 F23F0000 		.4byte	.LASF85
 4409 0367 3D       		.sleb128 61
 4410 0368 0E       		.uleb128 0xe
 4411 0369 6E120000 		.4byte	.LASF86
 4412 036d 3E       		.sleb128 62
 4413 036e 0E       		.uleb128 0xe
 4414 036f 5E060000 		.4byte	.LASF87
 4415 0373 3F       		.sleb128 63
 4416 0374 0E       		.uleb128 0xe
 4417 0375 532E0000 		.4byte	.LASF88
 4418 0379 C000     		.sleb128 64
 4419 037b 0E       		.uleb128 0xe
 4420 037c D7130000 		.4byte	.LASF89
 4421 0380 C100     		.sleb128 65
 4422 0382 0E       		.uleb128 0xe
 4423 0383 36070000 		.4byte	.LASF90
 4424 0387 C200     		.sleb128 66
 4425 0389 0E       		.uleb128 0xe
 4426 038a 29260000 		.4byte	.LASF91
 4427 038e C300     		.sleb128 67
 4428 0390 0E       		.uleb128 0xe
 4429 0391 932F0000 		.4byte	.LASF92
 4430 0395 C400     		.sleb128 68
 4431 0397 0E       		.uleb128 0xe
 4432 0398 24160000 		.4byte	.LASF93
ARM GAS  C:\Users\AHMED~1.ELE\AppData\Local\Temp\ccLLYyS4.s 			page 111


 4433 039c C500     		.sleb128 69
 4434 039e 0E       		.uleb128 0xe
 4435 039f 73450000 		.4byte	.LASF94
 4436 03a3 C600     		.sleb128 70
 4437 03a5 0E       		.uleb128 0xe
 4438 03a6 832C0000 		.4byte	.LASF95
 4439 03aa C700     		.sleb128 71
 4440 03ac 0E       		.uleb128 0xe
 4441 03ad 3B3F0000 		.4byte	.LASF96
 4442 03b1 C800     		.sleb128 72
 4443 03b3 0E       		.uleb128 0xe
 4444 03b4 2F090000 		.4byte	.LASF97
 4445 03b8 C900     		.sleb128 73
 4446 03ba 0E       		.uleb128 0xe
 4447 03bb 0C3F0000 		.4byte	.LASF98
 4448 03bf CA00     		.sleb128 74
 4449 03c1 0E       		.uleb128 0xe
 4450 03c2 4F200000 		.4byte	.LASF99
 4451 03c6 CB00     		.sleb128 75
 4452 03c8 0E       		.uleb128 0xe
 4453 03c9 0C280000 		.4byte	.LASF100
 4454 03cd CC00     		.sleb128 76
 4455 03cf 0E       		.uleb128 0xe
 4456 03d0 F8270000 		.4byte	.LASF101
 4457 03d4 CD00     		.sleb128 77
 4458 03d6 0E       		.uleb128 0xe
 4459 03d7 02090000 		.4byte	.LASF102
 4460 03db CE00     		.sleb128 78
 4461 03dd 0E       		.uleb128 0xe
 4462 03de 37200000 		.4byte	.LASF103
 4463 03e2 CF00     		.sleb128 79
 4464 03e4 0E       		.uleb128 0xe
 4465 03e5 1E280000 		.4byte	.LASF104
 4466 03e9 D000     		.sleb128 80
 4467 03eb 0E       		.uleb128 0xe
 4468 03ec C1240000 		.4byte	.LASF105
 4469 03f0 D100     		.sleb128 81
 4470 03f2 0E       		.uleb128 0xe
 4471 03f3 B0140000 		.4byte	.LASF106
 4472 03f7 D200     		.sleb128 82
 4473 03f9 0E       		.uleb128 0xe
 4474 03fa 481F0000 		.4byte	.LASF107
 4475 03fe D300     		.sleb128 83
 4476 0400 0E       		.uleb128 0xe
 4477 0401 A7270000 		.4byte	.LASF108
 4478 0405 D400     		.sleb128 84
 4479 0407 0E       		.uleb128 0xe
 4480 0408 760C0000 		.4byte	.LASF109
 4481 040c D500     		.sleb128 85
 4482 040e 0E       		.uleb128 0xe
 4483 040f 47070000 		.4byte	.LASF110
 4484 0413 D600     		.sleb128 86
 4485 0415 0E       		.uleb128 0xe
 4486 0416 650A0000 		.4byte	.LASF111
 4487 041a D700     		.sleb128 87
 4488 041c 0E       		.uleb128 0xe
 4489 041d 22300000 		.4byte	.LASF112
ARM GAS  C:\Users\AHMED~1.ELE\AppData\Local\Temp\ccLLYyS4.s 			page 112


 4490 0421 D800     		.sleb128 88
 4491 0423 0E       		.uleb128 0xe
 4492 0424 D03E0000 		.4byte	.LASF113
 4493 0428 D900     		.sleb128 89
 4494 042a 0E       		.uleb128 0xe
 4495 042b 2A0C0000 		.4byte	.LASF114
 4496 042f DA00     		.sleb128 90
 4497 0431 0E       		.uleb128 0xe
 4498 0432 9B300000 		.4byte	.LASF115
 4499 0436 DB00     		.sleb128 91
 4500 0438 0E       		.uleb128 0xe
 4501 0439 D00B0000 		.4byte	.LASF116
 4502 043d DC00     		.sleb128 92
 4503 043f 0E       		.uleb128 0xe
 4504 0440 980A0000 		.4byte	.LASF117
 4505 0444 DD00     		.sleb128 93
 4506 0446 0E       		.uleb128 0xe
 4507 0447 DD320000 		.4byte	.LASF118
 4508 044b DE00     		.sleb128 94
 4509 044d 0E       		.uleb128 0xe
 4510 044e B8040000 		.4byte	.LASF119
 4511 0452 DF00     		.sleb128 95
 4512 0454 0E       		.uleb128 0xe
 4513 0455 BB180000 		.4byte	.LASF120
 4514 0459 E000     		.sleb128 96
 4515 045b 0E       		.uleb128 0xe
 4516 045c 1E100000 		.4byte	.LASF121
 4517 0460 E100     		.sleb128 97
 4518 0462 0E       		.uleb128 0xe
 4519 0463 FB110000 		.4byte	.LASF122
 4520 0467 E200     		.sleb128 98
 4521 0469 0E       		.uleb128 0xe
 4522 046a 38440000 		.4byte	.LASF123
 4523 046e E300     		.sleb128 99
 4524 0470 0E       		.uleb128 0xe
 4525 0471 33050000 		.4byte	.LASF124
 4526 0475 E400     		.sleb128 100
 4527 0477 0E       		.uleb128 0xe
 4528 0478 F53E0000 		.4byte	.LASF125
 4529 047c E500     		.sleb128 101
 4530 047e 0E       		.uleb128 0xe
 4531 047f 580B0000 		.4byte	.LASF126
 4532 0483 E600     		.sleb128 102
 4533 0485 0E       		.uleb128 0xe
 4534 0486 6B150000 		.4byte	.LASF127
 4535 048a E700     		.sleb128 103
 4536 048c 0E       		.uleb128 0xe
 4537 048d 69200000 		.4byte	.LASF128
 4538 0491 E800     		.sleb128 104
 4539 0493 0E       		.uleb128 0xe
 4540 0494 F22F0000 		.4byte	.LASF129
 4541 0498 E900     		.sleb128 105
 4542 049a 0E       		.uleb128 0xe
 4543 049b BD200000 		.4byte	.LASF130
 4544 049f EA00     		.sleb128 106
 4545 04a1 0E       		.uleb128 0xe
 4546 04a2 C4100000 		.4byte	.LASF131
ARM GAS  C:\Users\AHMED~1.ELE\AppData\Local\Temp\ccLLYyS4.s 			page 113


 4547 04a6 EB00     		.sleb128 107
 4548 04a8 0E       		.uleb128 0xe
 4549 04a9 88400000 		.4byte	.LASF132
 4550 04ad EC00     		.sleb128 108
 4551 04af 0E       		.uleb128 0xe
 4552 04b0 7D170000 		.4byte	.LASF133
 4553 04b4 ED00     		.sleb128 109
 4554 04b6 0E       		.uleb128 0xe
 4555 04b7 2A0D0000 		.4byte	.LASF134
 4556 04bb EE00     		.sleb128 110
 4557 04bd 0E       		.uleb128 0xe
 4558 04be 86110000 		.4byte	.LASF135
 4559 04c2 EF00     		.sleb128 111
 4560 04c4 0E       		.uleb128 0xe
 4561 04c5 9B1A0000 		.4byte	.LASF136
 4562 04c9 F000     		.sleb128 112
 4563 04cb 0E       		.uleb128 0xe
 4564 04cc 1A380000 		.4byte	.LASF137
 4565 04d0 F100     		.sleb128 113
 4566 04d2 0E       		.uleb128 0xe
 4567 04d3 B8000000 		.4byte	.LASF138
 4568 04d7 F200     		.sleb128 114
 4569 04d9 0E       		.uleb128 0xe
 4570 04da 652D0000 		.4byte	.LASF139
 4571 04de F300     		.sleb128 115
 4572 04e0 0E       		.uleb128 0xe
 4573 04e1 43000000 		.4byte	.LASF140
 4574 04e5 F400     		.sleb128 116
 4575 04e7 0E       		.uleb128 0xe
 4576 04e8 09190000 		.4byte	.LASF141
 4577 04ec F500     		.sleb128 117
 4578 04ee 0E       		.uleb128 0xe
 4579 04ef 2C460000 		.4byte	.LASF142
 4580 04f3 F600     		.sleb128 118
 4581 04f5 0E       		.uleb128 0xe
 4582 04f6 63140000 		.4byte	.LASF143
 4583 04fa F700     		.sleb128 119
 4584 04fc 0E       		.uleb128 0xe
 4585 04fd 12160000 		.4byte	.LASF144
 4586 0501 F800     		.sleb128 120
 4587 0503 0E       		.uleb128 0xe
 4588 0504 DE110000 		.4byte	.LASF145
 4589 0508 F900     		.sleb128 121
 4590 050a 0E       		.uleb128 0xe
 4591 050b FE150000 		.4byte	.LASF146
 4592 050f FA00     		.sleb128 122
 4593 0511 0E       		.uleb128 0xe
 4594 0512 323C0000 		.4byte	.LASF147
 4595 0516 FB00     		.sleb128 123
 4596 0518 0E       		.uleb128 0xe
 4597 0519 AB1F0000 		.4byte	.LASF148
 4598 051d FC00     		.sleb128 124
 4599 051f 0E       		.uleb128 0xe
 4600 0520 503E0000 		.4byte	.LASF149
 4601 0524 FD00     		.sleb128 125
 4602 0526 0E       		.uleb128 0xe
 4603 0527 84340000 		.4byte	.LASF150
ARM GAS  C:\Users\AHMED~1.ELE\AppData\Local\Temp\ccLLYyS4.s 			page 114


 4604 052b FE00     		.sleb128 126
 4605 052d 0E       		.uleb128 0xe
 4606 052e C2450000 		.4byte	.LASF151
 4607 0532 FF00     		.sleb128 127
 4608 0534 0E       		.uleb128 0xe
 4609 0535 C5310000 		.4byte	.LASF152
 4610 0539 8001     		.sleb128 128
 4611 053b 0E       		.uleb128 0xe
 4612 053c E50B0000 		.4byte	.LASF153
 4613 0540 8101     		.sleb128 129
 4614 0542 0E       		.uleb128 0xe
 4615 0543 541E0000 		.4byte	.LASF154
 4616 0547 8201     		.sleb128 130
 4617 0549 0E       		.uleb128 0xe
 4618 054a A5370000 		.4byte	.LASF155
 4619 054e 8301     		.sleb128 131
 4620 0550 0E       		.uleb128 0xe
 4621 0551 A5170000 		.4byte	.LASF156
 4622 0555 8401     		.sleb128 132
 4623 0557 0E       		.uleb128 0xe
 4624 0558 2B0F0000 		.4byte	.LASF157
 4625 055c 8501     		.sleb128 133
 4626 055e 0E       		.uleb128 0xe
 4627 055f 7D300000 		.4byte	.LASF158
 4628 0563 8601     		.sleb128 134
 4629 0565 0E       		.uleb128 0xe
 4630 0566 750A0000 		.4byte	.LASF159
 4631 056a 8701     		.sleb128 135
 4632 056c 0E       		.uleb128 0xe
 4633 056d C0280000 		.4byte	.LASF160
 4634 0571 8801     		.sleb128 136
 4635 0573 0E       		.uleb128 0xe
 4636 0574 BB230000 		.4byte	.LASF161
 4637 0578 8901     		.sleb128 137
 4638 057a 0E       		.uleb128 0xe
 4639 057b F1150000 		.4byte	.LASF162
 4640 057f 8A01     		.sleb128 138
 4641 0581 0E       		.uleb128 0xe
 4642 0582 F60C0000 		.4byte	.LASF163
 4643 0586 8B01     		.sleb128 139
 4644 0588 0E       		.uleb128 0xe
 4645 0589 FF410000 		.4byte	.LASF164
 4646 058d 8C01     		.sleb128 140
 4647 058f 0E       		.uleb128 0xe
 4648 0590 B8260000 		.4byte	.LASF165
 4649 0594 8D01     		.sleb128 141
 4650 0596 0E       		.uleb128 0xe
 4651 0597 21310000 		.4byte	.LASF166
 4652 059b 8E01     		.sleb128 142
 4653 059d 0E       		.uleb128 0xe
 4654 059e 7C2D0000 		.4byte	.LASF167
 4655 05a2 8F01     		.sleb128 143
 4656 05a4 0E       		.uleb128 0xe
 4657 05a5 9B390000 		.4byte	.LASF168
 4658 05a9 9001     		.sleb128 144
 4659 05ab 0E       		.uleb128 0xe
 4660 05ac 0D2A0000 		.4byte	.LASF169
ARM GAS  C:\Users\AHMED~1.ELE\AppData\Local\Temp\ccLLYyS4.s 			page 115


 4661 05b0 9101     		.sleb128 145
 4662 05b2 0E       		.uleb128 0xe
 4663 05b3 6E180000 		.4byte	.LASF170
 4664 05b7 9201     		.sleb128 146
 4665 05b9 0E       		.uleb128 0xe
 4666 05ba DE0D0000 		.4byte	.LASF171
 4667 05be 9301     		.sleb128 147
 4668 05c0 0E       		.uleb128 0xe
 4669 05c1 F2350000 		.4byte	.LASF172
 4670 05c5 9401     		.sleb128 148
 4671 05c7 0E       		.uleb128 0xe
 4672 05c8 96440000 		.4byte	.LASF173
 4673 05cc 9501     		.sleb128 149
 4674 05ce 0E       		.uleb128 0xe
 4675 05cf 141F0000 		.4byte	.LASF174
 4676 05d3 9601     		.sleb128 150
 4677 05d5 0E       		.uleb128 0xe
 4678 05d6 36260000 		.4byte	.LASF175
 4679 05da 9701     		.sleb128 151
 4680 05dc 0E       		.uleb128 0xe
 4681 05dd 45340000 		.4byte	.LASF176
 4682 05e1 9801     		.sleb128 152
 4683 05e3 0E       		.uleb128 0xe
 4684 05e4 DA1B0000 		.4byte	.LASF177
 4685 05e8 9901     		.sleb128 153
 4686 05ea 0E       		.uleb128 0xe
 4687 05eb 912C0000 		.4byte	.LASF178
 4688 05ef 9A01     		.sleb128 154
 4689 05f1 0E       		.uleb128 0xe
 4690 05f2 D8050000 		.4byte	.LASF179
 4691 05f6 9B01     		.sleb128 155
 4692 05f8 0E       		.uleb128 0xe
 4693 05f9 FA0F0000 		.4byte	.LASF180
 4694 05fd 9C01     		.sleb128 156
 4695 05ff 0E       		.uleb128 0xe
 4696 0600 2C150000 		.4byte	.LASF181
 4697 0604 9D01     		.sleb128 157
 4698 0606 0E       		.uleb128 0xe
 4699 0607 A9250000 		.4byte	.LASF182
 4700 060b 9E01     		.sleb128 158
 4701 060d 0E       		.uleb128 0xe
 4702 060e 5A3D0000 		.4byte	.LASF183
 4703 0612 9F01     		.sleb128 159
 4704 0614 0E       		.uleb128 0xe
 4705 0615 F1010000 		.4byte	.LASF184
 4706 0619 A001     		.sleb128 160
 4707 061b 0E       		.uleb128 0xe
 4708 061c 93380000 		.4byte	.LASF185
 4709 0620 A101     		.sleb128 161
 4710 0622 0E       		.uleb128 0xe
 4711 0623 C0080000 		.4byte	.LASF186
 4712 0627 A201     		.sleb128 162
 4713 0629 0E       		.uleb128 0xe
 4714 062a 04130000 		.4byte	.LASF187
 4715 062e A301     		.sleb128 163
 4716 0630 0E       		.uleb128 0xe
 4717 0631 B33C0000 		.4byte	.LASF188
ARM GAS  C:\Users\AHMED~1.ELE\AppData\Local\Temp\ccLLYyS4.s 			page 116


 4718 0635 A401     		.sleb128 164
 4719 0637 0E       		.uleb128 0xe
 4720 0638 AC2D0000 		.4byte	.LASF189
 4721 063c A501     		.sleb128 165
 4722 063e 0E       		.uleb128 0xe
 4723 063f 6C240000 		.4byte	.LASF190
 4724 0643 A601     		.sleb128 166
 4725 0645 0E       		.uleb128 0xe
 4726 0646 89100000 		.4byte	.LASF191
 4727 064a A701     		.sleb128 167
 4728 064c 0E       		.uleb128 0xe
 4729 064d CA060000 		.4byte	.LASF192
 4730 0651 A801     		.sleb128 168
 4731 0653 0E       		.uleb128 0xe
 4732 0654 F20A0000 		.4byte	.LASF193
 4733 0658 A901     		.sleb128 169
 4734 065a 0E       		.uleb128 0xe
 4735 065b CE1F0000 		.4byte	.LASF194
 4736 065f AA01     		.sleb128 170
 4737 0661 0E       		.uleb128 0xe
 4738 0662 13110000 		.4byte	.LASF195
 4739 0666 AB01     		.sleb128 171
 4740 0668 0E       		.uleb128 0xe
 4741 0669 5A290000 		.4byte	.LASF196
 4742 066d AC01     		.sleb128 172
 4743 066f 0E       		.uleb128 0xe
 4744 0670 FA170000 		.4byte	.LASF197
 4745 0674 AD01     		.sleb128 173
 4746 0676 0E       		.uleb128 0xe
 4747 0677 EF120000 		.4byte	.LASF198
 4748 067b AE01     		.sleb128 174
 4749 067d 0E       		.uleb128 0xe
 4750 067e B6270000 		.4byte	.LASF199
 4751 0682 AF01     		.sleb128 175
 4752 0684 0E       		.uleb128 0xe
 4753 0685 73320000 		.4byte	.LASF200
 4754 0689 B001     		.sleb128 176
 4755 068b 0E       		.uleb128 0xe
 4756 068c 3C270000 		.4byte	.LASF201
 4757 0690 B101     		.sleb128 177
 4758 0692 0E       		.uleb128 0xe
 4759 0693 0B010000 		.4byte	.LASF202
 4760 0697 B201     		.sleb128 178
 4761 0699 0E       		.uleb128 0xe
 4762 069a BD1F0000 		.4byte	.LASF203
 4763 069e B301     		.sleb128 179
 4764 06a0 0E       		.uleb128 0xe
 4765 06a1 422E0000 		.4byte	.LASF204
 4766 06a5 B401     		.sleb128 180
 4767 06a7 0E       		.uleb128 0xe
 4768 06a8 813C0000 		.4byte	.LASF205
 4769 06ac B501     		.sleb128 181
 4770 06ae 0E       		.uleb128 0xe
 4771 06af 4D170000 		.4byte	.LASF206
 4772 06b3 B601     		.sleb128 182
 4773 06b5 0E       		.uleb128 0xe
 4774 06b6 CD110000 		.4byte	.LASF207
ARM GAS  C:\Users\AHMED~1.ELE\AppData\Local\Temp\ccLLYyS4.s 			page 117


 4775 06ba B701     		.sleb128 183
 4776 06bc 0E       		.uleb128 0xe
 4777 06bd 46470000 		.4byte	.LASF208
 4778 06c1 B801     		.sleb128 184
 4779 06c3 0E       		.uleb128 0xe
 4780 06c4 9B430000 		.4byte	.LASF209
 4781 06c8 B901     		.sleb128 185
 4782 06ca 0E       		.uleb128 0xe
 4783 06cb F9130000 		.4byte	.LASF210
 4784 06cf BA01     		.sleb128 186
 4785 06d1 0E       		.uleb128 0xe
 4786 06d2 A6010000 		.4byte	.LASF211
 4787 06d6 BB01     		.sleb128 187
 4788 06d8 0E       		.uleb128 0xe
 4789 06d9 93150000 		.4byte	.LASF212
 4790 06dd BC01     		.sleb128 188
 4791 06df 0E       		.uleb128 0xe
 4792 06e0 422F0000 		.4byte	.LASF213
 4793 06e4 BD01     		.sleb128 189
 4794 06e6 0E       		.uleb128 0xe
 4795 06e7 3E100000 		.4byte	.LASF214
 4796 06eb BE01     		.sleb128 190
 4797 06ed 0E       		.uleb128 0xe
 4798 06ee 9F210000 		.4byte	.LASF215
 4799 06f2 BF01     		.sleb128 191
 4800 06f4 0E       		.uleb128 0xe
 4801 06f5 CD180000 		.4byte	.LASF216
 4802 06f9 C001     		.sleb128 192
 4803 06fb 0E       		.uleb128 0xe
 4804 06fc DC420000 		.4byte	.LASF217
 4805 0700 C101     		.sleb128 193
 4806 0702 0E       		.uleb128 0xe
 4807 0703 3B1B0000 		.4byte	.LASF218
 4808 0707 C201     		.sleb128 194
 4809 0709 0E       		.uleb128 0xe
 4810 070a 6A360000 		.4byte	.LASF219
 4811 070e C301     		.sleb128 195
 4812 0710 0E       		.uleb128 0xe
 4813 0711 48230000 		.4byte	.LASF220
 4814 0715 C401     		.sleb128 196
 4815 0717 0E       		.uleb128 0xe
 4816 0718 481B0000 		.4byte	.LASF221
 4817 071c C501     		.sleb128 197
 4818 071e 0E       		.uleb128 0xe
 4819 071f 770F0000 		.4byte	.LASF222
 4820 0723 C601     		.sleb128 198
 4821 0725 0E       		.uleb128 0xe
 4822 0726 D9310000 		.4byte	.LASF223
 4823 072a C701     		.sleb128 199
 4824 072c 0E       		.uleb128 0xe
 4825 072d 84200000 		.4byte	.LASF224
 4826 0731 C801     		.sleb128 200
 4827 0733 0E       		.uleb128 0xe
 4828 0734 67080000 		.4byte	.LASF225
 4829 0738 C901     		.sleb128 201
 4830 073a 0E       		.uleb128 0xe
 4831 073b 083D0000 		.4byte	.LASF226
ARM GAS  C:\Users\AHMED~1.ELE\AppData\Local\Temp\ccLLYyS4.s 			page 118


 4832 073f CA01     		.sleb128 202
 4833 0741 0E       		.uleb128 0xe
 4834 0742 4B290000 		.4byte	.LASF227
 4835 0746 CB01     		.sleb128 203
 4836 0748 0E       		.uleb128 0xe
 4837 0749 5E220000 		.4byte	.LASF228
 4838 074d CC01     		.sleb128 204
 4839 074f 0E       		.uleb128 0xe
 4840 0750 1C2A0000 		.4byte	.LASF229
 4841 0754 CD01     		.sleb128 205
 4842 0756 0E       		.uleb128 0xe
 4843 0757 0B3E0000 		.4byte	.LASF230
 4844 075b CE01     		.sleb128 206
 4845 075d 0E       		.uleb128 0xe
 4846 075e 2B1B0000 		.4byte	.LASF231
 4847 0762 CF01     		.sleb128 207
 4848 0764 0E       		.uleb128 0xe
 4849 0765 7A080000 		.4byte	.LASF232
 4850 0769 D001     		.sleb128 208
 4851 076b 0E       		.uleb128 0xe
 4852 076c 7C100000 		.4byte	.LASF233
 4853 0770 D101     		.sleb128 209
 4854 0772 0E       		.uleb128 0xe
 4855 0773 C42F0000 		.4byte	.LASF234
 4856 0777 D201     		.sleb128 210
 4857 0779 0E       		.uleb128 0xe
 4858 077a C1330000 		.4byte	.LASF235
 4859 077e D301     		.sleb128 211
 4860 0780 0E       		.uleb128 0xe
 4861 0781 EC0D0000 		.4byte	.LASF236
 4862 0785 D401     		.sleb128 212
 4863 0787 0E       		.uleb128 0xe
 4864 0788 96230000 		.4byte	.LASF237
 4865 078c D501     		.sleb128 213
 4866 078e 0E       		.uleb128 0xe
 4867 078f D9030000 		.4byte	.LASF238
 4868 0793 D601     		.sleb128 214
 4869 0795 0E       		.uleb128 0xe
 4870 0796 E4290000 		.4byte	.LASF239
 4871 079a D701     		.sleb128 215
 4872 079c 0E       		.uleb128 0xe
 4873 079d 4B120000 		.4byte	.LASF240
 4874 07a1 D801     		.sleb128 216
 4875 07a3 0E       		.uleb128 0xe
 4876 07a4 102F0000 		.4byte	.LASF241
 4877 07a8 D901     		.sleb128 217
 4878 07aa 0E       		.uleb128 0xe
 4879 07ab B3350000 		.4byte	.LASF242
 4880 07af DA01     		.sleb128 218
 4881 07b1 0E       		.uleb128 0xe
 4882 07b2 84180000 		.4byte	.LASF243
 4883 07b6 DB01     		.sleb128 219
 4884 07b8 0E       		.uleb128 0xe
 4885 07b9 6D010000 		.4byte	.LASF244
 4886 07bd DC01     		.sleb128 220
 4887 07bf 0E       		.uleb128 0xe
 4888 07c0 F3360000 		.4byte	.LASF245
ARM GAS  C:\Users\AHMED~1.ELE\AppData\Local\Temp\ccLLYyS4.s 			page 119


 4889 07c4 DD01     		.sleb128 221
 4890 07c6 0E       		.uleb128 0xe
 4891 07c7 02460000 		.4byte	.LASF246
 4892 07cb DE01     		.sleb128 222
 4893 07cd 0E       		.uleb128 0xe
 4894 07ce 1E140000 		.4byte	.LASF247
 4895 07d2 DF01     		.sleb128 223
 4896 07d4 0E       		.uleb128 0xe
 4897 07d5 5A190000 		.4byte	.LASF248
 4898 07d9 E001     		.sleb128 224
 4899 07db 0E       		.uleb128 0xe
 4900 07dc FC3D0000 		.4byte	.LASF249
 4901 07e0 E101     		.sleb128 225
 4902 07e2 0E       		.uleb128 0xe
 4903 07e3 661E0000 		.4byte	.LASF250
 4904 07e7 E201     		.sleb128 226
 4905 07e9 0E       		.uleb128 0xe
 4906 07ea 7C010000 		.4byte	.LASF251
 4907 07ee E301     		.sleb128 227
 4908 07f0 0E       		.uleb128 0xe
 4909 07f1 F9000000 		.4byte	.LASF252
 4910 07f5 E401     		.sleb128 228
 4911 07f7 0E       		.uleb128 0xe
 4912 07f8 BA110000 		.4byte	.LASF253
 4913 07fc E501     		.sleb128 229
 4914 07fe 0E       		.uleb128 0xe
 4915 07ff 58070000 		.4byte	.LASF254
 4916 0803 E601     		.sleb128 230
 4917 0805 0E       		.uleb128 0xe
 4918 0806 FA190000 		.4byte	.LASF255
 4919 080a E701     		.sleb128 231
 4920 080c 0E       		.uleb128 0xe
 4921 080d F22B0000 		.4byte	.LASF256
 4922 0811 E801     		.sleb128 232
 4923 0813 0E       		.uleb128 0xe
 4924 0814 461C0000 		.4byte	.LASF257
 4925 0818 E901     		.sleb128 233
 4926 081a 0E       		.uleb128 0xe
 4927 081b 19400000 		.4byte	.LASF258
 4928 081f EA01     		.sleb128 234
 4929 0821 0E       		.uleb128 0xe
 4930 0822 29280000 		.4byte	.LASF259
 4931 0826 EB01     		.sleb128 235
 4932 0828 0E       		.uleb128 0xe
 4933 0829 FB330000 		.4byte	.LASF260
 4934 082d EC01     		.sleb128 236
 4935 082f 0E       		.uleb128 0xe
 4936 0830 1C3A0000 		.4byte	.LASF261
 4937 0834 ED01     		.sleb128 237
 4938 0836 0E       		.uleb128 0xe
 4939 0837 062C0000 		.4byte	.LASF262
 4940 083b EE01     		.sleb128 238
 4941 083d 0E       		.uleb128 0xe
 4942 083e 3F250000 		.4byte	.LASF263
 4943 0842 EF01     		.sleb128 239
 4944 0844 0E       		.uleb128 0xe
 4945 0845 E22A0000 		.4byte	.LASF264
ARM GAS  C:\Users\AHMED~1.ELE\AppData\Local\Temp\ccLLYyS4.s 			page 120


 4946 0849 F001     		.sleb128 240
 4947 084b 0E       		.uleb128 0xe
 4948 084c 481D0000 		.4byte	.LASF265
 4949 0850 F101     		.sleb128 241
 4950 0852 0E       		.uleb128 0xe
 4951 0853 1E430000 		.4byte	.LASF266
 4952 0857 F201     		.sleb128 242
 4953 0859 0E       		.uleb128 0xe
 4954 085a 38120000 		.4byte	.LASF267
 4955 085e F301     		.sleb128 243
 4956 0860 0E       		.uleb128 0xe
 4957 0861 B2210000 		.4byte	.LASF268
 4958 0865 F401     		.sleb128 244
 4959 0867 0E       		.uleb128 0xe
 4960 0868 0B330000 		.4byte	.LASF269
 4961 086c F501     		.sleb128 245
 4962 086e 0E       		.uleb128 0xe
 4963 086f DF350000 		.4byte	.LASF270
 4964 0873 F601     		.sleb128 246
 4965 0875 0E       		.uleb128 0xe
 4966 0876 402D0000 		.4byte	.LASF271
 4967 087a F701     		.sleb128 247
 4968 087c 0E       		.uleb128 0xe
 4969 087d 860D0000 		.4byte	.LASF272
 4970 0881 F801     		.sleb128 248
 4971 0883 0E       		.uleb128 0xe
 4972 0884 4F180000 		.4byte	.LASF273
 4973 0888 F901     		.sleb128 249
 4974 088a 0E       		.uleb128 0xe
 4975 088b F3390000 		.4byte	.LASF274
 4976 088f FA01     		.sleb128 250
 4977 0891 0E       		.uleb128 0xe
 4978 0892 EB1B0000 		.4byte	.LASF275
 4979 0896 FB01     		.sleb128 251
 4980 0898 0E       		.uleb128 0xe
 4981 0899 2A040000 		.4byte	.LASF276
 4982 089d FC01     		.sleb128 252
 4983 089f 0E       		.uleb128 0xe
 4984 08a0 F12A0000 		.4byte	.LASF277
 4985 08a4 FD01     		.sleb128 253
 4986 08a6 0E       		.uleb128 0xe
 4987 08a7 86360000 		.4byte	.LASF278
 4988 08ab FE01     		.sleb128 254
 4989 08ad 0E       		.uleb128 0xe
 4990 08ae C23B0000 		.4byte	.LASF279
 4991 08b2 FF01     		.sleb128 255
 4992 08b4 0E       		.uleb128 0xe
 4993 08b5 B2220000 		.4byte	.LASF280
 4994 08b9 8002     		.sleb128 256
 4995 08bb 0E       		.uleb128 0xe
 4996 08bc 6D110000 		.4byte	.LASF281
 4997 08c0 8102     		.sleb128 257
 4998 08c2 0E       		.uleb128 0xe
 4999 08c3 9B3F0000 		.4byte	.LASF282
 5000 08c7 8202     		.sleb128 258
 5001 08c9 0E       		.uleb128 0xe
 5002 08ca 6D1F0000 		.4byte	.LASF283
ARM GAS  C:\Users\AHMED~1.ELE\AppData\Local\Temp\ccLLYyS4.s 			page 121


 5003 08ce 8302     		.sleb128 259
 5004 08d0 0E       		.uleb128 0xe
 5005 08d1 0C140000 		.4byte	.LASF284
 5006 08d5 8402     		.sleb128 260
 5007 08d7 0E       		.uleb128 0xe
 5008 08d8 EF400000 		.4byte	.LASF285
 5009 08dc 8502     		.sleb128 261
 5010 08de 0E       		.uleb128 0xe
 5011 08df 0D0F0000 		.4byte	.LASF286
 5012 08e3 8602     		.sleb128 262
 5013 08e5 0E       		.uleb128 0xe
 5014 08e6 6E290000 		.4byte	.LASF287
 5015 08ea 8702     		.sleb128 263
 5016 08ec 0E       		.uleb128 0xe
 5017 08ed 691D0000 		.4byte	.LASF288
 5018 08f1 8802     		.sleb128 264
 5019 08f3 0E       		.uleb128 0xe
 5020 08f4 B4160000 		.4byte	.LASF289
 5021 08f8 8902     		.sleb128 265
 5022 08fa 0E       		.uleb128 0xe
 5023 08fb 13460000 		.4byte	.LASF290
 5024 08ff 8A02     		.sleb128 266
 5025 0901 0E       		.uleb128 0xe
 5026 0902 E3390000 		.4byte	.LASF291
 5027 0906 8B02     		.sleb128 267
 5028 0908 0E       		.uleb128 0xe
 5029 0909 12170000 		.4byte	.LASF292
 5030 090d 8C02     		.sleb128 268
 5031 090f 0E       		.uleb128 0xe
 5032 0910 5D110000 		.4byte	.LASF293
 5033 0914 8D02     		.sleb128 269
 5034 0916 0E       		.uleb128 0xe
 5035 0917 B3090000 		.4byte	.LASF294
 5036 091b 8E02     		.sleb128 270
 5037 091d 0E       		.uleb128 0xe
 5038 091e F9210000 		.4byte	.LASF295
 5039 0922 8F02     		.sleb128 271
 5040 0924 0E       		.uleb128 0xe
 5041 0925 FC2E0000 		.4byte	.LASF296
 5042 0929 9002     		.sleb128 272
 5043 092b 0E       		.uleb128 0xe
 5044 092c 5E450000 		.4byte	.LASF297
 5045 0930 9102     		.sleb128 273
 5046 0932 0E       		.uleb128 0xe
 5047 0933 621B0000 		.4byte	.LASF298
 5048 0937 9202     		.sleb128 274
 5049 0939 0E       		.uleb128 0xe
 5050 093a 9B0C0000 		.4byte	.LASF299
 5051 093e 9302     		.sleb128 275
 5052 0940 0E       		.uleb128 0xe
 5053 0941 1E010000 		.4byte	.LASF300
 5054 0945 9402     		.sleb128 276
 5055 0947 0E       		.uleb128 0xe
 5056 0948 6C270000 		.4byte	.LASF301
 5057 094c 9502     		.sleb128 277
 5058 094e 0E       		.uleb128 0xe
 5059 094f 1E2D0000 		.4byte	.LASF302
ARM GAS  C:\Users\AHMED~1.ELE\AppData\Local\Temp\ccLLYyS4.s 			page 122


 5060 0953 9602     		.sleb128 278
 5061 0955 0E       		.uleb128 0xe
 5062 0956 CC260000 		.4byte	.LASF303
 5063 095a 9702     		.sleb128 279
 5064 095c 0E       		.uleb128 0xe
 5065 095d 4F330000 		.4byte	.LASF304
 5066 0961 9802     		.sleb128 280
 5067 0963 0E       		.uleb128 0xe
 5068 0964 52300000 		.4byte	.LASF305
 5069 0968 9902     		.sleb128 281
 5070 096a 0E       		.uleb128 0xe
 5071 096b 293B0000 		.4byte	.LASF306
 5072 096f 9A02     		.sleb128 282
 5073 0971 0E       		.uleb128 0xe
 5074 0972 DE410000 		.4byte	.LASF307
 5075 0976 9B02     		.sleb128 283
 5076 0978 0E       		.uleb128 0xe
 5077 0979 6A070000 		.4byte	.LASF308
 5078 097d 9C02     		.sleb128 284
 5079 097f 0E       		.uleb128 0xe
 5080 0980 29250000 		.4byte	.LASF309
 5081 0984 9D02     		.sleb128 285
 5082 0986 0E       		.uleb128 0xe
 5083 0987 DE060000 		.4byte	.LASF310
 5084 098b 9E02     		.sleb128 286
 5085 098d 0E       		.uleb128 0xe
 5086 098e FB260000 		.4byte	.LASF311
 5087 0992 9F02     		.sleb128 287
 5088 0994 0E       		.uleb128 0xe
 5089 0995 10220000 		.4byte	.LASF312
 5090 0999 A002     		.sleb128 288
 5091 099b 0E       		.uleb128 0xe
 5092 099c 9B330000 		.4byte	.LASF313
 5093 09a0 A102     		.sleb128 289
 5094 09a2 0E       		.uleb128 0xe
 5095 09a3 37310000 		.4byte	.LASF314
 5096 09a7 A202     		.sleb128 290
 5097 09a9 0E       		.uleb128 0xe
 5098 09aa 41300000 		.4byte	.LASF315
 5099 09ae A302     		.sleb128 291
 5100 09b0 0E       		.uleb128 0xe
 5101 09b1 6A0B0000 		.4byte	.LASF316
 5102 09b5 A402     		.sleb128 292
 5103 09b7 0E       		.uleb128 0xe
 5104 09b8 D51E0000 		.4byte	.LASF317
 5105 09bc A502     		.sleb128 293
 5106 09be 0E       		.uleb128 0xe
 5107 09bf 2F0B0000 		.4byte	.LASF318
 5108 09c3 A602     		.sleb128 294
 5109 09c5 0E       		.uleb128 0xe
 5110 09c6 A8280000 		.4byte	.LASF319
 5111 09ca A702     		.sleb128 295
 5112 09cc 0E       		.uleb128 0xe
 5113 09cd FD200000 		.4byte	.LASF320
 5114 09d1 A802     		.sleb128 296
 5115 09d3 0E       		.uleb128 0xe
 5116 09d4 DA180000 		.4byte	.LASF321
ARM GAS  C:\Users\AHMED~1.ELE\AppData\Local\Temp\ccLLYyS4.s 			page 123


 5117 09d8 A902     		.sleb128 297
 5118 09da 0E       		.uleb128 0xe
 5119 09db 2D140000 		.4byte	.LASF322
 5120 09df AA02     		.sleb128 298
 5121 09e1 0E       		.uleb128 0xe
 5122 09e2 D02A0000 		.4byte	.LASF323
 5123 09e6 AB02     		.sleb128 299
 5124 09e8 0E       		.uleb128 0xe
 5125 09e9 EF370000 		.4byte	.LASF324
 5126 09ed AC02     		.sleb128 300
 5127 09ef 0E       		.uleb128 0xe
 5128 09f0 48260000 		.4byte	.LASF325
 5129 09f4 AD02     		.sleb128 301
 5130 09f6 0E       		.uleb128 0xe
 5131 09f7 E31D0000 		.4byte	.LASF326
 5132 09fb AE02     		.sleb128 302
 5133 09fd 0E       		.uleb128 0xe
 5134 09fe 75400000 		.4byte	.LASF327
 5135 0a02 AF02     		.sleb128 303
 5136 0a04 0E       		.uleb128 0xe
 5137 0a05 632A0000 		.4byte	.LASF328
 5138 0a09 B002     		.sleb128 304
 5139 0a0b 0E       		.uleb128 0xe
 5140 0a0c B13B0000 		.4byte	.LASF329
 5141 0a10 B102     		.sleb128 305
 5142 0a12 0E       		.uleb128 0xe
 5143 0a13 E23E0000 		.4byte	.LASF330
 5144 0a17 B202     		.sleb128 306
 5145 0a19 0E       		.uleb128 0xe
 5146 0a1a 6A100000 		.4byte	.LASF331
 5147 0a1e B302     		.sleb128 307
 5148 0a20 0E       		.uleb128 0xe
 5149 0a21 3C0D0000 		.4byte	.LASF332
 5150 0a25 B402     		.sleb128 308
 5151 0a27 0E       		.uleb128 0xe
 5152 0a28 3E140000 		.4byte	.LASF333
 5153 0a2c B502     		.sleb128 309
 5154 0a2e 0E       		.uleb128 0xe
 5155 0a2f BF010000 		.4byte	.LASF334
 5156 0a33 B602     		.sleb128 310
 5157 0a35 0E       		.uleb128 0xe
 5158 0a36 251C0000 		.4byte	.LASF335
 5159 0a3a B702     		.sleb128 311
 5160 0a3c 0E       		.uleb128 0xe
 5161 0a3d 1A450000 		.4byte	.LASF336
 5162 0a41 B802     		.sleb128 312
 5163 0a43 0E       		.uleb128 0xe
 5164 0a44 DD440000 		.4byte	.LASF337
 5165 0a48 B902     		.sleb128 313
 5166 0a4a 0E       		.uleb128 0xe
 5167 0a4b C63D0000 		.4byte	.LASF338
 5168 0a4f BA02     		.sleb128 314
 5169 0a51 0E       		.uleb128 0xe
 5170 0a52 3C190000 		.4byte	.LASF339
 5171 0a56 BB02     		.sleb128 315
 5172 0a58 0E       		.uleb128 0xe
 5173 0a59 4A110000 		.4byte	.LASF340
ARM GAS  C:\Users\AHMED~1.ELE\AppData\Local\Temp\ccLLYyS4.s 			page 124


 5174 0a5d BC02     		.sleb128 316
 5175 0a5f 0E       		.uleb128 0xe
 5176 0a60 5A0C0000 		.4byte	.LASF341
 5177 0a64 BD02     		.sleb128 317
 5178 0a66 0E       		.uleb128 0xe
 5179 0a67 A32C0000 		.4byte	.LASF342
 5180 0a6b BE02     		.sleb128 318
 5181 0a6d 0E       		.uleb128 0xe
 5182 0a6e 5E430000 		.4byte	.LASF343
 5183 0a72 BF02     		.sleb128 319
 5184 0a74 0E       		.uleb128 0xe
 5185 0a75 761E0000 		.4byte	.LASF344
 5186 0a79 C002     		.sleb128 320
 5187 0a7b 0E       		.uleb128 0xe
 5188 0a7c 30450000 		.4byte	.LASF345
 5189 0a80 C102     		.sleb128 321
 5190 0a82 0E       		.uleb128 0xe
 5191 0a83 D6210000 		.4byte	.LASF346
 5192 0a87 C202     		.sleb128 322
 5193 0a89 0E       		.uleb128 0xe
 5194 0a8a C5170000 		.4byte	.LASF347
 5195 0a8e C302     		.sleb128 323
 5196 0a90 0E       		.uleb128 0xe
 5197 0a91 7A3A0000 		.4byte	.LASF348
 5198 0a95 C402     		.sleb128 324
 5199 0a97 0E       		.uleb128 0xe
 5200 0a98 79430000 		.4byte	.LASF349
 5201 0a9c C502     		.sleb128 325
 5202 0a9e 0E       		.uleb128 0xe
 5203 0a9f 92370000 		.4byte	.LASF350
 5204 0aa3 C602     		.sleb128 326
 5205 0aa5 0E       		.uleb128 0xe
 5206 0aa6 F9070000 		.4byte	.LASF351
 5207 0aaa C702     		.sleb128 327
 5208 0aac 0E       		.uleb128 0xe
 5209 0aad AB150000 		.4byte	.LASF352
 5210 0ab1 C802     		.sleb128 328
 5211 0ab3 0E       		.uleb128 0xe
 5212 0ab4 7A150000 		.4byte	.LASF353
 5213 0ab8 C902     		.sleb128 329
 5214 0aba 0E       		.uleb128 0xe
 5215 0abb 13130000 		.4byte	.LASF354
 5216 0abf CA02     		.sleb128 330
 5217 0ac1 0E       		.uleb128 0xe
 5218 0ac2 D4070000 		.4byte	.LASF355
 5219 0ac6 CB02     		.sleb128 331
 5220 0ac8 0E       		.uleb128 0xe
 5221 0ac9 BF3F0000 		.4byte	.LASF356
 5222 0acd CC02     		.sleb128 332
 5223 0acf 0E       		.uleb128 0xe
 5224 0ad0 4D380000 		.4byte	.LASF357
 5225 0ad4 CD02     		.sleb128 333
 5226 0ad6 0E       		.uleb128 0xe
 5227 0ad7 67310000 		.4byte	.LASF358
 5228 0adb CE02     		.sleb128 334
 5229 0add 0E       		.uleb128 0xe
 5230 0ade 553A0000 		.4byte	.LASF359
ARM GAS  C:\Users\AHMED~1.ELE\AppData\Local\Temp\ccLLYyS4.s 			page 125


 5231 0ae2 CF02     		.sleb128 335
 5232 0ae4 0E       		.uleb128 0xe
 5233 0ae5 5F330000 		.4byte	.LASF360
 5234 0ae9 D002     		.sleb128 336
 5235 0aeb 0E       		.uleb128 0xe
 5236 0aec 951B0000 		.4byte	.LASF361
 5237 0af0 D102     		.sleb128 337
 5238 0af2 0E       		.uleb128 0xe
 5239 0af3 7E120000 		.4byte	.LASF362
 5240 0af7 D202     		.sleb128 338
 5241 0af9 0E       		.uleb128 0xe
 5242 0afa 210E0000 		.4byte	.LASF363
 5243 0afe D302     		.sleb128 339
 5244 0b00 0E       		.uleb128 0xe
 5245 0b01 5E400000 		.4byte	.LASF364
 5246 0b05 D402     		.sleb128 340
 5247 0b07 0E       		.uleb128 0xe
 5248 0b08 98130000 		.4byte	.LASF365
 5249 0b0c D502     		.sleb128 341
 5250 0b0e 0E       		.uleb128 0xe
 5251 0b0f C9460000 		.4byte	.LASF366
 5252 0b13 D602     		.sleb128 342
 5253 0b15 0E       		.uleb128 0xe
 5254 0b16 331D0000 		.4byte	.LASF367
 5255 0b1a D702     		.sleb128 343
 5256 0b1c 0E       		.uleb128 0xe
 5257 0b1d 3F1A0000 		.4byte	.LASF368
 5258 0b21 D802     		.sleb128 344
 5259 0b23 0E       		.uleb128 0xe
 5260 0b24 33400000 		.4byte	.LASF369
 5261 0b28 D902     		.sleb128 345
 5262 0b2a 0E       		.uleb128 0xe
 5263 0b2b C3300000 		.4byte	.LASF370
 5264 0b2f DA02     		.sleb128 346
 5265 0b31 0E       		.uleb128 0xe
 5266 0b32 881A0000 		.4byte	.LASF371
 5267 0b36 DB02     		.sleb128 347
 5268 0b38 0E       		.uleb128 0xe
 5269 0b39 24200000 		.4byte	.LASF372
 5270 0b3d DC02     		.sleb128 348
 5271 0b3f 0E       		.uleb128 0xe
 5272 0b40 22390000 		.4byte	.LASF373
 5273 0b44 DD02     		.sleb128 349
 5274 0b46 0E       		.uleb128 0xe
 5275 0b47 3E360000 		.4byte	.LASF374
 5276 0b4b DE02     		.sleb128 350
 5277 0b4d 0E       		.uleb128 0xe
 5278 0b4e 4E3C0000 		.4byte	.LASF375
 5279 0b52 DF02     		.sleb128 351
 5280 0b54 0E       		.uleb128 0xe
 5281 0b55 0B120000 		.4byte	.LASF376
 5282 0b59 E002     		.sleb128 352
 5283 0b5b 0E       		.uleb128 0xe
 5284 0b5c 06380000 		.4byte	.LASF377
 5285 0b60 E102     		.sleb128 353
 5286 0b62 0E       		.uleb128 0xe
 5287 0b63 16020000 		.4byte	.LASF378
ARM GAS  C:\Users\AHMED~1.ELE\AppData\Local\Temp\ccLLYyS4.s 			page 126


 5288 0b67 E202     		.sleb128 354
 5289 0b69 0E       		.uleb128 0xe
 5290 0b6a 41280000 		.4byte	.LASF379
 5291 0b6e E302     		.sleb128 355
 5292 0b70 0E       		.uleb128 0xe
 5293 0b71 24420000 		.4byte	.LASF380
 5294 0b75 E402     		.sleb128 356
 5295 0b77 0E       		.uleb128 0xe
 5296 0b78 C4050000 		.4byte	.LASF381
 5297 0b7c E502     		.sleb128 357
 5298 0b7e 0E       		.uleb128 0xe
 5299 0b7f 1B270000 		.4byte	.LASF382
 5300 0b83 E602     		.sleb128 358
 5301 0b85 0E       		.uleb128 0xe
 5302 0b86 A12A0000 		.4byte	.LASF383
 5303 0b8a E702     		.sleb128 359
 5304 0b8c 0E       		.uleb128 0xe
 5305 0b8d 1C240000 		.4byte	.LASF384
 5306 0b91 E802     		.sleb128 360
 5307 0b93 0E       		.uleb128 0xe
 5308 0b94 EB3B0000 		.4byte	.LASF385
 5309 0b98 E902     		.sleb128 361
 5310 0b9a 0E       		.uleb128 0xe
 5311 0b9b A22B0000 		.4byte	.LASF386
 5312 0b9f EA02     		.sleb128 362
 5313 0ba1 0E       		.uleb128 0xe
 5314 0ba2 FC3B0000 		.4byte	.LASF387
 5315 0ba6 EB02     		.sleb128 363
 5316 0ba8 0E       		.uleb128 0xe
 5317 0ba9 522F0000 		.4byte	.LASF388
 5318 0bad EC02     		.sleb128 364
 5319 0baf 0E       		.uleb128 0xe
 5320 0bb0 803E0000 		.4byte	.LASF389
 5321 0bb4 ED02     		.sleb128 365
 5322 0bb6 0E       		.uleb128 0xe
 5323 0bb7 E0090000 		.4byte	.LASF390
 5324 0bbb EE02     		.sleb128 366
 5325 0bbd 0E       		.uleb128 0xe
 5326 0bbe F32C0000 		.4byte	.LASF391
 5327 0bc2 EF02     		.sleb128 367
 5328 0bc4 0E       		.uleb128 0xe
 5329 0bc5 1B3B0000 		.4byte	.LASF392
 5330 0bc9 F002     		.sleb128 368
 5331 0bcb 0E       		.uleb128 0xe
 5332 0bcc 88320000 		.4byte	.LASF393
 5333 0bd0 F102     		.sleb128 369
 5334 0bd2 0E       		.uleb128 0xe
 5335 0bd3 40370000 		.4byte	.LASF394
 5336 0bd7 F202     		.sleb128 370
 5337 0bd9 0E       		.uleb128 0xe
 5338 0bda 32470000 		.4byte	.LASF395
 5339 0bde F302     		.sleb128 371
 5340 0be0 0E       		.uleb128 0xe
 5341 0be1 65090000 		.4byte	.LASF396
 5342 0be5 F402     		.sleb128 372
 5343 0be7 0E       		.uleb128 0xe
 5344 0be8 7F350000 		.4byte	.LASF397
ARM GAS  C:\Users\AHMED~1.ELE\AppData\Local\Temp\ccLLYyS4.s 			page 127


 5345 0bec F502     		.sleb128 373
 5346 0bee 0E       		.uleb128 0xe
 5347 0bef 6A210000 		.4byte	.LASF398
 5348 0bf3 F602     		.sleb128 374
 5349 0bf5 0E       		.uleb128 0xe
 5350 0bf6 8F240000 		.4byte	.LASF399
 5351 0bfa F702     		.sleb128 375
 5352 0bfc 0E       		.uleb128 0xe
 5353 0bfd 0B430000 		.4byte	.LASF400
 5354 0c01 F802     		.sleb128 376
 5355 0c03 0E       		.uleb128 0xe
 5356 0c04 3D3E0000 		.4byte	.LASF401
 5357 0c08 F902     		.sleb128 377
 5358 0c0a 0E       		.uleb128 0xe
 5359 0c0b 26020000 		.4byte	.LASF402
 5360 0c0f FA02     		.sleb128 378
 5361 0c11 0E       		.uleb128 0xe
 5362 0c12 63160000 		.4byte	.LASF403
 5363 0c16 FB02     		.sleb128 379
 5364 0c18 0E       		.uleb128 0xe
 5365 0c19 52280000 		.4byte	.LASF404
 5366 0c1d FC02     		.sleb128 380
 5367 0c1f 0E       		.uleb128 0xe
 5368 0c20 42440000 		.4byte	.LASF405
 5369 0c24 FD02     		.sleb128 381
 5370 0c26 0E       		.uleb128 0xe
 5371 0c27 90220000 		.4byte	.LASF406
 5372 0c2b FE02     		.sleb128 382
 5373 0c2d 0E       		.uleb128 0xe
 5374 0c2e BB3E0000 		.4byte	.LASF407
 5375 0c32 FF02     		.sleb128 383
 5376 0c34 0E       		.uleb128 0xe
 5377 0c35 583B0000 		.4byte	.LASF408
 5378 0c39 8003     		.sleb128 384
 5379 0c3b 0E       		.uleb128 0xe
 5380 0c3c AE440000 		.4byte	.LASF409
 5381 0c40 8103     		.sleb128 385
 5382 0c42 0E       		.uleb128 0xe
 5383 0c43 25320000 		.4byte	.LASF410
 5384 0c47 8203     		.sleb128 386
 5385 0c49 0E       		.uleb128 0xe
 5386 0c4a 3F0B0000 		.4byte	.LASF411
 5387 0c4e 8303     		.sleb128 387
 5388 0c50 0E       		.uleb128 0xe
 5389 0c51 83140000 		.4byte	.LASF412
 5390 0c55 8403     		.sleb128 388
 5391 0c57 0E       		.uleb128 0xe
 5392 0c58 F5250000 		.4byte	.LASF413
 5393 0c5c 8503     		.sleb128 389
 5394 0c5e 0E       		.uleb128 0xe
 5395 0c5f 7C440000 		.4byte	.LASF414
 5396 0c63 8603     		.sleb128 390
 5397 0c65 0E       		.uleb128 0xe
 5398 0c66 85330000 		.4byte	.LASF415
 5399 0c6a 8703     		.sleb128 391
 5400 0c6c 0E       		.uleb128 0xe
 5401 0c6d 4E050000 		.4byte	.LASF416
ARM GAS  C:\Users\AHMED~1.ELE\AppData\Local\Temp\ccLLYyS4.s 			page 128


 5402 0c71 8803     		.sleb128 392
 5403 0c73 0E       		.uleb128 0xe
 5404 0c74 3C3B0000 		.4byte	.LASF417
 5405 0c78 8903     		.sleb128 393
 5406 0c7a 0E       		.uleb128 0xe
 5407 0c7b 2D3E0000 		.4byte	.LASF418
 5408 0c7f 8A03     		.sleb128 394
 5409 0c81 0E       		.uleb128 0xe
 5410 0c82 B70B0000 		.4byte	.LASF419
 5411 0c86 8B03     		.sleb128 395
 5412 0c88 0E       		.uleb128 0xe
 5413 0c89 BA370000 		.4byte	.LASF420
 5414 0c8d 8C03     		.sleb128 396
 5415 0c8f 0E       		.uleb128 0xe
 5416 0c90 6A190000 		.4byte	.LASF421
 5417 0c94 8D03     		.sleb128 397
 5418 0c96 0E       		.uleb128 0xe
 5419 0c97 26180000 		.4byte	.LASF422
 5420 0c9b 8E03     		.sleb128 398
 5421 0c9d 0E       		.uleb128 0xe
 5422 0c9e AA190000 		.4byte	.LASF423
 5423 0ca2 8F03     		.sleb128 399
 5424 0ca4 0E       		.uleb128 0xe
 5425 0ca5 1E0F0000 		.4byte	.LASF424
 5426 0ca9 9003     		.sleb128 400
 5427 0cab 0E       		.uleb128 0xe
 5428 0cac C03A0000 		.4byte	.LASF425
 5429 0cb0 9103     		.sleb128 401
 5430 0cb2 0E       		.uleb128 0xe
 5431 0cb3 BF2D0000 		.4byte	.LASF426
 5432 0cb7 9203     		.sleb128 402
 5433 0cb9 0E       		.uleb128 0xe
 5434 0cba 14000000 		.4byte	.LASF427
 5435 0cbe 9303     		.sleb128 403
 5436 0cc0 0E       		.uleb128 0xe
 5437 0cc1 CB030000 		.4byte	.LASF428
 5438 0cc5 9403     		.sleb128 404
 5439 0cc7 0E       		.uleb128 0xe
 5440 0cc8 DC3B0000 		.4byte	.LASF429
 5441 0ccc 9503     		.sleb128 405
 5442 0cce 0E       		.uleb128 0xe
 5443 0ccf C3350000 		.4byte	.LASF430
 5444 0cd3 9603     		.sleb128 406
 5445 0cd5 0E       		.uleb128 0xe
 5446 0cd6 9A2D0000 		.4byte	.LASF431
 5447 0cda 9703     		.sleb128 407
 5448 0cdc 0E       		.uleb128 0xe
 5449 0cdd 832A0000 		.4byte	.LASF432
 5450 0ce1 9803     		.sleb128 408
 5451 0ce3 0E       		.uleb128 0xe
 5452 0ce4 26130000 		.4byte	.LASF433
 5453 0ce8 9903     		.sleb128 409
 5454 0cea 0E       		.uleb128 0xe
 5455 0ceb 03400000 		.4byte	.LASF434
 5456 0cef 9A03     		.sleb128 410
 5457 0cf1 0E       		.uleb128 0xe
 5458 0cf2 BB290000 		.4byte	.LASF435
ARM GAS  C:\Users\AHMED~1.ELE\AppData\Local\Temp\ccLLYyS4.s 			page 129


 5459 0cf6 9B03     		.sleb128 411
 5460 0cf8 0E       		.uleb128 0xe
 5461 0cf9 8B1E0000 		.4byte	.LASF436
 5462 0cfd 9C03     		.sleb128 412
 5463 0cff 0E       		.uleb128 0xe
 5464 0d00 CA420000 		.4byte	.LASF437
 5465 0d04 9D03     		.sleb128 413
 5466 0d06 0E       		.uleb128 0xe
 5467 0d07 D2410000 		.4byte	.LASF438
 5468 0d0b 9E03     		.sleb128 414
 5469 0d0d 0E       		.uleb128 0xe
 5470 0d0e 12230000 		.4byte	.LASF439
 5471 0d12 9F03     		.sleb128 415
 5472 0d14 0E       		.uleb128 0xe
 5473 0d15 E9000000 		.4byte	.LASF440
 5474 0d19 A003     		.sleb128 416
 5475 0d1b 0E       		.uleb128 0xe
 5476 0d1c 46400000 		.4byte	.LASF441
 5477 0d20 A103     		.sleb128 417
 5478 0d22 0E       		.uleb128 0xe
 5479 0d23 46030000 		.4byte	.LASF442
 5480 0d27 A203     		.sleb128 418
 5481 0d29 0E       		.uleb128 0xe
 5482 0d2a FE310000 		.4byte	.LASF443
 5483 0d2e A303     		.sleb128 419
 5484 0d30 0E       		.uleb128 0xe
 5485 0d31 83000000 		.4byte	.LASF444
 5486 0d35 A403     		.sleb128 420
 5487 0d37 0E       		.uleb128 0xe
 5488 0d38 500A0000 		.4byte	.LASF445
 5489 0d3c A503     		.sleb128 421
 5490 0d3e 0E       		.uleb128 0xe
 5491 0d3f AC180000 		.4byte	.LASF446
 5492 0d43 A603     		.sleb128 422
 5493 0d45 0E       		.uleb128 0xe
 5494 0d46 B4020000 		.4byte	.LASF447
 5495 0d4a A703     		.sleb128 423
 5496 0d4c 0E       		.uleb128 0xe
 5497 0d4d C2130000 		.4byte	.LASF448
 5498 0d51 A803     		.sleb128 424
 5499 0d53 0E       		.uleb128 0xe
 5500 0d54 00000000 		.4byte	.LASF449
 5501 0d58 A903     		.sleb128 425
 5502 0d5a 0E       		.uleb128 0xe
 5503 0d5b AE120000 		.4byte	.LASF450
 5504 0d5f AA03     		.sleb128 426
 5505 0d61 0E       		.uleb128 0xe
 5506 0d62 9C050000 		.4byte	.LASF451
 5507 0d66 AB03     		.sleb128 427
 5508 0d68 0E       		.uleb128 0xe
 5509 0d69 D1330000 		.4byte	.LASF452
 5510 0d6d AC03     		.sleb128 428
 5511 0d6f 0E       		.uleb128 0xe
 5512 0d70 B9250000 		.4byte	.LASF453
 5513 0d74 AD03     		.sleb128 429
 5514 0d76 0E       		.uleb128 0xe
 5515 0d77 D70E0000 		.4byte	.LASF454
ARM GAS  C:\Users\AHMED~1.ELE\AppData\Local\Temp\ccLLYyS4.s 			page 130


 5516 0d7b AE03     		.sleb128 430
 5517 0d7d 0E       		.uleb128 0xe
 5518 0d7e 27080000 		.4byte	.LASF455
 5519 0d82 AF03     		.sleb128 431
 5520 0d84 0E       		.uleb128 0xe
 5521 0d85 A81D0000 		.4byte	.LASF456
 5522 0d89 B003     		.sleb128 432
 5523 0d8b 0E       		.uleb128 0xe
 5524 0d8c 99250000 		.4byte	.LASF457
 5525 0d90 B103     		.sleb128 433
 5526 0d92 0E       		.uleb128 0xe
 5527 0d93 F6430000 		.4byte	.LASF458
 5528 0d97 B203     		.sleb128 434
 5529 0d99 0E       		.uleb128 0xe
 5530 0d9a FE090000 		.4byte	.LASF459
 5531 0d9e B303     		.sleb128 435
 5532 0da0 0E       		.uleb128 0xe
 5533 0da1 E4270000 		.4byte	.LASF460
 5534 0da5 B403     		.sleb128 436
 5535 0da7 0E       		.uleb128 0xe
 5536 0da8 6F000000 		.4byte	.LASF461
 5537 0dac B503     		.sleb128 437
 5538 0dae 0E       		.uleb128 0xe
 5539 0daf 61440000 		.4byte	.LASF462
 5540 0db3 B603     		.sleb128 438
 5541 0db5 0E       		.uleb128 0xe
 5542 0db6 90070000 		.4byte	.LASF463
 5543 0dba B703     		.sleb128 439
 5544 0dbc 0E       		.uleb128 0xe
 5545 0dbd 65350000 		.4byte	.LASF464
 5546 0dc1 B803     		.sleb128 440
 5547 0dc3 0E       		.uleb128 0xe
 5548 0dc4 25440000 		.4byte	.LASF465
 5549 0dc8 B903     		.sleb128 441
 5550 0dca 0E       		.uleb128 0xe
 5551 0dcb 65280000 		.4byte	.LASF466
 5552 0dcf BA03     		.sleb128 442
 5553 0dd1 0E       		.uleb128 0xe
 5554 0dd2 E3200000 		.4byte	.LASF467
 5555 0dd6 BB03     		.sleb128 443
 5556 0dd8 0E       		.uleb128 0xe
 5557 0dd9 3A020000 		.4byte	.LASF468
 5558 0ddd BC03     		.sleb128 444
 5559 0ddf 0E       		.uleb128 0xe
 5560 0de0 D3010000 		.4byte	.LASF469
 5561 0de4 BD03     		.sleb128 445
 5562 0de6 0E       		.uleb128 0xe
 5563 0de7 4F140000 		.4byte	.LASF470
 5564 0deb BE03     		.sleb128 446
 5565 0ded 0E       		.uleb128 0xe
 5566 0dee FA160000 		.4byte	.LASF471
 5567 0df2 BF03     		.sleb128 447
 5568 0df4 0E       		.uleb128 0xe
 5569 0df5 0D070000 		.4byte	.LASF472
 5570 0df9 C003     		.sleb128 448
 5571 0dfb 0E       		.uleb128 0xe
 5572 0dfc DD170000 		.4byte	.LASF473
ARM GAS  C:\Users\AHMED~1.ELE\AppData\Local\Temp\ccLLYyS4.s 			page 131


 5573 0e00 C103     		.sleb128 449
 5574 0e02 0E       		.uleb128 0xe
 5575 0e03 C1320000 		.4byte	.LASF474
 5576 0e07 C203     		.sleb128 450
 5577 0e09 0E       		.uleb128 0xe
 5578 0e0a 060E0000 		.4byte	.LASF475
 5579 0e0e C303     		.sleb128 451
 5580 0e10 0E       		.uleb128 0xe
 5581 0e11 23360000 		.4byte	.LASF476
 5582 0e15 C403     		.sleb128 452
 5583 0e17 0E       		.uleb128 0xe
 5584 0e18 871D0000 		.4byte	.LASF477
 5585 0e1c C503     		.sleb128 453
 5586 0e1e 0E       		.uleb128 0xe
 5587 0e1f 012D0000 		.4byte	.LASF478
 5588 0e23 C603     		.sleb128 454
 5589 0e25 0E       		.uleb128 0xe
 5590 0e26 4A2A0000 		.4byte	.LASF479
 5591 0e2a C703     		.sleb128 455
 5592 0e2c 0E       		.uleb128 0xe
 5593 0e2d 80460000 		.4byte	.LASF480
 5594 0e31 C803     		.sleb128 456
 5595 0e33 0E       		.uleb128 0xe
 5596 0e34 2C380000 		.4byte	.LASF481
 5597 0e38 C903     		.sleb128 457
 5598 0e3a 0E       		.uleb128 0xe
 5599 0e3b FA1B0000 		.4byte	.LASF482
 5600 0e3f CA03     		.sleb128 458
 5601 0e41 0E       		.uleb128 0xe
 5602 0e42 9C350000 		.4byte	.LASF483
 5603 0e46 CB03     		.sleb128 459
 5604 0e48 0E       		.uleb128 0xe
 5605 0e49 D3140000 		.4byte	.LASF484
 5606 0e4d CC03     		.sleb128 460
 5607 0e4f 0E       		.uleb128 0xe
 5608 0e50 09050000 		.4byte	.LASF485
 5609 0e54 CD03     		.sleb128 461
 5610 0e56 0E       		.uleb128 0xe
 5611 0e57 CC430000 		.4byte	.LASF486
 5612 0e5b CE03     		.sleb128 462
 5613 0e5d 0E       		.uleb128 0xe
 5614 0e5e CE3A0000 		.4byte	.LASF487
 5615 0e62 CF03     		.sleb128 463
 5616 0e64 0E       		.uleb128 0xe
 5617 0e65 75160000 		.4byte	.LASF488
 5618 0e69 D003     		.sleb128 464
 5619 0e6b 0E       		.uleb128 0xe
 5620 0e6c 32230000 		.4byte	.LASF489
 5621 0e70 D103     		.sleb128 465
 5622 0e72 0E       		.uleb128 0xe
 5623 0e73 F41D0000 		.4byte	.LASF490
 5624 0e77 D203     		.sleb128 466
 5625 0e79 0E       		.uleb128 0xe
 5626 0e7a 3B240000 		.4byte	.LASF491
 5627 0e7e D303     		.sleb128 467
 5628 0e80 0E       		.uleb128 0xe
 5629 0e81 A52F0000 		.4byte	.LASF492
ARM GAS  C:\Users\AHMED~1.ELE\AppData\Local\Temp\ccLLYyS4.s 			page 132


 5630 0e85 D403     		.sleb128 468
 5631 0e87 0E       		.uleb128 0xe
 5632 0e88 D1250000 		.4byte	.LASF493
 5633 0e8c D503     		.sleb128 469
 5634 0e8e 0E       		.uleb128 0xe
 5635 0e8f F1240000 		.4byte	.LASF494
 5636 0e93 D603     		.sleb128 470
 5637 0e95 0E       		.uleb128 0xe
 5638 0e96 63300000 		.4byte	.LASF495
 5639 0e9a D703     		.sleb128 471
 5640 0e9c 0E       		.uleb128 0xe
 5641 0e9d 7E220000 		.4byte	.LASF496
 5642 0ea1 D803     		.sleb128 472
 5643 0ea3 00       		.byte	0
 5644 0ea4 08       		.uleb128 0x8
 5645 0ea5 9C000000 		.4byte	0x9c
 5646 0ea9 B40E0000 		.4byte	0xeb4
 5647 0ead 09       		.uleb128 0x9
 5648 0eae 76000000 		.4byte	0x76
 5649 0eb2 06       		.byte	0x6
 5650 0eb3 00       		.byte	0
 5651 0eb4 06       		.uleb128 0x6
 5652 0eb5 04       		.byte	0x4
 5653 0eb6 BA0E0000 		.4byte	0xeba
 5654 0eba 0F       		.uleb128 0xf
 5655 0ebb 08       		.uleb128 0x8
 5656 0ebc 9C000000 		.4byte	0x9c
 5657 0ec0 CB0E0000 		.4byte	0xecb
 5658 0ec4 09       		.uleb128 0x9
 5659 0ec5 76000000 		.4byte	0x76
 5660 0ec9 05       		.byte	0x5
 5661 0eca 00       		.byte	0
 5662 0ecb 10       		.uleb128 0x10
 5663 0ecc 02       		.byte	0x2
 5664 0ecd 08       		.byte	0x8
 5665 0ece DD18     		.2byte	0x18dd
 5666 0ed0 F40E0000 		.4byte	0xef4
 5667 0ed4 0E       		.uleb128 0xe
 5668 0ed5 2F2A0000 		.4byte	.LASF497
 5669 0ed9 00       		.sleb128 0
 5670 0eda 0E       		.uleb128 0xe
 5671 0edb 8A1C0000 		.4byte	.LASF498
 5672 0edf 01       		.sleb128 1
 5673 0ee0 0E       		.uleb128 0xe
 5674 0ee1 0A0D0000 		.4byte	.LASF499
 5675 0ee5 02       		.sleb128 2
 5676 0ee6 0E       		.uleb128 0xe
 5677 0ee7 5D260000 		.4byte	.LASF500
 5678 0eeb 03       		.sleb128 3
 5679 0eec 0E       		.uleb128 0xe
 5680 0eed 3C410000 		.4byte	.LASF501
 5681 0ef1 8002     		.sleb128 256
 5682 0ef3 00       		.byte	0
 5683 0ef4 11       		.uleb128 0x11
 5684 0ef5 08       		.byte	0x8
 5685 0ef6 05       		.byte	0x5
 5686 0ef7 2B01     		.2byte	0x12b
ARM GAS  C:\Users\AHMED~1.ELE\AppData\Local\Temp\ccLLYyS4.s 			page 133


 5687 0ef9 180F0000 		.4byte	0xf18
 5688 0efd 12       		.uleb128 0x12
 5689 0efe 75420000 		.4byte	.LASF17
 5690 0f02 05       		.byte	0x5
 5691 0f03 2C01     		.2byte	0x12c
 5692 0f05 A7000000 		.4byte	0xa7
 5693 0f09 00       		.byte	0
 5694 0f0a 12       		.uleb128 0x12
 5695 0f0b E7190000 		.4byte	.LASF502
 5696 0f0f 05       		.byte	0x5
 5697 0f10 2D01     		.2byte	0x12d
 5698 0f12 E3000000 		.4byte	0xe3
 5699 0f16 04       		.byte	0x4
 5700 0f17 00       		.byte	0
 5701 0f18 13       		.uleb128 0x13
 5702 0f19 F0090000 		.4byte	.LASF503
 5703 0f1d 05       		.byte	0x5
 5704 0f1e 2E01     		.2byte	0x12e
 5705 0f20 F40E0000 		.4byte	0xef4
 5706 0f24 14       		.uleb128 0x14
 5707 0f25 1F340000 		.4byte	.LASF507
 5708 0f29 0406     		.2byte	0x604
 5709 0f2b 06       		.byte	0x6
 5710 0f2c 22       		.byte	0x22
 5711 0f2d 560F0000 		.4byte	0xf56
 5712 0f31 0B       		.uleb128 0xb
 5713 0f32 EB020000 		.4byte	.LASF504
 5714 0f36 06       		.byte	0x6
 5715 0f37 23       		.byte	0x23
 5716 0f38 9C000000 		.4byte	0x9c
 5717 0f3c 00       		.byte	0
 5718 0f3d 0B       		.uleb128 0xb
 5719 0f3e BA030000 		.4byte	.LASF505
 5720 0f42 06       		.byte	0x6
 5721 0f43 24       		.byte	0x24
 5722 0f44 9C000000 		.4byte	0x9c
 5723 0f48 01       		.byte	0x1
 5724 0f49 0B       		.uleb128 0xb
 5725 0f4a 6A0D0000 		.4byte	.LASF506
 5726 0f4e 06       		.byte	0x6
 5727 0f4f 25       		.byte	0x25
 5728 0f50 560F0000 		.4byte	0xf56
 5729 0f54 02       		.byte	0x2
 5730 0f55 00       		.byte	0
 5731 0f56 08       		.uleb128 0x8
 5732 0f57 9C000000 		.4byte	0x9c
 5733 0f5b 670F0000 		.4byte	0xf67
 5734 0f5f 15       		.uleb128 0x15
 5735 0f60 76000000 		.4byte	0x76
 5736 0f64 FF05     		.2byte	0x5ff
 5737 0f66 00       		.byte	0
 5738 0f67 16       		.uleb128 0x16
 5739 0f68 C0030000 		.4byte	.LASF508
 5740 0f6c A0       		.byte	0xa0
 5741 0f6d 07       		.byte	0x7
 5742 0f6e 3002     		.2byte	0x230
 5743 0f70 8F0F0000 		.4byte	0xf8f
ARM GAS  C:\Users\AHMED~1.ELE\AppData\Local\Temp\ccLLYyS4.s 			page 134


 5744 0f74 12       		.uleb128 0x12
 5745 0f75 96410000 		.4byte	.LASF509
 5746 0f79 07       		.byte	0x7
 5747 0f7a 3102     		.2byte	0x231
 5748 0f7c 9C000000 		.4byte	0x9c
 5749 0f80 00       		.byte	0
 5750 0f81 12       		.uleb128 0x12
 5751 0f82 6A0D0000 		.4byte	.LASF506
 5752 0f86 07       		.byte	0x7
 5753 0f87 3202     		.2byte	0x232
 5754 0f89 8F0F0000 		.4byte	0xf8f
 5755 0f8d 01       		.byte	0x1
 5756 0f8e 00       		.byte	0
 5757 0f8f 08       		.uleb128 0x8
 5758 0f90 9C000000 		.4byte	0x9c
 5759 0f94 9F0F0000 		.4byte	0xf9f
 5760 0f98 09       		.uleb128 0x9
 5761 0f99 76000000 		.4byte	0x76
 5762 0f9d 9D       		.byte	0x9d
 5763 0f9e 00       		.byte	0
 5764 0f9f 16       		.uleb128 0x16
 5765 0fa0 87370000 		.4byte	.LASF510
 5766 0fa4 54       		.byte	0x54
 5767 0fa5 07       		.byte	0x7
 5768 0fa6 3902     		.2byte	0x239
 5769 0fa8 C70F0000 		.4byte	0xfc7
 5770 0fac 12       		.uleb128 0x12
 5771 0fad 96410000 		.4byte	.LASF509
 5772 0fb1 07       		.byte	0x7
 5773 0fb2 3A02     		.2byte	0x23a
 5774 0fb4 9C000000 		.4byte	0x9c
 5775 0fb8 00       		.byte	0
 5776 0fb9 12       		.uleb128 0x12
 5777 0fba 6A0D0000 		.4byte	.LASF506
 5778 0fbe 07       		.byte	0x7
 5779 0fbf 3B02     		.2byte	0x23b
 5780 0fc1 C70F0000 		.4byte	0xfc7
 5781 0fc5 01       		.byte	0x1
 5782 0fc6 00       		.byte	0
 5783 0fc7 08       		.uleb128 0x8
 5784 0fc8 9C000000 		.4byte	0x9c
 5785 0fcc D70F0000 		.4byte	0xfd7
 5786 0fd0 09       		.uleb128 0x9
 5787 0fd1 76000000 		.4byte	0x76
 5788 0fd5 4F       		.byte	0x4f
 5789 0fd6 00       		.byte	0
 5790 0fd7 10       		.uleb128 0x10
 5791 0fd8 01       		.byte	0x1
 5792 0fd9 07       		.byte	0x7
 5793 0fda DC07     		.2byte	0x7dc
 5794 0fdc 25110000 		.4byte	0x1125
 5795 0fe0 0E       		.uleb128 0xe
 5796 0fe1 37130000 		.4byte	.LASF511
 5797 0fe5 00       		.sleb128 0
 5798 0fe6 0E       		.uleb128 0xe
 5799 0fe7 16470000 		.4byte	.LASF512
 5800 0feb 01       		.sleb128 1
ARM GAS  C:\Users\AHMED~1.ELE\AppData\Local\Temp\ccLLYyS4.s 			page 135


 5801 0fec 0E       		.uleb128 0xe
 5802 0fed 300E0000 		.4byte	.LASF513
 5803 0ff1 02       		.sleb128 2
 5804 0ff2 0E       		.uleb128 0xe
 5805 0ff3 C9400000 		.4byte	.LASF514
 5806 0ff7 03       		.sleb128 3
 5807 0ff8 0E       		.uleb128 0xe
 5808 0ff9 B8060000 		.4byte	.LASF515
 5809 0ffd 04       		.sleb128 4
 5810 0ffe 0E       		.uleb128 0xe
 5811 0fff F6090000 		.4byte	.LASF516
 5812 1003 05       		.sleb128 5
 5813 1004 0E       		.uleb128 0xe
 5814 1005 AA130000 		.4byte	.LASF517
 5815 1009 06       		.sleb128 6
 5816 100a 0E       		.uleb128 0xe
 5817 100b 96160000 		.4byte	.LASF518
 5818 100f 07       		.sleb128 7
 5819 1010 0E       		.uleb128 0xe
 5820 1011 C7210000 		.4byte	.LASF519
 5821 1015 08       		.sleb128 8
 5822 1016 0E       		.uleb128 0xe
 5823 1017 31100000 		.4byte	.LASF520
 5824 101b 09       		.sleb128 9
 5825 101c 0E       		.uleb128 0xe
 5826 101d 0E260000 		.4byte	.LASF521
 5827 1021 0A       		.sleb128 10
 5828 1022 0E       		.uleb128 0xe
 5829 1023 3D090000 		.4byte	.LASF522
 5830 1027 0B       		.sleb128 11
 5831 1028 0E       		.uleb128 0xe
 5832 1029 2F160000 		.4byte	.LASF523
 5833 102d 0C       		.sleb128 12
 5834 102e 0E       		.uleb128 0xe
 5835 102f 1B3F0000 		.4byte	.LASF524
 5836 1033 0D       		.sleb128 13
 5837 1034 0E       		.uleb128 0xe
 5838 1035 521A0000 		.4byte	.LASF525
 5839 1039 0E       		.sleb128 14
 5840 103a 0E       		.uleb128 0xe
 5841 103b 09060000 		.4byte	.LASF526
 5842 103f 0F       		.sleb128 15
 5843 1040 0E       		.uleb128 0xe
 5844 1041 1A390000 		.4byte	.LASF527
 5845 1045 10       		.sleb128 16
 5846 1046 0E       		.uleb128 0xe
 5847 1047 1D370000 		.4byte	.LASF528
 5848 104b 11       		.sleb128 17
 5849 104c 0E       		.uleb128 0xe
 5850 104d 23170000 		.4byte	.LASF529
 5851 1051 12       		.sleb128 18
 5852 1052 0E       		.uleb128 0xe
 5853 1053 BE2A0000 		.4byte	.LASF530
 5854 1057 13       		.sleb128 19
 5855 1058 0E       		.uleb128 0xe
 5856 1059 1F2F0000 		.4byte	.LASF531
 5857 105d 14       		.sleb128 20
ARM GAS  C:\Users\AHMED~1.ELE\AppData\Local\Temp\ccLLYyS4.s 			page 136


 5858 105e 0E       		.uleb128 0xe
 5859 105f EF0E0000 		.4byte	.LASF532
 5860 1063 15       		.sleb128 21
 5861 1064 0E       		.uleb128 0xe
 5862 1065 0C3B0000 		.4byte	.LASF533
 5863 1069 16       		.sleb128 22
 5864 106a 0E       		.uleb128 0xe
 5865 106b A1360000 		.4byte	.LASF534
 5866 106f 17       		.sleb128 23
 5867 1070 0E       		.uleb128 0xe
 5868 1071 3D080000 		.4byte	.LASF535
 5869 1075 18       		.sleb128 24
 5870 1076 0E       		.uleb128 0xe
 5871 1077 1F320000 		.4byte	.LASF536
 5872 107b 19       		.sleb128 25
 5873 107c 0E       		.uleb128 0xe
 5874 107d 6D390000 		.4byte	.LASF537
 5875 1081 1A       		.sleb128 26
 5876 1082 0E       		.uleb128 0xe
 5877 1083 0F1D0000 		.4byte	.LASF538
 5878 1087 1B       		.sleb128 27
 5879 1088 0E       		.uleb128 0xe
 5880 1089 4C0C0000 		.4byte	.LASF539
 5881 108d 1C       		.sleb128 28
 5882 108e 0E       		.uleb128 0xe
 5883 108f 80030000 		.4byte	.LASF540
 5884 1093 1D       		.sleb128 29
 5885 1094 0E       		.uleb128 0xe
 5886 1095 E5360000 		.4byte	.LASF541
 5887 1099 1E       		.sleb128 30
 5888 109a 0E       		.uleb128 0xe
 5889 109b D2080000 		.4byte	.LASF542
 5890 109f 1F       		.sleb128 31
 5891 10a0 0E       		.uleb128 0xe
 5892 10a1 C6410000 		.4byte	.LASF543
 5893 10a5 20       		.sleb128 32
 5894 10a6 0E       		.uleb128 0xe
 5895 10a7 C0430000 		.4byte	.LASF544
 5896 10ab 21       		.sleb128 33
 5897 10ac 0E       		.uleb128 0xe
 5898 10ad 73090000 		.4byte	.LASF545
 5899 10b1 22       		.sleb128 34
 5900 10b2 0E       		.uleb128 0xe
 5901 10b3 E21C0000 		.4byte	.LASF546
 5902 10b7 23       		.sleb128 35
 5903 10b8 0E       		.uleb128 0xe
 5904 10b9 95360000 		.4byte	.LASF547
 5905 10bd 24       		.sleb128 36
 5906 10be 0E       		.uleb128 0xe
 5907 10bf B22A0000 		.4byte	.LASF548
 5908 10c3 25       		.sleb128 37
 5909 10c4 0E       		.uleb128 0xe
 5910 10c5 83240000 		.4byte	.LASF549
 5911 10c9 26       		.sleb128 38
 5912 10ca 0E       		.uleb128 0xe
 5913 10cb D03B0000 		.4byte	.LASF550
 5914 10cf 27       		.sleb128 39
ARM GAS  C:\Users\AHMED~1.ELE\AppData\Local\Temp\ccLLYyS4.s 			page 137


 5915 10d0 0E       		.uleb128 0xe
 5916 10d1 E4080000 		.4byte	.LASF551
 5917 10d5 28       		.sleb128 40
 5918 10d6 0E       		.uleb128 0xe
 5919 10d7 EB0F0000 		.4byte	.LASF552
 5920 10db 29       		.sleb128 41
 5921 10dc 0E       		.uleb128 0xe
 5922 10dd F0260000 		.4byte	.LASF553
 5923 10e1 2A       		.sleb128 42
 5924 10e2 0E       		.uleb128 0xe
 5925 10e3 0F390000 		.4byte	.LASF554
 5926 10e7 2B       		.sleb128 43
 5927 10e8 0E       		.uleb128 0xe
 5928 10e9 0A420000 		.4byte	.LASF555
 5929 10ed 2C       		.sleb128 44
 5930 10ee 0E       		.uleb128 0xe
 5931 10ef 3F420000 		.4byte	.LASF556
 5932 10f3 2D       		.sleb128 45
 5933 10f4 0E       		.uleb128 0xe
 5934 10f5 9F100000 		.4byte	.LASF557
 5935 10f9 2E       		.sleb128 46
 5936 10fa 0E       		.uleb128 0xe
 5937 10fb AC2E0000 		.4byte	.LASF558
 5938 10ff 2F       		.sleb128 47
 5939 1100 0E       		.uleb128 0xe
 5940 1101 E83A0000 		.4byte	.LASF559
 5941 1105 30       		.sleb128 48
 5942 1106 0E       		.uleb128 0xe
 5943 1107 C6090000 		.4byte	.LASF560
 5944 110b 31       		.sleb128 49
 5945 110c 0E       		.uleb128 0xe
 5946 110d 8B060000 		.4byte	.LASF561
 5947 1111 32       		.sleb128 50
 5948 1112 0E       		.uleb128 0xe
 5949 1113 00300000 		.4byte	.LASF562
 5950 1117 33       		.sleb128 51
 5951 1118 0E       		.uleb128 0xe
 5952 1119 D5200000 		.4byte	.LASF563
 5953 111d 34       		.sleb128 52
 5954 111e 0E       		.uleb128 0xe
 5955 111f 9C190000 		.4byte	.LASF564
 5956 1123 35       		.sleb128 53
 5957 1124 00       		.byte	0
 5958 1125 17       		.uleb128 0x17
 5959 1126 01       		.byte	0x1
 5960 1127 09       		.byte	0x9
 5961 1128 40       		.byte	0x40
 5962 1129 78120000 		.4byte	0x1278
 5963 112d 0E       		.uleb128 0xe
 5964 112e CB2B0000 		.4byte	.LASF565
 5965 1132 00       		.sleb128 0
 5966 1133 0E       		.uleb128 0xe
 5967 1134 F33C0000 		.4byte	.LASF566
 5968 1138 01       		.sleb128 1
 5969 1139 0E       		.uleb128 0xe
 5970 113a 19200000 		.4byte	.LASF567
 5971 113e 02       		.sleb128 2
ARM GAS  C:\Users\AHMED~1.ELE\AppData\Local\Temp\ccLLYyS4.s 			page 138


 5972 113f 0E       		.uleb128 0xe
 5973 1140 33420000 		.4byte	.LASF568
 5974 1144 03       		.sleb128 3
 5975 1145 0E       		.uleb128 0xe
 5976 1146 BA380000 		.4byte	.LASF569
 5977 114a 04       		.sleb128 4
 5978 114b 0E       		.uleb128 0xe
 5979 114c 201E0000 		.4byte	.LASF570
 5980 1150 05       		.sleb128 5
 5981 1151 0E       		.uleb128 0xe
 5982 1152 D7290000 		.4byte	.LASF571
 5983 1156 06       		.sleb128 6
 5984 1157 0E       		.uleb128 0xe
 5985 1158 A7160000 		.4byte	.LASF572
 5986 115c 07       		.sleb128 7
 5987 115d 0E       		.uleb128 0xe
 5988 115e 79230000 		.4byte	.LASF573
 5989 1162 08       		.sleb128 8
 5990 1163 0E       		.uleb128 0xe
 5991 1164 9F1E0000 		.4byte	.LASF574
 5992 1168 09       		.sleb128 9
 5993 1169 0E       		.uleb128 0xe
 5994 116a F1410000 		.4byte	.LASF575
 5995 116e 0A       		.sleb128 10
 5996 116f 0E       		.uleb128 0xe
 5997 1170 432B0000 		.4byte	.LASF576
 5998 1174 0B       		.sleb128 11
 5999 1175 0E       		.uleb128 0xe
 6000 1176 BB460000 		.4byte	.LASF577
 6001 117a 0C       		.sleb128 12
 6002 117b 0E       		.uleb128 0xe
 6003 117c 932A0000 		.4byte	.LASF578
 6004 1180 0D       		.sleb128 13
 6005 1181 0E       		.uleb128 0xe
 6006 1182 652E0000 		.4byte	.LASF579
 6007 1186 0E       		.sleb128 14
 6008 1187 0E       		.uleb128 0xe
 6009 1188 6C410000 		.4byte	.LASF580
 6010 118c 0F       		.sleb128 15
 6011 118d 0E       		.uleb128 0xe
 6012 118e C00D0000 		.4byte	.LASF581
 6013 1192 10       		.sleb128 16
 6014 1193 0E       		.uleb128 0xe
 6015 1194 FC420000 		.4byte	.LASF582
 6016 1198 11       		.sleb128 17
 6017 1199 0E       		.uleb128 0xe
 6018 119a 63370000 		.4byte	.LASF583
 6019 119e 12       		.sleb128 18
 6020 119f 0E       		.uleb128 0xe
 6021 11a0 7B3D0000 		.4byte	.LASF584
 6022 11a4 13       		.sleb128 19
 6023 11a5 0E       		.uleb128 0xe
 6024 11a6 80280000 		.4byte	.LASF585
 6025 11aa 14       		.sleb128 20
 6026 11ab 0E       		.uleb128 0xe
 6027 11ac 733F0000 		.4byte	.LASF586
 6028 11b0 15       		.sleb128 21
ARM GAS  C:\Users\AHMED~1.ELE\AppData\Local\Temp\ccLLYyS4.s 			page 139


 6029 11b1 0E       		.uleb128 0xe
 6030 11b2 E8130000 		.4byte	.LASF587
 6031 11b6 16       		.sleb128 22
 6032 11b7 0E       		.uleb128 0xe
 6033 11b8 7F250000 		.4byte	.LASF588
 6034 11bc 17       		.sleb128 23
 6035 11bd 0E       		.uleb128 0xe
 6036 11be F6030000 		.4byte	.LASF589
 6037 11c2 18       		.sleb128 24
 6038 11c3 0E       		.uleb128 0xe
 6039 11c4 0B360000 		.4byte	.LASF590
 6040 11c8 19       		.sleb128 25
 6041 11c9 0E       		.uleb128 0xe
 6042 11ca 39170000 		.4byte	.LASF591
 6043 11ce 1A       		.sleb128 26
 6044 11cf 0E       		.uleb128 0xe
 6045 11d0 EA050000 		.4byte	.LASF592
 6046 11d4 1B       		.sleb128 27
 6047 11d5 0E       		.uleb128 0xe
 6048 11d6 66250000 		.4byte	.LASF593
 6049 11da 1C       		.sleb128 28
 6050 11db 0E       		.uleb128 0xe
 6051 11dc E4460000 		.4byte	.LASF594
 6052 11e0 1D       		.sleb128 29
 6053 11e1 0E       		.uleb128 0xe
 6054 11e2 963B0000 		.4byte	.LASF595
 6055 11e6 1E       		.sleb128 30
 6056 11e7 0E       		.uleb128 0xe
 6057 11e8 26210000 		.4byte	.LASF596
 6058 11ec 1F       		.sleb128 31
 6059 11ed 0E       		.uleb128 0xe
 6060 11ee 4E360000 		.4byte	.LASF597
 6061 11f2 20       		.sleb128 32
 6062 11f3 0E       		.uleb128 0xe
 6063 11f4 24090000 		.4byte	.LASF598
 6064 11f8 21       		.sleb128 33
 6065 11f9 0E       		.uleb128 0xe
 6066 11fa 7A310000 		.4byte	.LASF599
 6067 11fe 22       		.sleb128 34
 6068 11ff 0E       		.uleb128 0xe
 6069 1200 88190000 		.4byte	.LASF600
 6070 1204 23       		.sleb128 35
 6071 1205 0E       		.uleb128 0xe
 6072 1206 88130000 		.4byte	.LASF601
 6073 120a 24       		.sleb128 36
 6074 120b 0E       		.uleb128 0xe
 6075 120c 0D100000 		.4byte	.LASF602
 6076 1210 25       		.sleb128 37
 6077 1211 0E       		.uleb128 0xe
 6078 1212 93090000 		.4byte	.LASF603
 6079 1216 26       		.sleb128 38
 6080 1217 0E       		.uleb128 0xe
 6081 1218 19250000 		.4byte	.LASF604
 6082 121c 27       		.sleb128 39
 6083 121d 0E       		.uleb128 0xe
 6084 121e 56090000 		.4byte	.LASF605
 6085 1222 28       		.sleb128 40
ARM GAS  C:\Users\AHMED~1.ELE\AppData\Local\Temp\ccLLYyS4.s 			page 140


 6086 1223 0E       		.uleb128 0xe
 6087 1224 2A190000 		.4byte	.LASF606
 6088 1228 29       		.sleb128 41
 6089 1229 0E       		.uleb128 0xe
 6090 122a 33060000 		.4byte	.LASF607
 6091 122e 2A       		.sleb128 42
 6092 122f 0E       		.uleb128 0xe
 6093 1230 86230000 		.4byte	.LASF608
 6094 1234 2B       		.sleb128 43
 6095 1235 0E       		.uleb128 0xe
 6096 1236 5A210000 		.4byte	.LASF609
 6097 123a 2C       		.sleb128 44
 6098 123b 0E       		.uleb128 0xe
 6099 123c 76370000 		.4byte	.LASF610
 6100 1240 2D       		.sleb128 45
 6101 1241 0E       		.uleb128 0xe
 6102 1242 B2130000 		.4byte	.LASF611
 6103 1246 2E       		.sleb128 46
 6104 1247 0E       		.uleb128 0xe
 6105 1248 EE220000 		.4byte	.LASF612
 6106 124c 2F       		.sleb128 47
 6107 124d 0E       		.uleb128 0xe
 6108 124e 92310000 		.4byte	.LASF613
 6109 1252 30       		.sleb128 48
 6110 1253 0E       		.uleb128 0xe
 6111 1254 E3280000 		.4byte	.LASF614
 6112 1258 31       		.sleb128 49
 6113 1259 0E       		.uleb128 0xe
 6114 125a 1F290000 		.4byte	.LASF615
 6115 125e 32       		.sleb128 50
 6116 125f 0E       		.uleb128 0xe
 6117 1260 8A040000 		.4byte	.LASF616
 6118 1264 33       		.sleb128 51
 6119 1265 0E       		.uleb128 0xe
 6120 1266 2F2C0000 		.4byte	.LASF617
 6121 126a 34       		.sleb128 52
 6122 126b 0E       		.uleb128 0xe
 6123 126c 9A320000 		.4byte	.LASF618
 6124 1270 35       		.sleb128 53
 6125 1271 0E       		.uleb128 0xe
 6126 1272 A4090000 		.4byte	.LASF619
 6127 1276 36       		.sleb128 54
 6128 1277 00       		.byte	0
 6129 1278 18       		.uleb128 0x18
 6130 1279 14410000 		.4byte	.LASF620
 6131 127d 040C     		.2byte	0xc04
 6132 127f 09       		.byte	0x9
 6133 1280 1E01     		.2byte	0x11e
 6134 1282 A1120000 		.4byte	0x12a1
 6135 1286 12       		.uleb128 0x12
 6136 1287 75420000 		.4byte	.LASF17
 6137 128b 09       		.byte	0x9
 6138 128c 1F01     		.2byte	0x11f
 6139 128e A7000000 		.4byte	0xa7
 6140 1292 00       		.byte	0
 6141 1293 12       		.uleb128 0x12
 6142 1294 03070000 		.4byte	.LASF621
ARM GAS  C:\Users\AHMED~1.ELE\AppData\Local\Temp\ccLLYyS4.s 			page 141


 6143 1298 09       		.byte	0x9
 6144 1299 2001     		.2byte	0x120
 6145 129b A1120000 		.4byte	0x12a1
 6146 129f 02       		.byte	0x2
 6147 12a0 00       		.byte	0
 6148 12a1 08       		.uleb128 0x8
 6149 12a2 9C000000 		.4byte	0x9c
 6150 12a6 B2120000 		.4byte	0x12b2
 6151 12aa 15       		.uleb128 0x15
 6152 12ab 76000000 		.4byte	0x76
 6153 12af FF0B     		.2byte	0xbff
 6154 12b1 00       		.byte	0
 6155 12b2 18       		.uleb128 0x18
 6156 12b3 FE3C0000 		.4byte	.LASF622
 6157 12b7 7001     		.2byte	0x170
 6158 12b9 09       		.byte	0x9
 6159 12ba 6401     		.2byte	0x164
 6160 12bc CE150000 		.4byte	0x15ce
 6161 12c0 12       		.uleb128 0x12
 6162 12c1 41150000 		.4byte	.LASF623
 6163 12c5 09       		.byte	0x9
 6164 12c6 6501     		.2byte	0x165
 6165 12c8 9C000000 		.4byte	0x9c
 6166 12cc 00       		.byte	0
 6167 12cd 12       		.uleb128 0x12
 6168 12ce 89080000 		.4byte	.LASF624
 6169 12d2 09       		.byte	0x9
 6170 12d3 6601     		.2byte	0x166
 6171 12d5 9C000000 		.4byte	0x9c
 6172 12d9 01       		.byte	0x1
 6173 12da 12       		.uleb128 0x12
 6174 12db 223E0000 		.4byte	.LASF625
 6175 12df 09       		.byte	0x9
 6176 12e0 6701     		.2byte	0x167
 6177 12e2 CE150000 		.4byte	0x15ce
 6178 12e6 02       		.byte	0x2
 6179 12e7 12       		.uleb128 0x12
 6180 12e8 B33F0000 		.4byte	.LASF626
 6181 12ec 09       		.byte	0x9
 6182 12ed 6801     		.2byte	0x168
 6183 12ef 9C000000 		.4byte	0x9c
 6184 12f3 0B       		.byte	0xb
 6185 12f4 12       		.uleb128 0x12
 6186 12f5 8D010000 		.4byte	.LASF627
 6187 12f9 09       		.byte	0x9
 6188 12fa 6901     		.2byte	0x169
 6189 12fc DE150000 		.4byte	0x15de
 6190 1300 0C       		.byte	0xc
 6191 1301 12       		.uleb128 0x12
 6192 1302 663C0000 		.4byte	.LASF628
 6193 1306 09       		.byte	0x9
 6194 1307 6A01     		.2byte	0x16a
 6195 1309 9C000000 		.4byte	0x9c
 6196 130d 18       		.byte	0x18
 6197 130e 12       		.uleb128 0x12
 6198 130f 2C170000 		.4byte	.LASF629
 6199 1313 09       		.byte	0x9
ARM GAS  C:\Users\AHMED~1.ELE\AppData\Local\Temp\ccLLYyS4.s 			page 142


 6200 1314 6B01     		.2byte	0x16b
 6201 1316 9C000000 		.4byte	0x9c
 6202 131a 19       		.byte	0x19
 6203 131b 12       		.uleb128 0x12
 6204 131c 60040000 		.4byte	.LASF630
 6205 1320 09       		.byte	0x9
 6206 1321 6C01     		.2byte	0x16c
 6207 1323 DE150000 		.4byte	0x15de
 6208 1327 1A       		.byte	0x1a
 6209 1328 12       		.uleb128 0x12
 6210 1329 591D0000 		.4byte	.LASF631
 6211 132d 09       		.byte	0x9
 6212 132e 6D01     		.2byte	0x16d
 6213 1330 9C000000 		.4byte	0x9c
 6214 1334 26       		.byte	0x26
 6215 1335 12       		.uleb128 0x12
 6216 1336 DC100000 		.4byte	.LASF632
 6217 133a 09       		.byte	0x9
 6218 133b 6E01     		.2byte	0x16e
 6219 133d 9C000000 		.4byte	0x9c
 6220 1341 27       		.byte	0x27
 6221 1342 12       		.uleb128 0x12
 6222 1343 B6050000 		.4byte	.LASF633
 6223 1347 09       		.byte	0x9
 6224 1348 6F01     		.2byte	0x16f
 6225 134a 9C000000 		.4byte	0x9c
 6226 134e 28       		.byte	0x28
 6227 134f 12       		.uleb128 0x12
 6228 1350 2B2E0000 		.4byte	.LASF634
 6229 1354 09       		.byte	0x9
 6230 1355 7001     		.2byte	0x170
 6231 1357 9C000000 		.4byte	0x9c
 6232 135b 29       		.byte	0x29
 6233 135c 12       		.uleb128 0x12
 6234 135d 02370000 		.4byte	.LASF635
 6235 1361 09       		.byte	0x9
 6236 1362 7101     		.2byte	0x171
 6237 1364 E9000000 		.4byte	0xe9
 6238 1368 2A       		.byte	0x2a
 6239 1369 12       		.uleb128 0x12
 6240 136a 50020000 		.4byte	.LASF636
 6241 136e 09       		.byte	0x9
 6242 136f 7201     		.2byte	0x172
 6243 1371 77010000 		.4byte	0x177
 6244 1375 2E       		.byte	0x2e
 6245 1376 12       		.uleb128 0x12
 6246 1377 A6140000 		.4byte	.LASF637
 6247 137b 09       		.byte	0x9
 6248 137c 7301     		.2byte	0x173
 6249 137e 77010000 		.4byte	0x177
 6250 1382 31       		.byte	0x31
 6251 1383 12       		.uleb128 0x12
 6252 1384 45290000 		.4byte	.LASF638
 6253 1388 09       		.byte	0x9
 6254 1389 7401     		.2byte	0x174
 6255 138b E9000000 		.4byte	0xe9
 6256 138f 34       		.byte	0x34
ARM GAS  C:\Users\AHMED~1.ELE\AppData\Local\Temp\ccLLYyS4.s 			page 143


 6257 1390 12       		.uleb128 0x12
 6258 1391 53270000 		.4byte	.LASF639
 6259 1395 09       		.byte	0x9
 6260 1396 7501     		.2byte	0x175
 6261 1398 D3000000 		.4byte	0xd3
 6262 139c 38       		.byte	0x38
 6263 139d 12       		.uleb128 0x12
 6264 139e 62180000 		.4byte	.LASF640
 6265 13a2 09       		.byte	0x9
 6266 13a3 7601     		.2byte	0x176
 6267 13a5 D3000000 		.4byte	0xd3
 6268 13a9 3A       		.byte	0x3a
 6269 13aa 12       		.uleb128 0x12
 6270 13ab A8070000 		.4byte	.LASF641
 6271 13af 09       		.byte	0x9
 6272 13b0 7701     		.2byte	0x177
 6273 13b2 9C000000 		.4byte	0x9c
 6274 13b6 3C       		.byte	0x3c
 6275 13b7 12       		.uleb128 0x12
 6276 13b8 011D0000 		.4byte	.LASF642
 6277 13bc 09       		.byte	0x9
 6278 13bd 7801     		.2byte	0x178
 6279 13bf 9C000000 		.4byte	0x9c
 6280 13c3 3D       		.byte	0x3d
 6281 13c4 12       		.uleb128 0x12
 6282 13c5 7F070000 		.4byte	.LASF643
 6283 13c9 09       		.byte	0x9
 6284 13ca 7901     		.2byte	0x179
 6285 13cc 9C000000 		.4byte	0x9c
 6286 13d0 3E       		.byte	0x3e
 6287 13d1 12       		.uleb128 0x12
 6288 13d2 380A0000 		.4byte	.LASF644
 6289 13d6 09       		.byte	0x9
 6290 13d7 7A01     		.2byte	0x17a
 6291 13d9 A7000000 		.4byte	0xa7
 6292 13dd 40       		.byte	0x40
 6293 13de 12       		.uleb128 0x12
 6294 13df 15420000 		.4byte	.LASF645
 6295 13e3 09       		.byte	0x9
 6296 13e4 7B01     		.2byte	0x17b
 6297 13e6 A7000000 		.4byte	0xa7
 6298 13ea 42       		.byte	0x42
 6299 13eb 12       		.uleb128 0x12
 6300 13ec 761A0000 		.4byte	.LASF646
 6301 13f0 09       		.byte	0x9
 6302 13f1 7C01     		.2byte	0x17c
 6303 13f3 BD000000 		.4byte	0xbd
 6304 13f7 48       		.byte	0x48
 6305 13f8 12       		.uleb128 0x12
 6306 13f9 3E110000 		.4byte	.LASF647
 6307 13fd 09       		.byte	0x9
 6308 13fe 7D01     		.2byte	0x17d
 6309 1400 9C000000 		.4byte	0x9c
 6310 1404 50       		.byte	0x50
 6311 1405 12       		.uleb128 0x12
 6312 1406 B7450000 		.4byte	.LASF648
 6313 140a 09       		.byte	0x9
ARM GAS  C:\Users\AHMED~1.ELE\AppData\Local\Temp\ccLLYyS4.s 			page 144


 6314 140b 7E01     		.2byte	0x17e
 6315 140d 9C000000 		.4byte	0x9c
 6316 1411 51       		.byte	0x51
 6317 1412 12       		.uleb128 0x12
 6318 1413 49420000 		.4byte	.LASF649
 6319 1417 09       		.byte	0x9
 6320 1418 8001     		.2byte	0x180
 6321 141a 9C000000 		.4byte	0x9c
 6322 141e 52       		.byte	0x52
 6323 141f 12       		.uleb128 0x12
 6324 1420 0B250000 		.4byte	.LASF650
 6325 1424 09       		.byte	0x9
 6326 1425 8101     		.2byte	0x181
 6327 1427 D3000000 		.4byte	0xd3
 6328 142b 53       		.byte	0x53
 6329 142c 12       		.uleb128 0x12
 6330 142d 012A0000 		.4byte	.LASF651
 6331 1431 09       		.byte	0x9
 6332 1432 8201     		.2byte	0x182
 6333 1434 E9000000 		.4byte	0xe9
 6334 1438 55       		.byte	0x55
 6335 1439 12       		.uleb128 0x12
 6336 143a 5E360000 		.4byte	.LASF652
 6337 143e 09       		.byte	0x9
 6338 143f 8301     		.2byte	0x183
 6339 1441 BD000000 		.4byte	0xbd
 6340 1445 60       		.byte	0x60
 6341 1446 12       		.uleb128 0x12
 6342 1447 0E340000 		.4byte	.LASF653
 6343 144b 09       		.byte	0x9
 6344 144c 8401     		.2byte	0x184
 6345 144e D3000000 		.4byte	0xd3
 6346 1452 68       		.byte	0x68
 6347 1453 12       		.uleb128 0x12
 6348 1454 993C0000 		.4byte	.LASF654
 6349 1458 09       		.byte	0x9
 6350 1459 8501     		.2byte	0x185
 6351 145b E9000000 		.4byte	0xe9
 6352 145f 6A       		.byte	0x6a
 6353 1460 12       		.uleb128 0x12
 6354 1461 51040000 		.4byte	.LASF655
 6355 1465 09       		.byte	0x9
 6356 1466 8601     		.2byte	0x186
 6357 1468 BD000000 		.4byte	0xbd
 6358 146c 70       		.byte	0x70
 6359 146d 12       		.uleb128 0x12
 6360 146e 002B0000 		.4byte	.LASF656
 6361 1472 09       		.byte	0x9
 6362 1473 8701     		.2byte	0x187
 6363 1475 D3000000 		.4byte	0xd3
 6364 1479 78       		.byte	0x78
 6365 147a 12       		.uleb128 0x12
 6366 147b FA180000 		.4byte	.LASF657
 6367 147f 09       		.byte	0x9
 6368 1480 8801     		.2byte	0x188
 6369 1482 E9000000 		.4byte	0xe9
 6370 1486 7A       		.byte	0x7a
ARM GAS  C:\Users\AHMED~1.ELE\AppData\Local\Temp\ccLLYyS4.s 			page 145


 6371 1487 12       		.uleb128 0x12
 6372 1488 DC260000 		.4byte	.LASF658
 6373 148c 09       		.byte	0x9
 6374 148d 8901     		.2byte	0x189
 6375 148f BD000000 		.4byte	0xbd
 6376 1493 80       		.byte	0x80
 6377 1494 12       		.uleb128 0x12
 6378 1495 8B290000 		.4byte	.LASF659
 6379 1499 09       		.byte	0x9
 6380 149a 8A01     		.2byte	0x18a
 6381 149c D3000000 		.4byte	0xd3
 6382 14a0 88       		.byte	0x88
 6383 14a1 12       		.uleb128 0x12
 6384 14a2 02390000 		.4byte	.LASF660
 6385 14a6 09       		.byte	0x9
 6386 14a7 8B01     		.2byte	0x18b
 6387 14a9 E9000000 		.4byte	0xe9
 6388 14ad 8A       		.byte	0x8a
 6389 14ae 12       		.uleb128 0x12
 6390 14af 9D000000 		.4byte	.LASF661
 6391 14b3 09       		.byte	0x9
 6392 14b4 8C01     		.2byte	0x18c
 6393 14b6 BD000000 		.4byte	0xbd
 6394 14ba 90       		.byte	0x90
 6395 14bb 12       		.uleb128 0x12
 6396 14bc A8260000 		.4byte	.LASF662
 6397 14c0 09       		.byte	0x9
 6398 14c1 8D01     		.2byte	0x18d
 6399 14c3 D3000000 		.4byte	0xd3
 6400 14c7 98       		.byte	0x98
 6401 14c8 12       		.uleb128 0x12
 6402 14c9 7E1F0000 		.4byte	.LASF663
 6403 14cd 09       		.byte	0x9
 6404 14ce 8E01     		.2byte	0x18e
 6405 14d0 E9000000 		.4byte	0xe9
 6406 14d4 9A       		.byte	0x9a
 6407 14d5 12       		.uleb128 0x12
 6408 14d6 752E0000 		.4byte	.LASF664
 6409 14da 09       		.byte	0x9
 6410 14db 8F01     		.2byte	0x18f
 6411 14dd BD000000 		.4byte	0xbd
 6412 14e1 A0       		.byte	0xa0
 6413 14e2 12       		.uleb128 0x12
 6414 14e3 33210000 		.4byte	.LASF665
 6415 14e7 09       		.byte	0x9
 6416 14e8 9001     		.2byte	0x190
 6417 14ea A7010000 		.4byte	0x1a7
 6418 14ee A8       		.byte	0xa8
 6419 14ef 12       		.uleb128 0x12
 6420 14f0 4A3A0000 		.4byte	.LASF666
 6421 14f4 09       		.byte	0x9
 6422 14f5 9101     		.2byte	0x191
 6423 14f7 A7010000 		.4byte	0x1a7
 6424 14fb C8       		.byte	0xc8
 6425 14fc 12       		.uleb128 0x12
 6426 14fd 0F270000 		.4byte	.LASF667
 6427 1501 09       		.byte	0x9
ARM GAS  C:\Users\AHMED~1.ELE\AppData\Local\Temp\ccLLYyS4.s 			page 146


 6428 1502 9201     		.2byte	0x192
 6429 1504 A7010000 		.4byte	0x1a7
 6430 1508 E8       		.byte	0xe8
 6431 1509 19       		.uleb128 0x19
 6432 150a 87310000 		.4byte	.LASF668
 6433 150e 09       		.byte	0x9
 6434 150f 9301     		.2byte	0x193
 6435 1511 A7010000 		.4byte	0x1a7
 6436 1515 0801     		.2byte	0x108
 6437 1517 19       		.uleb128 0x19
 6438 1518 1A090000 		.4byte	.LASF669
 6439 151c 09       		.byte	0x9
 6440 151d 9401     		.2byte	0x194
 6441 151f E9000000 		.4byte	0xe9
 6442 1523 2801     		.2byte	0x128
 6443 1525 19       		.uleb128 0x19
 6444 1526 4A3F0000 		.4byte	.LASF670
 6445 152a 09       		.byte	0x9
 6446 152b 9501     		.2byte	0x195
 6447 152d D3000000 		.4byte	0xd3
 6448 1531 2C01     		.2byte	0x12c
 6449 1533 19       		.uleb128 0x19
 6450 1534 DB0A0000 		.4byte	.LASF671
 6451 1538 09       		.byte	0x9
 6452 1539 9601     		.2byte	0x196
 6453 153b EE150000 		.4byte	0x15ee
 6454 153f 2E01     		.2byte	0x12e
 6455 1541 19       		.uleb128 0x19
 6456 1542 C31E0000 		.4byte	.LASF672
 6457 1546 09       		.byte	0x9
 6458 1547 9701     		.2byte	0x197
 6459 1549 DE150000 		.4byte	0x15de
 6460 154d 4701     		.2byte	0x147
 6461 154f 19       		.uleb128 0x19
 6462 1550 6F020000 		.4byte	.LASF673
 6463 1554 09       		.byte	0x9
 6464 1555 9801     		.2byte	0x198
 6465 1557 9C000000 		.4byte	0x9c
 6466 155b 5301     		.2byte	0x153
 6467 155d 19       		.uleb128 0x19
 6468 155e 5F380000 		.4byte	.LASF674
 6469 1562 09       		.byte	0x9
 6470 1563 9901     		.2byte	0x199
 6471 1565 9C000000 		.4byte	0x9c
 6472 1569 5401     		.2byte	0x154
 6473 156b 19       		.uleb128 0x19
 6474 156c 95040000 		.4byte	.LASF675
 6475 1570 09       		.byte	0x9
 6476 1571 9A01     		.2byte	0x19a
 6477 1573 DE150000 		.4byte	0x15de
 6478 1577 5501     		.2byte	0x155
 6479 1579 19       		.uleb128 0x19
 6480 157a 1E2B0000 		.4byte	.LASF676
 6481 157e 09       		.byte	0x9
 6482 157f 9B01     		.2byte	0x19b
 6483 1581 9C000000 		.4byte	0x9c
 6484 1585 6101     		.2byte	0x161
ARM GAS  C:\Users\AHMED~1.ELE\AppData\Local\Temp\ccLLYyS4.s 			page 147


 6485 1587 19       		.uleb128 0x19
 6486 1588 B0310000 		.4byte	.LASF677
 6487 158c 09       		.byte	0x9
 6488 158d 9C01     		.2byte	0x19c
 6489 158f 9C000000 		.4byte	0x9c
 6490 1593 6201     		.2byte	0x162
 6491 1595 19       		.uleb128 0x19
 6492 1596 D0090000 		.4byte	.LASF678
 6493 159a 09       		.byte	0x9
 6494 159b 9D01     		.2byte	0x19d
 6495 159d 9C000000 		.4byte	0x9c
 6496 15a1 6301     		.2byte	0x163
 6497 15a3 19       		.uleb128 0x19
 6498 15a4 4C450000 		.4byte	.LASF679
 6499 15a8 09       		.byte	0x9
 6500 15a9 9E01     		.2byte	0x19e
 6501 15ab A7000000 		.4byte	0xa7
 6502 15af 6401     		.2byte	0x164
 6503 15b1 19       		.uleb128 0x19
 6504 15b2 860A0000 		.4byte	.LASF680
 6505 15b6 09       		.byte	0x9
 6506 15b7 9F01     		.2byte	0x19f
 6507 15b9 9C000000 		.4byte	0x9c
 6508 15bd 6601     		.2byte	0x166
 6509 15bf 19       		.uleb128 0x19
 6510 15c0 F4160000 		.4byte	.LASF681
 6511 15c4 09       		.byte	0x9
 6512 15c5 A101     		.2byte	0x1a1
 6513 15c7 B2000000 		.4byte	0xb2
 6514 15cb 6801     		.2byte	0x168
 6515 15cd 00       		.byte	0
 6516 15ce 08       		.uleb128 0x8
 6517 15cf 9C000000 		.4byte	0x9c
 6518 15d3 DE150000 		.4byte	0x15de
 6519 15d7 09       		.uleb128 0x9
 6520 15d8 76000000 		.4byte	0x76
 6521 15dc 08       		.byte	0x8
 6522 15dd 00       		.byte	0
 6523 15de 08       		.uleb128 0x8
 6524 15df 9C000000 		.4byte	0x9c
 6525 15e3 EE150000 		.4byte	0x15ee
 6526 15e7 09       		.uleb128 0x9
 6527 15e8 76000000 		.4byte	0x76
 6528 15ec 0B       		.byte	0xb
 6529 15ed 00       		.byte	0
 6530 15ee 08       		.uleb128 0x8
 6531 15ef 9C000000 		.4byte	0x9c
 6532 15f3 FE150000 		.4byte	0x15fe
 6533 15f7 09       		.uleb128 0x9
 6534 15f8 76000000 		.4byte	0x76
 6535 15fc 18       		.byte	0x18
 6536 15fd 00       		.byte	0
 6537 15fe 18       		.uleb128 0x18
 6538 15ff 93050000 		.4byte	.LASF682
 6539 1603 8801     		.2byte	0x188
 6540 1605 09       		.byte	0x9
 6541 1606 AC01     		.2byte	0x1ac
ARM GAS  C:\Users\AHMED~1.ELE\AppData\Local\Temp\ccLLYyS4.s 			page 148


 6542 1608 A6170000 		.4byte	0x17a6
 6543 160c 12       		.uleb128 0x12
 6544 160d 3F290000 		.4byte	.LASF683
 6545 1611 09       		.byte	0x9
 6546 1612 AD01     		.2byte	0x1ad
 6547 1614 9C000000 		.4byte	0x9c
 6548 1618 00       		.byte	0
 6549 1619 12       		.uleb128 0x12
 6550 161a 31370000 		.4byte	.LASF684
 6551 161e 09       		.byte	0x9
 6552 161f AE01     		.2byte	0x1ae
 6553 1621 9C000000 		.4byte	0x9c
 6554 1625 01       		.byte	0x1
 6555 1626 12       		.uleb128 0x12
 6556 1627 233F0000 		.4byte	.LASF685
 6557 162b 09       		.byte	0x9
 6558 162c AF01     		.2byte	0x1af
 6559 162e 9C000000 		.4byte	0x9c
 6560 1632 02       		.byte	0x2
 6561 1633 12       		.uleb128 0x12
 6562 1634 2B3F0000 		.4byte	.LASF686
 6563 1638 09       		.byte	0x9
 6564 1639 B001     		.2byte	0x1b0
 6565 163b 9C000000 		.4byte	0x9c
 6566 163f 03       		.byte	0x3
 6567 1640 12       		.uleb128 0x12
 6568 1641 A3310000 		.4byte	.LASF687
 6569 1645 09       		.byte	0x9
 6570 1646 B101     		.2byte	0x1b1
 6571 1648 BB0E0000 		.4byte	0xebb
 6572 164c 04       		.byte	0x4
 6573 164d 12       		.uleb128 0x12
 6574 164e C70F0000 		.4byte	.LASF688
 6575 1652 09       		.byte	0x9
 6576 1653 B201     		.2byte	0x1b2
 6577 1655 9C000000 		.4byte	0x9c
 6578 1659 0A       		.byte	0xa
 6579 165a 12       		.uleb128 0x12
 6580 165b 7A0E0000 		.4byte	.LASF689
 6581 165f 09       		.byte	0x9
 6582 1660 B301     		.2byte	0x1b3
 6583 1662 D3000000 		.4byte	0xd3
 6584 1666 0B       		.byte	0xb
 6585 1667 12       		.uleb128 0x12
 6586 1668 CE1C0000 		.4byte	.LASF690
 6587 166c 09       		.byte	0x9
 6588 166d B401     		.2byte	0x1b4
 6589 166f DE150000 		.4byte	0x15de
 6590 1673 0D       		.byte	0xd
 6591 1674 12       		.uleb128 0x12
 6592 1675 04450000 		.4byte	.LASF691
 6593 1679 09       		.byte	0x9
 6594 167a B501     		.2byte	0x1b5
 6595 167c E9000000 		.4byte	0xe9
 6596 1680 19       		.byte	0x19
 6597 1681 12       		.uleb128 0x12
 6598 1682 F2310000 		.4byte	.LASF692
ARM GAS  C:\Users\AHMED~1.ELE\AppData\Local\Temp\ccLLYyS4.s 			page 149


 6599 1686 09       		.byte	0x9
 6600 1687 B601     		.2byte	0x1b6
 6601 1689 A6170000 		.4byte	0x17a6
 6602 168d 1D       		.byte	0x1d
 6603 168e 12       		.uleb128 0x12
 6604 168f 77340000 		.4byte	.LASF693
 6605 1693 09       		.byte	0x9
 6606 1694 B701     		.2byte	0x1b7
 6607 1696 B6170000 		.4byte	0x17b6
 6608 169a 4B       		.byte	0x4b
 6609 169b 12       		.uleb128 0x12
 6610 169c A9100000 		.4byte	.LASF694
 6611 16a0 09       		.byte	0x9
 6612 16a1 B801     		.2byte	0x1b8
 6613 16a3 9C000000 		.4byte	0x9c
 6614 16a7 62       		.byte	0x62
 6615 16a8 12       		.uleb128 0x12
 6616 16a9 8F3E0000 		.4byte	.LASF695
 6617 16ad 09       		.byte	0x9
 6618 16ae B901     		.2byte	0x1b9
 6619 16b0 9C000000 		.4byte	0x9c
 6620 16b4 63       		.byte	0x63
 6621 16b5 12       		.uleb128 0x12
 6622 16b6 DB2B0000 		.4byte	.LASF696
 6623 16ba 09       		.byte	0x9
 6624 16bb BA01     		.2byte	0x1ba
 6625 16bd 9C000000 		.4byte	0x9c
 6626 16c1 64       		.byte	0x64
 6627 16c2 12       		.uleb128 0x12
 6628 16c3 333F0000 		.4byte	.LASF697
 6629 16c7 09       		.byte	0x9
 6630 16c8 BB01     		.2byte	0x1bb
 6631 16ca 9C000000 		.4byte	0x9c
 6632 16ce 65       		.byte	0x65
 6633 16cf 12       		.uleb128 0x12
 6634 16d0 80390000 		.4byte	.LASF698
 6635 16d4 09       		.byte	0x9
 6636 16d5 BC01     		.2byte	0x1bc
 6637 16d7 9C000000 		.4byte	0x9c
 6638 16db 66       		.byte	0x66
 6639 16dc 12       		.uleb128 0x12
 6640 16dd 741B0000 		.4byte	.LASF699
 6641 16e1 09       		.byte	0x9
 6642 16e2 BD01     		.2byte	0x1bd
 6643 16e4 77010000 		.4byte	0x177
 6644 16e8 67       		.byte	0x67
 6645 16e9 12       		.uleb128 0x12
 6646 16ea 56340000 		.4byte	.LASF700
 6647 16ee 09       		.byte	0x9
 6648 16ef BE01     		.2byte	0x1be
 6649 16f1 9C000000 		.4byte	0x9c
 6650 16f5 6A       		.byte	0x6a
 6651 16f6 12       		.uleb128 0x12
 6652 16f7 453D0000 		.4byte	.LASF701
 6653 16fb 09       		.byte	0x9
 6654 16fc BF01     		.2byte	0x1bf
 6655 16fe D7010000 		.4byte	0x1d7
ARM GAS  C:\Users\AHMED~1.ELE\AppData\Local\Temp\ccLLYyS4.s 			page 150


 6656 1702 6B       		.byte	0x6b
 6657 1703 12       		.uleb128 0x12
 6658 1704 7E1C0000 		.4byte	.LASF702
 6659 1708 09       		.byte	0x9
 6660 1709 C001     		.2byte	0x1c0
 6661 170b C6170000 		.4byte	0x17c6
 6662 170f 7F       		.byte	0x7f
 6663 1710 12       		.uleb128 0x12
 6664 1711 4F100000 		.4byte	.LASF703
 6665 1715 09       		.byte	0x9
 6666 1716 C101     		.2byte	0x1c1
 6667 1718 B7010000 		.4byte	0x1b7
 6668 171c 9D       		.byte	0x9d
 6669 171d 12       		.uleb128 0x12
 6670 171e AE030000 		.4byte	.LASF704
 6671 1722 09       		.byte	0x9
 6672 1723 C201     		.2byte	0x1c2
 6673 1725 B7010000 		.4byte	0x1b7
 6674 1729 AD       		.byte	0xad
 6675 172a 12       		.uleb128 0x12
 6676 172b 29030000 		.4byte	.LASF705
 6677 172f 09       		.byte	0x9
 6678 1730 C301     		.2byte	0x1c3
 6679 1732 A7010000 		.4byte	0x1a7
 6680 1736 BD       		.byte	0xbd
 6681 1737 12       		.uleb128 0x12
 6682 1738 9C410000 		.4byte	.LASF706
 6683 173c 09       		.byte	0x9
 6684 173d C401     		.2byte	0x1c4
 6685 173f A7010000 		.4byte	0x1a7
 6686 1743 DD       		.byte	0xdd
 6687 1744 12       		.uleb128 0x12
 6688 1745 E80C0000 		.4byte	.LASF707
 6689 1749 09       		.byte	0x9
 6690 174a C501     		.2byte	0x1c5
 6691 174c A7010000 		.4byte	0x1a7
 6692 1750 FD       		.byte	0xfd
 6693 1751 19       		.uleb128 0x19
 6694 1752 72030000 		.4byte	.LASF708
 6695 1756 09       		.byte	0x9
 6696 1757 C601     		.2byte	0x1c6
 6697 1759 A7010000 		.4byte	0x1a7
 6698 175d 1D01     		.2byte	0x11d
 6699 175f 19       		.uleb128 0x19
 6700 1760 75250000 		.4byte	.LASF709
 6701 1764 09       		.byte	0x9
 6702 1765 C701     		.2byte	0x1c7
 6703 1767 A7010000 		.4byte	0x1a7
 6704 176b 3D01     		.2byte	0x13d
 6705 176d 19       		.uleb128 0x19
 6706 176e 903F0000 		.4byte	.LASF710
 6707 1772 09       		.byte	0x9
 6708 1773 C801     		.2byte	0x1c8
 6709 1775 A7010000 		.4byte	0x1a7
 6710 1779 5D01     		.2byte	0x15d
 6711 177b 19       		.uleb128 0x19
 6712 177c B01B0000 		.4byte	.LASF711
ARM GAS  C:\Users\AHMED~1.ELE\AppData\Local\Temp\ccLLYyS4.s 			page 151


 6713 1780 09       		.byte	0x9
 6714 1781 C901     		.2byte	0x1c9
 6715 1783 E9000000 		.4byte	0xe9
 6716 1787 7D01     		.2byte	0x17d
 6717 1789 19       		.uleb128 0x19
 6718 178a CB200000 		.4byte	.LASF712
 6719 178e 09       		.byte	0x9
 6720 178f CA01     		.2byte	0x1ca
 6721 1791 D3000000 		.4byte	0xd3
 6722 1795 8101     		.2byte	0x181
 6723 1797 19       		.uleb128 0x19
 6724 1798 F4160000 		.4byte	.LASF681
 6725 179c 09       		.byte	0x9
 6726 179d CB01     		.2byte	0x1cb
 6727 179f A7000000 		.4byte	0xa7
 6728 17a3 8401     		.2byte	0x184
 6729 17a5 00       		.byte	0
 6730 17a6 08       		.uleb128 0x8
 6731 17a7 9C000000 		.4byte	0x9c
 6732 17ab B6170000 		.4byte	0x17b6
 6733 17af 09       		.uleb128 0x9
 6734 17b0 76000000 		.4byte	0x76
 6735 17b4 2D       		.byte	0x2d
 6736 17b5 00       		.byte	0
 6737 17b6 08       		.uleb128 0x8
 6738 17b7 9C000000 		.4byte	0x9c
 6739 17bb C6170000 		.4byte	0x17c6
 6740 17bf 09       		.uleb128 0x9
 6741 17c0 76000000 		.4byte	0x76
 6742 17c4 16       		.byte	0x16
 6743 17c5 00       		.byte	0
 6744 17c6 08       		.uleb128 0x8
 6745 17c7 9C000000 		.4byte	0x9c
 6746 17cb D6170000 		.4byte	0x17d6
 6747 17cf 09       		.uleb128 0x9
 6748 17d0 76000000 		.4byte	0x76
 6749 17d4 1D       		.byte	0x1d
 6750 17d5 00       		.byte	0
 6751 17d6 16       		.uleb128 0x16
 6752 17d7 DE2C0000 		.4byte	.LASF713
 6753 17db 24       		.byte	0x24
 6754 17dc 09       		.byte	0x9
 6755 17dd CE01     		.2byte	0x1ce
 6756 17df 3F180000 		.4byte	0x183f
 6757 17e3 12       		.uleb128 0x12
 6758 17e4 B0240000 		.4byte	.LASF714
 6759 17e8 09       		.byte	0x9
 6760 17e9 CF01     		.2byte	0x1cf
 6761 17eb 67010000 		.4byte	0x167
 6762 17ef 00       		.byte	0
 6763 17f0 12       		.uleb128 0x12
 6764 17f1 DF300000 		.4byte	.LASF715
 6765 17f5 09       		.byte	0x9
 6766 17f6 D001     		.2byte	0x1d0
 6767 17f8 67010000 		.4byte	0x167
 6768 17fc 05       		.byte	0x5
 6769 17fd 12       		.uleb128 0x12
ARM GAS  C:\Users\AHMED~1.ELE\AppData\Local\Temp\ccLLYyS4.s 			page 152


 6770 17fe D8230000 		.4byte	.LASF716
 6771 1802 09       		.byte	0x9
 6772 1803 D101     		.2byte	0x1d1
 6773 1805 9C000000 		.4byte	0x9c
 6774 1809 0A       		.byte	0xa
 6775 180a 12       		.uleb128 0x12
 6776 180b 72460000 		.4byte	.LASF717
 6777 180f 09       		.byte	0x9
 6778 1810 D201     		.2byte	0x1d2
 6779 1812 9C000000 		.4byte	0x9c
 6780 1816 0B       		.byte	0xb
 6781 1817 12       		.uleb128 0x12
 6782 1818 BB390000 		.4byte	.LASF718
 6783 181c 09       		.byte	0x9
 6784 181d D301     		.2byte	0x1d3
 6785 181f 9C000000 		.4byte	0x9c
 6786 1823 0C       		.byte	0xc
 6787 1824 12       		.uleb128 0x12
 6788 1825 7E1C0000 		.4byte	.LASF702
 6789 1829 09       		.byte	0x9
 6790 182a D401     		.2byte	0x1d4
 6791 182c D7010000 		.4byte	0x1d7
 6792 1830 0D       		.byte	0xd
 6793 1831 12       		.uleb128 0x12
 6794 1832 F4160000 		.4byte	.LASF681
 6795 1836 09       		.byte	0x9
 6796 1837 D501     		.2byte	0x1d5
 6797 1839 A7000000 		.4byte	0xa7
 6798 183d 22       		.byte	0x22
 6799 183e 00       		.byte	0
 6800 183f 16       		.uleb128 0x16
 6801 1840 882F0000 		.4byte	.LASF719
 6802 1844 38       		.byte	0x38
 6803 1845 09       		.byte	0x9
 6804 1846 D801     		.2byte	0x1d8
 6805 1848 C2180000 		.4byte	0x18c2
 6806 184c 12       		.uleb128 0x12
 6807 184d 3C150000 		.4byte	.LASF720
 6808 1851 09       		.byte	0x9
 6809 1852 D901     		.2byte	0x1d9
 6810 1854 9C000000 		.4byte	0x9c
 6811 1858 00       		.byte	0
 6812 1859 12       		.uleb128 0x12
 6813 185a F41F0000 		.4byte	.LASF721
 6814 185e 09       		.byte	0x9
 6815 185f DA01     		.2byte	0x1da
 6816 1861 97010000 		.4byte	0x197
 6817 1865 01       		.byte	0x1
 6818 1866 12       		.uleb128 0x12
 6819 1867 8D030000 		.4byte	.LASF722
 6820 186b 09       		.byte	0x9
 6821 186c DB01     		.2byte	0x1db
 6822 186e DE150000 		.4byte	0x15de
 6823 1872 0B       		.byte	0xb
 6824 1873 12       		.uleb128 0x12
 6825 1874 04450000 		.4byte	.LASF691
 6826 1878 09       		.byte	0x9
ARM GAS  C:\Users\AHMED~1.ELE\AppData\Local\Temp\ccLLYyS4.s 			page 153


 6827 1879 DC01     		.2byte	0x1dc
 6828 187b E9000000 		.4byte	0xe9
 6829 187f 17       		.byte	0x17
 6830 1880 12       		.uleb128 0x12
 6831 1881 6A040000 		.4byte	.LASF723
 6832 1885 09       		.byte	0x9
 6833 1886 DD01     		.2byte	0x1dd
 6834 1888 9C000000 		.4byte	0x9c
 6835 188c 1B       		.byte	0x1b
 6836 188d 12       		.uleb128 0x12
 6837 188e 50060000 		.4byte	.LASF724
 6838 1892 09       		.byte	0x9
 6839 1893 DE01     		.2byte	0x1de
 6840 1895 D3000000 		.4byte	0xd3
 6841 1899 1C       		.byte	0x1c
 6842 189a 12       		.uleb128 0x12
 6843 189b 813F0000 		.4byte	.LASF725
 6844 189f 09       		.byte	0x9
 6845 18a0 DF01     		.2byte	0x1df
 6846 18a2 D3000000 		.4byte	0xd3
 6847 18a6 1E       		.byte	0x1e
 6848 18a7 12       		.uleb128 0x12
 6849 18a8 7E1C0000 		.4byte	.LASF702
 6850 18ac 09       		.byte	0x9
 6851 18ad E001     		.2byte	0x1e0
 6852 18af D7010000 		.4byte	0x1d7
 6853 18b3 20       		.byte	0x20
 6854 18b4 12       		.uleb128 0x12
 6855 18b5 F4160000 		.4byte	.LASF681
 6856 18b9 09       		.byte	0x9
 6857 18ba E101     		.2byte	0x1e1
 6858 18bc A7000000 		.4byte	0xa7
 6859 18c0 34       		.byte	0x34
 6860 18c1 00       		.byte	0
 6861 18c2 16       		.uleb128 0x16
 6862 18c3 34300000 		.4byte	.LASF726
 6863 18c7 AC       		.byte	0xac
 6864 18c8 09       		.byte	0x9
 6865 18c9 EC01     		.2byte	0x1ec
 6866 18cb 8A1A0000 		.4byte	0x1a8a
 6867 18cf 12       		.uleb128 0x12
 6868 18d0 3C150000 		.4byte	.LASF720
 6869 18d4 09       		.byte	0x9
 6870 18d5 ED01     		.2byte	0x1ed
 6871 18d7 9C000000 		.4byte	0x9c
 6872 18db 00       		.byte	0
 6873 18dc 12       		.uleb128 0x12
 6874 18dd A83C0000 		.4byte	.LASF727
 6875 18e1 09       		.byte	0x9
 6876 18e2 EE01     		.2byte	0x1ee
 6877 18e4 97010000 		.4byte	0x197
 6878 18e8 01       		.byte	0x1
 6879 18e9 12       		.uleb128 0x12
 6880 18ea F21C0000 		.4byte	.LASF728
 6881 18ee 09       		.byte	0x9
 6882 18ef EF01     		.2byte	0x1ef
 6883 18f1 97010000 		.4byte	0x197
ARM GAS  C:\Users\AHMED~1.ELE\AppData\Local\Temp\ccLLYyS4.s 			page 154


 6884 18f5 0B       		.byte	0xb
 6885 18f6 12       		.uleb128 0x12
 6886 18f7 E72D0000 		.4byte	.LASF729
 6887 18fb 09       		.byte	0x9
 6888 18fc F001     		.2byte	0x1f0
 6889 18fe DE150000 		.4byte	0x15de
 6890 1902 15       		.byte	0x15
 6891 1903 12       		.uleb128 0x12
 6892 1904 C0120000 		.4byte	.LASF730
 6893 1908 09       		.byte	0x9
 6894 1909 F101     		.2byte	0x1f1
 6895 190b 9C000000 		.4byte	0x9c
 6896 190f 21       		.byte	0x21
 6897 1910 12       		.uleb128 0x12
 6898 1911 341E0000 		.4byte	.LASF731
 6899 1915 09       		.byte	0x9
 6900 1916 F201     		.2byte	0x1f2
 6901 1918 9C000000 		.4byte	0x9c
 6902 191c 22       		.byte	0x22
 6903 191d 12       		.uleb128 0x12
 6904 191e F4100000 		.4byte	.LASF732
 6905 1922 09       		.byte	0x9
 6906 1923 F301     		.2byte	0x1f3
 6907 1925 DE150000 		.4byte	0x15de
 6908 1929 23       		.byte	0x23
 6909 192a 12       		.uleb128 0x12
 6910 192b F5280000 		.4byte	.LASF733
 6911 192f 09       		.byte	0x9
 6912 1930 F401     		.2byte	0x1f4
 6913 1932 9C000000 		.4byte	0x9c
 6914 1936 2F       		.byte	0x2f
 6915 1937 12       		.uleb128 0x12
 6916 1938 D8020000 		.4byte	.LASF734
 6917 193c 09       		.byte	0x9
 6918 193d F501     		.2byte	0x1f5
 6919 193f 9C000000 		.4byte	0x9c
 6920 1943 30       		.byte	0x30
 6921 1944 12       		.uleb128 0x12
 6922 1945 C6020000 		.4byte	.LASF735
 6923 1949 09       		.byte	0x9
 6924 194a F601     		.2byte	0x1f6
 6925 194c DE150000 		.4byte	0x15de
 6926 1950 31       		.byte	0x31
 6927 1951 12       		.uleb128 0x12
 6928 1952 08320000 		.4byte	.LASF736
 6929 1956 09       		.byte	0x9
 6930 1957 F701     		.2byte	0x1f7
 6931 1959 9C000000 		.4byte	0x9c
 6932 195d 3D       		.byte	0x3d
 6933 195e 12       		.uleb128 0x12
 6934 195f A03A0000 		.4byte	.LASF737
 6935 1963 09       		.byte	0x9
 6936 1964 F801     		.2byte	0x1f8
 6937 1966 9C000000 		.4byte	0x9c
 6938 196a 3E       		.byte	0x3e
 6939 196b 12       		.uleb128 0x12
 6940 196c C6160000 		.4byte	.LASF738
ARM GAS  C:\Users\AHMED~1.ELE\AppData\Local\Temp\ccLLYyS4.s 			page 155


 6941 1970 09       		.byte	0x9
 6942 1971 F901     		.2byte	0x1f9
 6943 1973 DE150000 		.4byte	0x15de
 6944 1977 3F       		.byte	0x3f
 6945 1978 12       		.uleb128 0x12
 6946 1979 15150000 		.4byte	.LASF739
 6947 197d 09       		.byte	0x9
 6948 197e FA01     		.2byte	0x1fa
 6949 1980 9C000000 		.4byte	0x9c
 6950 1984 4B       		.byte	0x4b
 6951 1985 12       		.uleb128 0x12
 6952 1986 D0270000 		.4byte	.LASF740
 6953 198a 09       		.byte	0x9
 6954 198b FB01     		.2byte	0x1fb
 6955 198d 9C000000 		.4byte	0x9c
 6956 1991 4C       		.byte	0x4c
 6957 1992 12       		.uleb128 0x12
 6958 1993 0E1B0000 		.4byte	.LASF741
 6959 1997 09       		.byte	0x9
 6960 1998 FC01     		.2byte	0x1fc
 6961 199a 9C000000 		.4byte	0x9c
 6962 199e 4D       		.byte	0x4d
 6963 199f 12       		.uleb128 0x12
 6964 19a0 04450000 		.4byte	.LASF691
 6965 19a4 09       		.byte	0x9
 6966 19a5 FD01     		.2byte	0x1fd
 6967 19a7 E9000000 		.4byte	0xe9
 6968 19ab 4E       		.byte	0x4e
 6969 19ac 12       		.uleb128 0x12
 6970 19ad E42E0000 		.4byte	.LASF742
 6971 19b1 09       		.byte	0x9
 6972 19b2 FE01     		.2byte	0x1fe
 6973 19b4 D3000000 		.4byte	0xd3
 6974 19b8 52       		.byte	0x52
 6975 19b9 12       		.uleb128 0x12
 6976 19ba 223E0000 		.4byte	.LASF625
 6977 19be 09       		.byte	0x9
 6978 19bf FF01     		.2byte	0x1ff
 6979 19c1 C7010000 		.4byte	0x1c7
 6980 19c5 54       		.byte	0x54
 6981 19c6 12       		.uleb128 0x12
 6982 19c7 D32F0000 		.4byte	.LASF743
 6983 19cb 09       		.byte	0x9
 6984 19cc 0002     		.2byte	0x200
 6985 19ce 8A1A0000 		.4byte	0x1a8a
 6986 19d2 5C       		.byte	0x5c
 6987 19d3 12       		.uleb128 0x12
 6988 19d4 210B0000 		.4byte	.LASF744
 6989 19d8 09       		.byte	0x9
 6990 19d9 0102     		.2byte	0x201
 6991 19db 9C000000 		.4byte	0x9c
 6992 19df 6B       		.byte	0x6b
 6993 19e0 12       		.uleb128 0x12
 6994 19e1 49210000 		.4byte	.LASF745
 6995 19e5 09       		.byte	0x9
 6996 19e6 0202     		.2byte	0x202
 6997 19e8 77010000 		.4byte	0x177
ARM GAS  C:\Users\AHMED~1.ELE\AppData\Local\Temp\ccLLYyS4.s 			page 156


 6998 19ec 6C       		.byte	0x6c
 6999 19ed 12       		.uleb128 0x12
 7000 19ee 5B270000 		.4byte	.LASF746
 7001 19f2 09       		.byte	0x9
 7002 19f3 0302     		.2byte	0x203
 7003 19f5 77010000 		.4byte	0x177
 7004 19f9 6F       		.byte	0x6f
 7005 19fa 12       		.uleb128 0x12
 7006 19fb A7060000 		.4byte	.LASF747
 7007 19ff 09       		.byte	0x9
 7008 1a00 0402     		.2byte	0x204
 7009 1a02 B6170000 		.4byte	0x17b6
 7010 1a06 72       		.byte	0x72
 7011 1a07 12       		.uleb128 0x12
 7012 1a08 5C120000 		.4byte	.LASF748
 7013 1a0c 09       		.byte	0x9
 7014 1a0d 0502     		.2byte	0x205
 7015 1a0f 9C000000 		.4byte	0x9c
 7016 1a13 89       		.byte	0x89
 7017 1a14 12       		.uleb128 0x12
 7018 1a15 7E1C0000 		.4byte	.LASF702
 7019 1a19 09       		.byte	0x9
 7020 1a1a 0602     		.2byte	0x206
 7021 1a1c 9A1A0000 		.4byte	0x1a9a
 7022 1a20 8A       		.byte	0x8a
 7023 1a21 12       		.uleb128 0x12
 7024 1a22 F5230000 		.4byte	.LASF749
 7025 1a26 09       		.byte	0x9
 7026 1a27 0702     		.2byte	0x207
 7027 1a29 9C000000 		.4byte	0x9c
 7028 1a2d 9F       		.byte	0x9f
 7029 1a2e 12       		.uleb128 0x12
 7030 1a2f 643E0000 		.4byte	.LASF750
 7031 1a33 09       		.byte	0x9
 7032 1a34 0802     		.2byte	0x208
 7033 1a36 9C000000 		.4byte	0x9c
 7034 1a3a A0       		.byte	0xa0
 7035 1a3b 12       		.uleb128 0x12
 7036 1a3c 27340000 		.4byte	.LASF751
 7037 1a40 09       		.byte	0x9
 7038 1a41 0902     		.2byte	0x209
 7039 1a43 9C000000 		.4byte	0x9c
 7040 1a47 A1       		.byte	0xa1
 7041 1a48 12       		.uleb128 0x12
 7042 1a49 45290000 		.4byte	.LASF638
 7043 1a4d 09       		.byte	0x9
 7044 1a4e 0A02     		.2byte	0x20a
 7045 1a50 E9000000 		.4byte	0xe9
 7046 1a54 A2       		.byte	0xa2
 7047 1a55 12       		.uleb128 0x12
 7048 1a56 53270000 		.4byte	.LASF639
 7049 1a5a 09       		.byte	0x9
 7050 1a5b 0B02     		.2byte	0x20b
 7051 1a5d D3000000 		.4byte	0xd3
 7052 1a61 A6       		.byte	0xa6
 7053 1a62 12       		.uleb128 0x12
 7054 1a63 392F0000 		.4byte	.LASF752
ARM GAS  C:\Users\AHMED~1.ELE\AppData\Local\Temp\ccLLYyS4.s 			page 157


 7055 1a67 09       		.byte	0x9
 7056 1a68 0C02     		.2byte	0x20c
 7057 1a6a 9C000000 		.4byte	0x9c
 7058 1a6e A8       		.byte	0xa8
 7059 1a6f 12       		.uleb128 0x12
 7060 1a70 E2040000 		.4byte	.LASF753
 7061 1a74 09       		.byte	0x9
 7062 1a75 0D02     		.2byte	0x20d
 7063 1a77 9C000000 		.4byte	0x9c
 7064 1a7b A9       		.byte	0xa9
 7065 1a7c 12       		.uleb128 0x12
 7066 1a7d F4160000 		.4byte	.LASF681
 7067 1a81 09       		.byte	0x9
 7068 1a82 0E02     		.2byte	0x20e
 7069 1a84 A7000000 		.4byte	0xa7
 7070 1a88 AA       		.byte	0xaa
 7071 1a89 00       		.byte	0
 7072 1a8a 08       		.uleb128 0x8
 7073 1a8b 9C000000 		.4byte	0x9c
 7074 1a8f 9A1A0000 		.4byte	0x1a9a
 7075 1a93 09       		.uleb128 0x9
 7076 1a94 76000000 		.4byte	0x76
 7077 1a98 0E       		.byte	0xe
 7078 1a99 00       		.byte	0
 7079 1a9a 08       		.uleb128 0x8
 7080 1a9b 9C000000 		.4byte	0x9c
 7081 1a9f AA1A0000 		.4byte	0x1aaa
 7082 1aa3 09       		.uleb128 0x9
 7083 1aa4 76000000 		.4byte	0x76
 7084 1aa8 14       		.byte	0x14
 7085 1aa9 00       		.byte	0
 7086 1aaa 16       		.uleb128 0x16
 7087 1aab 46330000 		.4byte	.LASF754
 7088 1aaf 1C       		.byte	0x1c
 7089 1ab0 09       		.byte	0x9
 7090 1ab1 1102     		.2byte	0x211
 7091 1ab3 EC1A0000 		.4byte	0x1aec
 7092 1ab7 12       		.uleb128 0x12
 7093 1ab8 081B0000 		.4byte	.LASF755
 7094 1abc 09       		.byte	0x9
 7095 1abd 1202     		.2byte	0x212
 7096 1abf 9C000000 		.4byte	0x9c
 7097 1ac3 00       		.byte	0
 7098 1ac4 12       		.uleb128 0x12
 7099 1ac5 53370000 		.4byte	.LASF756
 7100 1ac9 09       		.byte	0x9
 7101 1aca 1302     		.2byte	0x213
 7102 1acc D3000000 		.4byte	0xd3
 7103 1ad0 01       		.byte	0x1
 7104 1ad1 12       		.uleb128 0x12
 7105 1ad2 53010000 		.4byte	.LASF757
 7106 1ad6 09       		.byte	0x9
 7107 1ad7 1402     		.2byte	0x214
 7108 1ad9 D7010000 		.4byte	0x1d7
 7109 1add 03       		.byte	0x3
 7110 1ade 12       		.uleb128 0x12
 7111 1adf F4160000 		.4byte	.LASF681
ARM GAS  C:\Users\AHMED~1.ELE\AppData\Local\Temp\ccLLYyS4.s 			page 158


 7112 1ae3 09       		.byte	0x9
 7113 1ae4 1502     		.2byte	0x215
 7114 1ae6 A7000000 		.4byte	0xa7
 7115 1aea 18       		.byte	0x18
 7116 1aeb 00       		.byte	0
 7117 1aec 1A       		.uleb128 0x1a
 7118 1aed EA3C0000 		.4byte	.LASF758
 7119 1af1 08       		.byte	0x8
 7120 1af2 0A       		.byte	0xa
 7121 1af3 3A       		.byte	0x3a
 7122 1af4 4D1B0000 		.4byte	0x1b4d
 7123 1af8 0B       		.uleb128 0xb
 7124 1af9 0B150000 		.4byte	.LASF759
 7125 1afd 0A       		.byte	0xa
 7126 1afe 3B       		.byte	0x3b
 7127 1aff 9C000000 		.4byte	0x9c
 7128 1b03 00       		.byte	0
 7129 1b04 0B       		.uleb128 0xb
 7130 1b05 DC280000 		.4byte	.LASF760
 7131 1b09 0A       		.byte	0xa
 7132 1b0a 3C       		.byte	0x3c
 7133 1b0b 9C000000 		.4byte	0x9c
 7134 1b0f 01       		.byte	0x1
 7135 1b10 0B       		.uleb128 0xb
 7136 1b11 96460000 		.4byte	.LASF761
 7137 1b15 0A       		.byte	0xa
 7138 1b16 3D       		.byte	0x3d
 7139 1b17 9C000000 		.4byte	0x9c
 7140 1b1b 02       		.byte	0x2
 7141 1b1c 0B       		.uleb128 0xb
 7142 1b1d A6230000 		.4byte	.LASF762
 7143 1b21 0A       		.byte	0xa
 7144 1b22 3E       		.byte	0x3e
 7145 1b23 9C000000 		.4byte	0x9c
 7146 1b27 03       		.byte	0x3
 7147 1b28 0B       		.uleb128 0xb
 7148 1b29 5B010000 		.4byte	.LASF763
 7149 1b2d 0A       		.byte	0xa
 7150 1b2e 3F       		.byte	0x3f
 7151 1b2f 9C000000 		.4byte	0x9c
 7152 1b33 04       		.byte	0x4
 7153 1b34 0B       		.uleb128 0xb
 7154 1b35 3A000000 		.4byte	.LASF764
 7155 1b39 0A       		.byte	0xa
 7156 1b3a 40       		.byte	0x40
 7157 1b3b 9C000000 		.4byte	0x9c
 7158 1b3f 05       		.byte	0x5
 7159 1b40 0B       		.uleb128 0xb
 7160 1b41 4A010000 		.4byte	.LASF765
 7161 1b45 0A       		.byte	0xa
 7162 1b46 41       		.byte	0x41
 7163 1b47 9C000000 		.4byte	0x9c
 7164 1b4b 06       		.byte	0x6
 7165 1b4c 00       		.byte	0
 7166 1b4d 14       		.uleb128 0x14
 7167 1b4e BD410000 		.4byte	.LASF766
 7168 1b52 7401     		.2byte	0x174
ARM GAS  C:\Users\AHMED~1.ELE\AppData\Local\Temp\ccLLYyS4.s 			page 159


 7169 1b54 0B       		.byte	0xb
 7170 1b55 5B       		.byte	0x5b
 7171 1b56 BB1B0000 		.4byte	0x1bbb
 7172 1b5a 0B       		.uleb128 0xb
 7173 1b5b E92B0000 		.4byte	.LASF767
 7174 1b5f 0B       		.byte	0xb
 7175 1b60 5C       		.byte	0x5c
 7176 1b61 B7010000 		.4byte	0x1b7
 7177 1b65 00       		.byte	0
 7178 1b66 0B       		.uleb128 0xb
 7179 1b67 99020000 		.4byte	.LASF768
 7180 1b6b 0B       		.byte	0xb
 7181 1b6c 5D       		.byte	0x5d
 7182 1b6d 9C000000 		.4byte	0x9c
 7183 1b71 10       		.byte	0x10
 7184 1b72 0B       		.uleb128 0xb
 7185 1b73 EE250000 		.4byte	.LASF769
 7186 1b77 0B       		.byte	0xb
 7187 1b78 5E       		.byte	0x5e
 7188 1b79 A40E0000 		.4byte	0xea4
 7189 1b7d 11       		.byte	0x11
 7190 1b7e 0B       		.uleb128 0xb
 7191 1b7f B60D0000 		.4byte	.LASF770
 7192 1b83 0B       		.byte	0xb
 7193 1b84 5F       		.byte	0x5f
 7194 1b85 67010000 		.4byte	0x167
 7195 1b89 18       		.byte	0x18
 7196 1b8a 0B       		.uleb128 0xb
 7197 1b8b FC0D0000 		.4byte	.LASF771
 7198 1b8f 0B       		.byte	0xb
 7199 1b90 60       		.byte	0x60
 7200 1b91 D3000000 		.4byte	0xd3
 7201 1b95 1D       		.byte	0x1d
 7202 1b96 0B       		.uleb128 0xb
 7203 1b97 0D200000 		.4byte	.LASF772
 7204 1b9b 0B       		.byte	0xb
 7205 1b9c 61       		.byte	0x61
 7206 1b9d C7010000 		.4byte	0x1c7
 7207 1ba1 1F       		.byte	0x1f
 7208 1ba2 0B       		.uleb128 0xb
 7209 1ba3 45060000 		.4byte	.LASF773
 7210 1ba7 0B       		.byte	0xb
 7211 1ba8 62       		.byte	0x62
 7212 1ba9 A7000000 		.4byte	0xa7
 7213 1bad 28       		.byte	0x28
 7214 1bae 0B       		.uleb128 0xb
 7215 1baf C53C0000 		.4byte	.LASF774
 7216 1bb3 0B       		.byte	0xb
 7217 1bb4 63       		.byte	0x63
 7218 1bb5 BB1B0000 		.4byte	0x1bbb
 7219 1bb9 2A       		.byte	0x2a
 7220 1bba 00       		.byte	0
 7221 1bbb 08       		.uleb128 0x8
 7222 1bbc 9C000000 		.4byte	0x9c
 7223 1bc0 CC1B0000 		.4byte	0x1bcc
 7224 1bc4 15       		.uleb128 0x15
 7225 1bc5 76000000 		.4byte	0x76
ARM GAS  C:\Users\AHMED~1.ELE\AppData\Local\Temp\ccLLYyS4.s 			page 160


 7226 1bc9 4901     		.2byte	0x149
 7227 1bcb 00       		.byte	0
 7228 1bcc 14       		.uleb128 0x14
 7229 1bcd AC450000 		.4byte	.LASF775
 7230 1bd1 0002     		.2byte	0x200
 7231 1bd3 0B       		.byte	0xb
 7232 1bd4 66       		.byte	0x66
 7233 1bd5 FB1C0000 		.4byte	0x1cfb
 7234 1bd9 0B       		.uleb128 0xb
 7235 1bda A6030000 		.4byte	.LASF776
 7236 1bde 0B       		.byte	0xb
 7237 1bdf 67       		.byte	0x67
 7238 1be0 9C000000 		.4byte	0x9c
 7239 1be4 00       		.byte	0
 7240 1be5 0B       		.uleb128 0xb
 7241 1be6 AC230000 		.4byte	.LASF777
 7242 1bea 0B       		.byte	0xb
 7243 1beb 67       		.byte	0x67
 7244 1bec 9C000000 		.4byte	0x9c
 7245 1bf0 01       		.byte	0x1
 7246 1bf1 0B       		.uleb128 0xb
 7247 1bf2 50020000 		.4byte	.LASF636
 7248 1bf6 0B       		.byte	0xb
 7249 1bf7 67       		.byte	0x67
 7250 1bf8 77010000 		.4byte	0x177
 7251 1bfc 02       		.byte	0x2
 7252 1bfd 0B       		.uleb128 0xb
 7253 1bfe B91E0000 		.4byte	.LASF778
 7254 1c02 0B       		.byte	0xb
 7255 1c03 67       		.byte	0x67
 7256 1c04 9C000000 		.4byte	0x9c
 7257 1c08 05       		.byte	0x5
 7258 1c09 0B       		.uleb128 0xb
 7259 1c0a A6140000 		.4byte	.LASF637
 7260 1c0e 0B       		.byte	0xb
 7261 1c0f 67       		.byte	0x67
 7262 1c10 77010000 		.4byte	0x177
 7263 1c14 06       		.byte	0x6
 7264 1c15 0B       		.uleb128 0xb
 7265 1c16 60310000 		.4byte	.LASF779
 7266 1c1a 0B       		.byte	0xb
 7267 1c1b 67       		.byte	0x67
 7268 1c1c 97010000 		.4byte	0x197
 7269 1c20 09       		.byte	0x9
 7270 1c21 0B       		.uleb128 0xb
 7271 1c22 27400000 		.4byte	.LASF780
 7272 1c26 0B       		.byte	0xb
 7273 1c27 67       		.byte	0x67
 7274 1c28 D3000000 		.4byte	0xd3
 7275 1c2c 13       		.byte	0x13
 7276 1c2d 0B       		.uleb128 0xb
 7277 1c2e 55400000 		.4byte	.LASF781
 7278 1c32 0B       		.byte	0xb
 7279 1c33 67       		.byte	0x67
 7280 1c34 9C000000 		.4byte	0x9c
 7281 1c38 15       		.byte	0x15
 7282 1c39 0B       		.uleb128 0xb
ARM GAS  C:\Users\AHMED~1.ELE\AppData\Local\Temp\ccLLYyS4.s 			page 161


 7283 1c3a ED380000 		.4byte	.LASF782
 7284 1c3e 0B       		.byte	0xb
 7285 1c3f 67       		.byte	0x67
 7286 1c40 BD000000 		.4byte	0xbd
 7287 1c44 18       		.byte	0x18
 7288 1c45 0B       		.uleb128 0xb
 7289 1c46 90280000 		.4byte	.LASF783
 7290 1c4a 0B       		.byte	0xb
 7291 1c4b 67       		.byte	0x67
 7292 1c4c BD000000 		.4byte	0xbd
 7293 1c50 20       		.byte	0x20
 7294 1c51 0B       		.uleb128 0xb
 7295 1c52 9D1F0000 		.4byte	.LASF784
 7296 1c56 0B       		.byte	0xb
 7297 1c57 67       		.byte	0x67
 7298 1c58 BD000000 		.4byte	0xbd
 7299 1c5c 28       		.byte	0x28
 7300 1c5d 0B       		.uleb128 0xb
 7301 1c5e 7D190000 		.4byte	.LASF785
 7302 1c62 0B       		.byte	0xb
 7303 1c63 67       		.byte	0x67
 7304 1c64 E9000000 		.4byte	0xe9
 7305 1c68 30       		.byte	0x30
 7306 1c69 0B       		.uleb128 0xb
 7307 1c6a 07440000 		.4byte	.LASF786
 7308 1c6e 0B       		.byte	0xb
 7309 1c6f 67       		.byte	0x67
 7310 1c70 9C000000 		.4byte	0x9c
 7311 1c74 34       		.byte	0x34
 7312 1c75 0B       		.uleb128 0xb
 7313 1c76 C4380000 		.4byte	.LASF787
 7314 1c7a 0B       		.byte	0xb
 7315 1c7b 67       		.byte	0x67
 7316 1c7c FB1C0000 		.4byte	0x1cfb
 7317 1c80 35       		.byte	0x35
 7318 1c81 0B       		.uleb128 0xb
 7319 1c82 763C0000 		.4byte	.LASF788
 7320 1c86 0B       		.byte	0xb
 7321 1c87 67       		.byte	0x67
 7322 1c88 B7010000 		.4byte	0x1b7
 7323 1c8c 4F       		.byte	0x4f
 7324 1c8d 0B       		.uleb128 0xb
 7325 1c8e BC400000 		.4byte	.LASF789
 7326 1c92 0B       		.byte	0xb
 7327 1c93 67       		.byte	0x67
 7328 1c94 BB0E0000 		.4byte	0xebb
 7329 1c98 5F       		.byte	0x5f
 7330 1c99 0B       		.uleb128 0xb
 7331 1c9a 502B0000 		.4byte	.LASF790
 7332 1c9e 0B       		.byte	0xb
 7333 1c9f 67       		.byte	0x67
 7334 1ca0 A7000000 		.4byte	0xa7
 7335 1ca4 66       		.byte	0x66
 7336 1ca5 0B       		.uleb128 0xb
 7337 1ca6 A2240000 		.4byte	.LASF791
 7338 1caa 0B       		.byte	0xb
 7339 1cab 67       		.byte	0x67
ARM GAS  C:\Users\AHMED~1.ELE\AppData\Local\Temp\ccLLYyS4.s 			page 162


 7340 1cac 9C000000 		.4byte	0x9c
 7341 1cb0 68       		.byte	0x68
 7342 1cb1 0B       		.uleb128 0xb
 7343 1cb2 A7420000 		.4byte	.LASF792
 7344 1cb6 0B       		.byte	0xb
 7345 1cb7 67       		.byte	0x67
 7346 1cb8 DE150000 		.4byte	0x15de
 7347 1cbc 69       		.byte	0x69
 7348 1cbd 0B       		.uleb128 0xb
 7349 1cbe 7B360000 		.4byte	.LASF793
 7350 1cc2 0B       		.byte	0xb
 7351 1cc3 67       		.byte	0x67
 7352 1cc4 A7000000 		.4byte	0xa7
 7353 1cc8 76       		.byte	0x76
 7354 1cc9 0B       		.uleb128 0xb
 7355 1cca 591F0000 		.4byte	.LASF794
 7356 1cce 0B       		.byte	0xb
 7357 1ccf 67       		.byte	0x67
 7358 1cd0 A7000000 		.4byte	0xa7
 7359 1cd4 78       		.byte	0x78
 7360 1cd5 0B       		.uleb128 0xb
 7361 1cd6 D6120000 		.4byte	.LASF795
 7362 1cda 0B       		.byte	0xb
 7363 1cdb 67       		.byte	0x67
 7364 1cdc EC1A0000 		.4byte	0x1aec
 7365 1ce0 7C       		.byte	0x7c
 7366 1ce1 0B       		.uleb128 0xb
 7367 1ce2 62010000 		.4byte	.LASF796
 7368 1ce6 0B       		.byte	0xb
 7369 1ce7 67       		.byte	0x67
 7370 1ce8 4D1B0000 		.4byte	0x1b4d
 7371 1cec 84       		.byte	0x84
 7372 1ced 1B       		.uleb128 0x1b
 7373 1cee F4160000 		.4byte	.LASF681
 7374 1cf2 0B       		.byte	0xb
 7375 1cf3 68       		.byte	0x68
 7376 1cf4 A7000000 		.4byte	0xa7
 7377 1cf8 F801     		.2byte	0x1f8
 7378 1cfa 00       		.byte	0
 7379 1cfb 08       		.uleb128 0x8
 7380 1cfc 9C000000 		.4byte	0x9c
 7381 1d00 0B1D0000 		.4byte	0x1d0b
 7382 1d04 09       		.uleb128 0x9
 7383 1d05 76000000 		.4byte	0x76
 7384 1d09 19       		.byte	0x19
 7385 1d0a 00       		.byte	0
 7386 1d0b 14       		.uleb128 0x14
 7387 1d0c 112B0000 		.4byte	.LASF797
 7388 1d10 F801     		.2byte	0x1f8
 7389 1d12 0B       		.byte	0xb
 7390 1d13 6B       		.byte	0x6b
 7391 1d14 2D1E0000 		.4byte	0x1e2d
 7392 1d18 0B       		.uleb128 0xb
 7393 1d19 A6030000 		.4byte	.LASF776
 7394 1d1d 0B       		.byte	0xb
 7395 1d1e 6C       		.byte	0x6c
 7396 1d1f 9C000000 		.4byte	0x9c
ARM GAS  C:\Users\AHMED~1.ELE\AppData\Local\Temp\ccLLYyS4.s 			page 163


 7397 1d23 00       		.byte	0
 7398 1d24 0B       		.uleb128 0xb
 7399 1d25 AC230000 		.4byte	.LASF777
 7400 1d29 0B       		.byte	0xb
 7401 1d2a 6C       		.byte	0x6c
 7402 1d2b 9C000000 		.4byte	0x9c
 7403 1d2f 01       		.byte	0x1
 7404 1d30 0B       		.uleb128 0xb
 7405 1d31 50020000 		.4byte	.LASF636
 7406 1d35 0B       		.byte	0xb
 7407 1d36 6C       		.byte	0x6c
 7408 1d37 77010000 		.4byte	0x177
 7409 1d3b 02       		.byte	0x2
 7410 1d3c 0B       		.uleb128 0xb
 7411 1d3d B91E0000 		.4byte	.LASF778
 7412 1d41 0B       		.byte	0xb
 7413 1d42 6C       		.byte	0x6c
 7414 1d43 9C000000 		.4byte	0x9c
 7415 1d47 05       		.byte	0x5
 7416 1d48 0B       		.uleb128 0xb
 7417 1d49 A6140000 		.4byte	.LASF637
 7418 1d4d 0B       		.byte	0xb
 7419 1d4e 6C       		.byte	0x6c
 7420 1d4f 77010000 		.4byte	0x177
 7421 1d53 06       		.byte	0x6
 7422 1d54 0B       		.uleb128 0xb
 7423 1d55 60310000 		.4byte	.LASF779
 7424 1d59 0B       		.byte	0xb
 7425 1d5a 6C       		.byte	0x6c
 7426 1d5b 97010000 		.4byte	0x197
 7427 1d5f 09       		.byte	0x9
 7428 1d60 0B       		.uleb128 0xb
 7429 1d61 27400000 		.4byte	.LASF780
 7430 1d65 0B       		.byte	0xb
 7431 1d66 6C       		.byte	0x6c
 7432 1d67 D3000000 		.4byte	0xd3
 7433 1d6b 13       		.byte	0x13
 7434 1d6c 0B       		.uleb128 0xb
 7435 1d6d 55400000 		.4byte	.LASF781
 7436 1d71 0B       		.byte	0xb
 7437 1d72 6C       		.byte	0x6c
 7438 1d73 9C000000 		.4byte	0x9c
 7439 1d77 15       		.byte	0x15
 7440 1d78 0B       		.uleb128 0xb
 7441 1d79 ED380000 		.4byte	.LASF782
 7442 1d7d 0B       		.byte	0xb
 7443 1d7e 6C       		.byte	0x6c
 7444 1d7f BD000000 		.4byte	0xbd
 7445 1d83 18       		.byte	0x18
 7446 1d84 0B       		.uleb128 0xb
 7447 1d85 90280000 		.4byte	.LASF783
 7448 1d89 0B       		.byte	0xb
 7449 1d8a 6C       		.byte	0x6c
 7450 1d8b BD000000 		.4byte	0xbd
 7451 1d8f 20       		.byte	0x20
 7452 1d90 0B       		.uleb128 0xb
 7453 1d91 9D1F0000 		.4byte	.LASF784
ARM GAS  C:\Users\AHMED~1.ELE\AppData\Local\Temp\ccLLYyS4.s 			page 164


 7454 1d95 0B       		.byte	0xb
 7455 1d96 6C       		.byte	0x6c
 7456 1d97 BD000000 		.4byte	0xbd
 7457 1d9b 28       		.byte	0x28
 7458 1d9c 0B       		.uleb128 0xb
 7459 1d9d 7D190000 		.4byte	.LASF785
 7460 1da1 0B       		.byte	0xb
 7461 1da2 6C       		.byte	0x6c
 7462 1da3 E9000000 		.4byte	0xe9
 7463 1da7 30       		.byte	0x30
 7464 1da8 0B       		.uleb128 0xb
 7465 1da9 07440000 		.4byte	.LASF786
 7466 1dad 0B       		.byte	0xb
 7467 1dae 6C       		.byte	0x6c
 7468 1daf 9C000000 		.4byte	0x9c
 7469 1db3 34       		.byte	0x34
 7470 1db4 0B       		.uleb128 0xb
 7471 1db5 C4380000 		.4byte	.LASF787
 7472 1db9 0B       		.byte	0xb
 7473 1dba 6C       		.byte	0x6c
 7474 1dbb FB1C0000 		.4byte	0x1cfb
 7475 1dbf 35       		.byte	0x35
 7476 1dc0 0B       		.uleb128 0xb
 7477 1dc1 763C0000 		.4byte	.LASF788
 7478 1dc5 0B       		.byte	0xb
 7479 1dc6 6C       		.byte	0x6c
 7480 1dc7 B7010000 		.4byte	0x1b7
 7481 1dcb 4F       		.byte	0x4f
 7482 1dcc 0B       		.uleb128 0xb
 7483 1dcd BC400000 		.4byte	.LASF789
 7484 1dd1 0B       		.byte	0xb
 7485 1dd2 6C       		.byte	0x6c
 7486 1dd3 BB0E0000 		.4byte	0xebb
 7487 1dd7 5F       		.byte	0x5f
 7488 1dd8 0B       		.uleb128 0xb
 7489 1dd9 502B0000 		.4byte	.LASF790
 7490 1ddd 0B       		.byte	0xb
 7491 1dde 6C       		.byte	0x6c
 7492 1ddf A7000000 		.4byte	0xa7
 7493 1de3 66       		.byte	0x66
 7494 1de4 0B       		.uleb128 0xb
 7495 1de5 A2240000 		.4byte	.LASF791
 7496 1de9 0B       		.byte	0xb
 7497 1dea 6C       		.byte	0x6c
 7498 1deb 9C000000 		.4byte	0x9c
 7499 1def 68       		.byte	0x68
 7500 1df0 0B       		.uleb128 0xb
 7501 1df1 A7420000 		.4byte	.LASF792
 7502 1df5 0B       		.byte	0xb
 7503 1df6 6C       		.byte	0x6c
 7504 1df7 DE150000 		.4byte	0x15de
 7505 1dfb 69       		.byte	0x69
 7506 1dfc 0B       		.uleb128 0xb
 7507 1dfd 7B360000 		.4byte	.LASF793
 7508 1e01 0B       		.byte	0xb
 7509 1e02 6C       		.byte	0x6c
 7510 1e03 A7000000 		.4byte	0xa7
ARM GAS  C:\Users\AHMED~1.ELE\AppData\Local\Temp\ccLLYyS4.s 			page 165


 7511 1e07 76       		.byte	0x76
 7512 1e08 0B       		.uleb128 0xb
 7513 1e09 591F0000 		.4byte	.LASF794
 7514 1e0d 0B       		.byte	0xb
 7515 1e0e 6C       		.byte	0x6c
 7516 1e0f A7000000 		.4byte	0xa7
 7517 1e13 78       		.byte	0x78
 7518 1e14 0B       		.uleb128 0xb
 7519 1e15 D6120000 		.4byte	.LASF795
 7520 1e19 0B       		.byte	0xb
 7521 1e1a 6C       		.byte	0x6c
 7522 1e1b EC1A0000 		.4byte	0x1aec
 7523 1e1f 7C       		.byte	0x7c
 7524 1e20 0B       		.uleb128 0xb
 7525 1e21 62010000 		.4byte	.LASF796
 7526 1e25 0B       		.byte	0xb
 7527 1e26 6C       		.byte	0x6c
 7528 1e27 4D1B0000 		.4byte	0x1b4d
 7529 1e2b 84       		.byte	0x84
 7530 1e2c 00       		.byte	0
 7531 1e2d 14       		.uleb128 0x14
 7532 1e2e 00470000 		.4byte	.LASF798
 7533 1e32 0802     		.2byte	0x208
 7534 1e34 0B       		.byte	0xb
 7535 1e35 6F       		.byte	0x6f
 7536 1e36 691F0000 		.4byte	0x1f69
 7537 1e3a 0B       		.uleb128 0xb
 7538 1e3b A6030000 		.4byte	.LASF776
 7539 1e3f 0B       		.byte	0xb
 7540 1e40 70       		.byte	0x70
 7541 1e41 9C000000 		.4byte	0x9c
 7542 1e45 00       		.byte	0
 7543 1e46 0B       		.uleb128 0xb
 7544 1e47 AC230000 		.4byte	.LASF777
 7545 1e4b 0B       		.byte	0xb
 7546 1e4c 70       		.byte	0x70
 7547 1e4d 9C000000 		.4byte	0x9c
 7548 1e51 01       		.byte	0x1
 7549 1e52 0B       		.uleb128 0xb
 7550 1e53 50020000 		.4byte	.LASF636
 7551 1e57 0B       		.byte	0xb
 7552 1e58 70       		.byte	0x70
 7553 1e59 77010000 		.4byte	0x177
 7554 1e5d 02       		.byte	0x2
 7555 1e5e 0B       		.uleb128 0xb
 7556 1e5f B91E0000 		.4byte	.LASF778
 7557 1e63 0B       		.byte	0xb
 7558 1e64 70       		.byte	0x70
 7559 1e65 9C000000 		.4byte	0x9c
 7560 1e69 05       		.byte	0x5
 7561 1e6a 0B       		.uleb128 0xb
 7562 1e6b A6140000 		.4byte	.LASF637
 7563 1e6f 0B       		.byte	0xb
 7564 1e70 70       		.byte	0x70
 7565 1e71 77010000 		.4byte	0x177
 7566 1e75 06       		.byte	0x6
 7567 1e76 0B       		.uleb128 0xb
ARM GAS  C:\Users\AHMED~1.ELE\AppData\Local\Temp\ccLLYyS4.s 			page 166


 7568 1e77 60310000 		.4byte	.LASF779
 7569 1e7b 0B       		.byte	0xb
 7570 1e7c 70       		.byte	0x70
 7571 1e7d 97010000 		.4byte	0x197
 7572 1e81 09       		.byte	0x9
 7573 1e82 0B       		.uleb128 0xb
 7574 1e83 27400000 		.4byte	.LASF780
 7575 1e87 0B       		.byte	0xb
 7576 1e88 70       		.byte	0x70
 7577 1e89 D3000000 		.4byte	0xd3
 7578 1e8d 13       		.byte	0x13
 7579 1e8e 0B       		.uleb128 0xb
 7580 1e8f 55400000 		.4byte	.LASF781
 7581 1e93 0B       		.byte	0xb
 7582 1e94 70       		.byte	0x70
 7583 1e95 9C000000 		.4byte	0x9c
 7584 1e99 15       		.byte	0x15
 7585 1e9a 0B       		.uleb128 0xb
 7586 1e9b ED380000 		.4byte	.LASF782
 7587 1e9f 0B       		.byte	0xb
 7588 1ea0 70       		.byte	0x70
 7589 1ea1 BD000000 		.4byte	0xbd
 7590 1ea5 18       		.byte	0x18
 7591 1ea6 0B       		.uleb128 0xb
 7592 1ea7 90280000 		.4byte	.LASF783
 7593 1eab 0B       		.byte	0xb
 7594 1eac 70       		.byte	0x70
 7595 1ead BD000000 		.4byte	0xbd
 7596 1eb1 20       		.byte	0x20
 7597 1eb2 0B       		.uleb128 0xb
 7598 1eb3 9D1F0000 		.4byte	.LASF784
 7599 1eb7 0B       		.byte	0xb
 7600 1eb8 70       		.byte	0x70
 7601 1eb9 BD000000 		.4byte	0xbd
 7602 1ebd 28       		.byte	0x28
 7603 1ebe 0B       		.uleb128 0xb
 7604 1ebf 7D190000 		.4byte	.LASF785
 7605 1ec3 0B       		.byte	0xb
 7606 1ec4 70       		.byte	0x70
 7607 1ec5 E9000000 		.4byte	0xe9
 7608 1ec9 30       		.byte	0x30
 7609 1eca 0B       		.uleb128 0xb
 7610 1ecb 07440000 		.4byte	.LASF786
 7611 1ecf 0B       		.byte	0xb
 7612 1ed0 70       		.byte	0x70
 7613 1ed1 9C000000 		.4byte	0x9c
 7614 1ed5 34       		.byte	0x34
 7615 1ed6 0B       		.uleb128 0xb
 7616 1ed7 C4380000 		.4byte	.LASF787
 7617 1edb 0B       		.byte	0xb
 7618 1edc 70       		.byte	0x70
 7619 1edd FB1C0000 		.4byte	0x1cfb
 7620 1ee1 35       		.byte	0x35
 7621 1ee2 0B       		.uleb128 0xb
 7622 1ee3 763C0000 		.4byte	.LASF788
 7623 1ee7 0B       		.byte	0xb
 7624 1ee8 70       		.byte	0x70
ARM GAS  C:\Users\AHMED~1.ELE\AppData\Local\Temp\ccLLYyS4.s 			page 167


 7625 1ee9 B7010000 		.4byte	0x1b7
 7626 1eed 4F       		.byte	0x4f
 7627 1eee 0B       		.uleb128 0xb
 7628 1eef BC400000 		.4byte	.LASF789
 7629 1ef3 0B       		.byte	0xb
 7630 1ef4 70       		.byte	0x70
 7631 1ef5 BB0E0000 		.4byte	0xebb
 7632 1ef9 5F       		.byte	0x5f
 7633 1efa 0B       		.uleb128 0xb
 7634 1efb 502B0000 		.4byte	.LASF790
 7635 1eff 0B       		.byte	0xb
 7636 1f00 70       		.byte	0x70
 7637 1f01 A7000000 		.4byte	0xa7
 7638 1f05 66       		.byte	0x66
 7639 1f06 0B       		.uleb128 0xb
 7640 1f07 A2240000 		.4byte	.LASF791
 7641 1f0b 0B       		.byte	0xb
 7642 1f0c 70       		.byte	0x70
 7643 1f0d 9C000000 		.4byte	0x9c
 7644 1f11 68       		.byte	0x68
 7645 1f12 0B       		.uleb128 0xb
 7646 1f13 A7420000 		.4byte	.LASF792
 7647 1f17 0B       		.byte	0xb
 7648 1f18 70       		.byte	0x70
 7649 1f19 DE150000 		.4byte	0x15de
 7650 1f1d 69       		.byte	0x69
 7651 1f1e 0B       		.uleb128 0xb
 7652 1f1f 7B360000 		.4byte	.LASF793
 7653 1f23 0B       		.byte	0xb
 7654 1f24 70       		.byte	0x70
 7655 1f25 A7000000 		.4byte	0xa7
 7656 1f29 76       		.byte	0x76
 7657 1f2a 0B       		.uleb128 0xb
 7658 1f2b 591F0000 		.4byte	.LASF794
 7659 1f2f 0B       		.byte	0xb
 7660 1f30 70       		.byte	0x70
 7661 1f31 A7000000 		.4byte	0xa7
 7662 1f35 78       		.byte	0x78
 7663 1f36 0B       		.uleb128 0xb
 7664 1f37 D6120000 		.4byte	.LASF795
 7665 1f3b 0B       		.byte	0xb
 7666 1f3c 70       		.byte	0x70
 7667 1f3d EC1A0000 		.4byte	0x1aec
 7668 1f41 7C       		.byte	0x7c
 7669 1f42 0B       		.uleb128 0xb
 7670 1f43 62010000 		.4byte	.LASF796
 7671 1f47 0B       		.byte	0xb
 7672 1f48 70       		.byte	0x70
 7673 1f49 4D1B0000 		.4byte	0x1b4d
 7674 1f4d 84       		.byte	0x84
 7675 1f4e 1B       		.uleb128 0x1b
 7676 1f4f 8F3B0000 		.4byte	.LASF799
 7677 1f53 0B       		.byte	0xb
 7678 1f54 71       		.byte	0x71
 7679 1f55 9C000000 		.4byte	0x9c
 7680 1f59 F801     		.2byte	0x1f8
 7681 1f5b 1B       		.uleb128 0x1b
ARM GAS  C:\Users\AHMED~1.ELE\AppData\Local\Temp\ccLLYyS4.s 			page 168


 7682 1f5c 312D0000 		.4byte	.LASF800
 7683 1f60 0B       		.byte	0xb
 7684 1f61 72       		.byte	0x72
 7685 1f62 BD000000 		.4byte	0xbd
 7686 1f66 0002     		.2byte	0x200
 7687 1f68 00       		.byte	0
 7688 1f69 1A       		.uleb128 0x1a
 7689 1f6a 6A3A0000 		.4byte	.LASF801
 7690 1f6e 10       		.byte	0x10
 7691 1f6f 0B       		.byte	0xb
 7692 1f70 75       		.byte	0x75
 7693 1f71 8E1F0000 		.4byte	0x1f8e
 7694 1f75 0B       		.uleb128 0xb
 7695 1f76 2F1F0000 		.4byte	.LASF802
 7696 1f7a 0B       		.byte	0xb
 7697 1f7b 76       		.byte	0x76
 7698 1f7c A7000000 		.4byte	0xa7
 7699 1f80 00       		.byte	0
 7700 1f81 0B       		.uleb128 0xb
 7701 1f82 ED380000 		.4byte	.LASF782
 7702 1f86 0B       		.byte	0xb
 7703 1f87 77       		.byte	0x77
 7704 1f88 BD000000 		.4byte	0xbd
 7705 1f8c 08       		.byte	0x8
 7706 1f8d 00       		.byte	0
 7707 1f8e 1A       		.uleb128 0x1a
 7708 1f8f D21A0000 		.4byte	.LASF803
 7709 1f93 68       		.byte	0x68
 7710 1f94 0B       		.byte	0xb
 7711 1f95 7A       		.byte	0x7a
 7712 1f96 EF1F0000 		.4byte	0x1fef
 7713 1f9a 0B       		.uleb128 0xb
 7714 1f9b B5070000 		.4byte	.LASF804
 7715 1f9f 0B       		.byte	0xb
 7716 1fa0 7B       		.byte	0x7b
 7717 1fa1 B2000000 		.4byte	0xb2
 7718 1fa5 00       		.byte	0
 7719 1fa6 0B       		.uleb128 0xb
 7720 1fa7 241F0000 		.4byte	.LASF805
 7721 1fab 0B       		.byte	0xb
 7722 1fac 7C       		.byte	0x7c
 7723 1fad 691F0000 		.4byte	0x1f69
 7724 1fb1 08       		.byte	0x8
 7725 1fb2 0B       		.uleb128 0xb
 7726 1fb3 AE1E0000 		.4byte	.LASF806
 7727 1fb7 0B       		.byte	0xb
 7728 1fb8 7D       		.byte	0x7d
 7729 1fb9 691F0000 		.4byte	0x1f69
 7730 1fbd 18       		.byte	0x18
 7731 1fbe 0B       		.uleb128 0xb
 7732 1fbf EC210000 		.4byte	.LASF807
 7733 1fc3 0B       		.byte	0xb
 7734 1fc4 7E       		.byte	0x7e
 7735 1fc5 691F0000 		.4byte	0x1f69
 7736 1fc9 28       		.byte	0x28
 7737 1fca 0B       		.uleb128 0xb
 7738 1fcb 3A1C0000 		.4byte	.LASF808
ARM GAS  C:\Users\AHMED~1.ELE\AppData\Local\Temp\ccLLYyS4.s 			page 169


 7739 1fcf 0B       		.byte	0xb
 7740 1fd0 7F       		.byte	0x7f
 7741 1fd1 691F0000 		.4byte	0x1f69
 7742 1fd5 38       		.byte	0x38
 7743 1fd6 0B       		.uleb128 0xb
 7744 1fd7 5A2B0000 		.4byte	.LASF809
 7745 1fdb 0B       		.byte	0xb
 7746 1fdc 80       		.byte	0x80
 7747 1fdd 691F0000 		.4byte	0x1f69
 7748 1fe1 48       		.byte	0x48
 7749 1fe2 0B       		.uleb128 0xb
 7750 1fe3 FD350000 		.4byte	.LASF810
 7751 1fe7 0B       		.byte	0xb
 7752 1fe8 81       		.byte	0x81
 7753 1fe9 691F0000 		.4byte	0x1f69
 7754 1fed 58       		.byte	0x58
 7755 1fee 00       		.byte	0
 7756 1fef 14       		.uleb128 0x14
 7757 1ff0 470E0000 		.4byte	.LASF811
 7758 1ff4 5805     		.2byte	0x558
 7759 1ff6 0B       		.byte	0xb
 7760 1ff7 86       		.byte	0x86
 7761 1ff8 3D200000 		.4byte	0x203d
 7762 1ffc 0B       		.uleb128 0xb
 7763 1ffd BF060000 		.4byte	.LASF812
 7764 2001 0B       		.byte	0xb
 7765 2002 87       		.byte	0x87
 7766 2003 FE150000 		.4byte	0x15fe
 7767 2007 00       		.byte	0
 7768 2008 1B       		.uleb128 0x1b
 7769 2009 91350000 		.4byte	.LASF813
 7770 200d 0B       		.byte	0xb
 7771 200e 88       		.byte	0x88
 7772 200f 3D200000 		.4byte	0x203d
 7773 2013 8801     		.2byte	0x188
 7774 2015 1B       		.uleb128 0x1b
 7775 2016 52460000 		.4byte	.LASF814
 7776 201a 0B       		.byte	0xb
 7777 201b 89       		.byte	0x89
 7778 201c 4D200000 		.4byte	0x204d
 7779 2020 4803     		.2byte	0x348
 7780 2022 1B       		.uleb128 0x1b
 7781 2023 5A1C0000 		.4byte	.LASF815
 7782 2027 0B       		.byte	0xb
 7783 2028 8A       		.byte	0x8a
 7784 2029 5D200000 		.4byte	0x205d
 7785 202d A004     		.2byte	0x4a0
 7786 202f 1B       		.uleb128 0x1b
 7787 2030 372E0000 		.4byte	.LASF816
 7788 2034 0B       		.byte	0xb
 7789 2035 8B       		.byte	0x8b
 7790 2036 6D200000 		.4byte	0x206d
 7791 203a 1005     		.2byte	0x510
 7792 203c 00       		.byte	0
 7793 203d 08       		.uleb128 0x8
 7794 203e AA1A0000 		.4byte	0x1aaa
 7795 2042 4D200000 		.4byte	0x204d
ARM GAS  C:\Users\AHMED~1.ELE\AppData\Local\Temp\ccLLYyS4.s 			page 170


 7796 2046 09       		.uleb128 0x9
 7797 2047 76000000 		.4byte	0x76
 7798 204b 0F       		.byte	0xf
 7799 204c 00       		.byte	0
 7800 204d 08       		.uleb128 0x8
 7801 204e C2180000 		.4byte	0x18c2
 7802 2052 5D200000 		.4byte	0x205d
 7803 2056 09       		.uleb128 0x9
 7804 2057 76000000 		.4byte	0x76
 7805 205b 01       		.byte	0x1
 7806 205c 00       		.byte	0
 7807 205d 08       		.uleb128 0x8
 7808 205e 3F180000 		.4byte	0x183f
 7809 2062 6D200000 		.4byte	0x206d
 7810 2066 09       		.uleb128 0x9
 7811 2067 76000000 		.4byte	0x76
 7812 206b 01       		.byte	0x1
 7813 206c 00       		.byte	0
 7814 206d 08       		.uleb128 0x8
 7815 206e D6170000 		.4byte	0x17d6
 7816 2072 7D200000 		.4byte	0x207d
 7817 2076 09       		.uleb128 0x9
 7818 2077 76000000 		.4byte	0x76
 7819 207b 01       		.byte	0x1
 7820 207c 00       		.byte	0
 7821 207d 1A       		.uleb128 0x1a
 7822 207e DC460000 		.4byte	.LASF817
 7823 2082 04       		.byte	0x4
 7824 2083 0B       		.byte	0xb
 7825 2084 8E       		.byte	0x8e
 7826 2085 A2200000 		.4byte	0x20a2
 7827 2089 0B       		.uleb128 0xb
 7828 208a 5D170000 		.4byte	.LASF818
 7829 208e 0B       		.byte	0xb
 7830 208f 8F       		.byte	0x8f
 7831 2090 9C000000 		.4byte	0x9c
 7832 2094 00       		.byte	0
 7833 2095 0B       		.uleb128 0xb
 7834 2096 CB2A0000 		.4byte	.LASF819
 7835 209a 0B       		.byte	0xb
 7836 209b 90       		.byte	0x90
 7837 209c 9C000000 		.4byte	0x9c
 7838 20a0 01       		.byte	0x1
 7839 20a1 00       		.byte	0
 7840 20a2 14       		.uleb128 0x14
 7841 20a3 EC160000 		.4byte	.LASF820
 7842 20a7 040C     		.2byte	0xc04
 7843 20a9 0B       		.byte	0xb
 7844 20aa 9B       		.byte	0x9b
 7845 20ab C8200000 		.4byte	0x20c8
 7846 20af 0B       		.uleb128 0xb
 7847 20b0 8A0F0000 		.4byte	.LASF821
 7848 20b4 0B       		.byte	0xb
 7849 20b5 9C       		.byte	0x9c
 7850 20b6 B2000000 		.4byte	0xb2
 7851 20ba 00       		.byte	0
 7852 20bb 0B       		.uleb128 0xb
ARM GAS  C:\Users\AHMED~1.ELE\AppData\Local\Temp\ccLLYyS4.s 			page 171


 7853 20bc 6A0D0000 		.4byte	.LASF506
 7854 20c0 0B       		.byte	0xb
 7855 20c1 9D       		.byte	0x9d
 7856 20c2 A1120000 		.4byte	0x12a1
 7857 20c6 04       		.byte	0x4
 7858 20c7 00       		.byte	0
 7859 20c8 1C       		.uleb128 0x1c
 7860 20c9 47445300 		.ascii	"GDS\000"
 7861 20cd 6042     		.2byte	0x4260
 7862 20cf 0B       		.byte	0xb
 7863 20d0 A1       		.byte	0xa1
 7864 20d1 D9210000 		.4byte	0x21d9
 7865 20d5 0B       		.uleb128 0xb
 7866 20d6 2F240000 		.4byte	.LASF822
 7867 20da 0B       		.byte	0xb
 7868 20db A3       		.byte	0xa3
 7869 20dc EF1F0000 		.4byte	0x1fef
 7870 20e0 00       		.byte	0
 7871 20e1 1B       		.uleb128 0x1b
 7872 20e2 960B0000 		.4byte	.LASF823
 7873 20e6 0B       		.byte	0xb
 7874 20e7 A4       		.byte	0xa4
 7875 20e8 B2120000 		.4byte	0x12b2
 7876 20ec 5805     		.2byte	0x558
 7877 20ee 1B       		.uleb128 0x1b
 7878 20ef A5290000 		.4byte	.LASF824
 7879 20f3 0B       		.byte	0xb
 7880 20f4 A6       		.byte	0xa6
 7881 20f5 CC1B0000 		.4byte	0x1bcc
 7882 20f9 C806     		.2byte	0x6c8
 7883 20fb 1B       		.uleb128 0x1b
 7884 20fc 581B0000 		.4byte	.LASF825
 7885 2100 0B       		.byte	0xb
 7886 2101 A7       		.byte	0xa7
 7887 2102 0B1D0000 		.4byte	0x1d0b
 7888 2106 C808     		.2byte	0x8c8
 7889 2108 1B       		.uleb128 0x1b
 7890 2109 7B410000 		.4byte	.LASF826
 7891 210d 0B       		.byte	0xb
 7892 210e A8       		.byte	0xa8
 7893 210f 2D1E0000 		.4byte	0x1e2d
 7894 2113 C00A     		.2byte	0xac0
 7895 2115 1B       		.uleb128 0x1b
 7896 2116 27220000 		.4byte	.LASF827
 7897 211a 0B       		.byte	0xb
 7898 211b A9       		.byte	0xa9
 7899 211c 8E1F0000 		.4byte	0x1f8e
 7900 2120 C80C     		.2byte	0xcc8
 7901 2122 1B       		.uleb128 0x1b
 7902 2123 F7450000 		.4byte	.LASF828
 7903 2127 0B       		.byte	0xb
 7904 2128 AA       		.byte	0xaa
 7905 2129 8E1F0000 		.4byte	0x1f8e
 7906 212d 300D     		.2byte	0xd30
 7907 212f 1B       		.uleb128 0x1b
 7908 2130 23110000 		.4byte	.LASF829
 7909 2134 0B       		.byte	0xb
ARM GAS  C:\Users\AHMED~1.ELE\AppData\Local\Temp\ccLLYyS4.s 			page 172


 7910 2135 AB       		.byte	0xab
 7911 2136 A2200000 		.4byte	0x20a2
 7912 213a 980D     		.2byte	0xd98
 7913 213c 1B       		.uleb128 0x1b
 7914 213d D4100000 		.4byte	.LASF830
 7915 2141 0B       		.byte	0xb
 7916 2142 AC       		.byte	0xac
 7917 2143 78120000 		.4byte	0x1278
 7918 2147 9C19     		.2byte	0x199c
 7919 2149 1B       		.uleb128 0x1b
 7920 214a 03360000 		.4byte	.LASF831
 7921 214e 0B       		.byte	0xb
 7922 214f AD       		.byte	0xad
 7923 2150 78120000 		.4byte	0x1278
 7924 2154 A025     		.2byte	0x25a0
 7925 2156 1B       		.uleb128 0x1b
 7926 2157 D83F0000 		.4byte	.LASF832
 7927 215b 0B       		.byte	0xb
 7928 215c AE       		.byte	0xae
 7929 215d D9210000 		.4byte	0x21d9
 7930 2161 A431     		.2byte	0x31a4
 7931 2163 1B       		.uleb128 0x1b
 7932 2164 971E0000 		.4byte	.LASF833
 7933 2168 0B       		.byte	0xb
 7934 2169 AF       		.byte	0xaf
 7935 216a 1A010000 		.4byte	0x11a
 7936 216e 8037     		.2byte	0x3780
 7937 2170 1B       		.uleb128 0x1b
 7938 2171 C5390000 		.4byte	.LASF834
 7939 2175 0B       		.byte	0xb
 7940 2176 B0       		.byte	0xb0
 7941 2177 1A010000 		.4byte	0x11a
 7942 217b 8837     		.2byte	0x3788
 7943 217d 1B       		.uleb128 0x1b
 7944 217e 9D2F0000 		.4byte	.LASF835
 7945 2182 0B       		.byte	0xb
 7946 2183 B1       		.byte	0xb1
 7947 2184 180F0000 		.4byte	0xf18
 7948 2188 9037     		.2byte	0x3790
 7949 218a 1B       		.uleb128 0x1b
 7950 218b 45050000 		.4byte	.LASF836
 7951 218f 0B       		.byte	0xb
 7952 2190 B2       		.byte	0xb2
 7953 2191 180F0000 		.4byte	0xf18
 7954 2195 9837     		.2byte	0x3798
 7955 2197 1B       		.uleb128 0x1b
 7956 2198 DA3D0000 		.4byte	.LASF837
 7957 219c 0B       		.byte	0xb
 7958 219d B3       		.byte	0xb3
 7959 219e EA210000 		.4byte	0x21ea
 7960 21a2 A037     		.2byte	0x37a0
 7961 21a4 1B       		.uleb128 0x1b
 7962 21a5 1F1B0000 		.4byte	.LASF838
 7963 21a9 0B       		.byte	0xb
 7964 21aa B4       		.byte	0xb4
 7965 21ab 91000000 		.4byte	0x91
 7966 21af 503C     		.2byte	0x3c50
ARM GAS  C:\Users\AHMED~1.ELE\AppData\Local\Temp\ccLLYyS4.s 			page 173


 7967 21b1 1B       		.uleb128 0x1b
 7968 21b2 62410000 		.4byte	.LASF839
 7969 21b6 0B       		.byte	0xb
 7970 21b7 B5       		.byte	0xb5
 7971 21b8 7D200000 		.4byte	0x207d
 7972 21bc 543C     		.2byte	0x3c54
 7973 21be 1B       		.uleb128 0x1b
 7974 21bf 9A290000 		.4byte	.LASF840
 7975 21c3 0B       		.byte	0xb
 7976 21c4 B6       		.byte	0xb6
 7977 21c5 240F0000 		.4byte	0xf24
 7978 21c9 583C     		.2byte	0x3c58
 7979 21cb 1B       		.uleb128 0x1b
 7980 21cc 853B0000 		.4byte	.LASF841
 7981 21d0 0B       		.byte	0xb
 7982 21d1 B7       		.byte	0xb7
 7983 21d2 25000000 		.4byte	0x25
 7984 21d6 5C42     		.2byte	0x425c
 7985 21d8 00       		.byte	0
 7986 21d9 08       		.uleb128 0x8
 7987 21da 9C000000 		.4byte	0x9c
 7988 21de EA210000 		.4byte	0x21ea
 7989 21e2 15       		.uleb128 0x15
 7990 21e3 76000000 		.4byte	0x76
 7991 21e7 DB05     		.2byte	0x5db
 7992 21e9 00       		.byte	0
 7993 21ea 08       		.uleb128 0x8
 7994 21eb 5C010000 		.4byte	0x15c
 7995 21ef FA210000 		.4byte	0x21fa
 7996 21f3 09       		.uleb128 0x9
 7997 21f4 76000000 		.4byte	0x76
 7998 21f8 95       		.byte	0x95
 7999 21f9 00       		.byte	0
 8000 21fa 17       		.uleb128 0x17
 8001 21fb 01       		.byte	0x1
 8002 21fc 0C       		.byte	0xc
 8003 21fd 33       		.byte	0x33
 8004 21fe A0220000 		.4byte	0x22a0
 8005 2202 0E       		.uleb128 0xe
 8006 2203 DD0C0000 		.4byte	.LASF842
 8007 2207 00       		.sleb128 0
 8008 2208 0E       		.uleb128 0xe
 8009 2209 ED070000 		.4byte	.LASF843
 8010 220d 01       		.sleb128 1
 8011 220e 0E       		.uleb128 0xe
 8012 220f 71140000 		.4byte	.LASF844
 8013 2213 02       		.sleb128 2
 8014 2214 0E       		.uleb128 0xe
 8015 2215 74390000 		.4byte	.LASF845
 8016 2219 03       		.sleb128 3
 8017 221a 0E       		.uleb128 0xe
 8018 221b 8D300000 		.4byte	.LASF846
 8019 221f 04       		.sleb128 4
 8020 2220 0E       		.uleb128 0xe
 8021 2221 DA000000 		.4byte	.LASF847
 8022 2225 05       		.sleb128 5
 8023 2226 0E       		.uleb128 0xe
ARM GAS  C:\Users\AHMED~1.ELE\AppData\Local\Temp\ccLLYyS4.s 			page 174


 8024 2227 96000000 		.4byte	.LASF848
 8025 222b 06       		.sleb128 6
 8026 222c 0E       		.uleb128 0xe
 8027 222d ED180000 		.4byte	.LASF849
 8028 2231 07       		.sleb128 7
 8029 2232 0E       		.uleb128 0xe
 8030 2233 E8030000 		.4byte	.LASF850
 8031 2237 08       		.sleb128 8
 8032 2238 0E       		.uleb128 0xe
 8033 2239 A91C0000 		.4byte	.LASF851
 8034 223d 09       		.sleb128 9
 8035 223e 0E       		.uleb128 0xe
 8036 223f 3D2C0000 		.4byte	.LASF852
 8037 2243 0A       		.sleb128 10
 8038 2244 0E       		.uleb128 0xe
 8039 2245 B6200000 		.4byte	.LASF853
 8040 2249 0B       		.sleb128 11
 8041 224a 0E       		.uleb128 0xe
 8042 224b 7A1D0000 		.4byte	.LASF854
 8043 224f 0C       		.sleb128 12
 8044 2250 0E       		.uleb128 0xe
 8045 2251 1F190000 		.4byte	.LASF855
 8046 2255 0D       		.sleb128 13
 8047 2256 0E       		.uleb128 0xe
 8048 2257 52190000 		.4byte	.LASF856
 8049 225b 0E       		.sleb128 14
 8050 225c 0E       		.uleb128 0xe
 8051 225d A2150000 		.4byte	.LASF857
 8052 2261 0F       		.sleb128 15
 8053 2262 0E       		.uleb128 0xe
 8054 2263 B2290000 		.4byte	.LASF858
 8055 2267 10       		.sleb128 16
 8056 2268 0E       		.uleb128 0xe
 8057 2269 472C0000 		.4byte	.LASF859
 8058 226d 11       		.sleb128 17
 8059 226e 0E       		.uleb128 0xe
 8060 226f C20C0000 		.4byte	.LASF860
 8061 2273 12       		.sleb128 18
 8062 2274 0E       		.uleb128 0xe
 8063 2275 97010000 		.4byte	.LASF861
 8064 2279 13       		.sleb128 19
 8065 227a 0E       		.uleb128 0xe
 8066 227b 060B0000 		.4byte	.LASF862
 8067 227f 14       		.sleb128 20
 8068 2280 0E       		.uleb128 0xe
 8069 2281 941F0000 		.4byte	.LASF863
 8070 2285 15       		.sleb128 21
 8071 2286 0E       		.uleb128 0xe
 8072 2287 32220000 		.4byte	.LASF864
 8073 228b 16       		.sleb128 22
 8074 228c 0E       		.uleb128 0xe
 8075 228d 10030000 		.4byte	.LASF865
 8076 2291 17       		.sleb128 23
 8077 2292 0E       		.uleb128 0xe
 8078 2293 55390000 		.4byte	.LASF866
 8079 2297 18       		.sleb128 24
 8080 2298 0E       		.uleb128 0xe
ARM GAS  C:\Users\AHMED~1.ELE\AppData\Local\Temp\ccLLYyS4.s 			page 175


 8081 2299 44460000 		.4byte	.LASF867
 8082 229d FF01     		.sleb128 255
 8083 229f 00       		.byte	0
 8084 22a0 17       		.uleb128 0x17
 8085 22a1 01       		.byte	0x1
 8086 22a2 0D       		.byte	0xd
 8087 22a3 34       		.byte	0x34
 8088 22a4 67260000 		.4byte	0x2667
 8089 22a8 0E       		.uleb128 0xe
 8090 22a9 190C0000 		.4byte	.LASF868
 8091 22ad 00       		.sleb128 0
 8092 22ae 0E       		.uleb128 0xe
 8093 22af A20B0000 		.4byte	.LASF869
 8094 22b3 01       		.sleb128 1
 8095 22b4 0E       		.uleb128 0xe
 8096 22b5 0F0B0000 		.4byte	.LASF870
 8097 22b9 02       		.sleb128 2
 8098 22ba 0E       		.uleb128 0xe
 8099 22bb B4360000 		.4byte	.LASF871
 8100 22bf 03       		.sleb128 3
 8101 22c0 0E       		.uleb128 0xe
 8102 22c1 55440000 		.4byte	.LASF872
 8103 22c5 04       		.sleb128 4
 8104 22c6 0E       		.uleb128 0xe
 8105 22c7 C92E0000 		.4byte	.LASF873
 8106 22cb 05       		.sleb128 5
 8107 22cc 0E       		.uleb128 0xe
 8108 22cd 05110000 		.4byte	.LASF874
 8109 22d1 06       		.sleb128 6
 8110 22d2 0E       		.uleb128 0xe
 8111 22d3 D52E0000 		.4byte	.LASF875
 8112 22d7 07       		.sleb128 7
 8113 22d8 0E       		.uleb128 0xe
 8114 22d9 C2140000 		.4byte	.LASF876
 8115 22dd 08       		.sleb128 8
 8116 22de 0E       		.uleb128 0xe
 8117 22df 7C2F0000 		.4byte	.LASF877
 8118 22e3 09       		.sleb128 9
 8119 22e4 0E       		.uleb128 0xe
 8120 22e5 52310000 		.4byte	.LASF878
 8121 22e9 0A       		.sleb128 10
 8122 22ea 0E       		.uleb128 0xe
 8123 22eb DF380000 		.4byte	.LASF879
 8124 22ef 0B       		.sleb128 11
 8125 22f0 0E       		.uleb128 0xe
 8126 22f1 07040000 		.4byte	.LASF880
 8127 22f5 0C       		.sleb128 12
 8128 22f6 0E       		.uleb128 0xe
 8129 22f7 B92E0000 		.4byte	.LASF881
 8130 22fb 0D       		.sleb128 13
 8131 22fc 0E       		.uleb128 0xe
 8132 22fd 36390000 		.4byte	.LASF882
 8133 2301 0E       		.sleb128 14
 8134 2302 0E       		.uleb128 0xe
 8135 2303 792B0000 		.4byte	.LASF883
 8136 2307 0F       		.sleb128 15
 8137 2308 0E       		.uleb128 0xe
ARM GAS  C:\Users\AHMED~1.ELE\AppData\Local\Temp\ccLLYyS4.s 			page 176


 8138 2309 C7190000 		.4byte	.LASF884
 8139 230d 10       		.sleb128 16
 8140 230e 0E       		.uleb128 0xe
 8141 230f F1060000 		.4byte	.LASF885
 8142 2313 11       		.sleb128 17
 8143 2314 0E       		.uleb128 0xe
 8144 2315 46080000 		.4byte	.LASF886
 8145 2319 12       		.sleb128 18
 8146 231a 0E       		.uleb128 0xe
 8147 231b 97060000 		.4byte	.LASF887
 8148 231f 13       		.sleb128 19
 8149 2320 0E       		.uleb128 0xe
 8150 2321 D3450000 		.4byte	.LASF888
 8151 2325 14       		.sleb128 20
 8152 2326 0E       		.uleb128 0xe
 8153 2327 F2140000 		.4byte	.LASF889
 8154 232b 15       		.sleb128 21
 8155 232c 0E       		.uleb128 0xe
 8156 232d 5D000000 		.4byte	.LASF890
 8157 2331 16       		.sleb128 22
 8158 2332 0E       		.uleb128 0xe
 8159 2333 0D1A0000 		.4byte	.LASF891
 8160 2337 17       		.sleb128 23
 8161 2338 0E       		.uleb128 0xe
 8162 2339 E3450000 		.4byte	.LASF892
 8163 233d 18       		.sleb128 24
 8164 233e 0E       		.uleb128 0xe
 8165 233f F8320000 		.4byte	.LASF893
 8166 2343 19       		.sleb128 25
 8167 2344 0E       		.uleb128 0xe
 8168 2345 4C220000 		.4byte	.LASF894
 8169 2349 1A       		.sleb128 26
 8170 234a 0E       		.uleb128 0xe
 8171 234b 78210000 		.4byte	.LASF895
 8172 234f 1B       		.sleb128 27
 8173 2350 0E       		.uleb128 0xe
 8174 2351 14180000 		.4byte	.LASF896
 8175 2355 1C       		.sleb128 28
 8176 2356 0E       		.uleb128 0xe
 8177 2357 E72C0000 		.4byte	.LASF897
 8178 235b 1D       		.sleb128 29
 8179 235c 0E       		.uleb128 0xe
 8180 235d 7F050000 		.4byte	.LASF898
 8181 2361 1E       		.sleb128 30
 8182 2362 0E       		.uleb128 0xe
 8183 2363 B81C0000 		.4byte	.LASF899
 8184 2367 1F       		.sleb128 31
 8185 2368 0E       		.uleb128 0xe
 8186 2369 900F0000 		.4byte	.LASF900
 8187 236d 20       		.sleb128 32
 8188 236e 0E       		.uleb128 0xe
 8189 236f 61460000 		.4byte	.LASF901
 8190 2373 21       		.sleb128 33
 8191 2374 0E       		.uleb128 0xe
 8192 2375 14440000 		.4byte	.LASF902
 8193 2379 22       		.sleb128 34
 8194 237a 0E       		.uleb128 0xe
ARM GAS  C:\Users\AHMED~1.ELE\AppData\Local\Temp\ccLLYyS4.s 			page 177


 8195 237b 1F3C0000 		.4byte	.LASF903
 8196 237f 23       		.sleb128 35
 8197 2380 0E       		.uleb128 0xe
 8198 2381 AF300000 		.4byte	.LASF904
 8199 2385 24       		.sleb128 36
 8200 2386 0E       		.uleb128 0xe
 8201 2387 5A150000 		.4byte	.LASF905
 8202 238b 25       		.sleb128 37
 8203 238c 0E       		.uleb128 0xe
 8204 238d AF330000 		.4byte	.LASF906
 8205 2391 26       		.sleb128 38
 8206 2392 0E       		.uleb128 0xe
 8207 2393 F0080000 		.4byte	.LASF907
 8208 2397 27       		.sleb128 39
 8209 2398 0E       		.uleb128 0xe
 8210 2399 6E220000 		.4byte	.LASF908
 8211 239d 28       		.sleb128 40
 8212 239e 0E       		.uleb128 0xe
 8213 239f F4440000 		.4byte	.LASF909
 8214 23a3 29       		.sleb128 41
 8215 23a4 0E       		.uleb128 0xe
 8216 23a5 563F0000 		.4byte	.LASF910
 8217 23a9 2A       		.sleb128 42
 8218 23aa 0E       		.uleb128 0xe
 8219 23ab 87020000 		.4byte	.LASF911
 8220 23af 2B       		.sleb128 43
 8221 23b0 0E       		.uleb128 0xe
 8222 23b1 880C0000 		.4byte	.LASF912
 8223 23b5 2C       		.sleb128 44
 8224 23b6 0E       		.uleb128 0xe
 8225 23b7 07310000 		.4byte	.LASF913
 8226 23bb 2D       		.sleb128 45
 8227 23bc 0E       		.uleb128 0xe
 8228 23bd A3380000 		.4byte	.LASF914
 8229 23c1 2E       		.sleb128 46
 8230 23c2 0E       		.uleb128 0xe
 8231 23c3 C11D0000 		.4byte	.LASF915
 8232 23c7 2F       		.sleb128 47
 8233 23c8 0E       		.uleb128 0xe
 8234 23c9 25120000 		.4byte	.LASF916
 8235 23cd 30       		.sleb128 48
 8236 23ce 0E       		.uleb128 0xe
 8237 23cf 33430000 		.4byte	.LASF917
 8238 23d3 31       		.sleb128 49
 8239 23d4 0E       		.uleb128 0xe
 8240 23d5 EA420000 		.4byte	.LASF918
 8241 23d9 32       		.sleb128 50
 8242 23da 0E       		.uleb128 0xe
 8243 23db B4100000 		.4byte	.LASF919
 8244 23df 33       		.sleb128 51
 8245 23e0 0E       		.uleb128 0xe
 8246 23e1 21470000 		.4byte	.LASF920
 8247 23e5 34       		.sleb128 52
 8248 23e6 0E       		.uleb128 0xe
 8249 23e7 2C290000 		.4byte	.LASF921
 8250 23eb 35       		.sleb128 53
 8251 23ec 0E       		.uleb128 0xe
ARM GAS  C:\Users\AHMED~1.ELE\AppData\Local\Temp\ccLLYyS4.s 			page 178


 8252 23ed AA000000 		.4byte	.LASF922
 8253 23f1 36       		.sleb128 54
 8254 23f2 0E       		.uleb128 0xe
 8255 23f3 46390000 		.4byte	.LASF923
 8256 23f7 37       		.sleb128 55
 8257 23f8 0E       		.uleb128 0xe
 8258 23f9 F82D0000 		.4byte	.LASF924
 8259 23fd 38       		.sleb128 56
 8260 23fe 0E       		.uleb128 0xe
 8261 23ff 84410000 		.4byte	.LASF925
 8262 2403 39       		.sleb128 57
 8263 2404 0E       		.uleb128 0xe
 8264 2405 3D320000 		.4byte	.LASF926
 8265 2409 3A       		.sleb128 58
 8266 240a 0E       		.uleb128 0xe
 8267 240b B23D0000 		.4byte	.LASF927
 8268 240f 3B       		.sleb128 59
 8269 2410 0E       		.uleb128 0xe
 8270 2411 6E1C0000 		.4byte	.LASF928
 8271 2415 3C       		.sleb128 60
 8272 2416 0E       		.uleb128 0xe
 8273 2417 AA460000 		.4byte	.LASF929
 8274 241b 3D       		.sleb128 61
 8275 241c 0E       		.uleb128 0xe
 8276 241d 670F0000 		.4byte	.LASF930
 8277 2421 3E       		.sleb128 62
 8278 2422 0E       		.uleb128 0xe
 8279 2423 CA1B0000 		.4byte	.LASF931
 8280 2427 3F       		.sleb128 63
 8281 2428 0E       		.uleb128 0xe
 8282 2429 29270000 		.4byte	.LASF932
 8283 242d C000     		.sleb128 64
 8284 242f 0E       		.uleb128 0xe
 8285 2430 851B0000 		.4byte	.LASF933
 8286 2434 C100     		.sleb128 65
 8287 2436 0E       		.uleb128 0xe
 8288 2437 6D130000 		.4byte	.LASF934
 8289 243b C200     		.sleb128 66
 8290 243d 0E       		.uleb128 0xe
 8291 243e 2C110000 		.4byte	.LASF935
 8292 2442 C300     		.sleb128 67
 8293 2444 0E       		.uleb128 0xe
 8294 2445 62170000 		.4byte	.LASF936
 8295 2449 C400     		.sleb128 68
 8296 244b 0E       		.uleb128 0xe
 8297 244c 01230000 		.4byte	.LASF937
 8298 2450 C500     		.sleb128 69
 8299 2452 0E       		.uleb128 0xe
 8300 2453 F21A0000 		.4byte	.LASF938
 8301 2457 C600     		.sleb128 70
 8302 2459 0E       		.uleb128 0xe
 8303 245a 3A0F0000 		.4byte	.LASF939
 8304 245e C700     		.sleb128 71
 8305 2460 0E       		.uleb128 0xe
 8306 2461 AD430000 		.4byte	.LASF940
 8307 2465 C800     		.sleb128 72
 8308 2467 0E       		.uleb128 0xe
ARM GAS  C:\Users\AHMED~1.ELE\AppData\Local\Temp\ccLLYyS4.s 			page 179


 8309 2468 703E0000 		.4byte	.LASF941
 8310 246c C900     		.sleb128 73
 8311 246e 0E       		.uleb128 0xe
 8312 246f 57230000 		.4byte	.LASF942
 8313 2473 CA00     		.sleb128 74
 8314 2475 0E       		.uleb128 0xe
 8315 2476 323D0000 		.4byte	.LASF943
 8316 247a CB00     		.sleb128 75
 8317 247c 0E       		.uleb128 0xe
 8318 247d A9410000 		.4byte	.LASF944
 8319 2481 CC00     		.sleb128 76
 8320 2483 0E       		.uleb128 0xe
 8321 2484 A33B0000 		.4byte	.LASF945
 8322 2488 CD00     		.sleb128 77
 8323 248a 0E       		.uleb128 0xe
 8324 248b 893D0000 		.4byte	.LASF946
 8325 248f CE00     		.sleb128 78
 8326 2491 0E       		.uleb128 0xe
 8327 2492 D1400000 		.4byte	.LASF947
 8328 2496 CF00     		.sleb128 79
 8329 2498 0E       		.uleb128 0xe
 8330 2499 0D300000 		.4byte	.LASF948
 8331 249d D000     		.sleb128 80
 8332 249f 0E       		.uleb128 0xe
 8333 24a0 5C240000 		.4byte	.LASF949
 8334 24a4 D100     		.sleb128 81
 8335 24a6 0E       		.uleb128 0xe
 8336 24a7 860B0000 		.4byte	.LASF950
 8337 24ab D200     		.sleb128 82
 8338 24ad 0E       		.uleb128 0xe
 8339 24ae 080C0000 		.4byte	.LASF951
 8340 24b2 D300     		.sleb128 83
 8341 24b4 0E       		.uleb128 0xe
 8342 24b5 D53C0000 		.4byte	.LASF952
 8343 24b9 D400     		.sleb128 84
 8344 24bb 0E       		.uleb128 0xe
 8345 24bc 65340000 		.4byte	.LASF953
 8346 24c0 D500     		.sleb128 85
 8347 24c2 0E       		.uleb128 0xe
 8348 24c3 00410000 		.4byte	.LASF954
 8349 24c7 D600     		.sleb128 86
 8350 24c9 0E       		.uleb128 0xe
 8351 24ca 9E3D0000 		.4byte	.LASF955
 8352 24ce D700     		.sleb128 87
 8353 24d0 0E       		.uleb128 0xe
 8354 24d1 68230000 		.4byte	.LASF956
 8355 24d5 D800     		.sleb128 88
 8356 24d7 0E       		.uleb128 0xe
 8357 24d8 A10D0000 		.4byte	.LASF957
 8358 24dc D900     		.sleb128 89
 8359 24de 0E       		.uleb128 0xe
 8360 24df F1300000 		.4byte	.LASF958
 8361 24e3 DA00     		.sleb128 90
 8362 24e5 0E       		.uleb128 0xe
 8363 24e6 CE390000 		.4byte	.LASF959
 8364 24ea DB00     		.sleb128 91
 8365 24ec 0E       		.uleb128 0xe
ARM GAS  C:\Users\AHMED~1.ELE\AppData\Local\Temp\ccLLYyS4.s 			page 180


 8366 24ed 0F080000 		.4byte	.LASF960
 8367 24f1 DC00     		.sleb128 92
 8368 24f3 0E       		.uleb128 0xe
 8369 24f4 E21F0000 		.4byte	.LASF961
 8370 24f8 DD00     		.sleb128 93
 8371 24fa 0E       		.uleb128 0xe
 8372 24fb 7A260000 		.4byte	.LASF962
 8373 24ff DE00     		.sleb128 94
 8374 2501 0E       		.uleb128 0xe
 8375 2502 D50F0000 		.4byte	.LASF963
 8376 2506 DF00     		.sleb128 95
 8377 2508 0E       		.uleb128 0xe
 8378 2509 A23E0000 		.4byte	.LASF964
 8379 250d E000     		.sleb128 96
 8380 250f 0E       		.uleb128 0xe
 8381 2510 0A370000 		.4byte	.LASF965
 8382 2514 E100     		.sleb128 97
 8383 2516 0E       		.uleb128 0xe
 8384 2517 AB080000 		.4byte	.LASF966
 8385 251b E200     		.sleb128 98
 8386 251d 0E       		.uleb128 0xe
 8387 251e 682B0000 		.4byte	.LASF967
 8388 2522 E300     		.sleb128 99
 8389 2524 0E       		.uleb128 0xe
 8390 2525 542D0000 		.4byte	.LASF968
 8391 2529 E400     		.sleb128 100
 8392 252b 0E       		.uleb128 0xe
 8393 252c 903A0000 		.4byte	.LASF969
 8394 2530 E500     		.sleb128 101
 8395 2532 0E       		.uleb128 0xe
 8396 2533 E6430000 		.4byte	.LASF970
 8397 2537 E600     		.sleb128 102
 8398 2539 0E       		.uleb128 0xe
 8399 253a 55080000 		.4byte	.LASF971
 8400 253e E700     		.sleb128 103
 8401 2540 0E       		.uleb128 0xe
 8402 2541 1A1D0000 		.4byte	.LASF972
 8403 2545 E800     		.sleb128 104
 8404 2547 0E       		.uleb128 0xe
 8405 2548 DC120000 		.4byte	.LASF973
 8406 254c E900     		.sleb128 105
 8407 254e 0E       		.uleb128 0xe
 8408 254f 5C020000 		.4byte	.LASF974
 8409 2553 EA00     		.sleb128 106
 8410 2555 0E       		.uleb128 0xe
 8411 2556 D22D0000 		.4byte	.LASF975
 8412 255a EB00     		.sleb128 107
 8413 255c 0E       		.uleb128 0xe
 8414 255d 860E0000 		.4byte	.LASF976
 8415 2561 EC00     		.sleb128 108
 8416 2563 0E       		.uleb128 0xe
 8417 2564 960E0000 		.4byte	.LASF977
 8418 2568 ED00     		.sleb128 109
 8419 256a 0E       		.uleb128 0xe
 8420 256b A60E0000 		.4byte	.LASF978
 8421 256f EE00     		.sleb128 110
 8422 2571 0E       		.uleb128 0xe
ARM GAS  C:\Users\AHMED~1.ELE\AppData\Local\Temp\ccLLYyS4.s 			page 181


 8423 2572 B60E0000 		.4byte	.LASF979
 8424 2576 EF00     		.sleb128 111
 8425 2578 0E       		.uleb128 0xe
 8426 2579 6E2C0000 		.4byte	.LASF980
 8427 257d F000     		.sleb128 112
 8428 257f 0E       		.uleb128 0xe
 8429 2580 6E060000 		.4byte	.LASF981
 8430 2584 F100     		.sleb128 113
 8431 2586 0E       		.uleb128 0xe
 8432 2587 DF1A0000 		.4byte	.LASF982
 8433 258b F200     		.sleb128 114
 8434 258d 0E       		.uleb128 0xe
 8435 258e F93A0000 		.4byte	.LASF983
 8436 2592 F300     		.sleb128 115
 8437 2594 0E       		.uleb128 0xe
 8438 2595 A60F0000 		.4byte	.LASF984
 8439 2599 F400     		.sleb128 116
 8440 259b 0E       		.uleb128 0xe
 8441 259c 15040000 		.4byte	.LASF985
 8442 25a0 F500     		.sleb128 117
 8443 25a2 0E       		.uleb128 0xe
 8444 25a3 D21D0000 		.4byte	.LASF986
 8445 25a7 F600     		.sleb128 118
 8446 25a9 0E       		.uleb128 0xe
 8447 25aa B8420000 		.4byte	.LASF987
 8448 25ae F700     		.sleb128 119
 8449 25b0 0E       		.uleb128 0xe
 8450 25b1 12210000 		.4byte	.LASF988
 8451 25b5 F800     		.sleb128 120
 8452 25b7 0E       		.uleb128 0xe
 8453 25b8 1C3D0000 		.4byte	.LASF989
 8454 25bc F900     		.sleb128 121
 8455 25be 0E       		.uleb128 0xe
 8456 25bf 2B1A0000 		.4byte	.LASF990
 8457 25c3 FA00     		.sleb128 122
 8458 25c5 0E       		.uleb128 0xe
 8459 25c6 053A0000 		.4byte	.LASF991
 8460 25ca FB00     		.sleb128 123
 8461 25cc 0E       		.uleb128 0xe
 8462 25cd C1440000 		.4byte	.LASF992
 8463 25d1 FC00     		.sleb128 124
 8464 25d3 0E       		.uleb128 0xe
 8465 25d4 600E0000 		.4byte	.LASF993
 8466 25d8 FD00     		.sleb128 125
 8467 25da 0E       		.uleb128 0xe
 8468 25db 66420000 		.4byte	.LASF994
 8469 25df FE00     		.sleb128 126
 8470 25e1 0E       		.uleb128 0xe
 8471 25e2 DC240000 		.4byte	.LASF995
 8472 25e6 FF00     		.sleb128 127
 8473 25e8 0E       		.uleb128 0xe
 8474 25e9 35340000 		.4byte	.LASF996
 8475 25ed 8001     		.sleb128 128
 8476 25ef 0E       		.uleb128 0xe
 8477 25f0 3A040000 		.4byte	.LASF997
 8478 25f4 8101     		.sleb128 129
 8479 25f6 0E       		.uleb128 0xe
ARM GAS  C:\Users\AHMED~1.ELE\AppData\Local\Temp\ccLLYyS4.s 			page 182


 8480 25f7 0B290000 		.4byte	.LASF998
 8481 25fb 8201     		.sleb128 130
 8482 25fd 0E       		.uleb128 0xe
 8483 25fe 94420000 		.4byte	.LASF999
 8484 2602 8301     		.sleb128 131
 8485 2604 0E       		.uleb128 0xe
 8486 2605 94180000 		.4byte	.LASF1000
 8487 2609 8401     		.sleb128 132
 8488 260b 0E       		.uleb128 0xe
 8489 260c A3110000 		.4byte	.LASF1001
 8490 2610 8501     		.sleb128 133
 8491 2612 0E       		.uleb128 0xe
 8492 2613 C6360000 		.4byte	.LASF1002
 8493 2617 8601     		.sleb128 134
 8494 2619 0E       		.uleb128 0xe
 8495 261a 6C050000 		.4byte	.LASF1003
 8496 261e 8701     		.sleb128 135
 8497 2620 0E       		.uleb128 0xe
 8498 2621 F9050000 		.4byte	.LASF1004
 8499 2625 8801     		.sleb128 136
 8500 2627 0E       		.uleb128 0xe
 8501 2628 C3220000 		.4byte	.LASF1005
 8502 262c 8901     		.sleb128 137
 8503 262e 0E       		.uleb128 0xe
 8504 262f 8C210000 		.4byte	.LASF1006
 8505 2633 8A01     		.sleb128 138
 8506 2635 0E       		.uleb128 0xe
 8507 2636 092E0000 		.4byte	.LASF1007
 8508 263a 8B01     		.sleb128 139
 8509 263c 0E       		.uleb128 0xe
 8510 263d 1C410000 		.4byte	.LASF1008
 8511 2641 8C01     		.sleb128 140
 8512 2643 0E       		.uleb128 0xe
 8513 2644 21230000 		.4byte	.LASF1009
 8514 2648 8D01     		.sleb128 141
 8515 264a 0E       		.uleb128 0xe
 8516 264b FA0E0000 		.4byte	.LASF1010
 8517 264f 8E01     		.sleb128 142
 8518 2651 0E       		.uleb128 0xe
 8519 2652 31330000 		.4byte	.LASF1011
 8520 2656 8F01     		.sleb128 143
 8521 2658 0E       		.uleb128 0xe
 8522 2659 362B0000 		.4byte	.LASF1012
 8523 265d 9001     		.sleb128 144
 8524 265f 0E       		.uleb128 0xe
 8525 2660 67320000 		.4byte	.LASF1013
 8526 2664 9101     		.sleb128 145
 8527 2666 00       		.byte	0
 8528 2667 14       		.uleb128 0x14
 8529 2668 4D3B0000 		.4byte	.LASF1014
 8530 266c 0003     		.2byte	0x300
 8531 266e 0E       		.byte	0xe
 8532 266f 33       		.byte	0x33
 8533 2670 D7270000 		.4byte	0x27d7
 8534 2674 0B       		.uleb128 0xb
 8535 2675 A6030000 		.4byte	.LASF776
 8536 2679 0E       		.byte	0xe
ARM GAS  C:\Users\AHMED~1.ELE\AppData\Local\Temp\ccLLYyS4.s 			page 183


 8537 267a 34       		.byte	0x34
 8538 267b 9C000000 		.4byte	0x9c
 8539 267f 00       		.byte	0
 8540 2680 0B       		.uleb128 0xb
 8541 2681 AC230000 		.4byte	.LASF777
 8542 2685 0E       		.byte	0xe
 8543 2686 34       		.byte	0x34
 8544 2687 9C000000 		.4byte	0x9c
 8545 268b 01       		.byte	0x1
 8546 268c 0B       		.uleb128 0xb
 8547 268d 50020000 		.4byte	.LASF636
 8548 2691 0E       		.byte	0xe
 8549 2692 34       		.byte	0x34
 8550 2693 77010000 		.4byte	0x177
 8551 2697 02       		.byte	0x2
 8552 2698 0B       		.uleb128 0xb
 8553 2699 B91E0000 		.4byte	.LASF778
 8554 269d 0E       		.byte	0xe
 8555 269e 34       		.byte	0x34
 8556 269f 9C000000 		.4byte	0x9c
 8557 26a3 05       		.byte	0x5
 8558 26a4 0B       		.uleb128 0xb
 8559 26a5 A6140000 		.4byte	.LASF637
 8560 26a9 0E       		.byte	0xe
 8561 26aa 34       		.byte	0x34
 8562 26ab 77010000 		.4byte	0x177
 8563 26af 06       		.byte	0x6
 8564 26b0 0B       		.uleb128 0xb
 8565 26b1 60310000 		.4byte	.LASF779
 8566 26b5 0E       		.byte	0xe
 8567 26b6 34       		.byte	0x34
 8568 26b7 97010000 		.4byte	0x197
 8569 26bb 09       		.byte	0x9
 8570 26bc 0B       		.uleb128 0xb
 8571 26bd 27400000 		.4byte	.LASF780
 8572 26c1 0E       		.byte	0xe
 8573 26c2 34       		.byte	0x34
 8574 26c3 D3000000 		.4byte	0xd3
 8575 26c7 13       		.byte	0x13
 8576 26c8 0B       		.uleb128 0xb
 8577 26c9 55400000 		.4byte	.LASF781
 8578 26cd 0E       		.byte	0xe
 8579 26ce 34       		.byte	0x34
 8580 26cf 9C000000 		.4byte	0x9c
 8581 26d3 15       		.byte	0x15
 8582 26d4 0B       		.uleb128 0xb
 8583 26d5 ED380000 		.4byte	.LASF782
 8584 26d9 0E       		.byte	0xe
 8585 26da 34       		.byte	0x34
 8586 26db BD000000 		.4byte	0xbd
 8587 26df 18       		.byte	0x18
 8588 26e0 0B       		.uleb128 0xb
 8589 26e1 90280000 		.4byte	.LASF783
 8590 26e5 0E       		.byte	0xe
 8591 26e6 34       		.byte	0x34
 8592 26e7 BD000000 		.4byte	0xbd
 8593 26eb 20       		.byte	0x20
ARM GAS  C:\Users\AHMED~1.ELE\AppData\Local\Temp\ccLLYyS4.s 			page 184


 8594 26ec 0B       		.uleb128 0xb
 8595 26ed 9D1F0000 		.4byte	.LASF784
 8596 26f1 0E       		.byte	0xe
 8597 26f2 34       		.byte	0x34
 8598 26f3 BD000000 		.4byte	0xbd
 8599 26f7 28       		.byte	0x28
 8600 26f8 0B       		.uleb128 0xb
 8601 26f9 7D190000 		.4byte	.LASF785
 8602 26fd 0E       		.byte	0xe
 8603 26fe 34       		.byte	0x34
 8604 26ff E9000000 		.4byte	0xe9
 8605 2703 30       		.byte	0x30
 8606 2704 0B       		.uleb128 0xb
 8607 2705 07440000 		.4byte	.LASF786
 8608 2709 0E       		.byte	0xe
 8609 270a 34       		.byte	0x34
 8610 270b 9C000000 		.4byte	0x9c
 8611 270f 34       		.byte	0x34
 8612 2710 0B       		.uleb128 0xb
 8613 2711 C4380000 		.4byte	.LASF787
 8614 2715 0E       		.byte	0xe
 8615 2716 34       		.byte	0x34
 8616 2717 FB1C0000 		.4byte	0x1cfb
 8617 271b 35       		.byte	0x35
 8618 271c 0B       		.uleb128 0xb
 8619 271d 763C0000 		.4byte	.LASF788
 8620 2721 0E       		.byte	0xe
 8621 2722 34       		.byte	0x34
 8622 2723 B7010000 		.4byte	0x1b7
 8623 2727 4F       		.byte	0x4f
 8624 2728 0B       		.uleb128 0xb
 8625 2729 BC400000 		.4byte	.LASF789
 8626 272d 0E       		.byte	0xe
 8627 272e 34       		.byte	0x34
 8628 272f BB0E0000 		.4byte	0xebb
 8629 2733 5F       		.byte	0x5f
 8630 2734 0B       		.uleb128 0xb
 8631 2735 502B0000 		.4byte	.LASF790
 8632 2739 0E       		.byte	0xe
 8633 273a 34       		.byte	0x34
 8634 273b A7000000 		.4byte	0xa7
 8635 273f 66       		.byte	0x66
 8636 2740 0B       		.uleb128 0xb
 8637 2741 A2240000 		.4byte	.LASF791
 8638 2745 0E       		.byte	0xe
 8639 2746 34       		.byte	0x34
 8640 2747 9C000000 		.4byte	0x9c
 8641 274b 68       		.byte	0x68
 8642 274c 0B       		.uleb128 0xb
 8643 274d A7420000 		.4byte	.LASF792
 8644 2751 0E       		.byte	0xe
 8645 2752 34       		.byte	0x34
 8646 2753 DE150000 		.4byte	0x15de
 8647 2757 69       		.byte	0x69
 8648 2758 0B       		.uleb128 0xb
 8649 2759 7B360000 		.4byte	.LASF793
 8650 275d 0E       		.byte	0xe
ARM GAS  C:\Users\AHMED~1.ELE\AppData\Local\Temp\ccLLYyS4.s 			page 185


 8651 275e 34       		.byte	0x34
 8652 275f A7000000 		.4byte	0xa7
 8653 2763 76       		.byte	0x76
 8654 2764 0B       		.uleb128 0xb
 8655 2765 591F0000 		.4byte	.LASF794
 8656 2769 0E       		.byte	0xe
 8657 276a 34       		.byte	0x34
 8658 276b A7000000 		.4byte	0xa7
 8659 276f 78       		.byte	0x78
 8660 2770 0B       		.uleb128 0xb
 8661 2771 D6120000 		.4byte	.LASF795
 8662 2775 0E       		.byte	0xe
 8663 2776 34       		.byte	0x34
 8664 2777 EC1A0000 		.4byte	0x1aec
 8665 277b 7C       		.byte	0x7c
 8666 277c 0B       		.uleb128 0xb
 8667 277d 62010000 		.4byte	.LASF796
 8668 2781 0E       		.byte	0xe
 8669 2782 34       		.byte	0x34
 8670 2783 4D1B0000 		.4byte	0x1b4d
 8671 2787 84       		.byte	0x84
 8672 2788 1B       		.uleb128 0x1b
 8673 2789 B43E0000 		.4byte	.LASF1015
 8674 278d 0E       		.byte	0xe
 8675 278e 35       		.byte	0x35
 8676 278f C7010000 		.4byte	0x1c7
 8677 2793 F801     		.2byte	0x1f8
 8678 2795 1B       		.uleb128 0x1b
 8679 2796 703A0000 		.4byte	.LASF1016
 8680 279a 0E       		.byte	0xe
 8681 279b 36       		.byte	0x36
 8682 279c 670F0000 		.4byte	0xf67
 8683 27a0 0002     		.2byte	0x200
 8684 27a2 1B       		.uleb128 0x1b
 8685 27a3 52250000 		.4byte	.LASF1017
 8686 27a7 0E       		.byte	0xe
 8687 27a8 37       		.byte	0x37
 8688 27a9 9F0F0000 		.4byte	0xf9f
 8689 27ad A002     		.2byte	0x2a0
 8690 27af 1B       		.uleb128 0x1b
 8691 27b0 B0390000 		.4byte	.LASF1018
 8692 27b4 0E       		.byte	0xe
 8693 27b5 38       		.byte	0x38
 8694 27b6 A7000000 		.4byte	0xa7
 8695 27ba F402     		.2byte	0x2f4
 8696 27bc 1B       		.uleb128 0x1b
 8697 27bd 47090000 		.4byte	.LASF1019
 8698 27c1 0E       		.byte	0xe
 8699 27c2 39       		.byte	0x39
 8700 27c3 9C000000 		.4byte	0x9c
 8701 27c7 F602     		.2byte	0x2f6
 8702 27c9 1B       		.uleb128 0x1b
 8703 27ca ED190000 		.4byte	.LASF1020
 8704 27ce 0E       		.byte	0xe
 8705 27cf 3A       		.byte	0x3a
 8706 27d0 E9000000 		.4byte	0xe9
 8707 27d4 F702     		.2byte	0x2f7
ARM GAS  C:\Users\AHMED~1.ELE\AppData\Local\Temp\ccLLYyS4.s 			page 186


 8708 27d6 00       		.byte	0
 8709 27d7 14       		.uleb128 0x14
 8710 27d8 42010000 		.4byte	.LASF1021
 8711 27dc 0802     		.2byte	0x208
 8712 27de 0E       		.byte	0xe
 8713 27df 3D       		.byte	0x3d
 8714 27e0 2D290000 		.4byte	0x292d
 8715 27e4 0B       		.uleb128 0xb
 8716 27e5 A6030000 		.4byte	.LASF776
 8717 27e9 0E       		.byte	0xe
 8718 27ea 3E       		.byte	0x3e
 8719 27eb 9C000000 		.4byte	0x9c
 8720 27ef 00       		.byte	0
 8721 27f0 0B       		.uleb128 0xb
 8722 27f1 AC230000 		.4byte	.LASF777
 8723 27f5 0E       		.byte	0xe
 8724 27f6 3E       		.byte	0x3e
 8725 27f7 9C000000 		.4byte	0x9c
 8726 27fb 01       		.byte	0x1
 8727 27fc 0B       		.uleb128 0xb
 8728 27fd 50020000 		.4byte	.LASF636
 8729 2801 0E       		.byte	0xe
 8730 2802 3E       		.byte	0x3e
 8731 2803 77010000 		.4byte	0x177
 8732 2807 02       		.byte	0x2
 8733 2808 0B       		.uleb128 0xb
 8734 2809 B91E0000 		.4byte	.LASF778
 8735 280d 0E       		.byte	0xe
 8736 280e 3E       		.byte	0x3e
 8737 280f 9C000000 		.4byte	0x9c
 8738 2813 05       		.byte	0x5
 8739 2814 0B       		.uleb128 0xb
 8740 2815 A6140000 		.4byte	.LASF637
 8741 2819 0E       		.byte	0xe
 8742 281a 3E       		.byte	0x3e
 8743 281b 77010000 		.4byte	0x177
 8744 281f 06       		.byte	0x6
 8745 2820 0B       		.uleb128 0xb
 8746 2821 60310000 		.4byte	.LASF779
 8747 2825 0E       		.byte	0xe
 8748 2826 3E       		.byte	0x3e
 8749 2827 97010000 		.4byte	0x197
 8750 282b 09       		.byte	0x9
 8751 282c 0B       		.uleb128 0xb
 8752 282d 27400000 		.4byte	.LASF780
 8753 2831 0E       		.byte	0xe
 8754 2832 3E       		.byte	0x3e
 8755 2833 D3000000 		.4byte	0xd3
 8756 2837 13       		.byte	0x13
 8757 2838 0B       		.uleb128 0xb
 8758 2839 55400000 		.4byte	.LASF781
 8759 283d 0E       		.byte	0xe
 8760 283e 3E       		.byte	0x3e
 8761 283f 9C000000 		.4byte	0x9c
 8762 2843 15       		.byte	0x15
 8763 2844 0B       		.uleb128 0xb
 8764 2845 ED380000 		.4byte	.LASF782
ARM GAS  C:\Users\AHMED~1.ELE\AppData\Local\Temp\ccLLYyS4.s 			page 187


 8765 2849 0E       		.byte	0xe
 8766 284a 3E       		.byte	0x3e
 8767 284b BD000000 		.4byte	0xbd
 8768 284f 18       		.byte	0x18
 8769 2850 0B       		.uleb128 0xb
 8770 2851 90280000 		.4byte	.LASF783
 8771 2855 0E       		.byte	0xe
 8772 2856 3E       		.byte	0x3e
 8773 2857 BD000000 		.4byte	0xbd
 8774 285b 20       		.byte	0x20
 8775 285c 0B       		.uleb128 0xb
 8776 285d 9D1F0000 		.4byte	.LASF784
 8777 2861 0E       		.byte	0xe
 8778 2862 3E       		.byte	0x3e
 8779 2863 BD000000 		.4byte	0xbd
 8780 2867 28       		.byte	0x28
 8781 2868 0B       		.uleb128 0xb
 8782 2869 7D190000 		.4byte	.LASF785
 8783 286d 0E       		.byte	0xe
 8784 286e 3E       		.byte	0x3e
 8785 286f E9000000 		.4byte	0xe9
 8786 2873 30       		.byte	0x30
 8787 2874 0B       		.uleb128 0xb
 8788 2875 07440000 		.4byte	.LASF786
 8789 2879 0E       		.byte	0xe
 8790 287a 3E       		.byte	0x3e
 8791 287b 9C000000 		.4byte	0x9c
 8792 287f 34       		.byte	0x34
 8793 2880 0B       		.uleb128 0xb
 8794 2881 C4380000 		.4byte	.LASF787
 8795 2885 0E       		.byte	0xe
 8796 2886 3E       		.byte	0x3e
 8797 2887 FB1C0000 		.4byte	0x1cfb
 8798 288b 35       		.byte	0x35
 8799 288c 0B       		.uleb128 0xb
 8800 288d 763C0000 		.4byte	.LASF788
 8801 2891 0E       		.byte	0xe
 8802 2892 3E       		.byte	0x3e
 8803 2893 B7010000 		.4byte	0x1b7
 8804 2897 4F       		.byte	0x4f
 8805 2898 0B       		.uleb128 0xb
 8806 2899 BC400000 		.4byte	.LASF789
 8807 289d 0E       		.byte	0xe
 8808 289e 3E       		.byte	0x3e
 8809 289f BB0E0000 		.4byte	0xebb
 8810 28a3 5F       		.byte	0x5f
 8811 28a4 0B       		.uleb128 0xb
 8812 28a5 502B0000 		.4byte	.LASF790
 8813 28a9 0E       		.byte	0xe
 8814 28aa 3E       		.byte	0x3e
 8815 28ab A7000000 		.4byte	0xa7
 8816 28af 66       		.byte	0x66
 8817 28b0 0B       		.uleb128 0xb
 8818 28b1 A2240000 		.4byte	.LASF791
 8819 28b5 0E       		.byte	0xe
 8820 28b6 3E       		.byte	0x3e
 8821 28b7 9C000000 		.4byte	0x9c
ARM GAS  C:\Users\AHMED~1.ELE\AppData\Local\Temp\ccLLYyS4.s 			page 188


 8822 28bb 68       		.byte	0x68
 8823 28bc 0B       		.uleb128 0xb
 8824 28bd A7420000 		.4byte	.LASF792
 8825 28c1 0E       		.byte	0xe
 8826 28c2 3E       		.byte	0x3e
 8827 28c3 DE150000 		.4byte	0x15de
 8828 28c7 69       		.byte	0x69
 8829 28c8 0B       		.uleb128 0xb
 8830 28c9 7B360000 		.4byte	.LASF793
 8831 28cd 0E       		.byte	0xe
 8832 28ce 3E       		.byte	0x3e
 8833 28cf A7000000 		.4byte	0xa7
 8834 28d3 76       		.byte	0x76
 8835 28d4 0B       		.uleb128 0xb
 8836 28d5 591F0000 		.4byte	.LASF794
 8837 28d9 0E       		.byte	0xe
 8838 28da 3E       		.byte	0x3e
 8839 28db A7000000 		.4byte	0xa7
 8840 28df 78       		.byte	0x78
 8841 28e0 0B       		.uleb128 0xb
 8842 28e1 D6120000 		.4byte	.LASF795
 8843 28e5 0E       		.byte	0xe
 8844 28e6 3E       		.byte	0x3e
 8845 28e7 EC1A0000 		.4byte	0x1aec
 8846 28eb 7C       		.byte	0x7c
 8847 28ec 0B       		.uleb128 0xb
 8848 28ed 62010000 		.4byte	.LASF796
 8849 28f1 0E       		.byte	0xe
 8850 28f2 3E       		.byte	0x3e
 8851 28f3 4D1B0000 		.4byte	0x1b4d
 8852 28f7 84       		.byte	0x84
 8853 28f8 1B       		.uleb128 0x1b
 8854 28f9 B43E0000 		.4byte	.LASF1015
 8855 28fd 0E       		.byte	0xe
 8856 28fe 3F       		.byte	0x3f
 8857 28ff C7010000 		.4byte	0x1c7
 8858 2903 F801     		.2byte	0x1f8
 8859 2905 1B       		.uleb128 0x1b
 8860 2906 7D040000 		.4byte	.LASF1022
 8861 290a 0E       		.byte	0xe
 8862 290b 40       		.byte	0x40
 8863 290c 77010000 		.4byte	0x177
 8864 2910 0002     		.2byte	0x200
 8865 2912 1B       		.uleb128 0x1b
 8866 2913 25370000 		.4byte	.LASF1023
 8867 2917 0E       		.byte	0xe
 8868 2918 41       		.byte	0x41
 8869 2919 9C000000 		.4byte	0x9c
 8870 291d 0302     		.2byte	0x203
 8871 291f 1B       		.uleb128 0x1b
 8872 2920 C4070000 		.4byte	.LASF1024
 8873 2924 0E       		.byte	0xe
 8874 2925 42       		.byte	0x42
 8875 2926 77010000 		.4byte	0x177
 8876 292a 0402     		.2byte	0x204
 8877 292c 00       		.byte	0
 8878 292d 14       		.uleb128 0x14
ARM GAS  C:\Users\AHMED~1.ELE\AppData\Local\Temp\ccLLYyS4.s 			page 189


 8879 292e 82060000 		.4byte	.LASF1025
 8880 2932 4002     		.2byte	0x240
 8881 2934 0E       		.byte	0xe
 8882 2935 45       		.byte	0x45
 8883 2936 692A0000 		.4byte	0x2a69
 8884 293a 0B       		.uleb128 0xb
 8885 293b A6030000 		.4byte	.LASF776
 8886 293f 0E       		.byte	0xe
 8887 2940 46       		.byte	0x46
 8888 2941 9C000000 		.4byte	0x9c
 8889 2945 00       		.byte	0
 8890 2946 0B       		.uleb128 0xb
 8891 2947 AC230000 		.4byte	.LASF777
 8892 294b 0E       		.byte	0xe
 8893 294c 46       		.byte	0x46
 8894 294d 9C000000 		.4byte	0x9c
 8895 2951 01       		.byte	0x1
 8896 2952 0B       		.uleb128 0xb
 8897 2953 50020000 		.4byte	.LASF636
 8898 2957 0E       		.byte	0xe
 8899 2958 46       		.byte	0x46
 8900 2959 77010000 		.4byte	0x177
 8901 295d 02       		.byte	0x2
 8902 295e 0B       		.uleb128 0xb
 8903 295f B91E0000 		.4byte	.LASF778
 8904 2963 0E       		.byte	0xe
 8905 2964 46       		.byte	0x46
 8906 2965 9C000000 		.4byte	0x9c
 8907 2969 05       		.byte	0x5
 8908 296a 0B       		.uleb128 0xb
 8909 296b A6140000 		.4byte	.LASF637
 8910 296f 0E       		.byte	0xe
 8911 2970 46       		.byte	0x46
 8912 2971 77010000 		.4byte	0x177
 8913 2975 06       		.byte	0x6
 8914 2976 0B       		.uleb128 0xb
 8915 2977 60310000 		.4byte	.LASF779
 8916 297b 0E       		.byte	0xe
 8917 297c 46       		.byte	0x46
 8918 297d 97010000 		.4byte	0x197
 8919 2981 09       		.byte	0x9
 8920 2982 0B       		.uleb128 0xb
 8921 2983 27400000 		.4byte	.LASF780
 8922 2987 0E       		.byte	0xe
 8923 2988 46       		.byte	0x46
 8924 2989 D3000000 		.4byte	0xd3
 8925 298d 13       		.byte	0x13
 8926 298e 0B       		.uleb128 0xb
 8927 298f 55400000 		.4byte	.LASF781
 8928 2993 0E       		.byte	0xe
 8929 2994 46       		.byte	0x46
 8930 2995 9C000000 		.4byte	0x9c
 8931 2999 15       		.byte	0x15
 8932 299a 0B       		.uleb128 0xb
 8933 299b ED380000 		.4byte	.LASF782
 8934 299f 0E       		.byte	0xe
 8935 29a0 46       		.byte	0x46
ARM GAS  C:\Users\AHMED~1.ELE\AppData\Local\Temp\ccLLYyS4.s 			page 190


 8936 29a1 BD000000 		.4byte	0xbd
 8937 29a5 18       		.byte	0x18
 8938 29a6 0B       		.uleb128 0xb
 8939 29a7 90280000 		.4byte	.LASF783
 8940 29ab 0E       		.byte	0xe
 8941 29ac 46       		.byte	0x46
 8942 29ad BD000000 		.4byte	0xbd
 8943 29b1 20       		.byte	0x20
 8944 29b2 0B       		.uleb128 0xb
 8945 29b3 9D1F0000 		.4byte	.LASF784
 8946 29b7 0E       		.byte	0xe
 8947 29b8 46       		.byte	0x46
 8948 29b9 BD000000 		.4byte	0xbd
 8949 29bd 28       		.byte	0x28
 8950 29be 0B       		.uleb128 0xb
 8951 29bf 7D190000 		.4byte	.LASF785
 8952 29c3 0E       		.byte	0xe
 8953 29c4 46       		.byte	0x46
 8954 29c5 E9000000 		.4byte	0xe9
 8955 29c9 30       		.byte	0x30
 8956 29ca 0B       		.uleb128 0xb
 8957 29cb 07440000 		.4byte	.LASF786
 8958 29cf 0E       		.byte	0xe
 8959 29d0 46       		.byte	0x46
 8960 29d1 9C000000 		.4byte	0x9c
 8961 29d5 34       		.byte	0x34
 8962 29d6 0B       		.uleb128 0xb
 8963 29d7 C4380000 		.4byte	.LASF787
 8964 29db 0E       		.byte	0xe
 8965 29dc 46       		.byte	0x46
 8966 29dd FB1C0000 		.4byte	0x1cfb
 8967 29e1 35       		.byte	0x35
 8968 29e2 0B       		.uleb128 0xb
 8969 29e3 763C0000 		.4byte	.LASF788
 8970 29e7 0E       		.byte	0xe
 8971 29e8 46       		.byte	0x46
 8972 29e9 B7010000 		.4byte	0x1b7
 8973 29ed 4F       		.byte	0x4f
 8974 29ee 0B       		.uleb128 0xb
 8975 29ef BC400000 		.4byte	.LASF789
 8976 29f3 0E       		.byte	0xe
 8977 29f4 46       		.byte	0x46
 8978 29f5 BB0E0000 		.4byte	0xebb
 8979 29f9 5F       		.byte	0x5f
 8980 29fa 0B       		.uleb128 0xb
 8981 29fb 502B0000 		.4byte	.LASF790
 8982 29ff 0E       		.byte	0xe
 8983 2a00 46       		.byte	0x46
 8984 2a01 A7000000 		.4byte	0xa7
 8985 2a05 66       		.byte	0x66
 8986 2a06 0B       		.uleb128 0xb
 8987 2a07 A2240000 		.4byte	.LASF791
 8988 2a0b 0E       		.byte	0xe
 8989 2a0c 46       		.byte	0x46
 8990 2a0d 9C000000 		.4byte	0x9c
 8991 2a11 68       		.byte	0x68
 8992 2a12 0B       		.uleb128 0xb
ARM GAS  C:\Users\AHMED~1.ELE\AppData\Local\Temp\ccLLYyS4.s 			page 191


 8993 2a13 A7420000 		.4byte	.LASF792
 8994 2a17 0E       		.byte	0xe
 8995 2a18 46       		.byte	0x46
 8996 2a19 DE150000 		.4byte	0x15de
 8997 2a1d 69       		.byte	0x69
 8998 2a1e 0B       		.uleb128 0xb
 8999 2a1f 7B360000 		.4byte	.LASF793
 9000 2a23 0E       		.byte	0xe
 9001 2a24 46       		.byte	0x46
 9002 2a25 A7000000 		.4byte	0xa7
 9003 2a29 76       		.byte	0x76
 9004 2a2a 0B       		.uleb128 0xb
 9005 2a2b 591F0000 		.4byte	.LASF794
 9006 2a2f 0E       		.byte	0xe
 9007 2a30 46       		.byte	0x46
 9008 2a31 A7000000 		.4byte	0xa7
 9009 2a35 78       		.byte	0x78
 9010 2a36 0B       		.uleb128 0xb
 9011 2a37 D6120000 		.4byte	.LASF795
 9012 2a3b 0E       		.byte	0xe
 9013 2a3c 46       		.byte	0x46
 9014 2a3d EC1A0000 		.4byte	0x1aec
 9015 2a41 7C       		.byte	0x7c
 9016 2a42 0B       		.uleb128 0xb
 9017 2a43 62010000 		.4byte	.LASF796
 9018 2a47 0E       		.byte	0xe
 9019 2a48 46       		.byte	0x46
 9020 2a49 4D1B0000 		.4byte	0x1b4d
 9021 2a4d 84       		.byte	0x84
 9022 2a4e 1B       		.uleb128 0x1b
 9023 2a4f 9B030000 		.4byte	.LASF1026
 9024 2a53 0E       		.byte	0xe
 9025 2a54 47       		.byte	0x47
 9026 2a55 9C000000 		.4byte	0x9c
 9027 2a59 F801     		.2byte	0x1f8
 9028 2a5b 1B       		.uleb128 0x1b
 9029 2a5c 422C0000 		.4byte	.LASF1027
 9030 2a60 0E       		.byte	0xe
 9031 2a61 48       		.byte	0x48
 9032 2a62 692A0000 		.4byte	0x2a69
 9033 2a66 F901     		.2byte	0x1f9
 9034 2a68 00       		.byte	0
 9035 2a69 08       		.uleb128 0x8
 9036 2a6a 9C000000 		.4byte	0x9c
 9037 2a6e 792A0000 		.4byte	0x2a79
 9038 2a72 09       		.uleb128 0x9
 9039 2a73 76000000 		.4byte	0x76
 9040 2a77 45       		.byte	0x45
 9041 2a78 00       		.byte	0
 9042 2a79 14       		.uleb128 0x14
 9043 2a7a F7380000 		.4byte	.LASF1028
 9044 2a7e 4807     		.2byte	0x748
 9045 2a80 0E       		.byte	0xe
 9046 2a81 4E       		.byte	0x4e
 9047 2a82 AD2A0000 		.4byte	0x2aad
 9048 2a86 0B       		.uleb128 0xb
 9049 2a87 8E160000 		.4byte	.LASF1029
ARM GAS  C:\Users\AHMED~1.ELE\AppData\Local\Temp\ccLLYyS4.s 			page 192


 9050 2a8b 0E       		.byte	0xe
 9051 2a8c 4F       		.byte	0x4f
 9052 2a8d 67260000 		.4byte	0x2667
 9053 2a91 00       		.byte	0
 9054 2a92 1B       		.uleb128 0x1b
 9055 2a93 AE420000 		.4byte	.LASF1030
 9056 2a97 0E       		.byte	0xe
 9057 2a98 50       		.byte	0x50
 9058 2a99 D7270000 		.4byte	0x27d7
 9059 2a9d 0003     		.2byte	0x300
 9060 2a9f 1B       		.uleb128 0x1b
 9061 2aa0 D20C0000 		.4byte	.LASF1031
 9062 2aa4 0E       		.byte	0xe
 9063 2aa5 51       		.byte	0x51
 9064 2aa6 2D290000 		.4byte	0x292d
 9065 2aaa 0805     		.2byte	0x508
 9066 2aac 00       		.byte	0
 9067 2aad 17       		.uleb128 0x17
 9068 2aae 01       		.byte	0x1
 9069 2aaf 0F       		.byte	0xf
 9070 2ab0 A7       		.byte	0xa7
 9071 2ab1 C82A0000 		.4byte	0x2ac8
 9072 2ab5 0E       		.uleb128 0xe
 9073 2ab6 E4400000 		.4byte	.LASF1032
 9074 2aba 00       		.sleb128 0
 9075 2abb 0E       		.uleb128 0xe
 9076 2abc 84450000 		.4byte	.LASF1033
 9077 2ac0 01       		.sleb128 1
 9078 2ac1 0E       		.uleb128 0xe
 9079 2ac2 94390000 		.4byte	.LASF1034
 9080 2ac6 02       		.sleb128 2
 9081 2ac7 00       		.byte	0
 9082 2ac8 0A       		.uleb128 0xa
 9083 2ac9 08       		.byte	0x8
 9084 2aca 10       		.byte	0x10
 9085 2acb 29       		.byte	0x29
 9086 2acc E92A0000 		.4byte	0x2ae9
 9087 2ad0 0B       		.uleb128 0xb
 9088 2ad1 FB020000 		.4byte	.LASF1035
 9089 2ad5 10       		.byte	0x10
 9090 2ad6 2B       		.byte	0x2b
 9091 2ad7 77010000 		.4byte	0x177
 9092 2adb 00       		.byte	0
 9093 2adc 0B       		.uleb128 0xb
 9094 2add EA330000 		.4byte	.LASF1036
 9095 2ae1 10       		.byte	0x10
 9096 2ae2 2C       		.byte	0x2c
 9097 2ae3 77010000 		.4byte	0x177
 9098 2ae7 03       		.byte	0x3
 9099 2ae8 00       		.byte	0
 9100 2ae9 03       		.uleb128 0x3
 9101 2aea C3150000 		.4byte	.LASF1037
 9102 2aee 10       		.byte	0x10
 9103 2aef 2D       		.byte	0x2d
 9104 2af0 C82A0000 		.4byte	0x2ac8
 9105 2af4 1A       		.uleb128 0x1a
 9106 2af5 463C0000 		.4byte	.LASF1038
ARM GAS  C:\Users\AHMED~1.ELE\AppData\Local\Temp\ccLLYyS4.s 			page 193


 9107 2af9 20       		.byte	0x20
 9108 2afa 01       		.byte	0x1
 9109 2afb 3B       		.byte	0x3b
 9110 2afc 192B0000 		.4byte	0x2b19
 9111 2b00 0B       		.uleb128 0xb
 9112 2b01 9C270000 		.4byte	.LASF1039
 9113 2b05 01       		.byte	0x1
 9114 2b06 3C       		.byte	0x3c
 9115 2b07 91000000 		.4byte	0x91
 9116 2b0b 00       		.byte	0
 9117 2b0c 0B       		.uleb128 0xb
 9118 2b0d 832E0000 		.4byte	.LASF1040
 9119 2b11 01       		.byte	0x1
 9120 2b12 3D       		.byte	0x3d
 9121 2b13 AA1A0000 		.4byte	0x1aaa
 9122 2b17 04       		.byte	0x4
 9123 2b18 00       		.byte	0
 9124 2b19 1D       		.uleb128 0x1d
 9125 2b1a 01200000 		.4byte	.LASF1109
 9126 2b1e 01       		.byte	0x1
 9127 2b1f 4B02     		.2byte	0x24b
 9128 2b21 91000000 		.4byte	0x91
 9129 2b25 01       		.byte	0x1
 9130 2b26 4F2B0000 		.4byte	0x2b4f
 9131 2b2a 1E       		.uleb128 0x1e
 9132 2b2b 64746700 		.ascii	"dtg\000"
 9133 2b2f 01       		.byte	0x1
 9134 2b30 4D02     		.2byte	0x24d
 9135 2b32 EC1A0000 		.4byte	0x1aec
 9136 2b36 1F       		.uleb128 0x1f
 9137 2b37 8A2E0000 		.4byte	.LASF1041
 9138 2b3b 01       		.byte	0x1
 9139 2b3c 4E02     		.2byte	0x24e
 9140 2b3e B2000000 		.4byte	0xb2
 9141 2b42 1F       		.uleb128 0x1f
 9142 2b43 902E0000 		.4byte	.LASF1042
 9143 2b47 01       		.byte	0x1
 9144 2b48 4E02     		.2byte	0x24e
 9145 2b4a B2000000 		.4byte	0xb2
 9146 2b4e 00       		.byte	0
 9147 2b4f 20       		.uleb128 0x20
 9148 2b50 622F0000 		.4byte	.LASF1045
 9149 2b54 01       		.byte	0x1
 9150 2b55 73       		.byte	0x73
 9151 2b56 9C000000 		.4byte	0x9c
 9152 2b5a 01       		.byte	0x1
 9153 2b5b 8A2B0000 		.4byte	0x2b8a
 9154 2b5f 21       		.uleb128 0x21
 9155 2b60 15380000 		.4byte	.LASF1043
 9156 2b64 01       		.byte	0x1
 9157 2b65 73       		.byte	0x73
 9158 2b66 E3000000 		.4byte	0xe3
 9159 2b6a 21       		.uleb128 0x21
 9160 2b6b 9A210000 		.4byte	.LASF1044
 9161 2b6f 01       		.byte	0x1
 9162 2b70 73       		.byte	0x73
 9163 2b71 9C000000 		.4byte	0x9c
ARM GAS  C:\Users\AHMED~1.ELE\AppData\Local\Temp\ccLLYyS4.s 			page 194


 9164 2b75 22       		.uleb128 0x22
 9165 2b76 76616C00 		.ascii	"val\000"
 9166 2b7a 01       		.byte	0x1
 9167 2b7b 75       		.byte	0x75
 9168 2b7c 9C000000 		.4byte	0x9c
 9169 2b80 22       		.uleb128 0x22
 9170 2b81 6900     		.ascii	"i\000"
 9171 2b83 01       		.byte	0x1
 9172 2b84 76       		.byte	0x76
 9173 2b85 9C000000 		.4byte	0x9c
 9174 2b89 00       		.byte	0
 9175 2b8a 20       		.uleb128 0x20
 9176 2b8b 151E0000 		.4byte	.LASF1046
 9177 2b8f 01       		.byte	0x1
 9178 2b90 AB       		.byte	0xab
 9179 2b91 B2000000 		.4byte	0xb2
 9180 2b95 01       		.byte	0x1
 9181 2b96 D22B0000 		.4byte	0x2bd2
 9182 2b9a 21       		.uleb128 0x21
 9183 2b9b BA010000 		.4byte	.LASF1047
 9184 2b9f 01       		.byte	0x1
 9185 2ba0 AB       		.byte	0xab
 9186 2ba1 E3000000 		.4byte	0xe3
 9187 2ba5 21       		.uleb128 0x21
 9188 2ba6 9E160000 		.4byte	.LASF1048
 9189 2baa 01       		.byte	0x1
 9190 2bab AB       		.byte	0xab
 9191 2bac E3000000 		.4byte	0xe3
 9192 2bb0 22       		.uleb128 0x22
 9193 2bb1 69647800 		.ascii	"idx\000"
 9194 2bb5 01       		.byte	0x1
 9195 2bb6 AD       		.byte	0xad
 9196 2bb7 B2000000 		.4byte	0xb2
 9197 2bbb 22       		.uleb128 0x22
 9198 2bbc 6C656E00 		.ascii	"len\000"
 9199 2bc0 01       		.byte	0x1
 9200 2bc1 AE       		.byte	0xae
 9201 2bc2 B2000000 		.4byte	0xb2
 9202 2bc6 22       		.uleb128 0x22
 9203 2bc7 746D7000 		.ascii	"tmp\000"
 9204 2bcb 01       		.byte	0x1
 9205 2bcc AF       		.byte	0xaf
 9206 2bcd D7010000 		.4byte	0x1d7
 9207 2bd1 00       		.byte	0
 9208 2bd2 23       		.uleb128 0x23
 9209 2bd3 4D150000 		.4byte	.LASF1181
 9210 2bd7 01       		.byte	0x1
 9211 2bd8 6203     		.2byte	0x362
 9212 2bda 00000000 		.4byte	.LFB16
 9213 2bde 94000000 		.4byte	.LFE16-.LFB16
 9214 2be2 01       		.uleb128 0x1
 9215 2be3 9C       		.byte	0x9c
 9216 2be4 722D0000 		.4byte	0x2d72
 9217 2be8 24       		.uleb128 0x24
 9218 2be9 06150000 		.4byte	.LASF1050
 9219 2bed 01       		.byte	0x1
 9220 2bee 6203     		.2byte	0x362
ARM GAS  C:\Users\AHMED~1.ELE\AppData\Local\Temp\ccLLYyS4.s 			page 195


 9221 2bf0 E3000000 		.4byte	0xe3
 9222 2bf4 00000000 		.4byte	.LLST0
 9223 2bf8 25       		.uleb128 0x25
 9224 2bf9 FA1C0000 		.4byte	.LASF1049
 9225 2bfd 01       		.byte	0x1
 9226 2bfe 6403     		.2byte	0x364
 9227 2c00 722D0000 		.4byte	0x2d72
 9228 2c04 02       		.uleb128 0x2
 9229 2c05 91       		.byte	0x91
 9230 2c06 54       		.sleb128 -44
 9231 2c07 26       		.uleb128 0x26
 9232 2c08 00000000 		.4byte	.Ldebug_ranges0+0
 9233 2c0c 7B2C0000 		.4byte	0x2c7b
 9234 2c10 27       		.uleb128 0x27
 9235 2c11 6C656E00 		.ascii	"len\000"
 9236 2c15 01       		.byte	0x1
 9237 2c16 6A03     		.2byte	0x36a
 9238 2c18 B2000000 		.4byte	0xb2
 9239 2c1c 45000000 		.4byte	.LLST1
 9240 2c20 27       		.uleb128 0x27
 9241 2c21 70747200 		.ascii	"ptr\000"
 9242 2c25 01       		.byte	0x1
 9243 2c26 6A03     		.2byte	0x36a
 9244 2c28 E3000000 		.4byte	0xe3
 9245 2c2c 63000000 		.4byte	.LLST2
 9246 2c30 28       		.uleb128 0x28
 9247 2c31 3A000000 		.4byte	.LVL4
 9248 2c35 6D4C0000 		.4byte	0x4c6d
 9249 2c39 442C0000 		.4byte	0x2c44
 9250 2c3d 29       		.uleb128 0x29
 9251 2c3e 01       		.uleb128 0x1
 9252 2c3f 50       		.byte	0x50
 9253 2c40 02       		.uleb128 0x2
 9254 2c41 91       		.byte	0x91
 9255 2c42 54       		.sleb128 -44
 9256 2c43 00       		.byte	0
 9257 2c44 28       		.uleb128 0x28
 9258 2c45 44000000 		.4byte	.LVL7
 9259 2c49 824C0000 		.4byte	0x4c82
 9260 2c4d 5E2C0000 		.4byte	0x2c5e
 9261 2c51 29       		.uleb128 0x29
 9262 2c52 01       		.uleb128 0x1
 9263 2c53 51       		.byte	0x51
 9264 2c54 02       		.uleb128 0x2
 9265 2c55 76       		.byte	0x76
 9266 2c56 01       		.sleb128 1
 9267 2c57 29       		.uleb128 0x29
 9268 2c58 01       		.uleb128 0x1
 9269 2c59 50       		.byte	0x50
 9270 2c5a 02       		.uleb128 0x2
 9271 2c5b 08       		.byte	0x8
 9272 2c5c 92       		.byte	0x92
 9273 2c5d 00       		.byte	0
 9274 2c5e 2A       		.uleb128 0x2a
 9275 2c5f 50000000 		.4byte	.LVL9
 9276 2c63 9C4C0000 		.4byte	0x4c9c
 9277 2c67 29       		.uleb128 0x29
ARM GAS  C:\Users\AHMED~1.ELE\AppData\Local\Temp\ccLLYyS4.s 			page 196


 9278 2c68 01       		.uleb128 0x1
 9279 2c69 52       		.byte	0x52
 9280 2c6a 02       		.uleb128 0x2
 9281 2c6b 76       		.byte	0x76
 9282 2c6c 00       		.sleb128 0
 9283 2c6d 29       		.uleb128 0x29
 9284 2c6e 01       		.uleb128 0x1
 9285 2c6f 51       		.byte	0x51
 9286 2c70 02       		.uleb128 0x2
 9287 2c71 91       		.byte	0x91
 9288 2c72 54       		.sleb128 -44
 9289 2c73 29       		.uleb128 0x29
 9290 2c74 01       		.uleb128 0x1
 9291 2c75 50       		.byte	0x50
 9292 2c76 02       		.uleb128 0x2
 9293 2c77 75       		.byte	0x75
 9294 2c78 00       		.sleb128 0
 9295 2c79 00       		.byte	0
 9296 2c7a 00       		.byte	0
 9297 2c7b 2B       		.uleb128 0x2b
 9298 2c7c 58000000 		.4byte	.LBB4
 9299 2c80 38000000 		.4byte	.LBE4-.LBB4
 9300 2c84 282D0000 		.4byte	0x2d28
 9301 2c88 27       		.uleb128 0x27
 9302 2c89 6C656E00 		.ascii	"len\000"
 9303 2c8d 01       		.byte	0x1
 9304 2c8e 6D03     		.2byte	0x36d
 9305 2c90 B2000000 		.4byte	0xb2
 9306 2c94 81000000 		.4byte	.LLST3
 9307 2c98 27       		.uleb128 0x27
 9308 2c99 70747200 		.ascii	"ptr\000"
 9309 2c9d 01       		.byte	0x1
 9310 2c9e 6D03     		.2byte	0x36d
 9311 2ca0 E3000000 		.4byte	0xe3
 9312 2ca4 9F000000 		.4byte	.LLST4
 9313 2ca8 2C       		.uleb128 0x2c
 9314 2ca9 5C000000 		.4byte	.LVL11
 9315 2cad 6D4C0000 		.4byte	0x4c6d
 9316 2cb1 28       		.uleb128 0x28
 9317 2cb2 66000000 		.4byte	.LVL14
 9318 2cb6 824C0000 		.4byte	0x4c82
 9319 2cba CB2C0000 		.4byte	0x2ccb
 9320 2cbe 29       		.uleb128 0x29
 9321 2cbf 01       		.uleb128 0x1
 9322 2cc0 51       		.byte	0x51
 9323 2cc1 02       		.uleb128 0x2
 9324 2cc2 76       		.byte	0x76
 9325 2cc3 01       		.sleb128 1
 9326 2cc4 29       		.uleb128 0x29
 9327 2cc5 01       		.uleb128 0x1
 9328 2cc6 50       		.byte	0x50
 9329 2cc7 02       		.uleb128 0x2
 9330 2cc8 08       		.byte	0x8
 9331 2cc9 92       		.byte	0x92
 9332 2cca 00       		.byte	0
 9333 2ccb 28       		.uleb128 0x28
 9334 2ccc 72000000 		.4byte	.LVL16
ARM GAS  C:\Users\AHMED~1.ELE\AppData\Local\Temp\ccLLYyS4.s 			page 197


 9335 2cd0 9C4C0000 		.4byte	0x4c9c
 9336 2cd4 EB2C0000 		.4byte	0x2ceb
 9337 2cd8 29       		.uleb128 0x29
 9338 2cd9 01       		.uleb128 0x1
 9339 2cda 52       		.byte	0x52
 9340 2cdb 02       		.uleb128 0x2
 9341 2cdc 76       		.byte	0x76
 9342 2cdd 00       		.sleb128 0
 9343 2cde 29       		.uleb128 0x29
 9344 2cdf 01       		.uleb128 0x1
 9345 2ce0 51       		.byte	0x51
 9346 2ce1 02       		.uleb128 0x2
 9347 2ce2 91       		.byte	0x91
 9348 2ce3 54       		.sleb128 -44
 9349 2ce4 29       		.uleb128 0x29
 9350 2ce5 01       		.uleb128 0x1
 9351 2ce6 50       		.byte	0x50
 9352 2ce7 02       		.uleb128 0x2
 9353 2ce8 75       		.byte	0x75
 9354 2ce9 00       		.sleb128 0
 9355 2cea 00       		.byte	0
 9356 2ceb 28       		.uleb128 0x28
 9357 2cec 88000000 		.4byte	.LVL18
 9358 2cf0 B94C0000 		.4byte	0x4cb9
 9359 2cf4 112D0000 		.4byte	0x2d11
 9360 2cf8 29       		.uleb128 0x29
 9361 2cf9 01       		.uleb128 0x1
 9362 2cfa 53       		.byte	0x53
 9363 2cfb 03       		.uleb128 0x3
 9364 2cfc 0A       		.byte	0xa
 9365 2cfd 0007     		.2byte	0x700
 9366 2cff 29       		.uleb128 0x29
 9367 2d00 01       		.uleb128 0x1
 9368 2d01 52       		.byte	0x52
 9369 2d02 02       		.uleb128 0x2
 9370 2d03 75       		.byte	0x75
 9371 2d04 00       		.sleb128 0
 9372 2d05 29       		.uleb128 0x29
 9373 2d06 01       		.uleb128 0x1
 9374 2d07 51       		.byte	0x51
 9375 2d08 02       		.uleb128 0x2
 9376 2d09 08       		.byte	0x8
 9377 2d0a 25       		.byte	0x25
 9378 2d0b 29       		.uleb128 0x29
 9379 2d0c 01       		.uleb128 0x1
 9380 2d0d 50       		.byte	0x50
 9381 2d0e 01       		.uleb128 0x1
 9382 2d0f 3F       		.byte	0x3f
 9383 2d10 00       		.byte	0
 9384 2d11 2A       		.uleb128 0x2a
 9385 2d12 90000000 		.4byte	.LVL19
 9386 2d16 824C0000 		.4byte	0x4c82
 9387 2d1a 29       		.uleb128 0x29
 9388 2d1b 01       		.uleb128 0x1
 9389 2d1c 51       		.byte	0x51
 9390 2d1d 02       		.uleb128 0x2
 9391 2d1e 75       		.byte	0x75
ARM GAS  C:\Users\AHMED~1.ELE\AppData\Local\Temp\ccLLYyS4.s 			page 198


 9392 2d1f 00       		.sleb128 0
 9393 2d20 29       		.uleb128 0x29
 9394 2d21 01       		.uleb128 0x1
 9395 2d22 50       		.byte	0x50
 9396 2d23 02       		.uleb128 0x2
 9397 2d24 08       		.byte	0x8
 9398 2d25 94       		.byte	0x94
 9399 2d26 00       		.byte	0
 9400 2d27 00       		.byte	0
 9401 2d28 28       		.uleb128 0x28
 9402 2d29 14000000 		.4byte	.LVL2
 9403 2d2d 9C4C0000 		.4byte	0x4c9c
 9404 2d31 482D0000 		.4byte	0x2d48
 9405 2d35 29       		.uleb128 0x29
 9406 2d36 01       		.uleb128 0x1
 9407 2d37 52       		.byte	0x52
 9408 2d38 02       		.uleb128 0x2
 9409 2d39 74       		.byte	0x74
 9410 2d3a 00       		.sleb128 0
 9411 2d3b 29       		.uleb128 0x29
 9412 2d3c 01       		.uleb128 0x1
 9413 2d3d 51       		.byte	0x51
 9414 2d3e 02       		.uleb128 0x2
 9415 2d3f 75       		.byte	0x75
 9416 2d40 01       		.sleb128 1
 9417 2d41 29       		.uleb128 0x29
 9418 2d42 01       		.uleb128 0x1
 9419 2d43 50       		.byte	0x50
 9420 2d44 02       		.uleb128 0x2
 9421 2d45 91       		.byte	0x91
 9422 2d46 54       		.sleb128 -44
 9423 2d47 00       		.byte	0
 9424 2d48 2A       		.uleb128 0x2a
 9425 2d49 2E000000 		.4byte	.LVL3
 9426 2d4d B94C0000 		.4byte	0x4cb9
 9427 2d51 29       		.uleb128 0x29
 9428 2d52 01       		.uleb128 0x1
 9429 2d53 53       		.byte	0x53
 9430 2d54 02       		.uleb128 0x2
 9431 2d55 74       		.byte	0x74
 9432 2d56 00       		.sleb128 0
 9433 2d57 29       		.uleb128 0x29
 9434 2d58 01       		.uleb128 0x1
 9435 2d59 52       		.byte	0x52
 9436 2d5a 03       		.uleb128 0x3
 9437 2d5b 0A       		.byte	0xa
 9438 2d5c 0007     		.2byte	0x700
 9439 2d5e 29       		.uleb128 0x29
 9440 2d5f 01       		.uleb128 0x1
 9441 2d60 51       		.byte	0x51
 9442 2d61 02       		.uleb128 0x2
 9443 2d62 08       		.byte	0x8
 9444 2d63 23       		.byte	0x23
 9445 2d64 29       		.uleb128 0x29
 9446 2d65 01       		.uleb128 0x1
 9447 2d66 50       		.byte	0x50
 9448 2d67 01       		.uleb128 0x1
ARM GAS  C:\Users\AHMED~1.ELE\AppData\Local\Temp\ccLLYyS4.s 			page 199


 9449 2d68 3F       		.byte	0x3f
 9450 2d69 29       		.uleb128 0x29
 9451 2d6a 02       		.uleb128 0x2
 9452 2d6b 7D       		.byte	0x7d
 9453 2d6c 00       		.sleb128 0
 9454 2d6d 02       		.uleb128 0x2
 9455 2d6e 74       		.byte	0x74
 9456 2d6f 00       		.sleb128 0
 9457 2d70 00       		.byte	0
 9458 2d71 00       		.byte	0
 9459 2d72 08       		.uleb128 0x8
 9460 2d73 9C000000 		.4byte	0x9c
 9461 2d77 822D0000 		.4byte	0x2d82
 9462 2d7b 09       		.uleb128 0x9
 9463 2d7c 76000000 		.4byte	0x76
 9464 2d80 1A       		.byte	0x1a
 9465 2d81 00       		.byte	0
 9466 2d82 2D       		.uleb128 0x2d
 9467 2d83 4F2B0000 		.4byte	0x2b4f
 9468 2d87 00000000 		.4byte	.LFB23
 9469 2d8b 30000000 		.4byte	.LFE23-.LFB23
 9470 2d8f 01       		.uleb128 0x1
 9471 2d90 9C       		.byte	0x9c
 9472 2d91 B42D0000 		.4byte	0x2db4
 9473 2d95 2E       		.uleb128 0x2e
 9474 2d96 6A2B0000 		.4byte	0x2b6a
 9475 2d9a BD000000 		.4byte	.LLST5
 9476 2d9e 2F       		.uleb128 0x2f
 9477 2d9f 752B0000 		.4byte	0x2b75
 9478 2da3 01       		.uleb128 0x1
 9479 2da4 52       		.byte	0x52
 9480 2da5 30       		.uleb128 0x30
 9481 2da6 802B0000 		.4byte	0x2b80
 9482 2daa DE000000 		.4byte	.LLST6
 9483 2dae 31       		.uleb128 0x31
 9484 2daf 5F2B0000 		.4byte	0x2b5f
 9485 2db3 00       		.byte	0
 9486 2db4 32       		.uleb128 0x32
 9487 2db5 CD0A0000 		.4byte	.LASF1053
 9488 2db9 01       		.byte	0x1
 9489 2dba EB       		.byte	0xeb
 9490 2dbb 91000000 		.4byte	0x91
 9491 2dbf 00000000 		.4byte	.LFB5
 9492 2dc3 8C000000 		.4byte	.LFE5-.LFB5
 9493 2dc7 01       		.uleb128 0x1
 9494 2dc8 9C       		.byte	0x9c
 9495 2dc9 782E0000 		.4byte	0x2e78
 9496 2dcd 33       		.uleb128 0x33
 9497 2dce EC240000 		.4byte	.LASF1051
 9498 2dd2 01       		.byte	0x1
 9499 2dd3 EB       		.byte	0xeb
 9500 2dd4 9C000000 		.4byte	0x9c
 9501 2dd8 17010000 		.4byte	.LLST7
 9502 2ddc 33       		.uleb128 0x33
 9503 2ddd 78040000 		.4byte	.LASF1052
 9504 2de1 01       		.byte	0x1
 9505 2de2 EB       		.byte	0xeb
ARM GAS  C:\Users\AHMED~1.ELE\AppData\Local\Temp\ccLLYyS4.s 			page 200


 9506 2de3 91000000 		.4byte	0x91
 9507 2de7 51010000 		.4byte	.LLST8
 9508 2deb 28       		.uleb128 0x28
 9509 2dec 24000000 		.4byte	.LVL30
 9510 2df0 E24C0000 		.4byte	0x4ce2
 9511 2df4 FE2D0000 		.4byte	0x2dfe
 9512 2df8 29       		.uleb128 0x29
 9513 2df9 01       		.uleb128 0x1
 9514 2dfa 52       		.byte	0x52
 9515 2dfb 01       		.uleb128 0x1
 9516 2dfc 33       		.byte	0x33
 9517 2dfd 00       		.byte	0
 9518 2dfe 28       		.uleb128 0x28
 9519 2dff 44000000 		.4byte	.LVL34
 9520 2e03 E24C0000 		.4byte	0x4ce2
 9521 2e07 112E0000 		.4byte	0x2e11
 9522 2e0b 29       		.uleb128 0x29
 9523 2e0c 01       		.uleb128 0x1
 9524 2e0d 52       		.byte	0x52
 9525 2e0e 01       		.uleb128 0x1
 9526 2e0f 33       		.byte	0x33
 9527 2e10 00       		.byte	0
 9528 2e11 28       		.uleb128 0x28
 9529 2e12 5A000000 		.4byte	.LVL35
 9530 2e16 B94C0000 		.4byte	0x4cb9
 9531 2e1a 3E2E0000 		.4byte	0x2e3e
 9532 2e1e 29       		.uleb128 0x29
 9533 2e1f 01       		.uleb128 0x1
 9534 2e20 53       		.byte	0x53
 9535 2e21 02       		.uleb128 0x2
 9536 2e22 75       		.byte	0x75
 9537 2e23 00       		.sleb128 0
 9538 2e24 29       		.uleb128 0x29
 9539 2e25 01       		.uleb128 0x1
 9540 2e26 52       		.byte	0x52
 9541 2e27 03       		.uleb128 0x3
 9542 2e28 0A       		.byte	0xa
 9543 2e29 0003     		.2byte	0x300
 9544 2e2b 29       		.uleb128 0x29
 9545 2e2c 01       		.uleb128 0x1
 9546 2e2d 51       		.byte	0x51
 9547 2e2e 02       		.uleb128 0x2
 9548 2e2f 08       		.byte	0x8
 9549 2e30 23       		.byte	0x23
 9550 2e31 29       		.uleb128 0x29
 9551 2e32 01       		.uleb128 0x1
 9552 2e33 50       		.byte	0x50
 9553 2e34 01       		.uleb128 0x1
 9554 2e35 3F       		.byte	0x3f
 9555 2e36 29       		.uleb128 0x29
 9556 2e37 02       		.uleb128 0x2
 9557 2e38 7D       		.byte	0x7d
 9558 2e39 00       		.sleb128 0
 9559 2e3a 02       		.uleb128 0x2
 9560 2e3b 75       		.byte	0x75
 9561 2e3c 00       		.sleb128 0
 9562 2e3d 00       		.byte	0
ARM GAS  C:\Users\AHMED~1.ELE\AppData\Local\Temp\ccLLYyS4.s 			page 201


 9563 2e3e 28       		.uleb128 0x28
 9564 2e3f 60000000 		.4byte	.LVL36
 9565 2e43 014D0000 		.4byte	0x4d01
 9566 2e47 522E0000 		.4byte	0x2e52
 9567 2e4b 29       		.uleb128 0x29
 9568 2e4c 01       		.uleb128 0x1
 9569 2e4d 50       		.byte	0x50
 9570 2e4e 02       		.uleb128 0x2
 9571 2e4f 08       		.byte	0x8
 9572 2e50 21       		.byte	0x21
 9573 2e51 00       		.byte	0
 9574 2e52 28       		.uleb128 0x28
 9575 2e53 6C000000 		.4byte	.LVL37
 9576 2e57 164D0000 		.4byte	0x4d16
 9577 2e5b 6E2E0000 		.4byte	0x2e6e
 9578 2e5f 29       		.uleb128 0x29
 9579 2e60 01       		.uleb128 0x1
 9580 2e61 52       		.byte	0x52
 9581 2e62 03       		.uleb128 0x3
 9582 2e63 0A       		.byte	0xa
 9583 2e64 0010     		.2byte	0x1000
 9584 2e66 29       		.uleb128 0x29
 9585 2e67 01       		.uleb128 0x1
 9586 2e68 51       		.byte	0x51
 9587 2e69 03       		.uleb128 0x3
 9588 2e6a 0A       		.byte	0xa
 9589 2e6b 0003     		.2byte	0x300
 9590 2e6d 00       		.byte	0
 9591 2e6e 2C       		.uleb128 0x2c
 9592 2e6f 70000000 		.4byte	.LVL38
 9593 2e73 314D0000 		.4byte	0x4d31
 9594 2e77 00       		.byte	0
 9595 2e78 34       		.uleb128 0x34
 9596 2e79 B9170000 		.4byte	.LASF1054
 9597 2e7d 01       		.byte	0x1
 9598 2e7e 0A01     		.2byte	0x10a
 9599 2e80 91000000 		.4byte	0x91
 9600 2e84 00000000 		.4byte	.LFB6
 9601 2e88 A0010000 		.4byte	.LFE6-.LFB6
 9602 2e8c 01       		.uleb128 0x1
 9603 2e8d 9C       		.byte	0x9c
 9604 2e8e B5300000 		.4byte	0x30b5
 9605 2e92 35       		.uleb128 0x35
 9606 2e93 C51C0000 		.4byte	.LASF1055
 9607 2e97 01       		.byte	0x1
 9608 2e98 0C01     		.2byte	0x10c
 9609 2e9a 9C000000 		.4byte	0x9c
 9610 2e9e 8B010000 		.4byte	.LLST9
 9611 2ea2 35       		.uleb128 0x35
 9612 2ea3 47310000 		.4byte	.LASF1056
 9613 2ea7 01       		.byte	0x1
 9614 2ea8 0C01     		.2byte	0x10c
 9615 2eaa 9C000000 		.4byte	0x9c
 9616 2eae A9010000 		.4byte	.LLST10
 9617 2eb2 35       		.uleb128 0x35
 9618 2eb3 7E270000 		.4byte	.LASF1057
 9619 2eb7 01       		.byte	0x1
ARM GAS  C:\Users\AHMED~1.ELE\AppData\Local\Temp\ccLLYyS4.s 			page 202


 9620 2eb8 0C01     		.2byte	0x10c
 9621 2eba 9C000000 		.4byte	0x9c
 9622 2ebe D2010000 		.4byte	.LLST11
 9623 2ec2 35       		.uleb128 0x35
 9624 2ec3 E81E0000 		.4byte	.LASF1058
 9625 2ec7 01       		.byte	0x1
 9626 2ec8 0D01     		.2byte	0x10d
 9627 2eca 9C000000 		.4byte	0x9c
 9628 2ece F0010000 		.4byte	.LLST12
 9629 2ed2 36       		.uleb128 0x36
 9630 2ed3 70616E00 		.ascii	"pan\000"
 9631 2ed7 01       		.byte	0x1
 9632 2ed8 0D01     		.2byte	0x10d
 9633 2eda 9A1A0000 		.4byte	0x1a9a
 9634 2ede 02       		.uleb128 0x2
 9635 2edf 91       		.byte	0x91
 9636 2ee0 40       		.sleb128 -64
 9637 2ee1 35       		.uleb128 0x35
 9638 2ee2 F33D0000 		.4byte	.LASF1059
 9639 2ee6 01       		.byte	0x1
 9640 2ee7 0E01     		.2byte	0x10e
 9641 2ee9 A7000000 		.4byte	0xa7
 9642 2eed 03020000 		.4byte	.LLST13
 9643 2ef1 35       		.uleb128 0x35
 9644 2ef2 120A0000 		.4byte	.LASF1060
 9645 2ef6 01       		.byte	0x1
 9646 2ef7 0F01     		.2byte	0x10f
 9647 2ef9 A7000000 		.4byte	0xa7
 9648 2efd 25020000 		.4byte	.LLST14
 9649 2f01 35       		.uleb128 0x35
 9650 2f02 7C200000 		.4byte	.LASF1061
 9651 2f06 01       		.byte	0x1
 9652 2f07 1001     		.2byte	0x110
 9653 2f09 A7000000 		.4byte	0xa7
 9654 2f0d 38020000 		.4byte	.LLST15
 9655 2f11 28       		.uleb128 0x28
 9656 2f12 16000000 		.4byte	.LVL39
 9657 2f16 B94C0000 		.4byte	0x4cb9
 9658 2f1a 3C2F0000 		.4byte	0x2f3c
 9659 2f1e 29       		.uleb128 0x29
 9660 2f1f 01       		.uleb128 0x1
 9661 2f20 53       		.byte	0x53
 9662 2f21 02       		.uleb128 0x2
 9663 2f22 74       		.byte	0x74
 9664 2f23 00       		.sleb128 0
 9665 2f24 29       		.uleb128 0x29
 9666 2f25 01       		.uleb128 0x1
 9667 2f26 52       		.byte	0x52
 9668 2f27 02       		.uleb128 0x2
 9669 2f28 74       		.byte	0x74
 9670 2f29 00       		.sleb128 0
 9671 2f2a 29       		.uleb128 0x29
 9672 2f2b 01       		.uleb128 0x1
 9673 2f2c 51       		.byte	0x51
 9674 2f2d 01       		.uleb128 0x1
 9675 2f2e 40       		.byte	0x40
 9676 2f2f 29       		.uleb128 0x29
ARM GAS  C:\Users\AHMED~1.ELE\AppData\Local\Temp\ccLLYyS4.s 			page 203


 9677 2f30 01       		.uleb128 0x1
 9678 2f31 50       		.byte	0x50
 9679 2f32 01       		.uleb128 0x1
 9680 2f33 40       		.byte	0x40
 9681 2f34 29       		.uleb128 0x29
 9682 2f35 02       		.uleb128 0x2
 9683 2f36 7D       		.byte	0x7d
 9684 2f37 00       		.sleb128 0
 9685 2f38 02       		.uleb128 0x2
 9686 2f39 74       		.byte	0x74
 9687 2f3a 00       		.sleb128 0
 9688 2f3b 00       		.byte	0
 9689 2f3c 28       		.uleb128 0x28
 9690 2f3d 28000000 		.4byte	.LVL41
 9691 2f41 B94C0000 		.4byte	0x4cb9
 9692 2f45 672F0000 		.4byte	0x2f67
 9693 2f49 29       		.uleb128 0x29
 9694 2f4a 01       		.uleb128 0x1
 9695 2f4b 53       		.byte	0x53
 9696 2f4c 02       		.uleb128 0x2
 9697 2f4d 74       		.byte	0x74
 9698 2f4e 00       		.sleb128 0
 9699 2f4f 29       		.uleb128 0x29
 9700 2f50 01       		.uleb128 0x1
 9701 2f51 52       		.byte	0x52
 9702 2f52 02       		.uleb128 0x2
 9703 2f53 74       		.byte	0x74
 9704 2f54 00       		.sleb128 0
 9705 2f55 29       		.uleb128 0x29
 9706 2f56 01       		.uleb128 0x1
 9707 2f57 51       		.byte	0x51
 9708 2f58 01       		.uleb128 0x1
 9709 2f59 42       		.byte	0x42
 9710 2f5a 29       		.uleb128 0x29
 9711 2f5b 01       		.uleb128 0x1
 9712 2f5c 50       		.byte	0x50
 9713 2f5d 01       		.uleb128 0x1
 9714 2f5e 40       		.byte	0x40
 9715 2f5f 29       		.uleb128 0x29
 9716 2f60 02       		.uleb128 0x2
 9717 2f61 7D       		.byte	0x7d
 9718 2f62 00       		.sleb128 0
 9719 2f63 02       		.uleb128 0x2
 9720 2f64 74       		.byte	0x74
 9721 2f65 00       		.sleb128 0
 9722 2f66 00       		.byte	0
 9723 2f67 28       		.uleb128 0x28
 9724 2f68 3A000000 		.4byte	.LVL43
 9725 2f6c B94C0000 		.4byte	0x4cb9
 9726 2f70 922F0000 		.4byte	0x2f92
 9727 2f74 29       		.uleb128 0x29
 9728 2f75 01       		.uleb128 0x1
 9729 2f76 53       		.byte	0x53
 9730 2f77 02       		.uleb128 0x2
 9731 2f78 74       		.byte	0x74
 9732 2f79 00       		.sleb128 0
 9733 2f7a 29       		.uleb128 0x29
ARM GAS  C:\Users\AHMED~1.ELE\AppData\Local\Temp\ccLLYyS4.s 			page 204


 9734 2f7b 01       		.uleb128 0x1
 9735 2f7c 52       		.byte	0x52
 9736 2f7d 02       		.uleb128 0x2
 9737 2f7e 74       		.byte	0x74
 9738 2f7f 00       		.sleb128 0
 9739 2f80 29       		.uleb128 0x29
 9740 2f81 01       		.uleb128 0x1
 9741 2f82 51       		.byte	0x51
 9742 2f83 01       		.uleb128 0x1
 9743 2f84 44       		.byte	0x44
 9744 2f85 29       		.uleb128 0x29
 9745 2f86 01       		.uleb128 0x1
 9746 2f87 50       		.byte	0x50
 9747 2f88 01       		.uleb128 0x1
 9748 2f89 40       		.byte	0x40
 9749 2f8a 29       		.uleb128 0x29
 9750 2f8b 02       		.uleb128 0x2
 9751 2f8c 7D       		.byte	0x7d
 9752 2f8d 00       		.sleb128 0
 9753 2f8e 02       		.uleb128 0x2
 9754 2f8f 74       		.byte	0x74
 9755 2f90 00       		.sleb128 0
 9756 2f91 00       		.byte	0
 9757 2f92 28       		.uleb128 0x28
 9758 2f93 4A000000 		.4byte	.LVL45
 9759 2f97 384D0000 		.4byte	0x4d38
 9760 2f9b AB2F0000 		.4byte	0x2fab
 9761 2f9f 29       		.uleb128 0x29
 9762 2fa0 01       		.uleb128 0x1
 9763 2fa1 52       		.byte	0x52
 9764 2fa2 01       		.uleb128 0x1
 9765 2fa3 3A       		.byte	0x3a
 9766 2fa4 29       		.uleb128 0x29
 9767 2fa5 01       		.uleb128 0x1
 9768 2fa6 50       		.byte	0x50
 9769 2fa7 02       		.uleb128 0x2
 9770 2fa8 91       		.byte	0x91
 9771 2fa9 41       		.sleb128 -63
 9772 2faa 00       		.byte	0
 9773 2fab 28       		.uleb128 0x28
 9774 2fac 56000000 		.4byte	.LVL46
 9775 2fb0 534D0000 		.4byte	0x4d53
 9776 2fb4 CA2F0000 		.4byte	0x2fca
 9777 2fb8 29       		.uleb128 0x29
 9778 2fb9 01       		.uleb128 0x1
 9779 2fba 52       		.byte	0x52
 9780 2fbb 01       		.uleb128 0x1
 9781 2fbc 43       		.byte	0x43
 9782 2fbd 29       		.uleb128 0x29
 9783 2fbe 01       		.uleb128 0x1
 9784 2fbf 51       		.byte	0x51
 9785 2fc0 02       		.uleb128 0x2
 9786 2fc1 08       		.byte	0x8
 9787 2fc2 46       		.byte	0x46
 9788 2fc3 29       		.uleb128 0x29
 9789 2fc4 01       		.uleb128 0x1
 9790 2fc5 50       		.byte	0x50
ARM GAS  C:\Users\AHMED~1.ELE\AppData\Local\Temp\ccLLYyS4.s 			page 205


 9791 2fc6 02       		.uleb128 0x2
 9792 2fc7 91       		.byte	0x91
 9793 2fc8 41       		.sleb128 -63
 9794 2fc9 00       		.byte	0
 9795 2fca 28       		.uleb128 0x28
 9796 2fcb 78000000 		.4byte	.LVL48
 9797 2fcf B94C0000 		.4byte	0x4cb9
 9798 2fd3 EF2F0000 		.4byte	0x2fef
 9799 2fd7 29       		.uleb128 0x29
 9800 2fd8 01       		.uleb128 0x1
 9801 2fd9 52       		.byte	0x52
 9802 2fda 02       		.uleb128 0x2
 9803 2fdb 74       		.byte	0x74
 9804 2fdc 00       		.sleb128 0
 9805 2fdd 29       		.uleb128 0x29
 9806 2fde 01       		.uleb128 0x1
 9807 2fdf 51       		.byte	0x51
 9808 2fe0 01       		.uleb128 0x1
 9809 2fe1 41       		.byte	0x41
 9810 2fe2 29       		.uleb128 0x29
 9811 2fe3 01       		.uleb128 0x1
 9812 2fe4 50       		.byte	0x50
 9813 2fe5 01       		.uleb128 0x1
 9814 2fe6 40       		.byte	0x40
 9815 2fe7 29       		.uleb128 0x29
 9816 2fe8 02       		.uleb128 0x2
 9817 2fe9 7D       		.byte	0x7d
 9818 2fea 00       		.sleb128 0
 9819 2feb 02       		.uleb128 0x2
 9820 2fec 75       		.byte	0x75
 9821 2fed 00       		.sleb128 0
 9822 2fee 00       		.byte	0
 9823 2fef 2C       		.uleb128 0x2c
 9824 2ff0 8A000000 		.4byte	.LVL49
 9825 2ff4 724D0000 		.4byte	0x4d72
 9826 2ff8 28       		.uleb128 0x28
 9827 2ff9 9A000000 		.4byte	.LVL51
 9828 2ffd E24C0000 		.4byte	0x4ce2
 9829 3001 12300000 		.4byte	0x3012
 9830 3005 29       		.uleb128 0x29
 9831 3006 01       		.uleb128 0x1
 9832 3007 52       		.byte	0x52
 9833 3008 01       		.uleb128 0x1
 9834 3009 35       		.byte	0x35
 9835 300a 29       		.uleb128 0x29
 9836 300b 01       		.uleb128 0x1
 9837 300c 51       		.byte	0x51
 9838 300d 03       		.uleb128 0x3
 9839 300e 77       		.byte	0x77
 9840 300f 900A     		.sleb128 1296
 9841 3011 00       		.byte	0
 9842 3012 28       		.uleb128 0x28
 9843 3013 AA000000 		.4byte	.LVL52
 9844 3017 E24C0000 		.4byte	0x4ce2
 9845 301b 2C300000 		.4byte	0x302c
 9846 301f 29       		.uleb128 0x29
 9847 3020 01       		.uleb128 0x1
ARM GAS  C:\Users\AHMED~1.ELE\AppData\Local\Temp\ccLLYyS4.s 			page 206


 9848 3021 52       		.byte	0x52
 9849 3022 01       		.uleb128 0x1
 9850 3023 35       		.byte	0x35
 9851 3024 29       		.uleb128 0x29
 9852 3025 01       		.uleb128 0x1
 9853 3026 51       		.byte	0x51
 9854 3027 03       		.uleb128 0x3
 9855 3028 77       		.byte	0x77
 9856 3029 950A     		.sleb128 1301
 9857 302b 00       		.byte	0
 9858 302c 28       		.uleb128 0x28
 9859 302d DA000000 		.4byte	.LVL54
 9860 3031 B94C0000 		.4byte	0x4cb9
 9861 3035 50300000 		.4byte	0x3050
 9862 3039 29       		.uleb128 0x29
 9863 303a 01       		.uleb128 0x1
 9864 303b 52       		.byte	0x52
 9865 303c 02       		.uleb128 0x2
 9866 303d 75       		.byte	0x75
 9867 303e 00       		.sleb128 0
 9868 303f 29       		.uleb128 0x29
 9869 3040 01       		.uleb128 0x1
 9870 3041 51       		.byte	0x51
 9871 3042 01       		.uleb128 0x1
 9872 3043 43       		.byte	0x43
 9873 3044 29       		.uleb128 0x29
 9874 3045 01       		.uleb128 0x1
 9875 3046 50       		.byte	0x50
 9876 3047 01       		.uleb128 0x1
 9877 3048 40       		.byte	0x40
 9878 3049 29       		.uleb128 0x29
 9879 304a 02       		.uleb128 0x2
 9880 304b 7D       		.byte	0x7d
 9881 304c 00       		.sleb128 0
 9882 304d 01       		.uleb128 0x1
 9883 304e 30       		.byte	0x30
 9884 304f 00       		.byte	0
 9885 3050 28       		.uleb128 0x28
 9886 3051 1C010000 		.4byte	.LVL60
 9887 3055 B94C0000 		.4byte	0x4cb9
 9888 3059 77300000 		.4byte	0x3077
 9889 305d 29       		.uleb128 0x29
 9890 305e 01       		.uleb128 0x1
 9891 305f 52       		.byte	0x52
 9892 3060 02       		.uleb128 0x2
 9893 3061 75       		.byte	0x75
 9894 3062 00       		.sleb128 0
 9895 3063 29       		.uleb128 0x29
 9896 3064 01       		.uleb128 0x1
 9897 3065 51       		.byte	0x51
 9898 3066 01       		.uleb128 0x1
 9899 3067 45       		.byte	0x45
 9900 3068 29       		.uleb128 0x29
 9901 3069 01       		.uleb128 0x1
 9902 306a 50       		.byte	0x50
 9903 306b 01       		.uleb128 0x1
 9904 306c 40       		.byte	0x40
ARM GAS  C:\Users\AHMED~1.ELE\AppData\Local\Temp\ccLLYyS4.s 			page 207


 9905 306d 29       		.uleb128 0x29
 9906 306e 02       		.uleb128 0x2
 9907 306f 7D       		.byte	0x7d
 9908 3070 00       		.sleb128 0
 9909 3071 04       		.uleb128 0x4
 9910 3072 91       		.byte	0x91
 9911 3073 BC7F     		.sleb128 -68
 9912 3075 06       		.byte	0x6
 9913 3076 00       		.byte	0
 9914 3077 28       		.uleb128 0x28
 9915 3078 48010000 		.4byte	.LVL63
 9916 307c 874D0000 		.4byte	0x4d87
 9917 3080 8E300000 		.4byte	0x308e
 9918 3084 29       		.uleb128 0x29
 9919 3085 01       		.uleb128 0x1
 9920 3086 50       		.byte	0x50
 9921 3087 05       		.uleb128 0x5
 9922 3088 91       		.byte	0x91
 9923 3089 BC7F     		.sleb128 -68
 9924 308b 94       		.byte	0x94
 9925 308c 01       		.byte	0x1
 9926 308d 00       		.byte	0
 9927 308e 2C       		.uleb128 0x2c
 9928 308f 4C010000 		.4byte	.LVL64
 9929 3093 9C4D0000 		.4byte	0x4d9c
 9930 3097 28       		.uleb128 0x28
 9931 3098 7E010000 		.4byte	.LVL68
 9932 309c 014D0000 		.4byte	0x4d01
 9933 30a0 AB300000 		.4byte	0x30ab
 9934 30a4 29       		.uleb128 0x29
 9935 30a5 01       		.uleb128 0x1
 9936 30a6 50       		.byte	0x50
 9937 30a7 02       		.uleb128 0x2
 9938 30a8 08       		.byte	0x8
 9939 30a9 7B       		.byte	0x7b
 9940 30aa 00       		.byte	0
 9941 30ab 2C       		.uleb128 0x2c
 9942 30ac 82010000 		.4byte	.LVL69
 9943 30b0 B14D0000 		.4byte	0x4db1
 9944 30b4 00       		.byte	0
 9945 30b5 34       		.uleb128 0x34
 9946 30b6 EF330000 		.4byte	.LASF1062
 9947 30ba 01       		.byte	0x1
 9948 30bb BB01     		.2byte	0x1bb
 9949 30bd B2000000 		.4byte	0xb2
 9950 30c1 00000000 		.4byte	.LFB8
 9951 30c5 28000000 		.4byte	.LFE8-.LFB8
 9952 30c9 01       		.uleb128 0x1
 9953 30ca 9C       		.byte	0x9c
 9954 30cb 24310000 		.4byte	0x3124
 9955 30cf 28       		.uleb128 0x28
 9956 30d0 08000000 		.4byte	.LVL71
 9957 30d4 014D0000 		.4byte	0x4d01
 9958 30d8 E2300000 		.4byte	0x30e2
 9959 30dc 29       		.uleb128 0x29
 9960 30dd 01       		.uleb128 0x1
 9961 30de 50       		.byte	0x50
ARM GAS  C:\Users\AHMED~1.ELE\AppData\Local\Temp\ccLLYyS4.s 			page 208


 9962 30df 01       		.uleb128 0x1
 9963 30e0 42       		.byte	0x42
 9964 30e1 00       		.byte	0
 9965 30e2 28       		.uleb128 0x28
 9966 30e3 14000000 		.4byte	.LVL72
 9967 30e7 164D0000 		.4byte	0x4d16
 9968 30eb FE300000 		.4byte	0x30fe
 9969 30ef 29       		.uleb128 0x29
 9970 30f0 01       		.uleb128 0x1
 9971 30f1 52       		.byte	0x52
 9972 30f2 03       		.uleb128 0x3
 9973 30f3 0A       		.byte	0xa
 9974 30f4 0010     		.2byte	0x1000
 9975 30f6 29       		.uleb128 0x29
 9976 30f7 01       		.uleb128 0x1
 9977 30f8 51       		.byte	0x51
 9978 30f9 03       		.uleb128 0x3
 9979 30fa 0A       		.byte	0xa
 9980 30fb 0005     		.2byte	0x500
 9981 30fd 00       		.byte	0
 9982 30fe 2A       		.uleb128 0x2a
 9983 30ff 22000000 		.4byte	.LVL73
 9984 3103 B94C0000 		.4byte	0x4cb9
 9985 3107 29       		.uleb128 0x29
 9986 3108 01       		.uleb128 0x1
 9987 3109 53       		.byte	0x53
 9988 310a 01       		.uleb128 0x1
 9989 310b 30       		.byte	0x30
 9990 310c 29       		.uleb128 0x29
 9991 310d 01       		.uleb128 0x1
 9992 310e 52       		.byte	0x52
 9993 310f 01       		.uleb128 0x1
 9994 3110 30       		.byte	0x30
 9995 3111 29       		.uleb128 0x29
 9996 3112 01       		.uleb128 0x1
 9997 3113 51       		.byte	0x51
 9998 3114 02       		.uleb128 0x2
 9999 3115 08       		.byte	0x8
 10000 3116 32       		.byte	0x32
 10001 3117 29       		.uleb128 0x29
 10002 3118 01       		.uleb128 0x1
 10003 3119 50       		.byte	0x50
 10004 311a 01       		.uleb128 0x1
 10005 311b 40       		.byte	0x40
 10006 311c 29       		.uleb128 0x29
 10007 311d 02       		.uleb128 0x2
 10008 311e 7D       		.byte	0x7d
 10009 311f 00       		.sleb128 0
 10010 3120 01       		.uleb128 0x1
 10011 3121 30       		.byte	0x30
 10012 3122 00       		.byte	0
 10013 3123 00       		.byte	0
 10014 3124 34       		.uleb128 0x34
 10015 3125 7F290000 		.4byte	.LASF1063
 10016 3129 01       		.byte	0x1
 10017 312a C901     		.2byte	0x1c9
 10018 312c 91000000 		.4byte	0x91
ARM GAS  C:\Users\AHMED~1.ELE\AppData\Local\Temp\ccLLYyS4.s 			page 209


 10019 3130 00000000 		.4byte	.LFB9
 10020 3134 BC000000 		.4byte	.LFE9-.LFB9
 10021 3138 01       		.uleb128 0x1
 10022 3139 9C       		.byte	0x9c
 10023 313a 58320000 		.4byte	0x3258
 10024 313e 25       		.uleb128 0x25
 10025 313f 7C140000 		.4byte	.LASF1064
 10026 3143 01       		.byte	0x1
 10027 3144 CB01     		.2byte	0x1cb
 10028 3146 A7010000 		.4byte	0x1a7
 10029 314a 02       		.uleb128 0x2
 10030 314b 91       		.byte	0x91
 10031 314c 50       		.sleb128 -48
 10032 314d 35       		.uleb128 0x35
 10033 314e 4A0A0000 		.4byte	.LASF1065
 10034 3152 01       		.byte	0x1
 10035 3153 CC01     		.2byte	0x1cc
 10036 3155 E3000000 		.4byte	0xe3
 10037 3159 4B020000 		.4byte	.LLST16
 10038 315d 35       		.uleb128 0x35
 10039 315e B60C0000 		.4byte	.LASF1066
 10040 3162 01       		.byte	0x1
 10041 3163 CD01     		.2byte	0x1cd
 10042 3165 B2000000 		.4byte	0xb2
 10043 3169 69020000 		.4byte	.LLST17
 10044 316d 28       		.uleb128 0x28
 10045 316e 26000000 		.4byte	.LVL77
 10046 3172 C24D0000 		.4byte	0x4dc2
 10047 3176 82310000 		.4byte	0x3182
 10048 317a 29       		.uleb128 0x29
 10049 317b 01       		.uleb128 0x1
 10050 317c 52       		.byte	0x52
 10051 317d 03       		.uleb128 0x3
 10052 317e 0B       		.byte	0xb
 10053 317f 26DF     		.2byte	0xdf26
 10054 3181 00       		.byte	0
 10055 3182 28       		.uleb128 0x28
 10056 3183 2E000000 		.4byte	.LVL78
 10057 3187 E14D0000 		.4byte	0x4de1
 10058 318b 96310000 		.4byte	0x3196
 10059 318f 29       		.uleb128 0x29
 10060 3190 01       		.uleb128 0x1
 10061 3191 50       		.byte	0x50
 10062 3192 02       		.uleb128 0x2
 10063 3193 74       		.byte	0x74
 10064 3194 00       		.sleb128 0
 10065 3195 00       		.byte	0
 10066 3196 28       		.uleb128 0x28
 10067 3197 34000000 		.4byte	.LVL79
 10068 319b F64D0000 		.4byte	0x4df6
 10069 319f AA310000 		.4byte	0x31aa
 10070 31a3 29       		.uleb128 0x29
 10071 31a4 01       		.uleb128 0x1
 10072 31a5 50       		.byte	0x50
 10073 31a6 02       		.uleb128 0x2
 10074 31a7 74       		.byte	0x74
 10075 31a8 00       		.sleb128 0
ARM GAS  C:\Users\AHMED~1.ELE\AppData\Local\Temp\ccLLYyS4.s 			page 210


 10076 31a9 00       		.byte	0
 10077 31aa 28       		.uleb128 0x28
 10078 31ab 50000000 		.4byte	.LVL80
 10079 31af 0B4E0000 		.4byte	0x4e0b
 10080 31b3 C3310000 		.4byte	0x31c3
 10081 31b7 29       		.uleb128 0x29
 10082 31b8 01       		.uleb128 0x1
 10083 31b9 52       		.byte	0x52
 10084 31ba 01       		.uleb128 0x1
 10085 31bb 36       		.byte	0x36
 10086 31bc 29       		.uleb128 0x29
 10087 31bd 01       		.uleb128 0x1
 10088 31be 51       		.byte	0x51
 10089 31bf 02       		.uleb128 0x2
 10090 31c0 08       		.byte	0x8
 10091 31c1 20       		.byte	0x20
 10092 31c2 00       		.byte	0
 10093 31c3 28       		.uleb128 0x28
 10094 31c4 56000000 		.4byte	.LVL81
 10095 31c8 E14D0000 		.4byte	0x4de1
 10096 31cc D7310000 		.4byte	0x31d7
 10097 31d0 29       		.uleb128 0x29
 10098 31d1 01       		.uleb128 0x1
 10099 31d2 50       		.byte	0x50
 10100 31d3 02       		.uleb128 0x2
 10101 31d4 74       		.byte	0x74
 10102 31d5 00       		.sleb128 0
 10103 31d6 00       		.byte	0
 10104 31d7 28       		.uleb128 0x28
 10105 31d8 6E000000 		.4byte	.LVL83
 10106 31dc 014D0000 		.4byte	0x4d01
 10107 31e0 EA310000 		.4byte	0x31ea
 10108 31e4 29       		.uleb128 0x29
 10109 31e5 01       		.uleb128 0x1
 10110 31e6 50       		.byte	0x50
 10111 31e7 01       		.uleb128 0x1
 10112 31e8 43       		.byte	0x43
 10113 31e9 00       		.byte	0
 10114 31ea 28       		.uleb128 0x28
 10115 31eb 7A000000 		.4byte	.LVL84
 10116 31ef 164D0000 		.4byte	0x4d16
 10117 31f3 06320000 		.4byte	0x3206
 10118 31f7 29       		.uleb128 0x29
 10119 31f8 01       		.uleb128 0x1
 10120 31f9 52       		.byte	0x52
 10121 31fa 03       		.uleb128 0x3
 10122 31fb 0A       		.byte	0xa
 10123 31fc 0010     		.2byte	0x1000
 10124 31fe 29       		.uleb128 0x29
 10125 31ff 01       		.uleb128 0x1
 10126 3200 51       		.byte	0x51
 10127 3201 03       		.uleb128 0x3
 10128 3202 0A       		.byte	0xa
 10129 3203 0003     		.2byte	0x300
 10130 3205 00       		.byte	0
 10131 3206 28       		.uleb128 0x28
 10132 3207 8A000000 		.4byte	.LVL85
ARM GAS  C:\Users\AHMED~1.ELE\AppData\Local\Temp\ccLLYyS4.s 			page 211


 10133 320b B94C0000 		.4byte	0x4cb9
 10134 320f 35320000 		.4byte	0x3235
 10135 3213 29       		.uleb128 0x29
 10136 3214 01       		.uleb128 0x1
 10137 3215 53       		.byte	0x53
 10138 3216 03       		.uleb128 0x3
 10139 3217 0A       		.byte	0xa
 10140 3218 0602     		.2byte	0x206
 10141 321a 29       		.uleb128 0x29
 10142 321b 01       		.uleb128 0x1
 10143 321c 52       		.byte	0x52
 10144 321d 05       		.uleb128 0x5
 10145 321e 0C       		.byte	0xc
 10146 321f FF172200 		.4byte	0x2217ff
 10147 3223 29       		.uleb128 0x29
 10148 3224 01       		.uleb128 0x1
 10149 3225 51       		.byte	0x51
 10150 3226 01       		.uleb128 0x1
 10151 3227 35       		.byte	0x35
 10152 3228 29       		.uleb128 0x29
 10153 3229 01       		.uleb128 0x1
 10154 322a 50       		.byte	0x50
 10155 322b 01       		.uleb128 0x1
 10156 322c 40       		.byte	0x40
 10157 322d 29       		.uleb128 0x29
 10158 322e 02       		.uleb128 0x2
 10159 322f 7D       		.byte	0x7d
 10160 3230 00       		.sleb128 0
 10161 3231 02       		.uleb128 0x2
 10162 3232 74       		.byte	0x74
 10163 3233 00       		.sleb128 0
 10164 3234 00       		.byte	0
 10165 3235 28       		.uleb128 0x28
 10166 3236 A0000000 		.4byte	.LVL86
 10167 323a 0B4E0000 		.4byte	0x4e0b
 10168 323e 4E320000 		.4byte	0x324e
 10169 3242 29       		.uleb128 0x29
 10170 3243 01       		.uleb128 0x1
 10171 3244 52       		.byte	0x52
 10172 3245 01       		.uleb128 0x1
 10173 3246 36       		.byte	0x36
 10174 3247 29       		.uleb128 0x29
 10175 3248 01       		.uleb128 0x1
 10176 3249 51       		.byte	0x51
 10177 324a 02       		.uleb128 0x2
 10178 324b 08       		.byte	0x8
 10179 324c 20       		.byte	0x20
 10180 324d 00       		.byte	0
 10181 324e 2C       		.uleb128 0x2c
 10182 324f AA000000 		.4byte	.LVL87
 10183 3253 9C4C0000 		.4byte	0x4c9c
 10184 3257 00       		.byte	0
 10185 3258 34       		.uleb128 0x34
 10186 3259 3F210000 		.4byte	.LASF1067
 10187 325d 01       		.byte	0x1
 10188 325e F501     		.2byte	0x1f5
 10189 3260 91000000 		.4byte	0x91
ARM GAS  C:\Users\AHMED~1.ELE\AppData\Local\Temp\ccLLYyS4.s 			page 212


 10190 3264 00000000 		.4byte	.LFB10
 10191 3268 48020000 		.4byte	.LFE10-.LFB10
 10192 326c 01       		.uleb128 0x1
 10193 326d 9C       		.byte	0x9c
 10194 326e 0F350000 		.4byte	0x350f
 10195 3272 24       		.uleb128 0x24
 10196 3273 E4230000 		.4byte	.LASF1068
 10197 3277 01       		.byte	0x1
 10198 3278 F501     		.2byte	0x1f5
 10199 327a 91000000 		.4byte	0x91
 10200 327e 9A020000 		.4byte	.LLST18
 10201 3282 24       		.uleb128 0x24
 10202 3283 700E0000 		.4byte	.LASF1069
 10203 3287 01       		.byte	0x1
 10204 3288 F501     		.2byte	0x1f5
 10205 328a B2000000 		.4byte	0xb2
 10206 328e D4020000 		.4byte	.LLST19
 10207 3292 25       		.uleb128 0x25
 10208 3293 7C140000 		.4byte	.LASF1064
 10209 3297 01       		.byte	0x1
 10210 3298 F701     		.2byte	0x1f7
 10211 329a A7010000 		.4byte	0x1a7
 10212 329e 02       		.uleb128 0x2
 10213 329f 91       		.byte	0x91
 10214 32a0 40       		.sleb128 -64
 10215 32a1 35       		.uleb128 0x35
 10216 32a2 B60C0000 		.4byte	.LASF1066
 10217 32a6 01       		.byte	0x1
 10218 32a7 F801     		.2byte	0x1f8
 10219 32a9 B2000000 		.4byte	0xb2
 10220 32ad 16030000 		.4byte	.LLST20
 10221 32b1 26       		.uleb128 0x26
 10222 32b2 18000000 		.4byte	.Ldebug_ranges0+0x18
 10223 32b6 82330000 		.4byte	0x3382
 10224 32ba 27       		.uleb128 0x27
 10225 32bb 6C656E00 		.ascii	"len\000"
 10226 32bf 01       		.byte	0x1
 10227 32c0 3702     		.2byte	0x237
 10228 32c2 B2000000 		.4byte	0xb2
 10229 32c6 33030000 		.4byte	.LLST21
 10230 32ca 27       		.uleb128 0x27
 10231 32cb 70747200 		.ascii	"ptr\000"
 10232 32cf 01       		.byte	0x1
 10233 32d0 3702     		.2byte	0x237
 10234 32d2 E3000000 		.4byte	0xe3
 10235 32d6 51030000 		.4byte	.LLST22
 10236 32da 28       		.uleb128 0x28
 10237 32db CC010000 		.4byte	.LVL108
 10238 32df 014D0000 		.4byte	0x4d01
 10239 32e3 ED320000 		.4byte	0x32ed
 10240 32e7 29       		.uleb128 0x29
 10241 32e8 01       		.uleb128 0x1
 10242 32e9 50       		.byte	0x50
 10243 32ea 01       		.uleb128 0x1
 10244 32eb 48       		.byte	0x48
 10245 32ec 00       		.byte	0
 10246 32ed 2C       		.uleb128 0x2c
ARM GAS  C:\Users\AHMED~1.ELE\AppData\Local\Temp\ccLLYyS4.s 			page 213


 10247 32ee D0010000 		.4byte	.LVL109
 10248 32f2 6D4C0000 		.4byte	0x4c6d
 10249 32f6 28       		.uleb128 0x28
 10250 32f7 DC010000 		.4byte	.LVL112
 10251 32fb 824C0000 		.4byte	0x4c82
 10252 32ff 10330000 		.4byte	0x3310
 10253 3303 29       		.uleb128 0x29
 10254 3304 01       		.uleb128 0x1
 10255 3305 51       		.byte	0x51
 10256 3306 02       		.uleb128 0x2
 10257 3307 7A       		.byte	0x7a
 10258 3308 01       		.sleb128 1
 10259 3309 29       		.uleb128 0x29
 10260 330a 01       		.uleb128 0x1
 10261 330b 50       		.byte	0x50
 10262 330c 02       		.uleb128 0x2
 10263 330d 08       		.byte	0x8
 10264 330e 92       		.byte	0x92
 10265 330f 00       		.byte	0
 10266 3310 28       		.uleb128 0x28
 10267 3311 E6010000 		.4byte	.LVL114
 10268 3315 014D0000 		.4byte	0x4d01
 10269 3319 23330000 		.4byte	0x3323
 10270 331d 29       		.uleb128 0x29
 10271 331e 01       		.uleb128 0x1
 10272 331f 50       		.byte	0x50
 10273 3320 01       		.uleb128 0x1
 10274 3321 48       		.byte	0x48
 10275 3322 00       		.byte	0
 10276 3323 28       		.uleb128 0x28
 10277 3324 F0010000 		.4byte	.LVL115
 10278 3328 9C4C0000 		.4byte	0x4c9c
 10279 332c 3D330000 		.4byte	0x333d
 10280 3330 29       		.uleb128 0x29
 10281 3331 01       		.uleb128 0x1
 10282 3332 52       		.byte	0x52
 10283 3333 02       		.uleb128 0x2
 10284 3334 7A       		.byte	0x7a
 10285 3335 00       		.sleb128 0
 10286 3336 29       		.uleb128 0x29
 10287 3337 01       		.uleb128 0x1
 10288 3338 50       		.byte	0x50
 10289 3339 02       		.uleb128 0x2
 10290 333a 79       		.byte	0x79
 10291 333b 00       		.sleb128 0
 10292 333c 00       		.byte	0
 10293 333d 28       		.uleb128 0x28
 10294 333e 08020000 		.4byte	.LVL116
 10295 3342 B94C0000 		.4byte	0x4cb9
 10296 3346 6B330000 		.4byte	0x336b
 10297 334a 29       		.uleb128 0x29
 10298 334b 01       		.uleb128 0x1
 10299 334c 53       		.byte	0x53
 10300 334d 03       		.uleb128 0x3
 10301 334e 0A       		.byte	0xa
 10302 334f 0001     		.2byte	0x100
 10303 3351 29       		.uleb128 0x29
ARM GAS  C:\Users\AHMED~1.ELE\AppData\Local\Temp\ccLLYyS4.s 			page 214


 10304 3352 01       		.uleb128 0x1
 10305 3353 52       		.byte	0x52
 10306 3354 02       		.uleb128 0x2
 10307 3355 79       		.byte	0x79
 10308 3356 00       		.sleb128 0
 10309 3357 29       		.uleb128 0x29
 10310 3358 01       		.uleb128 0x1
 10311 3359 51       		.byte	0x51
 10312 335a 02       		.uleb128 0x2
 10313 335b 08       		.byte	0x8
 10314 335c 25       		.byte	0x25
 10315 335d 29       		.uleb128 0x29
 10316 335e 01       		.uleb128 0x1
 10317 335f 50       		.byte	0x50
 10318 3360 01       		.uleb128 0x1
 10319 3361 3F       		.byte	0x3f
 10320 3362 29       		.uleb128 0x29
 10321 3363 02       		.uleb128 0x2
 10322 3364 7D       		.byte	0x7d
 10323 3365 00       		.sleb128 0
 10324 3366 03       		.uleb128 0x3
 10325 3367 0A       		.byte	0xa
 10326 3368 8010     		.2byte	0x1080
 10327 336a 00       		.byte	0
 10328 336b 2A       		.uleb128 0x2a
 10329 336c 10020000 		.4byte	.LVL117
 10330 3370 824C0000 		.4byte	0x4c82
 10331 3374 29       		.uleb128 0x29
 10332 3375 01       		.uleb128 0x1
 10333 3376 51       		.byte	0x51
 10334 3377 02       		.uleb128 0x2
 10335 3378 79       		.byte	0x79
 10336 3379 00       		.sleb128 0
 10337 337a 29       		.uleb128 0x29
 10338 337b 01       		.uleb128 0x1
 10339 337c 50       		.byte	0x50
 10340 337d 02       		.uleb128 0x2
 10341 337e 08       		.byte	0x8
 10342 337f 94       		.byte	0x94
 10343 3380 00       		.byte	0
 10344 3381 00       		.byte	0
 10345 3382 2C       		.uleb128 0x2c
 10346 3383 3C000000 		.4byte	.LVL91
 10347 3387 2A4E0000 		.4byte	0x4e2a
 10348 338b 28       		.uleb128 0x28
 10349 338c 58000000 		.4byte	.LVL92
 10350 3390 B94C0000 		.4byte	0x4cb9
 10351 3394 B6330000 		.4byte	0x33b6
 10352 3398 29       		.uleb128 0x29
 10353 3399 01       		.uleb128 0x1
 10354 339a 53       		.byte	0x53
 10355 339b 01       		.uleb128 0x1
 10356 339c 30       		.byte	0x30
 10357 339d 29       		.uleb128 0x29
 10358 339e 01       		.uleb128 0x1
 10359 339f 52       		.byte	0x52
 10360 33a0 03       		.uleb128 0x3
ARM GAS  C:\Users\AHMED~1.ELE\AppData\Local\Temp\ccLLYyS4.s 			page 215


 10361 33a1 0A       		.byte	0xa
 10362 33a2 0003     		.2byte	0x300
 10363 33a4 29       		.uleb128 0x29
 10364 33a5 01       		.uleb128 0x1
 10365 33a6 51       		.byte	0x51
 10366 33a7 02       		.uleb128 0x2
 10367 33a8 08       		.byte	0x8
 10368 33a9 23       		.byte	0x23
 10369 33aa 29       		.uleb128 0x29
 10370 33ab 01       		.uleb128 0x1
 10371 33ac 50       		.byte	0x50
 10372 33ad 01       		.uleb128 0x1
 10373 33ae 3F       		.byte	0x3f
 10374 33af 29       		.uleb128 0x29
 10375 33b0 02       		.uleb128 0x2
 10376 33b1 7D       		.byte	0x7d
 10377 33b2 00       		.sleb128 0
 10378 33b3 01       		.uleb128 0x1
 10379 33b4 30       		.byte	0x30
 10380 33b5 00       		.byte	0
 10381 33b6 2C       		.uleb128 0x2c
 10382 33b7 68000000 		.4byte	.LVL93
 10383 33bb 014D0000 		.4byte	0x4d01
 10384 33bf 28       		.uleb128 0x28
 10385 33c0 74000000 		.4byte	.LVL94
 10386 33c4 164D0000 		.4byte	0x4d16
 10387 33c8 DB330000 		.4byte	0x33db
 10388 33cc 29       		.uleb128 0x29
 10389 33cd 01       		.uleb128 0x1
 10390 33ce 52       		.byte	0x52
 10391 33cf 03       		.uleb128 0x3
 10392 33d0 0A       		.byte	0xa
 10393 33d1 0010     		.2byte	0x1000
 10394 33d3 29       		.uleb128 0x29
 10395 33d4 01       		.uleb128 0x1
 10396 33d5 51       		.byte	0x51
 10397 33d6 03       		.uleb128 0x3
 10398 33d7 0A       		.byte	0xa
 10399 33d8 0003     		.2byte	0x300
 10400 33da 00       		.byte	0
 10401 33db 28       		.uleb128 0x28
 10402 33dc 92000000 		.4byte	.LVL95
 10403 33e0 9C4C0000 		.4byte	0x4c9c
 10404 33e4 F4330000 		.4byte	0x33f4
 10405 33e8 29       		.uleb128 0x29
 10406 33e9 01       		.uleb128 0x1
 10407 33ea 52       		.byte	0x52
 10408 33eb 01       		.uleb128 0x1
 10409 33ec 33       		.byte	0x33
 10410 33ed 29       		.uleb128 0x29
 10411 33ee 01       		.uleb128 0x1
 10412 33ef 50       		.byte	0x50
 10413 33f0 02       		.uleb128 0x2
 10414 33f1 91       		.byte	0x91
 10415 33f2 41       		.sleb128 -63
 10416 33f3 00       		.byte	0
 10417 33f4 28       		.uleb128 0x28
ARM GAS  C:\Users\AHMED~1.ELE\AppData\Local\Temp\ccLLYyS4.s 			page 216


 10418 33f5 C6000000 		.4byte	.LVL96
 10419 33f9 B94C0000 		.4byte	0x4cb9
 10420 33fd 13340000 		.4byte	0x3413
 10421 3401 29       		.uleb128 0x29
 10422 3402 01       		.uleb128 0x1
 10423 3403 51       		.byte	0x51
 10424 3404 01       		.uleb128 0x1
 10425 3405 35       		.byte	0x35
 10426 3406 29       		.uleb128 0x29
 10427 3407 01       		.uleb128 0x1
 10428 3408 50       		.byte	0x50
 10429 3409 01       		.uleb128 0x1
 10430 340a 40       		.byte	0x40
 10431 340b 29       		.uleb128 0x29
 10432 340c 02       		.uleb128 0x2
 10433 340d 7D       		.byte	0x7d
 10434 340e 00       		.sleb128 0
 10435 340f 02       		.uleb128 0x2
 10436 3410 76       		.byte	0x76
 10437 3411 00       		.sleb128 0
 10438 3412 00       		.byte	0
 10439 3413 28       		.uleb128 0x28
 10440 3414 EA000000 		.4byte	.LVL97
 10441 3418 0B4E0000 		.4byte	0x4e0b
 10442 341c 2C340000 		.4byte	0x342c
 10443 3420 29       		.uleb128 0x29
 10444 3421 01       		.uleb128 0x1
 10445 3422 52       		.byte	0x52
 10446 3423 01       		.uleb128 0x1
 10447 3424 32       		.byte	0x32
 10448 3425 29       		.uleb128 0x29
 10449 3426 01       		.uleb128 0x1
 10450 3427 51       		.byte	0x51
 10451 3428 02       		.uleb128 0x2
 10452 3429 08       		.byte	0x8
 10453 342a 30       		.byte	0x30
 10454 342b 00       		.byte	0
 10455 342c 28       		.uleb128 0x28
 10456 342d 04010000 		.4byte	.LVL98
 10457 3431 354E0000 		.4byte	0x4e35
 10458 3435 40340000 		.4byte	0x3440
 10459 3439 29       		.uleb128 0x29
 10460 343a 01       		.uleb128 0x1
 10461 343b 50       		.byte	0x50
 10462 343c 02       		.uleb128 0x2
 10463 343d 76       		.byte	0x76
 10464 343e 01       		.sleb128 1
 10465 343f 00       		.byte	0
 10466 3440 2C       		.uleb128 0x2c
 10467 3441 14010000 		.4byte	.LVL99
 10468 3445 4F4E0000 		.4byte	0x4e4f
 10469 3449 28       		.uleb128 0x28
 10470 344a 20010000 		.4byte	.LVL100
 10471 344e 014D0000 		.4byte	0x4d01
 10472 3452 5C340000 		.4byte	0x345c
 10473 3456 29       		.uleb128 0x29
 10474 3457 01       		.uleb128 0x1
ARM GAS  C:\Users\AHMED~1.ELE\AppData\Local\Temp\ccLLYyS4.s 			page 217


 10475 3458 50       		.byte	0x50
 10476 3459 01       		.uleb128 0x1
 10477 345a 46       		.byte	0x46
 10478 345b 00       		.byte	0
 10479 345c 28       		.uleb128 0x28
 10480 345d 2C010000 		.4byte	.LVL101
 10481 3461 164D0000 		.4byte	0x4d16
 10482 3465 78340000 		.4byte	0x3478
 10483 3469 29       		.uleb128 0x29
 10484 346a 01       		.uleb128 0x1
 10485 346b 52       		.byte	0x52
 10486 346c 03       		.uleb128 0x3
 10487 346d 0A       		.byte	0xa
 10488 346e 0010     		.2byte	0x1000
 10489 3470 29       		.uleb128 0x29
 10490 3471 01       		.uleb128 0x1
 10491 3472 51       		.byte	0x51
 10492 3473 03       		.uleb128 0x3
 10493 3474 0A       		.byte	0xa
 10494 3475 0003     		.2byte	0x300
 10495 3477 00       		.byte	0
 10496 3478 28       		.uleb128 0x28
 10497 3479 50010000 		.4byte	.LVL102
 10498 347d B94C0000 		.4byte	0x4cb9
 10499 3481 97340000 		.4byte	0x3497
 10500 3485 29       		.uleb128 0x29
 10501 3486 01       		.uleb128 0x1
 10502 3487 51       		.byte	0x51
 10503 3488 01       		.uleb128 0x1
 10504 3489 35       		.byte	0x35
 10505 348a 29       		.uleb128 0x29
 10506 348b 01       		.uleb128 0x1
 10507 348c 50       		.byte	0x50
 10508 348d 01       		.uleb128 0x1
 10509 348e 40       		.byte	0x40
 10510 348f 29       		.uleb128 0x29
 10511 3490 02       		.uleb128 0x2
 10512 3491 7D       		.byte	0x7d
 10513 3492 00       		.sleb128 0
 10514 3493 02       		.uleb128 0x2
 10515 3494 76       		.byte	0x76
 10516 3495 00       		.sleb128 0
 10517 3496 00       		.byte	0
 10518 3497 28       		.uleb128 0x28
 10519 3498 82010000 		.4byte	.LVL103
 10520 349c 0B4E0000 		.4byte	0x4e0b
 10521 34a0 B0340000 		.4byte	0x34b0
 10522 34a4 29       		.uleb128 0x29
 10523 34a5 01       		.uleb128 0x1
 10524 34a6 52       		.byte	0x52
 10525 34a7 01       		.uleb128 0x1
 10526 34a8 32       		.byte	0x32
 10527 34a9 29       		.uleb128 0x29
 10528 34aa 01       		.uleb128 0x1
 10529 34ab 51       		.byte	0x51
 10530 34ac 02       		.uleb128 0x2
 10531 34ad 08       		.byte	0x8
ARM GAS  C:\Users\AHMED~1.ELE\AppData\Local\Temp\ccLLYyS4.s 			page 218


 10532 34ae 30       		.byte	0x30
 10533 34af 00       		.byte	0
 10534 34b0 28       		.uleb128 0x28
 10535 34b1 9C010000 		.4byte	.LVL104
 10536 34b5 354E0000 		.4byte	0x4e35
 10537 34b9 C4340000 		.4byte	0x34c4
 10538 34bd 29       		.uleb128 0x29
 10539 34be 01       		.uleb128 0x1
 10540 34bf 50       		.byte	0x50
 10541 34c0 02       		.uleb128 0x2
 10542 34c1 76       		.byte	0x76
 10543 34c2 01       		.sleb128 1
 10544 34c3 00       		.byte	0
 10545 34c4 2C       		.uleb128 0x2c
 10546 34c5 A4010000 		.4byte	.LVL105
 10547 34c9 5A4E0000 		.4byte	0x4e5a
 10548 34cd 28       		.uleb128 0x28
 10549 34ce AE010000 		.4byte	.LVL106
 10550 34d2 014D0000 		.4byte	0x4d01
 10551 34d6 E0340000 		.4byte	0x34e0
 10552 34da 29       		.uleb128 0x29
 10553 34db 01       		.uleb128 0x1
 10554 34dc 50       		.byte	0x50
 10555 34dd 01       		.uleb128 0x1
 10556 34de 47       		.byte	0x47
 10557 34df 00       		.byte	0
 10558 34e0 2C       		.uleb128 0x2c
 10559 34e1 B2010000 		.4byte	.LVL107
 10560 34e5 B14D0000 		.4byte	0x4db1
 10561 34e9 28       		.uleb128 0x28
 10562 34ea 20020000 		.4byte	.LVL118
 10563 34ee 654E0000 		.4byte	0x4e65
 10564 34f2 05350000 		.4byte	0x3505
 10565 34f6 29       		.uleb128 0x29
 10566 34f7 01       		.uleb128 0x1
 10567 34f8 53       		.byte	0x53
 10568 34f9 03       		.uleb128 0x3
 10569 34fa 0A       		.byte	0xa
 10570 34fb 0010     		.2byte	0x1000
 10571 34fd 29       		.uleb128 0x29
 10572 34fe 01       		.uleb128 0x1
 10573 34ff 52       		.byte	0x52
 10574 3500 03       		.uleb128 0x3
 10575 3501 0A       		.byte	0xa
 10576 3502 0003     		.2byte	0x300
 10577 3504 00       		.byte	0
 10578 3505 2C       		.uleb128 0x2c
 10579 3506 24020000 		.4byte	.LVL119
 10580 350a B5300000 		.4byte	0x30b5
 10581 350e 00       		.byte	0
 10582 350f 2D       		.uleb128 0x2d
 10583 3510 192B0000 		.4byte	0x2b19
 10584 3514 00000000 		.4byte	.LFB11
 10585 3518 58000000 		.4byte	.LFE11-.LFB11
 10586 351c 01       		.uleb128 0x1
 10587 351d 9C       		.byte	0x9c
 10588 351e C4350000 		.4byte	0x35c4
ARM GAS  C:\Users\AHMED~1.ELE\AppData\Local\Temp\ccLLYyS4.s 			page 219


 10589 3522 2F       		.uleb128 0x2f
 10590 3523 2A2B0000 		.4byte	0x2b2a
 10591 3527 02       		.uleb128 0x2
 10592 3528 91       		.byte	0x91
 10593 3529 68       		.sleb128 -24
 10594 352a 30       		.uleb128 0x30
 10595 352b 362B0000 		.4byte	0x2b36
 10596 352f 6F030000 		.4byte	.LLST23
 10597 3533 30       		.uleb128 0x30
 10598 3534 422B0000 		.4byte	0x2b42
 10599 3538 82030000 		.4byte	.LLST24
 10600 353c 2B       		.uleb128 0x2b
 10601 353d 30000000 		.4byte	.LBB10
 10602 3541 1E000000 		.4byte	.LBE10-.LBB10
 10603 3545 9D350000 		.4byte	0x359d
 10604 3549 37       		.uleb128 0x37
 10605 354a 2A2B0000 		.4byte	0x2b2a
 10606 354e 37       		.uleb128 0x37
 10607 354f 362B0000 		.4byte	0x2b36
 10608 3553 37       		.uleb128 0x37
 10609 3554 422B0000 		.4byte	0x2b42
 10610 3558 28       		.uleb128 0x28
 10611 3559 36000000 		.4byte	.LVL128
 10612 355d 014D0000 		.4byte	0x4d01
 10613 3561 6B350000 		.4byte	0x356b
 10614 3565 29       		.uleb128 0x29
 10615 3566 01       		.uleb128 0x1
 10616 3567 50       		.byte	0x50
 10617 3568 01       		.uleb128 0x1
 10618 3569 4B       		.byte	0x4b
 10619 356a 00       		.byte	0
 10620 356b 2C       		.uleb128 0x2c
 10621 356c 3A000000 		.4byte	.LVL129
 10622 3570 B14D0000 		.4byte	0x4db1
 10623 3574 2A       		.uleb128 0x2a
 10624 3575 4E000000 		.4byte	.LVL130
 10625 3579 B94C0000 		.4byte	0x4cb9
 10626 357d 29       		.uleb128 0x29
 10627 357e 01       		.uleb128 0x1
 10628 357f 53       		.byte	0x53
 10629 3580 03       		.uleb128 0x3
 10630 3581 0A       		.byte	0xa
 10631 3582 2C01     		.2byte	0x12c
 10632 3584 29       		.uleb128 0x29
 10633 3585 01       		.uleb128 0x1
 10634 3586 52       		.byte	0x52
 10635 3587 03       		.uleb128 0x3
 10636 3588 0A       		.byte	0xa
 10637 3589 2823     		.2byte	0x2328
 10638 358b 29       		.uleb128 0x29
 10639 358c 01       		.uleb128 0x1
 10640 358d 51       		.byte	0x51
 10641 358e 01       		.uleb128 0x1
 10642 358f 33       		.byte	0x33
 10643 3590 29       		.uleb128 0x29
 10644 3591 01       		.uleb128 0x1
 10645 3592 50       		.byte	0x50
ARM GAS  C:\Users\AHMED~1.ELE\AppData\Local\Temp\ccLLYyS4.s 			page 220


 10646 3593 01       		.uleb128 0x1
 10647 3594 40       		.byte	0x40
 10648 3595 29       		.uleb128 0x29
 10649 3596 02       		.uleb128 0x2
 10650 3597 7D       		.byte	0x7d
 10651 3598 00       		.sleb128 0
 10652 3599 01       		.uleb128 0x1
 10653 359a 30       		.byte	0x30
 10654 359b 00       		.byte	0
 10655 359c 00       		.byte	0
 10656 359d 28       		.uleb128 0x28
 10657 359e 0A000000 		.4byte	.LVL122
 10658 35a2 804E0000 		.4byte	0x4e80
 10659 35a6 B1350000 		.4byte	0x35b1
 10660 35aa 29       		.uleb128 0x29
 10661 35ab 01       		.uleb128 0x1
 10662 35ac 50       		.byte	0x50
 10663 35ad 02       		.uleb128 0x2
 10664 35ae 91       		.byte	0x91
 10665 35af 68       		.sleb128 -24
 10666 35b0 00       		.byte	0
 10667 35b1 2C       		.uleb128 0x2c
 10668 35b2 12000000 		.4byte	.LVL123
 10669 35b6 724D0000 		.4byte	0x4d72
 10670 35ba 2C       		.uleb128 0x2c
 10671 35bb 1C000000 		.4byte	.LVL125
 10672 35bf 724D0000 		.4byte	0x4d72
 10673 35c3 00       		.byte	0
 10674 35c4 38       		.uleb128 0x38
 10675 35c5 F1020000 		.4byte	.LASF1070
 10676 35c9 01       		.byte	0x1
 10677 35ca 65       		.byte	0x65
 10678 35cb 91000000 		.4byte	0x91
 10679 35cf 01       		.byte	0x1
 10680 35d0 38       		.uleb128 0x38
 10681 35d1 27330000 		.4byte	.LASF1071
 10682 35d5 01       		.byte	0x1
 10683 35d6 59       		.byte	0x59
 10684 35d7 91000000 		.4byte	0x91
 10685 35db 01       		.byte	0x1
 10686 35dc 20       		.uleb128 0x20
 10687 35dd D2040000 		.4byte	.LASF1072
 10688 35e1 01       		.byte	0x1
 10689 35e2 89       		.byte	0x89
 10690 35e3 9C000000 		.4byte	0x9c
 10691 35e7 01       		.byte	0x1
 10692 35e8 03360000 		.4byte	0x3603
 10693 35ec 22       		.uleb128 0x22
 10694 35ed 6C656E00 		.ascii	"len\000"
 10695 35f1 01       		.byte	0x1
 10696 35f2 8B       		.byte	0x8b
 10697 35f3 9C000000 		.4byte	0x9c
 10698 35f7 39       		.uleb128 0x39
 10699 35f8 AE020000 		.4byte	.LASF1073
 10700 35fc 01       		.byte	0x1
 10701 35fd 8C       		.byte	0x8c
 10702 35fe 9C000000 		.4byte	0x9c
ARM GAS  C:\Users\AHMED~1.ELE\AppData\Local\Temp\ccLLYyS4.s 			page 221


 10703 3602 00       		.byte	0
 10704 3603 34       		.uleb128 0x34
 10705 3604 E8310000 		.4byte	.LASF1074
 10706 3608 01       		.byte	0x1
 10707 3609 5601     		.2byte	0x156
 10708 360b 91000000 		.4byte	0x91
 10709 360f 00000000 		.4byte	.LFB7
 10710 3613 08030000 		.4byte	.LFE7-.LFB7
 10711 3617 01       		.uleb128 0x1
 10712 3618 9C       		.byte	0x9c
 10713 3619 69390000 		.4byte	0x3969
 10714 361d 27       		.uleb128 0x27
 10715 361e 69647800 		.ascii	"idx\000"
 10716 3622 01       		.byte	0x1
 10717 3623 5801     		.2byte	0x158
 10718 3625 9C000000 		.4byte	0x9c
 10719 3629 95030000 		.4byte	.LLST25
 10720 362d 35       		.uleb128 0x35
 10721 362e E7160000 		.4byte	.LASF1075
 10722 3632 01       		.byte	0x1
 10723 3633 5801     		.2byte	0x158
 10724 3635 9C000000 		.4byte	0x9c
 10725 3639 A8030000 		.4byte	.LLST26
 10726 363d 25       		.uleb128 0x25
 10727 363e AD0C0000 		.4byte	.LASF1076
 10728 3642 01       		.byte	0x1
 10729 3643 5901     		.2byte	0x159
 10730 3645 9A1A0000 		.4byte	0x1a9a
 10731 3649 02       		.uleb128 0x2
 10732 364a 91       		.byte	0x91
 10733 364b 50       		.sleb128 -48
 10734 364c 3A       		.uleb128 0x3a
 10735 364d C4350000 		.4byte	0x35c4
 10736 3651 92000000 		.4byte	.LBB21
 10737 3655 06000000 		.4byte	.LBE21-.LBB21
 10738 3659 01       		.byte	0x1
 10739 365a 7501     		.2byte	0x175
 10740 365c 3A       		.uleb128 0x3a
 10741 365d D0350000 		.4byte	0x35d0
 10742 3661 9E000000 		.4byte	.LBB23
 10743 3665 08000000 		.4byte	.LBE23-.LBB23
 10744 3669 01       		.byte	0x1
 10745 366a 7501     		.2byte	0x175
 10746 366c 3B       		.uleb128 0x3b
 10747 366d D0350000 		.4byte	0x35d0
 10748 3671 B4000000 		.4byte	.LBB25
 10749 3675 30000000 		.4byte	.Ldebug_ranges0+0x30
 10750 3679 01       		.byte	0x1
 10751 367a 7B01     		.2byte	0x17b
 10752 367c 3C       		.uleb128 0x3c
 10753 367d 8A2B0000 		.4byte	0x2b8a
 10754 3681 C8000000 		.4byte	.LBB29
 10755 3685 48000000 		.4byte	.Ldebug_ranges0+0x48
 10756 3689 01       		.byte	0x1
 10757 368a 7F01     		.2byte	0x17f
 10758 368c 63370000 		.4byte	0x3763
 10759 3690 2E       		.uleb128 0x2e
ARM GAS  C:\Users\AHMED~1.ELE\AppData\Local\Temp\ccLLYyS4.s 			page 222


 10760 3691 9A2B0000 		.4byte	0x2b9a
 10761 3695 CD030000 		.4byte	.LLST27
 10762 3699 2E       		.uleb128 0x2e
 10763 369a A52B0000 		.4byte	0x2ba5
 10764 369e EB030000 		.4byte	.LLST28
 10765 36a2 3D       		.uleb128 0x3d
 10766 36a3 48000000 		.4byte	.Ldebug_ranges0+0x48
 10767 36a7 30       		.uleb128 0x30
 10768 36a8 B02B0000 		.4byte	0x2bb0
 10769 36ac FE030000 		.4byte	.LLST29
 10770 36b0 30       		.uleb128 0x30
 10771 36b1 BB2B0000 		.4byte	0x2bbb
 10772 36b5 8C040000 		.4byte	.LLST30
 10773 36b9 2F       		.uleb128 0x2f
 10774 36ba C62B0000 		.4byte	0x2bc6
 10775 36be 02       		.uleb128 0x2
 10776 36bf 91       		.byte	0x91
 10777 36c0 50       		.sleb128 -48
 10778 36c1 28       		.uleb128 0x28
 10779 36c2 FE000000 		.4byte	.LVL146
 10780 36c6 0B4E0000 		.4byte	0x4e0b
 10781 36ca E0360000 		.4byte	0x36e0
 10782 36ce 29       		.uleb128 0x29
 10783 36cf 01       		.uleb128 0x1
 10784 36d0 52       		.byte	0x52
 10785 36d1 01       		.uleb128 0x1
 10786 36d2 44       		.byte	0x44
 10787 36d3 29       		.uleb128 0x29
 10788 36d4 01       		.uleb128 0x1
 10789 36d5 51       		.byte	0x51
 10790 36d6 02       		.uleb128 0x2
 10791 36d7 08       		.byte	0x8
 10792 36d8 46       		.byte	0x46
 10793 36d9 29       		.uleb128 0x29
 10794 36da 01       		.uleb128 0x1
 10795 36db 50       		.byte	0x50
 10796 36dc 02       		.uleb128 0x2
 10797 36dd 7D       		.byte	0x7d
 10798 36de 00       		.sleb128 0
 10799 36df 00       		.byte	0
 10800 36e0 28       		.uleb128 0x28
 10801 36e1 48010000 		.4byte	.LVL155
 10802 36e5 974E0000 		.4byte	0x4e97
 10803 36e9 FC360000 		.4byte	0x36fc
 10804 36ed 29       		.uleb128 0x29
 10805 36ee 01       		.uleb128 0x1
 10806 36ef 52       		.byte	0x52
 10807 36f0 04       		.uleb128 0x4
 10808 36f1 76       		.byte	0x76
 10809 36f2 01       		.sleb128 1
 10810 36f3 31       		.byte	0x31
 10811 36f4 25       		.byte	0x25
 10812 36f5 29       		.uleb128 0x29
 10813 36f6 01       		.uleb128 0x1
 10814 36f7 51       		.byte	0x51
 10815 36f8 02       		.uleb128 0x2
 10816 36f9 7D       		.byte	0x7d
ARM GAS  C:\Users\AHMED~1.ELE\AppData\Local\Temp\ccLLYyS4.s 			page 223


 10817 36fa 00       		.sleb128 0
 10818 36fb 00       		.byte	0
 10819 36fc 28       		.uleb128 0x28
 10820 36fd 72010000 		.4byte	.LVL164
 10821 3701 534D0000 		.4byte	0x4d53
 10822 3705 10370000 		.4byte	0x3710
 10823 3709 29       		.uleb128 0x29
 10824 370a 01       		.uleb128 0x1
 10825 370b 51       		.byte	0x51
 10826 370c 02       		.uleb128 0x2
 10827 370d 08       		.byte	0x8
 10828 370e 3D       		.byte	0x3d
 10829 370f 00       		.byte	0
 10830 3710 28       		.uleb128 0x28
 10831 3711 90010000 		.4byte	.LVL167
 10832 3715 0B4E0000 		.4byte	0x4e0b
 10833 3719 2F370000 		.4byte	0x372f
 10834 371d 29       		.uleb128 0x29
 10835 371e 01       		.uleb128 0x1
 10836 371f 52       		.byte	0x52
 10837 3720 01       		.uleb128 0x1
 10838 3721 3A       		.byte	0x3a
 10839 3722 29       		.uleb128 0x29
 10840 3723 01       		.uleb128 0x1
 10841 3724 51       		.byte	0x51
 10842 3725 02       		.uleb128 0x2
 10843 3726 08       		.byte	0x8
 10844 3727 FF       		.byte	0xff
 10845 3728 29       		.uleb128 0x29
 10846 3729 01       		.uleb128 0x1
 10847 372a 50       		.byte	0x50
 10848 372b 02       		.uleb128 0x2
 10849 372c 75       		.byte	0x75
 10850 372d 09       		.sleb128 9
 10851 372e 00       		.byte	0
 10852 372f 28       		.uleb128 0x28
 10853 3730 9E010000 		.4byte	.LVL168
 10854 3734 974E0000 		.4byte	0x4e97
 10855 3738 52370000 		.4byte	0x3752
 10856 373c 29       		.uleb128 0x29
 10857 373d 01       		.uleb128 0x1
 10858 373e 52       		.byte	0x52
 10859 373f 04       		.uleb128 0x4
 10860 3740 74       		.byte	0x74
 10861 3741 00       		.sleb128 0
 10862 3742 31       		.byte	0x31
 10863 3743 25       		.byte	0x25
 10864 3744 29       		.uleb128 0x29
 10865 3745 01       		.uleb128 0x1
 10866 3746 51       		.byte	0x51
 10867 3747 03       		.uleb128 0x3
 10868 3748 75       		.byte	0x75
 10869 3749 A105     		.sleb128 673
 10870 374b 29       		.uleb128 0x29
 10871 374c 01       		.uleb128 0x1
 10872 374d 50       		.byte	0x50
 10873 374e 02       		.uleb128 0x2
ARM GAS  C:\Users\AHMED~1.ELE\AppData\Local\Temp\ccLLYyS4.s 			page 224


 10874 374f 75       		.byte	0x75
 10875 3750 09       		.sleb128 9
 10876 3751 00       		.byte	0
 10877 3752 2A       		.uleb128 0x2a
 10878 3753 B6010000 		.4byte	.LVL169
 10879 3757 974E0000 		.4byte	0x4e97
 10880 375b 29       		.uleb128 0x29
 10881 375c 01       		.uleb128 0x1
 10882 375d 52       		.byte	0x52
 10883 375e 01       		.uleb128 0x1
 10884 375f 32       		.byte	0x32
 10885 3760 00       		.byte	0
 10886 3761 00       		.byte	0
 10887 3762 00       		.byte	0
 10888 3763 3E       		.uleb128 0x3e
 10889 3764 DC350000 		.4byte	0x35dc
 10890 3768 E8010000 		.4byte	.LBB33
 10891 376c 50000000 		.4byte	.LBE33-.LBB33
 10892 3770 01       		.byte	0x1
 10893 3771 8B01     		.2byte	0x18b
 10894 3773 E7370000 		.4byte	0x37e7
 10895 3777 3F       		.uleb128 0x3f
 10896 3778 E8010000 		.4byte	.LBB34
 10897 377c 50000000 		.4byte	.LBE34-.LBB34
 10898 3780 30       		.uleb128 0x30
 10899 3781 EC350000 		.4byte	0x35ec
 10900 3785 FA040000 		.4byte	.LLST31
 10901 3789 30       		.uleb128 0x30
 10902 378a F7350000 		.4byte	0x35f7
 10903 378e 23050000 		.4byte	.LLST32
 10904 3792 28       		.uleb128 0x28
 10905 3793 FE010000 		.4byte	.LVL176
 10906 3797 534D0000 		.4byte	0x4d53
 10907 379b AB370000 		.4byte	0x37ab
 10908 379f 29       		.uleb128 0x29
 10909 37a0 01       		.uleb128 0x1
 10910 37a1 52       		.byte	0x52
 10911 37a2 01       		.uleb128 0x1
 10912 37a3 46       		.byte	0x46
 10913 37a4 29       		.uleb128 0x29
 10914 37a5 01       		.uleb128 0x1
 10915 37a6 51       		.byte	0x51
 10916 37a7 02       		.uleb128 0x2
 10917 37a8 08       		.byte	0x8
 10918 37a9 5E       		.byte	0x5e
 10919 37aa 00       		.byte	0
 10920 37ab 28       		.uleb128 0x28
 10921 37ac 12020000 		.4byte	.LVL179
 10922 37b0 534D0000 		.4byte	0x4d53
 10923 37b4 D0370000 		.4byte	0x37d0
 10924 37b8 29       		.uleb128 0x29
 10925 37b9 01       		.uleb128 0x1
 10926 37ba 52       		.byte	0x52
 10927 37bb 01       		.uleb128 0x1
 10928 37bc 4E       		.byte	0x4e
 10929 37bd 29       		.uleb128 0x29
 10930 37be 01       		.uleb128 0x1
ARM GAS  C:\Users\AHMED~1.ELE\AppData\Local\Temp\ccLLYyS4.s 			page 225


 10931 37bf 51       		.byte	0x51
 10932 37c0 02       		.uleb128 0x2
 10933 37c1 08       		.byte	0x8
 10934 37c2 5E       		.byte	0x5e
 10935 37c3 29       		.uleb128 0x29
 10936 37c4 01       		.uleb128 0x1
 10937 37c5 50       		.byte	0x50
 10938 37c6 08       		.uleb128 0x8
 10939 37c7 75       		.byte	0x75
 10940 37c8 00       		.sleb128 0
 10941 37c9 76       		.byte	0x76
 10942 37ca 00       		.sleb128 0
 10943 37cb 22       		.byte	0x22
 10944 37cc 23       		.byte	0x23
 10945 37cd 8204     		.uleb128 0x202
 10946 37cf 00       		.byte	0
 10947 37d0 2A       		.uleb128 0x2a
 10948 37d1 2C020000 		.4byte	.LVL183
 10949 37d5 534D0000 		.4byte	0x4d53
 10950 37d9 29       		.uleb128 0x29
 10951 37da 01       		.uleb128 0x1
 10952 37db 52       		.byte	0x52
 10953 37dc 01       		.uleb128 0x1
 10954 37dd 44       		.byte	0x44
 10955 37de 29       		.uleb128 0x29
 10956 37df 01       		.uleb128 0x1
 10957 37e0 51       		.byte	0x51
 10958 37e1 02       		.uleb128 0x2
 10959 37e2 08       		.byte	0x8
 10960 37e3 3D       		.byte	0x3d
 10961 37e4 00       		.byte	0
 10962 37e5 00       		.byte	0
 10963 37e6 00       		.byte	0
 10964 37e7 28       		.uleb128 0x28
 10965 37e8 12000000 		.4byte	.LVL132
 10966 37ec 0B4E0000 		.4byte	0x4e0b
 10967 37f0 00380000 		.4byte	0x3800
 10968 37f4 29       		.uleb128 0x29
 10969 37f5 01       		.uleb128 0x1
 10970 37f6 52       		.byte	0x52
 10971 37f7 01       		.uleb128 0x1
 10972 37f8 4A       		.byte	0x4a
 10973 37f9 29       		.uleb128 0x29
 10974 37fa 01       		.uleb128 0x1
 10975 37fb 51       		.byte	0x51
 10976 37fc 02       		.uleb128 0x2
 10977 37fd 08       		.byte	0x8
 10978 37fe 20       		.byte	0x20
 10979 37ff 00       		.byte	0
 10980 3800 2C       		.uleb128 0x2c
 10981 3801 24000000 		.4byte	.LVL133
 10982 3805 782E0000 		.4byte	0x2e78
 10983 3809 2C       		.uleb128 0x2c
 10984 380a 2A000000 		.4byte	.LVL134
 10985 380e B24E0000 		.4byte	0x4eb2
 10986 3812 28       		.uleb128 0x28
 10987 3813 3A000000 		.4byte	.LVL135
ARM GAS  C:\Users\AHMED~1.ELE\AppData\Local\Temp\ccLLYyS4.s 			page 226


 10988 3817 384D0000 		.4byte	0x4d38
 10989 381b 31380000 		.4byte	0x3831
 10990 381f 29       		.uleb128 0x29
 10991 3820 01       		.uleb128 0x1
 10992 3821 52       		.byte	0x52
 10993 3822 01       		.uleb128 0x1
 10994 3823 3A       		.byte	0x3a
 10995 3824 29       		.uleb128 0x29
 10996 3825 01       		.uleb128 0x1
 10997 3826 51       		.byte	0x51
 10998 3827 02       		.uleb128 0x2
 10999 3828 74       		.byte	0x74
 11000 3829 09       		.sleb128 9
 11001 382a 29       		.uleb128 0x29
 11002 382b 01       		.uleb128 0x1
 11003 382c 50       		.byte	0x50
 11004 382d 02       		.uleb128 0x2
 11005 382e 91       		.byte	0x91
 11006 382f 51       		.sleb128 -47
 11007 3830 00       		.byte	0
 11008 3831 28       		.uleb128 0x28
 11009 3832 46000000 		.4byte	.LVL136
 11010 3836 534D0000 		.4byte	0x4d53
 11011 383a 50380000 		.4byte	0x3850
 11012 383e 29       		.uleb128 0x29
 11013 383f 01       		.uleb128 0x1
 11014 3840 52       		.byte	0x52
 11015 3841 01       		.uleb128 0x1
 11016 3842 43       		.byte	0x43
 11017 3843 29       		.uleb128 0x29
 11018 3844 01       		.uleb128 0x1
 11019 3845 51       		.byte	0x51
 11020 3846 02       		.uleb128 0x2
 11021 3847 08       		.byte	0x8
 11022 3848 46       		.byte	0x46
 11023 3849 29       		.uleb128 0x29
 11024 384a 01       		.uleb128 0x1
 11025 384b 50       		.byte	0x50
 11026 384c 02       		.uleb128 0x2
 11027 384d 91       		.byte	0x91
 11028 384e 51       		.sleb128 -47
 11029 384f 00       		.byte	0
 11030 3850 28       		.uleb128 0x28
 11031 3851 56000000 		.4byte	.LVL137
 11032 3855 BD4E0000 		.4byte	0x4ebd
 11033 3859 64380000 		.4byte	0x3864
 11034 385d 29       		.uleb128 0x29
 11035 385e 01       		.uleb128 0x1
 11036 385f 50       		.byte	0x50
 11037 3860 02       		.uleb128 0x2
 11038 3861 91       		.byte	0x91
 11039 3862 51       		.sleb128 -47
 11040 3863 00       		.byte	0
 11041 3864 2C       		.uleb128 0x2c
 11042 3865 6A000000 		.4byte	.LVL138
 11043 3869 D74E0000 		.4byte	0x4ed7
 11044 386d 28       		.uleb128 0x28
ARM GAS  C:\Users\AHMED~1.ELE\AppData\Local\Temp\ccLLYyS4.s 			page 227


 11045 386e 72000000 		.4byte	.LVL139
 11046 3872 014D0000 		.4byte	0x4d01
 11047 3876 80380000 		.4byte	0x3880
 11048 387a 29       		.uleb128 0x29
 11049 387b 01       		.uleb128 0x1
 11050 387c 50       		.byte	0x50
 11051 387d 01       		.uleb128 0x1
 11052 387e 41       		.byte	0x41
 11053 387f 00       		.byte	0
 11054 3880 2C       		.uleb128 0x2c
 11055 3881 76000000 		.4byte	.LVL140
 11056 3885 B14D0000 		.4byte	0x4db1
 11057 3889 2C       		.uleb128 0x2c
 11058 388a 8A000000 		.4byte	.LVL141
 11059 388e E24E0000 		.4byte	0x4ee2
 11060 3892 28       		.uleb128 0x28
 11061 3893 D6000000 		.4byte	.LVL142
 11062 3897 0B4E0000 		.4byte	0x4e0b
 11063 389b AB380000 		.4byte	0x38ab
 11064 389f 29       		.uleb128 0x29
 11065 38a0 01       		.uleb128 0x1
 11066 38a1 52       		.byte	0x52
 11067 38a2 01       		.uleb128 0x1
 11068 38a3 3A       		.byte	0x3a
 11069 38a4 29       		.uleb128 0x29
 11070 38a5 01       		.uleb128 0x1
 11071 38a6 51       		.byte	0x51
 11072 38a7 02       		.uleb128 0x2
 11073 38a8 08       		.byte	0x8
 11074 38a9 FF       		.byte	0xff
 11075 38aa 00       		.byte	0
 11076 38ab 2C       		.uleb128 0x2c
 11077 38ac C2010000 		.4byte	.LVL172
 11078 38b0 192B0000 		.4byte	0x2b19
 11079 38b4 2C       		.uleb128 0x2c
 11080 38b5 CC010000 		.4byte	.LVL173
 11081 38b9 782E0000 		.4byte	0x2e78
 11082 38bd 2C       		.uleb128 0x2c
 11083 38be E4010000 		.4byte	.LVL174
 11084 38c2 D74E0000 		.4byte	0x4ed7
 11085 38c6 2C       		.uleb128 0x2c
 11086 38c7 5C020000 		.4byte	.LVL189
 11087 38cb B24E0000 		.4byte	0x4eb2
 11088 38cf 28       		.uleb128 0x28
 11089 38d0 6A020000 		.4byte	.LVL191
 11090 38d4 384D0000 		.4byte	0x4d38
 11091 38d8 E8380000 		.4byte	0x38e8
 11092 38dc 29       		.uleb128 0x29
 11093 38dd 01       		.uleb128 0x1
 11094 38de 52       		.byte	0x52
 11095 38df 01       		.uleb128 0x1
 11096 38e0 3A       		.byte	0x3a
 11097 38e1 29       		.uleb128 0x29
 11098 38e2 01       		.uleb128 0x1
 11099 38e3 50       		.byte	0x50
 11100 38e4 02       		.uleb128 0x2
 11101 38e5 91       		.byte	0x91
ARM GAS  C:\Users\AHMED~1.ELE\AppData\Local\Temp\ccLLYyS4.s 			page 228


 11102 38e6 51       		.sleb128 -47
 11103 38e7 00       		.byte	0
 11104 38e8 28       		.uleb128 0x28
 11105 38e9 76020000 		.4byte	.LVL192
 11106 38ed BD4E0000 		.4byte	0x4ebd
 11107 38f1 FC380000 		.4byte	0x38fc
 11108 38f5 29       		.uleb128 0x29
 11109 38f6 01       		.uleb128 0x1
 11110 38f7 50       		.byte	0x50
 11111 38f8 02       		.uleb128 0x2
 11112 38f9 91       		.byte	0x91
 11113 38fa 51       		.sleb128 -47
 11114 38fb 00       		.byte	0
 11115 38fc 28       		.uleb128 0x28
 11116 38fd 92020000 		.4byte	.LVL195
 11117 3901 822D0000 		.4byte	0x2d82
 11118 3905 0F390000 		.4byte	0x390f
 11119 3909 29       		.uleb128 0x29
 11120 390a 01       		.uleb128 0x1
 11121 390b 50       		.byte	0x50
 11122 390c 01       		.uleb128 0x1
 11123 390d 30       		.byte	0x30
 11124 390e 00       		.byte	0
 11125 390f 28       		.uleb128 0x28
 11126 3910 A0020000 		.4byte	.LVL198
 11127 3914 822D0000 		.4byte	0x2d82
 11128 3918 23390000 		.4byte	0x3923
 11129 391c 29       		.uleb128 0x29
 11130 391d 01       		.uleb128 0x1
 11131 391e 50       		.byte	0x50
 11132 391f 02       		.uleb128 0x2
 11133 3920 74       		.byte	0x74
 11134 3921 00       		.sleb128 0
 11135 3922 00       		.byte	0
 11136 3923 28       		.uleb128 0x28
 11137 3924 BA020000 		.4byte	.LVL200
 11138 3928 9C4C0000 		.4byte	0x4c9c
 11139 392c 43390000 		.4byte	0x3943
 11140 3930 29       		.uleb128 0x29
 11141 3931 01       		.uleb128 0x1
 11142 3932 51       		.byte	0x51
 11143 3933 08       		.uleb128 0x8
 11144 3934 75       		.byte	0x75
 11145 3935 00       		.sleb128 0
 11146 3936 74       		.byte	0x74
 11147 3937 00       		.sleb128 0
 11148 3938 22       		.byte	0x22
 11149 3939 23       		.byte	0x23
 11150 393a 8104     		.uleb128 0x201
 11151 393c 29       		.uleb128 0x29
 11152 393d 01       		.uleb128 0x1
 11153 393e 50       		.byte	0x50
 11154 393f 02       		.uleb128 0x2
 11155 3940 75       		.byte	0x75
 11156 3941 35       		.sleb128 53
 11157 3942 00       		.byte	0
 11158 3943 28       		.uleb128 0x28
ARM GAS  C:\Users\AHMED~1.ELE\AppData\Local\Temp\ccLLYyS4.s 			page 229


 11159 3944 D6020000 		.4byte	.LVL201
 11160 3948 ED4E0000 		.4byte	0x4eed
 11161 394c 56390000 		.4byte	0x3956
 11162 3950 29       		.uleb128 0x29
 11163 3951 01       		.uleb128 0x1
 11164 3952 51       		.byte	0x51
 11165 3953 01       		.uleb128 0x1
 11166 3954 34       		.byte	0x34
 11167 3955 00       		.byte	0
 11168 3956 2C       		.uleb128 0x2c
 11169 3957 E4020000 		.4byte	.LVL203
 11170 395b 014D0000 		.4byte	0x4d01
 11171 395f 2C       		.uleb128 0x2c
 11172 3960 E8020000 		.4byte	.LVL204
 11173 3964 B14D0000 		.4byte	0x4db1
 11174 3968 00       		.byte	0
 11175 3969 34       		.uleb128 0x34
 11176 396a 8E250000 		.4byte	.LASF1077
 11177 396e 01       		.byte	0x1
 11178 396f 6902     		.2byte	0x269
 11179 3971 91000000 		.4byte	0x91
 11180 3975 00000000 		.4byte	.LFB12
 11181 3979 18010000 		.4byte	.LFE12-.LFB12
 11182 397d 01       		.uleb128 0x1
 11183 397e 9C       		.byte	0x9c
 11184 397f B83A0000 		.4byte	0x3ab8
 11185 3983 36       		.uleb128 0x36
 11186 3984 64746700 		.ascii	"dtg\000"
 11187 3988 01       		.byte	0x1
 11188 3989 6B02     		.2byte	0x26b
 11189 398b EC1A0000 		.4byte	0x1aec
 11190 398f 02       		.uleb128 0x2
 11191 3990 91       		.byte	0x91
 11192 3991 48       		.sleb128 -56
 11193 3992 35       		.uleb128 0x35
 11194 3993 8A2E0000 		.4byte	.LASF1041
 11195 3997 01       		.byte	0x1
 11196 3998 6C02     		.2byte	0x26c
 11197 399a B2000000 		.4byte	0xb2
 11198 399e 6F050000 		.4byte	.LLST33
 11199 39a2 35       		.uleb128 0x35
 11200 39a3 902E0000 		.4byte	.LASF1042
 11201 39a7 01       		.byte	0x1
 11202 39a8 6C02     		.2byte	0x26c
 11203 39aa B2000000 		.4byte	0xb2
 11204 39ae B2050000 		.4byte	.LLST34
 11205 39b2 25       		.uleb128 0x25
 11206 39b3 7C140000 		.4byte	.LASF1064
 11207 39b7 01       		.byte	0x1
 11208 39b8 6D02     		.2byte	0x26d
 11209 39ba B83A0000 		.4byte	0x3ab8
 11210 39be 02       		.uleb128 0x2
 11211 39bf 91       		.byte	0x91
 11212 39c0 50       		.sleb128 -48
 11213 39c1 2C       		.uleb128 0x2c
 11214 39c2 10000000 		.4byte	.LVL205
 11215 39c6 074F0000 		.4byte	0x4f07
ARM GAS  C:\Users\AHMED~1.ELE\AppData\Local\Temp\ccLLYyS4.s 			page 230


 11216 39ca 28       		.uleb128 0x28
 11217 39cb 24000000 		.4byte	.LVL206
 11218 39cf 014D0000 		.4byte	0x4d01
 11219 39d3 DD390000 		.4byte	0x39dd
 11220 39d7 29       		.uleb128 0x29
 11221 39d8 01       		.uleb128 0x1
 11222 39d9 50       		.byte	0x50
 11223 39da 01       		.uleb128 0x1
 11224 39db 49       		.byte	0x49
 11225 39dc 00       		.byte	0
 11226 39dd 28       		.uleb128 0x28
 11227 39de 30000000 		.4byte	.LVL207
 11228 39e2 164D0000 		.4byte	0x4d16
 11229 39e6 F9390000 		.4byte	0x39f9
 11230 39ea 29       		.uleb128 0x29
 11231 39eb 01       		.uleb128 0x1
 11232 39ec 52       		.byte	0x52
 11233 39ed 03       		.uleb128 0x3
 11234 39ee 0A       		.byte	0xa
 11235 39ef 0010     		.2byte	0x1000
 11236 39f1 29       		.uleb128 0x29
 11237 39f2 01       		.uleb128 0x1
 11238 39f3 51       		.byte	0x51
 11239 39f4 03       		.uleb128 0x3
 11240 39f5 0A       		.byte	0xa
 11241 39f6 0003     		.2byte	0x300
 11242 39f8 00       		.byte	0
 11243 39f9 28       		.uleb128 0x28
 11244 39fa 40000000 		.4byte	.LVL208
 11245 39fe B94C0000 		.4byte	0x4cb9
 11246 3a02 283A0000 		.4byte	0x3a28
 11247 3a06 29       		.uleb128 0x29
 11248 3a07 01       		.uleb128 0x1
 11249 3a08 53       		.byte	0x53
 11250 3a09 03       		.uleb128 0x3
 11251 3a0a 0A       		.byte	0xa
 11252 3a0b 0404     		.2byte	0x404
 11253 3a0d 29       		.uleb128 0x29
 11254 3a0e 01       		.uleb128 0x1
 11255 3a0f 52       		.byte	0x52
 11256 3a10 05       		.uleb128 0x5
 11257 3a11 0C       		.byte	0xc
 11258 3a12 FF172000 		.4byte	0x2017ff
 11259 3a16 29       		.uleb128 0x29
 11260 3a17 01       		.uleb128 0x1
 11261 3a18 51       		.byte	0x51
 11262 3a19 01       		.uleb128 0x1
 11263 3a1a 35       		.byte	0x35
 11264 3a1b 29       		.uleb128 0x29
 11265 3a1c 01       		.uleb128 0x1
 11266 3a1d 50       		.byte	0x50
 11267 3a1e 01       		.uleb128 0x1
 11268 3a1f 40       		.byte	0x40
 11269 3a20 29       		.uleb128 0x29
 11270 3a21 02       		.uleb128 0x2
 11271 3a22 7D       		.byte	0x7d
 11272 3a23 00       		.sleb128 0
ARM GAS  C:\Users\AHMED~1.ELE\AppData\Local\Temp\ccLLYyS4.s 			page 231


 11273 3a24 02       		.uleb128 0x2
 11274 3a25 75       		.byte	0x75
 11275 3a26 00       		.sleb128 0
 11276 3a27 00       		.byte	0
 11277 3a28 28       		.uleb128 0x28
 11278 3a29 50000000 		.4byte	.LVL209
 11279 3a2d 974E0000 		.4byte	0x4e97
 11280 3a31 473A0000 		.4byte	0x3a47
 11281 3a35 29       		.uleb128 0x29
 11282 3a36 01       		.uleb128 0x1
 11283 3a37 52       		.byte	0x52
 11284 3a38 01       		.uleb128 0x1
 11285 3a39 32       		.byte	0x32
 11286 3a3a 29       		.uleb128 0x29
 11287 3a3b 01       		.uleb128 0x1
 11288 3a3c 51       		.byte	0x51
 11289 3a3d 02       		.uleb128 0x2
 11290 3a3e 75       		.byte	0x75
 11291 3a3f 01       		.sleb128 1
 11292 3a40 29       		.uleb128 0x29
 11293 3a41 01       		.uleb128 0x1
 11294 3a42 50       		.byte	0x50
 11295 3a43 02       		.uleb128 0x2
 11296 3a44 75       		.byte	0x75
 11297 3a45 05       		.sleb128 5
 11298 3a46 00       		.byte	0
 11299 3a47 28       		.uleb128 0x28
 11300 3a48 6A000000 		.4byte	.LVL210
 11301 3a4c 014D0000 		.4byte	0x4d01
 11302 3a50 5A3A0000 		.4byte	0x3a5a
 11303 3a54 29       		.uleb128 0x29
 11304 3a55 01       		.uleb128 0x1
 11305 3a56 50       		.byte	0x50
 11306 3a57 01       		.uleb128 0x1
 11307 3a58 4A       		.byte	0x4a
 11308 3a59 00       		.byte	0
 11309 3a5a 2C       		.uleb128 0x2c
 11310 3a5b 6E000000 		.4byte	.LVL211
 11311 3a5f B14D0000 		.4byte	0x4db1
 11312 3a63 28       		.uleb128 0x28
 11313 3a64 A8000000 		.4byte	.LVL214
 11314 3a68 014D0000 		.4byte	0x4d01
 11315 3a6c 763A0000 		.4byte	0x3a76
 11316 3a70 29       		.uleb128 0x29
 11317 3a71 01       		.uleb128 0x1
 11318 3a72 50       		.byte	0x50
 11319 3a73 01       		.uleb128 0x1
 11320 3a74 4B       		.byte	0x4b
 11321 3a75 00       		.byte	0
 11322 3a76 2C       		.uleb128 0x2c
 11323 3a77 AC000000 		.4byte	.LVL215
 11324 3a7b B14D0000 		.4byte	0x4db1
 11325 3a7f 2C       		.uleb128 0x2c
 11326 3a80 B0000000 		.4byte	.LVL216
 11327 3a84 124F0000 		.4byte	0x4f12
 11328 3a88 2C       		.uleb128 0x2c
 11329 3a89 C8000000 		.4byte	.LVL219
ARM GAS  C:\Users\AHMED~1.ELE\AppData\Local\Temp\ccLLYyS4.s 			page 232


 11330 3a8d 1D4F0000 		.4byte	0x4f1d
 11331 3a91 28       		.uleb128 0x28
 11332 3a92 D2000000 		.4byte	.LVL220
 11333 3a96 804E0000 		.4byte	0x4e80
 11334 3a9a A53A0000 		.4byte	0x3aa5
 11335 3a9e 29       		.uleb128 0x29
 11336 3a9f 01       		.uleb128 0x1
 11337 3aa0 50       		.byte	0x50
 11338 3aa1 02       		.uleb128 0x2
 11339 3aa2 91       		.byte	0x91
 11340 3aa3 48       		.sleb128 -56
 11341 3aa4 00       		.byte	0
 11342 3aa5 2C       		.uleb128 0x2c
 11343 3aa6 DA000000 		.4byte	.LVL221
 11344 3aaa 724D0000 		.4byte	0x4d72
 11345 3aae 2C       		.uleb128 0x2c
 11346 3aaf E2000000 		.4byte	.LVL223
 11347 3ab3 724D0000 		.4byte	0x4d72
 11348 3ab7 00       		.byte	0
 11349 3ab8 08       		.uleb128 0x8
 11350 3ab9 9C000000 		.4byte	0x9c
 11351 3abd C83A0000 		.4byte	0x3ac8
 11352 3ac1 09       		.uleb128 0x9
 11353 3ac2 76000000 		.4byte	0x76
 11354 3ac6 1E       		.byte	0x1e
 11355 3ac7 00       		.byte	0
 11356 3ac8 34       		.uleb128 0x34
 11357 3ac9 BF2C0000 		.4byte	.LASF1078
 11358 3acd 01       		.byte	0x1
 11359 3ace AB02     		.2byte	0x2ab
 11360 3ad0 91000000 		.4byte	0x91
 11361 3ad4 00000000 		.4byte	.LFB13
 11362 3ad8 C0020000 		.4byte	.LFE13-.LFB13
 11363 3adc 01       		.uleb128 0x1
 11364 3add 9C       		.byte	0x9c
 11365 3ade E43F0000 		.4byte	0x3fe4
 11366 3ae2 35       		.uleb128 0x35
 11367 3ae3 E3370000 		.4byte	.LASF1079
 11368 3ae7 01       		.byte	0x1
 11369 3ae8 AD02     		.2byte	0x2ad
 11370 3aea B2000000 		.4byte	0xb2
 11371 3aee C5050000 		.4byte	.LLST35
 11372 3af2 35       		.uleb128 0x35
 11373 3af3 E7140000 		.4byte	.LASF1080
 11374 3af7 01       		.byte	0x1
 11375 3af8 AD02     		.2byte	0x2ad
 11376 3afa B2000000 		.4byte	0xb2
 11377 3afe 25060000 		.4byte	.LLST36
 11378 3b02 35       		.uleb128 0x35
 11379 3b03 AC360000 		.4byte	.LASF1081
 11380 3b07 01       		.byte	0x1
 11381 3b08 AD02     		.2byte	0x2ad
 11382 3b0a B2000000 		.4byte	0xb2
 11383 3b0e 43060000 		.4byte	.LLST37
 11384 3b12 27       		.uleb128 0x27
 11385 3b13 6900     		.ascii	"i\000"
 11386 3b15 01       		.byte	0x1
ARM GAS  C:\Users\AHMED~1.ELE\AppData\Local\Temp\ccLLYyS4.s 			page 233


 11387 3b16 AE02     		.2byte	0x2ae
 11388 3b18 9C000000 		.4byte	0x9c
 11389 3b1c 7D060000 		.4byte	.LLST38
 11390 3b20 35       		.uleb128 0x35
 11391 3b21 1E1C0000 		.4byte	.LASF1082
 11392 3b25 01       		.byte	0x1
 11393 3b26 AE02     		.2byte	0x2ae
 11394 3b28 9C000000 		.4byte	0x9c
 11395 3b2c C7060000 		.4byte	.LLST39
 11396 3b30 35       		.uleb128 0x35
 11397 3b31 26060000 		.4byte	.LASF1083
 11398 3b35 01       		.byte	0x1
 11399 3b36 AE02     		.2byte	0x2ae
 11400 3b38 9C000000 		.4byte	0x9c
 11401 3b3c 20070000 		.4byte	.LLST40
 11402 3b40 35       		.uleb128 0x35
 11403 3b41 62390000 		.4byte	.LASF1084
 11404 3b45 01       		.byte	0x1
 11405 3b46 AE02     		.2byte	0x2ae
 11406 3b48 9C000000 		.4byte	0x9c
 11407 3b4c 4D070000 		.4byte	.LLST41
 11408 3b50 36       		.uleb128 0x36
 11409 3b51 746D7000 		.ascii	"tmp\000"
 11410 3b55 01       		.byte	0x1
 11411 3b56 AF02     		.2byte	0x2af
 11412 3b58 722D0000 		.4byte	0x2d72
 11413 3b5c 03       		.uleb128 0x3
 11414 3b5d 91       		.byte	0x91
 11415 3b5e BC7F     		.sleb128 -68
 11416 3b60 35       		.uleb128 0x35
 11417 3b61 27070000 		.4byte	.LASF1085
 11418 3b65 01       		.byte	0x1
 11419 3b66 B002     		.2byte	0x2b0
 11420 3b68 E43F0000 		.4byte	0x3fe4
 11421 3b6c 6B070000 		.4byte	.LLST42
 11422 3b70 2B       		.uleb128 0x2b
 11423 3b71 6E000000 		.4byte	.LBB35
 11424 3b75 48000000 		.4byte	.LBE35-.LBB35
 11425 3b79 453C0000 		.4byte	0x3c45
 11426 3b7d 27       		.uleb128 0x27
 11427 3b7e 6C656E00 		.ascii	"len\000"
 11428 3b82 01       		.byte	0x1
 11429 3b83 C802     		.2byte	0x2c8
 11430 3b85 B2000000 		.4byte	0xb2
 11431 3b89 89070000 		.4byte	.LLST43
 11432 3b8d 27       		.uleb128 0x27
 11433 3b8e 70747200 		.ascii	"ptr\000"
 11434 3b92 01       		.byte	0x1
 11435 3b93 C802     		.2byte	0x2c8
 11436 3b95 E3000000 		.4byte	0xe3
 11437 3b99 A7070000 		.4byte	.LLST44
 11438 3b9d 28       		.uleb128 0x28
 11439 3b9e 74000000 		.4byte	.LVL236
 11440 3ba2 014D0000 		.4byte	0x4d01
 11441 3ba6 B03B0000 		.4byte	0x3bb0
 11442 3baa 29       		.uleb128 0x29
 11443 3bab 01       		.uleb128 0x1
ARM GAS  C:\Users\AHMED~1.ELE\AppData\Local\Temp\ccLLYyS4.s 			page 234


 11444 3bac 50       		.byte	0x50
 11445 3bad 01       		.uleb128 0x1
 11446 3bae 4C       		.byte	0x4c
 11447 3baf 00       		.byte	0
 11448 3bb0 2C       		.uleb128 0x2c
 11449 3bb1 78000000 		.4byte	.LVL237
 11450 3bb5 6D4C0000 		.4byte	0x4c6d
 11451 3bb9 28       		.uleb128 0x28
 11452 3bba 82000000 		.4byte	.LVL240
 11453 3bbe 824C0000 		.4byte	0x4c82
 11454 3bc2 D33B0000 		.4byte	0x3bd3
 11455 3bc6 29       		.uleb128 0x29
 11456 3bc7 01       		.uleb128 0x1
 11457 3bc8 51       		.byte	0x51
 11458 3bc9 02       		.uleb128 0x2
 11459 3bca 77       		.byte	0x77
 11460 3bcb 01       		.sleb128 1
 11461 3bcc 29       		.uleb128 0x29
 11462 3bcd 01       		.uleb128 0x1
 11463 3bce 50       		.byte	0x50
 11464 3bcf 02       		.uleb128 0x2
 11465 3bd0 08       		.byte	0x8
 11466 3bd1 92       		.byte	0x92
 11467 3bd2 00       		.byte	0
 11468 3bd3 28       		.uleb128 0x28
 11469 3bd4 8C000000 		.4byte	.LVL243
 11470 3bd8 014D0000 		.4byte	0x4d01
 11471 3bdc E63B0000 		.4byte	0x3be6
 11472 3be0 29       		.uleb128 0x29
 11473 3be1 01       		.uleb128 0x1
 11474 3be2 50       		.byte	0x50
 11475 3be3 01       		.uleb128 0x1
 11476 3be4 4C       		.byte	0x4c
 11477 3be5 00       		.byte	0
 11478 3be6 28       		.uleb128 0x28
 11479 3be7 96000000 		.4byte	.LVL244
 11480 3beb 9C4C0000 		.4byte	0x4c9c
 11481 3bef 003C0000 		.4byte	0x3c00
 11482 3bf3 29       		.uleb128 0x29
 11483 3bf4 01       		.uleb128 0x1
 11484 3bf5 52       		.byte	0x52
 11485 3bf6 02       		.uleb128 0x2
 11486 3bf7 77       		.byte	0x77
 11487 3bf8 00       		.sleb128 0
 11488 3bf9 29       		.uleb128 0x29
 11489 3bfa 01       		.uleb128 0x1
 11490 3bfb 50       		.byte	0x50
 11491 3bfc 02       		.uleb128 0x2
 11492 3bfd 74       		.byte	0x74
 11493 3bfe 00       		.sleb128 0
 11494 3bff 00       		.byte	0
 11495 3c00 28       		.uleb128 0x28
 11496 3c01 AE000000 		.4byte	.LVL245
 11497 3c05 B94C0000 		.4byte	0x4cb9
 11498 3c09 2E3C0000 		.4byte	0x3c2e
 11499 3c0d 29       		.uleb128 0x29
 11500 3c0e 01       		.uleb128 0x1
ARM GAS  C:\Users\AHMED~1.ELE\AppData\Local\Temp\ccLLYyS4.s 			page 235


 11501 3c0f 53       		.byte	0x53
 11502 3c10 03       		.uleb128 0x3
 11503 3c11 0A       		.byte	0xa
 11504 3c12 0001     		.2byte	0x100
 11505 3c14 29       		.uleb128 0x29
 11506 3c15 01       		.uleb128 0x1
 11507 3c16 52       		.byte	0x52
 11508 3c17 02       		.uleb128 0x2
 11509 3c18 74       		.byte	0x74
 11510 3c19 00       		.sleb128 0
 11511 3c1a 29       		.uleb128 0x29
 11512 3c1b 01       		.uleb128 0x1
 11513 3c1c 51       		.byte	0x51
 11514 3c1d 02       		.uleb128 0x2
 11515 3c1e 08       		.byte	0x8
 11516 3c1f 25       		.byte	0x25
 11517 3c20 29       		.uleb128 0x29
 11518 3c21 01       		.uleb128 0x1
 11519 3c22 50       		.byte	0x50
 11520 3c23 01       		.uleb128 0x1
 11521 3c24 3F       		.byte	0x3f
 11522 3c25 29       		.uleb128 0x29
 11523 3c26 02       		.uleb128 0x2
 11524 3c27 7D       		.byte	0x7d
 11525 3c28 00       		.sleb128 0
 11526 3c29 03       		.uleb128 0x3
 11527 3c2a 0A       		.byte	0xa
 11528 3c2b 9210     		.2byte	0x1092
 11529 3c2d 00       		.byte	0
 11530 3c2e 2A       		.uleb128 0x2a
 11531 3c2f B6000000 		.4byte	.LVL246
 11532 3c33 824C0000 		.4byte	0x4c82
 11533 3c37 29       		.uleb128 0x29
 11534 3c38 01       		.uleb128 0x1
 11535 3c39 51       		.byte	0x51
 11536 3c3a 02       		.uleb128 0x2
 11537 3c3b 74       		.byte	0x74
 11538 3c3c 00       		.sleb128 0
 11539 3c3d 29       		.uleb128 0x29
 11540 3c3e 01       		.uleb128 0x1
 11541 3c3f 50       		.byte	0x50
 11542 3c40 02       		.uleb128 0x2
 11543 3c41 08       		.byte	0x8
 11544 3c42 94       		.byte	0x94
 11545 3c43 00       		.byte	0
 11546 3c44 00       		.byte	0
 11547 3c45 2B       		.uleb128 0x2b
 11548 3c46 0C010000 		.4byte	.LBB36
 11549 3c4a 48000000 		.4byte	.LBE36-.LBB36
 11550 3c4e FE3C0000 		.4byte	0x3cfe
 11551 3c52 27       		.uleb128 0x27
 11552 3c53 6C656E00 		.ascii	"len\000"
 11553 3c57 01       		.byte	0x1
 11554 3c58 D402     		.2byte	0x2d4
 11555 3c5a B2000000 		.4byte	0xb2
 11556 3c5e C5070000 		.4byte	.LLST45
 11557 3c62 27       		.uleb128 0x27
ARM GAS  C:\Users\AHMED~1.ELE\AppData\Local\Temp\ccLLYyS4.s 			page 236


 11558 3c63 70747200 		.ascii	"ptr\000"
 11559 3c67 01       		.byte	0x1
 11560 3c68 D402     		.2byte	0x2d4
 11561 3c6a E3000000 		.4byte	0xe3
 11562 3c6e E3070000 		.4byte	.LLST46
 11563 3c72 28       		.uleb128 0x28
 11564 3c73 12010000 		.4byte	.LVL253
 11565 3c77 6D4C0000 		.4byte	0x4c6d
 11566 3c7b 873C0000 		.4byte	0x3c87
 11567 3c7f 29       		.uleb128 0x29
 11568 3c80 01       		.uleb128 0x1
 11569 3c81 50       		.byte	0x50
 11570 3c82 03       		.uleb128 0x3
 11571 3c83 91       		.byte	0x91
 11572 3c84 BC7F     		.sleb128 -68
 11573 3c86 00       		.byte	0
 11574 3c87 28       		.uleb128 0x28
 11575 3c88 1E010000 		.4byte	.LVL256
 11576 3c8c 824C0000 		.4byte	0x4c82
 11577 3c90 A13C0000 		.4byte	0x3ca1
 11578 3c94 29       		.uleb128 0x29
 11579 3c95 01       		.uleb128 0x1
 11580 3c96 51       		.byte	0x51
 11581 3c97 02       		.uleb128 0x2
 11582 3c98 7A       		.byte	0x7a
 11583 3c99 01       		.sleb128 1
 11584 3c9a 29       		.uleb128 0x29
 11585 3c9b 01       		.uleb128 0x1
 11586 3c9c 50       		.byte	0x50
 11587 3c9d 02       		.uleb128 0x2
 11588 3c9e 08       		.byte	0x8
 11589 3c9f 92       		.byte	0x92
 11590 3ca0 00       		.byte	0
 11591 3ca1 28       		.uleb128 0x28
 11592 3ca2 2A010000 		.4byte	.LVL257
 11593 3ca6 9C4C0000 		.4byte	0x4c9c
 11594 3caa C23C0000 		.4byte	0x3cc2
 11595 3cae 29       		.uleb128 0x29
 11596 3caf 01       		.uleb128 0x1
 11597 3cb0 52       		.byte	0x52
 11598 3cb1 02       		.uleb128 0x2
 11599 3cb2 7A       		.byte	0x7a
 11600 3cb3 00       		.sleb128 0
 11601 3cb4 29       		.uleb128 0x29
 11602 3cb5 01       		.uleb128 0x1
 11603 3cb6 51       		.byte	0x51
 11604 3cb7 03       		.uleb128 0x3
 11605 3cb8 91       		.byte	0x91
 11606 3cb9 BC7F     		.sleb128 -68
 11607 3cbb 29       		.uleb128 0x29
 11608 3cbc 01       		.uleb128 0x1
 11609 3cbd 50       		.byte	0x50
 11610 3cbe 02       		.uleb128 0x2
 11611 3cbf 78       		.byte	0x78
 11612 3cc0 00       		.sleb128 0
 11613 3cc1 00       		.byte	0
 11614 3cc2 28       		.uleb128 0x28
ARM GAS  C:\Users\AHMED~1.ELE\AppData\Local\Temp\ccLLYyS4.s 			page 237


 11615 3cc3 4C010000 		.4byte	.LVL258
 11616 3cc7 B94C0000 		.4byte	0x4cb9
 11617 3ccb E73C0000 		.4byte	0x3ce7
 11618 3ccf 29       		.uleb128 0x29
 11619 3cd0 01       		.uleb128 0x1
 11620 3cd1 53       		.byte	0x53
 11621 3cd2 02       		.uleb128 0x2
 11622 3cd3 74       		.byte	0x74
 11623 3cd4 00       		.sleb128 0
 11624 3cd5 29       		.uleb128 0x29
 11625 3cd6 01       		.uleb128 0x1
 11626 3cd7 52       		.byte	0x52
 11627 3cd8 02       		.uleb128 0x2
 11628 3cd9 78       		.byte	0x78
 11629 3cda 00       		.sleb128 0
 11630 3cdb 29       		.uleb128 0x29
 11631 3cdc 01       		.uleb128 0x1
 11632 3cdd 51       		.byte	0x51
 11633 3cde 02       		.uleb128 0x2
 11634 3cdf 08       		.byte	0x8
 11635 3ce0 25       		.byte	0x25
 11636 3ce1 29       		.uleb128 0x29
 11637 3ce2 01       		.uleb128 0x1
 11638 3ce3 50       		.byte	0x50
 11639 3ce4 01       		.uleb128 0x1
 11640 3ce5 3F       		.byte	0x3f
 11641 3ce6 00       		.byte	0
 11642 3ce7 2A       		.uleb128 0x2a
 11643 3ce8 54010000 		.4byte	.LVL259
 11644 3cec 824C0000 		.4byte	0x4c82
 11645 3cf0 29       		.uleb128 0x29
 11646 3cf1 01       		.uleb128 0x1
 11647 3cf2 51       		.byte	0x51
 11648 3cf3 02       		.uleb128 0x2
 11649 3cf4 78       		.byte	0x78
 11650 3cf5 00       		.sleb128 0
 11651 3cf6 29       		.uleb128 0x29
 11652 3cf7 01       		.uleb128 0x1
 11653 3cf8 50       		.byte	0x50
 11654 3cf9 02       		.uleb128 0x2
 11655 3cfa 08       		.byte	0x8
 11656 3cfb 94       		.byte	0x94
 11657 3cfc 00       		.byte	0
 11658 3cfd 00       		.byte	0
 11659 3cfe 2B       		.uleb128 0x2b
 11660 3cff 6E010000 		.4byte	.LBB37
 11661 3d03 32000000 		.4byte	.LBE37-.LBB37
 11662 3d07 903D0000 		.4byte	0x3d90
 11663 3d0b 27       		.uleb128 0x27
 11664 3d0c 6C656E00 		.ascii	"len\000"
 11665 3d10 01       		.byte	0x1
 11666 3d11 DA02     		.2byte	0x2da
 11667 3d13 B2000000 		.4byte	0xb2
 11668 3d17 01080000 		.4byte	.LLST47
 11669 3d1b 27       		.uleb128 0x27
 11670 3d1c 70747200 		.ascii	"ptr\000"
 11671 3d20 01       		.byte	0x1
ARM GAS  C:\Users\AHMED~1.ELE\AppData\Local\Temp\ccLLYyS4.s 			page 238


 11672 3d21 DA02     		.2byte	0x2da
 11673 3d23 E3000000 		.4byte	0xe3
 11674 3d27 15080000 		.4byte	.LLST48
 11675 3d2b 28       		.uleb128 0x28
 11676 3d2c 76010000 		.4byte	.LVL264
 11677 3d30 824C0000 		.4byte	0x4c82
 11678 3d34 443D0000 		.4byte	0x3d44
 11679 3d38 29       		.uleb128 0x29
 11680 3d39 01       		.uleb128 0x1
 11681 3d3a 51       		.byte	0x51
 11682 3d3b 01       		.uleb128 0x1
 11683 3d3c 46       		.byte	0x46
 11684 3d3d 29       		.uleb128 0x29
 11685 3d3e 01       		.uleb128 0x1
 11686 3d3f 50       		.byte	0x50
 11687 3d40 02       		.uleb128 0x2
 11688 3d41 08       		.byte	0x8
 11689 3d42 92       		.byte	0x92
 11690 3d43 00       		.byte	0
 11691 3d44 28       		.uleb128 0x28
 11692 3d45 82010000 		.4byte	.LVL266
 11693 3d49 9C4C0000 		.4byte	0x4c9c
 11694 3d4d 663D0000 		.4byte	0x3d66
 11695 3d51 29       		.uleb128 0x29
 11696 3d52 01       		.uleb128 0x1
 11697 3d53 52       		.byte	0x52
 11698 3d54 01       		.uleb128 0x1
 11699 3d55 45       		.byte	0x45
 11700 3d56 29       		.uleb128 0x29
 11701 3d57 01       		.uleb128 0x1
 11702 3d58 51       		.byte	0x51
 11703 3d59 05       		.uleb128 0x5
 11704 3d5a 03       		.byte	0x3
 11705 3d5b 00000000 		.4byte	.LC0
 11706 3d5f 29       		.uleb128 0x29
 11707 3d60 01       		.uleb128 0x1
 11708 3d61 50       		.byte	0x50
 11709 3d62 02       		.uleb128 0x2
 11710 3d63 7A       		.byte	0x7a
 11711 3d64 00       		.sleb128 0
 11712 3d65 00       		.byte	0
 11713 3d66 2A       		.uleb128 0x2a
 11714 3d67 9A010000 		.4byte	.LVL267
 11715 3d6b B94C0000 		.4byte	0x4cb9
 11716 3d6f 29       		.uleb128 0x29
 11717 3d70 01       		.uleb128 0x1
 11718 3d71 53       		.byte	0x53
 11719 3d72 02       		.uleb128 0x2
 11720 3d73 74       		.byte	0x74
 11721 3d74 00       		.sleb128 0
 11722 3d75 29       		.uleb128 0x29
 11723 3d76 01       		.uleb128 0x1
 11724 3d77 52       		.byte	0x52
 11725 3d78 02       		.uleb128 0x2
 11726 3d79 7A       		.byte	0x7a
 11727 3d7a 00       		.sleb128 0
 11728 3d7b 29       		.uleb128 0x29
ARM GAS  C:\Users\AHMED~1.ELE\AppData\Local\Temp\ccLLYyS4.s 			page 239


 11729 3d7c 01       		.uleb128 0x1
 11730 3d7d 51       		.byte	0x51
 11731 3d7e 02       		.uleb128 0x2
 11732 3d7f 08       		.byte	0x8
 11733 3d80 25       		.byte	0x25
 11734 3d81 29       		.uleb128 0x29
 11735 3d82 01       		.uleb128 0x1
 11736 3d83 50       		.byte	0x50
 11737 3d84 01       		.uleb128 0x1
 11738 3d85 3F       		.byte	0x3f
 11739 3d86 29       		.uleb128 0x29
 11740 3d87 02       		.uleb128 0x2
 11741 3d88 7D       		.byte	0x7d
 11742 3d89 00       		.sleb128 0
 11743 3d8a 03       		.uleb128 0x3
 11744 3d8b 0A       		.byte	0xa
 11745 3d8c 1020     		.2byte	0x2010
 11746 3d8e 00       		.byte	0
 11747 3d8f 00       		.byte	0
 11748 3d90 2B       		.uleb128 0x2b
 11749 3d91 A4010000 		.4byte	.LBB38
 11750 3d95 10000000 		.4byte	.LBE38-.LBB38
 11751 3d99 D33D0000 		.4byte	0x3dd3
 11752 3d9d 27       		.uleb128 0x27
 11753 3d9e 6C656E00 		.ascii	"len\000"
 11754 3da2 01       		.byte	0x1
 11755 3da3 DD02     		.2byte	0x2dd
 11756 3da5 B2000000 		.4byte	0xb2
 11757 3da9 33080000 		.4byte	.LLST49
 11758 3dad 27       		.uleb128 0x27
 11759 3dae 70747200 		.ascii	"ptr\000"
 11760 3db2 01       		.byte	0x1
 11761 3db3 DD02     		.2byte	0x2dd
 11762 3db5 E3000000 		.4byte	0xe3
 11763 3db9 47080000 		.4byte	.LLST50
 11764 3dbd 2A       		.uleb128 0x2a
 11765 3dbe AC010000 		.4byte	.LVL270
 11766 3dc2 824C0000 		.4byte	0x4c82
 11767 3dc6 29       		.uleb128 0x29
 11768 3dc7 01       		.uleb128 0x1
 11769 3dc8 51       		.byte	0x51
 11770 3dc9 01       		.uleb128 0x1
 11771 3dca 46       		.byte	0x46
 11772 3dcb 29       		.uleb128 0x29
 11773 3dcc 01       		.uleb128 0x1
 11774 3dcd 50       		.byte	0x50
 11775 3dce 02       		.uleb128 0x2
 11776 3dcf 08       		.byte	0x8
 11777 3dd0 92       		.byte	0x92
 11778 3dd1 00       		.byte	0
 11779 3dd2 00       		.byte	0
 11780 3dd3 2B       		.uleb128 0x2b
 11781 3dd4 B4010000 		.4byte	.LBB39
 11782 3dd8 34000000 		.4byte	.LBE39-.LBB39
 11783 3ddc 643E0000 		.4byte	0x3e64
 11784 3de0 27       		.uleb128 0x27
 11785 3de1 6C656E00 		.ascii	"len\000"
ARM GAS  C:\Users\AHMED~1.ELE\AppData\Local\Temp\ccLLYyS4.s 			page 240


 11786 3de5 01       		.byte	0x1
 11787 3de6 E102     		.2byte	0x2e1
 11788 3de8 B2000000 		.4byte	0xb2
 11789 3dec 5A080000 		.4byte	.LLST51
 11790 3df0 27       		.uleb128 0x27
 11791 3df1 70747200 		.ascii	"ptr\000"
 11792 3df5 01       		.byte	0x1
 11793 3df6 E102     		.2byte	0x2e1
 11794 3df8 E3000000 		.4byte	0xe3
 11795 3dfc 6E080000 		.4byte	.LLST52
 11796 3e00 28       		.uleb128 0x28
 11797 3e01 BC010000 		.4byte	.LVL273
 11798 3e05 824C0000 		.4byte	0x4c82
 11799 3e09 193E0000 		.4byte	0x3e19
 11800 3e0d 29       		.uleb128 0x29
 11801 3e0e 01       		.uleb128 0x1
 11802 3e0f 51       		.byte	0x51
 11803 3e10 01       		.uleb128 0x1
 11804 3e11 46       		.byte	0x46
 11805 3e12 29       		.uleb128 0x29
 11806 3e13 01       		.uleb128 0x1
 11807 3e14 50       		.byte	0x50
 11808 3e15 02       		.uleb128 0x2
 11809 3e16 08       		.byte	0x8
 11810 3e17 92       		.byte	0x92
 11811 3e18 00       		.byte	0
 11812 3e19 28       		.uleb128 0x28
 11813 3e1a C8010000 		.4byte	.LVL276
 11814 3e1e 9C4C0000 		.4byte	0x4c9c
 11815 3e22 2C3E0000 		.4byte	0x3e2c
 11816 3e26 29       		.uleb128 0x29
 11817 3e27 01       		.uleb128 0x1
 11818 3e28 52       		.byte	0x52
 11819 3e29 01       		.uleb128 0x1
 11820 3e2a 45       		.byte	0x45
 11821 3e2b 00       		.byte	0
 11822 3e2c 28       		.uleb128 0x28
 11823 3e2d E0010000 		.4byte	.LVL278
 11824 3e31 B94C0000 		.4byte	0x4cb9
 11825 3e35 5A3E0000 		.4byte	0x3e5a
 11826 3e39 29       		.uleb128 0x29
 11827 3e3a 01       		.uleb128 0x1
 11828 3e3b 53       		.byte	0x53
 11829 3e3c 03       		.uleb128 0x3
 11830 3e3d 0A       		.byte	0xa
 11831 3e3e 0009     		.2byte	0x900
 11832 3e40 29       		.uleb128 0x29
 11833 3e41 01       		.uleb128 0x1
 11834 3e42 52       		.byte	0x52
 11835 3e43 02       		.uleb128 0x2
 11836 3e44 74       		.byte	0x74
 11837 3e45 00       		.sleb128 0
 11838 3e46 29       		.uleb128 0x29
 11839 3e47 01       		.uleb128 0x1
 11840 3e48 51       		.byte	0x51
 11841 3e49 02       		.uleb128 0x2
 11842 3e4a 08       		.byte	0x8
ARM GAS  C:\Users\AHMED~1.ELE\AppData\Local\Temp\ccLLYyS4.s 			page 241


 11843 3e4b 25       		.byte	0x25
 11844 3e4c 29       		.uleb128 0x29
 11845 3e4d 01       		.uleb128 0x1
 11846 3e4e 50       		.byte	0x50
 11847 3e4f 01       		.uleb128 0x1
 11848 3e50 3F       		.byte	0x3f
 11849 3e51 29       		.uleb128 0x29
 11850 3e52 02       		.uleb128 0x2
 11851 3e53 7D       		.byte	0x7d
 11852 3e54 00       		.sleb128 0
 11853 3e55 03       		.uleb128 0x3
 11854 3e56 0A       		.byte	0xa
 11855 3e57 1020     		.2byte	0x2010
 11856 3e59 00       		.byte	0
 11857 3e5a 2C       		.uleb128 0x2c
 11858 3e5b E8010000 		.4byte	.LVL279
 11859 3e5f 824C0000 		.4byte	0x4c82
 11860 3e63 00       		.byte	0
 11861 3e64 2C       		.uleb128 0x2c
 11862 3e65 12000000 		.4byte	.LVL226
 11863 3e69 284F0000 		.4byte	0x4f28
 11864 3e6d 28       		.uleb128 0x28
 11865 3e6e 28000000 		.4byte	.LVL227
 11866 3e72 B94C0000 		.4byte	0x4cb9
 11867 3e76 983E0000 		.4byte	0x3e98
 11868 3e7a 29       		.uleb128 0x29
 11869 3e7b 01       		.uleb128 0x1
 11870 3e7c 53       		.byte	0x53
 11871 3e7d 02       		.uleb128 0x2
 11872 3e7e 74       		.byte	0x74
 11873 3e7f 00       		.sleb128 0
 11874 3e80 29       		.uleb128 0x29
 11875 3e81 01       		.uleb128 0x1
 11876 3e82 52       		.byte	0x52
 11877 3e83 02       		.uleb128 0x2
 11878 3e84 74       		.byte	0x74
 11879 3e85 00       		.sleb128 0
 11880 3e86 29       		.uleb128 0x29
 11881 3e87 01       		.uleb128 0x1
 11882 3e88 51       		.byte	0x51
 11883 3e89 01       		.uleb128 0x1
 11884 3e8a 46       		.byte	0x46
 11885 3e8b 29       		.uleb128 0x29
 11886 3e8c 01       		.uleb128 0x1
 11887 3e8d 50       		.byte	0x50
 11888 3e8e 01       		.uleb128 0x1
 11889 3e8f 40       		.byte	0x40
 11890 3e90 29       		.uleb128 0x29
 11891 3e91 02       		.uleb128 0x2
 11892 3e92 7D       		.byte	0x7d
 11893 3e93 00       		.sleb128 0
 11894 3e94 02       		.uleb128 0x2
 11895 3e95 74       		.byte	0x74
 11896 3e96 00       		.sleb128 0
 11897 3e97 00       		.byte	0
 11898 3e98 28       		.uleb128 0x28
 11899 3e99 46000000 		.4byte	.LVL229
ARM GAS  C:\Users\AHMED~1.ELE\AppData\Local\Temp\ccLLYyS4.s 			page 242


 11900 3e9d 824C0000 		.4byte	0x4c82
 11901 3ea1 B23E0000 		.4byte	0x3eb2
 11902 3ea5 29       		.uleb128 0x29
 11903 3ea6 01       		.uleb128 0x1
 11904 3ea7 51       		.byte	0x51
 11905 3ea8 02       		.uleb128 0x2
 11906 3ea9 77       		.byte	0x77
 11907 3eaa 00       		.sleb128 0
 11908 3eab 29       		.uleb128 0x29
 11909 3eac 01       		.uleb128 0x1
 11910 3ead 50       		.byte	0x50
 11911 3eae 02       		.uleb128 0x2
 11912 3eaf 08       		.byte	0x8
 11913 3eb0 92       		.byte	0x92
 11914 3eb1 00       		.byte	0
 11915 3eb2 28       		.uleb128 0x28
 11916 3eb3 50000000 		.4byte	.LVL231
 11917 3eb7 334F0000 		.4byte	0x4f33
 11918 3ebb D23E0000 		.4byte	0x3ed2
 11919 3ebf 29       		.uleb128 0x29
 11920 3ec0 01       		.uleb128 0x1
 11921 3ec1 52       		.byte	0x52
 11922 3ec2 02       		.uleb128 0x2
 11923 3ec3 77       		.byte	0x77
 11924 3ec4 00       		.sleb128 0
 11925 3ec5 29       		.uleb128 0x29
 11926 3ec6 01       		.uleb128 0x1
 11927 3ec7 51       		.byte	0x51
 11928 3ec8 02       		.uleb128 0x2
 11929 3ec9 74       		.byte	0x74
 11930 3eca 00       		.sleb128 0
 11931 3ecb 29       		.uleb128 0x29
 11932 3ecc 01       		.uleb128 0x1
 11933 3ecd 50       		.byte	0x50
 11934 3ece 02       		.uleb128 0x2
 11935 3ecf 76       		.byte	0x76
 11936 3ed0 00       		.sleb128 0
 11937 3ed1 00       		.byte	0
 11938 3ed2 28       		.uleb128 0x28
 11939 3ed3 6A000000 		.4byte	.LVL234
 11940 3ed7 B94C0000 		.4byte	0x4cb9
 11941 3edb 033F0000 		.4byte	0x3f03
 11942 3edf 29       		.uleb128 0x29
 11943 3ee0 01       		.uleb128 0x1
 11944 3ee1 53       		.byte	0x53
 11945 3ee2 09       		.uleb128 0x9
 11946 3ee3 74       		.byte	0x74
 11947 3ee4 7F       		.sleb128 -1
 11948 3ee5 35       		.byte	0x35
 11949 3ee6 24       		.byte	0x24
 11950 3ee7 76       		.byte	0x76
 11951 3ee8 00       		.sleb128 0
 11952 3ee9 22       		.byte	0x22
 11953 3eea 23       		.byte	0x23
 11954 3eeb 04       		.uleb128 0x4
 11955 3eec 29       		.uleb128 0x29
 11956 3eed 01       		.uleb128 0x1
ARM GAS  C:\Users\AHMED~1.ELE\AppData\Local\Temp\ccLLYyS4.s 			page 243


 11957 3eee 52       		.byte	0x52
 11958 3eef 02       		.uleb128 0x2
 11959 3ef0 74       		.byte	0x74
 11960 3ef1 7F       		.sleb128 -1
 11961 3ef2 29       		.uleb128 0x29
 11962 3ef3 01       		.uleb128 0x1
 11963 3ef4 51       		.byte	0x51
 11964 3ef5 01       		.uleb128 0x1
 11965 3ef6 47       		.byte	0x47
 11966 3ef7 29       		.uleb128 0x29
 11967 3ef8 01       		.uleb128 0x1
 11968 3ef9 50       		.byte	0x50
 11969 3efa 01       		.uleb128 0x1
 11970 3efb 40       		.byte	0x40
 11971 3efc 29       		.uleb128 0x29
 11972 3efd 02       		.uleb128 0x2
 11973 3efe 7D       		.byte	0x7d
 11974 3eff 00       		.sleb128 0
 11975 3f00 01       		.uleb128 0x1
 11976 3f01 30       		.byte	0x30
 11977 3f02 00       		.byte	0
 11978 3f03 28       		.uleb128 0x28
 11979 3f04 CA000000 		.4byte	.LVL249
 11980 3f08 B94C0000 		.4byte	0x4cb9
 11981 3f0c 2E3F0000 		.4byte	0x3f2e
 11982 3f10 29       		.uleb128 0x29
 11983 3f11 01       		.uleb128 0x1
 11984 3f12 53       		.byte	0x53
 11985 3f13 01       		.uleb128 0x1
 11986 3f14 30       		.byte	0x30
 11987 3f15 29       		.uleb128 0x29
 11988 3f16 01       		.uleb128 0x1
 11989 3f17 52       		.byte	0x52
 11990 3f18 03       		.uleb128 0x3
 11991 3f19 0A       		.byte	0xa
 11992 3f1a 0003     		.2byte	0x300
 11993 3f1c 29       		.uleb128 0x29
 11994 3f1d 01       		.uleb128 0x1
 11995 3f1e 51       		.byte	0x51
 11996 3f1f 02       		.uleb128 0x2
 11997 3f20 08       		.byte	0x8
 11998 3f21 23       		.byte	0x23
 11999 3f22 29       		.uleb128 0x29
 12000 3f23 01       		.uleb128 0x1
 12001 3f24 50       		.byte	0x50
 12002 3f25 01       		.uleb128 0x1
 12003 3f26 3F       		.byte	0x3f
 12004 3f27 29       		.uleb128 0x29
 12005 3f28 02       		.uleb128 0x2
 12006 3f29 7D       		.byte	0x7d
 12007 3f2a 00       		.sleb128 0
 12008 3f2b 01       		.uleb128 0x1
 12009 3f2c 30       		.byte	0x30
 12010 3f2d 00       		.byte	0
 12011 3f2e 28       		.uleb128 0x28
 12012 3f2f E4000000 		.4byte	.LVL251
 12013 3f33 0B4E0000 		.4byte	0x4e0b
ARM GAS  C:\Users\AHMED~1.ELE\AppData\Local\Temp\ccLLYyS4.s 			page 244


 12014 3f37 4E3F0000 		.4byte	0x3f4e
 12015 3f3b 29       		.uleb128 0x29
 12016 3f3c 01       		.uleb128 0x1
 12017 3f3d 52       		.byte	0x52
 12018 3f3e 01       		.uleb128 0x1
 12019 3f3f 4B       		.byte	0x4b
 12020 3f40 29       		.uleb128 0x29
 12021 3f41 01       		.uleb128 0x1
 12022 3f42 51       		.byte	0x51
 12023 3f43 02       		.uleb128 0x2
 12024 3f44 08       		.byte	0x8
 12025 3f45 20       		.byte	0x20
 12026 3f46 29       		.uleb128 0x29
 12027 3f47 01       		.uleb128 0x1
 12028 3f48 50       		.byte	0x50
 12029 3f49 03       		.uleb128 0x3
 12030 3f4a 91       		.byte	0x91
 12031 3f4b BC7F     		.sleb128 -68
 12032 3f4d 00       		.byte	0
 12033 3f4e 28       		.uleb128 0x28
 12034 3f4f 0C010000 		.4byte	.LVL252
 12035 3f53 9C4C0000 		.4byte	0x4c9c
 12036 3f57 753F0000 		.4byte	0x3f75
 12037 3f5b 29       		.uleb128 0x29
 12038 3f5c 01       		.uleb128 0x1
 12039 3f5d 52       		.byte	0x52
 12040 3f5e 01       		.uleb128 0x1
 12041 3f5f 43       		.byte	0x43
 12042 3f60 29       		.uleb128 0x29
 12043 3f61 01       		.uleb128 0x1
 12044 3f62 51       		.byte	0x51
 12045 3f63 09       		.uleb128 0x9
 12046 3f64 76       		.byte	0x76
 12047 3f65 00       		.sleb128 0
 12048 3f66 91       		.byte	0x91
 12049 3f67 B47F     		.sleb128 -76
 12050 3f69 06       		.byte	0x6
 12051 3f6a 22       		.byte	0x22
 12052 3f6b 23       		.byte	0x23
 12053 3f6c 07       		.uleb128 0x7
 12054 3f6d 29       		.uleb128 0x29
 12055 3f6e 01       		.uleb128 0x1
 12056 3f6f 50       		.byte	0x50
 12057 3f70 03       		.uleb128 0x3
 12058 3f71 91       		.byte	0x91
 12059 3f72 BE7F     		.sleb128 -66
 12060 3f74 00       		.byte	0
 12061 3f75 28       		.uleb128 0x28
 12062 3f76 FA010000 		.4byte	.LVL280
 12063 3f7a B94C0000 		.4byte	0x4cb9
 12064 3f7e A13F0000 		.4byte	0x3fa1
 12065 3f82 29       		.uleb128 0x29
 12066 3f83 01       		.uleb128 0x1
 12067 3f84 53       		.byte	0x53
 12068 3f85 02       		.uleb128 0x2
 12069 3f86 74       		.byte	0x74
 12070 3f87 00       		.sleb128 0
ARM GAS  C:\Users\AHMED~1.ELE\AppData\Local\Temp\ccLLYyS4.s 			page 245


 12071 3f88 29       		.uleb128 0x29
 12072 3f89 01       		.uleb128 0x1
 12073 3f8a 52       		.byte	0x52
 12074 3f8b 03       		.uleb128 0x3
 12075 3f8c 0A       		.byte	0xa
 12076 3f8d 2823     		.2byte	0x2328
 12077 3f8f 29       		.uleb128 0x29
 12078 3f90 01       		.uleb128 0x1
 12079 3f91 51       		.byte	0x51
 12080 3f92 01       		.uleb128 0x1
 12081 3f93 33       		.byte	0x33
 12082 3f94 29       		.uleb128 0x29
 12083 3f95 01       		.uleb128 0x1
 12084 3f96 50       		.byte	0x50
 12085 3f97 01       		.uleb128 0x1
 12086 3f98 40       		.byte	0x40
 12087 3f99 29       		.uleb128 0x29
 12088 3f9a 02       		.uleb128 0x2
 12089 3f9b 7D       		.byte	0x7d
 12090 3f9c 00       		.sleb128 0
 12091 3f9d 02       		.uleb128 0x2
 12092 3f9e 74       		.byte	0x74
 12093 3f9f 00       		.sleb128 0
 12094 3fa0 00       		.byte	0
 12095 3fa1 2C       		.uleb128 0x2c
 12096 3fa2 22020000 		.4byte	.LVL283
 12097 3fa6 504F0000 		.4byte	0x4f50
 12098 3faa 2C       		.uleb128 0x2c
 12099 3fab 48020000 		.4byte	.LVL290
 12100 3faf 504F0000 		.4byte	0x4f50
 12101 3fb3 28       		.uleb128 0x28
 12102 3fb4 78020000 		.4byte	.LVL294
 12103 3fb8 824C0000 		.4byte	0x4c82
 12104 3fbc CD3F0000 		.4byte	0x3fcd
 12105 3fc0 29       		.uleb128 0x29
 12106 3fc1 01       		.uleb128 0x1
 12107 3fc2 51       		.byte	0x51
 12108 3fc3 02       		.uleb128 0x2
 12109 3fc4 76       		.byte	0x76
 12110 3fc5 00       		.sleb128 0
 12111 3fc6 29       		.uleb128 0x29
 12112 3fc7 01       		.uleb128 0x1
 12113 3fc8 50       		.byte	0x50
 12114 3fc9 02       		.uleb128 0x2
 12115 3fca 08       		.byte	0x8
 12116 3fcb 94       		.byte	0x94
 12117 3fcc 00       		.byte	0
 12118 3fcd 2A       		.uleb128 0x2a
 12119 3fce A2020000 		.4byte	.LVL301
 12120 3fd2 824C0000 		.4byte	0x4c82
 12121 3fd6 29       		.uleb128 0x29
 12122 3fd7 01       		.uleb128 0x1
 12123 3fd8 51       		.byte	0x51
 12124 3fd9 02       		.uleb128 0x2
 12125 3fda 76       		.byte	0x76
 12126 3fdb 00       		.sleb128 0
 12127 3fdc 29       		.uleb128 0x29
ARM GAS  C:\Users\AHMED~1.ELE\AppData\Local\Temp\ccLLYyS4.s 			page 246


 12128 3fdd 01       		.uleb128 0x1
 12129 3fde 50       		.byte	0x50
 12130 3fdf 02       		.uleb128 0x2
 12131 3fe0 08       		.byte	0x8
 12132 3fe1 94       		.byte	0x94
 12133 3fe2 00       		.byte	0
 12134 3fe3 00       		.byte	0
 12135 3fe4 06       		.uleb128 0x6
 12136 3fe5 04       		.byte	0x4
 12137 3fe6 F42A0000 		.4byte	0x2af4
 12138 3fea 34       		.uleb128 0x34
 12139 3feb DA1C0000 		.4byte	.LASF1086
 12140 3fef 01       		.byte	0x1
 12141 3ff0 1503     		.2byte	0x315
 12142 3ff2 91000000 		.4byte	0x91
 12143 3ff6 00000000 		.4byte	.LFB14
 12144 3ffa 7C000000 		.4byte	.LFE14-.LFB14
 12145 3ffe 01       		.uleb128 0x1
 12146 3fff 9C       		.byte	0x9c
 12147 4000 AB400000 		.4byte	0x40ab
 12148 4004 25       		.uleb128 0x25
 12149 4005 7C140000 		.4byte	.LASF1064
 12150 4009 01       		.byte	0x1
 12151 400a 1703     		.2byte	0x317
 12152 400c A7010000 		.4byte	0x1a7
 12153 4010 02       		.uleb128 0x2
 12154 4011 91       		.byte	0x91
 12155 4012 58       		.sleb128 -40
 12156 4013 28       		.uleb128 0x28
 12157 4014 0A000000 		.4byte	.LVL302
 12158 4018 574F0000 		.4byte	0x4f57
 12159 401c 26400000 		.4byte	0x4026
 12160 4020 29       		.uleb128 0x29
 12161 4021 01       		.uleb128 0x1
 12162 4022 50       		.byte	0x50
 12163 4023 01       		.uleb128 0x1
 12164 4024 30       		.byte	0x30
 12165 4025 00       		.byte	0
 12166 4026 28       		.uleb128 0x28
 12167 4027 10000000 		.4byte	.LVL303
 12168 402b 014D0000 		.4byte	0x4d01
 12169 402f 39400000 		.4byte	0x4039
 12170 4033 29       		.uleb128 0x29
 12171 4034 01       		.uleb128 0x1
 12172 4035 50       		.byte	0x50
 12173 4036 01       		.uleb128 0x1
 12174 4037 4D       		.byte	0x4d
 12175 4038 00       		.byte	0
 12176 4039 28       		.uleb128 0x28
 12177 403a 1C000000 		.4byte	.LVL304
 12178 403e 164D0000 		.4byte	0x4d16
 12179 4042 55400000 		.4byte	0x4055
 12180 4046 29       		.uleb128 0x29
 12181 4047 01       		.uleb128 0x1
 12182 4048 52       		.byte	0x52
 12183 4049 03       		.uleb128 0x3
 12184 404a 0A       		.byte	0xa
ARM GAS  C:\Users\AHMED~1.ELE\AppData\Local\Temp\ccLLYyS4.s 			page 247


 12185 404b 0010     		.2byte	0x1000
 12186 404d 29       		.uleb128 0x29
 12187 404e 01       		.uleb128 0x1
 12188 404f 51       		.byte	0x51
 12189 4050 03       		.uleb128 0x3
 12190 4051 0A       		.byte	0xa
 12191 4052 0003     		.2byte	0x300
 12192 4054 00       		.byte	0
 12193 4055 28       		.uleb128 0x28
 12194 4056 2C000000 		.4byte	.LVL305
 12195 405a 334F0000 		.4byte	0x4f33
 12196 405e 6D400000 		.4byte	0x406d
 12197 4062 29       		.uleb128 0x29
 12198 4063 01       		.uleb128 0x1
 12199 4064 52       		.byte	0x52
 12200 4065 01       		.uleb128 0x1
 12201 4066 34       		.byte	0x34
 12202 4067 29       		.uleb128 0x29
 12203 4068 01       		.uleb128 0x1
 12204 4069 51       		.byte	0x51
 12205 406a 01       		.uleb128 0x1
 12206 406b 30       		.byte	0x30
 12207 406c 00       		.byte	0
 12208 406d 28       		.uleb128 0x28
 12209 406e 3E000000 		.4byte	.LVL306
 12210 4072 B94C0000 		.4byte	0x4cb9
 12211 4076 9A400000 		.4byte	0x409a
 12212 407a 29       		.uleb128 0x29
 12213 407b 01       		.uleb128 0x1
 12214 407c 53       		.byte	0x53
 12215 407d 03       		.uleb128 0x3
 12216 407e 0A       		.byte	0xa
 12217 407f 0404     		.2byte	0x404
 12218 4081 29       		.uleb128 0x29
 12219 4082 01       		.uleb128 0x1
 12220 4083 52       		.byte	0x52
 12221 4084 03       		.uleb128 0x3
 12222 4085 0A       		.byte	0xa
 12223 4086 FF17     		.2byte	0x17ff
 12224 4088 29       		.uleb128 0x29
 12225 4089 01       		.uleb128 0x1
 12226 408a 51       		.byte	0x51
 12227 408b 01       		.uleb128 0x1
 12228 408c 35       		.byte	0x35
 12229 408d 29       		.uleb128 0x29
 12230 408e 01       		.uleb128 0x1
 12231 408f 50       		.byte	0x50
 12232 4090 01       		.uleb128 0x1
 12233 4091 40       		.byte	0x40
 12234 4092 29       		.uleb128 0x29
 12235 4093 02       		.uleb128 0x2
 12236 4094 7D       		.byte	0x7d
 12237 4095 00       		.sleb128 0
 12238 4096 02       		.uleb128 0x2
 12239 4097 74       		.byte	0x74
 12240 4098 00       		.sleb128 0
 12241 4099 00       		.byte	0
ARM GAS  C:\Users\AHMED~1.ELE\AppData\Local\Temp\ccLLYyS4.s 			page 248


 12242 409a 2A       		.uleb128 0x2a
 12243 409b 4E000000 		.4byte	.LVL307
 12244 409f 9C4C0000 		.4byte	0x4c9c
 12245 40a3 29       		.uleb128 0x29
 12246 40a4 01       		.uleb128 0x1
 12247 40a5 51       		.byte	0x51
 12248 40a6 02       		.uleb128 0x2
 12249 40a7 74       		.byte	0x74
 12250 40a8 01       		.sleb128 1
 12251 40a9 00       		.byte	0
 12252 40aa 00       		.byte	0
 12253 40ab 34       		.uleb128 0x34
 12254 40ac 7A420000 		.4byte	.LASF1087
 12255 40b0 01       		.byte	0x1
 12256 40b1 3703     		.2byte	0x337
 12257 40b3 25000000 		.4byte	0x25
 12258 40b7 00000000 		.4byte	.LFB15
 12259 40bb 08010000 		.4byte	.LFE15-.LFB15
 12260 40bf 01       		.uleb128 0x1
 12261 40c0 9C       		.byte	0x9c
 12262 40c1 82420000 		.4byte	0x4282
 12263 40c5 24       		.uleb128 0x24
 12264 40c6 D3350000 		.4byte	.LASF1088
 12265 40ca 01       		.byte	0x1
 12266 40cb 3703     		.2byte	0x337
 12267 40cd 91000000 		.4byte	0x91
 12268 40d1 81080000 		.4byte	.LLST53
 12269 40d5 25       		.uleb128 0x25
 12270 40d6 7C140000 		.4byte	.LASF1064
 12271 40da 01       		.byte	0x1
 12272 40db 3903     		.2byte	0x339
 12273 40dd 82420000 		.4byte	0x4282
 12274 40e1 03       		.uleb128 0x3
 12275 40e2 91       		.byte	0x91
 12276 40e3 B07F     		.sleb128 -80
 12277 40e5 35       		.uleb128 0x35
 12278 40e6 78280000 		.4byte	.LASF1089
 12279 40ea 01       		.byte	0x1
 12280 40eb 3A03     		.2byte	0x33a
 12281 40ed 25000000 		.4byte	0x25
 12282 40f1 A2080000 		.4byte	.LLST54
 12283 40f5 28       		.uleb128 0x28
 12284 40f6 28000000 		.4byte	.LVL310
 12285 40fa B94C0000 		.4byte	0x4cb9
 12286 40fe 22410000 		.4byte	0x4122
 12287 4102 29       		.uleb128 0x29
 12288 4103 01       		.uleb128 0x1
 12289 4104 53       		.byte	0x53
 12290 4105 02       		.uleb128 0x2
 12291 4106 74       		.byte	0x74
 12292 4107 00       		.sleb128 0
 12293 4108 29       		.uleb128 0x29
 12294 4109 01       		.uleb128 0x1
 12295 410a 52       		.byte	0x52
 12296 410b 03       		.uleb128 0x3
 12297 410c 0A       		.byte	0xa
 12298 410d 0003     		.2byte	0x300
ARM GAS  C:\Users\AHMED~1.ELE\AppData\Local\Temp\ccLLYyS4.s 			page 249


 12299 410f 29       		.uleb128 0x29
 12300 4110 01       		.uleb128 0x1
 12301 4111 51       		.byte	0x51
 12302 4112 02       		.uleb128 0x2
 12303 4113 08       		.byte	0x8
 12304 4114 23       		.byte	0x23
 12305 4115 29       		.uleb128 0x29
 12306 4116 01       		.uleb128 0x1
 12307 4117 50       		.byte	0x50
 12308 4118 01       		.uleb128 0x1
 12309 4119 3F       		.byte	0x3f
 12310 411a 29       		.uleb128 0x29
 12311 411b 02       		.uleb128 0x2
 12312 411c 7D       		.byte	0x7d
 12313 411d 00       		.sleb128 0
 12314 411e 02       		.uleb128 0x2
 12315 411f 74       		.byte	0x74
 12316 4120 00       		.sleb128 0
 12317 4121 00       		.byte	0
 12318 4122 28       		.uleb128 0x28
 12319 4123 2E000000 		.4byte	.LVL311
 12320 4127 014D0000 		.4byte	0x4d01
 12321 412b 35410000 		.4byte	0x4135
 12322 412f 29       		.uleb128 0x29
 12323 4130 01       		.uleb128 0x1
 12324 4131 50       		.byte	0x50
 12325 4132 01       		.uleb128 0x1
 12326 4133 4F       		.byte	0x4f
 12327 4134 00       		.byte	0
 12328 4135 28       		.uleb128 0x28
 12329 4136 3A000000 		.4byte	.LVL312
 12330 413a 164D0000 		.4byte	0x4d16
 12331 413e 51410000 		.4byte	0x4151
 12332 4142 29       		.uleb128 0x29
 12333 4143 01       		.uleb128 0x1
 12334 4144 52       		.byte	0x52
 12335 4145 03       		.uleb128 0x3
 12336 4146 0A       		.byte	0xa
 12337 4147 0010     		.2byte	0x1000
 12338 4149 29       		.uleb128 0x29
 12339 414a 01       		.uleb128 0x1
 12340 414b 51       		.byte	0x51
 12341 414c 03       		.uleb128 0x3
 12342 414d 0A       		.byte	0xa
 12343 414e 0003     		.2byte	0x300
 12344 4150 00       		.byte	0
 12345 4151 28       		.uleb128 0x28
 12346 4152 4A000000 		.4byte	.LVL313
 12347 4156 B94C0000 		.4byte	0x4cb9
 12348 415a 80410000 		.4byte	0x4180
 12349 415e 29       		.uleb128 0x29
 12350 415f 01       		.uleb128 0x1
 12351 4160 53       		.byte	0x53
 12352 4161 03       		.uleb128 0x3
 12353 4162 0A       		.byte	0xa
 12354 4163 0606     		.2byte	0x606
 12355 4165 29       		.uleb128 0x29
ARM GAS  C:\Users\AHMED~1.ELE\AppData\Local\Temp\ccLLYyS4.s 			page 250


 12356 4166 01       		.uleb128 0x1
 12357 4167 52       		.byte	0x52
 12358 4168 05       		.uleb128 0x5
 12359 4169 0C       		.byte	0xc
 12360 416a FF173000 		.4byte	0x3017ff
 12361 416e 29       		.uleb128 0x29
 12362 416f 01       		.uleb128 0x1
 12363 4170 51       		.byte	0x51
 12364 4171 01       		.uleb128 0x1
 12365 4172 35       		.byte	0x35
 12366 4173 29       		.uleb128 0x29
 12367 4174 01       		.uleb128 0x1
 12368 4175 50       		.byte	0x50
 12369 4176 01       		.uleb128 0x1
 12370 4177 40       		.byte	0x40
 12371 4178 29       		.uleb128 0x29
 12372 4179 02       		.uleb128 0x2
 12373 417a 7D       		.byte	0x7d
 12374 417b 00       		.sleb128 0
 12375 417c 02       		.uleb128 0x2
 12376 417d 75       		.byte	0x75
 12377 417e 00       		.sleb128 0
 12378 417f 00       		.byte	0
 12379 4180 28       		.uleb128 0x28
 12380 4181 5C000000 		.4byte	.LVL314
 12381 4185 684F0000 		.4byte	0x4f68
 12382 4189 9F410000 		.4byte	0x419f
 12383 418d 29       		.uleb128 0x29
 12384 418e 01       		.uleb128 0x1
 12385 418f 52       		.byte	0x52
 12386 4190 01       		.uleb128 0x1
 12387 4191 33       		.byte	0x33
 12388 4192 29       		.uleb128 0x29
 12389 4193 01       		.uleb128 0x1
 12390 4194 51       		.byte	0x51
 12391 4195 02       		.uleb128 0x2
 12392 4196 75       		.byte	0x75
 12393 4197 00       		.sleb128 0
 12394 4198 29       		.uleb128 0x29
 12395 4199 01       		.uleb128 0x1
 12396 419a 50       		.byte	0x50
 12397 419b 02       		.uleb128 0x2
 12398 419c 76       		.byte	0x76
 12399 419d 00       		.sleb128 0
 12400 419e 00       		.byte	0
 12401 419f 28       		.uleb128 0x28
 12402 41a0 6A000000 		.4byte	.LVL315
 12403 41a4 B94C0000 		.4byte	0x4cb9
 12404 41a8 CB410000 		.4byte	0x41cb
 12405 41ac 29       		.uleb128 0x29
 12406 41ad 01       		.uleb128 0x1
 12407 41ae 53       		.byte	0x53
 12408 41af 02       		.uleb128 0x2
 12409 41b0 74       		.byte	0x74
 12410 41b1 00       		.sleb128 0
 12411 41b2 29       		.uleb128 0x29
 12412 41b3 01       		.uleb128 0x1
ARM GAS  C:\Users\AHMED~1.ELE\AppData\Local\Temp\ccLLYyS4.s 			page 251


 12413 41b4 52       		.byte	0x52
 12414 41b5 02       		.uleb128 0x2
 12415 41b6 76       		.byte	0x76
 12416 41b7 00       		.sleb128 0
 12417 41b8 29       		.uleb128 0x29
 12418 41b9 01       		.uleb128 0x1
 12419 41ba 51       		.byte	0x51
 12420 41bb 02       		.uleb128 0x2
 12421 41bc 08       		.byte	0x8
 12422 41bd 2F       		.byte	0x2f
 12423 41be 29       		.uleb128 0x29
 12424 41bf 01       		.uleb128 0x1
 12425 41c0 50       		.byte	0x50
 12426 41c1 01       		.uleb128 0x1
 12427 41c2 40       		.byte	0x40
 12428 41c3 29       		.uleb128 0x29
 12429 41c4 02       		.uleb128 0x2
 12430 41c5 7D       		.byte	0x7d
 12431 41c6 00       		.sleb128 0
 12432 41c7 02       		.uleb128 0x2
 12433 41c8 74       		.byte	0x74
 12434 41c9 00       		.sleb128 0
 12435 41ca 00       		.byte	0
 12436 41cb 28       		.uleb128 0x28
 12437 41cc 88000000 		.4byte	.LVL318
 12438 41d0 B94C0000 		.4byte	0x4cb9
 12439 41d4 F2410000 		.4byte	0x41f2
 12440 41d8 29       		.uleb128 0x29
 12441 41d9 01       		.uleb128 0x1
 12442 41da 52       		.byte	0x52
 12443 41db 02       		.uleb128 0x2
 12444 41dc 74       		.byte	0x74
 12445 41dd 00       		.sleb128 0
 12446 41de 29       		.uleb128 0x29
 12447 41df 01       		.uleb128 0x1
 12448 41e0 51       		.byte	0x51
 12449 41e1 02       		.uleb128 0x2
 12450 41e2 08       		.byte	0x8
 12451 41e3 2A       		.byte	0x2a
 12452 41e4 29       		.uleb128 0x29
 12453 41e5 01       		.uleb128 0x1
 12454 41e6 50       		.byte	0x50
 12455 41e7 01       		.uleb128 0x1
 12456 41e8 40       		.byte	0x40
 12457 41e9 29       		.uleb128 0x29
 12458 41ea 02       		.uleb128 0x2
 12459 41eb 7D       		.byte	0x7d
 12460 41ec 00       		.sleb128 0
 12461 41ed 03       		.uleb128 0x3
 12462 41ee 0A       		.byte	0xa
 12463 41ef 0002     		.2byte	0x200
 12464 41f1 00       		.byte	0
 12465 41f2 2C       		.uleb128 0x2c
 12466 41f3 8E000000 		.4byte	.LVL319
 12467 41f7 834F0000 		.4byte	0x4f83
 12468 41fb 28       		.uleb128 0x28
 12469 41fc 9E000000 		.4byte	.LVL320
ARM GAS  C:\Users\AHMED~1.ELE\AppData\Local\Temp\ccLLYyS4.s 			page 252


 12470 4200 9C4C0000 		.4byte	0x4c9c
 12471 4204 14420000 		.4byte	0x4214
 12472 4208 29       		.uleb128 0x29
 12473 4209 01       		.uleb128 0x1
 12474 420a 52       		.byte	0x52
 12475 420b 01       		.uleb128 0x1
 12476 420c 3A       		.byte	0x3a
 12477 420d 29       		.uleb128 0x29
 12478 420e 01       		.uleb128 0x1
 12479 420f 50       		.byte	0x50
 12480 4210 02       		.uleb128 0x2
 12481 4211 75       		.byte	0x75
 12482 4212 09       		.sleb128 9
 12483 4213 00       		.byte	0
 12484 4214 2C       		.uleb128 0x2c
 12485 4215 A2000000 		.4byte	.LVL321
 12486 4219 782E0000 		.4byte	0x2e78
 12487 421d 28       		.uleb128 0x28
 12488 421e C6000000 		.4byte	.LVL322
 12489 4222 9C4C0000 		.4byte	0x4c9c
 12490 4226 37420000 		.4byte	0x4237
 12491 422a 29       		.uleb128 0x29
 12492 422b 01       		.uleb128 0x1
 12493 422c 52       		.byte	0x52
 12494 422d 01       		.uleb128 0x1
 12495 422e 33       		.byte	0x33
 12496 422f 29       		.uleb128 0x29
 12497 4230 01       		.uleb128 0x1
 12498 4231 51       		.byte	0x51
 12499 4232 03       		.uleb128 0x3
 12500 4233 91       		.byte	0x91
 12501 4234 B77F     		.sleb128 -73
 12502 4236 00       		.byte	0
 12503 4237 28       		.uleb128 0x28
 12504 4238 E4000000 		.4byte	.LVL324
 12505 423c B94C0000 		.4byte	0x4cb9
 12506 4240 64420000 		.4byte	0x4264
 12507 4244 29       		.uleb128 0x29
 12508 4245 01       		.uleb128 0x1
 12509 4246 53       		.byte	0x53
 12510 4247 02       		.uleb128 0x2
 12511 4248 74       		.byte	0x74
 12512 4249 00       		.sleb128 0
 12513 424a 29       		.uleb128 0x29
 12514 424b 01       		.uleb128 0x1
 12515 424c 52       		.byte	0x52
 12516 424d 03       		.uleb128 0x3
 12517 424e 0A       		.byte	0xa
 12518 424f 0003     		.2byte	0x300
 12519 4251 29       		.uleb128 0x29
 12520 4252 01       		.uleb128 0x1
 12521 4253 51       		.byte	0x51
 12522 4254 02       		.uleb128 0x2
 12523 4255 08       		.byte	0x8
 12524 4256 23       		.byte	0x23
 12525 4257 29       		.uleb128 0x29
 12526 4258 01       		.uleb128 0x1
ARM GAS  C:\Users\AHMED~1.ELE\AppData\Local\Temp\ccLLYyS4.s 			page 253


 12527 4259 50       		.byte	0x50
 12528 425a 01       		.uleb128 0x1
 12529 425b 3F       		.byte	0x3f
 12530 425c 29       		.uleb128 0x29
 12531 425d 02       		.uleb128 0x2
 12532 425e 7D       		.byte	0x7d
 12533 425f 00       		.sleb128 0
 12534 4260 02       		.uleb128 0x2
 12535 4261 74       		.byte	0x74
 12536 4262 00       		.sleb128 0
 12537 4263 00       		.byte	0
 12538 4264 28       		.uleb128 0x28
 12539 4265 EA000000 		.4byte	.LVL325
 12540 4269 8A4F0000 		.4byte	0x4f8a
 12541 426d 78420000 		.4byte	0x4278
 12542 4271 29       		.uleb128 0x29
 12543 4272 01       		.uleb128 0x1
 12544 4273 50       		.byte	0x50
 12545 4274 02       		.uleb128 0x2
 12546 4275 74       		.byte	0x74
 12547 4276 00       		.sleb128 0
 12548 4277 00       		.byte	0
 12549 4278 2C       		.uleb128 0x2c
 12550 4279 EE000000 		.4byte	.LVL326
 12551 427d 314D0000 		.4byte	0x4d31
 12552 4281 00       		.byte	0
 12553 4282 08       		.uleb128 0x8
 12554 4283 9C000000 		.4byte	0x9c
 12555 4287 92420000 		.4byte	0x4292
 12556 428b 09       		.uleb128 0x9
 12557 428c 76000000 		.4byte	0x76
 12558 4290 34       		.byte	0x34
 12559 4291 00       		.byte	0
 12560 4292 34       		.uleb128 0x34
 12561 4293 7D130000 		.4byte	.LASF1090
 12562 4297 01       		.byte	0x1
 12563 4298 7803     		.2byte	0x378
 12564 429a B2000000 		.4byte	0xb2
 12565 429e 00000000 		.4byte	.LFB17
 12566 42a2 E8000000 		.4byte	.LFE17-.LFB17
 12567 42a6 01       		.uleb128 0x1
 12568 42a7 9C       		.byte	0x9c
 12569 42a8 7B430000 		.4byte	0x437b
 12570 42ac 24       		.uleb128 0x24
 12571 42ad 700E0000 		.4byte	.LASF1069
 12572 42b1 01       		.byte	0x1
 12573 42b2 7803     		.2byte	0x378
 12574 42b4 B2000000 		.4byte	0xb2
 12575 42b8 C0080000 		.4byte	.LLST55
 12576 42bc 35       		.uleb128 0x35
 12577 42bd E3370000 		.4byte	.LASF1079
 12578 42c1 01       		.byte	0x1
 12579 42c2 7A03     		.2byte	0x37a
 12580 42c4 B2000000 		.4byte	0xb2
 12581 42c8 EC080000 		.4byte	.LLST56
 12582 42cc 25       		.uleb128 0x25
 12583 42cd 7C140000 		.4byte	.LASF1064
ARM GAS  C:\Users\AHMED~1.ELE\AppData\Local\Temp\ccLLYyS4.s 			page 254


 12584 42d1 01       		.byte	0x1
 12585 42d2 7B03     		.2byte	0x37b
 12586 42d4 82420000 		.4byte	0x4282
 12587 42d8 02       		.uleb128 0x2
 12588 42d9 91       		.byte	0x91
 12589 42da 40       		.sleb128 -64
 12590 42db 28       		.uleb128 0x28
 12591 42dc 1A000000 		.4byte	.LVL330
 12592 42e0 B94C0000 		.4byte	0x4cb9
 12593 42e4 06430000 		.4byte	0x4306
 12594 42e8 29       		.uleb128 0x29
 12595 42e9 01       		.uleb128 0x1
 12596 42ea 53       		.byte	0x53
 12597 42eb 01       		.uleb128 0x1
 12598 42ec 30       		.byte	0x30
 12599 42ed 29       		.uleb128 0x29
 12600 42ee 01       		.uleb128 0x1
 12601 42ef 52       		.byte	0x52
 12602 42f0 03       		.uleb128 0x3
 12603 42f1 0A       		.byte	0xa
 12604 42f2 0003     		.2byte	0x300
 12605 42f4 29       		.uleb128 0x29
 12606 42f5 01       		.uleb128 0x1
 12607 42f6 51       		.byte	0x51
 12608 42f7 02       		.uleb128 0x2
 12609 42f8 08       		.byte	0x8
 12610 42f9 23       		.byte	0x23
 12611 42fa 29       		.uleb128 0x29
 12612 42fb 01       		.uleb128 0x1
 12613 42fc 50       		.byte	0x50
 12614 42fd 01       		.uleb128 0x1
 12615 42fe 3F       		.byte	0x3f
 12616 42ff 29       		.uleb128 0x29
 12617 4300 02       		.uleb128 0x2
 12618 4301 7D       		.byte	0x7d
 12619 4302 00       		.sleb128 0
 12620 4303 01       		.uleb128 0x1
 12621 4304 30       		.byte	0x30
 12622 4305 00       		.byte	0
 12623 4306 28       		.uleb128 0x28
 12624 4307 26000000 		.4byte	.LVL332
 12625 430b 9B4F0000 		.4byte	0x4f9b
 12626 430f 21430000 		.4byte	0x4321
 12627 4313 29       		.uleb128 0x29
 12628 4314 01       		.uleb128 0x1
 12629 4315 51       		.byte	0x51
 12630 4316 02       		.uleb128 0x2
 12631 4317 74       		.byte	0x74
 12632 4318 00       		.sleb128 0
 12633 4319 29       		.uleb128 0x29
 12634 431a 01       		.uleb128 0x1
 12635 431b 50       		.byte	0x50
 12636 431c 03       		.uleb128 0x3
 12637 431d 0A       		.byte	0xa
 12638 431e 2823     		.2byte	0x2328
 12639 4320 00       		.byte	0
 12640 4321 28       		.uleb128 0x28
ARM GAS  C:\Users\AHMED~1.ELE\AppData\Local\Temp\ccLLYyS4.s 			page 255


 12641 4322 64000000 		.4byte	.LVL335
 12642 4326 9C4C0000 		.4byte	0x4c9c
 12643 432a 3D430000 		.4byte	0x433d
 12644 432e 29       		.uleb128 0x29
 12645 432f 01       		.uleb128 0x1
 12646 4330 52       		.byte	0x52
 12647 4331 01       		.uleb128 0x1
 12648 4332 32       		.byte	0x32
 12649 4333 29       		.uleb128 0x29
 12650 4334 01       		.uleb128 0x1
 12651 4335 51       		.byte	0x51
 12652 4336 05       		.uleb128 0x5
 12653 4337 03       		.byte	0x3
 12654 4338 42000000 		.4byte	.LC3
 12655 433c 00       		.byte	0
 12656 433d 2C       		.uleb128 0x2c
 12657 433e 80000000 		.4byte	.LVL337
 12658 4342 014D0000 		.4byte	0x4d01
 12659 4346 2C       		.uleb128 0x2c
 12660 4347 84000000 		.4byte	.LVL338
 12661 434b B14D0000 		.4byte	0x4db1
 12662 434f 28       		.uleb128 0x28
 12663 4350 B0000000 		.4byte	.LVL341
 12664 4354 B54F0000 		.4byte	0x4fb5
 12665 4358 68430000 		.4byte	0x4368
 12666 435c 29       		.uleb128 0x29
 12667 435d 01       		.uleb128 0x1
 12668 435e 52       		.byte	0x52
 12669 435f 01       		.uleb128 0x1
 12670 4360 3A       		.byte	0x3a
 12671 4361 29       		.uleb128 0x29
 12672 4362 01       		.uleb128 0x1
 12673 4363 51       		.byte	0x51
 12674 4364 02       		.uleb128 0x2
 12675 4365 91       		.byte	0x91
 12676 4366 40       		.sleb128 -64
 12677 4367 00       		.byte	0
 12678 4368 2C       		.uleb128 0x2c
 12679 4369 CC000000 		.4byte	.LVL343
 12680 436d D22B0000 		.4byte	0x2bd2
 12681 4371 2C       		.uleb128 0x2c
 12682 4372 D2000000 		.4byte	.LVL345
 12683 4376 504F0000 		.4byte	0x4f50
 12684 437a 00       		.byte	0
 12685 437b 34       		.uleb128 0x34
 12686 437c CE210000 		.4byte	.LASF1091
 12687 4380 01       		.byte	0x1
 12688 4381 BC03     		.2byte	0x3bc
 12689 4383 91000000 		.4byte	0x91
 12690 4387 00000000 		.4byte	.LFB18
 12691 438b F8000000 		.4byte	.LFE18-.LFB18
 12692 438f 01       		.uleb128 0x1
 12693 4390 9C       		.byte	0x9c
 12694 4391 13450000 		.4byte	0x4513
 12695 4395 24       		.uleb128 0x24
 12696 4396 700E0000 		.4byte	.LASF1069
 12697 439a 01       		.byte	0x1
ARM GAS  C:\Users\AHMED~1.ELE\AppData\Local\Temp\ccLLYyS4.s 			page 256


 12698 439b BC03     		.2byte	0x3bc
 12699 439d 25000000 		.4byte	0x25
 12700 43a1 37090000 		.4byte	.LLST57
 12701 43a5 24       		.uleb128 0x24
 12702 43a6 C81A0000 		.4byte	.LASF1092
 12703 43aa 01       		.byte	0x1
 12704 43ab BC03     		.2byte	0x3bc
 12705 43ad 91000000 		.4byte	0x91
 12706 43b1 63090000 		.4byte	.LLST58
 12707 43b5 35       		.uleb128 0x35
 12708 43b6 E3370000 		.4byte	.LASF1079
 12709 43ba 01       		.byte	0x1
 12710 43bb BE03     		.2byte	0x3be
 12711 43bd B2000000 		.4byte	0xb2
 12712 43c1 84090000 		.4byte	.LLST59
 12713 43c5 28       		.uleb128 0x28
 12714 43c6 0C000000 		.4byte	.LVL349
 12715 43ca 574F0000 		.4byte	0x4f57
 12716 43ce D8430000 		.4byte	0x43d8
 12717 43d2 29       		.uleb128 0x29
 12718 43d3 01       		.uleb128 0x1
 12719 43d4 50       		.byte	0x50
 12720 43d5 01       		.uleb128 0x1
 12721 43d6 30       		.byte	0x30
 12722 43d7 00       		.byte	0
 12723 43d8 28       		.uleb128 0x28
 12724 43d9 16000000 		.4byte	.LVL350
 12725 43dd 0B4E0000 		.4byte	0x4e0b
 12726 43e1 F1430000 		.4byte	0x43f1
 12727 43e5 29       		.uleb128 0x29
 12728 43e6 01       		.uleb128 0x1
 12729 43e7 52       		.byte	0x52
 12730 43e8 01       		.uleb128 0x1
 12731 43e9 4A       		.byte	0x4a
 12732 43ea 29       		.uleb128 0x29
 12733 43eb 01       		.uleb128 0x1
 12734 43ec 51       		.byte	0x51
 12735 43ed 02       		.uleb128 0x2
 12736 43ee 08       		.byte	0x8
 12737 43ef 20       		.byte	0x20
 12738 43f0 00       		.byte	0
 12739 43f1 28       		.uleb128 0x28
 12740 43f2 20000000 		.4byte	.LVL351
 12741 43f6 0B4E0000 		.4byte	0x4e0b
 12742 43fa 0A440000 		.4byte	0x440a
 12743 43fe 29       		.uleb128 0x29
 12744 43ff 01       		.uleb128 0x1
 12745 4400 52       		.byte	0x52
 12746 4401 01       		.uleb128 0x1
 12747 4402 3A       		.byte	0x3a
 12748 4403 29       		.uleb128 0x29
 12749 4404 01       		.uleb128 0x1
 12750 4405 51       		.byte	0x51
 12751 4406 02       		.uleb128 0x2
 12752 4407 08       		.byte	0x8
 12753 4408 FF       		.byte	0xff
 12754 4409 00       		.byte	0
ARM GAS  C:\Users\AHMED~1.ELE\AppData\Local\Temp\ccLLYyS4.s 			page 257


 12755 440a 28       		.uleb128 0x28
 12756 440b 2A000000 		.4byte	.LVL353
 12757 440f D04F0000 		.4byte	0x4fd0
 12758 4413 1D440000 		.4byte	0x441d
 12759 4417 29       		.uleb128 0x29
 12760 4418 01       		.uleb128 0x1
 12761 4419 50       		.byte	0x50
 12762 441a 01       		.uleb128 0x1
 12763 441b 31       		.byte	0x31
 12764 441c 00       		.byte	0
 12765 441d 28       		.uleb128 0x28
 12766 441e 38000000 		.4byte	.LVL354
 12767 4422 92420000 		.4byte	0x4292
 12768 4426 31440000 		.4byte	0x4431
 12769 442a 29       		.uleb128 0x29
 12770 442b 01       		.uleb128 0x1
 12771 442c 50       		.byte	0x50
 12772 442d 02       		.uleb128 0x2
 12773 442e 75       		.byte	0x75
 12774 442f 00       		.sleb128 0
 12775 4430 00       		.byte	0
 12776 4431 28       		.uleb128 0x28
 12777 4432 54000000 		.4byte	.LVL356
 12778 4436 B94C0000 		.4byte	0x4cb9
 12779 443a 54440000 		.4byte	0x4454
 12780 443e 29       		.uleb128 0x29
 12781 443f 01       		.uleb128 0x1
 12782 4440 53       		.byte	0x53
 12783 4441 01       		.uleb128 0x1
 12784 4442 32       		.byte	0x32
 12785 4443 29       		.uleb128 0x29
 12786 4444 01       		.uleb128 0x1
 12787 4445 51       		.byte	0x51
 12788 4446 01       		.uleb128 0x1
 12789 4447 37       		.byte	0x37
 12790 4448 29       		.uleb128 0x29
 12791 4449 01       		.uleb128 0x1
 12792 444a 50       		.byte	0x50
 12793 444b 01       		.uleb128 0x1
 12794 444c 3F       		.byte	0x3f
 12795 444d 29       		.uleb128 0x29
 12796 444e 02       		.uleb128 0x2
 12797 444f 7D       		.byte	0x7d
 12798 4450 00       		.sleb128 0
 12799 4451 01       		.uleb128 0x1
 12800 4452 30       		.byte	0x30
 12801 4453 00       		.byte	0
 12802 4454 2C       		.uleb128 0x2c
 12803 4455 60000000 		.4byte	.LVL357
 12804 4459 E14F0000 		.4byte	0x4fe1
 12805 445d 28       		.uleb128 0x28
 12806 445e 78000000 		.4byte	.LVL358
 12807 4462 07500000 		.4byte	0x5007
 12808 4466 70440000 		.4byte	0x4470
 12809 446a 29       		.uleb128 0x29
 12810 446b 01       		.uleb128 0x1
 12811 446c 50       		.byte	0x50
ARM GAS  C:\Users\AHMED~1.ELE\AppData\Local\Temp\ccLLYyS4.s 			page 258


 12812 446d 01       		.uleb128 0x1
 12813 446e 31       		.byte	0x31
 12814 446f 00       		.byte	0
 12815 4470 2C       		.uleb128 0x2c
 12816 4471 7C000000 		.4byte	.LVL359
 12817 4475 18500000 		.4byte	0x5018
 12818 4479 2C       		.uleb128 0x2c
 12819 447a 80000000 		.4byte	.LVL360
 12820 447e 03360000 		.4byte	0x3603
 12821 4482 2C       		.uleb128 0x2c
 12822 4483 92000000 		.4byte	.LVL361
 12823 4487 504F0000 		.4byte	0x4f50
 12824 448b 2C       		.uleb128 0x2c
 12825 448c 9C000000 		.4byte	.LVL362
 12826 4490 504F0000 		.4byte	0x4f50
 12827 4494 28       		.uleb128 0x28
 12828 4495 A4000000 		.4byte	.LVL363
 12829 4499 014D0000 		.4byte	0x4d01
 12830 449d A7440000 		.4byte	0x44a7
 12831 44a1 29       		.uleb128 0x29
 12832 44a2 01       		.uleb128 0x1
 12833 44a3 50       		.byte	0x50
 12834 44a4 01       		.uleb128 0x1
 12835 44a5 41       		.byte	0x41
 12836 44a6 00       		.byte	0
 12837 44a7 28       		.uleb128 0x28
 12838 44a8 B0000000 		.4byte	.LVL364
 12839 44ac 164D0000 		.4byte	0x4d16
 12840 44b0 C3440000 		.4byte	0x44c3
 12841 44b4 29       		.uleb128 0x29
 12842 44b5 01       		.uleb128 0x1
 12843 44b6 52       		.byte	0x52
 12844 44b7 03       		.uleb128 0x3
 12845 44b8 0A       		.byte	0xa
 12846 44b9 0010     		.2byte	0x1000
 12847 44bb 29       		.uleb128 0x29
 12848 44bc 01       		.uleb128 0x1
 12849 44bd 51       		.byte	0x51
 12850 44be 03       		.uleb128 0x3
 12851 44bf 0A       		.byte	0xa
 12852 44c0 0005     		.2byte	0x500
 12853 44c2 00       		.byte	0
 12854 44c3 28       		.uleb128 0x28
 12855 44c4 BE000000 		.4byte	.LVL365
 12856 44c8 B94C0000 		.4byte	0x4cb9
 12857 44cc E7440000 		.4byte	0x44e7
 12858 44d0 29       		.uleb128 0x29
 12859 44d1 01       		.uleb128 0x1
 12860 44d2 53       		.byte	0x53
 12861 44d3 01       		.uleb128 0x1
 12862 44d4 34       		.byte	0x34
 12863 44d5 29       		.uleb128 0x29
 12864 44d6 01       		.uleb128 0x1
 12865 44d7 51       		.byte	0x51
 12866 44d8 01       		.uleb128 0x1
 12867 44d9 37       		.byte	0x37
 12868 44da 29       		.uleb128 0x29
ARM GAS  C:\Users\AHMED~1.ELE\AppData\Local\Temp\ccLLYyS4.s 			page 259


 12869 44db 01       		.uleb128 0x1
 12870 44dc 50       		.byte	0x50
 12871 44dd 01       		.uleb128 0x1
 12872 44de 3F       		.byte	0x3f
 12873 44df 29       		.uleb128 0x29
 12874 44e0 02       		.uleb128 0x2
 12875 44e1 7D       		.byte	0x7d
 12876 44e2 00       		.sleb128 0
 12877 44e3 02       		.uleb128 0x2
 12878 44e4 74       		.byte	0x74
 12879 44e5 00       		.sleb128 0
 12880 44e6 00       		.byte	0
 12881 44e7 28       		.uleb128 0x28
 12882 44e8 CA000000 		.4byte	.LVL366
 12883 44ec 9B4F0000 		.4byte	0x4f9b
 12884 44f0 03450000 		.4byte	0x4503
 12885 44f4 29       		.uleb128 0x29
 12886 44f5 01       		.uleb128 0x1
 12887 44f6 51       		.byte	0x51
 12888 44f7 03       		.uleb128 0x3
 12889 44f8 0A       		.byte	0xa
 12890 44f9 0004     		.2byte	0x400
 12891 44fb 29       		.uleb128 0x29
 12892 44fc 01       		.uleb128 0x1
 12893 44fd 50       		.byte	0x50
 12894 44fe 03       		.uleb128 0x3
 12895 44ff 0A       		.byte	0xa
 12896 4500 2823     		.2byte	0x2328
 12897 4502 00       		.byte	0
 12898 4503 2A       		.uleb128 0x2a
 12899 4504 D6000000 		.4byte	.LVL369
 12900 4508 07500000 		.4byte	0x5007
 12901 450c 29       		.uleb128 0x29
 12902 450d 01       		.uleb128 0x1
 12903 450e 50       		.byte	0x50
 12904 450f 01       		.uleb128 0x1
 12905 4510 31       		.byte	0x31
 12906 4511 00       		.byte	0
 12907 4512 00       		.byte	0
 12908 4513 34       		.uleb128 0x34
 12909 4514 B90F0000 		.4byte	.LASF1093
 12910 4518 01       		.byte	0x1
 12911 4519 FA03     		.2byte	0x3fa
 12912 451b B2000000 		.4byte	0xb2
 12913 451f 00000000 		.4byte	.LFB19
 12914 4523 28030000 		.4byte	.LFE19-.LFB19
 12915 4527 01       		.uleb128 0x1
 12916 4528 9C       		.byte	0x9c
 12917 4529 D2490000 		.4byte	0x49d2
 12918 452d 24       		.uleb128 0x24
 12919 452e 7B180000 		.4byte	.LASF1094
 12920 4532 01       		.byte	0x1
 12921 4533 FA03     		.2byte	0x3fa
 12922 4535 25000000 		.4byte	0x25
 12923 4539 B8090000 		.4byte	.LLST60
 12924 453d 35       		.uleb128 0x35
 12925 453e E3370000 		.4byte	.LASF1079
ARM GAS  C:\Users\AHMED~1.ELE\AppData\Local\Temp\ccLLYyS4.s 			page 260


 12926 4542 01       		.byte	0x1
 12927 4543 FC03     		.2byte	0x3fc
 12928 4545 A7000000 		.4byte	0xa7
 12929 4549 E4090000 		.4byte	.LLST61
 12930 454d 35       		.uleb128 0x35
 12931 454e AB3F0000 		.4byte	.LASF1095
 12932 4552 01       		.byte	0x1
 12933 4553 FD03     		.2byte	0x3fd
 12934 4555 BD000000 		.4byte	0xbd
 12935 4559 F7090000 		.4byte	.LLST62
 12936 455d 27       		.uleb128 0x27
 12937 455e 72657400 		.ascii	"ret\000"
 12938 4562 01       		.byte	0x1
 12939 4563 FE03     		.2byte	0x3fe
 12940 4565 B2000000 		.4byte	0xb2
 12941 4569 0F0A0000 		.4byte	.LLST63
 12942 456d 35       		.uleb128 0x35
 12943 456e 7D0B0000 		.4byte	.LASF1096
 12944 4572 01       		.byte	0x1
 12945 4573 FF03     		.2byte	0x3ff
 12946 4575 9C000000 		.4byte	0x9c
 12947 4579 F90A0000 		.4byte	.LLST64
 12948 457d 28       		.uleb128 0x28
 12949 457e 0E000000 		.4byte	.LVL373
 12950 4582 D04F0000 		.4byte	0x4fd0
 12951 4586 90450000 		.4byte	0x4590
 12952 458a 29       		.uleb128 0x29
 12953 458b 01       		.uleb128 0x1
 12954 458c 50       		.byte	0x50
 12955 458d 01       		.uleb128 0x1
 12956 458e 33       		.byte	0x33
 12957 458f 00       		.byte	0
 12958 4590 28       		.uleb128 0x28
 12959 4591 16000000 		.4byte	.LVL374
 12960 4595 1F500000 		.4byte	0x501f
 12961 4599 A3450000 		.4byte	0x45a3
 12962 459d 29       		.uleb128 0x29
 12963 459e 01       		.uleb128 0x1
 12964 459f 50       		.byte	0x50
 12965 45a0 01       		.uleb128 0x1
 12966 45a1 30       		.byte	0x30
 12967 45a2 00       		.byte	0
 12968 45a3 2C       		.uleb128 0x2c
 12969 45a4 3C000000 		.4byte	.LVL376
 12970 45a8 2A4E0000 		.4byte	0x4e2a
 12971 45ac 28       		.uleb128 0x28
 12972 45ad 50000000 		.4byte	.LVL378
 12973 45b1 824C0000 		.4byte	0x4c82
 12974 45b5 C7450000 		.4byte	0x45c7
 12975 45b9 29       		.uleb128 0x29
 12976 45ba 01       		.uleb128 0x1
 12977 45bb 51       		.byte	0x51
 12978 45bc 03       		.uleb128 0x3
 12979 45bd 0A       		.byte	0xa
 12980 45be 0001     		.2byte	0x100
 12981 45c0 29       		.uleb128 0x29
 12982 45c1 01       		.uleb128 0x1
ARM GAS  C:\Users\AHMED~1.ELE\AppData\Local\Temp\ccLLYyS4.s 			page 261


 12983 45c2 50       		.byte	0x50
 12984 45c3 02       		.uleb128 0x2
 12985 45c4 08       		.byte	0x8
 12986 45c5 22       		.byte	0x22
 12987 45c6 00       		.byte	0
 12988 45c7 28       		.uleb128 0x28
 12989 45c8 58000000 		.4byte	.LVL379
 12990 45cc 824C0000 		.4byte	0x4c82
 12991 45d0 DF450000 		.4byte	0x45df
 12992 45d4 29       		.uleb128 0x29
 12993 45d5 01       		.uleb128 0x1
 12994 45d6 51       		.byte	0x51
 12995 45d7 01       		.uleb128 0x1
 12996 45d8 3C       		.byte	0x3c
 12997 45d9 29       		.uleb128 0x29
 12998 45da 01       		.uleb128 0x1
 12999 45db 50       		.byte	0x50
 13000 45dc 01       		.uleb128 0x1
 13001 45dd 46       		.byte	0x46
 13002 45de 00       		.byte	0
 13003 45df 28       		.uleb128 0x28
 13004 45e0 60000000 		.4byte	.LVL380
 13005 45e4 824C0000 		.4byte	0x4c82
 13006 45e8 F7450000 		.4byte	0x45f7
 13007 45ec 29       		.uleb128 0x29
 13008 45ed 01       		.uleb128 0x1
 13009 45ee 51       		.byte	0x51
 13010 45ef 01       		.uleb128 0x1
 13011 45f0 3C       		.byte	0x3c
 13012 45f1 29       		.uleb128 0x29
 13013 45f2 01       		.uleb128 0x1
 13014 45f3 50       		.byte	0x50
 13015 45f4 01       		.uleb128 0x1
 13016 45f5 46       		.byte	0x46
 13017 45f6 00       		.byte	0
 13018 45f7 28       		.uleb128 0x28
 13019 45f8 68000000 		.4byte	.LVL381
 13020 45fc 014D0000 		.4byte	0x4d01
 13021 4600 0B460000 		.4byte	0x460b
 13022 4604 29       		.uleb128 0x29
 13023 4605 01       		.uleb128 0x1
 13024 4606 50       		.byte	0x50
 13025 4607 02       		.uleb128 0x2
 13026 4608 74       		.byte	0x74
 13027 4609 00       		.sleb128 0
 13028 460a 00       		.byte	0
 13029 460b 28       		.uleb128 0x28
 13030 460c 74000000 		.4byte	.LVL382
 13031 4610 164D0000 		.4byte	0x4d16
 13032 4614 27460000 		.4byte	0x4627
 13033 4618 29       		.uleb128 0x29
 13034 4619 01       		.uleb128 0x1
 13035 461a 52       		.byte	0x52
 13036 461b 03       		.uleb128 0x3
 13037 461c 0A       		.byte	0xa
 13038 461d 0010     		.2byte	0x1000
 13039 461f 29       		.uleb128 0x29
ARM GAS  C:\Users\AHMED~1.ELE\AppData\Local\Temp\ccLLYyS4.s 			page 262


 13040 4620 01       		.uleb128 0x1
 13041 4621 51       		.byte	0x51
 13042 4622 03       		.uleb128 0x3
 13043 4623 0A       		.byte	0xa
 13044 4624 0005     		.2byte	0x500
 13045 4626 00       		.byte	0
 13046 4627 28       		.uleb128 0x28
 13047 4628 84000000 		.4byte	.LVL383
 13048 462c B94C0000 		.4byte	0x4cb9
 13049 4630 53460000 		.4byte	0x4653
 13050 4634 29       		.uleb128 0x29
 13051 4635 01       		.uleb128 0x1
 13052 4636 53       		.byte	0x53
 13053 4637 02       		.uleb128 0x2
 13054 4638 74       		.byte	0x74
 13055 4639 00       		.sleb128 0
 13056 463a 29       		.uleb128 0x29
 13057 463b 01       		.uleb128 0x1
 13058 463c 52       		.byte	0x52
 13059 463d 03       		.uleb128 0x3
 13060 463e 0A       		.byte	0xa
 13061 463f 2823     		.2byte	0x2328
 13062 4641 29       		.uleb128 0x29
 13063 4642 01       		.uleb128 0x1
 13064 4643 51       		.byte	0x51
 13065 4644 01       		.uleb128 0x1
 13066 4645 36       		.byte	0x36
 13067 4646 29       		.uleb128 0x29
 13068 4647 01       		.uleb128 0x1
 13069 4648 50       		.byte	0x50
 13070 4649 01       		.uleb128 0x1
 13071 464a 40       		.byte	0x40
 13072 464b 29       		.uleb128 0x29
 13073 464c 02       		.uleb128 0x2
 13074 464d 7D       		.byte	0x7d
 13075 464e 00       		.sleb128 0
 13076 464f 02       		.uleb128 0x2
 13077 4650 74       		.byte	0x74
 13078 4651 00       		.sleb128 0
 13079 4652 00       		.byte	0
 13080 4653 28       		.uleb128 0x28
 13081 4654 8A000000 		.4byte	.LVL384
 13082 4658 30500000 		.4byte	0x5030
 13083 465c 66460000 		.4byte	0x4666
 13084 4660 29       		.uleb128 0x29
 13085 4661 01       		.uleb128 0x1
 13086 4662 50       		.byte	0x50
 13087 4663 01       		.uleb128 0x1
 13088 4664 31       		.byte	0x31
 13089 4665 00       		.byte	0
 13090 4666 28       		.uleb128 0x28
 13091 4667 98000000 		.4byte	.LVL385
 13092 466b B94C0000 		.4byte	0x4cb9
 13093 466f 91460000 		.4byte	0x4691
 13094 4673 29       		.uleb128 0x29
 13095 4674 01       		.uleb128 0x1
 13096 4675 53       		.byte	0x53
ARM GAS  C:\Users\AHMED~1.ELE\AppData\Local\Temp\ccLLYyS4.s 			page 263


 13097 4676 02       		.uleb128 0x2
 13098 4677 74       		.byte	0x74
 13099 4678 00       		.sleb128 0
 13100 4679 29       		.uleb128 0x29
 13101 467a 01       		.uleb128 0x1
 13102 467b 52       		.byte	0x52
 13103 467c 02       		.uleb128 0x2
 13104 467d 74       		.byte	0x74
 13105 467e 00       		.sleb128 0
 13106 467f 29       		.uleb128 0x29
 13107 4680 01       		.uleb128 0x1
 13108 4681 51       		.byte	0x51
 13109 4682 01       		.uleb128 0x1
 13110 4683 32       		.byte	0x32
 13111 4684 29       		.uleb128 0x29
 13112 4685 01       		.uleb128 0x1
 13113 4686 50       		.byte	0x50
 13114 4687 01       		.uleb128 0x1
 13115 4688 40       		.byte	0x40
 13116 4689 29       		.uleb128 0x29
 13117 468a 02       		.uleb128 0x2
 13118 468b 7D       		.byte	0x7d
 13119 468c 00       		.sleb128 0
 13120 468d 02       		.uleb128 0x2
 13121 468e 74       		.byte	0x74
 13122 468f 00       		.sleb128 0
 13123 4690 00       		.byte	0
 13124 4691 28       		.uleb128 0x28
 13125 4692 C2000000 		.4byte	.LVL387
 13126 4696 1F500000 		.4byte	0x501f
 13127 469a A5460000 		.4byte	0x46a5
 13128 469e 29       		.uleb128 0x29
 13129 469f 01       		.uleb128 0x1
 13130 46a0 50       		.byte	0x50
 13131 46a1 02       		.uleb128 0x2
 13132 46a2 74       		.byte	0x74
 13133 46a3 00       		.sleb128 0
 13134 46a4 00       		.byte	0
 13135 46a5 2C       		.uleb128 0x2c
 13136 46a6 C8000000 		.4byte	.LVL388
 13137 46aa 574F0000 		.4byte	0x4f57
 13138 46ae 28       		.uleb128 0x28
 13139 46af CE000000 		.4byte	.LVL389
 13140 46b3 92420000 		.4byte	0x4292
 13141 46b7 C2460000 		.4byte	0x46c2
 13142 46bb 29       		.uleb128 0x29
 13143 46bc 01       		.uleb128 0x1
 13144 46bd 50       		.byte	0x50
 13145 46be 02       		.uleb128 0x2
 13146 46bf 7A       		.byte	0x7a
 13147 46c0 00       		.sleb128 0
 13148 46c1 00       		.byte	0
 13149 46c2 2C       		.uleb128 0x2c
 13150 46c3 D6000000 		.4byte	.LVL390
 13151 46c7 03360000 		.4byte	0x3603
 13152 46cb 2C       		.uleb128 0x2c
 13153 46cc E6000000 		.4byte	.LVL391
ARM GAS  C:\Users\AHMED~1.ELE\AppData\Local\Temp\ccLLYyS4.s 			page 264


 13154 46d0 41500000 		.4byte	0x5041
 13155 46d4 2C       		.uleb128 0x2c
 13156 46d5 EE000000 		.4byte	.LVL392
 13157 46d9 56500000 		.4byte	0x5056
 13158 46dd 2C       		.uleb128 0x2c
 13159 46de F8000000 		.4byte	.LVL393
 13160 46e2 6B500000 		.4byte	0x506b
 13161 46e6 2C       		.uleb128 0x2c
 13162 46e7 FE000000 		.4byte	.LVL394
 13163 46eb 80500000 		.4byte	0x5080
 13164 46ef 28       		.uleb128 0x28
 13165 46f0 04010000 		.4byte	.LVL395
 13166 46f4 95500000 		.4byte	0x5095
 13167 46f8 03470000 		.4byte	0x4703
 13168 46fc 29       		.uleb128 0x29
 13169 46fd 01       		.uleb128 0x1
 13170 46fe 50       		.byte	0x50
 13171 46ff 02       		.uleb128 0x2
 13172 4700 74       		.byte	0x74
 13173 4701 00       		.sleb128 0
 13174 4702 00       		.byte	0
 13175 4703 2C       		.uleb128 0x2c
 13176 4704 0A010000 		.4byte	.LVL397
 13177 4708 A6500000 		.4byte	0x50a6
 13178 470c 2C       		.uleb128 0x2c
 13179 470d 1A010000 		.4byte	.LVL398
 13180 4711 B1500000 		.4byte	0x50b1
 13181 4715 28       		.uleb128 0x28
 13182 4716 24010000 		.4byte	.LVL400
 13183 471a C6500000 		.4byte	0x50c6
 13184 471e 29470000 		.4byte	0x4729
 13185 4722 29       		.uleb128 0x29
 13186 4723 01       		.uleb128 0x1
 13187 4724 50       		.byte	0x50
 13188 4725 02       		.uleb128 0x2
 13189 4726 79       		.byte	0x79
 13190 4727 00       		.sleb128 0
 13191 4728 00       		.byte	0
 13192 4729 28       		.uleb128 0x28
 13193 472a 30010000 		.4byte	.LVL403
 13194 472e 014D0000 		.4byte	0x4d01
 13195 4732 3D470000 		.4byte	0x473d
 13196 4736 29       		.uleb128 0x29
 13197 4737 01       		.uleb128 0x1
 13198 4738 50       		.byte	0x50
 13199 4739 02       		.uleb128 0x2
 13200 473a 08       		.byte	0x8
 13201 473b 8C       		.byte	0x8c
 13202 473c 00       		.byte	0
 13203 473d 2C       		.uleb128 0x2c
 13204 473e 34010000 		.4byte	.LVL404
 13205 4742 B14D0000 		.4byte	0x4db1
 13206 4746 2C       		.uleb128 0x2c
 13207 4747 3A010000 		.4byte	.LVL406
 13208 474b DB500000 		.4byte	0x50db
 13209 474f 28       		.uleb128 0x28
 13210 4750 44010000 		.4byte	.LVL407
ARM GAS  C:\Users\AHMED~1.ELE\AppData\Local\Temp\ccLLYyS4.s 			page 265


 13211 4754 07500000 		.4byte	0x5007
 13212 4758 62470000 		.4byte	0x4762
 13213 475c 29       		.uleb128 0x29
 13214 475d 01       		.uleb128 0x1
 13215 475e 50       		.byte	0x50
 13216 475f 01       		.uleb128 0x1
 13217 4760 31       		.byte	0x31
 13218 4761 00       		.byte	0
 13219 4762 2C       		.uleb128 0x2c
 13220 4763 60010000 		.4byte	.LVL408
 13221 4767 E6500000 		.4byte	0x50e6
 13222 476b 28       		.uleb128 0x28
 13223 476c 66010000 		.4byte	.LVL409
 13224 4770 07500000 		.4byte	0x5007
 13225 4774 7E470000 		.4byte	0x477e
 13226 4778 29       		.uleb128 0x29
 13227 4779 01       		.uleb128 0x1
 13228 477a 50       		.byte	0x50
 13229 477b 01       		.uleb128 0x1
 13230 477c 32       		.byte	0x32
 13231 477d 00       		.byte	0
 13232 477e 28       		.uleb128 0x28
 13233 477f 6E010000 		.4byte	.LVL411
 13234 4783 FB500000 		.4byte	0x50fb
 13235 4787 92470000 		.4byte	0x4792
 13236 478b 29       		.uleb128 0x29
 13237 478c 01       		.uleb128 0x1
 13238 478d 50       		.byte	0x50
 13239 478e 02       		.uleb128 0x2
 13240 478f 74       		.byte	0x74
 13241 4790 00       		.sleb128 0
 13242 4791 00       		.byte	0
 13243 4792 28       		.uleb128 0x28
 13244 4793 74010000 		.4byte	.LVL412
 13245 4797 07500000 		.4byte	0x5007
 13246 479b A5470000 		.4byte	0x47a5
 13247 479f 29       		.uleb128 0x29
 13248 47a0 01       		.uleb128 0x1
 13249 47a1 50       		.byte	0x50
 13250 47a2 01       		.uleb128 0x1
 13251 47a3 32       		.byte	0x32
 13252 47a4 00       		.byte	0
 13253 47a5 2C       		.uleb128 0x2c
 13254 47a6 78010000 		.4byte	.LVL413
 13255 47aa 504F0000 		.4byte	0x4f50
 13256 47ae 2C       		.uleb128 0x2c
 13257 47af 80010000 		.4byte	.LVL415
 13258 47b3 10510000 		.4byte	0x5110
 13259 47b7 28       		.uleb128 0x28
 13260 47b8 8C010000 		.4byte	.LVL416
 13261 47bc 07500000 		.4byte	0x5007
 13262 47c0 CA470000 		.4byte	0x47ca
 13263 47c4 29       		.uleb128 0x29
 13264 47c5 01       		.uleb128 0x1
 13265 47c6 50       		.byte	0x50
 13266 47c7 01       		.uleb128 0x1
 13267 47c8 33       		.byte	0x33
ARM GAS  C:\Users\AHMED~1.ELE\AppData\Local\Temp\ccLLYyS4.s 			page 266


 13268 47c9 00       		.byte	0
 13269 47ca 2C       		.uleb128 0x2c
 13270 47cb 90010000 		.4byte	.LVL417
 13271 47cf 1B510000 		.4byte	0x511b
 13272 47d3 2C       		.uleb128 0x2c
 13273 47d4 B2010000 		.4byte	.LVL418
 13274 47d8 26510000 		.4byte	0x5126
 13275 47dc 2C       		.uleb128 0x2c
 13276 47dd B6010000 		.4byte	.LVL419
 13277 47e1 3B510000 		.4byte	0x513b
 13278 47e5 28       		.uleb128 0x28
 13279 47e6 C6010000 		.4byte	.LVL421
 13280 47ea 014D0000 		.4byte	0x4d01
 13281 47ee F9470000 		.4byte	0x47f9
 13282 47f2 29       		.uleb128 0x29
 13283 47f3 01       		.uleb128 0x1
 13284 47f4 50       		.byte	0x50
 13285 47f5 02       		.uleb128 0x2
 13286 47f6 08       		.byte	0x8
 13287 47f7 74       		.byte	0x74
 13288 47f8 00       		.byte	0
 13289 47f9 2C       		.uleb128 0x2c
 13290 47fa CA010000 		.4byte	.LVL422
 13291 47fe B14D0000 		.4byte	0x4db1
 13292 4802 28       		.uleb128 0x28
 13293 4803 DC010000 		.4byte	.LVL423
 13294 4807 7B430000 		.4byte	0x437b
 13295 480b 1B480000 		.4byte	0x481b
 13296 480f 29       		.uleb128 0x29
 13297 4810 01       		.uleb128 0x1
 13298 4811 51       		.byte	0x51
 13299 4812 01       		.uleb128 0x1
 13300 4813 31       		.byte	0x31
 13301 4814 29       		.uleb128 0x29
 13302 4815 01       		.uleb128 0x1
 13303 4816 50       		.byte	0x50
 13304 4817 02       		.uleb128 0x2
 13305 4818 74       		.byte	0x74
 13306 4819 00       		.sleb128 0
 13307 481a 00       		.byte	0
 13308 481b 2C       		.uleb128 0x2c
 13309 481c E8010000 		.4byte	.LVL424
 13310 4820 80500000 		.4byte	0x5080
 13311 4824 2C       		.uleb128 0x2c
 13312 4825 F6010000 		.4byte	.LVL425
 13313 4829 95500000 		.4byte	0x5095
 13314 482d 28       		.uleb128 0x28
 13315 482e 06020000 		.4byte	.LVL426
 13316 4832 B94C0000 		.4byte	0x4cb9
 13317 4836 58480000 		.4byte	0x4858
 13318 483a 29       		.uleb128 0x29
 13319 483b 01       		.uleb128 0x1
 13320 483c 53       		.byte	0x53
 13321 483d 02       		.uleb128 0x2
 13322 483e 74       		.byte	0x74
 13323 483f 00       		.sleb128 0
 13324 4840 29       		.uleb128 0x29
ARM GAS  C:\Users\AHMED~1.ELE\AppData\Local\Temp\ccLLYyS4.s 			page 267


 13325 4841 01       		.uleb128 0x1
 13326 4842 52       		.byte	0x52
 13327 4843 02       		.uleb128 0x2
 13328 4844 74       		.byte	0x74
 13329 4845 00       		.sleb128 0
 13330 4846 29       		.uleb128 0x29
 13331 4847 01       		.uleb128 0x1
 13332 4848 51       		.byte	0x51
 13333 4849 01       		.uleb128 0x1
 13334 484a 46       		.byte	0x46
 13335 484b 29       		.uleb128 0x29
 13336 484c 01       		.uleb128 0x1
 13337 484d 50       		.byte	0x50
 13338 484e 01       		.uleb128 0x1
 13339 484f 3F       		.byte	0x3f
 13340 4850 29       		.uleb128 0x29
 13341 4851 02       		.uleb128 0x2
 13342 4852 7D       		.byte	0x7d
 13343 4853 00       		.sleb128 0
 13344 4854 02       		.uleb128 0x2
 13345 4855 74       		.byte	0x74
 13346 4856 00       		.sleb128 0
 13347 4857 00       		.byte	0
 13348 4858 28       		.uleb128 0x28
 13349 4859 10020000 		.4byte	.LVL427
 13350 485d 1F500000 		.4byte	0x501f
 13351 4861 6C480000 		.4byte	0x486c
 13352 4865 29       		.uleb128 0x29
 13353 4866 01       		.uleb128 0x1
 13354 4867 50       		.byte	0x50
 13355 4868 02       		.uleb128 0x2
 13356 4869 74       		.byte	0x74
 13357 486a 00       		.sleb128 0
 13358 486b 00       		.byte	0
 13359 486c 2C       		.uleb128 0x2c
 13360 486d 14020000 		.4byte	.LVL428
 13361 4871 46510000 		.4byte	0x5146
 13362 4875 28       		.uleb128 0x28
 13363 4876 22020000 		.4byte	.LVL429
 13364 487a 824C0000 		.4byte	0x4c82
 13365 487e 88480000 		.4byte	0x4888
 13366 4882 29       		.uleb128 0x29
 13367 4883 01       		.uleb128 0x1
 13368 4884 50       		.byte	0x50
 13369 4885 01       		.uleb128 0x1
 13370 4886 3D       		.byte	0x3d
 13371 4887 00       		.byte	0
 13372 4888 28       		.uleb128 0x28
 13373 4889 36020000 		.4byte	.LVL430
 13374 488d B94C0000 		.4byte	0x4cb9
 13375 4891 A8480000 		.4byte	0x48a8
 13376 4895 29       		.uleb128 0x29
 13377 4896 01       		.uleb128 0x1
 13378 4897 52       		.byte	0x52
 13379 4898 03       		.uleb128 0x3
 13380 4899 0A       		.byte	0xa
 13381 489a 0003     		.2byte	0x300
ARM GAS  C:\Users\AHMED~1.ELE\AppData\Local\Temp\ccLLYyS4.s 			page 268


 13382 489c 29       		.uleb128 0x29
 13383 489d 01       		.uleb128 0x1
 13384 489e 51       		.byte	0x51
 13385 489f 02       		.uleb128 0x2
 13386 48a0 08       		.byte	0x8
 13387 48a1 23       		.byte	0x23
 13388 48a2 29       		.uleb128 0x29
 13389 48a3 01       		.uleb128 0x1
 13390 48a4 50       		.byte	0x50
 13391 48a5 01       		.uleb128 0x1
 13392 48a6 3F       		.byte	0x3f
 13393 48a7 00       		.byte	0
 13394 48a8 28       		.uleb128 0x28
 13395 48a9 3C020000 		.4byte	.LVL431
 13396 48ad 014D0000 		.4byte	0x4d01
 13397 48b1 BB480000 		.4byte	0x48bb
 13398 48b5 29       		.uleb128 0x29
 13399 48b6 01       		.uleb128 0x1
 13400 48b7 50       		.byte	0x50
 13401 48b8 01       		.uleb128 0x1
 13402 48b9 32       		.byte	0x32
 13403 48ba 00       		.byte	0
 13404 48bb 28       		.uleb128 0x28
 13405 48bc 48020000 		.4byte	.LVL432
 13406 48c0 164D0000 		.4byte	0x4d16
 13407 48c4 D7480000 		.4byte	0x48d7
 13408 48c8 29       		.uleb128 0x29
 13409 48c9 01       		.uleb128 0x1
 13410 48ca 52       		.byte	0x52
 13411 48cb 03       		.uleb128 0x3
 13412 48cc 0A       		.byte	0xa
 13413 48cd 0010     		.2byte	0x1000
 13414 48cf 29       		.uleb128 0x29
 13415 48d0 01       		.uleb128 0x1
 13416 48d1 51       		.byte	0x51
 13417 48d2 03       		.uleb128 0x3
 13418 48d3 0A       		.byte	0xa
 13419 48d4 0005     		.2byte	0x500
 13420 48d6 00       		.byte	0
 13421 48d7 2C       		.uleb128 0x2c
 13422 48d8 58020000 		.4byte	.LVL433
 13423 48dc 51510000 		.4byte	0x5151
 13424 48e0 28       		.uleb128 0x28
 13425 48e1 70020000 		.4byte	.LVL435
 13426 48e5 B94C0000 		.4byte	0x4cb9
 13427 48e9 04490000 		.4byte	0x4904
 13428 48ed 29       		.uleb128 0x29
 13429 48ee 01       		.uleb128 0x1
 13430 48ef 53       		.byte	0x53
 13431 48f0 01       		.uleb128 0x1
 13432 48f1 33       		.byte	0x33
 13433 48f2 29       		.uleb128 0x29
 13434 48f3 01       		.uleb128 0x1
 13435 48f4 51       		.byte	0x51
 13436 48f5 01       		.uleb128 0x1
 13437 48f6 37       		.byte	0x37
 13438 48f7 29       		.uleb128 0x29
ARM GAS  C:\Users\AHMED~1.ELE\AppData\Local\Temp\ccLLYyS4.s 			page 269


 13439 48f8 01       		.uleb128 0x1
 13440 48f9 50       		.byte	0x50
 13441 48fa 01       		.uleb128 0x1
 13442 48fb 3F       		.byte	0x3f
 13443 48fc 29       		.uleb128 0x29
 13444 48fd 02       		.uleb128 0x2
 13445 48fe 7D       		.byte	0x7d
 13446 48ff 00       		.sleb128 0
 13447 4900 02       		.uleb128 0x2
 13448 4901 74       		.byte	0x74
 13449 4902 00       		.sleb128 0
 13450 4903 00       		.byte	0
 13451 4904 2C       		.uleb128 0x2c
 13452 4905 80020000 		.4byte	.LVL436
 13453 4909 E14F0000 		.4byte	0x4fe1
 13454 490d 2C       		.uleb128 0x2c
 13455 490e 86020000 		.4byte	.LVL437
 13456 4912 A6500000 		.4byte	0x50a6
 13457 4916 28       		.uleb128 0x28
 13458 4917 8E020000 		.4byte	.LVL438
 13459 491b FB500000 		.4byte	0x50fb
 13460 491f 2A490000 		.4byte	0x492a
 13461 4923 29       		.uleb128 0x29
 13462 4924 01       		.uleb128 0x1
 13463 4925 50       		.byte	0x50
 13464 4926 02       		.uleb128 0x2
 13465 4927 74       		.byte	0x74
 13466 4928 00       		.sleb128 0
 13467 4929 00       		.byte	0
 13468 492a 28       		.uleb128 0x28
 13469 492b 94020000 		.4byte	.LVL439
 13470 492f 07500000 		.4byte	0x5007
 13471 4933 3D490000 		.4byte	0x493d
 13472 4937 29       		.uleb128 0x29
 13473 4938 01       		.uleb128 0x1
 13474 4939 50       		.byte	0x50
 13475 493a 01       		.uleb128 0x1
 13476 493b 33       		.byte	0x33
 13477 493c 00       		.byte	0
 13478 493d 2C       		.uleb128 0x2c
 13479 493e A0020000 		.4byte	.LVL440
 13480 4942 03360000 		.4byte	0x3603
 13481 4946 2C       		.uleb128 0x2c
 13482 4947 AE020000 		.4byte	.LVL441
 13483 494b 41500000 		.4byte	0x5041
 13484 494f 2C       		.uleb128 0x2c
 13485 4950 B6020000 		.4byte	.LVL442
 13486 4954 56500000 		.4byte	0x5056
 13487 4958 2C       		.uleb128 0x2c
 13488 4959 C0020000 		.4byte	.LVL443
 13489 495d 6B500000 		.4byte	0x506b
 13490 4961 2C       		.uleb128 0x2c
 13491 4962 C6020000 		.4byte	.LVL444
 13492 4966 80500000 		.4byte	0x5080
 13493 496a 28       		.uleb128 0x28
 13494 496b CC020000 		.4byte	.LVL445
 13495 496f 95500000 		.4byte	0x5095
ARM GAS  C:\Users\AHMED~1.ELE\AppData\Local\Temp\ccLLYyS4.s 			page 270


 13496 4973 7D490000 		.4byte	0x497d
 13497 4977 29       		.uleb128 0x29
 13498 4978 01       		.uleb128 0x1
 13499 4979 50       		.byte	0x50
 13500 497a 01       		.uleb128 0x1
 13501 497b 30       		.byte	0x30
 13502 497c 00       		.byte	0
 13503 497d 28       		.uleb128 0x28
 13504 497e 08030000 		.4byte	.LVL451
 13505 4982 B94C0000 		.4byte	0x4cb9
 13506 4986 A1490000 		.4byte	0x49a1
 13507 498a 29       		.uleb128 0x29
 13508 498b 01       		.uleb128 0x1
 13509 498c 53       		.byte	0x53
 13510 498d 01       		.uleb128 0x1
 13511 498e 34       		.byte	0x34
 13512 498f 29       		.uleb128 0x29
 13513 4990 01       		.uleb128 0x1
 13514 4991 51       		.byte	0x51
 13515 4992 01       		.uleb128 0x1
 13516 4993 37       		.byte	0x37
 13517 4994 29       		.uleb128 0x29
 13518 4995 01       		.uleb128 0x1
 13519 4996 50       		.byte	0x50
 13520 4997 01       		.uleb128 0x1
 13521 4998 3F       		.byte	0x3f
 13522 4999 29       		.uleb128 0x29
 13523 499a 02       		.uleb128 0x2
 13524 499b 7D       		.byte	0x7d
 13525 499c 00       		.sleb128 0
 13526 499d 02       		.uleb128 0x2
 13527 499e 75       		.byte	0x75
 13528 499f 00       		.sleb128 0
 13529 49a0 00       		.byte	0
 13530 49a1 28       		.uleb128 0x28
 13531 49a2 0E030000 		.4byte	.LVL452
 13532 49a6 95500000 		.4byte	0x5095
 13533 49aa B5490000 		.4byte	0x49b5
 13534 49ae 29       		.uleb128 0x29
 13535 49af 01       		.uleb128 0x1
 13536 49b0 50       		.byte	0x50
 13537 49b1 02       		.uleb128 0x2
 13538 49b2 75       		.byte	0x75
 13539 49b3 00       		.sleb128 0
 13540 49b4 00       		.byte	0
 13541 49b5 28       		.uleb128 0x28
 13542 49b6 14030000 		.4byte	.LVL453
 13543 49ba 07500000 		.4byte	0x5007
 13544 49be C8490000 		.4byte	0x49c8
 13545 49c2 29       		.uleb128 0x29
 13546 49c3 01       		.uleb128 0x1
 13547 49c4 50       		.byte	0x50
 13548 49c5 01       		.uleb128 0x1
 13549 49c6 33       		.byte	0x33
 13550 49c7 00       		.byte	0
 13551 49c8 2C       		.uleb128 0x2c
 13552 49c9 18030000 		.4byte	.LVL454
ARM GAS  C:\Users\AHMED~1.ELE\AppData\Local\Temp\ccLLYyS4.s 			page 271


 13553 49cd 58510000 		.4byte	0x5158
 13554 49d1 00       		.byte	0
 13555 49d2 34       		.uleb128 0x34
 13556 49d3 13060000 		.4byte	.LASF1097
 13557 49d7 01       		.byte	0x1
 13558 49d8 AF04     		.2byte	0x4af
 13559 49da 91000000 		.4byte	0x91
 13560 49de 00000000 		.4byte	.LFB20
 13561 49e2 84000000 		.4byte	.LFE20-.LFB20
 13562 49e6 01       		.uleb128 0x1
 13563 49e7 9C       		.byte	0x9c
 13564 49e8 B74A0000 		.4byte	0x4ab7
 13565 49ec 24       		.uleb128 0x24
 13566 49ed 39280000 		.4byte	.LASF1098
 13567 49f1 01       		.byte	0x1
 13568 49f2 AF04     		.2byte	0x4af
 13569 49f4 91000000 		.4byte	0x91
 13570 49f8 5A0B0000 		.4byte	.LLST65
 13571 49fc 25       		.uleb128 0x25
 13572 49fd 7C140000 		.4byte	.LASF1064
 13573 4a01 01       		.byte	0x1
 13574 4a02 B104     		.2byte	0x4b1
 13575 4a04 B83A0000 		.4byte	0x3ab8
 13576 4a08 02       		.uleb128 0x2
 13577 4a09 91       		.byte	0x91
 13578 4a0a 58       		.sleb128 -40
 13579 4a0b 28       		.uleb128 0x28
 13580 4a0c 10000000 		.4byte	.LVL458
 13581 4a10 0B4E0000 		.4byte	0x4e0b
 13582 4a14 244A0000 		.4byte	0x4a24
 13583 4a18 29       		.uleb128 0x29
 13584 4a19 01       		.uleb128 0x1
 13585 4a1a 52       		.byte	0x52
 13586 4a1b 01       		.uleb128 0x1
 13587 4a1c 40       		.byte	0x40
 13588 4a1d 29       		.uleb128 0x29
 13589 4a1e 01       		.uleb128 0x1
 13590 4a1f 51       		.byte	0x51
 13591 4a20 02       		.uleb128 0x2
 13592 4a21 08       		.byte	0x8
 13593 4a22 20       		.byte	0x20
 13594 4a23 00       		.byte	0
 13595 4a24 2C       		.uleb128 0x2c
 13596 4a25 24000000 		.4byte	.LVL459
 13597 4a29 63510000 		.4byte	0x5163
 13598 4a2d 28       		.uleb128 0x28
 13599 4a2e 32000000 		.4byte	.LVL460
 13600 4a32 574F0000 		.4byte	0x4f57
 13601 4a36 404A0000 		.4byte	0x4a40
 13602 4a3a 29       		.uleb128 0x29
 13603 4a3b 01       		.uleb128 0x1
 13604 4a3c 50       		.byte	0x50
 13605 4a3d 01       		.uleb128 0x1
 13606 4a3e 30       		.byte	0x30
 13607 4a3f 00       		.byte	0
 13608 4a40 2C       		.uleb128 0x2c
 13609 4a41 36000000 		.4byte	.LVL461
ARM GAS  C:\Users\AHMED~1.ELE\AppData\Local\Temp\ccLLYyS4.s 			page 272


 13610 4a45 78510000 		.4byte	0x5178
 13611 4a49 28       		.uleb128 0x28
 13612 4a4a 3E000000 		.4byte	.LVL462
 13613 4a4e 014D0000 		.4byte	0x4d01
 13614 4a52 5D4A0000 		.4byte	0x4a5d
 13615 4a56 29       		.uleb128 0x29
 13616 4a57 01       		.uleb128 0x1
 13617 4a58 50       		.byte	0x50
 13618 4a59 02       		.uleb128 0x2
 13619 4a5a 08       		.byte	0x8
 13620 4a5b 20       		.byte	0x20
 13621 4a5c 00       		.byte	0
 13622 4a5d 28       		.uleb128 0x28
 13623 4a5e 4A000000 		.4byte	.LVL463
 13624 4a62 164D0000 		.4byte	0x4d16
 13625 4a66 794A0000 		.4byte	0x4a79
 13626 4a6a 29       		.uleb128 0x29
 13627 4a6b 01       		.uleb128 0x1
 13628 4a6c 52       		.byte	0x52
 13629 4a6d 03       		.uleb128 0x3
 13630 4a6e 0A       		.byte	0xa
 13631 4a6f 0010     		.2byte	0x1000
 13632 4a71 29       		.uleb128 0x29
 13633 4a72 01       		.uleb128 0x1
 13634 4a73 51       		.byte	0x51
 13635 4a74 03       		.uleb128 0x3
 13636 4a75 0A       		.byte	0xa
 13637 4a76 0003     		.2byte	0x300
 13638 4a78 00       		.byte	0
 13639 4a79 28       		.uleb128 0x28
 13640 4a7a 60000000 		.4byte	.LVL464
 13641 4a7e B94C0000 		.4byte	0x4cb9
 13642 4a82 A64A0000 		.4byte	0x4aa6
 13643 4a86 29       		.uleb128 0x29
 13644 4a87 01       		.uleb128 0x1
 13645 4a88 53       		.byte	0x53
 13646 4a89 01       		.uleb128 0x1
 13647 4a8a 40       		.byte	0x40
 13648 4a8b 29       		.uleb128 0x29
 13649 4a8c 01       		.uleb128 0x1
 13650 4a8d 52       		.byte	0x52
 13651 4a8e 05       		.uleb128 0x5
 13652 4a8f 0C       		.byte	0xc
 13653 4a90 FF172200 		.4byte	0x2217ff
 13654 4a94 29       		.uleb128 0x29
 13655 4a95 01       		.uleb128 0x1
 13656 4a96 51       		.byte	0x51
 13657 4a97 01       		.uleb128 0x1
 13658 4a98 35       		.byte	0x35
 13659 4a99 29       		.uleb128 0x29
 13660 4a9a 01       		.uleb128 0x1
 13661 4a9b 50       		.byte	0x50
 13662 4a9c 01       		.uleb128 0x1
 13663 4a9d 40       		.byte	0x40
 13664 4a9e 29       		.uleb128 0x29
 13665 4a9f 02       		.uleb128 0x2
 13666 4aa0 7D       		.byte	0x7d
ARM GAS  C:\Users\AHMED~1.ELE\AppData\Local\Temp\ccLLYyS4.s 			page 273


 13667 4aa1 00       		.sleb128 0
 13668 4aa2 02       		.uleb128 0x2
 13669 4aa3 74       		.byte	0x74
 13670 4aa4 00       		.sleb128 0
 13671 4aa5 00       		.byte	0
 13672 4aa6 2A       		.uleb128 0x2a
 13673 4aa7 72000000 		.4byte	.LVL465
 13674 4aab 9C4C0000 		.4byte	0x4c9c
 13675 4aaf 29       		.uleb128 0x29
 13676 4ab0 01       		.uleb128 0x1
 13677 4ab1 51       		.byte	0x51
 13678 4ab2 02       		.uleb128 0x2
 13679 4ab3 74       		.byte	0x74
 13680 4ab4 01       		.sleb128 1
 13681 4ab5 00       		.byte	0
 13682 4ab6 00       		.byte	0
 13683 4ab7 34       		.uleb128 0x34
 13684 4ab8 902B0000 		.4byte	.LASF1099
 13685 4abc 01       		.byte	0x1
 13686 4abd D104     		.2byte	0x4d1
 13687 4abf 91000000 		.4byte	0x91
 13688 4ac3 00000000 		.4byte	.LFB21
 13689 4ac7 CC000000 		.4byte	.LFE21-.LFB21
 13690 4acb 01       		.uleb128 0x1
 13691 4acc 9C       		.byte	0x9c
 13692 4acd D84B0000 		.4byte	0x4bd8
 13693 4ad1 24       		.uleb128 0x24
 13694 4ad2 5D100000 		.4byte	.LASF1100
 13695 4ad6 01       		.byte	0x1
 13696 4ad7 D104     		.2byte	0x4d1
 13697 4ad9 D84B0000 		.4byte	0x4bd8
 13698 4add 7B0B0000 		.4byte	.LLST66
 13699 4ae1 25       		.uleb128 0x25
 13700 4ae2 7C140000 		.4byte	.LASF1064
 13701 4ae6 01       		.byte	0x1
 13702 4ae7 D304     		.2byte	0x4d3
 13703 4ae9 A7010000 		.4byte	0x1a7
 13704 4aed 02       		.uleb128 0x2
 13705 4aee 91       		.byte	0x91
 13706 4aef 48       		.sleb128 -56
 13707 4af0 40       		.uleb128 0x40
 13708 4af1 8A2E0000 		.4byte	.LASF1041
 13709 4af5 01       		.byte	0x1
 13710 4af6 D404     		.2byte	0x4d4
 13711 4af8 9C000000 		.4byte	0x9c
 13712 4afc 00       		.byte	0
 13713 4afd 40       		.uleb128 0x40
 13714 4afe 902E0000 		.4byte	.LASF1042
 13715 4b02 01       		.byte	0x1
 13716 4b03 D404     		.2byte	0x4d4
 13717 4b05 9C000000 		.4byte	0x9c
 13718 4b09 05       		.byte	0x5
 13719 4b0a 27       		.uleb128 0x27
 13720 4b0b 616D7400 		.ascii	"amt\000"
 13721 4b0f 01       		.byte	0x1
 13722 4b10 D504     		.2byte	0x4d5
 13723 4b12 BD000000 		.4byte	0xbd
ARM GAS  C:\Users\AHMED~1.ELE\AppData\Local\Temp\ccLLYyS4.s 			page 274


 13724 4b16 A70B0000 		.4byte	.LLST67
 13725 4b1a 28       		.uleb128 0x28
 13726 4b1b 1E000000 		.4byte	.LVL468
 13727 4b1f 9C4C0000 		.4byte	0x4c9c
 13728 4b23 3A4B0000 		.4byte	0x4b3a
 13729 4b27 29       		.uleb128 0x29
 13730 4b28 01       		.uleb128 0x1
 13731 4b29 52       		.byte	0x52
 13732 4b2a 01       		.uleb128 0x1
 13733 4b2b 33       		.byte	0x33
 13734 4b2c 29       		.uleb128 0x29
 13735 4b2d 01       		.uleb128 0x1
 13736 4b2e 51       		.byte	0x51
 13737 4b2f 03       		.uleb128 0x3
 13738 4b30 77       		.byte	0x77
 13739 4b31 E700     		.sleb128 103
 13740 4b33 29       		.uleb128 0x29
 13741 4b34 01       		.uleb128 0x1
 13742 4b35 50       		.byte	0x50
 13743 4b36 02       		.uleb128 0x2
 13744 4b37 74       		.byte	0x74
 13745 4b38 01       		.sleb128 1
 13746 4b39 00       		.byte	0
 13747 4b3a 28       		.uleb128 0x28
 13748 4b3b 36000000 		.4byte	.LVL469
 13749 4b3f B94C0000 		.4byte	0x4cb9
 13750 4b43 654B0000 		.4byte	0x4b65
 13751 4b47 29       		.uleb128 0x29
 13752 4b48 01       		.uleb128 0x1
 13753 4b49 53       		.byte	0x53
 13754 4b4a 01       		.uleb128 0x1
 13755 4b4b 30       		.byte	0x30
 13756 4b4c 29       		.uleb128 0x29
 13757 4b4d 01       		.uleb128 0x1
 13758 4b4e 52       		.byte	0x52
 13759 4b4f 03       		.uleb128 0x3
 13760 4b50 0A       		.byte	0xa
 13761 4b51 0003     		.2byte	0x300
 13762 4b53 29       		.uleb128 0x29
 13763 4b54 01       		.uleb128 0x1
 13764 4b55 51       		.byte	0x51
 13765 4b56 02       		.uleb128 0x2
 13766 4b57 08       		.byte	0x8
 13767 4b58 23       		.byte	0x23
 13768 4b59 29       		.uleb128 0x29
 13769 4b5a 01       		.uleb128 0x1
 13770 4b5b 50       		.byte	0x50
 13771 4b5c 01       		.uleb128 0x1
 13772 4b5d 3F       		.byte	0x3f
 13773 4b5e 29       		.uleb128 0x29
 13774 4b5f 02       		.uleb128 0x2
 13775 4b60 7D       		.byte	0x7d
 13776 4b61 00       		.sleb128 0
 13777 4b62 01       		.uleb128 0x1
 13778 4b63 30       		.byte	0x30
 13779 4b64 00       		.byte	0
 13780 4b65 28       		.uleb128 0x28
ARM GAS  C:\Users\AHMED~1.ELE\AppData\Local\Temp\ccLLYyS4.s 			page 275


 13781 4b66 44000000 		.4byte	.LVL470
 13782 4b6a 164D0000 		.4byte	0x4d16
 13783 4b6e 8A4B0000 		.4byte	0x4b8a
 13784 4b72 29       		.uleb128 0x29
 13785 4b73 01       		.uleb128 0x1
 13786 4b74 52       		.byte	0x52
 13787 4b75 03       		.uleb128 0x3
 13788 4b76 0A       		.byte	0xa
 13789 4b77 0010     		.2byte	0x1000
 13790 4b79 29       		.uleb128 0x29
 13791 4b7a 01       		.uleb128 0x1
 13792 4b7b 51       		.byte	0x51
 13793 4b7c 03       		.uleb128 0x3
 13794 4b7d 0A       		.byte	0xa
 13795 4b7e 0003     		.2byte	0x300
 13796 4b80 29       		.uleb128 0x29
 13797 4b81 01       		.uleb128 0x1
 13798 4b82 50       		.byte	0x50
 13799 4b83 05       		.uleb128 0x5
 13800 4b84 03       		.byte	0x3
 13801 4b85 45000000 		.4byte	.LC4
 13802 4b89 00       		.byte	0
 13803 4b8a 28       		.uleb128 0x28
 13804 4b8b 64000000 		.4byte	.LVL471
 13805 4b8f B94C0000 		.4byte	0x4cb9
 13806 4b93 AE4B0000 		.4byte	0x4bae
 13807 4b97 29       		.uleb128 0x29
 13808 4b98 01       		.uleb128 0x1
 13809 4b99 53       		.byte	0x53
 13810 4b9a 01       		.uleb128 0x1
 13811 4b9b 35       		.byte	0x35
 13812 4b9c 29       		.uleb128 0x29
 13813 4b9d 01       		.uleb128 0x1
 13814 4b9e 51       		.byte	0x51
 13815 4b9f 01       		.uleb128 0x1
 13816 4ba0 35       		.byte	0x35
 13817 4ba1 29       		.uleb128 0x29
 13818 4ba2 01       		.uleb128 0x1
 13819 4ba3 50       		.byte	0x50
 13820 4ba4 01       		.uleb128 0x1
 13821 4ba5 40       		.byte	0x40
 13822 4ba6 29       		.uleb128 0x29
 13823 4ba7 02       		.uleb128 0x2
 13824 4ba8 7D       		.byte	0x7d
 13825 4ba9 00       		.sleb128 0
 13826 4baa 02       		.uleb128 0x2
 13827 4bab 74       		.byte	0x74
 13828 4bac 00       		.sleb128 0
 13829 4bad 00       		.byte	0
 13830 4bae 28       		.uleb128 0x28
 13831 4baf 84000000 		.4byte	.LVL472
 13832 4bb3 0B4E0000 		.4byte	0x4e0b
 13833 4bb7 C74B0000 		.4byte	0x4bc7
 13834 4bbb 29       		.uleb128 0x29
 13835 4bbc 01       		.uleb128 0x1
 13836 4bbd 52       		.byte	0x52
 13837 4bbe 01       		.uleb128 0x1
ARM GAS  C:\Users\AHMED~1.ELE\AppData\Local\Temp\ccLLYyS4.s 			page 276


 13838 4bbf 32       		.byte	0x32
 13839 4bc0 29       		.uleb128 0x29
 13840 4bc1 01       		.uleb128 0x1
 13841 4bc2 51       		.byte	0x51
 13842 4bc3 02       		.uleb128 0x2
 13843 4bc4 08       		.byte	0x8
 13844 4bc5 30       		.byte	0x30
 13845 4bc6 00       		.byte	0
 13846 4bc7 2A       		.uleb128 0x2a
 13847 4bc8 9E000000 		.4byte	.LVL473
 13848 4bcc 354E0000 		.4byte	0x4e35
 13849 4bd0 29       		.uleb128 0x29
 13850 4bd1 01       		.uleb128 0x1
 13851 4bd2 50       		.byte	0x50
 13852 4bd3 02       		.uleb128 0x2
 13853 4bd4 74       		.byte	0x74
 13854 4bd5 01       		.sleb128 1
 13855 4bd6 00       		.byte	0
 13856 4bd7 00       		.byte	0
 13857 4bd8 06       		.uleb128 0x6
 13858 4bd9 04       		.byte	0x4
 13859 4bda BD000000 		.4byte	0xbd
 13860 4bde 41       		.uleb128 0x41
 13861 4bdf 673F0000 		.4byte	.LASF1101
 13862 4be3 01       		.byte	0x1
 13863 4be4 45       		.byte	0x45
 13864 4be5 EF4B0000 		.4byte	0x4bef
 13865 4be9 05       		.uleb128 0x5
 13866 4bea 03       		.byte	0x3
 13867 4beb 00000000 		.4byte	KDecimalPos
 13868 4bef 07       		.uleb128 0x7
 13869 4bf0 87010000 		.4byte	0x187
 13870 4bf4 08       		.uleb128 0x8
 13871 4bf5 25000000 		.4byte	0x25
 13872 4bf9 044C0000 		.4byte	0x4c04
 13873 4bfd 09       		.uleb128 0x9
 13874 4bfe 76000000 		.4byte	0x76
 13875 4c02 06       		.byte	0x6
 13876 4c03 00       		.byte	0
 13877 4c04 42       		.uleb128 0x42
 13878 4c05 D5300000 		.4byte	.LASF1102
 13879 4c09 11       		.byte	0x11
 13880 4c0a 3C       		.byte	0x3c
 13881 4c0b F44B0000 		.4byte	0x4bf4
 13882 4c0f 42       		.uleb128 0x42
 13883 4c10 44180000 		.4byte	.LASF1103
 13884 4c14 11       		.byte	0x11
 13885 4c15 3D       		.byte	0x3d
 13886 4c16 25000000 		.4byte	0x25
 13887 4c1a 42       		.uleb128 0x42
 13888 4c1b 23460000 		.4byte	.LASF1104
 13889 4c1f 12       		.byte	0x12
 13890 4c20 39       		.byte	0x39
 13891 4c21 B2000000 		.4byte	0xb2
 13892 4c25 42       		.uleb128 0x42
 13893 4c26 BC1D0000 		.4byte	.LASF1105
 13894 4c2a 0B       		.byte	0xb
ARM GAS  C:\Users\AHMED~1.ELE\AppData\Local\Temp\ccLLYyS4.s 			page 277


 13895 4c2b B9       		.byte	0xb9
 13896 4c2c 304C0000 		.4byte	0x4c30
 13897 4c30 06       		.uleb128 0x6
 13898 4c31 04       		.byte	0x4
 13899 4c32 C8200000 		.4byte	0x20c8
 13900 4c36 42       		.uleb128 0x42
 13901 4c37 91430000 		.4byte	.LASF1106
 13902 4c3b 12       		.byte	0x12
 13903 4c3c 38       		.byte	0x38
 13904 4c3d 91000000 		.4byte	0x91
 13905 4c41 42       		.uleb128 0x42
 13906 4c42 EB260000 		.4byte	.LASF1107
 13907 4c46 0E       		.byte	0xe
 13908 4c47 53       		.byte	0x53
 13909 4c48 792A0000 		.4byte	0x2a79
 13910 4c4c 08       		.uleb128 0x8
 13911 4c4d E92A0000 		.4byte	0x2ae9
 13912 4c51 5C4C0000 		.4byte	0x4c5c
 13913 4c55 09       		.uleb128 0x9
 13914 4c56 76000000 		.4byte	0x76
 13915 4c5a 02       		.byte	0x2
 13916 4c5b 00       		.byte	0
 13917 4c5c 43       		.uleb128 0x43
 13918 4c5d 92260000 		.4byte	.LASF1108
 13919 4c61 01       		.byte	0x1
 13920 4c62 4A       		.byte	0x4a
 13921 4c63 4C4C0000 		.4byte	0x4c4c
 13922 4c67 05       		.uleb128 0x5
 13923 4c68 03       		.byte	0x3
 13924 4c69 00000000 		.4byte	gCurInfo
 13925 4c6d 44       		.uleb128 0x44
 13926 4c6e D6440000 		.4byte	.LASF1110
 13927 4c72 13       		.byte	0x13
 13928 4c73 21       		.byte	0x21
 13929 4c74 2C000000 		.4byte	0x2c
 13930 4c78 824C0000 		.4byte	0x4c82
 13931 4c7c 45       		.uleb128 0x45
 13932 4c7d 86000000 		.4byte	0x86
 13933 4c81 00       		.byte	0
 13934 4c82 44       		.uleb128 0x44
 13935 4c83 642C0000 		.4byte	.LASF1111
 13936 4c87 08       		.byte	0x8
 13937 4c88 A2       		.byte	0xa2
 13938 4c89 B2000000 		.4byte	0xb2
 13939 4c8d 9C4C0000 		.4byte	0x4c9c
 13940 4c91 45       		.uleb128 0x45
 13941 4c92 B2000000 		.4byte	0xb2
 13942 4c96 45       		.uleb128 0x45
 13943 4c97 B2000000 		.4byte	0xb2
 13944 4c9b 00       		.byte	0
 13945 4c9c 46       		.uleb128 0x46
 13946 4c9d 95190000 		.4byte	.LASF1115
 13947 4ca1 7D000000 		.4byte	0x7d
 13948 4ca5 B94C0000 		.4byte	0x4cb9
 13949 4ca9 45       		.uleb128 0x45
 13950 4caa 7D000000 		.4byte	0x7d
 13951 4cae 45       		.uleb128 0x45
ARM GAS  C:\Users\AHMED~1.ELE\AppData\Local\Temp\ccLLYyS4.s 			page 278


 13952 4caf B40E0000 		.4byte	0xeb4
 13953 4cb3 45       		.uleb128 0x45
 13954 4cb4 76000000 		.4byte	0x76
 13955 4cb8 00       		.byte	0
 13956 4cb9 44       		.uleb128 0x44
 13957 4cba 9B260000 		.4byte	.LASF1112
 13958 4cbe 08       		.byte	0x8
 13959 4cbf A0       		.byte	0xa0
 13960 4cc0 B2000000 		.4byte	0xb2
 13961 4cc4 E24C0000 		.4byte	0x4ce2
 13962 4cc8 45       		.uleb128 0x45
 13963 4cc9 B2000000 		.4byte	0xb2
 13964 4ccd 45       		.uleb128 0x45
 13965 4cce B2000000 		.4byte	0xb2
 13966 4cd2 45       		.uleb128 0x45
 13967 4cd3 B2000000 		.4byte	0xb2
 13968 4cd7 45       		.uleb128 0x45
 13969 4cd8 B2000000 		.4byte	0xb2
 13970 4cdc 45       		.uleb128 0x45
 13971 4cdd B2000000 		.4byte	0xb2
 13972 4ce1 00       		.byte	0
 13973 4ce2 44       		.uleb128 0x44
 13974 4ce3 76170000 		.4byte	.LASF1113
 13975 4ce7 13       		.byte	0x13
 13976 4ce8 16       		.byte	0x16
 13977 4ce9 25000000 		.4byte	0x25
 13978 4ced 014D0000 		.4byte	0x4d01
 13979 4cf1 45       		.uleb128 0x45
 13980 4cf2 B40E0000 		.4byte	0xeb4
 13981 4cf6 45       		.uleb128 0x45
 13982 4cf7 B40E0000 		.4byte	0xeb4
 13983 4cfb 45       		.uleb128 0x45
 13984 4cfc 2C000000 		.4byte	0x2c
 13985 4d00 00       		.byte	0
 13986 4d01 44       		.uleb128 0x44
 13987 4d02 950D0000 		.4byte	.LASF1114
 13988 4d06 0D       		.byte	0xd
 13989 4d07 E5       		.byte	0xe5
 13990 4d08 E3000000 		.4byte	0xe3
 13991 4d0c 164D0000 		.4byte	0x4d16
 13992 4d10 45       		.uleb128 0x45
 13993 4d11 B2000000 		.4byte	0xb2
 13994 4d15 00       		.byte	0
 13995 4d16 47       		.uleb128 0x47
 13996 4d17 9E460000 		.4byte	.LASF1116
 13997 4d1b 0A       		.byte	0xa
 13998 4d1c 54       		.byte	0x54
 13999 4d1d 314D0000 		.4byte	0x4d31
 14000 4d21 45       		.uleb128 0x45
 14001 4d22 C8000000 		.4byte	0xc8
 14002 4d26 45       		.uleb128 0x45
 14003 4d27 B2000000 		.4byte	0xb2
 14004 4d2b 45       		.uleb128 0x45
 14005 4d2c B2000000 		.4byte	0xb2
 14006 4d30 00       		.byte	0
 14007 4d31 48       		.uleb128 0x48
 14008 4d32 FE040000 		.4byte	.LASF1143
ARM GAS  C:\Users\AHMED~1.ELE\AppData\Local\Temp\ccLLYyS4.s 			page 279


 14009 4d36 0A       		.byte	0xa
 14010 4d37 34       		.byte	0x34
 14011 4d38 47       		.uleb128 0x47
 14012 4d39 47380000 		.4byte	.LASF1117
 14013 4d3d 14       		.byte	0x14
 14014 4d3e 29       		.byte	0x29
 14015 4d3f 534D0000 		.4byte	0x4d53
 14016 4d43 45       		.uleb128 0x45
 14017 4d44 E3000000 		.4byte	0xe3
 14018 4d48 45       		.uleb128 0x45
 14019 4d49 E3000000 		.4byte	0xe3
 14020 4d4d 45       		.uleb128 0x45
 14021 4d4e B2000000 		.4byte	0xb2
 14022 4d52 00       		.byte	0
 14023 4d53 44       		.uleb128 0x44
 14024 4d54 1C2E0000 		.4byte	.LASF1118
 14025 4d58 14       		.byte	0x14
 14026 4d59 24       		.byte	0x24
 14027 4d5a B2000000 		.4byte	0xb2
 14028 4d5e 724D0000 		.4byte	0x4d72
 14029 4d62 45       		.uleb128 0x45
 14030 4d63 E3000000 		.4byte	0xe3
 14031 4d67 45       		.uleb128 0x45
 14032 4d68 B2000000 		.4byte	0xb2
 14033 4d6c 45       		.uleb128 0x45
 14034 4d6d B2000000 		.4byte	0xb2
 14035 4d71 00       		.byte	0
 14036 4d72 44       		.uleb128 0x44
 14037 4d73 0C000000 		.4byte	.LASF1119
 14038 4d77 14       		.byte	0x14
 14039 4d78 4A       		.byte	0x4a
 14040 4d79 B2000000 		.4byte	0xb2
 14041 4d7d 874D0000 		.4byte	0x4d87
 14042 4d81 45       		.uleb128 0x45
 14043 4d82 B2000000 		.4byte	0xb2
 14044 4d86 00       		.byte	0
 14045 4d87 44       		.uleb128 0x44
 14046 4d88 AA1A0000 		.4byte	.LASF1120
 14047 4d8c 15       		.byte	0x15
 14048 4d8d 46       		.byte	0x46
 14049 4d8e 9C000000 		.4byte	0x9c
 14050 4d92 9C4D0000 		.4byte	0x4d9c
 14051 4d96 45       		.uleb128 0x45
 14052 4d97 9C000000 		.4byte	0x9c
 14053 4d9b 00       		.byte	0
 14054 4d9c 44       		.uleb128 0x44
 14055 4d9d D0240000 		.4byte	.LASF1121
 14056 4da1 0B       		.byte	0xb
 14057 4da2 DA       		.byte	0xda
 14058 4da3 91000000 		.4byte	0x91
 14059 4da7 B14D0000 		.4byte	0x4db1
 14060 4dab 45       		.uleb128 0x45
 14061 4dac 9C000000 		.4byte	0x9c
 14062 4db0 00       		.byte	0
 14063 4db1 47       		.uleb128 0x47
 14064 4db2 55410000 		.4byte	.LASF1122
 14065 4db6 0E       		.byte	0xe
ARM GAS  C:\Users\AHMED~1.ELE\AppData\Local\Temp\ccLLYyS4.s 			page 280


 14066 4db7 67       		.byte	0x67
 14067 4db8 C24D0000 		.4byte	0x4dc2
 14068 4dbc 45       		.uleb128 0x45
 14069 4dbd C8000000 		.4byte	0xc8
 14070 4dc1 00       		.byte	0
 14071 4dc2 44       		.uleb128 0x44
 14072 4dc3 8C1F0000 		.4byte	.LASF1123
 14073 4dc7 16       		.byte	0x16
 14074 4dc8 41       		.byte	0x41
 14075 4dc9 E3000000 		.4byte	0xe3
 14076 4dcd E14D0000 		.4byte	0x4de1
 14077 4dd1 45       		.uleb128 0x45
 14078 4dd2 E3000000 		.4byte	0xe3
 14079 4dd6 45       		.uleb128 0x45
 14080 4dd7 A7000000 		.4byte	0xa7
 14081 4ddb 45       		.uleb128 0x45
 14082 4ddc A7000000 		.4byte	0xa7
 14083 4de0 00       		.byte	0
 14084 4de1 44       		.uleb128 0x44
 14085 4de2 5F0F0000 		.4byte	.LASF1124
 14086 4de6 16       		.byte	0x16
 14087 4de7 40       		.byte	0x40
 14088 4de8 E3000000 		.4byte	0xe3
 14089 4dec F64D0000 		.4byte	0x4df6
 14090 4df0 45       		.uleb128 0x45
 14091 4df1 E3000000 		.4byte	0xe3
 14092 4df5 00       		.byte	0
 14093 4df6 44       		.uleb128 0x44
 14094 4df7 671C0000 		.4byte	.LASF1125
 14095 4dfb 16       		.byte	0x16
 14096 4dfc 3F       		.byte	0x3f
 14097 4dfd A7000000 		.4byte	0xa7
 14098 4e01 0B4E0000 		.4byte	0x4e0b
 14099 4e05 45       		.uleb128 0x45
 14100 4e06 E3000000 		.4byte	0xe3
 14101 4e0a 00       		.byte	0
 14102 4e0b 44       		.uleb128 0x44
 14103 4e0c 0F020000 		.4byte	.LASF1126
 14104 4e10 13       		.byte	0x13
 14105 4e11 19       		.byte	0x19
 14106 4e12 7D000000 		.4byte	0x7d
 14107 4e16 2A4E0000 		.4byte	0x4e2a
 14108 4e1a 45       		.uleb128 0x45
 14109 4e1b 7D000000 		.4byte	0x7d
 14110 4e1f 45       		.uleb128 0x45
 14111 4e20 25000000 		.4byte	0x25
 14112 4e24 45       		.uleb128 0x45
 14113 4e25 2C000000 		.4byte	0x2c
 14114 4e29 00       		.byte	0
 14115 4e2a 49       		.uleb128 0x49
 14116 4e2b 471E0000 		.4byte	.LASF1128
 14117 4e2f 17       		.byte	0x17
 14118 4e30 54       		.byte	0x54
 14119 4e31 BD000000 		.4byte	0xbd
 14120 4e35 44       		.uleb128 0x44
 14121 4e36 33410000 		.4byte	.LASF1127
 14122 4e3a 14       		.byte	0x14
ARM GAS  C:\Users\AHMED~1.ELE\AppData\Local\Temp\ccLLYyS4.s 			page 281


 14123 4e3b 5B       		.byte	0x5b
 14124 4e3c 6F000000 		.4byte	0x6f
 14125 4e40 4F4E0000 		.4byte	0x4e4f
 14126 4e44 45       		.uleb128 0x45
 14127 4e45 E3000000 		.4byte	0xe3
 14128 4e49 45       		.uleb128 0x45
 14129 4e4a B2000000 		.4byte	0xb2
 14130 4e4e 00       		.byte	0
 14131 4e4f 49       		.uleb128 0x49
 14132 4e50 CC290000 		.4byte	.LASF1129
 14133 4e54 15       		.byte	0x15
 14134 4e55 33       		.byte	0x33
 14135 4e56 91000000 		.4byte	0x91
 14136 4e5a 49       		.uleb128 0x49
 14137 4e5b 98110000 		.4byte	.LASF1130
 14138 4e5f 0E       		.byte	0xe
 14139 4e60 5C       		.byte	0x5c
 14140 4e61 91000000 		.4byte	0x91
 14141 4e65 47       		.uleb128 0x47
 14142 4e66 E3250000 		.4byte	.LASF1131
 14143 4e6a 0E       		.byte	0xe
 14144 4e6b 69       		.byte	0x69
 14145 4e6c 804E0000 		.4byte	0x4e80
 14146 4e70 45       		.uleb128 0x45
 14147 4e71 BD000000 		.4byte	0xbd
 14148 4e75 45       		.uleb128 0x45
 14149 4e76 B2000000 		.4byte	0xb2
 14150 4e7a 45       		.uleb128 0x45
 14151 4e7b B2000000 		.4byte	0xb2
 14152 4e7f 00       		.byte	0
 14153 4e80 47       		.uleb128 0x47
 14154 4e81 1A3E0000 		.4byte	.LASF1132
 14155 4e85 0A       		.byte	0xa
 14156 4e86 44       		.byte	0x44
 14157 4e87 914E0000 		.4byte	0x4e91
 14158 4e8b 45       		.uleb128 0x45
 14159 4e8c 914E0000 		.4byte	0x4e91
 14160 4e90 00       		.byte	0
 14161 4e91 06       		.uleb128 0x6
 14162 4e92 04       		.byte	0x4
 14163 4e93 EC1A0000 		.4byte	0x1aec
 14164 4e97 47       		.uleb128 0x47
 14165 4e98 1D060000 		.4byte	.LASF1133
 14166 4e9c 14       		.byte	0x14
 14167 4e9d 28       		.byte	0x28
 14168 4e9e B24E0000 		.4byte	0x4eb2
 14169 4ea2 45       		.uleb128 0x45
 14170 4ea3 E3000000 		.4byte	0xe3
 14171 4ea7 45       		.uleb128 0x45
 14172 4ea8 E3000000 		.4byte	0xe3
 14173 4eac 45       		.uleb128 0x45
 14174 4ead B2000000 		.4byte	0xb2
 14175 4eb1 00       		.byte	0
 14176 4eb2 49       		.uleb128 0x49
 14177 4eb3 2B1E0000 		.4byte	.LASF1134
 14178 4eb7 15       		.byte	0x15
 14179 4eb8 50       		.byte	0x50
ARM GAS  C:\Users\AHMED~1.ELE\AppData\Local\Temp\ccLLYyS4.s 			page 282


 14180 4eb9 91000000 		.4byte	0x91
 14181 4ebd 44       		.uleb128 0x44
 14182 4ebe 09470000 		.4byte	.LASF1135
 14183 4ec2 14       		.byte	0x14
 14184 4ec3 2C       		.byte	0x2c
 14185 4ec4 91000000 		.4byte	0x91
 14186 4ec8 D74E0000 		.4byte	0x4ed7
 14187 4ecc 45       		.uleb128 0x45
 14188 4ecd E3000000 		.4byte	0xe3
 14189 4ed1 45       		.uleb128 0x45
 14190 4ed2 B2000000 		.4byte	0xb2
 14191 4ed6 00       		.byte	0
 14192 4ed7 49       		.uleb128 0x49
 14193 4ed8 E43D0000 		.4byte	.LASF1136
 14194 4edc 15       		.byte	0x15
 14195 4edd 5D       		.byte	0x5d
 14196 4ede 91000000 		.4byte	0x91
 14197 4ee2 49       		.uleb128 0x49
 14198 4ee3 CB230000 		.4byte	.LASF1137
 14199 4ee7 18       		.byte	0x18
 14200 4ee8 2B       		.byte	0x2b
 14201 4ee9 91000000 		.4byte	0x91
 14202 4eed 44       		.uleb128 0x44
 14203 4eee 912D0000 		.4byte	.LASF1138
 14204 4ef2 14       		.byte	0x14
 14205 4ef3 3A       		.byte	0x3a
 14206 4ef4 91000000 		.4byte	0x91
 14207 4ef8 074F0000 		.4byte	0x4f07
 14208 4efc 45       		.uleb128 0x45
 14209 4efd E3000000 		.4byte	0xe3
 14210 4f01 45       		.uleb128 0x45
 14211 4f02 B2000000 		.4byte	0xb2
 14212 4f06 00       		.byte	0
 14213 4f07 49       		.uleb128 0x49
 14214 4f08 57160000 		.4byte	.LASF1139
 14215 4f0c 15       		.byte	0x15
 14216 4f0d 4C       		.byte	0x4c
 14217 4f0e 91000000 		.4byte	0x91
 14218 4f12 49       		.uleb128 0x49
 14219 4f13 87420000 		.4byte	.LASF1140
 14220 4f17 15       		.byte	0x15
 14221 4f18 59       		.byte	0x59
 14222 4f19 91000000 		.4byte	0x91
 14223 4f1d 49       		.uleb128 0x49
 14224 4f1e 78330000 		.4byte	.LASF1141
 14225 4f22 15       		.byte	0x15
 14226 4f23 53       		.byte	0x53
 14227 4f24 91000000 		.4byte	0x91
 14228 4f28 49       		.uleb128 0x49
 14229 4f29 D8160000 		.4byte	.LASF1142
 14230 4f2d 15       		.byte	0x15
 14231 4f2e 4E       		.byte	0x4e
 14232 4f2f 91000000 		.4byte	0x91
 14233 4f33 46       		.uleb128 0x46
 14234 4f34 0F020000 		.4byte	.LASF1126
 14235 4f38 7D000000 		.4byte	0x7d
 14236 4f3c 504F0000 		.4byte	0x4f50
ARM GAS  C:\Users\AHMED~1.ELE\AppData\Local\Temp\ccLLYyS4.s 			page 283


 14237 4f40 45       		.uleb128 0x45
 14238 4f41 7D000000 		.4byte	0x7d
 14239 4f45 45       		.uleb128 0x45
 14240 4f46 25000000 		.4byte	0x25
 14241 4f4a 45       		.uleb128 0x45
 14242 4f4b 76000000 		.4byte	0x76
 14243 4f4f 00       		.byte	0
 14244 4f50 48       		.uleb128 0x48
 14245 4f51 AD050000 		.4byte	.LASF1144
 14246 4f55 0A       		.byte	0xa
 14247 4f56 2F       		.byte	0x2f
 14248 4f57 47       		.uleb128 0x47
 14249 4f58 A3020000 		.4byte	.LASF1145
 14250 4f5c 0E       		.byte	0xe
 14251 4f5d 60       		.byte	0x60
 14252 4f5e 684F0000 		.4byte	0x4f68
 14253 4f62 45       		.uleb128 0x45
 14254 4f63 E3000000 		.4byte	0xe3
 14255 4f67 00       		.byte	0
 14256 4f68 47       		.uleb128 0x47
 14257 4f69 522C0000 		.4byte	.LASF1146
 14258 4f6d 0A       		.byte	0xa
 14259 4f6e 5A       		.byte	0x5a
 14260 4f6f 834F0000 		.4byte	0x4f83
 14261 4f73 45       		.uleb128 0x45
 14262 4f74 7D000000 		.4byte	0x7d
 14263 4f78 45       		.uleb128 0x45
 14264 4f79 E3000000 		.4byte	0xe3
 14265 4f7d 45       		.uleb128 0x45
 14266 4f7e 9C000000 		.4byte	0x9c
 14267 4f82 00       		.byte	0
 14268 4f83 48       		.uleb128 0x48
 14269 4f84 39160000 		.4byte	.LASF1147
 14270 4f88 0E       		.byte	0xe
 14271 4f89 73       		.byte	0x73
 14272 4f8a 47       		.uleb128 0x47
 14273 4f8b B00A0000 		.4byte	.LASF1148
 14274 4f8f 0E       		.byte	0xe
 14275 4f90 66       		.byte	0x66
 14276 4f91 9B4F0000 		.4byte	0x4f9b
 14277 4f95 45       		.uleb128 0x45
 14278 4f96 91000000 		.4byte	0x91
 14279 4f9a 00       		.byte	0
 14280 4f9b 44       		.uleb128 0x44
 14281 4f9c 9E0F0000 		.4byte	.LASF1149
 14282 4fa0 11       		.byte	0x11
 14283 4fa1 57       		.byte	0x57
 14284 4fa2 B2000000 		.4byte	0xb2
 14285 4fa6 B54F0000 		.4byte	0x4fb5
 14286 4faa 45       		.uleb128 0x45
 14287 4fab B2000000 		.4byte	0xb2
 14288 4faf 45       		.uleb128 0x45
 14289 4fb0 B2000000 		.4byte	0xb2
 14290 4fb4 00       		.byte	0
 14291 4fb5 47       		.uleb128 0x47
 14292 4fb6 53420000 		.4byte	.LASF1150
 14293 4fba 0A       		.byte	0xa
ARM GAS  C:\Users\AHMED~1.ELE\AppData\Local\Temp\ccLLYyS4.s 			page 284


 14294 4fbb 5B       		.byte	0x5b
 14295 4fbc D04F0000 		.4byte	0x4fd0
 14296 4fc0 45       		.uleb128 0x45
 14297 4fc1 7D000000 		.4byte	0x7d
 14298 4fc5 45       		.uleb128 0x45
 14299 4fc6 E3000000 		.4byte	0xe3
 14300 4fca 45       		.uleb128 0x45
 14301 4fcb 9C000000 		.4byte	0x9c
 14302 4fcf 00       		.byte	0
 14303 4fd0 47       		.uleb128 0x47
 14304 4fd1 DB080000 		.4byte	.LASF1151
 14305 4fd5 11       		.byte	0x11
 14306 4fd6 52       		.byte	0x52
 14307 4fd7 E14F0000 		.4byte	0x4fe1
 14308 4fdb 45       		.uleb128 0x45
 14309 4fdc B2000000 		.4byte	0xb2
 14310 4fe0 00       		.byte	0
 14311 4fe1 44       		.uleb128 0x44
 14312 4fe2 A0400000 		.4byte	.LASF1152
 14313 4fe6 11       		.byte	0x11
 14314 4fe7 5A       		.byte	0x5a
 14315 4fe8 91000000 		.4byte	0x91
 14316 4fec FB4F0000 		.4byte	0x4ffb
 14317 4ff0 45       		.uleb128 0x45
 14318 4ff1 FB4F0000 		.4byte	0x4ffb
 14319 4ff5 45       		.uleb128 0x45
 14320 4ff6 01500000 		.4byte	0x5001
 14321 4ffa 00       		.byte	0
 14322 4ffb 06       		.uleb128 0x6
 14323 4ffc 04       		.byte	0x4
 14324 4ffd 670F0000 		.4byte	0xf67
 14325 5001 06       		.uleb128 0x6
 14326 5002 04       		.byte	0x4
 14327 5003 9F0F0000 		.4byte	0xf9f
 14328 5007 47       		.uleb128 0x47
 14329 5008 63130000 		.4byte	.LASF1153
 14330 500c 11       		.byte	0x11
 14331 500d 51       		.byte	0x51
 14332 500e 18500000 		.4byte	0x5018
 14333 5012 45       		.uleb128 0x45
 14334 5013 B2000000 		.4byte	0xb2
 14335 5017 00       		.byte	0
 14336 5018 48       		.uleb128 0x48
 14337 5019 B92F0000 		.4byte	.LASF1154
 14338 501d 0A       		.byte	0xa
 14339 501e 32       		.byte	0x32
 14340 501f 47       		.uleb128 0x47
 14341 5020 52130000 		.4byte	.LASF1155
 14342 5024 0B       		.byte	0xb
 14343 5025 E7       		.byte	0xe7
 14344 5026 30500000 		.4byte	0x5030
 14345 502a 45       		.uleb128 0x45
 14346 502b B2000000 		.4byte	0xb2
 14347 502f 00       		.byte	0
 14348 5030 47       		.uleb128 0x47
 14349 5031 6C1A0000 		.4byte	.LASF1156
 14350 5035 19       		.byte	0x19
ARM GAS  C:\Users\AHMED~1.ELE\AppData\Local\Temp\ccLLYyS4.s 			page 285


 14351 5036 40       		.byte	0x40
 14352 5037 41500000 		.4byte	0x5041
 14353 503b 45       		.uleb128 0x45
 14354 503c B2000000 		.4byte	0xb2
 14355 5040 00       		.byte	0
 14356 5041 44       		.uleb128 0x44
 14357 5042 25050000 		.4byte	.LASF1157
 14358 5046 1A       		.byte	0x1a
 14359 5047 28       		.byte	0x28
 14360 5048 B2000000 		.4byte	0xb2
 14361 504c 56500000 		.4byte	0x5056
 14362 5050 45       		.uleb128 0x45
 14363 5051 B2000000 		.4byte	0xb2
 14364 5055 00       		.byte	0
 14365 5056 44       		.uleb128 0x44
 14366 5057 54430000 		.4byte	.LASF1158
 14367 505b 1B       		.byte	0x1b
 14368 505c 28       		.byte	0x28
 14369 505d B2000000 		.4byte	0xb2
 14370 5061 6B500000 		.4byte	0x506b
 14371 5065 45       		.uleb128 0x45
 14372 5066 B2000000 		.4byte	0xb2
 14373 506a 00       		.byte	0
 14374 506b 44       		.uleb128 0x44
 14375 506c 9A140000 		.4byte	.LASF1159
 14376 5070 1C       		.byte	0x1c
 14377 5071 28       		.byte	0x28
 14378 5072 B2000000 		.4byte	0xb2
 14379 5076 80500000 		.4byte	0x5080
 14380 507a 45       		.uleb128 0x45
 14381 507b B2000000 		.4byte	0xb2
 14382 507f 00       		.byte	0
 14383 5080 44       		.uleb128 0x44
 14384 5081 5C250000 		.4byte	.LASF1160
 14385 5085 1D       		.byte	0x1d
 14386 5086 29       		.byte	0x29
 14387 5087 B2000000 		.4byte	0xb2
 14388 508b 95500000 		.4byte	0x5095
 14389 508f 45       		.uleb128 0x45
 14390 5090 B2000000 		.4byte	0xb2
 14391 5094 00       		.byte	0
 14392 5095 47       		.uleb128 0x47
 14393 5096 B1380000 		.4byte	.LASF1161
 14394 509a 0E       		.byte	0xe
 14395 509b 68       		.byte	0x68
 14396 509c A6500000 		.4byte	0x50a6
 14397 50a0 45       		.uleb128 0x45
 14398 50a1 91000000 		.4byte	0x91
 14399 50a5 00       		.byte	0
 14400 50a6 49       		.uleb128 0x49
 14401 50a7 01240000 		.4byte	.LASF1162
 14402 50ab 0B       		.byte	0xb
 14403 50ac EF       		.byte	0xef
 14404 50ad 91000000 		.4byte	0x91
 14405 50b1 44       		.uleb128 0x44
 14406 50b2 74380000 		.4byte	.LASF1163
 14407 50b6 19       		.byte	0x19
ARM GAS  C:\Users\AHMED~1.ELE\AppData\Local\Temp\ccLLYyS4.s 			page 286


 14408 50b7 3A       		.byte	0x3a
 14409 50b8 91000000 		.4byte	0x91
 14410 50bc C6500000 		.4byte	0x50c6
 14411 50c0 45       		.uleb128 0x45
 14412 50c1 B2000000 		.4byte	0xb2
 14413 50c5 00       		.byte	0
 14414 50c6 44       		.uleb128 0x44
 14415 50c7 1D1A0000 		.4byte	.LASF1164
 14416 50cb 19       		.byte	0x19
 14417 50cc 3C       		.byte	0x3c
 14418 50cd 91000000 		.4byte	0x91
 14419 50d1 DB500000 		.4byte	0x50db
 14420 50d5 45       		.uleb128 0x45
 14421 50d6 B2000000 		.4byte	0xb2
 14422 50da 00       		.byte	0
 14423 50db 49       		.uleb128 0x49
 14424 50dc 87380000 		.4byte	.LASF1165
 14425 50e0 19       		.byte	0x19
 14426 50e1 3D       		.byte	0x3d
 14427 50e2 91000000 		.4byte	0x91
 14428 50e6 44       		.uleb128 0x44
 14429 50e7 1A360000 		.4byte	.LASF1166
 14430 50eb 19       		.byte	0x19
 14431 50ec 39       		.byte	0x39
 14432 50ed B2000000 		.4byte	0xb2
 14433 50f1 FB500000 		.4byte	0x50fb
 14434 50f5 45       		.uleb128 0x45
 14435 50f6 B2000000 		.4byte	0xb2
 14436 50fa 00       		.byte	0
 14437 50fb 44       		.uleb128 0x44
 14438 50fc E90A0000 		.4byte	.LASF1167
 14439 5100 19       		.byte	0x19
 14440 5101 3E       		.byte	0x3e
 14441 5102 25000000 		.4byte	0x25
 14442 5106 10510000 		.4byte	0x5110
 14443 510a 45       		.uleb128 0x45
 14444 510b B2000000 		.4byte	0xb2
 14445 510f 00       		.byte	0
 14446 5110 49       		.uleb128 0x49
 14447 5111 CE000000 		.4byte	.LASF1168
 14448 5115 11       		.byte	0x11
 14449 5116 5E       		.byte	0x5e
 14450 5117 91000000 		.4byte	0x91
 14451 511b 49       		.uleb128 0x49
 14452 511c 0F450000 		.4byte	.LASF1169
 14453 5120 11       		.byte	0x11
 14454 5121 62       		.byte	0x62
 14455 5122 B2000000 		.4byte	0xb2
 14456 5126 44       		.uleb128 0x44
 14457 5127 E8010000 		.4byte	.LASF1170
 14458 512b 18       		.byte	0x18
 14459 512c 2D       		.byte	0x2d
 14460 512d B2000000 		.4byte	0xb2
 14461 5131 3B510000 		.4byte	0x513b
 14462 5135 45       		.uleb128 0x45
 14463 5136 B2000000 		.4byte	0xb2
 14464 513a 00       		.byte	0
ARM GAS  C:\Users\AHMED~1.ELE\AppData\Local\Temp\ccLLYyS4.s 			page 287


 14465 513b 49       		.uleb128 0x49
 14466 513c B43A0000 		.4byte	.LASF1171
 14467 5140 11       		.byte	0x11
 14468 5141 63       		.byte	0x63
 14469 5142 B2000000 		.4byte	0xb2
 14470 5146 49       		.uleb128 0x49
 14471 5147 D10D0000 		.4byte	.LASF1172
 14472 514b 11       		.byte	0x11
 14473 514c 5F       		.byte	0x5f
 14474 514d 91000000 		.4byte	0x91
 14475 5151 48       		.uleb128 0x48
 14476 5152 CE280000 		.4byte	.LASF1173
 14477 5156 11       		.byte	0x11
 14478 5157 60       		.byte	0x60
 14479 5158 49       		.uleb128 0x49
 14480 5159 702F0000 		.4byte	.LASF1174
 14481 515d 0A       		.byte	0xa
 14482 515e 49       		.byte	0x49
 14483 515f B2000000 		.4byte	0xb2
 14484 5163 44       		.uleb128 0x44
 14485 5164 F1110000 		.4byte	.LASF1175
 14486 5168 17       		.byte	0x17
 14487 5169 55       		.byte	0x55
 14488 516a B2000000 		.4byte	0xb2
 14489 516e 78510000 		.4byte	0x5178
 14490 5172 45       		.uleb128 0x45
 14491 5173 E3000000 		.4byte	0xe3
 14492 5177 00       		.byte	0
 14493 5178 49       		.uleb128 0x49
 14494 5179 E9100000 		.4byte	.LASF1176
 14495 517d 15       		.byte	0x15
 14496 517e 32       		.byte	0x32
 14497 517f 91000000 		.4byte	0x91
 14498 5183 00       		.byte	0
 14499              		.section	.debug_abbrev,"",%progbits
 14500              	.Ldebug_abbrev0:
 14501 0000 01       		.uleb128 0x1
 14502 0001 11       		.uleb128 0x11
 14503 0002 01       		.byte	0x1
 14504 0003 25       		.uleb128 0x25
 14505 0004 0E       		.uleb128 0xe
 14506 0005 13       		.uleb128 0x13
 14507 0006 0B       		.uleb128 0xb
 14508 0007 03       		.uleb128 0x3
 14509 0008 0E       		.uleb128 0xe
 14510 0009 1B       		.uleb128 0x1b
 14511 000a 0E       		.uleb128 0xe
 14512 000b 55       		.uleb128 0x55
 14513 000c 17       		.uleb128 0x17
 14514 000d 11       		.uleb128 0x11
 14515 000e 01       		.uleb128 0x1
 14516 000f 10       		.uleb128 0x10
 14517 0010 17       		.uleb128 0x17
 14518 0011 00       		.byte	0
 14519 0012 00       		.byte	0
 14520 0013 02       		.uleb128 0x2
 14521 0014 24       		.uleb128 0x24
ARM GAS  C:\Users\AHMED~1.ELE\AppData\Local\Temp\ccLLYyS4.s 			page 288


 14522 0015 00       		.byte	0
 14523 0016 0B       		.uleb128 0xb
 14524 0017 0B       		.uleb128 0xb
 14525 0018 3E       		.uleb128 0x3e
 14526 0019 0B       		.uleb128 0xb
 14527 001a 03       		.uleb128 0x3
 14528 001b 08       		.uleb128 0x8
 14529 001c 00       		.byte	0
 14530 001d 00       		.byte	0
 14531 001e 03       		.uleb128 0x3
 14532 001f 16       		.uleb128 0x16
 14533 0020 00       		.byte	0
 14534 0021 03       		.uleb128 0x3
 14535 0022 0E       		.uleb128 0xe
 14536 0023 3A       		.uleb128 0x3a
 14537 0024 0B       		.uleb128 0xb
 14538 0025 3B       		.uleb128 0x3b
 14539 0026 0B       		.uleb128 0xb
 14540 0027 49       		.uleb128 0x49
 14541 0028 13       		.uleb128 0x13
 14542 0029 00       		.byte	0
 14543 002a 00       		.byte	0
 14544 002b 04       		.uleb128 0x4
 14545 002c 24       		.uleb128 0x24
 14546 002d 00       		.byte	0
 14547 002e 0B       		.uleb128 0xb
 14548 002f 0B       		.uleb128 0xb
 14549 0030 3E       		.uleb128 0x3e
 14550 0031 0B       		.uleb128 0xb
 14551 0032 03       		.uleb128 0x3
 14552 0033 0E       		.uleb128 0xe
 14553 0034 00       		.byte	0
 14554 0035 00       		.byte	0
 14555 0036 05       		.uleb128 0x5
 14556 0037 0F       		.uleb128 0xf
 14557 0038 00       		.byte	0
 14558 0039 0B       		.uleb128 0xb
 14559 003a 0B       		.uleb128 0xb
 14560 003b 00       		.byte	0
 14561 003c 00       		.byte	0
 14562 003d 06       		.uleb128 0x6
 14563 003e 0F       		.uleb128 0xf
 14564 003f 00       		.byte	0
 14565 0040 0B       		.uleb128 0xb
 14566 0041 0B       		.uleb128 0xb
 14567 0042 49       		.uleb128 0x49
 14568 0043 13       		.uleb128 0x13
 14569 0044 00       		.byte	0
 14570 0045 00       		.byte	0
 14571 0046 07       		.uleb128 0x7
 14572 0047 26       		.uleb128 0x26
 14573 0048 00       		.byte	0
 14574 0049 49       		.uleb128 0x49
 14575 004a 13       		.uleb128 0x13
 14576 004b 00       		.byte	0
 14577 004c 00       		.byte	0
 14578 004d 08       		.uleb128 0x8
ARM GAS  C:\Users\AHMED~1.ELE\AppData\Local\Temp\ccLLYyS4.s 			page 289


 14579 004e 01       		.uleb128 0x1
 14580 004f 01       		.byte	0x1
 14581 0050 49       		.uleb128 0x49
 14582 0051 13       		.uleb128 0x13
 14583 0052 01       		.uleb128 0x1
 14584 0053 13       		.uleb128 0x13
 14585 0054 00       		.byte	0
 14586 0055 00       		.byte	0
 14587 0056 09       		.uleb128 0x9
 14588 0057 21       		.uleb128 0x21
 14589 0058 00       		.byte	0
 14590 0059 49       		.uleb128 0x49
 14591 005a 13       		.uleb128 0x13
 14592 005b 2F       		.uleb128 0x2f
 14593 005c 0B       		.uleb128 0xb
 14594 005d 00       		.byte	0
 14595 005e 00       		.byte	0
 14596 005f 0A       		.uleb128 0xa
 14597 0060 13       		.uleb128 0x13
 14598 0061 01       		.byte	0x1
 14599 0062 0B       		.uleb128 0xb
 14600 0063 0B       		.uleb128 0xb
 14601 0064 3A       		.uleb128 0x3a
 14602 0065 0B       		.uleb128 0xb
 14603 0066 3B       		.uleb128 0x3b
 14604 0067 0B       		.uleb128 0xb
 14605 0068 01       		.uleb128 0x1
 14606 0069 13       		.uleb128 0x13
 14607 006a 00       		.byte	0
 14608 006b 00       		.byte	0
 14609 006c 0B       		.uleb128 0xb
 14610 006d 0D       		.uleb128 0xd
 14611 006e 00       		.byte	0
 14612 006f 03       		.uleb128 0x3
 14613 0070 0E       		.uleb128 0xe
 14614 0071 3A       		.uleb128 0x3a
 14615 0072 0B       		.uleb128 0xb
 14616 0073 3B       		.uleb128 0x3b
 14617 0074 0B       		.uleb128 0xb
 14618 0075 49       		.uleb128 0x49
 14619 0076 13       		.uleb128 0x13
 14620 0077 38       		.uleb128 0x38
 14621 0078 0B       		.uleb128 0xb
 14622 0079 00       		.byte	0
 14623 007a 00       		.byte	0
 14624 007b 0C       		.uleb128 0xc
 14625 007c 16       		.uleb128 0x16
 14626 007d 00       		.byte	0
 14627 007e 03       		.uleb128 0x3
 14628 007f 08       		.uleb128 0x8
 14629 0080 3A       		.uleb128 0x3a
 14630 0081 0B       		.uleb128 0xb
 14631 0082 3B       		.uleb128 0x3b
 14632 0083 0B       		.uleb128 0xb
 14633 0084 49       		.uleb128 0x49
 14634 0085 13       		.uleb128 0x13
 14635 0086 00       		.byte	0
ARM GAS  C:\Users\AHMED~1.ELE\AppData\Local\Temp\ccLLYyS4.s 			page 290


 14636 0087 00       		.byte	0
 14637 0088 0D       		.uleb128 0xd
 14638 0089 04       		.uleb128 0x4
 14639 008a 01       		.byte	0x1
 14640 008b 03       		.uleb128 0x3
 14641 008c 0E       		.uleb128 0xe
 14642 008d 0B       		.uleb128 0xb
 14643 008e 0B       		.uleb128 0xb
 14644 008f 3A       		.uleb128 0x3a
 14645 0090 0B       		.uleb128 0xb
 14646 0091 3B       		.uleb128 0x3b
 14647 0092 05       		.uleb128 0x5
 14648 0093 01       		.uleb128 0x1
 14649 0094 13       		.uleb128 0x13
 14650 0095 00       		.byte	0
 14651 0096 00       		.byte	0
 14652 0097 0E       		.uleb128 0xe
 14653 0098 28       		.uleb128 0x28
 14654 0099 00       		.byte	0
 14655 009a 03       		.uleb128 0x3
 14656 009b 0E       		.uleb128 0xe
 14657 009c 1C       		.uleb128 0x1c
 14658 009d 0D       		.uleb128 0xd
 14659 009e 00       		.byte	0
 14660 009f 00       		.byte	0
 14661 00a0 0F       		.uleb128 0xf
 14662 00a1 26       		.uleb128 0x26
 14663 00a2 00       		.byte	0
 14664 00a3 00       		.byte	0
 14665 00a4 00       		.byte	0
 14666 00a5 10       		.uleb128 0x10
 14667 00a6 04       		.uleb128 0x4
 14668 00a7 01       		.byte	0x1
 14669 00a8 0B       		.uleb128 0xb
 14670 00a9 0B       		.uleb128 0xb
 14671 00aa 3A       		.uleb128 0x3a
 14672 00ab 0B       		.uleb128 0xb
 14673 00ac 3B       		.uleb128 0x3b
 14674 00ad 05       		.uleb128 0x5
 14675 00ae 01       		.uleb128 0x1
 14676 00af 13       		.uleb128 0x13
 14677 00b0 00       		.byte	0
 14678 00b1 00       		.byte	0
 14679 00b2 11       		.uleb128 0x11
 14680 00b3 13       		.uleb128 0x13
 14681 00b4 01       		.byte	0x1
 14682 00b5 0B       		.uleb128 0xb
 14683 00b6 0B       		.uleb128 0xb
 14684 00b7 3A       		.uleb128 0x3a
 14685 00b8 0B       		.uleb128 0xb
 14686 00b9 3B       		.uleb128 0x3b
 14687 00ba 05       		.uleb128 0x5
 14688 00bb 01       		.uleb128 0x1
 14689 00bc 13       		.uleb128 0x13
 14690 00bd 00       		.byte	0
 14691 00be 00       		.byte	0
 14692 00bf 12       		.uleb128 0x12
ARM GAS  C:\Users\AHMED~1.ELE\AppData\Local\Temp\ccLLYyS4.s 			page 291


 14693 00c0 0D       		.uleb128 0xd
 14694 00c1 00       		.byte	0
 14695 00c2 03       		.uleb128 0x3
 14696 00c3 0E       		.uleb128 0xe
 14697 00c4 3A       		.uleb128 0x3a
 14698 00c5 0B       		.uleb128 0xb
 14699 00c6 3B       		.uleb128 0x3b
 14700 00c7 05       		.uleb128 0x5
 14701 00c8 49       		.uleb128 0x49
 14702 00c9 13       		.uleb128 0x13
 14703 00ca 38       		.uleb128 0x38
 14704 00cb 0B       		.uleb128 0xb
 14705 00cc 00       		.byte	0
 14706 00cd 00       		.byte	0
 14707 00ce 13       		.uleb128 0x13
 14708 00cf 16       		.uleb128 0x16
 14709 00d0 00       		.byte	0
 14710 00d1 03       		.uleb128 0x3
 14711 00d2 0E       		.uleb128 0xe
 14712 00d3 3A       		.uleb128 0x3a
 14713 00d4 0B       		.uleb128 0xb
 14714 00d5 3B       		.uleb128 0x3b
 14715 00d6 05       		.uleb128 0x5
 14716 00d7 49       		.uleb128 0x49
 14717 00d8 13       		.uleb128 0x13
 14718 00d9 00       		.byte	0
 14719 00da 00       		.byte	0
 14720 00db 14       		.uleb128 0x14
 14721 00dc 13       		.uleb128 0x13
 14722 00dd 01       		.byte	0x1
 14723 00de 03       		.uleb128 0x3
 14724 00df 0E       		.uleb128 0xe
 14725 00e0 0B       		.uleb128 0xb
 14726 00e1 05       		.uleb128 0x5
 14727 00e2 3A       		.uleb128 0x3a
 14728 00e3 0B       		.uleb128 0xb
 14729 00e4 3B       		.uleb128 0x3b
 14730 00e5 0B       		.uleb128 0xb
 14731 00e6 01       		.uleb128 0x1
 14732 00e7 13       		.uleb128 0x13
 14733 00e8 00       		.byte	0
 14734 00e9 00       		.byte	0
 14735 00ea 15       		.uleb128 0x15
 14736 00eb 21       		.uleb128 0x21
 14737 00ec 00       		.byte	0
 14738 00ed 49       		.uleb128 0x49
 14739 00ee 13       		.uleb128 0x13
 14740 00ef 2F       		.uleb128 0x2f
 14741 00f0 05       		.uleb128 0x5
 14742 00f1 00       		.byte	0
 14743 00f2 00       		.byte	0
 14744 00f3 16       		.uleb128 0x16
 14745 00f4 13       		.uleb128 0x13
 14746 00f5 01       		.byte	0x1
 14747 00f6 03       		.uleb128 0x3
 14748 00f7 0E       		.uleb128 0xe
 14749 00f8 0B       		.uleb128 0xb
ARM GAS  C:\Users\AHMED~1.ELE\AppData\Local\Temp\ccLLYyS4.s 			page 292


 14750 00f9 0B       		.uleb128 0xb
 14751 00fa 3A       		.uleb128 0x3a
 14752 00fb 0B       		.uleb128 0xb
 14753 00fc 3B       		.uleb128 0x3b
 14754 00fd 05       		.uleb128 0x5
 14755 00fe 01       		.uleb128 0x1
 14756 00ff 13       		.uleb128 0x13
 14757 0100 00       		.byte	0
 14758 0101 00       		.byte	0
 14759 0102 17       		.uleb128 0x17
 14760 0103 04       		.uleb128 0x4
 14761 0104 01       		.byte	0x1
 14762 0105 0B       		.uleb128 0xb
 14763 0106 0B       		.uleb128 0xb
 14764 0107 3A       		.uleb128 0x3a
 14765 0108 0B       		.uleb128 0xb
 14766 0109 3B       		.uleb128 0x3b
 14767 010a 0B       		.uleb128 0xb
 14768 010b 01       		.uleb128 0x1
 14769 010c 13       		.uleb128 0x13
 14770 010d 00       		.byte	0
 14771 010e 00       		.byte	0
 14772 010f 18       		.uleb128 0x18
 14773 0110 13       		.uleb128 0x13
 14774 0111 01       		.byte	0x1
 14775 0112 03       		.uleb128 0x3
 14776 0113 0E       		.uleb128 0xe
 14777 0114 0B       		.uleb128 0xb
 14778 0115 05       		.uleb128 0x5
 14779 0116 3A       		.uleb128 0x3a
 14780 0117 0B       		.uleb128 0xb
 14781 0118 3B       		.uleb128 0x3b
 14782 0119 05       		.uleb128 0x5
 14783 011a 01       		.uleb128 0x1
 14784 011b 13       		.uleb128 0x13
 14785 011c 00       		.byte	0
 14786 011d 00       		.byte	0
 14787 011e 19       		.uleb128 0x19
 14788 011f 0D       		.uleb128 0xd
 14789 0120 00       		.byte	0
 14790 0121 03       		.uleb128 0x3
 14791 0122 0E       		.uleb128 0xe
 14792 0123 3A       		.uleb128 0x3a
 14793 0124 0B       		.uleb128 0xb
 14794 0125 3B       		.uleb128 0x3b
 14795 0126 05       		.uleb128 0x5
 14796 0127 49       		.uleb128 0x49
 14797 0128 13       		.uleb128 0x13
 14798 0129 38       		.uleb128 0x38
 14799 012a 05       		.uleb128 0x5
 14800 012b 00       		.byte	0
 14801 012c 00       		.byte	0
 14802 012d 1A       		.uleb128 0x1a
 14803 012e 13       		.uleb128 0x13
 14804 012f 01       		.byte	0x1
 14805 0130 03       		.uleb128 0x3
 14806 0131 0E       		.uleb128 0xe
ARM GAS  C:\Users\AHMED~1.ELE\AppData\Local\Temp\ccLLYyS4.s 			page 293


 14807 0132 0B       		.uleb128 0xb
 14808 0133 0B       		.uleb128 0xb
 14809 0134 3A       		.uleb128 0x3a
 14810 0135 0B       		.uleb128 0xb
 14811 0136 3B       		.uleb128 0x3b
 14812 0137 0B       		.uleb128 0xb
 14813 0138 01       		.uleb128 0x1
 14814 0139 13       		.uleb128 0x13
 14815 013a 00       		.byte	0
 14816 013b 00       		.byte	0
 14817 013c 1B       		.uleb128 0x1b
 14818 013d 0D       		.uleb128 0xd
 14819 013e 00       		.byte	0
 14820 013f 03       		.uleb128 0x3
 14821 0140 0E       		.uleb128 0xe
 14822 0141 3A       		.uleb128 0x3a
 14823 0142 0B       		.uleb128 0xb
 14824 0143 3B       		.uleb128 0x3b
 14825 0144 0B       		.uleb128 0xb
 14826 0145 49       		.uleb128 0x49
 14827 0146 13       		.uleb128 0x13
 14828 0147 38       		.uleb128 0x38
 14829 0148 05       		.uleb128 0x5
 14830 0149 00       		.byte	0
 14831 014a 00       		.byte	0
 14832 014b 1C       		.uleb128 0x1c
 14833 014c 13       		.uleb128 0x13
 14834 014d 01       		.byte	0x1
 14835 014e 03       		.uleb128 0x3
 14836 014f 08       		.uleb128 0x8
 14837 0150 0B       		.uleb128 0xb
 14838 0151 05       		.uleb128 0x5
 14839 0152 3A       		.uleb128 0x3a
 14840 0153 0B       		.uleb128 0xb
 14841 0154 3B       		.uleb128 0x3b
 14842 0155 0B       		.uleb128 0xb
 14843 0156 01       		.uleb128 0x1
 14844 0157 13       		.uleb128 0x13
 14845 0158 00       		.byte	0
 14846 0159 00       		.byte	0
 14847 015a 1D       		.uleb128 0x1d
 14848 015b 2E       		.uleb128 0x2e
 14849 015c 01       		.byte	0x1
 14850 015d 3F       		.uleb128 0x3f
 14851 015e 19       		.uleb128 0x19
 14852 015f 03       		.uleb128 0x3
 14853 0160 0E       		.uleb128 0xe
 14854 0161 3A       		.uleb128 0x3a
 14855 0162 0B       		.uleb128 0xb
 14856 0163 3B       		.uleb128 0x3b
 14857 0164 05       		.uleb128 0x5
 14858 0165 27       		.uleb128 0x27
 14859 0166 19       		.uleb128 0x19
 14860 0167 49       		.uleb128 0x49
 14861 0168 13       		.uleb128 0x13
 14862 0169 20       		.uleb128 0x20
 14863 016a 0B       		.uleb128 0xb
ARM GAS  C:\Users\AHMED~1.ELE\AppData\Local\Temp\ccLLYyS4.s 			page 294


 14864 016b 01       		.uleb128 0x1
 14865 016c 13       		.uleb128 0x13
 14866 016d 00       		.byte	0
 14867 016e 00       		.byte	0
 14868 016f 1E       		.uleb128 0x1e
 14869 0170 34       		.uleb128 0x34
 14870 0171 00       		.byte	0
 14871 0172 03       		.uleb128 0x3
 14872 0173 08       		.uleb128 0x8
 14873 0174 3A       		.uleb128 0x3a
 14874 0175 0B       		.uleb128 0xb
 14875 0176 3B       		.uleb128 0x3b
 14876 0177 05       		.uleb128 0x5
 14877 0178 49       		.uleb128 0x49
 14878 0179 13       		.uleb128 0x13
 14879 017a 00       		.byte	0
 14880 017b 00       		.byte	0
 14881 017c 1F       		.uleb128 0x1f
 14882 017d 34       		.uleb128 0x34
 14883 017e 00       		.byte	0
 14884 017f 03       		.uleb128 0x3
 14885 0180 0E       		.uleb128 0xe
 14886 0181 3A       		.uleb128 0x3a
 14887 0182 0B       		.uleb128 0xb
 14888 0183 3B       		.uleb128 0x3b
 14889 0184 05       		.uleb128 0x5
 14890 0185 49       		.uleb128 0x49
 14891 0186 13       		.uleb128 0x13
 14892 0187 00       		.byte	0
 14893 0188 00       		.byte	0
 14894 0189 20       		.uleb128 0x20
 14895 018a 2E       		.uleb128 0x2e
 14896 018b 01       		.byte	0x1
 14897 018c 03       		.uleb128 0x3
 14898 018d 0E       		.uleb128 0xe
 14899 018e 3A       		.uleb128 0x3a
 14900 018f 0B       		.uleb128 0xb
 14901 0190 3B       		.uleb128 0x3b
 14902 0191 0B       		.uleb128 0xb
 14903 0192 27       		.uleb128 0x27
 14904 0193 19       		.uleb128 0x19
 14905 0194 49       		.uleb128 0x49
 14906 0195 13       		.uleb128 0x13
 14907 0196 20       		.uleb128 0x20
 14908 0197 0B       		.uleb128 0xb
 14909 0198 01       		.uleb128 0x1
 14910 0199 13       		.uleb128 0x13
 14911 019a 00       		.byte	0
 14912 019b 00       		.byte	0
 14913 019c 21       		.uleb128 0x21
 14914 019d 05       		.uleb128 0x5
 14915 019e 00       		.byte	0
 14916 019f 03       		.uleb128 0x3
 14917 01a0 0E       		.uleb128 0xe
 14918 01a1 3A       		.uleb128 0x3a
 14919 01a2 0B       		.uleb128 0xb
 14920 01a3 3B       		.uleb128 0x3b
ARM GAS  C:\Users\AHMED~1.ELE\AppData\Local\Temp\ccLLYyS4.s 			page 295


 14921 01a4 0B       		.uleb128 0xb
 14922 01a5 49       		.uleb128 0x49
 14923 01a6 13       		.uleb128 0x13
 14924 01a7 00       		.byte	0
 14925 01a8 00       		.byte	0
 14926 01a9 22       		.uleb128 0x22
 14927 01aa 34       		.uleb128 0x34
 14928 01ab 00       		.byte	0
 14929 01ac 03       		.uleb128 0x3
 14930 01ad 08       		.uleb128 0x8
 14931 01ae 3A       		.uleb128 0x3a
 14932 01af 0B       		.uleb128 0xb
 14933 01b0 3B       		.uleb128 0x3b
 14934 01b1 0B       		.uleb128 0xb
 14935 01b2 49       		.uleb128 0x49
 14936 01b3 13       		.uleb128 0x13
 14937 01b4 00       		.byte	0
 14938 01b5 00       		.byte	0
 14939 01b6 23       		.uleb128 0x23
 14940 01b7 2E       		.uleb128 0x2e
 14941 01b8 01       		.byte	0x1
 14942 01b9 03       		.uleb128 0x3
 14943 01ba 0E       		.uleb128 0xe
 14944 01bb 3A       		.uleb128 0x3a
 14945 01bc 0B       		.uleb128 0xb
 14946 01bd 3B       		.uleb128 0x3b
 14947 01be 05       		.uleb128 0x5
 14948 01bf 27       		.uleb128 0x27
 14949 01c0 19       		.uleb128 0x19
 14950 01c1 11       		.uleb128 0x11
 14951 01c2 01       		.uleb128 0x1
 14952 01c3 12       		.uleb128 0x12
 14953 01c4 06       		.uleb128 0x6
 14954 01c5 40       		.uleb128 0x40
 14955 01c6 18       		.uleb128 0x18
 14956 01c7 9742     		.uleb128 0x2117
 14957 01c9 19       		.uleb128 0x19
 14958 01ca 01       		.uleb128 0x1
 14959 01cb 13       		.uleb128 0x13
 14960 01cc 00       		.byte	0
 14961 01cd 00       		.byte	0
 14962 01ce 24       		.uleb128 0x24
 14963 01cf 05       		.uleb128 0x5
 14964 01d0 00       		.byte	0
 14965 01d1 03       		.uleb128 0x3
 14966 01d2 0E       		.uleb128 0xe
 14967 01d3 3A       		.uleb128 0x3a
 14968 01d4 0B       		.uleb128 0xb
 14969 01d5 3B       		.uleb128 0x3b
 14970 01d6 05       		.uleb128 0x5
 14971 01d7 49       		.uleb128 0x49
 14972 01d8 13       		.uleb128 0x13
 14973 01d9 02       		.uleb128 0x2
 14974 01da 17       		.uleb128 0x17
 14975 01db 00       		.byte	0
 14976 01dc 00       		.byte	0
 14977 01dd 25       		.uleb128 0x25
ARM GAS  C:\Users\AHMED~1.ELE\AppData\Local\Temp\ccLLYyS4.s 			page 296


 14978 01de 34       		.uleb128 0x34
 14979 01df 00       		.byte	0
 14980 01e0 03       		.uleb128 0x3
 14981 01e1 0E       		.uleb128 0xe
 14982 01e2 3A       		.uleb128 0x3a
 14983 01e3 0B       		.uleb128 0xb
 14984 01e4 3B       		.uleb128 0x3b
 14985 01e5 05       		.uleb128 0x5
 14986 01e6 49       		.uleb128 0x49
 14987 01e7 13       		.uleb128 0x13
 14988 01e8 02       		.uleb128 0x2
 14989 01e9 18       		.uleb128 0x18
 14990 01ea 00       		.byte	0
 14991 01eb 00       		.byte	0
 14992 01ec 26       		.uleb128 0x26
 14993 01ed 0B       		.uleb128 0xb
 14994 01ee 01       		.byte	0x1
 14995 01ef 55       		.uleb128 0x55
 14996 01f0 17       		.uleb128 0x17
 14997 01f1 01       		.uleb128 0x1
 14998 01f2 13       		.uleb128 0x13
 14999 01f3 00       		.byte	0
 15000 01f4 00       		.byte	0
 15001 01f5 27       		.uleb128 0x27
 15002 01f6 34       		.uleb128 0x34
 15003 01f7 00       		.byte	0
 15004 01f8 03       		.uleb128 0x3
 15005 01f9 08       		.uleb128 0x8
 15006 01fa 3A       		.uleb128 0x3a
 15007 01fb 0B       		.uleb128 0xb
 15008 01fc 3B       		.uleb128 0x3b
 15009 01fd 05       		.uleb128 0x5
 15010 01fe 49       		.uleb128 0x49
 15011 01ff 13       		.uleb128 0x13
 15012 0200 02       		.uleb128 0x2
 15013 0201 17       		.uleb128 0x17
 15014 0202 00       		.byte	0
 15015 0203 00       		.byte	0
 15016 0204 28       		.uleb128 0x28
 15017 0205 898201   		.uleb128 0x4109
 15018 0208 01       		.byte	0x1
 15019 0209 11       		.uleb128 0x11
 15020 020a 01       		.uleb128 0x1
 15021 020b 31       		.uleb128 0x31
 15022 020c 13       		.uleb128 0x13
 15023 020d 01       		.uleb128 0x1
 15024 020e 13       		.uleb128 0x13
 15025 020f 00       		.byte	0
 15026 0210 00       		.byte	0
 15027 0211 29       		.uleb128 0x29
 15028 0212 8A8201   		.uleb128 0x410a
 15029 0215 00       		.byte	0
 15030 0216 02       		.uleb128 0x2
 15031 0217 18       		.uleb128 0x18
 15032 0218 9142     		.uleb128 0x2111
 15033 021a 18       		.uleb128 0x18
 15034 021b 00       		.byte	0
ARM GAS  C:\Users\AHMED~1.ELE\AppData\Local\Temp\ccLLYyS4.s 			page 297


 15035 021c 00       		.byte	0
 15036 021d 2A       		.uleb128 0x2a
 15037 021e 898201   		.uleb128 0x4109
 15038 0221 01       		.byte	0x1
 15039 0222 11       		.uleb128 0x11
 15040 0223 01       		.uleb128 0x1
 15041 0224 31       		.uleb128 0x31
 15042 0225 13       		.uleb128 0x13
 15043 0226 00       		.byte	0
 15044 0227 00       		.byte	0
 15045 0228 2B       		.uleb128 0x2b
 15046 0229 0B       		.uleb128 0xb
 15047 022a 01       		.byte	0x1
 15048 022b 11       		.uleb128 0x11
 15049 022c 01       		.uleb128 0x1
 15050 022d 12       		.uleb128 0x12
 15051 022e 06       		.uleb128 0x6
 15052 022f 01       		.uleb128 0x1
 15053 0230 13       		.uleb128 0x13
 15054 0231 00       		.byte	0
 15055 0232 00       		.byte	0
 15056 0233 2C       		.uleb128 0x2c
 15057 0234 898201   		.uleb128 0x4109
 15058 0237 00       		.byte	0
 15059 0238 11       		.uleb128 0x11
 15060 0239 01       		.uleb128 0x1
 15061 023a 31       		.uleb128 0x31
 15062 023b 13       		.uleb128 0x13
 15063 023c 00       		.byte	0
 15064 023d 00       		.byte	0
 15065 023e 2D       		.uleb128 0x2d
 15066 023f 2E       		.uleb128 0x2e
 15067 0240 01       		.byte	0x1
 15068 0241 31       		.uleb128 0x31
 15069 0242 13       		.uleb128 0x13
 15070 0243 11       		.uleb128 0x11
 15071 0244 01       		.uleb128 0x1
 15072 0245 12       		.uleb128 0x12
 15073 0246 06       		.uleb128 0x6
 15074 0247 40       		.uleb128 0x40
 15075 0248 18       		.uleb128 0x18
 15076 0249 9742     		.uleb128 0x2117
 15077 024b 19       		.uleb128 0x19
 15078 024c 01       		.uleb128 0x1
 15079 024d 13       		.uleb128 0x13
 15080 024e 00       		.byte	0
 15081 024f 00       		.byte	0
 15082 0250 2E       		.uleb128 0x2e
 15083 0251 05       		.uleb128 0x5
 15084 0252 00       		.byte	0
 15085 0253 31       		.uleb128 0x31
 15086 0254 13       		.uleb128 0x13
 15087 0255 02       		.uleb128 0x2
 15088 0256 17       		.uleb128 0x17
 15089 0257 00       		.byte	0
 15090 0258 00       		.byte	0
 15091 0259 2F       		.uleb128 0x2f
ARM GAS  C:\Users\AHMED~1.ELE\AppData\Local\Temp\ccLLYyS4.s 			page 298


 15092 025a 34       		.uleb128 0x34
 15093 025b 00       		.byte	0
 15094 025c 31       		.uleb128 0x31
 15095 025d 13       		.uleb128 0x13
 15096 025e 02       		.uleb128 0x2
 15097 025f 18       		.uleb128 0x18
 15098 0260 00       		.byte	0
 15099 0261 00       		.byte	0
 15100 0262 30       		.uleb128 0x30
 15101 0263 34       		.uleb128 0x34
 15102 0264 00       		.byte	0
 15103 0265 31       		.uleb128 0x31
 15104 0266 13       		.uleb128 0x13
 15105 0267 02       		.uleb128 0x2
 15106 0268 17       		.uleb128 0x17
 15107 0269 00       		.byte	0
 15108 026a 00       		.byte	0
 15109 026b 31       		.uleb128 0x31
 15110 026c 05       		.uleb128 0x5
 15111 026d 00       		.byte	0
 15112 026e 31       		.uleb128 0x31
 15113 026f 13       		.uleb128 0x13
 15114 0270 00       		.byte	0
 15115 0271 00       		.byte	0
 15116 0272 32       		.uleb128 0x32
 15117 0273 2E       		.uleb128 0x2e
 15118 0274 01       		.byte	0x1
 15119 0275 3F       		.uleb128 0x3f
 15120 0276 19       		.uleb128 0x19
 15121 0277 03       		.uleb128 0x3
 15122 0278 0E       		.uleb128 0xe
 15123 0279 3A       		.uleb128 0x3a
 15124 027a 0B       		.uleb128 0xb
 15125 027b 3B       		.uleb128 0x3b
 15126 027c 0B       		.uleb128 0xb
 15127 027d 27       		.uleb128 0x27
 15128 027e 19       		.uleb128 0x19
 15129 027f 49       		.uleb128 0x49
 15130 0280 13       		.uleb128 0x13
 15131 0281 11       		.uleb128 0x11
 15132 0282 01       		.uleb128 0x1
 15133 0283 12       		.uleb128 0x12
 15134 0284 06       		.uleb128 0x6
 15135 0285 40       		.uleb128 0x40
 15136 0286 18       		.uleb128 0x18
 15137 0287 9742     		.uleb128 0x2117
 15138 0289 19       		.uleb128 0x19
 15139 028a 01       		.uleb128 0x1
 15140 028b 13       		.uleb128 0x13
 15141 028c 00       		.byte	0
 15142 028d 00       		.byte	0
 15143 028e 33       		.uleb128 0x33
 15144 028f 05       		.uleb128 0x5
 15145 0290 00       		.byte	0
 15146 0291 03       		.uleb128 0x3
 15147 0292 0E       		.uleb128 0xe
 15148 0293 3A       		.uleb128 0x3a
ARM GAS  C:\Users\AHMED~1.ELE\AppData\Local\Temp\ccLLYyS4.s 			page 299


 15149 0294 0B       		.uleb128 0xb
 15150 0295 3B       		.uleb128 0x3b
 15151 0296 0B       		.uleb128 0xb
 15152 0297 49       		.uleb128 0x49
 15153 0298 13       		.uleb128 0x13
 15154 0299 02       		.uleb128 0x2
 15155 029a 17       		.uleb128 0x17
 15156 029b 00       		.byte	0
 15157 029c 00       		.byte	0
 15158 029d 34       		.uleb128 0x34
 15159 029e 2E       		.uleb128 0x2e
 15160 029f 01       		.byte	0x1
 15161 02a0 3F       		.uleb128 0x3f
 15162 02a1 19       		.uleb128 0x19
 15163 02a2 03       		.uleb128 0x3
 15164 02a3 0E       		.uleb128 0xe
 15165 02a4 3A       		.uleb128 0x3a
 15166 02a5 0B       		.uleb128 0xb
 15167 02a6 3B       		.uleb128 0x3b
 15168 02a7 05       		.uleb128 0x5
 15169 02a8 27       		.uleb128 0x27
 15170 02a9 19       		.uleb128 0x19
 15171 02aa 49       		.uleb128 0x49
 15172 02ab 13       		.uleb128 0x13
 15173 02ac 11       		.uleb128 0x11
 15174 02ad 01       		.uleb128 0x1
 15175 02ae 12       		.uleb128 0x12
 15176 02af 06       		.uleb128 0x6
 15177 02b0 40       		.uleb128 0x40
 15178 02b1 18       		.uleb128 0x18
 15179 02b2 9742     		.uleb128 0x2117
 15180 02b4 19       		.uleb128 0x19
 15181 02b5 01       		.uleb128 0x1
 15182 02b6 13       		.uleb128 0x13
 15183 02b7 00       		.byte	0
 15184 02b8 00       		.byte	0
 15185 02b9 35       		.uleb128 0x35
 15186 02ba 34       		.uleb128 0x34
 15187 02bb 00       		.byte	0
 15188 02bc 03       		.uleb128 0x3
 15189 02bd 0E       		.uleb128 0xe
 15190 02be 3A       		.uleb128 0x3a
 15191 02bf 0B       		.uleb128 0xb
 15192 02c0 3B       		.uleb128 0x3b
 15193 02c1 05       		.uleb128 0x5
 15194 02c2 49       		.uleb128 0x49
 15195 02c3 13       		.uleb128 0x13
 15196 02c4 02       		.uleb128 0x2
 15197 02c5 17       		.uleb128 0x17
 15198 02c6 00       		.byte	0
 15199 02c7 00       		.byte	0
 15200 02c8 36       		.uleb128 0x36
 15201 02c9 34       		.uleb128 0x34
 15202 02ca 00       		.byte	0
 15203 02cb 03       		.uleb128 0x3
 15204 02cc 08       		.uleb128 0x8
 15205 02cd 3A       		.uleb128 0x3a
ARM GAS  C:\Users\AHMED~1.ELE\AppData\Local\Temp\ccLLYyS4.s 			page 300


 15206 02ce 0B       		.uleb128 0xb
 15207 02cf 3B       		.uleb128 0x3b
 15208 02d0 05       		.uleb128 0x5
 15209 02d1 49       		.uleb128 0x49
 15210 02d2 13       		.uleb128 0x13
 15211 02d3 02       		.uleb128 0x2
 15212 02d4 18       		.uleb128 0x18
 15213 02d5 00       		.byte	0
 15214 02d6 00       		.byte	0
 15215 02d7 37       		.uleb128 0x37
 15216 02d8 34       		.uleb128 0x34
 15217 02d9 00       		.byte	0
 15218 02da 31       		.uleb128 0x31
 15219 02db 13       		.uleb128 0x13
 15220 02dc 00       		.byte	0
 15221 02dd 00       		.byte	0
 15222 02de 38       		.uleb128 0x38
 15223 02df 2E       		.uleb128 0x2e
 15224 02e0 00       		.byte	0
 15225 02e1 03       		.uleb128 0x3
 15226 02e2 0E       		.uleb128 0xe
 15227 02e3 3A       		.uleb128 0x3a
 15228 02e4 0B       		.uleb128 0xb
 15229 02e5 3B       		.uleb128 0x3b
 15230 02e6 0B       		.uleb128 0xb
 15231 02e7 27       		.uleb128 0x27
 15232 02e8 19       		.uleb128 0x19
 15233 02e9 49       		.uleb128 0x49
 15234 02ea 13       		.uleb128 0x13
 15235 02eb 20       		.uleb128 0x20
 15236 02ec 0B       		.uleb128 0xb
 15237 02ed 00       		.byte	0
 15238 02ee 00       		.byte	0
 15239 02ef 39       		.uleb128 0x39
 15240 02f0 34       		.uleb128 0x34
 15241 02f1 00       		.byte	0
 15242 02f2 03       		.uleb128 0x3
 15243 02f3 0E       		.uleb128 0xe
 15244 02f4 3A       		.uleb128 0x3a
 15245 02f5 0B       		.uleb128 0xb
 15246 02f6 3B       		.uleb128 0x3b
 15247 02f7 0B       		.uleb128 0xb
 15248 02f8 49       		.uleb128 0x49
 15249 02f9 13       		.uleb128 0x13
 15250 02fa 00       		.byte	0
 15251 02fb 00       		.byte	0
 15252 02fc 3A       		.uleb128 0x3a
 15253 02fd 1D       		.uleb128 0x1d
 15254 02fe 00       		.byte	0
 15255 02ff 31       		.uleb128 0x31
 15256 0300 13       		.uleb128 0x13
 15257 0301 11       		.uleb128 0x11
 15258 0302 01       		.uleb128 0x1
 15259 0303 12       		.uleb128 0x12
 15260 0304 06       		.uleb128 0x6
 15261 0305 58       		.uleb128 0x58
 15262 0306 0B       		.uleb128 0xb
ARM GAS  C:\Users\AHMED~1.ELE\AppData\Local\Temp\ccLLYyS4.s 			page 301


 15263 0307 59       		.uleb128 0x59
 15264 0308 05       		.uleb128 0x5
 15265 0309 00       		.byte	0
 15266 030a 00       		.byte	0
 15267 030b 3B       		.uleb128 0x3b
 15268 030c 1D       		.uleb128 0x1d
 15269 030d 00       		.byte	0
 15270 030e 31       		.uleb128 0x31
 15271 030f 13       		.uleb128 0x13
 15272 0310 52       		.uleb128 0x52
 15273 0311 01       		.uleb128 0x1
 15274 0312 55       		.uleb128 0x55
 15275 0313 17       		.uleb128 0x17
 15276 0314 58       		.uleb128 0x58
 15277 0315 0B       		.uleb128 0xb
 15278 0316 59       		.uleb128 0x59
 15279 0317 05       		.uleb128 0x5
 15280 0318 00       		.byte	0
 15281 0319 00       		.byte	0
 15282 031a 3C       		.uleb128 0x3c
 15283 031b 1D       		.uleb128 0x1d
 15284 031c 01       		.byte	0x1
 15285 031d 31       		.uleb128 0x31
 15286 031e 13       		.uleb128 0x13
 15287 031f 52       		.uleb128 0x52
 15288 0320 01       		.uleb128 0x1
 15289 0321 55       		.uleb128 0x55
 15290 0322 17       		.uleb128 0x17
 15291 0323 58       		.uleb128 0x58
 15292 0324 0B       		.uleb128 0xb
 15293 0325 59       		.uleb128 0x59
 15294 0326 05       		.uleb128 0x5
 15295 0327 01       		.uleb128 0x1
 15296 0328 13       		.uleb128 0x13
 15297 0329 00       		.byte	0
 15298 032a 00       		.byte	0
 15299 032b 3D       		.uleb128 0x3d
 15300 032c 0B       		.uleb128 0xb
 15301 032d 01       		.byte	0x1
 15302 032e 55       		.uleb128 0x55
 15303 032f 17       		.uleb128 0x17
 15304 0330 00       		.byte	0
 15305 0331 00       		.byte	0
 15306 0332 3E       		.uleb128 0x3e
 15307 0333 1D       		.uleb128 0x1d
 15308 0334 01       		.byte	0x1
 15309 0335 31       		.uleb128 0x31
 15310 0336 13       		.uleb128 0x13
 15311 0337 11       		.uleb128 0x11
 15312 0338 01       		.uleb128 0x1
 15313 0339 12       		.uleb128 0x12
 15314 033a 06       		.uleb128 0x6
 15315 033b 58       		.uleb128 0x58
 15316 033c 0B       		.uleb128 0xb
 15317 033d 59       		.uleb128 0x59
 15318 033e 05       		.uleb128 0x5
 15319 033f 01       		.uleb128 0x1
ARM GAS  C:\Users\AHMED~1.ELE\AppData\Local\Temp\ccLLYyS4.s 			page 302


 15320 0340 13       		.uleb128 0x13
 15321 0341 00       		.byte	0
 15322 0342 00       		.byte	0
 15323 0343 3F       		.uleb128 0x3f
 15324 0344 0B       		.uleb128 0xb
 15325 0345 01       		.byte	0x1
 15326 0346 11       		.uleb128 0x11
 15327 0347 01       		.uleb128 0x1
 15328 0348 12       		.uleb128 0x12
 15329 0349 06       		.uleb128 0x6
 15330 034a 00       		.byte	0
 15331 034b 00       		.byte	0
 15332 034c 40       		.uleb128 0x40
 15333 034d 34       		.uleb128 0x34
 15334 034e 00       		.byte	0
 15335 034f 03       		.uleb128 0x3
 15336 0350 0E       		.uleb128 0xe
 15337 0351 3A       		.uleb128 0x3a
 15338 0352 0B       		.uleb128 0xb
 15339 0353 3B       		.uleb128 0x3b
 15340 0354 05       		.uleb128 0x5
 15341 0355 49       		.uleb128 0x49
 15342 0356 13       		.uleb128 0x13
 15343 0357 1C       		.uleb128 0x1c
 15344 0358 0B       		.uleb128 0xb
 15345 0359 00       		.byte	0
 15346 035a 00       		.byte	0
 15347 035b 41       		.uleb128 0x41
 15348 035c 34       		.uleb128 0x34
 15349 035d 00       		.byte	0
 15350 035e 03       		.uleb128 0x3
 15351 035f 0E       		.uleb128 0xe
 15352 0360 3A       		.uleb128 0x3a
 15353 0361 0B       		.uleb128 0xb
 15354 0362 3B       		.uleb128 0x3b
 15355 0363 0B       		.uleb128 0xb
 15356 0364 49       		.uleb128 0x49
 15357 0365 13       		.uleb128 0x13
 15358 0366 02       		.uleb128 0x2
 15359 0367 18       		.uleb128 0x18
 15360 0368 00       		.byte	0
 15361 0369 00       		.byte	0
 15362 036a 42       		.uleb128 0x42
 15363 036b 34       		.uleb128 0x34
 15364 036c 00       		.byte	0
 15365 036d 03       		.uleb128 0x3
 15366 036e 0E       		.uleb128 0xe
 15367 036f 3A       		.uleb128 0x3a
 15368 0370 0B       		.uleb128 0xb
 15369 0371 3B       		.uleb128 0x3b
 15370 0372 0B       		.uleb128 0xb
 15371 0373 49       		.uleb128 0x49
 15372 0374 13       		.uleb128 0x13
 15373 0375 3F       		.uleb128 0x3f
 15374 0376 19       		.uleb128 0x19
 15375 0377 3C       		.uleb128 0x3c
 15376 0378 19       		.uleb128 0x19
ARM GAS  C:\Users\AHMED~1.ELE\AppData\Local\Temp\ccLLYyS4.s 			page 303


 15377 0379 00       		.byte	0
 15378 037a 00       		.byte	0
 15379 037b 43       		.uleb128 0x43
 15380 037c 34       		.uleb128 0x34
 15381 037d 00       		.byte	0
 15382 037e 03       		.uleb128 0x3
 15383 037f 0E       		.uleb128 0xe
 15384 0380 3A       		.uleb128 0x3a
 15385 0381 0B       		.uleb128 0xb
 15386 0382 3B       		.uleb128 0x3b
 15387 0383 0B       		.uleb128 0xb
 15388 0384 49       		.uleb128 0x49
 15389 0385 13       		.uleb128 0x13
 15390 0386 3F       		.uleb128 0x3f
 15391 0387 19       		.uleb128 0x19
 15392 0388 02       		.uleb128 0x2
 15393 0389 18       		.uleb128 0x18
 15394 038a 00       		.byte	0
 15395 038b 00       		.byte	0
 15396 038c 44       		.uleb128 0x44
 15397 038d 2E       		.uleb128 0x2e
 15398 038e 01       		.byte	0x1
 15399 038f 3F       		.uleb128 0x3f
 15400 0390 19       		.uleb128 0x19
 15401 0391 03       		.uleb128 0x3
 15402 0392 0E       		.uleb128 0xe
 15403 0393 3A       		.uleb128 0x3a
 15404 0394 0B       		.uleb128 0xb
 15405 0395 3B       		.uleb128 0x3b
 15406 0396 0B       		.uleb128 0xb
 15407 0397 27       		.uleb128 0x27
 15408 0398 19       		.uleb128 0x19
 15409 0399 49       		.uleb128 0x49
 15410 039a 13       		.uleb128 0x13
 15411 039b 3C       		.uleb128 0x3c
 15412 039c 19       		.uleb128 0x19
 15413 039d 01       		.uleb128 0x1
 15414 039e 13       		.uleb128 0x13
 15415 039f 00       		.byte	0
 15416 03a0 00       		.byte	0
 15417 03a1 45       		.uleb128 0x45
 15418 03a2 05       		.uleb128 0x5
 15419 03a3 00       		.byte	0
 15420 03a4 49       		.uleb128 0x49
 15421 03a5 13       		.uleb128 0x13
 15422 03a6 00       		.byte	0
 15423 03a7 00       		.byte	0
 15424 03a8 46       		.uleb128 0x46
 15425 03a9 2E       		.uleb128 0x2e
 15426 03aa 01       		.byte	0x1
 15427 03ab 3F       		.uleb128 0x3f
 15428 03ac 19       		.uleb128 0x19
 15429 03ad 03       		.uleb128 0x3
 15430 03ae 0E       		.uleb128 0xe
 15431 03af 27       		.uleb128 0x27
 15432 03b0 19       		.uleb128 0x19
 15433 03b1 49       		.uleb128 0x49
ARM GAS  C:\Users\AHMED~1.ELE\AppData\Local\Temp\ccLLYyS4.s 			page 304


 15434 03b2 13       		.uleb128 0x13
 15435 03b3 34       		.uleb128 0x34
 15436 03b4 19       		.uleb128 0x19
 15437 03b5 3C       		.uleb128 0x3c
 15438 03b6 19       		.uleb128 0x19
 15439 03b7 01       		.uleb128 0x1
 15440 03b8 13       		.uleb128 0x13
 15441 03b9 00       		.byte	0
 15442 03ba 00       		.byte	0
 15443 03bb 47       		.uleb128 0x47
 15444 03bc 2E       		.uleb128 0x2e
 15445 03bd 01       		.byte	0x1
 15446 03be 3F       		.uleb128 0x3f
 15447 03bf 19       		.uleb128 0x19
 15448 03c0 03       		.uleb128 0x3
 15449 03c1 0E       		.uleb128 0xe
 15450 03c2 3A       		.uleb128 0x3a
 15451 03c3 0B       		.uleb128 0xb
 15452 03c4 3B       		.uleb128 0x3b
 15453 03c5 0B       		.uleb128 0xb
 15454 03c6 27       		.uleb128 0x27
 15455 03c7 19       		.uleb128 0x19
 15456 03c8 3C       		.uleb128 0x3c
 15457 03c9 19       		.uleb128 0x19
 15458 03ca 01       		.uleb128 0x1
 15459 03cb 13       		.uleb128 0x13
 15460 03cc 00       		.byte	0
 15461 03cd 00       		.byte	0
 15462 03ce 48       		.uleb128 0x48
 15463 03cf 2E       		.uleb128 0x2e
 15464 03d0 00       		.byte	0
 15465 03d1 3F       		.uleb128 0x3f
 15466 03d2 19       		.uleb128 0x19
 15467 03d3 03       		.uleb128 0x3
 15468 03d4 0E       		.uleb128 0xe
 15469 03d5 3A       		.uleb128 0x3a
 15470 03d6 0B       		.uleb128 0xb
 15471 03d7 3B       		.uleb128 0x3b
 15472 03d8 0B       		.uleb128 0xb
 15473 03d9 27       		.uleb128 0x27
 15474 03da 19       		.uleb128 0x19
 15475 03db 3C       		.uleb128 0x3c
 15476 03dc 19       		.uleb128 0x19
 15477 03dd 00       		.byte	0
 15478 03de 00       		.byte	0
 15479 03df 49       		.uleb128 0x49
 15480 03e0 2E       		.uleb128 0x2e
 15481 03e1 00       		.byte	0
 15482 03e2 3F       		.uleb128 0x3f
 15483 03e3 19       		.uleb128 0x19
 15484 03e4 03       		.uleb128 0x3
 15485 03e5 0E       		.uleb128 0xe
 15486 03e6 3A       		.uleb128 0x3a
 15487 03e7 0B       		.uleb128 0xb
 15488 03e8 3B       		.uleb128 0x3b
 15489 03e9 0B       		.uleb128 0xb
 15490 03ea 27       		.uleb128 0x27
ARM GAS  C:\Users\AHMED~1.ELE\AppData\Local\Temp\ccLLYyS4.s 			page 305


 15491 03eb 19       		.uleb128 0x19
 15492 03ec 49       		.uleb128 0x49
 15493 03ed 13       		.uleb128 0x13
 15494 03ee 3C       		.uleb128 0x3c
 15495 03ef 19       		.uleb128 0x19
 15496 03f0 00       		.byte	0
 15497 03f1 00       		.byte	0
 15498 03f2 00       		.byte	0
 15499              		.section	.debug_loc,"",%progbits
 15500              	.Ldebug_loc0:
 15501              	.LLST0:
 15502 0000 00000000 		.4byte	.LVL0
 15503 0004 10000000 		.4byte	.LVL1
 15504 0008 0100     		.2byte	0x1
 15505 000a 50       		.byte	0x50
 15506 000b 10000000 		.4byte	.LVL1
 15507 000f 46000000 		.4byte	.LVL8
 15508 0013 0100     		.2byte	0x1
 15509 0015 55       		.byte	0x55
 15510 0016 46000000 		.4byte	.LVL8
 15511 001a 58000000 		.4byte	.LVL10
 15512 001e 0400     		.2byte	0x4
 15513 0020 F3       		.byte	0xf3
 15514 0021 01       		.uleb128 0x1
 15515 0022 50       		.byte	0x50
 15516 0023 9F       		.byte	0x9f
 15517 0024 58000000 		.4byte	.LVL10
 15518 0028 68000000 		.4byte	.LVL15
 15519 002c 0100     		.2byte	0x1
 15520 002e 55       		.byte	0x55
 15521 002f 68000000 		.4byte	.LVL15
 15522 0033 94000000 		.4byte	.LFE16
 15523 0037 0400     		.2byte	0x4
 15524 0039 F3       		.byte	0xf3
 15525 003a 01       		.uleb128 0x1
 15526 003b 50       		.byte	0x50
 15527 003c 9F       		.byte	0x9f
 15528 003d 00000000 		.4byte	0
 15529 0041 00000000 		.4byte	0
 15530              	.LLST1:
 15531 0045 3C000000 		.4byte	.LVL5
 15532 0049 40000000 		.4byte	.LVL6
 15533 004d 0100     		.2byte	0x1
 15534 004f 50       		.byte	0x50
 15535 0050 40000000 		.4byte	.LVL6
 15536 0054 58000000 		.4byte	.LVL10
 15537 0058 0100     		.2byte	0x1
 15538 005a 56       		.byte	0x56
 15539 005b 00000000 		.4byte	0
 15540 005f 00000000 		.4byte	0
 15541              	.LLST2:
 15542 0063 44000000 		.4byte	.LVL7
 15543 0067 4F000000 		.4byte	.LVL9-1
 15544 006b 0100     		.2byte	0x1
 15545 006d 50       		.byte	0x50
 15546 006e 4F000000 		.4byte	.LVL9-1
 15547 0072 58000000 		.4byte	.LVL10
ARM GAS  C:\Users\AHMED~1.ELE\AppData\Local\Temp\ccLLYyS4.s 			page 306


 15548 0076 0100     		.2byte	0x1
 15549 0078 55       		.byte	0x55
 15550 0079 00000000 		.4byte	0
 15551 007d 00000000 		.4byte	0
 15552              	.LLST3:
 15553 0081 5E000000 		.4byte	.LVL12
 15554 0085 62000000 		.4byte	.LVL13
 15555 0089 0100     		.2byte	0x1
 15556 008b 50       		.byte	0x50
 15557 008c 62000000 		.4byte	.LVL13
 15558 0090 78000000 		.4byte	.LVL17
 15559 0094 0100     		.2byte	0x1
 15560 0096 56       		.byte	0x56
 15561 0097 00000000 		.4byte	0
 15562 009b 00000000 		.4byte	0
 15563              	.LLST4:
 15564 009f 66000000 		.4byte	.LVL14
 15565 00a3 71000000 		.4byte	.LVL16-1
 15566 00a7 0100     		.2byte	0x1
 15567 00a9 50       		.byte	0x50
 15568 00aa 71000000 		.4byte	.LVL16-1
 15569 00ae 78000000 		.4byte	.LVL17
 15570 00b2 0100     		.2byte	0x1
 15571 00b4 55       		.byte	0x55
 15572 00b5 00000000 		.4byte	0
 15573 00b9 00000000 		.4byte	0
 15574              	.LLST5:
 15575 00bd 00000000 		.4byte	.LVL20
 15576 00c1 06000000 		.4byte	.LVL21
 15577 00c5 0100     		.2byte	0x1
 15578 00c7 50       		.byte	0x50
 15579 00c8 06000000 		.4byte	.LVL21
 15580 00cc 30000000 		.4byte	.LFE23
 15581 00d0 0400     		.2byte	0x4
 15582 00d2 F3       		.byte	0xf3
 15583 00d3 01       		.uleb128 0x1
 15584 00d4 50       		.byte	0x50
 15585 00d5 9F       		.byte	0x9f
 15586 00d6 00000000 		.4byte	0
 15587 00da 00000000 		.4byte	0
 15588              	.LLST6:
 15589 00de 00000000 		.4byte	.LVL20
 15590 00e2 06000000 		.4byte	.LVL21
 15591 00e6 0200     		.2byte	0x2
 15592 00e8 30       		.byte	0x30
 15593 00e9 9F       		.byte	0x9f
 15594 00ea 0E000000 		.4byte	.LVL22
 15595 00ee 22000000 		.4byte	.LVL24
 15596 00f2 0100     		.2byte	0x1
 15597 00f4 50       		.byte	0x50
 15598 00f5 22000000 		.4byte	.LVL24
 15599 00f9 24000000 		.4byte	.LVL25
 15600 00fd 0300     		.2byte	0x3
 15601 00ff 73       		.byte	0x73
 15602 0100 01       		.sleb128 1
 15603 0101 9F       		.byte	0x9f
 15604 0102 24000000 		.4byte	.LVL25
ARM GAS  C:\Users\AHMED~1.ELE\AppData\Local\Temp\ccLLYyS4.s 			page 307


 15605 0106 2A000000 		.4byte	.LVL26
 15606 010a 0300     		.2byte	0x3
 15607 010c 70       		.byte	0x70
 15608 010d 01       		.sleb128 1
 15609 010e 9F       		.byte	0x9f
 15610 010f 00000000 		.4byte	0
 15611 0113 00000000 		.4byte	0
 15612              	.LLST7:
 15613 0117 00000000 		.4byte	.LVL27
 15614 011b 16000000 		.4byte	.LVL29
 15615 011f 0100     		.2byte	0x1
 15616 0121 50       		.byte	0x50
 15617 0122 16000000 		.4byte	.LVL29
 15618 0126 28000000 		.4byte	.LVL31
 15619 012a 0400     		.2byte	0x4
 15620 012c F3       		.byte	0xf3
 15621 012d 01       		.uleb128 0x1
 15622 012e 50       		.byte	0x50
 15623 012f 9F       		.byte	0x9f
 15624 0130 28000000 		.4byte	.LVL31
 15625 0134 34000000 		.4byte	.LVL33
 15626 0138 0100     		.2byte	0x1
 15627 013a 50       		.byte	0x50
 15628 013b 34000000 		.4byte	.LVL33
 15629 013f 8C000000 		.4byte	.LFE5
 15630 0143 0400     		.2byte	0x4
 15631 0145 F3       		.byte	0xf3
 15632 0146 01       		.uleb128 0x1
 15633 0147 50       		.byte	0x50
 15634 0148 9F       		.byte	0x9f
 15635 0149 00000000 		.4byte	0
 15636 014d 00000000 		.4byte	0
 15637              	.LLST8:
 15638 0151 00000000 		.4byte	.LVL27
 15639 0155 14000000 		.4byte	.LVL28
 15640 0159 0100     		.2byte	0x1
 15641 015b 51       		.byte	0x51
 15642 015c 14000000 		.4byte	.LVL28
 15643 0160 28000000 		.4byte	.LVL31
 15644 0164 0400     		.2byte	0x4
 15645 0166 F3       		.byte	0xf3
 15646 0167 01       		.uleb128 0x1
 15647 0168 51       		.byte	0x51
 15648 0169 9F       		.byte	0x9f
 15649 016a 28000000 		.4byte	.LVL31
 15650 016e 32000000 		.4byte	.LVL32
 15651 0172 0100     		.2byte	0x1
 15652 0174 51       		.byte	0x51
 15653 0175 32000000 		.4byte	.LVL32
 15654 0179 8C000000 		.4byte	.LFE5
 15655 017d 0400     		.2byte	0x4
 15656 017f F3       		.byte	0xf3
 15657 0180 01       		.uleb128 0x1
 15658 0181 51       		.byte	0x51
 15659 0182 9F       		.byte	0x9f
 15660 0183 00000000 		.4byte	0
 15661 0187 00000000 		.4byte	0
ARM GAS  C:\Users\AHMED~1.ELE\AppData\Local\Temp\ccLLYyS4.s 			page 308


 15662              	.LLST9:
 15663 018b 5A000000 		.4byte	.LVL47
 15664 018f 74010000 		.4byte	.LVL66
 15665 0193 0100     		.2byte	0x1
 15666 0195 54       		.byte	0x54
 15667 0196 76010000 		.4byte	.LVL67
 15668 019a 94010000 		.4byte	.LVL70
 15669 019e 0100     		.2byte	0x1
 15670 01a0 54       		.byte	0x54
 15671 01a1 00000000 		.4byte	0
 15672 01a5 00000000 		.4byte	0
 15673              	.LLST10:
 15674 01a9 BE000000 		.4byte	.LVL53
 15675 01ad F6000000 		.4byte	.LVL55
 15676 01b1 0100     		.2byte	0x1
 15677 01b3 55       		.byte	0x55
 15678 01b4 F8000000 		.4byte	.LVL56
 15679 01b8 FA000000 		.4byte	.LVL57
 15680 01bc 0100     		.2byte	0x1
 15681 01be 55       		.byte	0x55
 15682 01bf FC000000 		.4byte	.LVL58
 15683 01c3 FE000000 		.4byte	.LVL59
 15684 01c7 0100     		.2byte	0x1
 15685 01c9 55       		.byte	0x55
 15686 01ca 00000000 		.4byte	0
 15687 01ce 00000000 		.4byte	0
 15688              	.LLST11:
 15689 01d2 FE000000 		.4byte	.LVL59
 15690 01d6 2C010000 		.4byte	.LVL61
 15691 01da 0100     		.2byte	0x1
 15692 01dc 55       		.byte	0x55
 15693 01dd 2E010000 		.4byte	.LVL62
 15694 01e1 72010000 		.4byte	.LVL65
 15695 01e5 0100     		.2byte	0x1
 15696 01e7 55       		.byte	0x55
 15697 01e8 00000000 		.4byte	0
 15698 01ec 00000000 		.4byte	0
 15699              	.LLST12:
 15700 01f0 94000000 		.4byte	.LVL50
 15701 01f4 BE000000 		.4byte	.LVL53
 15702 01f8 0100     		.2byte	0x1
 15703 01fa 56       		.byte	0x56
 15704 01fb 00000000 		.4byte	0
 15705 01ff 00000000 		.4byte	0
 15706              	.LLST13:
 15707 0203 22000000 		.4byte	.LVL40
 15708 0207 94010000 		.4byte	.LVL70
 15709 020b 0300     		.2byte	0x3
 15710 020d 91       		.byte	0x91
 15711 020e B87F     		.sleb128 -72
 15712 0210 94010000 		.4byte	.LVL70
 15713 0214 A0010000 		.4byte	.LFE6
 15714 0218 0300     		.2byte	0x3
 15715 021a 7D       		.byte	0x7d
 15716 021b B87F     		.sleb128 -72
 15717 021d 00000000 		.4byte	0
 15718 0221 00000000 		.4byte	0
ARM GAS  C:\Users\AHMED~1.ELE\AppData\Local\Temp\ccLLYyS4.s 			page 309


 15719              	.LLST14:
 15720 0225 32000000 		.4byte	.LVL42
 15721 0229 94010000 		.4byte	.LVL70
 15722 022d 0100     		.2byte	0x1
 15723 022f 58       		.byte	0x58
 15724 0230 00000000 		.4byte	0
 15725 0234 00000000 		.4byte	0
 15726              	.LLST15:
 15727 0238 42000000 		.4byte	.LVL44
 15728 023c 94010000 		.4byte	.LVL70
 15729 0240 0100     		.2byte	0x1
 15730 0242 59       		.byte	0x59
 15731 0243 00000000 		.4byte	0
 15732 0247 00000000 		.4byte	0
 15733              	.LLST16:
 15734 024b 26000000 		.4byte	.LVL77
 15735 024f 2D000000 		.4byte	.LVL78-1
 15736 0253 0100     		.2byte	0x1
 15737 0255 50       		.byte	0x50
 15738 0256 2D000000 		.4byte	.LVL78-1
 15739 025a 60000000 		.4byte	.LVL82
 15740 025e 0100     		.2byte	0x1
 15741 0260 54       		.byte	0x54
 15742 0261 00000000 		.4byte	0
 15743 0265 00000000 		.4byte	0
 15744              	.LLST17:
 15745 0269 12000000 		.4byte	.LVL74
 15746 026d 14000000 		.4byte	.LVL75
 15747 0271 0300     		.2byte	0x3
 15748 0273 71       		.byte	0x71
 15749 0274 7E       		.sleb128 -2
 15750 0275 9F       		.byte	0x9f
 15751 0276 14000000 		.4byte	.LVL75
 15752 027a 1E000000 		.4byte	.LVL76
 15753 027e 0100     		.2byte	0x1
 15754 0280 51       		.byte	0x51
 15755 0281 1E000000 		.4byte	.LVL76
 15756 0285 25000000 		.4byte	.LVL77-1
 15757 0289 0700     		.2byte	0x7
 15758 028b 73       		.byte	0x73
 15759 028c DC00     		.sleb128 92
 15760 028e 06       		.byte	0x6
 15761 028f 32       		.byte	0x32
 15762 0290 1C       		.byte	0x1c
 15763 0291 9F       		.byte	0x9f
 15764 0292 00000000 		.4byte	0
 15765 0296 00000000 		.4byte	0
 15766              	.LLST18:
 15767 029a 00000000 		.4byte	.LVL88
 15768 029e 22000000 		.4byte	.LVL89
 15769 02a2 0100     		.2byte	0x1
 15770 02a4 50       		.byte	0x50
 15771 02a5 22000000 		.4byte	.LVL89
 15772 02a9 38000000 		.4byte	.LVL90
 15773 02ad 0400     		.2byte	0x4
 15774 02af F3       		.byte	0xf3
 15775 02b0 01       		.uleb128 0x1
ARM GAS  C:\Users\AHMED~1.ELE\AppData\Local\Temp\ccLLYyS4.s 			page 310


 15776 02b1 50       		.byte	0x50
 15777 02b2 9F       		.byte	0x9f
 15778 02b3 38000000 		.4byte	.LVL90
 15779 02b7 3B000000 		.4byte	.LVL91-1
 15780 02bb 0100     		.2byte	0x1
 15781 02bd 50       		.byte	0x50
 15782 02be 3B000000 		.4byte	.LVL91-1
 15783 02c2 48020000 		.4byte	.LFE10
 15784 02c6 0400     		.2byte	0x4
 15785 02c8 F3       		.byte	0xf3
 15786 02c9 01       		.uleb128 0x1
 15787 02ca 50       		.byte	0x50
 15788 02cb 9F       		.byte	0x9f
 15789 02cc 00000000 		.4byte	0
 15790 02d0 00000000 		.4byte	0
 15791              	.LLST19:
 15792 02d4 00000000 		.4byte	.LVL88
 15793 02d8 22000000 		.4byte	.LVL89
 15794 02dc 0100     		.2byte	0x1
 15795 02de 51       		.byte	0x51
 15796 02df 22000000 		.4byte	.LVL89
 15797 02e3 38000000 		.4byte	.LVL90
 15798 02e7 0100     		.2byte	0x1
 15799 02e9 57       		.byte	0x57
 15800 02ea 38000000 		.4byte	.LVL90
 15801 02ee 3B000000 		.4byte	.LVL91-1
 15802 02f2 0100     		.2byte	0x1
 15803 02f4 51       		.byte	0x51
 15804 02f5 3B000000 		.4byte	.LVL91-1
 15805 02f9 36020000 		.4byte	.LVL121
 15806 02fd 0100     		.2byte	0x1
 15807 02ff 57       		.byte	0x57
 15808 0300 36020000 		.4byte	.LVL121
 15809 0304 48020000 		.4byte	.LFE10
 15810 0308 0400     		.2byte	0x4
 15811 030a F3       		.byte	0xf3
 15812 030b 01       		.uleb128 0x1
 15813 030c 51       		.byte	0x51
 15814 030d 9F       		.byte	0x9f
 15815 030e 00000000 		.4byte	0
 15816 0312 00000000 		.4byte	0
 15817              	.LLST20:
 15818 0316 38000000 		.4byte	.LVL90
 15819 031a 3B000000 		.4byte	.LVL91-1
 15820 031e 0B00     		.2byte	0xb
 15821 0320 75       		.byte	0x75
 15822 0321 00       		.sleb128 0
 15823 0322 06       		.byte	0x6
 15824 0323 23       		.byte	0x23
 15825 0324 DC8401   		.uleb128 0x425c
 15826 0327 06       		.byte	0x6
 15827 0328 32       		.byte	0x32
 15828 0329 1C       		.byte	0x1c
 15829 032a 9F       		.byte	0x9f
 15830 032b 00000000 		.4byte	0
 15831 032f 00000000 		.4byte	0
 15832              	.LLST21:
ARM GAS  C:\Users\AHMED~1.ELE\AppData\Local\Temp\ccLLYyS4.s 			page 311


 15833 0333 D2010000 		.4byte	.LVL110
 15834 0337 D8010000 		.4byte	.LVL111
 15835 033b 0100     		.2byte	0x1
 15836 033d 50       		.byte	0x50
 15837 033e D8010000 		.4byte	.LVL111
 15838 0342 2C020000 		.4byte	.LVL120
 15839 0346 0100     		.2byte	0x1
 15840 0348 5A       		.byte	0x5a
 15841 0349 00000000 		.4byte	0
 15842 034d 00000000 		.4byte	0
 15843              	.LLST22:
 15844 0351 DC010000 		.4byte	.LVL112
 15845 0355 E2010000 		.4byte	.LVL113
 15846 0359 0100     		.2byte	0x1
 15847 035b 50       		.byte	0x50
 15848 035c E2010000 		.4byte	.LVL113
 15849 0360 2C020000 		.4byte	.LVL120
 15850 0364 0100     		.2byte	0x1
 15851 0366 59       		.byte	0x59
 15852 0367 00000000 		.4byte	0
 15853 036b 00000000 		.4byte	0
 15854              	.LLST23:
 15855 036f 16000000 		.4byte	.LVL124
 15856 0373 54000000 		.4byte	.LVL131
 15857 0377 0100     		.2byte	0x1
 15858 0379 55       		.byte	0x55
 15859 037a 00000000 		.4byte	0
 15860 037e 00000000 		.4byte	0
 15861              	.LLST24:
 15862 0382 1E000000 		.4byte	.LVL126
 15863 0386 32000000 		.4byte	.LVL127
 15864 038a 0100     		.2byte	0x1
 15865 038c 50       		.byte	0x50
 15866 038d 00000000 		.4byte	0
 15867 0391 00000000 		.4byte	0
 15868              	.LLST25:
 15869 0395 94020000 		.4byte	.LVL196
 15870 0399 9C020000 		.4byte	.LVL197
 15871 039d 0100     		.2byte	0x1
 15872 039f 50       		.byte	0x50
 15873 03a0 00000000 		.4byte	0
 15874 03a4 00000000 		.4byte	0
 15875              	.LLST26:
 15876 03a8 A0020000 		.4byte	.LVL198
 15877 03ac B4020000 		.4byte	.LVL199
 15878 03b0 1300     		.2byte	0x13
 15879 03b2 70       		.byte	0x70
 15880 03b3 00       		.sleb128 0
 15881 03b4 12       		.byte	0x12
 15882 03b5 08       		.byte	0x8
 15883 03b6 FF       		.byte	0xff
 15884 03b7 1A       		.byte	0x1a
 15885 03b8 4A       		.byte	0x4a
 15886 03b9 16       		.byte	0x16
 15887 03ba 14       		.byte	0x14
 15888 03bb 08       		.byte	0x8
 15889 03bc FF       		.byte	0xff
ARM GAS  C:\Users\AHMED~1.ELE\AppData\Local\Temp\ccLLYyS4.s 			page 312


 15890 03bd 1A       		.byte	0x1a
 15891 03be 2D       		.byte	0x2d
 15892 03bf 28       		.byte	0x28
 15893 03c0 0100     		.2byte	0x1
 15894 03c2 16       		.byte	0x16
 15895 03c3 13       		.byte	0x13
 15896 03c4 9F       		.byte	0x9f
 15897 03c5 00000000 		.4byte	0
 15898 03c9 00000000 		.4byte	0
 15899              	.LLST27:
 15900 03cd 40010000 		.4byte	.LVL154
 15901 03d1 47010000 		.4byte	.LVL155-1
 15902 03d5 0100     		.2byte	0x1
 15903 03d7 50       		.byte	0x50
 15904 03d8 64020000 		.4byte	.LVL190
 15905 03dc 69020000 		.4byte	.LVL191-1
 15906 03e0 0100     		.2byte	0x1
 15907 03e2 51       		.byte	0x51
 15908 03e3 00000000 		.4byte	0
 15909 03e7 00000000 		.4byte	0
 15910              	.LLST28:
 15911 03eb 64010000 		.4byte	.LVL160
 15912 03ef 66010000 		.4byte	.LVL161
 15913 03f3 0100     		.2byte	0x1
 15914 03f5 50       		.byte	0x50
 15915 03f6 00000000 		.4byte	0
 15916 03fa 00000000 		.4byte	0
 15917              	.LLST29:
 15918 03fe E2000000 		.4byte	.LVL143
 15919 0402 EC000000 		.4byte	.LVL144
 15920 0406 0100     		.2byte	0x1
 15921 0408 52       		.byte	0x52
 15922 0409 EC000000 		.4byte	.LVL144
 15923 040d F4000000 		.4byte	.LVL145
 15924 0411 0300     		.2byte	0x3
 15925 0413 74       		.byte	0x74
 15926 0414 7F       		.sleb128 -1
 15927 0415 9F       		.byte	0x9f
 15928 0416 F4000000 		.4byte	.LVL145
 15929 041a 02010000 		.4byte	.LVL147
 15930 041e 0100     		.2byte	0x1
 15931 0420 54       		.byte	0x54
 15932 0421 02010000 		.4byte	.LVL147
 15933 0425 04010000 		.4byte	.LVL148
 15934 0429 0300     		.2byte	0x3
 15935 042b 74       		.byte	0x74
 15936 042c 7F       		.sleb128 -1
 15937 042d 9F       		.byte	0x9f
 15938 042e 04010000 		.4byte	.LVL148
 15939 0432 26010000 		.4byte	.LVL151
 15940 0436 0100     		.2byte	0x1
 15941 0438 54       		.byte	0x54
 15942 0439 26010000 		.4byte	.LVL151
 15943 043d 2E010000 		.4byte	.LVL152
 15944 0441 0300     		.2byte	0x3
 15945 0443 74       		.byte	0x74
 15946 0444 7F       		.sleb128 -1
ARM GAS  C:\Users\AHMED~1.ELE\AppData\Local\Temp\ccLLYyS4.s 			page 313


 15947 0445 9F       		.byte	0x9f
 15948 0446 2E010000 		.4byte	.LVL152
 15949 044a 54010000 		.4byte	.LVL157
 15950 044e 0100     		.2byte	0x1
 15951 0450 54       		.byte	0x54
 15952 0451 54010000 		.4byte	.LVL157
 15953 0455 60010000 		.4byte	.LVL158
 15954 0459 0300     		.2byte	0x3
 15955 045b 71       		.byte	0x71
 15956 045c 7F       		.sleb128 -1
 15957 045d 9F       		.byte	0x9f
 15958 045e 60010000 		.4byte	.LVL158
 15959 0462 62010000 		.4byte	.LVL159
 15960 0466 0400     		.2byte	0x4
 15961 0468 71       		.byte	0x71
 15962 0469 FF7B     		.sleb128 -513
 15963 046b 9F       		.byte	0x9f
 15964 046c 66010000 		.4byte	.LVL161
 15965 0470 68010000 		.4byte	.LVL162
 15966 0474 0300     		.2byte	0x3
 15967 0476 71       		.byte	0x71
 15968 0477 7F       		.sleb128 -1
 15969 0478 9F       		.byte	0x9f
 15970 0479 68010000 		.4byte	.LVL162
 15971 047d 6A010000 		.4byte	.LVL163
 15972 0481 0100     		.2byte	0x1
 15973 0483 51       		.byte	0x51
 15974 0484 00000000 		.4byte	0
 15975 0488 00000000 		.4byte	0
 15976              	.LLST30:
 15977 048c F4000000 		.4byte	.LVL145
 15978 0490 02010000 		.4byte	.LVL147
 15979 0494 0200     		.2byte	0x2
 15980 0496 30       		.byte	0x30
 15981 0497 9F       		.byte	0x9f
 15982 0498 06010000 		.4byte	.LVL149
 15983 049c 16010000 		.4byte	.LVL150
 15984 04a0 0100     		.2byte	0x1
 15985 04a2 56       		.byte	0x56
 15986 04a3 16010000 		.4byte	.LVL150
 15987 04a7 2E010000 		.4byte	.LVL152
 15988 04ab 0300     		.2byte	0x3
 15989 04ad 76       		.byte	0x76
 15990 04ae 01       		.sleb128 1
 15991 04af 9F       		.byte	0x9f
 15992 04b0 2E010000 		.4byte	.LVL152
 15993 04b4 6A010000 		.4byte	.LVL163
 15994 04b8 0100     		.2byte	0x1
 15995 04ba 56       		.byte	0x56
 15996 04bb 76010000 		.4byte	.LVL165
 15997 04bf 88010000 		.4byte	.LVL166
 15998 04c3 0100     		.2byte	0x1
 15999 04c5 50       		.byte	0x50
 16000 04c6 88010000 		.4byte	.LVL166
 16001 04ca B8010000 		.4byte	.LVL170
 16002 04ce 0100     		.2byte	0x1
 16003 04d0 56       		.byte	0x56
ARM GAS  C:\Users\AHMED~1.ELE\AppData\Local\Temp\ccLLYyS4.s 			page 314


 16004 04d1 B8010000 		.4byte	.LVL170
 16005 04d5 BA010000 		.4byte	.LVL171
 16006 04d9 0100     		.2byte	0x1
 16007 04db 50       		.byte	0x50
 16008 04dc BA010000 		.4byte	.LVL171
 16009 04e0 00020000 		.4byte	.LVL177
 16010 04e4 0100     		.2byte	0x1
 16011 04e6 56       		.byte	0x56
 16012 04e7 22020000 		.4byte	.LVL182
 16013 04eb 38020000 		.4byte	.LVL185
 16014 04ef 0100     		.2byte	0x1
 16015 04f1 56       		.byte	0x56
 16016 04f2 00000000 		.4byte	0
 16017 04f6 00000000 		.4byte	0
 16018              	.LLST31:
 16019 04fa FE010000 		.4byte	.LVL176
 16020 04fe 06020000 		.4byte	.LVL178
 16021 0502 0100     		.2byte	0x1
 16022 0504 50       		.byte	0x50
 16023 0505 06020000 		.4byte	.LVL178
 16024 0509 1A020000 		.4byte	.LVL180
 16025 050d 0100     		.2byte	0x1
 16026 050f 56       		.byte	0x56
 16027 0510 2C020000 		.4byte	.LVL183
 16028 0514 34020000 		.4byte	.LVL184
 16029 0518 0100     		.2byte	0x1
 16030 051a 50       		.byte	0x50
 16031 051b 00000000 		.4byte	0
 16032 051f 00000000 		.4byte	0
 16033              	.LLST32:
 16034 0523 E8010000 		.4byte	.LVL175
 16035 0527 12020000 		.4byte	.LVL179
 16036 052b 0200     		.2byte	0x2
 16037 052d 30       		.byte	0x30
 16038 052e 9F       		.byte	0x9f
 16039 052f 12020000 		.4byte	.LVL179
 16040 0533 20020000 		.4byte	.LVL181
 16041 0537 0100     		.2byte	0x1
 16042 0539 50       		.byte	0x50
 16043 053a 20020000 		.4byte	.LVL181
 16044 053e 22020000 		.4byte	.LVL182
 16045 0542 0100     		.2byte	0x1
 16046 0544 53       		.byte	0x53
 16047 0545 22020000 		.4byte	.LVL182
 16048 0549 38020000 		.4byte	.LVL185
 16049 054d 0200     		.2byte	0x2
 16050 054f 30       		.byte	0x30
 16051 0550 9F       		.byte	0x9f
 16052 0551 38020000 		.4byte	.LVL185
 16053 0555 3A020000 		.4byte	.LVL186
 16054 0559 0100     		.2byte	0x1
 16055 055b 53       		.byte	0x53
 16056 055c 3E020000 		.4byte	.LVL187
 16057 0560 42020000 		.4byte	.LVL188
 16058 0564 0100     		.2byte	0x1
 16059 0566 53       		.byte	0x53
 16060 0567 00000000 		.4byte	0
ARM GAS  C:\Users\AHMED~1.ELE\AppData\Local\Temp\ccLLYyS4.s 			page 315


 16061 056b 00000000 		.4byte	0
 16062              	.LLST33:
 16063 056f 9A000000 		.4byte	.LVL212
 16064 0573 A2000000 		.4byte	.LVL213
 16065 0577 0600     		.2byte	0x6
 16066 0579 73       		.byte	0x73
 16067 057a 00       		.sleb128 0
 16068 057b 08       		.byte	0x8
 16069 057c FF       		.byte	0xff
 16070 057d 1A       		.byte	0x1a
 16071 057e 9F       		.byte	0x9f
 16072 057f BC000000 		.4byte	.LVL217
 16073 0583 C0000000 		.4byte	.LVL218
 16074 0587 0600     		.2byte	0x6
 16075 0589 73       		.byte	0x73
 16076 058a 00       		.sleb128 0
 16077 058b 08       		.byte	0x8
 16078 058c FF       		.byte	0xff
 16079 058d 1A       		.byte	0x1a
 16080 058e 9F       		.byte	0x9f
 16081 058f C0000000 		.4byte	.LVL218
 16082 0593 C7000000 		.4byte	.LVL219-1
 16083 0597 0600     		.2byte	0x6
 16084 0599 72       		.byte	0x72
 16085 059a 01       		.sleb128 1
 16086 059b 08       		.byte	0x8
 16087 059c FF       		.byte	0xff
 16088 059d 1A       		.byte	0x1a
 16089 059e 9F       		.byte	0x9f
 16090 059f DC000000 		.4byte	.LVL222
 16091 05a3 0C010000 		.4byte	.LVL225
 16092 05a7 0100     		.2byte	0x1
 16093 05a9 55       		.byte	0x55
 16094 05aa 00000000 		.4byte	0
 16095 05ae 00000000 		.4byte	0
 16096              	.LLST34:
 16097 05b2 E4000000 		.4byte	.LVL224
 16098 05b6 0C010000 		.4byte	.LVL225
 16099 05ba 0100     		.2byte	0x1
 16100 05bc 50       		.byte	0x50
 16101 05bd 00000000 		.4byte	0
 16102 05c1 00000000 		.4byte	0
 16103              	.LLST35:
 16104 05c5 FE010000 		.4byte	.LVL281
 16105 05c9 21020000 		.4byte	.LVL283-1
 16106 05cd 0100     		.2byte	0x1
 16107 05cf 50       		.byte	0x50
 16108 05d0 21020000 		.4byte	.LVL283-1
 16109 05d4 24020000 		.4byte	.LVL284
 16110 05d8 0100     		.2byte	0x1
 16111 05da 5A       		.byte	0x5a
 16112 05db 24020000 		.4byte	.LVL284
 16113 05df 40020000 		.4byte	.LVL289
 16114 05e3 0100     		.2byte	0x1
 16115 05e5 50       		.byte	0x50
 16116 05e6 40020000 		.4byte	.LVL289
 16117 05ea 4A020000 		.4byte	.LVL291
ARM GAS  C:\Users\AHMED~1.ELE\AppData\Local\Temp\ccLLYyS4.s 			page 316


 16118 05ee 0100     		.2byte	0x1
 16119 05f0 5A       		.byte	0x5a
 16120 05f1 4A020000 		.4byte	.LVL291
 16121 05f5 68020000 		.4byte	.LVL293
 16122 05f9 0100     		.2byte	0x1
 16123 05fb 50       		.byte	0x50
 16124 05fc 68020000 		.4byte	.LVL293
 16125 0600 7C020000 		.4byte	.LVL295
 16126 0604 0100     		.2byte	0x1
 16127 0606 5A       		.byte	0x5a
 16128 0607 7C020000 		.4byte	.LVL295
 16129 060b 9C020000 		.4byte	.LVL300
 16130 060f 0100     		.2byte	0x1
 16131 0611 50       		.byte	0x50
 16132 0612 9C020000 		.4byte	.LVL300
 16133 0616 A2020000 		.4byte	.LVL301
 16134 061a 0100     		.2byte	0x1
 16135 061c 5A       		.byte	0x5a
 16136 061d 00000000 		.4byte	0
 16137 0621 00000000 		.4byte	0
 16138              	.LLST36:
 16139 0625 28000000 		.4byte	.LVL227
 16140 0629 42000000 		.4byte	.LVL228
 16141 062d 0100     		.2byte	0x1
 16142 062f 50       		.byte	0x50
 16143 0630 42000000 		.4byte	.LVL228
 16144 0634 A2020000 		.4byte	.LVL301
 16145 0638 0100     		.2byte	0x1
 16146 063a 55       		.byte	0x55
 16147 063b 00000000 		.4byte	0
 16148 063f 00000000 		.4byte	0
 16149              	.LLST37:
 16150 0643 BA000000 		.4byte	.LVL248
 16151 0647 D2000000 		.4byte	.LVL250
 16152 064b 0400     		.2byte	0x4
 16153 064d 0A       		.byte	0xa
 16154 064e 0003     		.2byte	0x300
 16155 0650 9F       		.byte	0x9f
 16156 0651 D2000000 		.4byte	.LVL250
 16157 0655 AE010000 		.4byte	.LVL271
 16158 0659 0100     		.2byte	0x1
 16159 065b 54       		.byte	0x54
 16160 065c B4010000 		.4byte	.LVL272
 16161 0660 BE010000 		.4byte	.LVL274
 16162 0664 0100     		.2byte	0x1
 16163 0666 54       		.byte	0x54
 16164 0667 66020000 		.4byte	.LVL292
 16165 066b 7C020000 		.4byte	.LVL295
 16166 066f 0400     		.2byte	0x4
 16167 0671 0A       		.byte	0xa
 16168 0672 0003     		.2byte	0x300
 16169 0674 9F       		.byte	0x9f
 16170 0675 00000000 		.4byte	0
 16171 0679 00000000 		.4byte	0
 16172              	.LLST38:
 16173 067d 50000000 		.4byte	.LVL231
 16174 0681 60000000 		.4byte	.LVL233
ARM GAS  C:\Users\AHMED~1.ELE\AppData\Local\Temp\ccLLYyS4.s 			page 317


 16175 0685 0100     		.2byte	0x1
 16176 0687 54       		.byte	0x54
 16177 0688 6C000000 		.4byte	.LVL235
 16178 068c 84000000 		.4byte	.LVL241
 16179 0690 0100     		.2byte	0x1
 16180 0692 54       		.byte	0x54
 16181 0693 08020000 		.4byte	.LVL282
 16182 0697 3C020000 		.4byte	.LVL287
 16183 069b 0100     		.2byte	0x1
 16184 069d 54       		.byte	0x54
 16185 069e 3E020000 		.4byte	.LVL288
 16186 06a2 4A020000 		.4byte	.LVL291
 16187 06a6 0100     		.2byte	0x1
 16188 06a8 54       		.byte	0x54
 16189 06a9 7C020000 		.4byte	.LVL295
 16190 06ad 94020000 		.4byte	.LVL298
 16191 06b1 0100     		.2byte	0x1
 16192 06b3 53       		.byte	0x53
 16193 06b4 96020000 		.4byte	.LVL299
 16194 06b8 A1020000 		.4byte	.LVL301-1
 16195 06bc 0100     		.2byte	0x1
 16196 06be 53       		.byte	0x53
 16197 06bf 00000000 		.4byte	0
 16198 06c3 00000000 		.4byte	0
 16199              	.LLST39:
 16200 06c7 54000000 		.4byte	.LVL232
 16201 06cb 60000000 		.4byte	.LVL233
 16202 06cf 0100     		.2byte	0x1
 16203 06d1 54       		.byte	0x54
 16204 06d2 BA000000 		.4byte	.LVL248
 16205 06d6 D2000000 		.4byte	.LVL250
 16206 06da 0300     		.2byte	0x3
 16207 06dc 91       		.byte	0x91
 16208 06dd B07F     		.sleb128 -80
 16209 06df D2000000 		.4byte	.LVL250
 16210 06e3 5C010000 		.4byte	.LVL261
 16211 06e7 0100     		.2byte	0x1
 16212 06e9 59       		.byte	0x59
 16213 06ea 64010000 		.4byte	.LVL262
 16214 06ee 68020000 		.4byte	.LVL293
 16215 06f2 0100     		.2byte	0x1
 16216 06f4 59       		.byte	0x59
 16217 06f5 68020000 		.4byte	.LVL293
 16218 06f9 7C020000 		.4byte	.LVL295
 16219 06fd 0300     		.2byte	0x3
 16220 06ff 91       		.byte	0x91
 16221 0700 B07F     		.sleb128 -80
 16222 0702 7C020000 		.4byte	.LVL295
 16223 0706 8C020000 		.4byte	.LVL296
 16224 070a 0100     		.2byte	0x1
 16225 070c 54       		.byte	0x54
 16226 070d 92020000 		.4byte	.LVL297
 16227 0711 A2020000 		.4byte	.LVL301
 16228 0715 0100     		.2byte	0x1
 16229 0717 54       		.byte	0x54
 16230 0718 00000000 		.4byte	0
 16231 071c 00000000 		.4byte	0
ARM GAS  C:\Users\AHMED~1.ELE\AppData\Local\Temp\ccLLYyS4.s 			page 318


 16232              	.LLST40:
 16233 0720 BA000000 		.4byte	.LVL248
 16234 0724 CE010000 		.4byte	.LVL277
 16235 0728 0300     		.2byte	0x3
 16236 072a 91       		.byte	0x91
 16237 072b B07F     		.sleb128 -80
 16238 072d 66020000 		.4byte	.LVL292
 16239 0731 68020000 		.4byte	.LVL293
 16240 0735 0100     		.2byte	0x1
 16241 0737 59       		.byte	0x59
 16242 0738 68020000 		.4byte	.LVL293
 16243 073c 7C020000 		.4byte	.LVL295
 16244 0740 0300     		.2byte	0x3
 16245 0742 91       		.byte	0x91
 16246 0743 B07F     		.sleb128 -80
 16247 0745 00000000 		.4byte	0
 16248 0749 00000000 		.4byte	0
 16249              	.LLST41:
 16250 074d BA000000 		.4byte	.LVL248
 16251 0751 36020000 		.4byte	.LVL285
 16252 0755 0100     		.2byte	0x1
 16253 0757 57       		.byte	0x57
 16254 0758 38020000 		.4byte	.LVL286
 16255 075c A2020000 		.4byte	.LVL301
 16256 0760 0100     		.2byte	0x1
 16257 0762 57       		.byte	0x57
 16258 0763 00000000 		.4byte	0
 16259 0767 00000000 		.4byte	0
 16260              	.LLST42:
 16261 076b 4C000000 		.4byte	.LVL230
 16262 076f 4F000000 		.4byte	.LVL231-1
 16263 0773 0100     		.2byte	0x1
 16264 0775 50       		.byte	0x50
 16265 0776 4F000000 		.4byte	.LVL231-1
 16266 077a A2020000 		.4byte	.LVL301
 16267 077e 0100     		.2byte	0x1
 16268 0780 56       		.byte	0x56
 16269 0781 00000000 		.4byte	0
 16270 0785 00000000 		.4byte	0
 16271              	.LLST43:
 16272 0789 7A000000 		.4byte	.LVL238
 16273 078d 7E000000 		.4byte	.LVL239
 16274 0791 0100     		.2byte	0x1
 16275 0793 50       		.byte	0x50
 16276 0794 7E000000 		.4byte	.LVL239
 16277 0798 B8000000 		.4byte	.LVL247
 16278 079c 0100     		.2byte	0x1
 16279 079e 57       		.byte	0x57
 16280 079f 00000000 		.4byte	0
 16281 07a3 00000000 		.4byte	0
 16282              	.LLST44:
 16283 07a7 82000000 		.4byte	.LVL240
 16284 07ab 88000000 		.4byte	.LVL242
 16285 07af 0100     		.2byte	0x1
 16286 07b1 50       		.byte	0x50
 16287 07b2 88000000 		.4byte	.LVL242
 16288 07b6 BA000000 		.4byte	.LVL248
ARM GAS  C:\Users\AHMED~1.ELE\AppData\Local\Temp\ccLLYyS4.s 			page 319


 16289 07ba 0100     		.2byte	0x1
 16290 07bc 54       		.byte	0x54
 16291 07bd 00000000 		.4byte	0
 16292 07c1 00000000 		.4byte	0
 16293              	.LLST45:
 16294 07c5 14010000 		.4byte	.LVL254
 16295 07c9 1A010000 		.4byte	.LVL255
 16296 07cd 0100     		.2byte	0x1
 16297 07cf 50       		.byte	0x50
 16298 07d0 1A010000 		.4byte	.LVL255
 16299 07d4 78010000 		.4byte	.LVL265
 16300 07d8 0100     		.2byte	0x1
 16301 07da 5A       		.byte	0x5a
 16302 07db 00000000 		.4byte	0
 16303 07df 00000000 		.4byte	0
 16304              	.LLST46:
 16305 07e3 1E010000 		.4byte	.LVL256
 16306 07e7 29010000 		.4byte	.LVL257-1
 16307 07eb 0100     		.2byte	0x1
 16308 07ed 50       		.byte	0x50
 16309 07ee 29010000 		.4byte	.LVL257-1
 16310 07f2 A0010000 		.4byte	.LVL268
 16311 07f6 0100     		.2byte	0x1
 16312 07f8 58       		.byte	0x58
 16313 07f9 00000000 		.4byte	0
 16314 07fd 00000000 		.4byte	0
 16315              	.LLST47:
 16316 0801 6E010000 		.4byte	.LVL263
 16317 0805 A0010000 		.4byte	.LVL268
 16318 0809 0200     		.2byte	0x2
 16319 080b 45       		.byte	0x45
 16320 080c 9F       		.byte	0x9f
 16321 080d 00000000 		.4byte	0
 16322 0811 00000000 		.4byte	0
 16323              	.LLST48:
 16324 0815 76010000 		.4byte	.LVL264
 16325 0819 81010000 		.4byte	.LVL266-1
 16326 081d 0100     		.2byte	0x1
 16327 081f 50       		.byte	0x50
 16328 0820 81010000 		.4byte	.LVL266-1
 16329 0824 A0010000 		.4byte	.LVL268
 16330 0828 0100     		.2byte	0x1
 16331 082a 5A       		.byte	0x5a
 16332 082b 00000000 		.4byte	0
 16333 082f 00000000 		.4byte	0
 16334              	.LLST49:
 16335 0833 A4010000 		.4byte	.LVL269
 16336 0837 B4010000 		.4byte	.LVL272
 16337 083b 0200     		.2byte	0x2
 16338 083d 45       		.byte	0x45
 16339 083e 9F       		.byte	0x9f
 16340 083f 00000000 		.4byte	0
 16341 0843 00000000 		.4byte	0
 16342              	.LLST50:
 16343 0847 AC010000 		.4byte	.LVL270
 16344 084b B4010000 		.4byte	.LVL272
 16345 084f 0100     		.2byte	0x1
ARM GAS  C:\Users\AHMED~1.ELE\AppData\Local\Temp\ccLLYyS4.s 			page 320


 16346 0851 50       		.byte	0x50
 16347 0852 00000000 		.4byte	0
 16348 0856 00000000 		.4byte	0
 16349              	.LLST51:
 16350 085a B4010000 		.4byte	.LVL272
 16351 085e C2010000 		.4byte	.LVL275
 16352 0862 0200     		.2byte	0x2
 16353 0864 45       		.byte	0x45
 16354 0865 9F       		.byte	0x9f
 16355 0866 00000000 		.4byte	0
 16356 086a 00000000 		.4byte	0
 16357              	.LLST52:
 16358 086e BC010000 		.4byte	.LVL273
 16359 0872 C2010000 		.4byte	.LVL275
 16360 0876 0100     		.2byte	0x1
 16361 0878 50       		.byte	0x50
 16362 0879 00000000 		.4byte	0
 16363 087d 00000000 		.4byte	0
 16364              	.LLST53:
 16365 0881 00000000 		.4byte	.LVL308
 16366 0885 10000000 		.4byte	.LVL309
 16367 0889 0100     		.2byte	0x1
 16368 088b 50       		.byte	0x50
 16369 088c 10000000 		.4byte	.LVL309
 16370 0890 08010000 		.4byte	.LFE15
 16371 0894 0400     		.2byte	0x4
 16372 0896 F3       		.byte	0xf3
 16373 0897 01       		.uleb128 0x1
 16374 0898 50       		.byte	0x50
 16375 0899 9F       		.byte	0x9f
 16376 089a 00000000 		.4byte	0
 16377 089e 00000000 		.4byte	0
 16378              	.LLST54:
 16379 08a2 6E000000 		.4byte	.LVL316
 16380 08a6 82000000 		.4byte	.LVL317
 16381 08aa 0100     		.2byte	0x1
 16382 08ac 50       		.byte	0x50
 16383 08ad 82000000 		.4byte	.LVL317
 16384 08b1 D4000000 		.4byte	.LVL323
 16385 08b5 0100     		.2byte	0x1
 16386 08b7 54       		.byte	0x54
 16387 08b8 00000000 		.4byte	0
 16388 08bc 00000000 		.4byte	0
 16389              	.LLST55:
 16390 08c0 00000000 		.4byte	.LVL327
 16391 08c4 0C000000 		.4byte	.LVL328
 16392 08c8 0100     		.2byte	0x1
 16393 08ca 50       		.byte	0x50
 16394 08cb 0C000000 		.4byte	.LVL328
 16395 08cf 1C000000 		.4byte	.LVL331
 16396 08d3 0100     		.2byte	0x1
 16397 08d5 54       		.byte	0x54
 16398 08d6 1C000000 		.4byte	.LVL331
 16399 08da E8000000 		.4byte	.LFE17
 16400 08de 0400     		.2byte	0x4
 16401 08e0 F3       		.byte	0xf3
 16402 08e1 01       		.uleb128 0x1
ARM GAS  C:\Users\AHMED~1.ELE\AppData\Local\Temp\ccLLYyS4.s 			page 321


 16403 08e2 50       		.byte	0x50
 16404 08e3 9F       		.byte	0x9f
 16405 08e4 00000000 		.4byte	0
 16406 08e8 00000000 		.4byte	0
 16407              	.LLST56:
 16408 08ec 16000000 		.4byte	.LVL329
 16409 08f0 1C000000 		.4byte	.LVL331
 16410 08f4 0100     		.2byte	0x1
 16411 08f6 54       		.byte	0x54
 16412 08f7 1C000000 		.4byte	.LVL331
 16413 08fb 28000000 		.4byte	.LVL333
 16414 08ff 0200     		.2byte	0x2
 16415 0901 30       		.byte	0x30
 16416 0902 9F       		.byte	0x9f
 16417 0903 28000000 		.4byte	.LVL333
 16418 0907 54000000 		.4byte	.LVL334
 16419 090b 0100     		.2byte	0x1
 16420 090d 54       		.byte	0x54
 16421 090e 72000000 		.4byte	.LVL336
 16422 0912 A2000000 		.4byte	.LVL339
 16423 0916 0100     		.2byte	0x1
 16424 0918 54       		.byte	0x54
 16425 0919 A6000000 		.4byte	.LVL340
 16426 091d C8000000 		.4byte	.LVL342
 16427 0921 0100     		.2byte	0x1
 16428 0923 54       		.byte	0x54
 16429 0924 CE000000 		.4byte	.LVL344
 16430 0928 DA000000 		.4byte	.LVL346
 16431 092c 0100     		.2byte	0x1
 16432 092e 54       		.byte	0x54
 16433 092f 00000000 		.4byte	0
 16434 0933 00000000 		.4byte	0
 16435              	.LLST57:
 16436 0937 00000000 		.4byte	.LVL347
 16437 093b 06000000 		.4byte	.LVL348
 16438 093f 0100     		.2byte	0x1
 16439 0941 50       		.byte	0x50
 16440 0942 06000000 		.4byte	.LVL348
 16441 0946 26000000 		.4byte	.LVL352
 16442 094a 0100     		.2byte	0x1
 16443 094c 55       		.byte	0x55
 16444 094d 26000000 		.4byte	.LVL352
 16445 0951 F8000000 		.4byte	.LFE18
 16446 0955 0400     		.2byte	0x4
 16447 0957 F3       		.byte	0xf3
 16448 0958 01       		.uleb128 0x1
 16449 0959 50       		.byte	0x50
 16450 095a 9F       		.byte	0x9f
 16451 095b 00000000 		.4byte	0
 16452 095f 00000000 		.4byte	0
 16453              	.LLST58:
 16454 0963 00000000 		.4byte	.LVL347
 16455 0967 0B000000 		.4byte	.LVL349-1
 16456 096b 0100     		.2byte	0x1
 16457 096d 51       		.byte	0x51
 16458 096e 0B000000 		.4byte	.LVL349-1
 16459 0972 F8000000 		.4byte	.LFE18
ARM GAS  C:\Users\AHMED~1.ELE\AppData\Local\Temp\ccLLYyS4.s 			page 322


 16460 0976 0400     		.2byte	0x4
 16461 0978 F3       		.byte	0xf3
 16462 0979 01       		.uleb128 0x1
 16463 097a 51       		.byte	0x51
 16464 097b 9F       		.byte	0x9f
 16465 097c 00000000 		.4byte	0
 16466 0980 00000000 		.4byte	0
 16467              	.LLST59:
 16468 0984 26000000 		.4byte	.LVL352
 16469 0988 38000000 		.4byte	.LVL354
 16470 098c 0100     		.2byte	0x1
 16471 098e 55       		.byte	0x55
 16472 098f 38000000 		.4byte	.LVL354
 16473 0993 42000000 		.4byte	.LVL355
 16474 0997 0100     		.2byte	0x1
 16475 0999 50       		.byte	0x50
 16476 099a CE000000 		.4byte	.LVL367
 16477 099e D2000000 		.4byte	.LVL368
 16478 09a2 0100     		.2byte	0x1
 16479 09a4 50       		.byte	0x50
 16480 09a5 D2000000 		.4byte	.LVL368
 16481 09a9 D8000000 		.4byte	.LVL370
 16482 09ad 0100     		.2byte	0x1
 16483 09af 55       		.byte	0x55
 16484 09b0 00000000 		.4byte	0
 16485 09b4 00000000 		.4byte	0
 16486              	.LLST60:
 16487 09b8 00000000 		.4byte	.LVL371
 16488 09bc 0A000000 		.4byte	.LVL372
 16489 09c0 0100     		.2byte	0x1
 16490 09c2 50       		.byte	0x50
 16491 09c3 0A000000 		.4byte	.LVL372
 16492 09c7 F8020000 		.4byte	.LVL450
 16493 09cb 0100     		.2byte	0x1
 16494 09cd 55       		.byte	0x55
 16495 09ce F8020000 		.4byte	.LVL450
 16496 09d2 28030000 		.4byte	.LFE19
 16497 09d6 0400     		.2byte	0x4
 16498 09d8 F3       		.byte	0xf3
 16499 09d9 01       		.uleb128 0x1
 16500 09da 50       		.byte	0x50
 16501 09db 9F       		.byte	0x9f
 16502 09dc 00000000 		.4byte	0
 16503 09e0 00000000 		.4byte	0
 16504              	.LLST61:
 16505 09e4 9C000000 		.4byte	.LVL386
 16506 09e8 24030000 		.4byte	.LVL455
 16507 09ec 0100     		.2byte	0x1
 16508 09ee 5A       		.byte	0x5a
 16509 09ef 00000000 		.4byte	0
 16510 09f3 00000000 		.4byte	0
 16511              	.LLST62:
 16512 09f7 3C000000 		.4byte	.LVL376
 16513 09fb 46000000 		.4byte	.LVL377
 16514 09ff 0600     		.2byte	0x6
 16515 0a01 50       		.byte	0x50
 16516 0a02 93       		.byte	0x93
ARM GAS  C:\Users\AHMED~1.ELE\AppData\Local\Temp\ccLLYyS4.s 			page 323


 16517 0a03 04       		.uleb128 0x4
 16518 0a04 51       		.byte	0x51
 16519 0a05 93       		.byte	0x93
 16520 0a06 04       		.uleb128 0x4
 16521 0a07 00000000 		.4byte	0
 16522 0a0b 00000000 		.4byte	0
 16523              	.LLST63:
 16524 0a0f 00000000 		.4byte	.LVL371
 16525 0a13 04010000 		.4byte	.LVL395
 16526 0a17 0200     		.2byte	0x2
 16527 0a19 30       		.byte	0x30
 16528 0a1a 9F       		.byte	0x9f
 16529 0a1b 04010000 		.4byte	.LVL395
 16530 0a1f 06010000 		.4byte	.LVL396
 16531 0a23 0200     		.2byte	0x2
 16532 0a25 32       		.byte	0x32
 16533 0a26 9F       		.byte	0x9f
 16534 0a27 06010000 		.4byte	.LVL396
 16535 0a2b 34010000 		.4byte	.LVL404
 16536 0a2f 0200     		.2byte	0x2
 16537 0a31 30       		.byte	0x30
 16538 0a32 9F       		.byte	0x9f
 16539 0a33 34010000 		.4byte	.LVL404
 16540 0a37 36010000 		.4byte	.LVL405
 16541 0a3b 0200     		.2byte	0x2
 16542 0a3d 31       		.byte	0x31
 16543 0a3e 9F       		.byte	0x9f
 16544 0a3f 36010000 		.4byte	.LVL405
 16545 0a43 66010000 		.4byte	.LVL409
 16546 0a47 0200     		.2byte	0x2
 16547 0a49 30       		.byte	0x30
 16548 0a4a 9F       		.byte	0x9f
 16549 0a4b 66010000 		.4byte	.LVL409
 16550 0a4f 68010000 		.4byte	.LVL410
 16551 0a53 0200     		.2byte	0x2
 16552 0a55 32       		.byte	0x32
 16553 0a56 9F       		.byte	0x9f
 16554 0a57 68010000 		.4byte	.LVL410
 16555 0a5b 78010000 		.4byte	.LVL413
 16556 0a5f 0200     		.2byte	0x2
 16557 0a61 30       		.byte	0x30
 16558 0a62 9F       		.byte	0x9f
 16559 0a63 78010000 		.4byte	.LVL413
 16560 0a67 7C010000 		.4byte	.LVL414
 16561 0a6b 0200     		.2byte	0x2
 16562 0a6d 31       		.byte	0x31
 16563 0a6e 9F       		.byte	0x9f
 16564 0a6f 7C010000 		.4byte	.LVL414
 16565 0a73 B6010000 		.4byte	.LVL419
 16566 0a77 0200     		.2byte	0x2
 16567 0a79 30       		.byte	0x30
 16568 0a7a 9F       		.byte	0x9f
 16569 0a7b B6010000 		.4byte	.LVL419
 16570 0a7f B8010000 		.4byte	.LVL420
 16571 0a83 0200     		.2byte	0x2
 16572 0a85 32       		.byte	0x32
 16573 0a86 9F       		.byte	0x9f
ARM GAS  C:\Users\AHMED~1.ELE\AppData\Local\Temp\ccLLYyS4.s 			page 324


 16574 0a87 B8010000 		.4byte	.LVL420
 16575 0a8b F6010000 		.4byte	.LVL425
 16576 0a8f 0200     		.2byte	0x2
 16577 0a91 30       		.byte	0x30
 16578 0a92 9F       		.byte	0x9f
 16579 0a93 F6010000 		.4byte	.LVL425
 16580 0a97 5C020000 		.4byte	.LVL434
 16581 0a9b 0200     		.2byte	0x2
 16582 0a9d 32       		.byte	0x32
 16583 0a9e 9F       		.byte	0x9f
 16584 0a9f 5C020000 		.4byte	.LVL434
 16585 0aa3 CC020000 		.4byte	.LVL445
 16586 0aa7 0200     		.2byte	0x2
 16587 0aa9 30       		.byte	0x30
 16588 0aaa 9F       		.byte	0x9f
 16589 0aab CC020000 		.4byte	.LVL445
 16590 0aaf D0020000 		.4byte	.LVL446
 16591 0ab3 0200     		.2byte	0x2
 16592 0ab5 32       		.byte	0x32
 16593 0ab6 9F       		.byte	0x9f
 16594 0ab7 D0020000 		.4byte	.LVL446
 16595 0abb D8020000 		.4byte	.LVL447
 16596 0abf 0200     		.2byte	0x2
 16597 0ac1 30       		.byte	0x30
 16598 0ac2 9F       		.byte	0x9f
 16599 0ac3 D8020000 		.4byte	.LVL447
 16600 0ac7 F4020000 		.4byte	.LVL448
 16601 0acb 0200     		.2byte	0x2
 16602 0acd 31       		.byte	0x31
 16603 0ace 9F       		.byte	0x9f
 16604 0acf F4020000 		.4byte	.LVL448
 16605 0ad3 F6020000 		.4byte	.LVL449
 16606 0ad7 0200     		.2byte	0x2
 16607 0ad9 30       		.byte	0x30
 16608 0ada 9F       		.byte	0x9f
 16609 0adb F6020000 		.4byte	.LVL449
 16610 0adf 24030000 		.4byte	.LVL455
 16611 0ae3 0100     		.2byte	0x1
 16612 0ae5 54       		.byte	0x54
 16613 0ae6 24030000 		.4byte	.LVL455
 16614 0aea 28030000 		.4byte	.LFE19
 16615 0aee 0100     		.2byte	0x1
 16616 0af0 50       		.byte	0x50
 16617 0af1 00000000 		.4byte	0
 16618 0af5 00000000 		.4byte	0
 16619              	.LLST64:
 16620 0af9 00000000 		.4byte	.LVL371
 16621 0afd 28000000 		.4byte	.LVL375
 16622 0b01 0200     		.2byte	0x2
 16623 0b03 30       		.byte	0x30
 16624 0b04 9F       		.byte	0x9f
 16625 0b05 28000000 		.4byte	.LVL375
 16626 0b09 1E010000 		.4byte	.LVL399
 16627 0b0d 0100     		.2byte	0x1
 16628 0b0f 57       		.byte	0x57
 16629 0b10 1E010000 		.4byte	.LVL399
 16630 0b14 26010000 		.4byte	.LVL401
ARM GAS  C:\Users\AHMED~1.ELE\AppData\Local\Temp\ccLLYyS4.s 			page 325


 16631 0b18 0C00     		.2byte	0xc
 16632 0b1a 44       		.byte	0x44
 16633 0b1b 46       		.byte	0x46
 16634 0b1c 75       		.byte	0x75
 16635 0b1d 00       		.sleb128 0
 16636 0b1e 36       		.byte	0x36
 16637 0b1f 2E       		.byte	0x2e
 16638 0b20 28       		.byte	0x28
 16639 0b21 0100     		.2byte	0x1
 16640 0b23 16       		.byte	0x16
 16641 0b24 13       		.byte	0x13
 16642 0b25 9F       		.byte	0x9f
 16643 0b26 2A010000 		.4byte	.LVL402
 16644 0b2a 36010000 		.4byte	.LVL405
 16645 0b2e 0C00     		.2byte	0xc
 16646 0b30 44       		.byte	0x44
 16647 0b31 46       		.byte	0x46
 16648 0b32 75       		.byte	0x75
 16649 0b33 00       		.sleb128 0
 16650 0b34 36       		.byte	0x36
 16651 0b35 2E       		.byte	0x2e
 16652 0b36 28       		.byte	0x28
 16653 0b37 0100     		.2byte	0x1
 16654 0b39 16       		.byte	0x16
 16655 0b3a 13       		.byte	0x13
 16656 0b3b 9F       		.byte	0x9f
 16657 0b3c 36010000 		.4byte	.LVL405
 16658 0b40 78010000 		.4byte	.LVL413
 16659 0b44 0100     		.2byte	0x1
 16660 0b46 57       		.byte	0x57
 16661 0b47 7C010000 		.4byte	.LVL414
 16662 0b4b 0E030000 		.4byte	.LVL452
 16663 0b4f 0100     		.2byte	0x1
 16664 0b51 57       		.byte	0x57
 16665 0b52 00000000 		.4byte	0
 16666 0b56 00000000 		.4byte	0
 16667              	.LLST65:
 16668 0b5a 00000000 		.4byte	.LVL456
 16669 0b5e 0C000000 		.4byte	.LVL457
 16670 0b62 0100     		.2byte	0x1
 16671 0b64 50       		.byte	0x50
 16672 0b65 0C000000 		.4byte	.LVL457
 16673 0b69 84000000 		.4byte	.LFE20
 16674 0b6d 0400     		.2byte	0x4
 16675 0b6f F3       		.byte	0xf3
 16676 0b70 01       		.uleb128 0x1
 16677 0b71 50       		.byte	0x50
 16678 0b72 9F       		.byte	0x9f
 16679 0b73 00000000 		.4byte	0
 16680 0b77 00000000 		.4byte	0
 16681              	.LLST66:
 16682 0b7b 00000000 		.4byte	.LVL466
 16683 0b7f 1A000000 		.4byte	.LVL467
 16684 0b83 0100     		.2byte	0x1
 16685 0b85 50       		.byte	0x50
 16686 0b86 1A000000 		.4byte	.LVL467
 16687 0b8a BC000000 		.4byte	.LVL477
ARM GAS  C:\Users\AHMED~1.ELE\AppData\Local\Temp\ccLLYyS4.s 			page 326


 16688 0b8e 0100     		.2byte	0x1
 16689 0b90 55       		.byte	0x55
 16690 0b91 BC000000 		.4byte	.LVL477
 16691 0b95 CC000000 		.4byte	.LFE21
 16692 0b99 0400     		.2byte	0x4
 16693 0b9b F3       		.byte	0xf3
 16694 0b9c 01       		.uleb128 0x1
 16695 0b9d 50       		.byte	0x50
 16696 0b9e 9F       		.byte	0x9f
 16697 0b9f 00000000 		.4byte	0
 16698 0ba3 00000000 		.4byte	0
 16699              	.LLST67:
 16700 0ba7 00000000 		.4byte	.LVL466
 16701 0bab 9E000000 		.4byte	.LVL473
 16702 0baf 0A00     		.2byte	0xa
 16703 0bb1 9E       		.byte	0x9e
 16704 0bb2 08       		.uleb128 0x8
 16705 0bb3 00000000 		.8byte	0
 16705      00000000 
 16706 0bbb 9E000000 		.4byte	.LVL473
 16707 0bbf A0000000 		.4byte	.LVL474
 16708 0bc3 0600     		.2byte	0x6
 16709 0bc5 50       		.byte	0x50
 16710 0bc6 93       		.byte	0x93
 16711 0bc7 04       		.uleb128 0x4
 16712 0bc8 51       		.byte	0x51
 16713 0bc9 93       		.byte	0x93
 16714 0bca 04       		.uleb128 0x4
 16715 0bcb A0000000 		.4byte	.LVL474
 16716 0bcf A4000000 		.4byte	.LVL475
 16717 0bd3 0A00     		.2byte	0xa
 16718 0bd5 9E       		.byte	0x9e
 16719 0bd6 08       		.uleb128 0x8
 16720 0bd7 00000000 		.8byte	0
 16720      00000000 
 16721 0bdf A4000000 		.4byte	.LVL475
 16722 0be3 B8000000 		.4byte	.LVL476
 16723 0be7 0600     		.2byte	0x6
 16724 0be9 50       		.byte	0x50
 16725 0bea 93       		.byte	0x93
 16726 0beb 04       		.uleb128 0x4
 16727 0bec 51       		.byte	0x51
 16728 0bed 93       		.byte	0x93
 16729 0bee 04       		.uleb128 0x4
 16730 0bef 00000000 		.4byte	0
 16731 0bf3 00000000 		.4byte	0
 16732              		.section	.debug_aranges,"",%progbits
 16733 0000 A4000000 		.4byte	0xa4
 16734 0004 0200     		.2byte	0x2
 16735 0006 00000000 		.4byte	.Ldebug_info0
 16736 000a 04       		.byte	0x4
 16737 000b 00       		.byte	0
 16738 000c 0000     		.2byte	0
 16739 000e 0000     		.2byte	0
 16740 0010 00000000 		.4byte	.LFB16
 16741 0014 94000000 		.4byte	.LFE16-.LFB16
 16742 0018 00000000 		.4byte	.LFB23
ARM GAS  C:\Users\AHMED~1.ELE\AppData\Local\Temp\ccLLYyS4.s 			page 327


 16743 001c 30000000 		.4byte	.LFE23-.LFB23
 16744 0020 00000000 		.4byte	.LFB5
 16745 0024 8C000000 		.4byte	.LFE5-.LFB5
 16746 0028 00000000 		.4byte	.LFB6
 16747 002c A0010000 		.4byte	.LFE6-.LFB6
 16748 0030 00000000 		.4byte	.LFB8
 16749 0034 28000000 		.4byte	.LFE8-.LFB8
 16750 0038 00000000 		.4byte	.LFB9
 16751 003c BC000000 		.4byte	.LFE9-.LFB9
 16752 0040 00000000 		.4byte	.LFB10
 16753 0044 48020000 		.4byte	.LFE10-.LFB10
 16754 0048 00000000 		.4byte	.LFB11
 16755 004c 58000000 		.4byte	.LFE11-.LFB11
 16756 0050 00000000 		.4byte	.LFB7
 16757 0054 08030000 		.4byte	.LFE7-.LFB7
 16758 0058 00000000 		.4byte	.LFB12
 16759 005c 18010000 		.4byte	.LFE12-.LFB12
 16760 0060 00000000 		.4byte	.LFB13
 16761 0064 C0020000 		.4byte	.LFE13-.LFB13
 16762 0068 00000000 		.4byte	.LFB14
 16763 006c 7C000000 		.4byte	.LFE14-.LFB14
 16764 0070 00000000 		.4byte	.LFB15
 16765 0074 08010000 		.4byte	.LFE15-.LFB15
 16766 0078 00000000 		.4byte	.LFB17
 16767 007c E8000000 		.4byte	.LFE17-.LFB17
 16768 0080 00000000 		.4byte	.LFB18
 16769 0084 F8000000 		.4byte	.LFE18-.LFB18
 16770 0088 00000000 		.4byte	.LFB19
 16771 008c 28030000 		.4byte	.LFE19-.LFB19
 16772 0090 00000000 		.4byte	.LFB20
 16773 0094 84000000 		.4byte	.LFE20-.LFB20
 16774 0098 00000000 		.4byte	.LFB21
 16775 009c CC000000 		.4byte	.LFE21-.LFB21
 16776 00a0 00000000 		.4byte	0
 16777 00a4 00000000 		.4byte	0
 16778              		.section	.debug_ranges,"",%progbits
 16779              	.Ldebug_ranges0:
 16780 0000 30000000 		.4byte	.LBB2
 16781 0004 32000000 		.4byte	.LBE2
 16782 0008 36000000 		.4byte	.LBB3
 16783 000c 58000000 		.4byte	.LBE3
 16784 0010 00000000 		.4byte	0
 16785 0014 00000000 		.4byte	0
 16786 0018 C2010000 		.4byte	.LBB5
 16787 001c C4010000 		.4byte	.LBE5
 16788 0020 C8010000 		.4byte	.LBB6
 16789 0024 10020000 		.4byte	.LBE6
 16790 0028 00000000 		.4byte	0
 16791 002c 00000000 		.4byte	0
 16792 0030 B4000000 		.4byte	.LBB25
 16793 0034 B8000000 		.4byte	.LBE25
 16794 0038 BA000000 		.4byte	.LBB28
 16795 003c BC000000 		.4byte	.LBE28
 16796 0040 00000000 		.4byte	0
 16797 0044 00000000 		.4byte	0
 16798 0048 C8000000 		.4byte	.LBB29
 16799 004c CA000000 		.4byte	.LBE29
ARM GAS  C:\Users\AHMED~1.ELE\AppData\Local\Temp\ccLLYyS4.s 			page 328


 16800 0050 D6000000 		.4byte	.LBB32
 16801 0054 BA010000 		.4byte	.LBE32
 16802 0058 00000000 		.4byte	0
 16803 005c 00000000 		.4byte	0
 16804 0060 00000000 		.4byte	.LFB16
 16805 0064 94000000 		.4byte	.LFE16
 16806 0068 00000000 		.4byte	.LFB23
 16807 006c 30000000 		.4byte	.LFE23
 16808 0070 00000000 		.4byte	.LFB5
 16809 0074 8C000000 		.4byte	.LFE5
 16810 0078 00000000 		.4byte	.LFB6
 16811 007c A0010000 		.4byte	.LFE6
 16812 0080 00000000 		.4byte	.LFB8
 16813 0084 28000000 		.4byte	.LFE8
 16814 0088 00000000 		.4byte	.LFB9
 16815 008c BC000000 		.4byte	.LFE9
 16816 0090 00000000 		.4byte	.LFB10
 16817 0094 48020000 		.4byte	.LFE10
 16818 0098 00000000 		.4byte	.LFB11
 16819 009c 58000000 		.4byte	.LFE11
 16820 00a0 00000000 		.4byte	.LFB7
 16821 00a4 08030000 		.4byte	.LFE7
 16822 00a8 00000000 		.4byte	.LFB12
 16823 00ac 18010000 		.4byte	.LFE12
 16824 00b0 00000000 		.4byte	.LFB13
 16825 00b4 C0020000 		.4byte	.LFE13
 16826 00b8 00000000 		.4byte	.LFB14
 16827 00bc 7C000000 		.4byte	.LFE14
 16828 00c0 00000000 		.4byte	.LFB15
 16829 00c4 08010000 		.4byte	.LFE15
 16830 00c8 00000000 		.4byte	.LFB17
 16831 00cc E8000000 		.4byte	.LFE17
 16832 00d0 00000000 		.4byte	.LFB18
 16833 00d4 F8000000 		.4byte	.LFE18
 16834 00d8 00000000 		.4byte	.LFB19
 16835 00dc 28030000 		.4byte	.LFE19
 16836 00e0 00000000 		.4byte	.LFB20
 16837 00e4 84000000 		.4byte	.LFE20
 16838 00e8 00000000 		.4byte	.LFB21
 16839 00ec CC000000 		.4byte	.LFE21
 16840 00f0 00000000 		.4byte	0
 16841 00f4 00000000 		.4byte	0
 16842              		.section	.debug_line,"",%progbits
 16843              	.Ldebug_line0:
 16844 0000 5F070000 		.section	.debug_str,"MS",%progbits,1
 16844      0200FA01 
 16844      00000201 
 16844      FB0E0D00 
 16844      01010101 
 16845              	.LASF449:
 16846 0000 4F535F46 		.ascii	"OS_FN_POWER\000"
 16846      4E5F504F 
 16846      57455200 
 16847              	.LASF1119:
 16848 000c 62636432 		.ascii	"bcd2bin\000"
 16848      62696E00 
 16849              	.LASF427:
ARM GAS  C:\Users\AHMED~1.ELE\AppData\Local\Temp\ccLLYyS4.s 			page 329


 16850 0014 4F535F46 		.ascii	"OS_FN_GPRS_GET_GPS_INFO\000"
 16850      4E5F4750 
 16850      52535F47 
 16850      45545F47 
 16850      50535F49 
 16851              	.LASF7:
 16852 002c 6C6F6E67 		.ascii	"long long int\000"
 16852      206C6F6E 
 16852      6720696E 
 16852      7400
 16853              	.LASF764:
 16854 003a 625F6D69 		.ascii	"b_minute\000"
 16854      6E757465 
 16854      00
 16855              	.LASF140:
 16856 0043 4F535F46 		.ascii	"OS_FN_KEY_SAVE_TMK_CBC_NC\000"
 16856      4E5F4B45 
 16856      595F5341 
 16856      56455F54 
 16856      4D4B5F43 
 16857              	.LASF890:
 16858 005d 4544435F 		.ascii	"EDC_IN_ENTER_TIPS\000"
 16858      494E5F45 
 16858      4E544552 
 16858      5F544950 
 16858      5300
 16859              	.LASF461:
 16860 006f 4F535F46 		.ascii	"OS_FN_FPRT_INFO_GET\000"
 16860      4E5F4650 
 16860      52545F49 
 16860      4E464F5F 
 16860      47455400 
 16861              	.LASF444:
 16862 0083 4F535F46 		.ascii	"OS_FN_DMK_KVC_READ\000"
 16862      4E5F444D 
 16862      4B5F4B56 
 16862      435F5245 
 16862      414400
 16863              	.LASF848:
 16864 0096 52454655 		.ascii	"REFUND\000"
 16864      4E4400
 16865              	.LASF661:
 16866 009d 73625F78 		.ascii	"sb_xapp_size\000"
 16866      6170705F 
 16866      73697A65 
 16866      00
 16867              	.LASF922:
 16868 00aa 4544435F 		.ascii	"EDC_FN_NO_REV\000"
 16868      464E5F4E 
 16868      4F5F5245 
 16868      5600
 16869              	.LASF138:
 16870 00b8 4F535F46 		.ascii	"OS_FN_KEY_SAVE_TMK_NC\000"
 16870      4E5F4B45 
 16870      595F5341 
 16870      56455F54 
 16870      4D4B5F4E 
ARM GAS  C:\Users\AHMED~1.ELE\AppData\Local\Temp\ccLLYyS4.s 			page 330


 16871              	.LASF1168:
 16872 00ce 49434349 		.ascii	"ICCInserted\000"
 16872      6E736572 
 16872      74656400 
 16873              	.LASF847:
 16874 00da 4F4E4C5F 		.ascii	"ONL_REFUND_MNL\000"
 16874      52454655 
 16874      4E445F4D 
 16874      4E4C00
 16875              	.LASF440:
 16876 00e9 4F535F46 		.ascii	"OS_FN_HD_CONFIG\000"
 16876      4E5F4844 
 16876      5F434F4E 
 16876      46494700 
 16877              	.LASF252:
 16878 00f9 4F535F46 		.ascii	"OS_FN_USBSER_OPEN\000"
 16878      4E5F5553 
 16878      42534552 
 16878      5F4F5045 
 16878      4E00
 16879              	.LASF202:
 16880 010b 4F535F46 		.ascii	"OS_FN_FILE_READDIR\000"
 16880      4E5F4649 
 16880      4C455F52 
 16880      45414444 
 16880      495200
 16881              	.LASF300:
 16882 011e 4F535F46 		.ascii	"OS_FN_GPRS_STATUS\000"
 16882      4E5F4750 
 16882      52535F53 
 16882      54415455 
 16882      5300
 16883              	.LASF6:
 16884 0130 6C6F6E67 		.ascii	"long unsigned int\000"
 16884      20756E73 
 16884      69676E65 
 16884      6420696E 
 16884      7400
 16885              	.LASF1021:
 16886 0142 54585F44 		.ascii	"TX_DATA\000"
 16886      41544100 
 16887              	.LASF765:
 16888 014a 625F7365 		.ascii	"b_second\000"
 16888      636F6E64 
 16888      00
 16889              	.LASF757:
 16890 0153 73625F74 		.ascii	"sb_text\000"
 16890      65787400 
 16891              	.LASF763:
 16892 015b 625F686F 		.ascii	"b_hour\000"
 16892      757200
 16893              	.LASF796:
 16894 0162 735F6963 		.ascii	"s_icc_data\000"
 16894      635F6461 
 16894      746100
 16895              	.LASF244:
 16896 016d 4F535F46 		.ascii	"OS_FN_MSR_GETC\000"
ARM GAS  C:\Users\AHMED~1.ELE\AppData\Local\Temp\ccLLYyS4.s 			page 331


 16896      4E5F4D53 
 16896      525F4745 
 16896      544300
 16897              	.LASF251:
 16898 017c 4F535F46 		.ascii	"OS_FN_LPT_STATUS\000"
 16898      4E5F4C50 
 16898      545F5354 
 16898      41545553 
 16898      00
 16899              	.LASF627:
 16900 018d 73625F70 		.ascii	"sb_pri_no\000"
 16900      72695F6E 
 16900      6F00
 16901              	.LASF861:
 16902 0197 4553414C 		.ascii	"ESALE_COMPLETE\000"
 16902      455F434F 
 16902      4D504C45 
 16902      544500
 16903              	.LASF211:
 16904 01a6 4F535F46 		.ascii	"OS_FN_CONFIG_UPDATE\000"
 16904      4E5F434F 
 16904      4E464947 
 16904      5F555044 
 16904      41544500 
 16905              	.LASF1047:
 16906 01ba 6150414E 		.ascii	"aPAN\000"
 16906      00
 16907              	.LASF334:
 16908 01bf 4F535F46 		.ascii	"OS_FN_CLICC_EMV_LV1\000"
 16908      4E5F434C 
 16908      4943435F 
 16908      454D565F 
 16908      4C563100 
 16909              	.LASF469:
 16910 01d3 4F535F46 		.ascii	"OS_FN_GCM_AES_FINISH\000"
 16910      4E5F4743 
 16910      4D5F4145 
 16910      535F4649 
 16910      4E495348 
 16911              	.LASF1170:
 16912 01e8 454D5654 		.ascii	"EMVTrans\000"
 16912      72616E73 
 16912      00
 16913              	.LASF184:
 16914 01f1 4F535F46 		.ascii	"OS_FN_FILE_PUTC\000"
 16914      4E5F4649 
 16914      4C455F50 
 16914      55544300 
 16915              	.LASF42:
 16916 0201 4F535F46 		.ascii	"OS_FN_RTC_GET\000"
 16916      4E5F5254 
 16916      435F4745 
 16916      5400
 16917              	.LASF1126:
 16918 020f 6D656D73 		.ascii	"memset\000"
 16918      657400
 16919              	.LASF378:
ARM GAS  C:\Users\AHMED~1.ELE\AppData\Local\Temp\ccLLYyS4.s 			page 332


 16920 0216 4F535F46 		.ascii	"OS_FN_MIF_CLOSE\000"
 16920      4E5F4D49 
 16920      465F434C 
 16920      4F534500 
 16921              	.LASF402:
 16922 0226 4F535F46 		.ascii	"OS_FN_BARCODE_CLOSE\000"
 16922      4E5F4241 
 16922      52434F44 
 16922      455F434C 
 16922      4F534500 
 16923              	.LASF468:
 16924 023a 4F535F46 		.ascii	"OS_FN_GCM_AES_PROCESS\000"
 16924      4E5F4743 
 16924      4D5F4145 
 16924      535F5052 
 16924      4F434553 
 16925              	.LASF636:
 16926 0250 73625F74 		.ascii	"sb_trace_no\000"
 16926      72616365 
 16926      5F6E6F00 
 16927              	.LASF974:
 16928 025c 4544435F 		.ascii	"EDC_RSP_DATA_ERROR\000"
 16928      5253505F 
 16928      44415441 
 16928      5F455252 
 16928      4F5200
 16929              	.LASF673:
 16930 026f 625F6368 		.ascii	"b_checkin_pri_conn_time\000"
 16930      65636B69 
 16930      6E5F7072 
 16930      695F636F 
 16930      6E6E5F74 
 16931              	.LASF911:
 16932 0287 4544435F 		.ascii	"EDC_AJ_TXN_VOIDED\000"
 16932      414A5F54 
 16932      584E5F56 
 16932      4F494445 
 16932      4400
 16933              	.LASF768:
 16934 0299 625F6169 		.ascii	"b_aid_len\000"
 16934      645F6C65 
 16934      6E00
 16935              	.LASF1145:
 16936 02a3 44697370 		.ascii	"DispHeader\000"
 16936      48656164 
 16936      657200
 16937              	.LASF1073:
 16938 02ae 73636F64 		.ascii	"scode\000"
 16938      6500
 16939              	.LASF447:
 16940 02b4 4F535F46 		.ascii	"OS_FN_RMB_CONTROL\000"
 16940      4E5F524D 
 16940      425F434F 
 16940      4E54524F 
 16940      4C00
 16941              	.LASF735:
 16942 02c6 73625F70 		.ascii	"sb_pri_settle_tel\000"
ARM GAS  C:\Users\AHMED~1.ELE\AppData\Local\Temp\ccLLYyS4.s 			page 333


 16942      72695F73 
 16942      6574746C 
 16942      655F7465 
 16942      6C00
 16943              	.LASF734:
 16944 02d8 625F7365 		.ascii	"b_sec_trans_redial\000"
 16944      635F7472 
 16944      616E735F 
 16944      72656469 
 16944      616C00
 16945              	.LASF504:
 16946 02eb 625F636C 		.ascii	"b_cla\000"
 16946      6100
 16947              	.LASF1070:
 16948 02f1 54726B32 		.ascii	"Trk2Ready\000"
 16948      52656164 
 16948      7900
 16949              	.LASF1035:
 16950 02fb 6E616D65 		.ascii	"name\000"
 16950      00
 16951              	.LASF46:
 16952 0300 4F535F46 		.ascii	"OS_FN_DISP_PUTC\000"
 16952      4E5F4449 
 16952      53505F50 
 16952      55544300 
 16953              	.LASF865:
 16954 0310 54455354 		.ascii	"TEST_MSG\000"
 16954      5F4D5347 
 16954      00
 16955              	.LASF50:
 16956 0319 4F535F46 		.ascii	"OS_FN_DISP_PUTG\000"
 16956      4E5F4449 
 16956      53505F50 
 16956      55544700 
 16957              	.LASF705:
 16958 0329 61706E5F 		.ascii	"apn_username\000"
 16958      75736572 
 16958      6E616D65 
 16958      00
 16959              	.LASF48:
 16960 0336 4F535F46 		.ascii	"OS_FN_DISP_PUTN\000"
 16960      4E5F4449 
 16960      53505F50 
 16960      55544E00 
 16961              	.LASF442:
 16962 0346 4F535F46 		.ascii	"OS_FN_DUMMY\000"
 16962      4E5F4455 
 16962      4D4D5900 
 16963              	.LASF51:
 16964 0352 4F535F46 		.ascii	"OS_FN_DISP_PUTP\000"
 16964      4E5F4449 
 16964      53505F50 
 16964      55545000 
 16965              	.LASF47:
 16966 0362 4F535F46 		.ascii	"OS_FN_DISP_PUTS\000"
 16966      4E5F4449 
 16966      53505F50 
ARM GAS  C:\Users\AHMED~1.ELE\AppData\Local\Temp\ccLLYyS4.s 			page 334


 16966      55545300 
 16967              	.LASF708:
 16968 0372 61706E32 		.ascii	"apn2_password\000"
 16968      5F706173 
 16968      73776F72 
 16968      6400
 16969              	.LASF540:
 16970 0380 5343484E 		.ascii	"SCHNLSETUPMW\000"
 16970      4C534554 
 16970      55504D57 
 16970      00
 16971              	.LASF722:
 16972 038d 73625F72 		.ascii	"sb_ref_tel_no\000"
 16972      65665F74 
 16972      656C5F6E 
 16972      6F00
 16973              	.LASF1026:
 16974 039b 625F7265 		.ascii	"b_response\000"
 16974      73706F6E 
 16974      736500
 16975              	.LASF776:
 16976 03a6 625F7472 		.ascii	"b_trans\000"
 16976      616E7300 
 16977              	.LASF704:
 16978 03ae 73625F70 		.ascii	"sb_psw_void\000"
 16978      73775F76 
 16978      6F696400 
 16979              	.LASF505:
 16980 03ba 625F636D 		.ascii	"b_cmd\000"
 16980      6400
 16981              	.LASF508:
 16982 03c0 4D575F54 		.ascii	"MW_TRK1BUF\000"
 16982      524B3142 
 16982      554600
 16983              	.LASF428:
 16984 03cb 4F535F46 		.ascii	"OS_FN_GPS_CMD\000"
 16984      4E5F4750 
 16984      535F434D 
 16984      4400
 16985              	.LASF238:
 16986 03d9 4F535F46 		.ascii	"OS_FN_LAN_READ\000"
 16986      4E5F4C41 
 16986      4E5F5245 
 16986      414400
 16987              	.LASF850:
 16988 03e8 53414C45 		.ascii	"SALE_COMPLETE\000"
 16988      5F434F4D 
 16988      504C4554 
 16988      4500
 16989              	.LASF589:
 16990 03f6 41504D5F 		.ascii	"APM_GETLOGOCOUNT\000"
 16990      4745544C 
 16990      4F474F43 
 16990      4F554E54 
 16990      00
 16991              	.LASF880:
 16992 0407 4544435F 		.ascii	"EDC_CN_SETTLE\000"
ARM GAS  C:\Users\AHMED~1.ELE\AppData\Local\Temp\ccLLYyS4.s 			page 335


 16992      434E5F53 
 16992      4554544C 
 16992      4500
 16993              	.LASF985:
 16994 0415 4544435F 		.ascii	"EDC_RSP_CARD_BLOCKED\000"
 16994      5253505F 
 16994      43415244 
 16994      5F424C4F 
 16994      434B4544 
 16995              	.LASF276:
 16996 042a 4F535F46 		.ascii	"OS_FN_MDM_CLOSE\000"
 16996      4E5F4D44 
 16996      4D5F434C 
 16996      4F534500 
 16997              	.LASF997:
 16998 043a 4544435F 		.ascii	"EDC_SE_SALE_TOTAL\000"
 16998      53455F53 
 16998      414C455F 
 16998      544F5441 
 16998      4C00
 16999              	.LASF21:
 17000 044c 734C656E 		.ascii	"sLen\000"
 17000      00
 17001              	.LASF655:
 17002 0451 73625F65 		.ascii	"sb_emvapp_size\000"
 17002      6D766170 
 17002      705F7369 
 17002      7A6500
 17003              	.LASF630:
 17004 0460 73625F73 		.ascii	"sb_sec_no\000"
 17004      65635F6E 
 17004      6F00
 17005              	.LASF723:
 17006 046a 625F6465 		.ascii	"b_default_acc\000"
 17006      6661756C 
 17006      745F6163 
 17006      6300
 17007              	.LASF1052:
 17008 0478 73746F70 		.ascii	"stop\000"
 17008      00
 17009              	.LASF1022:
 17010 047d 73625F70 		.ascii	"sb_proc_code\000"
 17010      726F635F 
 17010      636F6465 
 17010      00
 17011              	.LASF616:
 17012 048a 41504D5F 		.ascii	"APM_SELAPP\000"
 17012      53454C41 
 17012      505000
 17013              	.LASF675:
 17014 0495 73625F63 		.ascii	"sb_checkin_sec_no\000"
 17014      6865636B 
 17014      696E5F73 
 17014      65635F6E 
 17014      6F00
 17015              	.LASF67:
 17016 04a7 4F535F46 		.ascii	"OS_FN_COM1_TXRDY\000"
ARM GAS  C:\Users\AHMED~1.ELE\AppData\Local\Temp\ccLLYyS4.s 			page 336


 17016      4E5F434F 
 17016      4D315F54 
 17016      58524459 
 17016      00
 17017              	.LASF119:
 17018 04b8 4F535F46 		.ascii	"OS_FN_SM2_ENCRYPT\000"
 17018      4E5F534D 
 17018      325F454E 
 17018      43525950 
 17018      5400
 17019              	.LASF12:
 17020 04ca 424F4F4C 		.ascii	"BOOLEAN\000"
 17020      45414E00 
 17021              	.LASF1072:
 17022 04d2 43617264 		.ascii	"CardServiceCode\000"
 17022      53657276 
 17022      69636543 
 17022      6F646500 
 17023              	.LASF753:
 17024 04e2 625F7065 		.ascii	"b_pending\000"
 17024      6E64696E 
 17024      6700
 17025              	.LASF26:
 17026 04ec 4F535F46 		.ascii	"OS_FN_RAND_UPDATE\000"
 17026      4E5F5241 
 17026      4E445F55 
 17026      50444154 
 17026      4500
 17027              	.LASF1143:
 17028 04fe 4572726F 		.ascii	"ErrorDelay\000"
 17028      7244656C 
 17028      617900
 17029              	.LASF485:
 17030 0509 4F535F46 		.ascii	"OS_FN_GPRS_IS_HL6RD_OLD_FRM\000"
 17030      4E5F4750 
 17030      52535F49 
 17030      535F484C 
 17030      3652445F 
 17031              	.LASF1157:
 17032 0525 53616C65 		.ascii	"SaleOfflTrans\000"
 17032      4F66666C 
 17032      5472616E 
 17032      7300
 17033              	.LASF124:
 17034 0533 4F535F46 		.ascii	"OS_FN_SM4_SET_KEY\000"
 17034      4E5F534D 
 17034      345F5345 
 17034      545F4B45 
 17034      5900
 17035              	.LASF836:
 17036 0545 735F4354 		.ascii	"s_CTLOut\000"
 17036      4C4F7574 
 17036      00
 17037              	.LASF416:
 17038 054e 4F535F46 		.ascii	"OS_FN_NFC_SEND_FELICA_COMMAND\000"
 17038      4E5F4E46 
 17038      435F5345 
ARM GAS  C:\Users\AHMED~1.ELE\AppData\Local\Temp\ccLLYyS4.s 			page 337


 17038      4E445F46 
 17038      454C4943 
 17039              	.LASF1003:
 17040 056c 4544435F 		.ascii	"EDC_EMV_PROCESSING\000"
 17040      454D565F 
 17040      50524F43 
 17040      45535349 
 17040      4E4700
 17041              	.LASF898:
 17042 057f 4544435F 		.ascii	"EDC_IN_INVALID_CARD\000"
 17042      494E5F49 
 17042      4E56414C 
 17042      49445F43 
 17042      41524400 
 17043              	.LASF682:
 17044 0593 5445524D 		.ascii	"TERM_CFG\000"
 17044      5F434647 
 17044      00
 17045              	.LASF451:
 17046 059c 4F535F46 		.ascii	"OS_FN_DMK_INJECT\000"
 17046      4E5F444D 
 17046      4B5F494E 
 17046      4A454354 
 17046      00
 17047              	.LASF1144:
 17048 05ad 4C6F6E67 		.ascii	"LongBeep\000"
 17048      42656570 
 17048      00
 17049              	.LASF633:
 17050 05b6 625F6173 		.ascii	"b_async_delay\000"
 17050      796E635F 
 17050      64656C61 
 17050      7900
 17051              	.LASF381:
 17052 05c4 4F535F46 		.ascii	"OS_FN_MIF_CARD_TYPE\000"
 17052      4E5F4D49 
 17052      465F4341 
 17052      52445F54 
 17052      59504500 
 17053              	.LASF179:
 17054 05d8 4F535F46 		.ascii	"OS_FN_FILE_DELETE\000"
 17054      4E5F4649 
 17054      4C455F44 
 17054      454C4554 
 17054      4500
 17055              	.LASF592:
 17056 05ea 41504D5F 		.ascii	"APM_GETEXPARAM\000"
 17056      47455445 
 17056      58504152 
 17056      414D00
 17057              	.LASF1004:
 17058 05f9 4544435F 		.ascii	"EDC_EMV_SEL_APP\000"
 17058      454D565F 
 17058      53454C5F 
 17058      41505000 
 17059              	.LASF526:
 17060 0609 464C454E 		.ascii	"FLENGTHMW\000"
ARM GAS  C:\Users\AHMED~1.ELE\AppData\Local\Temp\ccLLYyS4.s 			page 338


 17060      4754484D 
 17060      5700
 17061              	.LASF1097:
 17062 0613 47657445 		.ascii	"GetEcrRef\000"
 17062      63725265 
 17062      6600
 17063              	.LASF1133:
 17064 061d 636F6D70 		.ascii	"compress\000"
 17064      72657373 
 17064      00
 17065              	.LASF1083:
 17066 0626 73746172 		.ascii	"start_offset\000"
 17066      745F6F66 
 17066      66736574 
 17066      00
 17067              	.LASF607:
 17068 0633 41504D5F 		.ascii	"APM_GET_BATCH_REC\000"
 17068      4745545F 
 17068      42415443 
 17068      485F5245 
 17068      4300
 17069              	.LASF773:
 17070 0645 775F6D69 		.ascii	"w_misc_len\000"
 17070      73635F6C 
 17070      656E00
 17071              	.LASF724:
 17072 0650 73625F70 		.ascii	"sb_pan_format\000"
 17072      616E5F66 
 17072      6F726D61 
 17072      7400
 17073              	.LASF87:
 17074 065e 4F535F46 		.ascii	"OS_FN_COM3_SEND\000"
 17074      4E5F434F 
 17074      4D335F53 
 17074      454E4400 
 17075              	.LASF981:
 17076 066e 4544435F 		.ascii	"EDC_RSP_NO_DIALTONE\000"
 17076      5253505F 
 17076      4E4F5F44 
 17076      49414C54 
 17076      4F4E4500 
 17077              	.LASF1025:
 17078 0682 5253505F 		.ascii	"RSP_DATA\000"
 17078      44415441 
 17078      00
 17079              	.LASF561:
 17080 068b 46545255 		.ascii	"FTRUNCATEMW\000"
 17080      4E434154 
 17080      454D5700 
 17081              	.LASF887:
 17082 0697 4544435F 		.ascii	"EDC_IN_APP_CODE\000"
 17082      494E5F41 
 17082      50505F43 
 17082      4F444500 
 17083              	.LASF747:
 17084 06a7 73625F76 		.ascii	"sb_visa1_term_id\000"
 17084      69736131 
ARM GAS  C:\Users\AHMED~1.ELE\AppData\Local\Temp\ccLLYyS4.s 			page 339


 17084      5F746572 
 17084      6D5F6964 
 17084      00
 17085              	.LASF515:
 17086 06b8 52454144 		.ascii	"READMW\000"
 17086      4D5700
 17087              	.LASF812:
 17088 06bf 735F7465 		.ascii	"s_term_cfg\000"
 17088      726D5F63 
 17088      666700
 17089              	.LASF192:
 17090 06ca 4F535F46 		.ascii	"OS_FN_FILE_ACTIVATE\000"
 17090      4E5F4649 
 17090      4C455F41 
 17090      43544956 
 17090      41544500 
 17091              	.LASF310:
 17092 06de 4F535F46 		.ascii	"OS_FN_GPRS_SMS_ACK\000"
 17092      4E5F4750 
 17092      52535F53 
 17092      4D535F41 
 17092      434B00
 17093              	.LASF885:
 17094 06f1 4544435F 		.ascii	"EDC_IN_SWIPE_CARD\000"
 17094      494E5F53 
 17094      57495045 
 17094      5F434152 
 17094      4400
 17095              	.LASF621:
 17096 0703 7362436F 		.ascii	"sbContent\000"
 17096      6E74656E 
 17096      7400
 17097              	.LASF472:
 17098 070d 4F535F46 		.ascii	"OS_FN_WIFI_SOCKET_CONNECT\000"
 17098      4E5F5749 
 17098      46495F53 
 17098      4F434B45 
 17098      545F434F 
 17099              	.LASF1085:
 17100 0727 70726F64 		.ascii	"product_select\000"
 17100      7563745F 
 17100      73656C65 
 17100      637400
 17101              	.LASF90:
 17102 0736 4F535F46 		.ascii	"OS_FN_COM3_SSEND\000"
 17102      4E5F434F 
 17102      4D335F53 
 17102      53454E44 
 17102      00
 17103              	.LASF110:
 17104 0747 4F535F46 		.ascii	"OS_FN_SHA_FINISH\000"
 17104      4E5F5348 
 17104      415F4649 
 17104      4E495348 
 17104      00
 17105              	.LASF254:
 17106 0758 4F535F46 		.ascii	"OS_FN_USBSER_READ\000"
ARM GAS  C:\Users\AHMED~1.ELE\AppData\Local\Temp\ccLLYyS4.s 			page 340


 17106      4E5F5553 
 17106      42534552 
 17106      5F524541 
 17106      4400
 17107              	.LASF308:
 17108 076a 4F535F46 		.ascii	"OS_FN_GPRS_READ_USSD\000"
 17108      4E5F4750 
 17108      52535F52 
 17108      4541445F 
 17108      55535344 
 17109              	.LASF643:
 17110 077f 625F7265 		.ascii	"b_return_timeout\000"
 17110      7475726E 
 17110      5F74696D 
 17110      656F7574 
 17110      00
 17111              	.LASF463:
 17112 0790 4F535F46 		.ascii	"OS_FN_ECC_PUBKEY_VERIFY\000"
 17112      4E5F4543 
 17112      435F5055 
 17112      424B4559 
 17112      5F564552 
 17113              	.LASF641:
 17114 07a8 625F656D 		.ascii	"b_emv_enable\000"
 17114      765F656E 
 17114      61626C65 
 17114      00
 17115              	.LASF804:
 17116 07b5 645F6164 		.ascii	"d_adjust_count\000"
 17116      6A757374 
 17116      5F636F75 
 17116      6E7400
 17117              	.LASF1024:
 17118 07c4 73625F6F 		.ascii	"sb_org_trace_no\000"
 17118      72675F74 
 17118      72616365 
 17118      5F6E6F00 
 17119              	.LASF355:
 17120 07d4 4F535F46 		.ascii	"OS_FN_DEVICE_SEARCH_INIT\000"
 17120      4E5F4445 
 17120      56494345 
 17120      5F534541 
 17120      5243485F 
 17121              	.LASF843:
 17122 07ed 41555448 		.ascii	"AUTH_MANUAL\000"
 17122      5F4D414E 
 17122      55414C00 
 17123              	.LASF351:
 17124 07f9 4F535F46 		.ascii	"OS_FN_DEVICE_REGISTER\000"
 17124      4E5F4445 
 17124      56494345 
 17124      5F524547 
 17124      49535445 
 17125              	.LASF960:
 17126 080f 4544435F 		.ascii	"EDC_RSP_BATCH_NOT_FOUND\000"
 17126      5253505F 
 17126      42415443 
ARM GAS  C:\Users\AHMED~1.ELE\AppData\Local\Temp\ccLLYyS4.s 			page 341


 17126      485F4E4F 
 17126      545F464F 
 17127              	.LASF455:
 17128 0827 4F535F46 		.ascii	"OS_FN_LPT_RESET_COUNT\000"
 17128      4E5F4C50 
 17128      545F5245 
 17128      5345545F 
 17128      434F554E 
 17129              	.LASF535:
 17130 083d 4445534B 		.ascii	"DESKEYMW\000"
 17130      45594D57 
 17130      00
 17131              	.LASF886:
 17132 0846 4544435F 		.ascii	"EDC_IN_CORRECT\000"
 17132      494E5F43 
 17132      4F525245 
 17132      435400
 17133              	.LASF971:
 17134 0855 4544435F 		.ascii	"EDC_RSP_CTL_OCARD\000"
 17134      5253505F 
 17134      43544C5F 
 17134      4F434152 
 17134      4400
 17135              	.LASF225:
 17136 0867 4F535F46 		.ascii	"OS_FN_MMC_BLK_READ\000"
 17136      4E5F4D4D 
 17136      435F424C 
 17136      4B5F5245 
 17136      414400
 17137              	.LASF232:
 17138 087a 4F535F46 		.ascii	"OS_FN_SLE_HIST\000"
 17138      4E5F534C 
 17138      455F4849 
 17138      535400
 17139              	.LASF624:
 17140 0889 625F6469 		.ascii	"b_disp_contrast\000"
 17140      73705F63 
 17140      6F6E7472 
 17140      61737400 
 17141              	.LASF70:
 17142 0899 4F535F46 		.ascii	"OS_FN_COM1_STATUS\000"
 17142      4E5F434F 
 17142      4D315F53 
 17142      54415455 
 17142      5300
 17143              	.LASF966:
 17144 08ab 4544435F 		.ascii	"EDC_RSP_OTHER_REASON\000"
 17144      5253505F 
 17144      4F544845 
 17144      525F5245 
 17144      41534F4E 
 17145              	.LASF186:
 17146 08c0 4F535F46 		.ascii	"OS_FN_FILE_LENGTH\000"
 17146      4E5F4649 
 17146      4C455F4C 
 17146      454E4754 
 17146      4800
ARM GAS  C:\Users\AHMED~1.ELE\AppData\Local\Temp\ccLLYyS4.s 			page 342


 17147              	.LASF542:
 17148 08d2 4C4C5345 		.ascii	"LLSEEKMW\000"
 17148      454B4D57 
 17148      00
 17149              	.LASF1151:
 17150 08db 4F6E4465 		.ascii	"OnDevice\000"
 17150      76696365 
 17150      00
 17151              	.LASF551:
 17152 08e4 44495350 		.ascii	"DISP_PUTGMW\000"
 17152      5F505554 
 17152      474D5700 
 17153              	.LASF907:
 17154 08f0 4544435F 		.ascii	"EDC_AJ_ENTER_NTIP\000"
 17154      414A5F45 
 17154      4E544552 
 17154      5F4E5449 
 17154      5000
 17155              	.LASF102:
 17156 0902 4F535F46 		.ascii	"OS_FN_AES_ENCRYPT_BLOCK\000"
 17156      4E5F4145 
 17156      535F454E 
 17156      43525950 
 17156      545F424C 
 17157              	.LASF669:
 17158 091a 73625F70 		.ascii	"sb_ppp_ip\000"
 17158      70705F69 
 17158      7000
 17159              	.LASF598:
 17160 0924 41504D5F 		.ascii	"APM_SETROC\000"
 17160      53455452 
 17160      4F4300
 17161              	.LASF97:
 17162 092f 4F535F46 		.ascii	"OS_FN_NEW_DES\000"
 17162      4E5F4E45 
 17162      575F4445 
 17162      5300
 17163              	.LASF522:
 17164 093d 46435245 		.ascii	"FCREATEMW\000"
 17164      4154454D 
 17164      5700
 17165              	.LASF1019:
 17166 0947 625F6361 		.ascii	"b_card_expired\000"
 17166      72645F65 
 17166      78706972 
 17166      656400
 17167              	.LASF605:
 17168 0956 41504D5F 		.ascii	"APM_BATCH_FULL\000"
 17168      42415443 
 17168      485F4655 
 17168      4C4C00
 17169              	.LASF396:
 17170 0965 4F535F46 		.ascii	"OS_FN_MIF_SNO\000"
 17170      4E5F4D49 
 17170      465F534E 
 17170      4F00
 17171              	.LASF545:
ARM GAS  C:\Users\AHMED~1.ELE\AppData\Local\Temp\ccLLYyS4.s 			page 343


 17172 0973 44495350 		.ascii	"DISP_CLRLINEMW\000"
 17172      5F434C52 
 17172      4C494E45 
 17172      4D5700
 17173              	.LASF83:
 17174 0982 4F535F46 		.ascii	"OS_FN_COM3_CLOSE\000"
 17174      4E5F434F 
 17174      4D335F43 
 17174      4C4F5345 
 17174      00
 17175              	.LASF603:
 17176 0993 41504D5F 		.ascii	"APM_TERMDATA_UPD\000"
 17176      5445524D 
 17176      44415441 
 17176      5F555044 
 17176      00
 17177              	.LASF619:
 17178 09a4 41504D5F 		.ascii	"APM_FUNC_COUNT\000"
 17178      46554E43 
 17178      5F434F55 
 17178      4E5400
 17179              	.LASF294:
 17180 09b3 4F535F46 		.ascii	"OS_FN_BATT_CONTROL\000"
 17180      4E5F4241 
 17180      54545F43 
 17180      4F4E5452 
 17180      4F4C00
 17181              	.LASF560:
 17182 09c6 4652454E 		.ascii	"FRENAMEMW\000"
 17182      414D454D 
 17182      5700
 17183              	.LASF678:
 17184 09d0 625F696E 		.ascii	"b_init_fallback\000"
 17184      69745F66 
 17184      616C6C62 
 17184      61636B00 
 17185              	.LASF390:
 17186 09e0 4F535F46 		.ascii	"OS_FN_MIF_WRITE\000"
 17186      4E5F4D49 
 17186      465F5752 
 17186      49544500 
 17187              	.LASF503:
 17188 09f0 434C5F49 		.ascii	"CL_IO\000"
 17188      4F00
 17189              	.LASF516:
 17190 09f6 57524954 		.ascii	"WRITEMW\000"
 17190      454D5700 
 17191              	.LASF459:
 17192 09fe 4F535F46 		.ascii	"OS_FN_FPRT_SCAN_IMG\000"
 17192      4E5F4650 
 17192      52545F53 
 17192      43414E5F 
 17192      494D4700 
 17193              	.LASF1060:
 17194 0a12 6D61785F 		.ascii	"max_issuer\000"
 17194      69737375 
 17194      657200
ARM GAS  C:\Users\AHMED~1.ELE\AppData\Local\Temp\ccLLYyS4.s 			page 344


 17195              	.LASF39:
 17196 0a1d 4F535F46 		.ascii	"OS_FN_BUZ_CLOSE\000"
 17196      4E5F4255 
 17196      5A5F434C 
 17196      4F534500 
 17197              	.LASF25:
 17198 0a2d 4F535F46 		.ascii	"OS_FN_RAND\000"
 17198      4E5F5241 
 17198      4E4400
 17199              	.LASF644:
 17200 0a38 775F7472 		.ascii	"w_training_status\000"
 17200      61696E69 
 17200      6E675F73 
 17200      74617475 
 17200      7300
 17201              	.LASF1065:
 17202 0a4a 7062546C 		.ascii	"pbTlv\000"
 17202      7600
 17203              	.LASF445:
 17204 0a50 4F535F46 		.ascii	"OS_FN_DLL_REQ\000"
 17204      4E5F444C 
 17204      4C5F5245 
 17204      5100
 17205              	.LASF11:
 17206 0a5e 73697A65 		.ascii	"size_t\000"
 17206      5F7400
 17207              	.LASF111:
 17208 0a65 4F535F46 		.ascii	"OS_FN_RC4_SETUP\000"
 17208      4E5F5243 
 17208      345F5345 
 17208      54555000 
 17209              	.LASF159:
 17210 0a75 4F535F46 		.ascii	"OS_FN_LED_STATUS\000"
 17210      4E5F4C45 
 17210      445F5354 
 17210      41545553 
 17210      00
 17211              	.LASF680:
 17212 0a86 625F6170 		.ascii	"b_app_list_upload\000"
 17212      705F6C69 
 17212      73745F75 
 17212      706C6F61 
 17212      6400
 17213              	.LASF117:
 17214 0a98 4F535F46 		.ascii	"OS_FN_SM2_GET_SIGNATURE\000"
 17214      4E5F534D 
 17214      325F4745 
 17214      545F5349 
 17214      474E4154 
 17215              	.LASF1148:
 17216 0ab0 44697370 		.ascii	"DispRspText\000"
 17216      52737054 
 17216      65787400 
 17217              	.LASF45:
 17218 0abc 4F535F46 		.ascii	"OS_FN_DISP_CLOSE\000"
 17218      4E5F4449 
 17218      53505F43 
ARM GAS  C:\Users\AHMED~1.ELE\AppData\Local\Temp\ccLLYyS4.s 			page 345


 17218      4C4F5345 
 17218      00
 17219              	.LASF1053:
 17220 0acd 43686563 		.ascii	"CheckCurrency\000"
 17220      6B437572 
 17220      72656E63 
 17220      7900
 17221              	.LASF671:
 17222 0adb 73625F73 		.ascii	"sb_server_key\000"
 17222      65727665 
 17222      725F6B65 
 17222      7900
 17223              	.LASF1167:
 17224 0ae9 434C5F43 		.ascii	"CL_Close\000"
 17224      6C6F7365 
 17224      00
 17225              	.LASF193:
 17226 0af2 4F535F46 		.ascii	"OS_FN_FILE_GET_NAME\000"
 17226      4E5F4649 
 17226      4C455F47 
 17226      45545F4E 
 17226      414D4500 
 17227              	.LASF862:
 17228 0b06 53414C45 		.ascii	"SALE_CTL\000"
 17228      5F43544C 
 17228      00
 17229              	.LASF870:
 17230 0b0f 4544435F 		.ascii	"EDC_CO_REMOVE_ICC\000"
 17230      434F5F52 
 17230      454D4F56 
 17230      455F4943 
 17230      4300
 17231              	.LASF744:
 17232 0b21 625F7469 		.ascii	"b_timeout_val\000"
 17232      6D656F75 
 17232      745F7661 
 17232      6C00
 17233              	.LASF318:
 17234 0b2f 4F535F46 		.ascii	"OS_FN_TPAD_CPOS\000"
 17234      4E5F5450 
 17234      41445F43 
 17234      504F5300 
 17235              	.LASF411:
 17236 0b3f 4F535F46 		.ascii	"OS_FN_WIFI_RECV_RESPONSE\000"
 17236      4E5F5749 
 17236      46495F52 
 17236      4543565F 
 17236      52455350 
 17237              	.LASF126:
 17238 0b58 4F535F46 		.ascii	"OS_FN_SM4_DECRYPT\000"
 17238      4E5F534D 
 17238      345F4445 
 17238      43525950 
 17238      5400
 17239              	.LASF316:
 17240 0b6a 4F535F46 		.ascii	"OS_FN_TPAD_ADD_OBJ\000"
 17240      4E5F5450 
ARM GAS  C:\Users\AHMED~1.ELE\AppData\Local\Temp\ccLLYyS4.s 			page 346


 17240      41445F41 
 17240      44445F4F 
 17240      424A00
 17241              	.LASF1096:
 17242 0b7d 63746C5F 		.ascii	"ctl_ctrl\000"
 17242      6374726C 
 17242      00
 17243              	.LASF950:
 17244 0b86 4544435F 		.ascii	"EDC_RSP_CALL_CC\000"
 17244      5253505F 
 17244      43414C4C 
 17244      5F434300 
 17245              	.LASF823:
 17246 0b96 735F7465 		.ascii	"s_term_data\000"
 17246      726D5F64 
 17246      61746100 
 17247              	.LASF869:
 17248 0ba2 4544435F 		.ascii	"EDC_CO_SWIPE_INS_TAP\000"
 17248      434F5F53 
 17248      57495045 
 17248      5F494E53 
 17248      5F544150 
 17249              	.LASF419:
 17250 0bb7 4F535F46 		.ascii	"OS_FN_NFC_GET_VALID_RESP\000"
 17250      4E5F4E46 
 17250      435F4745 
 17250      545F5641 
 17250      4C49445F 
 17251              	.LASF116:
 17252 0bd0 4F535F46 		.ascii	"OS_FN_SM2_FREE_CURVE\000"
 17252      4E5F534D 
 17252      325F4652 
 17252      45455F43 
 17252      55525645 
 17253              	.LASF153:
 17254 0be5 4F535F46 		.ascii	"OS_FN_BUFMAN_ALLOC\000"
 17254      4E5F4255 
 17254      464D414E 
 17254      5F414C4C 
 17254      4F4300
 17255              	.LASF82:
 17256 0bf8 4F535F46 		.ascii	"OS_FN_COM3_OPEN\000"
 17256      4E5F434F 
 17256      4D335F4F 
 17256      50454E00 
 17257              	.LASF951:
 17258 0c08 4544435F 		.ascii	"EDC_RSP_DECLINED\000"
 17258      5253505F 
 17258      4445434C 
 17258      494E4544 
 17258      00
 17259              	.LASF868:
 17260 0c19 4544435F 		.ascii	"EDC_CO_SWIPE_INS\000"
 17260      434F5F53 
 17260      57495045 
 17260      5F494E53 
 17260      00
ARM GAS  C:\Users\AHMED~1.ELE\AppData\Local\Temp\ccLLYyS4.s 			page 347


 17261              	.LASF114:
 17262 0c2a 4F535F46 		.ascii	"OS_FN_MD4_FINISH\000"
 17262      4E5F4D44 
 17262      345F4649 
 17262      4E495348 
 17262      00
 17263              	.LASF31:
 17264 0c3b 4F535F46 		.ascii	"OS_FN_KBD_GETKEY\000"
 17264      4E5F4B42 
 17264      445F4745 
 17264      544B4559 
 17264      00
 17265              	.LASF539:
 17266 0c4c 49434349 		.ascii	"ICCINSERTEDMW\000"
 17266      4E534552 
 17266      5445444D 
 17266      5700
 17267              	.LASF341:
 17268 0c5a 4F535F46 		.ascii	"OS_FN_USBHOST_SUBMIT_BUFFER\000"
 17268      4E5F5553 
 17268      42484F53 
 17268      545F5355 
 17268      424D4954 
 17269              	.LASF109:
 17270 0c76 4F535F46 		.ascii	"OS_FN_SHA_PROCESS\000"
 17270      4E5F5348 
 17270      415F5052 
 17270      4F434553 
 17270      5300
 17271              	.LASF912:
 17272 0c88 4544435F 		.ascii	"EDC_AJ_CLOSE_BATCH\000"
 17272      414A5F43 
 17272      4C4F5345 
 17272      5F424154 
 17272      434800
 17273              	.LASF299:
 17274 0c9b 4F535F46 		.ascii	"OS_FN_GPRS_SIGNAL\000"
 17274      4E5F4750 
 17274      52535F53 
 17274      49474E41 
 17274      4C00
 17275              	.LASF1076:
 17276 0cad 64697370 		.ascii	"disp_pan\000"
 17276      5F70616E 
 17276      00
 17277              	.LASF1066:
 17278 0cb6 65637264 		.ascii	"ecrdata_len\000"
 17278      6174615F 
 17278      6C656E00 
 17279              	.LASF860:
 17280 0cc2 4553414C 		.ascii	"ESALE_UNDER_LMT\000"
 17280      455F554E 
 17280      4445525F 
 17280      4C4D5400 
 17281              	.LASF1031:
 17282 0cd2 735F7273 		.ascii	"s_rsp_data\000"
 17282      705F6461 
ARM GAS  C:\Users\AHMED~1.ELE\AppData\Local\Temp\ccLLYyS4.s 			page 348


 17282      746100
 17283              	.LASF842:
 17284 0cdd 41555448 		.ascii	"AUTH_SWIPE\000"
 17284      5F535749 
 17284      504500
 17285              	.LASF707:
 17286 0ce8 61706E32 		.ascii	"apn2_username\000"
 17286      5F757365 
 17286      726E616D 
 17286      6500
 17287              	.LASF163:
 17288 0cf6 4F535F46 		.ascii	"OS_FN_GET_CHALLENGE\000"
 17288      4E5F4745 
 17288      545F4348 
 17288      414C4C45 
 17288      4E474500 
 17289              	.LASF499:
 17290 0d0a 55534246 		.ascii	"USBFPRT_GENERAL_INFO_IMG_HEIGHT\000"
 17290      5052545F 
 17290      47454E45 
 17290      52414C5F 
 17290      494E464F 
 17291              	.LASF134:
 17292 0d2a 4F535F46 		.ascii	"OS_FN_KEY_CUP_MAC\000"
 17292      4E5F4B45 
 17292      595F4355 
 17292      505F4D41 
 17292      4300
 17293              	.LASF332:
 17294 0d3c 4F535F46 		.ascii	"OS_FN_CLICC_SENDCOMMAND\000"
 17294      4E5F434C 
 17294      4943435F 
 17294      53454E44 
 17294      434F4D4D 
 17295              	.LASF58:
 17296 0d54 4F535F46 		.ascii	"OS_FN_DISP_BL_CONTROL\000"
 17296      4E5F4449 
 17296      53505F42 
 17296      4C5F434F 
 17296      4E54524F 
 17297              	.LASF506:
 17298 0d6a 73625F63 		.ascii	"sb_content\000"
 17298      6F6E7465 
 17298      6E7400
 17299              	.LASF81:
 17300 0d75 4F535F46 		.ascii	"OS_FN_COM2_SSEND\000"
 17300      4E5F434F 
 17300      4D325F53 
 17300      53454E44 
 17300      00
 17301              	.LASF272:
 17302 0d86 4F535F46 		.ascii	"OS_FN_FL_CREAD\000"
 17302      4E5F464C 
 17302      5F435245 
 17302      414400
 17303              	.LASF1114:
 17304 0d95 47657443 		.ascii	"GetConstMsg\000"
ARM GAS  C:\Users\AHMED~1.ELE\AppData\Local\Temp\ccLLYyS4.s 			page 349


 17304      6F6E7374 
 17304      4D736700 
 17305              	.LASF957:
 17306 0da1 4544435F 		.ascii	"EDC_RSP_TOT_MISMATCH\000"
 17306      5253505F 
 17306      544F545F 
 17306      4D49534D 
 17306      41544348 
 17307              	.LASF770:
 17308 0db6 73625F74 		.ascii	"sb_tag_95\000"
 17308      61675F39 
 17308      3500
 17309              	.LASF581:
 17310 0dc0 41504D5F 		.ascii	"APM_GETCARDCOUNT\000"
 17310      47455443 
 17310      41524443 
 17310      4F554E54 
 17310      00
 17311              	.LASF1172:
 17312 0dd1 49434352 		.ascii	"ICCReaderRdy\000"
 17312      65616465 
 17312      72526479 
 17312      00
 17313              	.LASF171:
 17314 0dde 4F535F46 		.ascii	"OS_FN_REALLOC\000"
 17314      4E5F5245 
 17314      414C4C4F 
 17314      4300
 17315              	.LASF236:
 17316 0dec 4F535F46 		.ascii	"OS_FN_LAN_RXRDY\000"
 17316      4E5F4C41 
 17316      4E5F5258 
 17316      52445900 
 17317              	.LASF771:
 17318 0dfc 73625F74 		.ascii	"sb_tag_9b\000"
 17318      61675F39 
 17318      6200
 17319              	.LASF475:
 17320 0e06 4F535F46 		.ascii	"OS_FN_WIFI_SOCKET_SEND_TCP\000"
 17320      4E5F5749 
 17320      46495F53 
 17320      4F434B45 
 17320      545F5345 
 17321              	.LASF363:
 17322 0e21 4F535F46 		.ascii	"OS_FN_BUS_STOP\000"
 17322      4E5F4255 
 17322      535F5354 
 17322      4F5000
 17323              	.LASF513:
 17324 0e30 4F50454E 		.ascii	"OPENMW\000"
 17324      4D5700
 17325              	.LASF36:
 17326 0e37 4F535F46 		.ascii	"OS_FN_TIMER_SET\000"
 17326      4E5F5449 
 17326      4D45525F 
 17326      53455400 
 17327              	.LASF811:
ARM GAS  C:\Users\AHMED~1.ELE\AppData\Local\Temp\ccLLYyS4.s 			page 350


 17328 0e47 53544953 		.ascii	"STIS_DATA\000"
 17328      5F444154 
 17328      4100
 17329              	.LASF27:
 17330 0e51 4F535F46 		.ascii	"OS_FN_KBD_OPEN\000"
 17330      4E5F4B42 
 17330      445F4F50 
 17330      454E00
 17331              	.LASF993:
 17332 0e60 4544435F 		.ascii	"EDC_RSP_CALL_IC\000"
 17332      5253505F 
 17332      43414C4C 
 17332      5F494300 
 17333              	.LASF1069:
 17334 0e70 61466972 		.ascii	"aFirstKey\000"
 17334      73744B65 
 17334      7900
 17335              	.LASF689:
 17336 0e7a 73625F70 		.ascii	"sb_password\000"
 17336      61737377 
 17336      6F726400 
 17337              	.LASF976:
 17338 0e86 4544435F 		.ascii	"EDC_RSP_CALL_IP\000"
 17338      5253505F 
 17338      43414C4C 
 17338      5F495000 
 17339              	.LASF977:
 17340 0e96 4544435F 		.ascii	"EDC_RSP_CALL_IR\000"
 17340      5253505F 
 17340      43414C4C 
 17340      5F495200 
 17341              	.LASF978:
 17342 0ea6 4544435F 		.ascii	"EDC_RSP_CALL_IS\000"
 17342      5253505F 
 17342      43414C4C 
 17342      5F495300 
 17343              	.LASF979:
 17344 0eb6 4544435F 		.ascii	"EDC_RSP_CALL_IT\000"
 17344      5253505F 
 17344      43414C4C 
 17344      5F495400 
 17345              	.LASF1180:
 17346 0ec6 73797374 		.ascii	"system_call_list\000"
 17346      656D5F63 
 17346      616C6C5F 
 17346      6C697374 
 17346      00
 17347              	.LASF454:
 17348 0ed7 4F535F46 		.ascii	"OS_FN_DTIMER_LATCH_TIME\000"
 17348      4E5F4454 
 17348      494D4552 
 17348      5F4C4154 
 17348      43485F54 
 17349              	.LASF532:
 17350 0eef 46445345 		.ascii	"FDSEARCHMW\000"
 17350      41524348 
 17350      4D5700
ARM GAS  C:\Users\AHMED~1.ELE\AppData\Local\Temp\ccLLYyS4.s 			page 351


 17351              	.LASF1010:
 17352 0efa 4544435F 		.ascii	"EDC_CTL_AMT_EXCEED\000"
 17352      43544C5F 
 17352      414D545F 
 17352      45584345 
 17352      454400
 17353              	.LASF286:
 17354 0f0d 4F535F46 		.ascii	"OS_FN_MCOM_TXRDY\000"
 17354      4E5F4D43 
 17354      4F4D5F54 
 17354      58524459 
 17354      00
 17355              	.LASF424:
 17356 0f1e 4F535F46 		.ascii	"OS_FN_GPS_ON\000"
 17356      4E5F4750 
 17356      535F4F4E 
 17356      00
 17357              	.LASF157:
 17358 0f2b 4F535F46 		.ascii	"OS_FN_LED_OPEN\000"
 17358      4E5F4C45 
 17358      445F4F50 
 17358      454E00
 17359              	.LASF939:
 17360 0f3a 4544435F 		.ascii	"EDC_RSP_PICKUP_CARD\000"
 17360      5253505F 
 17360      5049434B 
 17360      55505F43 
 17360      41524400 
 17361              	.LASF74:
 17362 0f4e 4F535F46 		.ascii	"OS_FN_COM2_CLOSE\000"
 17362      4E5F434F 
 17362      4D325F43 
 17362      4C4F5345 
 17362      00
 17363              	.LASF1124:
 17364 0f5f 546C7656 		.ascii	"TlvVPtr\000"
 17364      50747200 
 17365              	.LASF930:
 17366 0f67 4544435F 		.ascii	"EDC_PN_HIGHTEMP\000"
 17366      504E5F48 
 17366      49474854 
 17366      454D5000 
 17367              	.LASF222:
 17368 0f77 4F535F46 		.ascii	"OS_FN_MMC_BLK_SIZE\000"
 17368      4E5F4D4D 
 17368      435F424C 
 17368      4B5F5349 
 17368      5A4500
 17369              	.LASF821:
 17370 0f8a 645F6C65 		.ascii	"d_len\000"
 17370      6E00
 17371              	.LASF900:
 17372 0f90 4544435F 		.ascii	"EDC_IN_ECRREF\000"
 17372      494E5F45 
 17372      43525245 
 17372      4600
 17373              	.LASF1149:
ARM GAS  C:\Users\AHMED~1.ELE\AppData\Local\Temp\ccLLYyS4.s 			page 352


 17374 0f9e 57616974 		.ascii	"WaitKey\000"
 17374      4B657900 
 17375              	.LASF984:
 17376 0fa6 4544435F 		.ascii	"EDC_RSP_READ_ERROR\000"
 17376      5253505F 
 17376      52454144 
 17376      5F455252 
 17376      4F5200
 17377              	.LASF1093:
 17378 0fb9 57616974 		.ascii	"WaitCardTrans\000"
 17378      43617264 
 17378      5472616E 
 17378      7300
 17379              	.LASF688:
 17380 0fc7 625F6469 		.ascii	"b_dial_option\000"
 17380      616C5F6F 
 17380      7074696F 
 17380      6E00
 17381              	.LASF963:
 17382 0fd5 4544435F 		.ascii	"EDC_RSP_SYS_NOT_AVAIL\000"
 17382      5253505F 
 17382      5359535F 
 17382      4E4F545F 
 17382      41564149 
 17383              	.LASF552:
 17384 0feb 4745545F 		.ascii	"GET_LCD_TYPEMW\000"
 17384      4C43445F 
 17384      54595045 
 17384      4D5700
 17385              	.LASF180:
 17386 0ffa 4F535F46 		.ascii	"OS_FN_FILE_FLUSHED\000"
 17386      4E5F4649 
 17386      4C455F46 
 17386      4C555348 
 17386      454400
 17387              	.LASF602:
 17388 100d 41504D5F 		.ascii	"APM_TERMDATA_CLR\000"
 17388      5445524D 
 17388      44415441 
 17388      5F434C52 
 17388      00
 17389              	.LASF121:
 17390 101e 4F535F46 		.ascii	"OS_FN_SM2_GET_MESS\000"
 17390      4E5F534D 
 17390      325F4745 
 17390      545F4D45 
 17390      535300
 17391              	.LASF520:
 17392 1031 4745544C 		.ascii	"GETLASTERRMW\000"
 17392      41535445 
 17392      52524D57 
 17392      00
 17393              	.LASF214:
 17394 103e 4F535F46 		.ascii	"OS_FN_SAM_SELECT\000"
 17394      4E5F5341 
 17394      4D5F5345 
 17394      4C454354 
ARM GAS  C:\Users\AHMED~1.ELE\AppData\Local\Temp\ccLLYyS4.s 			page 353


 17394      00
 17395              	.LASF703:
 17396 104f 73625F70 		.ascii	"sb_psw_refund\000"
 17396      73775F72 
 17396      6566756E 
 17396      6400
 17397              	.LASF1100:
 17398 105d 61436173 		.ascii	"aCashbackAmt\000"
 17398      68626163 
 17398      6B416D74 
 17398      00
 17399              	.LASF331:
 17400 106a 4F535F46 		.ascii	"OS_FN_CLICC_CLOSE\000"
 17400      4E5F434C 
 17400      4943435F 
 17400      434C4F53 
 17400      4500
 17401              	.LASF233:
 17402 107c 4F535F46 		.ascii	"OS_FN_SLE_IO\000"
 17402      4E5F534C 
 17402      455F494F 
 17402      00
 17403              	.LASF191:
 17404 1089 4F535F46 		.ascii	"OS_FN_FILE_DEACTIVATE\000"
 17404      4E5F4649 
 17404      4C455F44 
 17404      45414354 
 17404      49564154 
 17405              	.LASF557:
 17406 109f 534D535F 		.ascii	"SMS_TX_MW\000"
 17406      54585F4D 
 17406      5700
 17407              	.LASF694:
 17408 10a9 625F6375 		.ascii	"b_currency\000"
 17408      7272656E 
 17408      637900
 17409              	.LASF919:
 17410 10b4 4544435F 		.ascii	"EDC_FN_CARD_REC\000"
 17410      464E5F43 
 17410      4152445F 
 17410      52454300 
 17411              	.LASF131:
 17412 10c4 4F535F46 		.ascii	"OS_FN_KEY_FLUSH\000"
 17412      4E5F4B45 
 17412      595F464C 
 17412      55534800 
 17413              	.LASF830:
 17414 10d4 735F5478 		.ascii	"s_TxBuf\000"
 17414      42756600 
 17415              	.LASF632:
 17416 10dc 625F7365 		.ascii	"b_sec_redial\000"
 17416      635F7265 
 17416      6469616C 
 17416      00
 17417              	.LASF1176:
 17418 10e9 45637252 		.ascii	"EcrRefReqd\000"
 17418      65665265 
ARM GAS  C:\Users\AHMED~1.ELE\AppData\Local\Temp\ccLLYyS4.s 			page 354


 17418      716400
 17419              	.LASF732:
 17420 10f4 73625F73 		.ascii	"sb_sec_trans_tel\000"
 17420      65635F74 
 17420      72616E73 
 17420      5F74656C 
 17420      00
 17421              	.LASF874:
 17422 1105 4544435F 		.ascii	"EDC_CN_REFUND\000"
 17422      434E5F52 
 17422      4546554E 
 17422      4400
 17423              	.LASF195:
 17424 1113 4F535F46 		.ascii	"OS_FN_FILE_AUTH\000"
 17424      4E5F4649 
 17424      4C455F41 
 17424      55544800 
 17425              	.LASF829:
 17426 1123 735F4D73 		.ascii	"s_MsgBuf\000"
 17426      67427566 
 17426      00
 17427              	.LASF935:
 17428 112c 4544435F 		.ascii	"EDC_RSP_COMPLETED\000"
 17428      5253505F 
 17428      434F4D50 
 17428      4C455445 
 17428      4400
 17429              	.LASF647:
 17430 113e 625F7070 		.ascii	"b_ppad_port\000"
 17430      61645F70 
 17430      6F727400 
 17431              	.LASF340:
 17432 114a 4F535F46 		.ascii	"OS_FN_CLICC_LED_ON\000"
 17432      4E5F434C 
 17432      4943435F 
 17432      4C45445F 
 17432      4F4E00
 17433              	.LASF293:
 17434 115d 4F535F46 		.ascii	"OS_FN_BATT_TEMP\000"
 17434      4E5F4241 
 17434      54545F54 
 17434      454D5000 
 17435              	.LASF281:
 17436 116d 4F535F46 		.ascii	"OS_FN_MDM_LAST_CONN_STAT\000"
 17436      4E5F4D44 
 17436      4D5F4C41 
 17436      53545F43 
 17436      4F4E4E5F 
 17437              	.LASF135:
 17438 1186 4F535F46 		.ascii	"OS_FN_KEY_CBC_MAC\000"
 17438      4E5F4B45 
 17438      595F4342 
 17438      435F4D41 
 17438      4300
 17439              	.LASF1130:
 17440 1198 4F766572 		.ascii	"OverMargin\000"
 17440      4D617267 
ARM GAS  C:\Users\AHMED~1.ELE\AppData\Local\Temp\ccLLYyS4.s 			page 355


 17440      696E00
 17441              	.LASF1001:
 17442 11a3 4544435F 		.ascii	"EDC_SE_ENTER_REF_TOTAL\000"
 17442      53455F45 
 17442      4E544552 
 17442      5F524546 
 17442      5F544F54 
 17443              	.LASF253:
 17444 11ba 4F535F46 		.ascii	"OS_FN_USBSER_CLOSE\000"
 17444      4E5F5553 
 17444      42534552 
 17444      5F434C4F 
 17444      534500
 17445              	.LASF207:
 17446 11cd 4F535F46 		.ascii	"OS_FN_FILE_IOCTL\000"
 17446      4E5F4649 
 17446      4C455F49 
 17446      4F43544C 
 17446      00
 17447              	.LASF145:
 17448 11de 4F535F46 		.ascii	"OS_FN_THREAD_CLOSE\000"
 17448      4E5F5448 
 17448      52454144 
 17448      5F434C4F 
 17448      534500
 17449              	.LASF1175:
 17450 11f1 45637247 		.ascii	"EcrGetRef\000"
 17450      65745265 
 17450      6600
 17451              	.LASF122:
 17452 11fb 4F535F46 		.ascii	"OS_FN_SM3_ASCII\000"
 17452      4E5F534D 
 17452      335F4153 
 17452      43494900 
 17453              	.LASF376:
 17454 120b 4F535F46 		.ascii	"OS_FN_TAMPER_RESET_STATUS\000"
 17454      4E5F5441 
 17454      4D504552 
 17454      5F524553 
 17454      45545F53 
 17455              	.LASF916:
 17456 1225 4544435F 		.ascii	"EDC_FN_START_BATCH\000"
 17456      464E5F53 
 17456      54415254 
 17456      5F424154 
 17456      434800
 17457              	.LASF267:
 17458 1238 4F535F46 		.ascii	"OS_FN_FL_ERASE_END\000"
 17458      4E5F464C 
 17458      5F455241 
 17458      53455F45 
 17458      4E4400
 17459              	.LASF240:
 17460 124b 4F535F46 		.ascii	"OS_FN_LAN_STATUS\000"
 17460      4E5F4C41 
 17460      4E5F5354 
 17460      41545553 
ARM GAS  C:\Users\AHMED~1.ELE\AppData\Local\Temp\ccLLYyS4.s 			page 356


 17460      00
 17461              	.LASF748:
 17462 125c 625F7365 		.ascii	"b_settle_mdm_mode\000"
 17462      74746C65 
 17462      5F6D646D 
 17462      5F6D6F64 
 17462      6500
 17463              	.LASF86:
 17464 126e 4F535F46 		.ascii	"OS_FN_COM3_READ\000"
 17464      4E5F434F 
 17464      4D335F52 
 17464      45414400 
 17465              	.LASF362:
 17466 127e 4F535F46 		.ascii	"OS_FN_BUS_START\000"
 17466      4E5F4255 
 17466      535F5354 
 17466      41525400 
 17467              	.LASF62:
 17468 128e 4F535F46 		.ascii	"OS_FN_DISP_ICON_SET_SIGNAL_TYPE\000"
 17468      4E5F4449 
 17468      53505F49 
 17468      434F4E5F 
 17468      5345545F 
 17469              	.LASF450:
 17470 12ae 4F535F46 		.ascii	"OS_FN_CLICC_DEBUG\000"
 17470      4E5F434C 
 17470      4943435F 
 17470      44454255 
 17470      4700
 17471              	.LASF730:
 17472 12c0 625F7072 		.ascii	"b_pri_trans_conn_time\000"
 17472      695F7472 
 17472      616E735F 
 17472      636F6E6E 
 17472      5F74696D 
 17473              	.LASF795:
 17474 12d6 735F6474 		.ascii	"s_dtg\000"
 17474      6700
 17475              	.LASF973:
 17476 12dc 4544435F 		.ascii	"EDC_RSP_TXN_CANCEL\000"
 17476      5253505F 
 17476      54584E5F 
 17476      43414E43 
 17476      454C00
 17477              	.LASF198:
 17478 12ef 4F535F46 		.ascii	"OS_FN_FILE_FREESPACE\000"
 17478      4E5F4649 
 17478      4C455F46 
 17478      52454553 
 17478      50414345 
 17479              	.LASF187:
 17480 1304 4F535F46 		.ascii	"OS_FN_FILE_END\000"
 17480      4E5F4649 
 17480      4C455F45 
 17480      4E4400
 17481              	.LASF354:
 17482 1313 4F535F46 		.ascii	"OS_FN_DEVICE_IOCTL\000"
ARM GAS  C:\Users\AHMED~1.ELE\AppData\Local\Temp\ccLLYyS4.s 			page 357


 17482      4E5F4445 
 17482      56494345 
 17482      5F494F43 
 17482      544C00
 17483              	.LASF433:
 17484 1326 4F535F46 		.ascii	"OS_FN_BREG_WRITE\000"
 17484      4E5F4252 
 17484      45475F57 
 17484      52495445 
 17484      00
 17485              	.LASF511:
 17486 1337 53544152 		.ascii	"STARTUPMW\000"
 17486      5455504D 
 17486      5700
 17487              	.LASF72:
 17488 1341 4F535F46 		.ascii	"OS_FN_COM1_SSEND\000"
 17488      4E5F434F 
 17488      4D315F53 
 17488      53454E44 
 17488      00
 17489              	.LASF1155:
 17490 1352 52656672 		.ascii	"RefreshDispAfter\000"
 17490      65736844 
 17490      69737041 
 17490      66746572 
 17490      00
 17491              	.LASF1153:
 17492 1363 4F666644 		.ascii	"OffDevice\000"
 17492      65766963 
 17492      6500
 17493              	.LASF934:
 17494 136d 4544435F 		.ascii	"EDC_PN_LOW_BATT\000"
 17494      504E5F4C 
 17494      4F575F42 
 17494      41545400 
 17495              	.LASF1090:
 17496 137d 47657443 		.ascii	"GetCardNbr\000"
 17496      6172644E 
 17496      627200
 17497              	.LASF601:
 17498 1388 41504D5F 		.ascii	"APM_STIS_ADDTBL\000"
 17498      53544953 
 17498      5F414444 
 17498      54424C00 
 17499              	.LASF365:
 17500 1398 4F535F46 		.ascii	"OS_FN_NETDEV_OPEN\000"
 17500      4E5F4E45 
 17500      54444556 
 17500      5F4F5045 
 17500      4E00
 17501              	.LASF517:
 17502 13aa 4C534545 		.ascii	"LSEEKMW\000"
 17502      4B4D5700 
 17503              	.LASF611:
 17504 13b2 41504D5F 		.ascii	"APM_UPD_BAT_REC\000"
 17504      5550445F 
 17504      4241545F 
ARM GAS  C:\Users\AHMED~1.ELE\AppData\Local\Temp\ccLLYyS4.s 			page 358


 17504      52454300 
 17505              	.LASF448:
 17506 13c2 4F535F46 		.ascii	"OS_FN_APPCALL_RETURN\000"
 17506      4E5F4150 
 17506      5043414C 
 17506      4C5F5245 
 17506      5455524E 
 17507              	.LASF89:
 17508 13d7 4F535F46 		.ascii	"OS_FN_COM3_SREAD\000"
 17508      4E5F434F 
 17508      4D335F53 
 17508      52454144 
 17508      00
 17509              	.LASF587:
 17510 13e8 41504D5F 		.ascii	"APM_GETDESCCOUNT\000"
 17510      47455444 
 17510      45534343 
 17510      4F554E54 
 17510      00
 17511              	.LASF210:
 17512 13f9 4F535F46 		.ascii	"OS_FN_CONFIG_WRITE\000"
 17512      4E5F434F 
 17512      4E464947 
 17512      5F575249 
 17512      544500
 17513              	.LASF284:
 17514 140c 4F535F46 		.ascii	"OS_FN_MCOM_PERMIT\000"
 17514      4E5F4D43 
 17514      4F4D5F50 
 17514      45524D49 
 17514      5400
 17515              	.LASF247:
 17516 141e 4F535F46 		.ascii	"OS_FN_LPT_OPEN\000"
 17516      4E5F4C50 
 17516      545F4F50 
 17516      454E00
 17517              	.LASF322:
 17518 142d 4F535F46 		.ascii	"OS_FN_CODEC_OPEN\000"
 17518      4E5F434F 
 17518      4445435F 
 17518      4F50454E 
 17518      00
 17519              	.LASF333:
 17520 143e 4F535F46 		.ascii	"OS_FN_CLICC_CTRL\000"
 17520      4E5F434C 
 17520      4943435F 
 17520      4354524C 
 17520      00
 17521              	.LASF470:
 17522 144f 4F535F46 		.ascii	"OS_FN_GCM_AES_CLOSE\000"
 17522      4E5F4743 
 17522      4D5F4145 
 17522      535F434C 
 17522      4F534500 
 17523              	.LASF143:
 17524 1463 4F535F46 		.ascii	"OS_FN_PCI_DSS\000"
 17524      4E5F5043 
ARM GAS  C:\Users\AHMED~1.ELE\AppData\Local\Temp\ccLLYyS4.s 			page 359


 17524      495F4453 
 17524      5300
 17525              	.LASF844:
 17526 1471 53414C45 		.ascii	"SALE_SWIPE\000"
 17526      5F535749 
 17526      504500
 17527              	.LASF1064:
 17528 147c 6B626462 		.ascii	"kbdbuf\000"
 17528      756600
 17529              	.LASF412:
 17530 1483 4F535F46 		.ascii	"OS_FN_WIFI_STATUS\000"
 17530      4E5F5749 
 17530      46495F53 
 17530      54415455 
 17530      5300
 17531              	.LASF20:
 17532 1495 77546167 		.ascii	"wTag\000"
 17532      00
 17533              	.LASF1159:
 17534 149a 52656675 		.ascii	"RefundTrans\000"
 17534      6E645472 
 17534      616E7300 
 17535              	.LASF637:
 17536 14a6 73625F72 		.ascii	"sb_roc_no\000"
 17536      6F635F6E 
 17536      6F00
 17537              	.LASF106:
 17538 14b0 4F535F46 		.ascii	"OS_FN_MD5_PROCESS\000"
 17538      4E5F4D44 
 17538      355F5052 
 17538      4F434553 
 17538      5300
 17539              	.LASF876:
 17540 14c2 4544435F 		.ascii	"EDC_CN_SALE_COMP\000"
 17540      434E5F53 
 17540      414C455F 
 17540      434F4D50 
 17540      00
 17541              	.LASF484:
 17542 14d3 4F535F46 		.ascii	"OS_FN_GPRS_IS_HL6RD\000"
 17542      4E5F4750 
 17542      52535F49 
 17542      535F484C 
 17542      36524400 
 17543              	.LASF1080:
 17544 14e7 6D61785F 		.ascii	"max_select\000"
 17544      73656C65 
 17544      637400
 17545              	.LASF889:
 17546 14f2 4544435F 		.ascii	"EDC_IN_ENTER_AMOUNT\000"
 17546      494E5F45 
 17546      4E544552 
 17546      5F414D4F 
 17546      554E5400 
 17547              	.LASF1050:
 17548 1506 6150616E 		.ascii	"aPan\000"
 17548      00
ARM GAS  C:\Users\AHMED~1.ELE\AppData\Local\Temp\ccLLYyS4.s 			page 360


 17549              	.LASF759:
 17550 150b 625F6365 		.ascii	"b_century\000"
 17550      6E747572 
 17550      7900
 17551              	.LASF739:
 17552 1515 625F7365 		.ascii	"b_sec_settle_conn_time\000"
 17552      635F7365 
 17552      74746C65 
 17552      5F636F6E 
 17552      6E5F7469 
 17553              	.LASF181:
 17554 152c 4F535F46 		.ascii	"OS_FN_FILE_SEEK\000"
 17554      4E5F4649 
 17554      4C455F53 
 17554      45454B00 
 17555              	.LASF720:
 17556 153c 625F6964 		.ascii	"b_id\000"
 17556      00
 17557              	.LASF623:
 17558 1541 625F7374 		.ascii	"b_stis_mode\000"
 17558      69735F6D 
 17558      6F646500 
 17559              	.LASF1181:
 17560 154d 44697370 		.ascii	"DispKeyinPAN\000"
 17560      4B657969 
 17560      6E50414E 
 17560      00
 17561              	.LASF905:
 17562 155a 4544435F 		.ascii	"EDC_AJ_NOT_ALLOW\000"
 17562      414A5F4E 
 17562      4F545F41 
 17562      4C4C4F57 
 17562      00
 17563              	.LASF127:
 17564 156b 4F535F46 		.ascii	"OS_FN_KEY_SAVE\000"
 17564      4E5F4B45 
 17564      595F5341 
 17564      564500
 17565              	.LASF353:
 17566 157a 4F535F46 		.ascii	"OS_FN_DEVICE_ALLOC_MEDIA\000"
 17566      4E5F4445 
 17566      56494345 
 17566      5F414C4C 
 17566      4F435F4D 
 17567              	.LASF212:
 17568 1593 4F535F46 		.ascii	"OS_FN_SAM_OPEN\000"
 17568      4E5F5341 
 17568      4D5F4F50 
 17568      454E00
 17569              	.LASF857:
 17570 15a2 53414C45 		.ascii	"SALE_ICC\000"
 17570      5F494343 
 17570      00
 17571              	.LASF352:
 17572 15ab 4F535F46 		.ascii	"OS_FN_DEVICE_UNREGISTER\000"
 17572      4E5F4445 
 17572      56494345 
ARM GAS  C:\Users\AHMED~1.ELE\AppData\Local\Temp\ccLLYyS4.s 			page 361


 17572      5F554E52 
 17572      45474953 
 17573              	.LASF1037:
 17574 15c3 6375725F 		.ascii	"cur_info_t\000"
 17574      696E666F 
 17574      5F7400
 17575              	.LASF1179:
 17576 15ce 443A5C47 		.ascii	"D:\\GuadianPro\\Core\\S_MISR\\APP\\MISR\000"
 17576      75616469 
 17576      616E5072 
 17576      6F5C436F 
 17576      72655C53 
 17577              	.LASF162:
 17578 15f1 4F535F46 		.ascii	"OS_FN_LED_ON\000"
 17578      4E5F4C45 
 17578      445F4F4E 
 17578      00
 17579              	.LASF146:
 17580 15fe 4F535F46 		.ascii	"OS_FN_THREAD_CREATE\000"
 17580      4E5F5448 
 17580      52454144 
 17580      5F435245 
 17580      41544500 
 17581              	.LASF144:
 17582 1612 4F535F46 		.ascii	"OS_FN_THREAD_OPEN\000"
 17582      4E5F5448 
 17582      52454144 
 17582      5F4F5045 
 17582      4E00
 17583              	.LASF93:
 17584 1624 4F535F46 		.ascii	"OS_FN_DES2\000"
 17584      4E5F4445 
 17584      533200
 17585              	.LASF523:
 17586 162f 4644454C 		.ascii	"FDELETEMW\000"
 17586      4554454D 
 17586      5700
 17587              	.LASF1147:
 17588 1639 436C6561 		.ascii	"ClearRspData\000"
 17588      72527370 
 17588      44617461 
 17588      00
 17589              	.LASF65:
 17590 1646 4F535F46 		.ascii	"OS_FN_COM1_CLOSE\000"
 17590      4E5F434F 
 17590      4D315F43 
 17590      4C4F5345 
 17590      00
 17591              	.LASF1139:
 17592 1657 45787044 		.ascii	"ExpDateReqd\000"
 17592      61746552 
 17592      65716400 
 17593              	.LASF403:
 17594 1663 4F535F46 		.ascii	"OS_FN_BARCODE_CMD\000"
 17594      4E5F4241 
 17594      52434F44 
 17594      455F434D 
ARM GAS  C:\Users\AHMED~1.ELE\AppData\Local\Temp\ccLLYyS4.s 			page 362


 17594      4400
 17595              	.LASF488:
 17596 1675 4F535F46 		.ascii	"OS_FN_DISP_PUTS_ANYWHERE\000"
 17596      4E5F4449 
 17596      53505F50 
 17596      5554535F 
 17596      414E5957 
 17597              	.LASF1029:
 17598 168e 735F696E 		.ascii	"s_input\000"
 17598      70757400 
 17599              	.LASF518:
 17600 1696 494F4354 		.ascii	"IOCTLMW\000"
 17600      4C4D5700 
 17601              	.LASF1048:
 17602 169e 61457870 		.ascii	"aExpDate\000"
 17602      44617465 
 17602      00
 17603              	.LASF572:
 17604 16a7 41504D5F 		.ascii	"APM_GETKBDTO\000"
 17604      4745544B 
 17604      4244544F 
 17604      00
 17605              	.LASF289:
 17606 16b4 4F535F46 		.ascii	"OS_FN_MCOM_STATUS\000"
 17606      4E5F4D43 
 17606      4F4D5F53 
 17606      54415455 
 17606      5300
 17607              	.LASF738:
 17608 16c6 73625F73 		.ascii	"sb_sec_settle_tel\000"
 17608      65635F73 
 17608      6574746C 
 17608      655F7465 
 17608      6C00
 17609              	.LASF1142:
 17610 16d8 44657363 		.ascii	"DescriptorReqd\000"
 17610      72697074 
 17610      6F725265 
 17610      716400
 17611              	.LASF1075:
 17612 16e7 746C656E 		.ascii	"tlen\000"
 17612      00
 17613              	.LASF820:
 17614 16ec 4D53475F 		.ascii	"MSG_BUF\000"
 17614      42554600 
 17615              	.LASF681:
 17616 16f4 775F6372 		.ascii	"w_crc\000"
 17616      6300
 17617              	.LASF471:
 17618 16fa 4F535F46 		.ascii	"OS_FN_SYS_THREAD_CREATE\000"
 17618      4E5F5359 
 17618      535F5448 
 17618      52454144 
 17618      5F435245 
 17619              	.LASF292:
 17620 1712 4F535F46 		.ascii	"OS_FN_BATT_LEVEL\000"
 17620      4E5F4241 
ARM GAS  C:\Users\AHMED~1.ELE\AppData\Local\Temp\ccLLYyS4.s 			page 363


 17620      54545F4C 
 17620      4556454C 
 17620      00
 17621              	.LASF529:
 17622 1723 46575249 		.ascii	"FWRITEMW\000"
 17622      54454D57 
 17622      00
 17623              	.LASF629:
 17624 172c 625F7072 		.ascii	"b_pri_redial\000"
 17624      695F7265 
 17624      6469616C 
 17624      00
 17625              	.LASF591:
 17626 1739 41504D5F 		.ascii	"APM_GETEXPARAMCOUNT\000"
 17626      47455445 
 17626      58504152 
 17626      414D434F 
 17626      554E5400 
 17627              	.LASF206:
 17628 174d 4F535F46 		.ascii	"OS_FN_FILE_SYNC\000"
 17628      4E5F4649 
 17628      4C455F53 
 17628      594E4300 
 17629              	.LASF818:
 17630 175d 625F6D6D 		.ascii	"b_mm\000"
 17630      00
 17631              	.LASF936:
 17632 1762 4544435F 		.ascii	"EDC_RSP_CALL_ISSUER\000"
 17632      5253505F 
 17632      43414C4C 
 17632      5F495353 
 17632      55455200 
 17633              	.LASF1113:
 17634 1776 6D656D63 		.ascii	"memcmp\000"
 17634      6D7000
 17635              	.LASF133:
 17636 177d 4F535F46 		.ascii	"OS_FN_KEY_DUKPT_MAC_CAL\000"
 17636      4E5F4B45 
 17636      595F4455 
 17636      4B50545F 
 17636      4D41435F 
 17637              	.LASF30:
 17638 1795 4F535F46 		.ascii	"OS_FN_KBD_SCODE\000"
 17638      4E5F4B42 
 17638      445F5343 
 17638      4F444500 
 17639              	.LASF156:
 17640 17a5 4F535F46 		.ascii	"OS_FN_BUFMAN_SHRINK\000"
 17640      4E5F4255 
 17640      464D414E 
 17640      5F534852 
 17640      494E4B00 
 17641              	.LASF1054:
 17642 17b9 496E4361 		.ascii	"InCardTable\000"
 17642      72645461 
 17642      626C6500 
 17643              	.LASF347:
ARM GAS  C:\Users\AHMED~1.ELE\AppData\Local\Temp\ccLLYyS4.s 			page 364


 17644 17c5 4F535F46 		.ascii	"OS_FN_USBHOST_DEVICEMAP\000"
 17644      4E5F5553 
 17644      42484F53 
 17644      545F4445 
 17644      56494345 
 17645              	.LASF473:
 17646 17dd 4F535F46 		.ascii	"OS_FN_WIFI_SOCKET_DISCONNECT\000"
 17646      4E5F5749 
 17646      46495F53 
 17646      4F434B45 
 17646      545F4449 
 17647              	.LASF197:
 17648 17fa 4F535F46 		.ascii	"OS_FN_FILE_GET_FREE_SPACE\000"
 17648      4E5F4649 
 17648      4C455F47 
 17648      45545F46 
 17648      5245455F 
 17649              	.LASF896:
 17650 1814 4544435F 		.ascii	"EDC_IN_ENTER_DESC\000"
 17650      494E5F45 
 17650      4E544552 
 17650      5F444553 
 17650      4300
 17651              	.LASF422:
 17652 1826 4F535F46 		.ascii	"OS_FN_NFC_IC_REG_DIRECT_WRITE\000"
 17652      4E5F4E46 
 17652      435F4943 
 17652      5F524547 
 17652      5F444952 
 17653              	.LASF1103:
 17654 1844 674D7372 		.ascii	"gMsrHandle\000"
 17654      48616E64 
 17654      6C6500
 17655              	.LASF273:
 17656 184f 4F535F46 		.ascii	"OS_FN_FL_CREAD_END\000"
 17656      4E5F464C 
 17656      5F435245 
 17656      41445F45 
 17656      4E4400
 17657              	.LASF640:
 17658 1862 73625F69 		.ascii	"sb_init_nii\000"
 17658      6E69745F 
 17658      6E696900 
 17659              	.LASF170:
 17660 186e 4F535F46 		.ascii	"OS_FN_MALLOC\000"
 17660      4E5F4D41 
 17660      4C4C4F43 
 17660      00
 17661              	.LASF1094:
 17662 187b 6154786E 		.ascii	"aTxnType\000"
 17662      54797065 
 17662      00
 17663              	.LASF243:
 17664 1884 4F535F46 		.ascii	"OS_FN_MSR_RXLEN\000"
 17664      4E5F4D53 
 17664      525F5258 
 17664      4C454E00 
ARM GAS  C:\Users\AHMED~1.ELE\AppData\Local\Temp\ccLLYyS4.s 			page 365


 17665              	.LASF1000:
 17666 1894 4544435F 		.ascii	"EDC_SE_ENTER_SALE_TOTAL\000"
 17666      53455F45 
 17666      4E544552 
 17666      5F53414C 
 17666      455F544F 
 17667              	.LASF446:
 17668 18ac 4F535F46 		.ascii	"OS_FN_GET_MCLK\000"
 17668      4E5F4745 
 17668      545F4D43 
 17668      4C4B00
 17669              	.LASF120:
 17670 18bb 4F535F46 		.ascii	"OS_FN_SM2_DECRYPT\000"
 17670      4E5F534D 
 17670      325F4445 
 17670      43525950 
 17670      5400
 17671              	.LASF216:
 17672 18cd 4F535F46 		.ascii	"OS_FN_SAM_ON\000"
 17672      4E5F5341 
 17672      4D5F4F4E 
 17672      00
 17673              	.LASF321:
 17674 18da 4F535F46 		.ascii	"OS_FN_TPAD_RAW_POS\000"
 17674      4E5F5450 
 17674      41445F52 
 17674      41575F50 
 17674      4F5300
 17675              	.LASF849:
 17676 18ed 53414C45 		.ascii	"SALE_OFFLINE\000"
 17676      5F4F4646 
 17676      4C494E45 
 17676      00
 17677              	.LASF657:
 17678 18fa 73625F65 		.ascii	"sb_emvkey_date\000"
 17678      6D766B65 
 17678      795F6461 
 17678      746500
 17679              	.LASF141:
 17680 1909 4F535F46 		.ascii	"OS_FN_PCI_DSS_GET_KVC\000"
 17680      4E5F5043 
 17680      495F4453 
 17680      535F4745 
 17680      545F4B56 
 17681              	.LASF855:
 17682 191f 53455454 		.ascii	"SETTLEMENT\000"
 17682      4C454D45 
 17682      4E5400
 17683              	.LASF606:
 17684 192a 41504D5F 		.ascii	"APM_GET_REC_COUNT\000"
 17684      4745545F 
 17684      5245435F 
 17684      434F554E 
 17684      5400
 17685              	.LASF339:
 17686 193c 4F535F46 		.ascii	"OS_FN_CLICC_LED_CLEAR\000"
 17686      4E5F434C 
ARM GAS  C:\Users\AHMED~1.ELE\AppData\Local\Temp\ccLLYyS4.s 			page 366


 17686      4943435F 
 17686      4C45445F 
 17686      434C4541 
 17687              	.LASF856:
 17688 1952 4544435F 		.ascii	"EDC_REV\000"
 17688      52455600 
 17689              	.LASF248:
 17690 195a 4F535F46 		.ascii	"OS_FN_LPT_CLOSE\000"
 17690      4E5F4C50 
 17690      545F434C 
 17690      4F534500 
 17691              	.LASF421:
 17692 196a 4F535F46 		.ascii	"OS_FN_NFC_INFO_SET\000"
 17692      4E5F4E46 
 17692      435F494E 
 17692      464F5F53 
 17692      455400
 17693              	.LASF785:
 17694 197d 73625F70 		.ascii	"sb_product\000"
 17694      726F6475 
 17694      637400
 17695              	.LASF600:
 17696 1988 41504D5F 		.ascii	"APM_STIS_CLR\000"
 17696      53544953 
 17696      5F434C52 
 17696      00
 17697              	.LASF1115:
 17698 1995 6D656D63 		.ascii	"memcpy\000"
 17698      707900
 17699              	.LASF564:
 17700 199c 4D575F46 		.ascii	"MW_FUNC_COUNT\000"
 17700      554E435F 
 17700      434F554E 
 17700      5400
 17701              	.LASF423:
 17702 19aa 4F535F46 		.ascii	"OS_FN_NFC_IC_REG_DIRECT_READ\000"
 17702      4E5F4E46 
 17702      435F4943 
 17702      5F524547 
 17702      5F444952 
 17703              	.LASF884:
 17704 19c7 4544435F 		.ascii	"EDC_IN_USE_ICC\000"
 17704      494E5F55 
 17704      53455F49 
 17704      434300
 17705              	.LASF33:
 17706 19d6 4F535F46 		.ascii	"OS_FN_KBD_UNLOCK\000"
 17706      4E5F4B42 
 17706      445F554E 
 17706      4C4F434B 
 17706      00
 17707              	.LASF502:
 17708 19e7 70624D73 		.ascii	"pbMsg\000"
 17708      6700
 17709              	.LASF1020:
 17710 19ed 73625F61 		.ascii	"sb_amex_4DBC\000"
 17710      6D65785F 
ARM GAS  C:\Users\AHMED~1.ELE\AppData\Local\Temp\ccLLYyS4.s 			page 367


 17710      34444243 
 17710      00
 17711              	.LASF255:
 17712 19fa 4F535F46 		.ascii	"OS_FN_USBSER_WRITE\000"
 17712      4E5F5553 
 17712      42534552 
 17712      5F575249 
 17712      544500
 17713              	.LASF891:
 17714 1a0d 4544435F 		.ascii	"EDC_IN_INV_TIPS\000"
 17714      494E5F49 
 17714      4E565F54 
 17714      49505300 
 17715              	.LASF1164:
 17716 1a1d 43544C50 		.ascii	"CTLPreProcess\000"
 17716      72655072 
 17716      6F636573 
 17716      7300
 17717              	.LASF990:
 17718 1a2b 4544435F 		.ascii	"EDC_RSP_VERIFY_SIGN\000"
 17718      5253505F 
 17718      56455249 
 17718      46595F53 
 17718      49474E00 
 17719              	.LASF368:
 17720 1a3f 4F535F46 		.ascii	"OS_FN_NETDEV_EVENT\000"
 17720      4E5F4E45 
 17720      54444556 
 17720      5F455645 
 17720      4E5400
 17721              	.LASF525:
 17722 1a52 46434C4F 		.ascii	"FCLOSEMW\000"
 17722      53454D57 
 17722      00
 17723              	.LASF80:
 17724 1a5b 4F535F46 		.ascii	"OS_FN_COM2_SREAD\000"
 17724      4E5F434F 
 17724      4D325F53 
 17724      52454144 
 17724      00
 17725              	.LASF1156:
 17726 1a6c 434C5F4C 		.ascii	"CL_LedSet\000"
 17726      65645365 
 17726      7400
 17727              	.LASF646:
 17728 1a76 64645F64 		.ascii	"dd_default_amount\000"
 17728      65666175 
 17728      6C745F61 
 17728      6D6F756E 
 17728      7400
 17729              	.LASF371:
 17730 1a88 4F535F46 		.ascii	"OS_FN_USBKBD_CLOSE\000"
 17730      4E5F5553 
 17730      424B4244 
 17730      5F434C4F 
 17730      534500
 17731              	.LASF136:
ARM GAS  C:\Users\AHMED~1.ELE\AppData\Local\Temp\ccLLYyS4.s 			page 368


 17732 1a9b 4F535F46 		.ascii	"OS_FN_KEY_HASH\000"
 17732      4E5F4B45 
 17732      595F4841 
 17732      534800
 17733              	.LASF1120:
 17734 1aaa 47657448 		.ascii	"GetHostType\000"
 17734      6F737454 
 17734      79706500 
 17735              	.LASF53:
 17736 1ab6 4F535F46 		.ascii	"OS_FN_DISP_LENGTH\000"
 17736      4E5F4449 
 17736      53505F4C 
 17736      454E4754 
 17736      4800
 17737              	.LASF1092:
 17738 1ac8 6146616C 		.ascii	"aFallback\000"
 17738      6C626163 
 17738      6B00
 17739              	.LASF803:
 17740 1ad2 544F5441 		.ascii	"TOTAL_STRUCT\000"
 17740      4C5F5354 
 17740      52554354 
 17740      00
 17741              	.LASF982:
 17742 1adf 4544435F 		.ascii	"EDC_RSP_LINE_OCCUP\000"
 17742      5253505F 
 17742      4C494E45 
 17742      5F4F4343 
 17742      555000
 17743              	.LASF938:
 17744 1af2 4544435F 		.ascii	"EDC_RSP_INVALID_MERCH\000"
 17744      5253505F 
 17744      494E5641 
 17744      4C49445F 
 17744      4D455243 
 17745              	.LASF755:
 17746 1b08 625F6B65 		.ascii	"b_key\000"
 17746      7900
 17747              	.LASF741:
 17748 1b0e 625F7472 		.ascii	"b_trans_mdm_mode\000"
 17748      616E735F 
 17748      6D646D5F 
 17748      6D6F6465 
 17748      00
 17749              	.LASF838:
 17750 1b1f 625F6469 		.ascii	"b_disp_chgd\000"
 17750      73705F63 
 17750      68676400 
 17751              	.LASF231:
 17752 1b2b 4F535F46 		.ascii	"OS_FN_SLE_CLOSE\000"
 17752      4E5F534C 
 17752      455F434C 
 17752      4F534500 
 17753              	.LASF218:
 17754 1b3b 4F535F46 		.ascii	"OS_FN_SAM_T1\000"
 17754      4E5F5341 
 17754      4D5F5431 
ARM GAS  C:\Users\AHMED~1.ELE\AppData\Local\Temp\ccLLYyS4.s 			page 369


 17754      00
 17755              	.LASF221:
 17756 1b48 4F535F46 		.ascii	"OS_FN_MMC_CLOSE\000"
 17756      4E5F4D4D 
 17756      435F434C 
 17756      4F534500 
 17757              	.LASF825:
 17758 1b58 735F6163 		.ascii	"s_acq_rev\000"
 17758      715F7265 
 17758      7600
 17759              	.LASF298:
 17760 1b62 4F535F46 		.ascii	"OS_FN_ADC_CH_READ\000"
 17760      4E5F4144 
 17760      435F4348 
 17760      5F524541 
 17760      4400
 17761              	.LASF699:
 17762 1b74 73625F63 		.ascii	"sb_currency_name\000"
 17762      75727265 
 17762      6E63795F 
 17762      6E616D65 
 17762      00
 17763              	.LASF933:
 17764 1b85 4544435F 		.ascii	"EDC_PN_PLS_WAIT\000"
 17764      504E5F50 
 17764      4C535F57 
 17764      41495400 
 17765              	.LASF361:
 17766 1b95 4F535F46 		.ascii	"OS_FN_INTERRUPT_UNREGISTER\000"
 17766      4E5F494E 
 17766      54455252 
 17766      5550545F 
 17766      554E5245 
 17767              	.LASF711:
 17768 1bb0 61706E32 		.ascii	"apn2_ip\000"
 17768      5F697000 
 17769              	.LASF79:
 17770 1bb8 4F535F46 		.ascii	"OS_FN_COM2_STATUS\000"
 17770      4E5F434F 
 17770      4D325F53 
 17770      54415455 
 17770      5300
 17771              	.LASF931:
 17772 1bca 4544435F 		.ascii	"EDC_PN_NO_PAPER\000"
 17772      504E5F4E 
 17772      4F5F5041 
 17772      50455200 
 17773              	.LASF177:
 17774 1bda 4F535F46 		.ascii	"OS_FN_FILE_EXIST\000"
 17774      4E5F4649 
 17774      4C455F45 
 17774      58495354 
 17774      00
 17775              	.LASF275:
 17776 1beb 4F535F46 		.ascii	"OS_FN_MDM_OPEN\000"
 17776      4E5F4D44 
 17776      4D5F4F50 
ARM GAS  C:\Users\AHMED~1.ELE\AppData\Local\Temp\ccLLYyS4.s 			page 370


 17776      454E00
 17777              	.LASF482:
 17778 1bfa 4F535F46 		.ascii	"OS_FN_IMG_SENSOR_GET_FRAME_COMPLETE\000"
 17778      4E5F494D 
 17778      475F5345 
 17778      4E534F52 
 17778      5F474554 
 17779              	.LASF1082:
 17780 1c1e 6F666673 		.ascii	"offset\000"
 17780      657400
 17781              	.LASF335:
 17782 1c25 4F535F46 		.ascii	"OS_FN_CLICC_LED_OPEN\000"
 17782      4E5F434C 
 17782      4943435F 
 17782      4C45445F 
 17782      4F50454E 
 17783              	.LASF808:
 17784 1c3a 735F766F 		.ascii	"s_void_sale\000"
 17784      69645F73 
 17784      616C6500 
 17785              	.LASF257:
 17786 1c46 4F535F46 		.ascii	"OS_FN_USBSER_ENABLE\000"
 17786      4E5F5553 
 17786      42534552 
 17786      5F454E41 
 17786      424C4500 
 17787              	.LASF815:
 17788 1c5a 735F6973 		.ascii	"s_issuer_tbl\000"
 17788      73756572 
 17788      5F74626C 
 17788      00
 17789              	.LASF1125:
 17790 1c67 546C764C 		.ascii	"TlvLen\000"
 17790      656E00
 17791              	.LASF928:
 17792 1c6e 4544435F 		.ascii	"EDC_PN_PRINTING\000"
 17792      504E5F50 
 17792      52494E54 
 17792      494E4700 
 17793              	.LASF702:
 17794 1c7e 73625F72 		.ascii	"sb_reserved\000"
 17794      65736572 
 17794      76656400 
 17795              	.LASF498:
 17796 1c8a 55534246 		.ascii	"USBFPRT_GENERAL_INFO_IMG_WIDTH\000"
 17796      5052545F 
 17796      47454E45 
 17796      52414C5F 
 17796      494E464F 
 17797              	.LASF851:
 17798 1ca9 53414C45 		.ascii	"SALE_UNDER_LMT\000"
 17798      5F554E44 
 17798      45525F4C 
 17798      4D5400
 17799              	.LASF899:
 17800 1cb8 4544435F 		.ascii	"EDC_IN_TRACE\000"
 17800      494E5F54 
ARM GAS  C:\Users\AHMED~1.ELE\AppData\Local\Temp\ccLLYyS4.s 			page 371


 17800      52414345 
 17800      00
 17801              	.LASF1055:
 17802 1cc5 63617264 		.ascii	"card_idx\000"
 17802      5F696478 
 17802      00
 17803              	.LASF690:
 17804 1cce 73625F68 		.ascii	"sb_help_tel\000"
 17804      656C705F 
 17804      74656C00 
 17805              	.LASF1086:
 17806 1cda 47657434 		.ascii	"Get4DBC\000"
 17806      44424300 
 17807              	.LASF546:
 17808 1ce2 44495350 		.ascii	"DISP_CLRBELOWMW\000"
 17808      5F434C52 
 17808      42454C4F 
 17808      574D5700 
 17809              	.LASF728:
 17810 1cf2 73625F6E 		.ascii	"sb_name\000"
 17810      616D6500 
 17811              	.LASF1049:
 17812 1cfa 746D7062 		.ascii	"tmpbuf\000"
 17812      756600
 17813              	.LASF642:
 17814 1d01 625F6465 		.ascii	"b_default_app\000"
 17814      6661756C 
 17814      745F6170 
 17814      7000
 17815              	.LASF538:
 17816 1d0f 44495350 		.ascii	"DISPLOGOMW\000"
 17816      4C4F474F 
 17816      4D5700
 17817              	.LASF972:
 17818 1d1a 4544435F 		.ascii	"EDC_RSP_CTL_REFER_MOBILE\000"
 17818      5253505F 
 17818      43544C5F 
 17818      52454645 
 17818      525F4D4F 
 17819              	.LASF367:
 17820 1d33 4F535F46 		.ascii	"OS_FN_NETDEV_GETLINK\000"
 17820      4E5F4E45 
 17820      54444556 
 17820      5F474554 
 17820      4C494E4B 
 17821              	.LASF265:
 17822 1d48 4F535F46 		.ascii	"OS_FN_FL_PGM_END\000"
 17822      4E5F464C 
 17822      5F50474D 
 17822      5F454E44 
 17822      00
 17823              	.LASF631:
 17824 1d59 625F7365 		.ascii	"b_sec_conn_time\000"
 17824      635F636F 
 17824      6E6E5F74 
 17824      696D6500 
 17825              	.LASF288:
ARM GAS  C:\Users\AHMED~1.ELE\AppData\Local\Temp\ccLLYyS4.s 			page 372


 17826 1d69 4F535F46 		.ascii	"OS_FN_MCOM_SSEND\000"
 17826      4E5F4D43 
 17826      4F4D5F53 
 17826      53454E44 
 17826      00
 17827              	.LASF854:
 17828 1d7a 5452414E 		.ascii	"TRANS_UPLOAD\000"
 17828      535F5550 
 17828      4C4F4144 
 17828      00
 17829              	.LASF477:
 17830 1d87 4F535F46 		.ascii	"OS_FN_WIFI_GET_DEVICE_STATE\000"
 17830      4E5F5749 
 17830      46495F47 
 17830      45545F44 
 17830      45564943 
 17831              	.LASF14:
 17832 1da3 574F5244 		.ascii	"WORD\000"
 17832      00
 17833              	.LASF456:
 17834 1da8 4F535F46 		.ascii	"OS_FN_LPT_GET_COUNT\000"
 17834      4E5F4C50 
 17834      545F4745 
 17834      545F434F 
 17834      554E5400 
 17835              	.LASF1105:
 17836 1dbc 67474453 		.ascii	"gGDS\000"
 17836      00
 17837              	.LASF915:
 17838 1dc1 4544435F 		.ascii	"EDC_VD_NOT_ALLOW\000"
 17838      56445F4E 
 17838      4F545F41 
 17838      4C4C4F57 
 17838      00
 17839              	.LASF986:
 17840 1dd2 4544435F 		.ascii	"EDC_RSP_SWIPT_AE\000"
 17840      5253505F 
 17840      53574950 
 17840      545F4145 
 17840      00
 17841              	.LASF326:
 17842 1de3 4F535F46 		.ascii	"OS_FN_CODEC_STOP\000"
 17842      4E5F434F 
 17842      4445435F 
 17842      53544F50 
 17842      00
 17843              	.LASF490:
 17844 1df4 4F535F46 		.ascii	"OS_FN_WIFI_GET_REGULATORY_DOMAIN\000"
 17844      4E5F5749 
 17844      46495F47 
 17844      45545F52 
 17844      4547554C 
 17845              	.LASF1046:
 17846 1e15 45787472 		.ascii	"ExtractPAN\000"
 17846      61637450 
 17846      414E00
 17847              	.LASF570:
ARM GAS  C:\Users\AHMED~1.ELE\AppData\Local\Temp\ccLLYyS4.s 			page 373


 17848 1e20 41504D5F 		.ascii	"APM_GETKBD\000"
 17848      4745544B 
 17848      424400
 17849              	.LASF1134:
 17850 1e2b 43686563 		.ascii	"CheckPAN\000"
 17850      6B50414E 
 17850      00
 17851              	.LASF731:
 17852 1e34 625F7072 		.ascii	"b_pri_trans_redial\000"
 17852      695F7472 
 17852      616E735F 
 17852      72656469 
 17852      616C00
 17853              	.LASF1128:
 17854 1e47 45637247 		.ascii	"EcrGetAmount\000"
 17854      6574416D 
 17854      6F756E74 
 17854      00
 17855              	.LASF154:
 17856 1e54 4F535F46 		.ascii	"OS_FN_BUFMAN_FREE\000"
 17856      4E5F4255 
 17856      464D414E 
 17856      5F465245 
 17856      4500
 17857              	.LASF250:
 17858 1e66 4F535F46 		.ascii	"OS_FN_LPT_PUTDW\000"
 17858      4E5F4C50 
 17858      545F5055 
 17858      54445700 
 17859              	.LASF344:
 17860 1e76 4F535F46 		.ascii	"OS_FN_USBHOST_STATUS\000"
 17860      4E5F5553 
 17860      42484F53 
 17860      545F5354 
 17860      41545553 
 17861              	.LASF436:
 17862 1e8b 4F535F46 		.ascii	"OS_FN_SLEEP\000"
 17862      4E5F534C 
 17862      45455000 
 17863              	.LASF833:
 17864 1e97 735F454D 		.ascii	"s_EMVIn\000"
 17864      56496E00 
 17865              	.LASF574:
 17866 1e9f 41504D5F 		.ascii	"APM_PRECONNECT\000"
 17866      50524543 
 17866      4F4E4E45 
 17866      435400
 17867              	.LASF806:
 17868 1eae 735F7469 		.ascii	"s_tips_tot\000"
 17868      70735F74 
 17868      6F7400
 17869              	.LASF778:
 17870 1eb9 625F6163 		.ascii	"b_acc_ind\000"
 17870      635F696E 
 17870      6400
 17871              	.LASF672:
 17872 1ec3 73625F63 		.ascii	"sb_checkin_pri_no\000"
ARM GAS  C:\Users\AHMED~1.ELE\AppData\Local\Temp\ccLLYyS4.s 			page 374


 17872      6865636B 
 17872      696E5F70 
 17872      72695F6E 
 17872      6F00
 17873              	.LASF317:
 17874 1ed5 4F535F46 		.ascii	"OS_FN_TPAD_DEL_OBJ\000"
 17874      4E5F5450 
 17874      41445F44 
 17874      454C5F4F 
 17874      424A00
 17875              	.LASF1058:
 17876 1ee8 70616E5F 		.ascii	"pan_len\000"
 17876      6C656E00 
 17877              	.LASF56:
 17878 1ef0 4F535F46 		.ascii	"OS_FN_DISP_BACKC\000"
 17878      4E5F4449 
 17878      53505F42 
 17878      41434B43 
 17878      00
 17879              	.LASF4:
 17880 1f01 73686F72 		.ascii	"short unsigned int\000"
 17880      7420756E 
 17880      7369676E 
 17880      65642069 
 17880      6E7400
 17881              	.LASF174:
 17882 1f14 4F535F46 		.ascii	"OS_FN_FILE_OPEN\000"
 17882      4E5F4649 
 17882      4C455F4F 
 17882      50454E00 
 17883              	.LASF805:
 17884 1f24 735F7361 		.ascii	"s_sale_tot\000"
 17884      6C655F74 
 17884      6F7400
 17885              	.LASF802:
 17886 1f2f 775F636F 		.ascii	"w_count\000"
 17886      756E7400 
 17887              	.LASF71:
 17888 1f37 4F535F46 		.ascii	"OS_FN_COM1_SREAD\000"
 17888      4E5F434F 
 17888      4D315F53 
 17888      52454144 
 17888      00
 17889              	.LASF107:
 17890 1f48 4F535F46 		.ascii	"OS_FN_MD5_FINISH\000"
 17890      4E5F4D44 
 17890      355F4649 
 17890      4E495348 
 17890      00
 17891              	.LASF794:
 17892 1f59 775F6973 		.ascii	"w_issuer_idx\000"
 17892      73756572 
 17892      5F696478 
 17892      00
 17893              	.LASF16:
 17894 1f66 4444574F 		.ascii	"DDWORD\000"
 17894      524400
ARM GAS  C:\Users\AHMED~1.ELE\AppData\Local\Temp\ccLLYyS4.s 			page 375


 17895              	.LASF283:
 17896 1f6d 4F535F46 		.ascii	"OS_FN_MCOM_CLOSE\000"
 17896      4E5F4D43 
 17896      4F4D5F43 
 17896      4C4F5345 
 17896      00
 17897              	.LASF663:
 17898 1f7e 73625F6C 		.ascii	"sb_lxapp_date\000"
 17898      78617070 
 17898      5F646174 
 17898      6500
 17899              	.LASF1123:
 17900 1f8c 546C7653 		.ascii	"TlvSeek\000"
 17900      65656B00 
 17901              	.LASF863:
 17902 1f94 41555448 		.ascii	"AUTH_CTL\000"
 17902      5F43544C 
 17902      00
 17903              	.LASF784:
 17904 1f9d 64645F6F 		.ascii	"dd_org_amount\000"
 17904      72675F61 
 17904      6D6F756E 
 17904      7400
 17905              	.LASF148:
 17906 1fab 4F535F46 		.ascii	"OS_FN_THREAD_LOCK\000"
 17906      4E5F5448 
 17906      52454144 
 17906      5F4C4F43 
 17906      4B00
 17907              	.LASF203:
 17908 1fbd 4F535F46 		.ascii	"OS_FN_FILE_MKDIR\000"
 17908      4E5F4649 
 17908      4C455F4D 
 17908      4B444952 
 17908      00
 17909              	.LASF194:
 17910 1fce 4F535F46 		.ascii	"OS_FN_FILE_TRUNCATE\000"
 17910      4E5F4649 
 17910      4C455F54 
 17910      52554E43 
 17910      41544500 
 17911              	.LASF961:
 17912 1fe2 4544435F 		.ascii	"EDC_RSP_CALL_AMEX\000"
 17912      5253505F 
 17912      43414C4C 
 17912      5F414D45 
 17912      5800
 17913              	.LASF721:
 17914 1ff4 73625F63 		.ascii	"sb_card_name\000"
 17914      6172645F 
 17914      6E616D65 
 17914      00
 17915              	.LASF1109:
 17916 2001 45787069 		.ascii	"Expire_diff\000"
 17916      72655F64 
 17916      69666600 
 17917              	.LASF772:
ARM GAS  C:\Users\AHMED~1.ELE\AppData\Local\Temp\ccLLYyS4.s 			page 376


 17918 200d 73625F74 		.ascii	"sb_tag_9f26\000"
 17918      61675F39 
 17918      66323600 
 17919              	.LASF567:
 17920 2019 41504D5F 		.ascii	"APM_GETKEY\000"
 17920      4745544B 
 17920      455900
 17921              	.LASF372:
 17922 2024 4F535F46 		.ascii	"OS_FN_USBKBD_INKEY\000"
 17922      4E5F5553 
 17922      424B4244 
 17922      5F494E4B 
 17922      455900
 17923              	.LASF103:
 17924 2037 4F535F46 		.ascii	"OS_FN_AES_DECRYPT_BLOCK\000"
 17924      4E5F4145 
 17924      535F4445 
 17924      43525950 
 17924      545F424C 
 17925              	.LASF99:
 17926 204f 4F535F46 		.ascii	"OS_FN_RSA\000"
 17926      4E5F5253 
 17926      4100
 17927              	.LASF28:
 17928 2059 4F535F46 		.ascii	"OS_FN_KBD_CLOSE\000"
 17928      4E5F4B42 
 17928      445F434C 
 17928      4F534500 
 17929              	.LASF128:
 17930 2069 4F535F46 		.ascii	"OS_FN_KEY_SAVE_TMK\000"
 17930      4E5F4B45 
 17930      595F5341 
 17930      56455F54 
 17930      4D4B00
 17931              	.LASF1061:
 17932 207c 6D61785F 		.ascii	"max_acq\000"
 17932      61637100 
 17933              	.LASF224:
 17934 2084 4F535F46 		.ascii	"OS_FN_MMC_PSTATUS\000"
 17934      4E5F4D4D 
 17934      435F5053 
 17934      54415455 
 17934      5300
 17935              	.LASF44:
 17936 2096 4F535F46 		.ascii	"OS_FN_DISP_OPEN\000"
 17936      4E5F4449 
 17936      53505F4F 
 17936      50454E00 
 17937              	.LASF69:
 17938 20a6 4F535F46 		.ascii	"OS_FN_COM1_SEND\000"
 17938      4E5F434F 
 17938      4D315F53 
 17938      454E4400 
 17939              	.LASF853:
 17940 20b6 41444A55 		.ascii	"ADJUST\000"
 17940      535400
 17941              	.LASF130:
ARM GAS  C:\Users\AHMED~1.ELE\AppData\Local\Temp\ccLLYyS4.s 			page 377


 17942 20bd 4F535F46 		.ascii	"OS_FN_KEY_RSA\000"
 17942      4E5F4B45 
 17942      595F5253 
 17942      4100
 17943              	.LASF712:
 17944 20cb 61706E32 		.ascii	"apn2_port\000"
 17944      5F706F72 
 17944      7400
 17945              	.LASF563:
 17946 20d5 41505049 		.ascii	"APPINFO_GETMW\000"
 17946      4E464F5F 
 17946      4745544D 
 17946      5700
 17947              	.LASF467:
 17948 20e3 4F535F46 		.ascii	"OS_FN_GCM_AES_PROCESS_AAD\000"
 17948      4E5F4743 
 17948      4D5F4145 
 17948      535F5052 
 17948      4F434553 
 17949              	.LASF320:
 17950 20fd 4F535F46 		.ascii	"OS_FN_TPAD_CALIBRATE\000"
 17950      4E5F5450 
 17950      41445F43 
 17950      414C4942 
 17950      52415445 
 17951              	.LASF988:
 17952 2112 4544435F 		.ascii	"EDC_RSP_RSP_TXN_ACP\000"
 17952      5253505F 
 17952      5253505F 
 17952      54584E5F 
 17952      41435000 
 17953              	.LASF596:
 17954 2126 41504D5F 		.ascii	"APM_SETBATCH\000"
 17954      53455442 
 17954      41544348 
 17954      00
 17955              	.LASF665:
 17956 2133 73625F66 		.ascii	"sb_ftp_user\000"
 17956      74705F75 
 17956      73657200 
 17957              	.LASF1067:
 17958 213f 47657441 		.ascii	"GetAmount\000"
 17958      6D6F756E 
 17958      7400
 17959              	.LASF745:
 17960 2149 73625F63 		.ascii	"sb_curr_batch_no\000"
 17960      7572725F 
 17960      62617463 
 17960      685F6E6F 
 17960      00
 17961              	.LASF609:
 17962 215a 41504D5F 		.ascii	"APM_CLR_REV_REC\000"
 17962      434C525F 
 17962      5245565F 
 17962      52454300 
 17963              	.LASF398:
 17964 216a 4F535F46 		.ascii	"OS_FN_MIF_GET\000"
ARM GAS  C:\Users\AHMED~1.ELE\AppData\Local\Temp\ccLLYyS4.s 			page 378


 17964      4E5F4D49 
 17964      465F4745 
 17964      5400
 17965              	.LASF895:
 17966 2178 4544435F 		.ascii	"EDC_IN_CARD_EXPIRED\000"
 17966      494E5F43 
 17966      4152445F 
 17966      45585049 
 17966      52454400 
 17967              	.LASF1006:
 17968 218c 4544435F 		.ascii	"EDC_CTL_FATAL\000"
 17968      43544C5F 
 17968      46415441 
 17968      4C00
 17969              	.LASF1044:
 17970 219a 61496478 		.ascii	"aIdx\000"
 17970      00
 17971              	.LASF215:
 17972 219f 4F535F46 		.ascii	"OS_FN_SAM_INSERTED\000"
 17972      4E5F5341 
 17972      4D5F494E 
 17972      53455254 
 17972      454400
 17973              	.LASF268:
 17974 21b2 4F535F46 		.ascii	"OS_FN_FL_COPYB_START\000"
 17974      4E5F464C 
 17974      5F434F50 
 17974      59425F53 
 17974      54415254 
 17975              	.LASF519:
 17976 21c7 53544154 		.ascii	"STATMW\000"
 17976      4D5700
 17977              	.LASF1091:
 17978 21ce 47657443 		.ascii	"GetCard\000"
 17978      61726400 
 17979              	.LASF346:
 17980 21d6 4F535F46 		.ascii	"OS_FN_USBHOST_DEVINFO\000"
 17980      4E5F5553 
 17980      42484F53 
 17980      545F4445 
 17980      56494E46 
 17981              	.LASF807:
 17982 21ec 735F7265 		.ascii	"s_refund_tot\000"
 17982      66756E64 
 17982      5F746F74 
 17982      00
 17983              	.LASF295:
 17984 21f9 4F535F46 		.ascii	"OS_FN_BATT_CHARGE_MODE\000"
 17984      4E5F4241 
 17984      54545F43 
 17984      48415247 
 17984      455F4D4F 
 17985              	.LASF312:
 17986 2210 4F535F46 		.ascii	"OS_FN_GPRS_SMS_CONTROL\000"
 17986      4E5F4750 
 17986      52535F53 
 17986      4D535F43 
ARM GAS  C:\Users\AHMED~1.ELE\AppData\Local\Temp\ccLLYyS4.s 			page 379


 17986      4F4E5452 
 17987              	.LASF827:
 17988 2227 735F7465 		.ascii	"s_term_tot\000"
 17988      726D5F74 
 17988      6F7400
 17989              	.LASF864:
 17990 2232 52454655 		.ascii	"REFUND_CTL\000"
 17990      4E445F43 
 17990      544C00
 17991              	.LASF32:
 17992 223d 4F535F46 		.ascii	"OS_FN_KBD_LOCK\000"
 17992      4E5F4B42 
 17992      445F4C4F 
 17992      434B00
 17993              	.LASF894:
 17994 224c 4544435F 		.ascii	"EDC_IN_INV_EXPIRE\000"
 17994      494E5F49 
 17994      4E565F45 
 17994      58504952 
 17994      4500
 17995              	.LASF228:
 17996 225e 4F535F46 		.ascii	"OS_FN_MMC_WRITE\000"
 17996      4E5F4D4D 
 17996      435F5752 
 17996      49544500 
 17997              	.LASF908:
 17998 226e 4544435F 		.ascii	"EDC_AJ_BASE_AMT\000"
 17998      414A5F42 
 17998      4153455F 
 17998      414D5400 
 17999              	.LASF496:
 18000 227e 454E445F 		.ascii	"END_OF_OS_FN_LIST\000"
 18000      4F465F4F 
 18000      535F464E 
 18000      5F4C4953 
 18000      5400
 18001              	.LASF406:
 18002 2290 4F535F46 		.ascii	"OS_FN_BARCODE_ABORT\000"
 18002      4E5F4241 
 18002      52434F44 
 18002      455F4142 
 18002      4F525400 
 18003              	.LASF2:
 18004 22a4 756E7369 		.ascii	"unsigned char\000"
 18004      676E6564 
 18004      20636861 
 18004      7200
 18005              	.LASF280:
 18006 22b2 4F535F46 		.ascii	"OS_FN_MDM_STATUS\000"
 18006      4E5F4D44 
 18006      4D5F5354 
 18006      41545553 
 18006      00
 18007              	.LASF1005:
 18008 22c3 4544435F 		.ascii	"EDC_EMV_CANNOT_SEL\000"
 18008      454D565F 
 18008      43414E4E 
ARM GAS  C:\Users\AHMED~1.ELE\AppData\Local\Temp\ccLLYyS4.s 			page 380


 18008      4F545F53 
 18008      454C00
 18009              	.LASF35:
 18010 22d6 4F535F46 		.ascii	"OS_FN_TIMER_CLOSE\000"
 18010      4E5F5449 
 18010      4D45525F 
 18010      434C4F53 
 18010      4500
 18011              	.LASF15:
 18012 22e8 44574F52 		.ascii	"DWORD\000"
 18012      4400
 18013              	.LASF612:
 18014 22ee 41504D5F 		.ascii	"APM_TRACE_IN_BATCH\000"
 18014      54524143 
 18014      455F494E 
 18014      5F424154 
 18014      434800
 18015              	.LASF937:
 18016 2301 4544435F 		.ascii	"EDC_RSP_REFERRAL\000"
 18016      5253505F 
 18016      52454645 
 18016      5252414C 
 18016      00
 18017              	.LASF439:
 18018 2312 4F535F46 		.ascii	"OS_FN_FREE_RUN\000"
 18018      4E5F4652 
 18018      45455F52 
 18018      554E00
 18019              	.LASF1009:
 18020 2321 4544435F 		.ascii	"EDC_CTL_TAP_CARD\000"
 18020      43544C5F 
 18020      5441505F 
 18020      43415244 
 18020      00
 18021              	.LASF489:
 18022 2332 4F535F46 		.ascii	"OS_FN_BATT_CHARGE_NOW\000"
 18022      4E5F4241 
 18022      54545F43 
 18022      48415247 
 18022      455F4E4F 
 18023              	.LASF220:
 18024 2348 4F535F46 		.ascii	"OS_FN_MMC_OPEN\000"
 18024      4E5F4D4D 
 18024      435F4F50 
 18024      454E00
 18025              	.LASF942:
 18026 2357 4544435F 		.ascii	"EDC_RSP_BAD_PROC\000"
 18026      5253505F 
 18026      4241445F 
 18026      50524F43 
 18026      00
 18027              	.LASF956:
 18028 2368 4544435F 		.ascii	"EDC_RSP_BAD_PROD\000"
 18028      5253505F 
 18028      4241445F 
 18028      50524F44 
 18028      00
ARM GAS  C:\Users\AHMED~1.ELE\AppData\Local\Temp\ccLLYyS4.s 			page 381


 18029              	.LASF573:
 18030 2379 41504D5F 		.ascii	"APM_PACKCOMM\000"
 18030      5041434B 
 18030      434F4D4D 
 18030      00
 18031              	.LASF608:
 18032 2386 41504D5F 		.ascii	"APM_GET_REV_REC\000"
 18032      4745545F 
 18032      5245565F 
 18032      52454300 
 18033              	.LASF237:
 18034 2396 4F535F46 		.ascii	"OS_FN_LAN_TXRDY\000"
 18034      4E5F4C41 
 18034      4E5F5458 
 18034      52445900 
 18035              	.LASF762:
 18036 23a6 625F6461 		.ascii	"b_day\000"
 18036      7900
 18037              	.LASF777:
 18038 23ac 625F7472 		.ascii	"b_trans_status\000"
 18038      616E735F 
 18038      73746174 
 18038      757300
 18039              	.LASF161:
 18040 23bb 4F535F46 		.ascii	"OS_FN_LED_CLEAR\000"
 18040      4E5F4C45 
 18040      445F434C 
 18040      45415200 
 18041              	.LASF1137:
 18042 23cb 56616C69 		.ascii	"ValidEMVData\000"
 18042      64454D56 
 18042      44617461 
 18042      00
 18043              	.LASF716:
 18044 23d8 625F6973 		.ascii	"b_issuer_id\000"
 18044      73756572 
 18044      5F696400 
 18045              	.LASF1068:
 18046 23e4 61546970 		.ascii	"aTipsNeeded\000"
 18046      734E6565 
 18046      64656400 
 18047              	.LASF18:
 18048 23f0 624D7367 		.ascii	"bMsg\000"
 18048      00
 18049              	.LASF749:
 18050 23f5 625F686F 		.ascii	"b_host_type\000"
 18050      73745F74 
 18050      79706500 
 18051              	.LASF1162:
 18052 2401 43544C45 		.ascii	"CTLEnabled\000"
 18052      6E61626C 
 18052      656400
 18053              	.LASF29:
 18054 240c 4F535F46 		.ascii	"OS_FN_KBD_INKEY\000"
 18054      4E5F4B42 
 18054      445F494E 
 18054      4B455900 
ARM GAS  C:\Users\AHMED~1.ELE\AppData\Local\Temp\ccLLYyS4.s 			page 382


 18055              	.LASF384:
 18056 241c 4F535F46 		.ascii	"OS_FN_MIF_ANTICOLL\000"
 18056      4E5F4D49 
 18056      465F414E 
 18056      5449434F 
 18056      4C4C00
 18057              	.LASF822:
 18058 242f 735F7374 		.ascii	"s_stis_data\000"
 18058      69735F64 
 18058      61746100 
 18059              	.LASF491:
 18060 243b 4F535F46 		.ascii	"OS_FN_WIFI_SET_REGULATORY_DOMAIN\000"
 18060      4E5F5749 
 18060      46495F53 
 18060      45545F52 
 18060      4547554C 
 18061              	.LASF949:
 18062 245c 4544435F 		.ascii	"EDC_RSP_CALL_LC\000"
 18062      5253505F 
 18062      43414C4C 
 18062      5F4C4300 
 18063              	.LASF190:
 18064 246c 4F535F46 		.ascii	"OS_FN_FILE_DSEARCH_ALL\000"
 18064      4E5F4649 
 18064      4C455F44 
 18064      53454152 
 18064      43485F41 
 18065              	.LASF549:
 18066 2483 44495350 		.ascii	"DISP_SETPMW\000"
 18066      5F534554 
 18066      504D5700 
 18067              	.LASF399:
 18068 248f 4F535F46 		.ascii	"OS_FN_MIF_INFO_SET\000"
 18068      4E5F4D49 
 18068      465F494E 
 18068      464F5F53 
 18068      455400
 18069              	.LASF791:
 18070 24a2 625F5069 		.ascii	"b_PinVerified\000"
 18070      6E566572 
 18070      69666965 
 18070      6400
 18071              	.LASF714:
 18072 24b0 73625F70 		.ascii	"sb_pan_range_low\000"
 18072      616E5F72 
 18072      616E6765 
 18072      5F6C6F77 
 18072      00
 18073              	.LASF105:
 18074 24c1 4F535F46 		.ascii	"OS_FN_MD5_INIT\000"
 18074      4E5F4D44 
 18074      355F494E 
 18074      495400
 18075              	.LASF1121:
 18076 24d0 436F7272 		.ascii	"CorrectHost\000"
 18076      65637448 
 18076      6F737400 
ARM GAS  C:\Users\AHMED~1.ELE\AppData\Local\Temp\ccLLYyS4.s 			page 383


 18077              	.LASF995:
 18078 24dc 4544435F 		.ascii	"EDC_SE_BUS_DATE\000"
 18078      53455F42 
 18078      55535F44 
 18078      41544500 
 18079              	.LASF1051:
 18080 24ec 74797065 		.ascii	"type\000"
 18080      00
 18081              	.LASF494:
 18082 24f1 4F535F46 		.ascii	"OS_FN_IMG_SENSOR_SET_MODE\000"
 18082      4E5F494D 
 18082      475F5345 
 18082      4E534F52 
 18082      5F534554 
 18083              	.LASF650:
 18084 250b 73625F65 		.ascii	"sb_edc_chksum\000"
 18084      64635F63 
 18084      686B7375 
 18084      6D00
 18085              	.LASF604:
 18086 2519 41504D5F 		.ascii	"APM_BATCH_CLEAR\000"
 18086      42415443 
 18086      485F434C 
 18086      45415200 
 18087              	.LASF309:
 18088 2529 4F535F46 		.ascii	"OS_FN_GPRS_SMS_DECODE\000"
 18088      4E5F4750 
 18088      52535F53 
 18088      4D535F44 
 18088      45434F44 
 18089              	.LASF263:
 18090 253f 4F535F46 		.ascii	"OS_FN_FL_PGM_START\000"
 18090      4E5F464C 
 18090      5F50474D 
 18090      5F535441 
 18090      525400
 18091              	.LASF1017:
 18092 2552 735F7472 		.ascii	"s_trk2buf\000"
 18092      6B326275 
 18092      6600
 18093              	.LASF1160:
 18094 255c 53616C65 		.ascii	"SaleTrans\000"
 18094      5472616E 
 18094      7300
 18095              	.LASF593:
 18096 2566 41504D5F 		.ascii	"APM_GETPENDING\000"
 18096      47455450 
 18096      454E4449 
 18096      4E4700
 18097              	.LASF709:
 18098 2575 61706E63 		.ascii	"apnconfig\000"
 18098      6F6E6669 
 18098      6700
 18099              	.LASF588:
 18100 257f 41504D5F 		.ascii	"APM_GETDESCTBL\000"
 18100      47455444 
 18100      45534354 
ARM GAS  C:\Users\AHMED~1.ELE\AppData\Local\Temp\ccLLYyS4.s 			page 384


 18100      424C00
 18101              	.LASF1077:
 18102 258e 47657445 		.ascii	"GetExpDate\000"
 18102      78704461 
 18102      746500
 18103              	.LASF457:
 18104 2599 4F535F46 		.ascii	"OS_FN_FPRT_OPEN\000"
 18104      4E5F4650 
 18104      52545F4F 
 18104      50454E00 
 18105              	.LASF182:
 18106 25a9 4F535F46 		.ascii	"OS_FN_FILE_READ\000"
 18106      4E5F4649 
 18106      4C455F52 
 18106      45414400 
 18107              	.LASF453:
 18108 25b9 4F535F46 		.ascii	"OS_FN_DTIMER_LATCH_STOP\000"
 18108      4E5F4454 
 18108      494D4552 
 18108      5F4C4154 
 18108      43485F53 
 18109              	.LASF493:
 18110 25d1 4F535F46 		.ascii	"OS_FN_BATT_LEVEL2\000"
 18110      4E5F4241 
 18110      54545F4C 
 18110      4556454C 
 18110      3200
 18111              	.LASF1131:
 18112 25e3 44697370 		.ascii	"DispAmount\000"
 18112      416D6F75 
 18112      6E7400
 18113              	.LASF769:
 18114 25ee 73625F61 		.ascii	"sb_aid\000"
 18114      696400
 18115              	.LASF413:
 18116 25f5 4F535F46 		.ascii	"OS_FN_WIFI_PROFILES_READ\000"
 18116      4E5F5749 
 18116      46495F50 
 18116      524F4649 
 18116      4C45535F 
 18117              	.LASF521:
 18118 260e 46535953 		.ascii	"FSYSINITMW\000"
 18118      494E4954 
 18118      4D5700
 18119              	.LASF64:
 18120 2619 4F535F46 		.ascii	"OS_FN_COM1_OPEN\000"
 18120      4E5F434F 
 18120      4D315F4F 
 18120      50454E00 
 18121              	.LASF91:
 18122 2629 4F535F46 		.ascii	"OS_FN_DESKEY\000"
 18122      4E5F4445 
 18122      534B4559 
 18122      00
 18123              	.LASF175:
 18124 2636 4F535F46 		.ascii	"OS_FN_FILE_CREATE\000"
 18124      4E5F4649 
ARM GAS  C:\Users\AHMED~1.ELE\AppData\Local\Temp\ccLLYyS4.s 			page 385


 18124      4C455F43 
 18124      52454154 
 18124      4500
 18125              	.LASF325:
 18126 2648 4F535F46 		.ascii	"OS_FN_CODEC_PLAY_RAM\000"
 18126      4E5F434F 
 18126      4445435F 
 18126      504C4159 
 18126      5F52414D 
 18127              	.LASF500:
 18128 265d 55534246 		.ascii	"USBFPRT_GENERAL_INFO_IMG_BPP\000"
 18128      5052545F 
 18128      47454E45 
 18128      52414C5F 
 18128      494E464F 
 18129              	.LASF962:
 18130 267a 4544435F 		.ascii	"EDC_RSP_BAD_TERMINAL_ID\000"
 18130      5253505F 
 18130      4241445F 
 18130      5445524D 
 18130      494E414C 
 18131              	.LASF1108:
 18132 2692 67437572 		.ascii	"gCurInfo\000"
 18132      496E666F 
 18132      00
 18133              	.LASF1112:
 18134 269b 6C69625F 		.ascii	"lib_app_call\000"
 18134      6170705F 
 18134      63616C6C 
 18134      00
 18135              	.LASF662:
 18136 26a8 73625F6C 		.ascii	"sb_lxapp_chksum\000"
 18136      78617070 
 18136      5F63686B 
 18136      73756D00 
 18137              	.LASF165:
 18138 26b8 4F535F46 		.ascii	"OS_FN_APP_SEARCH_ID\000"
 18138      4E5F4150 
 18138      505F5345 
 18138      41524348 
 18138      5F494400 
 18139              	.LASF303:
 18140 26cc 4F535F46 		.ascii	"OS_FN_GPRS_SEND\000"
 18140      4E5F4750 
 18140      52535F53 
 18140      454E4400 
 18141              	.LASF658:
 18142 26dc 73625F65 		.ascii	"sb_emvkey_size\000"
 18142      6D766B65 
 18142      795F7369 
 18142      7A6500
 18143              	.LASF1107:
 18144 26eb 67475453 		.ascii	"gGTS\000"
 18144      00
 18145              	.LASF553:
 18146 26f0 4F535F43 		.ascii	"OS_CALL_MW\000"
 18146      414C4C5F 
ARM GAS  C:\Users\AHMED~1.ELE\AppData\Local\Temp\ccLLYyS4.s 			page 386


 18146      4D5700
 18147              	.LASF311:
 18148 26fb 4F535F46 		.ascii	"OS_FN_GPRS_SMS_SEND\000"
 18148      4E5F4750 
 18148      52535F53 
 18148      4D535F53 
 18148      454E4400 
 18149              	.LASF667:
 18150 270f 73625F70 		.ascii	"sb_ppp_user\000"
 18150      70705F75 
 18150      73657200 
 18151              	.LASF382:
 18152 271b 4F535F46 		.ascii	"OS_FN_MIF_TAG\000"
 18152      4E5F4D49 
 18152      465F5441 
 18152      4700
 18153              	.LASF932:
 18154 2729 4544435F 		.ascii	"EDC_PN_PLS_REPRINT\000"
 18154      504E5F50 
 18154      4C535F52 
 18154      45505249 
 18154      4E5400
 18155              	.LASF201:
 18156 273c 4F535F46 		.ascii	"OS_FN_FILE_INIT_SEARCH\000"
 18156      4E5F4649 
 18156      4C455F49 
 18156      4E49545F 
 18156      53454152 
 18157              	.LASF639:
 18158 2753 73625F70 		.ascii	"sb_port\000"
 18158      6F727400 
 18159              	.LASF746:
 18160 275b 73625F6E 		.ascii	"sb_next_batch_no\000"
 18160      6578745F 
 18160      62617463 
 18160      685F6E6F 
 18160      00
 18161              	.LASF301:
 18162 276c 4F535F46 		.ascii	"OS_FN_GPRS_AT_CMD\000"
 18162      4E5F4750 
 18162      52535F41 
 18162      545F434D 
 18162      4400
 18163              	.LASF1057:
 18164 277e 6163715F 		.ascii	"acq_idx\000"
 18164      69647800 
 18165              	.LASF57:
 18166 2786 4F535F46 		.ascii	"OS_FN_DISP_BRIGHTNESS\000"
 18166      4E5F4449 
 18166      53505F42 
 18166      52494748 
 18166      544E4553 
 18167              	.LASF1039:
 18168 279c 625F7365 		.ascii	"b_selected\000"
 18168      6C656374 
 18168      656400
 18169              	.LASF108:
ARM GAS  C:\Users\AHMED~1.ELE\AppData\Local\Temp\ccLLYyS4.s 			page 387


 18170 27a7 4F535F46 		.ascii	"OS_FN_SHA_INIT\000"
 18170      4E5F5348 
 18170      415F494E 
 18170      495400
 18171              	.LASF199:
 18172 27b6 4F535F46 		.ascii	"OS_FN_FILE_GET_SYSTEMINFO\000"
 18172      4E5F4649 
 18172      4C455F47 
 18172      45545F53 
 18172      59535445 
 18173              	.LASF740:
 18174 27d0 625F7365 		.ascii	"b_sec_settle_redial\000"
 18174      635F7365 
 18174      74746C65 
 18174      5F726564 
 18174      69616C00 
 18175              	.LASF460:
 18176 27e4 4F535F46 		.ascii	"OS_FN_FPRT_INFO_SET\000"
 18176      4E5F4650 
 18176      52545F49 
 18176      4E464F5F 
 18176      53455400 
 18177              	.LASF101:
 18178 27f8 4F535F46 		.ascii	"OS_FN_AES_SETUP_KEY\000"
 18178      4E5F4145 
 18178      535F5345 
 18178      5455505F 
 18178      4B455900 
 18179              	.LASF100:
 18180 280c 4F535F46 		.ascii	"OS_FN_RSA_PRIVATE\000"
 18180      4E5F5253 
 18180      415F5052 
 18180      49564154 
 18180      4500
 18181              	.LASF104:
 18182 281e 4F535F46 		.ascii	"OS_FN_SHA1\000"
 18182      4E5F5348 
 18182      413100
 18183              	.LASF259:
 18184 2829 4F535F46 		.ascii	"OS_FN_FL_STATUS\000"
 18184      4E5F464C 
 18184      5F535441 
 18184      54555300 
 18185              	.LASF1098:
 18186 2839 6150726F 		.ascii	"aPrompt\000"
 18186      6D707400 
 18187              	.LASF379:
 18188 2841 4F535F46 		.ascii	"OS_FN_MIF_CANCEL\000"
 18188      4E5F4D49 
 18188      465F4341 
 18188      4E43454C 
 18188      00
 18189              	.LASF404:
 18190 2852 4F535F46 		.ascii	"OS_FN_BARCODE_SCAN\000"
 18190      4E5F4241 
 18190      52434F44 
 18190      455F5343 
ARM GAS  C:\Users\AHMED~1.ELE\AppData\Local\Temp\ccLLYyS4.s 			page 388


 18190      414E00
 18191              	.LASF466:
 18192 2865 4F535F46 		.ascii	"OS_FN_GCM_AES_INIT\000"
 18192      4E5F4743 
 18192      4D5F4145 
 18192      535F494E 
 18192      495400
 18193              	.LASF1089:
 18194 2878 7265635F 		.ascii	"rec_idx\000"
 18194      69647800 
 18195              	.LASF585:
 18196 2880 41504D5F 		.ascii	"APM_GETACQCOUNT\000"
 18196      47455441 
 18196      4351434F 
 18196      554E5400 
 18197              	.LASF783:
 18198 2890 64645F74 		.ascii	"dd_tip\000"
 18198      697000
 18199              	.LASF84:
 18200 2897 4F535F46 		.ascii	"OS_FN_COM3_RXRDY\000"
 18200      4E5F434F 
 18200      4D335F52 
 18200      58524459 
 18200      00
 18201              	.LASF319:
 18202 28a8 4F535F46 		.ascii	"OS_FN_TPAD_ALERT_RETURN\000"
 18202      4E5F5450 
 18202      41445F41 
 18202      4C455254 
 18202      5F524554 
 18203              	.LASF160:
 18204 28c0 4F535F46 		.ascii	"OS_FN_LED_SET\000"
 18204      4E5F4C45 
 18204      445F5345 
 18204      5400
 18205              	.LASF1173:
 18206 28ce 57616974 		.ascii	"WaitICCRemove\000"
 18206      49434352 
 18206      656D6F76 
 18206      6500
 18207              	.LASF760:
 18208 28dc 625F7965 		.ascii	"b_year\000"
 18208      617200
 18209              	.LASF614:
 18210 28e3 41504D5F 		.ascii	"APM_GETACCESSCODE\000"
 18210      47455441 
 18210      43434553 
 18210      53434F44 
 18210      4500
 18211              	.LASF733:
 18212 28f5 625F7365 		.ascii	"b_sec_trans_conn_time\000"
 18212      635F7472 
 18212      616E735F 
 18212      636F6E6E 
 18212      5F74696D 
 18213              	.LASF998:
 18214 290b 4544435F 		.ascii	"EDC_SE_REFUND_TOTAL\000"
ARM GAS  C:\Users\AHMED~1.ELE\AppData\Local\Temp\ccLLYyS4.s 			page 389


 18214      53455F52 
 18214      4546554E 
 18214      445F544F 
 18214      54414C00 
 18215              	.LASF615:
 18216 291f 41504D5F 		.ascii	"APM_SELYESNO\000"
 18216      53454C59 
 18216      45534E4F 
 18216      00
 18217              	.LASF921:
 18218 292c 4544435F 		.ascii	"EDC_FN_BATCH_ERASE\000"
 18218      464E5F42 
 18218      41544348 
 18218      5F455241 
 18218      534500
 18219              	.LASF683:
 18220 293f 625F646C 		.ascii	"b_dll\000"
 18220      6C00
 18221              	.LASF638:
 18222 2945 73625F69 		.ascii	"sb_ip\000"
 18222      7000
 18223              	.LASF227:
 18224 294b 4F535F46 		.ascii	"OS_FN_MMC_READ\000"
 18224      4E5F4D4D 
 18224      435F5245 
 18224      414400
 18225              	.LASF196:
 18226 295a 4F535F46 		.ascii	"OS_FN_FILE_SET_LOCK\000"
 18226      4E5F4649 
 18226      4C455F53 
 18226      45545F4C 
 18226      4F434B00 
 18227              	.LASF287:
 18228 296e 4F535F46 		.ascii	"OS_FN_MCOM_SREAD\000"
 18228      4E5F4D43 
 18228      4F4D5F53 
 18228      52454144 
 18228      00
 18229              	.LASF1063:
 18230 297f 47657441 		.ascii	"GetAuthCode\000"
 18230      75746843 
 18230      6F646500 
 18231              	.LASF659:
 18232 298b 73625F78 		.ascii	"sb_xapp_chksum\000"
 18232      6170705F 
 18232      63686B73 
 18232      756D00
 18233              	.LASF840:
 18234 299a 735F6563 		.ascii	"s_ecr_data\000"
 18234      725F6461 
 18234      746100
 18235              	.LASF824:
 18236 29a5 735F7265 		.ascii	"s_record_buf\000"
 18236      636F7264 
 18236      5F627566 
 18236      00
 18237              	.LASF858:
ARM GAS  C:\Users\AHMED~1.ELE\AppData\Local\Temp\ccLLYyS4.s 			page 390


 18238 29b2 41555448 		.ascii	"AUTH_ICC\000"
 18238      5F494343 
 18238      00
 18239              	.LASF435:
 18240 29bb 4F535F46 		.ascii	"OS_FN_GET_CALLID\000"
 18240      4E5F4745 
 18240      545F4341 
 18240      4C4C4944 
 18240      00
 18241              	.LASF1129:
 18242 29cc 50726F6D 		.ascii	"PromptTips\000"
 18242      70745469 
 18242      707300
 18243              	.LASF571:
 18244 29d7 41504D5F 		.ascii	"APM_SETKBDTO\000"
 18244      5345544B 
 18244      4244544F 
 18244      00
 18245              	.LASF239:
 18246 29e4 4F535F46 		.ascii	"OS_FN_LAN_SEND\000"
 18246      4E5F4C41 
 18246      4E5F5345 
 18246      4E4400
 18247              	.LASF43:
 18248 29f3 4F535F46 		.ascii	"OS_FN_RTC_SET\000"
 18248      4E5F5254 
 18248      435F5345 
 18248      5400
 18249              	.LASF651:
 18250 2a01 73625F65 		.ascii	"sb_edc_date\000"
 18250      64635F64 
 18250      61746500 
 18251              	.LASF169:
 18252 2a0d 4F535F46 		.ascii	"OS_FN_APP_INFO\000"
 18252      4E5F4150 
 18252      505F494E 
 18252      464F00
 18253              	.LASF229:
 18254 2a1c 4F535F46 		.ascii	"OS_FN_MMC_INSERTED\000"
 18254      4E5F4D4D 
 18254      435F494E 
 18254      53455254 
 18254      454400
 18255              	.LASF497:
 18256 2a2f 55534246 		.ascii	"USBFPRT_GENERAL_INFO_MODEL\000"
 18256      5052545F 
 18256      47454E45 
 18256      52414C5F 
 18256      494E464F 
 18257              	.LASF479:
 18258 2a4a 4F535F46 		.ascii	"OS_FN_WIFI_SOCKET_LISTEN\000"
 18258      4E5F5749 
 18258      46495F53 
 18258      4F434B45 
 18258      545F4C49 
 18259              	.LASF328:
 18260 2a63 4F535F46 		.ascii	"OS_FN_CLICC_OPEN\000"
ARM GAS  C:\Users\AHMED~1.ELE\AppData\Local\Temp\ccLLYyS4.s 			page 391


 18260      4E5F434C 
 18260      4943435F 
 18260      4F50454E 
 18260      00
 18261              	.LASF40:
 18262 2a74 4F535F46 		.ascii	"OS_FN_BUZ_BEEP\000"
 18262      4E5F4255 
 18262      5A5F4245 
 18262      455000
 18263              	.LASF432:
 18264 2a83 4F535F46 		.ascii	"OS_FN_BREG_READ\000"
 18264      4E5F4252 
 18264      45475F52 
 18264      45414400 
 18265              	.LASF578:
 18266 2a93 41504D5F 		.ascii	"APM_RESETCOMM\000"
 18266      52455345 
 18266      54434F4D 
 18266      4D00
 18267              	.LASF383:
 18268 2aa1 4F535F46 		.ascii	"OS_FN_MIF_STATUS\000"
 18268      4E5F4D49 
 18268      465F5354 
 18268      41545553 
 18268      00
 18269              	.LASF548:
 18270 2ab2 44495350 		.ascii	"DISP_LINEMW\000"
 18270      5F4C494E 
 18270      454D5700 
 18271              	.LASF530:
 18272 2abe 46434F4D 		.ascii	"FCOMMITALLMW\000"
 18272      4D495441 
 18272      4C4C4D57 
 18272      00
 18273              	.LASF819:
 18274 2acb 625F6464 		.ascii	"b_dd\000"
 18274      00
 18275              	.LASF323:
 18276 2ad0 4F535F46 		.ascii	"OS_FN_CODEC_CLOSE\000"
 18276      4E5F434F 
 18276      4445435F 
 18276      434C4F53 
 18276      4500
 18277              	.LASF264:
 18278 2ae2 4F535F46 		.ascii	"OS_FN_FL_WRITE\000"
 18278      4E5F464C 
 18278      5F575249 
 18278      544500
 18279              	.LASF277:
 18280 2af1 4F535F46 		.ascii	"OS_FN_MDM_DIAL\000"
 18280      4E5F4D44 
 18280      4D5F4449 
 18280      414C00
 18281              	.LASF656:
 18282 2b00 73625F65 		.ascii	"sb_emvkey_chksum\000"
 18282      6D766B65 
 18282      795F6368 
ARM GAS  C:\Users\AHMED~1.ELE\AppData\Local\Temp\ccLLYyS4.s 			page 392


 18282      6B73756D 
 18282      00
 18283              	.LASF797:
 18284 2b11 41435155 		.ascii	"ACQUIRER_REV\000"
 18284      49524552 
 18284      5F524556 
 18284      00
 18285              	.LASF676:
 18286 2b1e 625F6368 		.ascii	"b_checkin_sec_conn_time\000"
 18286      65636B69 
 18286      6E5F7365 
 18286      635F636F 
 18286      6E6E5F74 
 18287              	.LASF1012:
 18288 2b36 4544435F 		.ascii	"EDC_NET_INIT\000"
 18288      4E45545F 
 18288      494E4954 
 18288      00
 18289              	.LASF576:
 18290 2b43 41504D5F 		.ascii	"APM_SENDRCVD\000"
 18290      53454E44 
 18290      52435644 
 18290      00
 18291              	.LASF790:
 18292 2b50 775F7273 		.ascii	"w_rspcode\000"
 18292      70636F64 
 18292      6500
 18293              	.LASF809:
 18294 2b5a 735F766F 		.ascii	"s_void_refund\000"
 18294      69645F72 
 18294      6566756E 
 18294      6400
 18295              	.LASF967:
 18296 2b68 4544435F 		.ascii	"EDC_RSP_APP_CODE\000"
 18296      5253505F 
 18296      4150505F 
 18296      434F4445 
 18296      00
 18297              	.LASF883:
 18298 2b79 4544435F 		.ascii	"EDC_IN_CHK_DIGIT_ERROR\000"
 18298      494E5F43 
 18298      484B5F44 
 18298      49474954 
 18298      5F455252 
 18299              	.LASF1099:
 18300 2b90 47657443 		.ascii	"GetCashBackAmount\000"
 18300      61736842 
 18300      61636B41 
 18300      6D6F756E 
 18300      7400
 18301              	.LASF386:
 18302 2ba2 4F535F46 		.ascii	"OS_FN_MIF_LOAD_KEY\000"
 18302      4E5F4D49 
 18302      465F4C4F 
 18302      41445F4B 
 18302      455900
 18303              	.LASF59:
ARM GAS  C:\Users\AHMED~1.ELE\AppData\Local\Temp\ccLLYyS4.s 			page 393


 18304 2bb5 4F535F46 		.ascii	"OS_FN_DISP_ICON_COLOR\000"
 18304      4E5F4449 
 18304      53505F49 
 18304      434F4E5F 
 18304      434F4C4F 
 18305              	.LASF565:
 18306 2bcb 41504D5F 		.ascii	"APM_GETHWHANDLE\000"
 18306      47455448 
 18306      5748414E 
 18306      444C4500 
 18307              	.LASF696:
 18308 2bdb 625F6465 		.ascii	"b_decimal_pos\000"
 18308      63696D61 
 18308      6C5F706F 
 18308      7300
 18309              	.LASF767:
 18310 2be9 73625F6C 		.ascii	"sb_label\000"
 18310      6162656C 
 18310      00
 18311              	.LASF256:
 18312 2bf2 4F535F46 		.ascii	"OS_FN_USBSER_STATUS\000"
 18312      4E5F5553 
 18312      42534552 
 18312      5F535441 
 18312      54555300 
 18313              	.LASF262:
 18314 2c06 4F535F46 		.ascii	"OS_FN_FL_PGM\000"
 18314      4E5F464C 
 18314      5F50474D 
 18314      00
 18315              	.LASF37:
 18316 2c13 4F535F46 		.ascii	"OS_FN_TIMER_GET\000"
 18316      4E5F5449 
 18316      4D45525F 
 18316      47455400 
 18317              	.LASF1178:
 18318 2c23 7372632F 		.ascii	"src/input.c\000"
 18318      696E7075 
 18318      742E6300 
 18319              	.LASF617:
 18320 2c2f 41504D5F 		.ascii	"APM_MERCHFUNC\000"
 18320      4D455243 
 18320      4846554E 
 18320      4300
 18321              	.LASF852:
 18322 2c3d 564F4944 		.ascii	"VOID\000"
 18322      00
 18323              	.LASF1027:
 18324 2c42 74657874 		.ascii	"text\000"
 18324      00
 18325              	.LASF859:
 18326 2c47 52454655 		.ascii	"REFUND_ICC\000"
 18326      4E445F49 
 18326      434300
 18327              	.LASF1146:
 18328 2c52 436F6D70 		.ascii	"CompressInputData\000"
 18328      72657373 
ARM GAS  C:\Users\AHMED~1.ELE\AppData\Local\Temp\ccLLYyS4.s 			page 394


 18328      496E7075 
 18328      74446174 
 18328      6100
 18329              	.LASF1111:
 18330 2c64 7379735F 		.ascii	"sys_func1\000"
 18330      66756E63 
 18330      3100
 18331              	.LASF980:
 18332 2c6e 4544435F 		.ascii	"EDC_RSP_TRY_AGAIN_LC\000"
 18332      5253505F 
 18332      5452595F 
 18332      41474149 
 18332      4E5F4C43 
 18333              	.LASF95:
 18334 2c83 4F535F46 		.ascii	"OS_FN_COM_DES\000"
 18334      4E5F434F 
 18334      4D5F4445 
 18334      5300
 18335              	.LASF178:
 18336 2c91 4F535F46 		.ascii	"OS_FN_FILE_RENAME\000"
 18336      4E5F4649 
 18336      4C455F52 
 18336      454E414D 
 18336      4500
 18337              	.LASF342:
 18338 2ca3 4F535F46 		.ascii	"OS_FN_USBHOST_UNLINK_BUFFER\000"
 18338      4E5F5553 
 18338      42484F53 
 18338      545F554E 
 18338      4C494E4B 
 18339              	.LASF1078:
 18340 2cbf 47657450 		.ascii	"GetProductCode\000"
 18340      726F6475 
 18340      6374436F 
 18340      646500
 18341              	.LASF68:
 18342 2cce 4F535F46 		.ascii	"OS_FN_COM1_READ\000"
 18342      4E5F434F 
 18342      4D315F52 
 18342      45414400 
 18343              	.LASF713:
 18344 2cde 43415244 		.ascii	"CARD_TBL\000"
 18344      5F54424C 
 18344      00
 18345              	.LASF897:
 18346 2ce7 4544435F 		.ascii	"EDC_IN_4DBC\000"
 18346      494E5F34 
 18346      44424300 
 18347              	.LASF391:
 18348 2cf3 4F535F46 		.ascii	"OS_FN_MIF_INC\000"
 18348      4E5F4D49 
 18348      465F494E 
 18348      4300
 18349              	.LASF478:
 18350 2d01 4F535F46 		.ascii	"OS_FN_WIFI_SOCKET_GET_STATUS\000"
 18350      4E5F5749 
 18350      46495F53 
ARM GAS  C:\Users\AHMED~1.ELE\AppData\Local\Temp\ccLLYyS4.s 			page 395


 18350      4F434B45 
 18350      545F4745 
 18351              	.LASF302:
 18352 2d1e 4F535F46 		.ascii	"OS_FN_GPRS_AT_RESP\000"
 18352      4E5F4750 
 18352      52535F41 
 18352      545F5245 
 18352      535000
 18353              	.LASF800:
 18354 2d31 64645F62 		.ascii	"dd_base_amount\000"
 18354      6173655F 
 18354      616D6F75 
 18354      6E7400
 18355              	.LASF271:
 18356 2d40 4F535F46 		.ascii	"OS_FN_FL_CREAD_RAND\000"
 18356      4E5F464C 
 18356      5F435245 
 18356      41445F52 
 18356      414E4400 
 18357              	.LASF968:
 18358 2d54 4544435F 		.ascii	"EDC_RSP_LOW_BATT\000"
 18358      5253505F 
 18358      4C4F575F 
 18358      42415454 
 18358      00
 18359              	.LASF139:
 18360 2d65 4F535F46 		.ascii	"OS_FN_KEY_SAVE_TMK_CBC\000"
 18360      4E5F4B45 
 18360      595F5341 
 18360      56455F54 
 18360      4D4B5F43 
 18361              	.LASF167:
 18362 2d7c 4F535F46 		.ascii	"OS_FN_APP_GET_VIRGIN\000"
 18362      4E5F4150 
 18362      505F4745 
 18362      545F5649 
 18362      5247494E 
 18363              	.LASF1138:
 18364 2d91 69736264 		.ascii	"isbdigit\000"
 18364      69676974 
 18364      00
 18365              	.LASF431:
 18366 2d9a 4F535F46 		.ascii	"OS_FN_GPS_ENABLED\000"
 18366      4E5F4750 
 18366      535F454E 
 18366      41424C45 
 18366      4400
 18367              	.LASF189:
 18368 2dac 4F535F46 		.ascii	"OS_FN_FILE_DSEARCH\000"
 18368      4E5F4649 
 18368      4C455F44 
 18368      53454152 
 18368      434800
 18369              	.LASF426:
 18370 2dbf 4F535F46 		.ascii	"OS_FN_GPS_GET_INFO\000"
 18370      4E5F4750 
 18370      535F4745 
ARM GAS  C:\Users\AHMED~1.ELE\AppData\Local\Temp\ccLLYyS4.s 			page 396


 18370      545F494E 
 18370      464F00
 18371              	.LASF975:
 18372 2dd2 4544435F 		.ascii	"EDC_RSP_TRY_AGAIN_NC\000"
 18372      5253505F 
 18372      5452595F 
 18372      41474149 
 18372      4E5F4E43 
 18373              	.LASF729:
 18374 2de7 73625F70 		.ascii	"sb_pri_trans_tel\000"
 18374      72695F74 
 18374      72616E73 
 18374      5F74656C 
 18374      00
 18375              	.LASF924:
 18376 2df8 4544435F 		.ascii	"EDC_FN_REV_CLEAR\000"
 18376      464E5F52 
 18376      45565F43 
 18376      4C454152 
 18376      00
 18377              	.LASF1007:
 18378 2e09 4544435F 		.ascii	"EDC_CTL_PROCESSING\000"
 18378      43544C5F 
 18378      50524F43 
 18378      45535349 
 18378      4E4700
 18379              	.LASF1118:
 18380 2e1c 666E6462 		.ascii	"fndb\000"
 18380      00
 18381              	.LASF3:
 18382 2e21 73686F72 		.ascii	"short int\000"
 18382      7420696E 
 18382      7400
 18383              	.LASF634:
 18384 2e2b 625F6469 		.ascii	"b_dial_mode\000"
 18384      616C5F6D 
 18384      6F646500 
 18385              	.LASF816:
 18386 2e37 735F6361 		.ascii	"s_card_tbl\000"
 18386      72645F74 
 18386      626C00
 18387              	.LASF204:
 18388 2e42 4F535F46 		.ascii	"OS_FN_FILE_RMDIR\000"
 18388      4E5F4649 
 18388      4C455F52 
 18388      4D444952 
 18388      00
 18389              	.LASF88:
 18390 2e53 4F535F46 		.ascii	"OS_FN_COM3_STATUS\000"
 18390      4E5F434F 
 18390      4D335F53 
 18390      54415455 
 18390      5300
 18391              	.LASF579:
 18392 2e65 41504D5F 		.ascii	"APM_GETTERMDATA\000"
 18392      47455454 
 18392      45524D44 
ARM GAS  C:\Users\AHMED~1.ELE\AppData\Local\Temp\ccLLYyS4.s 			page 397


 18392      41544100 
 18393              	.LASF664:
 18394 2e75 73625F6C 		.ascii	"sb_lxapp_size\000"
 18394      78617070 
 18394      5F73697A 
 18394      6500
 18395              	.LASF1040:
 18396 2e83 735F7072 		.ascii	"s_prod\000"
 18396      6F6400
 18397              	.LASF1041:
 18398 2e8a 7661725F 		.ascii	"var_i\000"
 18398      6900
 18399              	.LASF1042:
 18400 2e90 7661725F 		.ascii	"var_j\000"
 18400      6A00
 18401              	.LASF61:
 18402 2e96 4F535F46 		.ascii	"OS_FN_DISP_ICON_TEXTC\000"
 18402      4E5F4449 
 18402      53505F49 
 18402      434F4E5F 
 18402      54455854 
 18403              	.LASF558:
 18404 2eac 534D535F 		.ascii	"SMS_COUNT_MW\000"
 18404      434F554E 
 18404      545F4D57 
 18404      00
 18405              	.LASF881:
 18406 2eb9 4544435F 		.ascii	"EDC_CN_REVERSAL\000"
 18406      434E5F52 
 18406      45564552 
 18406      53414C00 
 18407              	.LASF873:
 18408 2ec9 4544435F 		.ascii	"EDC_CN_SALE\000"
 18408      434E5F53 
 18408      414C4500 
 18409              	.LASF875:
 18410 2ed5 4544435F 		.ascii	"EDC_CN_OFFLINE\000"
 18410      434E5F4F 
 18410      46464C49 
 18410      4E4500
 18411              	.LASF742:
 18412 2ee4 73625F6E 		.ascii	"sb_nii\000"
 18412      696900
 18413              	.LASF75:
 18414 2eeb 4F535F46 		.ascii	"OS_FN_COM2_RXRDY\000"
 18414      4E5F434F 
 18414      4D325F52 
 18414      58524459 
 18414      00
 18415              	.LASF296:
 18416 2efc 4F535F46 		.ascii	"OS_FN_ADC_CH_ENABLE\000"
 18416      4E5F4144 
 18416      435F4348 
 18416      5F454E41 
 18416      424C4500 
 18417              	.LASF241:
 18418 2f10 4F535F46 		.ascii	"OS_FN_MSR_OPEN\000"
ARM GAS  C:\Users\AHMED~1.ELE\AppData\Local\Temp\ccLLYyS4.s 			page 398


 18418      4E5F4D53 
 18418      525F4F50 
 18418      454E00
 18419              	.LASF531:
 18420 2f1f 46464C55 		.ascii	"FFLUSHMW\000"
 18420      53484D57 
 18420      00
 18421              	.LASF55:
 18422 2f28 4F535F46 		.ascii	"OS_FN_DISP_TEXTC\000"
 18422      4E5F4449 
 18422      53505F54 
 18422      45585443 
 18422      00
 18423              	.LASF752:
 18424 2f39 625F7374 		.ascii	"b_status\000"
 18424      61747573 
 18424      00
 18425              	.LASF213:
 18426 2f42 4F535F46 		.ascii	"OS_FN_SAM_CLOSE\000"
 18426      4E5F5341 
 18426      4D5F434C 
 18426      4F534500 
 18427              	.LASF388:
 18428 2f52 4F535F46 		.ascii	"OS_FN_MIF_AUTH2\000"
 18428      4E5F4D49 
 18428      465F4155 
 18428      54483200 
 18429              	.LASF1045:
 18430 2f62 46696E64 		.ascii	"FindSeperator\000"
 18430      53657065 
 18430      7261746F 
 18430      7200
 18431              	.LASF1174:
 18432 2f70 46726565 		.ascii	"FreeRunMark\000"
 18432      52756E4D 
 18432      61726B00 
 18433              	.LASF877:
 18434 2f7c 4544435F 		.ascii	"EDC_CN_VOID\000"
 18434      434E5F56 
 18434      4F494400 
 18435              	.LASF719:
 18436 2f88 49535355 		.ascii	"ISSUER_TBL\000"
 18436      45525F54 
 18436      424C00
 18437              	.LASF92:
 18438 2f93 4F535F46 		.ascii	"OS_FN_DES\000"
 18438      4E5F4445 
 18438      5300
 18439              	.LASF835:
 18440 2f9d 735F4354 		.ascii	"s_CTLIn\000"
 18440      4C496E00 
 18441              	.LASF492:
 18442 2fa5 4F535F46 		.ascii	"OS_FN_TAMPER_UNLOCK\000"
 18442      4E5F5441 
 18442      4D504552 
 18442      5F554E4C 
 18442      4F434B00 
ARM GAS  C:\Users\AHMED~1.ELE\AppData\Local\Temp\ccLLYyS4.s 			page 399


 18443              	.LASF1154:
 18444 2fb9 53686F72 		.ascii	"Short1Beep\000"
 18444      74314265 
 18444      657000
 18445              	.LASF234:
 18446 2fc4 4F535F46 		.ascii	"OS_FN_LAN_OPEN\000"
 18446      4E5F4C41 
 18446      4E5F4F50 
 18446      454E00
 18447              	.LASF743:
 18448 2fd3 73625F61 		.ascii	"sb_acceptor_id\000"
 18448      63636570 
 18448      746F725F 
 18448      696400
 18449              	.LASF41:
 18450 2fe2 4F535F46 		.ascii	"OS_FN_BUZ_STATE\000"
 18450      4E5F4255 
 18450      5A5F5354 
 18450      41544500 
 18451              	.LASF129:
 18452 2ff2 4F535F46 		.ascii	"OS_FN_KEY_DES\000"
 18452      4E5F4B45 
 18452      595F4445 
 18452      5300
 18453              	.LASF562:
 18454 3000 46465452 		.ascii	"FFTRUNCATEMW\000"
 18454      554E4341 
 18454      54454D57 
 18454      00
 18455              	.LASF948:
 18456 300d 4544435F 		.ascii	"EDC_RSP_UNKNOWN_CARD\000"
 18456      5253505F 
 18456      554E4B4E 
 18456      4F574E5F 
 18456      43415244 
 18457              	.LASF112:
 18458 3022 4F535F46 		.ascii	"OS_FN_RC4_ENCRYPT\000"
 18458      4E5F5243 
 18458      345F454E 
 18458      43525950 
 18458      5400
 18459              	.LASF726:
 18460 3034 41435155 		.ascii	"ACQUIRER_TBL\000"
 18460      49524552 
 18460      5F54424C 
 18460      00
 18461              	.LASF315:
 18462 3041 4F535F46 		.ascii	"OS_FN_TPAD_CLOSE\000"
 18462      4E5F5450 
 18462      41445F43 
 18462      4C4F5345 
 18462      00
 18463              	.LASF305:
 18464 3052 4F535F46 		.ascii	"OS_FN_GPRS_RESET\000"
 18464      4E5F4750 
 18464      52535F52 
 18464      45534554 
ARM GAS  C:\Users\AHMED~1.ELE\AppData\Local\Temp\ccLLYyS4.s 			page 400


 18464      00
 18465              	.LASF495:
 18466 3063 4F535F46 		.ascii	"OS_FN_GPS_GET_DETAIL_INFO\000"
 18466      4E5F4750 
 18466      535F4745 
 18466      545F4445 
 18466      5441494C 
 18467              	.LASF158:
 18468 307d 4F535F46 		.ascii	"OS_FN_LED_CLOSE\000"
 18468      4E5F4C45 
 18468      445F434C 
 18468      4F534500 
 18469              	.LASF846:
 18470 308d 4F4E4C5F 		.ascii	"ONL_REFUND_SW\000"
 18470      52454655 
 18470      4E445F53 
 18470      5700
 18471              	.LASF115:
 18472 309b 4F535F46 		.ascii	"OS_FN_SM2_SET_CURVE\000"
 18472      4E5F534D 
 18472      325F5345 
 18472      545F4355 
 18472      52564500 
 18473              	.LASF904:
 18474 30af 4544435F 		.ascii	"EDC_AJ_TOTAL_PROMPT\000"
 18474      414A5F54 
 18474      4F54414C 
 18474      5F50524F 
 18474      4D505400 
 18475              	.LASF370:
 18476 30c3 4F535F46 		.ascii	"OS_FN_USBKBD_OPEN\000"
 18476      4E5F5553 
 18476      424B4244 
 18476      5F4F5045 
 18476      4E00
 18477              	.LASF1102:
 18478 30d5 6754696D 		.ascii	"gTimerHdl\000"
 18478      65724864 
 18478      6C00
 18479              	.LASF715:
 18480 30df 73625F70 		.ascii	"sb_pan_range_high\000"
 18480      616E5F72 
 18480      616E6765 
 18480      5F686967 
 18480      6800
 18481              	.LASF958:
 18482 30f1 4544435F 		.ascii	"EDC_RSP_ROC_NOT_FOUND\000"
 18482      5253505F 
 18482      524F435F 
 18482      4E4F545F 
 18482      464F554E 
 18483              	.LASF913:
 18484 3107 4544435F 		.ascii	"EDC_AJ_COMPLETED\000"
 18484      414A5F43 
 18484      4F4D504C 
 18484      45544544 
 18484      00
ARM GAS  C:\Users\AHMED~1.ELE\AppData\Local\Temp\ccLLYyS4.s 			page 401


 18485              	.LASF5:
 18486 3118 6C6F6E67 		.ascii	"long int\000"
 18486      20696E74 
 18486      00
 18487              	.LASF166:
 18488 3121 4F535F46 		.ascii	"OS_FN_APP_SEARCH_NAME\000"
 18488      4E5F4150 
 18488      505F5345 
 18488      41524348 
 18488      5F4E414D 
 18489              	.LASF314:
 18490 3137 4F535F46 		.ascii	"OS_FN_TPAD_OPEN\000"
 18490      4E5F5450 
 18490      41445F4F 
 18490      50454E00 
 18491              	.LASF1056:
 18492 3147 69737375 		.ascii	"issuer_idx\000"
 18492      65725F69 
 18492      647800
 18493              	.LASF878:
 18494 3152 4544435F 		.ascii	"EDC_CN_ADJUST\000"
 18494      434E5F41 
 18494      444A5553 
 18494      5400
 18495              	.LASF779:
 18496 3160 73625F70 		.ascii	"sb_pan\000"
 18496      616E00
 18497              	.LASF358:
 18498 3167 4F535F46 		.ascii	"OS_FN_DEVICE_MOUNT\000"
 18498      4E5F4445 
 18498      56494345 
 18498      5F4D4F55 
 18498      4E5400
 18499              	.LASF599:
 18500 317a 41504D5F 		.ascii	"APM_SETTRACE\000"
 18500      53455454 
 18500      52414345 
 18500      00
 18501              	.LASF668:
 18502 3187 73625F70 		.ascii	"sb_ppp_pwd\000"
 18502      70705F70 
 18502      776400
 18503              	.LASF613:
 18504 3192 41504D5F 		.ascii	"APM_TRACE_IN_REV\000"
 18504      54524143 
 18504      455F494E 
 18504      5F524556 
 18504      00
 18505              	.LASF687:
 18506 31a3 73625F64 		.ascii	"sb_date_time\000"
 18506      6174655F 
 18506      74696D65 
 18506      00
 18507              	.LASF677:
 18508 31b0 625F6368 		.ascii	"b_checkin_sec_redial\000"
 18508      65636B69 
 18508      6E5F7365 
ARM GAS  C:\Users\AHMED~1.ELE\AppData\Local\Temp\ccLLYyS4.s 			page 402


 18508      635F7265 
 18508      6469616C 
 18509              	.LASF152:
 18510 31c5 4F535F46 		.ascii	"OS_FN_THREAD_RETURN\000"
 18510      4E5F5448 
 18510      52454144 
 18510      5F524554 
 18510      55524E00 
 18511              	.LASF223:
 18512 31d9 4F535F46 		.ascii	"OS_FN_MMC_SIZE\000"
 18512      4E5F4D4D 
 18512      435F5349 
 18512      5A4500
 18513              	.LASF1074:
 18514 31e8 56616C69 		.ascii	"ValidCard\000"
 18514      64436172 
 18514      6400
 18515              	.LASF692:
 18516 31f2 73625F6E 		.ascii	"sb_name_loc\000"
 18516      616D655F 
 18516      6C6F6300 
 18517              	.LASF443:
 18518 31fe 4F535F46 		.ascii	"OS_FN_OFF\000"
 18518      4E5F4F46 
 18518      4600
 18519              	.LASF736:
 18520 3208 625F7072 		.ascii	"b_pri_settle_conn_time\000"
 18520      695F7365 
 18520      74746C65 
 18520      5F636F6E 
 18520      6E5F7469 
 18521              	.LASF536:
 18522 321f 4445534D 		.ascii	"DESMW\000"
 18522      5700
 18523              	.LASF410:
 18524 3225 4F535F46 		.ascii	"OS_FN_WIFI_SEND_COMMAND\000"
 18524      4E5F5749 
 18524      46495F53 
 18524      454E445F 
 18524      434F4D4D 
 18525              	.LASF926:
 18526 323d 4544435F 		.ascii	"EDC_FN_REPRINT_BATCH\000"
 18526      464E5F52 
 18526      45505249 
 18526      4E545F42 
 18526      41544348 
 18527              	.LASF60:
 18528 3252 4F535F46 		.ascii	"OS_FN_DISP_ICON_PUTC\000"
 18528      4E5F4449 
 18528      53505F49 
 18528      434F4E5F 
 18528      50555443 
 18529              	.LASF1013:
 18530 3267 4544435F 		.ascii	"EDC_MSG_END\000"
 18530      4D53475F 
 18530      454E4400 
 18531              	.LASF200:
ARM GAS  C:\Users\AHMED~1.ELE\AppData\Local\Temp\ccLLYyS4.s 			page 403


 18532 3273 4F535F46 		.ascii	"OS_FN_FILE_FTRUNCATE\000"
 18532      4E5F4649 
 18532      4C455F46 
 18532      5452554E 
 18532      43415445 
 18533              	.LASF393:
 18534 3288 4F535F46 		.ascii	"OS_FN_MIF_RESTORE\000"
 18534      4E5F4D49 
 18534      465F5245 
 18534      53544F52 
 18534      4500
 18535              	.LASF618:
 18536 329a 41504D5F 		.ascii	"APM_PWRSLEEP\000"
 18536      50575253 
 18536      4C454550 
 18536      00
 18537              	.LASF54:
 18538 32a7 4F535F46 		.ascii	"OS_FN_DISP_GET_LCD_BUFFER\000"
 18538      4E5F4449 
 18538      53505F47 
 18538      45545F4C 
 18538      43445F42 
 18539              	.LASF474:
 18540 32c1 4F535F46 		.ascii	"OS_FN_WIFI_SOCKET_GET_STATE\000"
 18540      4E5F5749 
 18540      46495F53 
 18540      4F434B45 
 18540      545F4745 
 18541              	.LASF118:
 18542 32dd 4F535F46 		.ascii	"OS_FN_SM2_VERIFY_SIGNATURE\000"
 18542      4E5F534D 
 18542      325F5645 
 18542      52494659 
 18542      5F534947 
 18543              	.LASF893:
 18544 32f8 4544435F 		.ascii	"EDC_IN_EXPIRY_DATE\000"
 18544      494E5F45 
 18544      58504952 
 18544      595F4441 
 18544      544500
 18545              	.LASF269:
 18546 330b 4F535F46 		.ascii	"OS_FN_FL_COPYB_PGM\000"
 18546      4E5F464C 
 18546      5F434F50 
 18546      59425F50 
 18546      474D00
 18547              	.LASF9:
 18548 331e 73697A65 		.ascii	"sizetype\000"
 18548      74797065 
 18548      00
 18549              	.LASF1071:
 18550 3327 54726B31 		.ascii	"Trk1Ready\000"
 18550      52656164 
 18550      7900
 18551              	.LASF1011:
 18552 3331 4544435F 		.ascii	"EDC_CTL_CARD_READ_OK\000"
 18552      43544C5F 
ARM GAS  C:\Users\AHMED~1.ELE\AppData\Local\Temp\ccLLYyS4.s 			page 404


 18552      43415244 
 18552      5F524541 
 18552      445F4F4B 
 18553              	.LASF754:
 18554 3346 44455343 		.ascii	"DESC_TBL\000"
 18554      5F54424C 
 18554      00
 18555              	.LASF304:
 18556 334f 4F535F46 		.ascii	"OS_FN_GPRS_READ\000"
 18556      4E5F4750 
 18556      52535F52 
 18556      45414400 
 18557              	.LASF360:
 18558 335f 4F535F46 		.ascii	"OS_FN_INTERRUPT_REGISTER\000"
 18558      4E5F494E 
 18558      54455252 
 18558      5550545F 
 18558      52454749 
 18559              	.LASF1141:
 18560 3378 43686563 		.ascii	"CheckExpDate\000"
 18560      6B457870 
 18560      44617465 
 18560      00
 18561              	.LASF415:
 18562 3385 4F535F46 		.ascii	"OS_FN_NFC_OPEN_FELICA\000"
 18562      4E5F4E46 
 18562      435F4F50 
 18562      454E5F46 
 18562      454C4943 
 18563              	.LASF313:
 18564 339b 4F535F46 		.ascii	"OS_FN_GPRS_SMS_READ\000"
 18564      4E5F4750 
 18564      52535F53 
 18564      4D535F52 
 18564      45414400 
 18565              	.LASF906:
 18566 33af 4544435F 		.ascii	"EDC_AJ_ENTER_NAMT\000"
 18566      414A5F45 
 18566      4E544552 
 18566      5F4E414D 
 18566      5400
 18567              	.LASF235:
 18568 33c1 4F535F46 		.ascii	"OS_FN_LAN_CLOSE\000"
 18568      4E5F4C41 
 18568      4E5F434C 
 18568      4F534500 
 18569              	.LASF452:
 18570 33d1 4F535F46 		.ascii	"OS_FN_DTIMER_LATCH_START\000"
 18570      4E5F4454 
 18570      494D4552 
 18570      5F4C4154 
 18570      43485F53 
 18571              	.LASF1036:
 18572 33ea 636F6465 		.ascii	"code\000"
 18572      00
 18573              	.LASF1062:
 18574 33ef 50726F6D 		.ascii	"PromptYesNo\000"
ARM GAS  C:\Users\AHMED~1.ELE\AppData\Local\Temp\ccLLYyS4.s 			page 405


 18574      70745965 
 18574      734E6F00 
 18575              	.LASF260:
 18576 33fb 4F535F46 		.ascii	"OS_FN_FL_PAGE_READ\000"
 18576      4E5F464C 
 18576      5F504147 
 18576      455F5245 
 18576      414400
 18577              	.LASF653:
 18578 340e 73625F65 		.ascii	"sb_emvapp_chksum\000"
 18578      6D766170 
 18578      705F6368 
 18578      6B73756D 
 18578      00
 18579              	.LASF507:
 18580 341f 45435244 		.ascii	"ECRDATA\000"
 18580      41544100 
 18581              	.LASF751:
 18582 3427 625F7373 		.ascii	"b_ssl_key_idx\000"
 18582      6C5F6B65 
 18582      795F6964 
 18582      7800
 18583              	.LASF996:
 18584 3435 4544435F 		.ascii	"EDC_SE_NO_BATCH\000"
 18584      53455F4E 
 18584      4F5F4241 
 18584      54434800 
 18585              	.LASF176:
 18586 3445 4F535F46 		.ascii	"OS_FN_FILE_CLOSE\000"
 18586      4E5F4649 
 18586      4C455F43 
 18586      4C4F5345 
 18586      00
 18587              	.LASF700:
 18588 3456 625F6C6F 		.ascii	"b_local_option\000"
 18588      63616C5F 
 18588      6F707469 
 18588      6F6E00
 18589              	.LASF953:
 18590 3465 4544435F 		.ascii	"EDC_RSP_PIN_ERROR\000"
 18590      5253505F 
 18590      50494E5F 
 18590      4552524F 
 18590      5200
 18591              	.LASF693:
 18592 3477 73625F64 		.ascii	"sb_dflt_name\000"
 18592      666C745F 
 18592      6E616D65 
 18592      00
 18593              	.LASF150:
 18594 3484 4F535F46 		.ascii	"OS_FN_THREAD_PUSH\000"
 18594      4E5F5448 
 18594      52454144 
 18594      5F505553 
 18594      4800
 18595              	.LASF1177:
 18596 3496 474E5520 		.ascii	"GNU C 4.9.3 20141119 (release) [ARM/embedded-4_9-br"
ARM GAS  C:\Users\AHMED~1.ELE\AppData\Local\Temp\ccLLYyS4.s 			page 406


 18596      4320342E 
 18596      392E3320 
 18596      32303134 
 18596      31313139 
 18597 34c9 616E6368 		.ascii	"anch revision 218278] -mthumb -mcpu=cortex-a5 -mthu"
 18597      20726576 
 18597      6973696F 
 18597      6E203231 
 18597      38323738 
 18598 34fc 6D622D69 		.ascii	"mb-interwork -mstructure-size-boundary=32 -mno-unal"
 18598      6E746572 
 18598      776F726B 
 18598      202D6D73 
 18598      74727563 
 18599 352f 69676E65 		.ascii	"igned-access -g -Os -ffunction-sections -fsigned-ch"
 18599      642D6163 
 18599      63657373 
 18599      202D6720 
 18599      2D4F7320 
 18600 3562 617200   		.ascii	"ar\000"
 18601              	.LASF464:
 18602 3565 4F535F46 		.ascii	"OS_FN_ECC_SCALAR_MULTIPLY\000"
 18602      4E5F4543 
 18602      435F5343 
 18602      414C4152 
 18602      5F4D554C 
 18603              	.LASF397:
 18604 357f 4F535F46 		.ascii	"OS_FN_MIF_SENDCMD\000"
 18604      4E5F4D49 
 18604      465F5345 
 18604      4E44434D 
 18604      4400
 18605              	.LASF813:
 18606 3591 735F6465 		.ascii	"s_desc_tbl\000"
 18606      73635F74 
 18606      626C00
 18607              	.LASF483:
 18608 359c 4F535F46 		.ascii	"OS_FN_IMG_SENSOR_CLOSE\000"
 18608      4E5F494D 
 18608      475F5345 
 18608      4E534F52 
 18608      5F434C4F 
 18609              	.LASF242:
 18610 35b3 4F535F46 		.ascii	"OS_FN_MSR_CLOSE\000"
 18610      4E5F4D53 
 18610      525F434C 
 18610      4F534500 
 18611              	.LASF430:
 18612 35c3 4F535F46 		.ascii	"OS_FN_GPS_RESET\000"
 18612      4E5F4750 
 18612      535F5245 
 18612      53455400 
 18613              	.LASF1088:
 18614 35d3 61496E63 		.ascii	"aIncVoidTxn\000"
 18614      566F6964 
 18614      54786E00 
 18615              	.LASF270:
ARM GAS  C:\Users\AHMED~1.ELE\AppData\Local\Temp\ccLLYyS4.s 			page 407


 18616 35df 4F535F46 		.ascii	"OS_FN_FL_COPYB_END\000"
 18616      4E5F464C 
 18616      5F434F50 
 18616      59425F45 
 18616      4E4400
 18617              	.LASF172:
 18618 35f2 4F535F46 		.ascii	"OS_FN_FREE\000"
 18618      4E5F4652 
 18618      454500
 18619              	.LASF810:
 18620 35fd 735F414C 		.ascii	"s_ALL\000"
 18620      4C00
 18621              	.LASF831:
 18622 3603 735F5278 		.ascii	"s_RxMsg\000"
 18622      4D736700 
 18623              	.LASF590:
 18624 360b 41504D5F 		.ascii	"APM_GETLOGOTBL\000"
 18624      4745544C 
 18624      4F474F54 
 18624      424C00
 18625              	.LASF1166:
 18626 361a 43544C54 		.ascii	"CTLTrans\000"
 18626      72616E73 
 18626      00
 18627              	.LASF476:
 18628 3623 4F535F46 		.ascii	"OS_FN_WIFI_SOCKET_SEND_UDP\000"
 18628      4E5F5749 
 18628      46495F53 
 18628      4F434B45 
 18628      545F5345 
 18629              	.LASF374:
 18630 363e 4F535F46 		.ascii	"OS_FN_TAMPER_ON\000"
 18630      4E5F5441 
 18630      4D504552 
 18630      5F4F4E00 
 18631              	.LASF597:
 18632 364e 41504D5F 		.ascii	"APM_SELACQUIRER\000"
 18632      53454C41 
 18632      43515549 
 18632      52455200 
 18633              	.LASF652:
 18634 365e 73625F65 		.ascii	"sb_edc_size\000"
 18634      64635F73 
 18634      697A6500 
 18635              	.LASF219:
 18636 366a 4F535F46 		.ascii	"OS_FN_SAM_CHANGE\000"
 18636      4E5F5341 
 18636      4D5F4348 
 18636      414E4745 
 18636      00
 18637              	.LASF793:
 18638 367b 775F686F 		.ascii	"w_host_idx\000"
 18638      73745F69 
 18638      647800
 18639              	.LASF278:
 18640 3686 4F535F46 		.ascii	"OS_FN_MDM_DISC\000"
 18640      4E5F4D44 
ARM GAS  C:\Users\AHMED~1.ELE\AppData\Local\Temp\ccLLYyS4.s 			page 408


 18640      4D5F4449 
 18640      534300
 18641              	.LASF547:
 18642 3695 44495350 		.ascii	"DISP_GOTOMW\000"
 18642      5F474F54 
 18642      4F4D5700 
 18643              	.LASF534:
 18644 36a1 4B424453 		.ascii	"KBDSCODEMW\000"
 18644      434F4445 
 18644      4D5700
 18645              	.LASF1081:
 18646 36ac 6C696E65 		.ascii	"line_no\000"
 18646      5F6E6F00 
 18647              	.LASF871:
 18648 36b4 4544435F 		.ascii	"EDC_CO_PROCESSING\000"
 18648      434F5F50 
 18648      524F4345 
 18648      5353494E 
 18648      4700
 18649              	.LASF1002:
 18650 36c6 4544435F 		.ascii	"EDC_EMV_FATAL\000"
 18650      454D565F 
 18650      46415441 
 18650      4C00
 18651              	.LASF66:
 18652 36d4 4F535F46 		.ascii	"OS_FN_COM1_RXRDY\000"
 18652      4E5F434F 
 18652      4D315F52 
 18652      58524459 
 18652      00
 18653              	.LASF541:
 18654 36e5 5343484E 		.ascii	"SCHNLGETPINMW\000"
 18654      4C474554 
 18654      50494E4D 
 18654      5700
 18655              	.LASF245:
 18656 36f3 4F535F46 		.ascii	"OS_FN_MSR_READ\000"
 18656      4E5F4D53 
 18656      525F5245 
 18656      414400
 18657              	.LASF635:
 18658 3702 73625F70 		.ascii	"sb_pabx\000"
 18658      61627800 
 18659              	.LASF965:
 18660 370a 4544435F 		.ascii	"EDC_RSP_BATCH_XFER\000"
 18660      5253505F 
 18660      42415443 
 18660      485F5846 
 18660      455200
 18661              	.LASF528:
 18662 371d 46524541 		.ascii	"FREADMW\000"
 18662      444D5700 
 18663              	.LASF1023:
 18664 3725 625F6F72 		.ascii	"b_org_trans\000"
 18664      675F7472 
 18664      616E7300 
 18665              	.LASF684:
ARM GAS  C:\Users\AHMED~1.ELE\AppData\Local\Temp\ccLLYyS4.s 			page 409


 18666 3731 625F696E 		.ascii	"b_init_control\000"
 18666      69745F63 
 18666      6F6E7472 
 18666      6F6C00
 18667              	.LASF394:
 18668 3740 4F535F46 		.ascii	"OS_FN_MIF_TRANSFER\000"
 18668      4E5F4D49 
 18668      465F5452 
 18668      414E5346 
 18668      455200
 18669              	.LASF756:
 18670 3753 73625F68 		.ascii	"sb_host_tx_code\000"
 18670      6F73745F 
 18670      74785F63 
 18670      6F646500 
 18671              	.LASF583:
 18672 3763 41504D5F 		.ascii	"APM_GETISSUERCOUNT\000"
 18672      47455449 
 18672      53535545 
 18672      52434F55 
 18672      4E5400
 18673              	.LASF610:
 18674 3776 41504D5F 		.ascii	"APM_SAVE_BAT_REC\000"
 18674      53415645 
 18674      5F424154 
 18674      5F524543 
 18674      00
 18675              	.LASF510:
 18676 3787 4D575F54 		.ascii	"MW_TRK2BUF\000"
 18676      524B3242 
 18676      554600
 18677              	.LASF350:
 18678 3792 4F535F46 		.ascii	"OS_FN_DEVICE_ALLOC\000"
 18678      4E5F4445 
 18678      56494345 
 18678      5F414C4C 
 18678      4F4300
 18679              	.LASF155:
 18680 37a5 4F535F46 		.ascii	"OS_FN_BUFMAN_REALLOC\000"
 18680      4E5F4255 
 18680      464D414E 
 18680      5F524541 
 18680      4C4C4F43 
 18681              	.LASF420:
 18682 37ba 4F535F46 		.ascii	"OS_FN_NFC_INFO_GET\000"
 18682      4E5F4E46 
 18682      435F494E 
 18682      464F5F47 
 18682      455400
 18683              	.LASF78:
 18684 37cd 4F535F46 		.ascii	"OS_FN_COM2_SEND\000"
 18684      4E5F434F 
 18684      4D325F53 
 18684      454E4400 
 18685              	.LASF22:
 18686 37dd 70624C6F 		.ascii	"pbLoc\000"
 18686      6300
ARM GAS  C:\Users\AHMED~1.ELE\AppData\Local\Temp\ccLLYyS4.s 			page 410


 18687              	.LASF1079:
 18688 37e3 6B657969 		.ascii	"keyin\000"
 18688      6E00
 18689              	.LASF19:
 18690 37e9 73494F5F 		.ascii	"sIO_t\000"
 18690      7400
 18691              	.LASF324:
 18692 37ef 4F535F46 		.ascii	"OS_FN_CODEC_PLAY\000"
 18692      4E5F434F 
 18692      4445435F 
 18692      504C4159 
 18692      00
 18693              	.LASF23:
 18694 3800 544C4953 		.ascii	"TLIST\000"
 18694      5400
 18695              	.LASF377:
 18696 3806 4F535F46 		.ascii	"OS_FN_MIF_OPEN\000"
 18696      4E5F4D49 
 18696      465F4F50 
 18696      454E00
 18697              	.LASF1043:
 18698 3815 61427566 		.ascii	"aBuf\000"
 18698      00
 18699              	.LASF137:
 18700 381a 4F535F46 		.ascii	"OS_FN_KEY_SAVE_NC\000"
 18700      4E5F4B45 
 18700      595F5341 
 18700      56455F4E 
 18700      4300
 18701              	.LASF481:
 18702 382c 4F535F46 		.ascii	"OS_FN_IMG_SENSOR_GET_FRAME\000"
 18702      4E5F494D 
 18702      475F5345 
 18702      4E534F52 
 18702      5F474554 
 18703              	.LASF1117:
 18704 3847 73706C69 		.ascii	"split\000"
 18704      7400
 18705              	.LASF357:
 18706 384d 4F535F46 		.ascii	"OS_FN_DEVICE_OPEN\000"
 18706      4E5F4445 
 18706      56494345 
 18706      5F4F5045 
 18706      4E00
 18707              	.LASF674:
 18708 385f 625F6368 		.ascii	"b_checkin_pri_redial\000"
 18708      65636B69 
 18708      6E5F7072 
 18708      695F7265 
 18708      6469616C 
 18709              	.LASF1163:
 18710 3874 43746C55 		.ascii	"CtlUnderTransLimit\000"
 18710      6E646572 
 18710      5472616E 
 18710      734C696D 
 18710      697400
 18711              	.LASF1165:
ARM GAS  C:\Users\AHMED~1.ELE\AppData\Local\Temp\ccLLYyS4.s 			page 411


 18712 3887 43544C57 		.ascii	"CTLWaitCard\000"
 18712      61697443 
 18712      61726400 
 18713              	.LASF185:
 18714 3893 4F535F46 		.ascii	"OS_FN_FILE_GETC\000"
 18714      4E5F4649 
 18714      4C455F47 
 18714      45544300 
 18715              	.LASF914:
 18716 38a3 4544435F 		.ascii	"EDC_VD_VOIDED\000"
 18716      56445F56 
 18716      4F494445 
 18716      4400
 18717              	.LASF1161:
 18718 38b1 5472616E 		.ascii	"TransEnd\000"
 18718      73456E64 
 18718      00
 18719              	.LASF569:
 18720 38ba 41504D5F 		.ascii	"APM_YESNO\000"
 18720      5945534E 
 18720      4F00
 18721              	.LASF787:
 18722 38c4 73625F68 		.ascii	"sb_holder_name\000"
 18722      6F6C6465 
 18722      725F6E61 
 18722      6D6500
 18723              	.LASF1:
 18724 38d3 7369676E 		.ascii	"signed char\000"
 18724      65642063 
 18724      68617200 
 18725              	.LASF879:
 18726 38df 4544435F 		.ascii	"EDC_CN_UPLOAD\000"
 18726      434E5F55 
 18726      504C4F41 
 18726      4400
 18727              	.LASF782:
 18728 38ed 64645F61 		.ascii	"dd_amount\000"
 18728      6D6F756E 
 18728      7400
 18729              	.LASF1028:
 18730 38f7 5452414E 		.ascii	"TRANS_DATA\000"
 18730      535F4441 
 18730      544100
 18731              	.LASF660:
 18732 3902 73625F78 		.ascii	"sb_xapp_date\000"
 18732      6170705F 
 18732      64617465 
 18732      00
 18733              	.LASF554:
 18734 390f 42535F43 		.ascii	"BS_CALL_MW\000"
 18734      414C4C5F 
 18734      4D5700
 18735              	.LASF527:
 18736 391a 46534545 		.ascii	"FSEEKMW\000"
 18736      4B4D5700 
 18737              	.LASF373:
 18738 3922 4F535F46 		.ascii	"OS_FN_USBKBD_GETKEY\000"
ARM GAS  C:\Users\AHMED~1.ELE\AppData\Local\Temp\ccLLYyS4.s 			page 412


 18738      4E5F5553 
 18738      424B4244 
 18738      5F474554 
 18738      4B455900 
 18739              	.LASF882:
 18740 3936 4544435F 		.ascii	"EDC_CN_TEST_MSG\000"
 18740      434E5F54 
 18740      4553545F 
 18740      4D534700 
 18741              	.LASF923:
 18742 3946 4544435F 		.ascii	"EDC_FN_CLR_REV\000"
 18742      464E5F43 
 18742      4C525F52 
 18742      455600
 18743              	.LASF866:
 18744 3955 4D41585F 		.ascii	"MAX_TXN_TYPE\000"
 18744      54584E5F 
 18744      54595045 
 18744      00
 18745              	.LASF1084:
 18746 3962 73656C65 		.ascii	"select_cnt\000"
 18746      63745F63 
 18746      6E7400
 18747              	.LASF537:
 18748 396d 44455332 		.ascii	"DES2MW\000"
 18748      4D5700
 18749              	.LASF845:
 18750 3974 53414C45 		.ascii	"SALE_MANUAL\000"
 18750      5F4D414E 
 18750      55414C00 
 18751              	.LASF698:
 18752 3980 625F7365 		.ascii	"b_settle_amount_len\000"
 18752      74746C65 
 18752      5F616D6F 
 18752      756E745F 
 18752      6C656E00 
 18753              	.LASF1034:
 18754 3994 54584E5F 		.ascii	"TXN_OK\000"
 18754      4F4B00
 18755              	.LASF168:
 18756 399b 4F535F46 		.ascii	"OS_FN_APP_CLR_VIRGIN\000"
 18756      4E5F4150 
 18756      505F434C 
 18756      525F5649 
 18756      5247494E 
 18757              	.LASF1018:
 18758 39b0 775F6361 		.ascii	"w_card_idx\000"
 18758      72645F69 
 18758      647800
 18759              	.LASF718:
 18760 39bb 625F7061 		.ascii	"b_pan_len\000"
 18760      6E5F6C65 
 18760      6E00
 18761              	.LASF834:
 18762 39c5 735F454D 		.ascii	"s_EMVOut\000"
 18762      564F7574 
 18762      00
ARM GAS  C:\Users\AHMED~1.ELE\AppData\Local\Temp\ccLLYyS4.s 			page 413


 18763              	.LASF959:
 18764 39ce 4544435F 		.ascii	"EDC_RSP_BAD_BATCH_NO\000"
 18764      5253505F 
 18764      4241445F 
 18764      42415443 
 18764      485F4E4F 
 18765              	.LASF291:
 18766 39e3 4F535F46 		.ascii	"OS_FN_MCOM_SEND\000"
 18766      4E5F4D43 
 18766      4F4D5F53 
 18766      454E4400 
 18767              	.LASF274:
 18768 39f3 4F535F46 		.ascii	"OS_FN_FL_COPYBACK\000"
 18768      4E5F464C 
 18768      5F434F50 
 18768      59424143 
 18768      4B00
 18769              	.LASF991:
 18770 3a05 4544435F 		.ascii	"EDC_RSP_UNSUPPORT_CARD\000"
 18770      5253505F 
 18770      554E5355 
 18770      50504F52 
 18770      545F4341 
 18771              	.LASF261:
 18772 3a1c 4F535F46 		.ascii	"OS_FN_FL_PAGE\000"
 18772      4E5F464C 
 18772      5F504147 
 18772      4500
 18773              	.LASF49:
 18774 3a2a 4F535F46 		.ascii	"OS_FN_DISP_GETG\000"
 18774      4E5F4449 
 18774      53505F47 
 18774      45544700 
 18775              	.LASF52:
 18776 3a3a 4F535F46 		.ascii	"OS_FN_DISP_GETP\000"
 18776      4E5F4449 
 18776      53505F47 
 18776      45545000 
 18777              	.LASF666:
 18778 3a4a 73625F66 		.ascii	"sb_ftp_pwd\000"
 18778      74705F70 
 18778      776400
 18779              	.LASF359:
 18780 3a55 4F535F46 		.ascii	"OS_FN_DEVICE_UNMOUNT\000"
 18780      4E5F4445 
 18780      56494345 
 18780      5F554E4D 
 18780      4F554E54 
 18781              	.LASF801:
 18782 3a6a 544F5441 		.ascii	"TOTAL\000"
 18782      4C00
 18783              	.LASF1016:
 18784 3a70 735F7472 		.ascii	"s_trk1buf\000"
 18784      6B316275 
 18784      6600
 18785              	.LASF348:
 18786 3a7a 4F535F46 		.ascii	"OS_FN_DRIVER_REGISTER\000"
ARM GAS  C:\Users\AHMED~1.ELE\AppData\Local\Temp\ccLLYyS4.s 			page 414


 18786      4E5F4452 
 18786      49564552 
 18786      5F524547 
 18786      49535445 
 18787              	.LASF969:
 18788 3a90 4544435F 		.ascii	"EDC_RSP_CTL_TOI\000"
 18788      5253505F 
 18788      43544C5F 
 18788      544F4900 
 18789              	.LASF737:
 18790 3aa0 625F7072 		.ascii	"b_pri_settle_redial\000"
 18790      695F7365 
 18790      74746C65 
 18790      5F726564 
 18790      69616C00 
 18791              	.LASF1171:
 18792 3ab4 506F7765 		.ascii	"PowerOffICC\000"
 18792      724F6666 
 18792      49434300 
 18793              	.LASF425:
 18794 3ac0 4F535F46 		.ascii	"OS_FN_GPS_OFF\000"
 18794      4E5F4750 
 18794      535F4F46 
 18794      4600
 18795              	.LASF487:
 18796 3ace 4F535F46 		.ascii	"OS_FN_IMG_SENSOR_LED_OPEN\000"
 18796      4E5F494D 
 18796      475F5345 
 18796      4E534F52 
 18796      5F4C4544 
 18797              	.LASF559:
 18798 3ae8 534D535F 		.ascii	"SMS_CLEAR_ALL_MW\000"
 18798      434C4541 
 18798      525F414C 
 18798      4C5F4D57 
 18798      00
 18799              	.LASF983:
 18800 3af9 4544435F 		.ascii	"EDC_RSP_SWIPE_CARD\000"
 18800      5253505F 
 18800      53574950 
 18800      455F4341 
 18800      524400
 18801              	.LASF533:
 18802 3b0c 47455443 		.ascii	"GETCHARMW\000"
 18802      4841524D 
 18802      5700
 18803              	.LASF13:
 18804 3b16 42595445 		.ascii	"BYTE\000"
 18804      00
 18805              	.LASF392:
 18806 3b1b 4F535F46 		.ascii	"OS_FN_MIF_DEC\000"
 18806      4E5F4D49 
 18806      465F4445 
 18806      4300
 18807              	.LASF306:
 18808 3b29 4F535F46 		.ascii	"OS_FN_GPRS_CONTROL\000"
 18808      4E5F4750 
ARM GAS  C:\Users\AHMED~1.ELE\AppData\Local\Temp\ccLLYyS4.s 			page 415


 18808      52535F43 
 18808      4F4E5452 
 18808      4F4C00
 18809              	.LASF417:
 18810 3b3c 4F535F46 		.ascii	"OS_FN_NFC_CANCEL\000"
 18810      4E5F4E46 
 18810      435F4341 
 18810      4E43454C 
 18810      00
 18811              	.LASF1014:
 18812 3b4d 494E5055 		.ascii	"INPUT_DATA\000"
 18812      545F4441 
 18812      544100
 18813              	.LASF408:
 18814 3b58 4F535F46 		.ascii	"OS_FN_BARCODE_ENABLED\000"
 18814      4E5F4241 
 18814      52434F44 
 18814      455F454E 
 18814      41424C45 
 18815              	.LASF8:
 18816 3b6e 6C6F6E67 		.ascii	"long long unsigned int\000"
 18816      206C6F6E 
 18816      6720756E 
 18816      7369676E 
 18816      65642069 
 18817              	.LASF841:
 18818 3b85 695F6563 		.ascii	"i_ecr_len\000"
 18818      725F6C65 
 18818      6E00
 18819              	.LASF799:
 18820 3b8f 625F7479 		.ascii	"b_type\000"
 18820      706500
 18821              	.LASF595:
 18822 3b96 41504D5F 		.ascii	"APM_GETBATCH\000"
 18822      47455442 
 18822      41544348 
 18822      00
 18823              	.LASF945:
 18824 3ba3 4544435F 		.ascii	"EDC_RSP_RETRY\000"
 18824      5253505F 
 18824      52455452 
 18824      5900
 18825              	.LASF329:
 18826 3bb1 4F535F46 		.ascii	"OS_FN_CLICC_POLL\000"
 18826      4E5F434C 
 18826      4943435F 
 18826      504F4C4C 
 18826      00
 18827              	.LASF279:
 18828 3bc2 4F535F46 		.ascii	"OS_FN_MDM_CID\000"
 18828      4E5F4D44 
 18828      4D5F4349 
 18828      4400
 18829              	.LASF550:
 18830 3bd0 44495350 		.ascii	"DISP_GETGMW\000"
 18830      5F474554 
 18830      474D5700 
ARM GAS  C:\Users\AHMED~1.ELE\AppData\Local\Temp\ccLLYyS4.s 			page 416


 18831              	.LASF429:
 18832 3bdc 4F535F46 		.ascii	"OS_FN_GPS_RESP\000"
 18832      4E5F4750 
 18832      535F5245 
 18832      535000
 18833              	.LASF385:
 18834 3beb 4F535F46 		.ascii	"OS_FN_MIF_SELECT\000"
 18834      4E5F4D49 
 18834      465F5345 
 18834      4C454354 
 18834      00
 18835              	.LASF387:
 18836 3bfc 4F535F46 		.ascii	"OS_FN_MIF_AUTH1\000"
 18836      4E5F4D49 
 18836      465F4155 
 18836      54483100 
 18837              	.LASF63:
 18838 3c0c 4F535F46 		.ascii	"OS_FN_DISP_OVERLAY\000"
 18838      4E5F4449 
 18838      53505F4F 
 18838      5645524C 
 18838      415900
 18839              	.LASF903:
 18840 3c1f 4544435F 		.ascii	"EDC_TU_CLOSE_BATCH\000"
 18840      54555F43 
 18840      4C4F5345 
 18840      5F424154 
 18840      434800
 18841              	.LASF147:
 18842 3c32 4F535F46 		.ascii	"OS_FN_THREAD_DELETE\000"
 18842      4E5F5448 
 18842      52454144 
 18842      5F44454C 
 18842      45544500 
 18843              	.LASF1038:
 18844 3c46 50524F44 		.ascii	"PRODUCT\000"
 18844      55435400 
 18845              	.LASF375:
 18846 3c4e 4F535F46 		.ascii	"OS_FN_TAMPER_GET_STATUS\000"
 18846      4E5F5441 
 18846      4D504552 
 18846      5F474554 
 18846      5F535441 
 18847              	.LASF628:
 18848 3c66 625F7072 		.ascii	"b_pri_conn_time\000"
 18848      695F636F 
 18848      6E6E5F74 
 18848      696D6500 
 18849              	.LASF788:
 18850 3c76 73625F65 		.ascii	"sb_ecr_ref\000"
 18850      63725F72 
 18850      656600
 18851              	.LASF205:
 18852 3c81 4F535F46 		.ascii	"OS_FN_FILE_GET_LONGNAME\000"
 18852      4E5F4649 
 18852      4C455F47 
 18852      45545F4C 
ARM GAS  C:\Users\AHMED~1.ELE\AppData\Local\Temp\ccLLYyS4.s 			page 417


 18852      4F4E474E 
 18853              	.LASF654:
 18854 3c99 73625F65 		.ascii	"sb_emvapp_date\000"
 18854      6D766170 
 18854      705F6461 
 18854      746500
 18855              	.LASF727:
 18856 3ca8 73625F70 		.ascii	"sb_program\000"
 18856      726F6772 
 18856      616D00
 18857              	.LASF188:
 18858 3cb3 4F535F46 		.ascii	"OS_FN_FILE_SEARCH\000"
 18858      4E5F4649 
 18858      4C455F53 
 18858      45415243 
 18858      4800
 18859              	.LASF774:
 18860 3cc5 73625F6D 		.ascii	"sb_misc_content\000"
 18860      6973635F 
 18860      636F6E74 
 18860      656E7400 
 18861              	.LASF952:
 18862 3cd5 4544435F 		.ascii	"EDC_RSP_CARD_EXPIRED\000"
 18862      5253505F 
 18862      43415244 
 18862      5F455850 
 18862      49524544 
 18863              	.LASF758:
 18864 3cea 44415445 		.ascii	"DATETIME\000"
 18864      54494D45 
 18864      00
 18865              	.LASF566:
 18866 3cf3 41504D5F 		.ascii	"APM_CLRKEY\000"
 18866      434C524B 
 18866      455900
 18867              	.LASF622:
 18868 3cfe 5445524D 		.ascii	"TERM_DATA\000"
 18868      5F444154 
 18868      4100
 18869              	.LASF226:
 18870 3d08 4F535F46 		.ascii	"OS_FN_MMC_BLK_WRITE\000"
 18870      4E5F4D4D 
 18870      435F424C 
 18870      4B5F5752 
 18870      49544500 
 18871              	.LASF989:
 18872 3d1c 4544435F 		.ascii	"EDC_RSP_TRY_AGAING_TO\000"
 18872      5253505F 
 18872      5452595F 
 18872      41474149 
 18872      4E475F54 
 18873              	.LASF943:
 18874 3d32 4544435F 		.ascii	"EDC_RSP_BAD_AMOUNT\000"
 18874      5253505F 
 18874      4241445F 
 18874      414D4F55 
 18874      4E5400
ARM GAS  C:\Users\AHMED~1.ELE\AppData\Local\Temp\ccLLYyS4.s 			page 418


 18875              	.LASF701:
 18876 3d45 73625F61 		.ascii	"sb_additional_prompt\000"
 18876      64646974 
 18876      696F6E61 
 18876      6C5F7072 
 18876      6F6D7074 
 18877              	.LASF183:
 18878 3d5a 4F535F46 		.ascii	"OS_FN_FILE_WRITE\000"
 18878      4E5F4649 
 18878      4C455F57 
 18878      52495445 
 18878      00
 18879              	.LASF73:
 18880 3d6b 4F535F46 		.ascii	"OS_FN_COM2_OPEN\000"
 18880      4E5F434F 
 18880      4D325F4F 
 18880      50454E00 
 18881              	.LASF584:
 18882 3d7b 41504D5F 		.ascii	"APM_GETISSUER\000"
 18882      47455449 
 18882      53535545 
 18882      5200
 18883              	.LASF946:
 18884 3d89 4544435F 		.ascii	"EDC_RSP_INVALID_TERM\000"
 18884      5253505F 
 18884      494E5641 
 18884      4C49445F 
 18884      5445524D 
 18885              	.LASF955:
 18886 3d9e 4544435F 		.ascii	"EDC_RSP_CONTACT_ACQ\000"
 18886      5253505F 
 18886      434F4E54 
 18886      4143545F 
 18886      41435100 
 18887              	.LASF927:
 18888 3db2 4544435F 		.ascii	"EDC_FN_PRINT_REPORT\000"
 18888      464E5F50 
 18888      52494E54 
 18888      5F524550 
 18888      4F525400 
 18889              	.LASF338:
 18890 3dc6 4F535F46 		.ascii	"OS_FN_CLICC_LED_SET\000"
 18890      4E5F434C 
 18890      4943435F 
 18890      4C45445F 
 18890      53455400 
 18891              	.LASF837:
 18892 3dda 735F5461 		.ascii	"s_TagList\000"
 18892      674C6973 
 18892      7400
 18893              	.LASF1136:
 18894 3de4 454D5650 		.ascii	"EMVProcDisable\000"
 18894      726F6344 
 18894      69736162 
 18894      6C6500
 18895              	.LASF1059:
 18896 3df3 6D61785F 		.ascii	"max_card\000"
ARM GAS  C:\Users\AHMED~1.ELE\AppData\Local\Temp\ccLLYyS4.s 			page 419


 18896      63617264 
 18896      00
 18897              	.LASF249:
 18898 3dfc 4F535F46 		.ascii	"OS_FN_LPT_PUTC\000"
 18898      4E5F4C50 
 18898      545F5055 
 18898      544300
 18899              	.LASF230:
 18900 3e0b 4F535F46 		.ascii	"OS_FN_SLE_OPEN\000"
 18900      4E5F534C 
 18900      455F4F50 
 18900      454E00
 18901              	.LASF1132:
 18902 3e1a 52656164 		.ascii	"ReadRTC\000"
 18902      52544300 
 18903              	.LASF625:
 18904 3e22 73625F74 		.ascii	"sb_term_id\000"
 18904      65726D5F 
 18904      696400
 18905              	.LASF418:
 18906 3e2d 4F535F46 		.ascii	"OS_FN_NFC_CLOSE\000"
 18906      4E5F4E46 
 18906      435F434C 
 18906      4F534500 
 18907              	.LASF401:
 18908 3e3d 4F535F46 		.ascii	"OS_FN_BARCODE_OPEN\000"
 18908      4E5F4241 
 18908      52434F44 
 18908      455F4F50 
 18908      454E00
 18909              	.LASF149:
 18910 3e50 4F535F46 		.ascii	"OS_FN_THREAD_UNLOCK\000"
 18910      4E5F5448 
 18910      52454144 
 18910      5F554E4C 
 18910      4F434B00 
 18911              	.LASF750:
 18912 3e64 625F7265 		.ascii	"b_reserved1\000"
 18912      73657276 
 18912      65643100 
 18913              	.LASF941:
 18914 3e70 4544435F 		.ascii	"EDC_RSP_APPV_ID\000"
 18914      5253505F 
 18914      41505056 
 18914      5F494400 
 18915              	.LASF389:
 18916 3e80 4F535F46 		.ascii	"OS_FN_MIF_READ\000"
 18916      4E5F4D49 
 18916      465F5245 
 18916      414400
 18917              	.LASF695:
 18918 3e8f 625F7472 		.ascii	"b_trans_amount_len\000"
 18918      616E735F 
 18918      616D6F75 
 18918      6E745F6C 
 18918      656E00
 18919              	.LASF964:
ARM GAS  C:\Users\AHMED~1.ELE\AppData\Local\Temp\ccLLYyS4.s 			page 420


 18920 3ea2 4544435F 		.ascii	"EDC_RSP_DUP_TRACE\000"
 18920      5253505F 
 18920      4455505F 
 18920      54524143 
 18920      4500
 18921              	.LASF1015:
 18922 3eb4 73625F70 		.ascii	"sb_pin\000"
 18922      696E00
 18923              	.LASF407:
 18924 3ebb 4F535F46 		.ascii	"OS_FN_BARCODE_STATUS\000"
 18924      4E5F4241 
 18924      52434F44 
 18924      455F5354 
 18924      41545553 
 18925              	.LASF113:
 18926 3ed0 4F535F46 		.ascii	"OS_FN_MD4_PROCESS\000"
 18926      4E5F4D44 
 18926      345F5052 
 18926      4F434553 
 18926      5300
 18927              	.LASF330:
 18928 3ee2 4F535F46 		.ascii	"OS_FN_CLICC_REMOVE\000"
 18928      4E5F434C 
 18928      4943435F 
 18928      52454D4F 
 18928      564500
 18929              	.LASF125:
 18930 3ef5 4F535F46 		.ascii	"OS_FN_SM4_ENCRYPT\000"
 18930      4E5F534D 
 18930      345F454E 
 18930      43525950 
 18930      5400
 18931              	.LASF10:
 18932 3f07 63686172 		.ascii	"char\000"
 18932      00
 18933              	.LASF98:
 18934 3f0c 4F535F46 		.ascii	"OS_FN_NEW_DES2\000"
 18934      4E5F4E45 
 18934      575F4445 
 18934      533200
 18935              	.LASF524:
 18936 3f1b 464F5045 		.ascii	"FOPENMW\000"
 18936      4E4D5700 
 18937              	.LASF685:
 18938 3f23 625F7273 		.ascii	"b_rsvd0\000"
 18938      76643000 
 18939              	.LASF686:
 18940 3f2b 625F7273 		.ascii	"b_rsvd1\000"
 18940      76643100 
 18941              	.LASF697:
 18942 3f33 625F7273 		.ascii	"b_rsvd2\000"
 18942      76643200 
 18943              	.LASF96:
 18944 3f3b 4F535F46 		.ascii	"OS_FN_COM_DES2\000"
 18944      4E5F434F 
 18944      4D5F4445 
 18944      533200
ARM GAS  C:\Users\AHMED~1.ELE\AppData\Local\Temp\ccLLYyS4.s 			page 421


 18945              	.LASF670:
 18946 3f4a 73625F70 		.ascii	"sb_ppp_port\000"
 18946      70705F70 
 18946      6F727400 
 18947              	.LASF910:
 18948 3f56 4544435F 		.ascii	"EDC_AJ_OVERLIMIT\000"
 18948      414A5F4F 
 18948      5645524C 
 18948      494D4954 
 18948      00
 18949              	.LASF1101:
 18950 3f67 4B446563 		.ascii	"KDecimalPos\000"
 18950      696D616C 
 18950      506F7300 
 18951              	.LASF586:
 18952 3f73 41504D5F 		.ascii	"APM_GETACQTBL\000"
 18952      47455441 
 18952      43515442 
 18952      4C00
 18953              	.LASF725:
 18954 3f81 73625F66 		.ascii	"sb_floor_limit\000"
 18954      6C6F6F72 
 18954      5F6C696D 
 18954      697400
 18955              	.LASF710:
 18956 3f90 61706E63 		.ascii	"apnconfig2\000"
 18956      6F6E6669 
 18956      673200
 18957              	.LASF282:
 18958 3f9b 4F535F46 		.ascii	"OS_FN_MCOM_OPEN\000"
 18958      4E5F4D43 
 18958      4F4D5F4F 
 18958      50454E00 
 18959              	.LASF1095:
 18960 3fab 6563725F 		.ascii	"ecr_amt\000"
 18960      616D7400 
 18961              	.LASF626:
 18962 3fb3 625F696E 		.ascii	"b_init_mode\000"
 18962      69745F6D 
 18962      6F646500 
 18963              	.LASF356:
 18964 3fbf 4F535F46 		.ascii	"OS_FN_DEVICE_SEARCH_NEXT\000"
 18964      4E5F4445 
 18964      56494345 
 18964      5F534541 
 18964      5243485F 
 18965              	.LASF832:
 18966 3fd8 73625F49 		.ascii	"sb_IOBuf\000"
 18966      4F427566 
 18966      00
 18967              	.LASF34:
 18968 3fe1 4F535F46 		.ascii	"OS_FN_TIMER_OPEN\000"
 18968      4E5F5449 
 18968      4D45525F 
 18968      4F50454E 
 18968      00
 18969              	.LASF85:
ARM GAS  C:\Users\AHMED~1.ELE\AppData\Local\Temp\ccLLYyS4.s 			page 422


 18970 3ff2 4F535F46 		.ascii	"OS_FN_COM3_TXRDY\000"
 18970      4E5F434F 
 18970      4D335F54 
 18970      58524459 
 18970      00
 18971              	.LASF434:
 18972 4003 4F535F46 		.ascii	"OS_FN_APPDL_WRITE_APP\000"
 18972      4E5F4150 
 18972      50444C5F 
 18972      57524954 
 18972      455F4150 
 18973              	.LASF258:
 18974 4019 4F535F46 		.ascii	"OS_FN_FL_INFO\000"
 18974      4E5F464C 
 18974      5F494E46 
 18974      4F00
 18975              	.LASF780:
 18976 4027 73625F65 		.ascii	"sb_exp_date\000"
 18976      78705F64 
 18976      61746500 
 18977              	.LASF369:
 18978 4033 4F535F46 		.ascii	"OS_FN_NETDEV_IOCTL\000"
 18978      4E5F4E45 
 18978      54444556 
 18978      5F494F43 
 18978      544C00
 18979              	.LASF441:
 18980 4046 4F535F46 		.ascii	"OS_FN_RDLL_APP\000"
 18980      4E5F5244 
 18980      4C4C5F41 
 18980      505000
 18981              	.LASF781:
 18982 4055 63757272 		.ascii	"currency\000"
 18982      656E6379 
 18982      00
 18983              	.LASF364:
 18984 405e 4F535F46 		.ascii	"OS_FN_USBOTG_GET_STATE\000"
 18984      4E5F5553 
 18984      424F5447 
 18984      5F474554 
 18984      5F535441 
 18985              	.LASF327:
 18986 4075 4F535F46 		.ascii	"OS_FN_CODEC_STATUS\000"
 18986      4E5F434F 
 18986      4445435F 
 18986      53544154 
 18986      555300
 18987              	.LASF132:
 18988 4088 4F535F46 		.ascii	"OS_FN_KEY_DUKPT_ENCRYPT\000"
 18988      4E5F4B45 
 18988      595F4455 
 18988      4B50545F 
 18988      454E4352 
 18989              	.LASF1152:
 18990 40a0 4D535253 		.ascii	"MSRSwiped\000"
 18990      77697065 
 18990      6400
ARM GAS  C:\Users\AHMED~1.ELE\AppData\Local\Temp\ccLLYyS4.s 			page 423


 18991              	.LASF24:
 18992 40aa 4F535F46 		.ascii	"OS_FN_GET_VERSION\000"
 18992      4E5F4745 
 18992      545F5645 
 18992      5253494F 
 18992      4E00
 18993              	.LASF789:
 18994 40bc 73625F61 		.ascii	"sb_auth_code\000"
 18994      7574685F 
 18994      636F6465 
 18994      00
 18995              	.LASF514:
 18996 40c9 434C4F53 		.ascii	"CLOSEMW\000"
 18996      454D5700 
 18997              	.LASF947:
 18998 40d1 4544435F 		.ascii	"EDC_RSP_EDIT_ERROR\000"
 18998      5253505F 
 18998      45444954 
 18998      5F455252 
 18998      4F5200
 18999              	.LASF1032:
 19000 40e4 54584E5F 		.ascii	"TXN_CANCEL\000"
 19000      43414E43 
 19000      454C00
 19001              	.LASF285:
 19002 40ef 4F535F46 		.ascii	"OS_FN_MCOM_RXRDY\000"
 19002      4E5F4D43 
 19002      4F4D5F52 
 19002      58524459 
 19002      00
 19003              	.LASF954:
 19004 4100 4544435F 		.ascii	"EDC_RSP_INV_SERVICE\000"
 19004      5253505F 
 19004      494E565F 
 19004      53455256 
 19004      49434500 
 19005              	.LASF620:
 19006 4114 434F4D4D 		.ascii	"COMMBUF\000"
 19006      42554600 
 19007              	.LASF1008:
 19008 411c 4544435F 		.ascii	"EDC_CTL_PREPROCESS_ERR\000"
 19008      43544C5F 
 19008      50524550 
 19008      524F4345 
 19008      53535F45 
 19009              	.LASF1127:
 19010 4133 64656362 		.ascii	"decbin8b\000"
 19010      696E3862 
 19010      00
 19011              	.LASF501:
 19012 413c 55534246 		.ascii	"USBFPRT_GENERAL_INFO_END\000"
 19012      5052545F 
 19012      47454E45 
 19012      52414C5F 
 19012      494E464F 
 19013              	.LASF1122:
 19014 4155 44697370 		.ascii	"DispErrorMsg\000"
ARM GAS  C:\Users\AHMED~1.ELE\AppData\Local\Temp\ccLLYyS4.s 			page 424


 19014      4572726F 
 19014      724D7367 
 19014      00
 19015              	.LASF839:
 19016 4162 735F6273 		.ascii	"s_bs_date\000"
 19016      5F646174 
 19016      6500
 19017              	.LASF580:
 19018 416c 41504D5F 		.ascii	"APM_GETTERMCFG\000"
 19018      47455454 
 19018      45524D43 
 19018      464700
 19019              	.LASF826:
 19020 417b 735F705F 		.ascii	"s_p_data\000"
 19020      64617461 
 19020      00
 19021              	.LASF925:
 19022 4184 4544435F 		.ascii	"EDC_FN_DISP_BATCH\000"
 19022      464E5F44 
 19022      4953505F 
 19022      42415443 
 19022      4800
 19023              	.LASF509:
 19024 4196 625F6C65 		.ascii	"b_len\000"
 19024      6E00
 19025              	.LASF706:
 19026 419c 61706E5F 		.ascii	"apn_password\000"
 19026      70617373 
 19026      776F7264 
 19026      00
 19027              	.LASF944:
 19028 41a9 4544435F 		.ascii	"EDC_RSP_INVALID_ACC\000"
 19028      5253505F 
 19028      494E5641 
 19028      4C49445F 
 19028      41434300 
 19029              	.LASF766:
 19030 41bd 4943435F 		.ascii	"ICC_DATA\000"
 19030      44415441 
 19030      00
 19031              	.LASF543:
 19032 41c6 44495350 		.ascii	"DISP_PUTCMW\000"
 19032      5F505554 
 19032      434D5700 
 19033              	.LASF438:
 19034 41d2 4F535F46 		.ascii	"OS_FN_RESET\000"
 19034      4E5F5245 
 19034      53455400 
 19035              	.LASF307:
 19036 41de 4F535F46 		.ascii	"OS_FN_GPRS_GET_CID\000"
 19036      4E5F4750 
 19036      52535F47 
 19036      45545F43 
 19036      494400
 19037              	.LASF575:
 19038 41f1 41504D5F 		.ascii	"APM_CONNECTOK\000"
 19038      434F4E4E 
ARM GAS  C:\Users\AHMED~1.ELE\AppData\Local\Temp\ccLLYyS4.s 			page 425


 19038      4543544F 
 19038      4B00
 19039              	.LASF164:
 19040 41ff 4F535F46 		.ascii	"OS_FN_AUTH\000"
 19040      4E5F4155 
 19040      544800
 19041              	.LASF555:
 19042 420a 534D535F 		.ascii	"SMS_ENB_MW\000"
 19042      454E425F 
 19042      4D5700
 19043              	.LASF645:
 19044 4215 775F6465 		.ascii	"w_debug_status\000"
 19044      6275675F 
 19044      73746174 
 19044      757300
 19045              	.LASF380:
 19046 4224 4F535F46 		.ascii	"OS_FN_MIF_HALT\000"
 19046      4E5F4D49 
 19046      465F4841 
 19046      4C5400
 19047              	.LASF568:
 19048 4233 41504D5F 		.ascii	"APM_WAITKEY\000"
 19048      57414954 
 19048      4B455900 
 19049              	.LASF556:
 19050 423f 534D535F 		.ascii	"SMS_RX_MW\000"
 19050      52585F4D 
 19050      5700
 19051              	.LASF649:
 19052 4249 625F6563 		.ascii	"b_ecr_ssl\000"
 19052      725F7373 
 19052      6C00
 19053              	.LASF1150:
 19054 4253 436F6D70 		.ascii	"CompressInputFData\000"
 19054      72657373 
 19054      496E7075 
 19054      74464461 
 19054      746100
 19055              	.LASF994:
 19056 4266 4544435F 		.ascii	"EDC_RSP_NO_REC\000"
 19056      5253505F 
 19056      4E4F5F52 
 19056      454300
 19057              	.LASF17:
 19058 4275 774C656E 		.ascii	"wLen\000"
 19058      00
 19059              	.LASF1087:
 19060 427a 53656172 		.ascii	"SearchRecord\000"
 19060      63685265 
 19060      636F7264 
 19060      00
 19061              	.LASF1140:
 19062 4287 45787069 		.ascii	"ExpiryReject\000"
 19062      72795265 
 19062      6A656374 
 19062      00
 19063              	.LASF999:
ARM GAS  C:\Users\AHMED~1.ELE\AppData\Local\Temp\ccLLYyS4.s 			page 426


 19064 4294 4544435F 		.ascii	"EDC_SE_TOTAL_WRONG\000"
 19064      53455F54 
 19064      4F54414C 
 19064      5F57524F 
 19064      4E4700
 19065              	.LASF792:
 19066 42a7 73625F72 		.ascii	"sb_rrn\000"
 19066      726E00
 19067              	.LASF1030:
 19068 42ae 735F7478 		.ascii	"s_tx_data\000"
 19068      5F646174 
 19068      6100
 19069              	.LASF987:
 19070 42b8 4544435F 		.ascii	"EDC_RSP_SYS_ERROR\000"
 19070      5253505F 
 19070      5359535F 
 19070      4552524F 
 19070      5200
 19071              	.LASF437:
 19072 42ca 4F535F46 		.ascii	"OS_FN_POWER_SLEEP\000"
 19072      4E5F504F 
 19072      5745525F 
 19072      534C4545 
 19072      5000
 19073              	.LASF217:
 19074 42dc 4F535F46 		.ascii	"OS_FN_SAM_OFF\000"
 19074      4E5F5341 
 19074      4D5F4F46 
 19074      4600
 19075              	.LASF918:
 19076 42ea 4544435F 		.ascii	"EDC_FN_CARD_TOTAL\000"
 19076      464E5F43 
 19076      4152445F 
 19076      544F5441 
 19076      4C00
 19077              	.LASF582:
 19078 42fc 41504D5F 		.ascii	"APM_GETCARDTBL\000"
 19078      47455443 
 19078      41524454 
 19078      424C00
 19079              	.LASF400:
 19080 430b 4F535F46 		.ascii	"OS_FN_MIF_INFO_GET\000"
 19080      4E5F4D49 
 19080      465F494E 
 19080      464F5F47 
 19080      455400
 19081              	.LASF266:
 19082 431e 4F535F46 		.ascii	"OS_FN_FL_ERASE_START\000"
 19082      4E5F464C 
 19082      5F455241 
 19082      53455F53 
 19082      54415254 
 19083              	.LASF917:
 19084 4333 4544435F 		.ascii	"EDC_FN_END_BATCH\000"
 19084      464E5F45 
 19084      4E445F42 
 19084      41544348 
ARM GAS  C:\Users\AHMED~1.ELE\AppData\Local\Temp\ccLLYyS4.s 			page 427


 19084      00
 19085              	.LASF77:
 19086 4344 4F535F46 		.ascii	"OS_FN_COM2_READ\000"
 19086      4E5F434F 
 19086      4D325F52 
 19086      45414400 
 19087              	.LASF1158:
 19088 4354 41757468 		.ascii	"AuthTrans\000"
 19088      5472616E 
 19088      7300
 19089              	.LASF343:
 19090 435e 4F535F46 		.ascii	"OS_FN_USBHOST_RESET_DEVICE\000"
 19090      4E5F5553 
 19090      42484F53 
 19090      545F5245 
 19090      5345545F 
 19091              	.LASF349:
 19092 4379 4F535F46 		.ascii	"OS_FN_DRIVER_UNREGISTER\000"
 19092      4E5F4452 
 19092      49564552 
 19092      5F554E52 
 19092      45474953 
 19093              	.LASF1106:
 19094 4391 67446973 		.ascii	"gDispLogo\000"
 19094      704C6F67 
 19094      6F00
 19095              	.LASF209:
 19096 439b 4F535F46 		.ascii	"OS_FN_CONFIG_READ\000"
 19096      4E5F434F 
 19096      4E464947 
 19096      5F524541 
 19096      4400
 19097              	.LASF940:
 19098 43ad 4544435F 		.ascii	"EDC_RSP_NOT_HONOUR\000"
 19098      5253505F 
 19098      4E4F545F 
 19098      484F4E4F 
 19098      555200
 19099              	.LASF544:
 19100 43c0 44495350 		.ascii	"DISP_PUTNMW\000"
 19100      5F505554 
 19100      4E4D5700 
 19101              	.LASF486:
 19102 43cc 4F535F46 		.ascii	"OS_FN_GPRS_SET_PIN_STATUS\000"
 19102      4E5F4750 
 19102      52535F53 
 19102      45545F50 
 19102      494E5F53 
 19103              	.LASF970:
 19104 43e6 4544435F 		.ascii	"EDC_RSP_CTL_DDA\000"
 19104      5253505F 
 19104      43544C5F 
 19104      44444100 
 19105              	.LASF458:
 19106 43f6 4F535F46 		.ascii	"OS_FN_FPRT_CLOSE\000"
 19106      4E5F4650 
 19106      52545F43 
ARM GAS  C:\Users\AHMED~1.ELE\AppData\Local\Temp\ccLLYyS4.s 			page 428


 19106      4C4F5345 
 19106      00
 19107              	.LASF786:
 19108 4407 625F656E 		.ascii	"b_entry_mode\000"
 19108      7472795F 
 19108      6D6F6465 
 19108      00
 19109              	.LASF902:
 19110 4414 4544435F 		.ascii	"EDC_TU_NOT_ALLOW\000"
 19110      54555F4E 
 19110      4F545F41 
 19110      4C4C4F57 
 19110      00
 19111              	.LASF465:
 19112 4425 4F535F46 		.ascii	"OS_FN_GCM_AES_OPEN\000"
 19112      4E5F4743 
 19112      4D5F4145 
 19112      535F4F50 
 19112      454E00
 19113              	.LASF123:
 19114 4438 4F535F46 		.ascii	"OS_FN_SM3\000"
 19114      4E5F534D 
 19114      3300
 19115              	.LASF405:
 19116 4442 4F535F46 		.ascii	"OS_FN_BARCODE_READ\000"
 19116      4E5F4241 
 19116      52434F44 
 19116      455F5245 
 19116      414400
 19117              	.LASF872:
 19118 4455 4544435F 		.ascii	"EDC_CN_AUTH\000"
 19118      434E5F41 
 19118      55544800 
 19119              	.LASF462:
 19120 4461 4F535F46 		.ascii	"OS_FN_ECC_KEYPAIR_GENERATE\000"
 19120      4E5F4543 
 19120      435F4B45 
 19120      59504149 
 19120      525F4745 
 19121              	.LASF414:
 19122 447c 4F535F46 		.ascii	"OS_FN_WIFI_PROFILES_WRITE\000"
 19122      4E5F5749 
 19122      46495F50 
 19122      524F4649 
 19122      4C45535F 
 19123              	.LASF173:
 19124 4496 4F535F46 		.ascii	"OS_FN_FILE_CREATE_OWNER\000"
 19124      4E5F4649 
 19124      4C455F43 
 19124      52454154 
 19124      455F4F57 
 19125              	.LASF409:
 19126 44ae 4F535F46 		.ascii	"OS_FN_WIFI_CONTROL\000"
 19126      4E5F5749 
 19126      46495F43 
 19126      4F4E5452 
 19126      4F4C00
ARM GAS  C:\Users\AHMED~1.ELE\AppData\Local\Temp\ccLLYyS4.s 			page 429


 19127              	.LASF992:
 19128 44c1 4544435F 		.ascii	"EDC_RSP_INVALID_CARD\000"
 19128      5253505F 
 19128      494E5641 
 19128      4C49445F 
 19128      43415244 
 19129              	.LASF1110:
 19130 44d6 7374726C 		.ascii	"strlen\000"
 19130      656E00
 19131              	.LASF337:
 19132 44dd 4F535F46 		.ascii	"OS_FN_CLICC_LED_STATUS\000"
 19132      4E5F434C 
 19132      4943435F 
 19132      4C45445F 
 19132      53544154 
 19133              	.LASF909:
 19134 44f4 4544435F 		.ascii	"EDC_AJ_TIPS_AMT\000"
 19134      414A5F54 
 19134      4950535F 
 19134      414D5400 
 19135              	.LASF691:
 19136 4504 73625F6F 		.ascii	"sb_options\000"
 19136      7074696F 
 19136      6E7300
 19137              	.LASF1169:
 19138 450f 506F7765 		.ascii	"PowerOnICC\000"
 19138      724F6E49 
 19138      434300
 19139              	.LASF336:
 19140 451a 4F535F46 		.ascii	"OS_FN_CLICC_LED_CLOSE\000"
 19140      4E5F434C 
 19140      4943435F 
 19140      4C45445F 
 19140      434C4F53 
 19141              	.LASF345:
 19142 4530 4F535F46 		.ascii	"OS_FN_USBHOST_RHPORT_STATUS\000"
 19142      4E5F5553 
 19142      42484F53 
 19142      545F5248 
 19142      504F5254 
 19143              	.LASF679:
 19144 454c 775F6170 		.ascii	"w_app_list_chksum\000"
 19144      705F6C69 
 19144      73745F63 
 19144      686B7375 
 19144      6D00
 19145              	.LASF297:
 19146 455e 4F535F46 		.ascii	"OS_FN_ADC_CH_DISABLE\000"
 19146      4E5F4144 
 19146      435F4348 
 19146      5F444953 
 19146      41424C45 
 19147              	.LASF94:
 19148 4573 4F535F46 		.ascii	"OS_FN_COM_DESKEY\000"
 19148      4E5F434F 
 19148      4D5F4445 
 19148      534B4559 
ARM GAS  C:\Users\AHMED~1.ELE\AppData\Local\Temp\ccLLYyS4.s 			page 430


 19148      00
 19149              	.LASF1033:
 19150 4584 54584E5F 		.ascii	"TXN_ERR\000"
 19150      45525200 
 19151              	.LASF38:
 19152 458c 4F535F46 		.ascii	"OS_FN_BUZ_OPEN\000"
 19152      4E5F4255 
 19152      5A5F4F50 
 19152      454E00
 19153              	.LASF76:
 19154 459b 4F535F46 		.ascii	"OS_FN_COM2_TXRDY\000"
 19154      4E5F434F 
 19154      4D325F54 
 19154      58524459 
 19154      00
 19155              	.LASF775:
 19156 45ac 54584E5F 		.ascii	"TXN_RECORD\000"
 19156      5245434F 
 19156      524400
 19157              	.LASF648:
 19158 45b7 625F6563 		.ascii	"b_ecr_port\000"
 19158      725F706F 
 19158      727400
 19159              	.LASF151:
 19160 45c2 4F535F46 		.ascii	"OS_FN_THREAD_POP\000"
 19160      4E5F5448 
 19160      52454144 
 19160      5F504F50 
 19160      00
 19161              	.LASF888:
 19162 45d3 4544435F 		.ascii	"EDC_IN_BASE_AMT\000"
 19162      494E5F42 
 19162      4153455F 
 19162      414D5400 
 19163              	.LASF892:
 19164 45e3 4544435F 		.ascii	"EDC_IN_TOTAL_PROMPT\000"
 19164      494E5F54 
 19164      4F54414C 
 19164      5F50524F 
 19164      4D505400 
 19165              	.LASF828:
 19166 45f7 745F7465 		.ascii	"t_term_tot\000"
 19166      726D5F74 
 19166      6F7400
 19167              	.LASF246:
 19168 4602 4F535F46 		.ascii	"OS_FN_MSR_STATUS\000"
 19168      4E5F4D53 
 19168      525F5354 
 19168      41545553 
 19168      00
 19169              	.LASF290:
 19170 4613 4F535F46 		.ascii	"OS_FN_MCOM_READ\000"
 19170      4E5F4D43 
 19170      4F4D5F52 
 19170      45414400 
 19171              	.LASF1104:
 19172 4623 6749646C 		.ascii	"gIdleCnt\000"
ARM GAS  C:\Users\AHMED~1.ELE\AppData\Local\Temp\ccLLYyS4.s 			page 431


 19172      65436E74 
 19172      00
 19173              	.LASF142:
 19174 462c 4F535F46 		.ascii	"OS_FN_PCI_DSS_REGEN_KEY\000"
 19174      4E5F5043 
 19174      495F4453 
 19174      535F5245 
 19174      47454E5F 
 19175              	.LASF867:
 19176 4644 44454641 		.ascii	"DEFAULT_TRANS\000"
 19176      554C545F 
 19176      5452414E 
 19176      5300
 19177              	.LASF814:
 19178 4652 735F6163 		.ascii	"s_acquirer_tbl\000"
 19178      71756972 
 19178      65725F74 
 19178      626C00
 19179              	.LASF901:
 19180 4661 4544435F 		.ascii	"EDC_IN_CUR_ERROR\000"
 19180      494E5F43 
 19180      55525F45 
 19180      52524F52 
 19180      00
 19181              	.LASF717:
 19182 4672 625F6163 		.ascii	"b_acquirer_id\000"
 19182      71756972 
 19182      65725F69 
 19182      6400
 19183              	.LASF480:
 19184 4680 4F535F46 		.ascii	"OS_FN_IMG_SENSOR_OPEN\000"
 19184      4E5F494D 
 19184      475F5345 
 19184      4E534F52 
 19184      5F4F5045 
 19185              	.LASF761:
 19186 4696 625F6D6F 		.ascii	"b_month\000"
 19186      6E746800 
 19187              	.LASF1116:
 19188 469e 44697370 		.ascii	"Disp2x16Msg\000"
 19188      32783136 
 19188      4D736700 
 19189              	.LASF929:
 19190 46aa 4544435F 		.ascii	"EDC_PN_MANUALCUT\000"
 19190      504E5F4D 
 19190      414E5541 
 19190      4C435554 
 19190      00
 19191              	.LASF577:
 19192 46bb 41504D5F 		.ascii	"APM_FLUSHCOMM\000"
 19192      464C5553 
 19192      48434F4D 
 19192      4D00
 19193              	.LASF366:
 19194 46c9 4F535F46 		.ascii	"OS_FN_NETDEV_CLOSE\000"
 19194      4E5F4E45 
 19194      54444556 
ARM GAS  C:\Users\AHMED~1.ELE\AppData\Local\Temp\ccLLYyS4.s 			page 432


 19194      5F434C4F 
 19194      534500
 19195              	.LASF817:
 19196 46dc 42535F44 		.ascii	"BS_DATE\000"
 19196      41544500 
 19197              	.LASF594:
 19198 46e4 41504D5F 		.ascii	"APM_SETPENDING\000"
 19198      53455450 
 19198      454E4449 
 19198      4E4700
 19199              	.LASF0:
 19200 46f3 756E7369 		.ascii	"unsigned int\000"
 19200      676E6564 
 19200      20696E74 
 19200      00
 19201              	.LASF798:
 19202 4700 50524E5F 		.ascii	"PRN_DATA\000"
 19202      44415441 
 19202      00
 19203              	.LASF1135:
 19204 4709 63686B5F 		.ascii	"chk_digit_ok\000"
 19204      64696769 
 19204      745F6F6B 
 19204      00
 19205              	.LASF512:
 19206 4716 53485554 		.ascii	"SHUTDOWNMW\000"
 19206      444F574E 
 19206      4D5700
 19207              	.LASF920:
 19208 4721 4544435F 		.ascii	"EDC_FN_CLR_BATCH\000"
 19208      464E5F43 
 19208      4C525F42 
 19208      41544348 
 19208      00
 19209              	.LASF395:
 19210 4732 4F535F46 		.ascii	"OS_FN_MIF_DEC_TRANS\000"
 19210      4E5F4D49 
 19210      465F4445 
 19210      435F5452 
 19210      414E5300 
 19211              	.LASF208:
 19212 4746 4F535F46 		.ascii	"OS_FN_CONFIG_LENGTH\000"
 19212      4E5F434F 
 19212      4E464947 
 19212      5F4C454E 
 19212      47544800 
 19213              		.ident	"GCC: (GNU Tools for ARM Embedded Processors) 4.9.3 20141119 (release) [ARM/embedded-4_9-br
ARM GAS  C:\Users\AHMED~1.ELE\AppData\Local\Temp\ccLLYyS4.s 			page 433


DEFINED SYMBOLS
                            *ABS*:00000000 input.c
C:\Users\AHMED~1.ELE\AppData\Local\Temp\ccLLYyS4.s:19     .text.DispKeyinPAN:00000000 $t
C:\Users\AHMED~1.ELE\AppData\Local\Temp\ccLLYyS4.s:23     .text.DispKeyinPAN:00000000 DispKeyinPAN
C:\Users\AHMED~1.ELE\AppData\Local\Temp\ccLLYyS4.s:146    .text.FindSeperator.constprop.2:00000000 $t
C:\Users\AHMED~1.ELE\AppData\Local\Temp\ccLLYyS4.s:150    .text.FindSeperator.constprop.2:00000000 FindSeperator.constprop.2
C:\Users\AHMED~1.ELE\AppData\Local\Temp\ccLLYyS4.s:198    .text.FindSeperator.constprop.2:0000002c $d
C:\Users\AHMED~1.ELE\AppData\Local\Temp\ccLLYyS4.s:203    .text.CheckCurrency:00000000 $t
C:\Users\AHMED~1.ELE\AppData\Local\Temp\ccLLYyS4.s:208    .text.CheckCurrency:00000000 CheckCurrency
C:\Users\AHMED~1.ELE\AppData\Local\Temp\ccLLYyS4.s:308    .text.CheckCurrency:00000080 $d
C:\Users\AHMED~1.ELE\AppData\Local\Temp\ccLLYyS4.s:315    .text.InCardTable:00000000 $t
C:\Users\AHMED~1.ELE\AppData\Local\Temp\ccLLYyS4.s:320    .text.InCardTable:00000000 InCardTable
C:\Users\AHMED~1.ELE\AppData\Local\Temp\ccLLYyS4.s:587    .text.InCardTable:00000194 $d
C:\Users\AHMED~1.ELE\AppData\Local\Temp\ccLLYyS4.s:594    .text.PromptYesNo:00000000 $t
C:\Users\AHMED~1.ELE\AppData\Local\Temp\ccLLYyS4.s:599    .text.PromptYesNo:00000000 PromptYesNo
C:\Users\AHMED~1.ELE\AppData\Local\Temp\ccLLYyS4.s:633    .text.GetAuthCode:00000000 $t
C:\Users\AHMED~1.ELE\AppData\Local\Temp\ccLLYyS4.s:638    .text.GetAuthCode:00000000 GetAuthCode
C:\Users\AHMED~1.ELE\AppData\Local\Temp\ccLLYyS4.s:765    .text.GetAuthCode:000000b0 $d
C:\Users\AHMED~1.ELE\AppData\Local\Temp\ccLLYyS4.s:772    .text.GetAmount:00000000 $t
C:\Users\AHMED~1.ELE\AppData\Local\Temp\ccLLYyS4.s:777    .text.GetAmount:00000000 GetAmount
C:\Users\AHMED~1.ELE\AppData\Local\Temp\ccLLYyS4.s:1097   .text.GetAmount:00000238 $d
C:\Users\AHMED~1.ELE\AppData\Local\Temp\ccLLYyS4.s:1105   .text.Expire_diff:00000000 $t
C:\Users\AHMED~1.ELE\AppData\Local\Temp\ccLLYyS4.s:1110   .text.Expire_diff:00000000 Expire_diff
C:\Users\AHMED~1.ELE\AppData\Local\Temp\ccLLYyS4.s:1186   .text.Expire_diff:00000054 $d
C:\Users\AHMED~1.ELE\AppData\Local\Temp\ccLLYyS4.s:1191   .text.ValidCard:00000000 $t
C:\Users\AHMED~1.ELE\AppData\Local\Temp\ccLLYyS4.s:1196   .text.ValidCard:00000000 ValidCard
C:\Users\AHMED~1.ELE\AppData\Local\Temp\ccLLYyS4.s:1736   .text.ValidCard:000002f0 $d
C:\Users\AHMED~1.ELE\AppData\Local\Temp\ccLLYyS4.s:1746   .text.GetExpDate:00000000 $t
C:\Users\AHMED~1.ELE\AppData\Local\Temp\ccLLYyS4.s:1751   .text.GetExpDate:00000000 GetExpDate
C:\Users\AHMED~1.ELE\AppData\Local\Temp\ccLLYyS4.s:1950   .text.GetExpDate:00000110 $d
C:\Users\AHMED~1.ELE\AppData\Local\Temp\ccLLYyS4.s:1956   .text.GetProductCode:00000000 $t
C:\Users\AHMED~1.ELE\AppData\Local\Temp\ccLLYyS4.s:1961   .text.GetProductCode:00000000 GetProductCode
C:\Users\AHMED~1.ELE\AppData\Local\Temp\ccLLYyS4.s:2453   .text.GetProductCode:000002ac $d
C:\Users\AHMED~1.ELE\AppData\Local\Temp\ccLLYyS4.s:2462   .text.Get4DBC:00000000 $t
C:\Users\AHMED~1.ELE\AppData\Local\Temp\ccLLYyS4.s:2467   .text.Get4DBC:00000000 Get4DBC
C:\Users\AHMED~1.ELE\AppData\Local\Temp\ccLLYyS4.s:2554   .text.Get4DBC:00000074 $d
C:\Users\AHMED~1.ELE\AppData\Local\Temp\ccLLYyS4.s:2560   .text.SearchRecord:00000000 $t
C:\Users\AHMED~1.ELE\AppData\Local\Temp\ccLLYyS4.s:2565   .text.SearchRecord:00000000 SearchRecord
C:\Users\AHMED~1.ELE\AppData\Local\Temp\ccLLYyS4.s:2731   .text.SearchRecord:000000f8 $d
C:\Users\AHMED~1.ELE\AppData\Local\Temp\ccLLYyS4.s:2739   .text.GetCardNbr:00000000 $t
C:\Users\AHMED~1.ELE\AppData\Local\Temp\ccLLYyS4.s:2744   .text.GetCardNbr:00000000 GetCardNbr
C:\Users\AHMED~1.ELE\AppData\Local\Temp\ccLLYyS4.s:2912   .text.GetCardNbr:000000dc $d
C:\Users\AHMED~1.ELE\AppData\Local\Temp\ccLLYyS4.s:2919   .text.GetCard:00000000 $t
C:\Users\AHMED~1.ELE\AppData\Local\Temp\ccLLYyS4.s:2924   .text.GetCard:00000000 GetCard
C:\Users\AHMED~1.ELE\AppData\Local\Temp\ccLLYyS4.s:3096   .text.GetCard:000000e0 $d
C:\Users\AHMED~1.ELE\AppData\Local\Temp\ccLLYyS4.s:3106   .text.WaitCardTrans:00000000 $t
C:\Users\AHMED~1.ELE\AppData\Local\Temp\ccLLYyS4.s:3111   .text.WaitCardTrans:00000000 WaitCardTrans
C:\Users\AHMED~1.ELE\AppData\Local\Temp\ccLLYyS4.s:3622   .text.WaitCardTrans:000002dc $d
C:\Users\AHMED~1.ELE\AppData\Local\Temp\ccLLYyS4.s:3631   .text.WaitCardTrans:000002f4 $t
C:\Users\AHMED~1.ELE\AppData\Local\Temp\ccLLYyS4.s:3668   .text.WaitCardTrans:00000324 $d
C:\Users\AHMED~1.ELE\AppData\Local\Temp\ccLLYyS4.s:3673   .text.GetEcrRef:00000000 $t
C:\Users\AHMED~1.ELE\AppData\Local\Temp\ccLLYyS4.s:3678   .text.GetEcrRef:00000000 GetEcrRef
C:\Users\AHMED~1.ELE\AppData\Local\Temp\ccLLYyS4.s:3772   .text.GetEcrRef:00000078 $d
C:\Users\AHMED~1.ELE\AppData\Local\Temp\ccLLYyS4.s:3779   .text.GetCashBackAmount:00000000 $t
C:\Users\AHMED~1.ELE\AppData\Local\Temp\ccLLYyS4.s:3784   .text.GetCashBackAmount:00000000 GetCashBackAmount
C:\Users\AHMED~1.ELE\AppData\Local\Temp\ccLLYyS4.s:3910   .text.GetCashBackAmount:000000bc $d
C:\Users\AHMED~1.ELE\AppData\Local\Temp\ccLLYyS4.s:3944   .data:00000000 gCurInfo
ARM GAS  C:\Users\AHMED~1.ELE\AppData\Local\Temp\ccLLYyS4.s 			page 434


C:\Users\AHMED~1.ELE\AppData\Local\Temp\ccLLYyS4.s:3919   .rodata:00000000 $d
C:\Users\AHMED~1.ELE\AppData\Local\Temp\ccLLYyS4.s:3923   .rodata:00000000 KDecimalPos
C:\Users\AHMED~1.ELE\AppData\Local\Temp\ccLLYyS4.s:3940   .data:00000000 $d
                     .debug_frame:00000010 $d

UNDEFINED SYMBOLS
memcpy
lib_app_call
strlen
sys_func1
gGTS
memcmp
GetConstMsg
Disp2x16Msg
ErrorDelay
gGDS
split
fndb
bcd2bin
GetHostType
CorrectHost
DispErrorMsg
TlvSeek
TlvVPtr
TlvLen
memset
EcrGetAmount
decbin8b
PromptTips
OverMargin
DispAmount
ReadRTC
CheckPAN
chk_digit_ok
EMVProcDisable
ValidEMVData
compress
isbdigit
ExpDateReqd
ExpiryReject
CheckExpDate
DescriptorReqd
LongBeep
DispHeader
CompressInputData
ClearRspData
DispRspText
WaitKey
CompressInputFData
OnDevice
MSRSwiped
OffDevice
Short1Beep
gMsrHandle
RefreshDispAfter
CL_LedSet
SaleOfflTrans
ARM GAS  C:\Users\AHMED~1.ELE\AppData\Local\Temp\ccLLYyS4.s 			page 435


AuthTrans
RefundTrans
SaleTrans
TransEnd
CTLEnabled
CtlUnderTransLimit
CTLPreProcess
CTLWaitCard
CTLTrans
CL_Close
ICCInserted
PowerOnICC
EMVTrans
PowerOffICC
ICCReaderRdy
WaitICCRemove
gDispLogo
gTimerHdl
FreeRunMark
gIdleCnt
EcrGetRef
EcrRefReqd
