ARM GAS  C:\Users\AHMED~1.ELE\AppData\Local\Temp\ccfMkwD6.s 			page 1


   1              		.syntax unified
   2              		.cpu cortex-a5
   3              		.fpu softvfp
   4              		.eabi_attribute 20, 1
   5              		.eabi_attribute 21, 1
   6              		.eabi_attribute 23, 3
   7              		.eabi_attribute 24, 1
   8              		.eabi_attribute 25, 1
   9              		.eabi_attribute 26, 1
  10              		.eabi_attribute 30, 4
  11              		.eabi_attribute 34, 0
  12              		.eabi_attribute 18, 4
  13              		.thumb
  14              		.file	"keytrans.c"
  15              		.text
  16              	.Ltext0:
  17              		.cfi_sections	.debug_frame
  18              		.section	.text.key_ready,"ax",%progbits
  19              		.align	1
  20              		.global	key_ready
  21              		.thumb
  22              		.thumb_func
  23              		.type	key_ready, %function
  24              	key_ready:
  25              	.LFB0:
  26              		.file 1 "src/keytrans.c"
   1:src/keytrans.c **** /*-----------------------------------------------------------------------------
   2:src/keytrans.c ****  *  File          : keytrans.c
   3:src/keytrans.c ****  *  Module        : T1000
   4:src/keytrans.c ****  *  Description   : Include routines for sale/offline transaction.
   5:src/keytrans.c ****  *  Author        : John
   6:src/keytrans.c ****  *  Notes         :
   7:src/keytrans.c ****  *
   8:src/keytrans.c ****  *  Date          Who         Action
   9:src/keytrans.c ****  *  ------------  ----------- -------------------------------------------------
  10:src/keytrans.c ****  *  19 Mar  2012  John        Port from CREON/PR608.
  11:src/keytrans.c ****  *-----------------------------------------------------------------------------
  12:src/keytrans.c ****  */
  13:src/keytrans.c **** #include <string.h>
  14:src/keytrans.c **** #include <stdio.h>
  15:src/keytrans.c **** #include "constant.h"
  16:src/keytrans.c **** #include "corevar.h"
  17:src/keytrans.c **** #include "sysutil.h"
  18:src/keytrans.c **** #include "tranutil.h"
  19:src/keytrans.c **** #include "message.h"
  20:src/keytrans.c **** #include "keytrans.h"
  21:src/keytrans.c **** #include "key2dll.h"
  22:src/keytrans.c **** #include "midware.h"
  23:src/keytrans.c **** #include "util.h"
  24:src/keytrans.c **** #include "input.h"
  25:src/keytrans.c **** 
  26:src/keytrans.c **** 
  27:src/keytrans.c **** static BYTE dhost_idx=0;
  28:src/keytrans.c **** static BYTE keysize;
  29:src/keytrans.c **** static BYTE keylen;
  30:src/keytrans.c **** 
  31:src/keytrans.c **** /******************************************************************************
ARM GAS  C:\Users\AHMED~1.ELE\AppData\Local\Temp\ccfMkwD6.s 			page 2


  32:src/keytrans.c ****  *  Function        : key_ready
  33:src/keytrans.c ****  *  Description     : Check if key loaded in key bank
  34:src/keytrans.c ****  *  Input           : idx;            // key index
  35:src/keytrans.c ****  *  Return          : TRUE;           // key loaded
  36:src/keytrans.c ****  *                    FALSE;          // key not loaded
  37:src/keytrans.c ****  *  Note            : N/A
  38:src/keytrans.c ****  *  Globals Changed : N/A
  39:src/keytrans.c ****  ******************************************************************************
  40:src/keytrans.c ****  */
  41:src/keytrans.c **** BOOLEAN key_ready(BYTE idx)
  42:src/keytrans.c **** {
  27              		.loc 1 42 0
  28              		.cfi_startproc
  29              		@ args = 0, pretend = 0, frame = 40
  30              		@ frame_needed = 0, uses_anonymous_args = 0
  31              	.LVL0:
  32 0000 10B5     		push	{r4, lr}
  33              		.cfi_def_cfa_offset 8
  34              		.cfi_offset 4, -8
  35              		.cfi_offset 14, -4
  43:src/keytrans.c ****   BYTE keysts[40];
  44:src/keytrans.c **** 
  45:src/keytrans.c ****   KDLL_KeyStatus(keysts);
  36              		.loc 1 45 0
  37 0002 0023     		movs	r3, #0
  42:src/keytrans.c ****   BYTE keysts[40];
  38              		.loc 1 42 0
  39 0004 8CB0     		sub	sp, sp, #48
  40              		.cfi_def_cfa_offset 56
  42:src/keytrans.c ****   BYTE keysts[40];
  41              		.loc 1 42 0
  42 0006 0446     		mov	r4, r0
  43              		.loc 1 45 0
  44 0008 0093     		str	r3, [sp]
  45 000a 0121     		movs	r1, #1
  46 000c 02AA     		add	r2, sp, #8
  47 000e 7F20     		movs	r0, #127
  48              	.LVL1:
  49 0010 FFF7FEFF 		bl	lib_app_call
  50              	.LVL2:
  46:src/keytrans.c ****   if (keysts[idx] & KEY_STATUS_LOADED)
  51              		.loc 1 46 0
  52 0014 0CAB     		add	r3, sp, #48
  53 0016 1C44     		add	r4, r4, r3
  54 0018 14F8280C 		ldrb	r0, [r4, #-40]	@ zero_extendqisi2
  47:src/keytrans.c ****     return TRUE;
  48:src/keytrans.c ****   else
  49:src/keytrans.c ****     return FALSE;
  50:src/keytrans.c **** }
  55              		.loc 1 50 0
  56 001c 00F00100 		and	r0, r0, #1
  57 0020 0CB0     		add	sp, sp, #48
  58              		.cfi_def_cfa_offset 8
  59              		@ sp needed
  60 0022 10BD     		pop	{r4, pc}
  61              		.cfi_endproc
  62              	.LFE0:
ARM GAS  C:\Users\AHMED~1.ELE\AppData\Local\Temp\ccfMkwD6.s 			page 3


  63              		.size	key_ready, .-key_ready
  64              		.section	.text.ResetKey,"ax",%progbits
  65              		.align	1
  66              		.global	ResetKey
  67              		.thumb
  68              		.thumb_func
  69              		.type	ResetKey, %function
  70              	ResetKey:
  71              	.LFB1:
  51:src/keytrans.c **** /******************************************************************************
  52:src/keytrans.c ****  *  Function        : ResetKey
  53:src/keytrans.c ****  *  Description     : Reset terminal key
  54:src/keytrans.c ****  *  Input           : idx;            // key index
  55:src/keytrans.c ****  *  Return          : TRUE;           // key reset ok
  56:src/keytrans.c ****  *                    FALSE;          // key reset failed
  57:src/keytrans.c ****  *  Note            : N/A
  58:src/keytrans.c ****  *  Globals Changed : N/A
  59:src/keytrans.c ****  ******************************************************************************
  60:src/keytrans.c ****  */
  61:src/keytrans.c **** void ResetKey(BYTE idx)
  62:src/keytrans.c **** {
  72              		.loc 1 62 0
  73              		.cfi_startproc
  74              		@ args = 0, pretend = 0, frame = 0
  75              		@ frame_needed = 0, uses_anonymous_args = 0
  76              	.LVL3:
  77 0000 37B5     		push	{r0, r1, r2, r4, r5, lr}
  78              		.cfi_def_cfa_offset 24
  79              		.cfi_offset 4, -12
  80              		.cfi_offset 5, -8
  81              		.cfi_offset 14, -4
  82              		.loc 1 62 0
  83 0002 0546     		mov	r5, r0
  84              	.LBB2:
  63:src/keytrans.c ****   DispLineMW("Resetting Keys..", MW_LINE5, MW_CLRDISP|MW_CENTER|MW_BIGFONT);
  85              		.loc 1 63 0
  86 0004 1121     		movs	r1, #17
  87 0006 9220     		movs	r0, #146
  88              	.LVL4:
  89 0008 FFF7FEFF 		bl	sys_func1
  90              	.LVL5:
  91 000c 0446     		mov	r4, r0
  92 000e 98B1     		cbz	r0, .L3
  93              		.loc 1 63 0 is_stmt 0 discriminator 1
  94 0010 0F49     		ldr	r1, .L8
  95 0012 1022     		movs	r2, #16
  96 0014 FFF7FEFF 		bl	memcpy
  97              	.LVL6:
  98 0018 0023     		movs	r3, #0
  99 001a 2521     		movs	r1, #37
 100 001c 2374     		strb	r3, [r4, #16]
 101 001e 41F28203 		movw	r3, #4226
 102 0022 0F20     		movs	r0, #15
 103 0024 0093     		str	r3, [sp]
 104 0026 2246     		mov	r2, r4
 105 0028 4FF4A063 		mov	r3, #1280
 106 002c FFF7FEFF 		bl	lib_app_call
ARM GAS  C:\Users\AHMED~1.ELE\AppData\Local\Temp\ccfMkwD6.s 			page 4


 107              	.LVL7:
 108 0030 9420     		movs	r0, #148
 109 0032 2146     		mov	r1, r4
 110 0034 FFF7FEFF 		bl	sys_func1
 111              	.LVL8:
 112              	.L3:
 113              	.LBE2:
  64:src/keytrans.c ****   KDLL_KeyReset(idx);
 114              		.loc 1 64 0 is_stmt 1
 115 0038 0021     		movs	r1, #0
 116 003a 2A46     		mov	r2, r5
 117 003c 0091     		str	r1, [sp]
 118 003e 0B46     		mov	r3, r1
 119 0040 7F20     		movs	r0, #127
 120 0042 FFF7FEFF 		bl	lib_app_call
 121              	.LVL9:
  65:src/keytrans.c ****   Short2Beep();
  66:src/keytrans.c **** }
 122              		.loc 1 66 0
 123 0046 03B0     		add	sp, sp, #12
 124              		.cfi_def_cfa_offset 12
 125              		@ sp needed
 126 0048 BDE83040 		pop	{r4, r5, lr}
 127              		.cfi_restore 14
 128              		.cfi_restore 5
 129              		.cfi_restore 4
 130              		.cfi_def_cfa_offset 0
 131              	.LVL10:
  65:src/keytrans.c ****   Short2Beep();
 132              		.loc 1 65 0
 133 004c FFF7FEBF 		b	Short2Beep
 134              	.LVL11:
 135              	.L9:
 136              		.align	2
 137              	.L8:
 138 0050 00000000 		.word	.LC0
 139              		.cfi_endproc
 140              	.LFE1:
 141              		.size	ResetKey, .-ResetKey
 142              		.section	.text.LoadTmk,"ax",%progbits
 143              		.align	1
 144              		.global	LoadTmk
 145              		.thumb
 146              		.thumb_func
 147              		.type	LoadTmk, %function
 148              	LoadTmk:
 149              	.LFB2:
  67:src/keytrans.c **** /******************************************************************************
  68:src/keytrans.c ****  *  Function        : LoadTmk
  69:src/keytrans.c ****  *  Description     : Load terminal master key
  70:src/keytrans.c ****  *  Input           : N/A
  71:src/keytrans.c ****  *  Return          : TRUE;           // key load ok
  72:src/keytrans.c ****  *                    FALSE;          // key load failed
  73:src/keytrans.c ****  *  Note            : N/A
  74:src/keytrans.c ****  *  Globals Changed : N/A
  75:src/keytrans.c ****  ******************************************************************************
  76:src/keytrans.c ****  */
ARM GAS  C:\Users\AHMED~1.ELE\AppData\Local\Temp\ccfMkwD6.s 			page 5


  77:src/keytrans.c **** BOOLEAN LoadTmk(void)
  78:src/keytrans.c **** {
 150              		.loc 1 78 0
 151              		.cfi_startproc
 152              		@ args = 0, pretend = 0, frame = 64
 153              		@ frame_needed = 0, uses_anonymous_args = 0
 154 0000 F0B5     		push	{r4, r5, r6, r7, lr}
 155              		.cfi_def_cfa_offset 20
 156              		.cfi_offset 4, -20
 157              		.cfi_offset 5, -16
 158              		.cfi_offset 6, -12
 159              		.cfi_offset 7, -8
 160              		.cfi_offset 14, -4
 161 0002 93B0     		sub	sp, sp, #76
 162              		.cfi_def_cfa_offset 96
  79:src/keytrans.c ****   const BYTE KTMK[] = "\x01\x23\x45\x67\x89\xAB\xCD\xEF\xFE\xDC\xBA\x98\x76\x54\x32\x10\x11\x22\x33
 163              		.loc 1 79 0
 164 0004 1922     		movs	r2, #25
 165 0006 9749     		ldr	r1, .L49
 166 0008 03A8     		add	r0, sp, #12
 167 000a FFF7FEFF 		bl	memcpy
 168              	.LVL12:
  80:src/keytrans.c ****   BYTE *keycfg;
  81:src/keytrans.c ****   WORD ret;
  82:src/keytrans.c ****   BYTE buf[32];
  83:src/keytrans.c ****   DWORD keyin;
  84:src/keytrans.c ****   BYTE * keycontent;
  85:src/keytrans.c ****   
  86:src/keytrans.c ****   ClearDispMW();
 169              		.loc 1 86 0
 170 000e 0C21     		movs	r1, #12
 171 0010 1620     		movs	r0, #22
 172 0012 FFF7FEFF 		bl	sys_func1
 173              	.LVL13:
 174              	.LBB3:
  87:src/keytrans.c ****   DispLineMW("Choose TMK Key Length:", MW_LINE1, MW_LEFT|MW_SPFONT);
 175              		.loc 1 87 0
 176 0016 9220     		movs	r0, #146
 177 0018 1721     		movs	r1, #23
 178 001a FFF7FEFF 		bl	sys_func1
 179              	.LVL14:
 180 001e 0446     		mov	r4, r0
 181 0020 98B1     		cbz	r0, .L11
 182              		.loc 1 87 0 is_stmt 0 discriminator 1
 183 0022 9149     		ldr	r1, .L49+4
 184 0024 1622     		movs	r2, #22
 185 0026 FFF7FEFF 		bl	memcpy
 186              	.LVL15:
 187 002a 0023     		movs	r3, #0
 188 002c 2521     		movs	r1, #37
 189 002e A375     		strb	r3, [r4, #22]
 190 0030 4FF40053 		mov	r3, #8192
 191 0034 0F20     		movs	r0, #15
 192 0036 0093     		str	r3, [sp]
 193 0038 2246     		mov	r2, r4
 194 003a 4FF48073 		mov	r3, #256
 195 003e FFF7FEFF 		bl	lib_app_call
ARM GAS  C:\Users\AHMED~1.ELE\AppData\Local\Temp\ccfMkwD6.s 			page 6


 196              	.LVL16:
 197 0042 9420     		movs	r0, #148
 198 0044 2146     		mov	r1, r4
 199 0046 FFF7FEFF 		bl	sys_func1
 200              	.LVL17:
 201              	.L11:
 202              	.LBE3:
 203              	.LBB4:
  88:src/keytrans.c ****   DispLineMW("1.SINGLE", MW_LINE2, MW_LEFT|MW_SPFONT);
 204              		.loc 1 88 0 is_stmt 1
 205 004a 9220     		movs	r0, #146
 206 004c 0921     		movs	r1, #9
 207 004e FFF7FEFF 		bl	sys_func1
 208              	.LVL18:
 209 0052 0446     		mov	r4, r0
 210              	.LVL19:
 211 0054 98B1     		cbz	r0, .L12
 212              		.loc 1 88 0 is_stmt 0 discriminator 1
 213 0056 8549     		ldr	r1, .L49+8
 214 0058 0822     		movs	r2, #8
 215 005a FFF7FEFF 		bl	memcpy
 216              	.LVL20:
 217 005e 0023     		movs	r3, #0
 218 0060 2521     		movs	r1, #37
 219 0062 2372     		strb	r3, [r4, #8]
 220 0064 4FF40053 		mov	r3, #8192
 221 0068 0F20     		movs	r0, #15
 222 006a 0093     		str	r3, [sp]
 223 006c 2246     		mov	r2, r4
 224 006e 4FF40073 		mov	r3, #512
 225 0072 FFF7FEFF 		bl	lib_app_call
 226              	.LVL21:
 227 0076 9420     		movs	r0, #148
 228 0078 2146     		mov	r1, r4
 229 007a FFF7FEFF 		bl	sys_func1
 230              	.LVL22:
 231              	.L12:
 232              	.LBE4:
 233              	.LBB5:
  89:src/keytrans.c ****   DispLineMW("2.DOUBLE", MW_LINE3, MW_LEFT|MW_SPFONT);
 234              		.loc 1 89 0 is_stmt 1
 235 007e 9220     		movs	r0, #146
 236 0080 0921     		movs	r1, #9
 237 0082 FFF7FEFF 		bl	sys_func1
 238              	.LVL23:
 239 0086 0446     		mov	r4, r0
 240              	.LVL24:
 241 0088 98B1     		cbz	r0, .L13
 242              		.loc 1 89 0 is_stmt 0 discriminator 1
 243 008a 7949     		ldr	r1, .L49+12
 244 008c 0822     		movs	r2, #8
 245 008e FFF7FEFF 		bl	memcpy
 246              	.LVL25:
 247 0092 0023     		movs	r3, #0
 248 0094 2521     		movs	r1, #37
 249 0096 2372     		strb	r3, [r4, #8]
 250 0098 4FF40053 		mov	r3, #8192
ARM GAS  C:\Users\AHMED~1.ELE\AppData\Local\Temp\ccfMkwD6.s 			page 7


 251 009c 0F20     		movs	r0, #15
 252 009e 0093     		str	r3, [sp]
 253 00a0 2246     		mov	r2, r4
 254 00a2 4FF44073 		mov	r3, #768
 255 00a6 FFF7FEFF 		bl	lib_app_call
 256              	.LVL26:
 257 00aa 9420     		movs	r0, #148
 258 00ac 2146     		mov	r1, r4
 259 00ae FFF7FEFF 		bl	sys_func1
 260              	.LVL27:
 261              	.L13:
 262              	.LBE5:
 263              	.LBB6:
  90:src/keytrans.c ****   DispLineMW("3.TRIPLE", MW_LINE4, MW_LEFT|MW_SPFONT);
 264              		.loc 1 90 0 is_stmt 1
 265 00b2 9220     		movs	r0, #146
 266 00b4 0921     		movs	r1, #9
 267 00b6 FFF7FEFF 		bl	sys_func1
 268              	.LVL28:
 269 00ba 0446     		mov	r4, r0
 270              	.LVL29:
 271 00bc 98B1     		cbz	r0, .L21
 272              		.loc 1 90 0 is_stmt 0 discriminator 1
 273 00be 6D49     		ldr	r1, .L49+16
 274 00c0 0822     		movs	r2, #8
 275 00c2 FFF7FEFF 		bl	memcpy
 276              	.LVL30:
 277 00c6 0023     		movs	r3, #0
 278 00c8 2521     		movs	r1, #37
 279 00ca 2372     		strb	r3, [r4, #8]
 280 00cc 4FF40053 		mov	r3, #8192
 281 00d0 0F20     		movs	r0, #15
 282 00d2 0093     		str	r3, [sp]
 283 00d4 2246     		mov	r2, r4
 284 00d6 4FF48063 		mov	r3, #1024
 285 00da FFF7FEFF 		bl	lib_app_call
 286              	.LVL31:
 287 00de 9420     		movs	r0, #148
 288 00e0 2146     		mov	r1, r4
 289 00e2 FFF7FEFF 		bl	sys_func1
 290              	.LVL32:
 291              	.L21:
 292              	.LBE6:
  91:src/keytrans.c **** 
  92:src/keytrans.c ****   while (1) {
  93:src/keytrans.c ****     keyin = GetCharMW();
 293              		.loc 1 93 0 is_stmt 1
 294 00e6 0022     		movs	r2, #0
 295 00e8 0F20     		movs	r0, #15
 296 00ea 0092     		str	r2, [sp]
 297 00ec 1621     		movs	r1, #22
 298 00ee 1346     		mov	r3, r2
 299 00f0 FFF7FEFF 		bl	lib_app_call
 300              	.LVL33:
  94:src/keytrans.c ****     
  95:src/keytrans.c ****     switch (keyin) {
 301              		.loc 1 95 0
ARM GAS  C:\Users\AHMED~1.ELE\AppData\Local\Temp\ccfMkwD6.s 			page 8


 302 00f4 3228     		cmp	r0, #50
 303 00f6 06D0     		beq	.L16
 304 00f8 3328     		cmp	r0, #51
 305 00fa 07D0     		beq	.L17
 306 00fc 3128     		cmp	r0, #49
 307 00fe 09D1     		bne	.L15
  96:src/keytrans.c ****       case MWKEY_1:
  97:src/keytrans.c ****         keylen = 8;
 308              		.loc 1 97 0
 309 0100 5D4B     		ldr	r3, .L49+20
 310 0102 0822     		movs	r2, #8
 311 0104 04E0     		b	.L48
 312              	.L16:
  98:src/keytrans.c ****         keysize = KEYMODE_SINGLE;
  99:src/keytrans.c ****         break;
 100:src/keytrans.c ****         
 101:src/keytrans.c ****       case MWKEY_2:
 102:src/keytrans.c ****         keylen = 16;
 313              		.loc 1 102 0
 314 0106 5C4B     		ldr	r3, .L49+20
 315 0108 1022     		movs	r2, #16
 316 010a 01E0     		b	.L48
 317              	.L17:
 103:src/keytrans.c ****         keysize = KEYMODE_DOUBLE;
 104:src/keytrans.c ****         break;
 105:src/keytrans.c ****         
 106:src/keytrans.c ****       case MWKEY_3:
 107:src/keytrans.c ****         keylen = 24;
 318              		.loc 1 107 0
 319 010c 5A4B     		ldr	r3, .L49+20
 320 010e 1822     		movs	r2, #24
 321              	.L48:
 322 0110 1A70     		strb	r2, [r3]
 108:src/keytrans.c ****         keysize = KEYMODE_TRIPLE;
 323              		.loc 1 108 0
 324 0112 5A70     		strb	r2, [r3, #1]
 325              	.L15:
 109:src/keytrans.c ****         break;
 110:src/keytrans.c ****     }
 111:src/keytrans.c ****     if ((keyin == MWKEY_1) || (keyin == MWKEY_2) || (keyin == MWKEY_3))
 326              		.loc 1 111 0
 327 0114 A0F13103 		sub	r3, r0, #49
 328 0118 022B     		cmp	r3, #2
 329 011a 02D9     		bls	.L19
 112:src/keytrans.c ****       break;
 113:src/keytrans.c ****     else if (keyin == MWKEY_CANCL)
 330              		.loc 1 113 0
 331 011c 1128     		cmp	r0, #17
 332 011e E2D1     		bne	.L21
 333 0120 9DE0     		b	.L26
 334              	.L19:
 114:src/keytrans.c ****       return FALSE;
 115:src/keytrans.c ****   }
 116:src/keytrans.c ****   
 117:src/keytrans.c ****   keycontent = MallocMW(keylen);
 335              		.loc 1 117 0
 336 0122 554E     		ldr	r6, .L49+20
ARM GAS  C:\Users\AHMED~1.ELE\AppData\Local\Temp\ccfMkwD6.s 			page 9


 337 0124 9220     		movs	r0, #146
 338              	.LVL34:
 339 0126 3178     		ldrb	r1, [r6]	@ zero_extendqisi2
 340 0128 FFF7FEFF 		bl	sys_func1
 341              	.LVL35:
 118:src/keytrans.c ****   memcpy(keycontent, KTMK, keylen);
 342              		.loc 1 118 0
 343 012c 3478     		ldrb	r4, [r6]	@ zero_extendqisi2
 344              	.LVL36:
 345 012e 03A9     		add	r1, sp, #12
 346 0130 2246     		mov	r2, r4
 117:src/keytrans.c ****   memcpy(keycontent, KTMK, keylen);
 347              		.loc 1 117 0
 348 0132 0746     		mov	r7, r0
 349              	.LVL37:
 350              		.loc 1 118 0
 351 0134 FFF7FEFF 		bl	memcpy
 352              	.LVL38:
 119:src/keytrans.c ****   keycfg = MallocMW(4+keylen);
 353              		.loc 1 119 0
 354 0138 211D     		adds	r1, r4, #4
 355 013a 9220     		movs	r0, #146
 356 013c FFF7FEFF 		bl	sys_func1
 357              	.LVL39:
 120:src/keytrans.c **** 
 121:src/keytrans.c ****   // injecting the TMK
 122:src/keytrans.c ****   keycfg[0] = KEYMODE_MKEY | keysize;
 358              		.loc 1 122 0
 359 0140 7378     		ldrb	r3, [r6, #1]	@ zero_extendqisi2
 123:src/keytrans.c ****   keycfg[1] = MKEY_IDX;
 360              		.loc 1 123 0
 361 0142 0025     		movs	r5, #0
 122:src/keytrans.c ****   keycfg[1] = MKEY_IDX;
 362              		.loc 1 122 0
 363 0144 43F00403 		orr	r3, r3, #4
 119:src/keytrans.c **** 
 364              		.loc 1 119 0
 365 0148 0446     		mov	r4, r0
 366              	.LVL40:
 122:src/keytrans.c ****   keycfg[1] = MKEY_IDX;
 367              		.loc 1 122 0
 368 014a 0370     		strb	r3, [r0]
 369              		.loc 1 123 0
 370 014c 4570     		strb	r5, [r0, #1]
 124:src/keytrans.c ****   memcpy(&keycfg[2], "\xFF\x00", 2);
 371              		.loc 1 124 0
 372 014e 4B49     		ldr	r1, .L49+24
 373 0150 0222     		movs	r2, #2
 374 0152 0230     		adds	r0, r0, #2
 375              	.LVL41:
 376 0154 FFF7FEFF 		bl	memcpy
 377              	.LVL42:
 125:src/keytrans.c ****   memcpy(&keycfg[4], keycontent, keylen);
 378              		.loc 1 125 0
 379 0158 3278     		ldrb	r2, [r6]	@ zero_extendqisi2
 380 015a 3946     		mov	r1, r7
 381 015c 201D     		adds	r0, r4, #4
ARM GAS  C:\Users\AHMED~1.ELE\AppData\Local\Temp\ccfMkwD6.s 			page 10


 382 015e FFF7FEFF 		bl	memcpy
 383              	.LVL43:
 126:src/keytrans.c ****   
 127:src/keytrans.c ****   ret = KDLL_KeyInject(keycfg);
 384              		.loc 1 127 0
 385 0162 0095     		str	r5, [sp]
 386 0164 7F20     		movs	r0, #127
 387 0166 0221     		movs	r1, #2
 388 0168 2246     		mov	r2, r4
 389 016a 2B46     		mov	r3, r5
 390 016c FFF7FEFF 		bl	lib_app_call
 391              	.LVL44:
 128:src/keytrans.c ****   if (ret) {
 392              		.loc 1 128 0
 393 0170 86B2     		uxth	r6, r0
 394 0172 002E     		cmp	r6, #0
 395 0174 46D0     		beq	.L22
 396              	.LVL45:
 397              	.LBB7:
 129:src/keytrans.c ****     DispLineMW("TMKI Failed!", MW_LINE5, MW_CENTER|MW_BIGFONT);
 398              		.loc 1 129 0
 399 0176 9220     		movs	r0, #146
 400              	.LVL46:
 401 0178 0D21     		movs	r1, #13
 402 017a FFF7FEFF 		bl	sys_func1
 403              	.LVL47:
 404 017e 0446     		mov	r4, r0
 405              	.LVL48:
 406 0180 90B1     		cbz	r0, .L23
 407              		.loc 1 129 0 is_stmt 0 discriminator 1
 408 0182 3F49     		ldr	r1, .L49+28
 409 0184 0C22     		movs	r2, #12
 410 0186 FFF7FEFF 		bl	memcpy
 411              	.LVL49:
 412 018a 41F20203 		movw	r3, #4098
 413 018e 2573     		strb	r5, [r4, #12]
 414 0190 2521     		movs	r1, #37
 415 0192 0093     		str	r3, [sp]
 416 0194 0F20     		movs	r0, #15
 417 0196 2246     		mov	r2, r4
 418 0198 4FF4A063 		mov	r3, #1280
 419 019c FFF7FEFF 		bl	lib_app_call
 420              	.LVL50:
 421 01a0 9420     		movs	r0, #148
 422 01a2 2146     		mov	r1, r4
 423 01a4 FFF7FEFF 		bl	sys_func1
 424              	.LVL51:
 425              	.L23:
 426              	.LBE7:
 130:src/keytrans.c ****     SprintfMW(buf, "Ret = %d", ret);
 427              		.loc 1 130 0 is_stmt 1
 428 01a8 3649     		ldr	r1, .L49+32
 429 01aa 3246     		mov	r2, r6
 430 01ac 0AA8     		add	r0, sp, #40
 431 01ae FFF7FEFF 		bl	sprintf
 432              	.LVL52:
 433              	.LBB8:
ARM GAS  C:\Users\AHMED~1.ELE\AppData\Local\Temp\ccfMkwD6.s 			page 11


 131:src/keytrans.c ****     DispLineMW(buf, MW_LINE7, MW_CENTER|MW_BIGFONT);
 434              		.loc 1 131 0
 435 01b2 0AA8     		add	r0, sp, #40
 436 01b4 FFF7FEFF 		bl	strlen
 437              	.LVL53:
 438 01b8 0546     		mov	r5, r0
 439              	.LVL54:
 440 01ba 691C     		adds	r1, r5, #1
 441 01bc 9220     		movs	r0, #146
 442              	.LVL55:
 443 01be FFF7FEFF 		bl	sys_func1
 444              	.LVL56:
 445 01c2 0446     		mov	r4, r0
 446              	.LVL57:
 447 01c4 98B1     		cbz	r0, .L24
 448              		.loc 1 131 0 is_stmt 0 discriminator 1
 449 01c6 0AA9     		add	r1, sp, #40
 450 01c8 2A46     		mov	r2, r5
 451 01ca FFF7FEFF 		bl	memcpy
 452              	.LVL58:
 453 01ce 0023     		movs	r3, #0
 454 01d0 2521     		movs	r1, #37
 455 01d2 6355     		strb	r3, [r4, r5]
 456 01d4 41F20203 		movw	r3, #4098
 457 01d8 0F20     		movs	r0, #15
 458 01da 0093     		str	r3, [sp]
 459 01dc 2246     		mov	r2, r4
 460 01de 4FF4E063 		mov	r3, #1792
 461 01e2 FFF7FEFF 		bl	lib_app_call
 462              	.LVL59:
 463 01e6 9420     		movs	r0, #148
 464 01e8 2146     		mov	r1, r4
 465 01ea FFF7FEFF 		bl	sys_func1
 466              	.LVL60:
 467              	.L24:
 468              	.LBE8:
 132:src/keytrans.c ****     LongBeep();
 133:src/keytrans.c ****     APM_WaitKey(200, 0);
 469              		.loc 1 133 0 is_stmt 1
 470 01ee 0024     		movs	r4, #0
 471              	.LVL61:
 132:src/keytrans.c ****     LongBeep();
 472              		.loc 1 132 0
 473 01f0 FFF7FEFF 		bl	LongBeep
 474              	.LVL62:
 475              		.loc 1 133 0
 476 01f4 0321     		movs	r1, #3
 477 01f6 0094     		str	r4, [sp]
 478 01f8 C822     		movs	r2, #200
 479 01fa 2346     		mov	r3, r4
 480 01fc 1020     		movs	r0, #16
 481 01fe FFF7FEFF 		bl	lib_app_call
 482              	.LVL63:
 483 0202 2CE0     		b	.L26
 484              	.LVL64:
 485              	.L22:
 134:src/keytrans.c ****     return FALSE;
ARM GAS  C:\Users\AHMED~1.ELE\AppData\Local\Temp\ccfMkwD6.s 			page 12


 135:src/keytrans.c ****   }
 136:src/keytrans.c ****   FreeMW(keycontent);
 486              		.loc 1 136 0
 487 0204 3946     		mov	r1, r7
 488 0206 9420     		movs	r0, #148
 489              	.LVL65:
 490 0208 FFF7FEFF 		bl	sys_func1
 491              	.LVL66:
 137:src/keytrans.c ****   FreeMW(keycfg);
 492              		.loc 1 137 0
 493 020c 2146     		mov	r1, r4
 494 020e 9420     		movs	r0, #148
 495 0210 FFF7FEFF 		bl	sys_func1
 496              	.LVL67:
 138:src/keytrans.c ****   Short2Beep();
 497              		.loc 1 138 0
 498 0214 FFF7FEFF 		bl	Short2Beep
 499              	.LVL68:
 500              	.LBB9:
 139:src/keytrans.c ****   DispLineMW("TMKI OK", MW_LINE5, MW_CLRDISP|MW_CENTER|MW_BIGFONT);
 501              		.loc 1 139 0
 502 0218 9220     		movs	r0, #146
 503 021a 0821     		movs	r1, #8
 504 021c FFF7FEFF 		bl	sys_func1
 505              	.LVL69:
 506 0220 0446     		mov	r4, r0
 507              	.LVL70:
 508 0222 90B1     		cbz	r0, .L25
 509              		.loc 1 139 0 is_stmt 0 discriminator 1
 510 0224 1849     		ldr	r1, .L49+36
 511 0226 0722     		movs	r2, #7
 512 0228 FFF7FEFF 		bl	memcpy
 513              	.LVL71:
 514 022c 41F28203 		movw	r3, #4226
 515 0230 E671     		strb	r6, [r4, #7]
 516 0232 2521     		movs	r1, #37
 517 0234 0093     		str	r3, [sp]
 518 0236 0F20     		movs	r0, #15
 519 0238 2246     		mov	r2, r4
 520 023a 4FF4A063 		mov	r3, #1280
 521 023e FFF7FEFF 		bl	lib_app_call
 522              	.LVL72:
 523 0242 9420     		movs	r0, #148
 524 0244 2146     		mov	r1, r4
 525 0246 FFF7FEFF 		bl	sys_func1
 526              	.LVL73:
 527              	.L25:
 528              	.LBE9:
 140:src/keytrans.c ****   APM_WaitKey(9000, 0);
 529              		.loc 1 140 0 is_stmt 1
 530 024a 0023     		movs	r3, #0
 531 024c 1020     		movs	r0, #16
 532 024e 0093     		str	r3, [sp]
 533 0250 0321     		movs	r1, #3
 534 0252 42F22832 		movw	r2, #9000
 535 0256 FFF7FEFF 		bl	lib_app_call
 536              	.LVL74:
ARM GAS  C:\Users\AHMED~1.ELE\AppData\Local\Temp\ccfMkwD6.s 			page 13


 141:src/keytrans.c ****   return TRUE;
 537              		.loc 1 141 0
 538 025a 0120     		movs	r0, #1
 539 025c 00E0     		b	.L20
 540              	.LVL75:
 541              	.L26:
 114:src/keytrans.c ****   }
 542              		.loc 1 114 0
 543 025e 0020     		movs	r0, #0
 544              	.L20:
 142:src/keytrans.c **** }
 545              		.loc 1 142 0
 546 0260 13B0     		add	sp, sp, #76
 547              		.cfi_def_cfa_offset 20
 548              		@ sp needed
 549 0262 F0BD     		pop	{r4, r5, r6, r7, pc}
 550              	.L50:
 551              		.align	2
 552              	.L49:
 553 0264 61000000 		.word	.LC1
 554 0268 11000000 		.word	.LC2
 555 026c 28000000 		.word	.LC3
 556 0270 31000000 		.word	.LC4
 557 0274 3A000000 		.word	.LC5
 558 0278 00000000 		.word	.LANCHOR0
 559 027c 00000000 		.word	.LANCHOR1
 560 0280 43000000 		.word	.LC7
 561 0284 50000000 		.word	.LC8
 562 0288 59000000 		.word	.LC9
 563              		.cfi_endproc
 564              	.LFE2:
 565              		.size	LoadTmk, .-LoadTmk
 566              		.section	.text.LoadKeys,"ax",%progbits
 567              		.align	1
 568              		.global	LoadKeys
 569              		.thumb
 570              		.thumb_func
 571              		.type	LoadKeys, %function
 572              	LoadKeys:
 573              	.LFB3:
 143:src/keytrans.c **** /******************************************************************************
 144:src/keytrans.c ****  *  Function        : LoadKeys
 145:src/keytrans.c ****  *  Description     : Load data encrytion/decryption keys
 146:src/keytrans.c ****  *  Input           : N/A
 147:src/keytrans.c ****  *  Return          : N/A
 148:src/keytrans.c ****  *  Note            : N/A
 149:src/keytrans.c ****  *  Globals Changed : N/A
 150:src/keytrans.c ****  ******************************************************************************
 151:src/keytrans.c ****  */
 152:src/keytrans.c **** void LoadKeys(void)
 153:src/keytrans.c **** {
 574              		.loc 1 153 0
 575              		.cfi_startproc
 576              		@ args = 0, pretend = 0, frame = 120
 577              		@ frame_needed = 0, uses_anonymous_args = 0
 578 0000 2DE9F043 		push	{r4, r5, r6, r7, r8, r9, lr}
 579              		.cfi_def_cfa_offset 28
ARM GAS  C:\Users\AHMED~1.ELE\AppData\Local\Temp\ccfMkwD6.s 			page 14


 580              		.cfi_offset 4, -28
 581              		.cfi_offset 5, -24
 582              		.cfi_offset 6, -20
 583              		.cfi_offset 7, -16
 584              		.cfi_offset 8, -12
 585              		.cfi_offset 9, -8
 586              		.cfi_offset 14, -4
 587 0004 A1B0     		sub	sp, sp, #132
 588              		.cfi_def_cfa_offset 160
 154:src/keytrans.c ****   // plaintext encrypt key: 0000111122223333
 155:src/keytrans.c ****   const BYTE KEncrypt1[] = "\x96\xC6\x16\x8A\x2E\x9F\x15\xEB";
 589              		.loc 1 155 0
 590 0006 7C49     		ldr	r1, .L76
 591 0008 0922     		movs	r2, #9
 592 000a 02A8     		add	r0, sp, #8
 593 000c FFF7FEFF 		bl	memcpy
 594              	.LVL76:
 156:src/keytrans.c ****   // plaintext encrypt key: 0000111122223333 4444555566667777
 157:src/keytrans.c ****   const BYTE KEncrypt2[] = "\x26\xA7\xD1\x19\x3D\x01\x14\xF6\x46\x52\x57\x3C\x22\xD8\x35\xE2";
 595              		.loc 1 157 0
 596 0010 7A49     		ldr	r1, .L76+4
 597 0012 1122     		movs	r2, #17
 598 0014 08A8     		add	r0, sp, #32
 599 0016 FFF7FEFF 		bl	memcpy
 600              	.LVL77:
 158:src/keytrans.c ****   // plaintext encrypt key: 0000111122223333 4444555566667777 88889999AAAABBBB
 159:src/keytrans.c ****   const BYTE KEncrypt3[] = "\xA6\xA4\xD1\x6B\xAE\xE6\x8A\x8C\x65\x15\x44\xEF\xB9\x63\x4F\x9D\xB6\xB
 601              		.loc 1 159 0
 602 001a 7949     		ldr	r1, .L76+8
 603 001c 1922     		movs	r2, #25
 604 001e 12A8     		add	r0, sp, #72
 605 0020 FFF7FEFF 		bl	memcpy
 606              	.LVL78:
 160:src/keytrans.c ****   // plaintext decrypt key: CCCCDDDDEEEEFFFF
 161:src/keytrans.c ****   const BYTE KDecrypt1[] = "\x24\x22\xEA\x54\x1A\x8A\x1E\x35";
 607              		.loc 1 161 0
 608 0024 7749     		ldr	r1, .L76+12
 609 0026 0922     		movs	r2, #9
 610 0028 05A8     		add	r0, sp, #20
 611 002a FFF7FEFF 		bl	memcpy
 612              	.LVL79:
 162:src/keytrans.c ****   // plaintest decrypt key: CCCCDDDDEEEEFFFF 0011223344556677
 163:src/keytrans.c ****   const BYTE KDecrypt2[] = "\x9C\x15\x9E\x60\xC4\x4F\x8D\x6F\x31\xA7\x36\x4C\xAC\x91\xCA\x39";
 613              		.loc 1 163 0
 614 002e 7649     		ldr	r1, .L76+16
 615 0030 1122     		movs	r2, #17
 616 0032 0DA8     		add	r0, sp, #52
 617 0034 FFF7FEFF 		bl	memcpy
 618              	.LVL80:
 164:src/keytrans.c ****   // plaintest decrypt key: CCCCDDDDEEEEFFFF 0011223344556677 8899AABBCCDDEEFF
 165:src/keytrans.c ****   const BYTE KDecrypt3[] = "\x73\x36\x2D\xC6\x79\xD1\xA1\x3C\x0F\x16\xDE\xA6\xD4\x4E\x34\xC9\x6A\xF
 166:src/keytrans.c ****   BYTE * keycfg;
 167:src/keytrans.c ****   BYTE * keycontent;
 168:src/keytrans.c **** 
 169:src/keytrans.c ****   ClearDispMW();
 170:src/keytrans.c ****   
 171:src/keytrans.c ****   keycontent = MallocMW(keylen);
ARM GAS  C:\Users\AHMED~1.ELE\AppData\Local\Temp\ccfMkwD6.s 			page 15


 619              		.loc 1 171 0
 620 0038 744D     		ldr	r5, .L76+20
 165:src/keytrans.c ****   BYTE * keycfg;
 621              		.loc 1 165 0
 622 003a 1922     		movs	r2, #25
 623 003c 7449     		ldr	r1, .L76+24
 624 003e 19A8     		add	r0, sp, #100
 625 0040 FFF7FEFF 		bl	memcpy
 626              	.LVL81:
 169:src/keytrans.c ****   
 627              		.loc 1 169 0
 628 0044 0C21     		movs	r1, #12
 629 0046 1620     		movs	r0, #22
 630 0048 FFF7FEFF 		bl	sys_func1
 631              	.LVL82:
 632              		.loc 1 171 0
 633 004c 9220     		movs	r0, #146
 634 004e 2978     		ldrb	r1, [r5]	@ zero_extendqisi2
 635 0050 FFF7FEFF 		bl	sys_func1
 636              	.LVL83:
 172:src/keytrans.c ****   if (keysize == KEYMODE_SINGLE)
 637              		.loc 1 172 0
 638 0054 6B78     		ldrb	r3, [r5, #1]	@ zero_extendqisi2
 639 0056 082B     		cmp	r3, #8
 171:src/keytrans.c ****   if (keysize == KEYMODE_SINGLE)
 640              		.loc 1 171 0
 641 0058 0646     		mov	r6, r0
 642              	.LVL84:
 643              		.loc 1 172 0
 644 005a 01D1     		bne	.L52
 173:src/keytrans.c ****     memcpy(keycontent, KEncrypt1, keylen);
 645              		.loc 1 173 0
 646 005c 02A9     		add	r1, sp, #8
 647 005e 06E0     		b	.L72
 648              	.L52:
 174:src/keytrans.c ****   if (keysize == KEYMODE_DOUBLE)
 649              		.loc 1 174 0
 650 0060 102B     		cmp	r3, #16
 651 0062 01D1     		bne	.L54
 175:src/keytrans.c ****     memcpy(keycontent, KEncrypt2, keylen);
 652              		.loc 1 175 0
 653 0064 08A9     		add	r1, sp, #32
 654 0066 02E0     		b	.L72
 655              	.L54:
 176:src/keytrans.c ****   if (keysize == KEYMODE_TRIPLE)
 656              		.loc 1 176 0
 657 0068 182B     		cmp	r3, #24
 658 006a 03D1     		bne	.L53
 177:src/keytrans.c ****     memcpy(keycontent, KEncrypt3, keylen);
 659              		.loc 1 177 0
 660 006c 12A9     		add	r1, sp, #72
 661              	.L72:
 662 006e 2A78     		ldrb	r2, [r5]	@ zero_extendqisi2
 663 0070 FFF7FEFF 		bl	memcpy
 664              	.LVL85:
 665              	.L53:
 178:src/keytrans.c ****   keycfg = MallocMW(4+keylen);
ARM GAS  C:\Users\AHMED~1.ELE\AppData\Local\Temp\ccfMkwD6.s 			page 16


 666              		.loc 1 178 0
 667 0074 2978     		ldrb	r1, [r5]	@ zero_extendqisi2
 668 0076 9220     		movs	r0, #146
 669 0078 0431     		adds	r1, r1, #4
 670 007a FFF7FEFF 		bl	sys_func1
 671              	.LVL86:
 179:src/keytrans.c ****   
 180:src/keytrans.c ****   // injecting the encryption key
 181:src/keytrans.c ****   keycfg[0] = KEYMODE_ENC | keysize;
 672              		.loc 1 181 0
 673 007e 6B78     		ldrb	r3, [r5, #1]	@ zero_extendqisi2
 182:src/keytrans.c ****   keycfg[1] = EKEY_IDX;
 183:src/keytrans.c ****   keycfg[2] = MKEY_IDX;
 674              		.loc 1 183 0
 675 0080 0027     		movs	r7, #0
 184:src/keytrans.c ****   keycfg[3] = 0x00;
 185:src/keytrans.c ****   memcpy(&keycfg[4], keycontent, keylen);
 676              		.loc 1 185 0
 677 0082 3146     		mov	r1, r6
 181:src/keytrans.c ****   keycfg[1] = EKEY_IDX;
 678              		.loc 1 181 0
 679 0084 0370     		strb	r3, [r0]
 182:src/keytrans.c ****   keycfg[1] = EKEY_IDX;
 680              		.loc 1 182 0
 681 0086 0123     		movs	r3, #1
 682              		.loc 1 185 0
 683 0088 00F10408 		add	r8, r0, #4
 182:src/keytrans.c ****   keycfg[1] = EKEY_IDX;
 684              		.loc 1 182 0
 685 008c 4370     		strb	r3, [r0, #1]
 178:src/keytrans.c ****   
 686              		.loc 1 178 0
 687 008e 0446     		mov	r4, r0
 688              	.LVL87:
 183:src/keytrans.c ****   keycfg[3] = 0x00;
 689              		.loc 1 183 0
 690 0090 8770     		strb	r7, [r0, #2]
 184:src/keytrans.c ****   memcpy(&keycfg[4], keycontent, keylen);
 691              		.loc 1 184 0
 692 0092 C770     		strb	r7, [r0, #3]
 693              		.loc 1 185 0
 694 0094 2A78     		ldrb	r2, [r5]	@ zero_extendqisi2
 695 0096 4046     		mov	r0, r8
 696              	.LVL88:
 697 0098 FFF7FEFF 		bl	memcpy
 698              	.LVL89:
 186:src/keytrans.c ****   
 187:src/keytrans.c ****   if (KDLL_KeyInject(keycfg)) {
 699              		.loc 1 187 0
 700 009c 0221     		movs	r1, #2
 701 009e 0097     		str	r7, [sp]
 702 00a0 7F20     		movs	r0, #127
 703 00a2 2246     		mov	r2, r4
 704 00a4 3B46     		mov	r3, r7
 705 00a6 FFF7FEFF 		bl	lib_app_call
 706              	.LVL90:
 707              	.LBB10:
ARM GAS  C:\Users\AHMED~1.ELE\AppData\Local\Temp\ccfMkwD6.s 			page 17


 188:src/keytrans.c ****     DispLineMW("Inject Failed!", MW_LINE5, MW_CENTER|MW_BIGFONT);
 708              		.loc 1 188 0
 709 00aa 0F21     		movs	r1, #15
 710              	.LBE10:
 187:src/keytrans.c ****     DispLineMW("Inject Failed!", MW_LINE5, MW_CENTER|MW_BIGFONT);
 711              		.loc 1 187 0
 712 00ac 1FFA80F9 		uxth	r9, r0
 713              	.LBB11:
 714              		.loc 1 188 0
 715 00b0 9220     		movs	r0, #146
 716              	.LBE11:
 187:src/keytrans.c ****     DispLineMW("Inject Failed!", MW_LINE5, MW_CENTER|MW_BIGFONT);
 717              		.loc 1 187 0
 718 00b2 B9F1000F 		cmp	r9, #0
 719 00b6 16D0     		beq	.L55
 720              	.LVL91:
 721              	.LBB12:
 722              		.loc 1 188 0
 723 00b8 FFF7FEFF 		bl	sys_func1
 724              	.LVL92:
 725 00bc 8146     		mov	r9, r0
 726 00be 50B3     		cbz	r0, .L57
 727              		.loc 1 188 0 is_stmt 0 discriminator 1
 728 00c0 5449     		ldr	r1, .L76+28
 729 00c2 0E22     		movs	r2, #14
 730 00c4 FFF7FEFF 		bl	memcpy
 731              	.LVL93:
 732 00c8 41F20203 		movw	r3, #4098
 733 00cc 89F80E70 		strb	r7, [r9, #14]
 734 00d0 2521     		movs	r1, #37
 735 00d2 0093     		str	r3, [sp]
 736 00d4 0F20     		movs	r0, #15
 737 00d6 4A46     		mov	r2, r9
 738 00d8 4FF4A063 		mov	r3, #1280
 739 00dc FFF7FEFF 		bl	lib_app_call
 740              	.LVL94:
 741 00e0 9420     		movs	r0, #148
 742 00e2 4946     		mov	r1, r9
 743 00e4 15E0     		b	.L73
 744              	.LVL95:
 745              	.L55:
 746              	.LBE12:
 747              	.LBB13:
 189:src/keytrans.c ****   }
 190:src/keytrans.c ****   else {
 191:src/keytrans.c ****     DispLineMW("Inject EKEY OK", MW_LINE5, MW_CENTER|MW_BIGFONT);
 748              		.loc 1 191 0 is_stmt 1
 749 00e6 FFF7FEFF 		bl	sys_func1
 750              	.LVL96:
 751 00ea 0746     		mov	r7, r0
 752 00ec 98B1     		cbz	r0, .L57
 753              		.loc 1 191 0 is_stmt 0 discriminator 1
 754 00ee 4A49     		ldr	r1, .L76+32
 755 00f0 0E22     		movs	r2, #14
 756 00f2 FFF7FEFF 		bl	memcpy
 757              	.LVL97:
 758 00f6 41F20203 		movw	r3, #4098
ARM GAS  C:\Users\AHMED~1.ELE\AppData\Local\Temp\ccfMkwD6.s 			page 18


 759 00fa 87F80E90 		strb	r9, [r7, #14]
 760 00fe 2521     		movs	r1, #37
 761 0100 0093     		str	r3, [sp]
 762 0102 0F20     		movs	r0, #15
 763 0104 3A46     		mov	r2, r7
 764 0106 4FF4A063 		mov	r3, #1280
 765 010a FFF7FEFF 		bl	lib_app_call
 766              	.LVL98:
 767 010e 9420     		movs	r0, #148
 768 0110 3946     		mov	r1, r7
 769              	.LVL99:
 770              	.L73:
 771 0112 FFF7FEFF 		bl	sys_func1
 772              	.LVL100:
 773              	.L57:
 774              	.LBE13:
 192:src/keytrans.c ****   }
 193:src/keytrans.c ****   Short2Beep();
 775              		.loc 1 193 0 is_stmt 1
 776 0116 FFF7FEFF 		bl	Short2Beep
 777              	.LVL101:
 194:src/keytrans.c ****   APM_WaitKey(9000, 0);
 778              		.loc 1 194 0
 779 011a 0023     		movs	r3, #0
 780 011c 1020     		movs	r0, #16
 781 011e 0093     		str	r3, [sp]
 782 0120 0321     		movs	r1, #3
 783 0122 42F22832 		movw	r2, #9000
 784 0126 FFF7FEFF 		bl	lib_app_call
 785              	.LVL102:
 195:src/keytrans.c ****   
 196:src/keytrans.c ****   if (keysize == KEYMODE_SINGLE)
 786              		.loc 1 196 0
 787 012a 6F78     		ldrb	r7, [r5, #1]	@ zero_extendqisi2
 788 012c 374B     		ldr	r3, .L76+20
 789 012e 082F     		cmp	r7, #8
 790 0130 02D1     		bne	.L59
 197:src/keytrans.c ****     memcpy(keycontent, KDecrypt1, keylen);
 791              		.loc 1 197 0
 792 0132 3046     		mov	r0, r6
 793 0134 05A9     		add	r1, sp, #20
 794 0136 08E0     		b	.L74
 795              	.L59:
 198:src/keytrans.c ****   if (keysize == KEYMODE_DOUBLE)
 796              		.loc 1 198 0
 797 0138 102F     		cmp	r7, #16
 798 013a 02D1     		bne	.L61
 199:src/keytrans.c ****     memcpy(keycontent, KDecrypt2, keylen);
 799              		.loc 1 199 0
 800 013c 3046     		mov	r0, r6
 801 013e 0DA9     		add	r1, sp, #52
 802 0140 03E0     		b	.L74
 803              	.L61:
 200:src/keytrans.c ****   if (keysize == KEYMODE_TRIPLE)
 804              		.loc 1 200 0
 805 0142 182F     		cmp	r7, #24
 806 0144 04D1     		bne	.L60
ARM GAS  C:\Users\AHMED~1.ELE\AppData\Local\Temp\ccfMkwD6.s 			page 19


 201:src/keytrans.c ****     memcpy(keycontent, KDecrypt3, keylen);
 807              		.loc 1 201 0
 808 0146 3046     		mov	r0, r6
 809 0148 19A9     		add	r1, sp, #100
 810              	.LVL103:
 811              	.L74:
 812 014a 1A78     		ldrb	r2, [r3]	@ zero_extendqisi2
 813 014c FFF7FEFF 		bl	memcpy
 814              	.LVL104:
 815              	.L60:
 202:src/keytrans.c ****   
 203:src/keytrans.c ****   // injecting the decryption key
 204:src/keytrans.c ****   keycfg[0] = KEYMODE_DEC | keysize;   // double key length
 816              		.loc 1 204 0
 817 0150 47F00207 		orr	r7, r7, #2
 205:src/keytrans.c ****   keycfg[1] = DKEY_IDX;
 818              		.loc 1 205 0
 819 0154 4FF00209 		mov	r9, #2
 204:src/keytrans.c ****   keycfg[1] = DKEY_IDX;
 820              		.loc 1 204 0
 821 0158 2770     		strb	r7, [r4]
 206:src/keytrans.c ****   keycfg[2] = MKEY_IDX;
 822              		.loc 1 206 0
 823 015a 0027     		movs	r7, #0
 207:src/keytrans.c ****   keycfg[3] = 0x00;
 208:src/keytrans.c ****   memcpy(&keycfg[4], keycontent, keylen);
 824              		.loc 1 208 0
 825 015c 4046     		mov	r0, r8
 826 015e 3146     		mov	r1, r6
 827 0160 2A78     		ldrb	r2, [r5]	@ zero_extendqisi2
 205:src/keytrans.c ****   keycfg[2] = MKEY_IDX;
 828              		.loc 1 205 0
 829 0162 84F80190 		strb	r9, [r4, #1]
 206:src/keytrans.c ****   keycfg[2] = MKEY_IDX;
 830              		.loc 1 206 0
 831 0166 A770     		strb	r7, [r4, #2]
 207:src/keytrans.c ****   keycfg[3] = 0x00;
 832              		.loc 1 207 0
 833 0168 E770     		strb	r7, [r4, #3]
 834              		.loc 1 208 0
 835 016a FFF7FEFF 		bl	memcpy
 836              	.LVL105:
 209:src/keytrans.c ****   
 210:src/keytrans.c ****   if (KDLL_KeyInject(keycfg)) {
 837              		.loc 1 210 0
 838 016e 4946     		mov	r1, r9
 839 0170 0097     		str	r7, [sp]
 840 0172 7F20     		movs	r0, #127
 841 0174 2246     		mov	r2, r4
 842 0176 3B46     		mov	r3, r7
 843 0178 FFF7FEFF 		bl	lib_app_call
 844              	.LVL106:
 845              	.LBB14:
 211:src/keytrans.c ****     DispLineMW("Inject Failed!", MW_LINE5, MW_CENTER|MW_BIGFONT);
 846              		.loc 1 211 0
 847 017c 0F21     		movs	r1, #15
 848              	.LBE14:
ARM GAS  C:\Users\AHMED~1.ELE\AppData\Local\Temp\ccfMkwD6.s 			page 20


 210:src/keytrans.c ****     DispLineMW("Inject Failed!", MW_LINE5, MW_CENTER|MW_BIGFONT);
 849              		.loc 1 210 0
 850 017e 1FFA80F8 		uxth	r8, r0
 851              	.LBB15:
 852              		.loc 1 211 0
 853 0182 9220     		movs	r0, #146
 854              	.LBE15:
 210:src/keytrans.c ****     DispLineMW("Inject Failed!", MW_LINE5, MW_CENTER|MW_BIGFONT);
 855              		.loc 1 210 0
 856 0184 B8F1000F 		cmp	r8, #0
 857 0188 09D0     		beq	.L62
 858              	.LVL107:
 859              	.LBB16:
 860              		.loc 1 211 0
 861 018a FFF7FEFF 		bl	sys_func1
 862              	.LVL108:
 863 018e 0546     		mov	r5, r0
 864 0190 E8B1     		cbz	r0, .L64
 865              		.loc 1 211 0 is_stmt 0 discriminator 1
 866 0192 2049     		ldr	r1, .L76+28
 867 0194 0E22     		movs	r2, #14
 868 0196 FFF7FEFF 		bl	memcpy
 869              	.LVL109:
 870 019a AF73     		strb	r7, [r5, #14]
 871 019c 09E0     		b	.L75
 872              	.LVL110:
 873              	.L62:
 874              	.LBE16:
 875              	.LBB17:
 212:src/keytrans.c ****   }
 213:src/keytrans.c ****   else {
 214:src/keytrans.c ****     DispLineMW("Inject DKEY OK", MW_LINE5, MW_CENTER|MW_BIGFONT);
 876              		.loc 1 214 0 is_stmt 1
 877 019e FFF7FEFF 		bl	sys_func1
 878              	.LVL111:
 879 01a2 0546     		mov	r5, r0
 880 01a4 98B1     		cbz	r0, .L64
 881              		.loc 1 214 0 is_stmt 0 discriminator 1
 882 01a6 1D49     		ldr	r1, .L76+36
 883 01a8 0E22     		movs	r2, #14
 884 01aa FFF7FEFF 		bl	memcpy
 885              	.LVL112:
 886 01ae 85F80E80 		strb	r8, [r5, #14]
 887              	.LVL113:
 888              	.L75:
 889 01b2 41F20203 		movw	r3, #4098
 890 01b6 2521     		movs	r1, #37
 891 01b8 0093     		str	r3, [sp]
 892 01ba 0F20     		movs	r0, #15
 893 01bc 2A46     		mov	r2, r5
 894 01be 4FF4A063 		mov	r3, #1280
 895 01c2 FFF7FEFF 		bl	lib_app_call
 896              	.LVL114:
 897 01c6 9420     		movs	r0, #148
 898 01c8 2946     		mov	r1, r5
 899 01ca FFF7FEFF 		bl	sys_func1
 900              	.LVL115:
ARM GAS  C:\Users\AHMED~1.ELE\AppData\Local\Temp\ccfMkwD6.s 			page 21


 901              	.L64:
 902              	.LBE17:
 215:src/keytrans.c ****   }
 216:src/keytrans.c ****   FreeMW(keycontent);
 903              		.loc 1 216 0 is_stmt 1
 904 01ce 3146     		mov	r1, r6
 905 01d0 9420     		movs	r0, #148
 906 01d2 FFF7FEFF 		bl	sys_func1
 907              	.LVL116:
 217:src/keytrans.c ****   FreeMW(keycfg);
 908              		.loc 1 217 0
 909 01d6 2146     		mov	r1, r4
 910 01d8 9420     		movs	r0, #148
 911 01da FFF7FEFF 		bl	sys_func1
 912              	.LVL117:
 218:src/keytrans.c ****   Short2Beep();
 913              		.loc 1 218 0
 914 01de FFF7FEFF 		bl	Short2Beep
 915              	.LVL118:
 219:src/keytrans.c ****   APM_WaitKey(9000, 0);
 916              		.loc 1 219 0
 917 01e2 0023     		movs	r3, #0
 918 01e4 0321     		movs	r1, #3
 919 01e6 0093     		str	r3, [sp]
 920 01e8 42F22832 		movw	r2, #9000
 921 01ec 1020     		movs	r0, #16
 922 01ee FFF7FEFF 		bl	lib_app_call
 923              	.LVL119:
 220:src/keytrans.c **** }
 924              		.loc 1 220 0
 925 01f2 21B0     		add	sp, sp, #132
 926              		.cfi_def_cfa_offset 28
 927              		@ sp needed
 928 01f4 BDE8F083 		pop	{r4, r5, r6, r7, r8, r9, pc}
 929              	.LVL120:
 930              	.L77:
 931              		.align	2
 932              	.L76:
 933 01f8 A7000000 		.word	.LC10
 934 01fc B0000000 		.word	.LC11
 935 0200 C1000000 		.word	.LC12
 936 0204 DA000000 		.word	.LC13
 937 0208 E3000000 		.word	.LC14
 938 020c 00000000 		.word	.LANCHOR0
 939 0210 F4000000 		.word	.LC15
 940 0214 7A000000 		.word	.LC16
 941 0218 89000000 		.word	.LC17
 942 021c 98000000 		.word	.LC18
 943              		.cfi_endproc
 944              	.LFE3:
 945              		.size	LoadKeys, .-LoadKeys
 946              		.section	.text.EncData,"ax",%progbits
 947              		.align	1
 948              		.global	EncData
 949              		.thumb
 950              		.thumb_func
 951              		.type	EncData, %function
ARM GAS  C:\Users\AHMED~1.ELE\AppData\Local\Temp\ccfMkwD6.s 			page 22


 952              	EncData:
 953              	.LFB4:
 221:src/keytrans.c **** /******************************************************************************
 222:src/keytrans.c ****  *  Function        : EncData
 223:src/keytrans.c ****  *  Description     : Encrypt data for testing
 224:src/keytrans.c ****  *  Input           : N/A
 225:src/keytrans.c ****  *  Return          : N/A
 226:src/keytrans.c ****  *  Note            : N/A
 227:src/keytrans.c ****  *  Globals Changed : N/A
 228:src/keytrans.c ****  ******************************************************************************
 229:src/keytrans.c ****  */
 230:src/keytrans.c **** void EncData(void)
 231:src/keytrans.c **** {
 954              		.loc 1 231 0
 955              		.cfi_startproc
 956              		@ args = 0, pretend = 0, frame = 208
 957              		@ frame_needed = 0, uses_anonymous_args = 0
 958 0000 30B5     		push	{r4, r5, lr}
 959              		.cfi_def_cfa_offset 12
 960              		.cfi_offset 4, -12
 961              		.cfi_offset 5, -8
 962              		.cfi_offset 14, -4
 963 0002 B7B0     		sub	sp, sp, #220
 964              		.cfi_def_cfa_offset 232
 232:src/keytrans.c ****   BYTE kbdbuf[49], buf[128];
 233:src/keytrans.c ****   WORD ret;
 234:src/keytrans.c ****   
 235:src/keytrans.c ****   // plaintext data
 236:src/keytrans.c ****   const BYTE data[] = "12345678ABCDEFGHstuvwxyz";
 965              		.loc 1 236 0
 966 0004 1922     		movs	r2, #25
 967 0006 3F49     		ldr	r1, .L92
 968 0008 02A8     		add	r0, sp, #8
 969 000a FFF7FEFF 		bl	memcpy
 970              	.LVL121:
 237:src/keytrans.c ****   
 238:src/keytrans.c ****   ClearDispMW();
 971              		.loc 1 238 0
 972 000e 0C21     		movs	r1, #12
 973 0010 1620     		movs	r0, #22
 974 0012 FFF7FEFF 		bl	sys_func1
 975              	.LVL122:
 239:src/keytrans.c ****   memcpy(&kbdbuf[1], data, keylen);
 976              		.loc 1 239 0
 977 0016 3C4B     		ldr	r3, .L92+4
 978 0018 02A9     		add	r1, sp, #8
 979 001a 1C78     		ldrb	r4, [r3]	@ zero_extendqisi2
 980 001c 0DF12503 		add	r3, sp, #37
 981 0020 2246     		mov	r2, r4
 982 0022 1846     		mov	r0, r3
 983 0024 FFF7FEFF 		bl	memcpy
 984              	.LVL123:
 240:src/keytrans.c ****   kbdbuf[0] = keylen;
 241:src/keytrans.c ****   if (keylen == 8)
 985              		.loc 1 241 0
 986 0028 082C     		cmp	r4, #8
 242:src/keytrans.c ****     ret = KDLL_KeyEncrypt(EKEY_IDX, &kbdbuf[1], kbdbuf[0]);
ARM GAS  C:\Users\AHMED~1.ELE\AppData\Local\Temp\ccfMkwD6.s 			page 23


 987              		.loc 1 242 0
 988 002a 0094     		str	r4, [sp]
 989 002c 08BF     		it	eq
 990 002e 0321     		moveq	r1, #3
 239:src/keytrans.c ****   memcpy(&kbdbuf[1], data, keylen);
 991              		.loc 1 239 0
 992 0030 0346     		mov	r3, r0
 243:src/keytrans.c ****   else
 244:src/keytrans.c ****     ret = KDLL_Key3Encrypt(EKEY_IDX, &kbdbuf[1], kbdbuf[0]);
 993              		.loc 1 244 0
 994 0032 18BF     		it	ne
 995 0034 0521     		movne	r1, #5
 242:src/keytrans.c ****     ret = KDLL_KeyEncrypt(EKEY_IDX, &kbdbuf[1], kbdbuf[0]);
 996              		.loc 1 242 0
 997 0036 7F20     		movs	r0, #127
 998              		.loc 1 244 0
 999 0038 0122     		movs	r2, #1
 240:src/keytrans.c ****   if (keylen == 8)
 1000              		.loc 1 240 0
 1001 003a 8DF82440 		strb	r4, [sp, #36]
 1002              		.loc 1 244 0
 1003 003e FFF7FEFF 		bl	lib_app_call
 1004              	.LVL124:
 1005 0042 84B2     		uxth	r4, r0
 1006              	.LVL125:
 245:src/keytrans.c ****   if (ret) {
 1007              		.loc 1 245 0
 1008 0044 14B3     		cbz	r4, .L81
 246:src/keytrans.c ****     SprintfMW(buf, "Enc Err: %d", ret);
 1009              		.loc 1 246 0
 1010 0046 2246     		mov	r2, r4
 1011 0048 3049     		ldr	r1, .L92+8
 1012 004a 16A8     		add	r0, sp, #88
 1013 004c FFF7FEFF 		bl	sprintf
 1014              	.LVL126:
 1015              	.LBB18:
 247:src/keytrans.c ****     DispLineMW(buf, MW_LINE5, MW_BIGFONT);
 1016              		.loc 1 247 0
 1017 0050 16A8     		add	r0, sp, #88
 1018 0052 FFF7FEFF 		bl	strlen
 1019              	.LVL127:
 1020 0056 0546     		mov	r5, r0
 1021              	.LVL128:
 1022 0058 691C     		adds	r1, r5, #1
 1023 005a 9220     		movs	r0, #146
 1024              	.LVL129:
 1025 005c FFF7FEFF 		bl	sys_func1
 1026              	.LVL130:
 1027 0060 0446     		mov	r4, r0
 1028              	.LVL131:
 1029 0062 0028     		cmp	r0, #0
 1030 0064 43D0     		beq	.L82
 1031              		.loc 1 247 0 is_stmt 0 discriminator 1
 1032 0066 16A9     		add	r1, sp, #88
 1033 0068 2A46     		mov	r2, r5
 1034 006a FFF7FEFF 		bl	memcpy
 1035              	.LVL132:
ARM GAS  C:\Users\AHMED~1.ELE\AppData\Local\Temp\ccfMkwD6.s 			page 24


 1036 006e 0023     		movs	r3, #0
 1037 0070 2521     		movs	r1, #37
 1038 0072 6355     		strb	r3, [r4, r5]
 1039 0074 4FF48053 		mov	r3, #4096
 1040 0078 0F20     		movs	r0, #15
 1041 007a 0093     		str	r3, [sp]
 1042 007c 2246     		mov	r2, r4
 1043 007e 4FF4A063 		mov	r3, #1280
 1044 0082 FFF7FEFF 		bl	lib_app_call
 1045              	.LVL133:
 1046 0086 9420     		movs	r0, #148
 1047 0088 2146     		mov	r1, r4
 1048 008a 2EE0     		b	.L91
 1049              	.LVL134:
 1050              	.L81:
 1051              	.LBE18:
 1052              	.LBB19:
 248:src/keytrans.c ****   }
 249:src/keytrans.c ****   else {
 250:src/keytrans.c ****     DispLineMW("Encrypted:", MW_LINE5, MW_SMFONT);
 1053              		.loc 1 250 0 is_stmt 1
 1054 008c 9220     		movs	r0, #146
 1055 008e 0B21     		movs	r1, #11
 1056 0090 FFF7FEFF 		bl	sys_func1
 1057              	.LVL135:
 1058 0094 0546     		mov	r5, r0
 1059 0096 80B1     		cbz	r0, .L83
 1060              		.loc 1 250 0 is_stmt 0 discriminator 1
 1061 0098 1D49     		ldr	r1, .L92+12
 1062 009a 0A22     		movs	r2, #10
 1063 009c FFF7FEFF 		bl	memcpy
 1064              	.LVL136:
 1065 00a0 AC72     		strb	r4, [r5, #10]
 1066 00a2 2521     		movs	r1, #37
 1067 00a4 0094     		str	r4, [sp]
 1068 00a6 0F20     		movs	r0, #15
 1069 00a8 2A46     		mov	r2, r5
 1070 00aa 4FF4A063 		mov	r3, #1280
 1071 00ae FFF7FEFF 		bl	lib_app_call
 1072              	.LVL137:
 1073 00b2 9420     		movs	r0, #148
 1074 00b4 2946     		mov	r1, r5
 1075 00b6 FFF7FEFF 		bl	sys_func1
 1076              	.LVL138:
 1077              	.L83:
 1078              	.LBE19:
 251:src/keytrans.c ****     split(buf, &kbdbuf[1], kbdbuf[0]);
 1079              		.loc 1 251 0 is_stmt 1
 1080 00ba 16A8     		add	r0, sp, #88
 1081 00bc 0DF12501 		add	r1, sp, #37
 1082 00c0 9DF82420 		ldrb	r2, [sp, #36]	@ zero_extendqisi2
 1083 00c4 FFF7FEFF 		bl	split
 1084              	.LVL139:
 252:src/keytrans.c ****     DispGotoMW(MW_LINE6, MW_SMFONT);
 1085              		.loc 1 252 0
 1086 00c8 0023     		movs	r3, #0
 1087 00ca 2421     		movs	r1, #36
ARM GAS  C:\Users\AHMED~1.ELE\AppData\Local\Temp\ccfMkwD6.s 			page 25


 1088 00cc 0093     		str	r3, [sp]
 1089 00ce 4FF4C062 		mov	r2, #1536
 1090 00d2 0F20     		movs	r0, #15
 1091 00d4 FFF7FEFF 		bl	lib_app_call
 1092              	.LVL140:
 253:src/keytrans.c ****     DispPutNCMW(buf, kbdbuf[0]*2);
 1093              		.loc 1 253 0
 1094 00d8 9DF82420 		ldrb	r2, [sp, #36]	@ zero_extendqisi2
 1095 00dc 16A9     		add	r1, sp, #88
 1096 00de 1820     		movs	r0, #24
 1097 00e0 5200     		lsls	r2, r2, #1
 1098 00e2 FFF7FEFF 		bl	sys_func2
 1099              	.LVL141:
 254:src/keytrans.c ****     DispCtrlMW(K_SelBigFont);
 1100              		.loc 1 254 0
 1101 00e6 1620     		movs	r0, #22
 1102 00e8 1121     		movs	r1, #17
 1103              	.LVL142:
 1104              	.L91:
 1105 00ea FFF7FEFF 		bl	sys_func1
 1106              	.LVL143:
 1107              	.L82:
 255:src/keytrans.c ****   }
 256:src/keytrans.c ****   APM_WaitKey(9000, 0);
 1108              		.loc 1 256 0
 1109 00ee 0023     		movs	r3, #0
 1110 00f0 0321     		movs	r1, #3
 1111 00f2 0093     		str	r3, [sp]
 1112 00f4 42F22832 		movw	r2, #9000
 1113 00f8 1020     		movs	r0, #16
 1114 00fa FFF7FEFF 		bl	lib_app_call
 1115              	.LVL144:
 257:src/keytrans.c **** }
 1116              		.loc 1 257 0
 1117 00fe 37B0     		add	sp, sp, #220
 1118              		.cfi_def_cfa_offset 12
 1119              		@ sp needed
 1120 0100 30BD     		pop	{r4, r5, pc}
 1121              	.L93:
 1122 0102 00BF     		.align	2
 1123              	.L92:
 1124 0104 24010000 		.word	.LC19
 1125 0108 00000000 		.word	.LANCHOR0
 1126 010c 0D010000 		.word	.LC20
 1127 0110 19010000 		.word	.LC21
 1128              		.cfi_endproc
 1129              	.LFE4:
 1130              		.size	EncData, .-EncData
 1131              		.section	.text.DecData,"ax",%progbits
 1132              		.align	1
 1133              		.global	DecData
 1134              		.thumb
 1135              		.thumb_func
 1136              		.type	DecData, %function
 1137              	DecData:
 1138              	.LFB5:
 258:src/keytrans.c **** /******************************************************************************
ARM GAS  C:\Users\AHMED~1.ELE\AppData\Local\Temp\ccfMkwD6.s 			page 26


 259:src/keytrans.c ****  *  Function        : DecData
 260:src/keytrans.c ****  *  Description     : Decrypt data for testing
 261:src/keytrans.c ****  *  Input           : N/A
 262:src/keytrans.c ****  *  Return          : N/A
 263:src/keytrans.c ****  *  Note            : N/A
 264:src/keytrans.c ****  *  Globals Changed : N/A
 265:src/keytrans.c ****  ******************************************************************************
 266:src/keytrans.c ****  */
 267:src/keytrans.c **** void DecData(void)
 268:src/keytrans.c **** {
 1139              		.loc 1 268 0
 1140              		.cfi_startproc
 1141              		@ args = 0, pretend = 0, frame = 208
 1142              		@ frame_needed = 0, uses_anonymous_args = 0
 1143 0000 30B5     		push	{r4, r5, lr}
 1144              		.cfi_def_cfa_offset 12
 1145              		.cfi_offset 4, -12
 1146              		.cfi_offset 5, -8
 1147              		.cfi_offset 14, -4
 1148 0002 B7B0     		sub	sp, sp, #220
 1149              		.cfi_def_cfa_offset 232
 269:src/keytrans.c ****   BYTE kbdbuf[49], buf[128];
 270:src/keytrans.c ****   WORD ret;
 271:src/keytrans.c ****   // plaintext data
 272:src/keytrans.c ****   const BYTE data[] = "12345678ABCDEFGHstuvwxyz";
 1150              		.loc 1 272 0
 1151 0004 1922     		movs	r2, #25
 1152 0006 3F49     		ldr	r1, .L108
 1153 0008 02A8     		add	r0, sp, #8
 1154 000a FFF7FEFF 		bl	memcpy
 1155              	.LVL145:
 273:src/keytrans.c ****   
 274:src/keytrans.c ****   ClearDispMW();
 1156              		.loc 1 274 0
 1157 000e 0C21     		movs	r1, #12
 1158 0010 1620     		movs	r0, #22
 1159 0012 FFF7FEFF 		bl	sys_func1
 1160              	.LVL146:
 275:src/keytrans.c ****   memcpy(&kbdbuf[1], data, keylen);
 1161              		.loc 1 275 0
 1162 0016 3C4B     		ldr	r3, .L108+4
 1163 0018 02A9     		add	r1, sp, #8
 1164 001a 1C78     		ldrb	r4, [r3]	@ zero_extendqisi2
 1165 001c 0DF12503 		add	r3, sp, #37
 1166 0020 2246     		mov	r2, r4
 1167 0022 1846     		mov	r0, r3
 1168 0024 FFF7FEFF 		bl	memcpy
 1169              	.LVL147:
 276:src/keytrans.c ****   kbdbuf[0] = keylen;
 277:src/keytrans.c ****   if (keylen == 8)
 1170              		.loc 1 277 0
 1171 0028 082C     		cmp	r4, #8
 278:src/keytrans.c ****     ret = KDLL_KeyDecrypt(DKEY_IDX, &kbdbuf[1], kbdbuf[0]);
 1172              		.loc 1 278 0
 1173 002a 0094     		str	r4, [sp]
 1174 002c 08BF     		it	eq
 1175 002e 0421     		moveq	r1, #4
ARM GAS  C:\Users\AHMED~1.ELE\AppData\Local\Temp\ccfMkwD6.s 			page 27


 275:src/keytrans.c ****   memcpy(&kbdbuf[1], data, keylen);
 1176              		.loc 1 275 0
 1177 0030 0346     		mov	r3, r0
 279:src/keytrans.c ****   else
 280:src/keytrans.c ****     ret = KDLL_Key3Decrypt(DKEY_IDX, &kbdbuf[1], kbdbuf[0]);
 1178              		.loc 1 280 0
 1179 0032 18BF     		it	ne
 1180 0034 0621     		movne	r1, #6
 278:src/keytrans.c ****     ret = KDLL_KeyDecrypt(DKEY_IDX, &kbdbuf[1], kbdbuf[0]);
 1181              		.loc 1 278 0
 1182 0036 7F20     		movs	r0, #127
 1183              		.loc 1 280 0
 1184 0038 0222     		movs	r2, #2
 276:src/keytrans.c ****   if (keylen == 8)
 1185              		.loc 1 276 0
 1186 003a 8DF82440 		strb	r4, [sp, #36]
 1187              		.loc 1 280 0
 1188 003e FFF7FEFF 		bl	lib_app_call
 1189              	.LVL148:
 1190 0042 84B2     		uxth	r4, r0
 1191              	.LVL149:
 281:src/keytrans.c ****   if (ret) {
 1192              		.loc 1 281 0
 1193 0044 14B3     		cbz	r4, .L97
 282:src/keytrans.c ****     SprintfMW(buf, "Dec Err: %d", ret);
 1194              		.loc 1 282 0
 1195 0046 2246     		mov	r2, r4
 1196 0048 3049     		ldr	r1, .L108+8
 1197 004a 16A8     		add	r0, sp, #88
 1198 004c FFF7FEFF 		bl	sprintf
 1199              	.LVL150:
 1200              	.LBB20:
 283:src/keytrans.c ****     DispLineMW(buf, MW_LINE5, MW_BIGFONT);
 1201              		.loc 1 283 0
 1202 0050 16A8     		add	r0, sp, #88
 1203 0052 FFF7FEFF 		bl	strlen
 1204              	.LVL151:
 1205 0056 0546     		mov	r5, r0
 1206              	.LVL152:
 1207 0058 691C     		adds	r1, r5, #1
 1208 005a 9220     		movs	r0, #146
 1209              	.LVL153:
 1210 005c FFF7FEFF 		bl	sys_func1
 1211              	.LVL154:
 1212 0060 0446     		mov	r4, r0
 1213              	.LVL155:
 1214 0062 0028     		cmp	r0, #0
 1215 0064 43D0     		beq	.L98
 1216              		.loc 1 283 0 is_stmt 0 discriminator 1
 1217 0066 16A9     		add	r1, sp, #88
 1218 0068 2A46     		mov	r2, r5
 1219 006a FFF7FEFF 		bl	memcpy
 1220              	.LVL156:
 1221 006e 0023     		movs	r3, #0
 1222 0070 2521     		movs	r1, #37
 1223 0072 6355     		strb	r3, [r4, r5]
 1224 0074 4FF48053 		mov	r3, #4096
ARM GAS  C:\Users\AHMED~1.ELE\AppData\Local\Temp\ccfMkwD6.s 			page 28


 1225 0078 0F20     		movs	r0, #15
 1226 007a 0093     		str	r3, [sp]
 1227 007c 2246     		mov	r2, r4
 1228 007e 4FF4A063 		mov	r3, #1280
 1229 0082 FFF7FEFF 		bl	lib_app_call
 1230              	.LVL157:
 1231 0086 9420     		movs	r0, #148
 1232 0088 2146     		mov	r1, r4
 1233 008a 2EE0     		b	.L107
 1234              	.LVL158:
 1235              	.L97:
 1236              	.LBE20:
 1237              	.LBB21:
 284:src/keytrans.c ****   }
 285:src/keytrans.c ****   else {
 286:src/keytrans.c ****     DispLineMW("Decrypted:", MW_LINE5, MW_SMFONT);
 1238              		.loc 1 286 0 is_stmt 1
 1239 008c 9220     		movs	r0, #146
 1240 008e 0B21     		movs	r1, #11
 1241 0090 FFF7FEFF 		bl	sys_func1
 1242              	.LVL159:
 1243 0094 0546     		mov	r5, r0
 1244 0096 80B1     		cbz	r0, .L99
 1245              		.loc 1 286 0 is_stmt 0 discriminator 1
 1246 0098 1D49     		ldr	r1, .L108+12
 1247 009a 0A22     		movs	r2, #10
 1248 009c FFF7FEFF 		bl	memcpy
 1249              	.LVL160:
 1250 00a0 AC72     		strb	r4, [r5, #10]
 1251 00a2 2521     		movs	r1, #37
 1252 00a4 0094     		str	r4, [sp]
 1253 00a6 0F20     		movs	r0, #15
 1254 00a8 2A46     		mov	r2, r5
 1255 00aa 4FF4A063 		mov	r3, #1280
 1256 00ae FFF7FEFF 		bl	lib_app_call
 1257              	.LVL161:
 1258 00b2 9420     		movs	r0, #148
 1259 00b4 2946     		mov	r1, r5
 1260 00b6 FFF7FEFF 		bl	sys_func1
 1261              	.LVL162:
 1262              	.L99:
 1263              	.LBE21:
 287:src/keytrans.c ****     split(buf, &kbdbuf[1], kbdbuf[0]);
 1264              		.loc 1 287 0 is_stmt 1
 1265 00ba 16A8     		add	r0, sp, #88
 1266 00bc 0DF12501 		add	r1, sp, #37
 1267 00c0 9DF82420 		ldrb	r2, [sp, #36]	@ zero_extendqisi2
 1268 00c4 FFF7FEFF 		bl	split
 1269              	.LVL163:
 288:src/keytrans.c ****     DispGotoMW(MW_LINE6, MW_SMFONT);
 1270              		.loc 1 288 0
 1271 00c8 0023     		movs	r3, #0
 1272 00ca 2421     		movs	r1, #36
 1273 00cc 0093     		str	r3, [sp]
 1274 00ce 4FF4C062 		mov	r2, #1536
 1275 00d2 0F20     		movs	r0, #15
 1276 00d4 FFF7FEFF 		bl	lib_app_call
ARM GAS  C:\Users\AHMED~1.ELE\AppData\Local\Temp\ccfMkwD6.s 			page 29


 1277              	.LVL164:
 289:src/keytrans.c ****     DispPutNCMW(buf, kbdbuf[0]*2);
 1278              		.loc 1 289 0
 1279 00d8 9DF82420 		ldrb	r2, [sp, #36]	@ zero_extendqisi2
 1280 00dc 16A9     		add	r1, sp, #88
 1281 00de 1820     		movs	r0, #24
 1282 00e0 5200     		lsls	r2, r2, #1
 1283 00e2 FFF7FEFF 		bl	sys_func2
 1284              	.LVL165:
 290:src/keytrans.c ****     DispCtrlMW(K_SelBigFont);
 1285              		.loc 1 290 0
 1286 00e6 1620     		movs	r0, #22
 1287 00e8 1121     		movs	r1, #17
 1288              	.LVL166:
 1289              	.L107:
 1290 00ea FFF7FEFF 		bl	sys_func1
 1291              	.LVL167:
 1292              	.L98:
 291:src/keytrans.c ****   }
 292:src/keytrans.c ****   APM_WaitKey(9000, 0);
 1293              		.loc 1 292 0
 1294 00ee 0023     		movs	r3, #0
 1295 00f0 0321     		movs	r1, #3
 1296 00f2 0093     		str	r3, [sp]
 1297 00f4 42F22832 		movw	r2, #9000
 1298 00f8 1020     		movs	r0, #16
 1299 00fa FFF7FEFF 		bl	lib_app_call
 1300              	.LVL168:
 293:src/keytrans.c **** }
 1301              		.loc 1 293 0
 1302 00fe 37B0     		add	sp, sp, #220
 1303              		.cfi_def_cfa_offset 12
 1304              		@ sp needed
 1305 0100 30BD     		pop	{r4, r5, pc}
 1306              	.L109:
 1307 0102 00BF     		.align	2
 1308              	.L108:
 1309 0104 24010000 		.word	.LC19
 1310 0108 00000000 		.word	.LANCHOR0
 1311 010c 3D010000 		.word	.LC22
 1312 0110 49010000 		.word	.LC23
 1313              		.cfi_endproc
 1314              	.LFE5:
 1315              		.size	DecData, .-DecData
 1316              		.section	.text.SetMode,"ax",%progbits
 1317              		.align	1
 1318              		.global	SetMode
 1319              		.thumb
 1320              		.thumb_func
 1321              		.type	SetMode, %function
 1322              	SetMode:
 1323              	.LFB6:
 294:src/keytrans.c **** /******************************************************************************
 295:src/keytrans.c ****  *  Function        : SetMode
 296:src/keytrans.c ****  *  Description     : Set ECB/CBC mode for encryption/decryption
 297:src/keytrans.c ****  *  Input           : N/A
 298:src/keytrans.c ****  *  Return          : N/A
ARM GAS  C:\Users\AHMED~1.ELE\AppData\Local\Temp\ccfMkwD6.s 			page 30


 299:src/keytrans.c ****  *  Note            : N/A
 300:src/keytrans.c ****  *  Globals Changed : N/A
 301:src/keytrans.c ****  ******************************************************************************
 302:src/keytrans.c ****  */
 303:src/keytrans.c **** void SetMode(void)
 304:src/keytrans.c **** {
 1324              		.loc 1 304 0
 1325              		.cfi_startproc
 1326              		@ args = 0, pretend = 0, frame = 24
 1327              		@ frame_needed = 0, uses_anonymous_args = 0
 1328 0000 70B5     		push	{r4, r5, r6, lr}
 1329              		.cfi_def_cfa_offset 16
 1330              		.cfi_offset 4, -16
 1331              		.cfi_offset 5, -12
 1332              		.cfi_offset 6, -8
 1333              		.cfi_offset 14, -4
 1334 0002 88B0     		sub	sp, sp, #32
 1335              		.cfi_def_cfa_offset 48
 305:src/keytrans.c ****   BYTE key;
 306:src/keytrans.c ****   BYTE kbdbuf[18];
 307:src/keytrans.c ****   
 308:src/keytrans.c ****   memset(kbdbuf, 0, sizeof(kbdbuf));
 1336              		.loc 1 308 0
 1337 0004 03AC     		add	r4, sp, #12
 1338 0006 0021     		movs	r1, #0
 1339 0008 1222     		movs	r2, #18
 1340 000a 2046     		mov	r0, r4
 1341 000c FFF7FEFF 		bl	memset
 1342              	.LVL169:
 1343              	.LBB22:
 309:src/keytrans.c ****   DispLineMW("ENC/DEC Mode:", MW_LINE1, MW_CLRDISP|MW_BIGFONT);
 1344              		.loc 1 309 0
 1345 0010 9220     		movs	r0, #146
 1346 0012 0E21     		movs	r1, #14
 1347 0014 FFF7FEFF 		bl	sys_func1
 1348              	.LVL170:
 1349 0018 0546     		mov	r5, r0
 1350 001a 98B1     		cbz	r0, .L111
 1351              		.loc 1 309 0 is_stmt 0 discriminator 1
 1352 001c 4849     		ldr	r1, .L136
 1353 001e 0D22     		movs	r2, #13
 1354 0020 FFF7FEFF 		bl	memcpy
 1355              	.LVL171:
 1356 0024 0023     		movs	r3, #0
 1357 0026 2521     		movs	r1, #37
 1358 0028 6B73     		strb	r3, [r5, #13]
 1359 002a 4FF48453 		mov	r3, #4224
 1360 002e 0F20     		movs	r0, #15
 1361 0030 0093     		str	r3, [sp]
 1362 0032 2A46     		mov	r2, r5
 1363 0034 4FF48073 		mov	r3, #256
 1364 0038 FFF7FEFF 		bl	lib_app_call
 1365              	.LVL172:
 1366 003c 9420     		movs	r0, #148
 1367 003e 2946     		mov	r1, r5
 1368 0040 FFF7FEFF 		bl	sys_func1
 1369              	.LVL173:
ARM GAS  C:\Users\AHMED~1.ELE\AppData\Local\Temp\ccfMkwD6.s 			page 31


 1370              	.L111:
 1371              	.LBE22:
 1372              	.LBB23:
 310:src/keytrans.c ****   DispLineMW("[ENTER] - ECB", MW_LINE3, MW_BIGFONT);
 1373              		.loc 1 310 0 is_stmt 1
 1374 0044 9220     		movs	r0, #146
 1375 0046 0E21     		movs	r1, #14
 1376 0048 FFF7FEFF 		bl	sys_func1
 1377              	.LVL174:
 1378 004c 0546     		mov	r5, r0
 1379              	.LVL175:
 1380 004e 98B1     		cbz	r0, .L112
 1381              		.loc 1 310 0 is_stmt 0 discriminator 1
 1382 0050 3C49     		ldr	r1, .L136+4
 1383 0052 0D22     		movs	r2, #13
 1384 0054 FFF7FEFF 		bl	memcpy
 1385              	.LVL176:
 1386 0058 0023     		movs	r3, #0
 1387 005a 2521     		movs	r1, #37
 1388 005c 6B73     		strb	r3, [r5, #13]
 1389 005e 4FF48053 		mov	r3, #4096
 1390 0062 0F20     		movs	r0, #15
 1391 0064 0093     		str	r3, [sp]
 1392 0066 2A46     		mov	r2, r5
 1393 0068 4FF44073 		mov	r3, #768
 1394 006c FFF7FEFF 		bl	lib_app_call
 1395              	.LVL177:
 1396 0070 9420     		movs	r0, #148
 1397 0072 2946     		mov	r1, r5
 1398 0074 FFF7FEFF 		bl	sys_func1
 1399              	.LVL178:
 1400              	.L112:
 1401              	.LBE23:
 1402              	.LBB24:
 311:src/keytrans.c ****   DispLineMW("[CLEAR] - CBC", MW_LINE5, MW_BIGFONT);
 1403              		.loc 1 311 0 is_stmt 1
 1404 0078 9220     		movs	r0, #146
 1405 007a 0E21     		movs	r1, #14
 1406 007c FFF7FEFF 		bl	sys_func1
 1407              	.LVL179:
 1408 0080 0546     		mov	r5, r0
 1409              	.LVL180:
 1410 0082 98B1     		cbz	r0, .L113
 1411              		.loc 1 311 0 is_stmt 0 discriminator 1
 1412 0084 3049     		ldr	r1, .L136+8
 1413 0086 0D22     		movs	r2, #13
 1414 0088 FFF7FEFF 		bl	memcpy
 1415              	.LVL181:
 1416 008c 0023     		movs	r3, #0
 1417 008e 2521     		movs	r1, #37
 1418 0090 6B73     		strb	r3, [r5, #13]
 1419 0092 4FF48053 		mov	r3, #4096
 1420 0096 0F20     		movs	r0, #15
 1421 0098 0093     		str	r3, [sp]
 1422 009a 2A46     		mov	r2, r5
 1423 009c 4FF4A063 		mov	r3, #1280
 1424 00a0 FFF7FEFF 		bl	lib_app_call
ARM GAS  C:\Users\AHMED~1.ELE\AppData\Local\Temp\ccfMkwD6.s 			page 32


 1425              	.LVL182:
 1426 00a4 9420     		movs	r0, #148
 1427 00a6 2946     		mov	r1, r5
 1428 00a8 FFF7FEFF 		bl	sys_func1
 1429              	.LVL183:
 1430              	.L113:
 1431              	.LBE24:
 312:src/keytrans.c ****   switch (key=APM_WaitKey(9000, 0)) {
 1432              		.loc 1 312 0 is_stmt 1
 1433 00ac 0025     		movs	r5, #0
 1434              	.LVL184:
 1435 00ae 1020     		movs	r0, #16
 1436 00b0 0095     		str	r5, [sp]
 1437 00b2 0321     		movs	r1, #3
 1438 00b4 42F22832 		movw	r2, #9000
 1439 00b8 2B46     		mov	r3, r5
 1440 00ba FFF7FEFF 		bl	lib_app_call
 1441              	.LVL185:
 1442 00be C0B2     		uxtb	r0, r0
 1443 00c0 1028     		cmp	r0, #16
 1444 00c2 02D0     		beq	.L115
 1445 00c4 1228     		cmp	r0, #18
 1446 00c6 05D0     		beq	.L116
 1447 00c8 38E0     		b	.L110
 1448              	.L115:
 313:src/keytrans.c ****     case MWKEY_ENTER:
 314:src/keytrans.c ****       KDLL_SetOpMode(MODE_ECB, kbdbuf);
 1449              		.loc 1 314 0
 1450 00ca 0095     		str	r5, [sp]
 1451 00cc 7F20     		movs	r0, #127
 1452              	.LVL186:
 1453 00ce 0921     		movs	r1, #9
 1454 00d0 2A46     		mov	r2, r5
 1455 00d2 2EE0     		b	.L135
 1456              	.LVL187:
 1457              	.L116:
 1458              	.LBB25:
 315:src/keytrans.c ****       Short2Beep();
 316:src/keytrans.c ****       break;
 317:src/keytrans.c ****     case MWKEY_CLR:
 318:src/keytrans.c ****       DispLineMW("Init Vector:", MW_LINE1, MW_CLRDISP|MW_BIGFONT);
 1459              		.loc 1 318 0
 1460 00d4 9220     		movs	r0, #146
 1461              	.LVL188:
 1462 00d6 0D21     		movs	r1, #13
 1463 00d8 FFF7FEFF 		bl	sys_func1
 1464              	.LVL189:
 1465 00dc 0646     		mov	r6, r0
 1466 00de 90B1     		cbz	r0, .L117
 1467              		.loc 1 318 0 is_stmt 0 discriminator 1
 1468 00e0 1A49     		ldr	r1, .L136+12
 1469 00e2 0C22     		movs	r2, #12
 1470 00e4 FFF7FEFF 		bl	memcpy
 1471              	.LVL190:
 1472 00e8 4FF48453 		mov	r3, #4224
 1473 00ec 3573     		strb	r5, [r6, #12]
 1474 00ee 2521     		movs	r1, #37
ARM GAS  C:\Users\AHMED~1.ELE\AppData\Local\Temp\ccfMkwD6.s 			page 33


 1475 00f0 0093     		str	r3, [sp]
 1476 00f2 0F20     		movs	r0, #15
 1477 00f4 3246     		mov	r2, r6
 1478 00f6 4FF48073 		mov	r3, #256
 1479 00fa FFF7FEFF 		bl	lib_app_call
 1480              	.LVL191:
 1481 00fe 9420     		movs	r0, #148
 1482 0100 3146     		mov	r1, r6
 1483 0102 FFF7FEFF 		bl	sys_func1
 1484              	.LVL192:
 1485              	.L117:
 1486              	.LBE25:
 319:src/keytrans.c ****       if (!APM_GetKbd(HEX_INPUT+ECHO+MW_LINE3+RIGHT_JUST, IMIN(16)+IMAX(16), kbdbuf))
 1487              		.loc 1 319 0 is_stmt 1
 1488 0106 0094     		str	r4, [sp]
 1489 0108 1020     		movs	r0, #16
 1490 010a 0521     		movs	r1, #5
 1491 010c 104A     		ldr	r2, .L136+16
 1492 010e 41F21003 		movw	r3, #4112
 1493 0112 FFF7FEFF 		bl	lib_app_call
 1494              	.LVL193:
 1495 0116 10F0FF0F 		tst	r0, #255
 1496 011a 0FD0     		beq	.L110
 320:src/keytrans.c ****         return;
 321:src/keytrans.c ****       compress(&kbdbuf[1], &kbdbuf[1], 8);
 1497              		.loc 1 321 0
 1498 011c 0134     		adds	r4, r4, #1
 1499 011e 2046     		mov	r0, r4
 1500 0120 2146     		mov	r1, r4
 1501 0122 0822     		movs	r2, #8
 1502 0124 FFF7FEFF 		bl	compress
 1503              	.LVL194:
 322:src/keytrans.c ****       KDLL_SetOpMode(MODE_CBC, &kbdbuf[1]);
 1504              		.loc 1 322 0
 1505 0128 0023     		movs	r3, #0
 1506 012a 7F20     		movs	r0, #127
 1507 012c 0921     		movs	r1, #9
 1508 012e 0122     		movs	r2, #1
 1509 0130 0093     		str	r3, [sp]
 1510              	.LVL195:
 1511              	.L135:
 1512 0132 2346     		mov	r3, r4
 1513 0134 FFF7FEFF 		bl	lib_app_call
 1514              	.LVL196:
 323:src/keytrans.c ****       Short2Beep();
 1515              		.loc 1 323 0
 1516 0138 FFF7FEFF 		bl	Short2Beep
 1517              	.LVL197:
 1518              	.L110:
 324:src/keytrans.c ****       break;
 325:src/keytrans.c ****     default:
 326:src/keytrans.c ****       break;
 327:src/keytrans.c ****   }
 328:src/keytrans.c **** }
 1519              		.loc 1 328 0
 1520 013c 08B0     		add	sp, sp, #32
 1521              		.cfi_def_cfa_offset 16
ARM GAS  C:\Users\AHMED~1.ELE\AppData\Local\Temp\ccfMkwD6.s 			page 34


 1522              		@ sp needed
 1523 013e 70BD     		pop	{r4, r5, r6, pc}
 1524              	.L137:
 1525              		.align	2
 1526              	.L136:
 1527 0140 54010000 		.word	.LC24
 1528 0144 62010000 		.word	.LC25
 1529 0148 70010000 		.word	.LC26
 1530 014c 7E010000 		.word	.LC27
 1531 0150 FF032400 		.word	2360319
 1532              		.cfi_endproc
 1533              	.LFE6:
 1534              		.size	SetMode, .-SetMode
 1535              		.section	.text.GetPIN,"ax",%progbits
 1536              		.align	1
 1537              		.global	GetPIN
 1538              		.thumb
 1539              		.thumb_func
 1540              		.type	GetPIN, %function
 1541              	GetPIN:
 1542              	.LFB7:
 329:src/keytrans.c **** /******************************************************************************
 330:src/keytrans.c ****  *  Function        : GetPIN
 331:src/keytrans.c ****  *  Description     : Get PIN from user
 332:src/keytrans.c ****  *  Input           : N/A
 333:src/keytrans.c ****  *  Return          : TRUE;           // get pin ok
 334:src/keytrans.c ****  *                    FALSE;          // get pin failed
 335:src/keytrans.c ****  *  Note            : N/A
 336:src/keytrans.c ****  *  Globals Changed : N/A
 337:src/keytrans.c ****  ******************************************************************************
 338:src/keytrans.c ****  */
 339:src/keytrans.c **** BOOLEAN GetPIN(void)
 340:src/keytrans.c **** {
 1543              		.loc 1 340 0
 1544              		.cfi_startproc
 1545              		@ args = 0, pretend = 0, frame = 32
 1546              		@ frame_needed = 0, uses_anonymous_args = 0
 1547 0000 70B5     		push	{r4, r5, r6, lr}
 1548              		.cfi_def_cfa_offset 16
 1549              		.cfi_offset 4, -16
 1550              		.cfi_offset 5, -12
 1551              		.cfi_offset 6, -8
 1552              		.cfi_offset 14, -4
 341:src/keytrans.c ****   BYTE pinblk[11];
 342:src/keytrans.c ****   BYTE msg[] = "\f\x11\nENTER PIN";
 343:src/keytrans.c ****   //BYTE buf[32];
 344:src/keytrans.c ****   
 345:src/keytrans.c ****   memset(gGTS.s_input.sb_pin, ' ', 8);
 1553              		.loc 1 345 0
 1554 0002 284E     		ldr	r6, .L147
 340:src/keytrans.c ****   BYTE pinblk[11];
 1555              		.loc 1 340 0
 1556 0004 8AB0     		sub	sp, sp, #40
 1557              		.cfi_def_cfa_offset 56
 342:src/keytrans.c ****   //BYTE buf[32];
 1558              		.loc 1 342 0
 1559 0006 2849     		ldr	r1, .L147+4
ARM GAS  C:\Users\AHMED~1.ELE\AppData\Local\Temp\ccfMkwD6.s 			page 35


 1560 0008 0D22     		movs	r2, #13
 1561 000a 06A8     		add	r0, sp, #24
 1562 000c FFF7FEFF 		bl	memcpy
 1563              	.LVL198:
 1564              		.loc 1 345 0
 1565 0010 2021     		movs	r1, #32
 1566 0012 0822     		movs	r2, #8
 1567 0014 3046     		mov	r0, r6
 1568 0016 FFF7FEFF 		bl	memset
 1569              	.LVL199:
 346:src/keytrans.c **** 
 347:src/keytrans.c ****   if (!key_ready(EKEY_IDX)) {
 1570              		.loc 1 347 0
 1571 001a 0120     		movs	r0, #1
 1572 001c FFF7FEFF 		bl	key_ready
 1573              	.LVL200:
 1574 0020 0546     		mov	r5, r0
 1575 0022 20BB     		cbnz	r0, .L139
 1576              	.LVL201:
 1577              	.LBB26:
 348:src/keytrans.c ****     DispLineMW("NO PIN KEY", MW_LINE5, MW_CLRDISP|MW_CENTER|MW_BIGFONT);
 1578              		.loc 1 348 0
 1579 0024 9220     		movs	r0, #146
 1580 0026 0B21     		movs	r1, #11
 1581 0028 FFF7FEFF 		bl	sys_func1
 1582              	.LVL202:
 1583 002c 0446     		mov	r4, r0
 1584 002e 90B1     		cbz	r0, .L140
 1585              		.loc 1 348 0 is_stmt 0 discriminator 1
 1586 0030 1E49     		ldr	r1, .L147+8
 1587 0032 0A22     		movs	r2, #10
 1588 0034 FFF7FEFF 		bl	memcpy
 1589              	.LVL203:
 1590 0038 41F28203 		movw	r3, #4226
 1591 003c A572     		strb	r5, [r4, #10]
 1592 003e 2521     		movs	r1, #37
 1593 0040 0093     		str	r3, [sp]
 1594 0042 0F20     		movs	r0, #15
 1595 0044 2246     		mov	r2, r4
 1596 0046 4FF4A063 		mov	r3, #1280
 1597 004a FFF7FEFF 		bl	lib_app_call
 1598              	.LVL204:
 1599 004e 9420     		movs	r0, #148
 1600 0050 2146     		mov	r1, r4
 1601 0052 FFF7FEFF 		bl	sys_func1
 1602              	.LVL205:
 1603              	.L140:
 1604              	.LBE26:
 349:src/keytrans.c ****     LongBeep();
 1605              		.loc 1 349 0 is_stmt 1
 1606 0056 FFF7FEFF 		bl	LongBeep
 1607              	.LVL206:
 350:src/keytrans.c ****     APM_WaitKey(9000,0);
 1608              		.loc 1 350 0
 1609 005a 0023     		movs	r3, #0
 1610 005c 1020     		movs	r0, #16
 1611 005e 0093     		str	r3, [sp]
ARM GAS  C:\Users\AHMED~1.ELE\AppData\Local\Temp\ccfMkwD6.s 			page 36


 1612 0060 0321     		movs	r1, #3
 1613 0062 42F22832 		movw	r2, #9000
 1614 0066 FFF7FEFF 		bl	lib_app_call
 1615              	.LVL207:
 1616              	.L146:
 351:src/keytrans.c ****     //return FALSE;
 352:src/keytrans.c **** 	return TRUE;
 1617              		.loc 1 352 0
 1618 006a 0120     		movs	r0, #1
 1619 006c 18E0     		b	.L141
 1620              	.L139:
 353:src/keytrans.c ****   }
 354:src/keytrans.c **** 
 355:src/keytrans.c **** #if 1
 356:src/keytrans.c ****   // Online PIN
 357:src/keytrans.c ****   memcpy(pinblk, gGTS.s_input.sb_pan, 10);
 1621              		.loc 1 357 0
 1622 006e 03AD     		add	r5, sp, #12
 1623 0070 0F49     		ldr	r1, .L147+12
 1624 0072 0A22     		movs	r2, #10
 1625 0074 2846     		mov	r0, r5
 1626 0076 FFF7FEFF 		bl	memcpy
 1627              	.LVL208:
 358:src/keytrans.c ****   //pinblk[10] = 0; //can pass PRM_4DGT_PIN and/or PRM_PIN_BYPASS
 359:src/keytrans.c ****   pinblk[10] = PRM_PIN_BYPASS;                                        // enable PIN bypass
 360:src/keytrans.c ****   if (KDLL_GetX98PIN(pinblk, msg, EKEY_IDX))
 1628              		.loc 1 360 0
 1629 007a 0124     		movs	r4, #1
 359:src/keytrans.c ****   if (KDLL_GetX98PIN(pinblk, msg, EKEY_IDX))
 1630              		.loc 1 359 0
 1631 007c 0223     		movs	r3, #2
 1632              		.loc 1 360 0
 1633 007e 0094     		str	r4, [sp]
 359:src/keytrans.c ****   if (KDLL_GetX98PIN(pinblk, msg, EKEY_IDX))
 1634              		.loc 1 359 0
 1635 0080 8DF81630 		strb	r3, [sp, #22]
 1636              		.loc 1 360 0
 1637 0084 7F20     		movs	r0, #127
 1638 0086 0721     		movs	r1, #7
 1639 0088 2A46     		mov	r2, r5
 1640 008a 06AB     		add	r3, sp, #24
 1641 008c FFF7FEFF 		bl	lib_app_call
 1642              	.LVL209:
 1643 0090 80B2     		uxth	r0, r0
 1644 0092 20B9     		cbnz	r0, .L142
 361:src/keytrans.c ****     return FALSE;
 362:src/keytrans.c ****   else
 363:src/keytrans.c ****     memcpy(gGTS.s_input.sb_pin, pinblk, 8);
 1645              		.loc 1 363 0
 1646 0094 95E80300 		ldmia	r5, {r0, r1}
 1647 0098 86E80300 		stmia	r6, {r0, r1}
 1648 009c E5E7     		b	.L146
 1649              	.L142:
 361:src/keytrans.c ****     return FALSE;
 1650              		.loc 1 361 0
 1651 009e 0020     		movs	r0, #0
 1652              	.L141:
ARM GAS  C:\Users\AHMED~1.ELE\AppData\Local\Temp\ccfMkwD6.s 			page 37


 364:src/keytrans.c **** #else
 365:src/keytrans.c ****   // GetPIN demo
 366:src/keytrans.c ****   memcpy(pinblk, "\x40\x12\x34\x56\x78\x90\x9F\xFF\xFF\xFF\x00", 11); //X9.24
 367:src/keytrans.c ****   if (KDLL_GetX98PIN(pinblk, msg, EKEY_IDX))
 368:src/keytrans.c ****     return FALSE;
 369:src/keytrans.c ****   DispClrBelowMW(MW_LINE6);
 370:src/keytrans.c ****   split(buf, pinblk, 8);
 371:src/keytrans.c ****   DispGotoMW(MW_LINE7, MW_SPFONT);
 372:src/keytrans.c ****   DispPutNCMW(buf, 16);
 373:src/keytrans.c ****   DispCtrlMW(K_SelBigFont);
 374:src/keytrans.c ****   APM_WaitKey(9000, 0);
 375:src/keytrans.c **** #endif
 376:src/keytrans.c **** 
 377:src/keytrans.c ****   return TRUE;
 378:src/keytrans.c **** }
 1653              		.loc 1 378 0
 1654 00a0 0AB0     		add	sp, sp, #40
 1655              		.cfi_def_cfa_offset 16
 1656              		@ sp needed
 1657 00a2 70BD     		pop	{r4, r5, r6, pc}
 1658              	.L148:
 1659              		.align	2
 1660              	.L147:
 1661 00a4 F8010000 		.word	gGTS+504
 1662 00a8 96010000 		.word	.LC28
 1663 00ac 8B010000 		.word	.LC29
 1664 00b0 09000000 		.word	gGTS+9
 1665              		.cfi_endproc
 1666              	.LFE7:
 1667              		.size	GetPIN, .-GetPIN
 1668              		.section	.text.SetDhostIdx,"ax",%progbits
 1669              		.align	1
 1670              		.global	SetDhostIdx
 1671              		.thumb
 1672              		.thumb_func
 1673              		.type	SetDhostIdx, %function
 1674              	SetDhostIdx:
 1675              	.LFB8:
 379:src/keytrans.c **** /******************************************************************************
 380:src/keytrans.c ****  *  Function        : SetDhostIdx
 381:src/keytrans.c ****  *  Description     : Reset terminal DUKPT init key
 382:src/keytrans.c ****  *  Input           : N/A
 383:src/keytrans.c ****  *  Return          : TRUE;           // key load ok
 384:src/keytrans.c ****  *                    FALSE;          // key load failed
 385:src/keytrans.c ****  *  Note            : N/A
 386:src/keytrans.c ****  *  Globals Changed : N/A
 387:src/keytrans.c ****  ******************************************************************************
 388:src/keytrans.c ****  */
 389:src/keytrans.c **** BOOLEAN SetDhostIdx(void)
 390:src/keytrans.c **** {
 1676              		.loc 1 390 0
 1677              		.cfi_startproc
 1678              		@ args = 0, pretend = 0, frame = 8
 1679              		@ frame_needed = 0, uses_anonymous_args = 0
 1680 0000 30B5     		push	{r4, r5, lr}
 1681              		.cfi_def_cfa_offset 12
 1682              		.cfi_offset 4, -12
ARM GAS  C:\Users\AHMED~1.ELE\AppData\Local\Temp\ccfMkwD6.s 			page 38


 1683              		.cfi_offset 5, -8
 1684              		.cfi_offset 14, -4
 391:src/keytrans.c ****   BYTE kbdbuf[4];
 392:src/keytrans.c ****   
 393:src/keytrans.c ****   kbdbuf[0] = 1;
 1685              		.loc 1 393 0
 1686 0002 0123     		movs	r3, #1
 390:src/keytrans.c ****   BYTE kbdbuf[4];
 1687              		.loc 1 390 0
 1688 0004 85B0     		sub	sp, sp, #20
 1689              		.cfi_def_cfa_offset 32
 1690              		.loc 1 393 0
 1691 0006 8DF80C30 		strb	r3, [sp, #12]
 394:src/keytrans.c ****   kbdbuf[1] = '0' + dhost_idx;
 1692              		.loc 1 394 0
 1693 000a 1B4B     		ldr	r3, .L160
 1694 000c 9A78     		ldrb	r2, [r3, #2]	@ zero_extendqisi2
 1695 000e 1C46     		mov	r4, r3
 1696 0010 3032     		adds	r2, r2, #48
 1697 0012 8DF80D20 		strb	r2, [sp, #13]
 1698              	.L153:
 1699              	.LVL210:
 1700              	.LBB27:
 395:src/keytrans.c ****   while (1) {
 396:src/keytrans.c ****     DispLineMW("DHost Idx(0-4):", MW_LINE5, MW_CLRDISP|MW_BIGFONT);
 1701              		.loc 1 396 0
 1702 0016 9220     		movs	r0, #146
 1703 0018 1021     		movs	r1, #16
 1704 001a FFF7FEFF 		bl	sys_func1
 1705              	.LVL211:
 1706 001e 0546     		mov	r5, r0
 1707 0020 98B1     		cbz	r0, .L150
 1708              		.loc 1 396 0 is_stmt 0 discriminator 1
 1709 0022 1649     		ldr	r1, .L160+4
 1710 0024 0F22     		movs	r2, #15
 1711 0026 FFF7FEFF 		bl	memcpy
 1712              	.LVL212:
 1713 002a 0023     		movs	r3, #0
 1714 002c 2521     		movs	r1, #37
 1715 002e EB73     		strb	r3, [r5, #15]
 1716 0030 4FF48453 		mov	r3, #4224
 1717 0034 0F20     		movs	r0, #15
 1718 0036 0093     		str	r3, [sp]
 1719 0038 2A46     		mov	r2, r5
 1720 003a 4FF4A063 		mov	r3, #1280
 1721 003e FFF7FEFF 		bl	lib_app_call
 1722              	.LVL213:
 1723 0042 9420     		movs	r0, #148
 1724 0044 2946     		mov	r1, r5
 1725 0046 FFF7FEFF 		bl	sys_func1
 1726              	.LVL214:
 1727              	.L150:
 1728              	.LBE27:
 397:src/keytrans.c ****     if (!APM_GetKbd(NUMERIC_INPUT+ECHO+MW_LINE7+MW_BIGFONT+RIGHT_JUST, IMIN(1)+IMAX(1), kbdbuf))
 1729              		.loc 1 397 0 is_stmt 1
 1730 004a 03AB     		add	r3, sp, #12
 1731 004c 1020     		movs	r0, #16
ARM GAS  C:\Users\AHMED~1.ELE\AppData\Local\Temp\ccfMkwD6.s 			page 39


 1732 004e 0093     		str	r3, [sp]
 1733 0050 0521     		movs	r1, #5
 1734 0052 0B4A     		ldr	r2, .L160+8
 1735 0054 40F20113 		movw	r3, #257
 1736 0058 FFF7FEFF 		bl	lib_app_call
 1737              	.LVL215:
 1738 005c C0B2     		uxtb	r0, r0
 1739 005e 48B1     		cbz	r0, .L151
 398:src/keytrans.c ****       return FALSE;
 399:src/keytrans.c ****     if (kbdbuf[1] < '5')
 1740              		.loc 1 399 0
 1741 0060 9DF80D30 		ldrb	r3, [sp, #13]	@ zero_extendqisi2
 1742 0064 342B     		cmp	r3, #52
 1743 0066 02D9     		bls	.L152
 400:src/keytrans.c ****       break;
 401:src/keytrans.c ****     else
 402:src/keytrans.c ****       LongBeep();
 1744              		.loc 1 402 0
 1745 0068 FFF7FEFF 		bl	LongBeep
 1746              	.LVL216:
 403:src/keytrans.c ****   }
 1747              		.loc 1 403 0
 1748 006c D3E7     		b	.L153
 1749              	.L152:
 404:src/keytrans.c ****   dhost_idx = kbdbuf[1] - '0';
 1750              		.loc 1 404 0
 1751 006e 303B     		subs	r3, r3, #48
 405:src/keytrans.c ****   return TRUE;
 1752              		.loc 1 405 0
 1753 0070 0120     		movs	r0, #1
 404:src/keytrans.c ****   dhost_idx = kbdbuf[1] - '0';
 1754              		.loc 1 404 0
 1755 0072 A370     		strb	r3, [r4, #2]
 1756              	.L151:
 406:src/keytrans.c **** }
 1757              		.loc 1 406 0
 1758 0074 05B0     		add	sp, sp, #20
 1759              		.cfi_def_cfa_offset 12
 1760              		@ sp needed
 1761 0076 30BD     		pop	{r4, r5, pc}
 1762              	.LVL217:
 1763              	.L161:
 1764              		.align	2
 1765              	.L160:
 1766 0078 00000000 		.word	.LANCHOR0
 1767 007c A3010000 		.word	.LC30
 1768 0080 FF172000 		.word	2103295
 1769              		.cfi_endproc
 1770              	.LFE8:
 1771              		.size	SetDhostIdx, .-SetDhostIdx
 1772              		.section	.text.ResetDukptIkey,"ax",%progbits
 1773              		.align	1
 1774              		.global	ResetDukptIkey
 1775              		.thumb
 1776              		.thumb_func
 1777              		.type	ResetDukptIkey, %function
 1778              	ResetDukptIkey:
ARM GAS  C:\Users\AHMED~1.ELE\AppData\Local\Temp\ccfMkwD6.s 			page 40


 1779              	.LFB9:
 407:src/keytrans.c **** /******************************************************************************
 408:src/keytrans.c ****  *  Function        : ResetDukptIkey
 409:src/keytrans.c ****  *  Description     : Reset terminal DUKPT init key
 410:src/keytrans.c ****  *  Input           : N/A
 411:src/keytrans.c ****  *  Return          : TRUE;           // key load ok
 412:src/keytrans.c ****  *                    FALSE;          // key load failed
 413:src/keytrans.c ****  *  Note            : N/A
 414:src/keytrans.c ****  *  Globals Changed : N/A
 415:src/keytrans.c ****  ******************************************************************************
 416:src/keytrans.c ****  */
 417:src/keytrans.c **** BOOLEAN ResetDukptIkey(void)
 418:src/keytrans.c **** {
 1780              		.loc 1 418 0
 1781              		.cfi_startproc
 1782              		@ args = 0, pretend = 0, frame = 0
 1783              		@ frame_needed = 0, uses_anonymous_args = 0
 1784              	.LVL218:
 1785 0000 37B5     		push	{r0, r1, r2, r4, r5, lr}
 1786              		.cfi_def_cfa_offset 24
 1787              		.cfi_offset 4, -12
 1788              		.cfi_offset 5, -8
 1789              		.cfi_offset 14, -4
 1790              	.LBB28:
 419:src/keytrans.c ****   DispLineMW("Resetting Keys..", MW_LINE5, MW_CLRDISP|MW_CENTER|MW_BIGFONT);
 1791              		.loc 1 419 0
 1792 0002 9220     		movs	r0, #146
 1793 0004 1121     		movs	r1, #17
 1794 0006 FFF7FEFF 		bl	sys_func1
 1795              	.LVL219:
 1796 000a 0446     		mov	r4, r0
 1797 000c 98B1     		cbz	r0, .L163
 1798              		.loc 1 419 0 is_stmt 0 discriminator 1
 1799 000e 2449     		ldr	r1, .L173
 1800 0010 1022     		movs	r2, #16
 1801 0012 FFF7FEFF 		bl	memcpy
 1802              	.LVL220:
 1803 0016 0023     		movs	r3, #0
 1804 0018 2521     		movs	r1, #37
 1805 001a 2374     		strb	r3, [r4, #16]
 1806 001c 41F28203 		movw	r3, #4226
 1807 0020 0F20     		movs	r0, #15
 1808 0022 0093     		str	r3, [sp]
 1809 0024 2246     		mov	r2, r4
 1810 0026 4FF4A063 		mov	r3, #1280
 1811 002a FFF7FEFF 		bl	lib_app_call
 1812              	.LVL221:
 1813 002e 9420     		movs	r0, #148
 1814 0030 2146     		mov	r1, r4
 1815 0032 FFF7FEFF 		bl	sys_func1
 1816              	.LVL222:
 1817              	.L163:
 1818              	.LBE28:
 420:src/keytrans.c ****   if (!KDLL_DukptKeyReset(dhost_idx)) {
 1819              		.loc 1 420 0 is_stmt 1
 1820 0036 1B4B     		ldr	r3, .L173+4
 1821 0038 7F20     		movs	r0, #127
ARM GAS  C:\Users\AHMED~1.ELE\AppData\Local\Temp\ccfMkwD6.s 			page 41


 1822 003a 9A78     		ldrb	r2, [r3, #2]	@ zero_extendqisi2
 1823 003c 0023     		movs	r3, #0
 1824 003e 0B21     		movs	r1, #11
 1825 0040 0093     		str	r3, [sp]
 1826 0042 FFF7FEFF 		bl	lib_app_call
 1827              	.LVL223:
 1828 0046 C4B2     		uxtb	r4, r0
 1829              	.LVL224:
 1830 0048 1CBB     		cbnz	r4, .L164
 1831              	.LVL225:
 1832              	.LBB29:
 421:src/keytrans.c ****     DispLineMW("DUKI Rst Failed!", MW_LINE5, MW_CLRDISP|MW_CENTER|MW_BIGFONT);
 1833              		.loc 1 421 0
 1834 004a 9220     		movs	r0, #146
 1835 004c 1121     		movs	r1, #17
 1836 004e FFF7FEFF 		bl	sys_func1
 1837              	.LVL226:
 1838 0052 0546     		mov	r5, r0
 1839 0054 90B1     		cbz	r0, .L165
 1840              		.loc 1 421 0 is_stmt 0 discriminator 1
 1841 0056 1449     		ldr	r1, .L173+8
 1842 0058 1022     		movs	r2, #16
 1843 005a FFF7FEFF 		bl	memcpy
 1844              	.LVL227:
 1845 005e 41F28203 		movw	r3, #4226
 1846 0062 2C74     		strb	r4, [r5, #16]
 1847 0064 2521     		movs	r1, #37
 1848 0066 0093     		str	r3, [sp]
 1849 0068 0F20     		movs	r0, #15
 1850 006a 2A46     		mov	r2, r5
 1851 006c 4FF4A063 		mov	r3, #1280
 1852 0070 FFF7FEFF 		bl	lib_app_call
 1853              	.LVL228:
 1854 0074 9420     		movs	r0, #148
 1855 0076 2946     		mov	r1, r5
 1856 0078 FFF7FEFF 		bl	sys_func1
 1857              	.LVL229:
 1858              	.L165:
 1859              	.LBE29:
 422:src/keytrans.c ****     LongBeep();
 1860              		.loc 1 422 0 is_stmt 1
 1861 007c FFF7FEFF 		bl	LongBeep
 1862              	.LVL230:
 423:src/keytrans.c ****     APM_WaitKey(9000, 0);
 1863              		.loc 1 423 0
 1864 0080 0023     		movs	r3, #0
 1865 0082 0321     		movs	r1, #3
 1866 0084 0093     		str	r3, [sp]
 1867 0086 42F22832 		movw	r2, #9000
 1868 008a 1020     		movs	r0, #16
 1869 008c FFF7FEFF 		bl	lib_app_call
 1870              	.LVL231:
 424:src/keytrans.c ****     return FALSE;
 1871              		.loc 1 424 0
 1872 0090 02E0     		b	.L166
 1873              	.LVL232:
 1874              	.L164:
ARM GAS  C:\Users\AHMED~1.ELE\AppData\Local\Temp\ccfMkwD6.s 			page 42


 425:src/keytrans.c ****   }
 426:src/keytrans.c ****   Short2Beep();
 1875              		.loc 1 426 0
 1876 0092 FFF7FEFF 		bl	Short2Beep
 1877              	.LVL233:
 427:src/keytrans.c ****   return TRUE;
 1878              		.loc 1 427 0
 1879 0096 0124     		movs	r4, #1
 1880              	.L166:
 428:src/keytrans.c **** }
 1881              		.loc 1 428 0
 1882 0098 2046     		mov	r0, r4
 1883 009a 03B0     		add	sp, sp, #12
 1884              		.cfi_def_cfa_offset 12
 1885              		@ sp needed
 1886 009c 30BD     		pop	{r4, r5, pc}
 1887              	.L174:
 1888 009e 00BF     		.align	2
 1889              	.L173:
 1890 00a0 00000000 		.word	.LC0
 1891 00a4 00000000 		.word	.LANCHOR0
 1892 00a8 B3010000 		.word	.LC31
 1893              		.cfi_endproc
 1894              	.LFE9:
 1895              		.size	ResetDukptIkey, .-ResetDukptIkey
 1896              		.section	.text.LoadDukptIkey,"ax",%progbits
 1897              		.align	1
 1898              		.global	LoadDukptIkey
 1899              		.thumb
 1900              		.thumb_func
 1901              		.type	LoadDukptIkey, %function
 1902              	LoadDukptIkey:
 1903              	.LFB10:
 429:src/keytrans.c **** /******************************************************************************
 430:src/keytrans.c ****  *  Function        : LoadDukptIkey
 431:src/keytrans.c ****  *  Description     : Load terminal DUKPT init key
 432:src/keytrans.c ****  *  Input           : N/A
 433:src/keytrans.c ****  *  Return          : TRUE;           // key load ok
 434:src/keytrans.c ****  *                    FALSE;          // key load failed
 435:src/keytrans.c ****  *  Note            : N/A
 436:src/keytrans.c ****  *  Globals Changed : N/A
 437:src/keytrans.c ****  ******************************************************************************
 438:src/keytrans.c ****  */
 439:src/keytrans.c **** BOOLEAN LoadDukptIkey(void)
 440:src/keytrans.c **** {
 1904              		.loc 1 440 0
 1905              		.cfi_startproc
 1906              		@ args = 0, pretend = 0, frame = 32
 1907              		@ frame_needed = 0, uses_anonymous_args = 0
 441:src/keytrans.c ****   BYTE keycfg[32];
 442:src/keytrans.c **** 
 443:src/keytrans.c ****   // injecting the initial key
 444:src/keytrans.c ****   keycfg[0] = KEYMODE_DOUBLE;
 445:src/keytrans.c ****   keycfg[1] = dhost_idx;
 1908              		.loc 1 445 0
 1909 0000 314B     		ldr	r3, .L186
 440:src/keytrans.c ****   BYTE keycfg[32];
ARM GAS  C:\Users\AHMED~1.ELE\AppData\Local\Temp\ccfMkwD6.s 			page 43


 1910              		.loc 1 440 0
 1911 0002 30B5     		push	{r4, r5, lr}
 1912              		.cfi_def_cfa_offset 12
 1913              		.cfi_offset 4, -12
 1914              		.cfi_offset 5, -8
 1915              		.cfi_offset 14, -4
 444:src/keytrans.c ****   keycfg[1] = dhost_idx;
 1916              		.loc 1 444 0
 1917 0004 1022     		movs	r2, #16
 440:src/keytrans.c ****   BYTE keycfg[32];
 1918              		.loc 1 440 0
 1919 0006 8BB0     		sub	sp, sp, #44
 1920              		.cfi_def_cfa_offset 56
 1921              		.loc 1 445 0
 1922 0008 9B78     		ldrb	r3, [r3, #2]	@ zero_extendqisi2
 446:src/keytrans.c ****   // initial key (16 bytes)     6AC292FAA1315B4D 858AB3A3D7D5933A
 447:src/keytrans.c ****   memcpy(&keycfg[2], "\x6A\xC2\x92\xFA\xA1\x31\x5B\x4D\x85\x8A\xB3\xA3\xD7\xD5\x93\x3A", 16);
 1923              		.loc 1 447 0
 1924 000a 3049     		ldr	r1, .L186+4
 1925 000c 0DF10A00 		add	r0, sp, #10
 445:src/keytrans.c ****   // initial key (16 bytes)     6AC292FAA1315B4D 858AB3A3D7D5933A
 1926              		.loc 1 445 0
 1927 0010 8DF80930 		strb	r3, [sp, #9]
 444:src/keytrans.c ****   keycfg[1] = dhost_idx;
 1928              		.loc 1 444 0
 1929 0014 8DF80820 		strb	r2, [sp, #8]
 1930              		.loc 1 447 0
 1931 0018 FFF7FEFF 		bl	memcpy
 1932              	.LVL234:
 448:src/keytrans.c ****   // KSN (10 bytes)             FFFF9876543210E00000  
 449:src/keytrans.c ****   memcpy(&keycfg[18], "\xFF\xFF\x98\x76\x54\x32\x10\xE0\x00\x00", 10);
 1933              		.loc 1 449 0
 1934 001c 2C49     		ldr	r1, .L186+8
 1935 001e 0A22     		movs	r2, #10
 1936 0020 0DF11A00 		add	r0, sp, #26
 1937 0024 FFF7FEFF 		bl	memcpy
 1938              	.LVL235:
 1939              	.LBB30:
 450:src/keytrans.c ****   
 451:src/keytrans.c ****   DispLineMW("Loading IKey..", MW_LINE5, MW_CLRDISP|MW_CENTER|MW_BIGFONT);
 1940              		.loc 1 451 0
 1941 0028 9220     		movs	r0, #146
 1942 002a 0F21     		movs	r1, #15
 1943 002c FFF7FEFF 		bl	sys_func1
 1944              	.LVL236:
 1945 0030 0446     		mov	r4, r0
 1946 0032 98B1     		cbz	r0, .L176
 1947              		.loc 1 451 0 is_stmt 0 discriminator 1
 1948 0034 2749     		ldr	r1, .L186+12
 1949 0036 0E22     		movs	r2, #14
 1950 0038 FFF7FEFF 		bl	memcpy
 1951              	.LVL237:
 1952 003c 0023     		movs	r3, #0
 1953 003e 2521     		movs	r1, #37
 1954 0040 A373     		strb	r3, [r4, #14]
 1955 0042 41F28203 		movw	r3, #4226
 1956 0046 0F20     		movs	r0, #15
ARM GAS  C:\Users\AHMED~1.ELE\AppData\Local\Temp\ccfMkwD6.s 			page 44


 1957 0048 0093     		str	r3, [sp]
 1958 004a 2246     		mov	r2, r4
 1959 004c 4FF4A063 		mov	r3, #1280
 1960 0050 FFF7FEFF 		bl	lib_app_call
 1961              	.LVL238:
 1962 0054 9420     		movs	r0, #148
 1963 0056 2146     		mov	r1, r4
 1964 0058 FFF7FEFF 		bl	sys_func1
 1965              	.LVL239:
 1966              	.L176:
 1967              	.LBE30:
 452:src/keytrans.c ****   if (KDLL_DukptKeyInject(keycfg)) {
 1968              		.loc 1 452 0 is_stmt 1
 1969 005c 0025     		movs	r5, #0
 1970 005e 7F20     		movs	r0, #127
 1971 0060 0095     		str	r5, [sp]
 1972 0062 0C21     		movs	r1, #12
 1973 0064 02AA     		add	r2, sp, #8
 1974 0066 2B46     		mov	r3, r5
 1975 0068 FFF7FEFF 		bl	lib_app_call
 1976              	.LVL240:
 1977 006c 80B2     		uxth	r0, r0
 1978 006e 28B3     		cbz	r0, .L177
 1979              	.LVL241:
 1980              	.LBB31:
 453:src/keytrans.c ****     DispLineMW("DUKI Failed!", MW_LINE5, MW_CLRDISP|MW_CENTER|MW_BIGFONT);
 1981              		.loc 1 453 0
 1982 0070 9220     		movs	r0, #146
 1983 0072 0D21     		movs	r1, #13
 1984 0074 FFF7FEFF 		bl	sys_func1
 1985              	.LVL242:
 1986 0078 0446     		mov	r4, r0
 1987              	.LVL243:
 1988 007a 90B1     		cbz	r0, .L178
 1989              		.loc 1 453 0 is_stmt 0 discriminator 1
 1990 007c 1649     		ldr	r1, .L186+16
 1991 007e 0C22     		movs	r2, #12
 1992 0080 FFF7FEFF 		bl	memcpy
 1993              	.LVL244:
 1994 0084 41F28203 		movw	r3, #4226
 1995 0088 2573     		strb	r5, [r4, #12]
 1996 008a 2521     		movs	r1, #37
 1997 008c 0093     		str	r3, [sp]
 1998 008e 0F20     		movs	r0, #15
 1999 0090 2246     		mov	r2, r4
 2000 0092 4FF4A063 		mov	r3, #1280
 2001 0096 FFF7FEFF 		bl	lib_app_call
 2002              	.LVL245:
 2003 009a 9420     		movs	r0, #148
 2004 009c 2146     		mov	r1, r4
 2005 009e FFF7FEFF 		bl	sys_func1
 2006              	.LVL246:
 2007              	.L178:
 2008              	.LBE31:
 454:src/keytrans.c ****     LongBeep();
 455:src/keytrans.c ****     APM_WaitKey(9000, 0);
 2009              		.loc 1 455 0 is_stmt 1
ARM GAS  C:\Users\AHMED~1.ELE\AppData\Local\Temp\ccfMkwD6.s 			page 45


 2010 00a2 0024     		movs	r4, #0
 2011              	.LVL247:
 454:src/keytrans.c ****     LongBeep();
 2012              		.loc 1 454 0
 2013 00a4 FFF7FEFF 		bl	LongBeep
 2014              	.LVL248:
 2015              		.loc 1 455 0
 2016 00a8 1020     		movs	r0, #16
 2017 00aa 0094     		str	r4, [sp]
 2018 00ac 0321     		movs	r1, #3
 2019 00ae 42F22832 		movw	r2, #9000
 2020 00b2 2346     		mov	r3, r4
 2021 00b4 FFF7FEFF 		bl	lib_app_call
 2022              	.LVL249:
 456:src/keytrans.c ****     return FALSE;
 2023              		.loc 1 456 0
 2024 00b8 2046     		mov	r0, r4
 2025 00ba 02E0     		b	.L179
 2026              	.LVL250:
 2027              	.L177:
 457:src/keytrans.c ****   }
 458:src/keytrans.c ****   Short2Beep();
 2028              		.loc 1 458 0
 2029 00bc FFF7FEFF 		bl	Short2Beep
 2030              	.LVL251:
 459:src/keytrans.c ****   return TRUE;
 2031              		.loc 1 459 0
 2032 00c0 0120     		movs	r0, #1
 2033              	.LVL252:
 2034              	.L179:
 460:src/keytrans.c **** }
 2035              		.loc 1 460 0
 2036 00c2 0BB0     		add	sp, sp, #44
 2037              		.cfi_def_cfa_offset 12
 2038              		@ sp needed
 2039 00c4 30BD     		pop	{r4, r5, pc}
 2040              	.L187:
 2041 00c6 00BF     		.align	2
 2042              	.L186:
 2043 00c8 00000000 		.word	.LANCHOR0
 2044 00cc C4010000 		.word	.LC32
 2045 00d0 03000000 		.word	.LANCHOR1+3
 2046 00d4 D5010000 		.word	.LC34
 2047 00d8 E4010000 		.word	.LC35
 2048              		.cfi_endproc
 2049              	.LFE10:
 2050              		.size	LoadDukptIkey, .-LoadDukptIkey
 2051              		.section	.text.GetDukptPin,"ax",%progbits
 2052              		.align	1
 2053              		.global	GetDukptPin
 2054              		.thumb
 2055              		.thumb_func
 2056              		.type	GetDukptPin, %function
 2057              	GetDukptPin:
 2058              	.LFB11:
 461:src/keytrans.c **** /******************************************************************************
 462:src/keytrans.c ****  *  Function        : GetDukptPin
ARM GAS  C:\Users\AHMED~1.ELE\AppData\Local\Temp\ccfMkwD6.s 			page 46


 463:src/keytrans.c ****  *  Description     : Get DUKPT encrypted pin block
 464:src/keytrans.c ****  *  Input           : N/A
 465:src/keytrans.c ****  *  Return          : TRUE;           // key load ok
 466:src/keytrans.c ****  *                    FALSE;          // key load failed
 467:src/keytrans.c ****  *  Note            : N/A
 468:src/keytrans.c ****  *  Globals Changed : N/A
 469:src/keytrans.c ****  ******************************************************************************
 470:src/keytrans.c ****  */
 471:src/keytrans.c **** BOOLEAN GetDukptPin(void)
 472:src/keytrans.c **** {
 2059              		.loc 1 472 0
 2060              		.cfi_startproc
 2061              		@ args = 0, pretend = 0, frame = 96
 2062              		@ frame_needed = 0, uses_anonymous_args = 0
 2063 0000 10B5     		push	{r4, lr}
 2064              		.cfi_def_cfa_offset 8
 2065              		.cfi_offset 4, -8
 2066              		.cfi_offset 14, -4
 2067 0002 9AB0     		sub	sp, sp, #104
 2068              		.cfi_def_cfa_offset 112
 473:src/keytrans.c ****   const BYTE msg[]="\f\x11==== DUKPT =====\nENTER PIN:\x0";
 2069              		.loc 1 473 0
 2070 0004 3C49     		ldr	r1, .L195
 2071 0006 1F22     		movs	r2, #31
 2072 0008 02A8     		add	r0, sp, #8
 2073 000a FFF7FEFF 		bl	memcpy
 2074              	.LVL253:
 474:src/keytrans.c ****   BYTE pinblk[32];
 475:src/keytrans.c ****   BYTE buf[32];
 476:src/keytrans.c **** 
 477:src/keytrans.c ****   // format the PAN
 478:src/keytrans.c ****   memcpy(pinblk, "\x40\x12\x34\x56\x78\x90\x9F\xFF\xFF\xFF", 10); //X9.24
 2075              		.loc 1 478 0
 2076 000e 3B49     		ldr	r1, .L195+4
 2077 0010 0A22     		movs	r2, #10
 2078 0012 0AA8     		add	r0, sp, #40
 2079 0014 FFF7FEFF 		bl	memcpy
 2080              	.LVL254:
 479:src/keytrans.c ****   
 480:src/keytrans.c ****   if (KDLL_DukptGetPin(pinblk, msg, dhost_idx)) {
 2081              		.loc 1 480 0
 2082 0018 394B     		ldr	r3, .L195+8
 2083 001a 7F20     		movs	r0, #127
 2084 001c 9B78     		ldrb	r3, [r3, #2]	@ zero_extendqisi2
 2085 001e 0D21     		movs	r1, #13
 2086 0020 0093     		str	r3, [sp]
 2087 0022 0AAA     		add	r2, sp, #40
 2088 0024 02AB     		add	r3, sp, #8
 2089 0026 FFF7FEFF 		bl	lib_app_call
 2090              	.LVL255:
 2091 002a 84B2     		uxth	r4, r0
 2092 002c 34B3     		cbz	r4, .L189
 2093              	.LVL256:
 2094              	.LBB32:
 481:src/keytrans.c ****     DispLineMW("DGetPIN Failed!", MW_LINE5, MW_CLRDISP|MW_CENTER|MW_BIGFONT);
 2095              		.loc 1 481 0
 2096 002e 9220     		movs	r0, #146
ARM GAS  C:\Users\AHMED~1.ELE\AppData\Local\Temp\ccfMkwD6.s 			page 47


 2097 0030 1021     		movs	r1, #16
 2098 0032 FFF7FEFF 		bl	sys_func1
 2099              	.LVL257:
 2100 0036 0446     		mov	r4, r0
 2101 0038 98B1     		cbz	r0, .L190
 2102              		.loc 1 481 0 is_stmt 0 discriminator 1
 2103 003a 3249     		ldr	r1, .L195+12
 2104 003c 0F22     		movs	r2, #15
 2105 003e FFF7FEFF 		bl	memcpy
 2106              	.LVL258:
 2107 0042 0023     		movs	r3, #0
 2108 0044 2521     		movs	r1, #37
 2109 0046 E373     		strb	r3, [r4, #15]
 2110 0048 41F28203 		movw	r3, #4226
 2111 004c 0F20     		movs	r0, #15
 2112 004e 0093     		str	r3, [sp]
 2113 0050 2246     		mov	r2, r4
 2114 0052 4FF4A063 		mov	r3, #1280
 2115 0056 FFF7FEFF 		bl	lib_app_call
 2116              	.LVL259:
 2117 005a 9420     		movs	r0, #148
 2118 005c 2146     		mov	r1, r4
 2119 005e FFF7FEFF 		bl	sys_func1
 2120              	.LVL260:
 2121              	.L190:
 2122              	.LBE32:
 482:src/keytrans.c ****     LongBeep();
 483:src/keytrans.c ****     APM_WaitKey(9000, 0);
 2123              		.loc 1 483 0 is_stmt 1
 2124 0062 0024     		movs	r4, #0
 2125              	.LVL261:
 482:src/keytrans.c ****     LongBeep();
 2126              		.loc 1 482 0
 2127 0064 FFF7FEFF 		bl	LongBeep
 2128              	.LVL262:
 2129              		.loc 1 483 0
 2130 0068 1020     		movs	r0, #16
 2131 006a 0094     		str	r4, [sp]
 2132 006c 0321     		movs	r1, #3
 2133 006e 42F22832 		movw	r2, #9000
 2134 0072 2346     		mov	r3, r4
 2135 0074 FFF7FEFF 		bl	lib_app_call
 2136              	.LVL263:
 484:src/keytrans.c ****     return FALSE;
 2137              		.loc 1 484 0
 2138 0078 2046     		mov	r0, r4
 2139 007a 3AE0     		b	.L191
 2140              	.LVL264:
 2141              	.L189:
 485:src/keytrans.c ****   }
 486:src/keytrans.c ****   DispClrBelowMW(MW_LINE6);
 2142              		.loc 1 486 0
 2143 007c 2346     		mov	r3, r4
 2144 007e 2321     		movs	r1, #35
 2145 0080 4FF4C062 		mov	r2, #1536
 2146 0084 0094     		str	r4, [sp]
 2147 0086 0F20     		movs	r0, #15
ARM GAS  C:\Users\AHMED~1.ELE\AppData\Local\Temp\ccfMkwD6.s 			page 48


 2148 0088 FFF7FEFF 		bl	lib_app_call
 2149              	.LVL265:
 487:src/keytrans.c ****   split(buf, pinblk, 8);
 2150              		.loc 1 487 0
 2151 008c 12A8     		add	r0, sp, #72
 2152 008e 0AA9     		add	r1, sp, #40
 2153 0090 0822     		movs	r2, #8
 2154 0092 FFF7FEFF 		bl	split
 2155              	.LVL266:
 488:src/keytrans.c ****   DispGotoMW(MW_LINE7, MW_SPFONT);
 2156              		.loc 1 488 0
 2157 0096 4FF40053 		mov	r3, #8192
 2158 009a 2421     		movs	r1, #36
 2159 009c 4FF4E062 		mov	r2, #1792
 2160 00a0 0094     		str	r4, [sp]
 2161 00a2 0F20     		movs	r0, #15
 2162 00a4 FFF7FEFF 		bl	lib_app_call
 2163              	.LVL267:
 489:src/keytrans.c ****   DispPutNCMW(buf, 16);
 2164              		.loc 1 489 0
 2165 00a8 12A9     		add	r1, sp, #72
 2166 00aa 1022     		movs	r2, #16
 2167 00ac 1820     		movs	r0, #24
 2168 00ae FFF7FEFF 		bl	sys_func2
 2169              	.LVL268:
 490:src/keytrans.c ****   split(buf, &pinblk[8], 10);
 2170              		.loc 1 490 0
 2171 00b2 12A8     		add	r0, sp, #72
 2172 00b4 0CA9     		add	r1, sp, #48
 2173 00b6 0A22     		movs	r2, #10
 2174 00b8 FFF7FEFF 		bl	split
 2175              	.LVL269:
 491:src/keytrans.c ****   DispGotoMW(MW_LINE8, MW_SPFONT);
 2176              		.loc 1 491 0
 2177 00bc 4FF40053 		mov	r3, #8192
 2178 00c0 2421     		movs	r1, #36
 2179 00c2 4FF40062 		mov	r2, #2048
 2180 00c6 0094     		str	r4, [sp]
 2181 00c8 0F20     		movs	r0, #15
 2182 00ca FFF7FEFF 		bl	lib_app_call
 2183              	.LVL270:
 492:src/keytrans.c ****   DispPutNCMW(buf, 20);
 2184              		.loc 1 492 0
 2185 00ce 1422     		movs	r2, #20
 2186 00d0 12A9     		add	r1, sp, #72
 2187 00d2 1820     		movs	r0, #24
 2188 00d4 FFF7FEFF 		bl	sys_func2
 2189              	.LVL271:
 493:src/keytrans.c ****   DispCtrlMW(K_SelBigFont);
 2190              		.loc 1 493 0
 2191 00d8 1121     		movs	r1, #17
 2192 00da 1620     		movs	r0, #22
 2193 00dc FFF7FEFF 		bl	sys_func1
 2194              	.LVL272:
 494:src/keytrans.c ****   APM_WaitKey(9000, 0);
 2195              		.loc 1 494 0
 2196 00e0 0094     		str	r4, [sp]
ARM GAS  C:\Users\AHMED~1.ELE\AppData\Local\Temp\ccfMkwD6.s 			page 49


 2197 00e2 1020     		movs	r0, #16
 2198 00e4 0321     		movs	r1, #3
 2199 00e6 42F22832 		movw	r2, #9000
 2200 00ea 2346     		mov	r3, r4
 2201 00ec FFF7FEFF 		bl	lib_app_call
 2202              	.LVL273:
 495:src/keytrans.c ****   return TRUE;
 2203              		.loc 1 495 0
 2204 00f0 0120     		movs	r0, #1
 2205              	.L191:
 496:src/keytrans.c **** }
 2206              		.loc 1 496 0
 2207 00f2 1AB0     		add	sp, sp, #104
 2208              		.cfi_def_cfa_offset 8
 2209              		@ sp needed
 2210 00f4 10BD     		pop	{r4, pc}
 2211              	.L196:
 2212 00f6 00BF     		.align	2
 2213              	.L195:
 2214 00f8 0E000000 		.word	.LANCHOR1+14
 2215 00fc F1010000 		.word	.LC37
 2216 0100 00000000 		.word	.LANCHOR0
 2217 0104 FC010000 		.word	.LC38
 2218              		.cfi_endproc
 2219              	.LFE11:
 2220              		.size	GetDukptPin, .-GetDukptPin
 2221              		.section	.text.IccTmkInject,"ax",%progbits
 2222              		.align	1
 2223              		.global	IccTmkInject
 2224              		.thumb
 2225              		.thumb_func
 2226              		.type	IccTmkInject, %function
 2227              	IccTmkInject:
 2228              	.LFB12:
 497:src/keytrans.c **** /******************************************************************************
 498:src/keytrans.c ****  *  Function        : IccTmkInject
 499:src/keytrans.c ****  *  Description     : Get TMK from ICC
 500:src/keytrans.c ****  *  Input           : N/A
 501:src/keytrans.c ****  *  Return          : N/A           
 502:src/keytrans.c ****  *                    N/A         
 503:src/keytrans.c ****  *  Note            : N/A
 504:src/keytrans.c ****  *  Globals Changed : N/A
 505:src/keytrans.c ****  ******************************************************************************
 506:src/keytrans.c ****  */
 507:src/keytrans.c **** void IccTmkInject(void)
 508:src/keytrans.c **** {
 2229              		.loc 1 508 0
 2230              		.cfi_startproc
 2231              		@ args = 0, pretend = 0, frame = 0
 2232              		@ frame_needed = 0, uses_anonymous_args = 0
 2233              	.LVL274:
 2234 0000 13B5     		push	{r0, r1, r4, lr}
 2235              		.cfi_def_cfa_offset 16
 2236              		.cfi_offset 4, -8
 2237              		.cfi_offset 14, -4
 2238              	.LBB33:
 509:src/keytrans.c ****   BYTE key;
ARM GAS  C:\Users\AHMED~1.ELE\AppData\Local\Temp\ccfMkwD6.s 			page 50


 510:src/keytrans.c ****   
 511:src/keytrans.c ****   DispLineMW("ICC TMK INJECT:", MW_LINE1, MW_CLRDISP|MW_BIGFONT);
 2239              		.loc 1 511 0
 2240 0002 9220     		movs	r0, #146
 2241 0004 1021     		movs	r1, #16
 2242 0006 FFF7FEFF 		bl	sys_func1
 2243              	.LVL275:
 2244 000a 0446     		mov	r4, r0
 2245 000c 98B1     		cbz	r0, .L198
 2246              		.loc 1 511 0 is_stmt 0 discriminator 1
 2247 000e 3449     		ldr	r1, .L214
 2248 0010 0F22     		movs	r2, #15
 2249 0012 FFF7FEFF 		bl	memcpy
 2250              	.LVL276:
 2251 0016 0023     		movs	r3, #0
 2252 0018 2521     		movs	r1, #37
 2253 001a E373     		strb	r3, [r4, #15]
 2254 001c 4FF48453 		mov	r3, #4224
 2255 0020 0F20     		movs	r0, #15
 2256 0022 0093     		str	r3, [sp]
 2257 0024 2246     		mov	r2, r4
 2258 0026 4FF48073 		mov	r3, #256
 2259 002a FFF7FEFF 		bl	lib_app_call
 2260              	.LVL277:
 2261 002e 9420     		movs	r0, #148
 2262 0030 2146     		mov	r1, r4
 2263 0032 FFF7FEFF 		bl	sys_func1
 2264              	.LVL278:
 2265              	.L198:
 2266              	.LBE33:
 2267              	.LBB34:
 512:src/keytrans.c ****   DispLineMW("[ENTER] - Normal", MW_LINE3, MW_BIGFONT);
 2268              		.loc 1 512 0 is_stmt 1
 2269 0036 9220     		movs	r0, #146
 2270 0038 1121     		movs	r1, #17
 2271 003a FFF7FEFF 		bl	sys_func1
 2272              	.LVL279:
 2273 003e 0446     		mov	r4, r0
 2274              	.LVL280:
 2275 0040 98B1     		cbz	r0, .L199
 2276              		.loc 1 512 0 is_stmt 0 discriminator 1
 2277 0042 2849     		ldr	r1, .L214+4
 2278 0044 1022     		movs	r2, #16
 2279 0046 FFF7FEFF 		bl	memcpy
 2280              	.LVL281:
 2281 004a 0023     		movs	r3, #0
 2282 004c 2521     		movs	r1, #37
 2283 004e 2374     		strb	r3, [r4, #16]
 2284 0050 4FF48053 		mov	r3, #4096
 2285 0054 0F20     		movs	r0, #15
 2286 0056 0093     		str	r3, [sp]
 2287 0058 2246     		mov	r2, r4
 2288 005a 4FF44073 		mov	r3, #768
 2289 005e FFF7FEFF 		bl	lib_app_call
 2290              	.LVL282:
 2291 0062 9420     		movs	r0, #148
 2292 0064 2146     		mov	r1, r4
ARM GAS  C:\Users\AHMED~1.ELE\AppData\Local\Temp\ccfMkwD6.s 			page 51


 2293 0066 FFF7FEFF 		bl	sys_func1
 2294              	.LVL283:
 2295              	.L199:
 2296              	.LBE34:
 2297              	.LBB35:
 513:src/keytrans.c ****   DispLineMW("[CLEAR] - DUKPT", MW_LINE5, MW_BIGFONT);
 2298              		.loc 1 513 0 is_stmt 1
 2299 006a 9220     		movs	r0, #146
 2300 006c 1021     		movs	r1, #16
 2301 006e FFF7FEFF 		bl	sys_func1
 2302              	.LVL284:
 2303 0072 0446     		mov	r4, r0
 2304              	.LVL285:
 2305 0074 98B1     		cbz	r0, .L200
 2306              		.loc 1 513 0 is_stmt 0 discriminator 1
 2307 0076 1C49     		ldr	r1, .L214+8
 2308 0078 0F22     		movs	r2, #15
 2309 007a FFF7FEFF 		bl	memcpy
 2310              	.LVL286:
 2311 007e 0023     		movs	r3, #0
 2312 0080 2521     		movs	r1, #37
 2313 0082 E373     		strb	r3, [r4, #15]
 2314 0084 4FF48053 		mov	r3, #4096
 2315 0088 0F20     		movs	r0, #15
 2316 008a 0093     		str	r3, [sp]
 2317 008c 2246     		mov	r2, r4
 2318 008e 4FF4A063 		mov	r3, #1280
 2319 0092 FFF7FEFF 		bl	lib_app_call
 2320              	.LVL287:
 2321 0096 9420     		movs	r0, #148
 2322 0098 2146     		mov	r1, r4
 2323 009a FFF7FEFF 		bl	sys_func1
 2324              	.LVL288:
 2325              	.L200:
 2326              	.LBE35:
 514:src/keytrans.c ****   switch (key=APM_WaitKey(9000, 0)) {
 2327              		.loc 1 514 0 is_stmt 1
 2328 009e 0024     		movs	r4, #0
 2329              	.LVL289:
 2330 00a0 1020     		movs	r0, #16
 2331 00a2 0094     		str	r4, [sp]
 2332 00a4 0321     		movs	r1, #3
 2333 00a6 42F22832 		movw	r2, #9000
 2334 00aa 2346     		mov	r3, r4
 2335 00ac FFF7FEFF 		bl	lib_app_call
 2336              	.LVL290:
 2337 00b0 C0B2     		uxtb	r0, r0
 2338 00b2 1028     		cmp	r0, #16
 2339 00b4 07D0     		beq	.L202
 2340 00b6 1228     		cmp	r0, #18
 2341 00b8 0CD1     		bne	.L201
 515:src/keytrans.c ****     case MWKEY_ENTER:
 516:src/keytrans.c ****       KDLL_IccMKeyInject(MKEY_IDX, 0);    // Terminal Master Key
 517:src/keytrans.c ****       break;
 518:src/keytrans.c ****     case MWKEY_CLR:
 519:src/keytrans.c ****       KDLL_IccMKeyInject(MKEY_IDX, 1);    // DUKPT Initial Key
 2342              		.loc 1 519 0
ARM GAS  C:\Users\AHMED~1.ELE\AppData\Local\Temp\ccfMkwD6.s 			page 52


 2343 00ba 0094     		str	r4, [sp]
 2344 00bc 7F20     		movs	r0, #127
 2345              	.LVL291:
 2346 00be 0F21     		movs	r1, #15
 2347 00c0 2246     		mov	r2, r4
 2348 00c2 0123     		movs	r3, #1
 2349 00c4 04E0     		b	.L213
 2350              	.LVL292:
 2351              	.L202:
 516:src/keytrans.c ****       break;
 2352              		.loc 1 516 0
 2353 00c6 7F20     		movs	r0, #127
 2354              	.LVL293:
 2355 00c8 0F21     		movs	r1, #15
 2356 00ca 2246     		mov	r2, r4
 2357 00cc 2346     		mov	r3, r4
 2358 00ce 0094     		str	r4, [sp]
 2359              	.L213:
 2360              		.loc 1 519 0
 2361 00d0 FFF7FEFF 		bl	lib_app_call
 2362              	.LVL294:
 2363              	.L201:
 520:src/keytrans.c ****       break;
 521:src/keytrans.c ****     default:
 522:src/keytrans.c ****       break;
 523:src/keytrans.c ****   }
 524:src/keytrans.c ****   WaitICCRemove();
 525:src/keytrans.c **** }
 2364              		.loc 1 525 0
 2365 00d4 02B0     		add	sp, sp, #8
 2366              		.cfi_def_cfa_offset 8
 2367              		@ sp needed
 2368 00d6 BDE81040 		pop	{r4, lr}
 2369              		.cfi_restore 14
 2370              		.cfi_restore 4
 2371              		.cfi_def_cfa_offset 0
 524:src/keytrans.c **** }
 2372              		.loc 1 524 0
 2373 00da FFF7FEBF 		b	WaitICCRemove
 2374              	.LVL295:
 2375              	.L215:
 2376 00de 00BF     		.align	2
 2377              	.L214:
 2378 00e0 0C020000 		.word	.LC39
 2379 00e4 1C020000 		.word	.LC40
 2380 00e8 2D020000 		.word	.LC41
 2381              		.cfi_endproc
 2382              	.LFE12:
 2383              		.size	IccTmkInject, .-IccTmkInject
 2384              		.section	.rodata
 2385              		.set	.LANCHOR1,. + 0
 2386              	.LC6:
 2387 0000 FF0000   		.ascii	"\377\000\000"
 2388              	.LC33:
 2389 0003 FFFF9876 		.ascii	"\377\377\230vT2\020\340\000\000\000"
 2389      543210E0 
 2389      000000
ARM GAS  C:\Users\AHMED~1.ELE\AppData\Local\Temp\ccfMkwD6.s 			page 53


 2390              	.LC36:
 2391 000e 0C113D3D 		.ascii	"\014\021==== DUKPT =====\012ENTER PIN:\000\000"
 2391      3D3D2044 
 2391      554B5054 
 2391      203D3D3D 
 2391      3D3D0A45 
 2392              		.section	.rodata.str1.1,"aMS",%progbits,1
 2393              	.LC0:
 2394 0000 52657365 		.ascii	"Resetting Keys..\000"
 2394      7474696E 
 2394      67204B65 
 2394      79732E2E 
 2394      00
 2395              	.LC2:
 2396 0011 43686F6F 		.ascii	"Choose TMK Key Length:\000"
 2396      73652054 
 2396      4D4B204B 
 2396      6579204C 
 2396      656E6774 
 2397              	.LC3:
 2398 0028 312E5349 		.ascii	"1.SINGLE\000"
 2398      4E474C45 
 2398      00
 2399              	.LC4:
 2400 0031 322E444F 		.ascii	"2.DOUBLE\000"
 2400      55424C45 
 2400      00
 2401              	.LC5:
 2402 003a 332E5452 		.ascii	"3.TRIPLE\000"
 2402      49504C45 
 2402      00
 2403              	.LC7:
 2404 0043 544D4B49 		.ascii	"TMKI Failed!\000"
 2404      20466169 
 2404      6C656421 
 2404      00
 2405              	.LC8:
 2406 0050 52657420 		.ascii	"Ret = %d\000"
 2406      3D202564 
 2406      00
 2407              	.LC9:
 2408 0059 544D4B49 		.ascii	"TMKI OK\000"
 2408      204F4B00 
 2409              	.LC1:
 2410 0061 01234567 		.ascii	"\001#Eg\211\253\315\357\376\334\272\230vT2\020\021\""
 2410      89ABCDEF 
 2410      FEDCBA98 
 2410      76543210 
 2410      1122
 2411 0073 33445566 		.ascii	"3DUfw\210\000"
 2411      778800
 2412              	.LC16:
 2413 007a 496E6A65 		.ascii	"Inject Failed!\000"
 2413      63742046 
 2413      61696C65 
 2413      642100
 2414              	.LC17:
ARM GAS  C:\Users\AHMED~1.ELE\AppData\Local\Temp\ccfMkwD6.s 			page 54


 2415 0089 496E6A65 		.ascii	"Inject EKEY OK\000"
 2415      63742045 
 2415      4B455920 
 2415      4F4B00
 2416              	.LC18:
 2417 0098 496E6A65 		.ascii	"Inject DKEY OK\000"
 2417      63742044 
 2417      4B455920 
 2417      4F4B00
 2418              	.LC10:
 2419 00a7 96C6168A 		.ascii	"\226\306\026\212.\237\025\353\000"
 2419      2E9F15EB 
 2419      00
 2420              	.LC11:
 2421 00b0 26A7D119 		.ascii	"&\247\321\031=\001\024\366FRW<\"\3305\342\000"
 2421      3D0114F6 
 2421      4652573C 
 2421      22D835E2 
 2421      00
 2422              	.LC12:
 2423 00c1 A6A4D16B 		.ascii	"\246\244\321k\256\346\212\214e\025D\357\271cO\235\266"
 2423      AEE68A8C 
 2423      651544EF 
 2423      B9634F9D 
 2423      B6
 2424 00d2 BFBCE461 		.ascii	"\277\274\344a\361\335\366\000"
 2424      F1DDF600 
 2425              	.LC13:
 2426 00da 2422EA54 		.ascii	"$\"\352T\032\212\0365\000"
 2426      1A8A1E35 
 2426      00
 2427              	.LC14:
 2428 00e3 9C159E60 		.ascii	"\234\025\236`\304O\215o1\2476L\254\221\3129\000"
 2428      C44F8D6F 
 2428      31A7364C 
 2428      AC91CA39 
 2428      00
 2429              	.LC15:
 2430 00f4 73362DC6 		.ascii	"s6-\306y\321\241<\017\026\336\246\324N4\311j\377\267"
 2430      79D1A13C 
 2430      0F16DEA6 
 2430      D44E34C9 
 2430      6AFFB7
 2431 0107 AC9B82EE 		.ascii	"\254\233\202\356v\000"
 2431      7600
 2432              	.LC20:
 2433 010d 456E6320 		.ascii	"Enc Err: %d\000"
 2433      4572723A 
 2433      20256400 
 2434              	.LC21:
 2435 0119 456E6372 		.ascii	"Encrypted:\000"
 2435      79707465 
 2435      643A00
 2436              	.LC19:
 2437 0124 31323334 		.ascii	"12345678ABCDEFGHstuvwxyz\000"
 2437      35363738 
 2437      41424344 
ARM GAS  C:\Users\AHMED~1.ELE\AppData\Local\Temp\ccfMkwD6.s 			page 55


 2437      45464748 
 2437      73747576 
 2438              	.LC22:
 2439 013d 44656320 		.ascii	"Dec Err: %d\000"
 2439      4572723A 
 2439      20256400 
 2440              	.LC23:
 2441 0149 44656372 		.ascii	"Decrypted:\000"
 2441      79707465 
 2441      643A00
 2442              	.LC24:
 2443 0154 454E432F 		.ascii	"ENC/DEC Mode:\000"
 2443      44454320 
 2443      4D6F6465 
 2443      3A00
 2444              	.LC25:
 2445 0162 5B454E54 		.ascii	"[ENTER] - ECB\000"
 2445      45525D20 
 2445      2D204543 
 2445      4200
 2446              	.LC26:
 2447 0170 5B434C45 		.ascii	"[CLEAR] - CBC\000"
 2447      41525D20 
 2447      2D204342 
 2447      4300
 2448              	.LC27:
 2449 017e 496E6974 		.ascii	"Init Vector:\000"
 2449      20566563 
 2449      746F723A 
 2449      00
 2450              	.LC29:
 2451 018b 4E4F2050 		.ascii	"NO PIN KEY\000"
 2451      494E204B 
 2451      455900
 2452              	.LC28:
 2453 0196 0C110A45 		.ascii	"\014\021\012ENTER PIN\000"
 2453      4E544552 
 2453      2050494E 
 2453      00
 2454              	.LC30:
 2455 01a3 44486F73 		.ascii	"DHost Idx(0-4):\000"
 2455      74204964 
 2455      7828302D 
 2455      34293A00 
 2456              	.LC31:
 2457 01b3 44554B49 		.ascii	"DUKI Rst Failed!\000"
 2457      20527374 
 2457      20466169 
 2457      6C656421 
 2457      00
 2458              	.LC32:
 2459 01c4 6AC292FA 		.ascii	"j\302\222\372\2411[M\205\212\263\243\327\325\223:\000"
 2459      A1315B4D 
 2459      858AB3A3 
 2459      D7D5933A 
 2459      00
 2460              	.LC34:
ARM GAS  C:\Users\AHMED~1.ELE\AppData\Local\Temp\ccfMkwD6.s 			page 56


 2461 01d5 4C6F6164 		.ascii	"Loading IKey..\000"
 2461      696E6720 
 2461      494B6579 
 2461      2E2E00
 2462              	.LC35:
 2463 01e4 44554B49 		.ascii	"DUKI Failed!\000"
 2463      20466169 
 2463      6C656421 
 2463      00
 2464              	.LC37:
 2465 01f1 40123456 		.ascii	"@\0224Vx\220\237\377\377\377\000"
 2465      78909FFF 
 2465      FFFF00
 2466              	.LC38:
 2467 01fc 44476574 		.ascii	"DGetPIN Failed!\000"
 2467      50494E20 
 2467      4661696C 
 2467      65642100 
 2468              	.LC39:
 2469 020c 49434320 		.ascii	"ICC TMK INJECT:\000"
 2469      544D4B20 
 2469      494E4A45 
 2469      43543A00 
 2470              	.LC40:
 2471 021c 5B454E54 		.ascii	"[ENTER] - Normal\000"
 2471      45525D20 
 2471      2D204E6F 
 2471      726D616C 
 2471      00
 2472              	.LC41:
 2473 022d 5B434C45 		.ascii	"[CLEAR] - DUKPT\000"
 2473      41525D20 
 2473      2D204455 
 2473      4B505400 
 2474              		.bss
 2475              		.set	.LANCHOR0,. + 0
 2476              		.type	keylen, %object
 2477              		.size	keylen, 1
 2478              	keylen:
 2479 0000 00       		.space	1
 2480              		.type	keysize, %object
 2481              		.size	keysize, 1
 2482              	keysize:
 2483 0001 00       		.space	1
 2484              		.type	dhost_idx, %object
 2485              		.size	dhost_idx, 1
 2486              	dhost_idx:
 2487 0002 00       		.space	1
 2488              		.text
 2489              	.Letext0:
 2490              		.file 2 "c:\\devtools\\gcc_v49_2014q4\\lib\\gcc\\arm-none-eabi\\4.9.3\\include\\stddef.h"
 2491              		.file 3 "../LibA5T1000/common.h"
 2492              		.file 4 "src/constant.h"
 2493              		.file 5 "../LibA5T1000/system.h"
 2494              		.file 6 "../LibA5T1000/midware.h"
 2495              		.file 7 "../LibA5T1000/apm.h"
 2496              		.file 8 "src/sysutil.h"
ARM GAS  C:\Users\AHMED~1.ELE\AppData\Local\Temp\ccfMkwD6.s 			page 57


 2497              		.file 9 "src/corevar.h"
 2498              		.file 10 "src/tranutil.h"
 2499              		.file 11 "../LibA5T1000/key2dll.h"
 2500              		.file 12 "c:\\devtools\\gcc_v49_2014q4\\arm-none-eabi\\include\\string.h"
 2501              		.file 13 "c:\\devtools\\gcc_v49_2014q4\\arm-none-eabi\\include\\stdio.h"
 2502              		.file 14 "../LibA5T1000/util.h"
 2503              		.file 15 "src/hardware.h"
 2504              		.section	.debug_info,"",%progbits
 2505              	.Ldebug_info0:
 2506 0000 F43C0000 		.4byte	0x3cf4
 2507 0004 0400     		.2byte	0x4
 2508 0006 00000000 		.4byte	.Ldebug_abbrev0
 2509 000a 04       		.byte	0x4
 2510 000b 01       		.uleb128 0x1
 2511 000c 63150000 		.4byte	.LASF767
 2512 0010 01       		.byte	0x1
 2513 0011 EF190000 		.4byte	.LASF768
 2514 0015 29060000 		.4byte	.LASF769
 2515 0019 40000000 		.4byte	.Ldebug_ranges0+0x40
 2516 001d 00000000 		.4byte	0
 2517 0021 00000000 		.4byte	.Ldebug_line0
 2518 0025 02       		.uleb128 0x2
 2519 0026 04       		.byte	0x4
 2520 0027 05       		.byte	0x5
 2521 0028 696E7400 		.ascii	"int\000"
 2522 002c 03       		.uleb128 0x3
 2523 002d A8000000 		.4byte	.LASF11
 2524 0031 02       		.byte	0x2
 2525 0032 D4       		.byte	0xd4
 2526 0033 37000000 		.4byte	0x37
 2527 0037 04       		.uleb128 0x4
 2528 0038 04       		.byte	0x4
 2529 0039 07       		.byte	0x7
 2530 003a 951B0000 		.4byte	.LASF0
 2531 003e 04       		.uleb128 0x4
 2532 003f 01       		.byte	0x1
 2533 0040 06       		.byte	0x6
 2534 0041 482B0000 		.4byte	.LASF1
 2535 0045 04       		.uleb128 0x4
 2536 0046 01       		.byte	0x1
 2537 0047 08       		.byte	0x8
 2538 0048 9B1E0000 		.4byte	.LASF2
 2539 004c 04       		.uleb128 0x4
 2540 004d 02       		.byte	0x2
 2541 004e 05       		.byte	0x5
 2542 004f 97280000 		.4byte	.LASF3
 2543 0053 04       		.uleb128 0x4
 2544 0054 02       		.byte	0x2
 2545 0055 07       		.byte	0x7
 2546 0056 5D2E0000 		.4byte	.LASF4
 2547 005a 04       		.uleb128 0x4
 2548 005b 04       		.byte	0x4
 2549 005c 05       		.byte	0x5
 2550 005d F2070000 		.4byte	.LASF5
 2551 0061 04       		.uleb128 0x4
 2552 0062 04       		.byte	0x4
 2553 0063 07       		.byte	0x7
ARM GAS  C:\Users\AHMED~1.ELE\AppData\Local\Temp\ccfMkwD6.s 			page 58


 2554 0064 92140000 		.4byte	.LASF6
 2555 0068 04       		.uleb128 0x4
 2556 0069 08       		.byte	0x8
 2557 006a 05       		.byte	0x5
 2558 006b C1180000 		.4byte	.LASF7
 2559 006f 04       		.uleb128 0x4
 2560 0070 08       		.byte	0x8
 2561 0071 07       		.byte	0x7
 2562 0072 58220000 		.4byte	.LASF8
 2563 0076 04       		.uleb128 0x4
 2564 0077 04       		.byte	0x4
 2565 0078 07       		.byte	0x7
 2566 0079 BF000000 		.4byte	.LASF9
 2567 007d 05       		.uleb128 0x5
 2568 007e 04       		.byte	0x4
 2569 007f 06       		.uleb128 0x6
 2570 0080 04       		.byte	0x4
 2571 0081 85000000 		.4byte	0x85
 2572 0085 04       		.uleb128 0x4
 2573 0086 01       		.byte	0x1
 2574 0087 06       		.byte	0x6
 2575 0088 2F000000 		.4byte	.LASF10
 2576 008c 06       		.uleb128 0x6
 2577 008d 04       		.byte	0x4
 2578 008e 92000000 		.4byte	0x92
 2579 0092 07       		.uleb128 0x7
 2580 0093 85000000 		.4byte	0x85
 2581 0097 03       		.uleb128 0x3
 2582 0098 0D0F0000 		.4byte	.LASF12
 2583 009c 03       		.byte	0x3
 2584 009d 0D       		.byte	0xd
 2585 009e 45000000 		.4byte	0x45
 2586 00a2 03       		.uleb128 0x3
 2587 00a3 9C060000 		.4byte	.LASF13
 2588 00a7 03       		.byte	0x3
 2589 00a8 0E       		.byte	0xe
 2590 00a9 45000000 		.4byte	0x45
 2591 00ad 03       		.uleb128 0x3
 2592 00ae 481E0000 		.4byte	.LASF14
 2593 00b2 03       		.byte	0x3
 2594 00b3 0F       		.byte	0xf
 2595 00b4 53000000 		.4byte	0x53
 2596 00b8 03       		.uleb128 0x3
 2597 00b9 AB2D0000 		.4byte	.LASF15
 2598 00bd 03       		.byte	0x3
 2599 00be 10       		.byte	0x10
 2600 00bf 37000000 		.4byte	0x37
 2601 00c3 03       		.uleb128 0x3
 2602 00c4 04130000 		.4byte	.LASF16
 2603 00c8 03       		.byte	0x3
 2604 00c9 11       		.byte	0x11
 2605 00ca 6F000000 		.4byte	0x6f
 2606 00ce 08       		.uleb128 0x8
 2607 00cf A2000000 		.4byte	0xa2
 2608 00d3 DE000000 		.4byte	0xde
 2609 00d7 09       		.uleb128 0x9
 2610 00d8 76000000 		.4byte	0x76
ARM GAS  C:\Users\AHMED~1.ELE\AppData\Local\Temp\ccfMkwD6.s 			page 59


 2611 00dc 01       		.byte	0x1
 2612 00dd 00       		.byte	0
 2613 00de 06       		.uleb128 0x6
 2614 00df 04       		.byte	0x4
 2615 00e0 A2000000 		.4byte	0xa2
 2616 00e4 08       		.uleb128 0x8
 2617 00e5 A2000000 		.4byte	0xa2
 2618 00e9 F4000000 		.4byte	0xf4
 2619 00ed 09       		.uleb128 0x9
 2620 00ee 76000000 		.4byte	0x76
 2621 00f2 03       		.byte	0x3
 2622 00f3 00       		.byte	0
 2623 00f4 0A       		.uleb128 0xa
 2624 00f5 01       		.byte	0x1
 2625 00f6 04       		.byte	0x4
 2626 00f7 33       		.byte	0x33
 2627 00f8 A0010000 		.4byte	0x1a0
 2628 00fc 0B       		.uleb128 0xb
 2629 00fd 921F0000 		.4byte	.LASF17
 2630 0101 00       		.sleb128 0
 2631 0102 0B       		.uleb128 0xb
 2632 0103 652F0000 		.4byte	.LASF18
 2633 0107 01       		.sleb128 1
 2634 0108 0B       		.uleb128 0xb
 2635 0109 3F0C0000 		.4byte	.LASF19
 2636 010d 02       		.sleb128 2
 2637 010e 0B       		.uleb128 0xb
 2638 010f 95260000 		.4byte	.LASF20
 2639 0113 03       		.sleb128 3
 2640 0114 0B       		.uleb128 0xb
 2641 0115 DC2B0000 		.4byte	.LASF21
 2642 0119 04       		.sleb128 4
 2643 011a 0B       		.uleb128 0xb
 2644 011b BB110000 		.4byte	.LASF22
 2645 011f 05       		.sleb128 5
 2646 0120 0B       		.uleb128 0xb
 2647 0121 A62F0000 		.4byte	.LASF23
 2648 0125 06       		.sleb128 6
 2649 0126 0B       		.uleb128 0xb
 2650 0127 221D0000 		.4byte	.LASF24
 2651 012b 07       		.sleb128 7
 2652 012c 0B       		.uleb128 0xb
 2653 012d 66280000 		.4byte	.LASF25
 2654 0131 08       		.sleb128 8
 2655 0132 0B       		.uleb128 0xb
 2656 0133 260B0000 		.4byte	.LASF26
 2657 0137 09       		.sleb128 9
 2658 0138 0B       		.uleb128 0xb
 2659 0139 4E2A0000 		.4byte	.LASF27
 2660 013d 0A       		.sleb128 10
 2661 013e 0B       		.uleb128 0xb
 2662 013f 042D0000 		.4byte	.LASF28
 2663 0143 0B       		.sleb128 11
 2664 0144 0B       		.uleb128 0xb
 2665 0145 890B0000 		.4byte	.LASF29
 2666 0149 0C       		.sleb128 12
 2667 014a 0B       		.uleb128 0xb
ARM GAS  C:\Users\AHMED~1.ELE\AppData\Local\Temp\ccfMkwD6.s 			page 60


 2668 014b EB240000 		.4byte	.LASF30
 2669 014f 0D       		.sleb128 13
 2670 0150 0B       		.uleb128 0xb
 2671 0151 E61D0000 		.4byte	.LASF31
 2672 0155 0E       		.sleb128 14
 2673 0156 0B       		.uleb128 0xb
 2674 0157 C5230000 		.4byte	.LASF32
 2675 015b 0F       		.sleb128 15
 2676 015c 0B       		.uleb128 0xb
 2677 015d 36120000 		.4byte	.LASF33
 2678 0161 10       		.sleb128 16
 2679 0162 0B       		.uleb128 0xb
 2680 0163 51190000 		.4byte	.LASF34
 2681 0167 11       		.sleb128 17
 2682 0168 0B       		.uleb128 0xb
 2683 0169 4F030000 		.4byte	.LASF35
 2684 016d 12       		.sleb128 18
 2685 016e 0B       		.uleb128 0xb
 2686 016f F9250000 		.4byte	.LASF36
 2687 0173 13       		.sleb128 19
 2688 0174 0B       		.uleb128 0xb
 2689 0175 A3030000 		.4byte	.LASF37
 2690 0179 14       		.sleb128 20
 2691 017a 0B       		.uleb128 0xb
 2692 017b EE230000 		.4byte	.LASF38
 2693 017f 15       		.sleb128 21
 2694 0180 0B       		.uleb128 0xb
 2695 0181 D20A0000 		.4byte	.LASF39
 2696 0185 16       		.sleb128 22
 2697 0186 0B       		.uleb128 0xb
 2698 0187 022A0000 		.4byte	.LASF40
 2699 018b 17       		.sleb128 23
 2700 018c 0B       		.uleb128 0xb
 2701 018d F62D0000 		.4byte	.LASF41
 2702 0191 18       		.sleb128 24
 2703 0192 0B       		.uleb128 0xb
 2704 0193 A1260000 		.4byte	.LASF42
 2705 0197 19       		.sleb128 25
 2706 0198 0B       		.uleb128 0xb
 2707 0199 B2020000 		.4byte	.LASF43
 2708 019d FF01     		.sleb128 255
 2709 019f 00       		.byte	0
 2710 01a0 08       		.uleb128 0x8
 2711 01a1 A2000000 		.4byte	0xa2
 2712 01a5 B0010000 		.4byte	0x1b0
 2713 01a9 09       		.uleb128 0x9
 2714 01aa 76000000 		.4byte	0x76
 2715 01ae 0F       		.byte	0xf
 2716 01af 00       		.byte	0
 2717 01b0 08       		.uleb128 0x8
 2718 01b1 A2000000 		.4byte	0xa2
 2719 01b5 C0010000 		.4byte	0x1c0
 2720 01b9 09       		.uleb128 0x9
 2721 01ba 76000000 		.4byte	0x76
 2722 01be 04       		.byte	0x4
 2723 01bf 00       		.byte	0
 2724 01c0 08       		.uleb128 0x8
ARM GAS  C:\Users\AHMED~1.ELE\AppData\Local\Temp\ccfMkwD6.s 			page 61


 2725 01c1 A2000000 		.4byte	0xa2
 2726 01c5 D0010000 		.4byte	0x1d0
 2727 01c9 09       		.uleb128 0x9
 2728 01ca 76000000 		.4byte	0x76
 2729 01ce 02       		.byte	0x2
 2730 01cf 00       		.byte	0
 2731 01d0 08       		.uleb128 0x8
 2732 01d1 A2000000 		.4byte	0xa2
 2733 01d5 E0010000 		.4byte	0x1e0
 2734 01d9 09       		.uleb128 0x9
 2735 01da 76000000 		.4byte	0x76
 2736 01de 7F       		.byte	0x7f
 2737 01df 00       		.byte	0
 2738 01e0 08       		.uleb128 0x8
 2739 01e1 A2000000 		.4byte	0xa2
 2740 01e5 F0010000 		.4byte	0x1f0
 2741 01e9 09       		.uleb128 0x9
 2742 01ea 76000000 		.4byte	0x76
 2743 01ee 09       		.byte	0x9
 2744 01ef 00       		.byte	0
 2745 01f0 08       		.uleb128 0x8
 2746 01f1 A2000000 		.4byte	0xa2
 2747 01f5 00020000 		.4byte	0x200
 2748 01f9 09       		.uleb128 0x9
 2749 01fa 76000000 		.4byte	0x76
 2750 01fe 1F       		.byte	0x1f
 2751 01ff 00       		.byte	0
 2752 0200 08       		.uleb128 0x8
 2753 0201 A2000000 		.4byte	0xa2
 2754 0205 10020000 		.4byte	0x210
 2755 0209 09       		.uleb128 0x9
 2756 020a 76000000 		.4byte	0x76
 2757 020e 07       		.byte	0x7
 2758 020f 00       		.byte	0
 2759 0210 08       		.uleb128 0x8
 2760 0211 A2000000 		.4byte	0xa2
 2761 0215 20020000 		.4byte	0x220
 2762 0219 09       		.uleb128 0x9
 2763 021a 76000000 		.4byte	0x76
 2764 021e 0C       		.byte	0xc
 2765 021f 00       		.byte	0
 2766 0220 08       		.uleb128 0x8
 2767 0221 A2000000 		.4byte	0xa2
 2768 0225 30020000 		.4byte	0x230
 2769 0229 09       		.uleb128 0x9
 2770 022a 76000000 		.4byte	0x76
 2771 022e 27       		.byte	0x27
 2772 022f 00       		.byte	0
 2773 0230 0C       		.uleb128 0xc
 2774 0231 CB120000 		.4byte	.LASF770
 2775 0235 02       		.byte	0x2
 2776 0236 05       		.byte	0x5
 2777 0237 9A04     		.2byte	0x49a
 2778 0239 ED0E0000 		.4byte	0xeed
 2779 023d 0B       		.uleb128 0xb
 2780 023e 3D300000 		.4byte	.LASF44
 2781 0242 00       		.sleb128 0
ARM GAS  C:\Users\AHMED~1.ELE\AppData\Local\Temp\ccfMkwD6.s 			page 62


 2782 0243 0B       		.uleb128 0xb
 2783 0244 F3140000 		.4byte	.LASF45
 2784 0248 01       		.sleb128 1
 2785 0249 0B       		.uleb128 0xb
 2786 024a 5B180000 		.4byte	.LASF46
 2787 024e 02       		.sleb128 2
 2788 024f 0B       		.uleb128 0xb
 2789 0250 CB0B0000 		.4byte	.LASF47
 2790 0254 03       		.sleb128 3
 2791 0255 0B       		.uleb128 0xb
 2792 0256 790B0000 		.4byte	.LASF48
 2793 025a 04       		.sleb128 4
 2794 025b 0B       		.uleb128 0xb
 2795 025c 34000000 		.4byte	.LASF49
 2796 0260 05       		.sleb128 5
 2797 0261 0B       		.uleb128 0xb
 2798 0262 850E0000 		.4byte	.LASF50
 2799 0266 06       		.sleb128 6
 2800 0267 0B       		.uleb128 0xb
 2801 0268 C0210000 		.4byte	.LASF51
 2802 026c 07       		.sleb128 7
 2803 026d 0B       		.uleb128 0xb
 2804 026e B7160000 		.4byte	.LASF52
 2805 0272 08       		.sleb128 8
 2806 0273 0B       		.uleb128 0xb
 2807 0274 FC220000 		.4byte	.LASF53
 2808 0278 09       		.sleb128 9
 2809 0279 0B       		.uleb128 0xb
 2810 027a 262D0000 		.4byte	.LASF54
 2811 027e 0A       		.sleb128 10
 2812 027f 0B       		.uleb128 0xb
 2813 0280 F6240000 		.4byte	.LASF55
 2814 0284 0B       		.sleb128 11
 2815 0285 0B       		.uleb128 0xb
 2816 0286 3F030000 		.4byte	.LASF56
 2817 028a 0C       		.sleb128 12
 2818 028b 0B       		.uleb128 0xb
 2819 028c AA1F0000 		.4byte	.LASF57
 2820 0290 0D       		.sleb128 13
 2821 0291 0B       		.uleb128 0xb
 2822 0292 300D0000 		.4byte	.LASF58
 2823 0296 0E       		.sleb128 14
 2824 0297 0B       		.uleb128 0xb
 2825 0298 A5300000 		.4byte	.LASF59
 2826 029c 0F       		.sleb128 15
 2827 029d 0B       		.uleb128 0xb
 2828 029e 1A180000 		.4byte	.LASF60
 2829 02a2 10       		.sleb128 16
 2830 02a3 0B       		.uleb128 0xb
 2831 02a4 A8250000 		.4byte	.LASF61
 2832 02a8 11       		.sleb128 17
 2833 02a9 0B       		.uleb128 0xb
 2834 02aa 63100000 		.4byte	.LASF62
 2835 02ae 12       		.sleb128 18
 2836 02af 0B       		.uleb128 0xb
 2837 02b0 FF040000 		.4byte	.LASF63
 2838 02b4 13       		.sleb128 19
ARM GAS  C:\Users\AHMED~1.ELE\AppData\Local\Temp\ccfMkwD6.s 			page 63


 2839 02b5 0B       		.uleb128 0xb
 2840 02b6 7E090000 		.4byte	.LASF64
 2841 02ba 14       		.sleb128 20
 2842 02bb 0B       		.uleb128 0xb
 2843 02bc CF180000 		.4byte	.LASF65
 2844 02c0 15       		.sleb128 21
 2845 02c1 0B       		.uleb128 0xb
 2846 02c2 8E090000 		.4byte	.LASF66
 2847 02c6 16       		.sleb128 22
 2848 02c7 0B       		.uleb128 0xb
 2849 02c8 3E0A0000 		.4byte	.LASF67
 2850 02cc 17       		.sleb128 23
 2851 02cd 0B       		.uleb128 0xb
 2852 02ce E6090000 		.4byte	.LASF68
 2853 02d2 18       		.sleb128 24
 2854 02d3 0B       		.uleb128 0xb
 2855 02d4 151F0000 		.4byte	.LASF69
 2856 02d8 19       		.sleb128 25
 2857 02d9 0B       		.uleb128 0xb
 2858 02da B2090000 		.4byte	.LASF70
 2859 02de 1A       		.sleb128 26
 2860 02df 0B       		.uleb128 0xb
 2861 02e0 110A0000 		.4byte	.LASF71
 2862 02e4 1B       		.sleb128 27
 2863 02e5 0B       		.uleb128 0xb
 2864 02e6 C0140000 		.4byte	.LASF72
 2865 02ea 1C       		.sleb128 28
 2866 02eb 0B       		.uleb128 0xb
 2867 02ec 641B0000 		.4byte	.LASF73
 2868 02f0 1D       		.sleb128 29
 2869 02f1 0B       		.uleb128 0xb
 2870 02f2 E0300000 		.4byte	.LASF74
 2871 02f6 1E       		.sleb128 30
 2872 02f7 0B       		.uleb128 0xb
 2873 02f8 FD080000 		.4byte	.LASF75
 2874 02fc 1F       		.sleb128 31
 2875 02fd 0B       		.uleb128 0xb
 2876 02fe A4140000 		.4byte	.LASF76
 2877 0302 20       		.sleb128 32
 2878 0303 0B       		.uleb128 0xb
 2879 0304 0A040000 		.4byte	.LASF77
 2880 0308 21       		.sleb128 33
 2881 0309 0B       		.uleb128 0xb
 2882 030a 321E0000 		.4byte	.LASF78
 2883 030e 22       		.sleb128 34
 2884 030f 0B       		.uleb128 0xb
 2885 0310 D9190000 		.4byte	.LASF79
 2886 0314 23       		.sleb128 35
 2887 0315 0B       		.uleb128 0xb
 2888 0316 F90B0000 		.4byte	.LASF80
 2889 031a 24       		.sleb128 36
 2890 031b 0B       		.uleb128 0xb
 2891 031c 63110000 		.4byte	.LASF81
 2892 0320 25       		.sleb128 37
 2893 0321 0B       		.uleb128 0xb
 2894 0322 182B0000 		.4byte	.LASF82
 2895 0326 26       		.sleb128 38
ARM GAS  C:\Users\AHMED~1.ELE\AppData\Local\Temp\ccfMkwD6.s 			page 64


 2896 0327 0B       		.uleb128 0xb
 2897 0328 241A0000 		.4byte	.LASF83
 2898 032c 27       		.sleb128 39
 2899 032d 0B       		.uleb128 0xb
 2900 032e 31080000 		.4byte	.LASF84
 2901 0332 28       		.sleb128 40
 2902 0333 0B       		.uleb128 0xb
 2903 0334 8B210000 		.4byte	.LASF85
 2904 0338 29       		.sleb128 41
 2905 0339 0B       		.uleb128 0xb
 2906 033a 7C1A0000 		.4byte	.LASF86
 2907 033e 2A       		.sleb128 42
 2908 033f 0B       		.uleb128 0xb
 2909 0340 C31A0000 		.4byte	.LASF87
 2910 0344 2B       		.sleb128 43
 2911 0345 0B       		.uleb128 0xb
 2912 0346 660F0000 		.4byte	.LASF88
 2913 034a 2C       		.sleb128 44
 2914 034b 0B       		.uleb128 0xb
 2915 034c BB0C0000 		.4byte	.LASF89
 2916 0350 2D       		.sleb128 45
 2917 0351 0B       		.uleb128 0xb
 2918 0352 8B2B0000 		.4byte	.LASF90
 2919 0356 2E       		.sleb128 46
 2920 0357 0B       		.uleb128 0xb
 2921 0358 EA2E0000 		.4byte	.LASF91
 2922 035c 2F       		.sleb128 47
 2923 035d 0B       		.uleb128 0xb
 2924 035e FB280000 		.4byte	.LASF92
 2925 0362 30       		.sleb128 48
 2926 0363 0B       		.uleb128 0xb
 2927 0364 6A2D0000 		.4byte	.LASF93
 2928 0368 31       		.sleb128 49
 2929 0369 0B       		.uleb128 0xb
 2930 036a F7230000 		.4byte	.LASF94
 2931 036e 32       		.sleb128 50
 2932 036f 0B       		.uleb128 0xb
 2933 0370 4A2D0000 		.4byte	.LASF95
 2934 0374 33       		.sleb128 51
 2935 0375 0B       		.uleb128 0xb
 2936 0376 31250000 		.4byte	.LASF96
 2937 037a 34       		.sleb128 52
 2938 037b 0B       		.uleb128 0xb
 2939 037c 100D0000 		.4byte	.LASF97
 2940 0380 35       		.sleb128 53
 2941 0381 0B       		.uleb128 0xb
 2942 0382 BD050000 		.4byte	.LASF98
 2943 0386 36       		.sleb128 54
 2944 0387 0B       		.uleb128 0xb
 2945 0388 0D190000 		.4byte	.LASF99
 2946 038c 37       		.sleb128 55
 2947 038d 0B       		.uleb128 0xb
 2948 038e 0B310000 		.4byte	.LASF100
 2949 0392 38       		.sleb128 56
 2950 0393 0B       		.uleb128 0xb
 2951 0394 FF2D0000 		.4byte	.LASF101
 2952 0398 39       		.sleb128 57
ARM GAS  C:\Users\AHMED~1.ELE\AppData\Local\Temp\ccfMkwD6.s 			page 65


 2953 0399 0B       		.uleb128 0xb
 2954 039a 5B230000 		.4byte	.LASF102
 2955 039e 3A       		.sleb128 58
 2956 039f 0B       		.uleb128 0xb
 2957 03a0 EE040000 		.4byte	.LASF103
 2958 03a4 3B       		.sleb128 59
 2959 03a5 0B       		.uleb128 0xb
 2960 03a6 712F0000 		.4byte	.LASF104
 2961 03aa 3C       		.sleb128 60
 2962 03ab 0B       		.uleb128 0xb
 2963 03ac 41070000 		.4byte	.LASF105
 2964 03b0 3D       		.sleb128 61
 2965 03b1 0B       		.uleb128 0xb
 2966 03b2 CC2B0000 		.4byte	.LASF106
 2967 03b6 3E       		.sleb128 62
 2968 03b7 0B       		.uleb128 0xb
 2969 03b8 06280000 		.4byte	.LASF107
 2970 03bc 3F       		.sleb128 63
 2971 03bd 0B       		.uleb128 0xb
 2972 03be 74280000 		.4byte	.LASF108
 2973 03c2 C000     		.sleb128 64
 2974 03c4 0B       		.uleb128 0xb
 2975 03c5 C8010000 		.4byte	.LASF109
 2976 03c9 C100     		.sleb128 65
 2977 03cb 0B       		.uleb128 0xb
 2978 03cc 07300000 		.4byte	.LASF110
 2979 03d0 C200     		.sleb128 66
 2980 03d2 0B       		.uleb128 0xb
 2981 03d3 6F1A0000 		.4byte	.LASF111
 2982 03d7 C300     		.sleb128 67
 2983 03d9 0B       		.uleb128 0xb
 2984 03da 6A210000 		.4byte	.LASF112
 2985 03de C400     		.sleb128 68
 2986 03e0 0B       		.uleb128 0xb
 2987 03e1 150F0000 		.4byte	.LASF113
 2988 03e5 C500     		.sleb128 69
 2989 03e7 0B       		.uleb128 0xb
 2990 03e8 86130000 		.4byte	.LASF114
 2991 03ec C600     		.sleb128 70
 2992 03ee 0B       		.uleb128 0xb
 2993 03ef 3C230000 		.4byte	.LASF115
 2994 03f3 C700     		.sleb128 71
 2995 03f5 0B       		.uleb128 0xb
 2996 03f6 42190000 		.4byte	.LASF116
 2997 03fa C800     		.sleb128 72
 2998 03fc 0B       		.uleb128 0xb
 2999 03fd CE1C0000 		.4byte	.LASF117
 3000 0401 C900     		.sleb128 73
 3001 0403 0B       		.uleb128 0xb
 3002 0404 3A2E0000 		.4byte	.LASF118
 3003 0408 CA00     		.sleb128 74
 3004 040a 0B       		.uleb128 0xb
 3005 040b 1A2F0000 		.4byte	.LASF119
 3006 040f CB00     		.sleb128 75
 3007 0411 0B       		.uleb128 0xb
 3008 0412 CA060000 		.4byte	.LASF120
 3009 0416 CC00     		.sleb128 76
ARM GAS  C:\Users\AHMED~1.ELE\AppData\Local\Temp\ccfMkwD6.s 			page 66


 3010 0418 0B       		.uleb128 0xb
 3011 0419 A71C0000 		.4byte	.LASF121
 3012 041d CD00     		.sleb128 77
 3013 041f 0B       		.uleb128 0xb
 3014 0420 5E050000 		.4byte	.LASF122
 3015 0424 CE00     		.sleb128 78
 3016 0426 0B       		.uleb128 0xb
 3017 0427 76060000 		.4byte	.LASF123
 3018 042b CF00     		.sleb128 79
 3019 042d 0B       		.uleb128 0xb
 3020 042e 1B2D0000 		.4byte	.LASF124
 3021 0432 D000     		.sleb128 80
 3022 0434 0B       		.uleb128 0xb
 3023 0435 86260000 		.4byte	.LASF125
 3024 0439 D100     		.sleb128 81
 3025 043b 0B       		.uleb128 0xb
 3026 043c 9F1A0000 		.4byte	.LASF126
 3027 0440 D200     		.sleb128 82
 3028 0442 0B       		.uleb128 0xb
 3029 0443 03110000 		.4byte	.LASF127
 3030 0447 D300     		.sleb128 83
 3031 0449 0B       		.uleb128 0xb
 3032 044a C8300000 		.4byte	.LASF128
 3033 044e D400     		.sleb128 84
 3034 0450 0B       		.uleb128 0xb
 3035 0451 45210000 		.4byte	.LASF129
 3036 0455 D500     		.sleb128 85
 3037 0457 0B       		.uleb128 0xb
 3038 0458 E7050000 		.4byte	.LASF130
 3039 045c D600     		.sleb128 86
 3040 045e 0B       		.uleb128 0xb
 3041 045f 0A2F0000 		.4byte	.LASF131
 3042 0463 D700     		.sleb128 87
 3043 0465 0B       		.uleb128 0xb
 3044 0466 53250000 		.4byte	.LASF132
 3045 046a D800     		.sleb128 88
 3046 046c 0B       		.uleb128 0xb
 3047 046d 200F0000 		.4byte	.LASF133
 3048 0471 D900     		.sleb128 89
 3049 0473 0B       		.uleb128 0xb
 3050 0474 4A230000 		.4byte	.LASF134
 3051 0478 DA00     		.sleb128 90
 3052 047a 0B       		.uleb128 0xb
 3053 047b D5200000 		.4byte	.LASF135
 3054 047f DB00     		.sleb128 91
 3055 0481 0B       		.uleb128 0xb
 3056 0482 A1080000 		.4byte	.LASF136
 3057 0486 DC00     		.sleb128 92
 3058 0488 0B       		.uleb128 0xb
 3059 0489 D6040000 		.4byte	.LASF137
 3060 048d DD00     		.sleb128 93
 3061 048f 0B       		.uleb128 0xb
 3062 0490 53060000 		.4byte	.LASF138
 3063 0494 DE00     		.sleb128 94
 3064 0496 0B       		.uleb128 0xb
 3065 0497 56080000 		.4byte	.LASF139
 3066 049b DF00     		.sleb128 95
ARM GAS  C:\Users\AHMED~1.ELE\AppData\Local\Temp\ccfMkwD6.s 			page 67


 3067 049d 0B       		.uleb128 0xb
 3068 049e A21D0000 		.4byte	.LASF140
 3069 04a2 E000     		.sleb128 96
 3070 04a4 0B       		.uleb128 0xb
 3071 04a5 1A2A0000 		.4byte	.LASF141
 3072 04a9 E100     		.sleb128 97
 3073 04ab 0B       		.uleb128 0xb
 3074 04ac BA290000 		.4byte	.LASF142
 3075 04b0 E200     		.sleb128 98
 3076 04b2 0B       		.uleb128 0xb
 3077 04b3 2F0E0000 		.4byte	.LASF143
 3078 04b7 E300     		.sleb128 99
 3079 04b9 0B       		.uleb128 0xb
 3080 04ba 062B0000 		.4byte	.LASF144
 3081 04be E400     		.sleb128 100
 3082 04c0 0B       		.uleb128 0xb
 3083 04c1 D41D0000 		.4byte	.LASF145
 3084 04c5 E500     		.sleb128 101
 3085 04c7 0B       		.uleb128 0xb
 3086 04c8 04020000 		.4byte	.LASF146
 3087 04cc E600     		.sleb128 102
 3088 04ce 0B       		.uleb128 0xb
 3089 04cf BB060000 		.4byte	.LASF147
 3090 04d3 E700     		.sleb128 103
 3091 04d5 0B       		.uleb128 0xb
 3092 04d6 3E180000 		.4byte	.LASF148
 3093 04da E800     		.sleb128 104
 3094 04dc 0B       		.uleb128 0xb
 3095 04dd 8E060000 		.4byte	.LASF149
 3096 04e1 E900     		.sleb128 105
 3097 04e3 0B       		.uleb128 0xb
 3098 04e4 68130000 		.4byte	.LASF150
 3099 04e8 EA00     		.sleb128 106
 3100 04ea 0B       		.uleb128 0xb
 3101 04eb F2290000 		.4byte	.LASF151
 3102 04ef EB00     		.sleb128 107
 3103 04f1 0B       		.uleb128 0xb
 3104 04f2 20280000 		.4byte	.LASF152
 3105 04f6 EC00     		.sleb128 108
 3106 04f8 0B       		.uleb128 0xb
 3107 04f9 001B0000 		.4byte	.LASF153
 3108 04fd ED00     		.sleb128 109
 3109 04ff 0B       		.uleb128 0xb
 3110 0500 DA0B0000 		.4byte	.LASF154
 3111 0504 EE00     		.sleb128 110
 3112 0506 0B       		.uleb128 0xb
 3113 0507 951C0000 		.4byte	.LASF155
 3114 050b EF00     		.sleb128 111
 3115 050d 0B       		.uleb128 0xb
 3116 050e D6170000 		.4byte	.LASF156
 3117 0512 F000     		.sleb128 112
 3118 0514 0B       		.uleb128 0xb
 3119 0515 C4240000 		.4byte	.LASF157
 3120 0519 F100     		.sleb128 113
 3121 051b 0B       		.uleb128 0xb
 3122 051c 651D0000 		.4byte	.LASF158
 3123 0520 F200     		.sleb128 114
ARM GAS  C:\Users\AHMED~1.ELE\AppData\Local\Temp\ccfMkwD6.s 			page 68


 3124 0522 0B       		.uleb128 0xb
 3125 0523 25230000 		.4byte	.LASF159
 3126 0527 F300     		.sleb128 115
 3127 0529 0B       		.uleb128 0xb
 3128 052a C2090000 		.4byte	.LASF160
 3129 052e F400     		.sleb128 116
 3130 0530 0B       		.uleb128 0xb
 3131 0531 D32A0000 		.4byte	.LASF161
 3132 0535 F500     		.sleb128 117
 3133 0537 0B       		.uleb128 0xb
 3134 0538 B42B0000 		.4byte	.LASF162
 3135 053c F600     		.sleb128 118
 3136 053e 0B       		.uleb128 0xb
 3137 053f CB0C0000 		.4byte	.LASF163
 3138 0543 F700     		.sleb128 119
 3139 0545 0B       		.uleb128 0xb
 3140 0546 550C0000 		.4byte	.LASF164
 3141 054a F800     		.sleb128 120
 3142 054c 0B       		.uleb128 0xb
 3143 054d E50D0000 		.4byte	.LASF165
 3144 0551 F900     		.sleb128 121
 3145 0553 0B       		.uleb128 0xb
 3146 0554 832E0000 		.4byte	.LASF166
 3147 0558 FA00     		.sleb128 122
 3148 055a 0B       		.uleb128 0xb
 3149 055b 40100000 		.4byte	.LASF167
 3150 055f FB00     		.sleb128 123
 3151 0561 0B       		.uleb128 0xb
 3152 0562 6D170000 		.4byte	.LASF168
 3153 0566 FC00     		.sleb128 124
 3154 0568 0B       		.uleb128 0xb
 3155 0569 42280000 		.4byte	.LASF169
 3156 056d FD00     		.sleb128 125
 3157 056f 0B       		.uleb128 0xb
 3158 0570 140B0000 		.4byte	.LASF170
 3159 0574 FE00     		.sleb128 126
 3160 0576 0B       		.uleb128 0xb
 3161 0577 67120000 		.4byte	.LASF171
 3162 057b FF00     		.sleb128 127
 3163 057d 0B       		.uleb128 0xb
 3164 057e D4260000 		.4byte	.LASF172
 3165 0582 8001     		.sleb128 128
 3166 0584 0B       		.uleb128 0xb
 3167 0585 1E080000 		.4byte	.LASF173
 3168 0589 8101     		.sleb128 129
 3169 058b 0B       		.uleb128 0xb
 3170 058c 66030000 		.4byte	.LASF174
 3171 0590 8201     		.sleb128 130
 3172 0592 0B       		.uleb128 0xb
 3173 0593 80200000 		.4byte	.LASF175
 3174 0597 8301     		.sleb128 131
 3175 0599 0B       		.uleb128 0xb
 3176 059a 08250000 		.4byte	.LASF176
 3177 059e 8401     		.sleb128 132
 3178 05a0 0B       		.uleb128 0xb
 3179 05a1 54100000 		.4byte	.LASF177
 3180 05a5 8501     		.sleb128 133
ARM GAS  C:\Users\AHMED~1.ELE\AppData\Local\Temp\ccfMkwD6.s 			page 69


 3181 05a7 0B       		.uleb128 0xb
 3182 05a8 402F0000 		.4byte	.LASF178
 3183 05ac 8601     		.sleb128 134
 3184 05ae 0B       		.uleb128 0xb
 3185 05af FF0C0000 		.4byte	.LASF179
 3186 05b3 8701     		.sleb128 135
 3187 05b5 0B       		.uleb128 0xb
 3188 05b6 ED160000 		.4byte	.LASF180
 3189 05ba 8801     		.sleb128 136
 3190 05bc 0B       		.uleb128 0xb
 3191 05bd 200D0000 		.4byte	.LASF181
 3192 05c1 8901     		.sleb128 137
 3193 05c3 0B       		.uleb128 0xb
 3194 05c4 C50A0000 		.4byte	.LASF182
 3195 05c8 8A01     		.sleb128 138
 3196 05ca 0B       		.uleb128 0xb
 3197 05cb 5F260000 		.4byte	.LASF183
 3198 05cf 8B01     		.sleb128 139
 3199 05d1 0B       		.uleb128 0xb
 3200 05d2 F92C0000 		.4byte	.LASF184
 3201 05d6 8C01     		.sleb128 140
 3202 05d8 0B       		.uleb128 0xb
 3203 05d9 FE190000 		.4byte	.LASF185
 3204 05dd 8D01     		.sleb128 141
 3205 05df 0B       		.uleb128 0xb
 3206 05e0 0F210000 		.4byte	.LASF186
 3207 05e4 8E01     		.sleb128 142
 3208 05e6 0B       		.uleb128 0xb
 3209 05e7 AC0F0000 		.4byte	.LASF187
 3210 05eb 8F01     		.sleb128 143
 3211 05ed 0B       		.uleb128 0xb
 3212 05ee 970F0000 		.4byte	.LASF188
 3213 05f2 9001     		.sleb128 144
 3214 05f4 0B       		.uleb128 0xb
 3215 05f5 542C0000 		.4byte	.LASF189
 3216 05f9 9101     		.sleb128 145
 3217 05fb 0B       		.uleb128 0xb
 3218 05fc 00200000 		.4byte	.LASF190
 3219 0600 9201     		.sleb128 146
 3220 0602 0B       		.uleb128 0xb
 3221 0603 402A0000 		.4byte	.LASF191
 3222 0607 9301     		.sleb128 147
 3223 0609 0B       		.uleb128 0xb
 3224 060a 97180000 		.4byte	.LASF192
 3225 060e 9401     		.sleb128 148
 3226 0610 0B       		.uleb128 0xb
 3227 0611 E6000000 		.4byte	.LASF193
 3228 0615 9501     		.sleb128 149
 3229 0617 0B       		.uleb128 0xb
 3230 0618 E90A0000 		.4byte	.LASF194
 3231 061c 9601     		.sleb128 150
 3232 061e 0B       		.uleb128 0xb
 3233 061f 8B110000 		.4byte	.LASF195
 3234 0623 9701     		.sleb128 151
 3235 0625 0B       		.uleb128 0xb
 3236 0626 86180000 		.4byte	.LASF196
 3237 062a 9801     		.sleb128 152
ARM GAS  C:\Users\AHMED~1.ELE\AppData\Local\Temp\ccfMkwD6.s 			page 70


 3238 062c 0B       		.uleb128 0xb
 3239 062d D9010000 		.4byte	.LASF197
 3240 0631 9901     		.sleb128 153
 3241 0633 0B       		.uleb128 0xb
 3242 0634 F4270000 		.4byte	.LASF198
 3243 0638 9A01     		.sleb128 154
 3244 063a 0B       		.uleb128 0xb
 3245 063b 6E200000 		.4byte	.LASF199
 3246 063f 9B01     		.sleb128 155
 3247 0641 0B       		.uleb128 0xb
 3248 0642 B5300000 		.4byte	.LASF200
 3249 0646 9C01     		.sleb128 156
 3250 0648 0B       		.uleb128 0xb
 3251 0649 AF000000 		.4byte	.LASF201
 3252 064d 9D01     		.sleb128 157
 3253 064f 0B       		.uleb128 0xb
 3254 0650 30010000 		.4byte	.LASF202
 3255 0654 9E01     		.sleb128 158
 3256 0656 0B       		.uleb128 0xb
 3257 0657 670C0000 		.4byte	.LASF203
 3258 065b 9F01     		.sleb128 159
 3259 065d 0B       		.uleb128 0xb
 3260 065e F90A0000 		.4byte	.LASF204
 3261 0662 A001     		.sleb128 160
 3262 0664 0B       		.uleb128 0xb
 3263 0665 FD1B0000 		.4byte	.LASF205
 3264 0669 A101     		.sleb128 161
 3265 066b 0B       		.uleb128 0xb
 3266 066c C11F0000 		.4byte	.LASF206
 3267 0670 A201     		.sleb128 162
 3268 0672 0B       		.uleb128 0xb
 3269 0673 76050000 		.4byte	.LASF207
 3270 0677 A301     		.sleb128 163
 3271 0679 0B       		.uleb128 0xb
 3272 067a A8120000 		.4byte	.LASF208
 3273 067e A401     		.sleb128 164
 3274 0680 0B       		.uleb128 0xb
 3275 0681 2E090000 		.4byte	.LASF209
 3276 0685 A501     		.sleb128 165
 3277 0687 0B       		.uleb128 0xb
 3278 0688 15030000 		.4byte	.LASF210
 3279 068c A601     		.sleb128 166
 3280 068e 0B       		.uleb128 0xb
 3281 068f DC1C0000 		.4byte	.LASF211
 3282 0693 A701     		.sleb128 167
 3283 0695 0B       		.uleb128 0xb
 3284 0696 501B0000 		.4byte	.LASF212
 3285 069a A801     		.sleb128 168
 3286 069c 0B       		.uleb128 0xb
 3287 069d 15060000 		.4byte	.LASF213
 3288 06a1 A901     		.sleb128 169
 3289 06a3 0B       		.uleb128 0xb
 3290 06a4 492E0000 		.4byte	.LASF214
 3291 06a8 AA01     		.sleb128 170
 3292 06aa 0B       		.uleb128 0xb
 3293 06ab 701F0000 		.4byte	.LASF215
 3294 06af AB01     		.sleb128 171
ARM GAS  C:\Users\AHMED~1.ELE\AppData\Local\Temp\ccfMkwD6.s 			page 71


 3295 06b1 0B       		.uleb128 0xb
 3296 06b2 402C0000 		.4byte	.LASF216
 3297 06b6 AC01     		.sleb128 172
 3298 06b8 0B       		.uleb128 0xb
 3299 06b9 6F040000 		.4byte	.LASF217
 3300 06bd AD01     		.sleb128 173
 3301 06bf 0B       		.uleb128 0xb
 3302 06c0 E5170000 		.4byte	.LASF218
 3303 06c4 AE01     		.sleb128 174
 3304 06c6 0B       		.uleb128 0xb
 3305 06c7 5A270000 		.4byte	.LASF219
 3306 06cb AF01     		.sleb128 175
 3307 06cd 0B       		.uleb128 0xb
 3308 06ce B10D0000 		.4byte	.LASF220
 3309 06d2 B001     		.sleb128 176
 3310 06d4 0B       		.uleb128 0xb
 3311 06d5 81000000 		.4byte	.LASF221
 3312 06d9 B101     		.sleb128 177
 3313 06db 0B       		.uleb128 0xb
 3314 06dc 07180000 		.4byte	.LASF222
 3315 06e0 B201     		.sleb128 178
 3316 06e2 0B       		.uleb128 0xb
 3317 06e3 E82C0000 		.4byte	.LASF223
 3318 06e7 B301     		.sleb128 179
 3319 06e9 0B       		.uleb128 0xb
 3320 06ea E9060000 		.4byte	.LASF224
 3321 06ee B401     		.sleb128 180
 3322 06f0 0B       		.uleb128 0xb
 3323 06f1 BF130000 		.4byte	.LASF225
 3324 06f5 B501     		.sleb128 181
 3325 06f7 0B       		.uleb128 0xb
 3326 06f8 66070000 		.4byte	.LASF226
 3327 06fc B601     		.sleb128 182
 3328 06fe 0B       		.uleb128 0xb
 3329 06ff 7E220000 		.4byte	.LASF227
 3330 0703 B701     		.sleb128 183
 3331 0705 0B       		.uleb128 0xb
 3332 0706 0E0C0000 		.4byte	.LASF228
 3333 070a B801     		.sleb128 184
 3334 070c 0B       		.uleb128 0xb
 3335 070d 4E0A0000 		.4byte	.LASF229
 3336 0711 B901     		.sleb128 185
 3337 0713 0B       		.uleb128 0xb
 3338 0714 5B310000 		.4byte	.LASF230
 3339 0718 BA01     		.sleb128 186
 3340 071a 0B       		.uleb128 0xb
 3341 071b E8260000 		.4byte	.LASF231
 3342 071f BB01     		.sleb128 187
 3343 0721 0B       		.uleb128 0xb
 3344 0722 CD050000 		.4byte	.LASF232
 3345 0726 BC01     		.sleb128 188
 3346 0728 0B       		.uleb128 0xb
 3347 0729 76130000 		.4byte	.LASF233
 3348 072d BD01     		.sleb128 189
 3349 072f 0B       		.uleb128 0xb
 3350 0730 85050000 		.4byte	.LASF234
 3351 0734 BE01     		.sleb128 190
ARM GAS  C:\Users\AHMED~1.ELE\AppData\Local\Temp\ccfMkwD6.s 			page 72


 3352 0736 0B       		.uleb128 0xb
 3353 0737 A1280000 		.4byte	.LASF235
 3354 073b BF01     		.sleb128 191
 3355 073d 0B       		.uleb128 0xb
 3356 073e DB0F0000 		.4byte	.LASF236
 3357 0742 C001     		.sleb128 192
 3358 0744 0B       		.uleb128 0xb
 3359 0745 D6290000 		.4byte	.LASF237
 3360 0749 C101     		.sleb128 193
 3361 074b 0B       		.uleb128 0xb
 3362 074c FA170000 		.4byte	.LASF238
 3363 0750 C201     		.sleb128 194
 3364 0752 0B       		.uleb128 0xb
 3365 0753 3F1B0000 		.4byte	.LASF239
 3366 0757 C301     		.sleb128 195
 3367 0759 0B       		.uleb128 0xb
 3368 075a 87270000 		.4byte	.LASF240
 3369 075e C401     		.sleb128 196
 3370 0760 0B       		.uleb128 0xb
 3371 0761 4A1A0000 		.4byte	.LASF241
 3372 0765 C501     		.sleb128 197
 3373 0767 0B       		.uleb128 0xb
 3374 0768 372D0000 		.4byte	.LASF242
 3375 076c C601     		.sleb128 198
 3376 076e 0B       		.uleb128 0xb
 3377 076f D5020000 		.4byte	.LASF243
 3378 0773 C701     		.sleb128 199
 3379 0775 0B       		.uleb128 0xb
 3380 0776 EE1D0000 		.4byte	.LASF244
 3381 077a C801     		.sleb128 200
 3382 077c 0B       		.uleb128 0xb
 3383 077d 73260000 		.4byte	.LASF245
 3384 0781 C901     		.sleb128 201
 3385 0783 0B       		.uleb128 0xb
 3386 0784 361F0000 		.4byte	.LASF246
 3387 0788 CA01     		.sleb128 202
 3388 078a 0B       		.uleb128 0xb
 3389 078b 1C2E0000 		.4byte	.LASF247
 3390 078f CB01     		.sleb128 203
 3391 0791 0B       		.uleb128 0xb
 3392 0792 1F0E0000 		.4byte	.LASF248
 3393 0796 CC01     		.sleb128 204
 3394 0798 0B       		.uleb128 0xb
 3395 0799 AF270000 		.4byte	.LASF249
 3396 079d CD01     		.sleb128 205
 3397 079f 0B       		.uleb128 0xb
 3398 07a0 FB030000 		.4byte	.LASF250
 3399 07a4 CE01     		.sleb128 206
 3400 07a6 0B       		.uleb128 0xb
 3401 07a7 760F0000 		.4byte	.LASF251
 3402 07ab CF01     		.sleb128 207
 3403 07ad 0B       		.uleb128 0xb
 3404 07ae B41D0000 		.4byte	.LASF252
 3405 07b2 D001     		.sleb128 208
 3406 07b4 0B       		.uleb128 0xb
 3407 07b5 F7120000 		.4byte	.LASF253
 3408 07b9 D101     		.sleb128 209
ARM GAS  C:\Users\AHMED~1.ELE\AppData\Local\Temp\ccfMkwD6.s 			page 73


 3409 07bb 0B       		.uleb128 0xb
 3410 07bc 5D0D0000 		.4byte	.LASF254
 3411 07c0 D201     		.sleb128 210
 3412 07c2 0B       		.uleb128 0xb
 3413 07c3 0B2D0000 		.4byte	.LASF255
 3414 07c7 D301     		.sleb128 211
 3415 07c9 0B       		.uleb128 0xb
 3416 07ca D9250000 		.4byte	.LASF256
 3417 07ce D401     		.sleb128 212
 3418 07d0 0B       		.uleb128 0xb
 3419 07d1 D50D0000 		.4byte	.LASF257
 3420 07d5 D501     		.sleb128 213
 3421 07d7 0B       		.uleb128 0xb
 3422 07d8 3D150000 		.4byte	.LASF258
 3423 07dc D601     		.sleb128 214
 3424 07de 0B       		.uleb128 0xb
 3425 07df 41220000 		.4byte	.LASF259
 3426 07e3 D701     		.sleb128 215
 3427 07e5 0B       		.uleb128 0xb
 3428 07e6 860F0000 		.4byte	.LASF260
 3429 07ea D801     		.sleb128 216
 3430 07ec 0B       		.uleb128 0xb
 3431 07ed B12D0000 		.4byte	.LASF261
 3432 07f1 D901     		.sleb128 217
 3433 07f3 0B       		.uleb128 0xb
 3434 07f4 FE140000 		.4byte	.LASF262
 3435 07f8 DA01     		.sleb128 218
 3436 07fa 0B       		.uleb128 0xb
 3437 07fb 23050000 		.4byte	.LASF263
 3438 07ff DB01     		.sleb128 219
 3439 0801 0B       		.uleb128 0xb
 3440 0802 9C070000 		.4byte	.LASF264
 3441 0806 DC01     		.sleb128 220
 3442 0808 0B       		.uleb128 0xb
 3443 0809 782C0000 		.4byte	.LASF265
 3444 080d DD01     		.sleb128 221
 3445 080f 0B       		.uleb128 0xb
 3446 0810 17140000 		.4byte	.LASF266
 3447 0814 DE01     		.sleb128 222
 3448 0816 0B       		.uleb128 0xb
 3449 0817 9D110000 		.4byte	.LASF267
 3450 081b DF01     		.sleb128 223
 3451 081d 0B       		.uleb128 0xb
 3452 081e 2A130000 		.4byte	.LASF268
 3453 0822 E001     		.sleb128 224
 3454 0824 0B       		.uleb128 0xb
 3455 0825 AC110000 		.4byte	.LASF269
 3456 0829 E101     		.sleb128 225
 3457 082b 0B       		.uleb128 0xb
 3458 082c A7160000 		.4byte	.LASF270
 3459 0830 E201     		.sleb128 226
 3460 0832 0B       		.uleb128 0xb
 3461 0833 C1190000 		.4byte	.LASF271
 3462 0837 E301     		.sleb128 227
 3463 0839 0B       		.uleb128 0xb
 3464 083a 3F120000 		.4byte	.LASF272
 3465 083e E401     		.sleb128 228
ARM GAS  C:\Users\AHMED~1.ELE\AppData\Local\Temp\ccfMkwD6.s 			page 74


 3466 0840 0B       		.uleb128 0xb
 3467 0841 00100000 		.4byte	.LASF273
 3468 0845 E501     		.sleb128 229
 3469 0847 0B       		.uleb128 0xb
 3470 0848 8D1A0000 		.4byte	.LASF274
 3471 084c E601     		.sleb128 230
 3472 084e 0B       		.uleb128 0xb
 3473 084f 6E140000 		.4byte	.LASF275
 3474 0853 E701     		.sleb128 231
 3475 0855 0B       		.uleb128 0xb
 3476 0856 6E0A0000 		.4byte	.LASF276
 3477 085a E801     		.sleb128 232
 3478 085c 0B       		.uleb128 0xb
 3479 085d AD2F0000 		.4byte	.LASF277
 3480 0861 E901     		.sleb128 233
 3481 0863 0B       		.uleb128 0xb
 3482 0864 73290000 		.4byte	.LASF278
 3483 0868 EA01     		.sleb128 234
 3484 086a 0B       		.uleb128 0xb
 3485 086b 7B1D0000 		.4byte	.LASF279
 3486 086f EB01     		.sleb128 235
 3487 0871 0B       		.uleb128 0xb
 3488 0872 2D2A0000 		.4byte	.LASF280
 3489 0876 EC01     		.sleb128 236
 3490 0878 0B       		.uleb128 0xb
 3491 0879 AE260000 		.4byte	.LASF281
 3492 087d ED01     		.sleb128 237
 3493 087f 0B       		.uleb128 0xb
 3494 0880 DC060000 		.4byte	.LASF282
 3495 0884 EE01     		.sleb128 238
 3496 0886 0B       		.uleb128 0xb
 3497 0887 8B190000 		.4byte	.LASF283
 3498 088b EF01     		.sleb128 239
 3499 088d 0B       		.uleb128 0xb
 3500 088e 6F220000 		.4byte	.LASF284
 3501 0892 F001     		.sleb128 240
 3502 0894 0B       		.uleb128 0xb
 3503 0895 021D0000 		.4byte	.LASF285
 3504 0899 F101     		.sleb128 241
 3505 089b 0B       		.uleb128 0xb
 3506 089c 0C1E0000 		.4byte	.LASF286
 3507 08a0 F201     		.sleb128 242
 3508 08a2 0B       		.uleb128 0xb
 3509 08a3 9E190000 		.4byte	.LASF287
 3510 08a7 F301     		.sleb128 243
 3511 08a9 0B       		.uleb128 0xb
 3512 08aa E8080000 		.4byte	.LASF288
 3513 08ae F401     		.sleb128 244
 3514 08b0 0B       		.uleb128 0xb
 3515 08b1 78230000 		.4byte	.LASF289
 3516 08b5 F501     		.sleb128 245
 3517 08b7 0B       		.uleb128 0xb
 3518 08b8 DB230000 		.4byte	.LASF290
 3519 08bc F601     		.sleb128 246
 3520 08be 0B       		.uleb128 0xb
 3521 08bf 220C0000 		.4byte	.LASF291
 3522 08c3 F701     		.sleb128 247
ARM GAS  C:\Users\AHMED~1.ELE\AppData\Local\Temp\ccfMkwD6.s 			page 75


 3523 08c5 0B       		.uleb128 0xb
 3524 08c6 131D0000 		.4byte	.LASF292
 3525 08ca F801     		.sleb128 248
 3526 08cc 0B       		.uleb128 0xb
 3527 08cd 04140000 		.4byte	.LASF293
 3528 08d1 F901     		.sleb128 249
 3529 08d3 0B       		.uleb128 0xb
 3530 08d4 801F0000 		.4byte	.LASF294
 3531 08d8 FA01     		.sleb128 250
 3532 08da 0B       		.uleb128 0xb
 3533 08db 46160000 		.4byte	.LASF295
 3534 08df FB01     		.sleb128 251
 3535 08e1 0B       		.uleb128 0xb
 3536 08e2 71300000 		.4byte	.LASF296
 3537 08e6 FC01     		.sleb128 252
 3538 08e8 0B       		.uleb128 0xb
 3539 08e9 31100000 		.4byte	.LASF297
 3540 08ed FD01     		.sleb128 253
 3541 08ef 0B       		.uleb128 0xb
 3542 08f0 2B2E0000 		.4byte	.LASF298
 3543 08f4 FE01     		.sleb128 254
 3544 08f6 0B       		.uleb128 0xb
 3545 08f7 0B130000 		.4byte	.LASF299
 3546 08fb FF01     		.sleb128 255
 3547 08fd 0B       		.uleb128 0xb
 3548 08fe 9A2D0000 		.4byte	.LASF300
 3549 0902 8002     		.sleb128 256
 3550 0904 0B       		.uleb128 0xb
 3551 0905 55160000 		.4byte	.LASF301
 3552 0909 8102     		.sleb128 257
 3553 090b 0B       		.uleb128 0xb
 3554 090c E9200000 		.4byte	.LASF302
 3555 0910 8202     		.sleb128 258
 3556 0912 0B       		.uleb128 0xb
 3557 0913 42250000 		.4byte	.LASF303
 3558 0917 8302     		.sleb128 259
 3559 0919 0B       		.uleb128 0xb
 3560 091a 540E0000 		.4byte	.LASF304
 3561 091e 8402     		.sleb128 260
 3562 0920 0B       		.uleb128 0xb
 3563 0921 19130000 		.4byte	.LASF305
 3564 0925 8502     		.sleb128 261
 3565 0927 0B       		.uleb128 0xb
 3566 0928 D3030000 		.4byte	.LASF306
 3567 092c 8602     		.sleb128 262
 3568 092e 0B       		.uleb128 0xb
 3569 092f C5170000 		.4byte	.LASF307
 3570 0933 8702     		.sleb128 263
 3571 0935 0B       		.uleb128 0xb
 3572 0936 1D070000 		.4byte	.LASF308
 3573 093a 8802     		.sleb128 264
 3574 093c 0B       		.uleb128 0xb
 3575 093d 51110000 		.4byte	.LASF309
 3576 0941 8902     		.sleb128 265
 3577 0943 0B       		.uleb128 0xb
 3578 0944 25290000 		.4byte	.LASF310
 3579 0948 8A02     		.sleb128 266
ARM GAS  C:\Users\AHMED~1.ELE\AppData\Local\Temp\ccfMkwD6.s 			page 76


 3580 094a 0B       		.uleb128 0xb
 3581 094b E80F0000 		.4byte	.LASF311
 3582 094f 8B02     		.sleb128 267
 3583 0951 0B       		.uleb128 0xb
 3584 0952 900D0000 		.4byte	.LASF312
 3585 0956 8C02     		.sleb128 268
 3586 0958 0B       		.uleb128 0xb
 3587 0959 95240000 		.4byte	.LASF313
 3588 095d 8D02     		.sleb128 269
 3589 095f 0B       		.uleb128 0xb
 3590 0960 F80D0000 		.4byte	.LASF314
 3591 0964 8E02     		.sleb128 270
 3592 0966 0B       		.uleb128 0xb
 3593 0967 EF110000 		.4byte	.LASF315
 3594 096b 8F02     		.sleb128 271
 3595 096d 0B       		.uleb128 0xb
 3596 096e C8080000 		.4byte	.LASF316
 3597 0972 9002     		.sleb128 272
 3598 0974 0B       		.uleb128 0xb
 3599 0975 C0020000 		.4byte	.LASF317
 3600 0979 9102     		.sleb128 273
 3601 097b 0B       		.uleb128 0xb
 3602 097c 5F300000 		.4byte	.LASF318
 3603 0980 9202     		.sleb128 274
 3604 0982 0B       		.uleb128 0xb
 3605 0983 61290000 		.4byte	.LASF319
 3606 0987 9302     		.sleb128 275
 3607 0989 0B       		.uleb128 0xb
 3608 098a E02F0000 		.4byte	.LASF320
 3609 098e 9402     		.sleb128 276
 3610 0990 0B       		.uleb128 0xb
 3611 0991 97130000 		.4byte	.LASF321
 3612 0995 9502     		.sleb128 277
 3613 0997 0B       		.uleb128 0xb
 3614 0998 78030000 		.4byte	.LASF322
 3615 099c 9602     		.sleb128 278
 3616 099e 0B       		.uleb128 0xb
 3617 099f B1190000 		.4byte	.LASF323
 3618 09a3 9702     		.sleb128 279
 3619 09a5 0B       		.uleb128 0xb
 3620 09a6 42040000 		.4byte	.LASF324
 3621 09aa 9802     		.sleb128 280
 3622 09ac 0B       		.uleb128 0xb
 3623 09ad 66190000 		.4byte	.LASF325
 3624 09b1 9902     		.sleb128 281
 3625 09b3 0B       		.uleb128 0xb
 3626 09b4 501C0000 		.4byte	.LASF326
 3627 09b8 9A02     		.sleb128 282
 3628 09ba 0B       		.uleb128 0xb
 3629 09bb 40020000 		.4byte	.LASF327
 3630 09bf 9B02     		.sleb128 283
 3631 09c1 0B       		.uleb128 0xb
 3632 09c2 41080000 		.4byte	.LASF328
 3633 09c6 9C02     		.sleb128 284
 3634 09c8 0B       		.uleb128 0xb
 3635 09c9 AF170000 		.4byte	.LASF329
 3636 09cd 9D02     		.sleb128 285
ARM GAS  C:\Users\AHMED~1.ELE\AppData\Local\Temp\ccfMkwD6.s 			page 77


 3637 09cf 0B       		.uleb128 0xb
 3638 09d0 E0140000 		.4byte	.LASF330
 3639 09d4 9E02     		.sleb128 286
 3640 09d6 0B       		.uleb128 0xb
 3641 09d7 FE000000 		.4byte	.LASF331
 3642 09db 9F02     		.sleb128 287
 3643 09dd 0B       		.uleb128 0xb
 3644 09de C2250000 		.4byte	.LASF332
 3645 09e2 A002     		.sleb128 288
 3646 09e4 0B       		.uleb128 0xb
 3647 09e5 20040000 		.4byte	.LASF333
 3648 09e9 A102     		.sleb128 289
 3649 09eb 0B       		.uleb128 0xb
 3650 09ec 8B1D0000 		.4byte	.LASF334
 3651 09f0 A202     		.sleb128 290
 3652 09f2 0B       		.uleb128 0xb
 3653 09f3 86280000 		.4byte	.LASF335
 3654 09f7 A302     		.sleb128 291
 3655 09f9 0B       		.uleb128 0xb
 3656 09fa 23220000 		.4byte	.LASF336
 3657 09fe A402     		.sleb128 292
 3658 0a00 0B       		.uleb128 0xb
 3659 0a01 FB160000 		.4byte	.LASF337
 3660 0a05 A502     		.sleb128 293
 3661 0a07 0B       		.uleb128 0xb
 3662 0a08 382B0000 		.4byte	.LASF338
 3663 0a0c A602     		.sleb128 294
 3664 0a0e 0B       		.uleb128 0xb
 3665 0a0f 0D230000 		.4byte	.LASF339
 3666 0a13 A702     		.sleb128 295
 3667 0a15 0B       		.uleb128 0xb
 3668 0a16 95200000 		.4byte	.LASF340
 3669 0a1a A802     		.sleb128 296
 3670 0a1c 0B       		.uleb128 0xb
 3671 0a1d 371A0000 		.4byte	.LASF341
 3672 0a21 A902     		.sleb128 297
 3673 0a23 0B       		.uleb128 0xb
 3674 0a24 AD010000 		.4byte	.LASF342
 3675 0a28 AA02     		.sleb128 298
 3676 0a2a 0B       		.uleb128 0xb
 3677 0a2b 44000000 		.4byte	.LASF343
 3678 0a2f AB02     		.sleb128 299
 3679 0a31 0B       		.uleb128 0xb
 3680 0a32 211E0000 		.4byte	.LASF344
 3681 0a36 AC02     		.sleb128 300
 3682 0a38 0B       		.uleb128 0xb
 3683 0a39 3C110000 		.4byte	.LASF345
 3684 0a3d AD02     		.sleb128 301
 3685 0a3f 0B       		.uleb128 0xb
 3686 0a40 2D0A0000 		.4byte	.LASF346
 3687 0a44 AE02     		.sleb128 302
 3688 0a46 0B       		.uleb128 0xb
 3689 0a47 1B090000 		.4byte	.LASF347
 3690 0a4b AF02     		.sleb128 303
 3691 0a4d 0B       		.uleb128 0xb
 3692 0a4e 18170000 		.4byte	.LASF348
 3693 0a52 B002     		.sleb128 304
ARM GAS  C:\Users\AHMED~1.ELE\AppData\Local\Temp\ccfMkwD6.s 			page 78


 3694 0a54 0B       		.uleb128 0xb
 3695 0a55 FA300000 		.4byte	.LASF349
 3696 0a59 B102     		.sleb128 305
 3697 0a5b 0B       		.uleb128 0xb
 3698 0a5c C02D0000 		.4byte	.LASF350
 3699 0a60 B202     		.sleb128 306
 3700 0a62 0B       		.uleb128 0xb
 3701 0a63 81120000 		.4byte	.LASF351
 3702 0a67 B302     		.sleb128 307
 3703 0a69 0B       		.uleb128 0xb
 3704 0a6a D71B0000 		.4byte	.LASF352
 3705 0a6e B402     		.sleb128 308
 3706 0a70 0B       		.uleb128 0xb
 3707 0a71 251F0000 		.4byte	.LASF353
 3708 0a75 B502     		.sleb128 309
 3709 0a77 0B       		.uleb128 0xb
 3710 0a78 9E090000 		.4byte	.LASF354
 3711 0a7c B602     		.sleb128 310
 3712 0a7e 0B       		.uleb128 0xb
 3713 0a7f 8B290000 		.4byte	.LASF355
 3714 0a83 B702     		.sleb128 311
 3715 0a85 0B       		.uleb128 0xb
 3716 0a86 A91E0000 		.4byte	.LASF356
 3717 0a8a B802     		.sleb128 312
 3718 0a8c 0B       		.uleb128 0xb
 3719 0a8d D3280000 		.4byte	.LASF357
 3720 0a91 B902     		.sleb128 313
 3721 0a93 0B       		.uleb128 0xb
 3722 0a94 D01E0000 		.4byte	.LASF358
 3723 0a98 BA02     		.sleb128 314
 3724 0a9a 0B       		.uleb128 0xb
 3725 0a9b F9200000 		.4byte	.LASF359
 3726 0a9f BB02     		.sleb128 315
 3727 0aa1 0B       		.uleb128 0xb
 3728 0aa2 40010000 		.4byte	.LASF360
 3729 0aa6 BC02     		.sleb128 316
 3730 0aa8 0B       		.uleb128 0xb
 3731 0aa9 3F310000 		.4byte	.LASF361
 3732 0aad BD02     		.sleb128 317
 3733 0aaf 0B       		.uleb128 0xb
 3734 0ab0 74310000 		.4byte	.LASF362
 3735 0ab4 BE02     		.sleb128 318
 3736 0ab6 0B       		.uleb128 0xb
 3737 0ab7 D1210000 		.4byte	.LASF363
 3738 0abb BF02     		.sleb128 319
 3739 0abd 0B       		.uleb128 0xb
 3740 0abe 93120000 		.4byte	.LASF364
 3741 0ac2 C002     		.sleb128 320
 3742 0ac4 0B       		.uleb128 0xb
 3743 0ac5 242F0000 		.4byte	.LASF365
 3744 0ac9 C102     		.sleb128 321
 3745 0acb 0B       		.uleb128 0xb
 3746 0acc 0D050000 		.4byte	.LASF366
 3747 0ad0 C202     		.sleb128 322
 3748 0ad2 0B       		.uleb128 0xb
 3749 0ad3 62010000 		.4byte	.LASF367
 3750 0ad7 C302     		.sleb128 323
ARM GAS  C:\Users\AHMED~1.ELE\AppData\Local\Temp\ccfMkwD6.s 			page 79


 3751 0ad9 0B       		.uleb128 0xb
 3752 0ada 12000000 		.4byte	.LASF368
 3753 0ade C402     		.sleb128 324
 3754 0ae0 0B       		.uleb128 0xb
 3755 0ae1 D4220000 		.4byte	.LASF369
 3756 0ae5 C502     		.sleb128 325
 3757 0ae7 0B       		.uleb128 0xb
 3758 0ae8 2E070000 		.4byte	.LASF370
 3759 0aec C602     		.sleb128 326
 3760 0aee 0B       		.uleb128 0xb
 3761 0aef 500F0000 		.4byte	.LASF371
 3762 0af3 C702     		.sleb128 327
 3763 0af5 0B       		.uleb128 0xb
 3764 0af6 89080000 		.4byte	.LASF372
 3765 0afa C802     		.sleb128 328
 3766 0afc 0B       		.uleb128 0xb
 3767 0afd 96270000 		.4byte	.LASF373
 3768 0b01 C902     		.sleb128 329
 3769 0b03 0B       		.uleb128 0xb
 3770 0b04 4C260000 		.4byte	.LASF374
 3771 0b08 CA02     		.sleb128 330
 3772 0b0a 0B       		.uleb128 0xb
 3773 0b0b 0C290000 		.4byte	.LASF375
 3774 0b0f CB02     		.sleb128 331
 3775 0b11 0B       		.uleb128 0xb
 3776 0b12 3C050000 		.4byte	.LASF376
 3777 0b16 CC02     		.sleb128 332
 3778 0b18 0B       		.uleb128 0xb
 3779 0b19 121A0000 		.4byte	.LASF377
 3780 0b1d CD02     		.sleb128 333
 3781 0b1f 0B       		.uleb128 0xb
 3782 0b20 BB1C0000 		.4byte	.LASF378
 3783 0b24 CE02     		.sleb128 334
 3784 0b26 0B       		.uleb128 0xb
 3785 0b27 502F0000 		.4byte	.LASF379
 3786 0b2b CF02     		.sleb128 335
 3787 0b2d 0B       		.uleb128 0xb
 3788 0b2e 181B0000 		.4byte	.LASF380
 3789 0b32 D002     		.sleb128 336
 3790 0b34 0B       		.uleb128 0xb
 3791 0b35 E40C0000 		.4byte	.LASF381
 3792 0b39 D102     		.sleb128 337
 3793 0b3b 0B       		.uleb128 0xb
 3794 0b3c E6100000 		.4byte	.LASF382
 3795 0b40 D202     		.sleb128 338
 3796 0b42 0B       		.uleb128 0xb
 3797 0b43 A0170000 		.4byte	.LASF383
 3798 0b47 D302     		.sleb128 339
 3799 0b49 0B       		.uleb128 0xb
 3800 0b4a CD070000 		.4byte	.LASF384
 3801 0b4e D402     		.sleb128 340
 3802 0b50 0B       		.uleb128 0xb
 3803 0b51 4D1E0000 		.4byte	.LASF385
 3804 0b55 D502     		.sleb128 341
 3805 0b57 0B       		.uleb128 0xb
 3806 0b58 5D1F0000 		.4byte	.LASF386
 3807 0b5c D602     		.sleb128 342
ARM GAS  C:\Users\AHMED~1.ELE\AppData\Local\Temp\ccfMkwD6.s 			page 80


 3808 0b5e 0B       		.uleb128 0xb
 3809 0b5f 5A1A0000 		.4byte	.LASF387
 3810 0b63 D702     		.sleb128 343
 3811 0b65 0B       		.uleb128 0xb
 3812 0b66 FA180000 		.4byte	.LASF388
 3813 0b6a D802     		.sleb128 344
 3814 0b6c 0B       		.uleb128 0xb
 3815 0b6d 57210000 		.4byte	.LASF389
 3816 0b71 D902     		.sleb128 345
 3817 0b73 0B       		.uleb128 0xb
 3818 0b74 A5230000 		.4byte	.LASF390
 3819 0b78 DA02     		.sleb128 346
 3820 0b7a 0B       		.uleb128 0xb
 3821 0b7b 4A1F0000 		.4byte	.LASF391
 3822 0b7f DB02     		.sleb128 347
 3823 0b81 0B       		.uleb128 0xb
 3824 0b82 49170000 		.4byte	.LASF392
 3825 0b86 DC02     		.sleb128 348
 3826 0b88 0B       		.uleb128 0xb
 3827 0b89 0D200000 		.4byte	.LASF393
 3828 0b8d DD02     		.sleb128 349
 3829 0b8f 0B       		.uleb128 0xb
 3830 0b90 32190000 		.4byte	.LASF394
 3831 0b94 DE02     		.sleb128 350
 3832 0b96 0B       		.uleb128 0xb
 3833 0b97 DC270000 		.4byte	.LASF395
 3834 0b9b DF02     		.sleb128 351
 3835 0b9d 0B       		.uleb128 0xb
 3836 0b9e 62020000 		.4byte	.LASF396
 3837 0ba2 E002     		.sleb128 352
 3838 0ba4 0B       		.uleb128 0xb
 3839 0ba5 2C240000 		.4byte	.LASF397
 3840 0ba9 E102     		.sleb128 353
 3841 0bab 0B       		.uleb128 0xb
 3842 0bac 56280000 		.4byte	.LASF398
 3843 0bb0 E202     		.sleb128 354
 3844 0bb2 0B       		.uleb128 0xb
 3845 0bb3 81140000 		.4byte	.LASF399
 3846 0bb7 E302     		.sleb128 355
 3847 0bb9 0B       		.uleb128 0xb
 3848 0bba D7130000 		.4byte	.LASF400
 3849 0bbe E402     		.sleb128 356
 3850 0bc0 0B       		.uleb128 0xb
 3851 0bc1 0B0E0000 		.4byte	.LASF401
 3852 0bc5 E502     		.sleb128 357
 3853 0bc7 0B       		.uleb128 0xb
 3854 0bc8 D9110000 		.4byte	.LASF402
 3855 0bcc E602     		.sleb128 358
 3856 0bce 0B       		.uleb128 0xb
 3857 0bcf 28310000 		.4byte	.LASF403
 3858 0bd3 E702     		.sleb128 359
 3859 0bd5 0B       		.uleb128 0xb
 3860 0bd6 6F2A0000 		.4byte	.LASF404
 3861 0bda E802     		.sleb128 360
 3862 0bdc 0B       		.uleb128 0xb
 3863 0bdd E0180000 		.4byte	.LASF405
 3864 0be1 E902     		.sleb128 361
ARM GAS  C:\Users\AHMED~1.ELE\AppData\Local\Temp\ccfMkwD6.s 			page 81


 3865 0be3 0B       		.uleb128 0xb
 3866 0be4 74270000 		.4byte	.LASF406
 3867 0be8 EA02     		.sleb128 362
 3868 0bea 0B       		.uleb128 0xb
 3869 0beb F40E0000 		.4byte	.LASF407
 3870 0bef EB02     		.sleb128 363
 3871 0bf1 0B       		.uleb128 0xb
 3872 0bf2 B1180000 		.4byte	.LASF408
 3873 0bf6 EC02     		.sleb128 364
 3874 0bf8 0B       		.uleb128 0xb
 3875 0bf9 C12C0000 		.4byte	.LASF409
 3876 0bfd ED02     		.sleb128 365
 3877 0bff 0B       		.uleb128 0xb
 3878 0c00 922C0000 		.4byte	.LASF410
 3879 0c04 EE02     		.sleb128 366
 3880 0c06 0B       		.uleb128 0xb
 3881 0c07 F8050000 		.4byte	.LASF411
 3882 0c0b EF02     		.sleb128 367
 3883 0c0d 0B       		.uleb128 0xb
 3884 0c0e 4F0D0000 		.4byte	.LASF412
 3885 0c12 F002     		.sleb128 368
 3886 0c14 0B       		.uleb128 0xb
 3887 0c15 79250000 		.4byte	.LASF413
 3888 0c19 F102     		.sleb128 369
 3889 0c1b 0B       		.uleb128 0xb
 3890 0c1c A5240000 		.4byte	.LASF414
 3891 0c20 F202     		.sleb128 370
 3892 0c22 0B       		.uleb128 0xb
 3893 0c23 320F0000 		.4byte	.LASF415
 3894 0c27 F302     		.sleb128 371
 3895 0c29 0B       		.uleb128 0xb
 3896 0c2a 571D0000 		.4byte	.LASF416
 3897 0c2e F402     		.sleb128 372
 3898 0c30 0B       		.uleb128 0xb
 3899 0c31 730E0000 		.4byte	.LASF417
 3900 0c35 F502     		.sleb128 373
 3901 0c37 0B       		.uleb128 0xb
 3902 0c38 322C0000 		.4byte	.LASF418
 3903 0c3c F602     		.sleb128 374
 3904 0c3e 0B       		.uleb128 0xb
 3905 0c3f BA070000 		.4byte	.LASF419
 3906 0c43 F702     		.sleb128 375
 3907 0c45 0B       		.uleb128 0xb
 3908 0c46 822F0000 		.4byte	.LASF420
 3909 0c4a F802     		.sleb128 376
 3910 0c4c 0B       		.uleb128 0xb
 3911 0c4d 28140000 		.4byte	.LASF421
 3912 0c51 F902     		.sleb128 377
 3913 0c53 0B       		.uleb128 0xb
 3914 0c54 77190000 		.4byte	.LASF422
 3915 0c58 FA02     		.sleb128 378
 3916 0c5a 0B       		.uleb128 0xb
 3917 0c5b 8B250000 		.4byte	.LASF423
 3918 0c5f FB02     		.sleb128 379
 3919 0c61 0B       		.uleb128 0xb
 3920 0c62 AD210000 		.4byte	.LASF424
 3921 0c66 FC02     		.sleb128 380
ARM GAS  C:\Users\AHMED~1.ELE\AppData\Local\Temp\ccfMkwD6.s 			page 82


 3922 0c68 0B       		.uleb128 0xb
 3923 0c69 0D1C0000 		.4byte	.LASF425
 3924 0c6d FD02     		.sleb128 381
 3925 0c6f 0B       		.uleb128 0xb
 3926 0c70 65250000 		.4byte	.LASF426
 3927 0c74 FE02     		.sleb128 382
 3928 0c76 0B       		.uleb128 0xb
 3929 0c77 A8050000 		.4byte	.LASF427
 3930 0c7b FF02     		.sleb128 383
 3931 0c7d 0B       		.uleb128 0xb
 3932 0c7e 58200000 		.4byte	.LASF428
 3933 0c82 8003     		.sleb128 384
 3934 0c84 0B       		.uleb128 0xb
 3935 0c85 8A100000 		.4byte	.LASF429
 3936 0c89 8103     		.sleb128 385
 3937 0c8b 0B       		.uleb128 0xb
 3938 0c8c 542B0000 		.4byte	.LASF430
 3939 0c90 8203     		.sleb128 386
 3940 0c92 0B       		.uleb128 0xb
 3941 0c93 24150000 		.4byte	.LASF431
 3942 0c97 8303     		.sleb128 387
 3943 0c99 0B       		.uleb128 0xb
 3944 0c9a 51090000 		.4byte	.LASF432
 3945 0c9e 8403     		.sleb128 388
 3946 0ca0 0B       		.uleb128 0xb
 3947 0ca1 6D180000 		.4byte	.LASF433
 3948 0ca5 8503     		.sleb128 389
 3949 0ca7 0B       		.uleb128 0xb
 3950 0ca8 A1060000 		.4byte	.LASF434
 3951 0cac 8603     		.sleb128 390
 3952 0cae 0B       		.uleb128 0xb
 3953 0caf 9B0A0000 		.4byte	.LASF435
 3954 0cb3 8703     		.sleb128 391
 3955 0cb5 0B       		.uleb128 0xb
 3956 0cb6 F71E0000 		.4byte	.LASF436
 3957 0cba 8803     		.sleb128 392
 3958 0cbc 0B       		.uleb128 0xb
 3959 0cbd 860C0000 		.4byte	.LASF437
 3960 0cc1 8903     		.sleb128 393
 3961 0cc3 0B       		.uleb128 0xb
 3962 0cc4 1F300000 		.4byte	.LASF438
 3963 0cc8 8A03     		.sleb128 394
 3964 0cca 0B       		.uleb128 0xb
 3965 0ccb AA220000 		.4byte	.LASF439
 3966 0ccf 8B03     		.sleb128 395
 3967 0cd1 0B       		.uleb128 0xb
 3968 0cd2 0E270000 		.4byte	.LASF440
 3969 0cd6 8C03     		.sleb128 396
 3970 0cd8 0B       		.uleb128 0xb
 3971 0cd9 8B2A0000 		.4byte	.LASF441
 3972 0cdd 8D03     		.sleb128 397
 3973 0cdf 0B       		.uleb128 0xb
 3974 0ce0 C8000000 		.4byte	.LASF442
 3975 0ce4 8E03     		.sleb128 398
 3976 0ce6 0B       		.uleb128 0xb
 3977 0ce7 3A1D0000 		.4byte	.LASF443
 3978 0ceb 8F03     		.sleb128 399
ARM GAS  C:\Users\AHMED~1.ELE\AppData\Local\Temp\ccfMkwD6.s 			page 83


 3979 0ced 0B       		.uleb128 0xb
 3980 0cee 2F110000 		.4byte	.LASF444
 3981 0cf2 9003     		.sleb128 400
 3982 0cf4 0B       		.uleb128 0xb
 3983 0cf5 E4290000 		.4byte	.LASF445
 3984 0cf9 9103     		.sleb128 401
 3985 0cfb 0B       		.uleb128 0xb
 3986 0cfc 13100000 		.4byte	.LASF446
 3987 0d00 9203     		.sleb128 402
 3988 0d02 0B       		.uleb128 0xb
 3989 0d03 631C0000 		.4byte	.LASF447
 3990 0d07 9303     		.sleb128 403
 3991 0d09 0B       		.uleb128 0xb
 3992 0d0a 4A200000 		.4byte	.LASF448
 3993 0d0e 9403     		.sleb128 404
 3994 0d10 0B       		.uleb128 0xb
 3995 0d11 06060000 		.4byte	.LASF449
 3996 0d15 9503     		.sleb128 405
 3997 0d17 0B       		.uleb128 0xb
 3998 0d18 1C240000 		.4byte	.LASF450
 3999 0d1c 9603     		.sleb128 406
 4000 0d1e 0B       		.uleb128 0xb
 4001 0d1f 96050000 		.4byte	.LASF451
 4002 0d23 9703     		.sleb128 407
 4003 0d25 0B       		.uleb128 0xb
 4004 0d26 D0140000 		.4byte	.LASF452
 4005 0d2a 9803     		.sleb128 408
 4006 0d2c 0B       		.uleb128 0xb
 4007 0d2d C31D0000 		.4byte	.LASF453
 4008 0d31 9903     		.sleb128 409
 4009 0d33 0B       		.uleb128 0xb
 4010 0d34 25210000 		.4byte	.LASF454
 4011 0d38 9A03     		.sleb128 410
 4012 0d3a 0B       		.uleb128 0xb
 4013 0d3b 56000000 		.4byte	.LASF455
 4014 0d3f 9B03     		.sleb128 411
 4015 0d41 0B       		.uleb128 0xb
 4016 0d42 6E160000 		.4byte	.LASF456
 4017 0d46 9C03     		.sleb128 412
 4018 0d48 0B       		.uleb128 0xb
 4019 0d49 79110000 		.4byte	.LASF457
 4020 0d4d 9D03     		.sleb128 413
 4021 0d4f 0B       		.uleb128 0xb
 4022 0d50 001E0000 		.4byte	.LASF458
 4023 0d54 9E03     		.sleb128 414
 4024 0d56 0B       		.uleb128 0xb
 4025 0d57 48290000 		.4byte	.LASF459
 4026 0d5b 9F03     		.sleb128 415
 4027 0d5d 0B       		.uleb128 0xb
 4028 0d5e A10D0000 		.4byte	.LASF460
 4029 0d62 A003     		.sleb128 416
 4030 0d64 0B       		.uleb128 0xb
 4031 0d65 51120000 		.4byte	.LASF461
 4032 0d69 A103     		.sleb128 417
 4033 0d6b 0B       		.uleb128 0xb
 4034 0d6c 210A0000 		.4byte	.LASF462
 4035 0d70 A203     		.sleb128 418
ARM GAS  C:\Users\AHMED~1.ELE\AppData\Local\Temp\ccfMkwD6.s 			page 84


 4036 0d72 0B       		.uleb128 0xb
 4037 0d73 650B0000 		.4byte	.LASF463
 4038 0d77 A303     		.sleb128 419
 4039 0d79 0B       		.uleb128 0xb
 4040 0d7a 2C030000 		.4byte	.LASF464
 4041 0d7e A403     		.sleb128 420
 4042 0d80 0B       		.uleb128 0xb
 4043 0d81 EF1B0000 		.4byte	.LASF465
 4044 0d85 A503     		.sleb128 421
 4045 0d87 0B       		.uleb128 0xb
 4046 0d88 5B2D0000 		.4byte	.LASF466
 4047 0d8c A603     		.sleb128 422
 4048 0d8e 0B       		.uleb128 0xb
 4049 0d8f C4040000 		.4byte	.LASF467
 4050 0d93 A703     		.sleb128 423
 4051 0d95 0B       		.uleb128 0xb
 4052 0d96 29180000 		.4byte	.LASF468
 4053 0d9a A803     		.sleb128 424
 4054 0d9c 0B       		.uleb128 0xb
 4055 0d9d 7C020000 		.4byte	.LASF469
 4056 0da1 A903     		.sleb128 425
 4057 0da3 0B       		.uleb128 0xb
 4058 0da4 FA060000 		.4byte	.LASF470
 4059 0da8 AA03     		.sleb128 426
 4060 0daa 0B       		.uleb128 0xb
 4061 0dab 8D300000 		.4byte	.LASF471
 4062 0daf AB03     		.sleb128 427
 4063 0db1 0B       		.uleb128 0xb
 4064 0db2 31200000 		.4byte	.LASF472
 4065 0db6 AC03     		.sleb128 428
 4066 0db8 0B       		.uleb128 0xb
 4067 0db9 CE100000 		.4byte	.LASF473
 4068 0dbd AD03     		.sleb128 429
 4069 0dbf 0B       		.uleb128 0xb
 4070 0dc0 B61B0000 		.4byte	.LASF474
 4071 0dc4 AE03     		.sleb128 430
 4072 0dc6 0B       		.uleb128 0xb
 4073 0dc7 C12F0000 		.4byte	.LASF475
 4074 0dcb AF03     		.sleb128 431
 4075 0dcd 0B       		.uleb128 0xb
 4076 0dce 7C0D0000 		.4byte	.LASF476
 4077 0dd2 B003     		.sleb128 432
 4078 0dd4 0B       		.uleb128 0xb
 4079 0dd5 76070000 		.4byte	.LASF477
 4080 0dd9 B103     		.sleb128 433
 4081 0ddb 0B       		.uleb128 0xb
 4082 0ddc EF1A0000 		.4byte	.LASF478
 4083 0de0 B203     		.sleb128 434
 4084 0de2 0B       		.uleb128 0xb
 4085 0de3 06120000 		.4byte	.LASF479
 4086 0de7 B303     		.sleb128 435
 4087 0de9 0B       		.uleb128 0xb
 4088 0dea 811B0000 		.4byte	.LASF480
 4089 0dee B403     		.sleb128 436
 4090 0df0 0B       		.uleb128 0xb
 4091 0df1 52070000 		.4byte	.LASF481
 4092 0df5 B503     		.sleb128 437
ARM GAS  C:\Users\AHMED~1.ELE\AppData\Local\Temp\ccfMkwD6.s 			page 85


 4093 0df7 0B       		.uleb128 0xb
 4094 0df8 390E0000 		.4byte	.LASF482
 4095 0dfc B603     		.sleb128 438
 4096 0dfe 0B       		.uleb128 0xb
 4097 0dff 31170000 		.4byte	.LASF483
 4098 0e03 B703     		.sleb128 439
 4099 0e05 0B       		.uleb128 0xb
 4100 0e06 CA0E0000 		.4byte	.LASF484
 4101 0e0a B803     		.sleb128 440
 4102 0e0c 0B       		.uleb128 0xb
 4103 0e0d 35290000 		.4byte	.LASF485
 4104 0e11 B903     		.sleb128 441
 4105 0e13 0B       		.uleb128 0xb
 4106 0e14 5A240000 		.4byte	.LASF486
 4107 0e18 BA03     		.sleb128 442
 4108 0e1a 0B       		.uleb128 0xb
 4109 0e1b C2270000 		.4byte	.LASF487
 4110 0e1f BB03     		.sleb128 443
 4111 0e21 0B       		.uleb128 0xb
 4112 0e22 73080000 		.4byte	.LASF488
 4113 0e26 BC03     		.sleb128 444
 4114 0e28 0B       		.uleb128 0xb
 4115 0e29 691E0000 		.4byte	.LASF489
 4116 0e2d BD03     		.sleb128 445
 4117 0e2f 0B       		.uleb128 0xb
 4118 0e30 32160000 		.4byte	.LASF490
 4119 0e34 BE03     		.sleb128 446
 4120 0e36 0B       		.uleb128 0xb
 4121 0e37 82010000 		.4byte	.LASF491
 4122 0e3b BF03     		.sleb128 447
 4123 0e3d 0B       		.uleb128 0xb
 4124 0e3e A00E0000 		.4byte	.LASF492
 4125 0e42 C003     		.sleb128 448
 4126 0e44 0B       		.uleb128 0xb
 4127 0e45 A7100000 		.4byte	.LASF493
 4128 0e49 C103     		.sleb128 449
 4129 0e4b 0B       		.uleb128 0xb
 4130 0e4c 532A0000 		.4byte	.LASF494
 4131 0e50 C203     		.sleb128 450
 4132 0e52 0B       		.uleb128 0xb
 4133 0e53 AC2A0000 		.4byte	.LASF495
 4134 0e57 C303     		.sleb128 451
 4135 0e59 0B       		.uleb128 0xb
 4136 0e5a A9040000 		.4byte	.LASF496
 4137 0e5e C403     		.sleb128 452
 4138 0e60 0B       		.uleb128 0xb
 4139 0e61 96020000 		.4byte	.LASF497
 4140 0e65 C503     		.sleb128 453
 4141 0e67 0B       		.uleb128 0xb
 4142 0e68 E92A0000 		.4byte	.LASF498
 4143 0e6c C603     		.sleb128 454
 4144 0e6e 0B       		.uleb128 0xb
 4145 0e6f 48140000 		.4byte	.LASF499
 4146 0e73 C703     		.sleb128 455
 4147 0e75 0B       		.uleb128 0xb
 4148 0e76 D42E0000 		.4byte	.LASF500
 4149 0e7a C803     		.sleb128 456
ARM GAS  C:\Users\AHMED~1.ELE\AppData\Local\Temp\ccfMkwD6.s 			page 86


 4150 0e7c 0B       		.uleb128 0xb
 4151 0e7d F6090000 		.4byte	.LASF501
 4152 0e81 C903     		.sleb128 457
 4153 0e83 0B       		.uleb128 0xb
 4154 0e84 2C1C0000 		.4byte	.LASF502
 4155 0e88 CA03     		.sleb128 458
 4156 0e8a 0B       		.uleb128 0xb
 4157 0e8b 74210000 		.4byte	.LASF503
 4158 0e8f CB03     		.sleb128 459
 4159 0e91 0B       		.uleb128 0xb
 4160 0e92 D9160000 		.4byte	.LASF504
 4161 0e96 CC03     		.sleb128 460
 4162 0e98 0B       		.uleb128 0xb
 4163 0e99 B7030000 		.4byte	.LASF505
 4164 0e9d CD03     		.sleb128 461
 4165 0e9f 0B       		.uleb128 0xb
 4166 0ea0 A0290000 		.4byte	.LASF506
 4167 0ea4 CE03     		.sleb128 462
 4168 0ea6 0B       		.uleb128 0xb
 4169 0ea7 EA010000 		.4byte	.LASF507
 4170 0eab CF03     		.sleb128 463
 4171 0ead 0B       		.uleb128 0xb
 4172 0eae 71100000 		.4byte	.LASF508
 4173 0eb2 D003     		.sleb128 464
 4174 0eb4 0B       		.uleb128 0xb
 4175 0eb5 A9130000 		.4byte	.LASF509
 4176 0eb9 D103     		.sleb128 465
 4177 0ebb 0B       		.uleb128 0xb
 4178 0ebc F82B0000 		.4byte	.LASF510
 4179 0ec0 D203     		.sleb128 466
 4180 0ec2 0B       		.uleb128 0xb
 4181 0ec3 6D240000 		.4byte	.LASF511
 4182 0ec7 D303     		.sleb128 467
 4183 0ec9 0B       		.uleb128 0xb
 4184 0eca F2020000 		.4byte	.LASF512
 4185 0ece D403     		.sleb128 468
 4186 0ed0 0B       		.uleb128 0xb
 4187 0ed1 B6080000 		.4byte	.LASF513
 4188 0ed5 D503     		.sleb128 469
 4189 0ed7 0B       		.uleb128 0xb
 4190 0ed8 8B230000 		.4byte	.LASF514
 4191 0edc D603     		.sleb128 470
 4192 0ede 0B       		.uleb128 0xb
 4193 0edf 26020000 		.4byte	.LASF515
 4194 0ee3 D703     		.sleb128 471
 4195 0ee5 0B       		.uleb128 0xb
 4196 0ee6 D31F0000 		.4byte	.LASF516
 4197 0eea D803     		.sleb128 472
 4198 0eec 00       		.byte	0
 4199 0eed 08       		.uleb128 0x8
 4200 0eee A2000000 		.4byte	0xa2
 4201 0ef2 FD0E0000 		.4byte	0xefd
 4202 0ef6 09       		.uleb128 0x9
 4203 0ef7 76000000 		.4byte	0x76
 4204 0efb 06       		.byte	0x6
 4205 0efc 00       		.byte	0
 4206 0efd 06       		.uleb128 0x6
ARM GAS  C:\Users\AHMED~1.ELE\AppData\Local\Temp\ccfMkwD6.s 			page 87


 4207 0efe 04       		.byte	0x4
 4208 0eff 030F0000 		.4byte	0xf03
 4209 0f03 0D       		.uleb128 0xd
 4210 0f04 08       		.uleb128 0x8
 4211 0f05 A2000000 		.4byte	0xa2
 4212 0f09 140F0000 		.4byte	0xf14
 4213 0f0d 09       		.uleb128 0x9
 4214 0f0e 76000000 		.4byte	0x76
 4215 0f12 05       		.byte	0x5
 4216 0f13 00       		.byte	0
 4217 0f14 0E       		.uleb128 0xe
 4218 0f15 02       		.byte	0x2
 4219 0f16 05       		.byte	0x5
 4220 0f17 DD18     		.2byte	0x18dd
 4221 0f19 3D0F0000 		.4byte	0xf3d
 4222 0f1d 0B       		.uleb128 0xb
 4223 0f1e 14110000 		.4byte	.LASF517
 4224 0f22 00       		.sleb128 0
 4225 0f23 0B       		.uleb128 0xb
 4226 0f24 B4280000 		.4byte	.LASF518
 4227 0f28 01       		.sleb128 1
 4228 0f29 0B       		.uleb128 0xb
 4229 0f2a A02E0000 		.4byte	.LASF519
 4230 0f2e 02       		.sleb128 2
 4231 0f2f 0B       		.uleb128 0xb
 4232 0f30 52040000 		.4byte	.LASF520
 4233 0f34 03       		.sleb128 3
 4234 0f35 0B       		.uleb128 0xb
 4235 0f36 A50B0000 		.4byte	.LASF521
 4236 0f3a 8002     		.sleb128 256
 4237 0f3c 00       		.byte	0
 4238 0f3d 0F       		.uleb128 0xf
 4239 0f3e 26100000 		.4byte	.LASF524
 4240 0f42 A0       		.byte	0xa0
 4241 0f43 06       		.byte	0x6
 4242 0f44 3002     		.2byte	0x230
 4243 0f46 650F0000 		.4byte	0xf65
 4244 0f4a 10       		.uleb128 0x10
 4245 0f4b 39310000 		.4byte	.LASF522
 4246 0f4f 06       		.byte	0x6
 4247 0f50 3102     		.2byte	0x231
 4248 0f52 A2000000 		.4byte	0xa2
 4249 0f56 00       		.byte	0
 4250 0f57 10       		.uleb128 0x10
 4251 0f58 DC050000 		.4byte	.LASF523
 4252 0f5c 06       		.byte	0x6
 4253 0f5d 3202     		.2byte	0x232
 4254 0f5f 650F0000 		.4byte	0xf65
 4255 0f63 01       		.byte	0x1
 4256 0f64 00       		.byte	0
 4257 0f65 08       		.uleb128 0x8
 4258 0f66 A2000000 		.4byte	0xa2
 4259 0f6a 750F0000 		.4byte	0xf75
 4260 0f6e 09       		.uleb128 0x9
 4261 0f6f 76000000 		.4byte	0x76
 4262 0f73 9D       		.byte	0x9d
 4263 0f74 00       		.byte	0
ARM GAS  C:\Users\AHMED~1.ELE\AppData\Local\Temp\ccfMkwD6.s 			page 88


 4264 0f75 0F       		.uleb128 0xf
 4265 0f76 B5140000 		.4byte	.LASF525
 4266 0f7a 54       		.byte	0x54
 4267 0f7b 06       		.byte	0x6
 4268 0f7c 3902     		.2byte	0x239
 4269 0f7e 9D0F0000 		.4byte	0xf9d
 4270 0f82 10       		.uleb128 0x10
 4271 0f83 39310000 		.4byte	.LASF522
 4272 0f87 06       		.byte	0x6
 4273 0f88 3A02     		.2byte	0x23a
 4274 0f8a A2000000 		.4byte	0xa2
 4275 0f8e 00       		.byte	0
 4276 0f8f 10       		.uleb128 0x10
 4277 0f90 DC050000 		.4byte	.LASF523
 4278 0f94 06       		.byte	0x6
 4279 0f95 3B02     		.2byte	0x23b
 4280 0f97 9D0F0000 		.4byte	0xf9d
 4281 0f9b 01       		.byte	0x1
 4282 0f9c 00       		.byte	0
 4283 0f9d 08       		.uleb128 0x8
 4284 0f9e A2000000 		.4byte	0xa2
 4285 0fa2 AD0F0000 		.4byte	0xfad
 4286 0fa6 09       		.uleb128 0x9
 4287 0fa7 76000000 		.4byte	0x76
 4288 0fab 4F       		.byte	0x4f
 4289 0fac 00       		.byte	0
 4290 0fad 0E       		.uleb128 0xe
 4291 0fae 01       		.byte	0x1
 4292 0faf 06       		.byte	0x6
 4293 0fb0 DC07     		.2byte	0x7dc
 4294 0fb2 FB100000 		.4byte	0x10fb
 4295 0fb6 0B       		.uleb128 0xb
 4296 0fb7 4C150000 		.4byte	.LASF526
 4297 0fbb 00       		.sleb128 0
 4298 0fbc 0B       		.uleb128 0xb
 4299 0fbd 9D250000 		.4byte	.LASF527
 4300 0fc1 01       		.sleb128 1
 4301 0fc2 0B       		.uleb128 0xb
 4302 0fc3 AB070000 		.4byte	.LASF528
 4303 0fc7 02       		.sleb128 2
 4304 0fc8 0B       		.uleb128 0xb
 4305 0fc9 6E060000 		.4byte	.LASF529
 4306 0fcd 03       		.sleb128 3
 4307 0fce 0B       		.uleb128 0xb
 4308 0fcf 9E300000 		.4byte	.LASF530
 4309 0fd3 04       		.sleb128 4
 4310 0fd4 0B       		.uleb128 0xb
 4311 0fd5 350B0000 		.4byte	.LASF531
 4312 0fd9 05       		.sleb128 5
 4313 0fda 0B       		.uleb128 0xb
 4314 0fdb B11A0000 		.4byte	.LASF532
 4315 0fdf 06       		.sleb128 6
 4316 0fe0 0B       		.uleb128 0xb
 4317 0fe1 2E120000 		.4byte	.LASF533
 4318 0fe5 07       		.sleb128 7
 4319 0fe6 0B       		.uleb128 0xb
 4320 0fe7 C40B0000 		.4byte	.LASF534
ARM GAS  C:\Users\AHMED~1.ELE\AppData\Local\Temp\ccfMkwD6.s 			page 89


 4321 0feb 08       		.sleb128 8
 4322 0fec 0B       		.uleb128 0xb
 4323 0fed 8F070000 		.4byte	.LASF535
 4324 0ff1 09       		.sleb128 9
 4325 0ff2 0B       		.uleb128 0xb
 4326 0ff3 23120000 		.4byte	.LASF536
 4327 0ff7 0A       		.sleb128 10
 4328 0ff8 0B       		.uleb128 0xb
 4329 0ff9 DC090000 		.4byte	.LASF537
 4330 0ffd 0B       		.sleb128 11
 4331 0ffe 0B       		.uleb128 0xb
 4332 0fff 5C190000 		.4byte	.LASF538
 4333 1003 0C       		.sleb128 12
 4334 1004 0B       		.uleb128 0xb
 4335 1005 7A010000 		.4byte	.LASF539
 4336 1009 0D       		.sleb128 13
 4337 100a 0B       		.uleb128 0xb
 4338 100b 86070000 		.4byte	.LASF540
 4339 100f 0E       		.sleb128 14
 4340 1010 0B       		.uleb128 0xb
 4341 1011 0E170000 		.4byte	.LASF541
 4342 1015 0F       		.sleb128 15
 4343 1016 0B       		.uleb128 0xb
 4344 1017 EE2D0000 		.4byte	.LASF542
 4345 101b 10       		.sleb128 16
 4346 101c 0B       		.uleb128 0xb
 4347 101d 7C2B0000 		.4byte	.LASF543
 4348 1021 11       		.sleb128 17
 4349 1022 0B       		.uleb128 0xb
 4350 1023 360C0000 		.4byte	.LASF544
 4351 1027 12       		.sleb128 18
 4352 1028 0B       		.uleb128 0xb
 4353 1029 6B230000 		.4byte	.LASF545
 4354 102d 13       		.sleb128 19
 4355 102e 0B       		.uleb128 0xb
 4356 102f D72F0000 		.4byte	.LASF546
 4357 1033 14       		.sleb128 20
 4358 1034 0B       		.uleb128 0xb
 4359 1035 4A0C0000 		.4byte	.LASF547
 4360 1039 15       		.sleb128 21
 4361 103a 0B       		.uleb128 0xb
 4362 103b 51180000 		.4byte	.LASF548
 4363 103f 16       		.sleb128 22
 4364 1040 0B       		.uleb128 0xb
 4365 1041 C10F0000 		.4byte	.LASF549
 4366 1045 17       		.sleb128 23
 4367 1046 0B       		.uleb128 0xb
 4368 1047 F1180000 		.4byte	.LASF550
 4369 104b 18       		.sleb128 24
 4370 104c 0B       		.uleb128 0xb
 4371 104d 1E150000 		.4byte	.LASF551
 4372 1051 19       		.sleb128 25
 4373 1052 0B       		.uleb128 0xb
 4374 1053 BA200000 		.4byte	.LASF552
 4375 1057 1A       		.sleb128 26
 4376 1058 0B       		.uleb128 0xb
 4377 1059 E41E0000 		.4byte	.LASF553
ARM GAS  C:\Users\AHMED~1.ELE\AppData\Local\Temp\ccfMkwD6.s 			page 90


 4378 105d 1B       		.sleb128 27
 4379 105e 0B       		.uleb128 0xb
 4380 105f 34040000 		.4byte	.LASF554
 4381 1063 1C       		.sleb128 28
 4382 1064 0B       		.uleb128 0xb
 4383 1065 7A2D0000 		.4byte	.LASF555
 4384 1069 1D       		.sleb128 29
 4385 106a 0B       		.uleb128 0xb
 4386 106b 970C0000 		.4byte	.LASF556
 4387 106f 1E       		.sleb128 30
 4388 1070 0B       		.uleb128 0xb
 4389 1071 78120000 		.4byte	.LASF557
 4390 1075 1F       		.sleb128 31
 4391 1076 0B       		.uleb128 0xb
 4392 1077 13260000 		.4byte	.LASF558
 4393 107b 20       		.sleb128 32
 4394 107c 0B       		.uleb128 0xb
 4395 107d 81300000 		.4byte	.LASF559
 4396 1081 21       		.sleb128 33
 4397 1082 0B       		.uleb128 0xb
 4398 1083 A2180000 		.4byte	.LASF560
 4399 1087 22       		.sleb128 34
 4400 1088 0B       		.uleb128 0xb
 4401 1089 6C0D0000 		.4byte	.LASF561
 4402 108d 23       		.sleb128 35
 4403 108e 0B       		.uleb128 0xb
 4404 108f 102E0000 		.4byte	.LASF562
 4405 1093 24       		.sleb128 36
 4406 1094 0B       		.uleb128 0xb
 4407 1095 DD0A0000 		.4byte	.LASF563
 4408 1099 25       		.sleb128 37
 4409 109a 0B       		.uleb128 0xb
 4410 109b A1010000 		.4byte	.LASF564
 4411 109f 26       		.sleb128 38
 4412 10a0 0B       		.uleb128 0xb
 4413 10a1 C72A0000 		.4byte	.LASF565
 4414 10a5 27       		.sleb128 39
 4415 10a6 0B       		.uleb128 0xb
 4416 10a7 201C0000 		.4byte	.LASF566
 4417 10ab 28       		.sleb128 40
 4418 10ac 0B       		.uleb128 0xb
 4419 10ad F11F0000 		.4byte	.LASF567
 4420 10b1 29       		.sleb128 41
 4421 10b2 0B       		.uleb128 0xb
 4422 10b3 2F1D0000 		.4byte	.LASF568
 4423 10b7 2A       		.sleb128 42
 4424 10b8 0B       		.uleb128 0xb
 4425 10b9 D90C0000 		.4byte	.LASF569
 4426 10bd 2B       		.sleb128 43
 4427 10be 0B       		.uleb128 0xb
 4428 10bf 08240000 		.4byte	.LASF570
 4429 10c3 2C       		.sleb128 44
 4430 10c4 0B       		.uleb128 0xb
 4431 10c5 63090000 		.4byte	.LASF571
 4432 10c9 2D       		.sleb128 45
 4433 10ca 0B       		.uleb128 0xb
 4434 10cb BE010000 		.4byte	.LASF572
ARM GAS  C:\Users\AHMED~1.ELE\AppData\Local\Temp\ccfMkwD6.s 			page 91


 4435 10cf 2E       		.sleb128 46
 4436 10d0 0B       		.uleb128 0xb
 4437 10d1 88160000 		.4byte	.LASF573
 4438 10d5 2F       		.sleb128 47
 4439 10d6 0B       		.uleb128 0xb
 4440 10d7 99220000 		.4byte	.LASF574
 4441 10db 30       		.sleb128 48
 4442 10dc 0B       		.uleb128 0xb
 4443 10dd DC120000 		.4byte	.LASF575
 4444 10e1 31       		.sleb128 49
 4445 10e2 0B       		.uleb128 0xb
 4446 10e3 4E240000 		.4byte	.LASF576
 4447 10e7 32       		.sleb128 50
 4448 10e8 0B       		.uleb128 0xb
 4449 10e9 90030000 		.4byte	.LASF577
 4450 10ed 33       		.sleb128 51
 4451 10ee 0B       		.uleb128 0xb
 4452 10ef B32C0000 		.4byte	.LASF578
 4453 10f3 34       		.sleb128 52
 4454 10f4 0B       		.uleb128 0xb
 4455 10f5 570B0000 		.4byte	.LASF579
 4456 10f9 35       		.sleb128 53
 4457 10fa 00       		.byte	0
 4458 10fb 0A       		.uleb128 0xa
 4459 10fc 01       		.byte	0x1
 4460 10fd 07       		.byte	0x7
 4461 10fe 40       		.byte	0x40
 4462 10ff 4E120000 		.4byte	0x124e
 4463 1103 0B       		.uleb128 0xb
 4464 1104 E40E0000 		.4byte	.LASF580
 4465 1108 00       		.sleb128 0
 4466 1109 0B       		.uleb128 0xb
 4467 110a 67000000 		.4byte	.LASF581
 4468 110e 01       		.sleb128 1
 4469 110f 0B       		.uleb128 0xb
 4470 1110 872C0000 		.4byte	.LASF582
 4471 1114 02       		.sleb128 2
 4472 1115 0B       		.uleb128 0xb
 4473 1116 B8240000 		.4byte	.LASF583
 4474 111a 03       		.sleb128 3
 4475 111b 0B       		.uleb128 0xb
 4476 111c 5E130000 		.4byte	.LASF584
 4477 1120 04       		.sleb128 4
 4478 1121 0B       		.uleb128 0xb
 4479 1122 C9260000 		.4byte	.LASF585
 4480 1126 05       		.sleb128 5
 4481 1127 0B       		.uleb128 0xb
 4482 1128 8E0A0000 		.4byte	.LASF586
 4483 112c 06       		.sleb128 6
 4484 112d 0B       		.uleb128 0xb
 4485 112e FB210000 		.4byte	.LASF587
 4486 1132 07       		.sleb128 7
 4487 1133 0B       		.uleb128 0xb
 4488 1134 0E090000 		.4byte	.LASF588
 4489 1138 08       		.sleb128 8
 4490 1139 0B       		.uleb128 0xb
 4491 113a EC210000 		.4byte	.LASF589
ARM GAS  C:\Users\AHMED~1.ELE\AppData\Local\Temp\ccfMkwD6.s 			page 92


 4492 113e 09       		.sleb128 9
 4493 113f 0B       		.uleb128 0xb
 4494 1140 9E2A0000 		.4byte	.LASF590
 4495 1144 0A       		.sleb128 10
 4496 1145 0B       		.uleb128 0xb
 4497 1146 6B2C0000 		.4byte	.LASF591
 4498 114a 0B       		.sleb128 11
 4499 114b 0B       		.uleb128 0xb
 4500 114c E4070000 		.4byte	.LASF592
 4501 1150 0C       		.sleb128 12
 4502 1151 0B       		.uleb128 0xb
 4503 1152 B7230000 		.4byte	.LASF593
 4504 1156 0D       		.sleb128 13
 4505 1157 0B       		.uleb128 0xb
 4506 1158 D32D0000 		.4byte	.LASF594
 4507 115c 0E       		.sleb128 14
 4508 115d 0B       		.uleb128 0xb
 4509 115e D02C0000 		.4byte	.LASF595
 4510 1162 0F       		.sleb128 15
 4511 1163 0B       		.uleb128 0xb
 4512 1164 A22C0000 		.4byte	.LASF596
 4513 1168 10       		.sleb128 16
 4514 1169 0B       		.uleb128 0xb
 4515 116a 21010000 		.4byte	.LASF597
 4516 116e 11       		.sleb128 17
 4517 116f 0B       		.uleb128 0xb
 4518 1170 C6160000 		.4byte	.LASF598
 4519 1174 12       		.sleb128 18
 4520 1175 0B       		.uleb128 0xb
 4521 1176 D6240000 		.4byte	.LASF599
 4522 117a 13       		.sleb128 19
 4523 117b 0B       		.uleb128 0xb
 4524 117c 89040000 		.4byte	.LASF600
 4525 1180 14       		.sleb128 20
 4526 1181 0B       		.uleb128 0xb
 4527 1182 311B0000 		.4byte	.LASF601
 4528 1186 15       		.sleb128 21
 4529 1187 0B       		.uleb128 0xb
 4530 1188 5C170000 		.4byte	.LASF602
 4531 118c 16       		.sleb128 22
 4532 118d 0B       		.uleb128 0xb
 4533 118e 3D260000 		.4byte	.LASF603
 4534 1192 17       		.sleb128 23
 4535 1193 0B       		.uleb128 0xb
 4536 1194 9C210000 		.4byte	.LASF604
 4537 1198 18       		.sleb128 24
 4538 1199 0B       		.uleb128 0xb
 4539 119a 72000000 		.4byte	.LASF605
 4540 119e 19       		.sleb128 25
 4541 119f 0B       		.uleb128 0xb
 4542 11a0 B10A0000 		.4byte	.LASF606
 4543 11a4 1A       		.sleb128 26
 4544 11a5 0B       		.uleb128 0xb
 4545 11a6 960B0000 		.4byte	.LASF607
 4546 11aa 1B       		.sleb128 27
 4547 11ab 0B       		.uleb128 0xb
 4548 11ac 7B1C0000 		.4byte	.LASF608
ARM GAS  C:\Users\AHMED~1.ELE\AppData\Local\Temp\ccfMkwD6.s 			page 93


 4549 11b0 1C       		.sleb128 28
 4550 11b1 0B       		.uleb128 0xb
 4551 11b2 12010000 		.4byte	.LASF609
 4552 11b6 1D       		.sleb128 29
 4553 11b7 0B       		.uleb128 0xb
 4554 11b8 F6100000 		.4byte	.LASF610
 4555 11bc 1E       		.sleb128 30
 4556 11bd 0B       		.uleb128 0xb
 4557 11be F22F0000 		.4byte	.LASF611
 4558 11c2 1F       		.sleb128 31
 4559 11c3 0B       		.uleb128 0xb
 4560 11c4 21200000 		.4byte	.LASF612
 4561 11c8 20       		.sleb128 32
 4562 11c9 0B       		.uleb128 0xb
 4563 11ca 950E0000 		.4byte	.LASF613
 4564 11ce 21       		.sleb128 33
 4565 11cf 0B       		.uleb128 0xb
 4566 11d0 CE230000 		.4byte	.LASF614
 4567 11d4 22       		.sleb128 34
 4568 11d5 0B       		.uleb128 0xb
 4569 11d6 0A080000 		.4byte	.LASF615
 4570 11da 23       		.sleb128 35
 4571 11db 0B       		.uleb128 0xb
 4572 11dc 16020000 		.4byte	.LASF616
 4573 11e0 24       		.sleb128 36
 4574 11e1 0B       		.uleb128 0xb
 4575 11e2 BA120000 		.4byte	.LASF617
 4576 11e6 25       		.sleb128 37
 4577 11e7 0B       		.uleb128 0xb
 4578 11e8 0C070000 		.4byte	.LASF618
 4579 11ec 26       		.sleb128 38
 4580 11ed 0B       		.uleb128 0xb
 4581 11ee 41090000 		.4byte	.LASF619
 4582 11f2 27       		.sleb128 39
 4583 11f3 0B       		.uleb128 0xb
 4584 11f4 0B2A0000 		.4byte	.LASF620
 4585 11f8 28       		.sleb128 40
 4586 11f9 0B       		.uleb128 0xb
 4587 11fa 95160000 		.4byte	.LASF621
 4588 11fe 29       		.sleb128 41
 4589 11ff 0B       		.uleb128 0xb
 4590 1200 7E1E0000 		.4byte	.LASF622
 4591 1204 2A       		.sleb128 42
 4592 1205 0B       		.uleb128 0xb
 4593 1206 99040000 		.4byte	.LASF623
 4594 120a 2B       		.sleb128 43
 4595 120b 0B       		.uleb128 0xb
 4596 120c 6C2B0000 		.4byte	.LASF624
 4597 1210 2C       		.sleb128 44
 4598 1211 0B       		.uleb128 0xb
 4599 1212 BF1E0000 		.4byte	.LASF625
 4600 1216 2D       		.sleb128 45
 4601 1217 0B       		.uleb128 0xb
 4602 1218 AA200000 		.4byte	.LASF626
 4603 121c 2E       		.sleb128 46
 4604 121d 0B       		.uleb128 0xb
 4605 121e 3A270000 		.4byte	.LASF627
ARM GAS  C:\Users\AHMED~1.ELE\AppData\Local\Temp\ccfMkwD6.s 			page 94


 4606 1222 2F       		.sleb128 47
 4607 1223 0B       		.uleb128 0xb
 4608 1224 E6130000 		.4byte	.LASF628
 4609 1228 30       		.sleb128 48
 4610 1229 0B       		.uleb128 0xb
 4611 122a 192C0000 		.4byte	.LASF629
 4612 122e 31       		.sleb128 49
 4613 122f 0B       		.uleb128 0xb
 4614 1230 1F260000 		.4byte	.LASF630
 4615 1234 32       		.sleb128 50
 4616 1235 0B       		.uleb128 0xb
 4617 1236 9D2B0000 		.4byte	.LASF631
 4618 123a 33       		.sleb128 51
 4619 123b 0B       		.uleb128 0xb
 4620 123c 88020000 		.4byte	.LASF632
 4621 1240 34       		.sleb128 52
 4622 1241 0B       		.uleb128 0xb
 4623 1242 660E0000 		.4byte	.LASF633
 4624 1246 35       		.sleb128 53
 4625 1247 0B       		.uleb128 0xb
 4626 1248 2B270000 		.4byte	.LASF634
 4627 124c 36       		.sleb128 54
 4628 124d 00       		.byte	0
 4629 124e 08       		.uleb128 0x8
 4630 124f A2000000 		.4byte	0xa2
 4631 1253 5E120000 		.4byte	0x125e
 4632 1257 09       		.uleb128 0x9
 4633 1258 76000000 		.4byte	0x76
 4634 125c 08       		.byte	0x8
 4635 125d 00       		.byte	0
 4636 125e 08       		.uleb128 0x8
 4637 125f A2000000 		.4byte	0xa2
 4638 1263 6E120000 		.4byte	0x126e
 4639 1267 09       		.uleb128 0x9
 4640 1268 76000000 		.4byte	0x76
 4641 126c 0B       		.byte	0xb
 4642 126d 00       		.byte	0
 4643 126e 08       		.uleb128 0x8
 4644 126f A2000000 		.4byte	0xa2
 4645 1273 7E120000 		.4byte	0x127e
 4646 1277 09       		.uleb128 0x9
 4647 1278 76000000 		.4byte	0x76
 4648 127c 18       		.byte	0x18
 4649 127d 00       		.byte	0
 4650 127e 11       		.uleb128 0x11
 4651 127f 650A0000 		.4byte	.LASF635
 4652 1283 08       		.byte	0x8
 4653 1284 08       		.byte	0x8
 4654 1285 3A       		.byte	0x3a
 4655 1286 DF120000 		.4byte	0x12df
 4656 128a 12       		.uleb128 0x12
 4657 128b CA220000 		.4byte	.LASF636
 4658 128f 08       		.byte	0x8
 4659 1290 3B       		.byte	0x3b
 4660 1291 A2000000 		.4byte	0xa2
 4661 1295 00       		.byte	0
 4662 1296 12       		.uleb128 0x12
ARM GAS  C:\Users\AHMED~1.ELE\AppData\Local\Temp\ccfMkwD6.s 			page 95


 4663 1297 9A010000 		.4byte	.LASF637
 4664 129b 08       		.byte	0x8
 4665 129c 3C       		.byte	0x3c
 4666 129d A2000000 		.4byte	0xa2
 4667 12a1 01       		.byte	0x1
 4668 12a2 12       		.uleb128 0x12
 4669 12a3 E7110000 		.4byte	.LASF638
 4670 12a7 08       		.byte	0x8
 4671 12a8 3D       		.byte	0x3d
 4672 12a9 A2000000 		.4byte	0xa2
 4673 12ad 02       		.byte	0x2
 4674 12ae 12       		.uleb128 0x12
 4675 12af BE0B0000 		.4byte	.LASF639
 4676 12b3 08       		.byte	0x8
 4677 12b4 3E       		.byte	0x3e
 4678 12b5 A2000000 		.4byte	0xa2
 4679 12b9 03       		.byte	0x3
 4680 12ba 12       		.uleb128 0x12
 4681 12bb 4C060000 		.4byte	.LASF640
 4682 12bf 08       		.byte	0x8
 4683 12c0 3F       		.byte	0x3f
 4684 12c1 A2000000 		.4byte	0xa2
 4685 12c5 04       		.byte	0x4
 4686 12c6 12       		.uleb128 0x12
 4687 12c7 55050000 		.4byte	.LASF641
 4688 12cb 08       		.byte	0x8
 4689 12cc 40       		.byte	0x40
 4690 12cd A2000000 		.4byte	0xa2
 4691 12d1 05       		.byte	0x5
 4692 12d2 12       		.uleb128 0x12
 4693 12d3 33050000 		.4byte	.LASF642
 4694 12d7 08       		.byte	0x8
 4695 12d8 41       		.byte	0x41
 4696 12d9 A2000000 		.4byte	0xa2
 4697 12dd 06       		.byte	0x6
 4698 12de 00       		.byte	0
 4699 12df 13       		.uleb128 0x13
 4700 12e0 822A0000 		.4byte	.LASF643
 4701 12e4 7401     		.2byte	0x174
 4702 12e6 09       		.byte	0x9
 4703 12e7 5B       		.byte	0x5b
 4704 12e8 4D130000 		.4byte	0x134d
 4705 12ec 12       		.uleb128 0x12
 4706 12ed 040F0000 		.4byte	.LASF644
 4707 12f1 09       		.byte	0x9
 4708 12f2 5C       		.byte	0x5c
 4709 12f3 A0010000 		.4byte	0x1a0
 4710 12f7 00       		.byte	0
 4711 12f8 12       		.uleb128 0x12
 4712 12f9 F1030000 		.4byte	.LASF645
 4713 12fd 09       		.byte	0x9
 4714 12fe 5D       		.byte	0x5d
 4715 12ff A2000000 		.4byte	0xa2
 4716 1303 10       		.byte	0x10
 4717 1304 12       		.uleb128 0x12
 4718 1305 18300000 		.4byte	.LASF646
 4719 1309 09       		.byte	0x9
ARM GAS  C:\Users\AHMED~1.ELE\AppData\Local\Temp\ccfMkwD6.s 			page 96


 4720 130a 5E       		.byte	0x5e
 4721 130b ED0E0000 		.4byte	0xeed
 4722 130f 11       		.byte	0x11
 4723 1310 12       		.uleb128 0x12
 4724 1311 16280000 		.4byte	.LASF647
 4725 1315 09       		.byte	0x9
 4726 1316 5F       		.byte	0x5f
 4727 1317 B0010000 		.4byte	0x1b0
 4728 131b 18       		.byte	0x18
 4729 131c 12       		.uleb128 0x12
 4730 131d 57290000 		.4byte	.LASF648
 4731 1321 09       		.byte	0x9
 4732 1322 60       		.byte	0x60
 4733 1323 CE000000 		.4byte	0xce
 4734 1327 1D       		.byte	0x1d
 4735 1328 12       		.uleb128 0x12
 4736 1329 DC080000 		.4byte	.LASF649
 4737 132d 09       		.byte	0x9
 4738 132e 61       		.byte	0x61
 4739 132f 00020000 		.4byte	0x200
 4740 1333 1F       		.byte	0x1f
 4741 1334 12       		.uleb128 0x12
 4742 1335 8A1C0000 		.4byte	.LASF650
 4743 1339 09       		.byte	0x9
 4744 133a 62       		.byte	0x62
 4745 133b AD000000 		.4byte	0xad
 4746 133f 28       		.byte	0x28
 4747 1340 12       		.uleb128 0x12
 4748 1341 0E150000 		.4byte	.LASF651
 4749 1345 09       		.byte	0x9
 4750 1346 63       		.byte	0x63
 4751 1347 4D130000 		.4byte	0x134d
 4752 134b 2A       		.byte	0x2a
 4753 134c 00       		.byte	0
 4754 134d 08       		.uleb128 0x8
 4755 134e A2000000 		.4byte	0xa2
 4756 1352 5E130000 		.4byte	0x135e
 4757 1356 14       		.uleb128 0x14
 4758 1357 76000000 		.4byte	0x76
 4759 135b 4901     		.2byte	0x149
 4760 135d 00       		.byte	0
 4761 135e 08       		.uleb128 0x8
 4762 135f A2000000 		.4byte	0xa2
 4763 1363 6E130000 		.4byte	0x136e
 4764 1367 09       		.uleb128 0x9
 4765 1368 76000000 		.4byte	0x76
 4766 136c 19       		.byte	0x19
 4767 136d 00       		.byte	0
 4768 136e 13       		.uleb128 0x13
 4769 136f 4F300000 		.4byte	.LASF652
 4770 1373 0003     		.2byte	0x300
 4771 1375 0A       		.byte	0xa
 4772 1376 33       		.byte	0x33
 4773 1377 DE140000 		.4byte	0x14de
 4774 137b 12       		.uleb128 0x12
 4775 137c EF1E0000 		.4byte	.LASF653
 4776 1380 0A       		.byte	0xa
ARM GAS  C:\Users\AHMED~1.ELE\AppData\Local\Temp\ccfMkwD6.s 			page 97


 4777 1381 34       		.byte	0x34
 4778 1382 A2000000 		.4byte	0xa2
 4779 1386 00       		.byte	0
 4780 1387 12       		.uleb128 0x12
 4781 1388 3D0B0000 		.4byte	.LASF654
 4782 138c 0A       		.byte	0xa
 4783 138d 34       		.byte	0x34
 4784 138e A2000000 		.4byte	0xa2
 4785 1392 01       		.byte	0x1
 4786 1393 12       		.uleb128 0x12
 4787 1394 820A0000 		.4byte	.LASF655
 4788 1398 0A       		.byte	0xa
 4789 1399 34       		.byte	0x34
 4790 139a C0010000 		.4byte	0x1c0
 4791 139e 02       		.byte	0x2
 4792 139f 12       		.uleb128 0x12
 4793 13a0 8F220000 		.4byte	.LASF656
 4794 13a4 0A       		.byte	0xa
 4795 13a5 34       		.byte	0x34
 4796 13a6 A2000000 		.4byte	0xa2
 4797 13aa 05       		.byte	0x5
 4798 13ab 12       		.uleb128 0x12
 4799 13ac 21270000 		.4byte	.LASF657
 4800 13b0 0A       		.byte	0xa
 4801 13b1 34       		.byte	0x34
 4802 13b2 C0010000 		.4byte	0x1c0
 4803 13b6 06       		.byte	0x6
 4804 13b7 12       		.uleb128 0x12
 4805 13b8 8E240000 		.4byte	.LASF658
 4806 13bc 0A       		.byte	0xa
 4807 13bd 34       		.byte	0x34
 4808 13be E0010000 		.4byte	0x1e0
 4809 13c2 09       		.byte	0x9
 4810 13c3 12       		.uleb128 0x12
 4811 13c4 A82B0000 		.4byte	.LASF659
 4812 13c8 0A       		.byte	0xa
 4813 13c9 34       		.byte	0x34
 4814 13ca CE000000 		.4byte	0xce
 4815 13ce 13       		.byte	0x13
 4816 13cf 12       		.uleb128 0x12
 4817 13d0 D7300000 		.4byte	.LASF660
 4818 13d4 0A       		.byte	0xa
 4819 13d5 34       		.byte	0x34
 4820 13d6 A2000000 		.4byte	0xa2
 4821 13da 15       		.byte	0x15
 4822 13db 12       		.uleb128 0x12
 4823 13dc 81290000 		.4byte	.LASF661
 4824 13e0 0A       		.byte	0xa
 4825 13e1 34       		.byte	0x34
 4826 13e2 C3000000 		.4byte	0xc3
 4827 13e6 18       		.byte	0x18
 4828 13e7 12       		.uleb128 0x12
 4829 13e8 BA1F0000 		.4byte	.LASF662
 4830 13ec 0A       		.byte	0xa
 4831 13ed 34       		.byte	0x34
 4832 13ee C3000000 		.4byte	0xc3
 4833 13f2 20       		.byte	0x20
ARM GAS  C:\Users\AHMED~1.ELE\AppData\Local\Temp\ccfMkwD6.s 			page 98


 4834 13f3 12       		.uleb128 0x12
 4835 13f4 EA2B0000 		.4byte	.LASF663
 4836 13f8 0A       		.byte	0xa
 4837 13f9 34       		.byte	0x34
 4838 13fa C3000000 		.4byte	0xc3
 4839 13fe 28       		.byte	0x28
 4840 13ff 12       		.uleb128 0x12
 4841 1400 761B0000 		.4byte	.LASF664
 4842 1404 0A       		.byte	0xa
 4843 1405 34       		.byte	0x34
 4844 1406 E4000000 		.4byte	0xe4
 4845 140a 30       		.byte	0x30
 4846 140b 12       		.uleb128 0x12
 4847 140c 4D270000 		.4byte	.LASF665
 4848 1410 0A       		.byte	0xa
 4849 1411 34       		.byte	0x34
 4850 1412 A2000000 		.4byte	0xa2
 4851 1416 34       		.byte	0x34
 4852 1417 12       		.uleb128 0x12
 4853 1418 CC0F0000 		.4byte	.LASF666
 4854 141c 0A       		.byte	0xa
 4855 141d 34       		.byte	0x34
 4856 141e 5E130000 		.4byte	0x135e
 4857 1422 35       		.byte	0x35
 4858 1423 12       		.uleb128 0x12
 4859 1424 901E0000 		.4byte	.LASF667
 4860 1428 0A       		.byte	0xa
 4861 1429 34       		.byte	0x34
 4862 142a A0010000 		.4byte	0x1a0
 4863 142e 4F       		.byte	0x4f
 4864 142f 12       		.uleb128 0x12
 4865 1430 9D1F0000 		.4byte	.LASF668
 4866 1434 0A       		.byte	0xa
 4867 1435 34       		.byte	0x34
 4868 1436 040F0000 		.4byte	0xf04
 4869 143a 5F       		.byte	0x5f
 4870 143b 12       		.uleb128 0x12
 4871 143c B8250000 		.4byte	.LASF669
 4872 1440 0A       		.byte	0xa
 4873 1441 34       		.byte	0x34
 4874 1442 AD000000 		.4byte	0xad
 4875 1446 66       		.byte	0x66
 4876 1447 12       		.uleb128 0x12
 4877 1448 E4020000 		.4byte	.LASF670
 4878 144c 0A       		.byte	0xa
 4879 144d 34       		.byte	0x34
 4880 144e A2000000 		.4byte	0xa2
 4881 1452 68       		.byte	0x68
 4882 1453 12       		.uleb128 0x12
 4883 1454 C3220000 		.4byte	.LASF671
 4884 1458 0A       		.byte	0xa
 4885 1459 34       		.byte	0x34
 4886 145a 5E120000 		.4byte	0x125e
 4887 145e 69       		.byte	0x69
 4888 145f 12       		.uleb128 0x12
 4889 1460 090B0000 		.4byte	.LASF672
 4890 1464 0A       		.byte	0xa
ARM GAS  C:\Users\AHMED~1.ELE\AppData\Local\Temp\ccfMkwD6.s 			page 99


 4891 1465 34       		.byte	0x34
 4892 1466 AD000000 		.4byte	0xad
 4893 146a 76       		.byte	0x76
 4894 146b 12       		.uleb128 0x12
 4895 146c 3B140000 		.4byte	.LASF673
 4896 1470 0A       		.byte	0xa
 4897 1471 34       		.byte	0x34
 4898 1472 AD000000 		.4byte	0xad
 4899 1476 78       		.byte	0x78
 4900 1477 12       		.uleb128 0x12
 4901 1478 9D030000 		.4byte	.LASF674
 4902 147c 0A       		.byte	0xa
 4903 147d 34       		.byte	0x34
 4904 147e 7E120000 		.4byte	0x127e
 4905 1482 7C       		.byte	0x7c
 4906 1483 12       		.uleb128 0x12
 4907 1484 AC030000 		.4byte	.LASF675
 4908 1488 0A       		.byte	0xa
 4909 1489 34       		.byte	0x34
 4910 148a DF120000 		.4byte	0x12df
 4911 148e 84       		.byte	0x84
 4912 148f 15       		.uleb128 0x15
 4913 1490 90310000 		.4byte	.LASF676
 4914 1494 0A       		.byte	0xa
 4915 1495 35       		.byte	0x35
 4916 1496 00020000 		.4byte	0x200
 4917 149a F801     		.2byte	0x1f8
 4918 149c 15       		.uleb128 0x15
 4919 149d 38280000 		.4byte	.LASF677
 4920 14a1 0A       		.byte	0xa
 4921 14a2 36       		.byte	0x36
 4922 14a3 3D0F0000 		.4byte	0xf3d
 4923 14a7 0002     		.2byte	0x200
 4924 14a9 15       		.uleb128 0x15
 4925 14aa 460F0000 		.4byte	.LASF678
 4926 14ae 0A       		.byte	0xa
 4927 14af 37       		.byte	0x37
 4928 14b0 750F0000 		.4byte	0xf75
 4929 14b4 A002     		.2byte	0x2a0
 4930 14b6 15       		.uleb128 0x15
 4931 14b7 08260000 		.4byte	.LASF679
 4932 14bb 0A       		.byte	0xa
 4933 14bc 38       		.byte	0x38
 4934 14bd AD000000 		.4byte	0xad
 4935 14c1 F402     		.2byte	0x2f4
 4936 14c3 15       		.uleb128 0x15
 4937 14c4 53010000 		.4byte	.LASF680
 4938 14c8 0A       		.byte	0xa
 4939 14c9 39       		.byte	0x39
 4940 14ca A2000000 		.4byte	0xa2
 4941 14ce F602     		.2byte	0x2f6
 4942 14d0 15       		.uleb128 0x15
 4943 14d1 61140000 		.4byte	.LASF681
 4944 14d5 0A       		.byte	0xa
 4945 14d6 3A       		.byte	0x3a
 4946 14d7 E4000000 		.4byte	0xe4
 4947 14db F702     		.2byte	0x2f7
ARM GAS  C:\Users\AHMED~1.ELE\AppData\Local\Temp\ccfMkwD6.s 			page 100


 4948 14dd 00       		.byte	0
 4949 14de 13       		.uleb128 0x13
 4950 14df F80F0000 		.4byte	.LASF682
 4951 14e3 0802     		.2byte	0x208
 4952 14e5 0A       		.byte	0xa
 4953 14e6 3D       		.byte	0x3d
 4954 14e7 34160000 		.4byte	0x1634
 4955 14eb 12       		.uleb128 0x12
 4956 14ec EF1E0000 		.4byte	.LASF653
 4957 14f0 0A       		.byte	0xa
 4958 14f1 3E       		.byte	0x3e
 4959 14f2 A2000000 		.4byte	0xa2
 4960 14f6 00       		.byte	0
 4961 14f7 12       		.uleb128 0x12
 4962 14f8 3D0B0000 		.4byte	.LASF654
 4963 14fc 0A       		.byte	0xa
 4964 14fd 3E       		.byte	0x3e
 4965 14fe A2000000 		.4byte	0xa2
 4966 1502 01       		.byte	0x1
 4967 1503 12       		.uleb128 0x12
 4968 1504 820A0000 		.4byte	.LASF655
 4969 1508 0A       		.byte	0xa
 4970 1509 3E       		.byte	0x3e
 4971 150a C0010000 		.4byte	0x1c0
 4972 150e 02       		.byte	0x2
 4973 150f 12       		.uleb128 0x12
 4974 1510 8F220000 		.4byte	.LASF656
 4975 1514 0A       		.byte	0xa
 4976 1515 3E       		.byte	0x3e
 4977 1516 A2000000 		.4byte	0xa2
 4978 151a 05       		.byte	0x5
 4979 151b 12       		.uleb128 0x12
 4980 151c 21270000 		.4byte	.LASF657
 4981 1520 0A       		.byte	0xa
 4982 1521 3E       		.byte	0x3e
 4983 1522 C0010000 		.4byte	0x1c0
 4984 1526 06       		.byte	0x6
 4985 1527 12       		.uleb128 0x12
 4986 1528 8E240000 		.4byte	.LASF658
 4987 152c 0A       		.byte	0xa
 4988 152d 3E       		.byte	0x3e
 4989 152e E0010000 		.4byte	0x1e0
 4990 1532 09       		.byte	0x9
 4991 1533 12       		.uleb128 0x12
 4992 1534 A82B0000 		.4byte	.LASF659
 4993 1538 0A       		.byte	0xa
 4994 1539 3E       		.byte	0x3e
 4995 153a CE000000 		.4byte	0xce
 4996 153e 13       		.byte	0x13
 4997 153f 12       		.uleb128 0x12
 4998 1540 D7300000 		.4byte	.LASF660
 4999 1544 0A       		.byte	0xa
 5000 1545 3E       		.byte	0x3e
 5001 1546 A2000000 		.4byte	0xa2
 5002 154a 15       		.byte	0x15
 5003 154b 12       		.uleb128 0x12
 5004 154c 81290000 		.4byte	.LASF661
ARM GAS  C:\Users\AHMED~1.ELE\AppData\Local\Temp\ccfMkwD6.s 			page 101


 5005 1550 0A       		.byte	0xa
 5006 1551 3E       		.byte	0x3e
 5007 1552 C3000000 		.4byte	0xc3
 5008 1556 18       		.byte	0x18
 5009 1557 12       		.uleb128 0x12
 5010 1558 BA1F0000 		.4byte	.LASF662
 5011 155c 0A       		.byte	0xa
 5012 155d 3E       		.byte	0x3e
 5013 155e C3000000 		.4byte	0xc3
 5014 1562 20       		.byte	0x20
 5015 1563 12       		.uleb128 0x12
 5016 1564 EA2B0000 		.4byte	.LASF663
 5017 1568 0A       		.byte	0xa
 5018 1569 3E       		.byte	0x3e
 5019 156a C3000000 		.4byte	0xc3
 5020 156e 28       		.byte	0x28
 5021 156f 12       		.uleb128 0x12
 5022 1570 761B0000 		.4byte	.LASF664
 5023 1574 0A       		.byte	0xa
 5024 1575 3E       		.byte	0x3e
 5025 1576 E4000000 		.4byte	0xe4
 5026 157a 30       		.byte	0x30
 5027 157b 12       		.uleb128 0x12
 5028 157c 4D270000 		.4byte	.LASF665
 5029 1580 0A       		.byte	0xa
 5030 1581 3E       		.byte	0x3e
 5031 1582 A2000000 		.4byte	0xa2
 5032 1586 34       		.byte	0x34
 5033 1587 12       		.uleb128 0x12
 5034 1588 CC0F0000 		.4byte	.LASF666
 5035 158c 0A       		.byte	0xa
 5036 158d 3E       		.byte	0x3e
 5037 158e 5E130000 		.4byte	0x135e
 5038 1592 35       		.byte	0x35
 5039 1593 12       		.uleb128 0x12
 5040 1594 901E0000 		.4byte	.LASF667
 5041 1598 0A       		.byte	0xa
 5042 1599 3E       		.byte	0x3e
 5043 159a A0010000 		.4byte	0x1a0
 5044 159e 4F       		.byte	0x4f
 5045 159f 12       		.uleb128 0x12
 5046 15a0 9D1F0000 		.4byte	.LASF668
 5047 15a4 0A       		.byte	0xa
 5048 15a5 3E       		.byte	0x3e
 5049 15a6 040F0000 		.4byte	0xf04
 5050 15aa 5F       		.byte	0x5f
 5051 15ab 12       		.uleb128 0x12
 5052 15ac B8250000 		.4byte	.LASF669
 5053 15b0 0A       		.byte	0xa
 5054 15b1 3E       		.byte	0x3e
 5055 15b2 AD000000 		.4byte	0xad
 5056 15b6 66       		.byte	0x66
 5057 15b7 12       		.uleb128 0x12
 5058 15b8 E4020000 		.4byte	.LASF670
 5059 15bc 0A       		.byte	0xa
 5060 15bd 3E       		.byte	0x3e
 5061 15be A2000000 		.4byte	0xa2
ARM GAS  C:\Users\AHMED~1.ELE\AppData\Local\Temp\ccfMkwD6.s 			page 102


 5062 15c2 68       		.byte	0x68
 5063 15c3 12       		.uleb128 0x12
 5064 15c4 C3220000 		.4byte	.LASF671
 5065 15c8 0A       		.byte	0xa
 5066 15c9 3E       		.byte	0x3e
 5067 15ca 5E120000 		.4byte	0x125e
 5068 15ce 69       		.byte	0x69
 5069 15cf 12       		.uleb128 0x12
 5070 15d0 090B0000 		.4byte	.LASF672
 5071 15d4 0A       		.byte	0xa
 5072 15d5 3E       		.byte	0x3e
 5073 15d6 AD000000 		.4byte	0xad
 5074 15da 76       		.byte	0x76
 5075 15db 12       		.uleb128 0x12
 5076 15dc 3B140000 		.4byte	.LASF673
 5077 15e0 0A       		.byte	0xa
 5078 15e1 3E       		.byte	0x3e
 5079 15e2 AD000000 		.4byte	0xad
 5080 15e6 78       		.byte	0x78
 5081 15e7 12       		.uleb128 0x12
 5082 15e8 9D030000 		.4byte	.LASF674
 5083 15ec 0A       		.byte	0xa
 5084 15ed 3E       		.byte	0x3e
 5085 15ee 7E120000 		.4byte	0x127e
 5086 15f2 7C       		.byte	0x7c
 5087 15f3 12       		.uleb128 0x12
 5088 15f4 AC030000 		.4byte	.LASF675
 5089 15f8 0A       		.byte	0xa
 5090 15f9 3E       		.byte	0x3e
 5091 15fa DF120000 		.4byte	0x12df
 5092 15fe 84       		.byte	0x84
 5093 15ff 15       		.uleb128 0x15
 5094 1600 90310000 		.4byte	.LASF676
 5095 1604 0A       		.byte	0xa
 5096 1605 3F       		.byte	0x3f
 5097 1606 00020000 		.4byte	0x200
 5098 160a F801     		.2byte	0x1f8
 5099 160c 15       		.uleb128 0x15
 5100 160d E4030000 		.4byte	.LASF683
 5101 1611 0A       		.byte	0xa
 5102 1612 40       		.byte	0x40
 5103 1613 C0010000 		.4byte	0x1c0
 5104 1617 0002     		.2byte	0x200
 5105 1619 15       		.uleb128 0x15
 5106 161a E51F0000 		.4byte	.LASF684
 5107 161e 0A       		.byte	0xa
 5108 161f 41       		.byte	0x41
 5109 1620 A2000000 		.4byte	0xa2
 5110 1624 0302     		.2byte	0x203
 5111 1626 15       		.uleb128 0x15
 5112 1627 E9250000 		.4byte	.LASF685
 5113 162b 0A       		.byte	0xa
 5114 162c 42       		.byte	0x42
 5115 162d C0010000 		.4byte	0x1c0
 5116 1631 0402     		.2byte	0x204
 5117 1633 00       		.byte	0
 5118 1634 13       		.uleb128 0x13
ARM GAS  C:\Users\AHMED~1.ELE\AppData\Local\Temp\ccfMkwD6.s 			page 103


 5119 1635 1A120000 		.4byte	.LASF686
 5120 1639 4002     		.2byte	0x240
 5121 163b 0A       		.byte	0xa
 5122 163c 45       		.byte	0x45
 5123 163d 70170000 		.4byte	0x1770
 5124 1641 12       		.uleb128 0x12
 5125 1642 EF1E0000 		.4byte	.LASF653
 5126 1646 0A       		.byte	0xa
 5127 1647 46       		.byte	0x46
 5128 1648 A2000000 		.4byte	0xa2
 5129 164c 00       		.byte	0
 5130 164d 12       		.uleb128 0x12
 5131 164e 3D0B0000 		.4byte	.LASF654
 5132 1652 0A       		.byte	0xa
 5133 1653 46       		.byte	0x46
 5134 1654 A2000000 		.4byte	0xa2
 5135 1658 01       		.byte	0x1
 5136 1659 12       		.uleb128 0x12
 5137 165a 820A0000 		.4byte	.LASF655
 5138 165e 0A       		.byte	0xa
 5139 165f 46       		.byte	0x46
 5140 1660 C0010000 		.4byte	0x1c0
 5141 1664 02       		.byte	0x2
 5142 1665 12       		.uleb128 0x12
 5143 1666 8F220000 		.4byte	.LASF656
 5144 166a 0A       		.byte	0xa
 5145 166b 46       		.byte	0x46
 5146 166c A2000000 		.4byte	0xa2
 5147 1670 05       		.byte	0x5
 5148 1671 12       		.uleb128 0x12
 5149 1672 21270000 		.4byte	.LASF657
 5150 1676 0A       		.byte	0xa
 5151 1677 46       		.byte	0x46
 5152 1678 C0010000 		.4byte	0x1c0
 5153 167c 06       		.byte	0x6
 5154 167d 12       		.uleb128 0x12
 5155 167e 8E240000 		.4byte	.LASF658
 5156 1682 0A       		.byte	0xa
 5157 1683 46       		.byte	0x46
 5158 1684 E0010000 		.4byte	0x1e0
 5159 1688 09       		.byte	0x9
 5160 1689 12       		.uleb128 0x12
 5161 168a A82B0000 		.4byte	.LASF659
 5162 168e 0A       		.byte	0xa
 5163 168f 46       		.byte	0x46
 5164 1690 CE000000 		.4byte	0xce
 5165 1694 13       		.byte	0x13
 5166 1695 12       		.uleb128 0x12
 5167 1696 D7300000 		.4byte	.LASF660
 5168 169a 0A       		.byte	0xa
 5169 169b 46       		.byte	0x46
 5170 169c A2000000 		.4byte	0xa2
 5171 16a0 15       		.byte	0x15
 5172 16a1 12       		.uleb128 0x12
 5173 16a2 81290000 		.4byte	.LASF661
 5174 16a6 0A       		.byte	0xa
 5175 16a7 46       		.byte	0x46
ARM GAS  C:\Users\AHMED~1.ELE\AppData\Local\Temp\ccfMkwD6.s 			page 104


 5176 16a8 C3000000 		.4byte	0xc3
 5177 16ac 18       		.byte	0x18
 5178 16ad 12       		.uleb128 0x12
 5179 16ae BA1F0000 		.4byte	.LASF662
 5180 16b2 0A       		.byte	0xa
 5181 16b3 46       		.byte	0x46
 5182 16b4 C3000000 		.4byte	0xc3
 5183 16b8 20       		.byte	0x20
 5184 16b9 12       		.uleb128 0x12
 5185 16ba EA2B0000 		.4byte	.LASF663
 5186 16be 0A       		.byte	0xa
 5187 16bf 46       		.byte	0x46
 5188 16c0 C3000000 		.4byte	0xc3
 5189 16c4 28       		.byte	0x28
 5190 16c5 12       		.uleb128 0x12
 5191 16c6 761B0000 		.4byte	.LASF664
 5192 16ca 0A       		.byte	0xa
 5193 16cb 46       		.byte	0x46
 5194 16cc E4000000 		.4byte	0xe4
 5195 16d0 30       		.byte	0x30
 5196 16d1 12       		.uleb128 0x12
 5197 16d2 4D270000 		.4byte	.LASF665
 5198 16d6 0A       		.byte	0xa
 5199 16d7 46       		.byte	0x46
 5200 16d8 A2000000 		.4byte	0xa2
 5201 16dc 34       		.byte	0x34
 5202 16dd 12       		.uleb128 0x12
 5203 16de CC0F0000 		.4byte	.LASF666
 5204 16e2 0A       		.byte	0xa
 5205 16e3 46       		.byte	0x46
 5206 16e4 5E130000 		.4byte	0x135e
 5207 16e8 35       		.byte	0x35
 5208 16e9 12       		.uleb128 0x12
 5209 16ea 901E0000 		.4byte	.LASF667
 5210 16ee 0A       		.byte	0xa
 5211 16ef 46       		.byte	0x46
 5212 16f0 A0010000 		.4byte	0x1a0
 5213 16f4 4F       		.byte	0x4f
 5214 16f5 12       		.uleb128 0x12
 5215 16f6 9D1F0000 		.4byte	.LASF668
 5216 16fa 0A       		.byte	0xa
 5217 16fb 46       		.byte	0x46
 5218 16fc 040F0000 		.4byte	0xf04
 5219 1700 5F       		.byte	0x5f
 5220 1701 12       		.uleb128 0x12
 5221 1702 B8250000 		.4byte	.LASF669
 5222 1706 0A       		.byte	0xa
 5223 1707 46       		.byte	0x46
 5224 1708 AD000000 		.4byte	0xad
 5225 170c 66       		.byte	0x66
 5226 170d 12       		.uleb128 0x12
 5227 170e E4020000 		.4byte	.LASF670
 5228 1712 0A       		.byte	0xa
 5229 1713 46       		.byte	0x46
 5230 1714 A2000000 		.4byte	0xa2
 5231 1718 68       		.byte	0x68
 5232 1719 12       		.uleb128 0x12
ARM GAS  C:\Users\AHMED~1.ELE\AppData\Local\Temp\ccfMkwD6.s 			page 105


 5233 171a C3220000 		.4byte	.LASF671
 5234 171e 0A       		.byte	0xa
 5235 171f 46       		.byte	0x46
 5236 1720 5E120000 		.4byte	0x125e
 5237 1724 69       		.byte	0x69
 5238 1725 12       		.uleb128 0x12
 5239 1726 090B0000 		.4byte	.LASF672
 5240 172a 0A       		.byte	0xa
 5241 172b 46       		.byte	0x46
 5242 172c AD000000 		.4byte	0xad
 5243 1730 76       		.byte	0x76
 5244 1731 12       		.uleb128 0x12
 5245 1732 3B140000 		.4byte	.LASF673
 5246 1736 0A       		.byte	0xa
 5247 1737 46       		.byte	0x46
 5248 1738 AD000000 		.4byte	0xad
 5249 173c 78       		.byte	0x78
 5250 173d 12       		.uleb128 0x12
 5251 173e 9D030000 		.4byte	.LASF674
 5252 1742 0A       		.byte	0xa
 5253 1743 46       		.byte	0x46
 5254 1744 7E120000 		.4byte	0x127e
 5255 1748 7C       		.byte	0x7c
 5256 1749 12       		.uleb128 0x12
 5257 174a AC030000 		.4byte	.LASF675
 5258 174e 0A       		.byte	0xa
 5259 174f 46       		.byte	0x46
 5260 1750 DF120000 		.4byte	0x12df
 5261 1754 84       		.byte	0x84
 5262 1755 15       		.uleb128 0x15
 5263 1756 E32D0000 		.4byte	.LASF687
 5264 175a 0A       		.byte	0xa
 5265 175b 47       		.byte	0x47
 5266 175c A2000000 		.4byte	0xa2
 5267 1760 F801     		.2byte	0x1f8
 5268 1762 15       		.uleb128 0x15
 5269 1763 8B030000 		.4byte	.LASF688
 5270 1767 0A       		.byte	0xa
 5271 1768 48       		.byte	0x48
 5272 1769 70170000 		.4byte	0x1770
 5273 176d F901     		.2byte	0x1f9
 5274 176f 00       		.byte	0
 5275 1770 08       		.uleb128 0x8
 5276 1771 A2000000 		.4byte	0xa2
 5277 1775 80170000 		.4byte	0x1780
 5278 1779 09       		.uleb128 0x9
 5279 177a 76000000 		.4byte	0x76
 5280 177e 45       		.byte	0x45
 5281 177f 00       		.byte	0
 5282 1780 13       		.uleb128 0x13
 5283 1781 68080000 		.4byte	.LASF689
 5284 1785 4807     		.2byte	0x748
 5285 1787 0A       		.byte	0xa
 5286 1788 4E       		.byte	0x4e
 5287 1789 B4170000 		.4byte	0x17b4
 5288 178d 12       		.uleb128 0x12
 5289 178e 46240000 		.4byte	.LASF690
ARM GAS  C:\Users\AHMED~1.ELE\AppData\Local\Temp\ccfMkwD6.s 			page 106


 5290 1792 0A       		.byte	0xa
 5291 1793 4F       		.byte	0x4f
 5292 1794 6E130000 		.4byte	0x136e
 5293 1798 00       		.byte	0
 5294 1799 15       		.uleb128 0x15
 5295 179a B91A0000 		.4byte	.LASF691
 5296 179e 0A       		.byte	0xa
 5297 179f 50       		.byte	0x50
 5298 17a0 DE140000 		.4byte	0x14de
 5299 17a4 0003     		.2byte	0x300
 5300 17a6 15       		.uleb128 0x15
 5301 17a7 36220000 		.4byte	.LASF692
 5302 17ab 0A       		.byte	0xa
 5303 17ac 51       		.byte	0x51
 5304 17ad 34160000 		.4byte	0x1634
 5305 17b1 0805     		.2byte	0x508
 5306 17b3 00       		.byte	0
 5307 17b4 0A       		.uleb128 0xa
 5308 17b5 01       		.byte	0x1
 5309 17b6 0B       		.byte	0xb
 5310 17b7 16       		.byte	0x16
 5311 17b8 7D180000 		.4byte	0x187d
 5312 17bc 0B       		.uleb128 0xb
 5313 17bd 2F300000 		.4byte	.LASF693
 5314 17c1 00       		.sleb128 0
 5315 17c2 0B       		.uleb128 0xb
 5316 17c3 C60D0000 		.4byte	.LASF694
 5317 17c7 01       		.sleb128 1
 5318 17c8 0B       		.uleb128 0xb
 5319 17c9 FB2E0000 		.4byte	.LASF695
 5320 17cd 02       		.sleb128 2
 5321 17ce 0B       		.uleb128 0xb
 5322 17cf 3F0D0000 		.4byte	.LASF696
 5323 17d3 03       		.sleb128 3
 5324 17d4 0B       		.uleb128 0xb
 5325 17d5 EC220000 		.4byte	.LASF697
 5326 17d9 04       		.sleb128 4
 5327 17da 0B       		.uleb128 0xb
 5328 17db E6120000 		.4byte	.LASF698
 5329 17df 05       		.sleb128 5
 5330 17e0 0B       		.uleb128 0xb
 5331 17e1 EA280000 		.4byte	.LASF699
 5332 17e5 06       		.sleb128 6
 5333 17e6 0B       		.uleb128 0xb
 5334 17e7 FC260000 		.4byte	.LASF700
 5335 17eb 07       		.sleb128 7
 5336 17ec 0B       		.uleb128 0xb
 5337 17ed FB070000 		.4byte	.LASF701
 5338 17f1 08       		.sleb128 8
 5339 17f2 0B       		.uleb128 0xb
 5340 17f3 53020000 		.4byte	.LASF702
 5341 17f7 09       		.sleb128 9
 5342 17f8 0B       		.uleb128 0xb
 5343 17f9 3A130000 		.4byte	.LASF703
 5344 17fd 0A       		.sleb128 10
 5345 17fe 0B       		.uleb128 0xb
 5346 17ff F21C0000 		.4byte	.LASF704
ARM GAS  C:\Users\AHMED~1.ELE\AppData\Local\Temp\ccfMkwD6.s 			page 107


 5347 1803 0B       		.sleb128 11
 5348 1804 0B       		.uleb128 0xb
 5349 1805 8F170000 		.4byte	.LASF705
 5350 1809 0C       		.sleb128 12
 5351 180a 0B       		.uleb128 0xb
 5352 180b 2C260000 		.4byte	.LASF706
 5353 180f 0D       		.sleb128 13
 5354 1810 0B       		.uleb128 0xb
 5355 1811 7F170000 		.4byte	.LASF707
 5356 1815 0E       		.sleb128 14
 5357 1816 0B       		.uleb128 0xb
 5358 1817 702E0000 		.4byte	.LASF708
 5359 181b 0F       		.sleb128 15
 5360 181c 0B       		.uleb128 0xb
 5361 181d 08220000 		.4byte	.LASF709
 5362 1821 10       		.sleb128 16
 5363 1822 0B       		.uleb128 0xb
 5364 1823 6D090000 		.4byte	.LASF710
 5365 1827 11       		.sleb128 17
 5366 1828 0B       		.uleb128 0xb
 5367 1829 00000000 		.4byte	.LASF711
 5368 182d 12       		.sleb128 18
 5369 182e 0B       		.uleb128 0xb
 5370 182f 1F190000 		.4byte	.LASF712
 5371 1833 13       		.sleb128 19
 5372 1834 0B       		.uleb128 0xb
 5373 1835 872D0000 		.4byte	.LASF713
 5374 1839 14       		.sleb128 20
 5375 183a 0B       		.uleb128 0xb
 5376 183b 1C250000 		.4byte	.LASF714
 5377 183f 15       		.sleb128 21
 5378 1840 0B       		.uleb128 0xb
 5379 1841 F7130000 		.4byte	.LASF715
 5380 1845 16       		.sleb128 22
 5381 1846 0B       		.uleb128 0xb
 5382 1847 CA110000 		.4byte	.LASF716
 5383 184b 17       		.sleb128 23
 5384 184c 0B       		.uleb128 0xb
 5385 184d 952F0000 		.4byte	.LASF717
 5386 1851 18       		.sleb128 24
 5387 1852 0B       		.uleb128 0xb
 5388 1853 DF2C0000 		.4byte	.LASF718
 5389 1857 19       		.sleb128 25
 5390 1858 0B       		.uleb128 0xb
 5391 1859 D41A0000 		.4byte	.LASF719
 5392 185d 1A       		.sleb128 26
 5393 185e 0B       		.uleb128 0xb
 5394 185f AB0C0000 		.4byte	.LASF720
 5395 1863 1B       		.sleb128 27
 5396 1864 0B       		.uleb128 0xb
 5397 1865 98000000 		.4byte	.LASF721
 5398 1869 1C       		.sleb128 28
 5399 186a 0B       		.uleb128 0xb
 5400 186b 49130000 		.4byte	.LASF722
 5401 186f 1D       		.sleb128 29
 5402 1870 0B       		.uleb128 0xb
 5403 1871 C1200000 		.4byte	.LASF723
ARM GAS  C:\Users\AHMED~1.ELE\AppData\Local\Temp\ccfMkwD6.s 			page 108


 5404 1875 1E       		.sleb128 30
 5405 1876 0B       		.uleb128 0xb
 5406 1877 BA0E0000 		.4byte	.LASF724
 5407 187b 1F       		.sleb128 31
 5408 187c 00       		.byte	0
 5409 187d 16       		.uleb128 0x16
 5410 187e 6F0B0000 		.4byte	.LASF726
 5411 1882 01       		.byte	0x1
 5412 1883 29       		.byte	0x29
 5413 1884 97000000 		.4byte	0x97
 5414 1888 00000000 		.4byte	.LFB0
 5415 188c 24000000 		.4byte	.LFE0-.LFB0
 5416 1890 01       		.uleb128 0x1
 5417 1891 9C       		.byte	0x9c
 5418 1892 DA180000 		.4byte	0x18da
 5419 1896 17       		.uleb128 0x17
 5420 1897 69647800 		.ascii	"idx\000"
 5421 189b 01       		.byte	0x1
 5422 189c 29       		.byte	0x29
 5423 189d A2000000 		.4byte	0xa2
 5424 18a1 00000000 		.4byte	.LLST0
 5425 18a5 18       		.uleb128 0x18
 5426 18a6 5F030000 		.4byte	.LASF725
 5427 18aa 01       		.byte	0x1
 5428 18ab 2B       		.byte	0x2b
 5429 18ac 20020000 		.4byte	0x220
 5430 18b0 02       		.uleb128 0x2
 5431 18b1 91       		.byte	0x91
 5432 18b2 50       		.sleb128 -48
 5433 18b3 19       		.uleb128 0x19
 5434 18b4 14000000 		.4byte	.LVL2
 5435 18b8 C13B0000 		.4byte	0x3bc1
 5436 18bc 1A       		.uleb128 0x1a
 5437 18bd 01       		.uleb128 0x1
 5438 18be 53       		.byte	0x53
 5439 18bf 01       		.uleb128 0x1
 5440 18c0 30       		.byte	0x30
 5441 18c1 1A       		.uleb128 0x1a
 5442 18c2 01       		.uleb128 0x1
 5443 18c3 52       		.byte	0x52
 5444 18c4 02       		.uleb128 0x2
 5445 18c5 91       		.byte	0x91
 5446 18c6 50       		.sleb128 -48
 5447 18c7 1A       		.uleb128 0x1a
 5448 18c8 01       		.uleb128 0x1
 5449 18c9 51       		.byte	0x51
 5450 18ca 01       		.uleb128 0x1
 5451 18cb 31       		.byte	0x31
 5452 18cc 1A       		.uleb128 0x1a
 5453 18cd 01       		.uleb128 0x1
 5454 18ce 50       		.byte	0x50
 5455 18cf 02       		.uleb128 0x2
 5456 18d0 08       		.byte	0x8
 5457 18d1 7F       		.byte	0x7f
 5458 18d2 1A       		.uleb128 0x1a
 5459 18d3 02       		.uleb128 0x2
 5460 18d4 7D       		.byte	0x7d
ARM GAS  C:\Users\AHMED~1.ELE\AppData\Local\Temp\ccfMkwD6.s 			page 109


 5461 18d5 00       		.sleb128 0
 5462 18d6 01       		.uleb128 0x1
 5463 18d7 30       		.byte	0x30
 5464 18d8 00       		.byte	0
 5465 18d9 00       		.byte	0
 5466 18da 1B       		.uleb128 0x1b
 5467 18db 13240000 		.4byte	.LASF732
 5468 18df 01       		.byte	0x1
 5469 18e0 3D       		.byte	0x3d
 5470 18e1 00000000 		.4byte	.LFB1
 5471 18e5 54000000 		.4byte	.LFE1-.LFB1
 5472 18e9 01       		.uleb128 0x1
 5473 18ea 9C       		.byte	0x9c
 5474 18eb DA190000 		.4byte	0x19da
 5475 18ef 17       		.uleb128 0x17
 5476 18f0 69647800 		.ascii	"idx\000"
 5477 18f4 01       		.byte	0x1
 5478 18f5 3D       		.byte	0x3d
 5479 18f6 A2000000 		.4byte	0xa2
 5480 18fa 21000000 		.4byte	.LLST1
 5481 18fe 1C       		.uleb128 0x1c
 5482 18ff 04000000 		.4byte	.LBB2
 5483 1903 34000000 		.4byte	.LBE2-.LBB2
 5484 1907 A6190000 		.4byte	0x19a6
 5485 190b 1D       		.uleb128 0x1d
 5486 190c 6C656E00 		.ascii	"len\000"
 5487 1910 01       		.byte	0x1
 5488 1911 3F       		.byte	0x3f
 5489 1912 B8000000 		.4byte	0xb8
 5490 1916 10       		.byte	0x10
 5491 1917 1E       		.uleb128 0x1e
 5492 1918 70747200 		.ascii	"ptr\000"
 5493 191c 01       		.byte	0x1
 5494 191d 3F       		.byte	0x3f
 5495 191e DE000000 		.4byte	0xde
 5496 1922 42000000 		.4byte	.LLST2
 5497 1926 1F       		.uleb128 0x1f
 5498 1927 0C000000 		.4byte	.LVL5
 5499 192b EA3B0000 		.4byte	0x3bea
 5500 192f 3F190000 		.4byte	0x193f
 5501 1933 1A       		.uleb128 0x1a
 5502 1934 01       		.uleb128 0x1
 5503 1935 51       		.byte	0x51
 5504 1936 01       		.uleb128 0x1
 5505 1937 41       		.byte	0x41
 5506 1938 1A       		.uleb128 0x1a
 5507 1939 01       		.uleb128 0x1
 5508 193a 50       		.byte	0x50
 5509 193b 02       		.uleb128 0x2
 5510 193c 08       		.byte	0x8
 5511 193d 92       		.byte	0x92
 5512 193e 00       		.byte	0
 5513 193f 1F       		.uleb128 0x1f
 5514 1940 18000000 		.4byte	.LVL6
 5515 1944 043C0000 		.4byte	0x3c04
 5516 1948 61190000 		.4byte	0x1961
 5517 194c 1A       		.uleb128 0x1a
ARM GAS  C:\Users\AHMED~1.ELE\AppData\Local\Temp\ccfMkwD6.s 			page 110


 5518 194d 01       		.uleb128 0x1
 5519 194e 52       		.byte	0x52
 5520 194f 01       		.uleb128 0x1
 5521 1950 40       		.byte	0x40
 5522 1951 1A       		.uleb128 0x1a
 5523 1952 01       		.uleb128 0x1
 5524 1953 51       		.byte	0x51
 5525 1954 05       		.uleb128 0x5
 5526 1955 03       		.byte	0x3
 5527 1956 00000000 		.4byte	.LC0
 5528 195a 1A       		.uleb128 0x1a
 5529 195b 01       		.uleb128 0x1
 5530 195c 50       		.byte	0x50
 5531 195d 02       		.uleb128 0x2
 5532 195e 74       		.byte	0x74
 5533 195f 00       		.sleb128 0
 5534 1960 00       		.byte	0
 5535 1961 1F       		.uleb128 0x1f
 5536 1962 30000000 		.4byte	.LVL7
 5537 1966 C13B0000 		.4byte	0x3bc1
 5538 196a 8F190000 		.4byte	0x198f
 5539 196e 1A       		.uleb128 0x1a
 5540 196f 01       		.uleb128 0x1
 5541 1970 53       		.byte	0x53
 5542 1971 03       		.uleb128 0x3
 5543 1972 0A       		.byte	0xa
 5544 1973 0005     		.2byte	0x500
 5545 1975 1A       		.uleb128 0x1a
 5546 1976 01       		.uleb128 0x1
 5547 1977 52       		.byte	0x52
 5548 1978 02       		.uleb128 0x2
 5549 1979 74       		.byte	0x74
 5550 197a 00       		.sleb128 0
 5551 197b 1A       		.uleb128 0x1a
 5552 197c 01       		.uleb128 0x1
 5553 197d 51       		.byte	0x51
 5554 197e 02       		.uleb128 0x2
 5555 197f 08       		.byte	0x8
 5556 1980 25       		.byte	0x25
 5557 1981 1A       		.uleb128 0x1a
 5558 1982 01       		.uleb128 0x1
 5559 1983 50       		.byte	0x50
 5560 1984 01       		.uleb128 0x1
 5561 1985 3F       		.byte	0x3f
 5562 1986 1A       		.uleb128 0x1a
 5563 1987 02       		.uleb128 0x2
 5564 1988 7D       		.byte	0x7d
 5565 1989 00       		.sleb128 0
 5566 198a 03       		.uleb128 0x3
 5567 198b 0A       		.byte	0xa
 5568 198c 8210     		.2byte	0x1082
 5569 198e 00       		.byte	0
 5570 198f 19       		.uleb128 0x19
 5571 1990 38000000 		.4byte	.LVL8
 5572 1994 EA3B0000 		.4byte	0x3bea
 5573 1998 1A       		.uleb128 0x1a
 5574 1999 01       		.uleb128 0x1
ARM GAS  C:\Users\AHMED~1.ELE\AppData\Local\Temp\ccfMkwD6.s 			page 111


 5575 199a 51       		.byte	0x51
 5576 199b 02       		.uleb128 0x2
 5577 199c 74       		.byte	0x74
 5578 199d 00       		.sleb128 0
 5579 199e 1A       		.uleb128 0x1a
 5580 199f 01       		.uleb128 0x1
 5581 19a0 50       		.byte	0x50
 5582 19a1 02       		.uleb128 0x2
 5583 19a2 08       		.byte	0x8
 5584 19a3 94       		.byte	0x94
 5585 19a4 00       		.byte	0
 5586 19a5 00       		.byte	0
 5587 19a6 1F       		.uleb128 0x1f
 5588 19a7 46000000 		.4byte	.LVL9
 5589 19ab C13B0000 		.4byte	0x3bc1
 5590 19af D0190000 		.4byte	0x19d0
 5591 19b3 1A       		.uleb128 0x1a
 5592 19b4 01       		.uleb128 0x1
 5593 19b5 53       		.byte	0x53
 5594 19b6 01       		.uleb128 0x1
 5595 19b7 30       		.byte	0x30
 5596 19b8 1A       		.uleb128 0x1a
 5597 19b9 01       		.uleb128 0x1
 5598 19ba 52       		.byte	0x52
 5599 19bb 02       		.uleb128 0x2
 5600 19bc 75       		.byte	0x75
 5601 19bd 00       		.sleb128 0
 5602 19be 1A       		.uleb128 0x1a
 5603 19bf 01       		.uleb128 0x1
 5604 19c0 51       		.byte	0x51
 5605 19c1 01       		.uleb128 0x1
 5606 19c2 30       		.byte	0x30
 5607 19c3 1A       		.uleb128 0x1a
 5608 19c4 01       		.uleb128 0x1
 5609 19c5 50       		.byte	0x50
 5610 19c6 02       		.uleb128 0x2
 5611 19c7 08       		.byte	0x8
 5612 19c8 7F       		.byte	0x7f
 5613 19c9 1A       		.uleb128 0x1a
 5614 19ca 02       		.uleb128 0x2
 5615 19cb 7D       		.byte	0x7d
 5616 19cc 00       		.sleb128 0
 5617 19cd 01       		.uleb128 0x1
 5618 19ce 30       		.byte	0x30
 5619 19cf 00       		.byte	0
 5620 19d0 20       		.uleb128 0x20
 5621 19d1 50000000 		.4byte	.LVL11
 5622 19d5 213C0000 		.4byte	0x3c21
 5623 19d9 00       		.byte	0
 5624 19da 16       		.uleb128 0x16
 5625 19db 632C0000 		.4byte	.LASF727
 5626 19df 01       		.byte	0x1
 5627 19e0 4D       		.byte	0x4d
 5628 19e1 97000000 		.4byte	0x97
 5629 19e5 00000000 		.4byte	.LFB2
 5630 19e9 8C020000 		.4byte	.LFE2-.LFB2
 5631 19ed 01       		.uleb128 0x1
ARM GAS  C:\Users\AHMED~1.ELE\AppData\Local\Temp\ccfMkwD6.s 			page 112


 5632 19ee 9C       		.byte	0x9c
 5633 19ef D7200000 		.4byte	0x20d7
 5634 19f3 18       		.uleb128 0x18
 5635 19f4 5E150000 		.4byte	.LASF728
 5636 19f8 01       		.byte	0x1
 5637 19f9 4F       		.byte	0x4f
 5638 19fa D7200000 		.4byte	0x20d7
 5639 19fe 03       		.uleb128 0x3
 5640 19ff 91       		.byte	0x91
 5641 1a00 AC7F     		.sleb128 -84
 5642 1a02 21       		.uleb128 0x21
 5643 1a03 60120000 		.4byte	.LASF729
 5644 1a07 01       		.byte	0x1
 5645 1a08 50       		.byte	0x50
 5646 1a09 DE000000 		.4byte	0xde
 5647 1a0d 60000000 		.4byte	.LLST3
 5648 1a11 1E       		.uleb128 0x1e
 5649 1a12 72657400 		.ascii	"ret\000"
 5650 1a16 01       		.byte	0x1
 5651 1a17 51       		.byte	0x51
 5652 1a18 AD000000 		.4byte	0xad
 5653 1a1c 89000000 		.4byte	.LLST4
 5654 1a20 22       		.uleb128 0x22
 5655 1a21 62756600 		.ascii	"buf\000"
 5656 1a25 01       		.byte	0x1
 5657 1a26 52       		.byte	0x52
 5658 1a27 F0010000 		.4byte	0x1f0
 5659 1a2b 02       		.uleb128 0x2
 5660 1a2c 91       		.byte	0x91
 5661 1a2d 48       		.sleb128 -56
 5662 1a2e 21       		.uleb128 0x21
 5663 1a2f 6E310000 		.4byte	.LASF730
 5664 1a33 01       		.byte	0x1
 5665 1a34 53       		.byte	0x53
 5666 1a35 B8000000 		.4byte	0xb8
 5667 1a39 BD000000 		.4byte	.LLST5
 5668 1a3d 21       		.uleb128 0x21
 5669 1a3e 3B240000 		.4byte	.LASF731
 5670 1a42 01       		.byte	0x1
 5671 1a43 54       		.byte	0x54
 5672 1a44 DE000000 		.4byte	0xde
 5673 1a48 DD000000 		.4byte	.LLST6
 5674 1a4c 1C       		.uleb128 0x1c
 5675 1a4d 16000000 		.4byte	.LBB3
 5676 1a51 34000000 		.4byte	.LBE3-.LBB3
 5677 1a55 F41A0000 		.4byte	0x1af4
 5678 1a59 1D       		.uleb128 0x1d
 5679 1a5a 6C656E00 		.ascii	"len\000"
 5680 1a5e 01       		.byte	0x1
 5681 1a5f 57       		.byte	0x57
 5682 1a60 B8000000 		.4byte	0xb8
 5683 1a64 16       		.byte	0x16
 5684 1a65 1E       		.uleb128 0x1e
 5685 1a66 70747200 		.ascii	"ptr\000"
 5686 1a6a 01       		.byte	0x1
 5687 1a6b 57       		.byte	0x57
 5688 1a6c DE000000 		.4byte	0xde
ARM GAS  C:\Users\AHMED~1.ELE\AppData\Local\Temp\ccfMkwD6.s 			page 113


 5689 1a70 FB000000 		.4byte	.LLST7
 5690 1a74 1F       		.uleb128 0x1f
 5691 1a75 1E000000 		.4byte	.LVL14
 5692 1a79 EA3B0000 		.4byte	0x3bea
 5693 1a7d 8D1A0000 		.4byte	0x1a8d
 5694 1a81 1A       		.uleb128 0x1a
 5695 1a82 01       		.uleb128 0x1
 5696 1a83 51       		.byte	0x51
 5697 1a84 01       		.uleb128 0x1
 5698 1a85 47       		.byte	0x47
 5699 1a86 1A       		.uleb128 0x1a
 5700 1a87 01       		.uleb128 0x1
 5701 1a88 50       		.byte	0x50
 5702 1a89 02       		.uleb128 0x2
 5703 1a8a 08       		.byte	0x8
 5704 1a8b 92       		.byte	0x92
 5705 1a8c 00       		.byte	0
 5706 1a8d 1F       		.uleb128 0x1f
 5707 1a8e 2A000000 		.4byte	.LVL15
 5708 1a92 043C0000 		.4byte	0x3c04
 5709 1a96 AF1A0000 		.4byte	0x1aaf
 5710 1a9a 1A       		.uleb128 0x1a
 5711 1a9b 01       		.uleb128 0x1
 5712 1a9c 52       		.byte	0x52
 5713 1a9d 01       		.uleb128 0x1
 5714 1a9e 46       		.byte	0x46
 5715 1a9f 1A       		.uleb128 0x1a
 5716 1aa0 01       		.uleb128 0x1
 5717 1aa1 51       		.byte	0x51
 5718 1aa2 05       		.uleb128 0x5
 5719 1aa3 03       		.byte	0x3
 5720 1aa4 11000000 		.4byte	.LC2
 5721 1aa8 1A       		.uleb128 0x1a
 5722 1aa9 01       		.uleb128 0x1
 5723 1aaa 50       		.byte	0x50
 5724 1aab 02       		.uleb128 0x2
 5725 1aac 74       		.byte	0x74
 5726 1aad 00       		.sleb128 0
 5727 1aae 00       		.byte	0
 5728 1aaf 1F       		.uleb128 0x1f
 5729 1ab0 42000000 		.4byte	.LVL16
 5730 1ab4 C13B0000 		.4byte	0x3bc1
 5731 1ab8 DD1A0000 		.4byte	0x1add
 5732 1abc 1A       		.uleb128 0x1a
 5733 1abd 01       		.uleb128 0x1
 5734 1abe 53       		.byte	0x53
 5735 1abf 03       		.uleb128 0x3
 5736 1ac0 0A       		.byte	0xa
 5737 1ac1 0001     		.2byte	0x100
 5738 1ac3 1A       		.uleb128 0x1a
 5739 1ac4 01       		.uleb128 0x1
 5740 1ac5 52       		.byte	0x52
 5741 1ac6 02       		.uleb128 0x2
 5742 1ac7 74       		.byte	0x74
 5743 1ac8 00       		.sleb128 0
 5744 1ac9 1A       		.uleb128 0x1a
 5745 1aca 01       		.uleb128 0x1
ARM GAS  C:\Users\AHMED~1.ELE\AppData\Local\Temp\ccfMkwD6.s 			page 114


 5746 1acb 51       		.byte	0x51
 5747 1acc 02       		.uleb128 0x2
 5748 1acd 08       		.byte	0x8
 5749 1ace 25       		.byte	0x25
 5750 1acf 1A       		.uleb128 0x1a
 5751 1ad0 01       		.uleb128 0x1
 5752 1ad1 50       		.byte	0x50
 5753 1ad2 01       		.uleb128 0x1
 5754 1ad3 3F       		.byte	0x3f
 5755 1ad4 1A       		.uleb128 0x1a
 5756 1ad5 02       		.uleb128 0x2
 5757 1ad6 7D       		.byte	0x7d
 5758 1ad7 00       		.sleb128 0
 5759 1ad8 03       		.uleb128 0x3
 5760 1ad9 0A       		.byte	0xa
 5761 1ada 0020     		.2byte	0x2000
 5762 1adc 00       		.byte	0
 5763 1add 19       		.uleb128 0x19
 5764 1ade 4A000000 		.4byte	.LVL17
 5765 1ae2 EA3B0000 		.4byte	0x3bea
 5766 1ae6 1A       		.uleb128 0x1a
 5767 1ae7 01       		.uleb128 0x1
 5768 1ae8 51       		.byte	0x51
 5769 1ae9 02       		.uleb128 0x2
 5770 1aea 74       		.byte	0x74
 5771 1aeb 00       		.sleb128 0
 5772 1aec 1A       		.uleb128 0x1a
 5773 1aed 01       		.uleb128 0x1
 5774 1aee 50       		.byte	0x50
 5775 1aef 02       		.uleb128 0x2
 5776 1af0 08       		.byte	0x8
 5777 1af1 94       		.byte	0x94
 5778 1af2 00       		.byte	0
 5779 1af3 00       		.byte	0
 5780 1af4 1C       		.uleb128 0x1c
 5781 1af5 4A000000 		.4byte	.LBB4
 5782 1af9 34000000 		.4byte	.LBE4-.LBB4
 5783 1afd 9C1B0000 		.4byte	0x1b9c
 5784 1b01 1D       		.uleb128 0x1d
 5785 1b02 6C656E00 		.ascii	"len\000"
 5786 1b06 01       		.byte	0x1
 5787 1b07 58       		.byte	0x58
 5788 1b08 B8000000 		.4byte	0xb8
 5789 1b0c 08       		.byte	0x8
 5790 1b0d 1E       		.uleb128 0x1e
 5791 1b0e 70747200 		.ascii	"ptr\000"
 5792 1b12 01       		.byte	0x1
 5793 1b13 58       		.byte	0x58
 5794 1b14 DE000000 		.4byte	0xde
 5795 1b18 19010000 		.4byte	.LLST8
 5796 1b1c 1F       		.uleb128 0x1f
 5797 1b1d 52000000 		.4byte	.LVL18
 5798 1b21 EA3B0000 		.4byte	0x3bea
 5799 1b25 351B0000 		.4byte	0x1b35
 5800 1b29 1A       		.uleb128 0x1a
 5801 1b2a 01       		.uleb128 0x1
 5802 1b2b 51       		.byte	0x51
ARM GAS  C:\Users\AHMED~1.ELE\AppData\Local\Temp\ccfMkwD6.s 			page 115


 5803 1b2c 01       		.uleb128 0x1
 5804 1b2d 39       		.byte	0x39
 5805 1b2e 1A       		.uleb128 0x1a
 5806 1b2f 01       		.uleb128 0x1
 5807 1b30 50       		.byte	0x50
 5808 1b31 02       		.uleb128 0x2
 5809 1b32 08       		.byte	0x8
 5810 1b33 92       		.byte	0x92
 5811 1b34 00       		.byte	0
 5812 1b35 1F       		.uleb128 0x1f
 5813 1b36 5E000000 		.4byte	.LVL20
 5814 1b3a 043C0000 		.4byte	0x3c04
 5815 1b3e 571B0000 		.4byte	0x1b57
 5816 1b42 1A       		.uleb128 0x1a
 5817 1b43 01       		.uleb128 0x1
 5818 1b44 52       		.byte	0x52
 5819 1b45 01       		.uleb128 0x1
 5820 1b46 38       		.byte	0x38
 5821 1b47 1A       		.uleb128 0x1a
 5822 1b48 01       		.uleb128 0x1
 5823 1b49 51       		.byte	0x51
 5824 1b4a 05       		.uleb128 0x5
 5825 1b4b 03       		.byte	0x3
 5826 1b4c 28000000 		.4byte	.LC3
 5827 1b50 1A       		.uleb128 0x1a
 5828 1b51 01       		.uleb128 0x1
 5829 1b52 50       		.byte	0x50
 5830 1b53 02       		.uleb128 0x2
 5831 1b54 74       		.byte	0x74
 5832 1b55 00       		.sleb128 0
 5833 1b56 00       		.byte	0
 5834 1b57 1F       		.uleb128 0x1f
 5835 1b58 76000000 		.4byte	.LVL21
 5836 1b5c C13B0000 		.4byte	0x3bc1
 5837 1b60 851B0000 		.4byte	0x1b85
 5838 1b64 1A       		.uleb128 0x1a
 5839 1b65 01       		.uleb128 0x1
 5840 1b66 53       		.byte	0x53
 5841 1b67 03       		.uleb128 0x3
 5842 1b68 0A       		.byte	0xa
 5843 1b69 0002     		.2byte	0x200
 5844 1b6b 1A       		.uleb128 0x1a
 5845 1b6c 01       		.uleb128 0x1
 5846 1b6d 52       		.byte	0x52
 5847 1b6e 02       		.uleb128 0x2
 5848 1b6f 74       		.byte	0x74
 5849 1b70 00       		.sleb128 0
 5850 1b71 1A       		.uleb128 0x1a
 5851 1b72 01       		.uleb128 0x1
 5852 1b73 51       		.byte	0x51
 5853 1b74 02       		.uleb128 0x2
 5854 1b75 08       		.byte	0x8
 5855 1b76 25       		.byte	0x25
 5856 1b77 1A       		.uleb128 0x1a
 5857 1b78 01       		.uleb128 0x1
 5858 1b79 50       		.byte	0x50
 5859 1b7a 01       		.uleb128 0x1
ARM GAS  C:\Users\AHMED~1.ELE\AppData\Local\Temp\ccfMkwD6.s 			page 116


 5860 1b7b 3F       		.byte	0x3f
 5861 1b7c 1A       		.uleb128 0x1a
 5862 1b7d 02       		.uleb128 0x2
 5863 1b7e 7D       		.byte	0x7d
 5864 1b7f 00       		.sleb128 0
 5865 1b80 03       		.uleb128 0x3
 5866 1b81 0A       		.byte	0xa
 5867 1b82 0020     		.2byte	0x2000
 5868 1b84 00       		.byte	0
 5869 1b85 19       		.uleb128 0x19
 5870 1b86 7E000000 		.4byte	.LVL22
 5871 1b8a EA3B0000 		.4byte	0x3bea
 5872 1b8e 1A       		.uleb128 0x1a
 5873 1b8f 01       		.uleb128 0x1
 5874 1b90 51       		.byte	0x51
 5875 1b91 02       		.uleb128 0x2
 5876 1b92 74       		.byte	0x74
 5877 1b93 00       		.sleb128 0
 5878 1b94 1A       		.uleb128 0x1a
 5879 1b95 01       		.uleb128 0x1
 5880 1b96 50       		.byte	0x50
 5881 1b97 02       		.uleb128 0x2
 5882 1b98 08       		.byte	0x8
 5883 1b99 94       		.byte	0x94
 5884 1b9a 00       		.byte	0
 5885 1b9b 00       		.byte	0
 5886 1b9c 1C       		.uleb128 0x1c
 5887 1b9d 7E000000 		.4byte	.LBB5
 5888 1ba1 34000000 		.4byte	.LBE5-.LBB5
 5889 1ba5 441C0000 		.4byte	0x1c44
 5890 1ba9 1D       		.uleb128 0x1d
 5891 1baa 6C656E00 		.ascii	"len\000"
 5892 1bae 01       		.byte	0x1
 5893 1baf 59       		.byte	0x59
 5894 1bb0 B8000000 		.4byte	0xb8
 5895 1bb4 08       		.byte	0x8
 5896 1bb5 1E       		.uleb128 0x1e
 5897 1bb6 70747200 		.ascii	"ptr\000"
 5898 1bba 01       		.byte	0x1
 5899 1bbb 59       		.byte	0x59
 5900 1bbc DE000000 		.4byte	0xde
 5901 1bc0 37010000 		.4byte	.LLST9
 5902 1bc4 1F       		.uleb128 0x1f
 5903 1bc5 86000000 		.4byte	.LVL23
 5904 1bc9 EA3B0000 		.4byte	0x3bea
 5905 1bcd DD1B0000 		.4byte	0x1bdd
 5906 1bd1 1A       		.uleb128 0x1a
 5907 1bd2 01       		.uleb128 0x1
 5908 1bd3 51       		.byte	0x51
 5909 1bd4 01       		.uleb128 0x1
 5910 1bd5 39       		.byte	0x39
 5911 1bd6 1A       		.uleb128 0x1a
 5912 1bd7 01       		.uleb128 0x1
 5913 1bd8 50       		.byte	0x50
 5914 1bd9 02       		.uleb128 0x2
 5915 1bda 08       		.byte	0x8
 5916 1bdb 92       		.byte	0x92
ARM GAS  C:\Users\AHMED~1.ELE\AppData\Local\Temp\ccfMkwD6.s 			page 117


 5917 1bdc 00       		.byte	0
 5918 1bdd 1F       		.uleb128 0x1f
 5919 1bde 92000000 		.4byte	.LVL25
 5920 1be2 043C0000 		.4byte	0x3c04
 5921 1be6 FF1B0000 		.4byte	0x1bff
 5922 1bea 1A       		.uleb128 0x1a
 5923 1beb 01       		.uleb128 0x1
 5924 1bec 52       		.byte	0x52
 5925 1bed 01       		.uleb128 0x1
 5926 1bee 38       		.byte	0x38
 5927 1bef 1A       		.uleb128 0x1a
 5928 1bf0 01       		.uleb128 0x1
 5929 1bf1 51       		.byte	0x51
 5930 1bf2 05       		.uleb128 0x5
 5931 1bf3 03       		.byte	0x3
 5932 1bf4 31000000 		.4byte	.LC4
 5933 1bf8 1A       		.uleb128 0x1a
 5934 1bf9 01       		.uleb128 0x1
 5935 1bfa 50       		.byte	0x50
 5936 1bfb 02       		.uleb128 0x2
 5937 1bfc 74       		.byte	0x74
 5938 1bfd 00       		.sleb128 0
 5939 1bfe 00       		.byte	0
 5940 1bff 1F       		.uleb128 0x1f
 5941 1c00 AA000000 		.4byte	.LVL26
 5942 1c04 C13B0000 		.4byte	0x3bc1
 5943 1c08 2D1C0000 		.4byte	0x1c2d
 5944 1c0c 1A       		.uleb128 0x1a
 5945 1c0d 01       		.uleb128 0x1
 5946 1c0e 53       		.byte	0x53
 5947 1c0f 03       		.uleb128 0x3
 5948 1c10 0A       		.byte	0xa
 5949 1c11 0003     		.2byte	0x300
 5950 1c13 1A       		.uleb128 0x1a
 5951 1c14 01       		.uleb128 0x1
 5952 1c15 52       		.byte	0x52
 5953 1c16 02       		.uleb128 0x2
 5954 1c17 74       		.byte	0x74
 5955 1c18 00       		.sleb128 0
 5956 1c19 1A       		.uleb128 0x1a
 5957 1c1a 01       		.uleb128 0x1
 5958 1c1b 51       		.byte	0x51
 5959 1c1c 02       		.uleb128 0x2
 5960 1c1d 08       		.byte	0x8
 5961 1c1e 25       		.byte	0x25
 5962 1c1f 1A       		.uleb128 0x1a
 5963 1c20 01       		.uleb128 0x1
 5964 1c21 50       		.byte	0x50
 5965 1c22 01       		.uleb128 0x1
 5966 1c23 3F       		.byte	0x3f
 5967 1c24 1A       		.uleb128 0x1a
 5968 1c25 02       		.uleb128 0x2
 5969 1c26 7D       		.byte	0x7d
 5970 1c27 00       		.sleb128 0
 5971 1c28 03       		.uleb128 0x3
 5972 1c29 0A       		.byte	0xa
 5973 1c2a 0020     		.2byte	0x2000
ARM GAS  C:\Users\AHMED~1.ELE\AppData\Local\Temp\ccfMkwD6.s 			page 118


 5974 1c2c 00       		.byte	0
 5975 1c2d 19       		.uleb128 0x19
 5976 1c2e B2000000 		.4byte	.LVL27
 5977 1c32 EA3B0000 		.4byte	0x3bea
 5978 1c36 1A       		.uleb128 0x1a
 5979 1c37 01       		.uleb128 0x1
 5980 1c38 51       		.byte	0x51
 5981 1c39 02       		.uleb128 0x2
 5982 1c3a 74       		.byte	0x74
 5983 1c3b 00       		.sleb128 0
 5984 1c3c 1A       		.uleb128 0x1a
 5985 1c3d 01       		.uleb128 0x1
 5986 1c3e 50       		.byte	0x50
 5987 1c3f 02       		.uleb128 0x2
 5988 1c40 08       		.byte	0x8
 5989 1c41 94       		.byte	0x94
 5990 1c42 00       		.byte	0
 5991 1c43 00       		.byte	0
 5992 1c44 1C       		.uleb128 0x1c
 5993 1c45 B2000000 		.4byte	.LBB6
 5994 1c49 34000000 		.4byte	.LBE6-.LBB6
 5995 1c4d EC1C0000 		.4byte	0x1cec
 5996 1c51 1D       		.uleb128 0x1d
 5997 1c52 6C656E00 		.ascii	"len\000"
 5998 1c56 01       		.byte	0x1
 5999 1c57 5A       		.byte	0x5a
 6000 1c58 B8000000 		.4byte	0xb8
 6001 1c5c 08       		.byte	0x8
 6002 1c5d 1E       		.uleb128 0x1e
 6003 1c5e 70747200 		.ascii	"ptr\000"
 6004 1c62 01       		.byte	0x1
 6005 1c63 5A       		.byte	0x5a
 6006 1c64 DE000000 		.4byte	0xde
 6007 1c68 55010000 		.4byte	.LLST10
 6008 1c6c 1F       		.uleb128 0x1f
 6009 1c6d BA000000 		.4byte	.LVL28
 6010 1c71 EA3B0000 		.4byte	0x3bea
 6011 1c75 851C0000 		.4byte	0x1c85
 6012 1c79 1A       		.uleb128 0x1a
 6013 1c7a 01       		.uleb128 0x1
 6014 1c7b 51       		.byte	0x51
 6015 1c7c 01       		.uleb128 0x1
 6016 1c7d 39       		.byte	0x39
 6017 1c7e 1A       		.uleb128 0x1a
 6018 1c7f 01       		.uleb128 0x1
 6019 1c80 50       		.byte	0x50
 6020 1c81 02       		.uleb128 0x2
 6021 1c82 08       		.byte	0x8
 6022 1c83 92       		.byte	0x92
 6023 1c84 00       		.byte	0
 6024 1c85 1F       		.uleb128 0x1f
 6025 1c86 C6000000 		.4byte	.LVL30
 6026 1c8a 043C0000 		.4byte	0x3c04
 6027 1c8e A71C0000 		.4byte	0x1ca7
 6028 1c92 1A       		.uleb128 0x1a
 6029 1c93 01       		.uleb128 0x1
 6030 1c94 52       		.byte	0x52
ARM GAS  C:\Users\AHMED~1.ELE\AppData\Local\Temp\ccfMkwD6.s 			page 119


 6031 1c95 01       		.uleb128 0x1
 6032 1c96 38       		.byte	0x38
 6033 1c97 1A       		.uleb128 0x1a
 6034 1c98 01       		.uleb128 0x1
 6035 1c99 51       		.byte	0x51
 6036 1c9a 05       		.uleb128 0x5
 6037 1c9b 03       		.byte	0x3
 6038 1c9c 3A000000 		.4byte	.LC5
 6039 1ca0 1A       		.uleb128 0x1a
 6040 1ca1 01       		.uleb128 0x1
 6041 1ca2 50       		.byte	0x50
 6042 1ca3 02       		.uleb128 0x2
 6043 1ca4 74       		.byte	0x74
 6044 1ca5 00       		.sleb128 0
 6045 1ca6 00       		.byte	0
 6046 1ca7 1F       		.uleb128 0x1f
 6047 1ca8 DE000000 		.4byte	.LVL31
 6048 1cac C13B0000 		.4byte	0x3bc1
 6049 1cb0 D51C0000 		.4byte	0x1cd5
 6050 1cb4 1A       		.uleb128 0x1a
 6051 1cb5 01       		.uleb128 0x1
 6052 1cb6 53       		.byte	0x53
 6053 1cb7 03       		.uleb128 0x3
 6054 1cb8 0A       		.byte	0xa
 6055 1cb9 0004     		.2byte	0x400
 6056 1cbb 1A       		.uleb128 0x1a
 6057 1cbc 01       		.uleb128 0x1
 6058 1cbd 52       		.byte	0x52
 6059 1cbe 02       		.uleb128 0x2
 6060 1cbf 74       		.byte	0x74
 6061 1cc0 00       		.sleb128 0
 6062 1cc1 1A       		.uleb128 0x1a
 6063 1cc2 01       		.uleb128 0x1
 6064 1cc3 51       		.byte	0x51
 6065 1cc4 02       		.uleb128 0x2
 6066 1cc5 08       		.byte	0x8
 6067 1cc6 25       		.byte	0x25
 6068 1cc7 1A       		.uleb128 0x1a
 6069 1cc8 01       		.uleb128 0x1
 6070 1cc9 50       		.byte	0x50
 6071 1cca 01       		.uleb128 0x1
 6072 1ccb 3F       		.byte	0x3f
 6073 1ccc 1A       		.uleb128 0x1a
 6074 1ccd 02       		.uleb128 0x2
 6075 1cce 7D       		.byte	0x7d
 6076 1ccf 00       		.sleb128 0
 6077 1cd0 03       		.uleb128 0x3
 6078 1cd1 0A       		.byte	0xa
 6079 1cd2 0020     		.2byte	0x2000
 6080 1cd4 00       		.byte	0
 6081 1cd5 19       		.uleb128 0x19
 6082 1cd6 E6000000 		.4byte	.LVL32
 6083 1cda EA3B0000 		.4byte	0x3bea
 6084 1cde 1A       		.uleb128 0x1a
 6085 1cdf 01       		.uleb128 0x1
 6086 1ce0 51       		.byte	0x51
 6087 1ce1 02       		.uleb128 0x2
ARM GAS  C:\Users\AHMED~1.ELE\AppData\Local\Temp\ccfMkwD6.s 			page 120


 6088 1ce2 74       		.byte	0x74
 6089 1ce3 00       		.sleb128 0
 6090 1ce4 1A       		.uleb128 0x1a
 6091 1ce5 01       		.uleb128 0x1
 6092 1ce6 50       		.byte	0x50
 6093 1ce7 02       		.uleb128 0x2
 6094 1ce8 08       		.byte	0x8
 6095 1ce9 94       		.byte	0x94
 6096 1cea 00       		.byte	0
 6097 1ceb 00       		.byte	0
 6098 1cec 1C       		.uleb128 0x1c
 6099 1ced 76010000 		.4byte	.LBB7
 6100 1cf1 32000000 		.4byte	.LBE7-.LBB7
 6101 1cf5 971D0000 		.4byte	0x1d97
 6102 1cf9 1E       		.uleb128 0x1e
 6103 1cfa 6C656E00 		.ascii	"len\000"
 6104 1cfe 01       		.byte	0x1
 6105 1cff 81       		.byte	0x81
 6106 1d00 B8000000 		.4byte	0xb8
 6107 1d04 73010000 		.4byte	.LLST11
 6108 1d08 1E       		.uleb128 0x1e
 6109 1d09 70747200 		.ascii	"ptr\000"
 6110 1d0d 01       		.byte	0x1
 6111 1d0e 81       		.byte	0x81
 6112 1d0f DE000000 		.4byte	0xde
 6113 1d13 87010000 		.4byte	.LLST12
 6114 1d17 1F       		.uleb128 0x1f
 6115 1d18 7E010000 		.4byte	.LVL47
 6116 1d1c EA3B0000 		.4byte	0x3bea
 6117 1d20 301D0000 		.4byte	0x1d30
 6118 1d24 1A       		.uleb128 0x1a
 6119 1d25 01       		.uleb128 0x1
 6120 1d26 51       		.byte	0x51
 6121 1d27 01       		.uleb128 0x1
 6122 1d28 3D       		.byte	0x3d
 6123 1d29 1A       		.uleb128 0x1a
 6124 1d2a 01       		.uleb128 0x1
 6125 1d2b 50       		.byte	0x50
 6126 1d2c 02       		.uleb128 0x2
 6127 1d2d 08       		.byte	0x8
 6128 1d2e 92       		.byte	0x92
 6129 1d2f 00       		.byte	0
 6130 1d30 1F       		.uleb128 0x1f
 6131 1d31 8A010000 		.4byte	.LVL49
 6132 1d35 043C0000 		.4byte	0x3c04
 6133 1d39 521D0000 		.4byte	0x1d52
 6134 1d3d 1A       		.uleb128 0x1a
 6135 1d3e 01       		.uleb128 0x1
 6136 1d3f 52       		.byte	0x52
 6137 1d40 01       		.uleb128 0x1
 6138 1d41 3C       		.byte	0x3c
 6139 1d42 1A       		.uleb128 0x1a
 6140 1d43 01       		.uleb128 0x1
 6141 1d44 51       		.byte	0x51
 6142 1d45 05       		.uleb128 0x5
 6143 1d46 03       		.byte	0x3
 6144 1d47 43000000 		.4byte	.LC7
ARM GAS  C:\Users\AHMED~1.ELE\AppData\Local\Temp\ccfMkwD6.s 			page 121


 6145 1d4b 1A       		.uleb128 0x1a
 6146 1d4c 01       		.uleb128 0x1
 6147 1d4d 50       		.byte	0x50
 6148 1d4e 02       		.uleb128 0x2
 6149 1d4f 74       		.byte	0x74
 6150 1d50 00       		.sleb128 0
 6151 1d51 00       		.byte	0
 6152 1d52 1F       		.uleb128 0x1f
 6153 1d53 A0010000 		.4byte	.LVL50
 6154 1d57 C13B0000 		.4byte	0x3bc1
 6155 1d5b 801D0000 		.4byte	0x1d80
 6156 1d5f 1A       		.uleb128 0x1a
 6157 1d60 01       		.uleb128 0x1
 6158 1d61 53       		.byte	0x53
 6159 1d62 03       		.uleb128 0x3
 6160 1d63 0A       		.byte	0xa
 6161 1d64 0005     		.2byte	0x500
 6162 1d66 1A       		.uleb128 0x1a
 6163 1d67 01       		.uleb128 0x1
 6164 1d68 52       		.byte	0x52
 6165 1d69 02       		.uleb128 0x2
 6166 1d6a 74       		.byte	0x74
 6167 1d6b 00       		.sleb128 0
 6168 1d6c 1A       		.uleb128 0x1a
 6169 1d6d 01       		.uleb128 0x1
 6170 1d6e 51       		.byte	0x51
 6171 1d6f 02       		.uleb128 0x2
 6172 1d70 08       		.byte	0x8
 6173 1d71 25       		.byte	0x25
 6174 1d72 1A       		.uleb128 0x1a
 6175 1d73 01       		.uleb128 0x1
 6176 1d74 50       		.byte	0x50
 6177 1d75 01       		.uleb128 0x1
 6178 1d76 3F       		.byte	0x3f
 6179 1d77 1A       		.uleb128 0x1a
 6180 1d78 02       		.uleb128 0x2
 6181 1d79 7D       		.byte	0x7d
 6182 1d7a 00       		.sleb128 0
 6183 1d7b 03       		.uleb128 0x3
 6184 1d7c 0A       		.byte	0xa
 6185 1d7d 0210     		.2byte	0x1002
 6186 1d7f 00       		.byte	0
 6187 1d80 19       		.uleb128 0x19
 6188 1d81 A8010000 		.4byte	.LVL51
 6189 1d85 EA3B0000 		.4byte	0x3bea
 6190 1d89 1A       		.uleb128 0x1a
 6191 1d8a 01       		.uleb128 0x1
 6192 1d8b 51       		.byte	0x51
 6193 1d8c 02       		.uleb128 0x2
 6194 1d8d 74       		.byte	0x74
 6195 1d8e 00       		.sleb128 0
 6196 1d8f 1A       		.uleb128 0x1a
 6197 1d90 01       		.uleb128 0x1
 6198 1d91 50       		.byte	0x50
 6199 1d92 02       		.uleb128 0x2
 6200 1d93 08       		.byte	0x8
 6201 1d94 94       		.byte	0x94
ARM GAS  C:\Users\AHMED~1.ELE\AppData\Local\Temp\ccfMkwD6.s 			page 122


 6202 1d95 00       		.byte	0
 6203 1d96 00       		.byte	0
 6204 1d97 1C       		.uleb128 0x1c
 6205 1d98 B2010000 		.4byte	.LBB8
 6206 1d9c 3C000000 		.4byte	.LBE8-.LBB8
 6207 1da0 551E0000 		.4byte	0x1e55
 6208 1da4 1E       		.uleb128 0x1e
 6209 1da5 6C656E00 		.ascii	"len\000"
 6210 1da9 01       		.byte	0x1
 6211 1daa 83       		.byte	0x83
 6212 1dab B8000000 		.4byte	0xb8
 6213 1daf A5010000 		.4byte	.LLST13
 6214 1db3 1E       		.uleb128 0x1e
 6215 1db4 70747200 		.ascii	"ptr\000"
 6216 1db8 01       		.byte	0x1
 6217 1db9 83       		.byte	0x83
 6218 1dba DE000000 		.4byte	0xde
 6219 1dbe C3010000 		.4byte	.LLST14
 6220 1dc2 1F       		.uleb128 0x1f
 6221 1dc3 B8010000 		.4byte	.LVL53
 6222 1dc7 283C0000 		.4byte	0x3c28
 6223 1dcb D61D0000 		.4byte	0x1dd6
 6224 1dcf 1A       		.uleb128 0x1a
 6225 1dd0 01       		.uleb128 0x1
 6226 1dd1 50       		.byte	0x50
 6227 1dd2 02       		.uleb128 0x2
 6228 1dd3 91       		.byte	0x91
 6229 1dd4 48       		.sleb128 -56
 6230 1dd5 00       		.byte	0
 6231 1dd6 1F       		.uleb128 0x1f
 6232 1dd7 C2010000 		.4byte	.LVL56
 6233 1ddb EA3B0000 		.4byte	0x3bea
 6234 1ddf F01D0000 		.4byte	0x1df0
 6235 1de3 1A       		.uleb128 0x1a
 6236 1de4 01       		.uleb128 0x1
 6237 1de5 51       		.byte	0x51
 6238 1de6 02       		.uleb128 0x2
 6239 1de7 75       		.byte	0x75
 6240 1de8 01       		.sleb128 1
 6241 1de9 1A       		.uleb128 0x1a
 6242 1dea 01       		.uleb128 0x1
 6243 1deb 50       		.byte	0x50
 6244 1dec 02       		.uleb128 0x2
 6245 1ded 08       		.byte	0x8
 6246 1dee 92       		.byte	0x92
 6247 1def 00       		.byte	0
 6248 1df0 1F       		.uleb128 0x1f
 6249 1df1 CE010000 		.4byte	.LVL58
 6250 1df5 043C0000 		.4byte	0x3c04
 6251 1df9 101E0000 		.4byte	0x1e10
 6252 1dfd 1A       		.uleb128 0x1a
 6253 1dfe 01       		.uleb128 0x1
 6254 1dff 52       		.byte	0x52
 6255 1e00 02       		.uleb128 0x2
 6256 1e01 75       		.byte	0x75
 6257 1e02 00       		.sleb128 0
 6258 1e03 1A       		.uleb128 0x1a
ARM GAS  C:\Users\AHMED~1.ELE\AppData\Local\Temp\ccfMkwD6.s 			page 123


 6259 1e04 01       		.uleb128 0x1
 6260 1e05 51       		.byte	0x51
 6261 1e06 02       		.uleb128 0x2
 6262 1e07 91       		.byte	0x91
 6263 1e08 48       		.sleb128 -56
 6264 1e09 1A       		.uleb128 0x1a
 6265 1e0a 01       		.uleb128 0x1
 6266 1e0b 50       		.byte	0x50
 6267 1e0c 02       		.uleb128 0x2
 6268 1e0d 74       		.byte	0x74
 6269 1e0e 00       		.sleb128 0
 6270 1e0f 00       		.byte	0
 6271 1e10 1F       		.uleb128 0x1f
 6272 1e11 E6010000 		.4byte	.LVL59
 6273 1e15 C13B0000 		.4byte	0x3bc1
 6274 1e19 3E1E0000 		.4byte	0x1e3e
 6275 1e1d 1A       		.uleb128 0x1a
 6276 1e1e 01       		.uleb128 0x1
 6277 1e1f 53       		.byte	0x53
 6278 1e20 03       		.uleb128 0x3
 6279 1e21 0A       		.byte	0xa
 6280 1e22 0007     		.2byte	0x700
 6281 1e24 1A       		.uleb128 0x1a
 6282 1e25 01       		.uleb128 0x1
 6283 1e26 52       		.byte	0x52
 6284 1e27 02       		.uleb128 0x2
 6285 1e28 74       		.byte	0x74
 6286 1e29 00       		.sleb128 0
 6287 1e2a 1A       		.uleb128 0x1a
 6288 1e2b 01       		.uleb128 0x1
 6289 1e2c 51       		.byte	0x51
 6290 1e2d 02       		.uleb128 0x2
 6291 1e2e 08       		.byte	0x8
 6292 1e2f 25       		.byte	0x25
 6293 1e30 1A       		.uleb128 0x1a
 6294 1e31 01       		.uleb128 0x1
 6295 1e32 50       		.byte	0x50
 6296 1e33 01       		.uleb128 0x1
 6297 1e34 3F       		.byte	0x3f
 6298 1e35 1A       		.uleb128 0x1a
 6299 1e36 02       		.uleb128 0x2
 6300 1e37 7D       		.byte	0x7d
 6301 1e38 00       		.sleb128 0
 6302 1e39 03       		.uleb128 0x3
 6303 1e3a 0A       		.byte	0xa
 6304 1e3b 0210     		.2byte	0x1002
 6305 1e3d 00       		.byte	0
 6306 1e3e 19       		.uleb128 0x19
 6307 1e3f EE010000 		.4byte	.LVL60
 6308 1e43 EA3B0000 		.4byte	0x3bea
 6309 1e47 1A       		.uleb128 0x1a
 6310 1e48 01       		.uleb128 0x1
 6311 1e49 51       		.byte	0x51
 6312 1e4a 02       		.uleb128 0x2
 6313 1e4b 74       		.byte	0x74
 6314 1e4c 00       		.sleb128 0
 6315 1e4d 1A       		.uleb128 0x1a
ARM GAS  C:\Users\AHMED~1.ELE\AppData\Local\Temp\ccfMkwD6.s 			page 124


 6316 1e4e 01       		.uleb128 0x1
 6317 1e4f 50       		.byte	0x50
 6318 1e50 02       		.uleb128 0x2
 6319 1e51 08       		.byte	0x8
 6320 1e52 94       		.byte	0x94
 6321 1e53 00       		.byte	0
 6322 1e54 00       		.byte	0
 6323 1e55 1C       		.uleb128 0x1c
 6324 1e56 18020000 		.4byte	.LBB9
 6325 1e5a 32000000 		.4byte	.LBE9-.LBB9
 6326 1e5e 001F0000 		.4byte	0x1f00
 6327 1e62 1E       		.uleb128 0x1e
 6328 1e63 6C656E00 		.ascii	"len\000"
 6329 1e67 01       		.byte	0x1
 6330 1e68 8B       		.byte	0x8b
 6331 1e69 B8000000 		.4byte	0xb8
 6332 1e6d E1010000 		.4byte	.LLST15
 6333 1e71 1E       		.uleb128 0x1e
 6334 1e72 70747200 		.ascii	"ptr\000"
 6335 1e76 01       		.byte	0x1
 6336 1e77 8B       		.byte	0x8b
 6337 1e78 DE000000 		.4byte	0xde
 6338 1e7c F5010000 		.4byte	.LLST16
 6339 1e80 1F       		.uleb128 0x1f
 6340 1e81 20020000 		.4byte	.LVL69
 6341 1e85 EA3B0000 		.4byte	0x3bea
 6342 1e89 991E0000 		.4byte	0x1e99
 6343 1e8d 1A       		.uleb128 0x1a
 6344 1e8e 01       		.uleb128 0x1
 6345 1e8f 51       		.byte	0x51
 6346 1e90 01       		.uleb128 0x1
 6347 1e91 38       		.byte	0x38
 6348 1e92 1A       		.uleb128 0x1a
 6349 1e93 01       		.uleb128 0x1
 6350 1e94 50       		.byte	0x50
 6351 1e95 02       		.uleb128 0x2
 6352 1e96 08       		.byte	0x8
 6353 1e97 92       		.byte	0x92
 6354 1e98 00       		.byte	0
 6355 1e99 1F       		.uleb128 0x1f
 6356 1e9a 2C020000 		.4byte	.LVL71
 6357 1e9e 043C0000 		.4byte	0x3c04
 6358 1ea2 BB1E0000 		.4byte	0x1ebb
 6359 1ea6 1A       		.uleb128 0x1a
 6360 1ea7 01       		.uleb128 0x1
 6361 1ea8 52       		.byte	0x52
 6362 1ea9 01       		.uleb128 0x1
 6363 1eaa 37       		.byte	0x37
 6364 1eab 1A       		.uleb128 0x1a
 6365 1eac 01       		.uleb128 0x1
 6366 1ead 51       		.byte	0x51
 6367 1eae 05       		.uleb128 0x5
 6368 1eaf 03       		.byte	0x3
 6369 1eb0 59000000 		.4byte	.LC9
 6370 1eb4 1A       		.uleb128 0x1a
 6371 1eb5 01       		.uleb128 0x1
 6372 1eb6 50       		.byte	0x50
ARM GAS  C:\Users\AHMED~1.ELE\AppData\Local\Temp\ccfMkwD6.s 			page 125


 6373 1eb7 02       		.uleb128 0x2
 6374 1eb8 74       		.byte	0x74
 6375 1eb9 00       		.sleb128 0
 6376 1eba 00       		.byte	0
 6377 1ebb 1F       		.uleb128 0x1f
 6378 1ebc 42020000 		.4byte	.LVL72
 6379 1ec0 C13B0000 		.4byte	0x3bc1
 6380 1ec4 E91E0000 		.4byte	0x1ee9
 6381 1ec8 1A       		.uleb128 0x1a
 6382 1ec9 01       		.uleb128 0x1
 6383 1eca 53       		.byte	0x53
 6384 1ecb 03       		.uleb128 0x3
 6385 1ecc 0A       		.byte	0xa
 6386 1ecd 0005     		.2byte	0x500
 6387 1ecf 1A       		.uleb128 0x1a
 6388 1ed0 01       		.uleb128 0x1
 6389 1ed1 52       		.byte	0x52
 6390 1ed2 02       		.uleb128 0x2
 6391 1ed3 74       		.byte	0x74
 6392 1ed4 00       		.sleb128 0
 6393 1ed5 1A       		.uleb128 0x1a
 6394 1ed6 01       		.uleb128 0x1
 6395 1ed7 51       		.byte	0x51
 6396 1ed8 02       		.uleb128 0x2
 6397 1ed9 08       		.byte	0x8
 6398 1eda 25       		.byte	0x25
 6399 1edb 1A       		.uleb128 0x1a
 6400 1edc 01       		.uleb128 0x1
 6401 1edd 50       		.byte	0x50
 6402 1ede 01       		.uleb128 0x1
 6403 1edf 3F       		.byte	0x3f
 6404 1ee0 1A       		.uleb128 0x1a
 6405 1ee1 02       		.uleb128 0x2
 6406 1ee2 7D       		.byte	0x7d
 6407 1ee3 00       		.sleb128 0
 6408 1ee4 03       		.uleb128 0x3
 6409 1ee5 0A       		.byte	0xa
 6410 1ee6 8210     		.2byte	0x1082
 6411 1ee8 00       		.byte	0
 6412 1ee9 19       		.uleb128 0x19
 6413 1eea 4A020000 		.4byte	.LVL73
 6414 1eee EA3B0000 		.4byte	0x3bea
 6415 1ef2 1A       		.uleb128 0x1a
 6416 1ef3 01       		.uleb128 0x1
 6417 1ef4 51       		.byte	0x51
 6418 1ef5 02       		.uleb128 0x2
 6419 1ef6 74       		.byte	0x74
 6420 1ef7 00       		.sleb128 0
 6421 1ef8 1A       		.uleb128 0x1a
 6422 1ef9 01       		.uleb128 0x1
 6423 1efa 50       		.byte	0x50
 6424 1efb 02       		.uleb128 0x2
 6425 1efc 08       		.byte	0x8
 6426 1efd 94       		.byte	0x94
 6427 1efe 00       		.byte	0
 6428 1eff 00       		.byte	0
 6429 1f00 1F       		.uleb128 0x1f
ARM GAS  C:\Users\AHMED~1.ELE\AppData\Local\Temp\ccfMkwD6.s 			page 126


 6430 1f01 0E000000 		.4byte	.LVL12
 6431 1f05 043C0000 		.4byte	0x3c04
 6432 1f09 231F0000 		.4byte	0x1f23
 6433 1f0d 1A       		.uleb128 0x1a
 6434 1f0e 01       		.uleb128 0x1
 6435 1f0f 52       		.byte	0x52
 6436 1f10 01       		.uleb128 0x1
 6437 1f11 49       		.byte	0x49
 6438 1f12 1A       		.uleb128 0x1a
 6439 1f13 01       		.uleb128 0x1
 6440 1f14 51       		.byte	0x51
 6441 1f15 05       		.uleb128 0x5
 6442 1f16 03       		.byte	0x3
 6443 1f17 61000000 		.4byte	.LC1
 6444 1f1b 1A       		.uleb128 0x1a
 6445 1f1c 01       		.uleb128 0x1
 6446 1f1d 50       		.byte	0x50
 6447 1f1e 03       		.uleb128 0x3
 6448 1f1f 91       		.byte	0x91
 6449 1f20 AC7F     		.sleb128 -84
 6450 1f22 00       		.byte	0
 6451 1f23 1F       		.uleb128 0x1f
 6452 1f24 16000000 		.4byte	.LVL13
 6453 1f28 EA3B0000 		.4byte	0x3bea
 6454 1f2c 3B1F0000 		.4byte	0x1f3b
 6455 1f30 1A       		.uleb128 0x1a
 6456 1f31 01       		.uleb128 0x1
 6457 1f32 51       		.byte	0x51
 6458 1f33 01       		.uleb128 0x1
 6459 1f34 3C       		.byte	0x3c
 6460 1f35 1A       		.uleb128 0x1a
 6461 1f36 01       		.uleb128 0x1
 6462 1f37 50       		.byte	0x50
 6463 1f38 01       		.uleb128 0x1
 6464 1f39 46       		.byte	0x46
 6465 1f3a 00       		.byte	0
 6466 1f3b 1F       		.uleb128 0x1f
 6467 1f3c F4000000 		.4byte	.LVL33
 6468 1f40 C13B0000 		.4byte	0x3bc1
 6469 1f44 631F0000 		.4byte	0x1f63
 6470 1f48 1A       		.uleb128 0x1a
 6471 1f49 01       		.uleb128 0x1
 6472 1f4a 53       		.byte	0x53
 6473 1f4b 01       		.uleb128 0x1
 6474 1f4c 30       		.byte	0x30
 6475 1f4d 1A       		.uleb128 0x1a
 6476 1f4e 01       		.uleb128 0x1
 6477 1f4f 52       		.byte	0x52
 6478 1f50 01       		.uleb128 0x1
 6479 1f51 30       		.byte	0x30
 6480 1f52 1A       		.uleb128 0x1a
 6481 1f53 01       		.uleb128 0x1
 6482 1f54 51       		.byte	0x51
 6483 1f55 01       		.uleb128 0x1
 6484 1f56 46       		.byte	0x46
 6485 1f57 1A       		.uleb128 0x1a
 6486 1f58 01       		.uleb128 0x1
ARM GAS  C:\Users\AHMED~1.ELE\AppData\Local\Temp\ccfMkwD6.s 			page 127


 6487 1f59 50       		.byte	0x50
 6488 1f5a 01       		.uleb128 0x1
 6489 1f5b 3F       		.byte	0x3f
 6490 1f5c 1A       		.uleb128 0x1a
 6491 1f5d 02       		.uleb128 0x2
 6492 1f5e 7D       		.byte	0x7d
 6493 1f5f 00       		.sleb128 0
 6494 1f60 01       		.uleb128 0x1
 6495 1f61 30       		.byte	0x30
 6496 1f62 00       		.byte	0
 6497 1f63 1F       		.uleb128 0x1f
 6498 1f64 2C010000 		.4byte	.LVL35
 6499 1f68 EA3B0000 		.4byte	0x3bea
 6500 1f6c 771F0000 		.4byte	0x1f77
 6501 1f70 1A       		.uleb128 0x1a
 6502 1f71 01       		.uleb128 0x1
 6503 1f72 50       		.byte	0x50
 6504 1f73 02       		.uleb128 0x2
 6505 1f74 08       		.byte	0x8
 6506 1f75 92       		.byte	0x92
 6507 1f76 00       		.byte	0
 6508 1f77 1F       		.uleb128 0x1f
 6509 1f78 38010000 		.4byte	.LVL38
 6510 1f7c 043C0000 		.4byte	0x3c04
 6511 1f80 981F0000 		.4byte	0x1f98
 6512 1f84 1A       		.uleb128 0x1a
 6513 1f85 01       		.uleb128 0x1
 6514 1f86 52       		.byte	0x52
 6515 1f87 02       		.uleb128 0x2
 6516 1f88 74       		.byte	0x74
 6517 1f89 00       		.sleb128 0
 6518 1f8a 1A       		.uleb128 0x1a
 6519 1f8b 01       		.uleb128 0x1
 6520 1f8c 51       		.byte	0x51
 6521 1f8d 03       		.uleb128 0x3
 6522 1f8e 91       		.byte	0x91
 6523 1f8f AC7F     		.sleb128 -84
 6524 1f91 1A       		.uleb128 0x1a
 6525 1f92 01       		.uleb128 0x1
 6526 1f93 50       		.byte	0x50
 6527 1f94 02       		.uleb128 0x2
 6528 1f95 77       		.byte	0x77
 6529 1f96 00       		.sleb128 0
 6530 1f97 00       		.byte	0
 6531 1f98 1F       		.uleb128 0x1f
 6532 1f99 40010000 		.4byte	.LVL39
 6533 1f9d EA3B0000 		.4byte	0x3bea
 6534 1fa1 B21F0000 		.4byte	0x1fb2
 6535 1fa5 1A       		.uleb128 0x1a
 6536 1fa6 01       		.uleb128 0x1
 6537 1fa7 51       		.byte	0x51
 6538 1fa8 02       		.uleb128 0x2
 6539 1fa9 74       		.byte	0x74
 6540 1faa 04       		.sleb128 4
 6541 1fab 1A       		.uleb128 0x1a
 6542 1fac 01       		.uleb128 0x1
 6543 1fad 50       		.byte	0x50
ARM GAS  C:\Users\AHMED~1.ELE\AppData\Local\Temp\ccfMkwD6.s 			page 128


 6544 1fae 02       		.uleb128 0x2
 6545 1faf 08       		.byte	0x8
 6546 1fb0 92       		.byte	0x92
 6547 1fb1 00       		.byte	0
 6548 1fb2 1F       		.uleb128 0x1f
 6549 1fb3 58010000 		.4byte	.LVL42
 6550 1fb7 043C0000 		.4byte	0x3c04
 6551 1fbb D41F0000 		.4byte	0x1fd4
 6552 1fbf 1A       		.uleb128 0x1a
 6553 1fc0 01       		.uleb128 0x1
 6554 1fc1 52       		.byte	0x52
 6555 1fc2 01       		.uleb128 0x1
 6556 1fc3 32       		.byte	0x32
 6557 1fc4 1A       		.uleb128 0x1a
 6558 1fc5 01       		.uleb128 0x1
 6559 1fc6 51       		.byte	0x51
 6560 1fc7 05       		.uleb128 0x5
 6561 1fc8 03       		.byte	0x3
 6562 1fc9 00000000 		.4byte	.LANCHOR1
 6563 1fcd 1A       		.uleb128 0x1a
 6564 1fce 01       		.uleb128 0x1
 6565 1fcf 50       		.byte	0x50
 6566 1fd0 02       		.uleb128 0x2
 6567 1fd1 74       		.byte	0x74
 6568 1fd2 02       		.sleb128 2
 6569 1fd3 00       		.byte	0
 6570 1fd4 1F       		.uleb128 0x1f
 6571 1fd5 62010000 		.4byte	.LVL43
 6572 1fd9 043C0000 		.4byte	0x3c04
 6573 1fdd EE1F0000 		.4byte	0x1fee
 6574 1fe1 1A       		.uleb128 0x1a
 6575 1fe2 01       		.uleb128 0x1
 6576 1fe3 51       		.byte	0x51
 6577 1fe4 02       		.uleb128 0x2
 6578 1fe5 77       		.byte	0x77
 6579 1fe6 00       		.sleb128 0
 6580 1fe7 1A       		.uleb128 0x1a
 6581 1fe8 01       		.uleb128 0x1
 6582 1fe9 50       		.byte	0x50
 6583 1fea 02       		.uleb128 0x2
 6584 1feb 74       		.byte	0x74
 6585 1fec 04       		.sleb128 4
 6586 1fed 00       		.byte	0
 6587 1fee 1F       		.uleb128 0x1f
 6588 1fef 70010000 		.4byte	.LVL44
 6589 1ff3 C13B0000 		.4byte	0x3bc1
 6590 1ff7 1A200000 		.4byte	0x201a
 6591 1ffb 1A       		.uleb128 0x1a
 6592 1ffc 01       		.uleb128 0x1
 6593 1ffd 53       		.byte	0x53
 6594 1ffe 02       		.uleb128 0x2
 6595 1fff 75       		.byte	0x75
 6596 2000 00       		.sleb128 0
 6597 2001 1A       		.uleb128 0x1a
 6598 2002 01       		.uleb128 0x1
 6599 2003 52       		.byte	0x52
 6600 2004 02       		.uleb128 0x2
ARM GAS  C:\Users\AHMED~1.ELE\AppData\Local\Temp\ccfMkwD6.s 			page 129


 6601 2005 74       		.byte	0x74
 6602 2006 00       		.sleb128 0
 6603 2007 1A       		.uleb128 0x1a
 6604 2008 01       		.uleb128 0x1
 6605 2009 51       		.byte	0x51
 6606 200a 01       		.uleb128 0x1
 6607 200b 32       		.byte	0x32
 6608 200c 1A       		.uleb128 0x1a
 6609 200d 01       		.uleb128 0x1
 6610 200e 50       		.byte	0x50
 6611 200f 02       		.uleb128 0x2
 6612 2010 08       		.byte	0x8
 6613 2011 7F       		.byte	0x7f
 6614 2012 1A       		.uleb128 0x1a
 6615 2013 02       		.uleb128 0x2
 6616 2014 7D       		.byte	0x7d
 6617 2015 00       		.sleb128 0
 6618 2016 02       		.uleb128 0x2
 6619 2017 75       		.byte	0x75
 6620 2018 00       		.sleb128 0
 6621 2019 00       		.byte	0
 6622 201a 1F       		.uleb128 0x1f
 6623 201b B2010000 		.4byte	.LVL52
 6624 201f 3D3C0000 		.4byte	0x3c3d
 6625 2023 3D200000 		.4byte	0x203d
 6626 2027 1A       		.uleb128 0x1a
 6627 2028 01       		.uleb128 0x1
 6628 2029 52       		.byte	0x52
 6629 202a 02       		.uleb128 0x2
 6630 202b 76       		.byte	0x76
 6631 202c 00       		.sleb128 0
 6632 202d 1A       		.uleb128 0x1a
 6633 202e 01       		.uleb128 0x1
 6634 202f 51       		.byte	0x51
 6635 2030 05       		.uleb128 0x5
 6636 2031 03       		.byte	0x3
 6637 2032 50000000 		.4byte	.LC8
 6638 2036 1A       		.uleb128 0x1a
 6639 2037 01       		.uleb128 0x1
 6640 2038 50       		.byte	0x50
 6641 2039 02       		.uleb128 0x2
 6642 203a 91       		.byte	0x91
 6643 203b 48       		.sleb128 -56
 6644 203c 00       		.byte	0
 6645 203d 23       		.uleb128 0x23
 6646 203e F4010000 		.4byte	.LVL62
 6647 2042 583C0000 		.4byte	0x3c58
 6648 2046 1F       		.uleb128 0x1f
 6649 2047 02020000 		.4byte	.LVL63
 6650 204b C13B0000 		.4byte	0x3bc1
 6651 204f 71200000 		.4byte	0x2071
 6652 2053 1A       		.uleb128 0x1a
 6653 2054 01       		.uleb128 0x1
 6654 2055 53       		.byte	0x53
 6655 2056 02       		.uleb128 0x2
 6656 2057 74       		.byte	0x74
 6657 2058 00       		.sleb128 0
ARM GAS  C:\Users\AHMED~1.ELE\AppData\Local\Temp\ccfMkwD6.s 			page 130


 6658 2059 1A       		.uleb128 0x1a
 6659 205a 01       		.uleb128 0x1
 6660 205b 52       		.byte	0x52
 6661 205c 02       		.uleb128 0x2
 6662 205d 08       		.byte	0x8
 6663 205e C8       		.byte	0xc8
 6664 205f 1A       		.uleb128 0x1a
 6665 2060 01       		.uleb128 0x1
 6666 2061 51       		.byte	0x51
 6667 2062 01       		.uleb128 0x1
 6668 2063 33       		.byte	0x33
 6669 2064 1A       		.uleb128 0x1a
 6670 2065 01       		.uleb128 0x1
 6671 2066 50       		.byte	0x50
 6672 2067 01       		.uleb128 0x1
 6673 2068 40       		.byte	0x40
 6674 2069 1A       		.uleb128 0x1a
 6675 206a 02       		.uleb128 0x2
 6676 206b 7D       		.byte	0x7d
 6677 206c 00       		.sleb128 0
 6678 206d 02       		.uleb128 0x2
 6679 206e 74       		.byte	0x74
 6680 206f 00       		.sleb128 0
 6681 2070 00       		.byte	0
 6682 2071 1F       		.uleb128 0x1f
 6683 2072 0C020000 		.4byte	.LVL66
 6684 2076 EA3B0000 		.4byte	0x3bea
 6685 207a 8B200000 		.4byte	0x208b
 6686 207e 1A       		.uleb128 0x1a
 6687 207f 01       		.uleb128 0x1
 6688 2080 51       		.byte	0x51
 6689 2081 02       		.uleb128 0x2
 6690 2082 77       		.byte	0x77
 6691 2083 00       		.sleb128 0
 6692 2084 1A       		.uleb128 0x1a
 6693 2085 01       		.uleb128 0x1
 6694 2086 50       		.byte	0x50
 6695 2087 02       		.uleb128 0x2
 6696 2088 08       		.byte	0x8
 6697 2089 94       		.byte	0x94
 6698 208a 00       		.byte	0
 6699 208b 1F       		.uleb128 0x1f
 6700 208c 14020000 		.4byte	.LVL67
 6701 2090 EA3B0000 		.4byte	0x3bea
 6702 2094 A5200000 		.4byte	0x20a5
 6703 2098 1A       		.uleb128 0x1a
 6704 2099 01       		.uleb128 0x1
 6705 209a 51       		.byte	0x51
 6706 209b 02       		.uleb128 0x2
 6707 209c 74       		.byte	0x74
 6708 209d 00       		.sleb128 0
 6709 209e 1A       		.uleb128 0x1a
 6710 209f 01       		.uleb128 0x1
 6711 20a0 50       		.byte	0x50
 6712 20a1 02       		.uleb128 0x2
 6713 20a2 08       		.byte	0x8
 6714 20a3 94       		.byte	0x94
ARM GAS  C:\Users\AHMED~1.ELE\AppData\Local\Temp\ccfMkwD6.s 			page 131


 6715 20a4 00       		.byte	0
 6716 20a5 23       		.uleb128 0x23
 6717 20a6 18020000 		.4byte	.LVL68
 6718 20aa 213C0000 		.4byte	0x3c21
 6719 20ae 19       		.uleb128 0x19
 6720 20af 5A020000 		.4byte	.LVL74
 6721 20b3 C13B0000 		.4byte	0x3bc1
 6722 20b7 1A       		.uleb128 0x1a
 6723 20b8 01       		.uleb128 0x1
 6724 20b9 53       		.byte	0x53
 6725 20ba 02       		.uleb128 0x2
 6726 20bb 75       		.byte	0x75
 6727 20bc 00       		.sleb128 0
 6728 20bd 1A       		.uleb128 0x1a
 6729 20be 01       		.uleb128 0x1
 6730 20bf 52       		.byte	0x52
 6731 20c0 03       		.uleb128 0x3
 6732 20c1 0A       		.byte	0xa
 6733 20c2 2823     		.2byte	0x2328
 6734 20c4 1A       		.uleb128 0x1a
 6735 20c5 01       		.uleb128 0x1
 6736 20c6 51       		.byte	0x51
 6737 20c7 01       		.uleb128 0x1
 6738 20c8 33       		.byte	0x33
 6739 20c9 1A       		.uleb128 0x1a
 6740 20ca 01       		.uleb128 0x1
 6741 20cb 50       		.byte	0x50
 6742 20cc 01       		.uleb128 0x1
 6743 20cd 40       		.byte	0x40
 6744 20ce 1A       		.uleb128 0x1a
 6745 20cf 02       		.uleb128 0x2
 6746 20d0 7D       		.byte	0x7d
 6747 20d1 00       		.sleb128 0
 6748 20d2 02       		.uleb128 0x2
 6749 20d3 75       		.byte	0x75
 6750 20d4 00       		.sleb128 0
 6751 20d5 00       		.byte	0
 6752 20d6 00       		.byte	0
 6753 20d7 07       		.uleb128 0x7
 6754 20d8 6E120000 		.4byte	0x126e
 6755 20dc 1B       		.uleb128 0x1b
 6756 20dd 972E0000 		.4byte	.LASF733
 6757 20e1 01       		.byte	0x1
 6758 20e2 98       		.byte	0x98
 6759 20e3 00000000 		.4byte	.LFB3
 6760 20e7 20020000 		.4byte	.LFE3-.LFB3
 6761 20eb 01       		.uleb128 0x1
 6762 20ec 9C       		.byte	0x9c
 6763 20ed C6250000 		.4byte	0x25c6
 6764 20f1 18       		.uleb128 0x18
 6765 20f2 9D100000 		.4byte	.LASF734
 6766 20f6 01       		.byte	0x1
 6767 20f7 9B       		.byte	0x9b
 6768 20f8 C6250000 		.4byte	0x25c6
 6769 20fc 03       		.uleb128 0x3
 6770 20fd 91       		.byte	0x91
 6771 20fe E87E     		.sleb128 -152
ARM GAS  C:\Users\AHMED~1.ELE\AppData\Local\Temp\ccfMkwD6.s 			page 132


 6772 2100 18       		.uleb128 0x18
 6773 2101 3B210000 		.4byte	.LASF735
 6774 2105 01       		.byte	0x1
 6775 2106 9D       		.byte	0x9d
 6776 2107 DB250000 		.4byte	0x25db
 6777 210b 03       		.uleb128 0x3
 6778 210c 91       		.byte	0x91
 6779 210d 807F     		.sleb128 -128
 6780 210f 18       		.uleb128 0x18
 6781 2110 C4100000 		.4byte	.LASF736
 6782 2114 01       		.byte	0x1
 6783 2115 9F       		.byte	0x9f
 6784 2116 E0250000 		.4byte	0x25e0
 6785 211a 03       		.uleb128 0x3
 6786 211b 91       		.byte	0x91
 6787 211c A87F     		.sleb128 -88
 6788 211e 18       		.uleb128 0x18
 6789 211f 19220000 		.4byte	.LASF737
 6790 2123 01       		.byte	0x1
 6791 2124 A1       		.byte	0xa1
 6792 2125 E5250000 		.4byte	0x25e5
 6793 2129 03       		.uleb128 0x3
 6794 212a 91       		.byte	0x91
 6795 212b F47E     		.sleb128 -140
 6796 212d 18       		.uleb128 0x18
 6797 212e C02E0000 		.4byte	.LASF738
 6798 2132 01       		.byte	0x1
 6799 2133 A3       		.byte	0xa3
 6800 2134 EA250000 		.4byte	0x25ea
 6801 2138 03       		.uleb128 0x3
 6802 2139 91       		.byte	0x91
 6803 213a 947F     		.sleb128 -108
 6804 213c 18       		.uleb128 0x18
 6805 213d CA2E0000 		.4byte	.LASF739
 6806 2141 01       		.byte	0x1
 6807 2142 A5       		.byte	0xa5
 6808 2143 EF250000 		.4byte	0x25ef
 6809 2147 02       		.uleb128 0x2
 6810 2148 91       		.byte	0x91
 6811 2149 44       		.sleb128 -60
 6812 214a 21       		.uleb128 0x21
 6813 214b 60120000 		.4byte	.LASF729
 6814 214f 01       		.byte	0x1
 6815 2150 A6       		.byte	0xa6
 6816 2151 DE000000 		.4byte	0xde
 6817 2155 13020000 		.4byte	.LLST17
 6818 2159 21       		.uleb128 0x21
 6819 215a 3B240000 		.4byte	.LASF731
 6820 215e 01       		.byte	0x1
 6821 215f A7       		.byte	0xa7
 6822 2160 DE000000 		.4byte	0xde
 6823 2164 31020000 		.4byte	.LLST18
 6824 2168 24       		.uleb128 0x24
 6825 2169 00000000 		.4byte	.Ldebug_ranges0+0
 6826 216d F5210000 		.4byte	0x21f5
 6827 2171 1E       		.uleb128 0x1e
 6828 2172 6C656E00 		.ascii	"len\000"
ARM GAS  C:\Users\AHMED~1.ELE\AppData\Local\Temp\ccfMkwD6.s 			page 133


 6829 2176 01       		.byte	0x1
 6830 2177 BC       		.byte	0xbc
 6831 2178 B8000000 		.4byte	0xb8
 6832 217c 65020000 		.4byte	.LLST19
 6833 2180 1E       		.uleb128 0x1e
 6834 2181 70747200 		.ascii	"ptr\000"
 6835 2185 01       		.byte	0x1
 6836 2186 BC       		.byte	0xbc
 6837 2187 DE000000 		.4byte	0xde
 6838 218b 79020000 		.4byte	.LLST20
 6839 218f 1F       		.uleb128 0x1f
 6840 2190 BC000000 		.4byte	.LVL92
 6841 2194 EA3B0000 		.4byte	0x3bea
 6842 2198 A8210000 		.4byte	0x21a8
 6843 219c 1A       		.uleb128 0x1a
 6844 219d 01       		.uleb128 0x1
 6845 219e 51       		.byte	0x51
 6846 219f 01       		.uleb128 0x1
 6847 21a0 3F       		.byte	0x3f
 6848 21a1 1A       		.uleb128 0x1a
 6849 21a2 01       		.uleb128 0x1
 6850 21a3 50       		.byte	0x50
 6851 21a4 02       		.uleb128 0x2
 6852 21a5 08       		.byte	0x8
 6853 21a6 92       		.byte	0x92
 6854 21a7 00       		.byte	0
 6855 21a8 1F       		.uleb128 0x1f
 6856 21a9 C8000000 		.4byte	.LVL93
 6857 21ad 043C0000 		.4byte	0x3c04
 6858 21b1 CA210000 		.4byte	0x21ca
 6859 21b5 1A       		.uleb128 0x1a
 6860 21b6 01       		.uleb128 0x1
 6861 21b7 52       		.byte	0x52
 6862 21b8 01       		.uleb128 0x1
 6863 21b9 3E       		.byte	0x3e
 6864 21ba 1A       		.uleb128 0x1a
 6865 21bb 01       		.uleb128 0x1
 6866 21bc 51       		.byte	0x51
 6867 21bd 05       		.uleb128 0x5
 6868 21be 03       		.byte	0x3
 6869 21bf 7A000000 		.4byte	.LC16
 6870 21c3 1A       		.uleb128 0x1a
 6871 21c4 01       		.uleb128 0x1
 6872 21c5 50       		.byte	0x50
 6873 21c6 02       		.uleb128 0x2
 6874 21c7 79       		.byte	0x79
 6875 21c8 00       		.sleb128 0
 6876 21c9 00       		.byte	0
 6877 21ca 19       		.uleb128 0x19
 6878 21cb E0000000 		.4byte	.LVL94
 6879 21cf C13B0000 		.4byte	0x3bc1
 6880 21d3 1A       		.uleb128 0x1a
 6881 21d4 01       		.uleb128 0x1
 6882 21d5 53       		.byte	0x53
 6883 21d6 03       		.uleb128 0x3
 6884 21d7 0A       		.byte	0xa
 6885 21d8 0005     		.2byte	0x500
ARM GAS  C:\Users\AHMED~1.ELE\AppData\Local\Temp\ccfMkwD6.s 			page 134


 6886 21da 1A       		.uleb128 0x1a
 6887 21db 01       		.uleb128 0x1
 6888 21dc 52       		.byte	0x52
 6889 21dd 02       		.uleb128 0x2
 6890 21de 79       		.byte	0x79
 6891 21df 00       		.sleb128 0
 6892 21e0 1A       		.uleb128 0x1a
 6893 21e1 01       		.uleb128 0x1
 6894 21e2 51       		.byte	0x51
 6895 21e3 02       		.uleb128 0x2
 6896 21e4 08       		.byte	0x8
 6897 21e5 25       		.byte	0x25
 6898 21e6 1A       		.uleb128 0x1a
 6899 21e7 01       		.uleb128 0x1
 6900 21e8 50       		.byte	0x50
 6901 21e9 01       		.uleb128 0x1
 6902 21ea 3F       		.byte	0x3f
 6903 21eb 1A       		.uleb128 0x1a
 6904 21ec 02       		.uleb128 0x2
 6905 21ed 7D       		.byte	0x7d
 6906 21ee 00       		.sleb128 0
 6907 21ef 03       		.uleb128 0x3
 6908 21f0 0A       		.byte	0xa
 6909 21f1 0210     		.2byte	0x1002
 6910 21f3 00       		.byte	0
 6911 21f4 00       		.byte	0
 6912 21f5 1C       		.uleb128 0x1c
 6913 21f6 E6000000 		.4byte	.LBB13
 6914 21fa 30000000 		.4byte	.LBE13-.LBB13
 6915 21fe 83220000 		.4byte	0x2283
 6916 2202 1E       		.uleb128 0x1e
 6917 2203 6C656E00 		.ascii	"len\000"
 6918 2207 01       		.byte	0x1
 6919 2208 BF       		.byte	0xbf
 6920 2209 B8000000 		.4byte	0xb8
 6921 220d 97020000 		.4byte	.LLST21
 6922 2211 1E       		.uleb128 0x1e
 6923 2212 70747200 		.ascii	"ptr\000"
 6924 2216 01       		.byte	0x1
 6925 2217 BF       		.byte	0xbf
 6926 2218 DE000000 		.4byte	0xde
 6927 221c AB020000 		.4byte	.LLST22
 6928 2220 23       		.uleb128 0x23
 6929 2221 EA000000 		.4byte	.LVL96
 6930 2225 EA3B0000 		.4byte	0x3bea
 6931 2229 1F       		.uleb128 0x1f
 6932 222a F6000000 		.4byte	.LVL97
 6933 222e 043C0000 		.4byte	0x3c04
 6934 2232 4B220000 		.4byte	0x224b
 6935 2236 1A       		.uleb128 0x1a
 6936 2237 01       		.uleb128 0x1
 6937 2238 52       		.byte	0x52
 6938 2239 01       		.uleb128 0x1
 6939 223a 3E       		.byte	0x3e
 6940 223b 1A       		.uleb128 0x1a
 6941 223c 01       		.uleb128 0x1
 6942 223d 51       		.byte	0x51
ARM GAS  C:\Users\AHMED~1.ELE\AppData\Local\Temp\ccfMkwD6.s 			page 135


 6943 223e 05       		.uleb128 0x5
 6944 223f 03       		.byte	0x3
 6945 2240 89000000 		.4byte	.LC17
 6946 2244 1A       		.uleb128 0x1a
 6947 2245 01       		.uleb128 0x1
 6948 2246 50       		.byte	0x50
 6949 2247 02       		.uleb128 0x2
 6950 2248 77       		.byte	0x77
 6951 2249 00       		.sleb128 0
 6952 224a 00       		.byte	0
 6953 224b 1F       		.uleb128 0x1f
 6954 224c 0E010000 		.4byte	.LVL98
 6955 2250 C13B0000 		.4byte	0x3bc1
 6956 2254 79220000 		.4byte	0x2279
 6957 2258 1A       		.uleb128 0x1a
 6958 2259 01       		.uleb128 0x1
 6959 225a 53       		.byte	0x53
 6960 225b 03       		.uleb128 0x3
 6961 225c 0A       		.byte	0xa
 6962 225d 0005     		.2byte	0x500
 6963 225f 1A       		.uleb128 0x1a
 6964 2260 01       		.uleb128 0x1
 6965 2261 52       		.byte	0x52
 6966 2262 02       		.uleb128 0x2
 6967 2263 77       		.byte	0x77
 6968 2264 00       		.sleb128 0
 6969 2265 1A       		.uleb128 0x1a
 6970 2266 01       		.uleb128 0x1
 6971 2267 51       		.byte	0x51
 6972 2268 02       		.uleb128 0x2
 6973 2269 08       		.byte	0x8
 6974 226a 25       		.byte	0x25
 6975 226b 1A       		.uleb128 0x1a
 6976 226c 01       		.uleb128 0x1
 6977 226d 50       		.byte	0x50
 6978 226e 01       		.uleb128 0x1
 6979 226f 3F       		.byte	0x3f
 6980 2270 1A       		.uleb128 0x1a
 6981 2271 02       		.uleb128 0x2
 6982 2272 7D       		.byte	0x7d
 6983 2273 00       		.sleb128 0
 6984 2274 03       		.uleb128 0x3
 6985 2275 0A       		.byte	0xa
 6986 2276 0210     		.2byte	0x1002
 6987 2278 00       		.byte	0
 6988 2279 23       		.uleb128 0x23
 6989 227a 16010000 		.4byte	.LVL100
 6990 227e EA3B0000 		.4byte	0x3bea
 6991 2282 00       		.byte	0
 6992 2283 24       		.uleb128 0x24
 6993 2284 20000000 		.4byte	.Ldebug_ranges0+0x20
 6994 2288 E2220000 		.4byte	0x22e2
 6995 228c 1E       		.uleb128 0x1e
 6996 228d 6C656E00 		.ascii	"len\000"
 6997 2291 01       		.byte	0x1
 6998 2292 D3       		.byte	0xd3
 6999 2293 B8000000 		.4byte	0xb8
ARM GAS  C:\Users\AHMED~1.ELE\AppData\Local\Temp\ccfMkwD6.s 			page 136


 7000 2297 C9020000 		.4byte	.LLST23
 7001 229b 1E       		.uleb128 0x1e
 7002 229c 70747200 		.ascii	"ptr\000"
 7003 22a0 01       		.byte	0x1
 7004 22a1 D3       		.byte	0xd3
 7005 22a2 DE000000 		.4byte	0xde
 7006 22a6 DD020000 		.4byte	.LLST24
 7007 22aa 1F       		.uleb128 0x1f
 7008 22ab 8E010000 		.4byte	.LVL108
 7009 22af EA3B0000 		.4byte	0x3bea
 7010 22b3 C3220000 		.4byte	0x22c3
 7011 22b7 1A       		.uleb128 0x1a
 7012 22b8 01       		.uleb128 0x1
 7013 22b9 51       		.byte	0x51
 7014 22ba 01       		.uleb128 0x1
 7015 22bb 3F       		.byte	0x3f
 7016 22bc 1A       		.uleb128 0x1a
 7017 22bd 01       		.uleb128 0x1
 7018 22be 50       		.byte	0x50
 7019 22bf 02       		.uleb128 0x2
 7020 22c0 08       		.byte	0x8
 7021 22c1 92       		.byte	0x92
 7022 22c2 00       		.byte	0
 7023 22c3 19       		.uleb128 0x19
 7024 22c4 9A010000 		.4byte	.LVL109
 7025 22c8 043C0000 		.4byte	0x3c04
 7026 22cc 1A       		.uleb128 0x1a
 7027 22cd 01       		.uleb128 0x1
 7028 22ce 52       		.byte	0x52
 7029 22cf 01       		.uleb128 0x1
 7030 22d0 3E       		.byte	0x3e
 7031 22d1 1A       		.uleb128 0x1a
 7032 22d2 01       		.uleb128 0x1
 7033 22d3 51       		.byte	0x51
 7034 22d4 05       		.uleb128 0x5
 7035 22d5 03       		.byte	0x3
 7036 22d6 7A000000 		.4byte	.LC16
 7037 22da 1A       		.uleb128 0x1a
 7038 22db 01       		.uleb128 0x1
 7039 22dc 50       		.byte	0x50
 7040 22dd 02       		.uleb128 0x2
 7041 22de 75       		.byte	0x75
 7042 22df 00       		.sleb128 0
 7043 22e0 00       		.byte	0
 7044 22e1 00       		.byte	0
 7045 22e2 1C       		.uleb128 0x1c
 7046 22e3 9E010000 		.4byte	.LBB17
 7047 22e7 30000000 		.4byte	.LBE17-.LBB17
 7048 22eb 7D230000 		.4byte	0x237d
 7049 22ef 1E       		.uleb128 0x1e
 7050 22f0 6C656E00 		.ascii	"len\000"
 7051 22f4 01       		.byte	0x1
 7052 22f5 D6       		.byte	0xd6
 7053 22f6 B8000000 		.4byte	0xb8
 7054 22fa FB020000 		.4byte	.LLST25
 7055 22fe 1E       		.uleb128 0x1e
 7056 22ff 70747200 		.ascii	"ptr\000"
ARM GAS  C:\Users\AHMED~1.ELE\AppData\Local\Temp\ccfMkwD6.s 			page 137


 7057 2303 01       		.byte	0x1
 7058 2304 D6       		.byte	0xd6
 7059 2305 DE000000 		.4byte	0xde
 7060 2309 0F030000 		.4byte	.LLST26
 7061 230d 23       		.uleb128 0x23
 7062 230e A2010000 		.4byte	.LVL111
 7063 2312 EA3B0000 		.4byte	0x3bea
 7064 2316 1F       		.uleb128 0x1f
 7065 2317 AE010000 		.4byte	.LVL112
 7066 231b 043C0000 		.4byte	0x3c04
 7067 231f 38230000 		.4byte	0x2338
 7068 2323 1A       		.uleb128 0x1a
 7069 2324 01       		.uleb128 0x1
 7070 2325 52       		.byte	0x52
 7071 2326 01       		.uleb128 0x1
 7072 2327 3E       		.byte	0x3e
 7073 2328 1A       		.uleb128 0x1a
 7074 2329 01       		.uleb128 0x1
 7075 232a 51       		.byte	0x51
 7076 232b 05       		.uleb128 0x5
 7077 232c 03       		.byte	0x3
 7078 232d 98000000 		.4byte	.LC18
 7079 2331 1A       		.uleb128 0x1a
 7080 2332 01       		.uleb128 0x1
 7081 2333 50       		.byte	0x50
 7082 2334 02       		.uleb128 0x2
 7083 2335 75       		.byte	0x75
 7084 2336 00       		.sleb128 0
 7085 2337 00       		.byte	0
 7086 2338 1F       		.uleb128 0x1f
 7087 2339 C6010000 		.4byte	.LVL114
 7088 233d C13B0000 		.4byte	0x3bc1
 7089 2341 66230000 		.4byte	0x2366
 7090 2345 1A       		.uleb128 0x1a
 7091 2346 01       		.uleb128 0x1
 7092 2347 53       		.byte	0x53
 7093 2348 03       		.uleb128 0x3
 7094 2349 0A       		.byte	0xa
 7095 234a 0005     		.2byte	0x500
 7096 234c 1A       		.uleb128 0x1a
 7097 234d 01       		.uleb128 0x1
 7098 234e 52       		.byte	0x52
 7099 234f 02       		.uleb128 0x2
 7100 2350 75       		.byte	0x75
 7101 2351 00       		.sleb128 0
 7102 2352 1A       		.uleb128 0x1a
 7103 2353 01       		.uleb128 0x1
 7104 2354 51       		.byte	0x51
 7105 2355 02       		.uleb128 0x2
 7106 2356 08       		.byte	0x8
 7107 2357 25       		.byte	0x25
 7108 2358 1A       		.uleb128 0x1a
 7109 2359 01       		.uleb128 0x1
 7110 235a 50       		.byte	0x50
 7111 235b 01       		.uleb128 0x1
 7112 235c 3F       		.byte	0x3f
 7113 235d 1A       		.uleb128 0x1a
ARM GAS  C:\Users\AHMED~1.ELE\AppData\Local\Temp\ccfMkwD6.s 			page 138


 7114 235e 02       		.uleb128 0x2
 7115 235f 7D       		.byte	0x7d
 7116 2360 00       		.sleb128 0
 7117 2361 03       		.uleb128 0x3
 7118 2362 0A       		.byte	0xa
 7119 2363 0210     		.2byte	0x1002
 7120 2365 00       		.byte	0
 7121 2366 19       		.uleb128 0x19
 7122 2367 CE010000 		.4byte	.LVL115
 7123 236b EA3B0000 		.4byte	0x3bea
 7124 236f 1A       		.uleb128 0x1a
 7125 2370 01       		.uleb128 0x1
 7126 2371 51       		.byte	0x51
 7127 2372 02       		.uleb128 0x2
 7128 2373 75       		.byte	0x75
 7129 2374 00       		.sleb128 0
 7130 2375 1A       		.uleb128 0x1a
 7131 2376 01       		.uleb128 0x1
 7132 2377 50       		.byte	0x50
 7133 2378 02       		.uleb128 0x2
 7134 2379 08       		.byte	0x8
 7135 237a 94       		.byte	0x94
 7136 237b 00       		.byte	0
 7137 237c 00       		.byte	0
 7138 237d 1F       		.uleb128 0x1f
 7139 237e 10000000 		.4byte	.LVL76
 7140 2382 043C0000 		.4byte	0x3c04
 7141 2386 A0230000 		.4byte	0x23a0
 7142 238a 1A       		.uleb128 0x1a
 7143 238b 01       		.uleb128 0x1
 7144 238c 52       		.byte	0x52
 7145 238d 01       		.uleb128 0x1
 7146 238e 39       		.byte	0x39
 7147 238f 1A       		.uleb128 0x1a
 7148 2390 01       		.uleb128 0x1
 7149 2391 51       		.byte	0x51
 7150 2392 05       		.uleb128 0x5
 7151 2393 03       		.byte	0x3
 7152 2394 A7000000 		.4byte	.LC10
 7153 2398 1A       		.uleb128 0x1a
 7154 2399 01       		.uleb128 0x1
 7155 239a 50       		.byte	0x50
 7156 239b 03       		.uleb128 0x3
 7157 239c 91       		.byte	0x91
 7158 239d E87E     		.sleb128 -152
 7159 239f 00       		.byte	0
 7160 23a0 1F       		.uleb128 0x1f
 7161 23a1 1A000000 		.4byte	.LVL77
 7162 23a5 043C0000 		.4byte	0x3c04
 7163 23a9 C3230000 		.4byte	0x23c3
 7164 23ad 1A       		.uleb128 0x1a
 7165 23ae 01       		.uleb128 0x1
 7166 23af 52       		.byte	0x52
 7167 23b0 01       		.uleb128 0x1
 7168 23b1 41       		.byte	0x41
 7169 23b2 1A       		.uleb128 0x1a
 7170 23b3 01       		.uleb128 0x1
ARM GAS  C:\Users\AHMED~1.ELE\AppData\Local\Temp\ccfMkwD6.s 			page 139


 7171 23b4 51       		.byte	0x51
 7172 23b5 05       		.uleb128 0x5
 7173 23b6 03       		.byte	0x3
 7174 23b7 B0000000 		.4byte	.LC11
 7175 23bb 1A       		.uleb128 0x1a
 7176 23bc 01       		.uleb128 0x1
 7177 23bd 50       		.byte	0x50
 7178 23be 03       		.uleb128 0x3
 7179 23bf 91       		.byte	0x91
 7180 23c0 807F     		.sleb128 -128
 7181 23c2 00       		.byte	0
 7182 23c3 1F       		.uleb128 0x1f
 7183 23c4 24000000 		.4byte	.LVL78
 7184 23c8 043C0000 		.4byte	0x3c04
 7185 23cc E6230000 		.4byte	0x23e6
 7186 23d0 1A       		.uleb128 0x1a
 7187 23d1 01       		.uleb128 0x1
 7188 23d2 52       		.byte	0x52
 7189 23d3 01       		.uleb128 0x1
 7190 23d4 49       		.byte	0x49
 7191 23d5 1A       		.uleb128 0x1a
 7192 23d6 01       		.uleb128 0x1
 7193 23d7 51       		.byte	0x51
 7194 23d8 05       		.uleb128 0x5
 7195 23d9 03       		.byte	0x3
 7196 23da C1000000 		.4byte	.LC12
 7197 23de 1A       		.uleb128 0x1a
 7198 23df 01       		.uleb128 0x1
 7199 23e0 50       		.byte	0x50
 7200 23e1 03       		.uleb128 0x3
 7201 23e2 91       		.byte	0x91
 7202 23e3 A87F     		.sleb128 -88
 7203 23e5 00       		.byte	0
 7204 23e6 1F       		.uleb128 0x1f
 7205 23e7 2E000000 		.4byte	.LVL79
 7206 23eb 043C0000 		.4byte	0x3c04
 7207 23ef 09240000 		.4byte	0x2409
 7208 23f3 1A       		.uleb128 0x1a
 7209 23f4 01       		.uleb128 0x1
 7210 23f5 52       		.byte	0x52
 7211 23f6 01       		.uleb128 0x1
 7212 23f7 39       		.byte	0x39
 7213 23f8 1A       		.uleb128 0x1a
 7214 23f9 01       		.uleb128 0x1
 7215 23fa 51       		.byte	0x51
 7216 23fb 05       		.uleb128 0x5
 7217 23fc 03       		.byte	0x3
 7218 23fd DA000000 		.4byte	.LC13
 7219 2401 1A       		.uleb128 0x1a
 7220 2402 01       		.uleb128 0x1
 7221 2403 50       		.byte	0x50
 7222 2404 03       		.uleb128 0x3
 7223 2405 91       		.byte	0x91
 7224 2406 F47E     		.sleb128 -140
 7225 2408 00       		.byte	0
 7226 2409 1F       		.uleb128 0x1f
 7227 240a 38000000 		.4byte	.LVL80
ARM GAS  C:\Users\AHMED~1.ELE\AppData\Local\Temp\ccfMkwD6.s 			page 140


 7228 240e 043C0000 		.4byte	0x3c04
 7229 2412 2C240000 		.4byte	0x242c
 7230 2416 1A       		.uleb128 0x1a
 7231 2417 01       		.uleb128 0x1
 7232 2418 52       		.byte	0x52
 7233 2419 01       		.uleb128 0x1
 7234 241a 41       		.byte	0x41
 7235 241b 1A       		.uleb128 0x1a
 7236 241c 01       		.uleb128 0x1
 7237 241d 51       		.byte	0x51
 7238 241e 05       		.uleb128 0x5
 7239 241f 03       		.byte	0x3
 7240 2420 E3000000 		.4byte	.LC14
 7241 2424 1A       		.uleb128 0x1a
 7242 2425 01       		.uleb128 0x1
 7243 2426 50       		.byte	0x50
 7244 2427 03       		.uleb128 0x3
 7245 2428 91       		.byte	0x91
 7246 2429 947F     		.sleb128 -108
 7247 242b 00       		.byte	0
 7248 242c 1F       		.uleb128 0x1f
 7249 242d 44000000 		.4byte	.LVL81
 7250 2431 043C0000 		.4byte	0x3c04
 7251 2435 4E240000 		.4byte	0x244e
 7252 2439 1A       		.uleb128 0x1a
 7253 243a 01       		.uleb128 0x1
 7254 243b 52       		.byte	0x52
 7255 243c 01       		.uleb128 0x1
 7256 243d 49       		.byte	0x49
 7257 243e 1A       		.uleb128 0x1a
 7258 243f 01       		.uleb128 0x1
 7259 2440 51       		.byte	0x51
 7260 2441 05       		.uleb128 0x5
 7261 2442 03       		.byte	0x3
 7262 2443 F4000000 		.4byte	.LC15
 7263 2447 1A       		.uleb128 0x1a
 7264 2448 01       		.uleb128 0x1
 7265 2449 50       		.byte	0x50
 7266 244a 02       		.uleb128 0x2
 7267 244b 91       		.byte	0x91
 7268 244c 44       		.sleb128 -60
 7269 244d 00       		.byte	0
 7270 244e 1F       		.uleb128 0x1f
 7271 244f 4C000000 		.4byte	.LVL82
 7272 2453 EA3B0000 		.4byte	0x3bea
 7273 2457 66240000 		.4byte	0x2466
 7274 245b 1A       		.uleb128 0x1a
 7275 245c 01       		.uleb128 0x1
 7276 245d 51       		.byte	0x51
 7277 245e 01       		.uleb128 0x1
 7278 245f 3C       		.byte	0x3c
 7279 2460 1A       		.uleb128 0x1a
 7280 2461 01       		.uleb128 0x1
 7281 2462 50       		.byte	0x50
 7282 2463 01       		.uleb128 0x1
 7283 2464 46       		.byte	0x46
 7284 2465 00       		.byte	0
ARM GAS  C:\Users\AHMED~1.ELE\AppData\Local\Temp\ccfMkwD6.s 			page 141


 7285 2466 1F       		.uleb128 0x1f
 7286 2467 54000000 		.4byte	.LVL83
 7287 246b EA3B0000 		.4byte	0x3bea
 7288 246f 7A240000 		.4byte	0x247a
 7289 2473 1A       		.uleb128 0x1a
 7290 2474 01       		.uleb128 0x1
 7291 2475 50       		.byte	0x50
 7292 2476 02       		.uleb128 0x2
 7293 2477 08       		.byte	0x8
 7294 2478 92       		.byte	0x92
 7295 2479 00       		.byte	0
 7296 247a 23       		.uleb128 0x23
 7297 247b 74000000 		.4byte	.LVL85
 7298 247f 043C0000 		.4byte	0x3c04
 7299 2483 1F       		.uleb128 0x1f
 7300 2484 7E000000 		.4byte	.LVL86
 7301 2488 EA3B0000 		.4byte	0x3bea
 7302 248c 97240000 		.4byte	0x2497
 7303 2490 1A       		.uleb128 0x1a
 7304 2491 01       		.uleb128 0x1
 7305 2492 50       		.byte	0x50
 7306 2493 02       		.uleb128 0x2
 7307 2494 08       		.byte	0x8
 7308 2495 92       		.byte	0x92
 7309 2496 00       		.byte	0
 7310 2497 1F       		.uleb128 0x1f
 7311 2498 9C000000 		.4byte	.LVL89
 7312 249c 043C0000 		.4byte	0x3c04
 7313 24a0 B1240000 		.4byte	0x24b1
 7314 24a4 1A       		.uleb128 0x1a
 7315 24a5 01       		.uleb128 0x1
 7316 24a6 51       		.byte	0x51
 7317 24a7 02       		.uleb128 0x2
 7318 24a8 76       		.byte	0x76
 7319 24a9 00       		.sleb128 0
 7320 24aa 1A       		.uleb128 0x1a
 7321 24ab 01       		.uleb128 0x1
 7322 24ac 50       		.byte	0x50
 7323 24ad 02       		.uleb128 0x2
 7324 24ae 78       		.byte	0x78
 7325 24af 00       		.sleb128 0
 7326 24b0 00       		.byte	0
 7327 24b1 1F       		.uleb128 0x1f
 7328 24b2 AA000000 		.4byte	.LVL90
 7329 24b6 C13B0000 		.4byte	0x3bc1
 7330 24ba DD240000 		.4byte	0x24dd
 7331 24be 1A       		.uleb128 0x1a
 7332 24bf 01       		.uleb128 0x1
 7333 24c0 53       		.byte	0x53
 7334 24c1 02       		.uleb128 0x2
 7335 24c2 77       		.byte	0x77
 7336 24c3 00       		.sleb128 0
 7337 24c4 1A       		.uleb128 0x1a
 7338 24c5 01       		.uleb128 0x1
 7339 24c6 52       		.byte	0x52
 7340 24c7 02       		.uleb128 0x2
 7341 24c8 74       		.byte	0x74
ARM GAS  C:\Users\AHMED~1.ELE\AppData\Local\Temp\ccfMkwD6.s 			page 142


 7342 24c9 00       		.sleb128 0
 7343 24ca 1A       		.uleb128 0x1a
 7344 24cb 01       		.uleb128 0x1
 7345 24cc 51       		.byte	0x51
 7346 24cd 01       		.uleb128 0x1
 7347 24ce 32       		.byte	0x32
 7348 24cf 1A       		.uleb128 0x1a
 7349 24d0 01       		.uleb128 0x1
 7350 24d1 50       		.byte	0x50
 7351 24d2 02       		.uleb128 0x2
 7352 24d3 08       		.byte	0x8
 7353 24d4 7F       		.byte	0x7f
 7354 24d5 1A       		.uleb128 0x1a
 7355 24d6 02       		.uleb128 0x2
 7356 24d7 7D       		.byte	0x7d
 7357 24d8 00       		.sleb128 0
 7358 24d9 02       		.uleb128 0x2
 7359 24da 77       		.byte	0x77
 7360 24db 00       		.sleb128 0
 7361 24dc 00       		.byte	0
 7362 24dd 23       		.uleb128 0x23
 7363 24de 1A010000 		.4byte	.LVL101
 7364 24e2 213C0000 		.4byte	0x3c21
 7365 24e6 1F       		.uleb128 0x1f
 7366 24e7 2A010000 		.4byte	.LVL102
 7367 24eb C13B0000 		.4byte	0x3bc1
 7368 24ef 10250000 		.4byte	0x2510
 7369 24f3 1A       		.uleb128 0x1a
 7370 24f4 01       		.uleb128 0x1
 7371 24f5 53       		.byte	0x53
 7372 24f6 01       		.uleb128 0x1
 7373 24f7 30       		.byte	0x30
 7374 24f8 1A       		.uleb128 0x1a
 7375 24f9 01       		.uleb128 0x1
 7376 24fa 52       		.byte	0x52
 7377 24fb 03       		.uleb128 0x3
 7378 24fc 0A       		.byte	0xa
 7379 24fd 2823     		.2byte	0x2328
 7380 24ff 1A       		.uleb128 0x1a
 7381 2500 01       		.uleb128 0x1
 7382 2501 51       		.byte	0x51
 7383 2502 01       		.uleb128 0x1
 7384 2503 33       		.byte	0x33
 7385 2504 1A       		.uleb128 0x1a
 7386 2505 01       		.uleb128 0x1
 7387 2506 50       		.byte	0x50
 7388 2507 01       		.uleb128 0x1
 7389 2508 40       		.byte	0x40
 7390 2509 1A       		.uleb128 0x1a
 7391 250a 02       		.uleb128 0x2
 7392 250b 7D       		.byte	0x7d
 7393 250c 00       		.sleb128 0
 7394 250d 01       		.uleb128 0x1
 7395 250e 30       		.byte	0x30
 7396 250f 00       		.byte	0
 7397 2510 23       		.uleb128 0x23
 7398 2511 50010000 		.4byte	.LVL104
ARM GAS  C:\Users\AHMED~1.ELE\AppData\Local\Temp\ccfMkwD6.s 			page 143


 7399 2515 043C0000 		.4byte	0x3c04
 7400 2519 1F       		.uleb128 0x1f
 7401 251a 6E010000 		.4byte	.LVL105
 7402 251e 043C0000 		.4byte	0x3c04
 7403 2522 33250000 		.4byte	0x2533
 7404 2526 1A       		.uleb128 0x1a
 7405 2527 01       		.uleb128 0x1
 7406 2528 51       		.byte	0x51
 7407 2529 02       		.uleb128 0x2
 7408 252a 76       		.byte	0x76
 7409 252b 00       		.sleb128 0
 7410 252c 1A       		.uleb128 0x1a
 7411 252d 01       		.uleb128 0x1
 7412 252e 50       		.byte	0x50
 7413 252f 02       		.uleb128 0x2
 7414 2530 78       		.byte	0x78
 7415 2531 00       		.sleb128 0
 7416 2532 00       		.byte	0
 7417 2533 1F       		.uleb128 0x1f
 7418 2534 7C010000 		.4byte	.LVL106
 7419 2538 C13B0000 		.4byte	0x3bc1
 7420 253c 60250000 		.4byte	0x2560
 7421 2540 1A       		.uleb128 0x1a
 7422 2541 01       		.uleb128 0x1
 7423 2542 53       		.byte	0x53
 7424 2543 02       		.uleb128 0x2
 7425 2544 77       		.byte	0x77
 7426 2545 00       		.sleb128 0
 7427 2546 1A       		.uleb128 0x1a
 7428 2547 01       		.uleb128 0x1
 7429 2548 52       		.byte	0x52
 7430 2549 02       		.uleb128 0x2
 7431 254a 74       		.byte	0x74
 7432 254b 00       		.sleb128 0
 7433 254c 1A       		.uleb128 0x1a
 7434 254d 01       		.uleb128 0x1
 7435 254e 51       		.byte	0x51
 7436 254f 02       		.uleb128 0x2
 7437 2550 79       		.byte	0x79
 7438 2551 00       		.sleb128 0
 7439 2552 1A       		.uleb128 0x1a
 7440 2553 01       		.uleb128 0x1
 7441 2554 50       		.byte	0x50
 7442 2555 02       		.uleb128 0x2
 7443 2556 08       		.byte	0x8
 7444 2557 7F       		.byte	0x7f
 7445 2558 1A       		.uleb128 0x1a
 7446 2559 02       		.uleb128 0x2
 7447 255a 7D       		.byte	0x7d
 7448 255b 00       		.sleb128 0
 7449 255c 02       		.uleb128 0x2
 7450 255d 77       		.byte	0x77
 7451 255e 00       		.sleb128 0
 7452 255f 00       		.byte	0
 7453 2560 1F       		.uleb128 0x1f
 7454 2561 D6010000 		.4byte	.LVL116
 7455 2565 EA3B0000 		.4byte	0x3bea
ARM GAS  C:\Users\AHMED~1.ELE\AppData\Local\Temp\ccfMkwD6.s 			page 144


 7456 2569 7A250000 		.4byte	0x257a
 7457 256d 1A       		.uleb128 0x1a
 7458 256e 01       		.uleb128 0x1
 7459 256f 51       		.byte	0x51
 7460 2570 02       		.uleb128 0x2
 7461 2571 76       		.byte	0x76
 7462 2572 00       		.sleb128 0
 7463 2573 1A       		.uleb128 0x1a
 7464 2574 01       		.uleb128 0x1
 7465 2575 50       		.byte	0x50
 7466 2576 02       		.uleb128 0x2
 7467 2577 08       		.byte	0x8
 7468 2578 94       		.byte	0x94
 7469 2579 00       		.byte	0
 7470 257a 1F       		.uleb128 0x1f
 7471 257b DE010000 		.4byte	.LVL117
 7472 257f EA3B0000 		.4byte	0x3bea
 7473 2583 94250000 		.4byte	0x2594
 7474 2587 1A       		.uleb128 0x1a
 7475 2588 01       		.uleb128 0x1
 7476 2589 51       		.byte	0x51
 7477 258a 02       		.uleb128 0x2
 7478 258b 74       		.byte	0x74
 7479 258c 00       		.sleb128 0
 7480 258d 1A       		.uleb128 0x1a
 7481 258e 01       		.uleb128 0x1
 7482 258f 50       		.byte	0x50
 7483 2590 02       		.uleb128 0x2
 7484 2591 08       		.byte	0x8
 7485 2592 94       		.byte	0x94
 7486 2593 00       		.byte	0
 7487 2594 23       		.uleb128 0x23
 7488 2595 E2010000 		.4byte	.LVL118
 7489 2599 213C0000 		.4byte	0x3c21
 7490 259d 19       		.uleb128 0x19
 7491 259e F2010000 		.4byte	.LVL119
 7492 25a2 C13B0000 		.4byte	0x3bc1
 7493 25a6 1A       		.uleb128 0x1a
 7494 25a7 01       		.uleb128 0x1
 7495 25a8 53       		.byte	0x53
 7496 25a9 02       		.uleb128 0x2
 7497 25aa 77       		.byte	0x77
 7498 25ab 00       		.sleb128 0
 7499 25ac 1A       		.uleb128 0x1a
 7500 25ad 01       		.uleb128 0x1
 7501 25ae 52       		.byte	0x52
 7502 25af 03       		.uleb128 0x3
 7503 25b0 0A       		.byte	0xa
 7504 25b1 2823     		.2byte	0x2328
 7505 25b3 1A       		.uleb128 0x1a
 7506 25b4 01       		.uleb128 0x1
 7507 25b5 51       		.byte	0x51
 7508 25b6 01       		.uleb128 0x1
 7509 25b7 33       		.byte	0x33
 7510 25b8 1A       		.uleb128 0x1a
 7511 25b9 01       		.uleb128 0x1
 7512 25ba 50       		.byte	0x50
ARM GAS  C:\Users\AHMED~1.ELE\AppData\Local\Temp\ccfMkwD6.s 			page 145


 7513 25bb 01       		.uleb128 0x1
 7514 25bc 40       		.byte	0x40
 7515 25bd 1A       		.uleb128 0x1a
 7516 25be 02       		.uleb128 0x2
 7517 25bf 7D       		.byte	0x7d
 7518 25c0 00       		.sleb128 0
 7519 25c1 02       		.uleb128 0x2
 7520 25c2 77       		.byte	0x77
 7521 25c3 00       		.sleb128 0
 7522 25c4 00       		.byte	0
 7523 25c5 00       		.byte	0
 7524 25c6 07       		.uleb128 0x7
 7525 25c7 4E120000 		.4byte	0x124e
 7526 25cb 08       		.uleb128 0x8
 7527 25cc A2000000 		.4byte	0xa2
 7528 25d0 DB250000 		.4byte	0x25db
 7529 25d4 09       		.uleb128 0x9
 7530 25d5 76000000 		.4byte	0x76
 7531 25d9 10       		.byte	0x10
 7532 25da 00       		.byte	0
 7533 25db 07       		.uleb128 0x7
 7534 25dc CB250000 		.4byte	0x25cb
 7535 25e0 07       		.uleb128 0x7
 7536 25e1 6E120000 		.4byte	0x126e
 7537 25e5 07       		.uleb128 0x7
 7538 25e6 4E120000 		.4byte	0x124e
 7539 25ea 07       		.uleb128 0x7
 7540 25eb CB250000 		.4byte	0x25cb
 7541 25ef 07       		.uleb128 0x7
 7542 25f0 6E120000 		.4byte	0x126e
 7543 25f4 1B       		.uleb128 0x1b
 7544 25f5 FF2F0000 		.4byte	.LASF740
 7545 25f9 01       		.byte	0x1
 7546 25fa E6       		.byte	0xe6
 7547 25fb 00000000 		.4byte	.LFB4
 7548 25ff 14010000 		.4byte	.LFE4-.LFB4
 7549 2603 01       		.uleb128 0x1
 7550 2604 9C       		.byte	0x9c
 7551 2605 C7280000 		.4byte	0x28c7
 7552 2609 18       		.uleb128 0x18
 7553 260a D2190000 		.4byte	.LASF741
 7554 260e 01       		.byte	0x1
 7555 260f E8       		.byte	0xe8
 7556 2610 C7280000 		.4byte	0x28c7
 7557 2614 03       		.uleb128 0x3
 7558 2615 91       		.byte	0x91
 7559 2616 BC7E     		.sleb128 -196
 7560 2618 22       		.uleb128 0x22
 7561 2619 62756600 		.ascii	"buf\000"
 7562 261d 01       		.byte	0x1
 7563 261e E8       		.byte	0xe8
 7564 261f D0010000 		.4byte	0x1d0
 7565 2623 03       		.uleb128 0x3
 7566 2624 91       		.byte	0x91
 7567 2625 F07E     		.sleb128 -144
 7568 2627 1E       		.uleb128 0x1e
 7569 2628 72657400 		.ascii	"ret\000"
ARM GAS  C:\Users\AHMED~1.ELE\AppData\Local\Temp\ccfMkwD6.s 			page 146


 7570 262c 01       		.byte	0x1
 7571 262d E9       		.byte	0xe9
 7572 262e AD000000 		.4byte	0xad
 7573 2632 2D030000 		.4byte	.LLST27
 7574 2636 18       		.uleb128 0x18
 7575 2637 5A300000 		.4byte	.LASF742
 7576 263b 01       		.byte	0x1
 7577 263c EC       		.byte	0xec
 7578 263d D7280000 		.4byte	0x28d7
 7579 2641 03       		.uleb128 0x3
 7580 2642 91       		.byte	0x91
 7581 2643 A07E     		.sleb128 -224
 7582 2645 1C       		.uleb128 0x1c
 7583 2646 50000000 		.4byte	.LBB18
 7584 264a 3C000000 		.4byte	.LBE18-.LBB18
 7585 264e EB260000 		.4byte	0x26eb
 7586 2652 1E       		.uleb128 0x1e
 7587 2653 6C656E00 		.ascii	"len\000"
 7588 2657 01       		.byte	0x1
 7589 2658 F7       		.byte	0xf7
 7590 2659 B8000000 		.4byte	0xb8
 7591 265d 4B030000 		.4byte	.LLST28
 7592 2661 1E       		.uleb128 0x1e
 7593 2662 70747200 		.ascii	"ptr\000"
 7594 2666 01       		.byte	0x1
 7595 2667 F7       		.byte	0xf7
 7596 2668 DE000000 		.4byte	0xde
 7597 266c 69030000 		.4byte	.LLST29
 7598 2670 1F       		.uleb128 0x1f
 7599 2671 56000000 		.4byte	.LVL127
 7600 2675 283C0000 		.4byte	0x3c28
 7601 2679 85260000 		.4byte	0x2685
 7602 267d 1A       		.uleb128 0x1a
 7603 267e 01       		.uleb128 0x1
 7604 267f 50       		.byte	0x50
 7605 2680 03       		.uleb128 0x3
 7606 2681 91       		.byte	0x91
 7607 2682 F07E     		.sleb128 -144
 7608 2684 00       		.byte	0
 7609 2685 1F       		.uleb128 0x1f
 7610 2686 60000000 		.4byte	.LVL130
 7611 268a EA3B0000 		.4byte	0x3bea
 7612 268e 9F260000 		.4byte	0x269f
 7613 2692 1A       		.uleb128 0x1a
 7614 2693 01       		.uleb128 0x1
 7615 2694 51       		.byte	0x51
 7616 2695 02       		.uleb128 0x2
 7617 2696 75       		.byte	0x75
 7618 2697 01       		.sleb128 1
 7619 2698 1A       		.uleb128 0x1a
 7620 2699 01       		.uleb128 0x1
 7621 269a 50       		.byte	0x50
 7622 269b 02       		.uleb128 0x2
 7623 269c 08       		.byte	0x8
 7624 269d 92       		.byte	0x92
 7625 269e 00       		.byte	0
 7626 269f 1F       		.uleb128 0x1f
ARM GAS  C:\Users\AHMED~1.ELE\AppData\Local\Temp\ccfMkwD6.s 			page 147


 7627 26a0 6E000000 		.4byte	.LVL132
 7628 26a4 043C0000 		.4byte	0x3c04
 7629 26a8 C0260000 		.4byte	0x26c0
 7630 26ac 1A       		.uleb128 0x1a
 7631 26ad 01       		.uleb128 0x1
 7632 26ae 52       		.byte	0x52
 7633 26af 02       		.uleb128 0x2
 7634 26b0 75       		.byte	0x75
 7635 26b1 00       		.sleb128 0
 7636 26b2 1A       		.uleb128 0x1a
 7637 26b3 01       		.uleb128 0x1
 7638 26b4 51       		.byte	0x51
 7639 26b5 03       		.uleb128 0x3
 7640 26b6 91       		.byte	0x91
 7641 26b7 F07E     		.sleb128 -144
 7642 26b9 1A       		.uleb128 0x1a
 7643 26ba 01       		.uleb128 0x1
 7644 26bb 50       		.byte	0x50
 7645 26bc 02       		.uleb128 0x2
 7646 26bd 74       		.byte	0x74
 7647 26be 00       		.sleb128 0
 7648 26bf 00       		.byte	0
 7649 26c0 19       		.uleb128 0x19
 7650 26c1 86000000 		.4byte	.LVL133
 7651 26c5 C13B0000 		.4byte	0x3bc1
 7652 26c9 1A       		.uleb128 0x1a
 7653 26ca 01       		.uleb128 0x1
 7654 26cb 53       		.byte	0x53
 7655 26cc 03       		.uleb128 0x3
 7656 26cd 0A       		.byte	0xa
 7657 26ce 0005     		.2byte	0x500
 7658 26d0 1A       		.uleb128 0x1a
 7659 26d1 01       		.uleb128 0x1
 7660 26d2 52       		.byte	0x52
 7661 26d3 02       		.uleb128 0x2
 7662 26d4 74       		.byte	0x74
 7663 26d5 00       		.sleb128 0
 7664 26d6 1A       		.uleb128 0x1a
 7665 26d7 01       		.uleb128 0x1
 7666 26d8 51       		.byte	0x51
 7667 26d9 02       		.uleb128 0x2
 7668 26da 08       		.byte	0x8
 7669 26db 25       		.byte	0x25
 7670 26dc 1A       		.uleb128 0x1a
 7671 26dd 01       		.uleb128 0x1
 7672 26de 50       		.byte	0x50
 7673 26df 01       		.uleb128 0x1
 7674 26e0 3F       		.byte	0x3f
 7675 26e1 1A       		.uleb128 0x1a
 7676 26e2 02       		.uleb128 0x2
 7677 26e3 7D       		.byte	0x7d
 7678 26e4 00       		.sleb128 0
 7679 26e5 03       		.uleb128 0x3
 7680 26e6 0A       		.byte	0xa
 7681 26e7 0010     		.2byte	0x1000
 7682 26e9 00       		.byte	0
 7683 26ea 00       		.byte	0
ARM GAS  C:\Users\AHMED~1.ELE\AppData\Local\Temp\ccfMkwD6.s 			page 148


 7684 26eb 1C       		.uleb128 0x1c
 7685 26ec 8C000000 		.4byte	.LBB19
 7686 26f0 2E000000 		.4byte	.LBE19-.LBB19
 7687 26f4 95270000 		.4byte	0x2795
 7688 26f8 1E       		.uleb128 0x1e
 7689 26f9 6C656E00 		.ascii	"len\000"
 7690 26fd 01       		.byte	0x1
 7691 26fe FA       		.byte	0xfa
 7692 26ff B8000000 		.4byte	0xb8
 7693 2703 87030000 		.4byte	.LLST30
 7694 2707 1E       		.uleb128 0x1e
 7695 2708 70747200 		.ascii	"ptr\000"
 7696 270c 01       		.byte	0x1
 7697 270d FA       		.byte	0xfa
 7698 270e DE000000 		.4byte	0xde
 7699 2712 9B030000 		.4byte	.LLST31
 7700 2716 1F       		.uleb128 0x1f
 7701 2717 94000000 		.4byte	.LVL135
 7702 271b EA3B0000 		.4byte	0x3bea
 7703 271f 2F270000 		.4byte	0x272f
 7704 2723 1A       		.uleb128 0x1a
 7705 2724 01       		.uleb128 0x1
 7706 2725 51       		.byte	0x51
 7707 2726 01       		.uleb128 0x1
 7708 2727 3B       		.byte	0x3b
 7709 2728 1A       		.uleb128 0x1a
 7710 2729 01       		.uleb128 0x1
 7711 272a 50       		.byte	0x50
 7712 272b 02       		.uleb128 0x2
 7713 272c 08       		.byte	0x8
 7714 272d 92       		.byte	0x92
 7715 272e 00       		.byte	0
 7716 272f 1F       		.uleb128 0x1f
 7717 2730 A0000000 		.4byte	.LVL136
 7718 2734 043C0000 		.4byte	0x3c04
 7719 2738 51270000 		.4byte	0x2751
 7720 273c 1A       		.uleb128 0x1a
 7721 273d 01       		.uleb128 0x1
 7722 273e 52       		.byte	0x52
 7723 273f 01       		.uleb128 0x1
 7724 2740 3A       		.byte	0x3a
 7725 2741 1A       		.uleb128 0x1a
 7726 2742 01       		.uleb128 0x1
 7727 2743 51       		.byte	0x51
 7728 2744 05       		.uleb128 0x5
 7729 2745 03       		.byte	0x3
 7730 2746 19010000 		.4byte	.LC21
 7731 274a 1A       		.uleb128 0x1a
 7732 274b 01       		.uleb128 0x1
 7733 274c 50       		.byte	0x50
 7734 274d 02       		.uleb128 0x2
 7735 274e 75       		.byte	0x75
 7736 274f 00       		.sleb128 0
 7737 2750 00       		.byte	0
 7738 2751 1F       		.uleb128 0x1f
 7739 2752 B2000000 		.4byte	.LVL137
 7740 2756 C13B0000 		.4byte	0x3bc1
ARM GAS  C:\Users\AHMED~1.ELE\AppData\Local\Temp\ccfMkwD6.s 			page 149


 7741 275a 7E270000 		.4byte	0x277e
 7742 275e 1A       		.uleb128 0x1a
 7743 275f 01       		.uleb128 0x1
 7744 2760 53       		.byte	0x53
 7745 2761 03       		.uleb128 0x3
 7746 2762 0A       		.byte	0xa
 7747 2763 0005     		.2byte	0x500
 7748 2765 1A       		.uleb128 0x1a
 7749 2766 01       		.uleb128 0x1
 7750 2767 52       		.byte	0x52
 7751 2768 02       		.uleb128 0x2
 7752 2769 75       		.byte	0x75
 7753 276a 00       		.sleb128 0
 7754 276b 1A       		.uleb128 0x1a
 7755 276c 01       		.uleb128 0x1
 7756 276d 51       		.byte	0x51
 7757 276e 02       		.uleb128 0x2
 7758 276f 08       		.byte	0x8
 7759 2770 25       		.byte	0x25
 7760 2771 1A       		.uleb128 0x1a
 7761 2772 01       		.uleb128 0x1
 7762 2773 50       		.byte	0x50
 7763 2774 01       		.uleb128 0x1
 7764 2775 3F       		.byte	0x3f
 7765 2776 1A       		.uleb128 0x1a
 7766 2777 02       		.uleb128 0x2
 7767 2778 7D       		.byte	0x7d
 7768 2779 00       		.sleb128 0
 7769 277a 02       		.uleb128 0x2
 7770 277b 74       		.byte	0x74
 7771 277c 00       		.sleb128 0
 7772 277d 00       		.byte	0
 7773 277e 19       		.uleb128 0x19
 7774 277f BA000000 		.4byte	.LVL138
 7775 2783 EA3B0000 		.4byte	0x3bea
 7776 2787 1A       		.uleb128 0x1a
 7777 2788 01       		.uleb128 0x1
 7778 2789 51       		.byte	0x51
 7779 278a 02       		.uleb128 0x2
 7780 278b 75       		.byte	0x75
 7781 278c 00       		.sleb128 0
 7782 278d 1A       		.uleb128 0x1a
 7783 278e 01       		.uleb128 0x1
 7784 278f 50       		.byte	0x50
 7785 2790 02       		.uleb128 0x2
 7786 2791 08       		.byte	0x8
 7787 2792 94       		.byte	0x94
 7788 2793 00       		.byte	0
 7789 2794 00       		.byte	0
 7790 2795 1F       		.uleb128 0x1f
 7791 2796 0E000000 		.4byte	.LVL121
 7792 279a 043C0000 		.4byte	0x3c04
 7793 279e B8270000 		.4byte	0x27b8
 7794 27a2 1A       		.uleb128 0x1a
 7795 27a3 01       		.uleb128 0x1
 7796 27a4 52       		.byte	0x52
 7797 27a5 01       		.uleb128 0x1
ARM GAS  C:\Users\AHMED~1.ELE\AppData\Local\Temp\ccfMkwD6.s 			page 150


 7798 27a6 49       		.byte	0x49
 7799 27a7 1A       		.uleb128 0x1a
 7800 27a8 01       		.uleb128 0x1
 7801 27a9 51       		.byte	0x51
 7802 27aa 05       		.uleb128 0x5
 7803 27ab 03       		.byte	0x3
 7804 27ac 24010000 		.4byte	.LC19
 7805 27b0 1A       		.uleb128 0x1a
 7806 27b1 01       		.uleb128 0x1
 7807 27b2 50       		.byte	0x50
 7808 27b3 03       		.uleb128 0x3
 7809 27b4 91       		.byte	0x91
 7810 27b5 A07E     		.sleb128 -224
 7811 27b7 00       		.byte	0
 7812 27b8 1F       		.uleb128 0x1f
 7813 27b9 16000000 		.4byte	.LVL122
 7814 27bd EA3B0000 		.4byte	0x3bea
 7815 27c1 D0270000 		.4byte	0x27d0
 7816 27c5 1A       		.uleb128 0x1a
 7817 27c6 01       		.uleb128 0x1
 7818 27c7 51       		.byte	0x51
 7819 27c8 01       		.uleb128 0x1
 7820 27c9 3C       		.byte	0x3c
 7821 27ca 1A       		.uleb128 0x1a
 7822 27cb 01       		.uleb128 0x1
 7823 27cc 50       		.byte	0x50
 7824 27cd 01       		.uleb128 0x1
 7825 27ce 46       		.byte	0x46
 7826 27cf 00       		.byte	0
 7827 27d0 1F       		.uleb128 0x1f
 7828 27d1 28000000 		.4byte	.LVL123
 7829 27d5 043C0000 		.4byte	0x3c04
 7830 27d9 F2270000 		.4byte	0x27f2
 7831 27dd 1A       		.uleb128 0x1a
 7832 27de 01       		.uleb128 0x1
 7833 27df 52       		.byte	0x52
 7834 27e0 02       		.uleb128 0x2
 7835 27e1 74       		.byte	0x74
 7836 27e2 00       		.sleb128 0
 7837 27e3 1A       		.uleb128 0x1a
 7838 27e4 01       		.uleb128 0x1
 7839 27e5 51       		.byte	0x51
 7840 27e6 03       		.uleb128 0x3
 7841 27e7 91       		.byte	0x91
 7842 27e8 A07E     		.sleb128 -224
 7843 27ea 1A       		.uleb128 0x1a
 7844 27eb 01       		.uleb128 0x1
 7845 27ec 50       		.byte	0x50
 7846 27ed 03       		.uleb128 0x3
 7847 27ee 91       		.byte	0x91
 7848 27ef BD7E     		.sleb128 -195
 7849 27f1 00       		.byte	0
 7850 27f2 1F       		.uleb128 0x1f
 7851 27f3 42000000 		.4byte	.LVL124
 7852 27f7 C13B0000 		.4byte	0x3bc1
 7853 27fb 12280000 		.4byte	0x2812
 7854 27ff 1A       		.uleb128 0x1a
ARM GAS  C:\Users\AHMED~1.ELE\AppData\Local\Temp\ccfMkwD6.s 			page 151


 7855 2800 01       		.uleb128 0x1
 7856 2801 52       		.byte	0x52
 7857 2802 01       		.uleb128 0x1
 7858 2803 31       		.byte	0x31
 7859 2804 1A       		.uleb128 0x1a
 7860 2805 01       		.uleb128 0x1
 7861 2806 50       		.byte	0x50
 7862 2807 02       		.uleb128 0x2
 7863 2808 08       		.byte	0x8
 7864 2809 7F       		.byte	0x7f
 7865 280a 1A       		.uleb128 0x1a
 7866 280b 02       		.uleb128 0x2
 7867 280c 7D       		.byte	0x7d
 7868 280d 00       		.sleb128 0
 7869 280e 02       		.uleb128 0x2
 7870 280f 74       		.byte	0x74
 7871 2810 00       		.sleb128 0
 7872 2811 00       		.byte	0
 7873 2812 1F       		.uleb128 0x1f
 7874 2813 50000000 		.4byte	.LVL126
 7875 2817 3D3C0000 		.4byte	0x3c3d
 7876 281b 36280000 		.4byte	0x2836
 7877 281f 1A       		.uleb128 0x1a
 7878 2820 01       		.uleb128 0x1
 7879 2821 52       		.byte	0x52
 7880 2822 02       		.uleb128 0x2
 7881 2823 74       		.byte	0x74
 7882 2824 00       		.sleb128 0
 7883 2825 1A       		.uleb128 0x1a
 7884 2826 01       		.uleb128 0x1
 7885 2827 51       		.byte	0x51
 7886 2828 05       		.uleb128 0x5
 7887 2829 03       		.byte	0x3
 7888 282a 0D010000 		.4byte	.LC20
 7889 282e 1A       		.uleb128 0x1a
 7890 282f 01       		.uleb128 0x1
 7891 2830 50       		.byte	0x50
 7892 2831 03       		.uleb128 0x3
 7893 2832 91       		.byte	0x91
 7894 2833 F07E     		.sleb128 -144
 7895 2835 00       		.byte	0
 7896 2836 1F       		.uleb128 0x1f
 7897 2837 C8000000 		.4byte	.LVL139
 7898 283b 5F3C0000 		.4byte	0x3c5f
 7899 283f 52280000 		.4byte	0x2852
 7900 2843 1A       		.uleb128 0x1a
 7901 2844 01       		.uleb128 0x1
 7902 2845 51       		.byte	0x51
 7903 2846 03       		.uleb128 0x3
 7904 2847 91       		.byte	0x91
 7905 2848 BD7E     		.sleb128 -195
 7906 284a 1A       		.uleb128 0x1a
 7907 284b 01       		.uleb128 0x1
 7908 284c 50       		.byte	0x50
 7909 284d 03       		.uleb128 0x3
 7910 284e 91       		.byte	0x91
 7911 284f F07E     		.sleb128 -144
ARM GAS  C:\Users\AHMED~1.ELE\AppData\Local\Temp\ccfMkwD6.s 			page 152


 7912 2851 00       		.byte	0
 7913 2852 1F       		.uleb128 0x1f
 7914 2853 D8000000 		.4byte	.LVL140
 7915 2857 C13B0000 		.4byte	0x3bc1
 7916 285b 7D280000 		.4byte	0x287d
 7917 285f 1A       		.uleb128 0x1a
 7918 2860 01       		.uleb128 0x1
 7919 2861 53       		.byte	0x53
 7920 2862 01       		.uleb128 0x1
 7921 2863 30       		.byte	0x30
 7922 2864 1A       		.uleb128 0x1a
 7923 2865 01       		.uleb128 0x1
 7924 2866 52       		.byte	0x52
 7925 2867 03       		.uleb128 0x3
 7926 2868 0A       		.byte	0xa
 7927 2869 0006     		.2byte	0x600
 7928 286b 1A       		.uleb128 0x1a
 7929 286c 01       		.uleb128 0x1
 7930 286d 51       		.byte	0x51
 7931 286e 02       		.uleb128 0x2
 7932 286f 08       		.byte	0x8
 7933 2870 24       		.byte	0x24
 7934 2871 1A       		.uleb128 0x1a
 7935 2872 01       		.uleb128 0x1
 7936 2873 50       		.byte	0x50
 7937 2874 01       		.uleb128 0x1
 7938 2875 3F       		.byte	0x3f
 7939 2876 1A       		.uleb128 0x1a
 7940 2877 02       		.uleb128 0x2
 7941 2878 7D       		.byte	0x7d
 7942 2879 00       		.sleb128 0
 7943 287a 01       		.uleb128 0x1
 7944 287b 30       		.byte	0x30
 7945 287c 00       		.byte	0
 7946 287d 1F       		.uleb128 0x1f
 7947 287e E6000000 		.4byte	.LVL141
 7948 2882 7A3C0000 		.4byte	0x3c7a
 7949 2886 97280000 		.4byte	0x2897
 7950 288a 1A       		.uleb128 0x1a
 7951 288b 01       		.uleb128 0x1
 7952 288c 51       		.byte	0x51
 7953 288d 03       		.uleb128 0x3
 7954 288e 91       		.byte	0x91
 7955 288f F07E     		.sleb128 -144
 7956 2891 1A       		.uleb128 0x1a
 7957 2892 01       		.uleb128 0x1
 7958 2893 50       		.byte	0x50
 7959 2894 01       		.uleb128 0x1
 7960 2895 48       		.byte	0x48
 7961 2896 00       		.byte	0
 7962 2897 23       		.uleb128 0x23
 7963 2898 EE000000 		.4byte	.LVL143
 7964 289c EA3B0000 		.4byte	0x3bea
 7965 28a0 19       		.uleb128 0x19
 7966 28a1 FE000000 		.4byte	.LVL144
 7967 28a5 C13B0000 		.4byte	0x3bc1
 7968 28a9 1A       		.uleb128 0x1a
ARM GAS  C:\Users\AHMED~1.ELE\AppData\Local\Temp\ccfMkwD6.s 			page 153


 7969 28aa 01       		.uleb128 0x1
 7970 28ab 53       		.byte	0x53
 7971 28ac 01       		.uleb128 0x1
 7972 28ad 30       		.byte	0x30
 7973 28ae 1A       		.uleb128 0x1a
 7974 28af 01       		.uleb128 0x1
 7975 28b0 52       		.byte	0x52
 7976 28b1 03       		.uleb128 0x3
 7977 28b2 0A       		.byte	0xa
 7978 28b3 2823     		.2byte	0x2328
 7979 28b5 1A       		.uleb128 0x1a
 7980 28b6 01       		.uleb128 0x1
 7981 28b7 51       		.byte	0x51
 7982 28b8 01       		.uleb128 0x1
 7983 28b9 33       		.byte	0x33
 7984 28ba 1A       		.uleb128 0x1a
 7985 28bb 01       		.uleb128 0x1
 7986 28bc 50       		.byte	0x50
 7987 28bd 01       		.uleb128 0x1
 7988 28be 40       		.byte	0x40
 7989 28bf 1A       		.uleb128 0x1a
 7990 28c0 02       		.uleb128 0x2
 7991 28c1 7D       		.byte	0x7d
 7992 28c2 00       		.sleb128 0
 7993 28c3 01       		.uleb128 0x1
 7994 28c4 30       		.byte	0x30
 7995 28c5 00       		.byte	0
 7996 28c6 00       		.byte	0
 7997 28c7 08       		.uleb128 0x8
 7998 28c8 A2000000 		.4byte	0xa2
 7999 28cc D7280000 		.4byte	0x28d7
 8000 28d0 09       		.uleb128 0x9
 8001 28d1 76000000 		.4byte	0x76
 8002 28d5 30       		.byte	0x30
 8003 28d6 00       		.byte	0
 8004 28d7 07       		.uleb128 0x7
 8005 28d8 6E120000 		.4byte	0x126e
 8006 28dc 25       		.uleb128 0x25
 8007 28dd 56150000 		.4byte	.LASF743
 8008 28e1 01       		.byte	0x1
 8009 28e2 0B01     		.2byte	0x10b
 8010 28e4 00000000 		.4byte	.LFB5
 8011 28e8 14010000 		.4byte	.LFE5-.LFB5
 8012 28ec 01       		.uleb128 0x1
 8013 28ed 9C       		.byte	0x9c
 8014 28ee B82B0000 		.4byte	0x2bb8
 8015 28f2 26       		.uleb128 0x26
 8016 28f3 D2190000 		.4byte	.LASF741
 8017 28f7 01       		.byte	0x1
 8018 28f8 0D01     		.2byte	0x10d
 8019 28fa C7280000 		.4byte	0x28c7
 8020 28fe 03       		.uleb128 0x3
 8021 28ff 91       		.byte	0x91
 8022 2900 BC7E     		.sleb128 -196
 8023 2902 27       		.uleb128 0x27
 8024 2903 62756600 		.ascii	"buf\000"
 8025 2907 01       		.byte	0x1
ARM GAS  C:\Users\AHMED~1.ELE\AppData\Local\Temp\ccfMkwD6.s 			page 154


 8026 2908 0D01     		.2byte	0x10d
 8027 290a D0010000 		.4byte	0x1d0
 8028 290e 03       		.uleb128 0x3
 8029 290f 91       		.byte	0x91
 8030 2910 F07E     		.sleb128 -144
 8031 2912 28       		.uleb128 0x28
 8032 2913 72657400 		.ascii	"ret\000"
 8033 2917 01       		.byte	0x1
 8034 2918 0E01     		.2byte	0x10e
 8035 291a AD000000 		.4byte	0xad
 8036 291e B9030000 		.4byte	.LLST32
 8037 2922 26       		.uleb128 0x26
 8038 2923 5A300000 		.4byte	.LASF742
 8039 2927 01       		.byte	0x1
 8040 2928 1001     		.2byte	0x110
 8041 292a B82B0000 		.4byte	0x2bb8
 8042 292e 03       		.uleb128 0x3
 8043 292f 91       		.byte	0x91
 8044 2930 A07E     		.sleb128 -224
 8045 2932 1C       		.uleb128 0x1c
 8046 2933 50000000 		.4byte	.LBB20
 8047 2937 3C000000 		.4byte	.LBE20-.LBB20
 8048 293b DA290000 		.4byte	0x29da
 8049 293f 28       		.uleb128 0x28
 8050 2940 6C656E00 		.ascii	"len\000"
 8051 2944 01       		.byte	0x1
 8052 2945 1B01     		.2byte	0x11b
 8053 2947 B8000000 		.4byte	0xb8
 8054 294b D7030000 		.4byte	.LLST33
 8055 294f 28       		.uleb128 0x28
 8056 2950 70747200 		.ascii	"ptr\000"
 8057 2954 01       		.byte	0x1
 8058 2955 1B01     		.2byte	0x11b
 8059 2957 DE000000 		.4byte	0xde
 8060 295b F5030000 		.4byte	.LLST34
 8061 295f 1F       		.uleb128 0x1f
 8062 2960 56000000 		.4byte	.LVL151
 8063 2964 283C0000 		.4byte	0x3c28
 8064 2968 74290000 		.4byte	0x2974
 8065 296c 1A       		.uleb128 0x1a
 8066 296d 01       		.uleb128 0x1
 8067 296e 50       		.byte	0x50
 8068 296f 03       		.uleb128 0x3
 8069 2970 91       		.byte	0x91
 8070 2971 F07E     		.sleb128 -144
 8071 2973 00       		.byte	0
 8072 2974 1F       		.uleb128 0x1f
 8073 2975 60000000 		.4byte	.LVL154
 8074 2979 EA3B0000 		.4byte	0x3bea
 8075 297d 8E290000 		.4byte	0x298e
 8076 2981 1A       		.uleb128 0x1a
 8077 2982 01       		.uleb128 0x1
 8078 2983 51       		.byte	0x51
 8079 2984 02       		.uleb128 0x2
 8080 2985 75       		.byte	0x75
 8081 2986 01       		.sleb128 1
 8082 2987 1A       		.uleb128 0x1a
ARM GAS  C:\Users\AHMED~1.ELE\AppData\Local\Temp\ccfMkwD6.s 			page 155


 8083 2988 01       		.uleb128 0x1
 8084 2989 50       		.byte	0x50
 8085 298a 02       		.uleb128 0x2
 8086 298b 08       		.byte	0x8
 8087 298c 92       		.byte	0x92
 8088 298d 00       		.byte	0
 8089 298e 1F       		.uleb128 0x1f
 8090 298f 6E000000 		.4byte	.LVL156
 8091 2993 043C0000 		.4byte	0x3c04
 8092 2997 AF290000 		.4byte	0x29af
 8093 299b 1A       		.uleb128 0x1a
 8094 299c 01       		.uleb128 0x1
 8095 299d 52       		.byte	0x52
 8096 299e 02       		.uleb128 0x2
 8097 299f 75       		.byte	0x75
 8098 29a0 00       		.sleb128 0
 8099 29a1 1A       		.uleb128 0x1a
 8100 29a2 01       		.uleb128 0x1
 8101 29a3 51       		.byte	0x51
 8102 29a4 03       		.uleb128 0x3
 8103 29a5 91       		.byte	0x91
 8104 29a6 F07E     		.sleb128 -144
 8105 29a8 1A       		.uleb128 0x1a
 8106 29a9 01       		.uleb128 0x1
 8107 29aa 50       		.byte	0x50
 8108 29ab 02       		.uleb128 0x2
 8109 29ac 74       		.byte	0x74
 8110 29ad 00       		.sleb128 0
 8111 29ae 00       		.byte	0
 8112 29af 19       		.uleb128 0x19
 8113 29b0 86000000 		.4byte	.LVL157
 8114 29b4 C13B0000 		.4byte	0x3bc1
 8115 29b8 1A       		.uleb128 0x1a
 8116 29b9 01       		.uleb128 0x1
 8117 29ba 53       		.byte	0x53
 8118 29bb 03       		.uleb128 0x3
 8119 29bc 0A       		.byte	0xa
 8120 29bd 0005     		.2byte	0x500
 8121 29bf 1A       		.uleb128 0x1a
 8122 29c0 01       		.uleb128 0x1
 8123 29c1 52       		.byte	0x52
 8124 29c2 02       		.uleb128 0x2
 8125 29c3 74       		.byte	0x74
 8126 29c4 00       		.sleb128 0
 8127 29c5 1A       		.uleb128 0x1a
 8128 29c6 01       		.uleb128 0x1
 8129 29c7 51       		.byte	0x51
 8130 29c8 02       		.uleb128 0x2
 8131 29c9 08       		.byte	0x8
 8132 29ca 25       		.byte	0x25
 8133 29cb 1A       		.uleb128 0x1a
 8134 29cc 01       		.uleb128 0x1
 8135 29cd 50       		.byte	0x50
 8136 29ce 01       		.uleb128 0x1
 8137 29cf 3F       		.byte	0x3f
 8138 29d0 1A       		.uleb128 0x1a
 8139 29d1 02       		.uleb128 0x2
ARM GAS  C:\Users\AHMED~1.ELE\AppData\Local\Temp\ccfMkwD6.s 			page 156


 8140 29d2 7D       		.byte	0x7d
 8141 29d3 00       		.sleb128 0
 8142 29d4 03       		.uleb128 0x3
 8143 29d5 0A       		.byte	0xa
 8144 29d6 0010     		.2byte	0x1000
 8145 29d8 00       		.byte	0
 8146 29d9 00       		.byte	0
 8147 29da 1C       		.uleb128 0x1c
 8148 29db 8C000000 		.4byte	.LBB21
 8149 29df 2E000000 		.4byte	.LBE21-.LBB21
 8150 29e3 862A0000 		.4byte	0x2a86
 8151 29e7 28       		.uleb128 0x28
 8152 29e8 6C656E00 		.ascii	"len\000"
 8153 29ec 01       		.byte	0x1
 8154 29ed 1E01     		.2byte	0x11e
 8155 29ef B8000000 		.4byte	0xb8
 8156 29f3 13040000 		.4byte	.LLST35
 8157 29f7 28       		.uleb128 0x28
 8158 29f8 70747200 		.ascii	"ptr\000"
 8159 29fc 01       		.byte	0x1
 8160 29fd 1E01     		.2byte	0x11e
 8161 29ff DE000000 		.4byte	0xde
 8162 2a03 27040000 		.4byte	.LLST36
 8163 2a07 1F       		.uleb128 0x1f
 8164 2a08 94000000 		.4byte	.LVL159
 8165 2a0c EA3B0000 		.4byte	0x3bea
 8166 2a10 202A0000 		.4byte	0x2a20
 8167 2a14 1A       		.uleb128 0x1a
 8168 2a15 01       		.uleb128 0x1
 8169 2a16 51       		.byte	0x51
 8170 2a17 01       		.uleb128 0x1
 8171 2a18 3B       		.byte	0x3b
 8172 2a19 1A       		.uleb128 0x1a
 8173 2a1a 01       		.uleb128 0x1
 8174 2a1b 50       		.byte	0x50
 8175 2a1c 02       		.uleb128 0x2
 8176 2a1d 08       		.byte	0x8
 8177 2a1e 92       		.byte	0x92
 8178 2a1f 00       		.byte	0
 8179 2a20 1F       		.uleb128 0x1f
 8180 2a21 A0000000 		.4byte	.LVL160
 8181 2a25 043C0000 		.4byte	0x3c04
 8182 2a29 422A0000 		.4byte	0x2a42
 8183 2a2d 1A       		.uleb128 0x1a
 8184 2a2e 01       		.uleb128 0x1
 8185 2a2f 52       		.byte	0x52
 8186 2a30 01       		.uleb128 0x1
 8187 2a31 3A       		.byte	0x3a
 8188 2a32 1A       		.uleb128 0x1a
 8189 2a33 01       		.uleb128 0x1
 8190 2a34 51       		.byte	0x51
 8191 2a35 05       		.uleb128 0x5
 8192 2a36 03       		.byte	0x3
 8193 2a37 49010000 		.4byte	.LC23
 8194 2a3b 1A       		.uleb128 0x1a
 8195 2a3c 01       		.uleb128 0x1
 8196 2a3d 50       		.byte	0x50
ARM GAS  C:\Users\AHMED~1.ELE\AppData\Local\Temp\ccfMkwD6.s 			page 157


 8197 2a3e 02       		.uleb128 0x2
 8198 2a3f 75       		.byte	0x75
 8199 2a40 00       		.sleb128 0
 8200 2a41 00       		.byte	0
 8201 2a42 1F       		.uleb128 0x1f
 8202 2a43 B2000000 		.4byte	.LVL161
 8203 2a47 C13B0000 		.4byte	0x3bc1
 8204 2a4b 6F2A0000 		.4byte	0x2a6f
 8205 2a4f 1A       		.uleb128 0x1a
 8206 2a50 01       		.uleb128 0x1
 8207 2a51 53       		.byte	0x53
 8208 2a52 03       		.uleb128 0x3
 8209 2a53 0A       		.byte	0xa
 8210 2a54 0005     		.2byte	0x500
 8211 2a56 1A       		.uleb128 0x1a
 8212 2a57 01       		.uleb128 0x1
 8213 2a58 52       		.byte	0x52
 8214 2a59 02       		.uleb128 0x2
 8215 2a5a 75       		.byte	0x75
 8216 2a5b 00       		.sleb128 0
 8217 2a5c 1A       		.uleb128 0x1a
 8218 2a5d 01       		.uleb128 0x1
 8219 2a5e 51       		.byte	0x51
 8220 2a5f 02       		.uleb128 0x2
 8221 2a60 08       		.byte	0x8
 8222 2a61 25       		.byte	0x25
 8223 2a62 1A       		.uleb128 0x1a
 8224 2a63 01       		.uleb128 0x1
 8225 2a64 50       		.byte	0x50
 8226 2a65 01       		.uleb128 0x1
 8227 2a66 3F       		.byte	0x3f
 8228 2a67 1A       		.uleb128 0x1a
 8229 2a68 02       		.uleb128 0x2
 8230 2a69 7D       		.byte	0x7d
 8231 2a6a 00       		.sleb128 0
 8232 2a6b 02       		.uleb128 0x2
 8233 2a6c 74       		.byte	0x74
 8234 2a6d 00       		.sleb128 0
 8235 2a6e 00       		.byte	0
 8236 2a6f 19       		.uleb128 0x19
 8237 2a70 BA000000 		.4byte	.LVL162
 8238 2a74 EA3B0000 		.4byte	0x3bea
 8239 2a78 1A       		.uleb128 0x1a
 8240 2a79 01       		.uleb128 0x1
 8241 2a7a 51       		.byte	0x51
 8242 2a7b 02       		.uleb128 0x2
 8243 2a7c 75       		.byte	0x75
 8244 2a7d 00       		.sleb128 0
 8245 2a7e 1A       		.uleb128 0x1a
 8246 2a7f 01       		.uleb128 0x1
 8247 2a80 50       		.byte	0x50
 8248 2a81 02       		.uleb128 0x2
 8249 2a82 08       		.byte	0x8
 8250 2a83 94       		.byte	0x94
 8251 2a84 00       		.byte	0
 8252 2a85 00       		.byte	0
 8253 2a86 1F       		.uleb128 0x1f
ARM GAS  C:\Users\AHMED~1.ELE\AppData\Local\Temp\ccfMkwD6.s 			page 158


 8254 2a87 0E000000 		.4byte	.LVL145
 8255 2a8b 043C0000 		.4byte	0x3c04
 8256 2a8f A92A0000 		.4byte	0x2aa9
 8257 2a93 1A       		.uleb128 0x1a
 8258 2a94 01       		.uleb128 0x1
 8259 2a95 52       		.byte	0x52
 8260 2a96 01       		.uleb128 0x1
 8261 2a97 49       		.byte	0x49
 8262 2a98 1A       		.uleb128 0x1a
 8263 2a99 01       		.uleb128 0x1
 8264 2a9a 51       		.byte	0x51
 8265 2a9b 05       		.uleb128 0x5
 8266 2a9c 03       		.byte	0x3
 8267 2a9d 24010000 		.4byte	.LC19
 8268 2aa1 1A       		.uleb128 0x1a
 8269 2aa2 01       		.uleb128 0x1
 8270 2aa3 50       		.byte	0x50
 8271 2aa4 03       		.uleb128 0x3
 8272 2aa5 91       		.byte	0x91
 8273 2aa6 A07E     		.sleb128 -224
 8274 2aa8 00       		.byte	0
 8275 2aa9 1F       		.uleb128 0x1f
 8276 2aaa 16000000 		.4byte	.LVL146
 8277 2aae EA3B0000 		.4byte	0x3bea
 8278 2ab2 C12A0000 		.4byte	0x2ac1
 8279 2ab6 1A       		.uleb128 0x1a
 8280 2ab7 01       		.uleb128 0x1
 8281 2ab8 51       		.byte	0x51
 8282 2ab9 01       		.uleb128 0x1
 8283 2aba 3C       		.byte	0x3c
 8284 2abb 1A       		.uleb128 0x1a
 8285 2abc 01       		.uleb128 0x1
 8286 2abd 50       		.byte	0x50
 8287 2abe 01       		.uleb128 0x1
 8288 2abf 46       		.byte	0x46
 8289 2ac0 00       		.byte	0
 8290 2ac1 1F       		.uleb128 0x1f
 8291 2ac2 28000000 		.4byte	.LVL147
 8292 2ac6 043C0000 		.4byte	0x3c04
 8293 2aca E32A0000 		.4byte	0x2ae3
 8294 2ace 1A       		.uleb128 0x1a
 8295 2acf 01       		.uleb128 0x1
 8296 2ad0 52       		.byte	0x52
 8297 2ad1 02       		.uleb128 0x2
 8298 2ad2 74       		.byte	0x74
 8299 2ad3 00       		.sleb128 0
 8300 2ad4 1A       		.uleb128 0x1a
 8301 2ad5 01       		.uleb128 0x1
 8302 2ad6 51       		.byte	0x51
 8303 2ad7 03       		.uleb128 0x3
 8304 2ad8 91       		.byte	0x91
 8305 2ad9 A07E     		.sleb128 -224
 8306 2adb 1A       		.uleb128 0x1a
 8307 2adc 01       		.uleb128 0x1
 8308 2add 50       		.byte	0x50
 8309 2ade 03       		.uleb128 0x3
 8310 2adf 91       		.byte	0x91
ARM GAS  C:\Users\AHMED~1.ELE\AppData\Local\Temp\ccfMkwD6.s 			page 159


 8311 2ae0 BD7E     		.sleb128 -195
 8312 2ae2 00       		.byte	0
 8313 2ae3 1F       		.uleb128 0x1f
 8314 2ae4 42000000 		.4byte	.LVL148
 8315 2ae8 C13B0000 		.4byte	0x3bc1
 8316 2aec 032B0000 		.4byte	0x2b03
 8317 2af0 1A       		.uleb128 0x1a
 8318 2af1 01       		.uleb128 0x1
 8319 2af2 52       		.byte	0x52
 8320 2af3 01       		.uleb128 0x1
 8321 2af4 32       		.byte	0x32
 8322 2af5 1A       		.uleb128 0x1a
 8323 2af6 01       		.uleb128 0x1
 8324 2af7 50       		.byte	0x50
 8325 2af8 02       		.uleb128 0x2
 8326 2af9 08       		.byte	0x8
 8327 2afa 7F       		.byte	0x7f
 8328 2afb 1A       		.uleb128 0x1a
 8329 2afc 02       		.uleb128 0x2
 8330 2afd 7D       		.byte	0x7d
 8331 2afe 00       		.sleb128 0
 8332 2aff 02       		.uleb128 0x2
 8333 2b00 74       		.byte	0x74
 8334 2b01 00       		.sleb128 0
 8335 2b02 00       		.byte	0
 8336 2b03 1F       		.uleb128 0x1f
 8337 2b04 50000000 		.4byte	.LVL150
 8338 2b08 3D3C0000 		.4byte	0x3c3d
 8339 2b0c 272B0000 		.4byte	0x2b27
 8340 2b10 1A       		.uleb128 0x1a
 8341 2b11 01       		.uleb128 0x1
 8342 2b12 52       		.byte	0x52
 8343 2b13 02       		.uleb128 0x2
 8344 2b14 74       		.byte	0x74
 8345 2b15 00       		.sleb128 0
 8346 2b16 1A       		.uleb128 0x1a
 8347 2b17 01       		.uleb128 0x1
 8348 2b18 51       		.byte	0x51
 8349 2b19 05       		.uleb128 0x5
 8350 2b1a 03       		.byte	0x3
 8351 2b1b 3D010000 		.4byte	.LC22
 8352 2b1f 1A       		.uleb128 0x1a
 8353 2b20 01       		.uleb128 0x1
 8354 2b21 50       		.byte	0x50
 8355 2b22 03       		.uleb128 0x3
 8356 2b23 91       		.byte	0x91
 8357 2b24 F07E     		.sleb128 -144
 8358 2b26 00       		.byte	0
 8359 2b27 1F       		.uleb128 0x1f
 8360 2b28 C8000000 		.4byte	.LVL163
 8361 2b2c 5F3C0000 		.4byte	0x3c5f
 8362 2b30 432B0000 		.4byte	0x2b43
 8363 2b34 1A       		.uleb128 0x1a
 8364 2b35 01       		.uleb128 0x1
 8365 2b36 51       		.byte	0x51
 8366 2b37 03       		.uleb128 0x3
 8367 2b38 91       		.byte	0x91
ARM GAS  C:\Users\AHMED~1.ELE\AppData\Local\Temp\ccfMkwD6.s 			page 160


 8368 2b39 BD7E     		.sleb128 -195
 8369 2b3b 1A       		.uleb128 0x1a
 8370 2b3c 01       		.uleb128 0x1
 8371 2b3d 50       		.byte	0x50
 8372 2b3e 03       		.uleb128 0x3
 8373 2b3f 91       		.byte	0x91
 8374 2b40 F07E     		.sleb128 -144
 8375 2b42 00       		.byte	0
 8376 2b43 1F       		.uleb128 0x1f
 8377 2b44 D8000000 		.4byte	.LVL164
 8378 2b48 C13B0000 		.4byte	0x3bc1
 8379 2b4c 6E2B0000 		.4byte	0x2b6e
 8380 2b50 1A       		.uleb128 0x1a
 8381 2b51 01       		.uleb128 0x1
 8382 2b52 53       		.byte	0x53
 8383 2b53 01       		.uleb128 0x1
 8384 2b54 30       		.byte	0x30
 8385 2b55 1A       		.uleb128 0x1a
 8386 2b56 01       		.uleb128 0x1
 8387 2b57 52       		.byte	0x52
 8388 2b58 03       		.uleb128 0x3
 8389 2b59 0A       		.byte	0xa
 8390 2b5a 0006     		.2byte	0x600
 8391 2b5c 1A       		.uleb128 0x1a
 8392 2b5d 01       		.uleb128 0x1
 8393 2b5e 51       		.byte	0x51
 8394 2b5f 02       		.uleb128 0x2
 8395 2b60 08       		.byte	0x8
 8396 2b61 24       		.byte	0x24
 8397 2b62 1A       		.uleb128 0x1a
 8398 2b63 01       		.uleb128 0x1
 8399 2b64 50       		.byte	0x50
 8400 2b65 01       		.uleb128 0x1
 8401 2b66 3F       		.byte	0x3f
 8402 2b67 1A       		.uleb128 0x1a
 8403 2b68 02       		.uleb128 0x2
 8404 2b69 7D       		.byte	0x7d
 8405 2b6a 00       		.sleb128 0
 8406 2b6b 01       		.uleb128 0x1
 8407 2b6c 30       		.byte	0x30
 8408 2b6d 00       		.byte	0
 8409 2b6e 1F       		.uleb128 0x1f
 8410 2b6f E6000000 		.4byte	.LVL165
 8411 2b73 7A3C0000 		.4byte	0x3c7a
 8412 2b77 882B0000 		.4byte	0x2b88
 8413 2b7b 1A       		.uleb128 0x1a
 8414 2b7c 01       		.uleb128 0x1
 8415 2b7d 51       		.byte	0x51
 8416 2b7e 03       		.uleb128 0x3
 8417 2b7f 91       		.byte	0x91
 8418 2b80 F07E     		.sleb128 -144
 8419 2b82 1A       		.uleb128 0x1a
 8420 2b83 01       		.uleb128 0x1
 8421 2b84 50       		.byte	0x50
 8422 2b85 01       		.uleb128 0x1
 8423 2b86 48       		.byte	0x48
 8424 2b87 00       		.byte	0
ARM GAS  C:\Users\AHMED~1.ELE\AppData\Local\Temp\ccfMkwD6.s 			page 161


 8425 2b88 23       		.uleb128 0x23
 8426 2b89 EE000000 		.4byte	.LVL167
 8427 2b8d EA3B0000 		.4byte	0x3bea
 8428 2b91 19       		.uleb128 0x19
 8429 2b92 FE000000 		.4byte	.LVL168
 8430 2b96 C13B0000 		.4byte	0x3bc1
 8431 2b9a 1A       		.uleb128 0x1a
 8432 2b9b 01       		.uleb128 0x1
 8433 2b9c 53       		.byte	0x53
 8434 2b9d 01       		.uleb128 0x1
 8435 2b9e 30       		.byte	0x30
 8436 2b9f 1A       		.uleb128 0x1a
 8437 2ba0 01       		.uleb128 0x1
 8438 2ba1 52       		.byte	0x52
 8439 2ba2 03       		.uleb128 0x3
 8440 2ba3 0A       		.byte	0xa
 8441 2ba4 2823     		.2byte	0x2328
 8442 2ba6 1A       		.uleb128 0x1a
 8443 2ba7 01       		.uleb128 0x1
 8444 2ba8 51       		.byte	0x51
 8445 2ba9 01       		.uleb128 0x1
 8446 2baa 33       		.byte	0x33
 8447 2bab 1A       		.uleb128 0x1a
 8448 2bac 01       		.uleb128 0x1
 8449 2bad 50       		.byte	0x50
 8450 2bae 01       		.uleb128 0x1
 8451 2baf 40       		.byte	0x40
 8452 2bb0 1A       		.uleb128 0x1a
 8453 2bb1 02       		.uleb128 0x2
 8454 2bb2 7D       		.byte	0x7d
 8455 2bb3 00       		.sleb128 0
 8456 2bb4 01       		.uleb128 0x1
 8457 2bb5 30       		.byte	0x30
 8458 2bb6 00       		.byte	0
 8459 2bb7 00       		.byte	0
 8460 2bb8 07       		.uleb128 0x7
 8461 2bb9 6E120000 		.4byte	0x126e
 8462 2bbd 25       		.uleb128 0x25
 8463 2bbe 50220000 		.4byte	.LASF744
 8464 2bc2 01       		.byte	0x1
 8465 2bc3 2F01     		.2byte	0x12f
 8466 2bc5 00000000 		.4byte	.LFB6
 8467 2bc9 54010000 		.4byte	.LFE6-.LFB6
 8468 2bcd 01       		.uleb128 0x1
 8469 2bce 9C       		.byte	0x9c
 8470 2bcf 532F0000 		.4byte	0x2f53
 8471 2bd3 28       		.uleb128 0x28
 8472 2bd4 6B657900 		.ascii	"key\000"
 8473 2bd8 01       		.byte	0x1
 8474 2bd9 3101     		.2byte	0x131
 8475 2bdb A2000000 		.4byte	0xa2
 8476 2bdf 45040000 		.4byte	.LLST37
 8477 2be3 26       		.uleb128 0x26
 8478 2be4 D2190000 		.4byte	.LASF741
 8479 2be8 01       		.byte	0x1
 8480 2be9 3201     		.2byte	0x132
 8481 2beb 532F0000 		.4byte	0x2f53
ARM GAS  C:\Users\AHMED~1.ELE\AppData\Local\Temp\ccfMkwD6.s 			page 162


 8482 2bef 02       		.uleb128 0x2
 8483 2bf0 91       		.byte	0x91
 8484 2bf1 5C       		.sleb128 -36
 8485 2bf2 1C       		.uleb128 0x1c
 8486 2bf3 10000000 		.4byte	.LBB22
 8487 2bf7 34000000 		.4byte	.LBE22-.LBB22
 8488 2bfb 9C2C0000 		.4byte	0x2c9c
 8489 2bff 29       		.uleb128 0x29
 8490 2c00 6C656E00 		.ascii	"len\000"
 8491 2c04 01       		.byte	0x1
 8492 2c05 3501     		.2byte	0x135
 8493 2c07 B8000000 		.4byte	0xb8
 8494 2c0b 0D       		.byte	0xd
 8495 2c0c 28       		.uleb128 0x28
 8496 2c0d 70747200 		.ascii	"ptr\000"
 8497 2c11 01       		.byte	0x1
 8498 2c12 3501     		.2byte	0x135
 8499 2c14 DE000000 		.4byte	0xde
 8500 2c18 63040000 		.4byte	.LLST38
 8501 2c1c 1F       		.uleb128 0x1f
 8502 2c1d 18000000 		.4byte	.LVL170
 8503 2c21 EA3B0000 		.4byte	0x3bea
 8504 2c25 352C0000 		.4byte	0x2c35
 8505 2c29 1A       		.uleb128 0x1a
 8506 2c2a 01       		.uleb128 0x1
 8507 2c2b 51       		.byte	0x51
 8508 2c2c 01       		.uleb128 0x1
 8509 2c2d 3E       		.byte	0x3e
 8510 2c2e 1A       		.uleb128 0x1a
 8511 2c2f 01       		.uleb128 0x1
 8512 2c30 50       		.byte	0x50
 8513 2c31 02       		.uleb128 0x2
 8514 2c32 08       		.byte	0x8
 8515 2c33 92       		.byte	0x92
 8516 2c34 00       		.byte	0
 8517 2c35 1F       		.uleb128 0x1f
 8518 2c36 24000000 		.4byte	.LVL171
 8519 2c3a 043C0000 		.4byte	0x3c04
 8520 2c3e 572C0000 		.4byte	0x2c57
 8521 2c42 1A       		.uleb128 0x1a
 8522 2c43 01       		.uleb128 0x1
 8523 2c44 52       		.byte	0x52
 8524 2c45 01       		.uleb128 0x1
 8525 2c46 3D       		.byte	0x3d
 8526 2c47 1A       		.uleb128 0x1a
 8527 2c48 01       		.uleb128 0x1
 8528 2c49 51       		.byte	0x51
 8529 2c4a 05       		.uleb128 0x5
 8530 2c4b 03       		.byte	0x3
 8531 2c4c 54010000 		.4byte	.LC24
 8532 2c50 1A       		.uleb128 0x1a
 8533 2c51 01       		.uleb128 0x1
 8534 2c52 50       		.byte	0x50
 8535 2c53 02       		.uleb128 0x2
 8536 2c54 75       		.byte	0x75
 8537 2c55 00       		.sleb128 0
 8538 2c56 00       		.byte	0
ARM GAS  C:\Users\AHMED~1.ELE\AppData\Local\Temp\ccfMkwD6.s 			page 163


 8539 2c57 1F       		.uleb128 0x1f
 8540 2c58 3C000000 		.4byte	.LVL172
 8541 2c5c C13B0000 		.4byte	0x3bc1
 8542 2c60 852C0000 		.4byte	0x2c85
 8543 2c64 1A       		.uleb128 0x1a
 8544 2c65 01       		.uleb128 0x1
 8545 2c66 53       		.byte	0x53
 8546 2c67 03       		.uleb128 0x3
 8547 2c68 0A       		.byte	0xa
 8548 2c69 0001     		.2byte	0x100
 8549 2c6b 1A       		.uleb128 0x1a
 8550 2c6c 01       		.uleb128 0x1
 8551 2c6d 52       		.byte	0x52
 8552 2c6e 02       		.uleb128 0x2
 8553 2c6f 75       		.byte	0x75
 8554 2c70 00       		.sleb128 0
 8555 2c71 1A       		.uleb128 0x1a
 8556 2c72 01       		.uleb128 0x1
 8557 2c73 51       		.byte	0x51
 8558 2c74 02       		.uleb128 0x2
 8559 2c75 08       		.byte	0x8
 8560 2c76 25       		.byte	0x25
 8561 2c77 1A       		.uleb128 0x1a
 8562 2c78 01       		.uleb128 0x1
 8563 2c79 50       		.byte	0x50
 8564 2c7a 01       		.uleb128 0x1
 8565 2c7b 3F       		.byte	0x3f
 8566 2c7c 1A       		.uleb128 0x1a
 8567 2c7d 02       		.uleb128 0x2
 8568 2c7e 7D       		.byte	0x7d
 8569 2c7f 00       		.sleb128 0
 8570 2c80 03       		.uleb128 0x3
 8571 2c81 0A       		.byte	0xa
 8572 2c82 8010     		.2byte	0x1080
 8573 2c84 00       		.byte	0
 8574 2c85 19       		.uleb128 0x19
 8575 2c86 44000000 		.4byte	.LVL173
 8576 2c8a EA3B0000 		.4byte	0x3bea
 8577 2c8e 1A       		.uleb128 0x1a
 8578 2c8f 01       		.uleb128 0x1
 8579 2c90 51       		.byte	0x51
 8580 2c91 02       		.uleb128 0x2
 8581 2c92 75       		.byte	0x75
 8582 2c93 00       		.sleb128 0
 8583 2c94 1A       		.uleb128 0x1a
 8584 2c95 01       		.uleb128 0x1
 8585 2c96 50       		.byte	0x50
 8586 2c97 02       		.uleb128 0x2
 8587 2c98 08       		.byte	0x8
 8588 2c99 94       		.byte	0x94
 8589 2c9a 00       		.byte	0
 8590 2c9b 00       		.byte	0
 8591 2c9c 1C       		.uleb128 0x1c
 8592 2c9d 44000000 		.4byte	.LBB23
 8593 2ca1 34000000 		.4byte	.LBE23-.LBB23
 8594 2ca5 462D0000 		.4byte	0x2d46
 8595 2ca9 29       		.uleb128 0x29
ARM GAS  C:\Users\AHMED~1.ELE\AppData\Local\Temp\ccfMkwD6.s 			page 164


 8596 2caa 6C656E00 		.ascii	"len\000"
 8597 2cae 01       		.byte	0x1
 8598 2caf 3601     		.2byte	0x136
 8599 2cb1 B8000000 		.4byte	0xb8
 8600 2cb5 0D       		.byte	0xd
 8601 2cb6 28       		.uleb128 0x28
 8602 2cb7 70747200 		.ascii	"ptr\000"
 8603 2cbb 01       		.byte	0x1
 8604 2cbc 3601     		.2byte	0x136
 8605 2cbe DE000000 		.4byte	0xde
 8606 2cc2 81040000 		.4byte	.LLST39
 8607 2cc6 1F       		.uleb128 0x1f
 8608 2cc7 4C000000 		.4byte	.LVL174
 8609 2ccb EA3B0000 		.4byte	0x3bea
 8610 2ccf DF2C0000 		.4byte	0x2cdf
 8611 2cd3 1A       		.uleb128 0x1a
 8612 2cd4 01       		.uleb128 0x1
 8613 2cd5 51       		.byte	0x51
 8614 2cd6 01       		.uleb128 0x1
 8615 2cd7 3E       		.byte	0x3e
 8616 2cd8 1A       		.uleb128 0x1a
 8617 2cd9 01       		.uleb128 0x1
 8618 2cda 50       		.byte	0x50
 8619 2cdb 02       		.uleb128 0x2
 8620 2cdc 08       		.byte	0x8
 8621 2cdd 92       		.byte	0x92
 8622 2cde 00       		.byte	0
 8623 2cdf 1F       		.uleb128 0x1f
 8624 2ce0 58000000 		.4byte	.LVL176
 8625 2ce4 043C0000 		.4byte	0x3c04
 8626 2ce8 012D0000 		.4byte	0x2d01
 8627 2cec 1A       		.uleb128 0x1a
 8628 2ced 01       		.uleb128 0x1
 8629 2cee 52       		.byte	0x52
 8630 2cef 01       		.uleb128 0x1
 8631 2cf0 3D       		.byte	0x3d
 8632 2cf1 1A       		.uleb128 0x1a
 8633 2cf2 01       		.uleb128 0x1
 8634 2cf3 51       		.byte	0x51
 8635 2cf4 05       		.uleb128 0x5
 8636 2cf5 03       		.byte	0x3
 8637 2cf6 62010000 		.4byte	.LC25
 8638 2cfa 1A       		.uleb128 0x1a
 8639 2cfb 01       		.uleb128 0x1
 8640 2cfc 50       		.byte	0x50
 8641 2cfd 02       		.uleb128 0x2
 8642 2cfe 75       		.byte	0x75
 8643 2cff 00       		.sleb128 0
 8644 2d00 00       		.byte	0
 8645 2d01 1F       		.uleb128 0x1f
 8646 2d02 70000000 		.4byte	.LVL177
 8647 2d06 C13B0000 		.4byte	0x3bc1
 8648 2d0a 2F2D0000 		.4byte	0x2d2f
 8649 2d0e 1A       		.uleb128 0x1a
 8650 2d0f 01       		.uleb128 0x1
 8651 2d10 53       		.byte	0x53
 8652 2d11 03       		.uleb128 0x3
ARM GAS  C:\Users\AHMED~1.ELE\AppData\Local\Temp\ccfMkwD6.s 			page 165


 8653 2d12 0A       		.byte	0xa
 8654 2d13 0003     		.2byte	0x300
 8655 2d15 1A       		.uleb128 0x1a
 8656 2d16 01       		.uleb128 0x1
 8657 2d17 52       		.byte	0x52
 8658 2d18 02       		.uleb128 0x2
 8659 2d19 75       		.byte	0x75
 8660 2d1a 00       		.sleb128 0
 8661 2d1b 1A       		.uleb128 0x1a
 8662 2d1c 01       		.uleb128 0x1
 8663 2d1d 51       		.byte	0x51
 8664 2d1e 02       		.uleb128 0x2
 8665 2d1f 08       		.byte	0x8
 8666 2d20 25       		.byte	0x25
 8667 2d21 1A       		.uleb128 0x1a
 8668 2d22 01       		.uleb128 0x1
 8669 2d23 50       		.byte	0x50
 8670 2d24 01       		.uleb128 0x1
 8671 2d25 3F       		.byte	0x3f
 8672 2d26 1A       		.uleb128 0x1a
 8673 2d27 02       		.uleb128 0x2
 8674 2d28 7D       		.byte	0x7d
 8675 2d29 00       		.sleb128 0
 8676 2d2a 03       		.uleb128 0x3
 8677 2d2b 0A       		.byte	0xa
 8678 2d2c 0010     		.2byte	0x1000
 8679 2d2e 00       		.byte	0
 8680 2d2f 19       		.uleb128 0x19
 8681 2d30 78000000 		.4byte	.LVL178
 8682 2d34 EA3B0000 		.4byte	0x3bea
 8683 2d38 1A       		.uleb128 0x1a
 8684 2d39 01       		.uleb128 0x1
 8685 2d3a 51       		.byte	0x51
 8686 2d3b 02       		.uleb128 0x2
 8687 2d3c 75       		.byte	0x75
 8688 2d3d 00       		.sleb128 0
 8689 2d3e 1A       		.uleb128 0x1a
 8690 2d3f 01       		.uleb128 0x1
 8691 2d40 50       		.byte	0x50
 8692 2d41 02       		.uleb128 0x2
 8693 2d42 08       		.byte	0x8
 8694 2d43 94       		.byte	0x94
 8695 2d44 00       		.byte	0
 8696 2d45 00       		.byte	0
 8697 2d46 1C       		.uleb128 0x1c
 8698 2d47 78000000 		.4byte	.LBB24
 8699 2d4b 34000000 		.4byte	.LBE24-.LBB24
 8700 2d4f F02D0000 		.4byte	0x2df0
 8701 2d53 29       		.uleb128 0x29
 8702 2d54 6C656E00 		.ascii	"len\000"
 8703 2d58 01       		.byte	0x1
 8704 2d59 3701     		.2byte	0x137
 8705 2d5b B8000000 		.4byte	0xb8
 8706 2d5f 0D       		.byte	0xd
 8707 2d60 28       		.uleb128 0x28
 8708 2d61 70747200 		.ascii	"ptr\000"
 8709 2d65 01       		.byte	0x1
ARM GAS  C:\Users\AHMED~1.ELE\AppData\Local\Temp\ccfMkwD6.s 			page 166


 8710 2d66 3701     		.2byte	0x137
 8711 2d68 DE000000 		.4byte	0xde
 8712 2d6c 9F040000 		.4byte	.LLST40
 8713 2d70 1F       		.uleb128 0x1f
 8714 2d71 80000000 		.4byte	.LVL179
 8715 2d75 EA3B0000 		.4byte	0x3bea
 8716 2d79 892D0000 		.4byte	0x2d89
 8717 2d7d 1A       		.uleb128 0x1a
 8718 2d7e 01       		.uleb128 0x1
 8719 2d7f 51       		.byte	0x51
 8720 2d80 01       		.uleb128 0x1
 8721 2d81 3E       		.byte	0x3e
 8722 2d82 1A       		.uleb128 0x1a
 8723 2d83 01       		.uleb128 0x1
 8724 2d84 50       		.byte	0x50
 8725 2d85 02       		.uleb128 0x2
 8726 2d86 08       		.byte	0x8
 8727 2d87 92       		.byte	0x92
 8728 2d88 00       		.byte	0
 8729 2d89 1F       		.uleb128 0x1f
 8730 2d8a 8C000000 		.4byte	.LVL181
 8731 2d8e 043C0000 		.4byte	0x3c04
 8732 2d92 AB2D0000 		.4byte	0x2dab
 8733 2d96 1A       		.uleb128 0x1a
 8734 2d97 01       		.uleb128 0x1
 8735 2d98 52       		.byte	0x52
 8736 2d99 01       		.uleb128 0x1
 8737 2d9a 3D       		.byte	0x3d
 8738 2d9b 1A       		.uleb128 0x1a
 8739 2d9c 01       		.uleb128 0x1
 8740 2d9d 51       		.byte	0x51
 8741 2d9e 05       		.uleb128 0x5
 8742 2d9f 03       		.byte	0x3
 8743 2da0 70010000 		.4byte	.LC26
 8744 2da4 1A       		.uleb128 0x1a
 8745 2da5 01       		.uleb128 0x1
 8746 2da6 50       		.byte	0x50
 8747 2da7 02       		.uleb128 0x2
 8748 2da8 75       		.byte	0x75
 8749 2da9 00       		.sleb128 0
 8750 2daa 00       		.byte	0
 8751 2dab 1F       		.uleb128 0x1f
 8752 2dac A4000000 		.4byte	.LVL182
 8753 2db0 C13B0000 		.4byte	0x3bc1
 8754 2db4 D92D0000 		.4byte	0x2dd9
 8755 2db8 1A       		.uleb128 0x1a
 8756 2db9 01       		.uleb128 0x1
 8757 2dba 53       		.byte	0x53
 8758 2dbb 03       		.uleb128 0x3
 8759 2dbc 0A       		.byte	0xa
 8760 2dbd 0005     		.2byte	0x500
 8761 2dbf 1A       		.uleb128 0x1a
 8762 2dc0 01       		.uleb128 0x1
 8763 2dc1 52       		.byte	0x52
 8764 2dc2 02       		.uleb128 0x2
 8765 2dc3 75       		.byte	0x75
 8766 2dc4 00       		.sleb128 0
ARM GAS  C:\Users\AHMED~1.ELE\AppData\Local\Temp\ccfMkwD6.s 			page 167


 8767 2dc5 1A       		.uleb128 0x1a
 8768 2dc6 01       		.uleb128 0x1
 8769 2dc7 51       		.byte	0x51
 8770 2dc8 02       		.uleb128 0x2
 8771 2dc9 08       		.byte	0x8
 8772 2dca 25       		.byte	0x25
 8773 2dcb 1A       		.uleb128 0x1a
 8774 2dcc 01       		.uleb128 0x1
 8775 2dcd 50       		.byte	0x50
 8776 2dce 01       		.uleb128 0x1
 8777 2dcf 3F       		.byte	0x3f
 8778 2dd0 1A       		.uleb128 0x1a
 8779 2dd1 02       		.uleb128 0x2
 8780 2dd2 7D       		.byte	0x7d
 8781 2dd3 00       		.sleb128 0
 8782 2dd4 03       		.uleb128 0x3
 8783 2dd5 0A       		.byte	0xa
 8784 2dd6 0010     		.2byte	0x1000
 8785 2dd8 00       		.byte	0
 8786 2dd9 19       		.uleb128 0x19
 8787 2dda AC000000 		.4byte	.LVL183
 8788 2dde EA3B0000 		.4byte	0x3bea
 8789 2de2 1A       		.uleb128 0x1a
 8790 2de3 01       		.uleb128 0x1
 8791 2de4 51       		.byte	0x51
 8792 2de5 02       		.uleb128 0x2
 8793 2de6 75       		.byte	0x75
 8794 2de7 00       		.sleb128 0
 8795 2de8 1A       		.uleb128 0x1a
 8796 2de9 01       		.uleb128 0x1
 8797 2dea 50       		.byte	0x50
 8798 2deb 02       		.uleb128 0x2
 8799 2dec 08       		.byte	0x8
 8800 2ded 94       		.byte	0x94
 8801 2dee 00       		.byte	0
 8802 2def 00       		.byte	0
 8803 2df0 1C       		.uleb128 0x1c
 8804 2df1 D4000000 		.4byte	.LBB25
 8805 2df5 32000000 		.4byte	.LBE25-.LBB25
 8806 2df9 9D2E0000 		.4byte	0x2e9d
 8807 2dfd 28       		.uleb128 0x28
 8808 2dfe 6C656E00 		.ascii	"len\000"
 8809 2e02 01       		.byte	0x1
 8810 2e03 3E01     		.2byte	0x13e
 8811 2e05 B8000000 		.4byte	0xb8
 8812 2e09 BD040000 		.4byte	.LLST41
 8813 2e0d 28       		.uleb128 0x28
 8814 2e0e 70747200 		.ascii	"ptr\000"
 8815 2e12 01       		.byte	0x1
 8816 2e13 3E01     		.2byte	0x13e
 8817 2e15 DE000000 		.4byte	0xde
 8818 2e19 D1040000 		.4byte	.LLST42
 8819 2e1d 1F       		.uleb128 0x1f
 8820 2e1e DC000000 		.4byte	.LVL189
 8821 2e22 EA3B0000 		.4byte	0x3bea
 8822 2e26 362E0000 		.4byte	0x2e36
 8823 2e2a 1A       		.uleb128 0x1a
ARM GAS  C:\Users\AHMED~1.ELE\AppData\Local\Temp\ccfMkwD6.s 			page 168


 8824 2e2b 01       		.uleb128 0x1
 8825 2e2c 51       		.byte	0x51
 8826 2e2d 01       		.uleb128 0x1
 8827 2e2e 3D       		.byte	0x3d
 8828 2e2f 1A       		.uleb128 0x1a
 8829 2e30 01       		.uleb128 0x1
 8830 2e31 50       		.byte	0x50
 8831 2e32 02       		.uleb128 0x2
 8832 2e33 08       		.byte	0x8
 8833 2e34 92       		.byte	0x92
 8834 2e35 00       		.byte	0
 8835 2e36 1F       		.uleb128 0x1f
 8836 2e37 E8000000 		.4byte	.LVL190
 8837 2e3b 043C0000 		.4byte	0x3c04
 8838 2e3f 582E0000 		.4byte	0x2e58
 8839 2e43 1A       		.uleb128 0x1a
 8840 2e44 01       		.uleb128 0x1
 8841 2e45 52       		.byte	0x52
 8842 2e46 01       		.uleb128 0x1
 8843 2e47 3C       		.byte	0x3c
 8844 2e48 1A       		.uleb128 0x1a
 8845 2e49 01       		.uleb128 0x1
 8846 2e4a 51       		.byte	0x51
 8847 2e4b 05       		.uleb128 0x5
 8848 2e4c 03       		.byte	0x3
 8849 2e4d 7E010000 		.4byte	.LC27
 8850 2e51 1A       		.uleb128 0x1a
 8851 2e52 01       		.uleb128 0x1
 8852 2e53 50       		.byte	0x50
 8853 2e54 02       		.uleb128 0x2
 8854 2e55 76       		.byte	0x76
 8855 2e56 00       		.sleb128 0
 8856 2e57 00       		.byte	0
 8857 2e58 1F       		.uleb128 0x1f
 8858 2e59 FE000000 		.4byte	.LVL191
 8859 2e5d C13B0000 		.4byte	0x3bc1
 8860 2e61 862E0000 		.4byte	0x2e86
 8861 2e65 1A       		.uleb128 0x1a
 8862 2e66 01       		.uleb128 0x1
 8863 2e67 53       		.byte	0x53
 8864 2e68 03       		.uleb128 0x3
 8865 2e69 0A       		.byte	0xa
 8866 2e6a 0001     		.2byte	0x100
 8867 2e6c 1A       		.uleb128 0x1a
 8868 2e6d 01       		.uleb128 0x1
 8869 2e6e 52       		.byte	0x52
 8870 2e6f 02       		.uleb128 0x2
 8871 2e70 76       		.byte	0x76
 8872 2e71 00       		.sleb128 0
 8873 2e72 1A       		.uleb128 0x1a
 8874 2e73 01       		.uleb128 0x1
 8875 2e74 51       		.byte	0x51
 8876 2e75 02       		.uleb128 0x2
 8877 2e76 08       		.byte	0x8
 8878 2e77 25       		.byte	0x25
 8879 2e78 1A       		.uleb128 0x1a
 8880 2e79 01       		.uleb128 0x1
ARM GAS  C:\Users\AHMED~1.ELE\AppData\Local\Temp\ccfMkwD6.s 			page 169


 8881 2e7a 50       		.byte	0x50
 8882 2e7b 01       		.uleb128 0x1
 8883 2e7c 3F       		.byte	0x3f
 8884 2e7d 1A       		.uleb128 0x1a
 8885 2e7e 02       		.uleb128 0x2
 8886 2e7f 7D       		.byte	0x7d
 8887 2e80 00       		.sleb128 0
 8888 2e81 03       		.uleb128 0x3
 8889 2e82 0A       		.byte	0xa
 8890 2e83 8010     		.2byte	0x1080
 8891 2e85 00       		.byte	0
 8892 2e86 19       		.uleb128 0x19
 8893 2e87 06010000 		.4byte	.LVL192
 8894 2e8b EA3B0000 		.4byte	0x3bea
 8895 2e8f 1A       		.uleb128 0x1a
 8896 2e90 01       		.uleb128 0x1
 8897 2e91 51       		.byte	0x51
 8898 2e92 02       		.uleb128 0x2
 8899 2e93 76       		.byte	0x76
 8900 2e94 00       		.sleb128 0
 8901 2e95 1A       		.uleb128 0x1a
 8902 2e96 01       		.uleb128 0x1
 8903 2e97 50       		.byte	0x50
 8904 2e98 02       		.uleb128 0x2
 8905 2e99 08       		.byte	0x8
 8906 2e9a 94       		.byte	0x94
 8907 2e9b 00       		.byte	0
 8908 2e9c 00       		.byte	0
 8909 2e9d 1F       		.uleb128 0x1f
 8910 2e9e 10000000 		.4byte	.LVL169
 8911 2ea2 993C0000 		.4byte	0x3c99
 8912 2ea6 BB2E0000 		.4byte	0x2ebb
 8913 2eaa 1A       		.uleb128 0x1a
 8914 2eab 01       		.uleb128 0x1
 8915 2eac 52       		.byte	0x52
 8916 2ead 01       		.uleb128 0x1
 8917 2eae 42       		.byte	0x42
 8918 2eaf 1A       		.uleb128 0x1a
 8919 2eb0 01       		.uleb128 0x1
 8920 2eb1 51       		.byte	0x51
 8921 2eb2 01       		.uleb128 0x1
 8922 2eb3 30       		.byte	0x30
 8923 2eb4 1A       		.uleb128 0x1a
 8924 2eb5 01       		.uleb128 0x1
 8925 2eb6 50       		.byte	0x50
 8926 2eb7 02       		.uleb128 0x2
 8927 2eb8 74       		.byte	0x74
 8928 2eb9 00       		.sleb128 0
 8929 2eba 00       		.byte	0
 8930 2ebb 1F       		.uleb128 0x1f
 8931 2ebc BE000000 		.4byte	.LVL185
 8932 2ec0 C13B0000 		.4byte	0x3bc1
 8933 2ec4 E72E0000 		.4byte	0x2ee7
 8934 2ec8 1A       		.uleb128 0x1a
 8935 2ec9 01       		.uleb128 0x1
 8936 2eca 53       		.byte	0x53
 8937 2ecb 02       		.uleb128 0x2
ARM GAS  C:\Users\AHMED~1.ELE\AppData\Local\Temp\ccfMkwD6.s 			page 170


 8938 2ecc 75       		.byte	0x75
 8939 2ecd 00       		.sleb128 0
 8940 2ece 1A       		.uleb128 0x1a
 8941 2ecf 01       		.uleb128 0x1
 8942 2ed0 52       		.byte	0x52
 8943 2ed1 03       		.uleb128 0x3
 8944 2ed2 0A       		.byte	0xa
 8945 2ed3 2823     		.2byte	0x2328
 8946 2ed5 1A       		.uleb128 0x1a
 8947 2ed6 01       		.uleb128 0x1
 8948 2ed7 51       		.byte	0x51
 8949 2ed8 01       		.uleb128 0x1
 8950 2ed9 33       		.byte	0x33
 8951 2eda 1A       		.uleb128 0x1a
 8952 2edb 01       		.uleb128 0x1
 8953 2edc 50       		.byte	0x50
 8954 2edd 01       		.uleb128 0x1
 8955 2ede 40       		.byte	0x40
 8956 2edf 1A       		.uleb128 0x1a
 8957 2ee0 02       		.uleb128 0x2
 8958 2ee1 7D       		.byte	0x7d
 8959 2ee2 00       		.sleb128 0
 8960 2ee3 02       		.uleb128 0x2
 8961 2ee4 75       		.byte	0x75
 8962 2ee5 00       		.sleb128 0
 8963 2ee6 00       		.byte	0
 8964 2ee7 1F       		.uleb128 0x1f
 8965 2ee8 16010000 		.4byte	.LVL193
 8966 2eec C13B0000 		.4byte	0x3bc1
 8967 2ef0 162F0000 		.4byte	0x2f16
 8968 2ef4 1A       		.uleb128 0x1a
 8969 2ef5 01       		.uleb128 0x1
 8970 2ef6 53       		.byte	0x53
 8971 2ef7 03       		.uleb128 0x3
 8972 2ef8 0A       		.byte	0xa
 8973 2ef9 1010     		.2byte	0x1010
 8974 2efb 1A       		.uleb128 0x1a
 8975 2efc 01       		.uleb128 0x1
 8976 2efd 52       		.byte	0x52
 8977 2efe 05       		.uleb128 0x5
 8978 2eff 0C       		.byte	0xc
 8979 2f00 FF032400 		.4byte	0x2403ff
 8980 2f04 1A       		.uleb128 0x1a
 8981 2f05 01       		.uleb128 0x1
 8982 2f06 51       		.byte	0x51
 8983 2f07 01       		.uleb128 0x1
 8984 2f08 35       		.byte	0x35
 8985 2f09 1A       		.uleb128 0x1a
 8986 2f0a 01       		.uleb128 0x1
 8987 2f0b 50       		.byte	0x50
 8988 2f0c 01       		.uleb128 0x1
 8989 2f0d 40       		.byte	0x40
 8990 2f0e 1A       		.uleb128 0x1a
 8991 2f0f 02       		.uleb128 0x2
 8992 2f10 7D       		.byte	0x7d
 8993 2f11 00       		.sleb128 0
 8994 2f12 02       		.uleb128 0x2
ARM GAS  C:\Users\AHMED~1.ELE\AppData\Local\Temp\ccfMkwD6.s 			page 171


 8995 2f13 74       		.byte	0x74
 8996 2f14 00       		.sleb128 0
 8997 2f15 00       		.byte	0
 8998 2f16 1F       		.uleb128 0x1f
 8999 2f17 28010000 		.4byte	.LVL194
 9000 2f1b B63C0000 		.4byte	0x3cb6
 9001 2f1f 352F0000 		.4byte	0x2f35
 9002 2f23 1A       		.uleb128 0x1a
 9003 2f24 01       		.uleb128 0x1
 9004 2f25 52       		.byte	0x52
 9005 2f26 01       		.uleb128 0x1
 9006 2f27 38       		.byte	0x38
 9007 2f28 1A       		.uleb128 0x1a
 9008 2f29 01       		.uleb128 0x1
 9009 2f2a 51       		.byte	0x51
 9010 2f2b 02       		.uleb128 0x2
 9011 2f2c 74       		.byte	0x74
 9012 2f2d 00       		.sleb128 0
 9013 2f2e 1A       		.uleb128 0x1a
 9014 2f2f 01       		.uleb128 0x1
 9015 2f30 50       		.byte	0x50
 9016 2f31 02       		.uleb128 0x2
 9017 2f32 74       		.byte	0x74
 9018 2f33 00       		.sleb128 0
 9019 2f34 00       		.byte	0
 9020 2f35 1F       		.uleb128 0x1f
 9021 2f36 38010000 		.4byte	.LVL196
 9022 2f3a C13B0000 		.4byte	0x3bc1
 9023 2f3e 492F0000 		.4byte	0x2f49
 9024 2f42 1A       		.uleb128 0x1a
 9025 2f43 01       		.uleb128 0x1
 9026 2f44 53       		.byte	0x53
 9027 2f45 02       		.uleb128 0x2
 9028 2f46 74       		.byte	0x74
 9029 2f47 00       		.sleb128 0
 9030 2f48 00       		.byte	0
 9031 2f49 23       		.uleb128 0x23
 9032 2f4a 3C010000 		.4byte	.LVL197
 9033 2f4e 213C0000 		.4byte	0x3c21
 9034 2f52 00       		.byte	0
 9035 2f53 08       		.uleb128 0x8
 9036 2f54 A2000000 		.4byte	0xa2
 9037 2f58 632F0000 		.4byte	0x2f63
 9038 2f5c 09       		.uleb128 0x9
 9039 2f5d 76000000 		.4byte	0x76
 9040 2f61 11       		.byte	0x11
 9041 2f62 00       		.byte	0
 9042 2f63 2A       		.uleb128 0x2a
 9043 2f64 28000000 		.4byte	.LASF745
 9044 2f68 01       		.byte	0x1
 9045 2f69 5301     		.2byte	0x153
 9046 2f6b 97000000 		.4byte	0x97
 9047 2f6f 00000000 		.4byte	.LFB7
 9048 2f73 B4000000 		.4byte	.LFE7-.LFB7
 9049 2f77 01       		.uleb128 0x1
 9050 2f78 9C       		.byte	0x9c
 9051 2f79 11310000 		.4byte	0x3111
ARM GAS  C:\Users\AHMED~1.ELE\AppData\Local\Temp\ccfMkwD6.s 			page 172


 9052 2f7d 26       		.uleb128 0x26
 9053 2f7e 9B1D0000 		.4byte	.LASF746
 9054 2f82 01       		.byte	0x1
 9055 2f83 5501     		.2byte	0x155
 9056 2f85 11310000 		.4byte	0x3111
 9057 2f89 02       		.uleb128 0x2
 9058 2f8a 91       		.byte	0x91
 9059 2f8b 54       		.sleb128 -44
 9060 2f8c 27       		.uleb128 0x27
 9061 2f8d 6D736700 		.ascii	"msg\000"
 9062 2f91 01       		.byte	0x1
 9063 2f92 5601     		.2byte	0x156
 9064 2f94 10020000 		.4byte	0x210
 9065 2f98 02       		.uleb128 0x2
 9066 2f99 91       		.byte	0x91
 9067 2f9a 60       		.sleb128 -32
 9068 2f9b 1C       		.uleb128 0x1c
 9069 2f9c 24000000 		.4byte	.LBB26
 9070 2fa0 32000000 		.4byte	.LBE26-.LBB26
 9071 2fa4 48300000 		.4byte	0x3048
 9072 2fa8 28       		.uleb128 0x28
 9073 2fa9 6C656E00 		.ascii	"len\000"
 9074 2fad 01       		.byte	0x1
 9075 2fae 5C01     		.2byte	0x15c
 9076 2fb0 B8000000 		.4byte	0xb8
 9077 2fb4 EF040000 		.4byte	.LLST43
 9078 2fb8 28       		.uleb128 0x28
 9079 2fb9 70747200 		.ascii	"ptr\000"
 9080 2fbd 01       		.byte	0x1
 9081 2fbe 5C01     		.2byte	0x15c
 9082 2fc0 DE000000 		.4byte	0xde
 9083 2fc4 03050000 		.4byte	.LLST44
 9084 2fc8 1F       		.uleb128 0x1f
 9085 2fc9 2C000000 		.4byte	.LVL202
 9086 2fcd EA3B0000 		.4byte	0x3bea
 9087 2fd1 E12F0000 		.4byte	0x2fe1
 9088 2fd5 1A       		.uleb128 0x1a
 9089 2fd6 01       		.uleb128 0x1
 9090 2fd7 51       		.byte	0x51
 9091 2fd8 01       		.uleb128 0x1
 9092 2fd9 3B       		.byte	0x3b
 9093 2fda 1A       		.uleb128 0x1a
 9094 2fdb 01       		.uleb128 0x1
 9095 2fdc 50       		.byte	0x50
 9096 2fdd 02       		.uleb128 0x2
 9097 2fde 08       		.byte	0x8
 9098 2fdf 92       		.byte	0x92
 9099 2fe0 00       		.byte	0
 9100 2fe1 1F       		.uleb128 0x1f
 9101 2fe2 38000000 		.4byte	.LVL203
 9102 2fe6 043C0000 		.4byte	0x3c04
 9103 2fea 03300000 		.4byte	0x3003
 9104 2fee 1A       		.uleb128 0x1a
 9105 2fef 01       		.uleb128 0x1
 9106 2ff0 52       		.byte	0x52
 9107 2ff1 01       		.uleb128 0x1
 9108 2ff2 3A       		.byte	0x3a
ARM GAS  C:\Users\AHMED~1.ELE\AppData\Local\Temp\ccfMkwD6.s 			page 173


 9109 2ff3 1A       		.uleb128 0x1a
 9110 2ff4 01       		.uleb128 0x1
 9111 2ff5 51       		.byte	0x51
 9112 2ff6 05       		.uleb128 0x5
 9113 2ff7 03       		.byte	0x3
 9114 2ff8 8B010000 		.4byte	.LC29
 9115 2ffc 1A       		.uleb128 0x1a
 9116 2ffd 01       		.uleb128 0x1
 9117 2ffe 50       		.byte	0x50
 9118 2fff 02       		.uleb128 0x2
 9119 3000 74       		.byte	0x74
 9120 3001 00       		.sleb128 0
 9121 3002 00       		.byte	0
 9122 3003 1F       		.uleb128 0x1f
 9123 3004 4E000000 		.4byte	.LVL204
 9124 3008 C13B0000 		.4byte	0x3bc1
 9125 300c 31300000 		.4byte	0x3031
 9126 3010 1A       		.uleb128 0x1a
 9127 3011 01       		.uleb128 0x1
 9128 3012 53       		.byte	0x53
 9129 3013 03       		.uleb128 0x3
 9130 3014 0A       		.byte	0xa
 9131 3015 0005     		.2byte	0x500
 9132 3017 1A       		.uleb128 0x1a
 9133 3018 01       		.uleb128 0x1
 9134 3019 52       		.byte	0x52
 9135 301a 02       		.uleb128 0x2
 9136 301b 74       		.byte	0x74
 9137 301c 00       		.sleb128 0
 9138 301d 1A       		.uleb128 0x1a
 9139 301e 01       		.uleb128 0x1
 9140 301f 51       		.byte	0x51
 9141 3020 02       		.uleb128 0x2
 9142 3021 08       		.byte	0x8
 9143 3022 25       		.byte	0x25
 9144 3023 1A       		.uleb128 0x1a
 9145 3024 01       		.uleb128 0x1
 9146 3025 50       		.byte	0x50
 9147 3026 01       		.uleb128 0x1
 9148 3027 3F       		.byte	0x3f
 9149 3028 1A       		.uleb128 0x1a
 9150 3029 02       		.uleb128 0x2
 9151 302a 7D       		.byte	0x7d
 9152 302b 00       		.sleb128 0
 9153 302c 03       		.uleb128 0x3
 9154 302d 0A       		.byte	0xa
 9155 302e 8210     		.2byte	0x1082
 9156 3030 00       		.byte	0
 9157 3031 19       		.uleb128 0x19
 9158 3032 56000000 		.4byte	.LVL205
 9159 3036 EA3B0000 		.4byte	0x3bea
 9160 303a 1A       		.uleb128 0x1a
 9161 303b 01       		.uleb128 0x1
 9162 303c 51       		.byte	0x51
 9163 303d 02       		.uleb128 0x2
 9164 303e 74       		.byte	0x74
 9165 303f 00       		.sleb128 0
ARM GAS  C:\Users\AHMED~1.ELE\AppData\Local\Temp\ccfMkwD6.s 			page 174


 9166 3040 1A       		.uleb128 0x1a
 9167 3041 01       		.uleb128 0x1
 9168 3042 50       		.byte	0x50
 9169 3043 02       		.uleb128 0x2
 9170 3044 08       		.byte	0x8
 9171 3045 94       		.byte	0x94
 9172 3046 00       		.byte	0
 9173 3047 00       		.byte	0
 9174 3048 1F       		.uleb128 0x1f
 9175 3049 10000000 		.4byte	.LVL198
 9176 304d 043C0000 		.4byte	0x3c04
 9177 3051 6A300000 		.4byte	0x306a
 9178 3055 1A       		.uleb128 0x1a
 9179 3056 01       		.uleb128 0x1
 9180 3057 52       		.byte	0x52
 9181 3058 01       		.uleb128 0x1
 9182 3059 3D       		.byte	0x3d
 9183 305a 1A       		.uleb128 0x1a
 9184 305b 01       		.uleb128 0x1
 9185 305c 51       		.byte	0x51
 9186 305d 05       		.uleb128 0x5
 9187 305e 03       		.byte	0x3
 9188 305f 96010000 		.4byte	.LC28
 9189 3063 1A       		.uleb128 0x1a
 9190 3064 01       		.uleb128 0x1
 9191 3065 50       		.byte	0x50
 9192 3066 02       		.uleb128 0x2
 9193 3067 91       		.byte	0x91
 9194 3068 60       		.sleb128 -32
 9195 3069 00       		.byte	0
 9196 306a 1F       		.uleb128 0x1f
 9197 306b 1A000000 		.4byte	.LVL199
 9198 306f D13C0000 		.4byte	0x3cd1
 9199 3073 89300000 		.4byte	0x3089
 9200 3077 1A       		.uleb128 0x1a
 9201 3078 01       		.uleb128 0x1
 9202 3079 52       		.byte	0x52
 9203 307a 01       		.uleb128 0x1
 9204 307b 38       		.byte	0x38
 9205 307c 1A       		.uleb128 0x1a
 9206 307d 01       		.uleb128 0x1
 9207 307e 51       		.byte	0x51
 9208 307f 02       		.uleb128 0x2
 9209 3080 08       		.byte	0x8
 9210 3081 20       		.byte	0x20
 9211 3082 1A       		.uleb128 0x1a
 9212 3083 01       		.uleb128 0x1
 9213 3084 50       		.byte	0x50
 9214 3085 02       		.uleb128 0x2
 9215 3086 76       		.byte	0x76
 9216 3087 00       		.sleb128 0
 9217 3088 00       		.byte	0
 9218 3089 1F       		.uleb128 0x1f
 9219 308a 20000000 		.4byte	.LVL200
 9220 308e 7D180000 		.4byte	0x187d
 9221 3092 9C300000 		.4byte	0x309c
 9222 3096 1A       		.uleb128 0x1a
ARM GAS  C:\Users\AHMED~1.ELE\AppData\Local\Temp\ccfMkwD6.s 			page 175


 9223 3097 01       		.uleb128 0x1
 9224 3098 50       		.byte	0x50
 9225 3099 01       		.uleb128 0x1
 9226 309a 31       		.byte	0x31
 9227 309b 00       		.byte	0
 9228 309c 23       		.uleb128 0x23
 9229 309d 5A000000 		.4byte	.LVL206
 9230 30a1 583C0000 		.4byte	0x3c58
 9231 30a5 1F       		.uleb128 0x1f
 9232 30a6 6A000000 		.4byte	.LVL207
 9233 30aa C13B0000 		.4byte	0x3bc1
 9234 30ae CF300000 		.4byte	0x30cf
 9235 30b2 1A       		.uleb128 0x1a
 9236 30b3 01       		.uleb128 0x1
 9237 30b4 53       		.byte	0x53
 9238 30b5 01       		.uleb128 0x1
 9239 30b6 30       		.byte	0x30
 9240 30b7 1A       		.uleb128 0x1a
 9241 30b8 01       		.uleb128 0x1
 9242 30b9 52       		.byte	0x52
 9243 30ba 03       		.uleb128 0x3
 9244 30bb 0A       		.byte	0xa
 9245 30bc 2823     		.2byte	0x2328
 9246 30be 1A       		.uleb128 0x1a
 9247 30bf 01       		.uleb128 0x1
 9248 30c0 51       		.byte	0x51
 9249 30c1 01       		.uleb128 0x1
 9250 30c2 33       		.byte	0x33
 9251 30c3 1A       		.uleb128 0x1a
 9252 30c4 01       		.uleb128 0x1
 9253 30c5 50       		.byte	0x50
 9254 30c6 01       		.uleb128 0x1
 9255 30c7 40       		.byte	0x40
 9256 30c8 1A       		.uleb128 0x1a
 9257 30c9 02       		.uleb128 0x2
 9258 30ca 7D       		.byte	0x7d
 9259 30cb 00       		.sleb128 0
 9260 30cc 01       		.uleb128 0x1
 9261 30cd 30       		.byte	0x30
 9262 30ce 00       		.byte	0
 9263 30cf 1F       		.uleb128 0x1f
 9264 30d0 7A000000 		.4byte	.LVL208
 9265 30d4 043C0000 		.4byte	0x3c04
 9266 30d8 E8300000 		.4byte	0x30e8
 9267 30dc 1A       		.uleb128 0x1a
 9268 30dd 01       		.uleb128 0x1
 9269 30de 52       		.byte	0x52
 9270 30df 01       		.uleb128 0x1
 9271 30e0 3A       		.byte	0x3a
 9272 30e1 1A       		.uleb128 0x1a
 9273 30e2 01       		.uleb128 0x1
 9274 30e3 50       		.byte	0x50
 9275 30e4 02       		.uleb128 0x2
 9276 30e5 75       		.byte	0x75
 9277 30e6 00       		.sleb128 0
 9278 30e7 00       		.byte	0
 9279 30e8 19       		.uleb128 0x19
ARM GAS  C:\Users\AHMED~1.ELE\AppData\Local\Temp\ccfMkwD6.s 			page 176


 9280 30e9 90000000 		.4byte	.LVL209
 9281 30ed C13B0000 		.4byte	0x3bc1
 9282 30f1 1A       		.uleb128 0x1a
 9283 30f2 01       		.uleb128 0x1
 9284 30f3 53       		.byte	0x53
 9285 30f4 02       		.uleb128 0x2
 9286 30f5 91       		.byte	0x91
 9287 30f6 60       		.sleb128 -32
 9288 30f7 1A       		.uleb128 0x1a
 9289 30f8 01       		.uleb128 0x1
 9290 30f9 52       		.byte	0x52
 9291 30fa 02       		.uleb128 0x2
 9292 30fb 75       		.byte	0x75
 9293 30fc 00       		.sleb128 0
 9294 30fd 1A       		.uleb128 0x1a
 9295 30fe 01       		.uleb128 0x1
 9296 30ff 51       		.byte	0x51
 9297 3100 01       		.uleb128 0x1
 9298 3101 37       		.byte	0x37
 9299 3102 1A       		.uleb128 0x1a
 9300 3103 01       		.uleb128 0x1
 9301 3104 50       		.byte	0x50
 9302 3105 02       		.uleb128 0x2
 9303 3106 08       		.byte	0x8
 9304 3107 7F       		.byte	0x7f
 9305 3108 1A       		.uleb128 0x1a
 9306 3109 02       		.uleb128 0x2
 9307 310a 7D       		.byte	0x7d
 9308 310b 00       		.sleb128 0
 9309 310c 02       		.uleb128 0x2
 9310 310d 74       		.byte	0x74
 9311 310e 00       		.sleb128 0
 9312 310f 00       		.byte	0
 9313 3110 00       		.byte	0
 9314 3111 08       		.uleb128 0x8
 9315 3112 A2000000 		.4byte	0xa2
 9316 3116 21310000 		.4byte	0x3121
 9317 311a 09       		.uleb128 0x9
 9318 311b 76000000 		.4byte	0x76
 9319 311f 0A       		.byte	0xa
 9320 3120 00       		.byte	0
 9321 3121 2A       		.uleb128 0x2a
 9322 3122 1C310000 		.4byte	.LASF747
 9323 3126 01       		.byte	0x1
 9324 3127 8501     		.2byte	0x185
 9325 3129 97000000 		.4byte	0x97
 9326 312d 00000000 		.4byte	.LFB8
 9327 3131 84000000 		.4byte	.LFE8-.LFB8
 9328 3135 01       		.uleb128 0x1
 9329 3136 9C       		.byte	0x9c
 9330 3137 2D320000 		.4byte	0x322d
 9331 313b 26       		.uleb128 0x26
 9332 313c D2190000 		.4byte	.LASF741
 9333 3140 01       		.byte	0x1
 9334 3141 8701     		.2byte	0x187
 9335 3143 E4000000 		.4byte	0xe4
 9336 3147 02       		.uleb128 0x2
ARM GAS  C:\Users\AHMED~1.ELE\AppData\Local\Temp\ccfMkwD6.s 			page 177


 9337 3148 91       		.byte	0x91
 9338 3149 6C       		.sleb128 -20
 9339 314a 1C       		.uleb128 0x1c
 9340 314b 16000000 		.4byte	.LBB27
 9341 314f 34000000 		.4byte	.LBE27-.LBB27
 9342 3153 F4310000 		.4byte	0x31f4
 9343 3157 29       		.uleb128 0x29
 9344 3158 6C656E00 		.ascii	"len\000"
 9345 315c 01       		.byte	0x1
 9346 315d 8C01     		.2byte	0x18c
 9347 315f B8000000 		.4byte	0xb8
 9348 3163 0F       		.byte	0xf
 9349 3164 28       		.uleb128 0x28
 9350 3165 70747200 		.ascii	"ptr\000"
 9351 3169 01       		.byte	0x1
 9352 316a 8C01     		.2byte	0x18c
 9353 316c DE000000 		.4byte	0xde
 9354 3170 21050000 		.4byte	.LLST45
 9355 3174 1F       		.uleb128 0x1f
 9356 3175 1E000000 		.4byte	.LVL211
 9357 3179 EA3B0000 		.4byte	0x3bea
 9358 317d 8D310000 		.4byte	0x318d
 9359 3181 1A       		.uleb128 0x1a
 9360 3182 01       		.uleb128 0x1
 9361 3183 51       		.byte	0x51
 9362 3184 01       		.uleb128 0x1
 9363 3185 40       		.byte	0x40
 9364 3186 1A       		.uleb128 0x1a
 9365 3187 01       		.uleb128 0x1
 9366 3188 50       		.byte	0x50
 9367 3189 02       		.uleb128 0x2
 9368 318a 08       		.byte	0x8
 9369 318b 92       		.byte	0x92
 9370 318c 00       		.byte	0
 9371 318d 1F       		.uleb128 0x1f
 9372 318e 2A000000 		.4byte	.LVL212
 9373 3192 043C0000 		.4byte	0x3c04
 9374 3196 AF310000 		.4byte	0x31af
 9375 319a 1A       		.uleb128 0x1a
 9376 319b 01       		.uleb128 0x1
 9377 319c 52       		.byte	0x52
 9378 319d 01       		.uleb128 0x1
 9379 319e 3F       		.byte	0x3f
 9380 319f 1A       		.uleb128 0x1a
 9381 31a0 01       		.uleb128 0x1
 9382 31a1 51       		.byte	0x51
 9383 31a2 05       		.uleb128 0x5
 9384 31a3 03       		.byte	0x3
 9385 31a4 A3010000 		.4byte	.LC30
 9386 31a8 1A       		.uleb128 0x1a
 9387 31a9 01       		.uleb128 0x1
 9388 31aa 50       		.byte	0x50
 9389 31ab 02       		.uleb128 0x2
 9390 31ac 75       		.byte	0x75
 9391 31ad 00       		.sleb128 0
 9392 31ae 00       		.byte	0
 9393 31af 1F       		.uleb128 0x1f
ARM GAS  C:\Users\AHMED~1.ELE\AppData\Local\Temp\ccfMkwD6.s 			page 178


 9394 31b0 42000000 		.4byte	.LVL213
 9395 31b4 C13B0000 		.4byte	0x3bc1
 9396 31b8 DD310000 		.4byte	0x31dd
 9397 31bc 1A       		.uleb128 0x1a
 9398 31bd 01       		.uleb128 0x1
 9399 31be 53       		.byte	0x53
 9400 31bf 03       		.uleb128 0x3
 9401 31c0 0A       		.byte	0xa
 9402 31c1 0005     		.2byte	0x500
 9403 31c3 1A       		.uleb128 0x1a
 9404 31c4 01       		.uleb128 0x1
 9405 31c5 52       		.byte	0x52
 9406 31c6 02       		.uleb128 0x2
 9407 31c7 75       		.byte	0x75
 9408 31c8 00       		.sleb128 0
 9409 31c9 1A       		.uleb128 0x1a
 9410 31ca 01       		.uleb128 0x1
 9411 31cb 51       		.byte	0x51
 9412 31cc 02       		.uleb128 0x2
 9413 31cd 08       		.byte	0x8
 9414 31ce 25       		.byte	0x25
 9415 31cf 1A       		.uleb128 0x1a
 9416 31d0 01       		.uleb128 0x1
 9417 31d1 50       		.byte	0x50
 9418 31d2 01       		.uleb128 0x1
 9419 31d3 3F       		.byte	0x3f
 9420 31d4 1A       		.uleb128 0x1a
 9421 31d5 02       		.uleb128 0x2
 9422 31d6 7D       		.byte	0x7d
 9423 31d7 00       		.sleb128 0
 9424 31d8 03       		.uleb128 0x3
 9425 31d9 0A       		.byte	0xa
 9426 31da 8010     		.2byte	0x1080
 9427 31dc 00       		.byte	0
 9428 31dd 19       		.uleb128 0x19
 9429 31de 4A000000 		.4byte	.LVL214
 9430 31e2 EA3B0000 		.4byte	0x3bea
 9431 31e6 1A       		.uleb128 0x1a
 9432 31e7 01       		.uleb128 0x1
 9433 31e8 51       		.byte	0x51
 9434 31e9 02       		.uleb128 0x2
 9435 31ea 75       		.byte	0x75
 9436 31eb 00       		.sleb128 0
 9437 31ec 1A       		.uleb128 0x1a
 9438 31ed 01       		.uleb128 0x1
 9439 31ee 50       		.byte	0x50
 9440 31ef 02       		.uleb128 0x2
 9441 31f0 08       		.byte	0x8
 9442 31f1 94       		.byte	0x94
 9443 31f2 00       		.byte	0
 9444 31f3 00       		.byte	0
 9445 31f4 1F       		.uleb128 0x1f
 9446 31f5 5C000000 		.4byte	.LVL215
 9447 31f9 C13B0000 		.4byte	0x3bc1
 9448 31fd 23320000 		.4byte	0x3223
 9449 3201 1A       		.uleb128 0x1a
 9450 3202 01       		.uleb128 0x1
ARM GAS  C:\Users\AHMED~1.ELE\AppData\Local\Temp\ccfMkwD6.s 			page 179


 9451 3203 53       		.byte	0x53
 9452 3204 03       		.uleb128 0x3
 9453 3205 0A       		.byte	0xa
 9454 3206 0101     		.2byte	0x101
 9455 3208 1A       		.uleb128 0x1a
 9456 3209 01       		.uleb128 0x1
 9457 320a 52       		.byte	0x52
 9458 320b 05       		.uleb128 0x5
 9459 320c 0C       		.byte	0xc
 9460 320d FF172000 		.4byte	0x2017ff
 9461 3211 1A       		.uleb128 0x1a
 9462 3212 01       		.uleb128 0x1
 9463 3213 51       		.byte	0x51
 9464 3214 01       		.uleb128 0x1
 9465 3215 35       		.byte	0x35
 9466 3216 1A       		.uleb128 0x1a
 9467 3217 01       		.uleb128 0x1
 9468 3218 50       		.byte	0x50
 9469 3219 01       		.uleb128 0x1
 9470 321a 40       		.byte	0x40
 9471 321b 1A       		.uleb128 0x1a
 9472 321c 02       		.uleb128 0x2
 9473 321d 7D       		.byte	0x7d
 9474 321e 00       		.sleb128 0
 9475 321f 02       		.uleb128 0x2
 9476 3220 91       		.byte	0x91
 9477 3221 6C       		.sleb128 -20
 9478 3222 00       		.byte	0
 9479 3223 23       		.uleb128 0x23
 9480 3224 6C000000 		.4byte	.LVL216
 9481 3228 583C0000 		.4byte	0x3c58
 9482 322c 00       		.byte	0
 9483 322d 2A       		.uleb128 0x2a
 9484 322e 06030000 		.4byte	.LASF748
 9485 3232 01       		.byte	0x1
 9486 3233 A101     		.2byte	0x1a1
 9487 3235 97000000 		.4byte	0x97
 9488 3239 00000000 		.4byte	.LFB9
 9489 323d AC000000 		.4byte	.LFE9-.LFB9
 9490 3241 01       		.uleb128 0x1
 9491 3242 9C       		.byte	0x9c
 9492 3243 FF330000 		.4byte	0x33ff
 9493 3247 1C       		.uleb128 0x1c
 9494 3248 02000000 		.4byte	.LBB28
 9495 324c 34000000 		.4byte	.LBE28-.LBB28
 9496 3250 F1320000 		.4byte	0x32f1
 9497 3254 29       		.uleb128 0x29
 9498 3255 6C656E00 		.ascii	"len\000"
 9499 3259 01       		.byte	0x1
 9500 325a A301     		.2byte	0x1a3
 9501 325c B8000000 		.4byte	0xb8
 9502 3260 10       		.byte	0x10
 9503 3261 28       		.uleb128 0x28
 9504 3262 70747200 		.ascii	"ptr\000"
 9505 3266 01       		.byte	0x1
 9506 3267 A301     		.2byte	0x1a3
 9507 3269 DE000000 		.4byte	0xde
ARM GAS  C:\Users\AHMED~1.ELE\AppData\Local\Temp\ccfMkwD6.s 			page 180


 9508 326d 3F050000 		.4byte	.LLST46
 9509 3271 1F       		.uleb128 0x1f
 9510 3272 0A000000 		.4byte	.LVL219
 9511 3276 EA3B0000 		.4byte	0x3bea
 9512 327a 8A320000 		.4byte	0x328a
 9513 327e 1A       		.uleb128 0x1a
 9514 327f 01       		.uleb128 0x1
 9515 3280 51       		.byte	0x51
 9516 3281 01       		.uleb128 0x1
 9517 3282 41       		.byte	0x41
 9518 3283 1A       		.uleb128 0x1a
 9519 3284 01       		.uleb128 0x1
 9520 3285 50       		.byte	0x50
 9521 3286 02       		.uleb128 0x2
 9522 3287 08       		.byte	0x8
 9523 3288 92       		.byte	0x92
 9524 3289 00       		.byte	0
 9525 328a 1F       		.uleb128 0x1f
 9526 328b 16000000 		.4byte	.LVL220
 9527 328f 043C0000 		.4byte	0x3c04
 9528 3293 AC320000 		.4byte	0x32ac
 9529 3297 1A       		.uleb128 0x1a
 9530 3298 01       		.uleb128 0x1
 9531 3299 52       		.byte	0x52
 9532 329a 01       		.uleb128 0x1
 9533 329b 40       		.byte	0x40
 9534 329c 1A       		.uleb128 0x1a
 9535 329d 01       		.uleb128 0x1
 9536 329e 51       		.byte	0x51
 9537 329f 05       		.uleb128 0x5
 9538 32a0 03       		.byte	0x3
 9539 32a1 00000000 		.4byte	.LC0
 9540 32a5 1A       		.uleb128 0x1a
 9541 32a6 01       		.uleb128 0x1
 9542 32a7 50       		.byte	0x50
 9543 32a8 02       		.uleb128 0x2
 9544 32a9 74       		.byte	0x74
 9545 32aa 00       		.sleb128 0
 9546 32ab 00       		.byte	0
 9547 32ac 1F       		.uleb128 0x1f
 9548 32ad 2E000000 		.4byte	.LVL221
 9549 32b1 C13B0000 		.4byte	0x3bc1
 9550 32b5 DA320000 		.4byte	0x32da
 9551 32b9 1A       		.uleb128 0x1a
 9552 32ba 01       		.uleb128 0x1
 9553 32bb 53       		.byte	0x53
 9554 32bc 03       		.uleb128 0x3
 9555 32bd 0A       		.byte	0xa
 9556 32be 0005     		.2byte	0x500
 9557 32c0 1A       		.uleb128 0x1a
 9558 32c1 01       		.uleb128 0x1
 9559 32c2 52       		.byte	0x52
 9560 32c3 02       		.uleb128 0x2
 9561 32c4 74       		.byte	0x74
 9562 32c5 00       		.sleb128 0
 9563 32c6 1A       		.uleb128 0x1a
 9564 32c7 01       		.uleb128 0x1
ARM GAS  C:\Users\AHMED~1.ELE\AppData\Local\Temp\ccfMkwD6.s 			page 181


 9565 32c8 51       		.byte	0x51
 9566 32c9 02       		.uleb128 0x2
 9567 32ca 08       		.byte	0x8
 9568 32cb 25       		.byte	0x25
 9569 32cc 1A       		.uleb128 0x1a
 9570 32cd 01       		.uleb128 0x1
 9571 32ce 50       		.byte	0x50
 9572 32cf 01       		.uleb128 0x1
 9573 32d0 3F       		.byte	0x3f
 9574 32d1 1A       		.uleb128 0x1a
 9575 32d2 02       		.uleb128 0x2
 9576 32d3 7D       		.byte	0x7d
 9577 32d4 00       		.sleb128 0
 9578 32d5 03       		.uleb128 0x3
 9579 32d6 0A       		.byte	0xa
 9580 32d7 8210     		.2byte	0x1082
 9581 32d9 00       		.byte	0
 9582 32da 19       		.uleb128 0x19
 9583 32db 36000000 		.4byte	.LVL222
 9584 32df EA3B0000 		.4byte	0x3bea
 9585 32e3 1A       		.uleb128 0x1a
 9586 32e4 01       		.uleb128 0x1
 9587 32e5 51       		.byte	0x51
 9588 32e6 02       		.uleb128 0x2
 9589 32e7 74       		.byte	0x74
 9590 32e8 00       		.sleb128 0
 9591 32e9 1A       		.uleb128 0x1a
 9592 32ea 01       		.uleb128 0x1
 9593 32eb 50       		.byte	0x50
 9594 32ec 02       		.uleb128 0x2
 9595 32ed 08       		.byte	0x8
 9596 32ee 94       		.byte	0x94
 9597 32ef 00       		.byte	0
 9598 32f0 00       		.byte	0
 9599 32f1 1C       		.uleb128 0x1c
 9600 32f2 4A000000 		.4byte	.LBB29
 9601 32f6 32000000 		.4byte	.LBE29-.LBB29
 9602 32fa 9E330000 		.4byte	0x339e
 9603 32fe 28       		.uleb128 0x28
 9604 32ff 6C656E00 		.ascii	"len\000"
 9605 3303 01       		.byte	0x1
 9606 3304 A501     		.2byte	0x1a5
 9607 3306 B8000000 		.4byte	0xb8
 9608 330a 5D050000 		.4byte	.LLST47
 9609 330e 28       		.uleb128 0x28
 9610 330f 70747200 		.ascii	"ptr\000"
 9611 3313 01       		.byte	0x1
 9612 3314 A501     		.2byte	0x1a5
 9613 3316 DE000000 		.4byte	0xde
 9614 331a 71050000 		.4byte	.LLST48
 9615 331e 1F       		.uleb128 0x1f
 9616 331f 52000000 		.4byte	.LVL226
 9617 3323 EA3B0000 		.4byte	0x3bea
 9618 3327 37330000 		.4byte	0x3337
 9619 332b 1A       		.uleb128 0x1a
 9620 332c 01       		.uleb128 0x1
 9621 332d 51       		.byte	0x51
ARM GAS  C:\Users\AHMED~1.ELE\AppData\Local\Temp\ccfMkwD6.s 			page 182


 9622 332e 01       		.uleb128 0x1
 9623 332f 41       		.byte	0x41
 9624 3330 1A       		.uleb128 0x1a
 9625 3331 01       		.uleb128 0x1
 9626 3332 50       		.byte	0x50
 9627 3333 02       		.uleb128 0x2
 9628 3334 08       		.byte	0x8
 9629 3335 92       		.byte	0x92
 9630 3336 00       		.byte	0
 9631 3337 1F       		.uleb128 0x1f
 9632 3338 5E000000 		.4byte	.LVL227
 9633 333c 043C0000 		.4byte	0x3c04
 9634 3340 59330000 		.4byte	0x3359
 9635 3344 1A       		.uleb128 0x1a
 9636 3345 01       		.uleb128 0x1
 9637 3346 52       		.byte	0x52
 9638 3347 01       		.uleb128 0x1
 9639 3348 40       		.byte	0x40
 9640 3349 1A       		.uleb128 0x1a
 9641 334a 01       		.uleb128 0x1
 9642 334b 51       		.byte	0x51
 9643 334c 05       		.uleb128 0x5
 9644 334d 03       		.byte	0x3
 9645 334e B3010000 		.4byte	.LC31
 9646 3352 1A       		.uleb128 0x1a
 9647 3353 01       		.uleb128 0x1
 9648 3354 50       		.byte	0x50
 9649 3355 02       		.uleb128 0x2
 9650 3356 75       		.byte	0x75
 9651 3357 00       		.sleb128 0
 9652 3358 00       		.byte	0
 9653 3359 1F       		.uleb128 0x1f
 9654 335a 74000000 		.4byte	.LVL228
 9655 335e C13B0000 		.4byte	0x3bc1
 9656 3362 87330000 		.4byte	0x3387
 9657 3366 1A       		.uleb128 0x1a
 9658 3367 01       		.uleb128 0x1
 9659 3368 53       		.byte	0x53
 9660 3369 03       		.uleb128 0x3
 9661 336a 0A       		.byte	0xa
 9662 336b 0005     		.2byte	0x500
 9663 336d 1A       		.uleb128 0x1a
 9664 336e 01       		.uleb128 0x1
 9665 336f 52       		.byte	0x52
 9666 3370 02       		.uleb128 0x2
 9667 3371 75       		.byte	0x75
 9668 3372 00       		.sleb128 0
 9669 3373 1A       		.uleb128 0x1a
 9670 3374 01       		.uleb128 0x1
 9671 3375 51       		.byte	0x51
 9672 3376 02       		.uleb128 0x2
 9673 3377 08       		.byte	0x8
 9674 3378 25       		.byte	0x25
 9675 3379 1A       		.uleb128 0x1a
 9676 337a 01       		.uleb128 0x1
 9677 337b 50       		.byte	0x50
 9678 337c 01       		.uleb128 0x1
ARM GAS  C:\Users\AHMED~1.ELE\AppData\Local\Temp\ccfMkwD6.s 			page 183


 9679 337d 3F       		.byte	0x3f
 9680 337e 1A       		.uleb128 0x1a
 9681 337f 02       		.uleb128 0x2
 9682 3380 7D       		.byte	0x7d
 9683 3381 00       		.sleb128 0
 9684 3382 03       		.uleb128 0x3
 9685 3383 0A       		.byte	0xa
 9686 3384 8210     		.2byte	0x1082
 9687 3386 00       		.byte	0
 9688 3387 19       		.uleb128 0x19
 9689 3388 7C000000 		.4byte	.LVL229
 9690 338c EA3B0000 		.4byte	0x3bea
 9691 3390 1A       		.uleb128 0x1a
 9692 3391 01       		.uleb128 0x1
 9693 3392 51       		.byte	0x51
 9694 3393 02       		.uleb128 0x2
 9695 3394 75       		.byte	0x75
 9696 3395 00       		.sleb128 0
 9697 3396 1A       		.uleb128 0x1a
 9698 3397 01       		.uleb128 0x1
 9699 3398 50       		.byte	0x50
 9700 3399 02       		.uleb128 0x2
 9701 339a 08       		.byte	0x8
 9702 339b 94       		.byte	0x94
 9703 339c 00       		.byte	0
 9704 339d 00       		.byte	0
 9705 339e 1F       		.uleb128 0x1f
 9706 339f 46000000 		.4byte	.LVL223
 9707 33a3 C13B0000 		.4byte	0x3bc1
 9708 33a7 C2330000 		.4byte	0x33c2
 9709 33ab 1A       		.uleb128 0x1a
 9710 33ac 01       		.uleb128 0x1
 9711 33ad 53       		.byte	0x53
 9712 33ae 01       		.uleb128 0x1
 9713 33af 30       		.byte	0x30
 9714 33b0 1A       		.uleb128 0x1a
 9715 33b1 01       		.uleb128 0x1
 9716 33b2 51       		.byte	0x51
 9717 33b3 01       		.uleb128 0x1
 9718 33b4 3B       		.byte	0x3b
 9719 33b5 1A       		.uleb128 0x1a
 9720 33b6 01       		.uleb128 0x1
 9721 33b7 50       		.byte	0x50
 9722 33b8 02       		.uleb128 0x2
 9723 33b9 08       		.byte	0x8
 9724 33ba 7F       		.byte	0x7f
 9725 33bb 1A       		.uleb128 0x1a
 9726 33bc 02       		.uleb128 0x2
 9727 33bd 7D       		.byte	0x7d
 9728 33be 00       		.sleb128 0
 9729 33bf 01       		.uleb128 0x1
 9730 33c0 30       		.byte	0x30
 9731 33c1 00       		.byte	0
 9732 33c2 23       		.uleb128 0x23
 9733 33c3 80000000 		.4byte	.LVL230
 9734 33c7 583C0000 		.4byte	0x3c58
 9735 33cb 1F       		.uleb128 0x1f
ARM GAS  C:\Users\AHMED~1.ELE\AppData\Local\Temp\ccfMkwD6.s 			page 184


 9736 33cc 90000000 		.4byte	.LVL231
 9737 33d0 C13B0000 		.4byte	0x3bc1
 9738 33d4 F5330000 		.4byte	0x33f5
 9739 33d8 1A       		.uleb128 0x1a
 9740 33d9 01       		.uleb128 0x1
 9741 33da 53       		.byte	0x53
 9742 33db 01       		.uleb128 0x1
 9743 33dc 30       		.byte	0x30
 9744 33dd 1A       		.uleb128 0x1a
 9745 33de 01       		.uleb128 0x1
 9746 33df 52       		.byte	0x52
 9747 33e0 03       		.uleb128 0x3
 9748 33e1 0A       		.byte	0xa
 9749 33e2 2823     		.2byte	0x2328
 9750 33e4 1A       		.uleb128 0x1a
 9751 33e5 01       		.uleb128 0x1
 9752 33e6 51       		.byte	0x51
 9753 33e7 01       		.uleb128 0x1
 9754 33e8 33       		.byte	0x33
 9755 33e9 1A       		.uleb128 0x1a
 9756 33ea 01       		.uleb128 0x1
 9757 33eb 50       		.byte	0x50
 9758 33ec 01       		.uleb128 0x1
 9759 33ed 40       		.byte	0x40
 9760 33ee 1A       		.uleb128 0x1a
 9761 33ef 02       		.uleb128 0x2
 9762 33f0 7D       		.byte	0x7d
 9763 33f1 00       		.sleb128 0
 9764 33f2 01       		.uleb128 0x1
 9765 33f3 30       		.byte	0x30
 9766 33f4 00       		.byte	0
 9767 33f5 23       		.uleb128 0x23
 9768 33f6 96000000 		.4byte	.LVL233
 9769 33fa 213C0000 		.4byte	0x3c21
 9770 33fe 00       		.byte	0
 9771 33ff 2A       		.uleb128 0x2a
 9772 3400 780C0000 		.4byte	.LASF749
 9773 3404 01       		.byte	0x1
 9774 3405 B701     		.2byte	0x1b7
 9775 3407 97000000 		.4byte	0x97
 9776 340b 00000000 		.4byte	.LFB10
 9777 340f DC000000 		.4byte	.LFE10-.LFB10
 9778 3413 01       		.uleb128 0x1
 9779 3414 9C       		.byte	0x9c
 9780 3415 2E360000 		.4byte	0x362e
 9781 3419 26       		.uleb128 0x26
 9782 341a 60120000 		.4byte	.LASF729
 9783 341e 01       		.byte	0x1
 9784 341f B901     		.2byte	0x1b9
 9785 3421 F0010000 		.4byte	0x1f0
 9786 3425 02       		.uleb128 0x2
 9787 3426 91       		.byte	0x91
 9788 3427 50       		.sleb128 -48
 9789 3428 1C       		.uleb128 0x1c
 9790 3429 28000000 		.4byte	.LBB30
 9791 342d 34000000 		.4byte	.LBE30-.LBB30
 9792 3431 D2340000 		.4byte	0x34d2
ARM GAS  C:\Users\AHMED~1.ELE\AppData\Local\Temp\ccfMkwD6.s 			page 185


 9793 3435 29       		.uleb128 0x29
 9794 3436 6C656E00 		.ascii	"len\000"
 9795 343a 01       		.byte	0x1
 9796 343b C301     		.2byte	0x1c3
 9797 343d B8000000 		.4byte	0xb8
 9798 3441 0E       		.byte	0xe
 9799 3442 28       		.uleb128 0x28
 9800 3443 70747200 		.ascii	"ptr\000"
 9801 3447 01       		.byte	0x1
 9802 3448 C301     		.2byte	0x1c3
 9803 344a DE000000 		.4byte	0xde
 9804 344e 8F050000 		.4byte	.LLST49
 9805 3452 1F       		.uleb128 0x1f
 9806 3453 30000000 		.4byte	.LVL236
 9807 3457 EA3B0000 		.4byte	0x3bea
 9808 345b 6B340000 		.4byte	0x346b
 9809 345f 1A       		.uleb128 0x1a
 9810 3460 01       		.uleb128 0x1
 9811 3461 51       		.byte	0x51
 9812 3462 01       		.uleb128 0x1
 9813 3463 3F       		.byte	0x3f
 9814 3464 1A       		.uleb128 0x1a
 9815 3465 01       		.uleb128 0x1
 9816 3466 50       		.byte	0x50
 9817 3467 02       		.uleb128 0x2
 9818 3468 08       		.byte	0x8
 9819 3469 92       		.byte	0x92
 9820 346a 00       		.byte	0
 9821 346b 1F       		.uleb128 0x1f
 9822 346c 3C000000 		.4byte	.LVL237
 9823 3470 043C0000 		.4byte	0x3c04
 9824 3474 8D340000 		.4byte	0x348d
 9825 3478 1A       		.uleb128 0x1a
 9826 3479 01       		.uleb128 0x1
 9827 347a 52       		.byte	0x52
 9828 347b 01       		.uleb128 0x1
 9829 347c 3E       		.byte	0x3e
 9830 347d 1A       		.uleb128 0x1a
 9831 347e 01       		.uleb128 0x1
 9832 347f 51       		.byte	0x51
 9833 3480 05       		.uleb128 0x5
 9834 3481 03       		.byte	0x3
 9835 3482 D5010000 		.4byte	.LC34
 9836 3486 1A       		.uleb128 0x1a
 9837 3487 01       		.uleb128 0x1
 9838 3488 50       		.byte	0x50
 9839 3489 02       		.uleb128 0x2
 9840 348a 74       		.byte	0x74
 9841 348b 00       		.sleb128 0
 9842 348c 00       		.byte	0
 9843 348d 1F       		.uleb128 0x1f
 9844 348e 54000000 		.4byte	.LVL238
 9845 3492 C13B0000 		.4byte	0x3bc1
 9846 3496 BB340000 		.4byte	0x34bb
 9847 349a 1A       		.uleb128 0x1a
 9848 349b 01       		.uleb128 0x1
 9849 349c 53       		.byte	0x53
ARM GAS  C:\Users\AHMED~1.ELE\AppData\Local\Temp\ccfMkwD6.s 			page 186


 9850 349d 03       		.uleb128 0x3
 9851 349e 0A       		.byte	0xa
 9852 349f 0005     		.2byte	0x500
 9853 34a1 1A       		.uleb128 0x1a
 9854 34a2 01       		.uleb128 0x1
 9855 34a3 52       		.byte	0x52
 9856 34a4 02       		.uleb128 0x2
 9857 34a5 74       		.byte	0x74
 9858 34a6 00       		.sleb128 0
 9859 34a7 1A       		.uleb128 0x1a
 9860 34a8 01       		.uleb128 0x1
 9861 34a9 51       		.byte	0x51
 9862 34aa 02       		.uleb128 0x2
 9863 34ab 08       		.byte	0x8
 9864 34ac 25       		.byte	0x25
 9865 34ad 1A       		.uleb128 0x1a
 9866 34ae 01       		.uleb128 0x1
 9867 34af 50       		.byte	0x50
 9868 34b0 01       		.uleb128 0x1
 9869 34b1 3F       		.byte	0x3f
 9870 34b2 1A       		.uleb128 0x1a
 9871 34b3 02       		.uleb128 0x2
 9872 34b4 7D       		.byte	0x7d
 9873 34b5 00       		.sleb128 0
 9874 34b6 03       		.uleb128 0x3
 9875 34b7 0A       		.byte	0xa
 9876 34b8 8210     		.2byte	0x1082
 9877 34ba 00       		.byte	0
 9878 34bb 19       		.uleb128 0x19
 9879 34bc 5C000000 		.4byte	.LVL239
 9880 34c0 EA3B0000 		.4byte	0x3bea
 9881 34c4 1A       		.uleb128 0x1a
 9882 34c5 01       		.uleb128 0x1
 9883 34c6 51       		.byte	0x51
 9884 34c7 02       		.uleb128 0x2
 9885 34c8 74       		.byte	0x74
 9886 34c9 00       		.sleb128 0
 9887 34ca 1A       		.uleb128 0x1a
 9888 34cb 01       		.uleb128 0x1
 9889 34cc 50       		.byte	0x50
 9890 34cd 02       		.uleb128 0x2
 9891 34ce 08       		.byte	0x8
 9892 34cf 94       		.byte	0x94
 9893 34d0 00       		.byte	0
 9894 34d1 00       		.byte	0
 9895 34d2 1C       		.uleb128 0x1c
 9896 34d3 70000000 		.4byte	.LBB31
 9897 34d7 32000000 		.4byte	.LBE31-.LBB31
 9898 34db 7F350000 		.4byte	0x357f
 9899 34df 28       		.uleb128 0x28
 9900 34e0 6C656E00 		.ascii	"len\000"
 9901 34e4 01       		.byte	0x1
 9902 34e5 C501     		.2byte	0x1c5
 9903 34e7 B8000000 		.4byte	0xb8
 9904 34eb B8050000 		.4byte	.LLST50
 9905 34ef 28       		.uleb128 0x28
 9906 34f0 70747200 		.ascii	"ptr\000"
ARM GAS  C:\Users\AHMED~1.ELE\AppData\Local\Temp\ccfMkwD6.s 			page 187


 9907 34f4 01       		.byte	0x1
 9908 34f5 C501     		.2byte	0x1c5
 9909 34f7 DE000000 		.4byte	0xde
 9910 34fb CC050000 		.4byte	.LLST51
 9911 34ff 1F       		.uleb128 0x1f
 9912 3500 78000000 		.4byte	.LVL242
 9913 3504 EA3B0000 		.4byte	0x3bea
 9914 3508 18350000 		.4byte	0x3518
 9915 350c 1A       		.uleb128 0x1a
 9916 350d 01       		.uleb128 0x1
 9917 350e 51       		.byte	0x51
 9918 350f 01       		.uleb128 0x1
 9919 3510 3D       		.byte	0x3d
 9920 3511 1A       		.uleb128 0x1a
 9921 3512 01       		.uleb128 0x1
 9922 3513 50       		.byte	0x50
 9923 3514 02       		.uleb128 0x2
 9924 3515 08       		.byte	0x8
 9925 3516 92       		.byte	0x92
 9926 3517 00       		.byte	0
 9927 3518 1F       		.uleb128 0x1f
 9928 3519 84000000 		.4byte	.LVL244
 9929 351d 043C0000 		.4byte	0x3c04
 9930 3521 3A350000 		.4byte	0x353a
 9931 3525 1A       		.uleb128 0x1a
 9932 3526 01       		.uleb128 0x1
 9933 3527 52       		.byte	0x52
 9934 3528 01       		.uleb128 0x1
 9935 3529 3C       		.byte	0x3c
 9936 352a 1A       		.uleb128 0x1a
 9937 352b 01       		.uleb128 0x1
 9938 352c 51       		.byte	0x51
 9939 352d 05       		.uleb128 0x5
 9940 352e 03       		.byte	0x3
 9941 352f E4010000 		.4byte	.LC35
 9942 3533 1A       		.uleb128 0x1a
 9943 3534 01       		.uleb128 0x1
 9944 3535 50       		.byte	0x50
 9945 3536 02       		.uleb128 0x2
 9946 3537 74       		.byte	0x74
 9947 3538 00       		.sleb128 0
 9948 3539 00       		.byte	0
 9949 353a 1F       		.uleb128 0x1f
 9950 353b 9A000000 		.4byte	.LVL245
 9951 353f C13B0000 		.4byte	0x3bc1
 9952 3543 68350000 		.4byte	0x3568
 9953 3547 1A       		.uleb128 0x1a
 9954 3548 01       		.uleb128 0x1
 9955 3549 53       		.byte	0x53
 9956 354a 03       		.uleb128 0x3
 9957 354b 0A       		.byte	0xa
 9958 354c 0005     		.2byte	0x500
 9959 354e 1A       		.uleb128 0x1a
 9960 354f 01       		.uleb128 0x1
 9961 3550 52       		.byte	0x52
 9962 3551 02       		.uleb128 0x2
 9963 3552 74       		.byte	0x74
ARM GAS  C:\Users\AHMED~1.ELE\AppData\Local\Temp\ccfMkwD6.s 			page 188


 9964 3553 00       		.sleb128 0
 9965 3554 1A       		.uleb128 0x1a
 9966 3555 01       		.uleb128 0x1
 9967 3556 51       		.byte	0x51
 9968 3557 02       		.uleb128 0x2
 9969 3558 08       		.byte	0x8
 9970 3559 25       		.byte	0x25
 9971 355a 1A       		.uleb128 0x1a
 9972 355b 01       		.uleb128 0x1
 9973 355c 50       		.byte	0x50
 9974 355d 01       		.uleb128 0x1
 9975 355e 3F       		.byte	0x3f
 9976 355f 1A       		.uleb128 0x1a
 9977 3560 02       		.uleb128 0x2
 9978 3561 7D       		.byte	0x7d
 9979 3562 00       		.sleb128 0
 9980 3563 03       		.uleb128 0x3
 9981 3564 0A       		.byte	0xa
 9982 3565 8210     		.2byte	0x1082
 9983 3567 00       		.byte	0
 9984 3568 19       		.uleb128 0x19
 9985 3569 A2000000 		.4byte	.LVL246
 9986 356d EA3B0000 		.4byte	0x3bea
 9987 3571 1A       		.uleb128 0x1a
 9988 3572 01       		.uleb128 0x1
 9989 3573 51       		.byte	0x51
 9990 3574 02       		.uleb128 0x2
 9991 3575 74       		.byte	0x74
 9992 3576 00       		.sleb128 0
 9993 3577 1A       		.uleb128 0x1a
 9994 3578 01       		.uleb128 0x1
 9995 3579 50       		.byte	0x50
 9996 357a 02       		.uleb128 0x2
 9997 357b 08       		.byte	0x8
 9998 357c 94       		.byte	0x94
 9999 357d 00       		.byte	0
 10000 357e 00       		.byte	0
 10001 357f 1F       		.uleb128 0x1f
 10002 3580 1C000000 		.4byte	.LVL234
 10003 3584 043C0000 		.4byte	0x3c04
 10004 3588 A1350000 		.4byte	0x35a1
 10005 358c 1A       		.uleb128 0x1a
 10006 358d 01       		.uleb128 0x1
 10007 358e 52       		.byte	0x52
 10008 358f 01       		.uleb128 0x1
 10009 3590 40       		.byte	0x40
 10010 3591 1A       		.uleb128 0x1a
 10011 3592 01       		.uleb128 0x1
 10012 3593 51       		.byte	0x51
 10013 3594 05       		.uleb128 0x5
 10014 3595 03       		.byte	0x3
 10015 3596 C4010000 		.4byte	.LC32
 10016 359a 1A       		.uleb128 0x1a
 10017 359b 01       		.uleb128 0x1
 10018 359c 50       		.byte	0x50
 10019 359d 02       		.uleb128 0x2
 10020 359e 91       		.byte	0x91
ARM GAS  C:\Users\AHMED~1.ELE\AppData\Local\Temp\ccfMkwD6.s 			page 189


 10021 359f 52       		.sleb128 -46
 10022 35a0 00       		.byte	0
 10023 35a1 1F       		.uleb128 0x1f
 10024 35a2 28000000 		.4byte	.LVL235
 10025 35a6 043C0000 		.4byte	0x3c04
 10026 35aa C3350000 		.4byte	0x35c3
 10027 35ae 1A       		.uleb128 0x1a
 10028 35af 01       		.uleb128 0x1
 10029 35b0 52       		.byte	0x52
 10030 35b1 01       		.uleb128 0x1
 10031 35b2 3A       		.byte	0x3a
 10032 35b3 1A       		.uleb128 0x1a
 10033 35b4 01       		.uleb128 0x1
 10034 35b5 51       		.byte	0x51
 10035 35b6 05       		.uleb128 0x5
 10036 35b7 03       		.byte	0x3
 10037 35b8 03000000 		.4byte	.LANCHOR1+3
 10038 35bc 1A       		.uleb128 0x1a
 10039 35bd 01       		.uleb128 0x1
 10040 35be 50       		.byte	0x50
 10041 35bf 02       		.uleb128 0x2
 10042 35c0 91       		.byte	0x91
 10043 35c1 62       		.sleb128 -30
 10044 35c2 00       		.byte	0
 10045 35c3 1F       		.uleb128 0x1f
 10046 35c4 6C000000 		.4byte	.LVL240
 10047 35c8 C13B0000 		.4byte	0x3bc1
 10048 35cc EF350000 		.4byte	0x35ef
 10049 35d0 1A       		.uleb128 0x1a
 10050 35d1 01       		.uleb128 0x1
 10051 35d2 53       		.byte	0x53
 10052 35d3 02       		.uleb128 0x2
 10053 35d4 75       		.byte	0x75
 10054 35d5 00       		.sleb128 0
 10055 35d6 1A       		.uleb128 0x1a
 10056 35d7 01       		.uleb128 0x1
 10057 35d8 52       		.byte	0x52
 10058 35d9 02       		.uleb128 0x2
 10059 35da 91       		.byte	0x91
 10060 35db 50       		.sleb128 -48
 10061 35dc 1A       		.uleb128 0x1a
 10062 35dd 01       		.uleb128 0x1
 10063 35de 51       		.byte	0x51
 10064 35df 01       		.uleb128 0x1
 10065 35e0 3C       		.byte	0x3c
 10066 35e1 1A       		.uleb128 0x1a
 10067 35e2 01       		.uleb128 0x1
 10068 35e3 50       		.byte	0x50
 10069 35e4 02       		.uleb128 0x2
 10070 35e5 08       		.byte	0x8
 10071 35e6 7F       		.byte	0x7f
 10072 35e7 1A       		.uleb128 0x1a
 10073 35e8 02       		.uleb128 0x2
 10074 35e9 7D       		.byte	0x7d
 10075 35ea 00       		.sleb128 0
 10076 35eb 02       		.uleb128 0x2
 10077 35ec 75       		.byte	0x75
ARM GAS  C:\Users\AHMED~1.ELE\AppData\Local\Temp\ccfMkwD6.s 			page 190


 10078 35ed 00       		.sleb128 0
 10079 35ee 00       		.byte	0
 10080 35ef 23       		.uleb128 0x23
 10081 35f0 A8000000 		.4byte	.LVL248
 10082 35f4 583C0000 		.4byte	0x3c58
 10083 35f8 1F       		.uleb128 0x1f
 10084 35f9 B8000000 		.4byte	.LVL249
 10085 35fd C13B0000 		.4byte	0x3bc1
 10086 3601 24360000 		.4byte	0x3624
 10087 3605 1A       		.uleb128 0x1a
 10088 3606 01       		.uleb128 0x1
 10089 3607 53       		.byte	0x53
 10090 3608 02       		.uleb128 0x2
 10091 3609 75       		.byte	0x75
 10092 360a 00       		.sleb128 0
 10093 360b 1A       		.uleb128 0x1a
 10094 360c 01       		.uleb128 0x1
 10095 360d 52       		.byte	0x52
 10096 360e 03       		.uleb128 0x3
 10097 360f 0A       		.byte	0xa
 10098 3610 2823     		.2byte	0x2328
 10099 3612 1A       		.uleb128 0x1a
 10100 3613 01       		.uleb128 0x1
 10101 3614 51       		.byte	0x51
 10102 3615 01       		.uleb128 0x1
 10103 3616 33       		.byte	0x33
 10104 3617 1A       		.uleb128 0x1a
 10105 3618 01       		.uleb128 0x1
 10106 3619 50       		.byte	0x50
 10107 361a 01       		.uleb128 0x1
 10108 361b 40       		.byte	0x40
 10109 361c 1A       		.uleb128 0x1a
 10110 361d 02       		.uleb128 0x2
 10111 361e 7D       		.byte	0x7d
 10112 361f 00       		.sleb128 0
 10113 3620 02       		.uleb128 0x2
 10114 3621 75       		.byte	0x75
 10115 3622 00       		.sleb128 0
 10116 3623 00       		.byte	0
 10117 3624 23       		.uleb128 0x23
 10118 3625 C0000000 		.4byte	.LVL251
 10119 3629 213C0000 		.4byte	0x3c21
 10120 362d 00       		.byte	0
 10121 362e 2A       		.uleb128 0x2a
 10122 362f CA290000 		.4byte	.LASF750
 10123 3633 01       		.byte	0x1
 10124 3634 D701     		.2byte	0x1d7
 10125 3636 97000000 		.4byte	0x97
 10126 363a 00000000 		.4byte	.LFB11
 10127 363e 08010000 		.4byte	.LFE11-.LFB11
 10128 3642 01       		.uleb128 0x1
 10129 3643 9C       		.byte	0x9c
 10130 3644 0B390000 		.4byte	0x390b
 10131 3648 27       		.uleb128 0x27
 10132 3649 6D736700 		.ascii	"msg\000"
 10133 364d 01       		.byte	0x1
 10134 364e D901     		.2byte	0x1d9
ARM GAS  C:\Users\AHMED~1.ELE\AppData\Local\Temp\ccfMkwD6.s 			page 191


 10135 3650 1B390000 		.4byte	0x391b
 10136 3654 03       		.uleb128 0x3
 10137 3655 91       		.byte	0x91
 10138 3656 987F     		.sleb128 -104
 10139 3658 26       		.uleb128 0x26
 10140 3659 9B1D0000 		.4byte	.LASF746
 10141 365d 01       		.byte	0x1
 10142 365e DA01     		.2byte	0x1da
 10143 3660 F0010000 		.4byte	0x1f0
 10144 3664 03       		.uleb128 0x3
 10145 3665 91       		.byte	0x91
 10146 3666 B87F     		.sleb128 -72
 10147 3668 27       		.uleb128 0x27
 10148 3669 62756600 		.ascii	"buf\000"
 10149 366d 01       		.byte	0x1
 10150 366e DB01     		.2byte	0x1db
 10151 3670 F0010000 		.4byte	0x1f0
 10152 3674 02       		.uleb128 0x2
 10153 3675 91       		.byte	0x91
 10154 3676 58       		.sleb128 -40
 10155 3677 1C       		.uleb128 0x1c
 10156 3678 2E000000 		.4byte	.LBB32
 10157 367c 34000000 		.4byte	.LBE32-.LBB32
 10158 3680 24370000 		.4byte	0x3724
 10159 3684 28       		.uleb128 0x28
 10160 3685 6C656E00 		.ascii	"len\000"
 10161 3689 01       		.byte	0x1
 10162 368a E101     		.2byte	0x1e1
 10163 368c B8000000 		.4byte	0xb8
 10164 3690 EA050000 		.4byte	.LLST52
 10165 3694 28       		.uleb128 0x28
 10166 3695 70747200 		.ascii	"ptr\000"
 10167 3699 01       		.byte	0x1
 10168 369a E101     		.2byte	0x1e1
 10169 369c DE000000 		.4byte	0xde
 10170 36a0 FE050000 		.4byte	.LLST53
 10171 36a4 1F       		.uleb128 0x1f
 10172 36a5 36000000 		.4byte	.LVL257
 10173 36a9 EA3B0000 		.4byte	0x3bea
 10174 36ad BD360000 		.4byte	0x36bd
 10175 36b1 1A       		.uleb128 0x1a
 10176 36b2 01       		.uleb128 0x1
 10177 36b3 51       		.byte	0x51
 10178 36b4 01       		.uleb128 0x1
 10179 36b5 40       		.byte	0x40
 10180 36b6 1A       		.uleb128 0x1a
 10181 36b7 01       		.uleb128 0x1
 10182 36b8 50       		.byte	0x50
 10183 36b9 02       		.uleb128 0x2
 10184 36ba 08       		.byte	0x8
 10185 36bb 92       		.byte	0x92
 10186 36bc 00       		.byte	0
 10187 36bd 1F       		.uleb128 0x1f
 10188 36be 42000000 		.4byte	.LVL258
 10189 36c2 043C0000 		.4byte	0x3c04
 10190 36c6 DF360000 		.4byte	0x36df
 10191 36ca 1A       		.uleb128 0x1a
ARM GAS  C:\Users\AHMED~1.ELE\AppData\Local\Temp\ccfMkwD6.s 			page 192


 10192 36cb 01       		.uleb128 0x1
 10193 36cc 52       		.byte	0x52
 10194 36cd 01       		.uleb128 0x1
 10195 36ce 3F       		.byte	0x3f
 10196 36cf 1A       		.uleb128 0x1a
 10197 36d0 01       		.uleb128 0x1
 10198 36d1 51       		.byte	0x51
 10199 36d2 05       		.uleb128 0x5
 10200 36d3 03       		.byte	0x3
 10201 36d4 FC010000 		.4byte	.LC38
 10202 36d8 1A       		.uleb128 0x1a
 10203 36d9 01       		.uleb128 0x1
 10204 36da 50       		.byte	0x50
 10205 36db 02       		.uleb128 0x2
 10206 36dc 74       		.byte	0x74
 10207 36dd 00       		.sleb128 0
 10208 36de 00       		.byte	0
 10209 36df 1F       		.uleb128 0x1f
 10210 36e0 5A000000 		.4byte	.LVL259
 10211 36e4 C13B0000 		.4byte	0x3bc1
 10212 36e8 0D370000 		.4byte	0x370d
 10213 36ec 1A       		.uleb128 0x1a
 10214 36ed 01       		.uleb128 0x1
 10215 36ee 53       		.byte	0x53
 10216 36ef 03       		.uleb128 0x3
 10217 36f0 0A       		.byte	0xa
 10218 36f1 0005     		.2byte	0x500
 10219 36f3 1A       		.uleb128 0x1a
 10220 36f4 01       		.uleb128 0x1
 10221 36f5 52       		.byte	0x52
 10222 36f6 02       		.uleb128 0x2
 10223 36f7 74       		.byte	0x74
 10224 36f8 00       		.sleb128 0
 10225 36f9 1A       		.uleb128 0x1a
 10226 36fa 01       		.uleb128 0x1
 10227 36fb 51       		.byte	0x51
 10228 36fc 02       		.uleb128 0x2
 10229 36fd 08       		.byte	0x8
 10230 36fe 25       		.byte	0x25
 10231 36ff 1A       		.uleb128 0x1a
 10232 3700 01       		.uleb128 0x1
 10233 3701 50       		.byte	0x50
 10234 3702 01       		.uleb128 0x1
 10235 3703 3F       		.byte	0x3f
 10236 3704 1A       		.uleb128 0x1a
 10237 3705 02       		.uleb128 0x2
 10238 3706 7D       		.byte	0x7d
 10239 3707 00       		.sleb128 0
 10240 3708 03       		.uleb128 0x3
 10241 3709 0A       		.byte	0xa
 10242 370a 8210     		.2byte	0x1082
 10243 370c 00       		.byte	0
 10244 370d 19       		.uleb128 0x19
 10245 370e 62000000 		.4byte	.LVL260
 10246 3712 EA3B0000 		.4byte	0x3bea
 10247 3716 1A       		.uleb128 0x1a
 10248 3717 01       		.uleb128 0x1
ARM GAS  C:\Users\AHMED~1.ELE\AppData\Local\Temp\ccfMkwD6.s 			page 193


 10249 3718 51       		.byte	0x51
 10250 3719 02       		.uleb128 0x2
 10251 371a 74       		.byte	0x74
 10252 371b 00       		.sleb128 0
 10253 371c 1A       		.uleb128 0x1a
 10254 371d 01       		.uleb128 0x1
 10255 371e 50       		.byte	0x50
 10256 371f 02       		.uleb128 0x2
 10257 3720 08       		.byte	0x8
 10258 3721 94       		.byte	0x94
 10259 3722 00       		.byte	0
 10260 3723 00       		.byte	0
 10261 3724 1F       		.uleb128 0x1f
 10262 3725 0E000000 		.4byte	.LVL253
 10263 3729 043C0000 		.4byte	0x3c04
 10264 372d 47370000 		.4byte	0x3747
 10265 3731 1A       		.uleb128 0x1a
 10266 3732 01       		.uleb128 0x1
 10267 3733 52       		.byte	0x52
 10268 3734 01       		.uleb128 0x1
 10269 3735 4F       		.byte	0x4f
 10270 3736 1A       		.uleb128 0x1a
 10271 3737 01       		.uleb128 0x1
 10272 3738 51       		.byte	0x51
 10273 3739 05       		.uleb128 0x5
 10274 373a 03       		.byte	0x3
 10275 373b 0E000000 		.4byte	.LANCHOR1+14
 10276 373f 1A       		.uleb128 0x1a
 10277 3740 01       		.uleb128 0x1
 10278 3741 50       		.byte	0x50
 10279 3742 03       		.uleb128 0x3
 10280 3743 91       		.byte	0x91
 10281 3744 987F     		.sleb128 -104
 10282 3746 00       		.byte	0
 10283 3747 1F       		.uleb128 0x1f
 10284 3748 18000000 		.4byte	.LVL254
 10285 374c 043C0000 		.4byte	0x3c04
 10286 3750 6A370000 		.4byte	0x376a
 10287 3754 1A       		.uleb128 0x1a
 10288 3755 01       		.uleb128 0x1
 10289 3756 52       		.byte	0x52
 10290 3757 01       		.uleb128 0x1
 10291 3758 3A       		.byte	0x3a
 10292 3759 1A       		.uleb128 0x1a
 10293 375a 01       		.uleb128 0x1
 10294 375b 51       		.byte	0x51
 10295 375c 05       		.uleb128 0x5
 10296 375d 03       		.byte	0x3
 10297 375e F1010000 		.4byte	.LC37
 10298 3762 1A       		.uleb128 0x1a
 10299 3763 01       		.uleb128 0x1
 10300 3764 50       		.byte	0x50
 10301 3765 03       		.uleb128 0x3
 10302 3766 91       		.byte	0x91
 10303 3767 B87F     		.sleb128 -72
 10304 3769 00       		.byte	0
 10305 376a 1F       		.uleb128 0x1f
ARM GAS  C:\Users\AHMED~1.ELE\AppData\Local\Temp\ccfMkwD6.s 			page 194


 10306 376b 2A000000 		.4byte	.LVL255
 10307 376f C13B0000 		.4byte	0x3bc1
 10308 3773 91370000 		.4byte	0x3791
 10309 3777 1A       		.uleb128 0x1a
 10310 3778 01       		.uleb128 0x1
 10311 3779 53       		.byte	0x53
 10312 377a 03       		.uleb128 0x3
 10313 377b 91       		.byte	0x91
 10314 377c 987F     		.sleb128 -104
 10315 377e 1A       		.uleb128 0x1a
 10316 377f 01       		.uleb128 0x1
 10317 3780 52       		.byte	0x52
 10318 3781 03       		.uleb128 0x3
 10319 3782 91       		.byte	0x91
 10320 3783 B87F     		.sleb128 -72
 10321 3785 1A       		.uleb128 0x1a
 10322 3786 01       		.uleb128 0x1
 10323 3787 51       		.byte	0x51
 10324 3788 01       		.uleb128 0x1
 10325 3789 3D       		.byte	0x3d
 10326 378a 1A       		.uleb128 0x1a
 10327 378b 01       		.uleb128 0x1
 10328 378c 50       		.byte	0x50
 10329 378d 02       		.uleb128 0x2
 10330 378e 08       		.byte	0x8
 10331 378f 7F       		.byte	0x7f
 10332 3790 00       		.byte	0
 10333 3791 23       		.uleb128 0x23
 10334 3792 68000000 		.4byte	.LVL262
 10335 3796 583C0000 		.4byte	0x3c58
 10336 379a 1F       		.uleb128 0x1f
 10337 379b 78000000 		.4byte	.LVL263
 10338 379f C13B0000 		.4byte	0x3bc1
 10339 37a3 C6370000 		.4byte	0x37c6
 10340 37a7 1A       		.uleb128 0x1a
 10341 37a8 01       		.uleb128 0x1
 10342 37a9 53       		.byte	0x53
 10343 37aa 02       		.uleb128 0x2
 10344 37ab 74       		.byte	0x74
 10345 37ac 00       		.sleb128 0
 10346 37ad 1A       		.uleb128 0x1a
 10347 37ae 01       		.uleb128 0x1
 10348 37af 52       		.byte	0x52
 10349 37b0 03       		.uleb128 0x3
 10350 37b1 0A       		.byte	0xa
 10351 37b2 2823     		.2byte	0x2328
 10352 37b4 1A       		.uleb128 0x1a
 10353 37b5 01       		.uleb128 0x1
 10354 37b6 51       		.byte	0x51
 10355 37b7 01       		.uleb128 0x1
 10356 37b8 33       		.byte	0x33
 10357 37b9 1A       		.uleb128 0x1a
 10358 37ba 01       		.uleb128 0x1
 10359 37bb 50       		.byte	0x50
 10360 37bc 01       		.uleb128 0x1
 10361 37bd 40       		.byte	0x40
 10362 37be 1A       		.uleb128 0x1a
ARM GAS  C:\Users\AHMED~1.ELE\AppData\Local\Temp\ccfMkwD6.s 			page 195


 10363 37bf 02       		.uleb128 0x2
 10364 37c0 7D       		.byte	0x7d
 10365 37c1 00       		.sleb128 0
 10366 37c2 02       		.uleb128 0x2
 10367 37c3 74       		.byte	0x74
 10368 37c4 00       		.sleb128 0
 10369 37c5 00       		.byte	0
 10370 37c6 1F       		.uleb128 0x1f
 10371 37c7 8C000000 		.4byte	.LVL265
 10372 37cb C13B0000 		.4byte	0x3bc1
 10373 37cf F3370000 		.4byte	0x37f3
 10374 37d3 1A       		.uleb128 0x1a
 10375 37d4 01       		.uleb128 0x1
 10376 37d5 53       		.byte	0x53
 10377 37d6 02       		.uleb128 0x2
 10378 37d7 74       		.byte	0x74
 10379 37d8 00       		.sleb128 0
 10380 37d9 1A       		.uleb128 0x1a
 10381 37da 01       		.uleb128 0x1
 10382 37db 52       		.byte	0x52
 10383 37dc 03       		.uleb128 0x3
 10384 37dd 0A       		.byte	0xa
 10385 37de 0006     		.2byte	0x600
 10386 37e0 1A       		.uleb128 0x1a
 10387 37e1 01       		.uleb128 0x1
 10388 37e2 51       		.byte	0x51
 10389 37e3 02       		.uleb128 0x2
 10390 37e4 08       		.byte	0x8
 10391 37e5 23       		.byte	0x23
 10392 37e6 1A       		.uleb128 0x1a
 10393 37e7 01       		.uleb128 0x1
 10394 37e8 50       		.byte	0x50
 10395 37e9 01       		.uleb128 0x1
 10396 37ea 3F       		.byte	0x3f
 10397 37eb 1A       		.uleb128 0x1a
 10398 37ec 02       		.uleb128 0x2
 10399 37ed 7D       		.byte	0x7d
 10400 37ee 00       		.sleb128 0
 10401 37ef 02       		.uleb128 0x2
 10402 37f0 74       		.byte	0x74
 10403 37f1 00       		.sleb128 0
 10404 37f2 00       		.byte	0
 10405 37f3 1F       		.uleb128 0x1f
 10406 37f4 96000000 		.4byte	.LVL266
 10407 37f8 5F3C0000 		.4byte	0x3c5f
 10408 37fc 13380000 		.4byte	0x3813
 10409 3800 1A       		.uleb128 0x1a
 10410 3801 01       		.uleb128 0x1
 10411 3802 52       		.byte	0x52
 10412 3803 01       		.uleb128 0x1
 10413 3804 38       		.byte	0x38
 10414 3805 1A       		.uleb128 0x1a
 10415 3806 01       		.uleb128 0x1
 10416 3807 51       		.byte	0x51
 10417 3808 03       		.uleb128 0x3
 10418 3809 91       		.byte	0x91
 10419 380a B87F     		.sleb128 -72
ARM GAS  C:\Users\AHMED~1.ELE\AppData\Local\Temp\ccfMkwD6.s 			page 196


 10420 380c 1A       		.uleb128 0x1a
 10421 380d 01       		.uleb128 0x1
 10422 380e 50       		.byte	0x50
 10423 380f 02       		.uleb128 0x2
 10424 3810 91       		.byte	0x91
 10425 3811 58       		.sleb128 -40
 10426 3812 00       		.byte	0
 10427 3813 1F       		.uleb128 0x1f
 10428 3814 A8000000 		.4byte	.LVL267
 10429 3818 C13B0000 		.4byte	0x3bc1
 10430 381c 41380000 		.4byte	0x3841
 10431 3820 1A       		.uleb128 0x1a
 10432 3821 01       		.uleb128 0x1
 10433 3822 53       		.byte	0x53
 10434 3823 03       		.uleb128 0x3
 10435 3824 0A       		.byte	0xa
 10436 3825 0020     		.2byte	0x2000
 10437 3827 1A       		.uleb128 0x1a
 10438 3828 01       		.uleb128 0x1
 10439 3829 52       		.byte	0x52
 10440 382a 03       		.uleb128 0x3
 10441 382b 0A       		.byte	0xa
 10442 382c 0007     		.2byte	0x700
 10443 382e 1A       		.uleb128 0x1a
 10444 382f 01       		.uleb128 0x1
 10445 3830 51       		.byte	0x51
 10446 3831 02       		.uleb128 0x2
 10447 3832 08       		.byte	0x8
 10448 3833 24       		.byte	0x24
 10449 3834 1A       		.uleb128 0x1a
 10450 3835 01       		.uleb128 0x1
 10451 3836 50       		.byte	0x50
 10452 3837 01       		.uleb128 0x1
 10453 3838 3F       		.byte	0x3f
 10454 3839 1A       		.uleb128 0x1a
 10455 383a 02       		.uleb128 0x2
 10456 383b 7D       		.byte	0x7d
 10457 383c 00       		.sleb128 0
 10458 383d 02       		.uleb128 0x2
 10459 383e 74       		.byte	0x74
 10460 383f 00       		.sleb128 0
 10461 3840 00       		.byte	0
 10462 3841 1F       		.uleb128 0x1f
 10463 3842 B2000000 		.4byte	.LVL268
 10464 3846 7A3C0000 		.4byte	0x3c7a
 10465 384a 5F380000 		.4byte	0x385f
 10466 384e 1A       		.uleb128 0x1a
 10467 384f 01       		.uleb128 0x1
 10468 3850 52       		.byte	0x52
 10469 3851 01       		.uleb128 0x1
 10470 3852 40       		.byte	0x40
 10471 3853 1A       		.uleb128 0x1a
 10472 3854 01       		.uleb128 0x1
 10473 3855 51       		.byte	0x51
 10474 3856 02       		.uleb128 0x2
 10475 3857 91       		.byte	0x91
 10476 3858 58       		.sleb128 -40
ARM GAS  C:\Users\AHMED~1.ELE\AppData\Local\Temp\ccfMkwD6.s 			page 197


 10477 3859 1A       		.uleb128 0x1a
 10478 385a 01       		.uleb128 0x1
 10479 385b 50       		.byte	0x50
 10480 385c 01       		.uleb128 0x1
 10481 385d 48       		.byte	0x48
 10482 385e 00       		.byte	0
 10483 385f 1F       		.uleb128 0x1f
 10484 3860 BC000000 		.4byte	.LVL269
 10485 3864 5F3C0000 		.4byte	0x3c5f
 10486 3868 7E380000 		.4byte	0x387e
 10487 386c 1A       		.uleb128 0x1a
 10488 386d 01       		.uleb128 0x1
 10489 386e 52       		.byte	0x52
 10490 386f 01       		.uleb128 0x1
 10491 3870 3A       		.byte	0x3a
 10492 3871 1A       		.uleb128 0x1a
 10493 3872 01       		.uleb128 0x1
 10494 3873 51       		.byte	0x51
 10495 3874 02       		.uleb128 0x2
 10496 3875 91       		.byte	0x91
 10497 3876 40       		.sleb128 -64
 10498 3877 1A       		.uleb128 0x1a
 10499 3878 01       		.uleb128 0x1
 10500 3879 50       		.byte	0x50
 10501 387a 02       		.uleb128 0x2
 10502 387b 91       		.byte	0x91
 10503 387c 58       		.sleb128 -40
 10504 387d 00       		.byte	0
 10505 387e 1F       		.uleb128 0x1f
 10506 387f CE000000 		.4byte	.LVL270
 10507 3883 C13B0000 		.4byte	0x3bc1
 10508 3887 AC380000 		.4byte	0x38ac
 10509 388b 1A       		.uleb128 0x1a
 10510 388c 01       		.uleb128 0x1
 10511 388d 53       		.byte	0x53
 10512 388e 03       		.uleb128 0x3
 10513 388f 0A       		.byte	0xa
 10514 3890 0020     		.2byte	0x2000
 10515 3892 1A       		.uleb128 0x1a
 10516 3893 01       		.uleb128 0x1
 10517 3894 52       		.byte	0x52
 10518 3895 03       		.uleb128 0x3
 10519 3896 0A       		.byte	0xa
 10520 3897 0008     		.2byte	0x800
 10521 3899 1A       		.uleb128 0x1a
 10522 389a 01       		.uleb128 0x1
 10523 389b 51       		.byte	0x51
 10524 389c 02       		.uleb128 0x2
 10525 389d 08       		.byte	0x8
 10526 389e 24       		.byte	0x24
 10527 389f 1A       		.uleb128 0x1a
 10528 38a0 01       		.uleb128 0x1
 10529 38a1 50       		.byte	0x50
 10530 38a2 01       		.uleb128 0x1
 10531 38a3 3F       		.byte	0x3f
 10532 38a4 1A       		.uleb128 0x1a
 10533 38a5 02       		.uleb128 0x2
ARM GAS  C:\Users\AHMED~1.ELE\AppData\Local\Temp\ccfMkwD6.s 			page 198


 10534 38a6 7D       		.byte	0x7d
 10535 38a7 00       		.sleb128 0
 10536 38a8 02       		.uleb128 0x2
 10537 38a9 74       		.byte	0x74
 10538 38aa 00       		.sleb128 0
 10539 38ab 00       		.byte	0
 10540 38ac 1F       		.uleb128 0x1f
 10541 38ad D8000000 		.4byte	.LVL271
 10542 38b1 7A3C0000 		.4byte	0x3c7a
 10543 38b5 CA380000 		.4byte	0x38ca
 10544 38b9 1A       		.uleb128 0x1a
 10545 38ba 01       		.uleb128 0x1
 10546 38bb 52       		.byte	0x52
 10547 38bc 01       		.uleb128 0x1
 10548 38bd 44       		.byte	0x44
 10549 38be 1A       		.uleb128 0x1a
 10550 38bf 01       		.uleb128 0x1
 10551 38c0 51       		.byte	0x51
 10552 38c1 02       		.uleb128 0x2
 10553 38c2 91       		.byte	0x91
 10554 38c3 58       		.sleb128 -40
 10555 38c4 1A       		.uleb128 0x1a
 10556 38c5 01       		.uleb128 0x1
 10557 38c6 50       		.byte	0x50
 10558 38c7 01       		.uleb128 0x1
 10559 38c8 48       		.byte	0x48
 10560 38c9 00       		.byte	0
 10561 38ca 1F       		.uleb128 0x1f
 10562 38cb E0000000 		.4byte	.LVL272
 10563 38cf EA3B0000 		.4byte	0x3bea
 10564 38d3 E2380000 		.4byte	0x38e2
 10565 38d7 1A       		.uleb128 0x1a
 10566 38d8 01       		.uleb128 0x1
 10567 38d9 51       		.byte	0x51
 10568 38da 01       		.uleb128 0x1
 10569 38db 41       		.byte	0x41
 10570 38dc 1A       		.uleb128 0x1a
 10571 38dd 01       		.uleb128 0x1
 10572 38de 50       		.byte	0x50
 10573 38df 01       		.uleb128 0x1
 10574 38e0 46       		.byte	0x46
 10575 38e1 00       		.byte	0
 10576 38e2 19       		.uleb128 0x19
 10577 38e3 F0000000 		.4byte	.LVL273
 10578 38e7 C13B0000 		.4byte	0x3bc1
 10579 38eb 1A       		.uleb128 0x1a
 10580 38ec 01       		.uleb128 0x1
 10581 38ed 53       		.byte	0x53
 10582 38ee 02       		.uleb128 0x2
 10583 38ef 74       		.byte	0x74
 10584 38f0 00       		.sleb128 0
 10585 38f1 1A       		.uleb128 0x1a
 10586 38f2 01       		.uleb128 0x1
 10587 38f3 52       		.byte	0x52
 10588 38f4 03       		.uleb128 0x3
 10589 38f5 0A       		.byte	0xa
 10590 38f6 2823     		.2byte	0x2328
ARM GAS  C:\Users\AHMED~1.ELE\AppData\Local\Temp\ccfMkwD6.s 			page 199


 10591 38f8 1A       		.uleb128 0x1a
 10592 38f9 01       		.uleb128 0x1
 10593 38fa 51       		.byte	0x51
 10594 38fb 01       		.uleb128 0x1
 10595 38fc 33       		.byte	0x33
 10596 38fd 1A       		.uleb128 0x1a
 10597 38fe 01       		.uleb128 0x1
 10598 38ff 50       		.byte	0x50
 10599 3900 01       		.uleb128 0x1
 10600 3901 40       		.byte	0x40
 10601 3902 1A       		.uleb128 0x1a
 10602 3903 02       		.uleb128 0x2
 10603 3904 7D       		.byte	0x7d
 10604 3905 00       		.sleb128 0
 10605 3906 02       		.uleb128 0x2
 10606 3907 74       		.byte	0x74
 10607 3908 00       		.sleb128 0
 10608 3909 00       		.byte	0
 10609 390a 00       		.byte	0
 10610 390b 08       		.uleb128 0x8
 10611 390c A2000000 		.4byte	0xa2
 10612 3910 1B390000 		.4byte	0x391b
 10613 3914 09       		.uleb128 0x9
 10614 3915 76000000 		.4byte	0x76
 10615 3919 1E       		.byte	0x1e
 10616 391a 00       		.byte	0
 10617 391b 07       		.uleb128 0x7
 10618 391c 0B390000 		.4byte	0x390b
 10619 3920 25       		.uleb128 0x25
 10620 3921 BC260000 		.4byte	.LASF751
 10621 3925 01       		.byte	0x1
 10622 3926 FB01     		.2byte	0x1fb
 10623 3928 00000000 		.4byte	.LFB12
 10624 392c EC000000 		.4byte	.LFE12-.LFB12
 10625 3930 01       		.uleb128 0x1
 10626 3931 9C       		.byte	0x9c
 10627 3932 833B0000 		.4byte	0x3b83
 10628 3936 28       		.uleb128 0x28
 10629 3937 6B657900 		.ascii	"key\000"
 10630 393b 01       		.byte	0x1
 10631 393c FD01     		.2byte	0x1fd
 10632 393e A2000000 		.4byte	0xa2
 10633 3942 1C060000 		.4byte	.LLST54
 10634 3946 1C       		.uleb128 0x1c
 10635 3947 02000000 		.4byte	.LBB33
 10636 394b 34000000 		.4byte	.LBE33-.LBB33
 10637 394f F0390000 		.4byte	0x39f0
 10638 3953 29       		.uleb128 0x29
 10639 3954 6C656E00 		.ascii	"len\000"
 10640 3958 01       		.byte	0x1
 10641 3959 FF01     		.2byte	0x1ff
 10642 395b B8000000 		.4byte	0xb8
 10643 395f 0F       		.byte	0xf
 10644 3960 28       		.uleb128 0x28
 10645 3961 70747200 		.ascii	"ptr\000"
 10646 3965 01       		.byte	0x1
 10647 3966 FF01     		.2byte	0x1ff
ARM GAS  C:\Users\AHMED~1.ELE\AppData\Local\Temp\ccfMkwD6.s 			page 200


 10648 3968 DE000000 		.4byte	0xde
 10649 396c 3A060000 		.4byte	.LLST55
 10650 3970 1F       		.uleb128 0x1f
 10651 3971 0A000000 		.4byte	.LVL275
 10652 3975 EA3B0000 		.4byte	0x3bea
 10653 3979 89390000 		.4byte	0x3989
 10654 397d 1A       		.uleb128 0x1a
 10655 397e 01       		.uleb128 0x1
 10656 397f 51       		.byte	0x51
 10657 3980 01       		.uleb128 0x1
 10658 3981 40       		.byte	0x40
 10659 3982 1A       		.uleb128 0x1a
 10660 3983 01       		.uleb128 0x1
 10661 3984 50       		.byte	0x50
 10662 3985 02       		.uleb128 0x2
 10663 3986 08       		.byte	0x8
 10664 3987 92       		.byte	0x92
 10665 3988 00       		.byte	0
 10666 3989 1F       		.uleb128 0x1f
 10667 398a 16000000 		.4byte	.LVL276
 10668 398e 043C0000 		.4byte	0x3c04
 10669 3992 AB390000 		.4byte	0x39ab
 10670 3996 1A       		.uleb128 0x1a
 10671 3997 01       		.uleb128 0x1
 10672 3998 52       		.byte	0x52
 10673 3999 01       		.uleb128 0x1
 10674 399a 3F       		.byte	0x3f
 10675 399b 1A       		.uleb128 0x1a
 10676 399c 01       		.uleb128 0x1
 10677 399d 51       		.byte	0x51
 10678 399e 05       		.uleb128 0x5
 10679 399f 03       		.byte	0x3
 10680 39a0 0C020000 		.4byte	.LC39
 10681 39a4 1A       		.uleb128 0x1a
 10682 39a5 01       		.uleb128 0x1
 10683 39a6 50       		.byte	0x50
 10684 39a7 02       		.uleb128 0x2
 10685 39a8 74       		.byte	0x74
 10686 39a9 00       		.sleb128 0
 10687 39aa 00       		.byte	0
 10688 39ab 1F       		.uleb128 0x1f
 10689 39ac 2E000000 		.4byte	.LVL277
 10690 39b0 C13B0000 		.4byte	0x3bc1
 10691 39b4 D9390000 		.4byte	0x39d9
 10692 39b8 1A       		.uleb128 0x1a
 10693 39b9 01       		.uleb128 0x1
 10694 39ba 53       		.byte	0x53
 10695 39bb 03       		.uleb128 0x3
 10696 39bc 0A       		.byte	0xa
 10697 39bd 0001     		.2byte	0x100
 10698 39bf 1A       		.uleb128 0x1a
 10699 39c0 01       		.uleb128 0x1
 10700 39c1 52       		.byte	0x52
 10701 39c2 02       		.uleb128 0x2
 10702 39c3 74       		.byte	0x74
 10703 39c4 00       		.sleb128 0
 10704 39c5 1A       		.uleb128 0x1a
ARM GAS  C:\Users\AHMED~1.ELE\AppData\Local\Temp\ccfMkwD6.s 			page 201


 10705 39c6 01       		.uleb128 0x1
 10706 39c7 51       		.byte	0x51
 10707 39c8 02       		.uleb128 0x2
 10708 39c9 08       		.byte	0x8
 10709 39ca 25       		.byte	0x25
 10710 39cb 1A       		.uleb128 0x1a
 10711 39cc 01       		.uleb128 0x1
 10712 39cd 50       		.byte	0x50
 10713 39ce 01       		.uleb128 0x1
 10714 39cf 3F       		.byte	0x3f
 10715 39d0 1A       		.uleb128 0x1a
 10716 39d1 02       		.uleb128 0x2
 10717 39d2 7D       		.byte	0x7d
 10718 39d3 00       		.sleb128 0
 10719 39d4 03       		.uleb128 0x3
 10720 39d5 0A       		.byte	0xa
 10721 39d6 8010     		.2byte	0x1080
 10722 39d8 00       		.byte	0
 10723 39d9 19       		.uleb128 0x19
 10724 39da 36000000 		.4byte	.LVL278
 10725 39de EA3B0000 		.4byte	0x3bea
 10726 39e2 1A       		.uleb128 0x1a
 10727 39e3 01       		.uleb128 0x1
 10728 39e4 51       		.byte	0x51
 10729 39e5 02       		.uleb128 0x2
 10730 39e6 74       		.byte	0x74
 10731 39e7 00       		.sleb128 0
 10732 39e8 1A       		.uleb128 0x1a
 10733 39e9 01       		.uleb128 0x1
 10734 39ea 50       		.byte	0x50
 10735 39eb 02       		.uleb128 0x2
 10736 39ec 08       		.byte	0x8
 10737 39ed 94       		.byte	0x94
 10738 39ee 00       		.byte	0
 10739 39ef 00       		.byte	0
 10740 39f0 1C       		.uleb128 0x1c
 10741 39f1 36000000 		.4byte	.LBB34
 10742 39f5 34000000 		.4byte	.LBE34-.LBB34
 10743 39f9 9A3A0000 		.4byte	0x3a9a
 10744 39fd 29       		.uleb128 0x29
 10745 39fe 6C656E00 		.ascii	"len\000"
 10746 3a02 01       		.byte	0x1
 10747 3a03 0002     		.2byte	0x200
 10748 3a05 B8000000 		.4byte	0xb8
 10749 3a09 10       		.byte	0x10
 10750 3a0a 28       		.uleb128 0x28
 10751 3a0b 70747200 		.ascii	"ptr\000"
 10752 3a0f 01       		.byte	0x1
 10753 3a10 0002     		.2byte	0x200
 10754 3a12 DE000000 		.4byte	0xde
 10755 3a16 58060000 		.4byte	.LLST56
 10756 3a1a 1F       		.uleb128 0x1f
 10757 3a1b 3E000000 		.4byte	.LVL279
 10758 3a1f EA3B0000 		.4byte	0x3bea
 10759 3a23 333A0000 		.4byte	0x3a33
 10760 3a27 1A       		.uleb128 0x1a
 10761 3a28 01       		.uleb128 0x1
ARM GAS  C:\Users\AHMED~1.ELE\AppData\Local\Temp\ccfMkwD6.s 			page 202


 10762 3a29 51       		.byte	0x51
 10763 3a2a 01       		.uleb128 0x1
 10764 3a2b 41       		.byte	0x41
 10765 3a2c 1A       		.uleb128 0x1a
 10766 3a2d 01       		.uleb128 0x1
 10767 3a2e 50       		.byte	0x50
 10768 3a2f 02       		.uleb128 0x2
 10769 3a30 08       		.byte	0x8
 10770 3a31 92       		.byte	0x92
 10771 3a32 00       		.byte	0
 10772 3a33 1F       		.uleb128 0x1f
 10773 3a34 4A000000 		.4byte	.LVL281
 10774 3a38 043C0000 		.4byte	0x3c04
 10775 3a3c 553A0000 		.4byte	0x3a55
 10776 3a40 1A       		.uleb128 0x1a
 10777 3a41 01       		.uleb128 0x1
 10778 3a42 52       		.byte	0x52
 10779 3a43 01       		.uleb128 0x1
 10780 3a44 40       		.byte	0x40
 10781 3a45 1A       		.uleb128 0x1a
 10782 3a46 01       		.uleb128 0x1
 10783 3a47 51       		.byte	0x51
 10784 3a48 05       		.uleb128 0x5
 10785 3a49 03       		.byte	0x3
 10786 3a4a 1C020000 		.4byte	.LC40
 10787 3a4e 1A       		.uleb128 0x1a
 10788 3a4f 01       		.uleb128 0x1
 10789 3a50 50       		.byte	0x50
 10790 3a51 02       		.uleb128 0x2
 10791 3a52 74       		.byte	0x74
 10792 3a53 00       		.sleb128 0
 10793 3a54 00       		.byte	0
 10794 3a55 1F       		.uleb128 0x1f
 10795 3a56 62000000 		.4byte	.LVL282
 10796 3a5a C13B0000 		.4byte	0x3bc1
 10797 3a5e 833A0000 		.4byte	0x3a83
 10798 3a62 1A       		.uleb128 0x1a
 10799 3a63 01       		.uleb128 0x1
 10800 3a64 53       		.byte	0x53
 10801 3a65 03       		.uleb128 0x3
 10802 3a66 0A       		.byte	0xa
 10803 3a67 0003     		.2byte	0x300
 10804 3a69 1A       		.uleb128 0x1a
 10805 3a6a 01       		.uleb128 0x1
 10806 3a6b 52       		.byte	0x52
 10807 3a6c 02       		.uleb128 0x2
 10808 3a6d 74       		.byte	0x74
 10809 3a6e 00       		.sleb128 0
 10810 3a6f 1A       		.uleb128 0x1a
 10811 3a70 01       		.uleb128 0x1
 10812 3a71 51       		.byte	0x51
 10813 3a72 02       		.uleb128 0x2
 10814 3a73 08       		.byte	0x8
 10815 3a74 25       		.byte	0x25
 10816 3a75 1A       		.uleb128 0x1a
 10817 3a76 01       		.uleb128 0x1
 10818 3a77 50       		.byte	0x50
ARM GAS  C:\Users\AHMED~1.ELE\AppData\Local\Temp\ccfMkwD6.s 			page 203


 10819 3a78 01       		.uleb128 0x1
 10820 3a79 3F       		.byte	0x3f
 10821 3a7a 1A       		.uleb128 0x1a
 10822 3a7b 02       		.uleb128 0x2
 10823 3a7c 7D       		.byte	0x7d
 10824 3a7d 00       		.sleb128 0
 10825 3a7e 03       		.uleb128 0x3
 10826 3a7f 0A       		.byte	0xa
 10827 3a80 0010     		.2byte	0x1000
 10828 3a82 00       		.byte	0
 10829 3a83 19       		.uleb128 0x19
 10830 3a84 6A000000 		.4byte	.LVL283
 10831 3a88 EA3B0000 		.4byte	0x3bea
 10832 3a8c 1A       		.uleb128 0x1a
 10833 3a8d 01       		.uleb128 0x1
 10834 3a8e 51       		.byte	0x51
 10835 3a8f 02       		.uleb128 0x2
 10836 3a90 74       		.byte	0x74
 10837 3a91 00       		.sleb128 0
 10838 3a92 1A       		.uleb128 0x1a
 10839 3a93 01       		.uleb128 0x1
 10840 3a94 50       		.byte	0x50
 10841 3a95 02       		.uleb128 0x2
 10842 3a96 08       		.byte	0x8
 10843 3a97 94       		.byte	0x94
 10844 3a98 00       		.byte	0
 10845 3a99 00       		.byte	0
 10846 3a9a 1C       		.uleb128 0x1c
 10847 3a9b 6A000000 		.4byte	.LBB35
 10848 3a9f 34000000 		.4byte	.LBE35-.LBB35
 10849 3aa3 443B0000 		.4byte	0x3b44
 10850 3aa7 29       		.uleb128 0x29
 10851 3aa8 6C656E00 		.ascii	"len\000"
 10852 3aac 01       		.byte	0x1
 10853 3aad 0102     		.2byte	0x201
 10854 3aaf B8000000 		.4byte	0xb8
 10855 3ab3 0F       		.byte	0xf
 10856 3ab4 28       		.uleb128 0x28
 10857 3ab5 70747200 		.ascii	"ptr\000"
 10858 3ab9 01       		.byte	0x1
 10859 3aba 0102     		.2byte	0x201
 10860 3abc DE000000 		.4byte	0xde
 10861 3ac0 76060000 		.4byte	.LLST57
 10862 3ac4 1F       		.uleb128 0x1f
 10863 3ac5 72000000 		.4byte	.LVL284
 10864 3ac9 EA3B0000 		.4byte	0x3bea
 10865 3acd DD3A0000 		.4byte	0x3add
 10866 3ad1 1A       		.uleb128 0x1a
 10867 3ad2 01       		.uleb128 0x1
 10868 3ad3 51       		.byte	0x51
 10869 3ad4 01       		.uleb128 0x1
 10870 3ad5 40       		.byte	0x40
 10871 3ad6 1A       		.uleb128 0x1a
 10872 3ad7 01       		.uleb128 0x1
 10873 3ad8 50       		.byte	0x50
 10874 3ad9 02       		.uleb128 0x2
 10875 3ada 08       		.byte	0x8
ARM GAS  C:\Users\AHMED~1.ELE\AppData\Local\Temp\ccfMkwD6.s 			page 204


 10876 3adb 92       		.byte	0x92
 10877 3adc 00       		.byte	0
 10878 3add 1F       		.uleb128 0x1f
 10879 3ade 7E000000 		.4byte	.LVL286
 10880 3ae2 043C0000 		.4byte	0x3c04
 10881 3ae6 FF3A0000 		.4byte	0x3aff
 10882 3aea 1A       		.uleb128 0x1a
 10883 3aeb 01       		.uleb128 0x1
 10884 3aec 52       		.byte	0x52
 10885 3aed 01       		.uleb128 0x1
 10886 3aee 3F       		.byte	0x3f
 10887 3aef 1A       		.uleb128 0x1a
 10888 3af0 01       		.uleb128 0x1
 10889 3af1 51       		.byte	0x51
 10890 3af2 05       		.uleb128 0x5
 10891 3af3 03       		.byte	0x3
 10892 3af4 2D020000 		.4byte	.LC41
 10893 3af8 1A       		.uleb128 0x1a
 10894 3af9 01       		.uleb128 0x1
 10895 3afa 50       		.byte	0x50
 10896 3afb 02       		.uleb128 0x2
 10897 3afc 74       		.byte	0x74
 10898 3afd 00       		.sleb128 0
 10899 3afe 00       		.byte	0
 10900 3aff 1F       		.uleb128 0x1f
 10901 3b00 96000000 		.4byte	.LVL287
 10902 3b04 C13B0000 		.4byte	0x3bc1
 10903 3b08 2D3B0000 		.4byte	0x3b2d
 10904 3b0c 1A       		.uleb128 0x1a
 10905 3b0d 01       		.uleb128 0x1
 10906 3b0e 53       		.byte	0x53
 10907 3b0f 03       		.uleb128 0x3
 10908 3b10 0A       		.byte	0xa
 10909 3b11 0005     		.2byte	0x500
 10910 3b13 1A       		.uleb128 0x1a
 10911 3b14 01       		.uleb128 0x1
 10912 3b15 52       		.byte	0x52
 10913 3b16 02       		.uleb128 0x2
 10914 3b17 74       		.byte	0x74
 10915 3b18 00       		.sleb128 0
 10916 3b19 1A       		.uleb128 0x1a
 10917 3b1a 01       		.uleb128 0x1
 10918 3b1b 51       		.byte	0x51
 10919 3b1c 02       		.uleb128 0x2
 10920 3b1d 08       		.byte	0x8
 10921 3b1e 25       		.byte	0x25
 10922 3b1f 1A       		.uleb128 0x1a
 10923 3b20 01       		.uleb128 0x1
 10924 3b21 50       		.byte	0x50
 10925 3b22 01       		.uleb128 0x1
 10926 3b23 3F       		.byte	0x3f
 10927 3b24 1A       		.uleb128 0x1a
 10928 3b25 02       		.uleb128 0x2
 10929 3b26 7D       		.byte	0x7d
 10930 3b27 00       		.sleb128 0
 10931 3b28 03       		.uleb128 0x3
 10932 3b29 0A       		.byte	0xa
ARM GAS  C:\Users\AHMED~1.ELE\AppData\Local\Temp\ccfMkwD6.s 			page 205


 10933 3b2a 0010     		.2byte	0x1000
 10934 3b2c 00       		.byte	0
 10935 3b2d 19       		.uleb128 0x19
 10936 3b2e 9E000000 		.4byte	.LVL288
 10937 3b32 EA3B0000 		.4byte	0x3bea
 10938 3b36 1A       		.uleb128 0x1a
 10939 3b37 01       		.uleb128 0x1
 10940 3b38 51       		.byte	0x51
 10941 3b39 02       		.uleb128 0x2
 10942 3b3a 74       		.byte	0x74
 10943 3b3b 00       		.sleb128 0
 10944 3b3c 1A       		.uleb128 0x1a
 10945 3b3d 01       		.uleb128 0x1
 10946 3b3e 50       		.byte	0x50
 10947 3b3f 02       		.uleb128 0x2
 10948 3b40 08       		.byte	0x8
 10949 3b41 94       		.byte	0x94
 10950 3b42 00       		.byte	0
 10951 3b43 00       		.byte	0
 10952 3b44 1F       		.uleb128 0x1f
 10953 3b45 B0000000 		.4byte	.LVL290
 10954 3b49 C13B0000 		.4byte	0x3bc1
 10955 3b4d 703B0000 		.4byte	0x3b70
 10956 3b51 1A       		.uleb128 0x1a
 10957 3b52 01       		.uleb128 0x1
 10958 3b53 53       		.byte	0x53
 10959 3b54 02       		.uleb128 0x2
 10960 3b55 74       		.byte	0x74
 10961 3b56 00       		.sleb128 0
 10962 3b57 1A       		.uleb128 0x1a
 10963 3b58 01       		.uleb128 0x1
 10964 3b59 52       		.byte	0x52
 10965 3b5a 03       		.uleb128 0x3
 10966 3b5b 0A       		.byte	0xa
 10967 3b5c 2823     		.2byte	0x2328
 10968 3b5e 1A       		.uleb128 0x1a
 10969 3b5f 01       		.uleb128 0x1
 10970 3b60 51       		.byte	0x51
 10971 3b61 01       		.uleb128 0x1
 10972 3b62 33       		.byte	0x33
 10973 3b63 1A       		.uleb128 0x1a
 10974 3b64 01       		.uleb128 0x1
 10975 3b65 50       		.byte	0x50
 10976 3b66 01       		.uleb128 0x1
 10977 3b67 40       		.byte	0x40
 10978 3b68 1A       		.uleb128 0x1a
 10979 3b69 02       		.uleb128 0x2
 10980 3b6a 7D       		.byte	0x7d
 10981 3b6b 00       		.sleb128 0
 10982 3b6c 02       		.uleb128 0x2
 10983 3b6d 74       		.byte	0x74
 10984 3b6e 00       		.sleb128 0
 10985 3b6f 00       		.byte	0
 10986 3b70 23       		.uleb128 0x23
 10987 3b71 D4000000 		.4byte	.LVL294
 10988 3b75 C13B0000 		.4byte	0x3bc1
 10989 3b79 20       		.uleb128 0x20
ARM GAS  C:\Users\AHMED~1.ELE\AppData\Local\Temp\ccfMkwD6.s 			page 206


 10990 3b7a DE000000 		.4byte	.LVL295
 10991 3b7e F03C0000 		.4byte	0x3cf0
 10992 3b82 00       		.byte	0
 10993 3b83 18       		.uleb128 0x18
 10994 3b84 5F1E0000 		.4byte	.LASF752
 10995 3b88 01       		.byte	0x1
 10996 3b89 1B       		.byte	0x1b
 10997 3b8a A2000000 		.4byte	0xa2
 10998 3b8e 05       		.uleb128 0x5
 10999 3b8f 03       		.byte	0x3
 11000 3b90 02000000 		.4byte	dhost_idx
 11001 3b94 18       		.uleb128 0x18
 11002 3b95 B2070000 		.4byte	.LASF753
 11003 3b99 01       		.byte	0x1
 11004 3b9a 1C       		.byte	0x1c
 11005 3b9b A2000000 		.4byte	0xa2
 11006 3b9f 05       		.uleb128 0x5
 11007 3ba0 03       		.byte	0x3
 11008 3ba1 01000000 		.4byte	keysize
 11009 3ba5 18       		.uleb128 0x18
 11010 3ba6 17080000 		.4byte	.LASF754
 11011 3baa 01       		.byte	0x1
 11012 3bab 1D       		.byte	0x1d
 11013 3bac A2000000 		.4byte	0xa2
 11014 3bb0 05       		.uleb128 0x5
 11015 3bb1 03       		.byte	0x3
 11016 3bb2 00000000 		.4byte	keylen
 11017 3bb6 2B       		.uleb128 0x2b
 11018 3bb7 600A0000 		.4byte	.LASF771
 11019 3bbb 0A       		.byte	0xa
 11020 3bbc 53       		.byte	0x53
 11021 3bbd 80170000 		.4byte	0x1780
 11022 3bc1 2C       		.uleb128 0x2c
 11023 3bc2 EC0B0000 		.4byte	.LASF755
 11024 3bc6 05       		.byte	0x5
 11025 3bc7 A0       		.byte	0xa0
 11026 3bc8 B8000000 		.4byte	0xb8
 11027 3bcc EA3B0000 		.4byte	0x3bea
 11028 3bd0 2D       		.uleb128 0x2d
 11029 3bd1 B8000000 		.4byte	0xb8
 11030 3bd5 2D       		.uleb128 0x2d
 11031 3bd6 B8000000 		.4byte	0xb8
 11032 3bda 2D       		.uleb128 0x2d
 11033 3bdb B8000000 		.4byte	0xb8
 11034 3bdf 2D       		.uleb128 0x2d
 11035 3be0 B8000000 		.4byte	0xb8
 11036 3be4 2D       		.uleb128 0x2d
 11037 3be5 B8000000 		.4byte	0xb8
 11038 3be9 00       		.byte	0
 11039 3bea 2C       		.uleb128 0x2c
 11040 3beb A21B0000 		.4byte	.LASF756
 11041 3bef 05       		.byte	0x5
 11042 3bf0 A2       		.byte	0xa2
 11043 3bf1 B8000000 		.4byte	0xb8
 11044 3bf5 043C0000 		.4byte	0x3c04
 11045 3bf9 2D       		.uleb128 0x2d
 11046 3bfa B8000000 		.4byte	0xb8
ARM GAS  C:\Users\AHMED~1.ELE\AppData\Local\Temp\ccfMkwD6.s 			page 207


 11047 3bfe 2D       		.uleb128 0x2d
 11048 3bff B8000000 		.4byte	0xb8
 11049 3c03 00       		.byte	0
 11050 3c04 2E       		.uleb128 0x2e
 11051 3c05 2B2C0000 		.4byte	.LASF761
 11052 3c09 7D000000 		.4byte	0x7d
 11053 3c0d 213C0000 		.4byte	0x3c21
 11054 3c11 2D       		.uleb128 0x2d
 11055 3c12 7D000000 		.4byte	0x7d
 11056 3c16 2D       		.uleb128 0x2d
 11057 3c17 FD0E0000 		.4byte	0xefd
 11058 3c1b 2D       		.uleb128 0x2d
 11059 3c1c 76000000 		.4byte	0x76
 11060 3c20 00       		.byte	0
 11061 3c21 2F       		.uleb128 0x2f
 11062 3c22 4C0B0000 		.4byte	.LASF759
 11063 3c26 08       		.byte	0x8
 11064 3c27 31       		.byte	0x31
 11065 3c28 2C       		.uleb128 0x2c
 11066 3c29 842B0000 		.4byte	.LASF757
 11067 3c2d 0C       		.byte	0xc
 11068 3c2e 21       		.byte	0x21
 11069 3c2f 2C000000 		.4byte	0x2c
 11070 3c33 3D3C0000 		.4byte	0x3c3d
 11071 3c37 2D       		.uleb128 0x2d
 11072 3c38 8C000000 		.4byte	0x8c
 11073 3c3c 00       		.byte	0
 11074 3c3d 2C       		.uleb128 0x2c
 11075 3c3e 29170000 		.4byte	.LASF758
 11076 3c42 0D       		.byte	0xd
 11077 3c43 DD       		.byte	0xdd
 11078 3c44 25000000 		.4byte	0x25
 11079 3c48 583C0000 		.4byte	0x3c58
 11080 3c4c 2D       		.uleb128 0x2d
 11081 3c4d 7F000000 		.4byte	0x7f
 11082 3c51 2D       		.uleb128 0x2d
 11083 3c52 8C000000 		.4byte	0x8c
 11084 3c56 30       		.uleb128 0x30
 11085 3c57 00       		.byte	0
 11086 3c58 2F       		.uleb128 0x2f
 11087 3c59 CE1B0000 		.4byte	.LASF760
 11088 3c5d 08       		.byte	0x8
 11089 3c5e 2F       		.byte	0x2f
 11090 3c5f 31       		.uleb128 0x31
 11091 3c60 A50C0000 		.4byte	.LASF762
 11092 3c64 0E       		.byte	0xe
 11093 3c65 29       		.byte	0x29
 11094 3c66 7A3C0000 		.4byte	0x3c7a
 11095 3c6a 2D       		.uleb128 0x2d
 11096 3c6b DE000000 		.4byte	0xde
 11097 3c6f 2D       		.uleb128 0x2d
 11098 3c70 DE000000 		.4byte	0xde
 11099 3c74 2D       		.uleb128 0x2d
 11100 3c75 B8000000 		.4byte	0xb8
 11101 3c79 00       		.byte	0
 11102 3c7a 2C       		.uleb128 0x2c
 11103 3c7b AC1B0000 		.4byte	.LASF763
ARM GAS  C:\Users\AHMED~1.ELE\AppData\Local\Temp\ccfMkwD6.s 			page 208


 11104 3c7f 05       		.byte	0x5
 11105 3c80 A3       		.byte	0xa3
 11106 3c81 B8000000 		.4byte	0xb8
 11107 3c85 993C0000 		.4byte	0x3c99
 11108 3c89 2D       		.uleb128 0x2d
 11109 3c8a B8000000 		.4byte	0xb8
 11110 3c8e 2D       		.uleb128 0x2d
 11111 3c8f B8000000 		.4byte	0xb8
 11112 3c93 2D       		.uleb128 0x2d
 11113 3c94 B8000000 		.4byte	0xb8
 11114 3c98 00       		.byte	0
 11115 3c99 2E       		.uleb128 0x2e
 11116 3c9a E4240000 		.4byte	.LASF764
 11117 3c9e 7D000000 		.4byte	0x7d
 11118 3ca2 B63C0000 		.4byte	0x3cb6
 11119 3ca6 2D       		.uleb128 0x2d
 11120 3ca7 7D000000 		.4byte	0x7d
 11121 3cab 2D       		.uleb128 0x2d
 11122 3cac 25000000 		.4byte	0x25
 11123 3cb0 2D       		.uleb128 0x2d
 11124 3cb1 76000000 		.4byte	0x76
 11125 3cb5 00       		.byte	0
 11126 3cb6 31       		.uleb128 0x31
 11127 3cb7 E61A0000 		.4byte	.LASF765
 11128 3cbb 0E       		.byte	0xe
 11129 3cbc 28       		.byte	0x28
 11130 3cbd D13C0000 		.4byte	0x3cd1
 11131 3cc1 2D       		.uleb128 0x2d
 11132 3cc2 DE000000 		.4byte	0xde
 11133 3cc6 2D       		.uleb128 0x2d
 11134 3cc7 DE000000 		.4byte	0xde
 11135 3ccb 2D       		.uleb128 0x2d
 11136 3ccc B8000000 		.4byte	0xb8
 11137 3cd0 00       		.byte	0
 11138 3cd1 2C       		.uleb128 0x2c
 11139 3cd2 E4240000 		.4byte	.LASF764
 11140 3cd6 0C       		.byte	0xc
 11141 3cd7 19       		.byte	0x19
 11142 3cd8 7D000000 		.4byte	0x7d
 11143 3cdc F03C0000 		.4byte	0x3cf0
 11144 3ce0 2D       		.uleb128 0x2d
 11145 3ce1 7D000000 		.4byte	0x7d
 11146 3ce5 2D       		.uleb128 0x2d
 11147 3ce6 25000000 		.4byte	0x25
 11148 3cea 2D       		.uleb128 0x2d
 11149 3ceb 2C000000 		.4byte	0x2c
 11150 3cef 00       		.byte	0
 11151 3cf0 2F       		.uleb128 0x2f
 11152 3cf1 7A160000 		.4byte	.LASF766
 11153 3cf5 0F       		.byte	0xf
 11154 3cf6 60       		.byte	0x60
 11155 3cf7 00       		.byte	0
 11156              		.section	.debug_abbrev,"",%progbits
 11157              	.Ldebug_abbrev0:
 11158 0000 01       		.uleb128 0x1
 11159 0001 11       		.uleb128 0x11
 11160 0002 01       		.byte	0x1
ARM GAS  C:\Users\AHMED~1.ELE\AppData\Local\Temp\ccfMkwD6.s 			page 209


 11161 0003 25       		.uleb128 0x25
 11162 0004 0E       		.uleb128 0xe
 11163 0005 13       		.uleb128 0x13
 11164 0006 0B       		.uleb128 0xb
 11165 0007 03       		.uleb128 0x3
 11166 0008 0E       		.uleb128 0xe
 11167 0009 1B       		.uleb128 0x1b
 11168 000a 0E       		.uleb128 0xe
 11169 000b 55       		.uleb128 0x55
 11170 000c 17       		.uleb128 0x17
 11171 000d 11       		.uleb128 0x11
 11172 000e 01       		.uleb128 0x1
 11173 000f 10       		.uleb128 0x10
 11174 0010 17       		.uleb128 0x17
 11175 0011 00       		.byte	0
 11176 0012 00       		.byte	0
 11177 0013 02       		.uleb128 0x2
 11178 0014 24       		.uleb128 0x24
 11179 0015 00       		.byte	0
 11180 0016 0B       		.uleb128 0xb
 11181 0017 0B       		.uleb128 0xb
 11182 0018 3E       		.uleb128 0x3e
 11183 0019 0B       		.uleb128 0xb
 11184 001a 03       		.uleb128 0x3
 11185 001b 08       		.uleb128 0x8
 11186 001c 00       		.byte	0
 11187 001d 00       		.byte	0
 11188 001e 03       		.uleb128 0x3
 11189 001f 16       		.uleb128 0x16
 11190 0020 00       		.byte	0
 11191 0021 03       		.uleb128 0x3
 11192 0022 0E       		.uleb128 0xe
 11193 0023 3A       		.uleb128 0x3a
 11194 0024 0B       		.uleb128 0xb
 11195 0025 3B       		.uleb128 0x3b
 11196 0026 0B       		.uleb128 0xb
 11197 0027 49       		.uleb128 0x49
 11198 0028 13       		.uleb128 0x13
 11199 0029 00       		.byte	0
 11200 002a 00       		.byte	0
 11201 002b 04       		.uleb128 0x4
 11202 002c 24       		.uleb128 0x24
 11203 002d 00       		.byte	0
 11204 002e 0B       		.uleb128 0xb
 11205 002f 0B       		.uleb128 0xb
 11206 0030 3E       		.uleb128 0x3e
 11207 0031 0B       		.uleb128 0xb
 11208 0032 03       		.uleb128 0x3
 11209 0033 0E       		.uleb128 0xe
 11210 0034 00       		.byte	0
 11211 0035 00       		.byte	0
 11212 0036 05       		.uleb128 0x5
 11213 0037 0F       		.uleb128 0xf
 11214 0038 00       		.byte	0
 11215 0039 0B       		.uleb128 0xb
 11216 003a 0B       		.uleb128 0xb
 11217 003b 00       		.byte	0
ARM GAS  C:\Users\AHMED~1.ELE\AppData\Local\Temp\ccfMkwD6.s 			page 210


 11218 003c 00       		.byte	0
 11219 003d 06       		.uleb128 0x6
 11220 003e 0F       		.uleb128 0xf
 11221 003f 00       		.byte	0
 11222 0040 0B       		.uleb128 0xb
 11223 0041 0B       		.uleb128 0xb
 11224 0042 49       		.uleb128 0x49
 11225 0043 13       		.uleb128 0x13
 11226 0044 00       		.byte	0
 11227 0045 00       		.byte	0
 11228 0046 07       		.uleb128 0x7
 11229 0047 26       		.uleb128 0x26
 11230 0048 00       		.byte	0
 11231 0049 49       		.uleb128 0x49
 11232 004a 13       		.uleb128 0x13
 11233 004b 00       		.byte	0
 11234 004c 00       		.byte	0
 11235 004d 08       		.uleb128 0x8
 11236 004e 01       		.uleb128 0x1
 11237 004f 01       		.byte	0x1
 11238 0050 49       		.uleb128 0x49
 11239 0051 13       		.uleb128 0x13
 11240 0052 01       		.uleb128 0x1
 11241 0053 13       		.uleb128 0x13
 11242 0054 00       		.byte	0
 11243 0055 00       		.byte	0
 11244 0056 09       		.uleb128 0x9
 11245 0057 21       		.uleb128 0x21
 11246 0058 00       		.byte	0
 11247 0059 49       		.uleb128 0x49
 11248 005a 13       		.uleb128 0x13
 11249 005b 2F       		.uleb128 0x2f
 11250 005c 0B       		.uleb128 0xb
 11251 005d 00       		.byte	0
 11252 005e 00       		.byte	0
 11253 005f 0A       		.uleb128 0xa
 11254 0060 04       		.uleb128 0x4
 11255 0061 01       		.byte	0x1
 11256 0062 0B       		.uleb128 0xb
 11257 0063 0B       		.uleb128 0xb
 11258 0064 3A       		.uleb128 0x3a
 11259 0065 0B       		.uleb128 0xb
 11260 0066 3B       		.uleb128 0x3b
 11261 0067 0B       		.uleb128 0xb
 11262 0068 01       		.uleb128 0x1
 11263 0069 13       		.uleb128 0x13
 11264 006a 00       		.byte	0
 11265 006b 00       		.byte	0
 11266 006c 0B       		.uleb128 0xb
 11267 006d 28       		.uleb128 0x28
 11268 006e 00       		.byte	0
 11269 006f 03       		.uleb128 0x3
 11270 0070 0E       		.uleb128 0xe
 11271 0071 1C       		.uleb128 0x1c
 11272 0072 0D       		.uleb128 0xd
 11273 0073 00       		.byte	0
 11274 0074 00       		.byte	0
ARM GAS  C:\Users\AHMED~1.ELE\AppData\Local\Temp\ccfMkwD6.s 			page 211


 11275 0075 0C       		.uleb128 0xc
 11276 0076 04       		.uleb128 0x4
 11277 0077 01       		.byte	0x1
 11278 0078 03       		.uleb128 0x3
 11279 0079 0E       		.uleb128 0xe
 11280 007a 0B       		.uleb128 0xb
 11281 007b 0B       		.uleb128 0xb
 11282 007c 3A       		.uleb128 0x3a
 11283 007d 0B       		.uleb128 0xb
 11284 007e 3B       		.uleb128 0x3b
 11285 007f 05       		.uleb128 0x5
 11286 0080 01       		.uleb128 0x1
 11287 0081 13       		.uleb128 0x13
 11288 0082 00       		.byte	0
 11289 0083 00       		.byte	0
 11290 0084 0D       		.uleb128 0xd
 11291 0085 26       		.uleb128 0x26
 11292 0086 00       		.byte	0
 11293 0087 00       		.byte	0
 11294 0088 00       		.byte	0
 11295 0089 0E       		.uleb128 0xe
 11296 008a 04       		.uleb128 0x4
 11297 008b 01       		.byte	0x1
 11298 008c 0B       		.uleb128 0xb
 11299 008d 0B       		.uleb128 0xb
 11300 008e 3A       		.uleb128 0x3a
 11301 008f 0B       		.uleb128 0xb
 11302 0090 3B       		.uleb128 0x3b
 11303 0091 05       		.uleb128 0x5
 11304 0092 01       		.uleb128 0x1
 11305 0093 13       		.uleb128 0x13
 11306 0094 00       		.byte	0
 11307 0095 00       		.byte	0
 11308 0096 0F       		.uleb128 0xf
 11309 0097 13       		.uleb128 0x13
 11310 0098 01       		.byte	0x1
 11311 0099 03       		.uleb128 0x3
 11312 009a 0E       		.uleb128 0xe
 11313 009b 0B       		.uleb128 0xb
 11314 009c 0B       		.uleb128 0xb
 11315 009d 3A       		.uleb128 0x3a
 11316 009e 0B       		.uleb128 0xb
 11317 009f 3B       		.uleb128 0x3b
 11318 00a0 05       		.uleb128 0x5
 11319 00a1 01       		.uleb128 0x1
 11320 00a2 13       		.uleb128 0x13
 11321 00a3 00       		.byte	0
 11322 00a4 00       		.byte	0
 11323 00a5 10       		.uleb128 0x10
 11324 00a6 0D       		.uleb128 0xd
 11325 00a7 00       		.byte	0
 11326 00a8 03       		.uleb128 0x3
 11327 00a9 0E       		.uleb128 0xe
 11328 00aa 3A       		.uleb128 0x3a
 11329 00ab 0B       		.uleb128 0xb
 11330 00ac 3B       		.uleb128 0x3b
 11331 00ad 05       		.uleb128 0x5
ARM GAS  C:\Users\AHMED~1.ELE\AppData\Local\Temp\ccfMkwD6.s 			page 212


 11332 00ae 49       		.uleb128 0x49
 11333 00af 13       		.uleb128 0x13
 11334 00b0 38       		.uleb128 0x38
 11335 00b1 0B       		.uleb128 0xb
 11336 00b2 00       		.byte	0
 11337 00b3 00       		.byte	0
 11338 00b4 11       		.uleb128 0x11
 11339 00b5 13       		.uleb128 0x13
 11340 00b6 01       		.byte	0x1
 11341 00b7 03       		.uleb128 0x3
 11342 00b8 0E       		.uleb128 0xe
 11343 00b9 0B       		.uleb128 0xb
 11344 00ba 0B       		.uleb128 0xb
 11345 00bb 3A       		.uleb128 0x3a
 11346 00bc 0B       		.uleb128 0xb
 11347 00bd 3B       		.uleb128 0x3b
 11348 00be 0B       		.uleb128 0xb
 11349 00bf 01       		.uleb128 0x1
 11350 00c0 13       		.uleb128 0x13
 11351 00c1 00       		.byte	0
 11352 00c2 00       		.byte	0
 11353 00c3 12       		.uleb128 0x12
 11354 00c4 0D       		.uleb128 0xd
 11355 00c5 00       		.byte	0
 11356 00c6 03       		.uleb128 0x3
 11357 00c7 0E       		.uleb128 0xe
 11358 00c8 3A       		.uleb128 0x3a
 11359 00c9 0B       		.uleb128 0xb
 11360 00ca 3B       		.uleb128 0x3b
 11361 00cb 0B       		.uleb128 0xb
 11362 00cc 49       		.uleb128 0x49
 11363 00cd 13       		.uleb128 0x13
 11364 00ce 38       		.uleb128 0x38
 11365 00cf 0B       		.uleb128 0xb
 11366 00d0 00       		.byte	0
 11367 00d1 00       		.byte	0
 11368 00d2 13       		.uleb128 0x13
 11369 00d3 13       		.uleb128 0x13
 11370 00d4 01       		.byte	0x1
 11371 00d5 03       		.uleb128 0x3
 11372 00d6 0E       		.uleb128 0xe
 11373 00d7 0B       		.uleb128 0xb
 11374 00d8 05       		.uleb128 0x5
 11375 00d9 3A       		.uleb128 0x3a
 11376 00da 0B       		.uleb128 0xb
 11377 00db 3B       		.uleb128 0x3b
 11378 00dc 0B       		.uleb128 0xb
 11379 00dd 01       		.uleb128 0x1
 11380 00de 13       		.uleb128 0x13
 11381 00df 00       		.byte	0
 11382 00e0 00       		.byte	0
 11383 00e1 14       		.uleb128 0x14
 11384 00e2 21       		.uleb128 0x21
 11385 00e3 00       		.byte	0
 11386 00e4 49       		.uleb128 0x49
 11387 00e5 13       		.uleb128 0x13
 11388 00e6 2F       		.uleb128 0x2f
ARM GAS  C:\Users\AHMED~1.ELE\AppData\Local\Temp\ccfMkwD6.s 			page 213


 11389 00e7 05       		.uleb128 0x5
 11390 00e8 00       		.byte	0
 11391 00e9 00       		.byte	0
 11392 00ea 15       		.uleb128 0x15
 11393 00eb 0D       		.uleb128 0xd
 11394 00ec 00       		.byte	0
 11395 00ed 03       		.uleb128 0x3
 11396 00ee 0E       		.uleb128 0xe
 11397 00ef 3A       		.uleb128 0x3a
 11398 00f0 0B       		.uleb128 0xb
 11399 00f1 3B       		.uleb128 0x3b
 11400 00f2 0B       		.uleb128 0xb
 11401 00f3 49       		.uleb128 0x49
 11402 00f4 13       		.uleb128 0x13
 11403 00f5 38       		.uleb128 0x38
 11404 00f6 05       		.uleb128 0x5
 11405 00f7 00       		.byte	0
 11406 00f8 00       		.byte	0
 11407 00f9 16       		.uleb128 0x16
 11408 00fa 2E       		.uleb128 0x2e
 11409 00fb 01       		.byte	0x1
 11410 00fc 3F       		.uleb128 0x3f
 11411 00fd 19       		.uleb128 0x19
 11412 00fe 03       		.uleb128 0x3
 11413 00ff 0E       		.uleb128 0xe
 11414 0100 3A       		.uleb128 0x3a
 11415 0101 0B       		.uleb128 0xb
 11416 0102 3B       		.uleb128 0x3b
 11417 0103 0B       		.uleb128 0xb
 11418 0104 27       		.uleb128 0x27
 11419 0105 19       		.uleb128 0x19
 11420 0106 49       		.uleb128 0x49
 11421 0107 13       		.uleb128 0x13
 11422 0108 11       		.uleb128 0x11
 11423 0109 01       		.uleb128 0x1
 11424 010a 12       		.uleb128 0x12
 11425 010b 06       		.uleb128 0x6
 11426 010c 40       		.uleb128 0x40
 11427 010d 18       		.uleb128 0x18
 11428 010e 9742     		.uleb128 0x2117
 11429 0110 19       		.uleb128 0x19
 11430 0111 01       		.uleb128 0x1
 11431 0112 13       		.uleb128 0x13
 11432 0113 00       		.byte	0
 11433 0114 00       		.byte	0
 11434 0115 17       		.uleb128 0x17
 11435 0116 05       		.uleb128 0x5
 11436 0117 00       		.byte	0
 11437 0118 03       		.uleb128 0x3
 11438 0119 08       		.uleb128 0x8
 11439 011a 3A       		.uleb128 0x3a
 11440 011b 0B       		.uleb128 0xb
 11441 011c 3B       		.uleb128 0x3b
 11442 011d 0B       		.uleb128 0xb
 11443 011e 49       		.uleb128 0x49
 11444 011f 13       		.uleb128 0x13
 11445 0120 02       		.uleb128 0x2
ARM GAS  C:\Users\AHMED~1.ELE\AppData\Local\Temp\ccfMkwD6.s 			page 214


 11446 0121 17       		.uleb128 0x17
 11447 0122 00       		.byte	0
 11448 0123 00       		.byte	0
 11449 0124 18       		.uleb128 0x18
 11450 0125 34       		.uleb128 0x34
 11451 0126 00       		.byte	0
 11452 0127 03       		.uleb128 0x3
 11453 0128 0E       		.uleb128 0xe
 11454 0129 3A       		.uleb128 0x3a
 11455 012a 0B       		.uleb128 0xb
 11456 012b 3B       		.uleb128 0x3b
 11457 012c 0B       		.uleb128 0xb
 11458 012d 49       		.uleb128 0x49
 11459 012e 13       		.uleb128 0x13
 11460 012f 02       		.uleb128 0x2
 11461 0130 18       		.uleb128 0x18
 11462 0131 00       		.byte	0
 11463 0132 00       		.byte	0
 11464 0133 19       		.uleb128 0x19
 11465 0134 898201   		.uleb128 0x4109
 11466 0137 01       		.byte	0x1
 11467 0138 11       		.uleb128 0x11
 11468 0139 01       		.uleb128 0x1
 11469 013a 31       		.uleb128 0x31
 11470 013b 13       		.uleb128 0x13
 11471 013c 00       		.byte	0
 11472 013d 00       		.byte	0
 11473 013e 1A       		.uleb128 0x1a
 11474 013f 8A8201   		.uleb128 0x410a
 11475 0142 00       		.byte	0
 11476 0143 02       		.uleb128 0x2
 11477 0144 18       		.uleb128 0x18
 11478 0145 9142     		.uleb128 0x2111
 11479 0147 18       		.uleb128 0x18
 11480 0148 00       		.byte	0
 11481 0149 00       		.byte	0
 11482 014a 1B       		.uleb128 0x1b
 11483 014b 2E       		.uleb128 0x2e
 11484 014c 01       		.byte	0x1
 11485 014d 3F       		.uleb128 0x3f
 11486 014e 19       		.uleb128 0x19
 11487 014f 03       		.uleb128 0x3
 11488 0150 0E       		.uleb128 0xe
 11489 0151 3A       		.uleb128 0x3a
 11490 0152 0B       		.uleb128 0xb
 11491 0153 3B       		.uleb128 0x3b
 11492 0154 0B       		.uleb128 0xb
 11493 0155 27       		.uleb128 0x27
 11494 0156 19       		.uleb128 0x19
 11495 0157 11       		.uleb128 0x11
 11496 0158 01       		.uleb128 0x1
 11497 0159 12       		.uleb128 0x12
 11498 015a 06       		.uleb128 0x6
 11499 015b 40       		.uleb128 0x40
 11500 015c 18       		.uleb128 0x18
 11501 015d 9742     		.uleb128 0x2117
 11502 015f 19       		.uleb128 0x19
ARM GAS  C:\Users\AHMED~1.ELE\AppData\Local\Temp\ccfMkwD6.s 			page 215


 11503 0160 01       		.uleb128 0x1
 11504 0161 13       		.uleb128 0x13
 11505 0162 00       		.byte	0
 11506 0163 00       		.byte	0
 11507 0164 1C       		.uleb128 0x1c
 11508 0165 0B       		.uleb128 0xb
 11509 0166 01       		.byte	0x1
 11510 0167 11       		.uleb128 0x11
 11511 0168 01       		.uleb128 0x1
 11512 0169 12       		.uleb128 0x12
 11513 016a 06       		.uleb128 0x6
 11514 016b 01       		.uleb128 0x1
 11515 016c 13       		.uleb128 0x13
 11516 016d 00       		.byte	0
 11517 016e 00       		.byte	0
 11518 016f 1D       		.uleb128 0x1d
 11519 0170 34       		.uleb128 0x34
 11520 0171 00       		.byte	0
 11521 0172 03       		.uleb128 0x3
 11522 0173 08       		.uleb128 0x8
 11523 0174 3A       		.uleb128 0x3a
 11524 0175 0B       		.uleb128 0xb
 11525 0176 3B       		.uleb128 0x3b
 11526 0177 0B       		.uleb128 0xb
 11527 0178 49       		.uleb128 0x49
 11528 0179 13       		.uleb128 0x13
 11529 017a 1C       		.uleb128 0x1c
 11530 017b 0B       		.uleb128 0xb
 11531 017c 00       		.byte	0
 11532 017d 00       		.byte	0
 11533 017e 1E       		.uleb128 0x1e
 11534 017f 34       		.uleb128 0x34
 11535 0180 00       		.byte	0
 11536 0181 03       		.uleb128 0x3
 11537 0182 08       		.uleb128 0x8
 11538 0183 3A       		.uleb128 0x3a
 11539 0184 0B       		.uleb128 0xb
 11540 0185 3B       		.uleb128 0x3b
 11541 0186 0B       		.uleb128 0xb
 11542 0187 49       		.uleb128 0x49
 11543 0188 13       		.uleb128 0x13
 11544 0189 02       		.uleb128 0x2
 11545 018a 17       		.uleb128 0x17
 11546 018b 00       		.byte	0
 11547 018c 00       		.byte	0
 11548 018d 1F       		.uleb128 0x1f
 11549 018e 898201   		.uleb128 0x4109
 11550 0191 01       		.byte	0x1
 11551 0192 11       		.uleb128 0x11
 11552 0193 01       		.uleb128 0x1
 11553 0194 31       		.uleb128 0x31
 11554 0195 13       		.uleb128 0x13
 11555 0196 01       		.uleb128 0x1
 11556 0197 13       		.uleb128 0x13
 11557 0198 00       		.byte	0
 11558 0199 00       		.byte	0
 11559 019a 20       		.uleb128 0x20
ARM GAS  C:\Users\AHMED~1.ELE\AppData\Local\Temp\ccfMkwD6.s 			page 216


 11560 019b 898201   		.uleb128 0x4109
 11561 019e 00       		.byte	0
 11562 019f 11       		.uleb128 0x11
 11563 01a0 01       		.uleb128 0x1
 11564 01a1 9542     		.uleb128 0x2115
 11565 01a3 19       		.uleb128 0x19
 11566 01a4 31       		.uleb128 0x31
 11567 01a5 13       		.uleb128 0x13
 11568 01a6 00       		.byte	0
 11569 01a7 00       		.byte	0
 11570 01a8 21       		.uleb128 0x21
 11571 01a9 34       		.uleb128 0x34
 11572 01aa 00       		.byte	0
 11573 01ab 03       		.uleb128 0x3
 11574 01ac 0E       		.uleb128 0xe
 11575 01ad 3A       		.uleb128 0x3a
 11576 01ae 0B       		.uleb128 0xb
 11577 01af 3B       		.uleb128 0x3b
 11578 01b0 0B       		.uleb128 0xb
 11579 01b1 49       		.uleb128 0x49
 11580 01b2 13       		.uleb128 0x13
 11581 01b3 02       		.uleb128 0x2
 11582 01b4 17       		.uleb128 0x17
 11583 01b5 00       		.byte	0
 11584 01b6 00       		.byte	0
 11585 01b7 22       		.uleb128 0x22
 11586 01b8 34       		.uleb128 0x34
 11587 01b9 00       		.byte	0
 11588 01ba 03       		.uleb128 0x3
 11589 01bb 08       		.uleb128 0x8
 11590 01bc 3A       		.uleb128 0x3a
 11591 01bd 0B       		.uleb128 0xb
 11592 01be 3B       		.uleb128 0x3b
 11593 01bf 0B       		.uleb128 0xb
 11594 01c0 49       		.uleb128 0x49
 11595 01c1 13       		.uleb128 0x13
 11596 01c2 02       		.uleb128 0x2
 11597 01c3 18       		.uleb128 0x18
 11598 01c4 00       		.byte	0
 11599 01c5 00       		.byte	0
 11600 01c6 23       		.uleb128 0x23
 11601 01c7 898201   		.uleb128 0x4109
 11602 01ca 00       		.byte	0
 11603 01cb 11       		.uleb128 0x11
 11604 01cc 01       		.uleb128 0x1
 11605 01cd 31       		.uleb128 0x31
 11606 01ce 13       		.uleb128 0x13
 11607 01cf 00       		.byte	0
 11608 01d0 00       		.byte	0
 11609 01d1 24       		.uleb128 0x24
 11610 01d2 0B       		.uleb128 0xb
 11611 01d3 01       		.byte	0x1
 11612 01d4 55       		.uleb128 0x55
 11613 01d5 17       		.uleb128 0x17
 11614 01d6 01       		.uleb128 0x1
 11615 01d7 13       		.uleb128 0x13
 11616 01d8 00       		.byte	0
ARM GAS  C:\Users\AHMED~1.ELE\AppData\Local\Temp\ccfMkwD6.s 			page 217


 11617 01d9 00       		.byte	0
 11618 01da 25       		.uleb128 0x25
 11619 01db 2E       		.uleb128 0x2e
 11620 01dc 01       		.byte	0x1
 11621 01dd 3F       		.uleb128 0x3f
 11622 01de 19       		.uleb128 0x19
 11623 01df 03       		.uleb128 0x3
 11624 01e0 0E       		.uleb128 0xe
 11625 01e1 3A       		.uleb128 0x3a
 11626 01e2 0B       		.uleb128 0xb
 11627 01e3 3B       		.uleb128 0x3b
 11628 01e4 05       		.uleb128 0x5
 11629 01e5 27       		.uleb128 0x27
 11630 01e6 19       		.uleb128 0x19
 11631 01e7 11       		.uleb128 0x11
 11632 01e8 01       		.uleb128 0x1
 11633 01e9 12       		.uleb128 0x12
 11634 01ea 06       		.uleb128 0x6
 11635 01eb 40       		.uleb128 0x40
 11636 01ec 18       		.uleb128 0x18
 11637 01ed 9742     		.uleb128 0x2117
 11638 01ef 19       		.uleb128 0x19
 11639 01f0 01       		.uleb128 0x1
 11640 01f1 13       		.uleb128 0x13
 11641 01f2 00       		.byte	0
 11642 01f3 00       		.byte	0
 11643 01f4 26       		.uleb128 0x26
 11644 01f5 34       		.uleb128 0x34
 11645 01f6 00       		.byte	0
 11646 01f7 03       		.uleb128 0x3
 11647 01f8 0E       		.uleb128 0xe
 11648 01f9 3A       		.uleb128 0x3a
 11649 01fa 0B       		.uleb128 0xb
 11650 01fb 3B       		.uleb128 0x3b
 11651 01fc 05       		.uleb128 0x5
 11652 01fd 49       		.uleb128 0x49
 11653 01fe 13       		.uleb128 0x13
 11654 01ff 02       		.uleb128 0x2
 11655 0200 18       		.uleb128 0x18
 11656 0201 00       		.byte	0
 11657 0202 00       		.byte	0
 11658 0203 27       		.uleb128 0x27
 11659 0204 34       		.uleb128 0x34
 11660 0205 00       		.byte	0
 11661 0206 03       		.uleb128 0x3
 11662 0207 08       		.uleb128 0x8
 11663 0208 3A       		.uleb128 0x3a
 11664 0209 0B       		.uleb128 0xb
 11665 020a 3B       		.uleb128 0x3b
 11666 020b 05       		.uleb128 0x5
 11667 020c 49       		.uleb128 0x49
 11668 020d 13       		.uleb128 0x13
 11669 020e 02       		.uleb128 0x2
 11670 020f 18       		.uleb128 0x18
 11671 0210 00       		.byte	0
 11672 0211 00       		.byte	0
 11673 0212 28       		.uleb128 0x28
ARM GAS  C:\Users\AHMED~1.ELE\AppData\Local\Temp\ccfMkwD6.s 			page 218


 11674 0213 34       		.uleb128 0x34
 11675 0214 00       		.byte	0
 11676 0215 03       		.uleb128 0x3
 11677 0216 08       		.uleb128 0x8
 11678 0217 3A       		.uleb128 0x3a
 11679 0218 0B       		.uleb128 0xb
 11680 0219 3B       		.uleb128 0x3b
 11681 021a 05       		.uleb128 0x5
 11682 021b 49       		.uleb128 0x49
 11683 021c 13       		.uleb128 0x13
 11684 021d 02       		.uleb128 0x2
 11685 021e 17       		.uleb128 0x17
 11686 021f 00       		.byte	0
 11687 0220 00       		.byte	0
 11688 0221 29       		.uleb128 0x29
 11689 0222 34       		.uleb128 0x34
 11690 0223 00       		.byte	0
 11691 0224 03       		.uleb128 0x3
 11692 0225 08       		.uleb128 0x8
 11693 0226 3A       		.uleb128 0x3a
 11694 0227 0B       		.uleb128 0xb
 11695 0228 3B       		.uleb128 0x3b
 11696 0229 05       		.uleb128 0x5
 11697 022a 49       		.uleb128 0x49
 11698 022b 13       		.uleb128 0x13
 11699 022c 1C       		.uleb128 0x1c
 11700 022d 0B       		.uleb128 0xb
 11701 022e 00       		.byte	0
 11702 022f 00       		.byte	0
 11703 0230 2A       		.uleb128 0x2a
 11704 0231 2E       		.uleb128 0x2e
 11705 0232 01       		.byte	0x1
 11706 0233 3F       		.uleb128 0x3f
 11707 0234 19       		.uleb128 0x19
 11708 0235 03       		.uleb128 0x3
 11709 0236 0E       		.uleb128 0xe
 11710 0237 3A       		.uleb128 0x3a
 11711 0238 0B       		.uleb128 0xb
 11712 0239 3B       		.uleb128 0x3b
 11713 023a 05       		.uleb128 0x5
 11714 023b 27       		.uleb128 0x27
 11715 023c 19       		.uleb128 0x19
 11716 023d 49       		.uleb128 0x49
 11717 023e 13       		.uleb128 0x13
 11718 023f 11       		.uleb128 0x11
 11719 0240 01       		.uleb128 0x1
 11720 0241 12       		.uleb128 0x12
 11721 0242 06       		.uleb128 0x6
 11722 0243 40       		.uleb128 0x40
 11723 0244 18       		.uleb128 0x18
 11724 0245 9742     		.uleb128 0x2117
 11725 0247 19       		.uleb128 0x19
 11726 0248 01       		.uleb128 0x1
 11727 0249 13       		.uleb128 0x13
 11728 024a 00       		.byte	0
 11729 024b 00       		.byte	0
 11730 024c 2B       		.uleb128 0x2b
ARM GAS  C:\Users\AHMED~1.ELE\AppData\Local\Temp\ccfMkwD6.s 			page 219


 11731 024d 34       		.uleb128 0x34
 11732 024e 00       		.byte	0
 11733 024f 03       		.uleb128 0x3
 11734 0250 0E       		.uleb128 0xe
 11735 0251 3A       		.uleb128 0x3a
 11736 0252 0B       		.uleb128 0xb
 11737 0253 3B       		.uleb128 0x3b
 11738 0254 0B       		.uleb128 0xb
 11739 0255 49       		.uleb128 0x49
 11740 0256 13       		.uleb128 0x13
 11741 0257 3F       		.uleb128 0x3f
 11742 0258 19       		.uleb128 0x19
 11743 0259 3C       		.uleb128 0x3c
 11744 025a 19       		.uleb128 0x19
 11745 025b 00       		.byte	0
 11746 025c 00       		.byte	0
 11747 025d 2C       		.uleb128 0x2c
 11748 025e 2E       		.uleb128 0x2e
 11749 025f 01       		.byte	0x1
 11750 0260 3F       		.uleb128 0x3f
 11751 0261 19       		.uleb128 0x19
 11752 0262 03       		.uleb128 0x3
 11753 0263 0E       		.uleb128 0xe
 11754 0264 3A       		.uleb128 0x3a
 11755 0265 0B       		.uleb128 0xb
 11756 0266 3B       		.uleb128 0x3b
 11757 0267 0B       		.uleb128 0xb
 11758 0268 27       		.uleb128 0x27
 11759 0269 19       		.uleb128 0x19
 11760 026a 49       		.uleb128 0x49
 11761 026b 13       		.uleb128 0x13
 11762 026c 3C       		.uleb128 0x3c
 11763 026d 19       		.uleb128 0x19
 11764 026e 01       		.uleb128 0x1
 11765 026f 13       		.uleb128 0x13
 11766 0270 00       		.byte	0
 11767 0271 00       		.byte	0
 11768 0272 2D       		.uleb128 0x2d
 11769 0273 05       		.uleb128 0x5
 11770 0274 00       		.byte	0
 11771 0275 49       		.uleb128 0x49
 11772 0276 13       		.uleb128 0x13
 11773 0277 00       		.byte	0
 11774 0278 00       		.byte	0
 11775 0279 2E       		.uleb128 0x2e
 11776 027a 2E       		.uleb128 0x2e
 11777 027b 01       		.byte	0x1
 11778 027c 3F       		.uleb128 0x3f
 11779 027d 19       		.uleb128 0x19
 11780 027e 03       		.uleb128 0x3
 11781 027f 0E       		.uleb128 0xe
 11782 0280 27       		.uleb128 0x27
 11783 0281 19       		.uleb128 0x19
 11784 0282 49       		.uleb128 0x49
 11785 0283 13       		.uleb128 0x13
 11786 0284 34       		.uleb128 0x34
 11787 0285 19       		.uleb128 0x19
ARM GAS  C:\Users\AHMED~1.ELE\AppData\Local\Temp\ccfMkwD6.s 			page 220


 11788 0286 3C       		.uleb128 0x3c
 11789 0287 19       		.uleb128 0x19
 11790 0288 01       		.uleb128 0x1
 11791 0289 13       		.uleb128 0x13
 11792 028a 00       		.byte	0
 11793 028b 00       		.byte	0
 11794 028c 2F       		.uleb128 0x2f
 11795 028d 2E       		.uleb128 0x2e
 11796 028e 00       		.byte	0
 11797 028f 3F       		.uleb128 0x3f
 11798 0290 19       		.uleb128 0x19
 11799 0291 03       		.uleb128 0x3
 11800 0292 0E       		.uleb128 0xe
 11801 0293 3A       		.uleb128 0x3a
 11802 0294 0B       		.uleb128 0xb
 11803 0295 3B       		.uleb128 0x3b
 11804 0296 0B       		.uleb128 0xb
 11805 0297 27       		.uleb128 0x27
 11806 0298 19       		.uleb128 0x19
 11807 0299 3C       		.uleb128 0x3c
 11808 029a 19       		.uleb128 0x19
 11809 029b 00       		.byte	0
 11810 029c 00       		.byte	0
 11811 029d 30       		.uleb128 0x30
 11812 029e 18       		.uleb128 0x18
 11813 029f 00       		.byte	0
 11814 02a0 00       		.byte	0
 11815 02a1 00       		.byte	0
 11816 02a2 31       		.uleb128 0x31
 11817 02a3 2E       		.uleb128 0x2e
 11818 02a4 01       		.byte	0x1
 11819 02a5 3F       		.uleb128 0x3f
 11820 02a6 19       		.uleb128 0x19
 11821 02a7 03       		.uleb128 0x3
 11822 02a8 0E       		.uleb128 0xe
 11823 02a9 3A       		.uleb128 0x3a
 11824 02aa 0B       		.uleb128 0xb
 11825 02ab 3B       		.uleb128 0x3b
 11826 02ac 0B       		.uleb128 0xb
 11827 02ad 27       		.uleb128 0x27
 11828 02ae 19       		.uleb128 0x19
 11829 02af 3C       		.uleb128 0x3c
 11830 02b0 19       		.uleb128 0x19
 11831 02b1 01       		.uleb128 0x1
 11832 02b2 13       		.uleb128 0x13
 11833 02b3 00       		.byte	0
 11834 02b4 00       		.byte	0
 11835 02b5 00       		.byte	0
 11836              		.section	.debug_loc,"",%progbits
 11837              	.Ldebug_loc0:
 11838              	.LLST0:
 11839 0000 00000000 		.4byte	.LVL0
 11840 0004 10000000 		.4byte	.LVL1
 11841 0008 0100     		.2byte	0x1
 11842 000a 50       		.byte	0x50
 11843 000b 10000000 		.4byte	.LVL1
 11844 000f 24000000 		.4byte	.LFE0
ARM GAS  C:\Users\AHMED~1.ELE\AppData\Local\Temp\ccfMkwD6.s 			page 221


 11845 0013 0400     		.2byte	0x4
 11846 0015 F3       		.byte	0xf3
 11847 0016 01       		.uleb128 0x1
 11848 0017 50       		.byte	0x50
 11849 0018 9F       		.byte	0x9f
 11850 0019 00000000 		.4byte	0
 11851 001d 00000000 		.4byte	0
 11852              	.LLST1:
 11853 0021 00000000 		.4byte	.LVL3
 11854 0025 08000000 		.4byte	.LVL4
 11855 0029 0100     		.2byte	0x1
 11856 002b 50       		.byte	0x50
 11857 002c 08000000 		.4byte	.LVL4
 11858 0030 54000000 		.4byte	.LFE1
 11859 0034 0400     		.2byte	0x4
 11860 0036 F3       		.byte	0xf3
 11861 0037 01       		.uleb128 0x1
 11862 0038 50       		.byte	0x50
 11863 0039 9F       		.byte	0x9f
 11864 003a 00000000 		.4byte	0
 11865 003e 00000000 		.4byte	0
 11866              	.LLST2:
 11867 0042 0C000000 		.4byte	.LVL5
 11868 0046 17000000 		.4byte	.LVL6-1
 11869 004a 0100     		.2byte	0x1
 11870 004c 50       		.byte	0x50
 11871 004d 17000000 		.4byte	.LVL6-1
 11872 0051 4C000000 		.4byte	.LVL10
 11873 0055 0100     		.2byte	0x1
 11874 0057 54       		.byte	0x54
 11875 0058 00000000 		.4byte	0
 11876 005c 00000000 		.4byte	0
 11877              	.LLST3:
 11878 0060 4A010000 		.4byte	.LVL40
 11879 0064 54010000 		.4byte	.LVL41
 11880 0068 0100     		.2byte	0x1
 11881 006a 50       		.byte	0x50
 11882 006b 54010000 		.4byte	.LVL41
 11883 006f 80010000 		.4byte	.LVL48
 11884 0073 0100     		.2byte	0x1
 11885 0075 54       		.byte	0x54
 11886 0076 04020000 		.4byte	.LVL64
 11887 007a 22020000 		.4byte	.LVL70
 11888 007e 0100     		.2byte	0x1
 11889 0080 54       		.byte	0x54
 11890 0081 00000000 		.4byte	0
 11891 0085 00000000 		.4byte	0
 11892              	.LLST4:
 11893 0089 70010000 		.4byte	.LVL44
 11894 008d 78010000 		.4byte	.LVL46
 11895 0091 0100     		.2byte	0x1
 11896 0093 50       		.byte	0x50
 11897 0094 78010000 		.4byte	.LVL46
 11898 0098 04020000 		.4byte	.LVL64
 11899 009c 0100     		.2byte	0x1
 11900 009e 56       		.byte	0x56
 11901 009f 04020000 		.4byte	.LVL64
ARM GAS  C:\Users\AHMED~1.ELE\AppData\Local\Temp\ccfMkwD6.s 			page 222


 11902 00a3 08020000 		.4byte	.LVL65
 11903 00a7 0100     		.2byte	0x1
 11904 00a9 50       		.byte	0x50
 11905 00aa 08020000 		.4byte	.LVL65
 11906 00ae 5E020000 		.4byte	.LVL75
 11907 00b2 0100     		.2byte	0x1
 11908 00b4 56       		.byte	0x56
 11909 00b5 00000000 		.4byte	0
 11910 00b9 00000000 		.4byte	0
 11911              	.LLST5:
 11912 00bd F4000000 		.4byte	.LVL33
 11913 00c1 26010000 		.4byte	.LVL34
 11914 00c5 0100     		.2byte	0x1
 11915 00c7 50       		.byte	0x50
 11916 00c8 26010000 		.4byte	.LVL34
 11917 00cc 2B010000 		.4byte	.LVL35-1
 11918 00d0 0300     		.2byte	0x3
 11919 00d2 73       		.byte	0x73
 11920 00d3 31       		.sleb128 49
 11921 00d4 9F       		.byte	0x9f
 11922 00d5 00000000 		.4byte	0
 11923 00d9 00000000 		.4byte	0
 11924              	.LLST6:
 11925 00dd 34010000 		.4byte	.LVL37
 11926 00e1 37010000 		.4byte	.LVL38-1
 11927 00e5 0100     		.2byte	0x1
 11928 00e7 50       		.byte	0x50
 11929 00e8 37010000 		.4byte	.LVL38-1
 11930 00ec 5E020000 		.4byte	.LVL75
 11931 00f0 0100     		.2byte	0x1
 11932 00f2 57       		.byte	0x57
 11933 00f3 00000000 		.4byte	0
 11934 00f7 00000000 		.4byte	0
 11935              	.LLST7:
 11936 00fb 1E000000 		.4byte	.LVL14
 11937 00ff 29000000 		.4byte	.LVL15-1
 11938 0103 0100     		.2byte	0x1
 11939 0105 50       		.byte	0x50
 11940 0106 29000000 		.4byte	.LVL15-1
 11941 010a 54000000 		.4byte	.LVL19
 11942 010e 0100     		.2byte	0x1
 11943 0110 54       		.byte	0x54
 11944 0111 00000000 		.4byte	0
 11945 0115 00000000 		.4byte	0
 11946              	.LLST8:
 11947 0119 52000000 		.4byte	.LVL18
 11948 011d 5D000000 		.4byte	.LVL20-1
 11949 0121 0100     		.2byte	0x1
 11950 0123 50       		.byte	0x50
 11951 0124 5D000000 		.4byte	.LVL20-1
 11952 0128 88000000 		.4byte	.LVL24
 11953 012c 0100     		.2byte	0x1
 11954 012e 54       		.byte	0x54
 11955 012f 00000000 		.4byte	0
 11956 0133 00000000 		.4byte	0
 11957              	.LLST9:
 11958 0137 86000000 		.4byte	.LVL23
ARM GAS  C:\Users\AHMED~1.ELE\AppData\Local\Temp\ccfMkwD6.s 			page 223


 11959 013b 91000000 		.4byte	.LVL25-1
 11960 013f 0100     		.2byte	0x1
 11961 0141 50       		.byte	0x50
 11962 0142 91000000 		.4byte	.LVL25-1
 11963 0146 BC000000 		.4byte	.LVL29
 11964 014a 0100     		.2byte	0x1
 11965 014c 54       		.byte	0x54
 11966 014d 00000000 		.4byte	0
 11967 0151 00000000 		.4byte	0
 11968              	.LLST10:
 11969 0155 BA000000 		.4byte	.LVL28
 11970 0159 C5000000 		.4byte	.LVL30-1
 11971 015d 0100     		.2byte	0x1
 11972 015f 50       		.byte	0x50
 11973 0160 C5000000 		.4byte	.LVL30-1
 11974 0164 2E010000 		.4byte	.LVL36
 11975 0168 0100     		.2byte	0x1
 11976 016a 54       		.byte	0x54
 11977 016b 00000000 		.4byte	0
 11978 016f 00000000 		.4byte	0
 11979              	.LLST11:
 11980 0173 76010000 		.4byte	.LVL45
 11981 0177 04020000 		.4byte	.LVL64
 11982 017b 0200     		.2byte	0x2
 11983 017d 3C       		.byte	0x3c
 11984 017e 9F       		.byte	0x9f
 11985 017f 00000000 		.4byte	0
 11986 0183 00000000 		.4byte	0
 11987              	.LLST12:
 11988 0187 7E010000 		.4byte	.LVL47
 11989 018b 89010000 		.4byte	.LVL49-1
 11990 018f 0100     		.2byte	0x1
 11991 0191 50       		.byte	0x50
 11992 0192 89010000 		.4byte	.LVL49-1
 11993 0196 C4010000 		.4byte	.LVL57
 11994 019a 0100     		.2byte	0x1
 11995 019c 54       		.byte	0x54
 11996 019d 00000000 		.4byte	0
 11997 01a1 00000000 		.4byte	0
 11998              	.LLST13:
 11999 01a5 BA010000 		.4byte	.LVL54
 12000 01a9 BE010000 		.4byte	.LVL55
 12001 01ad 0100     		.2byte	0x1
 12002 01af 50       		.byte	0x50
 12003 01b0 BE010000 		.4byte	.LVL55
 12004 01b4 04020000 		.4byte	.LVL64
 12005 01b8 0100     		.2byte	0x1
 12006 01ba 55       		.byte	0x55
 12007 01bb 00000000 		.4byte	0
 12008 01bf 00000000 		.4byte	0
 12009              	.LLST14:
 12010 01c3 C2010000 		.4byte	.LVL56
 12011 01c7 CD010000 		.4byte	.LVL58-1
 12012 01cb 0100     		.2byte	0x1
 12013 01cd 50       		.byte	0x50
 12014 01ce CD010000 		.4byte	.LVL58-1
 12015 01d2 F0010000 		.4byte	.LVL61
ARM GAS  C:\Users\AHMED~1.ELE\AppData\Local\Temp\ccfMkwD6.s 			page 224


 12016 01d6 0100     		.2byte	0x1
 12017 01d8 54       		.byte	0x54
 12018 01d9 00000000 		.4byte	0
 12019 01dd 00000000 		.4byte	0
 12020              	.LLST15:
 12021 01e1 18020000 		.4byte	.LVL68
 12022 01e5 5E020000 		.4byte	.LVL75
 12023 01e9 0200     		.2byte	0x2
 12024 01eb 37       		.byte	0x37
 12025 01ec 9F       		.byte	0x9f
 12026 01ed 00000000 		.4byte	0
 12027 01f1 00000000 		.4byte	0
 12028              	.LLST16:
 12029 01f5 20020000 		.4byte	.LVL69
 12030 01f9 2B020000 		.4byte	.LVL71-1
 12031 01fd 0100     		.2byte	0x1
 12032 01ff 50       		.byte	0x50
 12033 0200 2B020000 		.4byte	.LVL71-1
 12034 0204 5E020000 		.4byte	.LVL75
 12035 0208 0100     		.2byte	0x1
 12036 020a 54       		.byte	0x54
 12037 020b 00000000 		.4byte	0
 12038 020f 00000000 		.4byte	0
 12039              	.LLST17:
 12040 0213 90000000 		.4byte	.LVL87
 12041 0217 98000000 		.4byte	.LVL88
 12042 021b 0100     		.2byte	0x1
 12043 021d 50       		.byte	0x50
 12044 021e 98000000 		.4byte	.LVL88
 12045 0222 F8010000 		.4byte	.LVL120
 12046 0226 0100     		.2byte	0x1
 12047 0228 54       		.byte	0x54
 12048 0229 00000000 		.4byte	0
 12049 022d 00000000 		.4byte	0
 12050              	.LLST18:
 12051 0231 5A000000 		.4byte	.LVL84
 12052 0235 73000000 		.4byte	.LVL85-1
 12053 0239 0100     		.2byte	0x1
 12054 023b 50       		.byte	0x50
 12055 023c 73000000 		.4byte	.LVL85-1
 12056 0240 4A010000 		.4byte	.LVL103
 12057 0244 0100     		.2byte	0x1
 12058 0246 56       		.byte	0x56
 12059 0247 4A010000 		.4byte	.LVL103
 12060 024b 4F010000 		.4byte	.LVL104-1
 12061 024f 0100     		.2byte	0x1
 12062 0251 50       		.byte	0x50
 12063 0252 4F010000 		.4byte	.LVL104-1
 12064 0256 F8010000 		.4byte	.LVL120
 12065 025a 0100     		.2byte	0x1
 12066 025c 56       		.byte	0x56
 12067 025d 00000000 		.4byte	0
 12068 0261 00000000 		.4byte	0
 12069              	.LLST19:
 12070 0265 B8000000 		.4byte	.LVL91
 12071 0269 E6000000 		.4byte	.LVL95
 12072 026d 0200     		.2byte	0x2
ARM GAS  C:\Users\AHMED~1.ELE\AppData\Local\Temp\ccfMkwD6.s 			page 225


 12073 026f 3E       		.byte	0x3e
 12074 0270 9F       		.byte	0x9f
 12075 0271 00000000 		.4byte	0
 12076 0275 00000000 		.4byte	0
 12077              	.LLST20:
 12078 0279 BC000000 		.4byte	.LVL92
 12079 027d C7000000 		.4byte	.LVL93-1
 12080 0281 0100     		.2byte	0x1
 12081 0283 50       		.byte	0x50
 12082 0284 C7000000 		.4byte	.LVL93-1
 12083 0288 E6000000 		.4byte	.LVL95
 12084 028c 0100     		.2byte	0x1
 12085 028e 59       		.byte	0x59
 12086 028f 00000000 		.4byte	0
 12087 0293 00000000 		.4byte	0
 12088              	.LLST21:
 12089 0297 E6000000 		.4byte	.LVL95
 12090 029b 12010000 		.4byte	.LVL99
 12091 029f 0200     		.2byte	0x2
 12092 02a1 3E       		.byte	0x3e
 12093 02a2 9F       		.byte	0x9f
 12094 02a3 00000000 		.4byte	0
 12095 02a7 00000000 		.4byte	0
 12096              	.LLST22:
 12097 02ab EA000000 		.4byte	.LVL96
 12098 02af F5000000 		.4byte	.LVL97-1
 12099 02b3 0100     		.2byte	0x1
 12100 02b5 50       		.byte	0x50
 12101 02b6 F5000000 		.4byte	.LVL97-1
 12102 02ba 12010000 		.4byte	.LVL99
 12103 02be 0100     		.2byte	0x1
 12104 02c0 57       		.byte	0x57
 12105 02c1 00000000 		.4byte	0
 12106 02c5 00000000 		.4byte	0
 12107              	.LLST23:
 12108 02c9 8A010000 		.4byte	.LVL107
 12109 02cd 9E010000 		.4byte	.LVL110
 12110 02d1 0200     		.2byte	0x2
 12111 02d3 3E       		.byte	0x3e
 12112 02d4 9F       		.byte	0x9f
 12113 02d5 00000000 		.4byte	0
 12114 02d9 00000000 		.4byte	0
 12115              	.LLST24:
 12116 02dd 8E010000 		.4byte	.LVL108
 12117 02e1 99010000 		.4byte	.LVL109-1
 12118 02e5 0100     		.2byte	0x1
 12119 02e7 50       		.byte	0x50
 12120 02e8 99010000 		.4byte	.LVL109-1
 12121 02ec 9E010000 		.4byte	.LVL110
 12122 02f0 0100     		.2byte	0x1
 12123 02f2 55       		.byte	0x55
 12124 02f3 00000000 		.4byte	0
 12125 02f7 00000000 		.4byte	0
 12126              	.LLST25:
 12127 02fb 9E010000 		.4byte	.LVL110
 12128 02ff B2010000 		.4byte	.LVL113
 12129 0303 0200     		.2byte	0x2
ARM GAS  C:\Users\AHMED~1.ELE\AppData\Local\Temp\ccfMkwD6.s 			page 226


 12130 0305 3E       		.byte	0x3e
 12131 0306 9F       		.byte	0x9f
 12132 0307 00000000 		.4byte	0
 12133 030b 00000000 		.4byte	0
 12134              	.LLST26:
 12135 030f A2010000 		.4byte	.LVL111
 12136 0313 AD010000 		.4byte	.LVL112-1
 12137 0317 0100     		.2byte	0x1
 12138 0319 50       		.byte	0x50
 12139 031a AD010000 		.4byte	.LVL112-1
 12140 031e B2010000 		.4byte	.LVL113
 12141 0322 0100     		.2byte	0x1
 12142 0324 55       		.byte	0x55
 12143 0325 00000000 		.4byte	0
 12144 0329 00000000 		.4byte	0
 12145              	.LLST27:
 12146 032d 44000000 		.4byte	.LVL125
 12147 0331 62000000 		.4byte	.LVL131
 12148 0335 0100     		.2byte	0x1
 12149 0337 54       		.byte	0x54
 12150 0338 8C000000 		.4byte	.LVL134
 12151 033c EA000000 		.4byte	.LVL142
 12152 0340 0100     		.2byte	0x1
 12153 0342 54       		.byte	0x54
 12154 0343 00000000 		.4byte	0
 12155 0347 00000000 		.4byte	0
 12156              	.LLST28:
 12157 034b 58000000 		.4byte	.LVL128
 12158 034f 5C000000 		.4byte	.LVL129
 12159 0353 0100     		.2byte	0x1
 12160 0355 50       		.byte	0x50
 12161 0356 5C000000 		.4byte	.LVL129
 12162 035a 8C000000 		.4byte	.LVL134
 12163 035e 0100     		.2byte	0x1
 12164 0360 55       		.byte	0x55
 12165 0361 00000000 		.4byte	0
 12166 0365 00000000 		.4byte	0
 12167              	.LLST29:
 12168 0369 60000000 		.4byte	.LVL130
 12169 036d 6D000000 		.4byte	.LVL132-1
 12170 0371 0100     		.2byte	0x1
 12171 0373 50       		.byte	0x50
 12172 0374 6D000000 		.4byte	.LVL132-1
 12173 0378 8C000000 		.4byte	.LVL134
 12174 037c 0100     		.2byte	0x1
 12175 037e 54       		.byte	0x54
 12176 037f 00000000 		.4byte	0
 12177 0383 00000000 		.4byte	0
 12178              	.LLST30:
 12179 0387 8C000000 		.4byte	.LVL134
 12180 038b EA000000 		.4byte	.LVL142
 12181 038f 0200     		.2byte	0x2
 12182 0391 3A       		.byte	0x3a
 12183 0392 9F       		.byte	0x9f
 12184 0393 00000000 		.4byte	0
 12185 0397 00000000 		.4byte	0
 12186              	.LLST31:
ARM GAS  C:\Users\AHMED~1.ELE\AppData\Local\Temp\ccfMkwD6.s 			page 227


 12187 039b 94000000 		.4byte	.LVL135
 12188 039f 9F000000 		.4byte	.LVL136-1
 12189 03a3 0100     		.2byte	0x1
 12190 03a5 50       		.byte	0x50
 12191 03a6 9F000000 		.4byte	.LVL136-1
 12192 03aa EA000000 		.4byte	.LVL142
 12193 03ae 0100     		.2byte	0x1
 12194 03b0 55       		.byte	0x55
 12195 03b1 00000000 		.4byte	0
 12196 03b5 00000000 		.4byte	0
 12197              	.LLST32:
 12198 03b9 44000000 		.4byte	.LVL149
 12199 03bd 62000000 		.4byte	.LVL155
 12200 03c1 0100     		.2byte	0x1
 12201 03c3 54       		.byte	0x54
 12202 03c4 8C000000 		.4byte	.LVL158
 12203 03c8 EA000000 		.4byte	.LVL166
 12204 03cc 0100     		.2byte	0x1
 12205 03ce 54       		.byte	0x54
 12206 03cf 00000000 		.4byte	0
 12207 03d3 00000000 		.4byte	0
 12208              	.LLST33:
 12209 03d7 58000000 		.4byte	.LVL152
 12210 03db 5C000000 		.4byte	.LVL153
 12211 03df 0100     		.2byte	0x1
 12212 03e1 50       		.byte	0x50
 12213 03e2 5C000000 		.4byte	.LVL153
 12214 03e6 8C000000 		.4byte	.LVL158
 12215 03ea 0100     		.2byte	0x1
 12216 03ec 55       		.byte	0x55
 12217 03ed 00000000 		.4byte	0
 12218 03f1 00000000 		.4byte	0
 12219              	.LLST34:
 12220 03f5 60000000 		.4byte	.LVL154
 12221 03f9 6D000000 		.4byte	.LVL156-1
 12222 03fd 0100     		.2byte	0x1
 12223 03ff 50       		.byte	0x50
 12224 0400 6D000000 		.4byte	.LVL156-1
 12225 0404 8C000000 		.4byte	.LVL158
 12226 0408 0100     		.2byte	0x1
 12227 040a 54       		.byte	0x54
 12228 040b 00000000 		.4byte	0
 12229 040f 00000000 		.4byte	0
 12230              	.LLST35:
 12231 0413 8C000000 		.4byte	.LVL158
 12232 0417 EA000000 		.4byte	.LVL166
 12233 041b 0200     		.2byte	0x2
 12234 041d 3A       		.byte	0x3a
 12235 041e 9F       		.byte	0x9f
 12236 041f 00000000 		.4byte	0
 12237 0423 00000000 		.4byte	0
 12238              	.LLST36:
 12239 0427 94000000 		.4byte	.LVL159
 12240 042b 9F000000 		.4byte	.LVL160-1
 12241 042f 0100     		.2byte	0x1
 12242 0431 50       		.byte	0x50
 12243 0432 9F000000 		.4byte	.LVL160-1
ARM GAS  C:\Users\AHMED~1.ELE\AppData\Local\Temp\ccfMkwD6.s 			page 228


 12244 0436 EA000000 		.4byte	.LVL166
 12245 043a 0100     		.2byte	0x1
 12246 043c 55       		.byte	0x55
 12247 043d 00000000 		.4byte	0
 12248 0441 00000000 		.4byte	0
 12249              	.LLST37:
 12250 0445 BE000000 		.4byte	.LVL185
 12251 0449 CE000000 		.4byte	.LVL186
 12252 044d 0100     		.2byte	0x1
 12253 044f 50       		.byte	0x50
 12254 0450 D4000000 		.4byte	.LVL187
 12255 0454 D6000000 		.4byte	.LVL188
 12256 0458 0100     		.2byte	0x1
 12257 045a 50       		.byte	0x50
 12258 045b 00000000 		.4byte	0
 12259 045f 00000000 		.4byte	0
 12260              	.LLST38:
 12261 0463 18000000 		.4byte	.LVL170
 12262 0467 23000000 		.4byte	.LVL171-1
 12263 046b 0100     		.2byte	0x1
 12264 046d 50       		.byte	0x50
 12265 046e 23000000 		.4byte	.LVL171-1
 12266 0472 4E000000 		.4byte	.LVL175
 12267 0476 0100     		.2byte	0x1
 12268 0478 55       		.byte	0x55
 12269 0479 00000000 		.4byte	0
 12270 047d 00000000 		.4byte	0
 12271              	.LLST39:
 12272 0481 4C000000 		.4byte	.LVL174
 12273 0485 57000000 		.4byte	.LVL176-1
 12274 0489 0100     		.2byte	0x1
 12275 048b 50       		.byte	0x50
 12276 048c 57000000 		.4byte	.LVL176-1
 12277 0490 82000000 		.4byte	.LVL180
 12278 0494 0100     		.2byte	0x1
 12279 0496 55       		.byte	0x55
 12280 0497 00000000 		.4byte	0
 12281 049b 00000000 		.4byte	0
 12282              	.LLST40:
 12283 049f 80000000 		.4byte	.LVL179
 12284 04a3 8B000000 		.4byte	.LVL181-1
 12285 04a7 0100     		.2byte	0x1
 12286 04a9 50       		.byte	0x50
 12287 04aa 8B000000 		.4byte	.LVL181-1
 12288 04ae AE000000 		.4byte	.LVL184
 12289 04b2 0100     		.2byte	0x1
 12290 04b4 55       		.byte	0x55
 12291 04b5 00000000 		.4byte	0
 12292 04b9 00000000 		.4byte	0
 12293              	.LLST41:
 12294 04bd D4000000 		.4byte	.LVL187
 12295 04c1 32010000 		.4byte	.LVL195
 12296 04c5 0200     		.2byte	0x2
 12297 04c7 3C       		.byte	0x3c
 12298 04c8 9F       		.byte	0x9f
 12299 04c9 00000000 		.4byte	0
 12300 04cd 00000000 		.4byte	0
ARM GAS  C:\Users\AHMED~1.ELE\AppData\Local\Temp\ccfMkwD6.s 			page 229


 12301              	.LLST42:
 12302 04d1 DC000000 		.4byte	.LVL189
 12303 04d5 E7000000 		.4byte	.LVL190-1
 12304 04d9 0100     		.2byte	0x1
 12305 04db 50       		.byte	0x50
 12306 04dc E7000000 		.4byte	.LVL190-1
 12307 04e0 32010000 		.4byte	.LVL195
 12308 04e4 0100     		.2byte	0x1
 12309 04e6 56       		.byte	0x56
 12310 04e7 00000000 		.4byte	0
 12311 04eb 00000000 		.4byte	0
 12312              	.LLST43:
 12313 04ef 24000000 		.4byte	.LVL201
 12314 04f3 6A000000 		.4byte	.LVL207
 12315 04f7 0200     		.2byte	0x2
 12316 04f9 3A       		.byte	0x3a
 12317 04fa 9F       		.byte	0x9f
 12318 04fb 00000000 		.4byte	0
 12319 04ff 00000000 		.4byte	0
 12320              	.LLST44:
 12321 0503 2C000000 		.4byte	.LVL202
 12322 0507 37000000 		.4byte	.LVL203-1
 12323 050b 0100     		.2byte	0x1
 12324 050d 50       		.byte	0x50
 12325 050e 37000000 		.4byte	.LVL203-1
 12326 0512 6A000000 		.4byte	.LVL207
 12327 0516 0100     		.2byte	0x1
 12328 0518 54       		.byte	0x54
 12329 0519 00000000 		.4byte	0
 12330 051d 00000000 		.4byte	0
 12331              	.LLST45:
 12332 0521 1E000000 		.4byte	.LVL211
 12333 0525 29000000 		.4byte	.LVL212-1
 12334 0529 0100     		.2byte	0x1
 12335 052b 50       		.byte	0x50
 12336 052c 29000000 		.4byte	.LVL212-1
 12337 0530 78000000 		.4byte	.LVL217
 12338 0534 0100     		.2byte	0x1
 12339 0536 55       		.byte	0x55
 12340 0537 00000000 		.4byte	0
 12341 053b 00000000 		.4byte	0
 12342              	.LLST46:
 12343 053f 0A000000 		.4byte	.LVL219
 12344 0543 15000000 		.4byte	.LVL220-1
 12345 0547 0100     		.2byte	0x1
 12346 0549 50       		.byte	0x50
 12347 054a 15000000 		.4byte	.LVL220-1
 12348 054e 48000000 		.4byte	.LVL224
 12349 0552 0100     		.2byte	0x1
 12350 0554 54       		.byte	0x54
 12351 0555 00000000 		.4byte	0
 12352 0559 00000000 		.4byte	0
 12353              	.LLST47:
 12354 055d 4A000000 		.4byte	.LVL225
 12355 0561 92000000 		.4byte	.LVL232
 12356 0565 0200     		.2byte	0x2
 12357 0567 40       		.byte	0x40
ARM GAS  C:\Users\AHMED~1.ELE\AppData\Local\Temp\ccfMkwD6.s 			page 230


 12358 0568 9F       		.byte	0x9f
 12359 0569 00000000 		.4byte	0
 12360 056d 00000000 		.4byte	0
 12361              	.LLST48:
 12362 0571 52000000 		.4byte	.LVL226
 12363 0575 5D000000 		.4byte	.LVL227-1
 12364 0579 0100     		.2byte	0x1
 12365 057b 50       		.byte	0x50
 12366 057c 5D000000 		.4byte	.LVL227-1
 12367 0580 92000000 		.4byte	.LVL232
 12368 0584 0100     		.2byte	0x1
 12369 0586 55       		.byte	0x55
 12370 0587 00000000 		.4byte	0
 12371 058b 00000000 		.4byte	0
 12372              	.LLST49:
 12373 058f 30000000 		.4byte	.LVL236
 12374 0593 3B000000 		.4byte	.LVL237-1
 12375 0597 0100     		.2byte	0x1
 12376 0599 50       		.byte	0x50
 12377 059a 3B000000 		.4byte	.LVL237-1
 12378 059e 7A000000 		.4byte	.LVL243
 12379 05a2 0100     		.2byte	0x1
 12380 05a4 54       		.byte	0x54
 12381 05a5 BC000000 		.4byte	.LVL250
 12382 05a9 C2000000 		.4byte	.LVL252
 12383 05ad 0100     		.2byte	0x1
 12384 05af 54       		.byte	0x54
 12385 05b0 00000000 		.4byte	0
 12386 05b4 00000000 		.4byte	0
 12387              	.LLST50:
 12388 05b8 70000000 		.4byte	.LVL241
 12389 05bc BC000000 		.4byte	.LVL250
 12390 05c0 0200     		.2byte	0x2
 12391 05c2 3C       		.byte	0x3c
 12392 05c3 9F       		.byte	0x9f
 12393 05c4 00000000 		.4byte	0
 12394 05c8 00000000 		.4byte	0
 12395              	.LLST51:
 12396 05cc 78000000 		.4byte	.LVL242
 12397 05d0 83000000 		.4byte	.LVL244-1
 12398 05d4 0100     		.2byte	0x1
 12399 05d6 50       		.byte	0x50
 12400 05d7 83000000 		.4byte	.LVL244-1
 12401 05db A4000000 		.4byte	.LVL247
 12402 05df 0100     		.2byte	0x1
 12403 05e1 54       		.byte	0x54
 12404 05e2 00000000 		.4byte	0
 12405 05e6 00000000 		.4byte	0
 12406              	.LLST52:
 12407 05ea 2E000000 		.4byte	.LVL256
 12408 05ee 7C000000 		.4byte	.LVL264
 12409 05f2 0200     		.2byte	0x2
 12410 05f4 3F       		.byte	0x3f
 12411 05f5 9F       		.byte	0x9f
 12412 05f6 00000000 		.4byte	0
 12413 05fa 00000000 		.4byte	0
 12414              	.LLST53:
ARM GAS  C:\Users\AHMED~1.ELE\AppData\Local\Temp\ccfMkwD6.s 			page 231


 12415 05fe 36000000 		.4byte	.LVL257
 12416 0602 41000000 		.4byte	.LVL258-1
 12417 0606 0100     		.2byte	0x1
 12418 0608 50       		.byte	0x50
 12419 0609 41000000 		.4byte	.LVL258-1
 12420 060d 64000000 		.4byte	.LVL261
 12421 0611 0100     		.2byte	0x1
 12422 0613 54       		.byte	0x54
 12423 0614 00000000 		.4byte	0
 12424 0618 00000000 		.4byte	0
 12425              	.LLST54:
 12426 061c B0000000 		.4byte	.LVL290
 12427 0620 BE000000 		.4byte	.LVL291
 12428 0624 0100     		.2byte	0x1
 12429 0626 50       		.byte	0x50
 12430 0627 C6000000 		.4byte	.LVL292
 12431 062b C8000000 		.4byte	.LVL293
 12432 062f 0100     		.2byte	0x1
 12433 0631 50       		.byte	0x50
 12434 0632 00000000 		.4byte	0
 12435 0636 00000000 		.4byte	0
 12436              	.LLST55:
 12437 063a 0A000000 		.4byte	.LVL275
 12438 063e 15000000 		.4byte	.LVL276-1
 12439 0642 0100     		.2byte	0x1
 12440 0644 50       		.byte	0x50
 12441 0645 15000000 		.4byte	.LVL276-1
 12442 0649 40000000 		.4byte	.LVL280
 12443 064d 0100     		.2byte	0x1
 12444 064f 54       		.byte	0x54
 12445 0650 00000000 		.4byte	0
 12446 0654 00000000 		.4byte	0
 12447              	.LLST56:
 12448 0658 3E000000 		.4byte	.LVL279
 12449 065c 49000000 		.4byte	.LVL281-1
 12450 0660 0100     		.2byte	0x1
 12451 0662 50       		.byte	0x50
 12452 0663 49000000 		.4byte	.LVL281-1
 12453 0667 74000000 		.4byte	.LVL285
 12454 066b 0100     		.2byte	0x1
 12455 066d 54       		.byte	0x54
 12456 066e 00000000 		.4byte	0
 12457 0672 00000000 		.4byte	0
 12458              	.LLST57:
 12459 0676 72000000 		.4byte	.LVL284
 12460 067a 7D000000 		.4byte	.LVL286-1
 12461 067e 0100     		.2byte	0x1
 12462 0680 50       		.byte	0x50
 12463 0681 7D000000 		.4byte	.LVL286-1
 12464 0685 A0000000 		.4byte	.LVL289
 12465 0689 0100     		.2byte	0x1
 12466 068b 54       		.byte	0x54
 12467 068c 00000000 		.4byte	0
 12468 0690 00000000 		.4byte	0
 12469              		.section	.debug_aranges,"",%progbits
 12470 0000 7C000000 		.4byte	0x7c
 12471 0004 0200     		.2byte	0x2
ARM GAS  C:\Users\AHMED~1.ELE\AppData\Local\Temp\ccfMkwD6.s 			page 232


 12472 0006 00000000 		.4byte	.Ldebug_info0
 12473 000a 04       		.byte	0x4
 12474 000b 00       		.byte	0
 12475 000c 0000     		.2byte	0
 12476 000e 0000     		.2byte	0
 12477 0010 00000000 		.4byte	.LFB0
 12478 0014 24000000 		.4byte	.LFE0-.LFB0
 12479 0018 00000000 		.4byte	.LFB1
 12480 001c 54000000 		.4byte	.LFE1-.LFB1
 12481 0020 00000000 		.4byte	.LFB2
 12482 0024 8C020000 		.4byte	.LFE2-.LFB2
 12483 0028 00000000 		.4byte	.LFB3
 12484 002c 20020000 		.4byte	.LFE3-.LFB3
 12485 0030 00000000 		.4byte	.LFB4
 12486 0034 14010000 		.4byte	.LFE4-.LFB4
 12487 0038 00000000 		.4byte	.LFB5
 12488 003c 14010000 		.4byte	.LFE5-.LFB5
 12489 0040 00000000 		.4byte	.LFB6
 12490 0044 54010000 		.4byte	.LFE6-.LFB6
 12491 0048 00000000 		.4byte	.LFB7
 12492 004c B4000000 		.4byte	.LFE7-.LFB7
 12493 0050 00000000 		.4byte	.LFB8
 12494 0054 84000000 		.4byte	.LFE8-.LFB8
 12495 0058 00000000 		.4byte	.LFB9
 12496 005c AC000000 		.4byte	.LFE9-.LFB9
 12497 0060 00000000 		.4byte	.LFB10
 12498 0064 DC000000 		.4byte	.LFE10-.LFB10
 12499 0068 00000000 		.4byte	.LFB11
 12500 006c 08010000 		.4byte	.LFE11-.LFB11
 12501 0070 00000000 		.4byte	.LFB12
 12502 0074 EC000000 		.4byte	.LFE12-.LFB12
 12503 0078 00000000 		.4byte	0
 12504 007c 00000000 		.4byte	0
 12505              		.section	.debug_ranges,"",%progbits
 12506              	.Ldebug_ranges0:
 12507 0000 AA000000 		.4byte	.LBB10
 12508 0004 AC000000 		.4byte	.LBE10
 12509 0008 B0000000 		.4byte	.LBB11
 12510 000c B2000000 		.4byte	.LBE11
 12511 0010 B8000000 		.4byte	.LBB12
 12512 0014 E6000000 		.4byte	.LBE12
 12513 0018 00000000 		.4byte	0
 12514 001c 00000000 		.4byte	0
 12515 0020 7C010000 		.4byte	.LBB14
 12516 0024 7E010000 		.4byte	.LBE14
 12517 0028 82010000 		.4byte	.LBB15
 12518 002c 84010000 		.4byte	.LBE15
 12519 0030 8A010000 		.4byte	.LBB16
 12520 0034 9E010000 		.4byte	.LBE16
 12521 0038 00000000 		.4byte	0
 12522 003c 00000000 		.4byte	0
 12523 0040 00000000 		.4byte	.LFB0
 12524 0044 24000000 		.4byte	.LFE0
 12525 0048 00000000 		.4byte	.LFB1
 12526 004c 54000000 		.4byte	.LFE1
 12527 0050 00000000 		.4byte	.LFB2
 12528 0054 8C020000 		.4byte	.LFE2
ARM GAS  C:\Users\AHMED~1.ELE\AppData\Local\Temp\ccfMkwD6.s 			page 233


 12529 0058 00000000 		.4byte	.LFB3
 12530 005c 20020000 		.4byte	.LFE3
 12531 0060 00000000 		.4byte	.LFB4
 12532 0064 14010000 		.4byte	.LFE4
 12533 0068 00000000 		.4byte	.LFB5
 12534 006c 14010000 		.4byte	.LFE5
 12535 0070 00000000 		.4byte	.LFB6
 12536 0074 54010000 		.4byte	.LFE6
 12537 0078 00000000 		.4byte	.LFB7
 12538 007c B4000000 		.4byte	.LFE7
 12539 0080 00000000 		.4byte	.LFB8
 12540 0084 84000000 		.4byte	.LFE8
 12541 0088 00000000 		.4byte	.LFB9
 12542 008c AC000000 		.4byte	.LFE9
 12543 0090 00000000 		.4byte	.LFB10
 12544 0094 DC000000 		.4byte	.LFE10
 12545 0098 00000000 		.4byte	.LFB11
 12546 009c 08010000 		.4byte	.LFE11
 12547 00a0 00000000 		.4byte	.LFB12
 12548 00a4 EC000000 		.4byte	.LFE12
 12549 00a8 00000000 		.4byte	0
 12550 00ac 00000000 		.4byte	0
 12551              		.section	.debug_line,"",%progbits
 12552              	.Ldebug_line0:
 12553 0000 1F040000 		.section	.debug_str,"MS",%progbits,1
 12553      02004F01 
 12553      00000201 
 12553      FB0E0D00 
 12553      01010101 
 12554              	.LASF711:
 12555 0000 4B444C4C 		.ascii	"KDLL_GETRSAPUBKEY\000"
 12555      5F474554 
 12555      52534150 
 12555      55424B45 
 12555      5900
 12556              	.LASF368:
 12557 0012 4F535F46 		.ascii	"OS_FN_DRIVER_REGISTER\000"
 12557      4E5F4452 
 12557      49564552 
 12557      5F524547 
 12557      49535445 
 12558              	.LASF745:
 12559 0028 47657450 		.ascii	"GetPIN\000"
 12559      494E00
 12560              	.LASF10:
 12561 002f 63686172 		.ascii	"char\000"
 12561      00
 12562              	.LASF49:
 12563 0034 4F535F46 		.ascii	"OS_FN_KBD_INKEY\000"
 12563      4E5F4B42 
 12563      445F494E 
 12563      4B455900 
 12564              	.LASF343:
 12565 0044 4F535F46 		.ascii	"OS_FN_CODEC_CLOSE\000"
 12565      4E5F434F 
 12565      4445435F 
 12565      434C4F53 
ARM GAS  C:\Users\AHMED~1.ELE\AppData\Local\Temp\ccfMkwD6.s 			page 234


 12565      4500
 12566              	.LASF455:
 12567 0056 4F535F46 		.ascii	"OS_FN_GET_CALLID\000"
 12567      4E5F4745 
 12567      545F4341 
 12567      4C4C4944 
 12567      00
 12568              	.LASF581:
 12569 0067 41504D5F 		.ascii	"APM_CLRKEY\000"
 12569      434C524B 
 12569      455900
 12570              	.LASF605:
 12571 0072 41504D5F 		.ascii	"APM_GETLOGOTBL\000"
 12571      4745544C 
 12571      4F474F54 
 12571      424C00
 12572              	.LASF221:
 12573 0081 4F535F46 		.ascii	"OS_FN_FILE_INIT_SEARCH\000"
 12573      4E5F4649 
 12573      4C455F49 
 12573      4E49545F 
 12573      53454152 
 12574              	.LASF721:
 12575 0098 4B444C4C 		.ascii	"KDLL_AESDECRYPT\000"
 12575      5F414553 
 12575      44454352 
 12575      59505400 
 12576              	.LASF11:
 12577 00a8 73697A65 		.ascii	"size_t\000"
 12577      5F7400
 12578              	.LASF201:
 12579 00af 4F535F46 		.ascii	"OS_FN_FILE_SEEK\000"
 12579      4E5F4649 
 12579      4C455F53 
 12579      45454B00 
 12580              	.LASF9:
 12581 00bf 73697A65 		.ascii	"sizetype\000"
 12581      74797065 
 12581      00
 12582              	.LASF442:
 12583 00c8 4F535F46 		.ascii	"OS_FN_NFC_IC_REG_DIRECT_WRITE\000"
 12583      4E5F4E46 
 12583      435F4943 
 12583      5F524547 
 12583      5F444952 
 12584              	.LASF193:
 12585 00e6 4F535F46 		.ascii	"OS_FN_FILE_CREATE_OWNER\000"
 12585      4E5F4649 
 12585      4C455F43 
 12585      52454154 
 12585      455F4F57 
 12586              	.LASF331:
 12587 00fe 4F535F46 		.ascii	"OS_FN_GPRS_SMS_SEND\000"
 12587      4E5F4750 
 12587      52535F53 
 12587      4D535F53 
 12587      454E4400 
ARM GAS  C:\Users\AHMED~1.ELE\AppData\Local\Temp\ccfMkwD6.s 			page 235


 12588              	.LASF609:
 12589 0112 41504D5F 		.ascii	"APM_SETPENDING\000"
 12589      53455450 
 12589      454E4449 
 12589      4E4700
 12590              	.LASF597:
 12591 0121 41504D5F 		.ascii	"APM_GETCARDTBL\000"
 12591      47455443 
 12591      41524454 
 12591      424C00
 12592              	.LASF202:
 12593 0130 4F535F46 		.ascii	"OS_FN_FILE_READ\000"
 12593      4E5F4649 
 12593      4C455F52 
 12593      45414400 
 12594              	.LASF360:
 12595 0140 4F535F46 		.ascii	"OS_FN_CLICC_LED_ON\000"
 12595      4E5F434C 
 12595      4943435F 
 12595      4C45445F 
 12595      4F4E00
 12596              	.LASF680:
 12597 0153 625F6361 		.ascii	"b_card_expired\000"
 12597      72645F65 
 12597      78706972 
 12597      656400
 12598              	.LASF367:
 12599 0162 4F535F46 		.ascii	"OS_FN_USBHOST_DEVICEMAP\000"
 12599      4E5F5553 
 12599      42484F53 
 12599      545F4445 
 12599      56494345 
 12600              	.LASF539:
 12601 017a 464F5045 		.ascii	"FOPENMW\000"
 12601      4E4D5700 
 12602              	.LASF491:
 12603 0182 4F535F46 		.ascii	"OS_FN_SYS_THREAD_CREATE\000"
 12603      4E5F5359 
 12603      535F5448 
 12603      52454144 
 12603      5F435245 
 12604              	.LASF637:
 12605 019a 625F7965 		.ascii	"b_year\000"
 12605      617200
 12606              	.LASF564:
 12607 01a1 44495350 		.ascii	"DISP_SETPMW\000"
 12607      5F534554 
 12607      504D5700 
 12608              	.LASF342:
 12609 01ad 4F535F46 		.ascii	"OS_FN_CODEC_OPEN\000"
 12609      4E5F434F 
 12609      4445435F 
 12609      4F50454E 
 12609      00
 12610              	.LASF572:
 12611 01be 534D535F 		.ascii	"SMS_TX_MW\000"
 12611      54585F4D 
ARM GAS  C:\Users\AHMED~1.ELE\AppData\Local\Temp\ccfMkwD6.s 			page 236


 12611      5700
 12612              	.LASF109:
 12613 01c8 4F535F46 		.ascii	"OS_FN_COM3_SREAD\000"
 12613      4E5F434F 
 12613      4D335F53 
 12613      52454144 
 12613      00
 12614              	.LASF197:
 12615 01d9 4F535F46 		.ascii	"OS_FN_FILE_EXIST\000"
 12615      4E5F4649 
 12615      4C455F45 
 12615      58495354 
 12615      00
 12616              	.LASF507:
 12617 01ea 4F535F46 		.ascii	"OS_FN_IMG_SENSOR_LED_OPEN\000"
 12617      4E5F494D 
 12617      475F5345 
 12617      4E534F52 
 12617      5F4C4544 
 12618              	.LASF146:
 12619 0204 4F535F46 		.ascii	"OS_FN_SM4_DECRYPT\000"
 12619      4E5F534D 
 12619      345F4445 
 12619      43525950 
 12619      5400
 12620              	.LASF616:
 12621 0216 41504D5F 		.ascii	"APM_STIS_ADDTBL\000"
 12621      53544953 
 12621      5F414444 
 12621      54424C00 
 12622              	.LASF515:
 12623 0226 4F535F46 		.ascii	"OS_FN_GPS_GET_DETAIL_INFO\000"
 12623      4E5F4750 
 12623      535F4745 
 12623      545F4445 
 12623      5441494C 
 12624              	.LASF327:
 12625 0240 4F535F46 		.ascii	"OS_FN_GPRS_GET_CID\000"
 12625      4E5F4750 
 12625      52535F47 
 12625      45545F43 
 12625      494400
 12626              	.LASF702:
 12627 0253 4B444C4C 		.ascii	"KDLL_SETOPMODE\000"
 12627      5F534554 
 12627      4F504D4F 
 12627      444500
 12628              	.LASF396:
 12629 0262 4F535F46 		.ascii	"OS_FN_TAMPER_RESET_STATUS\000"
 12629      4E5F5441 
 12629      4D504552 
 12629      5F524553 
 12629      45545F53 
 12630              	.LASF469:
 12631 027c 4F535F46 		.ascii	"OS_FN_POWER\000"
 12631      4E5F504F 
 12631      57455200 
ARM GAS  C:\Users\AHMED~1.ELE\AppData\Local\Temp\ccfMkwD6.s 			page 237


 12632              	.LASF632:
 12633 0288 41504D5F 		.ascii	"APM_MERCHFUNC\000"
 12633      4D455243 
 12633      4846554E 
 12633      4300
 12634              	.LASF497:
 12635 0296 4F535F46 		.ascii	"OS_FN_WIFI_GET_DEVICE_STATE\000"
 12635      4E5F5749 
 12635      46495F47 
 12635      45545F44 
 12635      45564943 
 12636              	.LASF43:
 12637 02b2 44454641 		.ascii	"DEFAULT_TRANS\000"
 12637      554C545F 
 12637      5452414E 
 12637      5300
 12638              	.LASF317:
 12639 02c0 4F535F46 		.ascii	"OS_FN_ADC_CH_DISABLE\000"
 12639      4E5F4144 
 12639      435F4348 
 12639      5F444953 
 12639      41424C45 
 12640              	.LASF243:
 12641 02d5 4F535F46 		.ascii	"OS_FN_MMC_SIZE\000"
 12641      4E5F4D4D 
 12641      435F5349 
 12641      5A4500
 12642              	.LASF670:
 12643 02e4 625F5069 		.ascii	"b_PinVerified\000"
 12643      6E566572 
 12643      69666965 
 12643      6400
 12644              	.LASF512:
 12645 02f2 4F535F46 		.ascii	"OS_FN_TAMPER_UNLOCK\000"
 12645      4E5F5441 
 12645      4D504552 
 12645      5F554E4C 
 12645      4F434B00 
 12646              	.LASF748:
 12647 0306 52657365 		.ascii	"ResetDukptIkey\000"
 12647      7444756B 
 12647      7074496B 
 12647      657900
 12648              	.LASF210:
 12649 0315 4F535F46 		.ascii	"OS_FN_FILE_DSEARCH_ALL\000"
 12649      4E5F4649 
 12649      4C455F44 
 12649      53454152 
 12649      43485F41 
 12650              	.LASF464:
 12651 032c 4F535F46 		.ascii	"OS_FN_DMK_KVC_READ\000"
 12651      4E5F444D 
 12651      4B5F4B56 
 12651      435F5245 
 12651      414400
 12652              	.LASF56:
 12653 033f 4F535F46 		.ascii	"OS_FN_TIMER_SET\000"
ARM GAS  C:\Users\AHMED~1.ELE\AppData\Local\Temp\ccfMkwD6.s 			page 238


 12653      4E5F5449 
 12653      4D45525F 
 12653      53455400 
 12654              	.LASF35:
 12655 034f 4553414C 		.ascii	"ESALE_UNDER_LMT\000"
 12655      455F554E 
 12655      4445525F 
 12655      4C4D5400 
 12656              	.LASF725:
 12657 035f 6B657973 		.ascii	"keysts\000"
 12657      747300
 12658              	.LASF174:
 12659 0366 4F535F46 		.ascii	"OS_FN_BUFMAN_FREE\000"
 12659      4E5F4255 
 12659      464D414E 
 12659      5F465245 
 12659      4500
 12660              	.LASF322:
 12661 0378 4F535F46 		.ascii	"OS_FN_GPRS_AT_RESP\000"
 12661      4E5F4750 
 12661      52535F41 
 12661      545F5245 
 12661      535000
 12662              	.LASF688:
 12663 038b 74657874 		.ascii	"text\000"
 12663      00
 12664              	.LASF577:
 12665 0390 46465452 		.ascii	"FFTRUNCATEMW\000"
 12665      554E4341 
 12665      54454D57 
 12665      00
 12666              	.LASF674:
 12667 039d 735F6474 		.ascii	"s_dtg\000"
 12667      6700
 12668              	.LASF37:
 12669 03a3 53414C45 		.ascii	"SALE_CTL\000"
 12669      5F43544C 
 12669      00
 12670              	.LASF675:
 12671 03ac 735F6963 		.ascii	"s_icc_data\000"
 12671      635F6461 
 12671      746100
 12672              	.LASF505:
 12673 03b7 4F535F46 		.ascii	"OS_FN_GPRS_IS_HL6RD_OLD_FRM\000"
 12673      4E5F4750 
 12673      52535F49 
 12673      535F484C 
 12673      3652445F 
 12674              	.LASF306:
 12675 03d3 4F535F46 		.ascii	"OS_FN_MCOM_TXRDY\000"
 12675      4E5F4D43 
 12675      4F4D5F54 
 12675      58524459 
 12675      00
 12676              	.LASF683:
 12677 03e4 73625F70 		.ascii	"sb_proc_code\000"
 12677      726F635F 
ARM GAS  C:\Users\AHMED~1.ELE\AppData\Local\Temp\ccfMkwD6.s 			page 239


 12677      636F6465 
 12677      00
 12678              	.LASF645:
 12679 03f1 625F6169 		.ascii	"b_aid_len\000"
 12679      645F6C65 
 12679      6E00
 12680              	.LASF250:
 12681 03fb 4F535F46 		.ascii	"OS_FN_SLE_OPEN\000"
 12681      4E5F534C 
 12681      455F4F50 
 12681      454E00
 12682              	.LASF77:
 12683 040a 4F535F46 		.ascii	"OS_FN_DISP_BRIGHTNESS\000"
 12683      4E5F4449 
 12683      53505F42 
 12683      52494748 
 12683      544E4553 
 12684              	.LASF333:
 12685 0420 4F535F46 		.ascii	"OS_FN_GPRS_SMS_READ\000"
 12685      4E5F4750 
 12685      52535F53 
 12685      4D535F52 
 12685      45414400 
 12686              	.LASF554:
 12687 0434 49434349 		.ascii	"ICCINSERTEDMW\000"
 12687      4E534552 
 12687      5445444D 
 12687      5700
 12688              	.LASF324:
 12689 0442 4F535F46 		.ascii	"OS_FN_GPRS_READ\000"
 12689      4E5F4750 
 12689      52535F52 
 12689      45414400 
 12690              	.LASF520:
 12691 0452 55534246 		.ascii	"USBFPRT_GENERAL_INFO_IMG_BPP\000"
 12691      5052545F 
 12691      47454E45 
 12691      52414C5F 
 12691      494E464F 
 12692              	.LASF217:
 12693 046f 4F535F46 		.ascii	"OS_FN_FILE_GET_FREE_SPACE\000"
 12693      4E5F4649 
 12693      4C455F47 
 12693      45545F46 
 12693      5245455F 
 12694              	.LASF600:
 12695 0489 41504D5F 		.ascii	"APM_GETACQCOUNT\000"
 12695      47455441 
 12695      4351434F 
 12695      554E5400 
 12696              	.LASF623:
 12697 0499 41504D5F 		.ascii	"APM_GET_REV_REC\000"
 12697      4745545F 
 12697      5245565F 
 12697      52454300 
 12698              	.LASF496:
 12699 04a9 4F535F46 		.ascii	"OS_FN_WIFI_SOCKET_SEND_UDP\000"
ARM GAS  C:\Users\AHMED~1.ELE\AppData\Local\Temp\ccfMkwD6.s 			page 240


 12699      4E5F5749 
 12699      46495F53 
 12699      4F434B45 
 12699      545F5345 
 12700              	.LASF467:
 12701 04c4 4F535F46 		.ascii	"OS_FN_RMB_CONTROL\000"
 12701      4E5F524D 
 12701      425F434F 
 12701      4E54524F 
 12701      4C00
 12702              	.LASF137:
 12703 04d6 4F535F46 		.ascii	"OS_FN_SM2_GET_SIGNATURE\000"
 12703      4E5F534D 
 12703      325F4745 
 12703      545F5349 
 12703      474E4154 
 12704              	.LASF103:
 12705 04ee 4F535F46 		.ascii	"OS_FN_COM3_CLOSE\000"
 12705      4E5F434F 
 12705      4D335F43 
 12705      4C4F5345 
 12705      00
 12706              	.LASF63:
 12707 04ff 4F535F46 		.ascii	"OS_FN_RTC_SET\000"
 12707      4E5F5254 
 12707      435F5345 
 12707      5400
 12708              	.LASF366:
 12709 050d 4F535F46 		.ascii	"OS_FN_USBHOST_DEVINFO\000"
 12709      4E5F5553 
 12709      42484F53 
 12709      545F4445 
 12709      56494E46 
 12710              	.LASF263:
 12711 0523 4F535F46 		.ascii	"OS_FN_MSR_RXLEN\000"
 12711      4E5F4D53 
 12711      525F5258 
 12711      4C454E00 
 12712              	.LASF642:
 12713 0533 625F7365 		.ascii	"b_second\000"
 12713      636F6E64 
 12713      00
 12714              	.LASF376:
 12715 053c 4F535F46 		.ascii	"OS_FN_DEVICE_SEARCH_NEXT\000"
 12715      4E5F4445 
 12715      56494345 
 12715      5F534541 
 12715      5243485F 
 12716              	.LASF641:
 12717 0555 625F6D69 		.ascii	"b_minute\000"
 12717      6E757465 
 12717      00
 12718              	.LASF122:
 12719 055e 4F535F46 		.ascii	"OS_FN_AES_ENCRYPT_BLOCK\000"
 12719      4E5F4145 
 12719      535F454E 
 12719      43525950 
ARM GAS  C:\Users\AHMED~1.ELE\AppData\Local\Temp\ccfMkwD6.s 			page 241


 12719      545F424C 
 12720              	.LASF207:
 12721 0576 4F535F46 		.ascii	"OS_FN_FILE_END\000"
 12721      4E5F4649 
 12721      4C455F45 
 12721      4E4400
 12722              	.LASF234:
 12723 0585 4F535F46 		.ascii	"OS_FN_SAM_SELECT\000"
 12723      4E5F5341 
 12723      4D5F5345 
 12723      4C454354 
 12723      00
 12724              	.LASF451:
 12725 0596 4F535F46 		.ascii	"OS_FN_GPS_ENABLED\000"
 12725      4E5F4750 
 12725      535F454E 
 12725      41424C45 
 12725      4400
 12726              	.LASF427:
 12727 05a8 4F535F46 		.ascii	"OS_FN_BARCODE_STATUS\000"
 12727      4E5F4241 
 12727      52434F44 
 12727      455F5354 
 12727      41545553 
 12728              	.LASF98:
 12729 05bd 4F535F46 		.ascii	"OS_FN_COM2_SEND\000"
 12729      4E5F434F 
 12729      4D325F53 
 12729      454E4400 
 12730              	.LASF232:
 12731 05cd 4F535F46 		.ascii	"OS_FN_SAM_OPEN\000"
 12731      4E5F5341 
 12731      4D5F4F50 
 12731      454E00
 12732              	.LASF523:
 12733 05dc 73625F63 		.ascii	"sb_content\000"
 12733      6F6E7465 
 12733      6E7400
 12734              	.LASF130:
 12735 05e7 4F535F46 		.ascii	"OS_FN_SHA_FINISH\000"
 12735      4E5F5348 
 12735      415F4649 
 12735      4E495348 
 12735      00
 12736              	.LASF411:
 12737 05f8 4F535F46 		.ascii	"OS_FN_MIF_INC\000"
 12737      4E5F4D49 
 12737      465F494E 
 12737      4300
 12738              	.LASF449:
 12739 0606 4F535F46 		.ascii	"OS_FN_GPS_RESP\000"
 12739      4E5F4750 
 12739      535F5245 
 12739      535000
 12740              	.LASF213:
 12741 0615 4F535F46 		.ascii	"OS_FN_FILE_GET_NAME\000"
 12741      4E5F4649 
ARM GAS  C:\Users\AHMED~1.ELE\AppData\Local\Temp\ccfMkwD6.s 			page 242


 12741      4C455F47 
 12741      45545F4E 
 12741      414D4500 
 12742              	.LASF769:
 12743 0629 443A5C47 		.ascii	"D:\\GuadianPro\\Core\\S_MISR\\APP\\MISR\000"
 12743      75616469 
 12743      616E5072 
 12743      6F5C436F 
 12743      72655C53 
 12744              	.LASF640:
 12745 064c 625F686F 		.ascii	"b_hour\000"
 12745      757200
 12746              	.LASF138:
 12747 0653 4F535F46 		.ascii	"OS_FN_SM2_VERIFY_SIGNATURE\000"
 12747      4E5F534D 
 12747      325F5645 
 12747      52494659 
 12747      5F534947 
 12748              	.LASF529:
 12749 066e 434C4F53 		.ascii	"CLOSEMW\000"
 12749      454D5700 
 12750              	.LASF123:
 12751 0676 4F535F46 		.ascii	"OS_FN_AES_DECRYPT_BLOCK\000"
 12751      4E5F4145 
 12751      535F4445 
 12751      43525950 
 12751      545F424C 
 12752              	.LASF149:
 12753 068e 4F535F46 		.ascii	"OS_FN_KEY_DES\000"
 12753      4E5F4B45 
 12753      595F4445 
 12753      5300
 12754              	.LASF13:
 12755 069c 42595445 		.ascii	"BYTE\000"
 12755      00
 12756              	.LASF434:
 12757 06a1 4F535F46 		.ascii	"OS_FN_WIFI_PROFILES_WRITE\000"
 12757      4E5F5749 
 12757      46495F50 
 12757      524F4649 
 12757      4C45535F 
 12758              	.LASF147:
 12759 06bb 4F535F46 		.ascii	"OS_FN_KEY_SAVE\000"
 12759      4E5F4B45 
 12759      595F5341 
 12759      564500
 12760              	.LASF120:
 12761 06ca 4F535F46 		.ascii	"OS_FN_RSA_PRIVATE\000"
 12761      4E5F5253 
 12761      415F5052 
 12761      49564154 
 12761      4500
 12762              	.LASF282:
 12763 06dc 4F535F46 		.ascii	"OS_FN_FL_PGM\000"
 12763      4E5F464C 
 12763      5F50474D 
 12763      00
ARM GAS  C:\Users\AHMED~1.ELE\AppData\Local\Temp\ccfMkwD6.s 			page 243


 12764              	.LASF224:
 12765 06e9 4F535F46 		.ascii	"OS_FN_FILE_RMDIR\000"
 12765      4E5F4649 
 12765      4C455F52 
 12765      4D444952 
 12765      00
 12766              	.LASF470:
 12767 06fa 4F535F46 		.ascii	"OS_FN_CLICC_DEBUG\000"
 12767      4E5F434C 
 12767      4943435F 
 12767      44454255 
 12767      4700
 12768              	.LASF618:
 12769 070c 41504D5F 		.ascii	"APM_TERMDATA_UPD\000"
 12769      5445524D 
 12769      44415441 
 12769      5F555044 
 12769      00
 12770              	.LASF308:
 12771 071d 4F535F46 		.ascii	"OS_FN_MCOM_SSEND\000"
 12771      4E5F4D43 
 12771      4F4D5F53 
 12771      53454E44 
 12771      00
 12772              	.LASF370:
 12773 072e 4F535F46 		.ascii	"OS_FN_DEVICE_ALLOC\000"
 12773      4E5F4445 
 12773      56494345 
 12773      5F414C4C 
 12773      4F4300
 12774              	.LASF105:
 12775 0741 4F535F46 		.ascii	"OS_FN_COM3_TXRDY\000"
 12775      4E5F434F 
 12775      4D335F54 
 12775      58524459 
 12775      00
 12776              	.LASF481:
 12777 0752 4F535F46 		.ascii	"OS_FN_FPRT_INFO_GET\000"
 12777      4E5F4650 
 12777      52545F49 
 12777      4E464F5F 
 12777      47455400 
 12778              	.LASF226:
 12779 0766 4F535F46 		.ascii	"OS_FN_FILE_SYNC\000"
 12779      4E5F4649 
 12779      4C455F53 
 12779      594E4300 
 12780              	.LASF477:
 12781 0776 4F535F46 		.ascii	"OS_FN_FPRT_OPEN\000"
 12781      4E5F4650 
 12781      52545F4F 
 12781      50454E00 
 12782              	.LASF540:
 12783 0786 46434C4F 		.ascii	"FCLOSEMW\000"
 12783      53454D57 
 12783      00
 12784              	.LASF535:
ARM GAS  C:\Users\AHMED~1.ELE\AppData\Local\Temp\ccfMkwD6.s 			page 244


 12785 078f 4745544C 		.ascii	"GETLASTERRMW\000"
 12785      41535445 
 12785      52524D57 
 12785      00
 12786              	.LASF264:
 12787 079c 4F535F46 		.ascii	"OS_FN_MSR_GETC\000"
 12787      4E5F4D53 
 12787      525F4745 
 12787      544300
 12788              	.LASF528:
 12789 07ab 4F50454E 		.ascii	"OPENMW\000"
 12789      4D5700
 12790              	.LASF753:
 12791 07b2 6B657973 		.ascii	"keysize\000"
 12791      697A6500 
 12792              	.LASF419:
 12793 07ba 4F535F46 		.ascii	"OS_FN_MIF_INFO_SET\000"
 12793      4E5F4D49 
 12793      465F494E 
 12793      464F5F53 
 12793      455400
 12794              	.LASF384:
 12795 07cd 4F535F46 		.ascii	"OS_FN_USBOTG_GET_STATE\000"
 12795      4E5F5553 
 12795      424F5447 
 12795      5F474554 
 12795      5F535441 
 12796              	.LASF592:
 12797 07e4 41504D5F 		.ascii	"APM_FLUSHCOMM\000"
 12797      464C5553 
 12797      48434F4D 
 12797      4D00
 12798              	.LASF5:
 12799 07f2 6C6F6E67 		.ascii	"long int\000"
 12799      20696E74 
 12799      00
 12800              	.LASF701:
 12801 07fb 4B444C4C 		.ascii	"KDLL_KEYX99MAC\000"
 12801      5F4B4559 
 12801      5839394D 
 12801      414300
 12802              	.LASF615:
 12803 080a 41504D5F 		.ascii	"APM_STIS_CLR\000"
 12803      53544953 
 12803      5F434C52 
 12803      00
 12804              	.LASF754:
 12805 0817 6B65796C 		.ascii	"keylen\000"
 12805      656E00
 12806              	.LASF173:
 12807 081e 4F535F46 		.ascii	"OS_FN_BUFMAN_ALLOC\000"
 12807      4E5F4255 
 12807      464D414E 
 12807      5F414C4C 
 12807      4F4300
 12808              	.LASF84:
 12809 0831 4F535F46 		.ascii	"OS_FN_COM1_OPEN\000"
ARM GAS  C:\Users\AHMED~1.ELE\AppData\Local\Temp\ccfMkwD6.s 			page 245


 12809      4E5F434F 
 12809      4D315F4F 
 12809      50454E00 
 12810              	.LASF328:
 12811 0841 4F535F46 		.ascii	"OS_FN_GPRS_READ_USSD\000"
 12811      4E5F4750 
 12811      52535F52 
 12811      4541445F 
 12811      55535344 
 12812              	.LASF139:
 12813 0856 4F535F46 		.ascii	"OS_FN_SM2_ENCRYPT\000"
 12813      4E5F534D 
 12813      325F454E 
 12813      43525950 
 12813      5400
 12814              	.LASF689:
 12815 0868 5452414E 		.ascii	"TRANS_DATA\000"
 12815      535F4441 
 12815      544100
 12816              	.LASF488:
 12817 0873 4F535F46 		.ascii	"OS_FN_GCM_AES_PROCESS\000"
 12817      4E5F4743 
 12817      4D5F4145 
 12817      535F5052 
 12817      4F434553 
 12818              	.LASF372:
 12819 0889 4F535F46 		.ascii	"OS_FN_DEVICE_UNREGISTER\000"
 12819      4E5F4445 
 12819      56494345 
 12819      5F554E52 
 12819      45474953 
 12820              	.LASF136:
 12821 08a1 4F535F46 		.ascii	"OS_FN_SM2_FREE_CURVE\000"
 12821      4E5F534D 
 12821      325F4652 
 12821      45455F43 
 12821      55525645 
 12822              	.LASF513:
 12823 08b6 4F535F46 		.ascii	"OS_FN_BATT_LEVEL2\000"
 12823      4E5F4241 
 12823      54545F4C 
 12823      4556454C 
 12823      3200
 12824              	.LASF316:
 12825 08c8 4F535F46 		.ascii	"OS_FN_ADC_CH_ENABLE\000"
 12825      4E5F4144 
 12825      435F4348 
 12825      5F454E41 
 12825      424C4500 
 12826              	.LASF649:
 12827 08dc 73625F74 		.ascii	"sb_tag_9f26\000"
 12827      61675F39 
 12827      66323600 
 12828              	.LASF288:
 12829 08e8 4F535F46 		.ascii	"OS_FN_FL_COPYB_START\000"
 12829      4E5F464C 
 12829      5F434F50 
ARM GAS  C:\Users\AHMED~1.ELE\AppData\Local\Temp\ccfMkwD6.s 			page 246


 12829      59425F53 
 12829      54415254 
 12830              	.LASF75:
 12831 08fd 4F535F46 		.ascii	"OS_FN_DISP_TEXTC\000"
 12831      4E5F4449 
 12831      53505F54 
 12831      45585443 
 12831      00
 12832              	.LASF588:
 12833 090e 41504D5F 		.ascii	"APM_PACKCOMM\000"
 12833      5041434B 
 12833      434F4D4D 
 12833      00
 12834              	.LASF347:
 12835 091b 4F535F46 		.ascii	"OS_FN_CODEC_STATUS\000"
 12835      4E5F434F 
 12835      4445435F 
 12835      53544154 
 12835      555300
 12836              	.LASF209:
 12837 092e 4F535F46 		.ascii	"OS_FN_FILE_DSEARCH\000"
 12837      4E5F4649 
 12837      4C455F44 
 12837      53454152 
 12837      434800
 12838              	.LASF619:
 12839 0941 41504D5F 		.ascii	"APM_BATCH_CLEAR\000"
 12839      42415443 
 12839      485F434C 
 12839      45415200 
 12840              	.LASF432:
 12841 0951 4F535F46 		.ascii	"OS_FN_WIFI_STATUS\000"
 12841      4E5F5749 
 12841      46495F53 
 12841      54415455 
 12841      5300
 12842              	.LASF571:
 12843 0963 534D535F 		.ascii	"SMS_RX_MW\000"
 12843      52585F4D 
 12843      5700
 12844              	.LASF710:
 12845 096d 4B444C4C 		.ascii	"KDLL_DOGENRSAKEY\000"
 12845      5F444F47 
 12845      454E5253 
 12845      414B4559 
 12845      00
 12846              	.LASF64:
 12847 097e 4F535F46 		.ascii	"OS_FN_DISP_OPEN\000"
 12847      4E5F4449 
 12847      53505F4F 
 12847      50454E00 
 12848              	.LASF66:
 12849 098e 4F535F46 		.ascii	"OS_FN_DISP_PUTC\000"
 12849      4E5F4449 
 12849      53505F50 
 12849      55544300 
 12850              	.LASF354:
ARM GAS  C:\Users\AHMED~1.ELE\AppData\Local\Temp\ccfMkwD6.s 			page 247


 12851 099e 4F535F46 		.ascii	"OS_FN_CLICC_EMV_LV1\000"
 12851      4E5F434C 
 12851      4943435F 
 12851      454D565F 
 12851      4C563100 
 12852              	.LASF70:
 12853 09b2 4F535F46 		.ascii	"OS_FN_DISP_PUTG\000"
 12853      4E5F4449 
 12853      53505F50 
 12853      55544700 
 12854              	.LASF160:
 12855 09c2 4F535F46 		.ascii	"OS_FN_KEY_SAVE_TMK_CBC_NC\000"
 12855      4E5F4B45 
 12855      595F5341 
 12855      56455F54 
 12855      4D4B5F43 
 12856              	.LASF537:
 12857 09dc 46435245 		.ascii	"FCREATEMW\000"
 12857      4154454D 
 12857      5700
 12858              	.LASF68:
 12859 09e6 4F535F46 		.ascii	"OS_FN_DISP_PUTN\000"
 12859      4E5F4449 
 12859      53505F50 
 12859      55544E00 
 12860              	.LASF501:
 12861 09f6 4F535F46 		.ascii	"OS_FN_IMG_SENSOR_GET_FRAME\000"
 12861      4E5F494D 
 12861      475F5345 
 12861      4E534F52 
 12861      5F474554 
 12862              	.LASF71:
 12863 0a11 4F535F46 		.ascii	"OS_FN_DISP_PUTP\000"
 12863      4E5F4449 
 12863      53505F50 
 12863      55545000 
 12864              	.LASF462:
 12865 0a21 4F535F46 		.ascii	"OS_FN_DUMMY\000"
 12865      4E5F4455 
 12865      4D4D5900 
 12866              	.LASF346:
 12867 0a2d 4F535F46 		.ascii	"OS_FN_CODEC_STOP\000"
 12867      4E5F434F 
 12867      4445435F 
 12867      53544F50 
 12867      00
 12868              	.LASF67:
 12869 0a3e 4F535F46 		.ascii	"OS_FN_DISP_PUTS\000"
 12869      4E5F4449 
 12869      53505F50 
 12869      55545300 
 12870              	.LASF229:
 12871 0a4e 4F535F46 		.ascii	"OS_FN_CONFIG_READ\000"
 12871      4E5F434F 
 12871      4E464947 
 12871      5F524541 
 12871      4400
ARM GAS  C:\Users\AHMED~1.ELE\AppData\Local\Temp\ccfMkwD6.s 			page 248


 12872              	.LASF771:
 12873 0a60 67475453 		.ascii	"gGTS\000"
 12873      00
 12874              	.LASF635:
 12875 0a65 44415445 		.ascii	"DATETIME\000"
 12875      54494D45 
 12875      00
 12876              	.LASF276:
 12877 0a6e 4F535F46 		.ascii	"OS_FN_USBSER_STATUS\000"
 12877      4E5F5553 
 12877      42534552 
 12877      5F535441 
 12877      54555300 
 12878              	.LASF655:
 12879 0a82 73625F74 		.ascii	"sb_trace_no\000"
 12879      72616365 
 12879      5F6E6F00 
 12880              	.LASF586:
 12881 0a8e 41504D5F 		.ascii	"APM_SETKBDTO\000"
 12881      5345544B 
 12881      4244544F 
 12881      00
 12882              	.LASF435:
 12883 0a9b 4F535F46 		.ascii	"OS_FN_NFC_OPEN_FELICA\000"
 12883      4E5F4E46 
 12883      435F4F50 
 12883      454E5F46 
 12883      454C4943 
 12884              	.LASF606:
 12885 0ab1 41504D5F 		.ascii	"APM_GETEXPARAMCOUNT\000"
 12885      47455445 
 12885      58504152 
 12885      414D434F 
 12885      554E5400 
 12886              	.LASF182:
 12887 0ac5 4F535F46 		.ascii	"OS_FN_LED_ON\000"
 12887      4E5F4C45 
 12887      445F4F4E 
 12887      00
 12888              	.LASF39:
 12889 0ad2 52454655 		.ascii	"REFUND_CTL\000"
 12889      4E445F43 
 12889      544C00
 12890              	.LASF563:
 12891 0add 44495350 		.ascii	"DISP_LINEMW\000"
 12891      5F4C494E 
 12891      454D5700 
 12892              	.LASF194:
 12893 0ae9 4F535F46 		.ascii	"OS_FN_FILE_OPEN\000"
 12893      4E5F4649 
 12893      4C455F4F 
 12893      50454E00 
 12894              	.LASF204:
 12895 0af9 4F535F46 		.ascii	"OS_FN_FILE_PUTC\000"
 12895      4E5F4649 
 12895      4C455F50 
 12895      55544300 
ARM GAS  C:\Users\AHMED~1.ELE\AppData\Local\Temp\ccfMkwD6.s 			page 249


 12896              	.LASF672:
 12897 0b09 775F686F 		.ascii	"w_host_idx\000"
 12897      73745F69 
 12897      647800
 12898              	.LASF170:
 12899 0b14 4F535F46 		.ascii	"OS_FN_THREAD_PUSH\000"
 12899      4E5F5448 
 12899      52454144 
 12899      5F505553 
 12899      4800
 12900              	.LASF26:
 12901 0b26 53414C45 		.ascii	"SALE_UNDER_LMT\000"
 12901      5F554E44 
 12901      45525F4C 
 12901      4D5400
 12902              	.LASF531:
 12903 0b35 57524954 		.ascii	"WRITEMW\000"
 12903      454D5700 
 12904              	.LASF654:
 12905 0b3d 625F7472 		.ascii	"b_trans_status\000"
 12905      616E735F 
 12905      73746174 
 12905      757300
 12906              	.LASF759:
 12907 0b4c 53686F72 		.ascii	"Short2Beep\000"
 12907      74324265 
 12907      657000
 12908              	.LASF579:
 12909 0b57 4D575F46 		.ascii	"MW_FUNC_COUNT\000"
 12909      554E435F 
 12909      434F554E 
 12909      5400
 12910              	.LASF463:
 12911 0b65 4F535F46 		.ascii	"OS_FN_OFF\000"
 12911      4E5F4F46 
 12911      4600
 12912              	.LASF726:
 12913 0b6f 6B65795F 		.ascii	"key_ready\000"
 12913      72656164 
 12913      7900
 12914              	.LASF48:
 12915 0b79 4F535F46 		.ascii	"OS_FN_KBD_CLOSE\000"
 12915      4E5F4B42 
 12915      445F434C 
 12915      4F534500 
 12916              	.LASF29:
 12917 0b89 5452414E 		.ascii	"TRANS_UPLOAD\000"
 12917      535F5550 
 12917      4C4F4144 
 12917      00
 12918              	.LASF607:
 12919 0b96 41504D5F 		.ascii	"APM_GETEXPARAM\000"
 12919      47455445 
 12919      58504152 
 12919      414D00
 12920              	.LASF521:
 12921 0ba5 55534246 		.ascii	"USBFPRT_GENERAL_INFO_END\000"
ARM GAS  C:\Users\AHMED~1.ELE\AppData\Local\Temp\ccfMkwD6.s 			page 250


 12921      5052545F 
 12921      47454E45 
 12921      52414C5F 
 12921      494E464F 
 12922              	.LASF639:
 12923 0bbe 625F6461 		.ascii	"b_day\000"
 12923      7900
 12924              	.LASF534:
 12925 0bc4 53544154 		.ascii	"STATMW\000"
 12925      4D5700
 12926              	.LASF47:
 12927 0bcb 4F535F46 		.ascii	"OS_FN_KBD_OPEN\000"
 12927      4E5F4B42 
 12927      445F4F50 
 12927      454E00
 12928              	.LASF154:
 12929 0bda 4F535F46 		.ascii	"OS_FN_KEY_CUP_MAC\000"
 12929      4E5F4B45 
 12929      595F4355 
 12929      505F4D41 
 12929      4300
 12930              	.LASF755:
 12931 0bec 6C69625F 		.ascii	"lib_app_call\000"
 12931      6170705F 
 12931      63616C6C 
 12931      00
 12932              	.LASF80:
 12933 0bf9 4F535F46 		.ascii	"OS_FN_DISP_ICON_PUTC\000"
 12933      4E5F4449 
 12933      53505F49 
 12933      434F4E5F 
 12933      50555443 
 12934              	.LASF228:
 12935 0c0e 4F535F46 		.ascii	"OS_FN_CONFIG_LENGTH\000"
 12935      4E5F434F 
 12935      4E464947 
 12935      5F4C454E 
 12935      47544800 
 12936              	.LASF291:
 12937 0c22 4F535F46 		.ascii	"OS_FN_FL_CREAD_RAND\000"
 12937      4E5F464C 
 12937      5F435245 
 12937      41445F52 
 12937      414E4400 
 12938              	.LASF544:
 12939 0c36 46575249 		.ascii	"FWRITEMW\000"
 12939      54454D57 
 12939      00
 12940              	.LASF19:
 12941 0c3f 53414C45 		.ascii	"SALE_SWIPE\000"
 12941      5F535749 
 12941      504500
 12942              	.LASF547:
 12943 0c4a 46445345 		.ascii	"FDSEARCHMW\000"
 12943      41524348 
 12943      4D5700
 12944              	.LASF164:
ARM GAS  C:\Users\AHMED~1.ELE\AppData\Local\Temp\ccfMkwD6.s 			page 251


 12945 0c55 4F535F46 		.ascii	"OS_FN_THREAD_OPEN\000"
 12945      4E5F5448 
 12945      52454144 
 12945      5F4F5045 
 12945      4E00
 12946              	.LASF203:
 12947 0c67 4F535F46 		.ascii	"OS_FN_FILE_WRITE\000"
 12947      4E5F4649 
 12947      4C455F57 
 12947      52495445 
 12947      00
 12948              	.LASF749:
 12949 0c78 4C6F6164 		.ascii	"LoadDukptIkey\000"
 12949      44756B70 
 12949      74496B65 
 12949      7900
 12950              	.LASF437:
 12951 0c86 4F535F46 		.ascii	"OS_FN_NFC_CANCEL\000"
 12951      4E5F4E46 
 12951      435F4341 
 12951      4E43454C 
 12951      00
 12952              	.LASF556:
 12953 0c97 5343484E 		.ascii	"SCHNLGETPINMW\000"
 12953      4C474554 
 12953      50494E4D 
 12953      5700
 12954              	.LASF762:
 12955 0ca5 73706C69 		.ascii	"split\000"
 12955      7400
 12956              	.LASF720:
 12957 0cab 4B444C4C 		.ascii	"KDLL_AESENCRYPT\000"
 12957      5F414553 
 12957      454E4352 
 12957      59505400 
 12958              	.LASF89:
 12959 0cbb 4F535F46 		.ascii	"OS_FN_COM1_SEND\000"
 12959      4E5F434F 
 12959      4D315F53 
 12959      454E4400 
 12960              	.LASF163:
 12961 0ccb 4F535F46 		.ascii	"OS_FN_PCI_DSS\000"
 12961      4E5F5043 
 12961      495F4453 
 12961      5300
 12962              	.LASF569:
 12963 0cd9 42535F43 		.ascii	"BS_CALL_MW\000"
 12963      414C4C5F 
 12963      4D5700
 12964              	.LASF381:
 12965 0ce4 4F535F46 		.ascii	"OS_FN_INTERRUPT_UNREGISTER\000"
 12965      4E5F494E 
 12965      54455252 
 12965      5550545F 
 12965      554E5245 
 12966              	.LASF179:
 12967 0cff 4F535F46 		.ascii	"OS_FN_LED_STATUS\000"
ARM GAS  C:\Users\AHMED~1.ELE\AppData\Local\Temp\ccfMkwD6.s 			page 252


 12967      4E5F4C45 
 12967      445F5354 
 12967      41545553 
 12967      00
 12968              	.LASF97:
 12969 0d10 4F535F46 		.ascii	"OS_FN_COM2_READ\000"
 12969      4E5F434F 
 12969      4D325F52 
 12969      45414400 
 12970              	.LASF181:
 12971 0d20 4F535F46 		.ascii	"OS_FN_LED_CLEAR\000"
 12971      4E5F4C45 
 12971      445F434C 
 12971      45415200 
 12972              	.LASF58:
 12973 0d30 4F535F46 		.ascii	"OS_FN_BUZ_OPEN\000"
 12973      4E5F4255 
 12973      5A5F4F50 
 12973      454E00
 12974              	.LASF696:
 12975 0d3f 4B444C4C 		.ascii	"KDLL_KEYENCRYPT\000"
 12975      5F4B4559 
 12975      454E4352 
 12975      59505400 
 12976              	.LASF412:
 12977 0d4f 4F535F46 		.ascii	"OS_FN_MIF_DEC\000"
 12977      4E5F4D49 
 12977      465F4445 
 12977      4300
 12978              	.LASF254:
 12979 0d5d 4F535F46 		.ascii	"OS_FN_LAN_OPEN\000"
 12979      4E5F4C41 
 12979      4E5F4F50 
 12979      454E00
 12980              	.LASF561:
 12981 0d6c 44495350 		.ascii	"DISP_CLRBELOWMW\000"
 12981      5F434C52 
 12981      42454C4F 
 12981      574D5700 
 12982              	.LASF476:
 12983 0d7c 4F535F46 		.ascii	"OS_FN_LPT_GET_COUNT\000"
 12983      4E5F4C50 
 12983      545F4745 
 12983      545F434F 
 12983      554E5400 
 12984              	.LASF312:
 12985 0d90 4F535F46 		.ascii	"OS_FN_BATT_LEVEL\000"
 12985      4E5F4241 
 12985      54545F4C 
 12985      4556454C 
 12985      00
 12986              	.LASF460:
 12987 0da1 4F535F46 		.ascii	"OS_FN_HD_CONFIG\000"
 12987      4E5F4844 
 12987      5F434F4E 
 12987      46494700 
 12988              	.LASF220:
ARM GAS  C:\Users\AHMED~1.ELE\AppData\Local\Temp\ccfMkwD6.s 			page 253


 12989 0db1 4F535F46 		.ascii	"OS_FN_FILE_FTRUNCATE\000"
 12989      4E5F4649 
 12989      4C455F46 
 12989      5452554E 
 12989      43415445 
 12990              	.LASF694:
 12991 0dc6 4B444C4C 		.ascii	"KDLL_KEYSTATUS\000"
 12991      5F4B4559 
 12991      53544154 
 12991      555300
 12992              	.LASF257:
 12993 0dd5 4F535F46 		.ascii	"OS_FN_LAN_TXRDY\000"
 12993      4E5F4C41 
 12993      4E5F5458 
 12993      52445900 
 12994              	.LASF165:
 12995 0de5 4F535F46 		.ascii	"OS_FN_THREAD_CLOSE\000"
 12995      4E5F5448 
 12995      52454144 
 12995      5F434C4F 
 12995      534500
 12996              	.LASF314:
 12997 0df8 4F535F46 		.ascii	"OS_FN_BATT_CONTROL\000"
 12997      4E5F4241 
 12997      54545F43 
 12997      4F4E5452 
 12997      4F4C00
 12998              	.LASF401:
 12999 0e0b 4F535F46 		.ascii	"OS_FN_MIF_CARD_TYPE\000"
 12999      4E5F4D49 
 12999      465F4341 
 12999      52445F54 
 12999      59504500 
 13000              	.LASF248:
 13001 0e1f 4F535F46 		.ascii	"OS_FN_MMC_WRITE\000"
 13001      4E5F4D4D 
 13001      435F5752 
 13001      49544500 
 13002              	.LASF143:
 13003 0e2f 4F535F46 		.ascii	"OS_FN_SM3\000"
 13003      4E5F534D 
 13003      3300
 13004              	.LASF482:
 13005 0e39 4F535F46 		.ascii	"OS_FN_ECC_KEYPAIR_GENERATE\000"
 13005      4E5F4543 
 13005      435F4B45 
 13005      59504149 
 13005      525F4745 
 13006              	.LASF304:
 13007 0e54 4F535F46 		.ascii	"OS_FN_MCOM_PERMIT\000"
 13007      4E5F4D43 
 13007      4F4D5F50 
 13007      45524D49 
 13007      5400
 13008              	.LASF633:
 13009 0e66 41504D5F 		.ascii	"APM_PWRSLEEP\000"
 13009      50575253 
ARM GAS  C:\Users\AHMED~1.ELE\AppData\Local\Temp\ccfMkwD6.s 			page 254


 13009      4C454550 
 13009      00
 13010              	.LASF417:
 13011 0e73 4F535F46 		.ascii	"OS_FN_MIF_SENDCMD\000"
 13011      4E5F4D49 
 13011      465F5345 
 13011      4E44434D 
 13011      4400
 13012              	.LASF50:
 13013 0e85 4F535F46 		.ascii	"OS_FN_KBD_SCODE\000"
 13013      4E5F4B42 
 13013      445F5343 
 13013      4F444500 
 13014              	.LASF613:
 13015 0e95 41504D5F 		.ascii	"APM_SETROC\000"
 13015      53455452 
 13015      4F4300
 13016              	.LASF492:
 13017 0ea0 4F535F46 		.ascii	"OS_FN_WIFI_SOCKET_CONNECT\000"
 13017      4E5F5749 
 13017      46495F53 
 13017      4F434B45 
 13017      545F434F 
 13018              	.LASF724:
 13019 0eba 4B444C4C 		.ascii	"KDLL_FUNC_COUNT\000"
 13019      5F46554E 
 13019      435F434F 
 13019      554E5400 
 13020              	.LASF484:
 13021 0eca 4F535F46 		.ascii	"OS_FN_ECC_SCALAR_MULTIPLY\000"
 13021      4E5F4543 
 13021      435F5343 
 13021      414C4152 
 13021      5F4D554C 
 13022              	.LASF580:
 13023 0ee4 41504D5F 		.ascii	"APM_GETHWHANDLE\000"
 13023      47455448 
 13023      5748414E 
 13023      444C4500 
 13024              	.LASF407:
 13025 0ef4 4F535F46 		.ascii	"OS_FN_MIF_AUTH1\000"
 13025      4E5F4D49 
 13025      465F4155 
 13025      54483100 
 13026              	.LASF644:
 13027 0f04 73625F6C 		.ascii	"sb_label\000"
 13027      6162656C 
 13027      00
 13028              	.LASF12:
 13029 0f0d 424F4F4C 		.ascii	"BOOLEAN\000"
 13029      45414E00 
 13030              	.LASF113:
 13031 0f15 4F535F46 		.ascii	"OS_FN_DES2\000"
 13031      4E5F4445 
 13031      533200
 13032              	.LASF133:
 13033 0f20 4F535F46 		.ascii	"OS_FN_MD4_PROCESS\000"
ARM GAS  C:\Users\AHMED~1.ELE\AppData\Local\Temp\ccfMkwD6.s 			page 255


 13033      4E5F4D44 
 13033      345F5052 
 13033      4F434553 
 13033      5300
 13034              	.LASF415:
 13035 0f32 4F535F46 		.ascii	"OS_FN_MIF_DEC_TRANS\000"
 13035      4E5F4D49 
 13035      465F4445 
 13035      435F5452 
 13035      414E5300 
 13036              	.LASF678:
 13037 0f46 735F7472 		.ascii	"s_trk2buf\000"
 13037      6B326275 
 13037      6600
 13038              	.LASF371:
 13039 0f50 4F535F46 		.ascii	"OS_FN_DEVICE_REGISTER\000"
 13039      4E5F4445 
 13039      56494345 
 13039      5F524547 
 13039      49535445 
 13040              	.LASF88:
 13041 0f66 4F535F46 		.ascii	"OS_FN_COM1_READ\000"
 13041      4E5F434F 
 13041      4D315F52 
 13041      45414400 
 13042              	.LASF251:
 13043 0f76 4F535F46 		.ascii	"OS_FN_SLE_CLOSE\000"
 13043      4E5F534C 
 13043      455F434C 
 13043      4F534500 
 13044              	.LASF260:
 13045 0f86 4F535F46 		.ascii	"OS_FN_LAN_STATUS\000"
 13045      4E5F4C41 
 13045      4E5F5354 
 13045      41545553 
 13045      00
 13046              	.LASF188:
 13047 0f97 4F535F46 		.ascii	"OS_FN_APP_CLR_VIRGIN\000"
 13047      4E5F4150 
 13047      505F434C 
 13047      525F5649 
 13047      5247494E 
 13048              	.LASF187:
 13049 0fac 4F535F46 		.ascii	"OS_FN_APP_GET_VIRGIN\000"
 13049      4E5F4150 
 13049      505F4745 
 13049      545F5649 
 13049      5247494E 
 13050              	.LASF549:
 13051 0fc1 4B424453 		.ascii	"KBDSCODEMW\000"
 13051      434F4445 
 13051      4D5700
 13052              	.LASF666:
 13053 0fcc 73625F68 		.ascii	"sb_holder_name\000"
 13053      6F6C6465 
 13053      725F6E61 
 13053      6D6500
ARM GAS  C:\Users\AHMED~1.ELE\AppData\Local\Temp\ccfMkwD6.s 			page 256


 13054              	.LASF236:
 13055 0fdb 4F535F46 		.ascii	"OS_FN_SAM_ON\000"
 13055      4E5F5341 
 13055      4D5F4F4E 
 13055      00
 13056              	.LASF311:
 13057 0fe8 4F535F46 		.ascii	"OS_FN_MCOM_SEND\000"
 13057      4E5F4D43 
 13057      4F4D5F53 
 13057      454E4400 
 13058              	.LASF682:
 13059 0ff8 54585F44 		.ascii	"TX_DATA\000"
 13059      41544100 
 13060              	.LASF273:
 13061 1000 4F535F46 		.ascii	"OS_FN_USBSER_CLOSE\000"
 13061      4E5F5553 
 13061      42534552 
 13061      5F434C4F 
 13061      534500
 13062              	.LASF446:
 13063 1013 4F535F46 		.ascii	"OS_FN_GPS_GET_INFO\000"
 13063      4E5F4750 
 13063      535F4745 
 13063      545F494E 
 13063      464F00
 13064              	.LASF524:
 13065 1026 4D575F54 		.ascii	"MW_TRK1BUF\000"
 13065      524B3142 
 13065      554600
 13066              	.LASF297:
 13067 1031 4F535F46 		.ascii	"OS_FN_MDM_DIAL\000"
 13067      4E5F4D44 
 13067      4D5F4449 
 13067      414C00
 13068              	.LASF167:
 13069 1040 4F535F46 		.ascii	"OS_FN_THREAD_DELETE\000"
 13069      4E5F5448 
 13069      52454144 
 13069      5F44454C 
 13069      45544500 
 13070              	.LASF177:
 13071 1054 4F535F46 		.ascii	"OS_FN_LED_OPEN\000"
 13071      4E5F4C45 
 13071      445F4F50 
 13071      454E00
 13072              	.LASF62:
 13073 1063 4F535F46 		.ascii	"OS_FN_RTC_GET\000"
 13073      4E5F5254 
 13073      435F4745 
 13073      5400
 13074              	.LASF508:
 13075 1071 4F535F46 		.ascii	"OS_FN_DISP_PUTS_ANYWHERE\000"
 13075      4E5F4449 
 13075      53505F50 
 13075      5554535F 
 13075      414E5957 
 13076              	.LASF429:
ARM GAS  C:\Users\AHMED~1.ELE\AppData\Local\Temp\ccfMkwD6.s 			page 257


 13077 108a 4F535F46 		.ascii	"OS_FN_WIFI_CONTROL\000"
 13077      4E5F5749 
 13077      46495F43 
 13077      4F4E5452 
 13077      4F4C00
 13078              	.LASF734:
 13079 109d 4B456E63 		.ascii	"KEncrypt1\000"
 13079      72797074 
 13079      3100
 13080              	.LASF493:
 13081 10a7 4F535F46 		.ascii	"OS_FN_WIFI_SOCKET_DISCONNECT\000"
 13081      4E5F5749 
 13081      46495F53 
 13081      4F434B45 
 13081      545F4449 
 13082              	.LASF736:
 13083 10c4 4B456E63 		.ascii	"KEncrypt3\000"
 13083      72797074 
 13083      3300
 13084              	.LASF473:
 13085 10ce 4F535F46 		.ascii	"OS_FN_DTIMER_LATCH_STOP\000"
 13085      4E5F4454 
 13085      494D4552 
 13085      5F4C4154 
 13085      43485F53 
 13086              	.LASF382:
 13087 10e6 4F535F46 		.ascii	"OS_FN_BUS_START\000"
 13087      4E5F4255 
 13087      535F5354 
 13087      41525400 
 13088              	.LASF610:
 13089 10f6 41504D5F 		.ascii	"APM_GETBATCH\000"
 13089      47455442 
 13089      41544348 
 13089      00
 13090              	.LASF127:
 13091 1103 4F535F46 		.ascii	"OS_FN_MD5_FINISH\000"
 13091      4E5F4D44 
 13091      355F4649 
 13091      4E495348 
 13091      00
 13092              	.LASF517:
 13093 1114 55534246 		.ascii	"USBFPRT_GENERAL_INFO_MODEL\000"
 13093      5052545F 
 13093      47454E45 
 13093      52414C5F 
 13093      494E464F 
 13094              	.LASF444:
 13095 112f 4F535F46 		.ascii	"OS_FN_GPS_ON\000"
 13095      4E5F4750 
 13095      535F4F4E 
 13095      00
 13096              	.LASF345:
 13097 113c 4F535F46 		.ascii	"OS_FN_CODEC_PLAY_RAM\000"
 13097      4E5F434F 
 13097      4445435F 
 13097      504C4159 
ARM GAS  C:\Users\AHMED~1.ELE\AppData\Local\Temp\ccfMkwD6.s 			page 258


 13097      5F52414D 
 13098              	.LASF309:
 13099 1151 4F535F46 		.ascii	"OS_FN_MCOM_STATUS\000"
 13099      4E5F4D43 
 13099      4F4D5F53 
 13099      54415455 
 13099      5300
 13100              	.LASF81:
 13101 1163 4F535F46 		.ascii	"OS_FN_DISP_ICON_TEXTC\000"
 13101      4E5F4449 
 13101      53505F49 
 13101      434F4E5F 
 13101      54455854 
 13102              	.LASF457:
 13103 1179 4F535F46 		.ascii	"OS_FN_POWER_SLEEP\000"
 13103      4E5F504F 
 13103      5745525F 
 13103      534C4545 
 13103      5000
 13104              	.LASF195:
 13105 118b 4F535F46 		.ascii	"OS_FN_FILE_CREATE\000"
 13105      4E5F4649 
 13105      4C455F43 
 13105      52454154 
 13105      4500
 13106              	.LASF267:
 13107 119d 4F535F46 		.ascii	"OS_FN_LPT_OPEN\000"
 13107      4E5F4C50 
 13107      545F4F50 
 13107      454E00
 13108              	.LASF269:
 13109 11ac 4F535F46 		.ascii	"OS_FN_LPT_PUTC\000"
 13109      4E5F4C50 
 13109      545F5055 
 13109      544300
 13110              	.LASF22:
 13111 11bb 4F4E4C5F 		.ascii	"ONL_REFUND_MNL\000"
 13111      52454655 
 13111      4E445F4D 
 13111      4E4C00
 13112              	.LASF716:
 13113 11ca 4B444C4C 		.ascii	"KDLL_DSSGETKVC\000"
 13113      5F445353 
 13113      4745544B 
 13113      564300
 13114              	.LASF402:
 13115 11d9 4F535F46 		.ascii	"OS_FN_MIF_TAG\000"
 13115      4E5F4D49 
 13115      465F5441 
 13115      4700
 13116              	.LASF638:
 13117 11e7 625F6D6F 		.ascii	"b_month\000"
 13117      6E746800 
 13118              	.LASF315:
 13119 11ef 4F535F46 		.ascii	"OS_FN_BATT_CHARGE_MODE\000"
 13119      4E5F4241 
 13119      54545F43 
ARM GAS  C:\Users\AHMED~1.ELE\AppData\Local\Temp\ccfMkwD6.s 			page 259


 13119      48415247 
 13119      455F4D4F 
 13120              	.LASF479:
 13121 1206 4F535F46 		.ascii	"OS_FN_FPRT_SCAN_IMG\000"
 13121      4E5F4650 
 13121      52545F53 
 13121      43414E5F 
 13121      494D4700 
 13122              	.LASF686:
 13123 121a 5253505F 		.ascii	"RSP_DATA\000"
 13123      44415441 
 13123      00
 13124              	.LASF536:
 13125 1223 46535953 		.ascii	"FSYSINITMW\000"
 13125      494E4954 
 13125      4D5700
 13126              	.LASF533:
 13127 122e 494F4354 		.ascii	"IOCTLMW\000"
 13127      4C4D5700 
 13128              	.LASF33:
 13129 1236 41555448 		.ascii	"AUTH_ICC\000"
 13129      5F494343 
 13129      00
 13130              	.LASF272:
 13131 123f 4F535F46 		.ascii	"OS_FN_USBSER_OPEN\000"
 13131      4E5F5553 
 13131      42534552 
 13131      5F4F5045 
 13131      4E00
 13132              	.LASF461:
 13133 1251 4F535F46 		.ascii	"OS_FN_RDLL_APP\000"
 13133      4E5F5244 
 13133      4C4C5F41 
 13133      505000
 13134              	.LASF729:
 13135 1260 6B657963 		.ascii	"keycfg\000"
 13135      666700
 13136              	.LASF171:
 13137 1267 4F535F46 		.ascii	"OS_FN_THREAD_POP\000"
 13137      4E5F5448 
 13137      52454144 
 13137      5F504F50 
 13137      00
 13138              	.LASF557:
 13139 1278 4C4C5345 		.ascii	"LLSEEKMW\000"
 13139      454B4D57 
 13139      00
 13140              	.LASF351:
 13141 1281 4F535F46 		.ascii	"OS_FN_CLICC_CLOSE\000"
 13141      4E5F434C 
 13141      4943435F 
 13141      434C4F53 
 13141      4500
 13142              	.LASF364:
 13143 1293 4F535F46 		.ascii	"OS_FN_USBHOST_STATUS\000"
 13143      4E5F5553 
 13143      42484F53 
ARM GAS  C:\Users\AHMED~1.ELE\AppData\Local\Temp\ccfMkwD6.s 			page 260


 13143      545F5354 
 13143      41545553 
 13144              	.LASF208:
 13145 12a8 4F535F46 		.ascii	"OS_FN_FILE_SEARCH\000"
 13145      4E5F4649 
 13145      4C455F53 
 13145      45415243 
 13145      4800
 13146              	.LASF617:
 13147 12ba 41504D5F 		.ascii	"APM_TERMDATA_CLR\000"
 13147      5445524D 
 13147      44415441 
 13147      5F434C52 
 13147      00
 13148              	.LASF770:
 13149 12cb 73797374 		.ascii	"system_call_list\000"
 13149      656D5F63 
 13149      616C6C5F 
 13149      6C697374 
 13149      00
 13150              	.LASF575:
 13151 12dc 4652454E 		.ascii	"FRENAMEMW\000"
 13151      414D454D 
 13151      5700
 13152              	.LASF698:
 13153 12e6 4B444C4C 		.ascii	"KDLL_KEY3ENCRYPT\000"
 13153      5F4B4559 
 13153      33454E43 
 13153      52595054 
 13153      00
 13154              	.LASF253:
 13155 12f7 4F535F46 		.ascii	"OS_FN_SLE_IO\000"
 13155      4E5F534C 
 13155      455F494F 
 13155      00
 13156              	.LASF16:
 13157 1304 4444574F 		.ascii	"DDWORD\000"
 13157      524400
 13158              	.LASF299:
 13159 130b 4F535F46 		.ascii	"OS_FN_MDM_CID\000"
 13159      4E5F4D44 
 13159      4D5F4349 
 13159      4400
 13160              	.LASF305:
 13161 1319 4F535F46 		.ascii	"OS_FN_MCOM_RXRDY\000"
 13161      4E5F4D43 
 13161      4F4D5F52 
 13161      58524459 
 13161      00
 13162              	.LASF268:
 13163 132a 4F535F46 		.ascii	"OS_FN_LPT_CLOSE\000"
 13163      4E5F4C50 
 13163      545F434C 
 13163      4F534500 
 13164              	.LASF703:
 13165 133a 4B444C4C 		.ascii	"KDLL_GETOPMODE\000"
 13165      5F474554 
ARM GAS  C:\Users\AHMED~1.ELE\AppData\Local\Temp\ccfMkwD6.s 			page 261


 13165      4F504D4F 
 13165      444500
 13166              	.LASF722:
 13167 1349 4B444C4C 		.ascii	"KDLL_HSMRSAKEYINJECT\000"
 13167      5F48534D 
 13167      5253414B 
 13167      4559494E 
 13167      4A454354 
 13168              	.LASF584:
 13169 135e 41504D5F 		.ascii	"APM_YESNO\000"
 13169      5945534E 
 13169      4F00
 13170              	.LASF150:
 13171 1368 4F535F46 		.ascii	"OS_FN_KEY_RSA\000"
 13171      4E5F4B45 
 13171      595F5253 
 13171      4100
 13172              	.LASF233:
 13173 1376 4F535F46 		.ascii	"OS_FN_SAM_CLOSE\000"
 13173      4E5F5341 
 13173      4D5F434C 
 13173      4F534500 
 13174              	.LASF114:
 13175 1386 4F535F46 		.ascii	"OS_FN_COM_DESKEY\000"
 13175      4E5F434F 
 13175      4D5F4445 
 13175      534B4559 
 13175      00
 13176              	.LASF321:
 13177 1397 4F535F46 		.ascii	"OS_FN_GPRS_AT_CMD\000"
 13177      4E5F4750 
 13177      52535F41 
 13177      545F434D 
 13177      4400
 13178              	.LASF509:
 13179 13a9 4F535F46 		.ascii	"OS_FN_BATT_CHARGE_NOW\000"
 13179      4E5F4241 
 13179      54545F43 
 13179      48415247 
 13179      455F4E4F 
 13180              	.LASF225:
 13181 13bf 4F535F46 		.ascii	"OS_FN_FILE_GET_LONGNAME\000"
 13181      4E5F4649 
 13181      4C455F47 
 13181      45545F4C 
 13181      4F4E474E 
 13182              	.LASF400:
 13183 13d7 4F535F46 		.ascii	"OS_FN_MIF_HALT\000"
 13183      4E5F4D49 
 13183      465F4841 
 13183      4C5400
 13184              	.LASF628:
 13185 13e6 41504D5F 		.ascii	"APM_TRACE_IN_REV\000"
 13185      54524143 
 13185      455F494E 
 13185      5F524556 
 13185      00
ARM GAS  C:\Users\AHMED~1.ELE\AppData\Local\Temp\ccfMkwD6.s 			page 262


 13186              	.LASF715:
 13187 13f7 4B444C4C 		.ascii	"KDLL_KEYSAVE\000"
 13187      5F4B4559 
 13187      53415645 
 13187      00
 13188              	.LASF293:
 13189 1404 4F535F46 		.ascii	"OS_FN_FL_CREAD_END\000"
 13189      4E5F464C 
 13189      5F435245 
 13189      41445F45 
 13189      4E4400
 13190              	.LASF266:
 13191 1417 4F535F46 		.ascii	"OS_FN_MSR_STATUS\000"
 13191      4E5F4D53 
 13191      525F5354 
 13191      41545553 
 13191      00
 13192              	.LASF421:
 13193 1428 4F535F46 		.ascii	"OS_FN_BARCODE_OPEN\000"
 13193      4E5F4241 
 13193      52434F44 
 13193      455F4F50 
 13193      454E00
 13194              	.LASF673:
 13195 143b 775F6973 		.ascii	"w_issuer_idx\000"
 13195      73756572 
 13195      5F696478 
 13195      00
 13196              	.LASF499:
 13197 1448 4F535F46 		.ascii	"OS_FN_WIFI_SOCKET_LISTEN\000"
 13197      4E5F5749 
 13197      46495F53 
 13197      4F434B45 
 13197      545F4C49 
 13198              	.LASF681:
 13199 1461 73625F61 		.ascii	"sb_amex_4DBC\000"
 13199      6D65785F 
 13199      34444243 
 13199      00
 13200              	.LASF275:
 13201 146e 4F535F46 		.ascii	"OS_FN_USBSER_WRITE\000"
 13201      4E5F5553 
 13201      42534552 
 13201      5F575249 
 13201      544500
 13202              	.LASF399:
 13203 1481 4F535F46 		.ascii	"OS_FN_MIF_CANCEL\000"
 13203      4E5F4D49 
 13203      465F4341 
 13203      4E43454C 
 13203      00
 13204              	.LASF6:
 13205 1492 6C6F6E67 		.ascii	"long unsigned int\000"
 13205      20756E73 
 13205      69676E65 
 13205      6420696E 
 13205      7400
ARM GAS  C:\Users\AHMED~1.ELE\AppData\Local\Temp\ccfMkwD6.s 			page 263


 13206              	.LASF76:
 13207 14a4 4F535F46 		.ascii	"OS_FN_DISP_BACKC\000"
 13207      4E5F4449 
 13207      53505F42 
 13207      41434B43 
 13207      00
 13208              	.LASF525:
 13209 14b5 4D575F54 		.ascii	"MW_TRK2BUF\000"
 13209      524B3242 
 13209      554600
 13210              	.LASF72:
 13211 14c0 4F535F46 		.ascii	"OS_FN_DISP_GETP\000"
 13211      4E5F4449 
 13211      53505F47 
 13211      45545000 
 13212              	.LASF452:
 13213 14d0 4F535F46 		.ascii	"OS_FN_BREG_READ\000"
 13213      4E5F4252 
 13213      45475F52 
 13213      45414400 
 13214              	.LASF330:
 13215 14e0 4F535F46 		.ascii	"OS_FN_GPRS_SMS_ACK\000"
 13215      4E5F4750 
 13215      52535F53 
 13215      4D535F41 
 13215      434B00
 13216              	.LASF45:
 13217 14f3 4F535F46 		.ascii	"OS_FN_RAND\000"
 13217      4E5F5241 
 13217      4E4400
 13218              	.LASF262:
 13219 14fe 4F535F46 		.ascii	"OS_FN_MSR_CLOSE\000"
 13219      4E5F4D53 
 13219      525F434C 
 13219      4F534500 
 13220              	.LASF651:
 13221 150e 73625F6D 		.ascii	"sb_misc_content\000"
 13221      6973635F 
 13221      636F6E74 
 13221      656E7400 
 13222              	.LASF551:
 13223 151e 4445534D 		.ascii	"DESMW\000"
 13223      5700
 13224              	.LASF431:
 13225 1524 4F535F46 		.ascii	"OS_FN_WIFI_RECV_RESPONSE\000"
 13225      4E5F5749 
 13225      46495F52 
 13225      4543565F 
 13225      52455350 
 13226              	.LASF258:
 13227 153d 4F535F46 		.ascii	"OS_FN_LAN_READ\000"
 13227      4E5F4C41 
 13227      4E5F5245 
 13227      414400
 13228              	.LASF526:
 13229 154c 53544152 		.ascii	"STARTUPMW\000"
 13229      5455504D 
ARM GAS  C:\Users\AHMED~1.ELE\AppData\Local\Temp\ccfMkwD6.s 			page 264


 13229      5700
 13230              	.LASF743:
 13231 1556 44656344 		.ascii	"DecData\000"
 13231      61746100 
 13232              	.LASF728:
 13233 155e 4B544D4B 		.ascii	"KTMK\000"
 13233      00
 13234              	.LASF767:
 13235 1563 474E5520 		.ascii	"GNU C 4.9.3 20141119 (release) [ARM/embedded-4_9-br"
 13235      4320342E 
 13235      392E3320 
 13235      32303134 
 13235      31313139 
 13236 1596 616E6368 		.ascii	"anch revision 218278] -mthumb -mcpu=cortex-a5 -mthu"
 13236      20726576 
 13236      6973696F 
 13236      6E203231 
 13236      38323738 
 13237 15c9 6D622D69 		.ascii	"mb-interwork -mstructure-size-boundary=32 -mno-unal"
 13237      6E746572 
 13237      776F726B 
 13237      202D6D73 
 13237      74727563 
 13238 15fc 69676E65 		.ascii	"igned-access -g -Os -ffunction-sections -fsigned-ch"
 13238      642D6163 
 13238      63657373 
 13238      202D6720 
 13238      2D4F7320 
 13239 162f 617200   		.ascii	"ar\000"
 13240              	.LASF490:
 13241 1632 4F535F46 		.ascii	"OS_FN_GCM_AES_CLOSE\000"
 13241      4E5F4743 
 13241      4D5F4145 
 13241      535F434C 
 13241      4F534500 
 13242              	.LASF295:
 13243 1646 4F535F46 		.ascii	"OS_FN_MDM_OPEN\000"
 13243      4E5F4D44 
 13243      4D5F4F50 
 13243      454E00
 13244              	.LASF301:
 13245 1655 4F535F46 		.ascii	"OS_FN_MDM_LAST_CONN_STAT\000"
 13245      4E5F4D44 
 13245      4D5F4C41 
 13245      53545F43 
 13245      4F4E4E5F 
 13246              	.LASF456:
 13247 166e 4F535F46 		.ascii	"OS_FN_SLEEP\000"
 13247      4E5F534C 
 13247      45455000 
 13248              	.LASF766:
 13249 167a 57616974 		.ascii	"WaitICCRemove\000"
 13249      49434352 
 13249      656D6F76 
 13249      6500
 13250              	.LASF573:
 13251 1688 534D535F 		.ascii	"SMS_COUNT_MW\000"
ARM GAS  C:\Users\AHMED~1.ELE\AppData\Local\Temp\ccfMkwD6.s 			page 265


 13251      434F554E 
 13251      545F4D57 
 13251      00
 13252              	.LASF621:
 13253 1695 41504D5F 		.ascii	"APM_GET_REC_COUNT\000"
 13253      4745545F 
 13253      5245435F 
 13253      434F554E 
 13253      5400
 13254              	.LASF270:
 13255 16a7 4F535F46 		.ascii	"OS_FN_LPT_PUTDW\000"
 13255      4E5F4C50 
 13255      545F5055 
 13255      54445700 
 13256              	.LASF52:
 13257 16b7 4F535F46 		.ascii	"OS_FN_KBD_LOCK\000"
 13257      4E5F4B42 
 13257      445F4C4F 
 13257      434B00
 13258              	.LASF598:
 13259 16c6 41504D5F 		.ascii	"APM_GETISSUERCOUNT\000"
 13259      47455449 
 13259      53535545 
 13259      52434F55 
 13259      4E5400
 13260              	.LASF504:
 13261 16d9 4F535F46 		.ascii	"OS_FN_GPRS_IS_HL6RD\000"
 13261      4E5F4750 
 13261      52535F49 
 13261      535F484C 
 13261      36524400 
 13262              	.LASF180:
 13263 16ed 4F535F46 		.ascii	"OS_FN_LED_SET\000"
 13263      4E5F4C45 
 13263      445F5345 
 13263      5400
 13264              	.LASF337:
 13265 16fb 4F535F46 		.ascii	"OS_FN_TPAD_DEL_OBJ\000"
 13265      4E5F5450 
 13265      41445F44 
 13265      454C5F4F 
 13265      424A00
 13266              	.LASF541:
 13267 170e 464C454E 		.ascii	"FLENGTHMW\000"
 13267      4754484D 
 13267      5700
 13268              	.LASF348:
 13269 1718 4F535F46 		.ascii	"OS_FN_CLICC_OPEN\000"
 13269      4E5F434C 
 13269      4943435F 
 13269      4F50454E 
 13269      00
 13270              	.LASF758:
 13271 1729 73707269 		.ascii	"sprintf\000"
 13271      6E746600 
 13272              	.LASF483:
 13273 1731 4F535F46 		.ascii	"OS_FN_ECC_PUBKEY_VERIFY\000"
ARM GAS  C:\Users\AHMED~1.ELE\AppData\Local\Temp\ccfMkwD6.s 			page 266


 13273      4E5F4543 
 13273      435F5055 
 13273      424B4559 
 13273      5F564552 
 13274              	.LASF392:
 13275 1749 4F535F46 		.ascii	"OS_FN_USBKBD_INKEY\000"
 13275      4E5F5553 
 13275      424B4244 
 13275      5F494E4B 
 13275      455900
 13276              	.LASF602:
 13277 175c 41504D5F 		.ascii	"APM_GETDESCCOUNT\000"
 13277      47455444 
 13277      45534343 
 13277      4F554E54 
 13277      00
 13278              	.LASF168:
 13279 176d 4F535F46 		.ascii	"OS_FN_THREAD_LOCK\000"
 13279      4E5F5448 
 13279      52454144 
 13279      5F4C4F43 
 13279      4B00
 13280              	.LASF707:
 13281 177f 4B444C4C 		.ascii	"KDLL_EXTPPADSET\000"
 13281      5F455854 
 13281      50504144 
 13281      53455400 
 13282              	.LASF705:
 13283 178f 4B444C4C 		.ascii	"KDLL_DUKPTINJECT\000"
 13283      5F44554B 
 13283      5054494E 
 13283      4A454354 
 13283      00
 13284              	.LASF383:
 13285 17a0 4F535F46 		.ascii	"OS_FN_BUS_STOP\000"
 13285      4E5F4255 
 13285      535F5354 
 13285      4F5000
 13286              	.LASF329:
 13287 17af 4F535F46 		.ascii	"OS_FN_GPRS_SMS_DECODE\000"
 13287      4E5F4750 
 13287      52535F53 
 13287      4D535F44 
 13287      45434F44 
 13288              	.LASF307:
 13289 17c5 4F535F46 		.ascii	"OS_FN_MCOM_SREAD\000"
 13289      4E5F4D43 
 13289      4F4D5F53 
 13289      52454144 
 13289      00
 13290              	.LASF156:
 13291 17d6 4F535F46 		.ascii	"OS_FN_KEY_HASH\000"
 13291      4E5F4B45 
 13291      595F4841 
 13291      534800
 13292              	.LASF218:
 13293 17e5 4F535F46 		.ascii	"OS_FN_FILE_FREESPACE\000"
ARM GAS  C:\Users\AHMED~1.ELE\AppData\Local\Temp\ccfMkwD6.s 			page 267


 13293      4E5F4649 
 13293      4C455F46 
 13293      52454553 
 13293      50414345 
 13294              	.LASF238:
 13295 17fa 4F535F46 		.ascii	"OS_FN_SAM_T1\000"
 13295      4E5F5341 
 13295      4D5F5431 
 13295      00
 13296              	.LASF222:
 13297 1807 4F535F46 		.ascii	"OS_FN_FILE_READDIR\000"
 13297      4E5F4649 
 13297      4C455F52 
 13297      45414444 
 13297      495200
 13298              	.LASF60:
 13299 181a 4F535F46 		.ascii	"OS_FN_BUZ_BEEP\000"
 13299      4E5F4255 
 13299      5A5F4245 
 13299      455000
 13300              	.LASF468:
 13301 1829 4F535F46 		.ascii	"OS_FN_APPCALL_RETURN\000"
 13301      4E5F4150 
 13301      5043414C 
 13301      4C5F5245 
 13301      5455524E 
 13302              	.LASF148:
 13303 183e 4F535F46 		.ascii	"OS_FN_KEY_SAVE_TMK\000"
 13303      4E5F4B45 
 13303      595F5341 
 13303      56455F54 
 13303      4D4B00
 13304              	.LASF548:
 13305 1851 47455443 		.ascii	"GETCHARMW\000"
 13305      4841524D 
 13305      5700
 13306              	.LASF46:
 13307 185b 4F535F46 		.ascii	"OS_FN_RAND_UPDATE\000"
 13307      4E5F5241 
 13307      4E445F55 
 13307      50444154 
 13307      4500
 13308              	.LASF433:
 13309 186d 4F535F46 		.ascii	"OS_FN_WIFI_PROFILES_READ\000"
 13309      4E5F5749 
 13309      46495F50 
 13309      524F4649 
 13309      4C45535F 
 13310              	.LASF196:
 13311 1886 4F535F46 		.ascii	"OS_FN_FILE_CLOSE\000"
 13311      4E5F4649 
 13311      4C455F43 
 13311      4C4F5345 
 13311      00
 13312              	.LASF192:
 13313 1897 4F535F46 		.ascii	"OS_FN_FREE\000"
 13313      4E5F4652 
ARM GAS  C:\Users\AHMED~1.ELE\AppData\Local\Temp\ccfMkwD6.s 			page 268


 13313      454500
 13314              	.LASF560:
 13315 18a2 44495350 		.ascii	"DISP_CLRLINEMW\000"
 13315      5F434C52 
 13315      4C494E45 
 13315      4D5700
 13316              	.LASF408:
 13317 18b1 4F535F46 		.ascii	"OS_FN_MIF_AUTH2\000"
 13317      4E5F4D49 
 13317      465F4155 
 13317      54483200 
 13318              	.LASF7:
 13319 18c1 6C6F6E67 		.ascii	"long long int\000"
 13319      206C6F6E 
 13319      6720696E 
 13319      7400
 13320              	.LASF65:
 13321 18cf 4F535F46 		.ascii	"OS_FN_DISP_CLOSE\000"
 13321      4E5F4449 
 13321      53505F43 
 13321      4C4F5345 
 13321      00
 13322              	.LASF405:
 13323 18e0 4F535F46 		.ascii	"OS_FN_MIF_SELECT\000"
 13323      4E5F4D49 
 13323      465F5345 
 13323      4C454354 
 13323      00
 13324              	.LASF550:
 13325 18f1 4445534B 		.ascii	"DESKEYMW\000"
 13325      45594D57 
 13325      00
 13326              	.LASF388:
 13327 18fa 4F535F46 		.ascii	"OS_FN_NETDEV_EVENT\000"
 13327      4E5F4E45 
 13327      54444556 
 13327      5F455645 
 13327      4E5400
 13328              	.LASF99:
 13329 190d 4F535F46 		.ascii	"OS_FN_COM2_STATUS\000"
 13329      4E5F434F 
 13329      4D325F53 
 13329      54415455 
 13329      5300
 13330              	.LASF712:
 13331 191f 4B444C4C 		.ascii	"KDLL_HSMRSAENCRYPT\000"
 13331      5F48534D 
 13331      52534145 
 13331      4E435259 
 13331      505400
 13332              	.LASF394:
 13333 1932 4F535F46 		.ascii	"OS_FN_TAMPER_ON\000"
 13333      4E5F5441 
 13333      4D504552 
 13333      5F4F4E00 
 13334              	.LASF116:
 13335 1942 4F535F46 		.ascii	"OS_FN_COM_DES2\000"
ARM GAS  C:\Users\AHMED~1.ELE\AppData\Local\Temp\ccfMkwD6.s 			page 269


 13335      4E5F434F 
 13335      4D5F4445 
 13335      533200
 13336              	.LASF34:
 13337 1951 52454655 		.ascii	"REFUND_ICC\000"
 13337      4E445F49 
 13337      434300
 13338              	.LASF538:
 13339 195c 4644454C 		.ascii	"FDELETEMW\000"
 13339      4554454D 
 13339      5700
 13340              	.LASF325:
 13341 1966 4F535F46 		.ascii	"OS_FN_GPRS_RESET\000"
 13341      4E5F4750 
 13341      52535F52 
 13341      45534554 
 13341      00
 13342              	.LASF422:
 13343 1977 4F535F46 		.ascii	"OS_FN_BARCODE_CLOSE\000"
 13343      4E5F4241 
 13343      52434F44 
 13343      455F434C 
 13343      4F534500 
 13344              	.LASF283:
 13345 198b 4F535F46 		.ascii	"OS_FN_FL_PGM_START\000"
 13345      4E5F464C 
 13345      5F50474D 
 13345      5F535441 
 13345      525400
 13346              	.LASF287:
 13347 199e 4F535F46 		.ascii	"OS_FN_FL_ERASE_END\000"
 13347      4E5F464C 
 13347      5F455241 
 13347      53455F45 
 13347      4E4400
 13348              	.LASF323:
 13349 19b1 4F535F46 		.ascii	"OS_FN_GPRS_SEND\000"
 13349      4E5F4750 
 13349      52535F53 
 13349      454E4400 
 13350              	.LASF271:
 13351 19c1 4F535F46 		.ascii	"OS_FN_LPT_STATUS\000"
 13351      4E5F4C50 
 13351      545F5354 
 13351      41545553 
 13351      00
 13352              	.LASF741:
 13353 19d2 6B626462 		.ascii	"kbdbuf\000"
 13353      756600
 13354              	.LASF79:
 13355 19d9 4F535F46 		.ascii	"OS_FN_DISP_ICON_COLOR\000"
 13355      4E5F4449 
 13355      53505F49 
 13355      434F4E5F 
 13355      434F4C4F 
 13356              	.LASF768:
 13357 19ef 7372632F 		.ascii	"src/keytrans.c\000"
ARM GAS  C:\Users\AHMED~1.ELE\AppData\Local\Temp\ccfMkwD6.s 			page 270


 13357      6B657974 
 13357      72616E73 
 13357      2E6300
 13358              	.LASF185:
 13359 19fe 4F535F46 		.ascii	"OS_FN_APP_SEARCH_ID\000"
 13359      4E5F4150 
 13359      505F5345 
 13359      41524348 
 13359      5F494400 
 13360              	.LASF377:
 13361 1a12 4F535F46 		.ascii	"OS_FN_DEVICE_OPEN\000"
 13361      4E5F4445 
 13361      56494345 
 13361      5F4F5045 
 13361      4E00
 13362              	.LASF83:
 13363 1a24 4F535F46 		.ascii	"OS_FN_DISP_OVERLAY\000"
 13363      4E5F4449 
 13363      53505F4F 
 13363      5645524C 
 13363      415900
 13364              	.LASF341:
 13365 1a37 4F535F46 		.ascii	"OS_FN_TPAD_RAW_POS\000"
 13365      4E5F5450 
 13365      41445F52 
 13365      41575F50 
 13365      4F5300
 13366              	.LASF241:
 13367 1a4a 4F535F46 		.ascii	"OS_FN_MMC_CLOSE\000"
 13367      4E5F4D4D 
 13367      435F434C 
 13367      4F534500 
 13368              	.LASF387:
 13369 1a5a 4F535F46 		.ascii	"OS_FN_NETDEV_GETLINK\000"
 13369      4E5F4E45 
 13369      54444556 
 13369      5F474554 
 13369      4C494E4B 
 13370              	.LASF111:
 13371 1a6f 4F535F46 		.ascii	"OS_FN_DESKEY\000"
 13371      4E5F4445 
 13371      534B4559 
 13371      00
 13372              	.LASF86:
 13373 1a7c 4F535F46 		.ascii	"OS_FN_COM1_RXRDY\000"
 13373      4E5F434F 
 13373      4D315F52 
 13373      58524459 
 13373      00
 13374              	.LASF274:
 13375 1a8d 4F535F46 		.ascii	"OS_FN_USBSER_READ\000"
 13375      4E5F5553 
 13375      42534552 
 13375      5F524541 
 13375      4400
 13376              	.LASF126:
 13377 1a9f 4F535F46 		.ascii	"OS_FN_MD5_PROCESS\000"
ARM GAS  C:\Users\AHMED~1.ELE\AppData\Local\Temp\ccfMkwD6.s 			page 271


 13377      4E5F4D44 
 13377      355F5052 
 13377      4F434553 
 13377      5300
 13378              	.LASF532:
 13379 1ab1 4C534545 		.ascii	"LSEEKMW\000"
 13379      4B4D5700 
 13380              	.LASF691:
 13381 1ab9 735F7478 		.ascii	"s_tx_data\000"
 13381      5F646174 
 13381      6100
 13382              	.LASF87:
 13383 1ac3 4F535F46 		.ascii	"OS_FN_COM1_TXRDY\000"
 13383      4E5F434F 
 13383      4D315F54 
 13383      58524459 
 13383      00
 13384              	.LASF719:
 13385 1ad4 4B444C4C 		.ascii	"KDLL_AESKEYINJECT\000"
 13385      5F414553 
 13385      4B455949 
 13385      4E4A4543 
 13385      5400
 13386              	.LASF765:
 13387 1ae6 636F6D70 		.ascii	"compress\000"
 13387      72657373 
 13387      00
 13388              	.LASF478:
 13389 1aef 4F535F46 		.ascii	"OS_FN_FPRT_CLOSE\000"
 13389      4E5F4650 
 13389      52545F43 
 13389      4C4F5345 
 13389      00
 13390              	.LASF153:
 13391 1b00 4F535F46 		.ascii	"OS_FN_KEY_DUKPT_MAC_CAL\000"
 13391      4E5F4B45 
 13391      595F4455 
 13391      4B50545F 
 13391      4D41435F 
 13392              	.LASF380:
 13393 1b18 4F535F46 		.ascii	"OS_FN_INTERRUPT_REGISTER\000"
 13393      4E5F494E 
 13393      54455252 
 13393      5550545F 
 13393      52454749 
 13394              	.LASF601:
 13395 1b31 41504D5F 		.ascii	"APM_GETACQTBL\000"
 13395      47455441 
 13395      43515442 
 13395      4C00
 13396              	.LASF239:
 13397 1b3f 4F535F46 		.ascii	"OS_FN_SAM_CHANGE\000"
 13397      4E5F5341 
 13397      4D5F4348 
 13397      414E4745 
 13397      00
 13398              	.LASF212:
ARM GAS  C:\Users\AHMED~1.ELE\AppData\Local\Temp\ccfMkwD6.s 			page 272


 13399 1b50 4F535F46 		.ascii	"OS_FN_FILE_ACTIVATE\000"
 13399      4E5F4649 
 13399      4C455F41 
 13399      43544956 
 13399      41544500 
 13400              	.LASF73:
 13401 1b64 4F535F46 		.ascii	"OS_FN_DISP_LENGTH\000"
 13401      4E5F4449 
 13401      53505F4C 
 13401      454E4754 
 13401      4800
 13402              	.LASF664:
 13403 1b76 73625F70 		.ascii	"sb_product\000"
 13403      726F6475 
 13403      637400
 13404              	.LASF480:
 13405 1b81 4F535F46 		.ascii	"OS_FN_FPRT_INFO_SET\000"
 13405      4E5F4650 
 13405      52545F49 
 13405      4E464F5F 
 13405      53455400 
 13406              	.LASF0:
 13407 1b95 756E7369 		.ascii	"unsigned int\000"
 13407      676E6564 
 13407      20696E74 
 13407      00
 13408              	.LASF756:
 13409 1ba2 7379735F 		.ascii	"sys_func1\000"
 13409      66756E63 
 13409      3100
 13410              	.LASF763:
 13411 1bac 7379735F 		.ascii	"sys_func2\000"
 13411      66756E63 
 13411      3200
 13412              	.LASF474:
 13413 1bb6 4F535F46 		.ascii	"OS_FN_DTIMER_LATCH_TIME\000"
 13413      4E5F4454 
 13413      494D4552 
 13413      5F4C4154 
 13413      43485F54 
 13414              	.LASF760:
 13415 1bce 4C6F6E67 		.ascii	"LongBeep\000"
 13415      42656570 
 13415      00
 13416              	.LASF352:
 13417 1bd7 4F535F46 		.ascii	"OS_FN_CLICC_SENDCOMMAND\000"
 13417      4E5F434C 
 13417      4943435F 
 13417      53454E44 
 13417      434F4D4D 
 13418              	.LASF465:
 13419 1bef 4F535F46 		.ascii	"OS_FN_DLL_REQ\000"
 13419      4E5F444C 
 13419      4C5F5245 
 13419      5100
 13420              	.LASF205:
 13421 1bfd 4F535F46 		.ascii	"OS_FN_FILE_GETC\000"
ARM GAS  C:\Users\AHMED~1.ELE\AppData\Local\Temp\ccfMkwD6.s 			page 273


 13421      4E5F4649 
 13421      4C455F47 
 13421      45544300 
 13422              	.LASF425:
 13423 1c0d 4F535F46 		.ascii	"OS_FN_BARCODE_READ\000"
 13423      4E5F4241 
 13423      52434F44 
 13423      455F5245 
 13423      414400
 13424              	.LASF566:
 13425 1c20 44495350 		.ascii	"DISP_PUTGMW\000"
 13425      5F505554 
 13425      474D5700 
 13426              	.LASF502:
 13427 1c2c 4F535F46 		.ascii	"OS_FN_IMG_SENSOR_GET_FRAME_COMPLETE\000"
 13427      4E5F494D 
 13427      475F5345 
 13427      4E534F52 
 13427      5F474554 
 13428              	.LASF326:
 13429 1c50 4F535F46 		.ascii	"OS_FN_GPRS_CONTROL\000"
 13429      4E5F4750 
 13429      52535F43 
 13429      4F4E5452 
 13429      4F4C00
 13430              	.LASF447:
 13431 1c63 4F535F46 		.ascii	"OS_FN_GPRS_GET_GPS_INFO\000"
 13431      4E5F4750 
 13431      52535F47 
 13431      45545F47 
 13431      50535F49 
 13432              	.LASF608:
 13433 1c7b 41504D5F 		.ascii	"APM_GETPENDING\000"
 13433      47455450 
 13433      454E4449 
 13433      4E4700
 13434              	.LASF650:
 13435 1c8a 775F6D69 		.ascii	"w_misc_len\000"
 13435      73635F6C 
 13435      656E00
 13436              	.LASF155:
 13437 1c95 4F535F46 		.ascii	"OS_FN_KEY_CBC_MAC\000"
 13437      4E5F4B45 
 13437      595F4342 
 13437      435F4D41 
 13437      4300
 13438              	.LASF121:
 13439 1ca7 4F535F46 		.ascii	"OS_FN_AES_SETUP_KEY\000"
 13439      4E5F4145 
 13439      535F5345 
 13439      5455505F 
 13439      4B455900 
 13440              	.LASF378:
 13441 1cbb 4F535F46 		.ascii	"OS_FN_DEVICE_MOUNT\000"
 13441      4E5F4445 
 13441      56494345 
 13441      5F4D4F55 
ARM GAS  C:\Users\AHMED~1.ELE\AppData\Local\Temp\ccfMkwD6.s 			page 274


 13441      4E5400
 13442              	.LASF117:
 13443 1cce 4F535F46 		.ascii	"OS_FN_NEW_DES\000"
 13443      4E5F4E45 
 13443      575F4445 
 13443      5300
 13444              	.LASF211:
 13445 1cdc 4F535F46 		.ascii	"OS_FN_FILE_DEACTIVATE\000"
 13445      4E5F4649 
 13445      4C455F44 
 13445      45414354 
 13445      49564154 
 13446              	.LASF704:
 13447 1cf2 4B444C4C 		.ascii	"KDLL_DUKPTRESET\000"
 13447      5F44554B 
 13447      50545245 
 13447      53455400 
 13448              	.LASF285:
 13449 1d02 4F535F46 		.ascii	"OS_FN_FL_PGM_END\000"
 13449      4E5F464C 
 13449      5F50474D 
 13449      5F454E44 
 13449      00
 13450              	.LASF292:
 13451 1d13 4F535F46 		.ascii	"OS_FN_FL_CREAD\000"
 13451      4E5F464C 
 13451      5F435245 
 13451      414400
 13452              	.LASF24:
 13453 1d22 53414C45 		.ascii	"SALE_OFFLINE\000"
 13453      5F4F4646 
 13453      4C494E45 
 13453      00
 13454              	.LASF568:
 13455 1d2f 4F535F43 		.ascii	"OS_CALL_MW\000"
 13455      414C4C5F 
 13455      4D5700
 13456              	.LASF443:
 13457 1d3a 4F535F46 		.ascii	"OS_FN_NFC_IC_REG_DIRECT_READ\000"
 13457      4E5F4E46 
 13457      435F4943 
 13457      5F524547 
 13457      5F444952 
 13458              	.LASF416:
 13459 1d57 4F535F46 		.ascii	"OS_FN_MIF_SNO\000"
 13459      4E5F4D49 
 13459      465F534E 
 13459      4F00
 13460              	.LASF158:
 13461 1d65 4F535F46 		.ascii	"OS_FN_KEY_SAVE_TMK_NC\000"
 13461      4E5F4B45 
 13461      595F5341 
 13461      56455F54 
 13461      4D4B5F4E 
 13462              	.LASF279:
 13463 1d7b 4F535F46 		.ascii	"OS_FN_FL_STATUS\000"
 13463      4E5F464C 
ARM GAS  C:\Users\AHMED~1.ELE\AppData\Local\Temp\ccfMkwD6.s 			page 275


 13463      5F535441 
 13463      54555300 
 13464              	.LASF334:
 13465 1d8b 4F535F46 		.ascii	"OS_FN_TPAD_OPEN\000"
 13465      4E5F5450 
 13465      41445F4F 
 13465      50454E00 
 13466              	.LASF746:
 13467 1d9b 70696E62 		.ascii	"pinblk\000"
 13467      6C6B00
 13468              	.LASF140:
 13469 1da2 4F535F46 		.ascii	"OS_FN_SM2_DECRYPT\000"
 13469      4E5F534D 
 13469      325F4445 
 13469      43525950 
 13469      5400
 13470              	.LASF252:
 13471 1db4 4F535F46 		.ascii	"OS_FN_SLE_HIST\000"
 13471      4E5F534C 
 13471      455F4849 
 13471      535400
 13472              	.LASF453:
 13473 1dc3 4F535F46 		.ascii	"OS_FN_BREG_WRITE\000"
 13473      4E5F4252 
 13473      45475F57 
 13473      52495445 
 13473      00
 13474              	.LASF145:
 13475 1dd4 4F535F46 		.ascii	"OS_FN_SM4_ENCRYPT\000"
 13475      4E5F534D 
 13475      345F454E 
 13475      43525950 
 13475      5400
 13476              	.LASF31:
 13477 1de6 4544435F 		.ascii	"EDC_REV\000"
 13477      52455600 
 13478              	.LASF244:
 13479 1dee 4F535F46 		.ascii	"OS_FN_MMC_PSTATUS\000"
 13479      4E5F4D4D 
 13479      435F5053 
 13479      54415455 
 13479      5300
 13480              	.LASF458:
 13481 1e00 4F535F46 		.ascii	"OS_FN_RESET\000"
 13481      4E5F5245 
 13481      53455400 
 13482              	.LASF286:
 13483 1e0c 4F535F46 		.ascii	"OS_FN_FL_ERASE_START\000"
 13483      4E5F464C 
 13483      5F455241 
 13483      53455F53 
 13483      54415254 
 13484              	.LASF344:
 13485 1e21 4F535F46 		.ascii	"OS_FN_CODEC_PLAY\000"
 13485      4E5F434F 
 13485      4445435F 
 13485      504C4159 
ARM GAS  C:\Users\AHMED~1.ELE\AppData\Local\Temp\ccfMkwD6.s 			page 276


 13485      00
 13486              	.LASF78:
 13487 1e32 4F535F46 		.ascii	"OS_FN_DISP_BL_CONTROL\000"
 13487      4E5F4449 
 13487      53505F42 
 13487      4C5F434F 
 13487      4E54524F 
 13488              	.LASF14:
 13489 1e48 574F5244 		.ascii	"WORD\000"
 13489      00
 13490              	.LASF385:
 13491 1e4d 4F535F46 		.ascii	"OS_FN_NETDEV_OPEN\000"
 13491      4E5F4E45 
 13491      54444556 
 13491      5F4F5045 
 13491      4E00
 13492              	.LASF752:
 13493 1e5f 64686F73 		.ascii	"dhost_idx\000"
 13493      745F6964 
 13493      7800
 13494              	.LASF489:
 13495 1e69 4F535F46 		.ascii	"OS_FN_GCM_AES_FINISH\000"
 13495      4E5F4743 
 13495      4D5F4145 
 13495      535F4649 
 13495      4E495348 
 13496              	.LASF622:
 13497 1e7e 41504D5F 		.ascii	"APM_GET_BATCH_REC\000"
 13497      4745545F 
 13497      42415443 
 13497      485F5245 
 13497      4300
 13498              	.LASF667:
 13499 1e90 73625F65 		.ascii	"sb_ecr_ref\000"
 13499      63725F72 
 13499      656600
 13500              	.LASF2:
 13501 1e9b 756E7369 		.ascii	"unsigned char\000"
 13501      676E6564 
 13501      20636861 
 13501      7200
 13502              	.LASF356:
 13503 1ea9 4F535F46 		.ascii	"OS_FN_CLICC_LED_CLOSE\000"
 13503      4E5F434C 
 13503      4943435F 
 13503      4C45445F 
 13503      434C4F53 
 13504              	.LASF625:
 13505 1ebf 41504D5F 		.ascii	"APM_SAVE_BAT_REC\000"
 13505      53415645 
 13505      5F424154 
 13505      5F524543 
 13505      00
 13506              	.LASF358:
 13507 1ed0 4F535F46 		.ascii	"OS_FN_CLICC_LED_SET\000"
 13507      4E5F434C 
 13507      4943435F 
ARM GAS  C:\Users\AHMED~1.ELE\AppData\Local\Temp\ccfMkwD6.s 			page 277


 13507      4C45445F 
 13507      53455400 
 13508              	.LASF553:
 13509 1ee4 44495350 		.ascii	"DISPLOGOMW\000"
 13509      4C4F474F 
 13509      4D5700
 13510              	.LASF653:
 13511 1eef 625F7472 		.ascii	"b_trans\000"
 13511      616E7300 
 13512              	.LASF436:
 13513 1ef7 4F535F46 		.ascii	"OS_FN_NFC_SEND_FELICA_COMMAND\000"
 13513      4E5F4E46 
 13513      435F5345 
 13513      4E445F46 
 13513      454C4943 
 13514              	.LASF69:
 13515 1f15 4F535F46 		.ascii	"OS_FN_DISP_GETG\000"
 13515      4E5F4449 
 13515      53505F47 
 13515      45544700 
 13516              	.LASF353:
 13517 1f25 4F535F46 		.ascii	"OS_FN_CLICC_CTRL\000"
 13517      4E5F434C 
 13517      4943435F 
 13517      4354524C 
 13517      00
 13518              	.LASF246:
 13519 1f36 4F535F46 		.ascii	"OS_FN_MMC_BLK_WRITE\000"
 13519      4E5F4D4D 
 13519      435F424C 
 13519      4B5F5752 
 13519      49544500 
 13520              	.LASF391:
 13521 1f4a 4F535F46 		.ascii	"OS_FN_USBKBD_CLOSE\000"
 13521      4E5F5553 
 13521      424B4244 
 13521      5F434C4F 
 13521      534500
 13522              	.LASF386:
 13523 1f5d 4F535F46 		.ascii	"OS_FN_NETDEV_CLOSE\000"
 13523      4E5F4E45 
 13523      54444556 
 13523      5F434C4F 
 13523      534500
 13524              	.LASF215:
 13525 1f70 4F535F46 		.ascii	"OS_FN_FILE_AUTH\000"
 13525      4E5F4649 
 13525      4C455F41 
 13525      55544800 
 13526              	.LASF294:
 13527 1f80 4F535F46 		.ascii	"OS_FN_FL_COPYBACK\000"
 13527      4E5F464C 
 13527      5F434F50 
 13527      59424143 
 13527      4B00
 13528              	.LASF17:
 13529 1f92 41555448 		.ascii	"AUTH_SWIPE\000"
ARM GAS  C:\Users\AHMED~1.ELE\AppData\Local\Temp\ccfMkwD6.s 			page 278


 13529      5F535749 
 13529      504500
 13530              	.LASF668:
 13531 1f9d 73625F61 		.ascii	"sb_auth_code\000"
 13531      7574685F 
 13531      636F6465 
 13531      00
 13532              	.LASF57:
 13533 1faa 4F535F46 		.ascii	"OS_FN_TIMER_GET\000"
 13533      4E5F5449 
 13533      4D45525F 
 13533      47455400 
 13534              	.LASF662:
 13535 1fba 64645F74 		.ascii	"dd_tip\000"
 13535      697000
 13536              	.LASF206:
 13537 1fc1 4F535F46 		.ascii	"OS_FN_FILE_LENGTH\000"
 13537      4E5F4649 
 13537      4C455F4C 
 13537      454E4754 
 13537      4800
 13538              	.LASF516:
 13539 1fd3 454E445F 		.ascii	"END_OF_OS_FN_LIST\000"
 13539      4F465F4F 
 13539      535F464E 
 13539      5F4C4953 
 13539      5400
 13540              	.LASF684:
 13541 1fe5 625F6F72 		.ascii	"b_org_trans\000"
 13541      675F7472 
 13541      616E7300 
 13542              	.LASF567:
 13543 1ff1 4745545F 		.ascii	"GET_LCD_TYPEMW\000"
 13543      4C43445F 
 13543      54595045 
 13543      4D5700
 13544              	.LASF190:
 13545 2000 4F535F46 		.ascii	"OS_FN_MALLOC\000"
 13545      4E5F4D41 
 13545      4C4C4F43 
 13545      00
 13546              	.LASF393:
 13547 200d 4F535F46 		.ascii	"OS_FN_USBKBD_GETKEY\000"
 13547      4E5F5553 
 13547      424B4244 
 13547      5F474554 
 13547      4B455900 
 13548              	.LASF612:
 13549 2021 41504D5F 		.ascii	"APM_SELACQUIRER\000"
 13549      53454C41 
 13549      43515549 
 13549      52455200 
 13550              	.LASF472:
 13551 2031 4F535F46 		.ascii	"OS_FN_DTIMER_LATCH_START\000"
 13551      4E5F4454 
 13551      494D4552 
 13551      5F4C4154 
ARM GAS  C:\Users\AHMED~1.ELE\AppData\Local\Temp\ccfMkwD6.s 			page 279


 13551      43485F53 
 13552              	.LASF448:
 13553 204a 4F535F46 		.ascii	"OS_FN_GPS_CMD\000"
 13553      4E5F4750 
 13553      535F434D 
 13553      4400
 13554              	.LASF428:
 13555 2058 4F535F46 		.ascii	"OS_FN_BARCODE_ENABLED\000"
 13555      4E5F4241 
 13555      52434F44 
 13555      455F454E 
 13555      41424C45 
 13556              	.LASF199:
 13557 206e 4F535F46 		.ascii	"OS_FN_FILE_DELETE\000"
 13557      4E5F4649 
 13557      4C455F44 
 13557      454C4554 
 13557      4500
 13558              	.LASF175:
 13559 2080 4F535F46 		.ascii	"OS_FN_BUFMAN_REALLOC\000"
 13559      4E5F4255 
 13559      464D414E 
 13559      5F524541 
 13559      4C4C4F43 
 13560              	.LASF340:
 13561 2095 4F535F46 		.ascii	"OS_FN_TPAD_CALIBRATE\000"
 13561      4E5F5450 
 13561      41445F43 
 13561      414C4942 
 13561      52415445 
 13562              	.LASF626:
 13563 20aa 41504D5F 		.ascii	"APM_UPD_BAT_REC\000"
 13563      5550445F 
 13563      4241545F 
 13563      52454300 
 13564              	.LASF552:
 13565 20ba 44455332 		.ascii	"DES2MW\000"
 13565      4D5700
 13566              	.LASF723:
 13567 20c1 4B444C4C 		.ascii	"KDLL_SREDENCRYPTALL\000"
 13567      5F535245 
 13567      44454E43 
 13567      52595054 
 13567      414C4C00 
 13568              	.LASF135:
 13569 20d5 4F535F46 		.ascii	"OS_FN_SM2_SET_CURVE\000"
 13569      4E5F534D 
 13569      325F5345 
 13569      545F4355 
 13569      52564500 
 13570              	.LASF302:
 13571 20e9 4F535F46 		.ascii	"OS_FN_MCOM_OPEN\000"
 13571      4E5F4D43 
 13571      4F4D5F4F 
 13571      50454E00 
 13572              	.LASF359:
 13573 20f9 4F535F46 		.ascii	"OS_FN_CLICC_LED_CLEAR\000"
ARM GAS  C:\Users\AHMED~1.ELE\AppData\Local\Temp\ccfMkwD6.s 			page 280


 13573      4E5F434C 
 13573      4943435F 
 13573      4C45445F 
 13573      434C4541 
 13574              	.LASF186:
 13575 210f 4F535F46 		.ascii	"OS_FN_APP_SEARCH_NAME\000"
 13575      4E5F4150 
 13575      505F5345 
 13575      41524348 
 13575      5F4E414D 
 13576              	.LASF454:
 13577 2125 4F535F46 		.ascii	"OS_FN_APPDL_WRITE_APP\000"
 13577      4E5F4150 
 13577      50444C5F 
 13577      57524954 
 13577      455F4150 
 13578              	.LASF735:
 13579 213b 4B456E63 		.ascii	"KEncrypt2\000"
 13579      72797074 
 13579      3200
 13580              	.LASF129:
 13581 2145 4F535F46 		.ascii	"OS_FN_SHA_PROCESS\000"
 13581      4E5F5348 
 13581      415F5052 
 13581      4F434553 
 13581      5300
 13582              	.LASF389:
 13583 2157 4F535F46 		.ascii	"OS_FN_NETDEV_IOCTL\000"
 13583      4E5F4E45 
 13583      54444556 
 13583      5F494F43 
 13583      544C00
 13584              	.LASF112:
 13585 216a 4F535F46 		.ascii	"OS_FN_DES\000"
 13585      4E5F4445 
 13585      5300
 13586              	.LASF503:
 13587 2174 4F535F46 		.ascii	"OS_FN_IMG_SENSOR_CLOSE\000"
 13587      4E5F494D 
 13587      475F5345 
 13587      4E534F52 
 13587      5F434C4F 
 13588              	.LASF85:
 13589 218b 4F535F46 		.ascii	"OS_FN_COM1_CLOSE\000"
 13589      4E5F434F 
 13589      4D315F43 
 13589      4C4F5345 
 13589      00
 13590              	.LASF604:
 13591 219c 41504D5F 		.ascii	"APM_GETLOGOCOUNT\000"
 13591      4745544C 
 13591      4F474F43 
 13591      4F554E54 
 13591      00
 13592              	.LASF424:
 13593 21ad 4F535F46 		.ascii	"OS_FN_BARCODE_SCAN\000"
 13593      4E5F4241 
ARM GAS  C:\Users\AHMED~1.ELE\AppData\Local\Temp\ccfMkwD6.s 			page 281


 13593      52434F44 
 13593      455F5343 
 13593      414E00
 13594              	.LASF51:
 13595 21c0 4F535F46 		.ascii	"OS_FN_KBD_GETKEY\000"
 13595      4E5F4B42 
 13595      445F4745 
 13595      544B4559 
 13595      00
 13596              	.LASF363:
 13597 21d1 4F535F46 		.ascii	"OS_FN_USBHOST_RESET_DEVICE\000"
 13597      4E5F5553 
 13597      42484F53 
 13597      545F5245 
 13597      5345545F 
 13598              	.LASF589:
 13599 21ec 41504D5F 		.ascii	"APM_PRECONNECT\000"
 13599      50524543 
 13599      4F4E4E45 
 13599      435400
 13600              	.LASF587:
 13601 21fb 41504D5F 		.ascii	"APM_GETKBDTO\000"
 13601      4745544B 
 13601      4244544F 
 13601      00
 13602              	.LASF709:
 13603 2208 4B444C4C 		.ascii	"KDLL_DUKPTCALMAC\000"
 13603      5F44554B 
 13603      50544341 
 13603      4C4D4143 
 13603      00
 13604              	.LASF737:
 13605 2219 4B446563 		.ascii	"KDecrypt1\000"
 13605      72797074 
 13605      3100
 13606              	.LASF336:
 13607 2223 4F535F46 		.ascii	"OS_FN_TPAD_ADD_OBJ\000"
 13607      4E5F5450 
 13607      41445F41 
 13607      44445F4F 
 13607      424A00
 13608              	.LASF692:
 13609 2236 735F7273 		.ascii	"s_rsp_data\000"
 13609      705F6461 
 13609      746100
 13610              	.LASF259:
 13611 2241 4F535F46 		.ascii	"OS_FN_LAN_SEND\000"
 13611      4E5F4C41 
 13611      4E5F5345 
 13611      4E4400
 13612              	.LASF744:
 13613 2250 5365744D 		.ascii	"SetMode\000"
 13613      6F646500 
 13614              	.LASF8:
 13615 2258 6C6F6E67 		.ascii	"long long unsigned int\000"
 13615      206C6F6E 
 13615      6720756E 
ARM GAS  C:\Users\AHMED~1.ELE\AppData\Local\Temp\ccfMkwD6.s 			page 282


 13615      7369676E 
 13615      65642069 
 13616              	.LASF284:
 13617 226f 4F535F46 		.ascii	"OS_FN_FL_WRITE\000"
 13617      4E5F464C 
 13617      5F575249 
 13617      544500
 13618              	.LASF227:
 13619 227e 4F535F46 		.ascii	"OS_FN_FILE_IOCTL\000"
 13619      4E5F4649 
 13619      4C455F49 
 13619      4F43544C 
 13619      00
 13620              	.LASF656:
 13621 228f 625F6163 		.ascii	"b_acc_ind\000"
 13621      635F696E 
 13621      6400
 13622              	.LASF574:
 13623 2299 534D535F 		.ascii	"SMS_CLEAR_ALL_MW\000"
 13623      434C4541 
 13623      525F414C 
 13623      4C5F4D57 
 13623      00
 13624              	.LASF439:
 13625 22aa 4F535F46 		.ascii	"OS_FN_NFC_GET_VALID_RESP\000"
 13625      4E5F4E46 
 13625      435F4745 
 13625      545F5641 
 13625      4C49445F 
 13626              	.LASF671:
 13627 22c3 73625F72 		.ascii	"sb_rrn\000"
 13627      726E00
 13628              	.LASF636:
 13629 22ca 625F6365 		.ascii	"b_century\000"
 13629      6E747572 
 13629      7900
 13630              	.LASF369:
 13631 22d4 4F535F46 		.ascii	"OS_FN_DRIVER_UNREGISTER\000"
 13631      4E5F4452 
 13631      49564552 
 13631      5F554E52 
 13631      45474953 
 13632              	.LASF697:
 13633 22ec 4B444C4C 		.ascii	"KDLL_KEYDECRYPT\000"
 13633      5F4B4559 
 13633      44454352 
 13633      59505400 
 13634              	.LASF53:
 13635 22fc 4F535F46 		.ascii	"OS_FN_KBD_UNLOCK\000"
 13635      4E5F4B42 
 13635      445F554E 
 13635      4C4F434B 
 13635      00
 13636              	.LASF339:
 13637 230d 4F535F46 		.ascii	"OS_FN_TPAD_ALERT_RETURN\000"
 13637      4E5F5450 
 13637      41445F41 
ARM GAS  C:\Users\AHMED~1.ELE\AppData\Local\Temp\ccfMkwD6.s 			page 283


 13637      4C455254 
 13637      5F524554 
 13638              	.LASF159:
 13639 2325 4F535F46 		.ascii	"OS_FN_KEY_SAVE_TMK_CBC\000"
 13639      4E5F4B45 
 13639      595F5341 
 13639      56455F54 
 13639      4D4B5F43 
 13640              	.LASF115:
 13641 233c 4F535F46 		.ascii	"OS_FN_COM_DES\000"
 13641      4E5F434F 
 13641      4D5F4445 
 13641      5300
 13642              	.LASF134:
 13643 234a 4F535F46 		.ascii	"OS_FN_MD4_FINISH\000"
 13643      4E5F4D44 
 13643      345F4649 
 13643      4E495348 
 13643      00
 13644              	.LASF102:
 13645 235b 4F535F46 		.ascii	"OS_FN_COM3_OPEN\000"
 13645      4E5F434F 
 13645      4D335F4F 
 13645      50454E00 
 13646              	.LASF545:
 13647 236b 46434F4D 		.ascii	"FCOMMITALLMW\000"
 13647      4D495441 
 13647      4C4C4D57 
 13647      00
 13648              	.LASF289:
 13649 2378 4F535F46 		.ascii	"OS_FN_FL_COPYB_PGM\000"
 13649      4E5F464C 
 13649      5F434F50 
 13649      59425F50 
 13649      474D00
 13650              	.LASF514:
 13651 238b 4F535F46 		.ascii	"OS_FN_IMG_SENSOR_SET_MODE\000"
 13651      4E5F494D 
 13651      475F5345 
 13651      4E534F52 
 13651      5F534554 
 13652              	.LASF390:
 13653 23a5 4F535F46 		.ascii	"OS_FN_USBKBD_OPEN\000"
 13653      4E5F5553 
 13653      424B4244 
 13653      5F4F5045 
 13653      4E00
 13654              	.LASF593:
 13655 23b7 41504D5F 		.ascii	"APM_RESETCOMM\000"
 13655      52455345 
 13655      54434F4D 
 13655      4D00
 13656              	.LASF32:
 13657 23c5 53414C45 		.ascii	"SALE_ICC\000"
 13657      5F494343 
 13657      00
 13658              	.LASF614:
ARM GAS  C:\Users\AHMED~1.ELE\AppData\Local\Temp\ccfMkwD6.s 			page 284


 13659 23ce 41504D5F 		.ascii	"APM_SETTRACE\000"
 13659      53455454 
 13659      52414345 
 13659      00
 13660              	.LASF290:
 13661 23db 4F535F46 		.ascii	"OS_FN_FL_COPYB_END\000"
 13661      4E5F464C 
 13661      5F434F50 
 13661      59425F45 
 13661      4E4400
 13662              	.LASF38:
 13663 23ee 41555448 		.ascii	"AUTH_CTL\000"
 13663      5F43544C 
 13663      00
 13664              	.LASF94:
 13665 23f7 4F535F46 		.ascii	"OS_FN_COM2_CLOSE\000"
 13665      4E5F434F 
 13665      4D325F43 
 13665      4C4F5345 
 13665      00
 13666              	.LASF570:
 13667 2408 534D535F 		.ascii	"SMS_ENB_MW\000"
 13667      454E425F 
 13667      4D5700
 13668              	.LASF732:
 13669 2413 52657365 		.ascii	"ResetKey\000"
 13669      744B6579 
 13669      00
 13670              	.LASF450:
 13671 241c 4F535F46 		.ascii	"OS_FN_GPS_RESET\000"
 13671      4E5F4750 
 13671      535F5245 
 13671      53455400 
 13672              	.LASF397:
 13673 242c 4F535F46 		.ascii	"OS_FN_MIF_OPEN\000"
 13673      4E5F4D49 
 13673      465F4F50 
 13673      454E00
 13674              	.LASF731:
 13675 243b 6B657963 		.ascii	"keycontent\000"
 13675      6F6E7465 
 13675      6E7400
 13676              	.LASF690:
 13677 2446 735F696E 		.ascii	"s_input\000"
 13677      70757400 
 13678              	.LASF576:
 13679 244e 46545255 		.ascii	"FTRUNCATEMW\000"
 13679      4E434154 
 13679      454D5700 
 13680              	.LASF486:
 13681 245a 4F535F46 		.ascii	"OS_FN_GCM_AES_INIT\000"
 13681      4E5F4743 
 13681      4D5F4145 
 13681      535F494E 
 13681      495400
 13682              	.LASF511:
 13683 246d 4F535F46 		.ascii	"OS_FN_WIFI_SET_REGULATORY_DOMAIN\000"
ARM GAS  C:\Users\AHMED~1.ELE\AppData\Local\Temp\ccfMkwD6.s 			page 285


 13683      4E5F5749 
 13683      46495F53 
 13683      45545F52 
 13683      4547554C 
 13684              	.LASF658:
 13685 248e 73625F70 		.ascii	"sb_pan\000"
 13685      616E00
 13686              	.LASF313:
 13687 2495 4F535F46 		.ascii	"OS_FN_BATT_TEMP\000"
 13687      4E5F4241 
 13687      54545F54 
 13687      454D5000 
 13688              	.LASF414:
 13689 24a5 4F535F46 		.ascii	"OS_FN_MIF_TRANSFER\000"
 13689      4E5F4D49 
 13689      465F5452 
 13689      414E5346 
 13689      455200
 13690              	.LASF583:
 13691 24b8 41504D5F 		.ascii	"APM_WAITKEY\000"
 13691      57414954 
 13691      4B455900 
 13692              	.LASF157:
 13693 24c4 4F535F46 		.ascii	"OS_FN_KEY_SAVE_NC\000"
 13693      4E5F4B45 
 13693      595F5341 
 13693      56455F4E 
 13693      4300
 13694              	.LASF599:
 13695 24d6 41504D5F 		.ascii	"APM_GETISSUER\000"
 13695      47455449 
 13695      53535545 
 13695      5200
 13696              	.LASF764:
 13697 24e4 6D656D73 		.ascii	"memset\000"
 13697      657400
 13698              	.LASF30:
 13699 24eb 53455454 		.ascii	"SETTLEMENT\000"
 13699      4C454D45 
 13699      4E5400
 13700              	.LASF55:
 13701 24f6 4F535F46 		.ascii	"OS_FN_TIMER_CLOSE\000"
 13701      4E5F5449 
 13701      4D45525F 
 13701      434C4F53 
 13701      4500
 13702              	.LASF176:
 13703 2508 4F535F46 		.ascii	"OS_FN_BUFMAN_SHRINK\000"
 13703      4E5F4255 
 13703      464D414E 
 13703      5F534852 
 13703      494E4B00 
 13704              	.LASF714:
 13705 251c 4B444C4C 		.ascii	"KDLL_HSMRSASSLINJECT\000"
 13705      5F48534D 
 13705      52534153 
 13705      534C494E 
ARM GAS  C:\Users\AHMED~1.ELE\AppData\Local\Temp\ccfMkwD6.s 			page 286


 13705      4A454354 
 13706              	.LASF96:
 13707 2531 4F535F46 		.ascii	"OS_FN_COM2_TXRDY\000"
 13707      4E5F434F 
 13707      4D325F54 
 13707      58524459 
 13707      00
 13708              	.LASF303:
 13709 2542 4F535F46 		.ascii	"OS_FN_MCOM_CLOSE\000"
 13709      4E5F4D43 
 13709      4F4D5F43 
 13709      4C4F5345 
 13709      00
 13710              	.LASF132:
 13711 2553 4F535F46 		.ascii	"OS_FN_RC4_ENCRYPT\000"
 13711      4E5F5243 
 13711      345F454E 
 13711      43525950 
 13711      5400
 13712              	.LASF426:
 13713 2565 4F535F46 		.ascii	"OS_FN_BARCODE_ABORT\000"
 13713      4E5F4241 
 13713      52434F44 
 13713      455F4142 
 13713      4F525400 
 13714              	.LASF413:
 13715 2579 4F535F46 		.ascii	"OS_FN_MIF_RESTORE\000"
 13715      4E5F4D49 
 13715      465F5245 
 13715      53544F52 
 13715      4500
 13716              	.LASF423:
 13717 258b 4F535F46 		.ascii	"OS_FN_BARCODE_CMD\000"
 13717      4E5F4241 
 13717      52434F44 
 13717      455F434D 
 13717      4400
 13718              	.LASF527:
 13719 259d 53485554 		.ascii	"SHUTDOWNMW\000"
 13719      444F574E 
 13719      4D5700
 13720              	.LASF61:
 13721 25a8 4F535F46 		.ascii	"OS_FN_BUZ_STATE\000"
 13721      4E5F4255 
 13721      5A5F5354 
 13721      41544500 
 13722              	.LASF669:
 13723 25b8 775F7273 		.ascii	"w_rspcode\000"
 13723      70636F64 
 13723      6500
 13724              	.LASF332:
 13725 25c2 4F535F46 		.ascii	"OS_FN_GPRS_SMS_CONTROL\000"
 13725      4E5F4750 
 13725      52535F53 
 13725      4D535F43 
 13725      4F4E5452 
 13726              	.LASF256:
ARM GAS  C:\Users\AHMED~1.ELE\AppData\Local\Temp\ccfMkwD6.s 			page 287


 13727 25d9 4F535F46 		.ascii	"OS_FN_LAN_RXRDY\000"
 13727      4E5F4C41 
 13727      4E5F5258 
 13727      52445900 
 13728              	.LASF685:
 13729 25e9 73625F6F 		.ascii	"sb_org_trace_no\000"
 13729      72675F74 
 13729      72616365 
 13729      5F6E6F00 
 13730              	.LASF36:
 13731 25f9 4553414C 		.ascii	"ESALE_COMPLETE\000"
 13731      455F434F 
 13731      4D504C45 
 13731      544500
 13732              	.LASF679:
 13733 2608 775F6361 		.ascii	"w_card_idx\000"
 13733      72645F69 
 13733      647800
 13734              	.LASF558:
 13735 2613 44495350 		.ascii	"DISP_PUTCMW\000"
 13735      5F505554 
 13735      434D5700 
 13736              	.LASF630:
 13737 261f 41504D5F 		.ascii	"APM_SELYESNO\000"
 13737      53454C59 
 13737      45534E4F 
 13737      00
 13738              	.LASF706:
 13739 262c 4B444C4C 		.ascii	"KDLL_DUKPTGETPIN\000"
 13739      5F44554B 
 13739      50544745 
 13739      5450494E 
 13739      00
 13740              	.LASF603:
 13741 263d 41504D5F 		.ascii	"APM_GETDESCTBL\000"
 13741      47455444 
 13741      45534354 
 13741      424C00
 13742              	.LASF374:
 13743 264c 4F535F46 		.ascii	"OS_FN_DEVICE_IOCTL\000"
 13743      4E5F4445 
 13743      56494345 
 13743      5F494F43 
 13743      544C00
 13744              	.LASF183:
 13745 265f 4F535F46 		.ascii	"OS_FN_GET_CHALLENGE\000"
 13745      4E5F4745 
 13745      545F4348 
 13745      414C4C45 
 13745      4E474500 
 13746              	.LASF245:
 13747 2673 4F535F46 		.ascii	"OS_FN_MMC_BLK_READ\000"
 13747      4E5F4D4D 
 13747      435F424C 
 13747      4B5F5245 
 13747      414400
 13748              	.LASF125:
ARM GAS  C:\Users\AHMED~1.ELE\AppData\Local\Temp\ccfMkwD6.s 			page 288


 13749 2686 4F535F46 		.ascii	"OS_FN_MD5_INIT\000"
 13749      4E5F4D44 
 13749      355F494E 
 13749      495400
 13750              	.LASF20:
 13751 2695 53414C45 		.ascii	"SALE_MANUAL\000"
 13751      5F4D414E 
 13751      55414C00 
 13752              	.LASF42:
 13753 26a1 4D41585F 		.ascii	"MAX_TXN_TYPE\000"
 13753      54584E5F 
 13753      54595045 
 13753      00
 13754              	.LASF281:
 13755 26ae 4F535F46 		.ascii	"OS_FN_FL_PAGE\000"
 13755      4E5F464C 
 13755      5F504147 
 13755      4500
 13756              	.LASF751:
 13757 26bc 49636354 		.ascii	"IccTmkInject\000"
 13757      6D6B496E 
 13757      6A656374 
 13757      00
 13758              	.LASF585:
 13759 26c9 41504D5F 		.ascii	"APM_GETKBD\000"
 13759      4745544B 
 13759      424400
 13760              	.LASF172:
 13761 26d4 4F535F46 		.ascii	"OS_FN_THREAD_RETURN\000"
 13761      4E5F5448 
 13761      52454144 
 13761      5F524554 
 13761      55524E00 
 13762              	.LASF231:
 13763 26e8 4F535F46 		.ascii	"OS_FN_CONFIG_UPDATE\000"
 13763      4E5F434F 
 13763      4E464947 
 13763      5F555044 
 13763      41544500 
 13764              	.LASF700:
 13765 26fc 4B444C4C 		.ascii	"KDLL_KEYGETX98PIN\000"
 13765      5F4B4559 
 13765      47455458 
 13765      39385049 
 13765      4E00
 13766              	.LASF440:
 13767 270e 4F535F46 		.ascii	"OS_FN_NFC_INFO_GET\000"
 13767      4E5F4E46 
 13767      435F494E 
 13767      464F5F47 
 13767      455400
 13768              	.LASF657:
 13769 2721 73625F72 		.ascii	"sb_roc_no\000"
 13769      6F635F6E 
 13769      6F00
 13770              	.LASF634:
 13771 272b 41504D5F 		.ascii	"APM_FUNC_COUNT\000"
ARM GAS  C:\Users\AHMED~1.ELE\AppData\Local\Temp\ccfMkwD6.s 			page 289


 13771      46554E43 
 13771      5F434F55 
 13771      4E5400
 13772              	.LASF627:
 13773 273a 41504D5F 		.ascii	"APM_TRACE_IN_BATCH\000"
 13773      54524143 
 13773      455F494E 
 13773      5F424154 
 13773      434800
 13774              	.LASF665:
 13775 274d 625F656E 		.ascii	"b_entry_mode\000"
 13775      7472795F 
 13775      6D6F6465 
 13775      00
 13776              	.LASF219:
 13777 275a 4F535F46 		.ascii	"OS_FN_FILE_GET_SYSTEMINFO\000"
 13777      4E5F4649 
 13777      4C455F47 
 13777      45545F53 
 13777      59535445 
 13778              	.LASF406:
 13779 2774 4F535F46 		.ascii	"OS_FN_MIF_LOAD_KEY\000"
 13779      4E5F4D49 
 13779      465F4C4F 
 13779      41445F4B 
 13779      455900
 13780              	.LASF240:
 13781 2787 4F535F46 		.ascii	"OS_FN_MMC_OPEN\000"
 13781      4E5F4D4D 
 13781      435F4F50 
 13781      454E00
 13782              	.LASF373:
 13783 2796 4F535F46 		.ascii	"OS_FN_DEVICE_ALLOC_MEDIA\000"
 13783      4E5F4445 
 13783      56494345 
 13783      5F414C4C 
 13783      4F435F4D 
 13784              	.LASF249:
 13785 27af 4F535F46 		.ascii	"OS_FN_MMC_INSERTED\000"
 13785      4E5F4D4D 
 13785      435F494E 
 13785      53455254 
 13785      454400
 13786              	.LASF487:
 13787 27c2 4F535F46 		.ascii	"OS_FN_GCM_AES_PROCESS_AAD\000"
 13787      4E5F4743 
 13787      4D5F4145 
 13787      535F5052 
 13787      4F434553 
 13788              	.LASF395:
 13789 27dc 4F535F46 		.ascii	"OS_FN_TAMPER_GET_STATUS\000"
 13789      4E5F5441 
 13789      4D504552 
 13789      5F474554 
 13789      5F535441 
 13790              	.LASF198:
 13791 27f4 4F535F46 		.ascii	"OS_FN_FILE_RENAME\000"
ARM GAS  C:\Users\AHMED~1.ELE\AppData\Local\Temp\ccfMkwD6.s 			page 290


 13791      4E5F4649 
 13791      4C455F52 
 13791      454E414D 
 13791      4500
 13792              	.LASF107:
 13793 2806 4F535F46 		.ascii	"OS_FN_COM3_SEND\000"
 13793      4E5F434F 
 13793      4D335F53 
 13793      454E4400 
 13794              	.LASF647:
 13795 2816 73625F74 		.ascii	"sb_tag_95\000"
 13795      61675F39 
 13795      3500
 13796              	.LASF152:
 13797 2820 4F535F46 		.ascii	"OS_FN_KEY_DUKPT_ENCRYPT\000"
 13797      4E5F4B45 
 13797      595F4455 
 13797      4B50545F 
 13797      454E4352 
 13798              	.LASF677:
 13799 2838 735F7472 		.ascii	"s_trk1buf\000"
 13799      6B316275 
 13799      6600
 13800              	.LASF169:
 13801 2842 4F535F46 		.ascii	"OS_FN_THREAD_UNLOCK\000"
 13801      4E5F5448 
 13801      52454144 
 13801      5F554E4C 
 13801      4F434B00 
 13802              	.LASF398:
 13803 2856 4F535F46 		.ascii	"OS_FN_MIF_CLOSE\000"
 13803      4E5F4D49 
 13803      465F434C 
 13803      4F534500 
 13804              	.LASF25:
 13805 2866 53414C45 		.ascii	"SALE_COMPLETE\000"
 13805      5F434F4D 
 13805      504C4554 
 13805      4500
 13806              	.LASF108:
 13807 2874 4F535F46 		.ascii	"OS_FN_COM3_STATUS\000"
 13807      4E5F434F 
 13807      4D335F53 
 13807      54415455 
 13807      5300
 13808              	.LASF335:
 13809 2886 4F535F46 		.ascii	"OS_FN_TPAD_CLOSE\000"
 13809      4E5F5450 
 13809      41445F43 
 13809      4C4F5345 
 13809      00
 13810              	.LASF3:
 13811 2897 73686F72 		.ascii	"short int\000"
 13811      7420696E 
 13811      7400
 13812              	.LASF235:
 13813 28a1 4F535F46 		.ascii	"OS_FN_SAM_INSERTED\000"
ARM GAS  C:\Users\AHMED~1.ELE\AppData\Local\Temp\ccfMkwD6.s 			page 291


 13813      4E5F5341 
 13813      4D5F494E 
 13813      53455254 
 13813      454400
 13814              	.LASF518:
 13815 28b4 55534246 		.ascii	"USBFPRT_GENERAL_INFO_IMG_WIDTH\000"
 13815      5052545F 
 13815      47454E45 
 13815      52414C5F 
 13815      494E464F 
 13816              	.LASF357:
 13817 28d3 4F535F46 		.ascii	"OS_FN_CLICC_LED_STATUS\000"
 13817      4E5F434C 
 13817      4943435F 
 13817      4C45445F 
 13817      53544154 
 13818              	.LASF699:
 13819 28ea 4B444C4C 		.ascii	"KDLL_KEY3DECRYPT\000"
 13819      5F4B4559 
 13819      33444543 
 13819      52595054 
 13819      00
 13820              	.LASF92:
 13821 28fb 4F535F46 		.ascii	"OS_FN_COM1_SSEND\000"
 13821      4E5F434F 
 13821      4D315F53 
 13821      53454E44 
 13821      00
 13822              	.LASF375:
 13823 290c 4F535F46 		.ascii	"OS_FN_DEVICE_SEARCH_INIT\000"
 13823      4E5F4445 
 13823      56494345 
 13823      5F534541 
 13823      5243485F 
 13824              	.LASF310:
 13825 2925 4F535F46 		.ascii	"OS_FN_MCOM_READ\000"
 13825      4E5F4D43 
 13825      4F4D5F52 
 13825      45414400 
 13826              	.LASF485:
 13827 2935 4F535F46 		.ascii	"OS_FN_GCM_AES_OPEN\000"
 13827      4E5F4743 
 13827      4D5F4145 
 13827      535F4F50 
 13827      454E00
 13828              	.LASF459:
 13829 2948 4F535F46 		.ascii	"OS_FN_FREE_RUN\000"
 13829      4E5F4652 
 13829      45455F52 
 13829      554E00
 13830              	.LASF648:
 13831 2957 73625F74 		.ascii	"sb_tag_9b\000"
 13831      61675F39 
 13831      6200
 13832              	.LASF319:
 13833 2961 4F535F46 		.ascii	"OS_FN_GPRS_SIGNAL\000"
 13833      4E5F4750 
ARM GAS  C:\Users\AHMED~1.ELE\AppData\Local\Temp\ccfMkwD6.s 			page 292


 13833      52535F53 
 13833      49474E41 
 13833      4C00
 13834              	.LASF278:
 13835 2973 4F535F46 		.ascii	"OS_FN_FL_INFO\000"
 13835      4E5F464C 
 13835      5F494E46 
 13835      4F00
 13836              	.LASF661:
 13837 2981 64645F61 		.ascii	"dd_amount\000"
 13837      6D6F756E 
 13837      7400
 13838              	.LASF355:
 13839 298b 4F535F46 		.ascii	"OS_FN_CLICC_LED_OPEN\000"
 13839      4E5F434C 
 13839      4943435F 
 13839      4C45445F 
 13839      4F50454E 
 13840              	.LASF506:
 13841 29a0 4F535F46 		.ascii	"OS_FN_GPRS_SET_PIN_STATUS\000"
 13841      4E5F4750 
 13841      52535F53 
 13841      45545F50 
 13841      494E5F53 
 13842              	.LASF142:
 13843 29ba 4F535F46 		.ascii	"OS_FN_SM3_ASCII\000"
 13843      4E5F534D 
 13843      335F4153 
 13843      43494900 
 13844              	.LASF750:
 13845 29ca 47657444 		.ascii	"GetDukptPin\000"
 13845      756B7074 
 13845      50696E00 
 13846              	.LASF237:
 13847 29d6 4F535F46 		.ascii	"OS_FN_SAM_OFF\000"
 13847      4E5F5341 
 13847      4D5F4F46 
 13847      4600
 13848              	.LASF445:
 13849 29e4 4F535F46 		.ascii	"OS_FN_GPS_OFF\000"
 13849      4E5F4750 
 13849      535F4F46 
 13849      4600
 13850              	.LASF151:
 13851 29f2 4F535F46 		.ascii	"OS_FN_KEY_FLUSH\000"
 13851      4E5F4B45 
 13851      595F464C 
 13851      55534800 
 13852              	.LASF40:
 13853 2a02 54455354 		.ascii	"TEST_MSG\000"
 13853      5F4D5347 
 13853      00
 13854              	.LASF620:
 13855 2a0b 41504D5F 		.ascii	"APM_BATCH_FULL\000"
 13855      42415443 
 13855      485F4655 
 13855      4C4C00
ARM GAS  C:\Users\AHMED~1.ELE\AppData\Local\Temp\ccfMkwD6.s 			page 293


 13856              	.LASF141:
 13857 2a1a 4F535F46 		.ascii	"OS_FN_SM2_GET_MESS\000"
 13857      4E5F534D 
 13857      325F4745 
 13857      545F4D45 
 13857      535300
 13858              	.LASF280:
 13859 2a2d 4F535F46 		.ascii	"OS_FN_FL_PAGE_READ\000"
 13859      4E5F464C 
 13859      5F504147 
 13859      455F5245 
 13859      414400
 13860              	.LASF191:
 13861 2a40 4F535F46 		.ascii	"OS_FN_REALLOC\000"
 13861      4E5F5245 
 13861      414C4C4F 
 13861      4300
 13862              	.LASF27:
 13863 2a4e 564F4944 		.ascii	"VOID\000"
 13863      00
 13864              	.LASF494:
 13865 2a53 4F535F46 		.ascii	"OS_FN_WIFI_SOCKET_GET_STATE\000"
 13865      4E5F5749 
 13865      46495F53 
 13865      4F434B45 
 13865      545F4745 
 13866              	.LASF404:
 13867 2a6f 4F535F46 		.ascii	"OS_FN_MIF_ANTICOLL\000"
 13867      4E5F4D49 
 13867      465F414E 
 13867      5449434F 
 13867      4C4C00
 13868              	.LASF643:
 13869 2a82 4943435F 		.ascii	"ICC_DATA\000"
 13869      44415441 
 13869      00
 13870              	.LASF441:
 13871 2a8b 4F535F46 		.ascii	"OS_FN_NFC_INFO_SET\000"
 13871      4E5F4E46 
 13871      435F494E 
 13871      464F5F53 
 13871      455400
 13872              	.LASF590:
 13873 2a9e 41504D5F 		.ascii	"APM_CONNECTOK\000"
 13873      434F4E4E 
 13873      4543544F 
 13873      4B00
 13874              	.LASF495:
 13875 2aac 4F535F46 		.ascii	"OS_FN_WIFI_SOCKET_SEND_TCP\000"
 13875      4E5F5749 
 13875      46495F53 
 13875      4F434B45 
 13875      545F5345 
 13876              	.LASF565:
 13877 2ac7 44495350 		.ascii	"DISP_GETGMW\000"
 13877      5F474554 
 13877      474D5700 
ARM GAS  C:\Users\AHMED~1.ELE\AppData\Local\Temp\ccfMkwD6.s 			page 294


 13878              	.LASF161:
 13879 2ad3 4F535F46 		.ascii	"OS_FN_PCI_DSS_GET_KVC\000"
 13879      4E5F5043 
 13879      495F4453 
 13879      535F4745 
 13879      545F4B56 
 13880              	.LASF498:
 13881 2ae9 4F535F46 		.ascii	"OS_FN_WIFI_SOCKET_GET_STATUS\000"
 13881      4E5F5749 
 13881      46495F53 
 13881      4F434B45 
 13881      545F4745 
 13882              	.LASF144:
 13883 2b06 4F535F46 		.ascii	"OS_FN_SM4_SET_KEY\000"
 13883      4E5F534D 
 13883      345F5345 
 13883      545F4B45 
 13883      5900
 13884              	.LASF82:
 13885 2b18 4F535F46 		.ascii	"OS_FN_DISP_ICON_SET_SIGNAL_TYPE\000"
 13885      4E5F4449 
 13885      53505F49 
 13885      434F4E5F 
 13885      5345545F 
 13886              	.LASF338:
 13887 2b38 4F535F46 		.ascii	"OS_FN_TPAD_CPOS\000"
 13887      4E5F5450 
 13887      41445F43 
 13887      504F5300 
 13888              	.LASF1:
 13889 2b48 7369676E 		.ascii	"signed char\000"
 13889      65642063 
 13889      68617200 
 13890              	.LASF430:
 13891 2b54 4F535F46 		.ascii	"OS_FN_WIFI_SEND_COMMAND\000"
 13891      4E5F5749 
 13891      46495F53 
 13891      454E445F 
 13891      434F4D4D 
 13892              	.LASF624:
 13893 2b6c 41504D5F 		.ascii	"APM_CLR_REV_REC\000"
 13893      434C525F 
 13893      5245565F 
 13893      52454300 
 13894              	.LASF543:
 13895 2b7c 46524541 		.ascii	"FREADMW\000"
 13895      444D5700 
 13896              	.LASF757:
 13897 2b84 7374726C 		.ascii	"strlen\000"
 13897      656E00
 13898              	.LASF90:
 13899 2b8b 4F535F46 		.ascii	"OS_FN_COM1_STATUS\000"
 13899      4E5F434F 
 13899      4D315F53 
 13899      54415455 
 13899      5300
 13900              	.LASF631:
ARM GAS  C:\Users\AHMED~1.ELE\AppData\Local\Temp\ccfMkwD6.s 			page 295


 13901 2b9d 41504D5F 		.ascii	"APM_SELAPP\000"
 13901      53454C41 
 13901      505000
 13902              	.LASF659:
 13903 2ba8 73625F65 		.ascii	"sb_exp_date\000"
 13903      78705F64 
 13903      61746500 
 13904              	.LASF162:
 13905 2bb4 4F535F46 		.ascii	"OS_FN_PCI_DSS_REGEN_KEY\000"
 13905      4E5F5043 
 13905      495F4453 
 13905      535F5245 
 13905      47454E5F 
 13906              	.LASF106:
 13907 2bcc 4F535F46 		.ascii	"OS_FN_COM3_READ\000"
 13907      4E5F434F 
 13907      4D335F52 
 13907      45414400 
 13908              	.LASF21:
 13909 2bdc 4F4E4C5F 		.ascii	"ONL_REFUND_SW\000"
 13909      52454655 
 13909      4E445F53 
 13909      5700
 13910              	.LASF663:
 13911 2bea 64645F6F 		.ascii	"dd_org_amount\000"
 13911      72675F61 
 13911      6D6F756E 
 13911      7400
 13912              	.LASF510:
 13913 2bf8 4F535F46 		.ascii	"OS_FN_WIFI_GET_REGULATORY_DOMAIN\000"
 13913      4E5F5749 
 13913      46495F47 
 13913      45545F52 
 13913      4547554C 
 13914              	.LASF629:
 13915 2c19 41504D5F 		.ascii	"APM_GETACCESSCODE\000"
 13915      47455441 
 13915      43434553 
 13915      53434F44 
 13915      4500
 13916              	.LASF761:
 13917 2c2b 6D656D63 		.ascii	"memcpy\000"
 13917      707900
 13918              	.LASF418:
 13919 2c32 4F535F46 		.ascii	"OS_FN_MIF_GET\000"
 13919      4E5F4D49 
 13919      465F4745 
 13919      5400
 13920              	.LASF216:
 13921 2c40 4F535F46 		.ascii	"OS_FN_FILE_SET_LOCK\000"
 13921      4E5F4649 
 13921      4C455F53 
 13921      45545F4C 
 13921      4F434B00 
 13922              	.LASF189:
 13923 2c54 4F535F46 		.ascii	"OS_FN_APP_INFO\000"
 13923      4E5F4150 
ARM GAS  C:\Users\AHMED~1.ELE\AppData\Local\Temp\ccfMkwD6.s 			page 296


 13923      505F494E 
 13923      464F00
 13924              	.LASF727:
 13925 2c63 4C6F6164 		.ascii	"LoadTmk\000"
 13925      546D6B00 
 13926              	.LASF591:
 13927 2c6b 41504D5F 		.ascii	"APM_SENDRCVD\000"
 13927      53454E44 
 13927      52435644 
 13927      00
 13928              	.LASF265:
 13929 2c78 4F535F46 		.ascii	"OS_FN_MSR_READ\000"
 13929      4E5F4D53 
 13929      525F5245 
 13929      414400
 13930              	.LASF582:
 13931 2c87 41504D5F 		.ascii	"APM_GETKEY\000"
 13931      4745544B 
 13931      455900
 13932              	.LASF410:
 13933 2c92 4F535F46 		.ascii	"OS_FN_MIF_WRITE\000"
 13933      4E5F4D49 
 13933      465F5752 
 13933      49544500 
 13934              	.LASF596:
 13935 2ca2 41504D5F 		.ascii	"APM_GETCARDCOUNT\000"
 13935      47455443 
 13935      41524443 
 13935      4F554E54 
 13935      00
 13936              	.LASF578:
 13937 2cb3 41505049 		.ascii	"APPINFO_GETMW\000"
 13937      4E464F5F 
 13937      4745544D 
 13937      5700
 13938              	.LASF409:
 13939 2cc1 4F535F46 		.ascii	"OS_FN_MIF_READ\000"
 13939      4E5F4D49 
 13939      465F5245 
 13939      414400
 13940              	.LASF595:
 13941 2cd0 41504D5F 		.ascii	"APM_GETTERMCFG\000"
 13941      47455454 
 13941      45524D43 
 13941      464700
 13942              	.LASF718:
 13943 2cdf 4B444C4C 		.ascii	"KDLL_DSS\000"
 13943      5F445353 
 13943      00
 13944              	.LASF223:
 13945 2ce8 4F535F46 		.ascii	"OS_FN_FILE_MKDIR\000"
 13945      4E5F4649 
 13945      4C455F4D 
 13945      4B444952 
 13945      00
 13946              	.LASF184:
 13947 2cf9 4F535F46 		.ascii	"OS_FN_AUTH\000"
ARM GAS  C:\Users\AHMED~1.ELE\AppData\Local\Temp\ccfMkwD6.s 			page 297


 13947      4E5F4155 
 13947      544800
 13948              	.LASF28:
 13949 2d04 41444A55 		.ascii	"ADJUST\000"
 13949      535400
 13950              	.LASF255:
 13951 2d0b 4F535F46 		.ascii	"OS_FN_LAN_CLOSE\000"
 13951      4E5F4C41 
 13951      4E5F434C 
 13951      4F534500 
 13952              	.LASF124:
 13953 2d1b 4F535F46 		.ascii	"OS_FN_SHA1\000"
 13953      4E5F5348 
 13953      413100
 13954              	.LASF54:
 13955 2d26 4F535F46 		.ascii	"OS_FN_TIMER_OPEN\000"
 13955      4E5F5449 
 13955      4D45525F 
 13955      4F50454E 
 13955      00
 13956              	.LASF242:
 13957 2d37 4F535F46 		.ascii	"OS_FN_MMC_BLK_SIZE\000"
 13957      4E5F4D4D 
 13957      435F424C 
 13957      4B5F5349 
 13957      5A4500
 13958              	.LASF95:
 13959 2d4a 4F535F46 		.ascii	"OS_FN_COM2_RXRDY\000"
 13959      4E5F434F 
 13959      4D325F52 
 13959      58524459 
 13959      00
 13960              	.LASF466:
 13961 2d5b 4F535F46 		.ascii	"OS_FN_GET_MCLK\000"
 13961      4E5F4745 
 13961      545F4D43 
 13961      4C4B00
 13962              	.LASF93:
 13963 2d6a 4F535F46 		.ascii	"OS_FN_COM2_OPEN\000"
 13963      4E5F434F 
 13963      4D325F4F 
 13963      50454E00 
 13964              	.LASF555:
 13965 2d7a 5343484E 		.ascii	"SCHNLSETUPMW\000"
 13965      4C534554 
 13965      55504D57 
 13965      00
 13966              	.LASF713:
 13967 2d87 4B444C4C 		.ascii	"KDLL_HSMRSADECRYPT\000"
 13967      5F48534D 
 13967      52534144 
 13967      45435259 
 13967      505400
 13968              	.LASF300:
 13969 2d9a 4F535F46 		.ascii	"OS_FN_MDM_STATUS\000"
 13969      4E5F4D44 
 13969      4D5F5354 
ARM GAS  C:\Users\AHMED~1.ELE\AppData\Local\Temp\ccfMkwD6.s 			page 298


 13969      41545553 
 13969      00
 13970              	.LASF15:
 13971 2dab 44574F52 		.ascii	"DWORD\000"
 13971      4400
 13972              	.LASF261:
 13973 2db1 4F535F46 		.ascii	"OS_FN_MSR_OPEN\000"
 13973      4E5F4D53 
 13973      525F4F50 
 13973      454E00
 13974              	.LASF350:
 13975 2dc0 4F535F46 		.ascii	"OS_FN_CLICC_REMOVE\000"
 13975      4E5F434C 
 13975      4943435F 
 13975      52454D4F 
 13975      564500
 13976              	.LASF594:
 13977 2dd3 41504D5F 		.ascii	"APM_GETTERMDATA\000"
 13977      47455454 
 13977      45524D44 
 13977      41544100 
 13978              	.LASF687:
 13979 2de3 625F7265 		.ascii	"b_response\000"
 13979      73706F6E 
 13979      736500
 13980              	.LASF542:
 13981 2dee 46534545 		.ascii	"FSEEKMW\000"
 13981      4B4D5700 
 13982              	.LASF41:
 13983 2df6 53455454 		.ascii	"SETT_ADV\000"
 13983      5F414456 
 13983      00
 13984              	.LASF101:
 13985 2dff 4F535F46 		.ascii	"OS_FN_COM2_SSEND\000"
 13985      4E5F434F 
 13985      4D325F53 
 13985      53454E44 
 13985      00
 13986              	.LASF562:
 13987 2e10 44495350 		.ascii	"DISP_GOTOMW\000"
 13987      5F474F54 
 13987      4F4D5700 
 13988              	.LASF247:
 13989 2e1c 4F535F46 		.ascii	"OS_FN_MMC_READ\000"
 13989      4E5F4D4D 
 13989      435F5245 
 13989      414400
 13990              	.LASF298:
 13991 2e2b 4F535F46 		.ascii	"OS_FN_MDM_DISC\000"
 13991      4E5F4D44 
 13991      4D5F4449 
 13991      534300
 13992              	.LASF118:
 13993 2e3a 4F535F46 		.ascii	"OS_FN_NEW_DES2\000"
 13993      4E5F4E45 
 13993      575F4445 
 13993      533200
ARM GAS  C:\Users\AHMED~1.ELE\AppData\Local\Temp\ccfMkwD6.s 			page 299


 13994              	.LASF214:
 13995 2e49 4F535F46 		.ascii	"OS_FN_FILE_TRUNCATE\000"
 13995      4E5F4649 
 13995      4C455F54 
 13995      52554E43 
 13995      41544500 
 13996              	.LASF4:
 13997 2e5d 73686F72 		.ascii	"short unsigned int\000"
 13997      7420756E 
 13997      7369676E 
 13997      65642069 
 13997      6E7400
 13998              	.LASF708:
 13999 2e70 4B444C4C 		.ascii	"KDLL_ICCMKEYINJECT\000"
 13999      5F494343 
 13999      4D4B4559 
 13999      494E4A45 
 13999      435400
 14000              	.LASF166:
 14001 2e83 4F535F46 		.ascii	"OS_FN_THREAD_CREATE\000"
 14001      4E5F5448 
 14001      52454144 
 14001      5F435245 
 14001      41544500 
 14002              	.LASF733:
 14003 2e97 4C6F6164 		.ascii	"LoadKeys\000"
 14003      4B657973 
 14003      00
 14004              	.LASF519:
 14005 2ea0 55534246 		.ascii	"USBFPRT_GENERAL_INFO_IMG_HEIGHT\000"
 14005      5052545F 
 14005      47454E45 
 14005      52414C5F 
 14005      494E464F 
 14006              	.LASF738:
 14007 2ec0 4B446563 		.ascii	"KDecrypt2\000"
 14007      72797074 
 14007      3200
 14008              	.LASF739:
 14009 2eca 4B446563 		.ascii	"KDecrypt3\000"
 14009      72797074 
 14009      3300
 14010              	.LASF500:
 14011 2ed4 4F535F46 		.ascii	"OS_FN_IMG_SENSOR_OPEN\000"
 14011      4E5F494D 
 14011      475F5345 
 14011      4E534F52 
 14011      5F4F5045 
 14012              	.LASF91:
 14013 2eea 4F535F46 		.ascii	"OS_FN_COM1_SREAD\000"
 14013      4E5F434F 
 14013      4D315F53 
 14013      52454144 
 14013      00
 14014              	.LASF695:
 14015 2efb 4B444C4C 		.ascii	"KDLL_KEYINJECT\000"
 14015      5F4B4559 
ARM GAS  C:\Users\AHMED~1.ELE\AppData\Local\Temp\ccfMkwD6.s 			page 300


 14015      494E4A45 
 14015      435400
 14016              	.LASF131:
 14017 2f0a 4F535F46 		.ascii	"OS_FN_RC4_SETUP\000"
 14017      4E5F5243 
 14017      345F5345 
 14017      54555000 
 14018              	.LASF119:
 14019 2f1a 4F535F46 		.ascii	"OS_FN_RSA\000"
 14019      4E5F5253 
 14019      4100
 14020              	.LASF365:
 14021 2f24 4F535F46 		.ascii	"OS_FN_USBHOST_RHPORT_STATUS\000"
 14021      4E5F5553 
 14021      42484F53 
 14021      545F5248 
 14021      504F5254 
 14022              	.LASF178:
 14023 2f40 4F535F46 		.ascii	"OS_FN_LED_CLOSE\000"
 14023      4E5F4C45 
 14023      445F434C 
 14023      4F534500 
 14024              	.LASF379:
 14025 2f50 4F535F46 		.ascii	"OS_FN_DEVICE_UNMOUNT\000"
 14025      4E5F4445 
 14025      56494345 
 14025      5F554E4D 
 14025      4F554E54 
 14026              	.LASF18:
 14027 2f65 41555448 		.ascii	"AUTH_MANUAL\000"
 14027      5F4D414E 
 14027      55414C00 
 14028              	.LASF104:
 14029 2f71 4F535F46 		.ascii	"OS_FN_COM3_RXRDY\000"
 14029      4E5F434F 
 14029      4D335F52 
 14029      58524459 
 14029      00
 14030              	.LASF420:
 14031 2f82 4F535F46 		.ascii	"OS_FN_MIF_INFO_GET\000"
 14031      4E5F4D49 
 14031      465F494E 
 14031      464F5F47 
 14031      455400
 14032              	.LASF717:
 14033 2f95 4B444C4C 		.ascii	"KDLL_DSSREGENKEY\000"
 14033      5F445353 
 14033      52454745 
 14033      4E4B4559 
 14033      00
 14034              	.LASF23:
 14035 2fa6 52454655 		.ascii	"REFUND\000"
 14035      4E4400
 14036              	.LASF277:
 14037 2fad 4F535F46 		.ascii	"OS_FN_USBSER_ENABLE\000"
 14037      4E5F5553 
 14037      42534552 
ARM GAS  C:\Users\AHMED~1.ELE\AppData\Local\Temp\ccfMkwD6.s 			page 301


 14037      5F454E41 
 14037      424C4500 
 14038              	.LASF475:
 14039 2fc1 4F535F46 		.ascii	"OS_FN_LPT_RESET_COUNT\000"
 14039      4E5F4C50 
 14039      545F5245 
 14039      5345545F 
 14039      434F554E 
 14040              	.LASF546:
 14041 2fd7 46464C55 		.ascii	"FFLUSHMW\000"
 14041      53484D57 
 14041      00
 14042              	.LASF320:
 14043 2fe0 4F535F46 		.ascii	"OS_FN_GPRS_STATUS\000"
 14043      4E5F4750 
 14043      52535F53 
 14043      54415455 
 14043      5300
 14044              	.LASF611:
 14045 2ff2 41504D5F 		.ascii	"APM_SETBATCH\000"
 14045      53455442 
 14045      41544348 
 14045      00
 14046              	.LASF740:
 14047 2fff 456E6344 		.ascii	"EncData\000"
 14047      61746100 
 14048              	.LASF110:
 14049 3007 4F535F46 		.ascii	"OS_FN_COM3_SSEND\000"
 14049      4E5F434F 
 14049      4D335F53 
 14049      53454E44 
 14049      00
 14050              	.LASF646:
 14051 3018 73625F61 		.ascii	"sb_aid\000"
 14051      696400
 14052              	.LASF438:
 14053 301f 4F535F46 		.ascii	"OS_FN_NFC_CLOSE\000"
 14053      4E5F4E46 
 14053      435F434C 
 14053      4F534500 
 14054              	.LASF693:
 14055 302f 4B444C4C 		.ascii	"KDLL_KEYRESET\000"
 14055      5F4B4559 
 14055      52455345 
 14055      5400
 14056              	.LASF44:
 14057 303d 4F535F46 		.ascii	"OS_FN_GET_VERSION\000"
 14057      4E5F4745 
 14057      545F5645 
 14057      5253494F 
 14057      4E00
 14058              	.LASF652:
 14059 304f 494E5055 		.ascii	"INPUT_DATA\000"
 14059      545F4441 
 14059      544100
 14060              	.LASF742:
 14061 305a 64617461 		.ascii	"data\000"
ARM GAS  C:\Users\AHMED~1.ELE\AppData\Local\Temp\ccfMkwD6.s 			page 302


 14061      00
 14062              	.LASF318:
 14063 305f 4F535F46 		.ascii	"OS_FN_ADC_CH_READ\000"
 14063      4E5F4144 
 14063      435F4348 
 14063      5F524541 
 14063      4400
 14064              	.LASF296:
 14065 3071 4F535F46 		.ascii	"OS_FN_MDM_CLOSE\000"
 14065      4E5F4D44 
 14065      4D5F434C 
 14065      4F534500 
 14066              	.LASF559:
 14067 3081 44495350 		.ascii	"DISP_PUTNMW\000"
 14067      5F505554 
 14067      4E4D5700 
 14068              	.LASF471:
 14069 308d 4F535F46 		.ascii	"OS_FN_DMK_INJECT\000"
 14069      4E5F444D 
 14069      4B5F494E 
 14069      4A454354 
 14069      00
 14070              	.LASF530:
 14071 309e 52454144 		.ascii	"READMW\000"
 14071      4D5700
 14072              	.LASF59:
 14073 30a5 4F535F46 		.ascii	"OS_FN_BUZ_CLOSE\000"
 14073      4E5F4255 
 14073      5A5F434C 
 14073      4F534500 
 14074              	.LASF200:
 14075 30b5 4F535F46 		.ascii	"OS_FN_FILE_FLUSHED\000"
 14075      4E5F4649 
 14075      4C455F46 
 14075      4C555348 
 14075      454400
 14076              	.LASF128:
 14077 30c8 4F535F46 		.ascii	"OS_FN_SHA_INIT\000"
 14077      4E5F5348 
 14077      415F494E 
 14077      495400
 14078              	.LASF660:
 14079 30d7 63757272 		.ascii	"currency\000"
 14079      656E6379 
 14079      00
 14080              	.LASF74:
 14081 30e0 4F535F46 		.ascii	"OS_FN_DISP_GET_LCD_BUFFER\000"
 14081      4E5F4449 
 14081      53505F47 
 14081      45545F4C 
 14081      43445F42 
 14082              	.LASF349:
 14083 30fa 4F535F46 		.ascii	"OS_FN_CLICC_POLL\000"
 14083      4E5F434C 
 14083      4943435F 
 14083      504F4C4C 
 14083      00
ARM GAS  C:\Users\AHMED~1.ELE\AppData\Local\Temp\ccfMkwD6.s 			page 303


 14084              	.LASF100:
 14085 310b 4F535F46 		.ascii	"OS_FN_COM2_SREAD\000"
 14085      4E5F434F 
 14085      4D325F53 
 14085      52454144 
 14085      00
 14086              	.LASF747:
 14087 311c 53657444 		.ascii	"SetDhostIdx\000"
 14087      686F7374 
 14087      49647800 
 14088              	.LASF403:
 14089 3128 4F535F46 		.ascii	"OS_FN_MIF_STATUS\000"
 14089      4E5F4D49 
 14089      465F5354 
 14089      41545553 
 14089      00
 14090              	.LASF522:
 14091 3139 625F6C65 		.ascii	"b_len\000"
 14091      6E00
 14092              	.LASF361:
 14093 313f 4F535F46 		.ascii	"OS_FN_USBHOST_SUBMIT_BUFFER\000"
 14093      4E5F5553 
 14093      42484F53 
 14093      545F5355 
 14093      424D4954 
 14094              	.LASF230:
 14095 315b 4F535F46 		.ascii	"OS_FN_CONFIG_WRITE\000"
 14095      4E5F434F 
 14095      4E464947 
 14095      5F575249 
 14095      544500
 14096              	.LASF730:
 14097 316e 6B657969 		.ascii	"keyin\000"
 14097      6E00
 14098              	.LASF362:
 14099 3174 4F535F46 		.ascii	"OS_FN_USBHOST_UNLINK_BUFFER\000"
 14099      4E5F5553 
 14099      42484F53 
 14099      545F554E 
 14099      4C494E4B 
 14100              	.LASF676:
 14101 3190 73625F70 		.ascii	"sb_pin\000"
 14101      696E00
 14102              		.ident	"GCC: (GNU Tools for ARM Embedded Processors) 4.9.3 20141119 (release) [ARM/embedded-4_9-br
ARM GAS  C:\Users\AHMED~1.ELE\AppData\Local\Temp\ccfMkwD6.s 			page 304


DEFINED SYMBOLS
                            *ABS*:00000000 keytrans.c
C:\Users\AHMED~1.ELE\AppData\Local\Temp\ccfMkwD6.s:19     .text.key_ready:00000000 $t
C:\Users\AHMED~1.ELE\AppData\Local\Temp\ccfMkwD6.s:24     .text.key_ready:00000000 key_ready
C:\Users\AHMED~1.ELE\AppData\Local\Temp\ccfMkwD6.s:65     .text.ResetKey:00000000 $t
C:\Users\AHMED~1.ELE\AppData\Local\Temp\ccfMkwD6.s:70     .text.ResetKey:00000000 ResetKey
C:\Users\AHMED~1.ELE\AppData\Local\Temp\ccfMkwD6.s:138    .text.ResetKey:00000050 $d
C:\Users\AHMED~1.ELE\AppData\Local\Temp\ccfMkwD6.s:143    .text.LoadTmk:00000000 $t
C:\Users\AHMED~1.ELE\AppData\Local\Temp\ccfMkwD6.s:148    .text.LoadTmk:00000000 LoadTmk
C:\Users\AHMED~1.ELE\AppData\Local\Temp\ccfMkwD6.s:553    .text.LoadTmk:00000264 $d
C:\Users\AHMED~1.ELE\AppData\Local\Temp\ccfMkwD6.s:567    .text.LoadKeys:00000000 $t
C:\Users\AHMED~1.ELE\AppData\Local\Temp\ccfMkwD6.s:572    .text.LoadKeys:00000000 LoadKeys
C:\Users\AHMED~1.ELE\AppData\Local\Temp\ccfMkwD6.s:933    .text.LoadKeys:000001f8 $d
C:\Users\AHMED~1.ELE\AppData\Local\Temp\ccfMkwD6.s:947    .text.EncData:00000000 $t
C:\Users\AHMED~1.ELE\AppData\Local\Temp\ccfMkwD6.s:952    .text.EncData:00000000 EncData
C:\Users\AHMED~1.ELE\AppData\Local\Temp\ccfMkwD6.s:1124   .text.EncData:00000104 $d
C:\Users\AHMED~1.ELE\AppData\Local\Temp\ccfMkwD6.s:1132   .text.DecData:00000000 $t
C:\Users\AHMED~1.ELE\AppData\Local\Temp\ccfMkwD6.s:1137   .text.DecData:00000000 DecData
C:\Users\AHMED~1.ELE\AppData\Local\Temp\ccfMkwD6.s:1309   .text.DecData:00000104 $d
C:\Users\AHMED~1.ELE\AppData\Local\Temp\ccfMkwD6.s:1317   .text.SetMode:00000000 $t
C:\Users\AHMED~1.ELE\AppData\Local\Temp\ccfMkwD6.s:1322   .text.SetMode:00000000 SetMode
C:\Users\AHMED~1.ELE\AppData\Local\Temp\ccfMkwD6.s:1527   .text.SetMode:00000140 $d
C:\Users\AHMED~1.ELE\AppData\Local\Temp\ccfMkwD6.s:1536   .text.GetPIN:00000000 $t
C:\Users\AHMED~1.ELE\AppData\Local\Temp\ccfMkwD6.s:1541   .text.GetPIN:00000000 GetPIN
C:\Users\AHMED~1.ELE\AppData\Local\Temp\ccfMkwD6.s:1661   .text.GetPIN:000000a4 $d
C:\Users\AHMED~1.ELE\AppData\Local\Temp\ccfMkwD6.s:1669   .text.SetDhostIdx:00000000 $t
C:\Users\AHMED~1.ELE\AppData\Local\Temp\ccfMkwD6.s:1674   .text.SetDhostIdx:00000000 SetDhostIdx
C:\Users\AHMED~1.ELE\AppData\Local\Temp\ccfMkwD6.s:1766   .text.SetDhostIdx:00000078 $d
C:\Users\AHMED~1.ELE\AppData\Local\Temp\ccfMkwD6.s:1773   .text.ResetDukptIkey:00000000 $t
C:\Users\AHMED~1.ELE\AppData\Local\Temp\ccfMkwD6.s:1778   .text.ResetDukptIkey:00000000 ResetDukptIkey
C:\Users\AHMED~1.ELE\AppData\Local\Temp\ccfMkwD6.s:1890   .text.ResetDukptIkey:000000a0 $d
C:\Users\AHMED~1.ELE\AppData\Local\Temp\ccfMkwD6.s:1897   .text.LoadDukptIkey:00000000 $t
C:\Users\AHMED~1.ELE\AppData\Local\Temp\ccfMkwD6.s:1902   .text.LoadDukptIkey:00000000 LoadDukptIkey
C:\Users\AHMED~1.ELE\AppData\Local\Temp\ccfMkwD6.s:2043   .text.LoadDukptIkey:000000c8 $d
C:\Users\AHMED~1.ELE\AppData\Local\Temp\ccfMkwD6.s:2052   .text.GetDukptPin:00000000 $t
C:\Users\AHMED~1.ELE\AppData\Local\Temp\ccfMkwD6.s:2057   .text.GetDukptPin:00000000 GetDukptPin
C:\Users\AHMED~1.ELE\AppData\Local\Temp\ccfMkwD6.s:2214   .text.GetDukptPin:000000f8 $d
C:\Users\AHMED~1.ELE\AppData\Local\Temp\ccfMkwD6.s:2222   .text.IccTmkInject:00000000 $t
C:\Users\AHMED~1.ELE\AppData\Local\Temp\ccfMkwD6.s:2227   .text.IccTmkInject:00000000 IccTmkInject
C:\Users\AHMED~1.ELE\AppData\Local\Temp\ccfMkwD6.s:2378   .text.IccTmkInject:000000e0 $d
C:\Users\AHMED~1.ELE\AppData\Local\Temp\ccfMkwD6.s:2478   .bss:00000000 keylen
C:\Users\AHMED~1.ELE\AppData\Local\Temp\ccfMkwD6.s:2479   .bss:00000000 $d
C:\Users\AHMED~1.ELE\AppData\Local\Temp\ccfMkwD6.s:2482   .bss:00000001 keysize
C:\Users\AHMED~1.ELE\AppData\Local\Temp\ccfMkwD6.s:2486   .bss:00000002 dhost_idx
                     .debug_frame:00000010 $d

UNDEFINED SYMBOLS
lib_app_call
sys_func1
memcpy
Short2Beep
sprintf
strlen
LongBeep
split
sys_func2
memset
ARM GAS  C:\Users\AHMED~1.ELE\AppData\Local\Temp\ccfMkwD6.s 			page 305


compress
gGTS
WaitICCRemove
