ARM GAS  C:\Users\AHMED~1.ELE\AppData\Local\Temp\ccEeyTbT.s 			page 1


   1              		.syntax unified
   2              		.cpu cortex-a5
   3              		.fpu softvfp
   4              		.eabi_attribute 20, 1
   5              		.eabi_attribute 21, 1
   6              		.eabi_attribute 23, 3
   7              		.eabi_attribute 24, 1
   8              		.eabi_attribute 25, 1
   9              		.eabi_attribute 26, 1
  10              		.eabi_attribute 30, 4
  11              		.eabi_attribute 34, 0
  12              		.eabi_attribute 18, 4
  13              		.thumb
  14              		.file	"keytrans.c"
  15              		.text
  16              	.Ltext0:
  17              		.cfi_sections	.debug_frame
  18              		.section	.text.key_ready,"ax",%progbits
  19              		.align	1
  20              		.global	key_ready
  21              		.thumb
  22              		.thumb_func
  23              		.type	key_ready, %function
  24              	key_ready:
  25              	.LFB0:
  26              		.file 1 "src/keytrans.c"
   1:src/keytrans.c **** /*-----------------------------------------------------------------------------
   2:src/keytrans.c ****  *  File          : keytrans.c
   3:src/keytrans.c ****  *  Module        : T1000
   4:src/keytrans.c ****  *  Description   : Include routines for sale/offline transaction.
   5:src/keytrans.c ****  *  Author        : John
   6:src/keytrans.c ****  *  Notes         :
   7:src/keytrans.c ****  *
   8:src/keytrans.c ****  *  Date          Who         Action
   9:src/keytrans.c ****  *  ------------  ----------- -------------------------------------------------
  10:src/keytrans.c ****  *  19 Mar  2012  John        Port from CREON/PR608.
  11:src/keytrans.c ****  *-----------------------------------------------------------------------------
  12:src/keytrans.c ****  */
  13:src/keytrans.c **** #include <string.h>
  14:src/keytrans.c **** #include <stdio.h>
  15:src/keytrans.c **** #include "constant.h"
  16:src/keytrans.c **** #include "corevar.h"
  17:src/keytrans.c **** #include "sysutil.h"
  18:src/keytrans.c **** #include "tranutil.h"
  19:src/keytrans.c **** #include "message.h"
  20:src/keytrans.c **** #include "keytrans.h"
  21:src/keytrans.c **** #include "key2dll.h"
  22:src/keytrans.c **** #include "midware.h"
  23:src/keytrans.c **** #include "util.h"
  24:src/keytrans.c **** #include "input.h"
  25:src/keytrans.c **** 
  26:src/keytrans.c **** 
  27:src/keytrans.c **** static BYTE dhost_idx=0;
  28:src/keytrans.c **** static BYTE keysize;
  29:src/keytrans.c **** static BYTE keylen;
  30:src/keytrans.c **** 
  31:src/keytrans.c **** /******************************************************************************
ARM GAS  C:\Users\AHMED~1.ELE\AppData\Local\Temp\ccEeyTbT.s 			page 2


  32:src/keytrans.c ****  *  Function        : key_ready
  33:src/keytrans.c ****  *  Description     : Check if key loaded in key bank
  34:src/keytrans.c ****  *  Input           : idx;            // key index
  35:src/keytrans.c ****  *  Return          : TRUE;           // key loaded
  36:src/keytrans.c ****  *                    FALSE;          // key not loaded
  37:src/keytrans.c ****  *  Note            : N/A
  38:src/keytrans.c ****  *  Globals Changed : N/A
  39:src/keytrans.c ****  ******************************************************************************
  40:src/keytrans.c ****  */
  41:src/keytrans.c **** BOOLEAN key_ready(BYTE idx)
  42:src/keytrans.c **** {
  27              		.loc 1 42 0
  28              		.cfi_startproc
  29              		@ args = 0, pretend = 0, frame = 40
  30              		@ frame_needed = 0, uses_anonymous_args = 0
  31              	.LVL0:
  32 0000 10B5     		push	{r4, lr}
  33              		.cfi_def_cfa_offset 8
  34              		.cfi_offset 4, -8
  35              		.cfi_offset 14, -4
  43:src/keytrans.c ****   BYTE keysts[40];
  44:src/keytrans.c **** 
  45:src/keytrans.c ****   KDLL_KeyStatus(keysts);
  36              		.loc 1 45 0
  37 0002 0023     		movs	r3, #0
  42:src/keytrans.c ****   BYTE keysts[40];
  38              		.loc 1 42 0
  39 0004 8CB0     		sub	sp, sp, #48
  40              		.cfi_def_cfa_offset 56
  42:src/keytrans.c ****   BYTE keysts[40];
  41              		.loc 1 42 0
  42 0006 0446     		mov	r4, r0
  43              		.loc 1 45 0
  44 0008 0093     		str	r3, [sp]
  45 000a 0121     		movs	r1, #1
  46 000c 02AA     		add	r2, sp, #8
  47 000e 7F20     		movs	r0, #127
  48              	.LVL1:
  49 0010 FFF7FEFF 		bl	lib_app_call
  50              	.LVL2:
  46:src/keytrans.c ****   if (keysts[idx] & KEY_STATUS_LOADED)
  51              		.loc 1 46 0
  52 0014 0CAB     		add	r3, sp, #48
  53 0016 1C44     		add	r4, r4, r3
  54 0018 14F8280C 		ldrb	r0, [r4, #-40]	@ zero_extendqisi2
  47:src/keytrans.c ****     return TRUE;
  48:src/keytrans.c ****   else
  49:src/keytrans.c ****     return FALSE;
  50:src/keytrans.c **** }
  55              		.loc 1 50 0
  56 001c 00F00100 		and	r0, r0, #1
  57 0020 0CB0     		add	sp, sp, #48
  58              		.cfi_def_cfa_offset 8
  59              		@ sp needed
  60 0022 10BD     		pop	{r4, pc}
  61              		.cfi_endproc
  62              	.LFE0:
ARM GAS  C:\Users\AHMED~1.ELE\AppData\Local\Temp\ccEeyTbT.s 			page 3


  63              		.size	key_ready, .-key_ready
  64              		.section	.text.ResetKey,"ax",%progbits
  65              		.align	1
  66              		.global	ResetKey
  67              		.thumb
  68              		.thumb_func
  69              		.type	ResetKey, %function
  70              	ResetKey:
  71              	.LFB1:
  51:src/keytrans.c **** /******************************************************************************
  52:src/keytrans.c ****  *  Function        : ResetKey
  53:src/keytrans.c ****  *  Description     : Reset terminal key
  54:src/keytrans.c ****  *  Input           : idx;            // key index
  55:src/keytrans.c ****  *  Return          : TRUE;           // key reset ok
  56:src/keytrans.c ****  *                    FALSE;          // key reset failed
  57:src/keytrans.c ****  *  Note            : N/A
  58:src/keytrans.c ****  *  Globals Changed : N/A
  59:src/keytrans.c ****  ******************************************************************************
  60:src/keytrans.c ****  */
  61:src/keytrans.c **** void ResetKey(BYTE idx)
  62:src/keytrans.c **** {
  72              		.loc 1 62 0
  73              		.cfi_startproc
  74              		@ args = 0, pretend = 0, frame = 0
  75              		@ frame_needed = 0, uses_anonymous_args = 0
  76              	.LVL3:
  77 0000 37B5     		push	{r0, r1, r2, r4, r5, lr}
  78              		.cfi_def_cfa_offset 24
  79              		.cfi_offset 4, -12
  80              		.cfi_offset 5, -8
  81              		.cfi_offset 14, -4
  82              		.loc 1 62 0
  83 0002 0546     		mov	r5, r0
  84              	.LBB2:
  63:src/keytrans.c ****   DispLineMW("Resetting Keys..", MW_LINE5, MW_CLRDISP|MW_CENTER|MW_BIGFONT);
  85              		.loc 1 63 0
  86 0004 1121     		movs	r1, #17
  87 0006 9220     		movs	r0, #146
  88              	.LVL4:
  89 0008 FFF7FEFF 		bl	sys_func1
  90              	.LVL5:
  91 000c 0446     		mov	r4, r0
  92 000e 98B1     		cbz	r0, .L3
  93              		.loc 1 63 0 is_stmt 0 discriminator 1
  94 0010 0F49     		ldr	r1, .L8
  95 0012 1022     		movs	r2, #16
  96 0014 FFF7FEFF 		bl	memcpy
  97              	.LVL6:
  98 0018 0023     		movs	r3, #0
  99 001a 2521     		movs	r1, #37
 100 001c 2374     		strb	r3, [r4, #16]
 101 001e 41F28203 		movw	r3, #4226
 102 0022 0F20     		movs	r0, #15
 103 0024 0093     		str	r3, [sp]
 104 0026 2246     		mov	r2, r4
 105 0028 4FF4A063 		mov	r3, #1280
 106 002c FFF7FEFF 		bl	lib_app_call
ARM GAS  C:\Users\AHMED~1.ELE\AppData\Local\Temp\ccEeyTbT.s 			page 4


 107              	.LVL7:
 108 0030 9420     		movs	r0, #148
 109 0032 2146     		mov	r1, r4
 110 0034 FFF7FEFF 		bl	sys_func1
 111              	.LVL8:
 112              	.L3:
 113              	.LBE2:
  64:src/keytrans.c ****   KDLL_KeyReset(idx);
 114              		.loc 1 64 0 is_stmt 1
 115 0038 0021     		movs	r1, #0
 116 003a 2A46     		mov	r2, r5
 117 003c 0091     		str	r1, [sp]
 118 003e 0B46     		mov	r3, r1
 119 0040 7F20     		movs	r0, #127
 120 0042 FFF7FEFF 		bl	lib_app_call
 121              	.LVL9:
  65:src/keytrans.c ****   Short2Beep();
  66:src/keytrans.c **** }
 122              		.loc 1 66 0
 123 0046 03B0     		add	sp, sp, #12
 124              		.cfi_def_cfa_offset 12
 125              		@ sp needed
 126 0048 BDE83040 		pop	{r4, r5, lr}
 127              		.cfi_restore 14
 128              		.cfi_restore 5
 129              		.cfi_restore 4
 130              		.cfi_def_cfa_offset 0
 131              	.LVL10:
  65:src/keytrans.c ****   Short2Beep();
 132              		.loc 1 65 0
 133 004c FFF7FEBF 		b	Short2Beep
 134              	.LVL11:
 135              	.L9:
 136              		.align	2
 137              	.L8:
 138 0050 00000000 		.word	.LC0
 139              		.cfi_endproc
 140              	.LFE1:
 141              		.size	ResetKey, .-ResetKey
 142              		.section	.text.LoadTmk,"ax",%progbits
 143              		.align	1
 144              		.global	LoadTmk
 145              		.thumb
 146              		.thumb_func
 147              		.type	LoadTmk, %function
 148              	LoadTmk:
 149              	.LFB2:
  67:src/keytrans.c **** /******************************************************************************
  68:src/keytrans.c ****  *  Function        : LoadTmk
  69:src/keytrans.c ****  *  Description     : Load terminal master key
  70:src/keytrans.c ****  *  Input           : N/A
  71:src/keytrans.c ****  *  Return          : TRUE;           // key load ok
  72:src/keytrans.c ****  *                    FALSE;          // key load failed
  73:src/keytrans.c ****  *  Note            : N/A
  74:src/keytrans.c ****  *  Globals Changed : N/A
  75:src/keytrans.c ****  ******************************************************************************
  76:src/keytrans.c ****  */
ARM GAS  C:\Users\AHMED~1.ELE\AppData\Local\Temp\ccEeyTbT.s 			page 5


  77:src/keytrans.c **** BOOLEAN LoadTmk(void)
  78:src/keytrans.c **** {
 150              		.loc 1 78 0
 151              		.cfi_startproc
 152              		@ args = 0, pretend = 0, frame = 64
 153              		@ frame_needed = 0, uses_anonymous_args = 0
 154 0000 F0B5     		push	{r4, r5, r6, r7, lr}
 155              		.cfi_def_cfa_offset 20
 156              		.cfi_offset 4, -20
 157              		.cfi_offset 5, -16
 158              		.cfi_offset 6, -12
 159              		.cfi_offset 7, -8
 160              		.cfi_offset 14, -4
 161 0002 93B0     		sub	sp, sp, #76
 162              		.cfi_def_cfa_offset 96
  79:src/keytrans.c ****   const BYTE KTMK[] = "\x01\x23\x45\x67\x89\xAB\xCD\xEF\xFE\xDC\xBA\x98\x76\x54\x32\x10\x11\x22\x33
 163              		.loc 1 79 0
 164 0004 1922     		movs	r2, #25
 165 0006 9749     		ldr	r1, .L49
 166 0008 03A8     		add	r0, sp, #12
 167 000a FFF7FEFF 		bl	memcpy
 168              	.LVL12:
  80:src/keytrans.c ****   BYTE *keycfg;
  81:src/keytrans.c ****   WORD ret;
  82:src/keytrans.c ****   BYTE buf[32];
  83:src/keytrans.c ****   DWORD keyin;
  84:src/keytrans.c ****   BYTE * keycontent;
  85:src/keytrans.c ****   
  86:src/keytrans.c ****   ClearDispMW();
 169              		.loc 1 86 0
 170 000e 0C21     		movs	r1, #12
 171 0010 1620     		movs	r0, #22
 172 0012 FFF7FEFF 		bl	sys_func1
 173              	.LVL13:
 174              	.LBB3:
  87:src/keytrans.c ****   DispLineMW("Choose TMK Key Length:", MW_LINE1, MW_LEFT|MW_SPFONT);
 175              		.loc 1 87 0
 176 0016 9220     		movs	r0, #146
 177 0018 1721     		movs	r1, #23
 178 001a FFF7FEFF 		bl	sys_func1
 179              	.LVL14:
 180 001e 0446     		mov	r4, r0
 181 0020 98B1     		cbz	r0, .L11
 182              		.loc 1 87 0 is_stmt 0 discriminator 1
 183 0022 9149     		ldr	r1, .L49+4
 184 0024 1622     		movs	r2, #22
 185 0026 FFF7FEFF 		bl	memcpy
 186              	.LVL15:
 187 002a 0023     		movs	r3, #0
 188 002c 2521     		movs	r1, #37
 189 002e A375     		strb	r3, [r4, #22]
 190 0030 4FF40053 		mov	r3, #8192
 191 0034 0F20     		movs	r0, #15
 192 0036 0093     		str	r3, [sp]
 193 0038 2246     		mov	r2, r4
 194 003a 4FF48073 		mov	r3, #256
 195 003e FFF7FEFF 		bl	lib_app_call
ARM GAS  C:\Users\AHMED~1.ELE\AppData\Local\Temp\ccEeyTbT.s 			page 6


 196              	.LVL16:
 197 0042 9420     		movs	r0, #148
 198 0044 2146     		mov	r1, r4
 199 0046 FFF7FEFF 		bl	sys_func1
 200              	.LVL17:
 201              	.L11:
 202              	.LBE3:
 203              	.LBB4:
  88:src/keytrans.c ****   DispLineMW("1.SINGLE", MW_LINE2, MW_LEFT|MW_SPFONT);
 204              		.loc 1 88 0 is_stmt 1
 205 004a 9220     		movs	r0, #146
 206 004c 0921     		movs	r1, #9
 207 004e FFF7FEFF 		bl	sys_func1
 208              	.LVL18:
 209 0052 0446     		mov	r4, r0
 210              	.LVL19:
 211 0054 98B1     		cbz	r0, .L12
 212              		.loc 1 88 0 is_stmt 0 discriminator 1
 213 0056 8549     		ldr	r1, .L49+8
 214 0058 0822     		movs	r2, #8
 215 005a FFF7FEFF 		bl	memcpy
 216              	.LVL20:
 217 005e 0023     		movs	r3, #0
 218 0060 2521     		movs	r1, #37
 219 0062 2372     		strb	r3, [r4, #8]
 220 0064 4FF40053 		mov	r3, #8192
 221 0068 0F20     		movs	r0, #15
 222 006a 0093     		str	r3, [sp]
 223 006c 2246     		mov	r2, r4
 224 006e 4FF40073 		mov	r3, #512
 225 0072 FFF7FEFF 		bl	lib_app_call
 226              	.LVL21:
 227 0076 9420     		movs	r0, #148
 228 0078 2146     		mov	r1, r4
 229 007a FFF7FEFF 		bl	sys_func1
 230              	.LVL22:
 231              	.L12:
 232              	.LBE4:
 233              	.LBB5:
  89:src/keytrans.c ****   DispLineMW("2.DOUBLE", MW_LINE3, MW_LEFT|MW_SPFONT);
 234              		.loc 1 89 0 is_stmt 1
 235 007e 9220     		movs	r0, #146
 236 0080 0921     		movs	r1, #9
 237 0082 FFF7FEFF 		bl	sys_func1
 238              	.LVL23:
 239 0086 0446     		mov	r4, r0
 240              	.LVL24:
 241 0088 98B1     		cbz	r0, .L13
 242              		.loc 1 89 0 is_stmt 0 discriminator 1
 243 008a 7949     		ldr	r1, .L49+12
 244 008c 0822     		movs	r2, #8
 245 008e FFF7FEFF 		bl	memcpy
 246              	.LVL25:
 247 0092 0023     		movs	r3, #0
 248 0094 2521     		movs	r1, #37
 249 0096 2372     		strb	r3, [r4, #8]
 250 0098 4FF40053 		mov	r3, #8192
ARM GAS  C:\Users\AHMED~1.ELE\AppData\Local\Temp\ccEeyTbT.s 			page 7


 251 009c 0F20     		movs	r0, #15
 252 009e 0093     		str	r3, [sp]
 253 00a0 2246     		mov	r2, r4
 254 00a2 4FF44073 		mov	r3, #768
 255 00a6 FFF7FEFF 		bl	lib_app_call
 256              	.LVL26:
 257 00aa 9420     		movs	r0, #148
 258 00ac 2146     		mov	r1, r4
 259 00ae FFF7FEFF 		bl	sys_func1
 260              	.LVL27:
 261              	.L13:
 262              	.LBE5:
 263              	.LBB6:
  90:src/keytrans.c ****   DispLineMW("3.TRIPLE", MW_LINE4, MW_LEFT|MW_SPFONT);
 264              		.loc 1 90 0 is_stmt 1
 265 00b2 9220     		movs	r0, #146
 266 00b4 0921     		movs	r1, #9
 267 00b6 FFF7FEFF 		bl	sys_func1
 268              	.LVL28:
 269 00ba 0446     		mov	r4, r0
 270              	.LVL29:
 271 00bc 98B1     		cbz	r0, .L21
 272              		.loc 1 90 0 is_stmt 0 discriminator 1
 273 00be 6D49     		ldr	r1, .L49+16
 274 00c0 0822     		movs	r2, #8
 275 00c2 FFF7FEFF 		bl	memcpy
 276              	.LVL30:
 277 00c6 0023     		movs	r3, #0
 278 00c8 2521     		movs	r1, #37
 279 00ca 2372     		strb	r3, [r4, #8]
 280 00cc 4FF40053 		mov	r3, #8192
 281 00d0 0F20     		movs	r0, #15
 282 00d2 0093     		str	r3, [sp]
 283 00d4 2246     		mov	r2, r4
 284 00d6 4FF48063 		mov	r3, #1024
 285 00da FFF7FEFF 		bl	lib_app_call
 286              	.LVL31:
 287 00de 9420     		movs	r0, #148
 288 00e0 2146     		mov	r1, r4
 289 00e2 FFF7FEFF 		bl	sys_func1
 290              	.LVL32:
 291              	.L21:
 292              	.LBE6:
  91:src/keytrans.c **** 
  92:src/keytrans.c ****   while (1) {
  93:src/keytrans.c ****     keyin = GetCharMW();
 293              		.loc 1 93 0 is_stmt 1
 294 00e6 0022     		movs	r2, #0
 295 00e8 0F20     		movs	r0, #15
 296 00ea 0092     		str	r2, [sp]
 297 00ec 1621     		movs	r1, #22
 298 00ee 1346     		mov	r3, r2
 299 00f0 FFF7FEFF 		bl	lib_app_call
 300              	.LVL33:
  94:src/keytrans.c ****     
  95:src/keytrans.c ****     switch (keyin) {
 301              		.loc 1 95 0
ARM GAS  C:\Users\AHMED~1.ELE\AppData\Local\Temp\ccEeyTbT.s 			page 8


 302 00f4 3228     		cmp	r0, #50
 303 00f6 06D0     		beq	.L16
 304 00f8 3328     		cmp	r0, #51
 305 00fa 07D0     		beq	.L17
 306 00fc 3128     		cmp	r0, #49
 307 00fe 09D1     		bne	.L15
  96:src/keytrans.c ****       case MWKEY_1:
  97:src/keytrans.c ****         keylen = 8;
 308              		.loc 1 97 0
 309 0100 5D4B     		ldr	r3, .L49+20
 310 0102 0822     		movs	r2, #8
 311 0104 04E0     		b	.L48
 312              	.L16:
  98:src/keytrans.c ****         keysize = KEYMODE_SINGLE;
  99:src/keytrans.c ****         break;
 100:src/keytrans.c ****         
 101:src/keytrans.c ****       case MWKEY_2:
 102:src/keytrans.c ****         keylen = 16;
 313              		.loc 1 102 0
 314 0106 5C4B     		ldr	r3, .L49+20
 315 0108 1022     		movs	r2, #16
 316 010a 01E0     		b	.L48
 317              	.L17:
 103:src/keytrans.c ****         keysize = KEYMODE_DOUBLE;
 104:src/keytrans.c ****         break;
 105:src/keytrans.c ****         
 106:src/keytrans.c ****       case MWKEY_3:
 107:src/keytrans.c ****         keylen = 24;
 318              		.loc 1 107 0
 319 010c 5A4B     		ldr	r3, .L49+20
 320 010e 1822     		movs	r2, #24
 321              	.L48:
 322 0110 1A70     		strb	r2, [r3]
 108:src/keytrans.c ****         keysize = KEYMODE_TRIPLE;
 323              		.loc 1 108 0
 324 0112 5A70     		strb	r2, [r3, #1]
 325              	.L15:
 109:src/keytrans.c ****         break;
 110:src/keytrans.c ****     }
 111:src/keytrans.c ****     if ((keyin == MWKEY_1) || (keyin == MWKEY_2) || (keyin == MWKEY_3))
 326              		.loc 1 111 0
 327 0114 A0F13103 		sub	r3, r0, #49
 328 0118 022B     		cmp	r3, #2
 329 011a 02D9     		bls	.L19
 112:src/keytrans.c ****       break;
 113:src/keytrans.c ****     else if (keyin == MWKEY_CANCL)
 330              		.loc 1 113 0
 331 011c 1128     		cmp	r0, #17
 332 011e E2D1     		bne	.L21
 333 0120 9DE0     		b	.L26
 334              	.L19:
 114:src/keytrans.c ****       return FALSE;
 115:src/keytrans.c ****   }
 116:src/keytrans.c ****   
 117:src/keytrans.c ****   keycontent = MallocMW(keylen);
 335              		.loc 1 117 0
 336 0122 554E     		ldr	r6, .L49+20
ARM GAS  C:\Users\AHMED~1.ELE\AppData\Local\Temp\ccEeyTbT.s 			page 9


 337 0124 9220     		movs	r0, #146
 338              	.LVL34:
 339 0126 3178     		ldrb	r1, [r6]	@ zero_extendqisi2
 340 0128 FFF7FEFF 		bl	sys_func1
 341              	.LVL35:
 118:src/keytrans.c ****   memcpy(keycontent, KTMK, keylen);
 342              		.loc 1 118 0
 343 012c 3478     		ldrb	r4, [r6]	@ zero_extendqisi2
 344              	.LVL36:
 345 012e 03A9     		add	r1, sp, #12
 346 0130 2246     		mov	r2, r4
 117:src/keytrans.c ****   memcpy(keycontent, KTMK, keylen);
 347              		.loc 1 117 0
 348 0132 0746     		mov	r7, r0
 349              	.LVL37:
 350              		.loc 1 118 0
 351 0134 FFF7FEFF 		bl	memcpy
 352              	.LVL38:
 119:src/keytrans.c ****   keycfg = MallocMW(4+keylen);
 353              		.loc 1 119 0
 354 0138 211D     		adds	r1, r4, #4
 355 013a 9220     		movs	r0, #146
 356 013c FFF7FEFF 		bl	sys_func1
 357              	.LVL39:
 120:src/keytrans.c **** 
 121:src/keytrans.c ****   // injecting the TMK
 122:src/keytrans.c ****   keycfg[0] = KEYMODE_MKEY | keysize;
 358              		.loc 1 122 0
 359 0140 7378     		ldrb	r3, [r6, #1]	@ zero_extendqisi2
 123:src/keytrans.c ****   keycfg[1] = MKEY_IDX;
 360              		.loc 1 123 0
 361 0142 0025     		movs	r5, #0
 122:src/keytrans.c ****   keycfg[1] = MKEY_IDX;
 362              		.loc 1 122 0
 363 0144 43F00403 		orr	r3, r3, #4
 119:src/keytrans.c **** 
 364              		.loc 1 119 0
 365 0148 0446     		mov	r4, r0
 366              	.LVL40:
 122:src/keytrans.c ****   keycfg[1] = MKEY_IDX;
 367              		.loc 1 122 0
 368 014a 0370     		strb	r3, [r0]
 369              		.loc 1 123 0
 370 014c 4570     		strb	r5, [r0, #1]
 124:src/keytrans.c ****   memcpy(&keycfg[2], "\xFF\x00", 2);
 371              		.loc 1 124 0
 372 014e 4B49     		ldr	r1, .L49+24
 373 0150 0222     		movs	r2, #2
 374 0152 0230     		adds	r0, r0, #2
 375              	.LVL41:
 376 0154 FFF7FEFF 		bl	memcpy
 377              	.LVL42:
 125:src/keytrans.c ****   memcpy(&keycfg[4], keycontent, keylen);
 378              		.loc 1 125 0
 379 0158 3278     		ldrb	r2, [r6]	@ zero_extendqisi2
 380 015a 3946     		mov	r1, r7
 381 015c 201D     		adds	r0, r4, #4
ARM GAS  C:\Users\AHMED~1.ELE\AppData\Local\Temp\ccEeyTbT.s 			page 10


 382 015e FFF7FEFF 		bl	memcpy
 383              	.LVL43:
 126:src/keytrans.c ****   
 127:src/keytrans.c ****   ret = KDLL_KeyInject(keycfg);
 384              		.loc 1 127 0
 385 0162 0095     		str	r5, [sp]
 386 0164 7F20     		movs	r0, #127
 387 0166 0221     		movs	r1, #2
 388 0168 2246     		mov	r2, r4
 389 016a 2B46     		mov	r3, r5
 390 016c FFF7FEFF 		bl	lib_app_call
 391              	.LVL44:
 128:src/keytrans.c ****   if (ret) {
 392              		.loc 1 128 0
 393 0170 86B2     		uxth	r6, r0
 394 0172 002E     		cmp	r6, #0
 395 0174 46D0     		beq	.L22
 396              	.LVL45:
 397              	.LBB7:
 129:src/keytrans.c ****     DispLineMW("TMKI Failed!", MW_LINE5, MW_CENTER|MW_BIGFONT);
 398              		.loc 1 129 0
 399 0176 9220     		movs	r0, #146
 400              	.LVL46:
 401 0178 0D21     		movs	r1, #13
 402 017a FFF7FEFF 		bl	sys_func1
 403              	.LVL47:
 404 017e 0446     		mov	r4, r0
 405              	.LVL48:
 406 0180 90B1     		cbz	r0, .L23
 407              		.loc 1 129 0 is_stmt 0 discriminator 1
 408 0182 3F49     		ldr	r1, .L49+28
 409 0184 0C22     		movs	r2, #12
 410 0186 FFF7FEFF 		bl	memcpy
 411              	.LVL49:
 412 018a 41F20203 		movw	r3, #4098
 413 018e 2573     		strb	r5, [r4, #12]
 414 0190 2521     		movs	r1, #37
 415 0192 0093     		str	r3, [sp]
 416 0194 0F20     		movs	r0, #15
 417 0196 2246     		mov	r2, r4
 418 0198 4FF4A063 		mov	r3, #1280
 419 019c FFF7FEFF 		bl	lib_app_call
 420              	.LVL50:
 421 01a0 9420     		movs	r0, #148
 422 01a2 2146     		mov	r1, r4
 423 01a4 FFF7FEFF 		bl	sys_func1
 424              	.LVL51:
 425              	.L23:
 426              	.LBE7:
 130:src/keytrans.c ****     SprintfMW(buf, "Ret = %d", ret);
 427              		.loc 1 130 0 is_stmt 1
 428 01a8 3649     		ldr	r1, .L49+32
 429 01aa 3246     		mov	r2, r6
 430 01ac 0AA8     		add	r0, sp, #40
 431 01ae FFF7FEFF 		bl	sprintf
 432              	.LVL52:
 433              	.LBB8:
ARM GAS  C:\Users\AHMED~1.ELE\AppData\Local\Temp\ccEeyTbT.s 			page 11


 131:src/keytrans.c ****     DispLineMW(buf, MW_LINE7, MW_CENTER|MW_BIGFONT);
 434              		.loc 1 131 0
 435 01b2 0AA8     		add	r0, sp, #40
 436 01b4 FFF7FEFF 		bl	strlen
 437              	.LVL53:
 438 01b8 0546     		mov	r5, r0
 439              	.LVL54:
 440 01ba 691C     		adds	r1, r5, #1
 441 01bc 9220     		movs	r0, #146
 442              	.LVL55:
 443 01be FFF7FEFF 		bl	sys_func1
 444              	.LVL56:
 445 01c2 0446     		mov	r4, r0
 446              	.LVL57:
 447 01c4 98B1     		cbz	r0, .L24
 448              		.loc 1 131 0 is_stmt 0 discriminator 1
 449 01c6 0AA9     		add	r1, sp, #40
 450 01c8 2A46     		mov	r2, r5
 451 01ca FFF7FEFF 		bl	memcpy
 452              	.LVL58:
 453 01ce 0023     		movs	r3, #0
 454 01d0 2521     		movs	r1, #37
 455 01d2 6355     		strb	r3, [r4, r5]
 456 01d4 41F20203 		movw	r3, #4098
 457 01d8 0F20     		movs	r0, #15
 458 01da 0093     		str	r3, [sp]
 459 01dc 2246     		mov	r2, r4
 460 01de 4FF4E063 		mov	r3, #1792
 461 01e2 FFF7FEFF 		bl	lib_app_call
 462              	.LVL59:
 463 01e6 9420     		movs	r0, #148
 464 01e8 2146     		mov	r1, r4
 465 01ea FFF7FEFF 		bl	sys_func1
 466              	.LVL60:
 467              	.L24:
 468              	.LBE8:
 132:src/keytrans.c ****     LongBeep();
 133:src/keytrans.c ****     APM_WaitKey(200, 0);
 469              		.loc 1 133 0 is_stmt 1
 470 01ee 0024     		movs	r4, #0
 471              	.LVL61:
 132:src/keytrans.c ****     LongBeep();
 472              		.loc 1 132 0
 473 01f0 FFF7FEFF 		bl	LongBeep
 474              	.LVL62:
 475              		.loc 1 133 0
 476 01f4 0321     		movs	r1, #3
 477 01f6 0094     		str	r4, [sp]
 478 01f8 C822     		movs	r2, #200
 479 01fa 2346     		mov	r3, r4
 480 01fc 1020     		movs	r0, #16
 481 01fe FFF7FEFF 		bl	lib_app_call
 482              	.LVL63:
 483 0202 2CE0     		b	.L26
 484              	.LVL64:
 485              	.L22:
 134:src/keytrans.c ****     return FALSE;
ARM GAS  C:\Users\AHMED~1.ELE\AppData\Local\Temp\ccEeyTbT.s 			page 12


 135:src/keytrans.c ****   }
 136:src/keytrans.c ****   FreeMW(keycontent);
 486              		.loc 1 136 0
 487 0204 3946     		mov	r1, r7
 488 0206 9420     		movs	r0, #148
 489              	.LVL65:
 490 0208 FFF7FEFF 		bl	sys_func1
 491              	.LVL66:
 137:src/keytrans.c ****   FreeMW(keycfg);
 492              		.loc 1 137 0
 493 020c 2146     		mov	r1, r4
 494 020e 9420     		movs	r0, #148
 495 0210 FFF7FEFF 		bl	sys_func1
 496              	.LVL67:
 138:src/keytrans.c ****   Short2Beep();
 497              		.loc 1 138 0
 498 0214 FFF7FEFF 		bl	Short2Beep
 499              	.LVL68:
 500              	.LBB9:
 139:src/keytrans.c ****   DispLineMW("TMKI OK", MW_LINE5, MW_CLRDISP|MW_CENTER|MW_BIGFONT);
 501              		.loc 1 139 0
 502 0218 9220     		movs	r0, #146
 503 021a 0821     		movs	r1, #8
 504 021c FFF7FEFF 		bl	sys_func1
 505              	.LVL69:
 506 0220 0446     		mov	r4, r0
 507              	.LVL70:
 508 0222 90B1     		cbz	r0, .L25
 509              		.loc 1 139 0 is_stmt 0 discriminator 1
 510 0224 1849     		ldr	r1, .L49+36
 511 0226 0722     		movs	r2, #7
 512 0228 FFF7FEFF 		bl	memcpy
 513              	.LVL71:
 514 022c 41F28203 		movw	r3, #4226
 515 0230 E671     		strb	r6, [r4, #7]
 516 0232 2521     		movs	r1, #37
 517 0234 0093     		str	r3, [sp]
 518 0236 0F20     		movs	r0, #15
 519 0238 2246     		mov	r2, r4
 520 023a 4FF4A063 		mov	r3, #1280
 521 023e FFF7FEFF 		bl	lib_app_call
 522              	.LVL72:
 523 0242 9420     		movs	r0, #148
 524 0244 2146     		mov	r1, r4
 525 0246 FFF7FEFF 		bl	sys_func1
 526              	.LVL73:
 527              	.L25:
 528              	.LBE9:
 140:src/keytrans.c ****   APM_WaitKey(9000, 0);
 529              		.loc 1 140 0 is_stmt 1
 530 024a 0023     		movs	r3, #0
 531 024c 1020     		movs	r0, #16
 532 024e 0093     		str	r3, [sp]
 533 0250 0321     		movs	r1, #3
 534 0252 42F22832 		movw	r2, #9000
 535 0256 FFF7FEFF 		bl	lib_app_call
 536              	.LVL74:
ARM GAS  C:\Users\AHMED~1.ELE\AppData\Local\Temp\ccEeyTbT.s 			page 13


 141:src/keytrans.c ****   return TRUE;
 537              		.loc 1 141 0
 538 025a 0120     		movs	r0, #1
 539 025c 00E0     		b	.L20
 540              	.LVL75:
 541              	.L26:
 114:src/keytrans.c ****   }
 542              		.loc 1 114 0
 543 025e 0020     		movs	r0, #0
 544              	.L20:
 142:src/keytrans.c **** }
 545              		.loc 1 142 0
 546 0260 13B0     		add	sp, sp, #76
 547              		.cfi_def_cfa_offset 20
 548              		@ sp needed
 549 0262 F0BD     		pop	{r4, r5, r6, r7, pc}
 550              	.L50:
 551              		.align	2
 552              	.L49:
 553 0264 61000000 		.word	.LC1
 554 0268 11000000 		.word	.LC2
 555 026c 28000000 		.word	.LC3
 556 0270 31000000 		.word	.LC4
 557 0274 3A000000 		.word	.LC5
 558 0278 00000000 		.word	.LANCHOR0
 559 027c 00000000 		.word	.LANCHOR1
 560 0280 43000000 		.word	.LC7
 561 0284 50000000 		.word	.LC8
 562 0288 59000000 		.word	.LC9
 563              		.cfi_endproc
 564              	.LFE2:
 565              		.size	LoadTmk, .-LoadTmk
 566              		.section	.text.LoadKeys,"ax",%progbits
 567              		.align	1
 568              		.global	LoadKeys
 569              		.thumb
 570              		.thumb_func
 571              		.type	LoadKeys, %function
 572              	LoadKeys:
 573              	.LFB3:
 143:src/keytrans.c **** /******************************************************************************
 144:src/keytrans.c ****  *  Function        : LoadKeys
 145:src/keytrans.c ****  *  Description     : Load data encrytion/decryption keys
 146:src/keytrans.c ****  *  Input           : N/A
 147:src/keytrans.c ****  *  Return          : N/A
 148:src/keytrans.c ****  *  Note            : N/A
 149:src/keytrans.c ****  *  Globals Changed : N/A
 150:src/keytrans.c ****  ******************************************************************************
 151:src/keytrans.c ****  */
 152:src/keytrans.c **** void LoadKeys(void)
 153:src/keytrans.c **** {
 574              		.loc 1 153 0
 575              		.cfi_startproc
 576              		@ args = 0, pretend = 0, frame = 120
 577              		@ frame_needed = 0, uses_anonymous_args = 0
 578 0000 2DE9F043 		push	{r4, r5, r6, r7, r8, r9, lr}
 579              		.cfi_def_cfa_offset 28
ARM GAS  C:\Users\AHMED~1.ELE\AppData\Local\Temp\ccEeyTbT.s 			page 14


 580              		.cfi_offset 4, -28
 581              		.cfi_offset 5, -24
 582              		.cfi_offset 6, -20
 583              		.cfi_offset 7, -16
 584              		.cfi_offset 8, -12
 585              		.cfi_offset 9, -8
 586              		.cfi_offset 14, -4
 587 0004 A1B0     		sub	sp, sp, #132
 588              		.cfi_def_cfa_offset 160
 154:src/keytrans.c ****   // plaintext encrypt key: 0000111122223333
 155:src/keytrans.c ****   const BYTE KEncrypt1[] = "\x96\xC6\x16\x8A\x2E\x9F\x15\xEB";
 589              		.loc 1 155 0
 590 0006 7C49     		ldr	r1, .L76
 591 0008 0922     		movs	r2, #9
 592 000a 02A8     		add	r0, sp, #8
 593 000c FFF7FEFF 		bl	memcpy
 594              	.LVL76:
 156:src/keytrans.c ****   // plaintext encrypt key: 0000111122223333 4444555566667777
 157:src/keytrans.c ****   const BYTE KEncrypt2[] = "\x26\xA7\xD1\x19\x3D\x01\x14\xF6\x46\x52\x57\x3C\x22\xD8\x35\xE2";
 595              		.loc 1 157 0
 596 0010 7A49     		ldr	r1, .L76+4
 597 0012 1122     		movs	r2, #17
 598 0014 08A8     		add	r0, sp, #32
 599 0016 FFF7FEFF 		bl	memcpy
 600              	.LVL77:
 158:src/keytrans.c ****   // plaintext encrypt key: 0000111122223333 4444555566667777 88889999AAAABBBB
 159:src/keytrans.c ****   const BYTE KEncrypt3[] = "\xA6\xA4\xD1\x6B\xAE\xE6\x8A\x8C\x65\x15\x44\xEF\xB9\x63\x4F\x9D\xB6\xB
 601              		.loc 1 159 0
 602 001a 7949     		ldr	r1, .L76+8
 603 001c 1922     		movs	r2, #25
 604 001e 12A8     		add	r0, sp, #72
 605 0020 FFF7FEFF 		bl	memcpy
 606              	.LVL78:
 160:src/keytrans.c ****   // plaintext decrypt key: CCCCDDDDEEEEFFFF
 161:src/keytrans.c ****   const BYTE KDecrypt1[] = "\x24\x22\xEA\x54\x1A\x8A\x1E\x35";
 607              		.loc 1 161 0
 608 0024 7749     		ldr	r1, .L76+12
 609 0026 0922     		movs	r2, #9
 610 0028 05A8     		add	r0, sp, #20
 611 002a FFF7FEFF 		bl	memcpy
 612              	.LVL79:
 162:src/keytrans.c ****   // plaintest decrypt key: CCCCDDDDEEEEFFFF 0011223344556677
 163:src/keytrans.c ****   const BYTE KDecrypt2[] = "\x9C\x15\x9E\x60\xC4\x4F\x8D\x6F\x31\xA7\x36\x4C\xAC\x91\xCA\x39";
 613              		.loc 1 163 0
 614 002e 7649     		ldr	r1, .L76+16
 615 0030 1122     		movs	r2, #17
 616 0032 0DA8     		add	r0, sp, #52
 617 0034 FFF7FEFF 		bl	memcpy
 618              	.LVL80:
 164:src/keytrans.c ****   // plaintest decrypt key: CCCCDDDDEEEEFFFF 0011223344556677 8899AABBCCDDEEFF
 165:src/keytrans.c ****   const BYTE KDecrypt3[] = "\x73\x36\x2D\xC6\x79\xD1\xA1\x3C\x0F\x16\xDE\xA6\xD4\x4E\x34\xC9\x6A\xF
 166:src/keytrans.c ****   BYTE * keycfg;
 167:src/keytrans.c ****   BYTE * keycontent;
 168:src/keytrans.c **** 
 169:src/keytrans.c ****   ClearDispMW();
 170:src/keytrans.c ****   
 171:src/keytrans.c ****   keycontent = MallocMW(keylen);
ARM GAS  C:\Users\AHMED~1.ELE\AppData\Local\Temp\ccEeyTbT.s 			page 15


 619              		.loc 1 171 0
 620 0038 744D     		ldr	r5, .L76+20
 165:src/keytrans.c ****   BYTE * keycfg;
 621              		.loc 1 165 0
 622 003a 1922     		movs	r2, #25
 623 003c 7449     		ldr	r1, .L76+24
 624 003e 19A8     		add	r0, sp, #100
 625 0040 FFF7FEFF 		bl	memcpy
 626              	.LVL81:
 169:src/keytrans.c ****   
 627              		.loc 1 169 0
 628 0044 0C21     		movs	r1, #12
 629 0046 1620     		movs	r0, #22
 630 0048 FFF7FEFF 		bl	sys_func1
 631              	.LVL82:
 632              		.loc 1 171 0
 633 004c 9220     		movs	r0, #146
 634 004e 2978     		ldrb	r1, [r5]	@ zero_extendqisi2
 635 0050 FFF7FEFF 		bl	sys_func1
 636              	.LVL83:
 172:src/keytrans.c ****   if (keysize == KEYMODE_SINGLE)
 637              		.loc 1 172 0
 638 0054 6B78     		ldrb	r3, [r5, #1]	@ zero_extendqisi2
 639 0056 082B     		cmp	r3, #8
 171:src/keytrans.c ****   if (keysize == KEYMODE_SINGLE)
 640              		.loc 1 171 0
 641 0058 0646     		mov	r6, r0
 642              	.LVL84:
 643              		.loc 1 172 0
 644 005a 01D1     		bne	.L52
 173:src/keytrans.c ****     memcpy(keycontent, KEncrypt1, keylen);
 645              		.loc 1 173 0
 646 005c 02A9     		add	r1, sp, #8
 647 005e 06E0     		b	.L72
 648              	.L52:
 174:src/keytrans.c ****   if (keysize == KEYMODE_DOUBLE)
 649              		.loc 1 174 0
 650 0060 102B     		cmp	r3, #16
 651 0062 01D1     		bne	.L54
 175:src/keytrans.c ****     memcpy(keycontent, KEncrypt2, keylen);
 652              		.loc 1 175 0
 653 0064 08A9     		add	r1, sp, #32
 654 0066 02E0     		b	.L72
 655              	.L54:
 176:src/keytrans.c ****   if (keysize == KEYMODE_TRIPLE)
 656              		.loc 1 176 0
 657 0068 182B     		cmp	r3, #24
 658 006a 03D1     		bne	.L53
 177:src/keytrans.c ****     memcpy(keycontent, KEncrypt3, keylen);
 659              		.loc 1 177 0
 660 006c 12A9     		add	r1, sp, #72
 661              	.L72:
 662 006e 2A78     		ldrb	r2, [r5]	@ zero_extendqisi2
 663 0070 FFF7FEFF 		bl	memcpy
 664              	.LVL85:
 665              	.L53:
 178:src/keytrans.c ****   keycfg = MallocMW(4+keylen);
ARM GAS  C:\Users\AHMED~1.ELE\AppData\Local\Temp\ccEeyTbT.s 			page 16


 666              		.loc 1 178 0
 667 0074 2978     		ldrb	r1, [r5]	@ zero_extendqisi2
 668 0076 9220     		movs	r0, #146
 669 0078 0431     		adds	r1, r1, #4
 670 007a FFF7FEFF 		bl	sys_func1
 671              	.LVL86:
 179:src/keytrans.c ****   
 180:src/keytrans.c ****   // injecting the encryption key
 181:src/keytrans.c ****   keycfg[0] = KEYMODE_ENC | keysize;
 672              		.loc 1 181 0
 673 007e 6B78     		ldrb	r3, [r5, #1]	@ zero_extendqisi2
 182:src/keytrans.c ****   keycfg[1] = EKEY_IDX;
 183:src/keytrans.c ****   keycfg[2] = MKEY_IDX;
 674              		.loc 1 183 0
 675 0080 0027     		movs	r7, #0
 184:src/keytrans.c ****   keycfg[3] = 0x00;
 185:src/keytrans.c ****   memcpy(&keycfg[4], keycontent, keylen);
 676              		.loc 1 185 0
 677 0082 3146     		mov	r1, r6
 181:src/keytrans.c ****   keycfg[1] = EKEY_IDX;
 678              		.loc 1 181 0
 679 0084 0370     		strb	r3, [r0]
 182:src/keytrans.c ****   keycfg[1] = EKEY_IDX;
 680              		.loc 1 182 0
 681 0086 0123     		movs	r3, #1
 682              		.loc 1 185 0
 683 0088 00F10408 		add	r8, r0, #4
 182:src/keytrans.c ****   keycfg[1] = EKEY_IDX;
 684              		.loc 1 182 0
 685 008c 4370     		strb	r3, [r0, #1]
 178:src/keytrans.c ****   
 686              		.loc 1 178 0
 687 008e 0446     		mov	r4, r0
 688              	.LVL87:
 183:src/keytrans.c ****   keycfg[3] = 0x00;
 689              		.loc 1 183 0
 690 0090 8770     		strb	r7, [r0, #2]
 184:src/keytrans.c ****   memcpy(&keycfg[4], keycontent, keylen);
 691              		.loc 1 184 0
 692 0092 C770     		strb	r7, [r0, #3]
 693              		.loc 1 185 0
 694 0094 2A78     		ldrb	r2, [r5]	@ zero_extendqisi2
 695 0096 4046     		mov	r0, r8
 696              	.LVL88:
 697 0098 FFF7FEFF 		bl	memcpy
 698              	.LVL89:
 186:src/keytrans.c ****   
 187:src/keytrans.c ****   if (KDLL_KeyInject(keycfg)) {
 699              		.loc 1 187 0
 700 009c 0221     		movs	r1, #2
 701 009e 0097     		str	r7, [sp]
 702 00a0 7F20     		movs	r0, #127
 703 00a2 2246     		mov	r2, r4
 704 00a4 3B46     		mov	r3, r7
 705 00a6 FFF7FEFF 		bl	lib_app_call
 706              	.LVL90:
 707              	.LBB10:
ARM GAS  C:\Users\AHMED~1.ELE\AppData\Local\Temp\ccEeyTbT.s 			page 17


 188:src/keytrans.c ****     DispLineMW("Inject Failed!", MW_LINE5, MW_CENTER|MW_BIGFONT);
 708              		.loc 1 188 0
 709 00aa 0F21     		movs	r1, #15
 710              	.LBE10:
 187:src/keytrans.c ****     DispLineMW("Inject Failed!", MW_LINE5, MW_CENTER|MW_BIGFONT);
 711              		.loc 1 187 0
 712 00ac 1FFA80F9 		uxth	r9, r0
 713              	.LBB11:
 714              		.loc 1 188 0
 715 00b0 9220     		movs	r0, #146
 716              	.LBE11:
 187:src/keytrans.c ****     DispLineMW("Inject Failed!", MW_LINE5, MW_CENTER|MW_BIGFONT);
 717              		.loc 1 187 0
 718 00b2 B9F1000F 		cmp	r9, #0
 719 00b6 16D0     		beq	.L55
 720              	.LVL91:
 721              	.LBB12:
 722              		.loc 1 188 0
 723 00b8 FFF7FEFF 		bl	sys_func1
 724              	.LVL92:
 725 00bc 8146     		mov	r9, r0
 726 00be 50B3     		cbz	r0, .L57
 727              		.loc 1 188 0 is_stmt 0 discriminator 1
 728 00c0 5449     		ldr	r1, .L76+28
 729 00c2 0E22     		movs	r2, #14
 730 00c4 FFF7FEFF 		bl	memcpy
 731              	.LVL93:
 732 00c8 41F20203 		movw	r3, #4098
 733 00cc 89F80E70 		strb	r7, [r9, #14]
 734 00d0 2521     		movs	r1, #37
 735 00d2 0093     		str	r3, [sp]
 736 00d4 0F20     		movs	r0, #15
 737 00d6 4A46     		mov	r2, r9
 738 00d8 4FF4A063 		mov	r3, #1280
 739 00dc FFF7FEFF 		bl	lib_app_call
 740              	.LVL94:
 741 00e0 9420     		movs	r0, #148
 742 00e2 4946     		mov	r1, r9
 743 00e4 15E0     		b	.L73
 744              	.LVL95:
 745              	.L55:
 746              	.LBE12:
 747              	.LBB13:
 189:src/keytrans.c ****   }
 190:src/keytrans.c ****   else {
 191:src/keytrans.c ****     DispLineMW("Inject EKEY OK", MW_LINE5, MW_CENTER|MW_BIGFONT);
 748              		.loc 1 191 0 is_stmt 1
 749 00e6 FFF7FEFF 		bl	sys_func1
 750              	.LVL96:
 751 00ea 0746     		mov	r7, r0
 752 00ec 98B1     		cbz	r0, .L57
 753              		.loc 1 191 0 is_stmt 0 discriminator 1
 754 00ee 4A49     		ldr	r1, .L76+32
 755 00f0 0E22     		movs	r2, #14
 756 00f2 FFF7FEFF 		bl	memcpy
 757              	.LVL97:
 758 00f6 41F20203 		movw	r3, #4098
ARM GAS  C:\Users\AHMED~1.ELE\AppData\Local\Temp\ccEeyTbT.s 			page 18


 759 00fa 87F80E90 		strb	r9, [r7, #14]
 760 00fe 2521     		movs	r1, #37
 761 0100 0093     		str	r3, [sp]
 762 0102 0F20     		movs	r0, #15
 763 0104 3A46     		mov	r2, r7
 764 0106 4FF4A063 		mov	r3, #1280
 765 010a FFF7FEFF 		bl	lib_app_call
 766              	.LVL98:
 767 010e 9420     		movs	r0, #148
 768 0110 3946     		mov	r1, r7
 769              	.LVL99:
 770              	.L73:
 771 0112 FFF7FEFF 		bl	sys_func1
 772              	.LVL100:
 773              	.L57:
 774              	.LBE13:
 192:src/keytrans.c ****   }
 193:src/keytrans.c ****   Short2Beep();
 775              		.loc 1 193 0 is_stmt 1
 776 0116 FFF7FEFF 		bl	Short2Beep
 777              	.LVL101:
 194:src/keytrans.c ****   APM_WaitKey(9000, 0);
 778              		.loc 1 194 0
 779 011a 0023     		movs	r3, #0
 780 011c 1020     		movs	r0, #16
 781 011e 0093     		str	r3, [sp]
 782 0120 0321     		movs	r1, #3
 783 0122 42F22832 		movw	r2, #9000
 784 0126 FFF7FEFF 		bl	lib_app_call
 785              	.LVL102:
 195:src/keytrans.c ****   
 196:src/keytrans.c ****   if (keysize == KEYMODE_SINGLE)
 786              		.loc 1 196 0
 787 012a 6F78     		ldrb	r7, [r5, #1]	@ zero_extendqisi2
 788 012c 374B     		ldr	r3, .L76+20
 789 012e 082F     		cmp	r7, #8
 790 0130 02D1     		bne	.L59
 197:src/keytrans.c ****     memcpy(keycontent, KDecrypt1, keylen);
 791              		.loc 1 197 0
 792 0132 3046     		mov	r0, r6
 793 0134 05A9     		add	r1, sp, #20
 794 0136 08E0     		b	.L74
 795              	.L59:
 198:src/keytrans.c ****   if (keysize == KEYMODE_DOUBLE)
 796              		.loc 1 198 0
 797 0138 102F     		cmp	r7, #16
 798 013a 02D1     		bne	.L61
 199:src/keytrans.c ****     memcpy(keycontent, KDecrypt2, keylen);
 799              		.loc 1 199 0
 800 013c 3046     		mov	r0, r6
 801 013e 0DA9     		add	r1, sp, #52
 802 0140 03E0     		b	.L74
 803              	.L61:
 200:src/keytrans.c ****   if (keysize == KEYMODE_TRIPLE)
 804              		.loc 1 200 0
 805 0142 182F     		cmp	r7, #24
 806 0144 04D1     		bne	.L60
ARM GAS  C:\Users\AHMED~1.ELE\AppData\Local\Temp\ccEeyTbT.s 			page 19


 201:src/keytrans.c ****     memcpy(keycontent, KDecrypt3, keylen);
 807              		.loc 1 201 0
 808 0146 3046     		mov	r0, r6
 809 0148 19A9     		add	r1, sp, #100
 810              	.LVL103:
 811              	.L74:
 812 014a 1A78     		ldrb	r2, [r3]	@ zero_extendqisi2
 813 014c FFF7FEFF 		bl	memcpy
 814              	.LVL104:
 815              	.L60:
 202:src/keytrans.c ****   
 203:src/keytrans.c ****   // injecting the decryption key
 204:src/keytrans.c ****   keycfg[0] = KEYMODE_DEC | keysize;   // double key length
 816              		.loc 1 204 0
 817 0150 47F00207 		orr	r7, r7, #2
 205:src/keytrans.c ****   keycfg[1] = DKEY_IDX;
 818              		.loc 1 205 0
 819 0154 4FF00209 		mov	r9, #2
 204:src/keytrans.c ****   keycfg[1] = DKEY_IDX;
 820              		.loc 1 204 0
 821 0158 2770     		strb	r7, [r4]
 206:src/keytrans.c ****   keycfg[2] = MKEY_IDX;
 822              		.loc 1 206 0
 823 015a 0027     		movs	r7, #0
 207:src/keytrans.c ****   keycfg[3] = 0x00;
 208:src/keytrans.c ****   memcpy(&keycfg[4], keycontent, keylen);
 824              		.loc 1 208 0
 825 015c 4046     		mov	r0, r8
 826 015e 3146     		mov	r1, r6
 827 0160 2A78     		ldrb	r2, [r5]	@ zero_extendqisi2
 205:src/keytrans.c ****   keycfg[2] = MKEY_IDX;
 828              		.loc 1 205 0
 829 0162 84F80190 		strb	r9, [r4, #1]
 206:src/keytrans.c ****   keycfg[2] = MKEY_IDX;
 830              		.loc 1 206 0
 831 0166 A770     		strb	r7, [r4, #2]
 207:src/keytrans.c ****   keycfg[3] = 0x00;
 832              		.loc 1 207 0
 833 0168 E770     		strb	r7, [r4, #3]
 834              		.loc 1 208 0
 835 016a FFF7FEFF 		bl	memcpy
 836              	.LVL105:
 209:src/keytrans.c ****   
 210:src/keytrans.c ****   if (KDLL_KeyInject(keycfg)) {
 837              		.loc 1 210 0
 838 016e 4946     		mov	r1, r9
 839 0170 0097     		str	r7, [sp]
 840 0172 7F20     		movs	r0, #127
 841 0174 2246     		mov	r2, r4
 842 0176 3B46     		mov	r3, r7
 843 0178 FFF7FEFF 		bl	lib_app_call
 844              	.LVL106:
 845              	.LBB14:
 211:src/keytrans.c ****     DispLineMW("Inject Failed!", MW_LINE5, MW_CENTER|MW_BIGFONT);
 846              		.loc 1 211 0
 847 017c 0F21     		movs	r1, #15
 848              	.LBE14:
ARM GAS  C:\Users\AHMED~1.ELE\AppData\Local\Temp\ccEeyTbT.s 			page 20


 210:src/keytrans.c ****     DispLineMW("Inject Failed!", MW_LINE5, MW_CENTER|MW_BIGFONT);
 849              		.loc 1 210 0
 850 017e 1FFA80F8 		uxth	r8, r0
 851              	.LBB15:
 852              		.loc 1 211 0
 853 0182 9220     		movs	r0, #146
 854              	.LBE15:
 210:src/keytrans.c ****     DispLineMW("Inject Failed!", MW_LINE5, MW_CENTER|MW_BIGFONT);
 855              		.loc 1 210 0
 856 0184 B8F1000F 		cmp	r8, #0
 857 0188 09D0     		beq	.L62
 858              	.LVL107:
 859              	.LBB16:
 860              		.loc 1 211 0
 861 018a FFF7FEFF 		bl	sys_func1
 862              	.LVL108:
 863 018e 0546     		mov	r5, r0
 864 0190 E8B1     		cbz	r0, .L64
 865              		.loc 1 211 0 is_stmt 0 discriminator 1
 866 0192 2049     		ldr	r1, .L76+28
 867 0194 0E22     		movs	r2, #14
 868 0196 FFF7FEFF 		bl	memcpy
 869              	.LVL109:
 870 019a AF73     		strb	r7, [r5, #14]
 871 019c 09E0     		b	.L75
 872              	.LVL110:
 873              	.L62:
 874              	.LBE16:
 875              	.LBB17:
 212:src/keytrans.c ****   }
 213:src/keytrans.c ****   else {
 214:src/keytrans.c ****     DispLineMW("Inject DKEY OK", MW_LINE5, MW_CENTER|MW_BIGFONT);
 876              		.loc 1 214 0 is_stmt 1
 877 019e FFF7FEFF 		bl	sys_func1
 878              	.LVL111:
 879 01a2 0546     		mov	r5, r0
 880 01a4 98B1     		cbz	r0, .L64
 881              		.loc 1 214 0 is_stmt 0 discriminator 1
 882 01a6 1D49     		ldr	r1, .L76+36
 883 01a8 0E22     		movs	r2, #14
 884 01aa FFF7FEFF 		bl	memcpy
 885              	.LVL112:
 886 01ae 85F80E80 		strb	r8, [r5, #14]
 887              	.LVL113:
 888              	.L75:
 889 01b2 41F20203 		movw	r3, #4098
 890 01b6 2521     		movs	r1, #37
 891 01b8 0093     		str	r3, [sp]
 892 01ba 0F20     		movs	r0, #15
 893 01bc 2A46     		mov	r2, r5
 894 01be 4FF4A063 		mov	r3, #1280
 895 01c2 FFF7FEFF 		bl	lib_app_call
 896              	.LVL114:
 897 01c6 9420     		movs	r0, #148
 898 01c8 2946     		mov	r1, r5
 899 01ca FFF7FEFF 		bl	sys_func1
 900              	.LVL115:
ARM GAS  C:\Users\AHMED~1.ELE\AppData\Local\Temp\ccEeyTbT.s 			page 21


 901              	.L64:
 902              	.LBE17:
 215:src/keytrans.c ****   }
 216:src/keytrans.c ****   FreeMW(keycontent);
 903              		.loc 1 216 0 is_stmt 1
 904 01ce 3146     		mov	r1, r6
 905 01d0 9420     		movs	r0, #148
 906 01d2 FFF7FEFF 		bl	sys_func1
 907              	.LVL116:
 217:src/keytrans.c ****   FreeMW(keycfg);
 908              		.loc 1 217 0
 909 01d6 2146     		mov	r1, r4
 910 01d8 9420     		movs	r0, #148
 911 01da FFF7FEFF 		bl	sys_func1
 912              	.LVL117:
 218:src/keytrans.c ****   Short2Beep();
 913              		.loc 1 218 0
 914 01de FFF7FEFF 		bl	Short2Beep
 915              	.LVL118:
 219:src/keytrans.c ****   APM_WaitKey(9000, 0);
 916              		.loc 1 219 0
 917 01e2 0023     		movs	r3, #0
 918 01e4 0321     		movs	r1, #3
 919 01e6 0093     		str	r3, [sp]
 920 01e8 42F22832 		movw	r2, #9000
 921 01ec 1020     		movs	r0, #16
 922 01ee FFF7FEFF 		bl	lib_app_call
 923              	.LVL119:
 220:src/keytrans.c **** }
 924              		.loc 1 220 0
 925 01f2 21B0     		add	sp, sp, #132
 926              		.cfi_def_cfa_offset 28
 927              		@ sp needed
 928 01f4 BDE8F083 		pop	{r4, r5, r6, r7, r8, r9, pc}
 929              	.LVL120:
 930              	.L77:
 931              		.align	2
 932              	.L76:
 933 01f8 A7000000 		.word	.LC10
 934 01fc B0000000 		.word	.LC11
 935 0200 C1000000 		.word	.LC12
 936 0204 DA000000 		.word	.LC13
 937 0208 E3000000 		.word	.LC14
 938 020c 00000000 		.word	.LANCHOR0
 939 0210 F4000000 		.word	.LC15
 940 0214 7A000000 		.word	.LC16
 941 0218 89000000 		.word	.LC17
 942 021c 98000000 		.word	.LC18
 943              		.cfi_endproc
 944              	.LFE3:
 945              		.size	LoadKeys, .-LoadKeys
 946              		.section	.text.EncData,"ax",%progbits
 947              		.align	1
 948              		.global	EncData
 949              		.thumb
 950              		.thumb_func
 951              		.type	EncData, %function
ARM GAS  C:\Users\AHMED~1.ELE\AppData\Local\Temp\ccEeyTbT.s 			page 22


 952              	EncData:
 953              	.LFB4:
 221:src/keytrans.c **** /******************************************************************************
 222:src/keytrans.c ****  *  Function        : EncData
 223:src/keytrans.c ****  *  Description     : Encrypt data for testing
 224:src/keytrans.c ****  *  Input           : N/A
 225:src/keytrans.c ****  *  Return          : N/A
 226:src/keytrans.c ****  *  Note            : N/A
 227:src/keytrans.c ****  *  Globals Changed : N/A
 228:src/keytrans.c ****  ******************************************************************************
 229:src/keytrans.c ****  */
 230:src/keytrans.c **** void EncData(void)
 231:src/keytrans.c **** {
 954              		.loc 1 231 0
 955              		.cfi_startproc
 956              		@ args = 0, pretend = 0, frame = 208
 957              		@ frame_needed = 0, uses_anonymous_args = 0
 958 0000 30B5     		push	{r4, r5, lr}
 959              		.cfi_def_cfa_offset 12
 960              		.cfi_offset 4, -12
 961              		.cfi_offset 5, -8
 962              		.cfi_offset 14, -4
 963 0002 B7B0     		sub	sp, sp, #220
 964              		.cfi_def_cfa_offset 232
 232:src/keytrans.c ****   BYTE kbdbuf[49], buf[128];
 233:src/keytrans.c ****   WORD ret;
 234:src/keytrans.c ****   
 235:src/keytrans.c ****   // plaintext data
 236:src/keytrans.c ****   const BYTE data[] = "12345678ABCDEFGHstuvwxyz";
 965              		.loc 1 236 0
 966 0004 1922     		movs	r2, #25
 967 0006 3F49     		ldr	r1, .L92
 968 0008 02A8     		add	r0, sp, #8
 969 000a FFF7FEFF 		bl	memcpy
 970              	.LVL121:
 237:src/keytrans.c ****   
 238:src/keytrans.c ****   ClearDispMW();
 971              		.loc 1 238 0
 972 000e 0C21     		movs	r1, #12
 973 0010 1620     		movs	r0, #22
 974 0012 FFF7FEFF 		bl	sys_func1
 975              	.LVL122:
 239:src/keytrans.c ****   memcpy(&kbdbuf[1], data, keylen);
 976              		.loc 1 239 0
 977 0016 3C4B     		ldr	r3, .L92+4
 978 0018 02A9     		add	r1, sp, #8
 979 001a 1C78     		ldrb	r4, [r3]	@ zero_extendqisi2
 980 001c 0DF12503 		add	r3, sp, #37
 981 0020 2246     		mov	r2, r4
 982 0022 1846     		mov	r0, r3
 983 0024 FFF7FEFF 		bl	memcpy
 984              	.LVL123:
 240:src/keytrans.c ****   kbdbuf[0] = keylen;
 241:src/keytrans.c ****   if (keylen == 8)
 985              		.loc 1 241 0
 986 0028 082C     		cmp	r4, #8
 242:src/keytrans.c ****     ret = KDLL_KeyEncrypt(EKEY_IDX, &kbdbuf[1], kbdbuf[0]);
ARM GAS  C:\Users\AHMED~1.ELE\AppData\Local\Temp\ccEeyTbT.s 			page 23


 987              		.loc 1 242 0
 988 002a 0094     		str	r4, [sp]
 989 002c 08BF     		it	eq
 990 002e 0321     		moveq	r1, #3
 239:src/keytrans.c ****   memcpy(&kbdbuf[1], data, keylen);
 991              		.loc 1 239 0
 992 0030 0346     		mov	r3, r0
 243:src/keytrans.c ****   else
 244:src/keytrans.c ****     ret = KDLL_Key3Encrypt(EKEY_IDX, &kbdbuf[1], kbdbuf[0]);
 993              		.loc 1 244 0
 994 0032 18BF     		it	ne
 995 0034 0521     		movne	r1, #5
 242:src/keytrans.c ****     ret = KDLL_KeyEncrypt(EKEY_IDX, &kbdbuf[1], kbdbuf[0]);
 996              		.loc 1 242 0
 997 0036 7F20     		movs	r0, #127
 998              		.loc 1 244 0
 999 0038 0122     		movs	r2, #1
 240:src/keytrans.c ****   if (keylen == 8)
 1000              		.loc 1 240 0
 1001 003a 8DF82440 		strb	r4, [sp, #36]
 1002              		.loc 1 244 0
 1003 003e FFF7FEFF 		bl	lib_app_call
 1004              	.LVL124:
 1005 0042 84B2     		uxth	r4, r0
 1006              	.LVL125:
 245:src/keytrans.c ****   if (ret) {
 1007              		.loc 1 245 0
 1008 0044 14B3     		cbz	r4, .L81
 246:src/keytrans.c ****     SprintfMW(buf, "Enc Err: %d", ret);
 1009              		.loc 1 246 0
 1010 0046 2246     		mov	r2, r4
 1011 0048 3049     		ldr	r1, .L92+8
 1012 004a 16A8     		add	r0, sp, #88
 1013 004c FFF7FEFF 		bl	sprintf
 1014              	.LVL126:
 1015              	.LBB18:
 247:src/keytrans.c ****     DispLineMW(buf, MW_LINE5, MW_BIGFONT);
 1016              		.loc 1 247 0
 1017 0050 16A8     		add	r0, sp, #88
 1018 0052 FFF7FEFF 		bl	strlen
 1019              	.LVL127:
 1020 0056 0546     		mov	r5, r0
 1021              	.LVL128:
 1022 0058 691C     		adds	r1, r5, #1
 1023 005a 9220     		movs	r0, #146
 1024              	.LVL129:
 1025 005c FFF7FEFF 		bl	sys_func1
 1026              	.LVL130:
 1027 0060 0446     		mov	r4, r0
 1028              	.LVL131:
 1029 0062 0028     		cmp	r0, #0
 1030 0064 43D0     		beq	.L82
 1031              		.loc 1 247 0 is_stmt 0 discriminator 1
 1032 0066 16A9     		add	r1, sp, #88
 1033 0068 2A46     		mov	r2, r5
 1034 006a FFF7FEFF 		bl	memcpy
 1035              	.LVL132:
ARM GAS  C:\Users\AHMED~1.ELE\AppData\Local\Temp\ccEeyTbT.s 			page 24


 1036 006e 0023     		movs	r3, #0
 1037 0070 2521     		movs	r1, #37
 1038 0072 6355     		strb	r3, [r4, r5]
 1039 0074 4FF48053 		mov	r3, #4096
 1040 0078 0F20     		movs	r0, #15
 1041 007a 0093     		str	r3, [sp]
 1042 007c 2246     		mov	r2, r4
 1043 007e 4FF4A063 		mov	r3, #1280
 1044 0082 FFF7FEFF 		bl	lib_app_call
 1045              	.LVL133:
 1046 0086 9420     		movs	r0, #148
 1047 0088 2146     		mov	r1, r4
 1048 008a 2EE0     		b	.L91
 1049              	.LVL134:
 1050              	.L81:
 1051              	.LBE18:
 1052              	.LBB19:
 248:src/keytrans.c ****   }
 249:src/keytrans.c ****   else {
 250:src/keytrans.c ****     DispLineMW("Encrypted:", MW_LINE5, MW_SMFONT);
 1053              		.loc 1 250 0 is_stmt 1
 1054 008c 9220     		movs	r0, #146
 1055 008e 0B21     		movs	r1, #11
 1056 0090 FFF7FEFF 		bl	sys_func1
 1057              	.LVL135:
 1058 0094 0546     		mov	r5, r0
 1059 0096 80B1     		cbz	r0, .L83
 1060              		.loc 1 250 0 is_stmt 0 discriminator 1
 1061 0098 1D49     		ldr	r1, .L92+12
 1062 009a 0A22     		movs	r2, #10
 1063 009c FFF7FEFF 		bl	memcpy
 1064              	.LVL136:
 1065 00a0 AC72     		strb	r4, [r5, #10]
 1066 00a2 2521     		movs	r1, #37
 1067 00a4 0094     		str	r4, [sp]
 1068 00a6 0F20     		movs	r0, #15
 1069 00a8 2A46     		mov	r2, r5
 1070 00aa 4FF4A063 		mov	r3, #1280
 1071 00ae FFF7FEFF 		bl	lib_app_call
 1072              	.LVL137:
 1073 00b2 9420     		movs	r0, #148
 1074 00b4 2946     		mov	r1, r5
 1075 00b6 FFF7FEFF 		bl	sys_func1
 1076              	.LVL138:
 1077              	.L83:
 1078              	.LBE19:
 251:src/keytrans.c ****     split(buf, &kbdbuf[1], kbdbuf[0]);
 1079              		.loc 1 251 0 is_stmt 1
 1080 00ba 16A8     		add	r0, sp, #88
 1081 00bc 0DF12501 		add	r1, sp, #37
 1082 00c0 9DF82420 		ldrb	r2, [sp, #36]	@ zero_extendqisi2
 1083 00c4 FFF7FEFF 		bl	split
 1084              	.LVL139:
 252:src/keytrans.c ****     DispGotoMW(MW_LINE6, MW_SMFONT);
 1085              		.loc 1 252 0
 1086 00c8 0023     		movs	r3, #0
 1087 00ca 2421     		movs	r1, #36
ARM GAS  C:\Users\AHMED~1.ELE\AppData\Local\Temp\ccEeyTbT.s 			page 25


 1088 00cc 0093     		str	r3, [sp]
 1089 00ce 4FF4C062 		mov	r2, #1536
 1090 00d2 0F20     		movs	r0, #15
 1091 00d4 FFF7FEFF 		bl	lib_app_call
 1092              	.LVL140:
 253:src/keytrans.c ****     DispPutNCMW(buf, kbdbuf[0]*2);
 1093              		.loc 1 253 0
 1094 00d8 9DF82420 		ldrb	r2, [sp, #36]	@ zero_extendqisi2
 1095 00dc 16A9     		add	r1, sp, #88
 1096 00de 1820     		movs	r0, #24
 1097 00e0 5200     		lsls	r2, r2, #1
 1098 00e2 FFF7FEFF 		bl	sys_func2
 1099              	.LVL141:
 254:src/keytrans.c ****     DispCtrlMW(K_SelBigFont);
 1100              		.loc 1 254 0
 1101 00e6 1620     		movs	r0, #22
 1102 00e8 1121     		movs	r1, #17
 1103              	.LVL142:
 1104              	.L91:
 1105 00ea FFF7FEFF 		bl	sys_func1
 1106              	.LVL143:
 1107              	.L82:
 255:src/keytrans.c ****   }
 256:src/keytrans.c ****   APM_WaitKey(9000, 0);
 1108              		.loc 1 256 0
 1109 00ee 0023     		movs	r3, #0
 1110 00f0 0321     		movs	r1, #3
 1111 00f2 0093     		str	r3, [sp]
 1112 00f4 42F22832 		movw	r2, #9000
 1113 00f8 1020     		movs	r0, #16
 1114 00fa FFF7FEFF 		bl	lib_app_call
 1115              	.LVL144:
 257:src/keytrans.c **** }
 1116              		.loc 1 257 0
 1117 00fe 37B0     		add	sp, sp, #220
 1118              		.cfi_def_cfa_offset 12
 1119              		@ sp needed
 1120 0100 30BD     		pop	{r4, r5, pc}
 1121              	.L93:
 1122 0102 00BF     		.align	2
 1123              	.L92:
 1124 0104 24010000 		.word	.LC19
 1125 0108 00000000 		.word	.LANCHOR0
 1126 010c 0D010000 		.word	.LC20
 1127 0110 19010000 		.word	.LC21
 1128              		.cfi_endproc
 1129              	.LFE4:
 1130              		.size	EncData, .-EncData
 1131              		.section	.text.DecData,"ax",%progbits
 1132              		.align	1
 1133              		.global	DecData
 1134              		.thumb
 1135              		.thumb_func
 1136              		.type	DecData, %function
 1137              	DecData:
 1138              	.LFB5:
 258:src/keytrans.c **** /******************************************************************************
ARM GAS  C:\Users\AHMED~1.ELE\AppData\Local\Temp\ccEeyTbT.s 			page 26


 259:src/keytrans.c ****  *  Function        : DecData
 260:src/keytrans.c ****  *  Description     : Decrypt data for testing
 261:src/keytrans.c ****  *  Input           : N/A
 262:src/keytrans.c ****  *  Return          : N/A
 263:src/keytrans.c ****  *  Note            : N/A
 264:src/keytrans.c ****  *  Globals Changed : N/A
 265:src/keytrans.c ****  ******************************************************************************
 266:src/keytrans.c ****  */
 267:src/keytrans.c **** void DecData(void)
 268:src/keytrans.c **** {
 1139              		.loc 1 268 0
 1140              		.cfi_startproc
 1141              		@ args = 0, pretend = 0, frame = 208
 1142              		@ frame_needed = 0, uses_anonymous_args = 0
 1143 0000 30B5     		push	{r4, r5, lr}
 1144              		.cfi_def_cfa_offset 12
 1145              		.cfi_offset 4, -12
 1146              		.cfi_offset 5, -8
 1147              		.cfi_offset 14, -4
 1148 0002 B7B0     		sub	sp, sp, #220
 1149              		.cfi_def_cfa_offset 232
 269:src/keytrans.c ****   BYTE kbdbuf[49], buf[128];
 270:src/keytrans.c ****   WORD ret;
 271:src/keytrans.c ****   // plaintext data
 272:src/keytrans.c ****   const BYTE data[] = "12345678ABCDEFGHstuvwxyz";
 1150              		.loc 1 272 0
 1151 0004 1922     		movs	r2, #25
 1152 0006 3F49     		ldr	r1, .L108
 1153 0008 02A8     		add	r0, sp, #8
 1154 000a FFF7FEFF 		bl	memcpy
 1155              	.LVL145:
 273:src/keytrans.c ****   
 274:src/keytrans.c ****   ClearDispMW();
 1156              		.loc 1 274 0
 1157 000e 0C21     		movs	r1, #12
 1158 0010 1620     		movs	r0, #22
 1159 0012 FFF7FEFF 		bl	sys_func1
 1160              	.LVL146:
 275:src/keytrans.c ****   memcpy(&kbdbuf[1], data, keylen);
 1161              		.loc 1 275 0
 1162 0016 3C4B     		ldr	r3, .L108+4
 1163 0018 02A9     		add	r1, sp, #8
 1164 001a 1C78     		ldrb	r4, [r3]	@ zero_extendqisi2
 1165 001c 0DF12503 		add	r3, sp, #37
 1166 0020 2246     		mov	r2, r4
 1167 0022 1846     		mov	r0, r3
 1168 0024 FFF7FEFF 		bl	memcpy
 1169              	.LVL147:
 276:src/keytrans.c ****   kbdbuf[0] = keylen;
 277:src/keytrans.c ****   if (keylen == 8)
 1170              		.loc 1 277 0
 1171 0028 082C     		cmp	r4, #8
 278:src/keytrans.c ****     ret = KDLL_KeyDecrypt(DKEY_IDX, &kbdbuf[1], kbdbuf[0]);
 1172              		.loc 1 278 0
 1173 002a 0094     		str	r4, [sp]
 1174 002c 08BF     		it	eq
 1175 002e 0421     		moveq	r1, #4
ARM GAS  C:\Users\AHMED~1.ELE\AppData\Local\Temp\ccEeyTbT.s 			page 27


 275:src/keytrans.c ****   memcpy(&kbdbuf[1], data, keylen);
 1176              		.loc 1 275 0
 1177 0030 0346     		mov	r3, r0
 279:src/keytrans.c ****   else
 280:src/keytrans.c ****     ret = KDLL_Key3Decrypt(DKEY_IDX, &kbdbuf[1], kbdbuf[0]);
 1178              		.loc 1 280 0
 1179 0032 18BF     		it	ne
 1180 0034 0621     		movne	r1, #6
 278:src/keytrans.c ****     ret = KDLL_KeyDecrypt(DKEY_IDX, &kbdbuf[1], kbdbuf[0]);
 1181              		.loc 1 278 0
 1182 0036 7F20     		movs	r0, #127
 1183              		.loc 1 280 0
 1184 0038 0222     		movs	r2, #2
 276:src/keytrans.c ****   if (keylen == 8)
 1185              		.loc 1 276 0
 1186 003a 8DF82440 		strb	r4, [sp, #36]
 1187              		.loc 1 280 0
 1188 003e FFF7FEFF 		bl	lib_app_call
 1189              	.LVL148:
 1190 0042 84B2     		uxth	r4, r0
 1191              	.LVL149:
 281:src/keytrans.c ****   if (ret) {
 1192              		.loc 1 281 0
 1193 0044 14B3     		cbz	r4, .L97
 282:src/keytrans.c ****     SprintfMW(buf, "Dec Err: %d", ret);
 1194              		.loc 1 282 0
 1195 0046 2246     		mov	r2, r4
 1196 0048 3049     		ldr	r1, .L108+8
 1197 004a 16A8     		add	r0, sp, #88
 1198 004c FFF7FEFF 		bl	sprintf
 1199              	.LVL150:
 1200              	.LBB20:
 283:src/keytrans.c ****     DispLineMW(buf, MW_LINE5, MW_BIGFONT);
 1201              		.loc 1 283 0
 1202 0050 16A8     		add	r0, sp, #88
 1203 0052 FFF7FEFF 		bl	strlen
 1204              	.LVL151:
 1205 0056 0546     		mov	r5, r0
 1206              	.LVL152:
 1207 0058 691C     		adds	r1, r5, #1
 1208 005a 9220     		movs	r0, #146
 1209              	.LVL153:
 1210 005c FFF7FEFF 		bl	sys_func1
 1211              	.LVL154:
 1212 0060 0446     		mov	r4, r0
 1213              	.LVL155:
 1214 0062 0028     		cmp	r0, #0
 1215 0064 43D0     		beq	.L98
 1216              		.loc 1 283 0 is_stmt 0 discriminator 1
 1217 0066 16A9     		add	r1, sp, #88
 1218 0068 2A46     		mov	r2, r5
 1219 006a FFF7FEFF 		bl	memcpy
 1220              	.LVL156:
 1221 006e 0023     		movs	r3, #0
 1222 0070 2521     		movs	r1, #37
 1223 0072 6355     		strb	r3, [r4, r5]
 1224 0074 4FF48053 		mov	r3, #4096
ARM GAS  C:\Users\AHMED~1.ELE\AppData\Local\Temp\ccEeyTbT.s 			page 28


 1225 0078 0F20     		movs	r0, #15
 1226 007a 0093     		str	r3, [sp]
 1227 007c 2246     		mov	r2, r4
 1228 007e 4FF4A063 		mov	r3, #1280
 1229 0082 FFF7FEFF 		bl	lib_app_call
 1230              	.LVL157:
 1231 0086 9420     		movs	r0, #148
 1232 0088 2146     		mov	r1, r4
 1233 008a 2EE0     		b	.L107
 1234              	.LVL158:
 1235              	.L97:
 1236              	.LBE20:
 1237              	.LBB21:
 284:src/keytrans.c ****   }
 285:src/keytrans.c ****   else {
 286:src/keytrans.c ****     DispLineMW("Decrypted:", MW_LINE5, MW_SMFONT);
 1238              		.loc 1 286 0 is_stmt 1
 1239 008c 9220     		movs	r0, #146
 1240 008e 0B21     		movs	r1, #11
 1241 0090 FFF7FEFF 		bl	sys_func1
 1242              	.LVL159:
 1243 0094 0546     		mov	r5, r0
 1244 0096 80B1     		cbz	r0, .L99
 1245              		.loc 1 286 0 is_stmt 0 discriminator 1
 1246 0098 1D49     		ldr	r1, .L108+12
 1247 009a 0A22     		movs	r2, #10
 1248 009c FFF7FEFF 		bl	memcpy
 1249              	.LVL160:
 1250 00a0 AC72     		strb	r4, [r5, #10]
 1251 00a2 2521     		movs	r1, #37
 1252 00a4 0094     		str	r4, [sp]
 1253 00a6 0F20     		movs	r0, #15
 1254 00a8 2A46     		mov	r2, r5
 1255 00aa 4FF4A063 		mov	r3, #1280
 1256 00ae FFF7FEFF 		bl	lib_app_call
 1257              	.LVL161:
 1258 00b2 9420     		movs	r0, #148
 1259 00b4 2946     		mov	r1, r5
 1260 00b6 FFF7FEFF 		bl	sys_func1
 1261              	.LVL162:
 1262              	.L99:
 1263              	.LBE21:
 287:src/keytrans.c ****     split(buf, &kbdbuf[1], kbdbuf[0]);
 1264              		.loc 1 287 0 is_stmt 1
 1265 00ba 16A8     		add	r0, sp, #88
 1266 00bc 0DF12501 		add	r1, sp, #37
 1267 00c0 9DF82420 		ldrb	r2, [sp, #36]	@ zero_extendqisi2
 1268 00c4 FFF7FEFF 		bl	split
 1269              	.LVL163:
 288:src/keytrans.c ****     DispGotoMW(MW_LINE6, MW_SMFONT);
 1270              		.loc 1 288 0
 1271 00c8 0023     		movs	r3, #0
 1272 00ca 2421     		movs	r1, #36
 1273 00cc 0093     		str	r3, [sp]
 1274 00ce 4FF4C062 		mov	r2, #1536
 1275 00d2 0F20     		movs	r0, #15
 1276 00d4 FFF7FEFF 		bl	lib_app_call
ARM GAS  C:\Users\AHMED~1.ELE\AppData\Local\Temp\ccEeyTbT.s 			page 29


 1277              	.LVL164:
 289:src/keytrans.c ****     DispPutNCMW(buf, kbdbuf[0]*2);
 1278              		.loc 1 289 0
 1279 00d8 9DF82420 		ldrb	r2, [sp, #36]	@ zero_extendqisi2
 1280 00dc 16A9     		add	r1, sp, #88
 1281 00de 1820     		movs	r0, #24
 1282 00e0 5200     		lsls	r2, r2, #1
 1283 00e2 FFF7FEFF 		bl	sys_func2
 1284              	.LVL165:
 290:src/keytrans.c ****     DispCtrlMW(K_SelBigFont);
 1285              		.loc 1 290 0
 1286 00e6 1620     		movs	r0, #22
 1287 00e8 1121     		movs	r1, #17
 1288              	.LVL166:
 1289              	.L107:
 1290 00ea FFF7FEFF 		bl	sys_func1
 1291              	.LVL167:
 1292              	.L98:
 291:src/keytrans.c ****   }
 292:src/keytrans.c ****   APM_WaitKey(9000, 0);
 1293              		.loc 1 292 0
 1294 00ee 0023     		movs	r3, #0
 1295 00f0 0321     		movs	r1, #3
 1296 00f2 0093     		str	r3, [sp]
 1297 00f4 42F22832 		movw	r2, #9000
 1298 00f8 1020     		movs	r0, #16
 1299 00fa FFF7FEFF 		bl	lib_app_call
 1300              	.LVL168:
 293:src/keytrans.c **** }
 1301              		.loc 1 293 0
 1302 00fe 37B0     		add	sp, sp, #220
 1303              		.cfi_def_cfa_offset 12
 1304              		@ sp needed
 1305 0100 30BD     		pop	{r4, r5, pc}
 1306              	.L109:
 1307 0102 00BF     		.align	2
 1308              	.L108:
 1309 0104 24010000 		.word	.LC19
 1310 0108 00000000 		.word	.LANCHOR0
 1311 010c 3D010000 		.word	.LC22
 1312 0110 49010000 		.word	.LC23
 1313              		.cfi_endproc
 1314              	.LFE5:
 1315              		.size	DecData, .-DecData
 1316              		.section	.text.SetMode,"ax",%progbits
 1317              		.align	1
 1318              		.global	SetMode
 1319              		.thumb
 1320              		.thumb_func
 1321              		.type	SetMode, %function
 1322              	SetMode:
 1323              	.LFB6:
 294:src/keytrans.c **** /******************************************************************************
 295:src/keytrans.c ****  *  Function        : SetMode
 296:src/keytrans.c ****  *  Description     : Set ECB/CBC mode for encryption/decryption
 297:src/keytrans.c ****  *  Input           : N/A
 298:src/keytrans.c ****  *  Return          : N/A
ARM GAS  C:\Users\AHMED~1.ELE\AppData\Local\Temp\ccEeyTbT.s 			page 30


 299:src/keytrans.c ****  *  Note            : N/A
 300:src/keytrans.c ****  *  Globals Changed : N/A
 301:src/keytrans.c ****  ******************************************************************************
 302:src/keytrans.c ****  */
 303:src/keytrans.c **** void SetMode(void)
 304:src/keytrans.c **** {
 1324              		.loc 1 304 0
 1325              		.cfi_startproc
 1326              		@ args = 0, pretend = 0, frame = 24
 1327              		@ frame_needed = 0, uses_anonymous_args = 0
 1328 0000 70B5     		push	{r4, r5, r6, lr}
 1329              		.cfi_def_cfa_offset 16
 1330              		.cfi_offset 4, -16
 1331              		.cfi_offset 5, -12
 1332              		.cfi_offset 6, -8
 1333              		.cfi_offset 14, -4
 1334 0002 88B0     		sub	sp, sp, #32
 1335              		.cfi_def_cfa_offset 48
 305:src/keytrans.c ****   BYTE key;
 306:src/keytrans.c ****   BYTE kbdbuf[18];
 307:src/keytrans.c ****   
 308:src/keytrans.c ****   memset(kbdbuf, 0, sizeof(kbdbuf));
 1336              		.loc 1 308 0
 1337 0004 03AC     		add	r4, sp, #12
 1338 0006 0021     		movs	r1, #0
 1339 0008 1222     		movs	r2, #18
 1340 000a 2046     		mov	r0, r4
 1341 000c FFF7FEFF 		bl	memset
 1342              	.LVL169:
 1343              	.LBB22:
 309:src/keytrans.c ****   DispLineMW("ENC/DEC Mode:", MW_LINE1, MW_CLRDISP|MW_BIGFONT);
 1344              		.loc 1 309 0
 1345 0010 9220     		movs	r0, #146
 1346 0012 0E21     		movs	r1, #14
 1347 0014 FFF7FEFF 		bl	sys_func1
 1348              	.LVL170:
 1349 0018 0546     		mov	r5, r0
 1350 001a 98B1     		cbz	r0, .L111
 1351              		.loc 1 309 0 is_stmt 0 discriminator 1
 1352 001c 4849     		ldr	r1, .L136
 1353 001e 0D22     		movs	r2, #13
 1354 0020 FFF7FEFF 		bl	memcpy
 1355              	.LVL171:
 1356 0024 0023     		movs	r3, #0
 1357 0026 2521     		movs	r1, #37
 1358 0028 6B73     		strb	r3, [r5, #13]
 1359 002a 4FF48453 		mov	r3, #4224
 1360 002e 0F20     		movs	r0, #15
 1361 0030 0093     		str	r3, [sp]
 1362 0032 2A46     		mov	r2, r5
 1363 0034 4FF48073 		mov	r3, #256
 1364 0038 FFF7FEFF 		bl	lib_app_call
 1365              	.LVL172:
 1366 003c 9420     		movs	r0, #148
 1367 003e 2946     		mov	r1, r5
 1368 0040 FFF7FEFF 		bl	sys_func1
 1369              	.LVL173:
ARM GAS  C:\Users\AHMED~1.ELE\AppData\Local\Temp\ccEeyTbT.s 			page 31


 1370              	.L111:
 1371              	.LBE22:
 1372              	.LBB23:
 310:src/keytrans.c ****   DispLineMW("[ENTER] - ECB", MW_LINE3, MW_BIGFONT);
 1373              		.loc 1 310 0 is_stmt 1
 1374 0044 9220     		movs	r0, #146
 1375 0046 0E21     		movs	r1, #14
 1376 0048 FFF7FEFF 		bl	sys_func1
 1377              	.LVL174:
 1378 004c 0546     		mov	r5, r0
 1379              	.LVL175:
 1380 004e 98B1     		cbz	r0, .L112
 1381              		.loc 1 310 0 is_stmt 0 discriminator 1
 1382 0050 3C49     		ldr	r1, .L136+4
 1383 0052 0D22     		movs	r2, #13
 1384 0054 FFF7FEFF 		bl	memcpy
 1385              	.LVL176:
 1386 0058 0023     		movs	r3, #0
 1387 005a 2521     		movs	r1, #37
 1388 005c 6B73     		strb	r3, [r5, #13]
 1389 005e 4FF48053 		mov	r3, #4096
 1390 0062 0F20     		movs	r0, #15
 1391 0064 0093     		str	r3, [sp]
 1392 0066 2A46     		mov	r2, r5
 1393 0068 4FF44073 		mov	r3, #768
 1394 006c FFF7FEFF 		bl	lib_app_call
 1395              	.LVL177:
 1396 0070 9420     		movs	r0, #148
 1397 0072 2946     		mov	r1, r5
 1398 0074 FFF7FEFF 		bl	sys_func1
 1399              	.LVL178:
 1400              	.L112:
 1401              	.LBE23:
 1402              	.LBB24:
 311:src/keytrans.c ****   DispLineMW("[CLEAR] - CBC", MW_LINE5, MW_BIGFONT);
 1403              		.loc 1 311 0 is_stmt 1
 1404 0078 9220     		movs	r0, #146
 1405 007a 0E21     		movs	r1, #14
 1406 007c FFF7FEFF 		bl	sys_func1
 1407              	.LVL179:
 1408 0080 0546     		mov	r5, r0
 1409              	.LVL180:
 1410 0082 98B1     		cbz	r0, .L113
 1411              		.loc 1 311 0 is_stmt 0 discriminator 1
 1412 0084 3049     		ldr	r1, .L136+8
 1413 0086 0D22     		movs	r2, #13
 1414 0088 FFF7FEFF 		bl	memcpy
 1415              	.LVL181:
 1416 008c 0023     		movs	r3, #0
 1417 008e 2521     		movs	r1, #37
 1418 0090 6B73     		strb	r3, [r5, #13]
 1419 0092 4FF48053 		mov	r3, #4096
 1420 0096 0F20     		movs	r0, #15
 1421 0098 0093     		str	r3, [sp]
 1422 009a 2A46     		mov	r2, r5
 1423 009c 4FF4A063 		mov	r3, #1280
 1424 00a0 FFF7FEFF 		bl	lib_app_call
ARM GAS  C:\Users\AHMED~1.ELE\AppData\Local\Temp\ccEeyTbT.s 			page 32


 1425              	.LVL182:
 1426 00a4 9420     		movs	r0, #148
 1427 00a6 2946     		mov	r1, r5
 1428 00a8 FFF7FEFF 		bl	sys_func1
 1429              	.LVL183:
 1430              	.L113:
 1431              	.LBE24:
 312:src/keytrans.c ****   switch (key=APM_WaitKey(9000, 0)) {
 1432              		.loc 1 312 0 is_stmt 1
 1433 00ac 0025     		movs	r5, #0
 1434              	.LVL184:
 1435 00ae 1020     		movs	r0, #16
 1436 00b0 0095     		str	r5, [sp]
 1437 00b2 0321     		movs	r1, #3
 1438 00b4 42F22832 		movw	r2, #9000
 1439 00b8 2B46     		mov	r3, r5
 1440 00ba FFF7FEFF 		bl	lib_app_call
 1441              	.LVL185:
 1442 00be C0B2     		uxtb	r0, r0
 1443 00c0 1028     		cmp	r0, #16
 1444 00c2 02D0     		beq	.L115
 1445 00c4 1228     		cmp	r0, #18
 1446 00c6 05D0     		beq	.L116
 1447 00c8 38E0     		b	.L110
 1448              	.L115:
 313:src/keytrans.c ****     case MWKEY_ENTER:
 314:src/keytrans.c ****       KDLL_SetOpMode(MODE_ECB, kbdbuf);
 1449              		.loc 1 314 0
 1450 00ca 0095     		str	r5, [sp]
 1451 00cc 7F20     		movs	r0, #127
 1452              	.LVL186:
 1453 00ce 0921     		movs	r1, #9
 1454 00d0 2A46     		mov	r2, r5
 1455 00d2 2EE0     		b	.L135
 1456              	.LVL187:
 1457              	.L116:
 1458              	.LBB25:
 315:src/keytrans.c ****       Short2Beep();
 316:src/keytrans.c ****       break;
 317:src/keytrans.c ****     case MWKEY_CLR:
 318:src/keytrans.c ****       DispLineMW("Init Vector:", MW_LINE1, MW_CLRDISP|MW_BIGFONT);
 1459              		.loc 1 318 0
 1460 00d4 9220     		movs	r0, #146
 1461              	.LVL188:
 1462 00d6 0D21     		movs	r1, #13
 1463 00d8 FFF7FEFF 		bl	sys_func1
 1464              	.LVL189:
 1465 00dc 0646     		mov	r6, r0
 1466 00de 90B1     		cbz	r0, .L117
 1467              		.loc 1 318 0 is_stmt 0 discriminator 1
 1468 00e0 1A49     		ldr	r1, .L136+12
 1469 00e2 0C22     		movs	r2, #12
 1470 00e4 FFF7FEFF 		bl	memcpy
 1471              	.LVL190:
 1472 00e8 4FF48453 		mov	r3, #4224
 1473 00ec 3573     		strb	r5, [r6, #12]
 1474 00ee 2521     		movs	r1, #37
ARM GAS  C:\Users\AHMED~1.ELE\AppData\Local\Temp\ccEeyTbT.s 			page 33


 1475 00f0 0093     		str	r3, [sp]
 1476 00f2 0F20     		movs	r0, #15
 1477 00f4 3246     		mov	r2, r6
 1478 00f6 4FF48073 		mov	r3, #256
 1479 00fa FFF7FEFF 		bl	lib_app_call
 1480              	.LVL191:
 1481 00fe 9420     		movs	r0, #148
 1482 0100 3146     		mov	r1, r6
 1483 0102 FFF7FEFF 		bl	sys_func1
 1484              	.LVL192:
 1485              	.L117:
 1486              	.LBE25:
 319:src/keytrans.c ****       if (!APM_GetKbd(HEX_INPUT+ECHO+MW_LINE3+RIGHT_JUST, IMIN(16)+IMAX(16), kbdbuf))
 1487              		.loc 1 319 0 is_stmt 1
 1488 0106 0094     		str	r4, [sp]
 1489 0108 1020     		movs	r0, #16
 1490 010a 0521     		movs	r1, #5
 1491 010c 104A     		ldr	r2, .L136+16
 1492 010e 41F21003 		movw	r3, #4112
 1493 0112 FFF7FEFF 		bl	lib_app_call
 1494              	.LVL193:
 1495 0116 10F0FF0F 		tst	r0, #255
 1496 011a 0FD0     		beq	.L110
 320:src/keytrans.c ****         return;
 321:src/keytrans.c ****       compress(&kbdbuf[1], &kbdbuf[1], 8);
 1497              		.loc 1 321 0
 1498 011c 0134     		adds	r4, r4, #1
 1499 011e 2046     		mov	r0, r4
 1500 0120 2146     		mov	r1, r4
 1501 0122 0822     		movs	r2, #8
 1502 0124 FFF7FEFF 		bl	compress
 1503              	.LVL194:
 322:src/keytrans.c ****       KDLL_SetOpMode(MODE_CBC, &kbdbuf[1]);
 1504              		.loc 1 322 0
 1505 0128 0023     		movs	r3, #0
 1506 012a 7F20     		movs	r0, #127
 1507 012c 0921     		movs	r1, #9
 1508 012e 0122     		movs	r2, #1
 1509 0130 0093     		str	r3, [sp]
 1510              	.LVL195:
 1511              	.L135:
 1512 0132 2346     		mov	r3, r4
 1513 0134 FFF7FEFF 		bl	lib_app_call
 1514              	.LVL196:
 323:src/keytrans.c ****       Short2Beep();
 1515              		.loc 1 323 0
 1516 0138 FFF7FEFF 		bl	Short2Beep
 1517              	.LVL197:
 1518              	.L110:
 324:src/keytrans.c ****       break;
 325:src/keytrans.c ****     default:
 326:src/keytrans.c ****       break;
 327:src/keytrans.c ****   }
 328:src/keytrans.c **** }
 1519              		.loc 1 328 0
 1520 013c 08B0     		add	sp, sp, #32
 1521              		.cfi_def_cfa_offset 16
ARM GAS  C:\Users\AHMED~1.ELE\AppData\Local\Temp\ccEeyTbT.s 			page 34


 1522              		@ sp needed
 1523 013e 70BD     		pop	{r4, r5, r6, pc}
 1524              	.L137:
 1525              		.align	2
 1526              	.L136:
 1527 0140 54010000 		.word	.LC24
 1528 0144 62010000 		.word	.LC25
 1529 0148 70010000 		.word	.LC26
 1530 014c 7E010000 		.word	.LC27
 1531 0150 FF032400 		.word	2360319
 1532              		.cfi_endproc
 1533              	.LFE6:
 1534              		.size	SetMode, .-SetMode
 1535              		.section	.text.GetPIN,"ax",%progbits
 1536              		.align	1
 1537              		.global	GetPIN
 1538              		.thumb
 1539              		.thumb_func
 1540              		.type	GetPIN, %function
 1541              	GetPIN:
 1542              	.LFB7:
 329:src/keytrans.c **** /******************************************************************************
 330:src/keytrans.c ****  *  Function        : GetPIN
 331:src/keytrans.c ****  *  Description     : Get PIN from user
 332:src/keytrans.c ****  *  Input           : N/A
 333:src/keytrans.c ****  *  Return          : TRUE;           // get pin ok
 334:src/keytrans.c ****  *                    FALSE;          // get pin failed
 335:src/keytrans.c ****  *  Note            : N/A
 336:src/keytrans.c ****  *  Globals Changed : N/A
 337:src/keytrans.c ****  ******************************************************************************
 338:src/keytrans.c ****  */
 339:src/keytrans.c **** BOOLEAN GetPIN(void)
 340:src/keytrans.c **** {
 1543              		.loc 1 340 0
 1544              		.cfi_startproc
 1545              		@ args = 0, pretend = 0, frame = 32
 1546              		@ frame_needed = 0, uses_anonymous_args = 0
 1547 0000 70B5     		push	{r4, r5, r6, lr}
 1548              		.cfi_def_cfa_offset 16
 1549              		.cfi_offset 4, -16
 1550              		.cfi_offset 5, -12
 1551              		.cfi_offset 6, -8
 1552              		.cfi_offset 14, -4
 341:src/keytrans.c ****   BYTE pinblk[11];
 342:src/keytrans.c ****   BYTE msg[] = "\f\x11\nENTER PIN";
 343:src/keytrans.c ****   //BYTE buf[32];
 344:src/keytrans.c ****   
 345:src/keytrans.c ****   memset(gGTS.s_input.sb_pin, ' ', 8);
 1553              		.loc 1 345 0
 1554 0002 294D     		ldr	r5, .L147
 340:src/keytrans.c ****   BYTE pinblk[11];
 1555              		.loc 1 340 0
 1556 0004 8AB0     		sub	sp, sp, #40
 1557              		.cfi_def_cfa_offset 56
 342:src/keytrans.c ****   //BYTE buf[32];
 1558              		.loc 1 342 0
 1559 0006 2949     		ldr	r1, .L147+4
ARM GAS  C:\Users\AHMED~1.ELE\AppData\Local\Temp\ccEeyTbT.s 			page 35


 1560 0008 0D22     		movs	r2, #13
 1561 000a 06A8     		add	r0, sp, #24
 1562 000c FFF7FEFF 		bl	memcpy
 1563              	.LVL198:
 1564              		.loc 1 345 0
 1565 0010 2021     		movs	r1, #32
 1566 0012 0822     		movs	r2, #8
 1567 0014 2846     		mov	r0, r5
 1568 0016 FFF7FEFF 		bl	memset
 1569              	.LVL199:
 346:src/keytrans.c **** 
 347:src/keytrans.c ****   if (!key_ready(EKEY_IDX)) {
 1570              		.loc 1 347 0
 1571 001a 0120     		movs	r0, #1
 1572 001c FFF7FEFF 		bl	key_ready
 1573              	.LVL200:
 1574 0020 0646     		mov	r6, r0
 1575 0022 20BB     		cbnz	r0, .L139
 1576              	.LVL201:
 1577              	.LBB26:
 348:src/keytrans.c ****     DispLineMW("NO PIN KEY", MW_LINE5, MW_CLRDISP|MW_CENTER|MW_BIGFONT);
 1578              		.loc 1 348 0
 1579 0024 9220     		movs	r0, #146
 1580 0026 0B21     		movs	r1, #11
 1581 0028 FFF7FEFF 		bl	sys_func1
 1582              	.LVL202:
 1583 002c 0446     		mov	r4, r0
 1584 002e 90B1     		cbz	r0, .L140
 1585              		.loc 1 348 0 is_stmt 0 discriminator 1
 1586 0030 1F49     		ldr	r1, .L147+8
 1587 0032 0A22     		movs	r2, #10
 1588 0034 FFF7FEFF 		bl	memcpy
 1589              	.LVL203:
 1590 0038 41F28203 		movw	r3, #4226
 1591 003c A672     		strb	r6, [r4, #10]
 1592 003e 2521     		movs	r1, #37
 1593 0040 0093     		str	r3, [sp]
 1594 0042 0F20     		movs	r0, #15
 1595 0044 2246     		mov	r2, r4
 1596 0046 4FF4A063 		mov	r3, #1280
 1597 004a FFF7FEFF 		bl	lib_app_call
 1598              	.LVL204:
 1599 004e 9420     		movs	r0, #148
 1600 0050 2146     		mov	r1, r4
 1601 0052 FFF7FEFF 		bl	sys_func1
 1602              	.LVL205:
 1603              	.L140:
 1604              	.LBE26:
 349:src/keytrans.c ****     LongBeep();
 1605              		.loc 1 349 0 is_stmt 1
 1606 0056 FFF7FEFF 		bl	LongBeep
 1607              	.LVL206:
 350:src/keytrans.c ****     APM_WaitKey(9000,0);
 1608              		.loc 1 350 0
 1609 005a 0023     		movs	r3, #0
 1610 005c 1020     		movs	r0, #16
 1611 005e 0093     		str	r3, [sp]
ARM GAS  C:\Users\AHMED~1.ELE\AppData\Local\Temp\ccEeyTbT.s 			page 36


 1612 0060 0321     		movs	r1, #3
 1613 0062 42F22832 		movw	r2, #9000
 1614 0066 FFF7FEFF 		bl	lib_app_call
 1615              	.LVL207:
 1616              	.L146:
 351:src/keytrans.c ****     //return FALSE;
 352:src/keytrans.c **** 	return TRUE;
 1617              		.loc 1 352 0
 1618 006a 0120     		movs	r0, #1
 1619 006c 19E0     		b	.L141
 1620              	.L139:
 353:src/keytrans.c ****   }
 354:src/keytrans.c **** 
 355:src/keytrans.c **** #if 1
 356:src/keytrans.c ****   // Online PIN
 357:src/keytrans.c ****   memcpy(pinblk, gGTS.s_input.sb_pan, 10);
 1621              		.loc 1 357 0
 1622 006e 03AE     		add	r6, sp, #12
 1623 0070 A5F5F771 		sub	r1, r5, #494
 1624 0074 0A22     		movs	r2, #10
 1625 0076 3046     		mov	r0, r6
 1626 0078 FFF7FEFF 		bl	memcpy
 1627              	.LVL208:
 358:src/keytrans.c ****   //pinblk[10] = 0; //can pass PRM_4DGT_PIN and/or PRM_PIN_BYPASS
 359:src/keytrans.c ****   pinblk[10] = PRM_PIN_BYPASS;                                        // enable PIN bypass
 360:src/keytrans.c ****   if (KDLL_GetX98PIN(pinblk, msg, EKEY_IDX))
 1628              		.loc 1 360 0
 1629 007c 0124     		movs	r4, #1
 359:src/keytrans.c ****   if (KDLL_GetX98PIN(pinblk, msg, EKEY_IDX))
 1630              		.loc 1 359 0
 1631 007e 0223     		movs	r3, #2
 1632              		.loc 1 360 0
 1633 0080 0094     		str	r4, [sp]
 359:src/keytrans.c ****   if (KDLL_GetX98PIN(pinblk, msg, EKEY_IDX))
 1634              		.loc 1 359 0
 1635 0082 8DF81630 		strb	r3, [sp, #22]
 1636              		.loc 1 360 0
 1637 0086 7F20     		movs	r0, #127
 1638 0088 0721     		movs	r1, #7
 1639 008a 3246     		mov	r2, r6
 1640 008c 06AB     		add	r3, sp, #24
 1641 008e FFF7FEFF 		bl	lib_app_call
 1642              	.LVL209:
 1643 0092 80B2     		uxth	r0, r0
 1644 0094 20B9     		cbnz	r0, .L142
 361:src/keytrans.c ****     return FALSE;
 362:src/keytrans.c ****   else
 363:src/keytrans.c ****     memcpy(gGTS.s_input.sb_pin, pinblk, 8);
 1645              		.loc 1 363 0
 1646 0096 96E80300 		ldmia	r6, {r0, r1}
 1647 009a 85E80300 		stmia	r5, {r0, r1}
 1648 009e E4E7     		b	.L146
 1649              	.L142:
 361:src/keytrans.c ****     return FALSE;
 1650              		.loc 1 361 0
 1651 00a0 0020     		movs	r0, #0
 1652              	.L141:
ARM GAS  C:\Users\AHMED~1.ELE\AppData\Local\Temp\ccEeyTbT.s 			page 37


 364:src/keytrans.c **** #else
 365:src/keytrans.c ****   // GetPIN demo
 366:src/keytrans.c ****   memcpy(pinblk, "\x40\x12\x34\x56\x78\x90\x9F\xFF\xFF\xFF\x00", 11); //X9.24
 367:src/keytrans.c ****   if (KDLL_GetX98PIN(pinblk, msg, EKEY_IDX))
 368:src/keytrans.c ****     return FALSE;
 369:src/keytrans.c ****   DispClrBelowMW(MW_LINE6);
 370:src/keytrans.c ****   split(buf, pinblk, 8);
 371:src/keytrans.c ****   DispGotoMW(MW_LINE7, MW_SPFONT);
 372:src/keytrans.c ****   DispPutNCMW(buf, 16);
 373:src/keytrans.c ****   DispCtrlMW(K_SelBigFont);
 374:src/keytrans.c ****   APM_WaitKey(9000, 0);
 375:src/keytrans.c **** #endif
 376:src/keytrans.c **** 
 377:src/keytrans.c ****   return TRUE;
 378:src/keytrans.c **** }
 1653              		.loc 1 378 0
 1654 00a2 0AB0     		add	sp, sp, #40
 1655              		.cfi_def_cfa_offset 16
 1656              		@ sp needed
 1657 00a4 70BD     		pop	{r4, r5, r6, pc}
 1658              	.L148:
 1659 00a6 00BF     		.align	2
 1660              	.L147:
 1661 00a8 F8010000 		.word	gGTS+504
 1662 00ac 96010000 		.word	.LC28
 1663 00b0 8B010000 		.word	.LC29
 1664              		.cfi_endproc
 1665              	.LFE7:
 1666              		.size	GetPIN, .-GetPIN
 1667              		.section	.text.SetDhostIdx,"ax",%progbits
 1668              		.align	1
 1669              		.global	SetDhostIdx
 1670              		.thumb
 1671              		.thumb_func
 1672              		.type	SetDhostIdx, %function
 1673              	SetDhostIdx:
 1674              	.LFB8:
 379:src/keytrans.c **** /******************************************************************************
 380:src/keytrans.c ****  *  Function        : SetDhostIdx
 381:src/keytrans.c ****  *  Description     : Reset terminal DUKPT init key
 382:src/keytrans.c ****  *  Input           : N/A
 383:src/keytrans.c ****  *  Return          : TRUE;           // key load ok
 384:src/keytrans.c ****  *                    FALSE;          // key load failed
 385:src/keytrans.c ****  *  Note            : N/A
 386:src/keytrans.c ****  *  Globals Changed : N/A
 387:src/keytrans.c ****  ******************************************************************************
 388:src/keytrans.c ****  */
 389:src/keytrans.c **** BOOLEAN SetDhostIdx(void)
 390:src/keytrans.c **** {
 1675              		.loc 1 390 0
 1676              		.cfi_startproc
 1677              		@ args = 0, pretend = 0, frame = 8
 1678              		@ frame_needed = 0, uses_anonymous_args = 0
 1679 0000 30B5     		push	{r4, r5, lr}
 1680              		.cfi_def_cfa_offset 12
 1681              		.cfi_offset 4, -12
 1682              		.cfi_offset 5, -8
ARM GAS  C:\Users\AHMED~1.ELE\AppData\Local\Temp\ccEeyTbT.s 			page 38


 1683              		.cfi_offset 14, -4
 391:src/keytrans.c ****   BYTE kbdbuf[4];
 392:src/keytrans.c ****   
 393:src/keytrans.c ****   kbdbuf[0] = 1;
 1684              		.loc 1 393 0
 1685 0002 0123     		movs	r3, #1
 390:src/keytrans.c ****   BYTE kbdbuf[4];
 1686              		.loc 1 390 0
 1687 0004 85B0     		sub	sp, sp, #20
 1688              		.cfi_def_cfa_offset 32
 1689              		.loc 1 393 0
 1690 0006 8DF80C30 		strb	r3, [sp, #12]
 394:src/keytrans.c ****   kbdbuf[1] = '0' + dhost_idx;
 1691              		.loc 1 394 0
 1692 000a 1B4B     		ldr	r3, .L160
 1693 000c 9A78     		ldrb	r2, [r3, #2]	@ zero_extendqisi2
 1694 000e 1C46     		mov	r4, r3
 1695 0010 3032     		adds	r2, r2, #48
 1696 0012 8DF80D20 		strb	r2, [sp, #13]
 1697              	.L153:
 1698              	.LVL210:
 1699              	.LBB27:
 395:src/keytrans.c ****   while (1) {
 396:src/keytrans.c ****     DispLineMW("DHost Idx(0-4):", MW_LINE5, MW_CLRDISP|MW_BIGFONT);
 1700              		.loc 1 396 0
 1701 0016 9220     		movs	r0, #146
 1702 0018 1021     		movs	r1, #16
 1703 001a FFF7FEFF 		bl	sys_func1
 1704              	.LVL211:
 1705 001e 0546     		mov	r5, r0
 1706 0020 98B1     		cbz	r0, .L150
 1707              		.loc 1 396 0 is_stmt 0 discriminator 1
 1708 0022 1649     		ldr	r1, .L160+4
 1709 0024 0F22     		movs	r2, #15
 1710 0026 FFF7FEFF 		bl	memcpy
 1711              	.LVL212:
 1712 002a 0023     		movs	r3, #0
 1713 002c 2521     		movs	r1, #37
 1714 002e EB73     		strb	r3, [r5, #15]
 1715 0030 4FF48453 		mov	r3, #4224
 1716 0034 0F20     		movs	r0, #15
 1717 0036 0093     		str	r3, [sp]
 1718 0038 2A46     		mov	r2, r5
 1719 003a 4FF4A063 		mov	r3, #1280
 1720 003e FFF7FEFF 		bl	lib_app_call
 1721              	.LVL213:
 1722 0042 9420     		movs	r0, #148
 1723 0044 2946     		mov	r1, r5
 1724 0046 FFF7FEFF 		bl	sys_func1
 1725              	.LVL214:
 1726              	.L150:
 1727              	.LBE27:
 397:src/keytrans.c ****     if (!APM_GetKbd(NUMERIC_INPUT+ECHO+MW_LINE7+MW_BIGFONT+RIGHT_JUST, IMIN(1)+IMAX(1), kbdbuf))
 1728              		.loc 1 397 0 is_stmt 1
 1729 004a 03AB     		add	r3, sp, #12
 1730 004c 1020     		movs	r0, #16
 1731 004e 0093     		str	r3, [sp]
ARM GAS  C:\Users\AHMED~1.ELE\AppData\Local\Temp\ccEeyTbT.s 			page 39


 1732 0050 0521     		movs	r1, #5
 1733 0052 0B4A     		ldr	r2, .L160+8
 1734 0054 40F20113 		movw	r3, #257
 1735 0058 FFF7FEFF 		bl	lib_app_call
 1736              	.LVL215:
 1737 005c C0B2     		uxtb	r0, r0
 1738 005e 48B1     		cbz	r0, .L151
 398:src/keytrans.c ****       return FALSE;
 399:src/keytrans.c ****     if (kbdbuf[1] < '5')
 1739              		.loc 1 399 0
 1740 0060 9DF80D30 		ldrb	r3, [sp, #13]	@ zero_extendqisi2
 1741 0064 342B     		cmp	r3, #52
 1742 0066 02D9     		bls	.L152
 400:src/keytrans.c ****       break;
 401:src/keytrans.c ****     else
 402:src/keytrans.c ****       LongBeep();
 1743              		.loc 1 402 0
 1744 0068 FFF7FEFF 		bl	LongBeep
 1745              	.LVL216:
 403:src/keytrans.c ****   }
 1746              		.loc 1 403 0
 1747 006c D3E7     		b	.L153
 1748              	.L152:
 404:src/keytrans.c ****   dhost_idx = kbdbuf[1] - '0';
 1749              		.loc 1 404 0
 1750 006e 303B     		subs	r3, r3, #48
 405:src/keytrans.c ****   return TRUE;
 1751              		.loc 1 405 0
 1752 0070 0120     		movs	r0, #1
 404:src/keytrans.c ****   dhost_idx = kbdbuf[1] - '0';
 1753              		.loc 1 404 0
 1754 0072 A370     		strb	r3, [r4, #2]
 1755              	.L151:
 406:src/keytrans.c **** }
 1756              		.loc 1 406 0
 1757 0074 05B0     		add	sp, sp, #20
 1758              		.cfi_def_cfa_offset 12
 1759              		@ sp needed
 1760 0076 30BD     		pop	{r4, r5, pc}
 1761              	.LVL217:
 1762              	.L161:
 1763              		.align	2
 1764              	.L160:
 1765 0078 00000000 		.word	.LANCHOR0
 1766 007c A3010000 		.word	.LC30
 1767 0080 FF172000 		.word	2103295
 1768              		.cfi_endproc
 1769              	.LFE8:
 1770              		.size	SetDhostIdx, .-SetDhostIdx
 1771              		.section	.text.ResetDukptIkey,"ax",%progbits
 1772              		.align	1
 1773              		.global	ResetDukptIkey
 1774              		.thumb
 1775              		.thumb_func
 1776              		.type	ResetDukptIkey, %function
 1777              	ResetDukptIkey:
 1778              	.LFB9:
ARM GAS  C:\Users\AHMED~1.ELE\AppData\Local\Temp\ccEeyTbT.s 			page 40


 407:src/keytrans.c **** /******************************************************************************
 408:src/keytrans.c ****  *  Function        : ResetDukptIkey
 409:src/keytrans.c ****  *  Description     : Reset terminal DUKPT init key
 410:src/keytrans.c ****  *  Input           : N/A
 411:src/keytrans.c ****  *  Return          : TRUE;           // key load ok
 412:src/keytrans.c ****  *                    FALSE;          // key load failed
 413:src/keytrans.c ****  *  Note            : N/A
 414:src/keytrans.c ****  *  Globals Changed : N/A
 415:src/keytrans.c ****  ******************************************************************************
 416:src/keytrans.c ****  */
 417:src/keytrans.c **** BOOLEAN ResetDukptIkey(void)
 418:src/keytrans.c **** {
 1779              		.loc 1 418 0
 1780              		.cfi_startproc
 1781              		@ args = 0, pretend = 0, frame = 0
 1782              		@ frame_needed = 0, uses_anonymous_args = 0
 1783              	.LVL218:
 1784 0000 37B5     		push	{r0, r1, r2, r4, r5, lr}
 1785              		.cfi_def_cfa_offset 24
 1786              		.cfi_offset 4, -12
 1787              		.cfi_offset 5, -8
 1788              		.cfi_offset 14, -4
 1789              	.LBB28:
 419:src/keytrans.c ****   DispLineMW("Resetting Keys..", MW_LINE5, MW_CLRDISP|MW_CENTER|MW_BIGFONT);
 1790              		.loc 1 419 0
 1791 0002 9220     		movs	r0, #146
 1792 0004 1121     		movs	r1, #17
 1793 0006 FFF7FEFF 		bl	sys_func1
 1794              	.LVL219:
 1795 000a 0446     		mov	r4, r0
 1796 000c 98B1     		cbz	r0, .L163
 1797              		.loc 1 419 0 is_stmt 0 discriminator 1
 1798 000e 2449     		ldr	r1, .L173
 1799 0010 1022     		movs	r2, #16
 1800 0012 FFF7FEFF 		bl	memcpy
 1801              	.LVL220:
 1802 0016 0023     		movs	r3, #0
 1803 0018 2521     		movs	r1, #37
 1804 001a 2374     		strb	r3, [r4, #16]
 1805 001c 41F28203 		movw	r3, #4226
 1806 0020 0F20     		movs	r0, #15
 1807 0022 0093     		str	r3, [sp]
 1808 0024 2246     		mov	r2, r4
 1809 0026 4FF4A063 		mov	r3, #1280
 1810 002a FFF7FEFF 		bl	lib_app_call
 1811              	.LVL221:
 1812 002e 9420     		movs	r0, #148
 1813 0030 2146     		mov	r1, r4
 1814 0032 FFF7FEFF 		bl	sys_func1
 1815              	.LVL222:
 1816              	.L163:
 1817              	.LBE28:
 420:src/keytrans.c ****   if (!KDLL_DukptKeyReset(dhost_idx)) {
 1818              		.loc 1 420 0 is_stmt 1
 1819 0036 1B4B     		ldr	r3, .L173+4
 1820 0038 7F20     		movs	r0, #127
 1821 003a 9A78     		ldrb	r2, [r3, #2]	@ zero_extendqisi2
ARM GAS  C:\Users\AHMED~1.ELE\AppData\Local\Temp\ccEeyTbT.s 			page 41


 1822 003c 0023     		movs	r3, #0
 1823 003e 0B21     		movs	r1, #11
 1824 0040 0093     		str	r3, [sp]
 1825 0042 FFF7FEFF 		bl	lib_app_call
 1826              	.LVL223:
 1827 0046 C4B2     		uxtb	r4, r0
 1828              	.LVL224:
 1829 0048 1CBB     		cbnz	r4, .L164
 1830              	.LVL225:
 1831              	.LBB29:
 421:src/keytrans.c ****     DispLineMW("DUKI Rst Failed!", MW_LINE5, MW_CLRDISP|MW_CENTER|MW_BIGFONT);
 1832              		.loc 1 421 0
 1833 004a 9220     		movs	r0, #146
 1834 004c 1121     		movs	r1, #17
 1835 004e FFF7FEFF 		bl	sys_func1
 1836              	.LVL226:
 1837 0052 0546     		mov	r5, r0
 1838 0054 90B1     		cbz	r0, .L165
 1839              		.loc 1 421 0 is_stmt 0 discriminator 1
 1840 0056 1449     		ldr	r1, .L173+8
 1841 0058 1022     		movs	r2, #16
 1842 005a FFF7FEFF 		bl	memcpy
 1843              	.LVL227:
 1844 005e 41F28203 		movw	r3, #4226
 1845 0062 2C74     		strb	r4, [r5, #16]
 1846 0064 2521     		movs	r1, #37
 1847 0066 0093     		str	r3, [sp]
 1848 0068 0F20     		movs	r0, #15
 1849 006a 2A46     		mov	r2, r5
 1850 006c 4FF4A063 		mov	r3, #1280
 1851 0070 FFF7FEFF 		bl	lib_app_call
 1852              	.LVL228:
 1853 0074 9420     		movs	r0, #148
 1854 0076 2946     		mov	r1, r5
 1855 0078 FFF7FEFF 		bl	sys_func1
 1856              	.LVL229:
 1857              	.L165:
 1858              	.LBE29:
 422:src/keytrans.c ****     LongBeep();
 1859              		.loc 1 422 0 is_stmt 1
 1860 007c FFF7FEFF 		bl	LongBeep
 1861              	.LVL230:
 423:src/keytrans.c ****     APM_WaitKey(9000, 0);
 1862              		.loc 1 423 0
 1863 0080 0023     		movs	r3, #0
 1864 0082 0321     		movs	r1, #3
 1865 0084 0093     		str	r3, [sp]
 1866 0086 42F22832 		movw	r2, #9000
 1867 008a 1020     		movs	r0, #16
 1868 008c FFF7FEFF 		bl	lib_app_call
 1869              	.LVL231:
 424:src/keytrans.c ****     return FALSE;
 1870              		.loc 1 424 0
 1871 0090 02E0     		b	.L166
 1872              	.LVL232:
 1873              	.L164:
 425:src/keytrans.c ****   }
ARM GAS  C:\Users\AHMED~1.ELE\AppData\Local\Temp\ccEeyTbT.s 			page 42


 426:src/keytrans.c ****   Short2Beep();
 1874              		.loc 1 426 0
 1875 0092 FFF7FEFF 		bl	Short2Beep
 1876              	.LVL233:
 427:src/keytrans.c ****   return TRUE;
 1877              		.loc 1 427 0
 1878 0096 0124     		movs	r4, #1
 1879              	.L166:
 428:src/keytrans.c **** }
 1880              		.loc 1 428 0
 1881 0098 2046     		mov	r0, r4
 1882 009a 03B0     		add	sp, sp, #12
 1883              		.cfi_def_cfa_offset 12
 1884              		@ sp needed
 1885 009c 30BD     		pop	{r4, r5, pc}
 1886              	.L174:
 1887 009e 00BF     		.align	2
 1888              	.L173:
 1889 00a0 00000000 		.word	.LC0
 1890 00a4 00000000 		.word	.LANCHOR0
 1891 00a8 B3010000 		.word	.LC31
 1892              		.cfi_endproc
 1893              	.LFE9:
 1894              		.size	ResetDukptIkey, .-ResetDukptIkey
 1895              		.section	.text.LoadDukptIkey,"ax",%progbits
 1896              		.align	1
 1897              		.global	LoadDukptIkey
 1898              		.thumb
 1899              		.thumb_func
 1900              		.type	LoadDukptIkey, %function
 1901              	LoadDukptIkey:
 1902              	.LFB10:
 429:src/keytrans.c **** /******************************************************************************
 430:src/keytrans.c ****  *  Function        : LoadDukptIkey
 431:src/keytrans.c ****  *  Description     : Load terminal DUKPT init key
 432:src/keytrans.c ****  *  Input           : N/A
 433:src/keytrans.c ****  *  Return          : TRUE;           // key load ok
 434:src/keytrans.c ****  *                    FALSE;          // key load failed
 435:src/keytrans.c ****  *  Note            : N/A
 436:src/keytrans.c ****  *  Globals Changed : N/A
 437:src/keytrans.c ****  ******************************************************************************
 438:src/keytrans.c ****  */
 439:src/keytrans.c **** BOOLEAN LoadDukptIkey(void)
 440:src/keytrans.c **** {
 1903              		.loc 1 440 0
 1904              		.cfi_startproc
 1905              		@ args = 0, pretend = 0, frame = 32
 1906              		@ frame_needed = 0, uses_anonymous_args = 0
 441:src/keytrans.c ****   BYTE keycfg[32];
 442:src/keytrans.c **** 
 443:src/keytrans.c ****   // injecting the initial key
 444:src/keytrans.c ****   keycfg[0] = KEYMODE_DOUBLE;
 445:src/keytrans.c ****   keycfg[1] = dhost_idx;
 1907              		.loc 1 445 0
 1908 0000 314B     		ldr	r3, .L186
 440:src/keytrans.c ****   BYTE keycfg[32];
 1909              		.loc 1 440 0
ARM GAS  C:\Users\AHMED~1.ELE\AppData\Local\Temp\ccEeyTbT.s 			page 43


 1910 0002 30B5     		push	{r4, r5, lr}
 1911              		.cfi_def_cfa_offset 12
 1912              		.cfi_offset 4, -12
 1913              		.cfi_offset 5, -8
 1914              		.cfi_offset 14, -4
 444:src/keytrans.c ****   keycfg[1] = dhost_idx;
 1915              		.loc 1 444 0
 1916 0004 1022     		movs	r2, #16
 440:src/keytrans.c ****   BYTE keycfg[32];
 1917              		.loc 1 440 0
 1918 0006 8BB0     		sub	sp, sp, #44
 1919              		.cfi_def_cfa_offset 56
 1920              		.loc 1 445 0
 1921 0008 9B78     		ldrb	r3, [r3, #2]	@ zero_extendqisi2
 446:src/keytrans.c ****   // initial key (16 bytes)     6AC292FAA1315B4D 858AB3A3D7D5933A
 447:src/keytrans.c ****   memcpy(&keycfg[2], "\x6A\xC2\x92\xFA\xA1\x31\x5B\x4D\x85\x8A\xB3\xA3\xD7\xD5\x93\x3A", 16);
 1922              		.loc 1 447 0
 1923 000a 3049     		ldr	r1, .L186+4
 1924 000c 0DF10A00 		add	r0, sp, #10
 445:src/keytrans.c ****   // initial key (16 bytes)     6AC292FAA1315B4D 858AB3A3D7D5933A
 1925              		.loc 1 445 0
 1926 0010 8DF80930 		strb	r3, [sp, #9]
 444:src/keytrans.c ****   keycfg[1] = dhost_idx;
 1927              		.loc 1 444 0
 1928 0014 8DF80820 		strb	r2, [sp, #8]
 1929              		.loc 1 447 0
 1930 0018 FFF7FEFF 		bl	memcpy
 1931              	.LVL234:
 448:src/keytrans.c ****   // KSN (10 bytes)             FFFF9876543210E00000  
 449:src/keytrans.c ****   memcpy(&keycfg[18], "\xFF\xFF\x98\x76\x54\x32\x10\xE0\x00\x00", 10);
 1932              		.loc 1 449 0
 1933 001c 2C49     		ldr	r1, .L186+8
 1934 001e 0A22     		movs	r2, #10
 1935 0020 0DF11A00 		add	r0, sp, #26
 1936 0024 FFF7FEFF 		bl	memcpy
 1937              	.LVL235:
 1938              	.LBB30:
 450:src/keytrans.c ****   
 451:src/keytrans.c ****   DispLineMW("Loading IKey..", MW_LINE5, MW_CLRDISP|MW_CENTER|MW_BIGFONT);
 1939              		.loc 1 451 0
 1940 0028 9220     		movs	r0, #146
 1941 002a 0F21     		movs	r1, #15
 1942 002c FFF7FEFF 		bl	sys_func1
 1943              	.LVL236:
 1944 0030 0446     		mov	r4, r0
 1945 0032 98B1     		cbz	r0, .L176
 1946              		.loc 1 451 0 is_stmt 0 discriminator 1
 1947 0034 2749     		ldr	r1, .L186+12
 1948 0036 0E22     		movs	r2, #14
 1949 0038 FFF7FEFF 		bl	memcpy
 1950              	.LVL237:
 1951 003c 0023     		movs	r3, #0
 1952 003e 2521     		movs	r1, #37
 1953 0040 A373     		strb	r3, [r4, #14]
 1954 0042 41F28203 		movw	r3, #4226
 1955 0046 0F20     		movs	r0, #15
 1956 0048 0093     		str	r3, [sp]
ARM GAS  C:\Users\AHMED~1.ELE\AppData\Local\Temp\ccEeyTbT.s 			page 44


 1957 004a 2246     		mov	r2, r4
 1958 004c 4FF4A063 		mov	r3, #1280
 1959 0050 FFF7FEFF 		bl	lib_app_call
 1960              	.LVL238:
 1961 0054 9420     		movs	r0, #148
 1962 0056 2146     		mov	r1, r4
 1963 0058 FFF7FEFF 		bl	sys_func1
 1964              	.LVL239:
 1965              	.L176:
 1966              	.LBE30:
 452:src/keytrans.c ****   if (KDLL_DukptKeyInject(keycfg)) {
 1967              		.loc 1 452 0 is_stmt 1
 1968 005c 0025     		movs	r5, #0
 1969 005e 7F20     		movs	r0, #127
 1970 0060 0095     		str	r5, [sp]
 1971 0062 0C21     		movs	r1, #12
 1972 0064 02AA     		add	r2, sp, #8
 1973 0066 2B46     		mov	r3, r5
 1974 0068 FFF7FEFF 		bl	lib_app_call
 1975              	.LVL240:
 1976 006c 80B2     		uxth	r0, r0
 1977 006e 28B3     		cbz	r0, .L177
 1978              	.LVL241:
 1979              	.LBB31:
 453:src/keytrans.c ****     DispLineMW("DUKI Failed!", MW_LINE5, MW_CLRDISP|MW_CENTER|MW_BIGFONT);
 1980              		.loc 1 453 0
 1981 0070 9220     		movs	r0, #146
 1982 0072 0D21     		movs	r1, #13
 1983 0074 FFF7FEFF 		bl	sys_func1
 1984              	.LVL242:
 1985 0078 0446     		mov	r4, r0
 1986              	.LVL243:
 1987 007a 90B1     		cbz	r0, .L178
 1988              		.loc 1 453 0 is_stmt 0 discriminator 1
 1989 007c 1649     		ldr	r1, .L186+16
 1990 007e 0C22     		movs	r2, #12
 1991 0080 FFF7FEFF 		bl	memcpy
 1992              	.LVL244:
 1993 0084 41F28203 		movw	r3, #4226
 1994 0088 2573     		strb	r5, [r4, #12]
 1995 008a 2521     		movs	r1, #37
 1996 008c 0093     		str	r3, [sp]
 1997 008e 0F20     		movs	r0, #15
 1998 0090 2246     		mov	r2, r4
 1999 0092 4FF4A063 		mov	r3, #1280
 2000 0096 FFF7FEFF 		bl	lib_app_call
 2001              	.LVL245:
 2002 009a 9420     		movs	r0, #148
 2003 009c 2146     		mov	r1, r4
 2004 009e FFF7FEFF 		bl	sys_func1
 2005              	.LVL246:
 2006              	.L178:
 2007              	.LBE31:
 454:src/keytrans.c ****     LongBeep();
 455:src/keytrans.c ****     APM_WaitKey(9000, 0);
 2008              		.loc 1 455 0 is_stmt 1
 2009 00a2 0024     		movs	r4, #0
ARM GAS  C:\Users\AHMED~1.ELE\AppData\Local\Temp\ccEeyTbT.s 			page 45


 2010              	.LVL247:
 454:src/keytrans.c ****     LongBeep();
 2011              		.loc 1 454 0
 2012 00a4 FFF7FEFF 		bl	LongBeep
 2013              	.LVL248:
 2014              		.loc 1 455 0
 2015 00a8 1020     		movs	r0, #16
 2016 00aa 0094     		str	r4, [sp]
 2017 00ac 0321     		movs	r1, #3
 2018 00ae 42F22832 		movw	r2, #9000
 2019 00b2 2346     		mov	r3, r4
 2020 00b4 FFF7FEFF 		bl	lib_app_call
 2021              	.LVL249:
 456:src/keytrans.c ****     return FALSE;
 2022              		.loc 1 456 0
 2023 00b8 2046     		mov	r0, r4
 2024 00ba 02E0     		b	.L179
 2025              	.LVL250:
 2026              	.L177:
 457:src/keytrans.c ****   }
 458:src/keytrans.c ****   Short2Beep();
 2027              		.loc 1 458 0
 2028 00bc FFF7FEFF 		bl	Short2Beep
 2029              	.LVL251:
 459:src/keytrans.c ****   return TRUE;
 2030              		.loc 1 459 0
 2031 00c0 0120     		movs	r0, #1
 2032              	.LVL252:
 2033              	.L179:
 460:src/keytrans.c **** }
 2034              		.loc 1 460 0
 2035 00c2 0BB0     		add	sp, sp, #44
 2036              		.cfi_def_cfa_offset 12
 2037              		@ sp needed
 2038 00c4 30BD     		pop	{r4, r5, pc}
 2039              	.L187:
 2040 00c6 00BF     		.align	2
 2041              	.L186:
 2042 00c8 00000000 		.word	.LANCHOR0
 2043 00cc C4010000 		.word	.LC32
 2044 00d0 03000000 		.word	.LANCHOR1+3
 2045 00d4 D5010000 		.word	.LC34
 2046 00d8 E4010000 		.word	.LC35
 2047              		.cfi_endproc
 2048              	.LFE10:
 2049              		.size	LoadDukptIkey, .-LoadDukptIkey
 2050              		.section	.text.GetDukptPin,"ax",%progbits
 2051              		.align	1
 2052              		.global	GetDukptPin
 2053              		.thumb
 2054              		.thumb_func
 2055              		.type	GetDukptPin, %function
 2056              	GetDukptPin:
 2057              	.LFB11:
 461:src/keytrans.c **** /******************************************************************************
 462:src/keytrans.c ****  *  Function        : GetDukptPin
 463:src/keytrans.c ****  *  Description     : Get DUKPT encrypted pin block
ARM GAS  C:\Users\AHMED~1.ELE\AppData\Local\Temp\ccEeyTbT.s 			page 46


 464:src/keytrans.c ****  *  Input           : N/A
 465:src/keytrans.c ****  *  Return          : TRUE;           // key load ok
 466:src/keytrans.c ****  *                    FALSE;          // key load failed
 467:src/keytrans.c ****  *  Note            : N/A
 468:src/keytrans.c ****  *  Globals Changed : N/A
 469:src/keytrans.c ****  ******************************************************************************
 470:src/keytrans.c ****  */
 471:src/keytrans.c **** BOOLEAN GetDukptPin(void)
 472:src/keytrans.c **** {
 2058              		.loc 1 472 0
 2059              		.cfi_startproc
 2060              		@ args = 0, pretend = 0, frame = 96
 2061              		@ frame_needed = 0, uses_anonymous_args = 0
 2062 0000 10B5     		push	{r4, lr}
 2063              		.cfi_def_cfa_offset 8
 2064              		.cfi_offset 4, -8
 2065              		.cfi_offset 14, -4
 2066 0002 9AB0     		sub	sp, sp, #104
 2067              		.cfi_def_cfa_offset 112
 473:src/keytrans.c ****   const BYTE msg[]="\f\x11==== DUKPT =====\nENTER PIN:\x0";
 2068              		.loc 1 473 0
 2069 0004 3C49     		ldr	r1, .L195
 2070 0006 1F22     		movs	r2, #31
 2071 0008 02A8     		add	r0, sp, #8
 2072 000a FFF7FEFF 		bl	memcpy
 2073              	.LVL253:
 474:src/keytrans.c ****   BYTE pinblk[32];
 475:src/keytrans.c ****   BYTE buf[32];
 476:src/keytrans.c **** 
 477:src/keytrans.c ****   // format the PAN
 478:src/keytrans.c ****   memcpy(pinblk, "\x40\x12\x34\x56\x78\x90\x9F\xFF\xFF\xFF", 10); //X9.24
 2074              		.loc 1 478 0
 2075 000e 3B49     		ldr	r1, .L195+4
 2076 0010 0A22     		movs	r2, #10
 2077 0012 0AA8     		add	r0, sp, #40
 2078 0014 FFF7FEFF 		bl	memcpy
 2079              	.LVL254:
 479:src/keytrans.c ****   
 480:src/keytrans.c ****   if (KDLL_DukptGetPin(pinblk, msg, dhost_idx)) {
 2080              		.loc 1 480 0
 2081 0018 394B     		ldr	r3, .L195+8
 2082 001a 7F20     		movs	r0, #127
 2083 001c 9B78     		ldrb	r3, [r3, #2]	@ zero_extendqisi2
 2084 001e 0D21     		movs	r1, #13
 2085 0020 0093     		str	r3, [sp]
 2086 0022 0AAA     		add	r2, sp, #40
 2087 0024 02AB     		add	r3, sp, #8
 2088 0026 FFF7FEFF 		bl	lib_app_call
 2089              	.LVL255:
 2090 002a 84B2     		uxth	r4, r0
 2091 002c 34B3     		cbz	r4, .L189
 2092              	.LVL256:
 2093              	.LBB32:
 481:src/keytrans.c ****     DispLineMW("DGetPIN Failed!", MW_LINE5, MW_CLRDISP|MW_CENTER|MW_BIGFONT);
 2094              		.loc 1 481 0
 2095 002e 9220     		movs	r0, #146
 2096 0030 1021     		movs	r1, #16
ARM GAS  C:\Users\AHMED~1.ELE\AppData\Local\Temp\ccEeyTbT.s 			page 47


 2097 0032 FFF7FEFF 		bl	sys_func1
 2098              	.LVL257:
 2099 0036 0446     		mov	r4, r0
 2100 0038 98B1     		cbz	r0, .L190
 2101              		.loc 1 481 0 is_stmt 0 discriminator 1
 2102 003a 3249     		ldr	r1, .L195+12
 2103 003c 0F22     		movs	r2, #15
 2104 003e FFF7FEFF 		bl	memcpy
 2105              	.LVL258:
 2106 0042 0023     		movs	r3, #0
 2107 0044 2521     		movs	r1, #37
 2108 0046 E373     		strb	r3, [r4, #15]
 2109 0048 41F28203 		movw	r3, #4226
 2110 004c 0F20     		movs	r0, #15
 2111 004e 0093     		str	r3, [sp]
 2112 0050 2246     		mov	r2, r4
 2113 0052 4FF4A063 		mov	r3, #1280
 2114 0056 FFF7FEFF 		bl	lib_app_call
 2115              	.LVL259:
 2116 005a 9420     		movs	r0, #148
 2117 005c 2146     		mov	r1, r4
 2118 005e FFF7FEFF 		bl	sys_func1
 2119              	.LVL260:
 2120              	.L190:
 2121              	.LBE32:
 482:src/keytrans.c ****     LongBeep();
 483:src/keytrans.c ****     APM_WaitKey(9000, 0);
 2122              		.loc 1 483 0 is_stmt 1
 2123 0062 0024     		movs	r4, #0
 2124              	.LVL261:
 482:src/keytrans.c ****     LongBeep();
 2125              		.loc 1 482 0
 2126 0064 FFF7FEFF 		bl	LongBeep
 2127              	.LVL262:
 2128              		.loc 1 483 0
 2129 0068 1020     		movs	r0, #16
 2130 006a 0094     		str	r4, [sp]
 2131 006c 0321     		movs	r1, #3
 2132 006e 42F22832 		movw	r2, #9000
 2133 0072 2346     		mov	r3, r4
 2134 0074 FFF7FEFF 		bl	lib_app_call
 2135              	.LVL263:
 484:src/keytrans.c ****     return FALSE;
 2136              		.loc 1 484 0
 2137 0078 2046     		mov	r0, r4
 2138 007a 3AE0     		b	.L191
 2139              	.LVL264:
 2140              	.L189:
 485:src/keytrans.c ****   }
 486:src/keytrans.c ****   DispClrBelowMW(MW_LINE6);
 2141              		.loc 1 486 0
 2142 007c 2346     		mov	r3, r4
 2143 007e 2321     		movs	r1, #35
 2144 0080 4FF4C062 		mov	r2, #1536
 2145 0084 0094     		str	r4, [sp]
 2146 0086 0F20     		movs	r0, #15
 2147 0088 FFF7FEFF 		bl	lib_app_call
ARM GAS  C:\Users\AHMED~1.ELE\AppData\Local\Temp\ccEeyTbT.s 			page 48


 2148              	.LVL265:
 487:src/keytrans.c ****   split(buf, pinblk, 8);
 2149              		.loc 1 487 0
 2150 008c 12A8     		add	r0, sp, #72
 2151 008e 0AA9     		add	r1, sp, #40
 2152 0090 0822     		movs	r2, #8
 2153 0092 FFF7FEFF 		bl	split
 2154              	.LVL266:
 488:src/keytrans.c ****   DispGotoMW(MW_LINE7, MW_SPFONT);
 2155              		.loc 1 488 0
 2156 0096 4FF40053 		mov	r3, #8192
 2157 009a 2421     		movs	r1, #36
 2158 009c 4FF4E062 		mov	r2, #1792
 2159 00a0 0094     		str	r4, [sp]
 2160 00a2 0F20     		movs	r0, #15
 2161 00a4 FFF7FEFF 		bl	lib_app_call
 2162              	.LVL267:
 489:src/keytrans.c ****   DispPutNCMW(buf, 16);
 2163              		.loc 1 489 0
 2164 00a8 12A9     		add	r1, sp, #72
 2165 00aa 1022     		movs	r2, #16
 2166 00ac 1820     		movs	r0, #24
 2167 00ae FFF7FEFF 		bl	sys_func2
 2168              	.LVL268:
 490:src/keytrans.c ****   split(buf, &pinblk[8], 10);
 2169              		.loc 1 490 0
 2170 00b2 12A8     		add	r0, sp, #72
 2171 00b4 0CA9     		add	r1, sp, #48
 2172 00b6 0A22     		movs	r2, #10
 2173 00b8 FFF7FEFF 		bl	split
 2174              	.LVL269:
 491:src/keytrans.c ****   DispGotoMW(MW_LINE8, MW_SPFONT);
 2175              		.loc 1 491 0
 2176 00bc 4FF40053 		mov	r3, #8192
 2177 00c0 2421     		movs	r1, #36
 2178 00c2 4FF40062 		mov	r2, #2048
 2179 00c6 0094     		str	r4, [sp]
 2180 00c8 0F20     		movs	r0, #15
 2181 00ca FFF7FEFF 		bl	lib_app_call
 2182              	.LVL270:
 492:src/keytrans.c ****   DispPutNCMW(buf, 20);
 2183              		.loc 1 492 0
 2184 00ce 1422     		movs	r2, #20
 2185 00d0 12A9     		add	r1, sp, #72
 2186 00d2 1820     		movs	r0, #24
 2187 00d4 FFF7FEFF 		bl	sys_func2
 2188              	.LVL271:
 493:src/keytrans.c ****   DispCtrlMW(K_SelBigFont);
 2189              		.loc 1 493 0
 2190 00d8 1121     		movs	r1, #17
 2191 00da 1620     		movs	r0, #22
 2192 00dc FFF7FEFF 		bl	sys_func1
 2193              	.LVL272:
 494:src/keytrans.c ****   APM_WaitKey(9000, 0);
 2194              		.loc 1 494 0
 2195 00e0 0094     		str	r4, [sp]
 2196 00e2 1020     		movs	r0, #16
ARM GAS  C:\Users\AHMED~1.ELE\AppData\Local\Temp\ccEeyTbT.s 			page 49


 2197 00e4 0321     		movs	r1, #3
 2198 00e6 42F22832 		movw	r2, #9000
 2199 00ea 2346     		mov	r3, r4
 2200 00ec FFF7FEFF 		bl	lib_app_call
 2201              	.LVL273:
 495:src/keytrans.c ****   return TRUE;
 2202              		.loc 1 495 0
 2203 00f0 0120     		movs	r0, #1
 2204              	.L191:
 496:src/keytrans.c **** }
 2205              		.loc 1 496 0
 2206 00f2 1AB0     		add	sp, sp, #104
 2207              		.cfi_def_cfa_offset 8
 2208              		@ sp needed
 2209 00f4 10BD     		pop	{r4, pc}
 2210              	.L196:
 2211 00f6 00BF     		.align	2
 2212              	.L195:
 2213 00f8 0E000000 		.word	.LANCHOR1+14
 2214 00fc F1010000 		.word	.LC37
 2215 0100 00000000 		.word	.LANCHOR0
 2216 0104 FC010000 		.word	.LC38
 2217              		.cfi_endproc
 2218              	.LFE11:
 2219              		.size	GetDukptPin, .-GetDukptPin
 2220              		.section	.text.IccTmkInject,"ax",%progbits
 2221              		.align	1
 2222              		.global	IccTmkInject
 2223              		.thumb
 2224              		.thumb_func
 2225              		.type	IccTmkInject, %function
 2226              	IccTmkInject:
 2227              	.LFB12:
 497:src/keytrans.c **** /******************************************************************************
 498:src/keytrans.c ****  *  Function        : IccTmkInject
 499:src/keytrans.c ****  *  Description     : Get TMK from ICC
 500:src/keytrans.c ****  *  Input           : N/A
 501:src/keytrans.c ****  *  Return          : N/A           
 502:src/keytrans.c ****  *                    N/A         
 503:src/keytrans.c ****  *  Note            : N/A
 504:src/keytrans.c ****  *  Globals Changed : N/A
 505:src/keytrans.c ****  ******************************************************************************
 506:src/keytrans.c ****  */
 507:src/keytrans.c **** void IccTmkInject(void)
 508:src/keytrans.c **** {
 2228              		.loc 1 508 0
 2229              		.cfi_startproc
 2230              		@ args = 0, pretend = 0, frame = 0
 2231              		@ frame_needed = 0, uses_anonymous_args = 0
 2232              	.LVL274:
 2233 0000 13B5     		push	{r0, r1, r4, lr}
 2234              		.cfi_def_cfa_offset 16
 2235              		.cfi_offset 4, -8
 2236              		.cfi_offset 14, -4
 2237              	.LBB33:
 509:src/keytrans.c ****   BYTE key;
 510:src/keytrans.c ****   
ARM GAS  C:\Users\AHMED~1.ELE\AppData\Local\Temp\ccEeyTbT.s 			page 50


 511:src/keytrans.c ****   DispLineMW("ICC TMK INJECT:", MW_LINE1, MW_CLRDISP|MW_BIGFONT);
 2238              		.loc 1 511 0
 2239 0002 9220     		movs	r0, #146
 2240 0004 1021     		movs	r1, #16
 2241 0006 FFF7FEFF 		bl	sys_func1
 2242              	.LVL275:
 2243 000a 0446     		mov	r4, r0
 2244 000c 98B1     		cbz	r0, .L198
 2245              		.loc 1 511 0 is_stmt 0 discriminator 1
 2246 000e 3449     		ldr	r1, .L214
 2247 0010 0F22     		movs	r2, #15
 2248 0012 FFF7FEFF 		bl	memcpy
 2249              	.LVL276:
 2250 0016 0023     		movs	r3, #0
 2251 0018 2521     		movs	r1, #37
 2252 001a E373     		strb	r3, [r4, #15]
 2253 001c 4FF48453 		mov	r3, #4224
 2254 0020 0F20     		movs	r0, #15
 2255 0022 0093     		str	r3, [sp]
 2256 0024 2246     		mov	r2, r4
 2257 0026 4FF48073 		mov	r3, #256
 2258 002a FFF7FEFF 		bl	lib_app_call
 2259              	.LVL277:
 2260 002e 9420     		movs	r0, #148
 2261 0030 2146     		mov	r1, r4
 2262 0032 FFF7FEFF 		bl	sys_func1
 2263              	.LVL278:
 2264              	.L198:
 2265              	.LBE33:
 2266              	.LBB34:
 512:src/keytrans.c ****   DispLineMW("[ENTER] - Normal", MW_LINE3, MW_BIGFONT);
 2267              		.loc 1 512 0 is_stmt 1
 2268 0036 9220     		movs	r0, #146
 2269 0038 1121     		movs	r1, #17
 2270 003a FFF7FEFF 		bl	sys_func1
 2271              	.LVL279:
 2272 003e 0446     		mov	r4, r0
 2273              	.LVL280:
 2274 0040 98B1     		cbz	r0, .L199
 2275              		.loc 1 512 0 is_stmt 0 discriminator 1
 2276 0042 2849     		ldr	r1, .L214+4
 2277 0044 1022     		movs	r2, #16
 2278 0046 FFF7FEFF 		bl	memcpy
 2279              	.LVL281:
 2280 004a 0023     		movs	r3, #0
 2281 004c 2521     		movs	r1, #37
 2282 004e 2374     		strb	r3, [r4, #16]
 2283 0050 4FF48053 		mov	r3, #4096
 2284 0054 0F20     		movs	r0, #15
 2285 0056 0093     		str	r3, [sp]
 2286 0058 2246     		mov	r2, r4
 2287 005a 4FF44073 		mov	r3, #768
 2288 005e FFF7FEFF 		bl	lib_app_call
 2289              	.LVL282:
 2290 0062 9420     		movs	r0, #148
 2291 0064 2146     		mov	r1, r4
 2292 0066 FFF7FEFF 		bl	sys_func1
ARM GAS  C:\Users\AHMED~1.ELE\AppData\Local\Temp\ccEeyTbT.s 			page 51


 2293              	.LVL283:
 2294              	.L199:
 2295              	.LBE34:
 2296              	.LBB35:
 513:src/keytrans.c ****   DispLineMW("[CLEAR] - DUKPT", MW_LINE5, MW_BIGFONT);
 2297              		.loc 1 513 0 is_stmt 1
 2298 006a 9220     		movs	r0, #146
 2299 006c 1021     		movs	r1, #16
 2300 006e FFF7FEFF 		bl	sys_func1
 2301              	.LVL284:
 2302 0072 0446     		mov	r4, r0
 2303              	.LVL285:
 2304 0074 98B1     		cbz	r0, .L200
 2305              		.loc 1 513 0 is_stmt 0 discriminator 1
 2306 0076 1C49     		ldr	r1, .L214+8
 2307 0078 0F22     		movs	r2, #15
 2308 007a FFF7FEFF 		bl	memcpy
 2309              	.LVL286:
 2310 007e 0023     		movs	r3, #0
 2311 0080 2521     		movs	r1, #37
 2312 0082 E373     		strb	r3, [r4, #15]
 2313 0084 4FF48053 		mov	r3, #4096
 2314 0088 0F20     		movs	r0, #15
 2315 008a 0093     		str	r3, [sp]
 2316 008c 2246     		mov	r2, r4
 2317 008e 4FF4A063 		mov	r3, #1280
 2318 0092 FFF7FEFF 		bl	lib_app_call
 2319              	.LVL287:
 2320 0096 9420     		movs	r0, #148
 2321 0098 2146     		mov	r1, r4
 2322 009a FFF7FEFF 		bl	sys_func1
 2323              	.LVL288:
 2324              	.L200:
 2325              	.LBE35:
 514:src/keytrans.c ****   switch (key=APM_WaitKey(9000, 0)) {
 2326              		.loc 1 514 0 is_stmt 1
 2327 009e 0024     		movs	r4, #0
 2328              	.LVL289:
 2329 00a0 1020     		movs	r0, #16
 2330 00a2 0094     		str	r4, [sp]
 2331 00a4 0321     		movs	r1, #3
 2332 00a6 42F22832 		movw	r2, #9000
 2333 00aa 2346     		mov	r3, r4
 2334 00ac FFF7FEFF 		bl	lib_app_call
 2335              	.LVL290:
 2336 00b0 C0B2     		uxtb	r0, r0
 2337 00b2 1028     		cmp	r0, #16
 2338 00b4 07D0     		beq	.L202
 2339 00b6 1228     		cmp	r0, #18
 2340 00b8 0CD1     		bne	.L201
 515:src/keytrans.c ****     case MWKEY_ENTER:
 516:src/keytrans.c ****       KDLL_IccMKeyInject(MKEY_IDX, 0);    // Terminal Master Key
 517:src/keytrans.c ****       break;
 518:src/keytrans.c ****     case MWKEY_CLR:
 519:src/keytrans.c ****       KDLL_IccMKeyInject(MKEY_IDX, 1);    // DUKPT Initial Key
 2341              		.loc 1 519 0
 2342 00ba 0094     		str	r4, [sp]
ARM GAS  C:\Users\AHMED~1.ELE\AppData\Local\Temp\ccEeyTbT.s 			page 52


 2343 00bc 7F20     		movs	r0, #127
 2344              	.LVL291:
 2345 00be 0F21     		movs	r1, #15
 2346 00c0 2246     		mov	r2, r4
 2347 00c2 0123     		movs	r3, #1
 2348 00c4 04E0     		b	.L213
 2349              	.LVL292:
 2350              	.L202:
 516:src/keytrans.c ****       break;
 2351              		.loc 1 516 0
 2352 00c6 7F20     		movs	r0, #127
 2353              	.LVL293:
 2354 00c8 0F21     		movs	r1, #15
 2355 00ca 2246     		mov	r2, r4
 2356 00cc 2346     		mov	r3, r4
 2357 00ce 0094     		str	r4, [sp]
 2358              	.L213:
 2359              		.loc 1 519 0
 2360 00d0 FFF7FEFF 		bl	lib_app_call
 2361              	.LVL294:
 2362              	.L201:
 520:src/keytrans.c ****       break;
 521:src/keytrans.c ****     default:
 522:src/keytrans.c ****       break;
 523:src/keytrans.c ****   }
 524:src/keytrans.c ****   WaitICCRemove();
 525:src/keytrans.c **** }
 2363              		.loc 1 525 0
 2364 00d4 02B0     		add	sp, sp, #8
 2365              		.cfi_def_cfa_offset 8
 2366              		@ sp needed
 2367 00d6 BDE81040 		pop	{r4, lr}
 2368              		.cfi_restore 14
 2369              		.cfi_restore 4
 2370              		.cfi_def_cfa_offset 0
 524:src/keytrans.c **** }
 2371              		.loc 1 524 0
 2372 00da FFF7FEBF 		b	WaitICCRemove
 2373              	.LVL295:
 2374              	.L215:
 2375 00de 00BF     		.align	2
 2376              	.L214:
 2377 00e0 0C020000 		.word	.LC39
 2378 00e4 1C020000 		.word	.LC40
 2379 00e8 2D020000 		.word	.LC41
 2380              		.cfi_endproc
 2381              	.LFE12:
 2382              		.size	IccTmkInject, .-IccTmkInject
 2383              		.section	.rodata
 2384              		.set	.LANCHOR1,. + 0
 2385              	.LC6:
 2386 0000 FF0000   		.ascii	"\377\000\000"
 2387              	.LC33:
 2388 0003 FFFF9876 		.ascii	"\377\377\230vT2\020\340\000\000\000"
 2388      543210E0 
 2388      000000
 2389              	.LC36:
ARM GAS  C:\Users\AHMED~1.ELE\AppData\Local\Temp\ccEeyTbT.s 			page 53


 2390 000e 0C113D3D 		.ascii	"\014\021==== DUKPT =====\012ENTER PIN:\000\000"
 2390      3D3D2044 
 2390      554B5054 
 2390      203D3D3D 
 2390      3D3D0A45 
 2391              		.section	.rodata.str1.1,"aMS",%progbits,1
 2392              	.LC0:
 2393 0000 52657365 		.ascii	"Resetting Keys..\000"
 2393      7474696E 
 2393      67204B65 
 2393      79732E2E 
 2393      00
 2394              	.LC2:
 2395 0011 43686F6F 		.ascii	"Choose TMK Key Length:\000"
 2395      73652054 
 2395      4D4B204B 
 2395      6579204C 
 2395      656E6774 
 2396              	.LC3:
 2397 0028 312E5349 		.ascii	"1.SINGLE\000"
 2397      4E474C45 
 2397      00
 2398              	.LC4:
 2399 0031 322E444F 		.ascii	"2.DOUBLE\000"
 2399      55424C45 
 2399      00
 2400              	.LC5:
 2401 003a 332E5452 		.ascii	"3.TRIPLE\000"
 2401      49504C45 
 2401      00
 2402              	.LC7:
 2403 0043 544D4B49 		.ascii	"TMKI Failed!\000"
 2403      20466169 
 2403      6C656421 
 2403      00
 2404              	.LC8:
 2405 0050 52657420 		.ascii	"Ret = %d\000"
 2405      3D202564 
 2405      00
 2406              	.LC9:
 2407 0059 544D4B49 		.ascii	"TMKI OK\000"
 2407      204F4B00 
 2408              	.LC1:
 2409 0061 01234567 		.ascii	"\001#Eg\211\253\315\357\376\334\272\230vT2\020\021\""
 2409      89ABCDEF 
 2409      FEDCBA98 
 2409      76543210 
 2409      1122
 2410 0073 33445566 		.ascii	"3DUfw\210\000"
 2410      778800
 2411              	.LC16:
 2412 007a 496E6A65 		.ascii	"Inject Failed!\000"
 2412      63742046 
 2412      61696C65 
 2412      642100
 2413              	.LC17:
 2414 0089 496E6A65 		.ascii	"Inject EKEY OK\000"
ARM GAS  C:\Users\AHMED~1.ELE\AppData\Local\Temp\ccEeyTbT.s 			page 54


 2414      63742045 
 2414      4B455920 
 2414      4F4B00
 2415              	.LC18:
 2416 0098 496E6A65 		.ascii	"Inject DKEY OK\000"
 2416      63742044 
 2416      4B455920 
 2416      4F4B00
 2417              	.LC10:
 2418 00a7 96C6168A 		.ascii	"\226\306\026\212.\237\025\353\000"
 2418      2E9F15EB 
 2418      00
 2419              	.LC11:
 2420 00b0 26A7D119 		.ascii	"&\247\321\031=\001\024\366FRW<\"\3305\342\000"
 2420      3D0114F6 
 2420      4652573C 
 2420      22D835E2 
 2420      00
 2421              	.LC12:
 2422 00c1 A6A4D16B 		.ascii	"\246\244\321k\256\346\212\214e\025D\357\271cO\235\266"
 2422      AEE68A8C 
 2422      651544EF 
 2422      B9634F9D 
 2422      B6
 2423 00d2 BFBCE461 		.ascii	"\277\274\344a\361\335\366\000"
 2423      F1DDF600 
 2424              	.LC13:
 2425 00da 2422EA54 		.ascii	"$\"\352T\032\212\0365\000"
 2425      1A8A1E35 
 2425      00
 2426              	.LC14:
 2427 00e3 9C159E60 		.ascii	"\234\025\236`\304O\215o1\2476L\254\221\3129\000"
 2427      C44F8D6F 
 2427      31A7364C 
 2427      AC91CA39 
 2427      00
 2428              	.LC15:
 2429 00f4 73362DC6 		.ascii	"s6-\306y\321\241<\017\026\336\246\324N4\311j\377\267"
 2429      79D1A13C 
 2429      0F16DEA6 
 2429      D44E34C9 
 2429      6AFFB7
 2430 0107 AC9B82EE 		.ascii	"\254\233\202\356v\000"
 2430      7600
 2431              	.LC20:
 2432 010d 456E6320 		.ascii	"Enc Err: %d\000"
 2432      4572723A 
 2432      20256400 
 2433              	.LC21:
 2434 0119 456E6372 		.ascii	"Encrypted:\000"
 2434      79707465 
 2434      643A00
 2435              	.LC19:
 2436 0124 31323334 		.ascii	"12345678ABCDEFGHstuvwxyz\000"
 2436      35363738 
 2436      41424344 
 2436      45464748 
ARM GAS  C:\Users\AHMED~1.ELE\AppData\Local\Temp\ccEeyTbT.s 			page 55


 2436      73747576 
 2437              	.LC22:
 2438 013d 44656320 		.ascii	"Dec Err: %d\000"
 2438      4572723A 
 2438      20256400 
 2439              	.LC23:
 2440 0149 44656372 		.ascii	"Decrypted:\000"
 2440      79707465 
 2440      643A00
 2441              	.LC24:
 2442 0154 454E432F 		.ascii	"ENC/DEC Mode:\000"
 2442      44454320 
 2442      4D6F6465 
 2442      3A00
 2443              	.LC25:
 2444 0162 5B454E54 		.ascii	"[ENTER] - ECB\000"
 2444      45525D20 
 2444      2D204543 
 2444      4200
 2445              	.LC26:
 2446 0170 5B434C45 		.ascii	"[CLEAR] - CBC\000"
 2446      41525D20 
 2446      2D204342 
 2446      4300
 2447              	.LC27:
 2448 017e 496E6974 		.ascii	"Init Vector:\000"
 2448      20566563 
 2448      746F723A 
 2448      00
 2449              	.LC29:
 2450 018b 4E4F2050 		.ascii	"NO PIN KEY\000"
 2450      494E204B 
 2450      455900
 2451              	.LC28:
 2452 0196 0C110A45 		.ascii	"\014\021\012ENTER PIN\000"
 2452      4E544552 
 2452      2050494E 
 2452      00
 2453              	.LC30:
 2454 01a3 44486F73 		.ascii	"DHost Idx(0-4):\000"
 2454      74204964 
 2454      7828302D 
 2454      34293A00 
 2455              	.LC31:
 2456 01b3 44554B49 		.ascii	"DUKI Rst Failed!\000"
 2456      20527374 
 2456      20466169 
 2456      6C656421 
 2456      00
 2457              	.LC32:
 2458 01c4 6AC292FA 		.ascii	"j\302\222\372\2411[M\205\212\263\243\327\325\223:\000"
 2458      A1315B4D 
 2458      858AB3A3 
 2458      D7D5933A 
 2458      00
 2459              	.LC34:
 2460 01d5 4C6F6164 		.ascii	"Loading IKey..\000"
ARM GAS  C:\Users\AHMED~1.ELE\AppData\Local\Temp\ccEeyTbT.s 			page 56


 2460      696E6720 
 2460      494B6579 
 2460      2E2E00
 2461              	.LC35:
 2462 01e4 44554B49 		.ascii	"DUKI Failed!\000"
 2462      20466169 
 2462      6C656421 
 2462      00
 2463              	.LC37:
 2464 01f1 40123456 		.ascii	"@\0224Vx\220\237\377\377\377\000"
 2464      78909FFF 
 2464      FFFF00
 2465              	.LC38:
 2466 01fc 44476574 		.ascii	"DGetPIN Failed!\000"
 2466      50494E20 
 2466      4661696C 
 2466      65642100 
 2467              	.LC39:
 2468 020c 49434320 		.ascii	"ICC TMK INJECT:\000"
 2468      544D4B20 
 2468      494E4A45 
 2468      43543A00 
 2469              	.LC40:
 2470 021c 5B454E54 		.ascii	"[ENTER] - Normal\000"
 2470      45525D20 
 2470      2D204E6F 
 2470      726D616C 
 2470      00
 2471              	.LC41:
 2472 022d 5B434C45 		.ascii	"[CLEAR] - DUKPT\000"
 2472      41525D20 
 2472      2D204455 
 2472      4B505400 
 2473              		.bss
 2474              		.set	.LANCHOR0,. + 0
 2475              		.type	keylen, %object
 2476              		.size	keylen, 1
 2477              	keylen:
 2478 0000 00       		.space	1
 2479              		.type	keysize, %object
 2480              		.size	keysize, 1
 2481              	keysize:
 2482 0001 00       		.space	1
 2483              		.type	dhost_idx, %object
 2484              		.size	dhost_idx, 1
 2485              	dhost_idx:
 2486 0002 00       		.space	1
 2487              		.text
 2488              	.Letext0:
 2489              		.file 2 "c:\\devtools\\gcc_v49_2014q4\\lib\\gcc\\arm-none-eabi\\4.9.3\\include\\stddef.h"
 2490              		.file 3 "../LibA5T1000/common.h"
 2491              		.file 4 "src/constant.h"
 2492              		.file 5 "../LibA5T1000/system.h"
 2493              		.file 6 "../LibA5T1000/midware.h"
 2494              		.file 7 "../LibA5T1000/apm.h"
 2495              		.file 8 "src/sysutil.h"
 2496              		.file 9 "src/corevar.h"
ARM GAS  C:\Users\AHMED~1.ELE\AppData\Local\Temp\ccEeyTbT.s 			page 57


 2497              		.file 10 "src/tranutil.h"
 2498              		.file 11 "../LibA5T1000/key2dll.h"
 2499              		.file 12 "c:\\devtools\\gcc_v49_2014q4\\arm-none-eabi\\include\\string.h"
 2500              		.file 13 "c:\\devtools\\gcc_v49_2014q4\\arm-none-eabi\\include\\stdio.h"
 2501              		.file 14 "../LibA5T1000/util.h"
 2502              		.file 15 "src/hardware.h"