ARM GAS  C:\Users\AHMEDH~1\AppData\Local\Temp\ccooiiWe.s 			page 1


   1              		.syntax unified
   2              		.cpu cortex-a5
   3              		.fpu softvfp
   4              		.eabi_attribute 20, 1
   5              		.eabi_attribute 21, 1
   6              		.eabi_attribute 23, 3
   7              		.eabi_attribute 24, 1
   8              		.eabi_attribute 25, 1
   9              		.eabi_attribute 26, 1
  10              		.eabi_attribute 30, 4
  11              		.eabi_attribute 34, 0
  12              		.eabi_attribute 18, 4
  13              		.thumb
  14              		.file	"libc.c"
  15              		.text
  16              	.Ltext0:
  17              		.cfi_sections	.debug_frame
  18              		.section	.text.printchar,"ax",%progbits
  19              		.align	1
  20              		.thumb
  21              		.thumb_func
  22              		.type	printchar, %function
  23              	printchar:
  24              	.LFB8:
  25              		.file 1 "../LibA5T1000/gcc/libc.c"
   1:../LibA5T1000/gcc/libc.c **** //-----------------------------------------------------------------------------
   2:../LibA5T1000/gcc/libc.c **** //  File          : libc.c                                                     
   3:../LibA5T1000/gcc/libc.c **** //  Module        :                                                            
   4:../LibA5T1000/gcc/libc.c **** //  Description   : Include Function to replace in Libc.
   5:../LibA5T1000/gcc/libc.c **** //  Author        : 
   6:../LibA5T1000/gcc/libc.c **** //  Notes         :                                                            
   7:../LibA5T1000/gcc/libc.c **** //                                                                             
   8:../LibA5T1000/gcc/libc.c **** // ============================================================================
   9:../LibA5T1000/gcc/libc.c **** // | Naming conventions                                                       |
  10:../LibA5T1000/gcc/libc.c **** // | ~~~~~~~~~~~~~~~~~~                                                       |
  11:../LibA5T1000/gcc/libc.c **** // |         Struct/Array : Leading s                                         |
  12:../LibA5T1000/gcc/libc.c **** // |             Constant : Leading K                                         |
  13:../LibA5T1000/gcc/libc.c **** // |      Global Variable : Leading g  (variable use outside one C file)      |
  14:../LibA5T1000/gcc/libc.c **** // |                                                                          |
  15:../LibA5T1000/gcc/libc.c **** // |   BYTE( 8 Bits) size : Leading b                                         |
  16:../LibA5T1000/gcc/libc.c **** // |   CHAR( 8 Bits) size : Leading c                                         |
  17:../LibA5T1000/gcc/libc.c **** // |   WORD(16 Bits) size : Leading w                                         |
  18:../LibA5T1000/gcc/libc.c **** // |  DWORD(32 Bits) size : Leading d                                         |
  19:../LibA5T1000/gcc/libc.c **** // |    int(32 Bits) size : Leading i                                         |
  20:../LibA5T1000/gcc/libc.c **** // | DDWORD(64 Bits) size : Leading dd                                        |
  21:../LibA5T1000/gcc/libc.c **** // |              Pointer : Leading p                                         |
  22:../LibA5T1000/gcc/libc.c **** // |                                                                          |
  23:../LibA5T1000/gcc/libc.c **** // |    Function argument : Leading a                                         |
  24:../LibA5T1000/gcc/libc.c **** // |       Local Variable : All lower case                                    |
  25:../LibA5T1000/gcc/libc.c **** // |                                                                          |
  26:../LibA5T1000/gcc/libc.c **** // | Examples:                                                                |
  27:../LibA5T1000/gcc/libc.c **** // |                Array : Leading s, (sb = arrary of byte, etc)             |
  28:../LibA5T1000/gcc/libc.c **** // |              Pointer : Leading p, (pb = pointer of byte, etc)            |
  29:../LibA5T1000/gcc/libc.c **** // ============================================================================
  30:../LibA5T1000/gcc/libc.c **** //                                                                             
  31:../LibA5T1000/gcc/libc.c **** //  Date          Who         Action                                           
  32:../LibA5T1000/gcc/libc.c **** //  ------------  ----------- -------------------------------------------------
ARM GAS  C:\Users\AHMEDH~1\AppData\Local\Temp\ccooiiWe.s 			page 2


  33:../LibA5T1000/gcc/libc.c **** //  DD MMM  YYYY  main_c      From previous syscalls.c
  34:../LibA5T1000/gcc/libc.c **** //-----------------------------------------------------------------------------
  35:../LibA5T1000/gcc/libc.c **** #include <stdlib.h>
  36:../LibA5T1000/gcc/libc.c **** #include <stdarg.h>
  37:../LibA5T1000/gcc/libc.c **** #include <reent.h>
  38:../LibA5T1000/gcc/libc.c **** #include <sys/stat.h>
  39:../LibA5T1000/gcc/libc.c **** #include "system.h"
  40:../LibA5T1000/gcc/libc.c **** 
  41:../LibA5T1000/gcc/libc.c **** 
  42:../LibA5T1000/gcc/libc.c **** //-----------------------------------------------------------------------------
  43:../LibA5T1000/gcc/libc.c **** // Defines
  44:../LibA5T1000/gcc/libc.c **** //-----------------------------------------------------------------------------
  45:../LibA5T1000/gcc/libc.c **** #define PAD_RIGHT 1
  46:../LibA5T1000/gcc/libc.c **** #define PAD_ZERO  2
  47:../LibA5T1000/gcc/libc.c **** #define STR_LIMIT 4
  48:../LibA5T1000/gcc/libc.c **** /* the following should be enough for 32 bit int */
  49:../LibA5T1000/gcc/libc.c **** #define PRINT_BUF_LEN 12
  50:../LibA5T1000/gcc/libc.c **** 
  51:../LibA5T1000/gcc/libc.c **** _ssize_t _read_r(struct _reent *r, int file, void *ptr, size_t len) 
  52:../LibA5T1000/gcc/libc.c **** {
  53:../LibA5T1000/gcc/libc.c ****   int i, ch;
  54:../LibA5T1000/gcc/libc.c ****   unsigned char *p;
  55:../LibA5T1000/gcc/libc.c ****   
  56:../LibA5T1000/gcc/libc.c ****   p = (unsigned char*)ptr;
  57:../LibA5T1000/gcc/libc.c ****   
  58:../LibA5T1000/gcc/libc.c ****   for (i=0; i<len; i++) {
  59:../LibA5T1000/gcc/libc.c ****     ch = os_kbd_getkey();
  60:../LibA5T1000/gcc/libc.c ****     if (ch == 0) {
  61:../LibA5T1000/gcc/libc.c ****       return(i);
  62:../LibA5T1000/gcc/libc.c ****     }
  63:../LibA5T1000/gcc/libc.c ****     p[i] = ch;
  64:../LibA5T1000/gcc/libc.c ****     os_sleep ();
  65:../LibA5T1000/gcc/libc.c ****   }
  66:../LibA5T1000/gcc/libc.c ****   
  67:../LibA5T1000/gcc/libc.c ****   return(i);
  68:../LibA5T1000/gcc/libc.c **** }
  69:../LibA5T1000/gcc/libc.c **** 
  70:../LibA5T1000/gcc/libc.c **** _ssize_t _write_r (struct _reent *r, int file, const void *ptr, size_t len)
  71:../LibA5T1000/gcc/libc.c **** {
  72:../LibA5T1000/gcc/libc.c ****   int todo; 
  73:../LibA5T1000/gcc/libc.c ****   const unsigned char *p;
  74:../LibA5T1000/gcc/libc.c **** 
  75:../LibA5T1000/gcc/libc.c ****   p = (const unsigned char*) ptr;
  76:../LibA5T1000/gcc/libc.c **** 
  77:../LibA5T1000/gcc/libc.c ****   if (ptr == 0) {  // flush internal buffers
  78:../LibA5T1000/gcc/libc.c ****     return 0;
  79:../LibA5T1000/gcc/libc.c ****   }
  80:../LibA5T1000/gcc/libc.c **** 
  81:../LibA5T1000/gcc/libc.c ****   for (todo = 0; todo < len; todo++) { 
  82:../LibA5T1000/gcc/libc.c ****     os_disp_putc(*p++);    // put to display
  83:../LibA5T1000/gcc/libc.c ****   } 
  84:../LibA5T1000/gcc/libc.c ****   return len; 
  85:../LibA5T1000/gcc/libc.c **** }
  86:../LibA5T1000/gcc/libc.c **** 
  87:../LibA5T1000/gcc/libc.c **** int _close_r(struct _reent *r, int file)
  88:../LibA5T1000/gcc/libc.c **** {
  89:../LibA5T1000/gcc/libc.c ****   return 0;
ARM GAS  C:\Users\AHMEDH~1\AppData\Local\Temp\ccooiiWe.s 			page 3


  90:../LibA5T1000/gcc/libc.c **** }
  91:../LibA5T1000/gcc/libc.c **** 
  92:../LibA5T1000/gcc/libc.c **** _off_t _lseek_r(struct _reent *r, int file, _off_t ptr, int dir)
  93:../LibA5T1000/gcc/libc.c **** {
  94:../LibA5T1000/gcc/libc.c ****   return (_off_t)0;  /*  Always indicate we are at file beginning.  */
  95:../LibA5T1000/gcc/libc.c **** }
  96:../LibA5T1000/gcc/libc.c **** 
  97:../LibA5T1000/gcc/libc.c **** int _fstat_r(struct _reent *r, int file, struct stat *st)
  98:../LibA5T1000/gcc/libc.c **** {
  99:../LibA5T1000/gcc/libc.c ****   /*  Always set as character device.        */
 100:../LibA5T1000/gcc/libc.c ****   st->st_mode = S_IFCHR;
 101:../LibA5T1000/gcc/libc.c **** 
 102:../LibA5T1000/gcc/libc.c ****   /* assigned to strong type with implicit   */
 103:../LibA5T1000/gcc/libc.c ****   /* signed/unsigned conversion.  Required by   */
 104:../LibA5T1000/gcc/libc.c ****   /* newlib.          */
 105:../LibA5T1000/gcc/libc.c ****   return 0;
 106:../LibA5T1000/gcc/libc.c **** }
 107:../LibA5T1000/gcc/libc.c **** 
 108:../LibA5T1000/gcc/libc.c **** int isatty(int file)
 109:../LibA5T1000/gcc/libc.c **** {
 110:../LibA5T1000/gcc/libc.c ****   return 1;
 111:../LibA5T1000/gcc/libc.c **** }
 112:../LibA5T1000/gcc/libc.c **** 
 113:../LibA5T1000/gcc/libc.c **** extern char _end[];             /*  end is set in the linker command   */
 114:../LibA5T1000/gcc/libc.c **** extern char _end_of_bss[];      // PC0711 value from linker
 115:../LibA5T1000/gcc/libc.c ****                                 /* file and is the end of statically   */
 116:../LibA5T1000/gcc/libc.c ****                                 /* allocated data (thus start of heap).  */
 117:../LibA5T1000/gcc/libc.c **** 
 118:../LibA5T1000/gcc/libc.c **** static char *heap_ptr;          /* Points to current end of the heap.  */
 119:../LibA5T1000/gcc/libc.c **** 
 120:../LibA5T1000/gcc/libc.c **** /************************** _sbrk_r *************************************
 121:../LibA5T1000/gcc/libc.c ****  * Support function. Adjusts end of heap to provide more memory to
 122:../LibA5T1000/gcc/libc.c ****  * memory allocator. Simple and dumb with no sanity checks.
 123:../LibA5T1000/gcc/libc.c ****  *  struct _reent *r -- re-entrancy structure, used by newlib to
 124:../LibA5T1000/gcc/libc.c ****  *                      support multiple threads of operation.
 125:../LibA5T1000/gcc/libc.c ****  *  ptrdiff_t nbytes -- number of bytes to add.
 126:../LibA5T1000/gcc/libc.c ****  *                      Returns pointer to start of new heap area.
 127:../LibA5T1000/gcc/libc.c ****  *
 128:../LibA5T1000/gcc/libc.c ****  *  Note:  This implementation is not thread safe (despite taking a
 129:../LibA5T1000/gcc/libc.c ****  *         _reent structure as a parameter).
 130:../LibA5T1000/gcc/libc.c ****  *         Since _s_r is not used in the current implementation, 
 131:../LibA5T1000/gcc/libc.c ****  *         the following messages must be suppressed.
 132:../LibA5T1000/gcc/libc.c ****  */
 133:../LibA5T1000/gcc/libc.c **** void * _sbrk_r(struct _reent *_s_r, ptrdiff_t nbytes)
 134:../LibA5T1000/gcc/libc.c **** {
 135:../LibA5T1000/gcc/libc.c ****   char  *base;    /*  errno should be set to  ENOMEM on error  */
 136:../LibA5T1000/gcc/libc.c **** 
 137:../LibA5T1000/gcc/libc.c ****   if (!heap_ptr) {  /*  Initialize if first time through.  */
 138:../LibA5T1000/gcc/libc.c ****     heap_ptr = _end;
 139:../LibA5T1000/gcc/libc.c ****   }
 140:../LibA5T1000/gcc/libc.c ****   base = heap_ptr;  /*  Point to end of heap.  */
 141:../LibA5T1000/gcc/libc.c ****   heap_ptr += nbytes;  /*  Increase heap.  */
 142:../LibA5T1000/gcc/libc.c **** 
 143:../LibA5T1000/gcc/libc.c ****   //check if overfall
 144:../LibA5T1000/gcc/libc.c ****   if (heap_ptr >= _end_of_bss) {
 145:../LibA5T1000/gcc/libc.c ****     return (caddr_t) -1;
 146:../LibA5T1000/gcc/libc.c ****   }
ARM GAS  C:\Users\AHMEDH~1\AppData\Local\Temp\ccooiiWe.s 			page 4


 147:../LibA5T1000/gcc/libc.c ****   
 148:../LibA5T1000/gcc/libc.c ****   return base;    /*  Return pointer to start of new heap area.  */
 149:../LibA5T1000/gcc/libc.c **** }
 150:../LibA5T1000/gcc/libc.c **** 
 151:../LibA5T1000/gcc/libc.c **** //PC1602 override newlib
 152:../LibA5T1000/gcc/libc.c **** int putchar(int c)
 153:../LibA5T1000/gcc/libc.c **** {
 154:../LibA5T1000/gcc/libc.c ****   os_disp_putc(c);
 155:../LibA5T1000/gcc/libc.c ****   return 1;
 156:../LibA5T1000/gcc/libc.c **** }
 157:../LibA5T1000/gcc/libc.c **** 
 158:../LibA5T1000/gcc/libc.c **** static void printchar(unsigned char **str, int c)
 159:../LibA5T1000/gcc/libc.c **** {
  26              		.loc 1 159 0
  27              		.cfi_startproc
  28              		@ args = 0, pretend = 0, frame = 0
  29              		@ frame_needed = 0, uses_anonymous_args = 0
  30              		@ link register save eliminated.
  31              	.LVL0:
 160:../LibA5T1000/gcc/libc.c ****   if (str) {
  32              		.loc 1 160 0
  33 0000 28B1     		cbz	r0, .L2
 161:../LibA5T1000/gcc/libc.c ****     **str = c;
  34              		.loc 1 161 0
  35 0002 0368     		ldr	r3, [r0]
  36 0004 1970     		strb	r1, [r3]
 162:../LibA5T1000/gcc/libc.c ****     ++(*str);
  37              		.loc 1 162 0
  38 0006 0368     		ldr	r3, [r0]
  39 0008 0133     		adds	r3, r3, #1
  40 000a 0360     		str	r3, [r0]
  41 000c 7047     		bx	lr
  42              	.L2:
 163:../LibA5T1000/gcc/libc.c ****   }
 164:../LibA5T1000/gcc/libc.c ****   else 
 165:../LibA5T1000/gcc/libc.c ****     os_disp_putc(c);
  43              		.loc 1 165 0
  44 000e 1620     		movs	r0, #22
  45              	.LVL1:
  46 0010 FFF7FEBF 		b	sys_func1
  47              	.LVL2:
  48              		.cfi_endproc
  49              	.LFE8:
  50              		.size	printchar, .-printchar
  51              		.section	.text.prints,"ax",%progbits
  52              		.align	1
  53              		.thumb
  54              		.thumb_func
  55              		.type	prints, %function
  56              	prints:
  57              	.LFB9:
 166:../LibA5T1000/gcc/libc.c **** }
 167:../LibA5T1000/gcc/libc.c **** 
 168:../LibA5T1000/gcc/libc.c **** static int prints(unsigned char **out, const unsigned char *string, int width, int pad)
 169:../LibA5T1000/gcc/libc.c **** {
  58              		.loc 1 169 0
  59              		.cfi_startproc
ARM GAS  C:\Users\AHMEDH~1\AppData\Local\Temp\ccooiiWe.s 			page 5


  60              		@ args = 0, pretend = 0, frame = 0
  61              		@ frame_needed = 0, uses_anonymous_args = 0
  62              	.LVL3:
  63 0000 2DE9F047 		push	{r4, r5, r6, r7, r8, r9, r10, lr}
  64              		.cfi_def_cfa_offset 32
  65              		.cfi_offset 4, -32
  66              		.cfi_offset 5, -28
  67              		.cfi_offset 6, -24
  68              		.cfi_offset 7, -20
  69              		.cfi_offset 8, -16
  70              		.cfi_offset 9, -12
  71              		.cfi_offset 10, -8
  72              		.cfi_offset 14, -4
  73              		.loc 1 169 0
  74 0004 1446     		mov	r4, r2
 170:../LibA5T1000/gcc/libc.c ****   register int pc = 0, padchar = ' ';
 171:../LibA5T1000/gcc/libc.c **** 
 172:../LibA5T1000/gcc/libc.c ****   if (!(pad & STR_LIMIT)) {
  75              		.loc 1 172 0
  76 0006 5A07     		lsls	r2, r3, #29
  77              	.LVL4:
 169:../LibA5T1000/gcc/libc.c ****   register int pc = 0, padchar = ' ';
  78              		.loc 1 169 0
  79 0008 0746     		mov	r7, r0
  80              	.LVL5:
  81 000a 0E46     		mov	r6, r1
  82              		.loc 1 172 0
  83 000c 3FD4     		bmi	.L20
  84              	.LVL6:
  85              	.LBB6:
  86              	.LBB7:
 173:../LibA5T1000/gcc/libc.c ****     // normal string output
 174:../LibA5T1000/gcc/libc.c ****     if (width > 0) {
  87              		.loc 1 174 0
  88 000e 002C     		cmp	r4, #0
  89 0010 11DD     		ble	.L21
  90 0012 0A46     		mov	r2, r1
  91              	.LVL7:
  92              	.L9:
  93 0014 901B     		subs	r0, r2, r6
  94              	.LVL8:
  95              	.LBB8:
 175:../LibA5T1000/gcc/libc.c ****       register int len = 0;
 176:../LibA5T1000/gcc/libc.c ****       register const unsigned char *ptr;
 177:../LibA5T1000/gcc/libc.c ****       for (ptr = string; *ptr; ++ptr) ++len;
  96              		.loc 1 177 0
  97 0016 12F8011B 		ldrb	r1, [r2], #1	@ zero_extendqisi2
  98              	.LVL9:
  99 001a 0029     		cmp	r1, #0
 100 001c FAD1     		bne	.L9
 178:../LibA5T1000/gcc/libc.c ****       if (len >= width) 
 101              		.loc 1 178 0
 102 001e A042     		cmp	r0, r4
 179:../LibA5T1000/gcc/libc.c ****         width = 0;
 180:../LibA5T1000/gcc/libc.c ****       else 
 181:../LibA5T1000/gcc/libc.c ****         width -= len;
 103              		.loc 1 181 0
ARM GAS  C:\Users\AHMEDH~1\AppData\Local\Temp\ccooiiWe.s 			page 6


 104 0020 B4BF     		ite	lt
 105 0022 241A     		sublt	r4, r4, r0
 106              	.LVL10:
 179:../LibA5T1000/gcc/libc.c ****         width = 0;
 107              		.loc 1 179 0
 108 0024 0C46     		movge	r4, r1
 109              	.LVL11:
 182:../LibA5T1000/gcc/libc.c ****       if (pad & PAD_ZERO) 
 183:../LibA5T1000/gcc/libc.c ****         padchar = '0';
 110              		.loc 1 183 0
 111 0026 13F0020F 		tst	r3, #2
 112 002a 0CBF     		ite	eq
 113 002c 4FF02008 		moveq	r8, #32
 114 0030 4FF03008 		movne	r8, #48
 115 0034 01E0     		b	.L8
 116              	.LVL12:
 117              	.L21:
 118              	.LBE8:
 170:../LibA5T1000/gcc/libc.c **** 
 119              		.loc 1 170 0
 120 0036 4FF02008 		mov	r8, #32
 121              	.LVL13:
 122              	.L8:
 184:../LibA5T1000/gcc/libc.c ****     }
 185:../LibA5T1000/gcc/libc.c ****     if (!(pad & PAD_RIGHT)) {
 123              		.loc 1 185 0
 124 003a DB07     		lsls	r3, r3, #31
 125              	.LVL14:
 126 003c 0DD4     		bmi	.L24
 127 003e 2546     		mov	r5, r4
 128              	.LVL15:
 129              	.L12:
 186:../LibA5T1000/gcc/libc.c ****       for ( ; width > 0; --width) {
 130              		.loc 1 186 0
 131 0040 002D     		cmp	r5, #0
 132 0042 05DD     		ble	.L29
 187:../LibA5T1000/gcc/libc.c ****         printchar (out, padchar);
 133              		.loc 1 187 0
 134 0044 3846     		mov	r0, r7
 135 0046 4146     		mov	r1, r8
 136 0048 FFF7FEFF 		bl	printchar
 137              	.LVL16:
 186:../LibA5T1000/gcc/libc.c ****       for ( ; width > 0; --width) {
 138              		.loc 1 186 0
 139 004c 013D     		subs	r5, r5, #1
 140              	.LVL17:
 141 004e F7E7     		b	.L12
 142              	.L29:
 143 0050 24EAE47A 		bic	r10, r4, r4, asr #31
 144 0054 CAEB0404 		rsb	r4, r10, r4
 145 0058 01E0     		b	.L11
 146              	.LVL18:
 147              	.L24:
 170:../LibA5T1000/gcc/libc.c **** 
 148              		.loc 1 170 0
 149 005a 4FF0000A 		mov	r10, #0
 150              	.LVL19:
ARM GAS  C:\Users\AHMEDH~1\AppData\Local\Temp\ccooiiWe.s 			page 7


 151              	.L11:
 152 005e B146     		mov	r9, r6
 153              	.LVL20:
 154              	.L14:
 155 0060 C6EB0A05 		rsb	r5, r6, r10
 156 0064 4D44     		add	r5, r5, r9
 157              	.LVL21:
 188:../LibA5T1000/gcc/libc.c ****         ++pc;
 189:../LibA5T1000/gcc/libc.c ****       }
 190:../LibA5T1000/gcc/libc.c ****     }
 191:../LibA5T1000/gcc/libc.c ****     for ( ; *string ; ++string) {
 158              		.loc 1 191 0
 159 0066 19F8011B 		ldrb	r1, [r9], #1	@ zero_extendqisi2
 160              	.LVL22:
 161 006a 19B1     		cbz	r1, .L30
 192:../LibA5T1000/gcc/libc.c ****       printchar (out, *string);
 162              		.loc 1 192 0
 163 006c 3846     		mov	r0, r7
 164 006e FFF7FEFF 		bl	printchar
 165              	.LVL23:
 166 0072 F5E7     		b	.L14
 167              	.LVL24:
 168              	.L30:
 191:../LibA5T1000/gcc/libc.c ****       printchar (out, *string);
 169              		.loc 1 191 0
 170 0074 2646     		mov	r6, r4
 171              	.LVL25:
 172              	.L16:
 193:../LibA5T1000/gcc/libc.c ****       ++pc;
 194:../LibA5T1000/gcc/libc.c ****     }
 195:../LibA5T1000/gcc/libc.c ****     for ( ; width > 0; --width) {
 173              		.loc 1 195 0
 174 0076 002E     		cmp	r6, #0
 175 0078 05DD     		ble	.L31
 196:../LibA5T1000/gcc/libc.c ****       printchar (out, padchar);
 176              		.loc 1 196 0
 177 007a 3846     		mov	r0, r7
 178 007c 4146     		mov	r1, r8
 179 007e FFF7FEFF 		bl	printchar
 180              	.LVL26:
 195:../LibA5T1000/gcc/libc.c ****       printchar (out, padchar);
 181              		.loc 1 195 0
 182 0082 013E     		subs	r6, r6, #1
 183              	.LVL27:
 184 0084 F7E7     		b	.L16
 185              	.L31:
 186 0086 002C     		cmp	r4, #0
 187 0088 A8BF     		it	ge
 188 008a 2D19     		addge	r5, r5, r4
 189 008c 0AE0     		b	.L18
 190              	.LVL28:
 191              	.L20:
 192              	.LBE7:
 193              	.LBE6:
 194 008e 0025     		movs	r5, #0
 195              	.LVL29:
 196              	.L7:
ARM GAS  C:\Users\AHMEDH~1\AppData\Local\Temp\ccooiiWe.s 			page 8


 197:../LibA5T1000/gcc/libc.c ****       ++pc;
 198:../LibA5T1000/gcc/libc.c ****     }
 199:../LibA5T1000/gcc/libc.c ****   }
 200:../LibA5T1000/gcc/libc.c ****   else {
 201:../LibA5T1000/gcc/libc.c ****     // limited string output
 202:../LibA5T1000/gcc/libc.c ****     for ( ; *string && (width>0); ++string, --width) {
 197              		.loc 1 202 0 discriminator 1
 198 0090 715D     		ldrb	r1, [r6, r5]	@ zero_extendqisi2
 199 0092 39B1     		cbz	r1, .L18
 200 0094 631B     		subs	r3, r4, r5
 201              		.loc 1 202 0 is_stmt 0 discriminator 2
 202 0096 002B     		cmp	r3, #0
 203 0098 04DD     		ble	.L18
 203:../LibA5T1000/gcc/libc.c ****       printchar (out, *string);
 204              		.loc 1 203 0 is_stmt 1 discriminator 3
 205 009a 3846     		mov	r0, r7
 206 009c FFF7FEFF 		bl	printchar
 207              	.LVL30:
 204:../LibA5T1000/gcc/libc.c ****       ++pc;
 208              		.loc 1 204 0 discriminator 3
 209 00a0 0135     		adds	r5, r5, #1
 210              	.LVL31:
 211 00a2 F5E7     		b	.L7
 212              	.LVL32:
 213              	.L18:
 205:../LibA5T1000/gcc/libc.c ****     }
 206:../LibA5T1000/gcc/libc.c ****   }
 207:../LibA5T1000/gcc/libc.c **** 
 208:../LibA5T1000/gcc/libc.c ****   return pc;
 209:../LibA5T1000/gcc/libc.c **** }
 214              		.loc 1 209 0
 215 00a4 2846     		mov	r0, r5
 216 00a6 BDE8F087 		pop	{r4, r5, r6, r7, r8, r9, r10, pc}
 217              		.cfi_endproc
 218              	.LFE9:
 219              		.size	prints, .-prints
 220              		.global	__aeabi_uidivmod
 221              		.global	__aeabi_uidiv
 222              		.section	.text.printi,"ax",%progbits
 223              		.align	1
 224              		.thumb
 225              		.thumb_func
 226              		.type	printi, %function
 227              	printi:
 228              	.LFB10:
 210:../LibA5T1000/gcc/libc.c **** 
 211:../LibA5T1000/gcc/libc.c **** static int printi(unsigned char **out, int i, int b, int sg, int width, int pad, int letbase)
 212:../LibA5T1000/gcc/libc.c **** {
 229              		.loc 1 212 0
 230              		.cfi_startproc
 231              		@ args = 12, pretend = 0, frame = 16
 232              		@ frame_needed = 0, uses_anonymous_args = 0
 233              	.LVL33:
 234 0000 2DE9FF4B 		push	{r0, r1, r2, r3, r4, r5, r6, r7, r8, r9, fp, lr}
 235              		.cfi_def_cfa_offset 48
 236              		.cfi_offset 4, -32
 237              		.cfi_offset 5, -28
ARM GAS  C:\Users\AHMEDH~1\AppData\Local\Temp\ccooiiWe.s 			page 9


 238              		.cfi_offset 6, -24
 239              		.cfi_offset 7, -20
 240              		.cfi_offset 8, -16
 241              		.cfi_offset 9, -12
 242              		.cfi_offset 11, -8
 243              		.cfi_offset 14, -4
 244              		.loc 1 212 0
 245 0004 8046     		mov	r8, r0
 246 0006 9146     		mov	r9, r2
 247 0008 0C9E     		ldr	r6, [sp, #48]
 248 000a 0D9F     		ldr	r7, [sp, #52]
 213:../LibA5T1000/gcc/libc.c ****   unsigned char print_buf[PRINT_BUF_LEN];
 214:../LibA5T1000/gcc/libc.c ****   register unsigned char *s;
 215:../LibA5T1000/gcc/libc.c ****   register int t, neg = 0, pc = 0;
 216:../LibA5T1000/gcc/libc.c ****   register unsigned int u = i;
 249              		.loc 1 216 0
 250 000c 0D46     		mov	r5, r1
 251              	.LVL34:
 217:../LibA5T1000/gcc/libc.c ****   
 218:../LibA5T1000/gcc/libc.c ****   if (i == 0) {
 252              		.loc 1 218 0
 253 000e 51B9     		cbnz	r1, .L33
 219:../LibA5T1000/gcc/libc.c ****     print_buf[0] = '0';
 254              		.loc 1 219 0
 255 0010 3023     		movs	r3, #48
 256              	.LVL35:
 220:../LibA5T1000/gcc/libc.c ****     print_buf[1] = '\0';
 257              		.loc 1 220 0
 258 0012 8DF80510 		strb	r1, [sp, #5]
 219:../LibA5T1000/gcc/libc.c ****     print_buf[0] = '0';
 259              		.loc 1 219 0
 260 0016 8DF80430 		strb	r3, [sp, #4]
 221:../LibA5T1000/gcc/libc.c ****     return prints (out, print_buf, width, pad);
 261              		.loc 1 221 0
 262 001a 01A9     		add	r1, sp, #4
 263              	.LVL36:
 264 001c 3246     		mov	r2, r6
 265              	.LVL37:
 266 001e 3B46     		mov	r3, r7
 267 0020 FFF7FEFF 		bl	prints
 268              	.LVL38:
 269 0024 39E0     		b	.L34
 270              	.LVL39:
 271              	.L33:
 222:../LibA5T1000/gcc/libc.c ****   }
 223:../LibA5T1000/gcc/libc.c ****   
 224:../LibA5T1000/gcc/libc.c ****   if (sg && b == 10 && i < 0) {
 272              		.loc 1 224 0
 273 0026 33B1     		cbz	r3, .L43
 274              		.loc 1 224 0 is_stmt 0 discriminator 1
 275 0028 0A2A     		cmp	r2, #10
 276 002a 04D1     		bne	.L43
 277              		.loc 1 224 0 discriminator 2
 278 002c 0029     		cmp	r1, #0
 279 002e 02DA     		bge	.L43
 280              	.LVL40:
 225:../LibA5T1000/gcc/libc.c ****     neg = 1;
ARM GAS  C:\Users\AHMEDH~1\AppData\Local\Temp\ccooiiWe.s 			page 10


 226:../LibA5T1000/gcc/libc.c ****     u = -i;
 281              		.loc 1 226 0 is_stmt 1
 282 0030 4D42     		negs	r5, r1
 283              	.LVL41:
 225:../LibA5T1000/gcc/libc.c ****     neg = 1;
 284              		.loc 1 225 0
 285 0032 0124     		movs	r4, #1
 286 0034 00E0     		b	.L35
 287              	.LVL42:
 288              	.L43:
 215:../LibA5T1000/gcc/libc.c ****   register unsigned int u = i;
 289              		.loc 1 215 0
 290 0036 0024     		movs	r4, #0
 291              	.LVL43:
 292              	.L35:
 227:../LibA5T1000/gcc/libc.c ****   }
 228:../LibA5T1000/gcc/libc.c ****   
 229:../LibA5T1000/gcc/libc.c ****   s = print_buf + PRINT_BUF_LEN-1;
 230:../LibA5T1000/gcc/libc.c ****   *s = '\0';
 293              		.loc 1 230 0
 294 0038 0DF1100B 		add	fp, sp, #16
 295 003c 0023     		movs	r3, #0
 296              	.LVL44:
 297 003e 0BF8013D 		strb	r3, [fp, #-1]!
 298              	.LVL45:
 299              	.L36:
 231:../LibA5T1000/gcc/libc.c ****   
 232:../LibA5T1000/gcc/libc.c ****   while (u) {
 300              		.loc 1 232 0
 301 0042 8DB1     		cbz	r5, .L51
 233:../LibA5T1000/gcc/libc.c ****     t = u % b;
 302              		.loc 1 233 0
 303 0044 2846     		mov	r0, r5
 304 0046 4946     		mov	r1, r9
 305 0048 FFF7FEFF 		bl	__aeabi_uidivmod
 306              	.LVL46:
 234:../LibA5T1000/gcc/libc.c ****     if ( t >= 10 )
 235:../LibA5T1000/gcc/libc.c ****       t += letbase - '0' - 10;
 236:../LibA5T1000/gcc/libc.c ****     *--s = t + '0';
 237:../LibA5T1000/gcc/libc.c ****     u /= b;
 307              		.loc 1 237 0
 308 004c 2846     		mov	r0, r5
 234:../LibA5T1000/gcc/libc.c ****     if ( t >= 10 )
 309              		.loc 1 234 0
 310 004e 0929     		cmp	r1, #9
 235:../LibA5T1000/gcc/libc.c ****     *--s = t + '0';
 311              		.loc 1 235 0
 312 0050 C2BF     		ittt	gt
 313 0052 0E9B     		ldrgt	r3, [sp, #56]
 314 0054 3A3B     		subgt	r3, r3, #58
 315 0056 C918     		addgt	r1, r1, r3
 316              	.LVL47:
 236:../LibA5T1000/gcc/libc.c ****     u /= b;
 317              		.loc 1 236 0
 318 0058 3031     		adds	r1, r1, #48
 319              	.LVL48:
 320 005a 0BF8011D 		strb	r1, [fp, #-1]!
ARM GAS  C:\Users\AHMEDH~1\AppData\Local\Temp\ccooiiWe.s 			page 11


 321              	.LVL49:
 322              		.loc 1 237 0
 323 005e 4946     		mov	r1, r9
 324              	.LVL50:
 325 0060 FFF7FEFF 		bl	__aeabi_uidiv
 326              	.LVL51:
 327 0064 0546     		mov	r5, r0
 328              	.LVL52:
 329 0066 ECE7     		b	.L36
 330              	.LVL53:
 331              	.L51:
 332 0068 5B46     		mov	r3, fp
 238:../LibA5T1000/gcc/libc.c ****   }
 239:../LibA5T1000/gcc/libc.c ****   
 240:../LibA5T1000/gcc/libc.c ****   if (neg) {
 333              		.loc 1 240 0
 334 006a 7CB1     		cbz	r4, .L39
 335              	.LVL54:
 241:../LibA5T1000/gcc/libc.c ****     if ( width && (pad & PAD_ZERO) ) {
 336              		.loc 1 241 0
 337 006c 46B1     		cbz	r6, .L40
 338              		.loc 1 241 0 is_stmt 0 discriminator 1
 339 006e BA07     		lsls	r2, r7, #30
 340 0070 06D5     		bpl	.L40
 242:../LibA5T1000/gcc/libc.c ****       printchar (out, '-');
 341              		.loc 1 242 0 is_stmt 1
 342 0072 4046     		mov	r0, r8
 343 0074 2D21     		movs	r1, #45
 344 0076 FFF7FEFF 		bl	printchar
 345              	.LVL55:
 243:../LibA5T1000/gcc/libc.c ****       ++pc;
 244:../LibA5T1000/gcc/libc.c ****       --width;
 346              		.loc 1 244 0
 347 007a 013E     		subs	r6, r6, #1
 348              	.LVL56:
 243:../LibA5T1000/gcc/libc.c ****       ++pc;
 349              		.loc 1 243 0
 350 007c 0124     		movs	r4, #1
 351              	.LVL57:
 352              		.loc 1 244 0
 353 007e 05E0     		b	.L39
 354              	.LVL58:
 355              	.L40:
 245:../LibA5T1000/gcc/libc.c ****     }
 246:../LibA5T1000/gcc/libc.c ****     else {
 247:../LibA5T1000/gcc/libc.c ****       *--s = '-';
 356              		.loc 1 247 0
 357 0080 2D22     		movs	r2, #45
 358 0082 0BF1FF3B 		add	fp, fp, #-1
 359              	.LVL59:
 215:../LibA5T1000/gcc/libc.c ****   register unsigned int u = i;
 360              		.loc 1 215 0
 361 0086 0024     		movs	r4, #0
 362              	.LVL60:
 363              		.loc 1 247 0
 364 0088 03F8012C 		strb	r2, [r3, #-1]
 365              	.LVL61:
ARM GAS  C:\Users\AHMEDH~1\AppData\Local\Temp\ccooiiWe.s 			page 12


 366              	.L39:
 248:../LibA5T1000/gcc/libc.c ****     }
 249:../LibA5T1000/gcc/libc.c ****   }
 250:../LibA5T1000/gcc/libc.c ****   
 251:../LibA5T1000/gcc/libc.c ****   return pc + prints (out, s, width, pad);
 367              		.loc 1 251 0
 368 008c 4046     		mov	r0, r8
 369 008e 5946     		mov	r1, fp
 370 0090 3246     		mov	r2, r6
 371 0092 3B46     		mov	r3, r7
 372 0094 FFF7FEFF 		bl	prints
 373              	.LVL62:
 374 0098 2044     		add	r0, r0, r4
 375              	.LVL63:
 376              	.L34:
 252:../LibA5T1000/gcc/libc.c **** }
 377              		.loc 1 252 0
 378 009a 04B0     		add	sp, sp, #16
 379              		.cfi_def_cfa_offset 32
 380              		@ sp needed
 381 009c BDE8F08B 		pop	{r4, r5, r6, r7, r8, r9, fp, pc}
 382              		.cfi_endproc
 383              	.LFE10:
 384              		.size	printi, .-printi
 385              		.global	__aeabi_dcmpeq
 386              		.global	__aeabi_l2d
 387              		.global	__aeabi_ddiv
 388              		.global	__aeabi_dadd
 389              		.global	__aeabi_dmul
 390              		.global	__aeabi_d2lz
 391              		.global	__aeabi_ldivmod
 392              		.section	.text.print,"ax",%progbits
 393              		.align	1
 394              		.thumb
 395              		.thumb_func
 396              		.type	print, %function
 397              	print:
 398              	.LFB12:
 253:../LibA5T1000/gcc/libc.c **** 
 254:../LibA5T1000/gcc/libc.c **** static int printi_f(unsigned char **out, double f, int decpt)
 255:../LibA5T1000/gcc/libc.c **** {
 256:../LibA5T1000/gcc/libc.c ****   unsigned char print_buf[PRINT_BUF_LEN];
 257:../LibA5T1000/gcc/libc.c ****   register unsigned char *s;
 258:../LibA5T1000/gcc/libc.c ****   register int t=0, neg=0, pad, dot=0;
 259:../LibA5T1000/gcc/libc.c ****   long long u, exp=1;
 260:../LibA5T1000/gcc/libc.c ****   //float ff = (float)f;
 261:../LibA5T1000/gcc/libc.c ****   double ff = f;
 262:../LibA5T1000/gcc/libc.c ****   register unsigned char *pf;
 263:../LibA5T1000/gcc/libc.c **** 
 264:../LibA5T1000/gcc/libc.c ****   if (ff == 0) {
 265:../LibA5T1000/gcc/libc.c ****     print_buf[t++] = '0';
 266:../LibA5T1000/gcc/libc.c ****     if (decpt)
 267:../LibA5T1000/gcc/libc.c ****       print_buf[t++] = '.';
 268:../LibA5T1000/gcc/libc.c ****     print_buf[t] = '\0';
 269:../LibA5T1000/gcc/libc.c ****     pad = PAD_RIGHT | PAD_ZERO;
 270:../LibA5T1000/gcc/libc.c ****     return prints (out, print_buf, decpt+t, pad);
 271:../LibA5T1000/gcc/libc.c ****   }
ARM GAS  C:\Users\AHMEDH~1\AppData\Local\Temp\ccooiiWe.s 			page 13


 272:../LibA5T1000/gcc/libc.c **** 
 273:../LibA5T1000/gcc/libc.c ****   // clear the signed bit in the floating point no. (little endian)
 274:../LibA5T1000/gcc/libc.c ****   pf = (unsigned char *)&ff;
 275:../LibA5T1000/gcc/libc.c ****   if (sizeof(double) == 8) {
 276:../LibA5T1000/gcc/libc.c ****     // for GCC compiler
 277:../LibA5T1000/gcc/libc.c ****     if (pf[7] & 0x80) {
 278:../LibA5T1000/gcc/libc.c ****       neg = 1;
 279:../LibA5T1000/gcc/libc.c ****       pf[7] &= 0x7F;
 280:../LibA5T1000/gcc/libc.c ****     }
 281:../LibA5T1000/gcc/libc.c ****   }
 282:../LibA5T1000/gcc/libc.c ****   else if (sizeof(double) == 4) {
 283:../LibA5T1000/gcc/libc.c ****     // for Yagarto compiler
 284:../LibA5T1000/gcc/libc.c ****     if (pf[3] & 0x80) {
 285:../LibA5T1000/gcc/libc.c ****       neg = 1;
 286:../LibA5T1000/gcc/libc.c ****       pf[3] &= 0x7F;
 287:../LibA5T1000/gcc/libc.c ****     }
 288:../LibA5T1000/gcc/libc.c ****   }
 289:../LibA5T1000/gcc/libc.c **** 
 290:../LibA5T1000/gcc/libc.c ****   s = print_buf + PRINT_BUF_LEN-1;
 291:../LibA5T1000/gcc/libc.c ****   *s = '\0';
 292:../LibA5T1000/gcc/libc.c **** 
 293:../LibA5T1000/gcc/libc.c ****   t = decpt;
 294:../LibA5T1000/gcc/libc.c ****   while (t--)
 295:../LibA5T1000/gcc/libc.c ****     exp *= 10;
 296:../LibA5T1000/gcc/libc.c ****   ff += (0.1 / exp);    // output tuning
 297:../LibA5T1000/gcc/libc.c ****   u = ff * exp;         // convert to normal long long
 298:../LibA5T1000/gcc/libc.c **** 
 299:../LibA5T1000/gcc/libc.c ****   while (1) {
 300:../LibA5T1000/gcc/libc.c ****     // exit if value=0 AND '.' is printed or decpt=0
 301:../LibA5T1000/gcc/libc.c ****     if (!u && ((decpt && dot) || !decpt))
 302:../LibA5T1000/gcc/libc.c ****       break;
 303:../LibA5T1000/gcc/libc.c ****     t = u % 10;
 304:../LibA5T1000/gcc/libc.c ****     *--s = t + '0';
 305:../LibA5T1000/gcc/libc.c ****     // display '.' for decpt > 0 only
 306:../LibA5T1000/gcc/libc.c ****     if((print_buf+PRINT_BUF_LEN-1-s) == decpt) {
 307:../LibA5T1000/gcc/libc.c ****       *--s = '.';
 308:../LibA5T1000/gcc/libc.c ****       dot = 1;
 309:../LibA5T1000/gcc/libc.c ****       if ((u / 10) == 0) {
 310:../LibA5T1000/gcc/libc.c ****         *--s = '0';
 311:../LibA5T1000/gcc/libc.c ****         break;
 312:../LibA5T1000/gcc/libc.c ****       }
 313:../LibA5T1000/gcc/libc.c ****     }
 314:../LibA5T1000/gcc/libc.c ****     u /= 10;
 315:../LibA5T1000/gcc/libc.c ****   }
 316:../LibA5T1000/gcc/libc.c **** 
 317:../LibA5T1000/gcc/libc.c ****   if (neg)
 318:../LibA5T1000/gcc/libc.c ****     *--s = '-';
 319:../LibA5T1000/gcc/libc.c **** 
 320:../LibA5T1000/gcc/libc.c ****   return prints (out, s, 0, 0);
 321:../LibA5T1000/gcc/libc.c **** }
 322:../LibA5T1000/gcc/libc.c **** 
 323:../LibA5T1000/gcc/libc.c **** static int print(unsigned char **out, const unsigned char *format, va_list args )
 324:../LibA5T1000/gcc/libc.c **** {
 399              		.loc 1 324 0
 400              		.cfi_startproc
 401              		@ args = 0, pretend = 0, frame = 48
 402              		@ frame_needed = 0, uses_anonymous_args = 0
ARM GAS  C:\Users\AHMEDH~1\AppData\Local\Temp\ccooiiWe.s 			page 14


 403              	.LVL64:
 404 0000 2DE9F04F 		push	{r4, r5, r6, r7, r8, r9, r10, fp, lr}
 405              		.cfi_def_cfa_offset 36
 406              		.cfi_offset 4, -36
 407              		.cfi_offset 5, -32
 408              		.cfi_offset 6, -28
 409              		.cfi_offset 7, -24
 410              		.cfi_offset 8, -20
 411              		.cfi_offset 9, -16
 412              		.cfi_offset 10, -12
 413              		.cfi_offset 11, -8
 414              		.cfi_offset 14, -4
 415 0004 0646     		mov	r6, r0
 416 0006 91B0     		sub	sp, sp, #68
 417              		.cfi_def_cfa_offset 104
 418              		.loc 1 324 0
 419 0008 0F46     		mov	r7, r1
 325:../LibA5T1000/gcc/libc.c ****   register int width, pad, decpt;
 326:../LibA5T1000/gcc/libc.c ****   register int pc = 0;
 420              		.loc 1 326 0
 421 000a 0024     		movs	r4, #0
 324:../LibA5T1000/gcc/libc.c ****   register int width, pad, decpt;
 422              		.loc 1 324 0
 423 000c 0792     		str	r2, [sp, #28]
 424              	.LVL65:
 425              	.L53:
 327:../LibA5T1000/gcc/libc.c ****   unsigned char scr[2];
 328:../LibA5T1000/gcc/libc.c **** 
 329:../LibA5T1000/gcc/libc.c ****   for (; *format != 0; ++format) {
 426              		.loc 1 329 0 discriminator 1
 427 000e 3B78     		ldrb	r3, [r7]	@ zero_extendqisi2
 428 0010 2BB1     		cbz	r3, .L88
 330:../LibA5T1000/gcc/libc.c ****     if (*format == '%') {
 429              		.loc 1 330 0
 430 0012 252B     		cmp	r3, #37
 431 0014 40F04081 		bne	.L54
 331:../LibA5T1000/gcc/libc.c ****       ++format;
 332:../LibA5T1000/gcc/libc.c ****       width = pad = 0;
 333:../LibA5T1000/gcc/libc.c ****       decpt = 2;    // default decimal point is 2
 334:../LibA5T1000/gcc/libc.c ****       if (*format == '\0') break;
 432              		.loc 1 334 0
 433 0018 7B78     		ldrb	r3, [r7, #1]	@ zero_extendqisi2
 331:../LibA5T1000/gcc/libc.c ****       ++format;
 434              		.loc 1 331 0
 435 001a 7A1C     		adds	r2, r7, #1
 436              	.LVL66:
 437              		.loc 1 334 0
 438 001c 33B9     		cbnz	r3, .L55
 439              	.LVL67:
 440              	.L88:
 335:../LibA5T1000/gcc/libc.c ****       if (*format == '%') goto out;
 336:../LibA5T1000/gcc/libc.c ****       if (*format == '-') {
 337:../LibA5T1000/gcc/libc.c ****         ++format;
 338:../LibA5T1000/gcc/libc.c ****         pad = PAD_RIGHT;
 339:../LibA5T1000/gcc/libc.c ****       }
 340:../LibA5T1000/gcc/libc.c ****       if (*format == '.') {
 341:../LibA5T1000/gcc/libc.c ****         ++format;
ARM GAS  C:\Users\AHMEDH~1\AppData\Local\Temp\ccooiiWe.s 			page 15


 342:../LibA5T1000/gcc/libc.c ****         if (*(format+1) == 'f') {
 343:../LibA5T1000/gcc/libc.c ****           decpt = *format - '0';
 344:../LibA5T1000/gcc/libc.c ****           if (decpt > 7)
 345:../LibA5T1000/gcc/libc.c ****             decpt = 7;
 346:../LibA5T1000/gcc/libc.c ****           ++format;
 347:../LibA5T1000/gcc/libc.c ****         }
 348:../LibA5T1000/gcc/libc.c ****         if (*(format+1) == 's')
 349:../LibA5T1000/gcc/libc.c ****           pad |= STR_LIMIT;
 350:../LibA5T1000/gcc/libc.c ****       }
 351:../LibA5T1000/gcc/libc.c ****       while (*format == '0') {
 352:../LibA5T1000/gcc/libc.c ****         ++format;
 353:../LibA5T1000/gcc/libc.c ****         pad |= PAD_ZERO;
 354:../LibA5T1000/gcc/libc.c ****      }
 355:../LibA5T1000/gcc/libc.c ****       for ( ; *format >= '0' && *format <= '9'; ++format) {
 356:../LibA5T1000/gcc/libc.c ****         width *= 10;
 357:../LibA5T1000/gcc/libc.c ****         width += *format - '0';
 358:../LibA5T1000/gcc/libc.c ****       }
 359:../LibA5T1000/gcc/libc.c ****       if ( *format == 's' ) {
 360:../LibA5T1000/gcc/libc.c ****         register char *s = (char *)va_arg( args, int );
 361:../LibA5T1000/gcc/libc.c ****         pc += prints (out, s?s:"(null)", width, pad);
 362:../LibA5T1000/gcc/libc.c ****         continue;
 363:../LibA5T1000/gcc/libc.c ****       }
 364:../LibA5T1000/gcc/libc.c ****       if (( *format == 'd' )||( *format == 'i' )) {
 365:../LibA5T1000/gcc/libc.c ****         pc += printi (out, va_arg( args, int ), 10, 1, width, pad, 'a');
 366:../LibA5T1000/gcc/libc.c ****         continue;
 367:../LibA5T1000/gcc/libc.c ****       }
 368:../LibA5T1000/gcc/libc.c ****       if ( *format == 'x' ) {
 369:../LibA5T1000/gcc/libc.c ****         pc += printi (out, va_arg( args, int ), 16, 0, width, pad, 'a');
 370:../LibA5T1000/gcc/libc.c ****         continue;
 371:../LibA5T1000/gcc/libc.c ****       }
 372:../LibA5T1000/gcc/libc.c ****       if ( *format == 'X' ) {
 373:../LibA5T1000/gcc/libc.c ****         pc += printi (out, va_arg( args, int ), 16, 0, width, pad, 'A');
 374:../LibA5T1000/gcc/libc.c ****         continue;
 375:../LibA5T1000/gcc/libc.c ****       }
 376:../LibA5T1000/gcc/libc.c ****       if ( *format == 'u' ) {
 377:../LibA5T1000/gcc/libc.c ****         pc += printi (out, va_arg( args, int ), 10, 0, width, pad, 'a');
 378:../LibA5T1000/gcc/libc.c ****         continue;
 379:../LibA5T1000/gcc/libc.c ****       }
 380:../LibA5T1000/gcc/libc.c ****       if ( *format == 'c' ) {
 381:../LibA5T1000/gcc/libc.c ****         /* char are converted to int then pushed on the stack */
 382:../LibA5T1000/gcc/libc.c ****         scr[0] = (unsigned char)va_arg( args, int );
 383:../LibA5T1000/gcc/libc.c ****         scr[1] = '\0';
 384:../LibA5T1000/gcc/libc.c ****         pc += prints (out, scr, width, pad);
 385:../LibA5T1000/gcc/libc.c ****         continue;
 386:../LibA5T1000/gcc/libc.c ****       }
 387:../LibA5T1000/gcc/libc.c ****       if( *format == 'f' ) {
 388:../LibA5T1000/gcc/libc.c ****         pc += printi_f (out, va_arg( args, double ), decpt);
 389:../LibA5T1000/gcc/libc.c ****         continue;
 390:../LibA5T1000/gcc/libc.c ****       }
 391:../LibA5T1000/gcc/libc.c ****     }
 392:../LibA5T1000/gcc/libc.c ****     else {
 393:../LibA5T1000/gcc/libc.c ****       out:
 394:../LibA5T1000/gcc/libc.c ****       printchar (out, *format);
 395:../LibA5T1000/gcc/libc.c ****       ++pc;
 396:../LibA5T1000/gcc/libc.c ****     }
 397:../LibA5T1000/gcc/libc.c ****   }
 398:../LibA5T1000/gcc/libc.c ****   if (out) 
ARM GAS  C:\Users\AHMEDH~1\AppData\Local\Temp\ccooiiWe.s 			page 16


 441              		.loc 1 398 0
 442 001e 002E     		cmp	r6, #0
 443 0020 00F04181 		beq	.L57
 399:../LibA5T1000/gcc/libc.c ****     **out = '\0';
 444              		.loc 1 399 0
 445 0024 3368     		ldr	r3, [r6]
 446 0026 0022     		movs	r2, #0
 447 0028 1A70     		strb	r2, [r3]
 448 002a 3CE1     		b	.L57
 449              	.LVL68:
 450              	.L55:
 335:../LibA5T1000/gcc/libc.c ****       if (*format == '%') goto out;
 451              		.loc 1 335 0
 452 002c 252B     		cmp	r3, #37
 453 002e 00F03281 		beq	.L89
 336:../LibA5T1000/gcc/libc.c ****         ++format;
 454              		.loc 1 336 0
 455 0032 2D2B     		cmp	r3, #45
 337:../LibA5T1000/gcc/libc.c ****         pad = PAD_RIGHT;
 456              		.loc 1 337 0
 457 0034 04BF     		itt	eq
 458 0036 BA1C     		addeq	r2, r7, #2
 459              	.LVL69:
 338:../LibA5T1000/gcc/libc.c ****       }
 460              		.loc 1 338 0
 461 0038 0123     		moveq	r3, #1
 340:../LibA5T1000/gcc/libc.c ****         ++format;
 462              		.loc 1 340 0
 463 003a 1178     		ldrb	r1, [r2]	@ zero_extendqisi2
 332:../LibA5T1000/gcc/libc.c ****       decpt = 2;    // default decimal point is 2
 464              		.loc 1 332 0
 465 003c 18BF     		it	ne
 466 003e 0023     		movne	r3, #0
 467              	.LVL70:
 340:../LibA5T1000/gcc/libc.c ****         ++format;
 468              		.loc 1 340 0
 469 0040 2E29     		cmp	r1, #46
 470 0042 16D1     		bne	.L91
 471              	.LVL71:
 342:../LibA5T1000/gcc/libc.c ****           decpt = *format - '0';
 472              		.loc 1 342 0
 473 0044 9178     		ldrb	r1, [r2, #2]	@ zero_extendqisi2
 474 0046 6629     		cmp	r1, #102
 475 0048 03D0     		beq	.L60
 341:../LibA5T1000/gcc/libc.c ****         if (*(format+1) == 'f') {
 476              		.loc 1 341 0
 477 004a 0132     		adds	r2, r2, #1
 478              	.LVL72:
 333:../LibA5T1000/gcc/libc.c ****       if (*format == '\0') break;
 479              		.loc 1 333 0
 480 004c 4FF0020A 		mov	r10, #2
 481 0050 09E0     		b	.L61
 482              	.LVL73:
 483              	.L60:
 343:../LibA5T1000/gcc/libc.c ****           if (decpt > 7)
 484              		.loc 1 343 0
 485 0052 92F801A0 		ldrb	r10, [r2, #1]	@ zero_extendqisi2
ARM GAS  C:\Users\AHMEDH~1\AppData\Local\Temp\ccooiiWe.s 			page 17


 346:../LibA5T1000/gcc/libc.c ****         }
 486              		.loc 1 346 0
 487 0056 0232     		adds	r2, r2, #2
 488              	.LVL74:
 343:../LibA5T1000/gcc/libc.c ****           if (decpt > 7)
 489              		.loc 1 343 0
 490 0058 AAF1300A 		sub	r10, r10, #48
 491              	.LVL75:
 492 005c BAF1070F 		cmp	r10, #7
 493 0060 A8BF     		it	ge
 494 0062 4FF0070A 		movge	r10, #7
 495              	.LVL76:
 496              	.L61:
 348:../LibA5T1000/gcc/libc.c ****           pad |= STR_LIMIT;
 497              		.loc 1 348 0
 498 0066 5178     		ldrb	r1, [r2, #1]	@ zero_extendqisi2
 499 0068 7329     		cmp	r1, #115
 500 006a 04D1     		bne	.L62
 349:../LibA5T1000/gcc/libc.c ****       }
 501              		.loc 1 349 0
 502 006c 43F00403 		orr	r3, r3, #4
 503              	.LVL77:
 504 0070 01E0     		b	.L62
 505              	.LVL78:
 506              	.L91:
 333:../LibA5T1000/gcc/libc.c ****       if (*format == '\0') break;
 507              		.loc 1 333 0
 508 0072 4FF0020A 		mov	r10, #2
 509              	.LVL79:
 510              	.L62:
 511 0076 1046     		mov	r0, r2
 512              	.LVL80:
 513 0078 0132     		adds	r2, r2, #1
 351:../LibA5T1000/gcc/libc.c ****         ++format;
 514              		.loc 1 351 0
 515 007a 0178     		ldrb	r1, [r0]	@ zero_extendqisi2
 516 007c 3029     		cmp	r1, #48
 517 007e 02D1     		bne	.L112
 518              	.LVL81:
 353:../LibA5T1000/gcc/libc.c ****      }
 519              		.loc 1 353 0
 520 0080 43F00203 		orr	r3, r3, #2
 521              	.LVL82:
 522 0084 F7E7     		b	.L62
 523              	.LVL83:
 524              	.L112:
 351:../LibA5T1000/gcc/libc.c ****         ++format;
 525              		.loc 1 351 0
 526 0086 0022     		movs	r2, #0
 527              	.LVL84:
 528              	.L64:
 355:../LibA5T1000/gcc/libc.c ****         width *= 10;
 529              		.loc 1 355 0 discriminator 1
 530 0088 0178     		ldrb	r1, [r0]	@ zero_extendqisi2
 531 008a 0746     		mov	r7, r0
 532              	.LVL85:
 533 008c A1F13005 		sub	r5, r1, #48
ARM GAS  C:\Users\AHMEDH~1\AppData\Local\Temp\ccooiiWe.s 			page 18


 534 0090 0130     		adds	r0, r0, #1
 535 0092 5FFA85FE 		uxtb	lr, r5
 536 0096 BEF1090F 		cmp	lr, #9
 537 009a 03D8     		bhi	.L113
 538              	.LVL86:
 357:../LibA5T1000/gcc/libc.c ****       }
 539              		.loc 1 357 0 discriminator 2
 540 009c 0A21     		movs	r1, #10
 541 009e 01FB0252 		mla	r2, r1, r2, r5
 542              	.LVL87:
 543 00a2 F1E7     		b	.L64
 544              	.LVL88:
 545              	.L113:
 359:../LibA5T1000/gcc/libc.c ****         register char *s = (char *)va_arg( args, int );
 546              		.loc 1 359 0
 547 00a4 7329     		cmp	r1, #115
 548 00a6 09D1     		bne	.L66
 549              	.LBB12:
 360:../LibA5T1000/gcc/libc.c ****         pc += prints (out, s?s:"(null)", width, pad);
 550              		.loc 1 360 0
 551 00a8 0799     		ldr	r1, [sp, #28]
 361:../LibA5T1000/gcc/libc.c ****         continue;
 552              		.loc 1 361 0
 553 00aa 834D     		ldr	r5, .L115+8
 360:../LibA5T1000/gcc/libc.c ****         pc += prints (out, s?s:"(null)", width, pad);
 554              		.loc 1 360 0
 555 00ac 081D     		adds	r0, r1, #4
 556 00ae 0968     		ldr	r1, [r1]
 557              	.LVL89:
 558 00b0 0790     		str	r0, [sp, #28]
 361:../LibA5T1000/gcc/libc.c ****         continue;
 559              		.loc 1 361 0
 560 00b2 0029     		cmp	r1, #0
 561 00b4 08BF     		it	eq
 562 00b6 2946     		moveq	r1, r5
 563              	.LVL90:
 564 00b8 3046     		mov	r0, r6
 565              	.LVL91:
 566 00ba E9E0     		b	.L107
 567              	.LVL92:
 568              	.L66:
 569              	.LBE12:
 364:../LibA5T1000/gcc/libc.c ****         pc += printi (out, va_arg( args, int ), 10, 1, width, pad, 'a');
 570              		.loc 1 364 0
 571 00bc 6429     		cmp	r1, #100
 572 00be 01D0     		beq	.L69
 364:../LibA5T1000/gcc/libc.c ****         pc += printi (out, va_arg( args, int ), 10, 1, width, pad, 'a');
 573              		.loc 1 364 0 is_stmt 0 discriminator 1
 574 00c0 6929     		cmp	r1, #105
 575 00c2 0ED1     		bne	.L70
 576              	.L69:
 365:../LibA5T1000/gcc/libc.c ****         continue;
 577              		.loc 1 365 0 is_stmt 1
 578 00c4 0799     		ldr	r1, [sp, #28]
 579 00c6 8DE80C00 		stmia	sp, {r2, r3}
 580 00ca 081D     		adds	r0, r1, #4
 581 00cc 6123     		movs	r3, #97
ARM GAS  C:\Users\AHMEDH~1\AppData\Local\Temp\ccooiiWe.s 			page 19


 582              	.LVL93:
 583 00ce 0790     		str	r0, [sp, #28]
 584 00d0 0293     		str	r3, [sp, #8]
 585 00d2 3046     		mov	r0, r6
 586 00d4 0968     		ldr	r1, [r1]
 587 00d6 0A22     		movs	r2, #10
 588              	.LVL94:
 589 00d8 0123     		movs	r3, #1
 590              	.LVL95:
 591              	.L109:
 592 00da FFF7FEFF 		bl	printi
 593              	.LVL96:
 594              	.L108:
 595 00de 0444     		add	r4, r4, r0
 596              	.LVL97:
 366:../LibA5T1000/gcc/libc.c ****       }
 597              		.loc 1 366 0
 598 00e0 DFE0     		b	.L68
 599              	.LVL98:
 600              	.L70:
 368:../LibA5T1000/gcc/libc.c ****         pc += printi (out, va_arg( args, int ), 16, 0, width, pad, 'a');
 601              		.loc 1 368 0
 602 00e2 7829     		cmp	r1, #120
 603 00e4 06D1     		bne	.L71
 369:../LibA5T1000/gcc/libc.c ****         continue;
 604              		.loc 1 369 0
 605 00e6 0799     		ldr	r1, [sp, #28]
 606 00e8 8DE80C00 		stmia	sp, {r2, r3}
 607 00ec 081D     		adds	r0, r1, #4
 608 00ee 6123     		movs	r3, #97
 609              	.LVL99:
 610 00f0 0790     		str	r0, [sp, #28]
 611 00f2 07E0     		b	.L111
 612              	.LVL100:
 613              	.L71:
 372:../LibA5T1000/gcc/libc.c ****         pc += printi (out, va_arg( args, int ), 16, 0, width, pad, 'A');
 614              		.loc 1 372 0
 615 00f4 5829     		cmp	r1, #88
 616 00f6 0AD1     		bne	.L72
 373:../LibA5T1000/gcc/libc.c ****         continue;
 617              		.loc 1 373 0
 618 00f8 0799     		ldr	r1, [sp, #28]
 619 00fa 8DE80C00 		stmia	sp, {r2, r3}
 620 00fe 081D     		adds	r0, r1, #4
 621 0100 4123     		movs	r3, #65
 622              	.LVL101:
 623 0102 0790     		str	r0, [sp, #28]
 624              	.L111:
 625 0104 0293     		str	r3, [sp, #8]
 626 0106 3046     		mov	r0, r6
 627 0108 0968     		ldr	r1, [r1]
 628 010a 1022     		movs	r2, #16
 629              	.LVL102:
 630 010c 0BE0     		b	.L110
 631              	.LVL103:
 632              	.L72:
 376:../LibA5T1000/gcc/libc.c ****         pc += printi (out, va_arg( args, int ), 10, 0, width, pad, 'a');
ARM GAS  C:\Users\AHMEDH~1\AppData\Local\Temp\ccooiiWe.s 			page 20


 633              		.loc 1 376 0
 634 010e 7529     		cmp	r1, #117
 635 0110 0BD1     		bne	.L73
 377:../LibA5T1000/gcc/libc.c ****         continue;
 636              		.loc 1 377 0
 637 0112 0799     		ldr	r1, [sp, #28]
 638 0114 8DE80C00 		stmia	sp, {r2, r3}
 639 0118 081D     		adds	r0, r1, #4
 640 011a 6123     		movs	r3, #97
 641              	.LVL104:
 642 011c 0790     		str	r0, [sp, #28]
 643 011e 0293     		str	r3, [sp, #8]
 644 0120 3046     		mov	r0, r6
 645 0122 0968     		ldr	r1, [r1]
 646 0124 0A22     		movs	r2, #10
 647              	.LVL105:
 648              	.L110:
 649 0126 0023     		movs	r3, #0
 650 0128 D7E7     		b	.L109
 651              	.LVL106:
 652              	.L73:
 380:../LibA5T1000/gcc/libc.c ****         /* char are converted to int then pushed on the stack */
 653              		.loc 1 380 0
 654 012a 6329     		cmp	r1, #99
 655 012c 0BD1     		bne	.L74
 382:../LibA5T1000/gcc/libc.c ****         scr[1] = '\0';
 656              		.loc 1 382 0
 657 012e 0799     		ldr	r1, [sp, #28]
 658 0130 081D     		adds	r0, r1, #4
 659 0132 0968     		ldr	r1, [r1]
 660 0134 0790     		str	r0, [sp, #28]
 661 0136 8DF82410 		strb	r1, [sp, #36]
 383:../LibA5T1000/gcc/libc.c ****         pc += prints (out, scr, width, pad);
 662              		.loc 1 383 0
 663 013a 0021     		movs	r1, #0
 384:../LibA5T1000/gcc/libc.c ****         continue;
 664              		.loc 1 384 0
 665 013c 3046     		mov	r0, r6
 383:../LibA5T1000/gcc/libc.c ****         pc += prints (out, scr, width, pad);
 666              		.loc 1 383 0
 667 013e 8DF82510 		strb	r1, [sp, #37]
 384:../LibA5T1000/gcc/libc.c ****         continue;
 668              		.loc 1 384 0
 669 0142 09A9     		add	r1, sp, #36
 670 0144 A4E0     		b	.L107
 671              	.L74:
 387:../LibA5T1000/gcc/libc.c ****         pc += printi_f (out, va_arg( args, double ), decpt);
 672              		.loc 1 387 0
 673 0146 6629     		cmp	r1, #102
 674 0148 40F0AB80 		bne	.L68
 388:../LibA5T1000/gcc/libc.c ****         continue;
 675              		.loc 1 388 0
 676 014c 079B     		ldr	r3, [sp, #28]
 677              	.LVL107:
 678 014e 0733     		adds	r3, r3, #7
 679 0150 23F00703 		bic	r3, r3, #7
 680 0154 03F10802 		add	r2, r3, #8
ARM GAS  C:\Users\AHMEDH~1\AppData\Local\Temp\ccooiiWe.s 			page 21


 681              	.LVL108:
 682 0158 D3E90001 		ldrd	r0, [r3]
 683              	.LVL109:
 684 015c 0792     		str	r2, [sp, #28]
 685              	.LBB13:
 686              	.LBB14:
 264:../LibA5T1000/gcc/libc.c ****     print_buf[t++] = '0';
 687              		.loc 1 264 0
 688 015e 0023     		movs	r3, #0
 689 0160 0022     		movs	r2, #0
 261:../LibA5T1000/gcc/libc.c ****   register unsigned char *pf;
 690              		.loc 1 261 0
 691 0162 CDE90A01 		strd	r0, [sp, #40]
 264:../LibA5T1000/gcc/libc.c ****     print_buf[t++] = '0';
 692              		.loc 1 264 0
 693 0166 FFF7FEFF 		bl	__aeabi_dcmpeq
 694              	.LVL110:
 695 016a A8B1     		cbz	r0, .L106
 696              	.LVL111:
 265:../LibA5T1000/gcc/libc.c ****     if (decpt)
 697              		.loc 1 265 0
 698 016c 3023     		movs	r3, #48
 699 016e 8DF83430 		strb	r3, [sp, #52]
 266:../LibA5T1000/gcc/libc.c ****       print_buf[t++] = '.';
 700              		.loc 1 266 0
 701 0172 BAF1000F 		cmp	r10, #0
 702 0176 04D0     		beq	.L93
 703              	.LVL112:
 267:../LibA5T1000/gcc/libc.c ****     print_buf[t] = '\0';
 704              		.loc 1 267 0
 705 0178 2E23     		movs	r3, #46
 706 017a 0222     		movs	r2, #2
 707 017c 8DF83530 		strb	r3, [sp, #53]
 708 0180 00E0     		b	.L77
 709              	.LVL113:
 710              	.L93:
 265:../LibA5T1000/gcc/libc.c ****     if (decpt)
 711              		.loc 1 265 0
 712 0182 0122     		movs	r2, #1
 713              	.LVL114:
 714              	.L77:
 268:../LibA5T1000/gcc/libc.c ****     pad = PAD_RIGHT | PAD_ZERO;
 715              		.loc 1 268 0
 716 0184 10AB     		add	r3, sp, #64
 717 0186 1344     		add	r3, r3, r2
 718 0188 0021     		movs	r1, #0
 270:../LibA5T1000/gcc/libc.c ****   }
 719              		.loc 1 270 0
 720 018a 3046     		mov	r0, r6
 268:../LibA5T1000/gcc/libc.c ****     pad = PAD_RIGHT | PAD_ZERO;
 721              		.loc 1 268 0
 722 018c 03F80C1C 		strb	r1, [r3, #-12]
 723              	.LVL115:
 270:../LibA5T1000/gcc/libc.c ****   }
 724              		.loc 1 270 0
 725 0190 5244     		add	r2, r2, r10
 726              	.LVL116:
ARM GAS  C:\Users\AHMEDH~1\AppData\Local\Temp\ccooiiWe.s 			page 22


 727 0192 0DA9     		add	r1, sp, #52
 728 0194 0323     		movs	r3, #3
 729 0196 7BE0     		b	.L107
 730              	.LVL117:
 731              	.L106:
 277:../LibA5T1000/gcc/libc.c ****       neg = 1;
 732              		.loc 1 277 0
 733 0198 9DF82F30 		ldrb	r3, [sp, #47]	@ zero_extendqisi2
 734 019c 0022     		movs	r2, #0
 735              	.LVL118:
 736 019e 13F0800F 		tst	r3, #128
 279:../LibA5T1000/gcc/libc.c ****     }
 737              		.loc 1 279 0
 738 01a2 1DBF     		ittte	ne
 739 01a4 03F07F03 		andne	r3, r3, #127
 278:../LibA5T1000/gcc/libc.c ****       pf[7] &= 0x7F;
 740              		.loc 1 278 0
 741 01a8 4FF0010B 		movne	fp, #1
 279:../LibA5T1000/gcc/libc.c ****     }
 742              		.loc 1 279 0
 743 01ac 8DF82F30 		strbne	r3, [sp, #47]
 258:../LibA5T1000/gcc/libc.c ****   long long u, exp=1;
 744              		.loc 1 258 0
 745 01b0 9346     		moveq	fp, r2
 746              	.LVL119:
 291:../LibA5T1000/gcc/libc.c **** 
 747              		.loc 1 291 0
 748 01b2 5346     		mov	r3, r10
 259:../LibA5T1000/gcc/libc.c ****   //float ff = (float)f;
 749              		.loc 1 259 0
 750 01b4 0120     		movs	r0, #1
 751 01b6 0021     		movs	r1, #0
 291:../LibA5T1000/gcc/libc.c **** 
 752              		.loc 1 291 0
 753 01b8 8DF83F20 		strb	r2, [sp, #63]
 754              	.LVL120:
 755              	.L80:
 294:../LibA5T1000/gcc/libc.c ****     exp *= 10;
 756              		.loc 1 294 0
 757 01bc 13F1FF33 		adds	r3, r3, #-1
 758              	.LVL121:
 759 01c0 06D3     		bcc	.L114
 295:../LibA5T1000/gcc/libc.c ****   ff += (0.1 / exp);    // output tuning
 760              		.loc 1 295 0
 761 01c2 0A22     		movs	r2, #10
 762 01c4 02FB01F5 		mul	r5, r2, r1
 763 01c8 A0FB0201 		umull	r0, r1, r0, r2
 764              	.LVL122:
 765 01cc 2944     		add	r1, r1, r5
 766              	.LVL123:
 767 01ce F5E7     		b	.L80
 768              	.L114:
 296:../LibA5T1000/gcc/libc.c ****   u = ff * exp;         // convert to normal long long
 769              		.loc 1 296 0
 770 01d0 FFF7FEFF 		bl	__aeabi_l2d
 771              	.LVL124:
 290:../LibA5T1000/gcc/libc.c ****   *s = '\0';
ARM GAS  C:\Users\AHMEDH~1\AppData\Local\Temp\ccooiiWe.s 			page 23


 772              		.loc 1 290 0
 773 01d4 0DF13F05 		add	r5, sp, #63
 774              	.LVL125:
 296:../LibA5T1000/gcc/libc.c ****   u = ff * exp;         // convert to normal long long
 775              		.loc 1 296 0
 776 01d8 8946     		mov	r9, r1
 777 01da 8046     		mov	r8, r0
 778 01dc 4B46     		mov	r3, r9
 779 01de 4246     		mov	r2, r8
 780 01e0 33A1     		adr	r1, .L115
 781 01e2 D1E90001 		ldrd	r0, [r1]
 782 01e6 FFF7FEFF 		bl	__aeabi_ddiv
 783              	.LVL126:
 784 01ea DDE90A23 		ldrd	r2, [sp, #40]
 785 01ee FFF7FEFF 		bl	__aeabi_dadd
 786              	.LVL127:
 297:../LibA5T1000/gcc/libc.c **** 
 787              		.loc 1 297 0
 788 01f2 4B46     		mov	r3, r9
 789 01f4 4246     		mov	r2, r8
 296:../LibA5T1000/gcc/libc.c ****   u = ff * exp;         // convert to normal long long
 790              		.loc 1 296 0
 791 01f6 CDE90A01 		strd	r0, [sp, #40]
 297:../LibA5T1000/gcc/libc.c **** 
 792              		.loc 1 297 0
 793 01fa FFF7FEFF 		bl	__aeabi_dmul
 794              	.LVL128:
 795 01fe FFF7FEFF 		bl	__aeabi_d2lz
 796              	.LVL129:
 258:../LibA5T1000/gcc/libc.c ****   long long u, exp=1;
 797              		.loc 1 258 0
 798 0202 4FF00009 		mov	r9, #0
 297:../LibA5T1000/gcc/libc.c **** 
 799              		.loc 1 297 0
 800 0206 CDE90401 		strd	r0, [sp, #16]
 801              	.LVL130:
 802              	.L85:
 301:../LibA5T1000/gcc/libc.c ****       break;
 803              		.loc 1 301 0
 804 020a DDE90423 		ldrd	r2, [sp, #16]
 805 020e 1343     		orrs	r3, r2, r3
 806 0210 05D1     		bne	.L82
 807 0212 BAF1000F 		cmp	r10, #0
 808 0216 31D0     		beq	.L83
 809 0218 B9F1000F 		cmp	r9, #0
 810 021c 2ED1     		bne	.L83
 811              	.L82:
 812              	.LVL131:
 303:../LibA5T1000/gcc/libc.c ****     *--s = t + '0';
 813              		.loc 1 303 0
 814 021e DDE90401 		ldrd	r0, [sp, #16]
 815 0222 0A22     		movs	r2, #10
 816 0224 0023     		movs	r3, #0
 817 0226 FFF7FEFF 		bl	__aeabi_ldivmod
 818              	.LVL132:
 304:../LibA5T1000/gcc/libc.c ****     // display '.' for decpt > 0 only
 819              		.loc 1 304 0
ARM GAS  C:\Users\AHMEDH~1\AppData\Local\Temp\ccooiiWe.s 			page 24


 820 022a 05F1FF38 		add	r8, r5, #-1
 821              	.LVL133:
 306:../LibA5T1000/gcc/libc.c ****       *--s = '.';
 822              		.loc 1 306 0
 823 022e 0DF13F03 		add	r3, sp, #63
 824 0232 C8EB0303 		rsb	r3, r8, r3
 304:../LibA5T1000/gcc/libc.c ****     // display '.' for decpt > 0 only
 825              		.loc 1 304 0
 826 0236 3032     		adds	r2, r2, #48
 306:../LibA5T1000/gcc/libc.c ****       *--s = '.';
 827              		.loc 1 306 0
 828 0238 5345     		cmp	r3, r10
 304:../LibA5T1000/gcc/libc.c ****     // display '.' for decpt > 0 only
 829              		.loc 1 304 0
 830 023a 05F8012C 		strb	r2, [r5, #-1]
 306:../LibA5T1000/gcc/libc.c ****       *--s = '.';
 831              		.loc 1 306 0
 832 023e 13D1     		bne	.L84
 833              	.LVL134:
 307:../LibA5T1000/gcc/libc.c ****       dot = 1;
 834              		.loc 1 307 0
 835 0240 2E23     		movs	r3, #46
 836 0242 A5F10208 		sub	r8, r5, #2
 837              	.LVL135:
 838 0246 05F8023C 		strb	r3, [r5, #-2]
 839              	.LVL136:
 309:../LibA5T1000/gcc/libc.c ****         *--s = '0';
 840              		.loc 1 309 0
 841 024a DDE90423 		ldrd	r2, [sp, #16]
 842 024e 0932     		adds	r2, r2, #9
 843 0250 43F10003 		adc	r3, r3, #0
 844 0254 002B     		cmp	r3, #0
 845 0256 08BF     		it	eq
 846 0258 132A     		cmpeq	r2, #19
 847 025a 03D2     		bcs	.L95
 848              	.LVL137:
 310:../LibA5T1000/gcc/libc.c ****         break;
 849              		.loc 1 310 0
 850 025c 3023     		movs	r3, #48
 851 025e 033D     		subs	r5, r5, #3
 852              	.LVL138:
 853 0260 2B70     		strb	r3, [r5]
 854 0262 0BE0     		b	.L83
 855              	.LVL139:
 856              	.L95:
 308:../LibA5T1000/gcc/libc.c ****       if ((u / 10) == 0) {
 857              		.loc 1 308 0
 858 0264 4FF00109 		mov	r9, #1
 859              	.LVL140:
 860              	.L84:
 314:../LibA5T1000/gcc/libc.c ****   }
 861              		.loc 1 314 0
 862 0268 DDE90401 		ldrd	r0, [sp, #16]
 863 026c 0A22     		movs	r2, #10
 864 026e 0023     		movs	r3, #0
 865 0270 FFF7FEFF 		bl	__aeabi_ldivmod
 866              	.LVL141:
ARM GAS  C:\Users\AHMEDH~1\AppData\Local\Temp\ccooiiWe.s 			page 25


 867 0274 4546     		mov	r5, r8
 868 0276 CDE90401 		strd	r0, [sp, #16]
 869              	.LVL142:
 870 027a C6E7     		b	.L85
 871              	.LVL143:
 872              	.L83:
 317:../LibA5T1000/gcc/libc.c ****     *--s = '-';
 873              		.loc 1 317 0
 874 027c BBF1000F 		cmp	fp, #0
 875 0280 02D0     		beq	.L86
 876              	.LVL144:
 318:../LibA5T1000/gcc/libc.c **** 
 877              		.loc 1 318 0
 878 0282 2D23     		movs	r3, #45
 879 0284 013D     		subs	r5, r5, #1
 880              	.LVL145:
 881 0286 2B70     		strb	r3, [r5]
 882              	.L86:
 320:../LibA5T1000/gcc/libc.c **** }
 883              		.loc 1 320 0
 884 0288 0022     		movs	r2, #0
 885 028a 3046     		mov	r0, r6
 886 028c 2946     		mov	r1, r5
 887 028e 1346     		mov	r3, r2
 888              	.LVL146:
 889              	.L107:
 890 0290 FFF7FEFF 		bl	prints
 891              	.LVL147:
 892 0294 23E7     		b	.L108
 893              	.LVL148:
 894              	.L89:
 895              	.LBE14:
 896              	.LBE13:
 331:../LibA5T1000/gcc/libc.c ****       width = pad = 0;
 897              		.loc 1 331 0
 898 0296 1746     		mov	r7, r2
 899              	.LVL149:
 900              	.L54:
 394:../LibA5T1000/gcc/libc.c ****       ++pc;
 901              		.loc 1 394 0
 902 0298 3046     		mov	r0, r6
 903 029a 3978     		ldrb	r1, [r7]	@ zero_extendqisi2
 904 029c FFF7FEFF 		bl	printchar
 905              	.LVL150:
 395:../LibA5T1000/gcc/libc.c ****     }
 906              		.loc 1 395 0
 907 02a0 0134     		adds	r4, r4, #1
 908              	.LVL151:
 909              	.L68:
 329:../LibA5T1000/gcc/libc.c ****     if (*format == '%') {
 910              		.loc 1 329 0
 911 02a2 0137     		adds	r7, r7, #1
 912              	.LVL152:
 913 02a4 B3E6     		b	.L53
 914              	.LVL153:
 915              	.L57:
 400:../LibA5T1000/gcc/libc.c ****   va_end( args );
ARM GAS  C:\Users\AHMEDH~1\AppData\Local\Temp\ccooiiWe.s 			page 26


 401:../LibA5T1000/gcc/libc.c ****   return pc;
 402:../LibA5T1000/gcc/libc.c **** }
 916              		.loc 1 402 0
 917 02a6 2046     		mov	r0, r4
 918 02a8 11B0     		add	sp, sp, #68
 919              		.cfi_def_cfa_offset 36
 920              		@ sp needed
 921 02aa BDE8F08F 		pop	{r4, r5, r6, r7, r8, r9, r10, fp, pc}
 922              	.LVL154:
 923              	.L116:
 924 02ae 00BF     		.align	3
 925              	.L115:
 926 02b0 9A999999 		.word	-1717986918
 927 02b4 9999B93F 		.word	1069128089
 928 02b8 00000000 		.word	.LC0
 929              		.cfi_endproc
 930              	.LFE12:
 931              		.size	print, .-print
 932 02bc AFF30080 		.section	.text._read_r,"ax",%progbits
 933              		.align	1
 934              		.global	_read_r
 935              		.thumb
 936              		.thumb_func
 937              		.type	_read_r, %function
 938              	_read_r:
 939              	.LFB0:
  52:../LibA5T1000/gcc/libc.c ****   int i, ch;
 940              		.loc 1 52 0
 941              		.cfi_startproc
 942              		@ args = 0, pretend = 0, frame = 0
 943              		@ frame_needed = 0, uses_anonymous_args = 0
 944              	.LVL155:
 945 0000 F8B5     		push	{r3, r4, r5, r6, r7, lr}
 946              		.cfi_def_cfa_offset 24
 947              		.cfi_offset 3, -24
 948              		.cfi_offset 4, -20
 949              		.cfi_offset 5, -16
 950              		.cfi_offset 6, -12
 951              		.cfi_offset 7, -8
 952              		.cfi_offset 14, -4
  52:../LibA5T1000/gcc/libc.c ****   int i, ch;
 953              		.loc 1 52 0
 954 0002 1546     		mov	r5, r2
 955 0004 D718     		adds	r7, r2, r3
  58:../LibA5T1000/gcc/libc.c ****     ch = os_kbd_getkey();
 956              		.loc 1 58 0
 957 0006 1446     		mov	r4, r2
 958              	.LVL156:
 959              	.L118:
  58:../LibA5T1000/gcc/libc.c ****     ch = os_kbd_getkey();
 960              		.loc 1 58 0 is_stmt 0 discriminator 1
 961 0008 BC42     		cmp	r4, r7
 962 000a A4EB0506 		sub	r6, r4, r5
 963              	.LVL157:
 964 000e 0AD0     		beq	.L122
  59:../LibA5T1000/gcc/libc.c ****     if (ch == 0) {
 965              		.loc 1 59 0 is_stmt 1
ARM GAS  C:\Users\AHMEDH~1\AppData\Local\Temp\ccooiiWe.s 			page 27


 966 0010 0720     		movs	r0, #7
 967 0012 FFF7FEFF 		bl	sys_func0
 968              	.LVL158:
  60:../LibA5T1000/gcc/libc.c ****       return(i);
 969              		.loc 1 60 0
 970 0016 30B1     		cbz	r0, .L122
  63:../LibA5T1000/gcc/libc.c ****     os_sleep ();
 971              		.loc 1 63 0 discriminator 2
 972 0018 04F8010B 		strb	r0, [r4], #1
  64:../LibA5T1000/gcc/libc.c ****   }
 973              		.loc 1 64 0 discriminator 2
 974 001c 4FF4CE70 		mov	r0, #412
 975              	.LVL159:
 976 0020 FFF7FEFF 		bl	sys_func0
 977              	.LVL160:
 978 0024 F0E7     		b	.L118
 979              	.LVL161:
 980              	.L122:
  68:../LibA5T1000/gcc/libc.c **** 
 981              		.loc 1 68 0
 982 0026 3046     		mov	r0, r6
 983 0028 F8BD     		pop	{r3, r4, r5, r6, r7, pc}
 984              		.cfi_endproc
 985              	.LFE0:
 986              		.size	_read_r, .-_read_r
 987              		.section	.text._write_r,"ax",%progbits
 988              		.align	1
 989              		.global	_write_r
 990              		.thumb
 991              		.thumb_func
 992              		.type	_write_r, %function
 993              	_write_r:
 994              	.LFB1:
  71:../LibA5T1000/gcc/libc.c ****   int todo; 
 995              		.loc 1 71 0
 996              		.cfi_startproc
 997              		@ args = 0, pretend = 0, frame = 0
 998              		@ frame_needed = 0, uses_anonymous_args = 0
 999              	.LVL162:
 1000 0000 70B5     		push	{r4, r5, r6, lr}
 1001              		.cfi_def_cfa_offset 16
 1002              		.cfi_offset 4, -16
 1003              		.cfi_offset 5, -12
 1004              		.cfi_offset 6, -8
 1005              		.cfi_offset 14, -4
  71:../LibA5T1000/gcc/libc.c ****   int todo; 
 1006              		.loc 1 71 0
 1007 0002 1D46     		mov	r5, r3
  77:../LibA5T1000/gcc/libc.c ****     return 0;
 1008              		.loc 1 77 0
 1009 0004 1446     		mov	r4, r2
 1010 0006 52B1     		cbz	r2, .L127
 1011 0008 D618     		adds	r6, r2, r3
 1012              	.LVL163:
 1013              	.L125:
  81:../LibA5T1000/gcc/libc.c ****     os_disp_putc(*p++);    // put to display
 1014              		.loc 1 81 0 discriminator 1
ARM GAS  C:\Users\AHMEDH~1\AppData\Local\Temp\ccooiiWe.s 			page 28


 1015 000a B442     		cmp	r4, r6
 1016 000c 05D0     		beq	.L128
  82:../LibA5T1000/gcc/libc.c ****   } 
 1017              		.loc 1 82 0 discriminator 3
 1018 000e 14F8011B 		ldrb	r1, [r4], #1	@ zero_extendqisi2
 1019              	.LVL164:
 1020 0012 1620     		movs	r0, #22
 1021 0014 FFF7FEFF 		bl	sys_func1
 1022              	.LVL165:
 1023 0018 F7E7     		b	.L125
 1024              	.LVL166:
 1025              	.L128:
  84:../LibA5T1000/gcc/libc.c **** }
 1026              		.loc 1 84 0
 1027 001a 2846     		mov	r0, r5
 1028 001c 70BD     		pop	{r4, r5, r6, pc}
 1029              	.LVL167:
 1030              	.L127:
  78:../LibA5T1000/gcc/libc.c ****   }
 1031              		.loc 1 78 0
 1032 001e 1046     		mov	r0, r2
 1033              	.LVL168:
  85:../LibA5T1000/gcc/libc.c **** 
 1034              		.loc 1 85 0
 1035 0020 70BD     		pop	{r4, r5, r6, pc}
 1036              		.cfi_endproc
 1037              	.LFE1:
 1038              		.size	_write_r, .-_write_r
 1039              		.section	.text._close_r,"ax",%progbits
 1040              		.align	1
 1041              		.global	_close_r
 1042              		.thumb
 1043              		.thumb_func
 1044              		.type	_close_r, %function
 1045              	_close_r:
 1046              	.LFB2:
  88:../LibA5T1000/gcc/libc.c ****   return 0;
 1047              		.loc 1 88 0
 1048              		.cfi_startproc
 1049              		@ args = 0, pretend = 0, frame = 0
 1050              		@ frame_needed = 0, uses_anonymous_args = 0
 1051              		@ link register save eliminated.
 1052              	.LVL169:
  90:../LibA5T1000/gcc/libc.c **** 
 1053              		.loc 1 90 0
 1054 0000 0020     		movs	r0, #0
 1055              	.LVL170:
 1056 0002 7047     		bx	lr
 1057              		.cfi_endproc
 1058              	.LFE2:
 1059              		.size	_close_r, .-_close_r
 1060              		.section	.text._lseek_r,"ax",%progbits
 1061              		.align	1
 1062              		.global	_lseek_r
 1063              		.thumb
 1064              		.thumb_func
 1065              		.type	_lseek_r, %function
ARM GAS  C:\Users\AHMEDH~1\AppData\Local\Temp\ccooiiWe.s 			page 29


 1066              	_lseek_r:
 1067              	.LFB3:
  93:../LibA5T1000/gcc/libc.c ****   return (_off_t)0;  /*  Always indicate we are at file beginning.  */
 1068              		.loc 1 93 0
 1069              		.cfi_startproc
 1070              		@ args = 0, pretend = 0, frame = 0
 1071              		@ frame_needed = 0, uses_anonymous_args = 0
 1072              		@ link register save eliminated.
 1073              	.LVL171:
  95:../LibA5T1000/gcc/libc.c **** 
 1074              		.loc 1 95 0
 1075 0000 0020     		movs	r0, #0
 1076              	.LVL172:
 1077 0002 7047     		bx	lr
 1078              		.cfi_endproc
 1079              	.LFE3:
 1080              		.size	_lseek_r, .-_lseek_r
 1081              		.section	.text._fstat_r,"ax",%progbits
 1082              		.align	1
 1083              		.global	_fstat_r
 1084              		.thumb
 1085              		.thumb_func
 1086              		.type	_fstat_r, %function
 1087              	_fstat_r:
 1088              	.LFB4:
  98:../LibA5T1000/gcc/libc.c ****   /*  Always set as character device.        */
 1089              		.loc 1 98 0
 1090              		.cfi_startproc
 1091              		@ args = 0, pretend = 0, frame = 0
 1092              		@ frame_needed = 0, uses_anonymous_args = 0
 1093              		@ link register save eliminated.
 1094              	.LVL173:
 100:../LibA5T1000/gcc/libc.c **** 
 1095              		.loc 1 100 0
 1096 0000 4FF40053 		mov	r3, #8192
 106:../LibA5T1000/gcc/libc.c **** 
 1097              		.loc 1 106 0
 1098 0004 0020     		movs	r0, #0
 1099              	.LVL174:
 100:../LibA5T1000/gcc/libc.c **** 
 1100              		.loc 1 100 0
 1101 0006 5360     		str	r3, [r2, #4]
 106:../LibA5T1000/gcc/libc.c **** 
 1102              		.loc 1 106 0
 1103 0008 7047     		bx	lr
 1104              		.cfi_endproc
 1105              	.LFE4:
 1106              		.size	_fstat_r, .-_fstat_r
 1107              		.section	.text.isatty,"ax",%progbits
 1108              		.align	1
 1109              		.global	isatty
 1110              		.thumb
 1111              		.thumb_func
 1112              		.type	isatty, %function
 1113              	isatty:
 1114              	.LFB5:
 109:../LibA5T1000/gcc/libc.c ****   return 1;
ARM GAS  C:\Users\AHMEDH~1\AppData\Local\Temp\ccooiiWe.s 			page 30


 1115              		.loc 1 109 0
 1116              		.cfi_startproc
 1117              		@ args = 0, pretend = 0, frame = 0
 1118              		@ frame_needed = 0, uses_anonymous_args = 0
 1119              		@ link register save eliminated.
 1120              	.LVL175:
 111:../LibA5T1000/gcc/libc.c **** 
 1121              		.loc 1 111 0
 1122 0000 0120     		movs	r0, #1
 1123              	.LVL176:
 1124 0002 7047     		bx	lr
 1125              		.cfi_endproc
 1126              	.LFE5:
 1127              		.size	isatty, .-isatty
 1128              		.section	.text._sbrk_r,"ax",%progbits
 1129              		.align	1
 1130              		.global	_sbrk_r
 1131              		.thumb
 1132              		.thumb_func
 1133              		.type	_sbrk_r, %function
 1134              	_sbrk_r:
 1135              	.LFB6:
 134:../LibA5T1000/gcc/libc.c ****   char  *base;    /*  errno should be set to  ENOMEM on error  */
 1136              		.loc 1 134 0
 1137              		.cfi_startproc
 1138              		@ args = 0, pretend = 0, frame = 0
 1139              		@ frame_needed = 0, uses_anonymous_args = 0
 1140              		@ link register save eliminated.
 1141              	.LVL177:
 137:../LibA5T1000/gcc/libc.c ****     heap_ptr = _end;
 1142              		.loc 1 137 0
 1143 0000 074B     		ldr	r3, .L137
 1144 0002 1A68     		ldr	r2, [r3]
 1145 0004 0AB9     		cbnz	r2, .L134
 138:../LibA5T1000/gcc/libc.c ****   }
 1146              		.loc 1 138 0
 1147 0006 074A     		ldr	r2, .L137+4
 1148 0008 1A60     		str	r2, [r3]
 1149              	.L134:
 140:../LibA5T1000/gcc/libc.c ****   heap_ptr += nbytes;  /*  Increase heap.  */
 1150              		.loc 1 140 0
 1151 000a 1A68     		ldr	r2, [r3]
 1152              	.LVL178:
 149:../LibA5T1000/gcc/libc.c **** 
 1153              		.loc 1 149 0
 1154 000c 0648     		ldr	r0, .L137+8
 1155              	.LVL179:
 141:../LibA5T1000/gcc/libc.c **** 
 1156              		.loc 1 141 0
 1157 000e 1144     		add	r1, r1, r2
 1158              	.LVL180:
 149:../LibA5T1000/gcc/libc.c **** 
 1159              		.loc 1 149 0
 1160 0010 8142     		cmp	r1, r0
 1161 0012 34BF     		ite	cc
 1162 0014 1046     		movcc	r0, r2
 1163 0016 4FF0FF30 		movcs	r0, #-1
ARM GAS  C:\Users\AHMEDH~1\AppData\Local\Temp\ccooiiWe.s 			page 31


 141:../LibA5T1000/gcc/libc.c **** 
 1164              		.loc 1 141 0
 1165 001a 1960     		str	r1, [r3]
 149:../LibA5T1000/gcc/libc.c **** 
 1166              		.loc 1 149 0
 1167 001c 7047     		bx	lr
 1168              	.L138:
 1169 001e 00BF     		.align	2
 1170              	.L137:
 1171 0020 00000000 		.word	.LANCHOR0
 1172 0024 00000000 		.word	_end
 1173 0028 00000000 		.word	_end_of_bss
 1174              		.cfi_endproc
 1175              	.LFE6:
 1176              		.size	_sbrk_r, .-_sbrk_r
 1177              		.section	.text.putchar,"ax",%progbits
 1178              		.align	1
 1179              		.global	putchar
 1180              		.thumb
 1181              		.thumb_func
 1182              		.type	putchar, %function
 1183              	putchar:
 1184              	.LFB7:
 153:../LibA5T1000/gcc/libc.c ****   os_disp_putc(c);
 1185              		.loc 1 153 0
 1186              		.cfi_startproc
 1187              		@ args = 0, pretend = 0, frame = 0
 1188              		@ frame_needed = 0, uses_anonymous_args = 0
 1189              	.LVL181:
 1190 0000 0146     		mov	r1, r0
 1191 0002 08B5     		push	{r3, lr}
 1192              		.cfi_def_cfa_offset 8
 1193              		.cfi_offset 3, -8
 1194              		.cfi_offset 14, -4
 154:../LibA5T1000/gcc/libc.c ****   return 1;
 1195              		.loc 1 154 0
 1196 0004 1620     		movs	r0, #22
 1197              	.LVL182:
 1198 0006 FFF7FEFF 		bl	sys_func1
 1199              	.LVL183:
 156:../LibA5T1000/gcc/libc.c **** 
 1200              		.loc 1 156 0
 1201 000a 0120     		movs	r0, #1
 1202 000c 08BD     		pop	{r3, pc}
 1203              		.cfi_endproc
 1204              	.LFE7:
 1205              		.size	putchar, .-putchar
 1206              		.section	.text.printf,"ax",%progbits
 1207              		.align	1
 1208              		.global	printf
 1209              		.thumb
 1210              		.thumb_func
 1211              		.type	printf, %function
 1212              	printf:
 1213              	.LFB13:
 403:../LibA5T1000/gcc/libc.c **** 
 404:../LibA5T1000/gcc/libc.c **** int printf(const unsigned char *format, ...)
ARM GAS  C:\Users\AHMEDH~1\AppData\Local\Temp\ccooiiWe.s 			page 32


 405:../LibA5T1000/gcc/libc.c **** {
 1214              		.loc 1 405 0
 1215              		.cfi_startproc
 1216              		@ args = 4, pretend = 16, frame = 8
 1217              		@ frame_needed = 0, uses_anonymous_args = 1
 1218              	.LVL184:
 1219 0000 0FB4     		push	{r0, r1, r2, r3}
 1220              		.cfi_def_cfa_offset 16
 1221              		.cfi_offset 0, -16
 1222              		.cfi_offset 1, -12
 1223              		.cfi_offset 2, -8
 1224              		.cfi_offset 3, -4
 1225 0002 07B5     		push	{r0, r1, r2, lr}
 1226              		.cfi_def_cfa_offset 32
 1227              		.cfi_offset 14, -20
 1228              		.loc 1 405 0
 1229 0004 04AA     		add	r2, sp, #16
 406:../LibA5T1000/gcc/libc.c ****   va_list args;
 407:../LibA5T1000/gcc/libc.c ****   va_start( args, format );
 408:../LibA5T1000/gcc/libc.c ****   return print( 0, format, args );
 1230              		.loc 1 408 0
 1231 0006 0020     		movs	r0, #0
 405:../LibA5T1000/gcc/libc.c ****   va_list args;
 1232              		.loc 1 405 0
 1233 0008 52F8041B 		ldr	r1, [r2], #4
 407:../LibA5T1000/gcc/libc.c ****   return print( 0, format, args );
 1234              		.loc 1 407 0
 1235 000c 0192     		str	r2, [sp, #4]
 1236              		.loc 1 408 0
 1237 000e FFF7FEFF 		bl	print
 1238              	.LVL185:
 409:../LibA5T1000/gcc/libc.c **** }
 1239              		.loc 1 409 0
 1240 0012 03B0     		add	sp, sp, #12
 1241              		.cfi_def_cfa_offset 20
 1242              		@ sp needed
 1243 0014 5DF804EB 		ldr	lr, [sp], #4
 1244              		.cfi_restore 14
 1245              		.cfi_def_cfa_offset 16
 1246 0018 04B0     		add	sp, sp, #16
 1247              		.cfi_restore 3
 1248              		.cfi_restore 2
 1249              		.cfi_restore 1
 1250              		.cfi_restore 0
 1251              		.cfi_def_cfa_offset 0
 1252 001a 7047     		bx	lr
 1253              		.cfi_endproc
 1254              	.LFE13:
 1255              		.size	printf, .-printf
 1256              		.section	.text.sprintf,"ax",%progbits
 1257              		.align	1
 1258              		.global	sprintf
 1259              		.thumb
 1260              		.thumb_func
 1261              		.type	sprintf, %function
 1262              	sprintf:
 1263              	.LFB14:
ARM GAS  C:\Users\AHMEDH~1\AppData\Local\Temp\ccooiiWe.s 			page 33


 410:../LibA5T1000/gcc/libc.c **** 
 411:../LibA5T1000/gcc/libc.c **** int sprintf(unsigned char *out, const unsigned char *format, ...)
 412:../LibA5T1000/gcc/libc.c **** {
 1264              		.loc 1 412 0
 1265              		.cfi_startproc
 1266              		@ args = 4, pretend = 12, frame = 16
 1267              		@ frame_needed = 0, uses_anonymous_args = 1
 1268              	.LVL186:
 1269 0000 0EB4     		push	{r1, r2, r3}
 1270              		.cfi_def_cfa_offset 12
 1271              		.cfi_offset 1, -12
 1272              		.cfi_offset 2, -8
 1273              		.cfi_offset 3, -4
 1274 0002 0FB5     		push	{r0, r1, r2, r3, lr}
 1275              		.cfi_def_cfa_offset 32
 1276              		.cfi_offset 14, -16
 1277              		.loc 1 412 0
 1278 0004 05AA     		add	r2, sp, #20
 1279 0006 0190     		str	r0, [sp, #4]
 1280 0008 52F8041B 		ldr	r1, [r2], #4
 413:../LibA5T1000/gcc/libc.c ****   va_list args;
 414:../LibA5T1000/gcc/libc.c ****         
 415:../LibA5T1000/gcc/libc.c ****   va_start( args, format );
 416:../LibA5T1000/gcc/libc.c ****   return print( &out, format, args );
 1281              		.loc 1 416 0
 1282 000c 01A8     		add	r0, sp, #4
 1283              	.LVL187:
 415:../LibA5T1000/gcc/libc.c ****   return print( &out, format, args );
 1284              		.loc 1 415 0
 1285 000e 0392     		str	r2, [sp, #12]
 1286              		.loc 1 416 0
 1287 0010 FFF7FEFF 		bl	print
 1288              	.LVL188:
 417:../LibA5T1000/gcc/libc.c **** }
 1289              		.loc 1 417 0
 1290 0014 04B0     		add	sp, sp, #16
 1291              		.cfi_def_cfa_offset 16
 1292              		@ sp needed
 1293 0016 5DF804EB 		ldr	lr, [sp], #4
 1294              		.cfi_restore 14
 1295              		.cfi_def_cfa_offset 12
 1296 001a 03B0     		add	sp, sp, #12
 1297              		.cfi_restore 3
 1298              		.cfi_restore 2
 1299              		.cfi_restore 1
 1300              		.cfi_def_cfa_offset 0
 1301 001c 7047     		bx	lr
 1302              		.cfi_endproc
 1303              	.LFE14:
 1304              		.size	sprintf, .-sprintf
 1305              		.section	.rodata.str1.1,"aMS",%progbits,1
 1306              	.LC0:
 1307 0000 286E756C 		.ascii	"(null)\000"
 1307      6C2900
 1308              		.bss
 1309              		.align	2
 1310              		.set	.LANCHOR0,. + 0
ARM GAS  C:\Users\AHMEDH~1\AppData\Local\Temp\ccooiiWe.s 			page 34


 1311              		.type	heap_ptr, %object
 1312              		.size	heap_ptr, 4
 1313              	heap_ptr:
 1314 0000 00000000 		.space	4
 1315              		.text
 1316              	.Letext0:
 1317              		.file 2 "c:\\devtools\\gcc_v49_2014q4\\lib\\gcc\\arm-none-eabi\\4.9.3\\include\\stddef.h"
 1318              		.file 3 "c:\\devtools\\gcc_v49_2014q4\\arm-none-eabi\\include\\sys\\lock.h"
 1319              		.file 4 "c:\\devtools\\gcc_v49_2014q4\\arm-none-eabi\\include\\sys\\_types.h"
 1320              		.file 5 "c:\\devtools\\gcc_v49_2014q4\\arm-none-eabi\\include\\sys\\reent.h"
 1321              		.file 6 "c:\\devtools\\gcc_v49_2014q4\\lib\\gcc\\arm-none-eabi\\4.9.3\\include\\stdarg.h"
 1322              		.file 7 "<built-in>"
 1323              		.file 8 "c:\\devtools\\gcc_v49_2014q4\\arm-none-eabi\\include\\sys\\types.h"
 1324              		.file 9 "c:\\devtools\\gcc_v49_2014q4\\arm-none-eabi\\include\\sys\\stat.h"
 1325              		.file 10 "../LibA5T1000/common.h"
 1326              		.file 11 "c:\\devtools\\gcc_v49_2014q4\\arm-none-eabi\\include\\reent.h"
 1327              		.file 12 "../LibA5T1000/system.h"