ARM GAS  C:\Users\AHMED~1.ELE\AppData\Local\Temp\ccUAgQOL.s 			page 1


   1              		.syntax unified
   2              		.cpu cortex-a5
   3              		.fpu softvfp
   4              		.eabi_attribute 20, 1
   5              		.eabi_attribute 21, 1
   6              		.eabi_attribute 23, 3
   7              		.eabi_attribute 24, 1
   8              		.eabi_attribute 25, 1
   9              		.eabi_attribute 26, 1
  10              		.eabi_attribute 30, 4
  11              		.eabi_attribute 34, 0
  12              		.eabi_attribute 18, 4
  13              		.thumb
  14              		.file	"main.c"
  15              		.text
  16              	.Ltext0:
  17              		.cfi_sections	.debug_frame
  18              		.section	.text.startup.main,"ax",%progbits
  19              		.align	1
  20              		.global	main
  21              		.thumb
  22              		.thumb_func
  23              		.type	main, %function
  24              	main:
  25              	.LFB0:
  26              		.file 1 "src/main.c"
   1:src/main.c    **** //-----------------------------------------------------------------------------
   2:src/main.c    **** //  File          : main.c
   3:src/main.c    **** //  Module        :
   4:src/main.c    **** //  Description   : Main Entry.
   5:src/main.c    **** //  Author        : Auto Generate by main_c.bat
   6:src/main.c    **** //  Notes         :
   7:src/main.c    **** //
   8:src/main.c    **** // ============================================================================
   9:src/main.c    **** // | Naming conventions                                                       |
  10:src/main.c    **** // | ~~~~~~~~~~~~~~~~~~                                                       |
  11:src/main.c    **** // |         Struct/Array : Leading s                                         |
  12:src/main.c    **** // |             Constant : Leading K                                         |
  13:src/main.c    **** // |      Global Variable : Leading g  (variable use outside one C file)      |
  14:src/main.c    **** // |                                                                          |
  15:src/main.c    **** // |   BYTE( 8 Bits) size : Leading b                                         |
  16:src/main.c    **** // |   CHAR( 8 Bits) size : Leading c                                         |
  17:src/main.c    **** // |   WORD(16 Bits) size : Leading w                                         |
  18:src/main.c    **** // |  DWORD(32 Bits) size : Leading d                                         |
  19:src/main.c    **** // |    int(32 Bits) size : Leading i                                         |
  20:src/main.c    **** // | DDWORD(64 Bits) size : Leading dd                                        |
  21:src/main.c    **** // |              Pointer : Leading p                                         |
  22:src/main.c    **** // |                                                                          |
  23:src/main.c    **** // |    Function argument : Leading a                                         |
  24:src/main.c    **** // |       Local Variable : All lower case                                    |
  25:src/main.c    **** // |                                                                          |
  26:src/main.c    **** // | Examples:                                                                |
  27:src/main.c    **** // |                Array : Leading s, (sb = arrary of byte, etc)             |
  28:src/main.c    **** // |              Pointer : Leading p, (pb = pointer of byte, etc)            |
  29:src/main.c    **** // ============================================================================
  30:src/main.c    **** //
  31:src/main.c    **** //  Date          Who         Action
ARM GAS  C:\Users\AHMED~1.ELE\AppData\Local\Temp\ccUAgQOL.s 			page 2


  32:src/main.c    **** //  ------------  ----------- -------------------------------------------------
  33:src/main.c    **** //  DD MMM  YYYY  main_c      Initial Version.
  34:src/main.c    **** //-----------------------------------------------------------------------------
  35:src/main.c    **** #include "system.h"
  36:src/main.c    **** #include "coremain.h"
  37:src/main.c    **** 
  38:src/main.c    **** //-----------------------------------------------------------------------------
  39:src/main.c    **** //      Prototypes
  40:src/main.c    **** //-----------------------------------------------------------------------------
  41:src/main.c    **** 
  42:src/main.c    **** //-----------------------------------------------------------------------------
  43:src/main.c    **** //      Defines
  44:src/main.c    **** //-----------------------------------------------------------------------------
  45:src/main.c    **** 
  46:src/main.c    **** //-----------------------------------------------------------------------------
  47:src/main.c    **** //      Globals
  48:src/main.c    **** //-----------------------------------------------------------------------------
  49:src/main.c    **** 
  50:src/main.c    **** //-----------------------------------------------------------------------------
  51:src/main.c    **** //      Constant
  52:src/main.c    **** //-----------------------------------------------------------------------------
  53:src/main.c    **** // Application Header
  54:src/main.c    **** const T_APP_HDR KAppHdr = {
  55:src/main.c    ****   (DWORD) "spectratech.com",
  56:src/main.c    ****   (DWORD) KExportFunc,            // Export Function Table
  57:src/main.c    ****   (DWORD) NULL,                   // Reserved
  58:src/main.c    ****   (DWORD) KSoftName,              // Application Name
  59:src/main.c    ****   (BYTE)  SOFT_VERSION,           // Version
  60:src/main.c    ****   (BYTE)  SOFT_SUBVERSION,        // Sub Version
  61:src/main.c    ****   (BYTE)  APPL_TYPE,              // Application Type 0 => Appl, 1 => Appl DLL
  62:src/main.c    ****   (BYTE)  MY_APPL_ID,             // Application ID
  63:src/main.c    ****   (DWORD) 0x12345678,             // Magic Number
  64:src/main.c    **** };
  65:src/main.c    **** 
  66:src/main.c    **** //*****************************************************************************
  67:src/main.c    **** //  Function        : MainApplication
  68:src/main.c    **** //  Description     : Entry point for application.
  69:src/main.c    **** //  Input           : N/A
  70:src/main.c    **** //  Return          : N/A
  71:src/main.c    **** //  Note            : N/A
  72:src/main.c    **** //  Globals Changed : N/A
  73:src/main.c    **** //*****************************************************************************
  74:src/main.c    **** int main(DWORD aParam1, DWORD aParam2, DWORD aParam3)
  75:src/main.c    **** {
  27              		.loc 1 75 0
  28              		.cfi_startproc
  29              		@ args = 0, pretend = 0, frame = 40
  30              		@ frame_needed = 0, uses_anonymous_args = 0
  31              	.LVL0:
  32 0000 70B5     		push	{r4, r5, r6, lr}
  33              		.cfi_def_cfa_offset 16
  34              		.cfi_offset 4, -16
  35              		.cfi_offset 5, -12
  36              		.cfi_offset 6, -8
  37              		.cfi_offset 14, -4
  38 0002 8AB0     		sub	sp, sp, #40
  39              		.cfi_def_cfa_offset 56
ARM GAS  C:\Users\AHMED~1.ELE\AppData\Local\Temp\ccUAgQOL.s 			page 3


  40              		.loc 1 75 0
  41 0004 0646     		mov	r6, r0
  42 0006 0D46     		mov	r5, r1
  43 0008 1446     		mov	r4, r2
  76:src/main.c    ****   int ret_val = 0;
  77:src/main.c    ****   T_APP_INFO sappl_info;
  78:src/main.c    **** 
  79:src/main.c    ****   // Check Midware Exist
  80:src/main.c    ****   if (!os_app_info(0x0F, &sappl_info)) {
  44              		.loc 1 80 0
  45 000a 9120     		movs	r0, #145
  46              	.LVL1:
  47 000c 0F21     		movs	r1, #15
  48              	.LVL2:
  49 000e 01AA     		add	r2, sp, #4
  50              	.LVL3:
  51 0010 FFF7FEFF 		bl	sys_func2
  52              	.LVL4:
  53 0014 88B9     		cbnz	r0, .L2
  81:src/main.c    ****     // Midware not exist
  82:src/main.c    ****     os_disp_puts("\f\x12\nMidware Not Exist!");
  54              		.loc 1 82 0
  55 0016 1720     		movs	r0, #23
  56 0018 1649     		ldr	r1, .L11
  57 001a FFF7FEFF 		bl	sys_func1
  58              	.LVL5:
  59              	.L3:
  83:src/main.c    ****     while (os_kbd_getkey() != K_KeyCancel) os_sleep();
  60              		.loc 1 83 0 discriminator 1
  61 001e 0720     		movs	r0, #7
  62 0020 FFF7FEFF 		bl	sys_func0
  63              	.LVL6:
  64 0024 3C28     		cmp	r0, #60
  65 0026 04D0     		beq	.L10
  66              		.loc 1 83 0 is_stmt 0 discriminator 2
  67 0028 4FF4CE70 		mov	r0, #412
  68 002c FFF7FEFF 		bl	sys_func0
  69              	.LVL7:
  70 0030 F5E7     		b	.L3
  71              	.L10:
  84:src/main.c    ****     os_reset();
  72              		.loc 1 84 0 is_stmt 1
  73 0032 4FF4CF70 		mov	r0, #414
  74 0036 FFF7FEFF 		bl	sys_func0
  75              	.LVL8:
  76              	.L2:
  85:src/main.c    ****   }
  86:src/main.c    **** 
  87:src/main.c    ****   // Virgin Init
  88:src/main.c    ****   if (os_app_get_virgin(MY_APPL_ID)) {
  77              		.loc 1 88 0
  78 003a 8F20     		movs	r0, #143
  79 003c 1121     		movs	r1, #17
  80 003e FFF7FEFF 		bl	sys_func1
  81              	.LVL9:
  82 0042 28B1     		cbz	r0, .L5
  89:src/main.c    ****     VirginInit();
ARM GAS  C:\Users\AHMED~1.ELE\AppData\Local\Temp\ccUAgQOL.s 			page 4


  83              		.loc 1 89 0
  84 0044 FFF7FEFF 		bl	VirginInit
  85              	.LVL10:
  90:src/main.c    ****     os_app_clear_virgin(MY_APPL_ID);
  86              		.loc 1 90 0
  87 0048 9020     		movs	r0, #144
  88 004a 1121     		movs	r1, #17
  89 004c FFF7FEFF 		bl	sys_func1
  90              	.LVL11:
  91              	.L5:
  91:src/main.c    ****   }
  92:src/main.c    **** 
  93:src/main.c    ****   // Initialize Globals Variables
  94:src/main.c    ****   GlobalsInit();
  92              		.loc 1 94 0
  93 0050 FFF7FEFF 		bl	GlobalsInit
  94              	.LVL12:
  95:src/main.c    **** 
  96:src/main.c    ****   // Start application coremain
  97:src/main.c    ****   if (KAppHdr.b_type == 0x00) {         // is application
  98:src/main.c    ****     ret_val = Coremain(aParam1, aParam2, aParam3);
  95              		.loc 1 98 0
  96 0054 2246     		mov	r2, r4
  97 0056 2946     		mov	r1, r5
  98 0058 3046     		mov	r0, r6
  99 005a FFF7FEFF 		bl	Coremain
 100              	.LVL13:
 101 005e 0446     		mov	r4, r0
 102              	.LVL14:
  99:src/main.c    ****   }
 100:src/main.c    **** 
 101:src/main.c    ****   // House Keep
 102:src/main.c    ****   GlobalsCleanUp();
 103              		.loc 1 102 0
 104 0060 FFF7FEFF 		bl	GlobalsCleanUp
 105              	.LVL15:
 103:src/main.c    **** 
 104:src/main.c    ****   // Return to Caller.
 105:src/main.c    ****   os_appcall_return(ret_val);
 106              		.loc 1 105 0
 107 0064 2146     		mov	r1, r4
 108 0066 4FF4D470 		mov	r0, #424
 109 006a FFF7FEFF 		bl	sys_func1
 110              	.LVL16:
 106:src/main.c    **** 
 107:src/main.c    ****   return ret_val;
 108:src/main.c    **** }
 111              		.loc 1 108 0
 112 006e 2046     		mov	r0, r4
 113 0070 0AB0     		add	sp, sp, #40
 114              		.cfi_def_cfa_offset 16
 115              		@ sp needed
 116 0072 70BD     		pop	{r4, r5, r6, pc}
 117              	.LVL17:
 118              	.L12:
 119              		.align	2
 120              	.L11:
ARM GAS  C:\Users\AHMED~1.ELE\AppData\Local\Temp\ccUAgQOL.s 			page 5


 121 0074 00000000 		.word	.LC0
 122              		.cfi_endproc
 123              	.LFE0:
 124              		.size	main, .-main
 125              		.global	KAppHdr
 126              		.section	.rodata
 127              		.align	2
 128              		.type	KAppHdr, %object
 129              		.size	KAppHdr, 24
 130              	KAppHdr:
 131 0000 16000000 		.word	.LC1
 132 0004 00000000 		.word	KExportFunc
 133 0008 00000000 		.word	0
 134 000c 00000000 		.word	KSoftName
 135 0010 03       		.byte	3
 136 0011 01       		.byte	1
 137 0012 00       		.byte	0
 138 0013 11       		.byte	17
 139 0014 78563412 		.word	305419896
 140              		.section	.rodata.str1.1,"aMS",%progbits,1
 141              	.LC0:
 142 0000 0C120A4D 		.ascii	"\014\022\012Midware Not Exist!\000"
 142      69647761 
 142      7265204E 
 142      6F742045 
 142      78697374 
 143              	.LC1:
 144 0016 73706563 		.ascii	"spectratech.com\000"
 144      74726174 
 144      6563682E 
 144      636F6D00 
 145              		.text
 146              	.Letext0:
 147              		.file 2 "../LibA5T1000/common.h"
 148              		.file 3 "../LibA5T1000/system.h"
 149              		.file 4 "src/coremain.h"
 150              		.section	.debug_info,"",%progbits
 151              	.Ldebug_info0:
 152 0000 D8100000 		.4byte	0x10d8
 153 0004 0400     		.2byte	0x4
 154 0006 00000000 		.4byte	.Ldebug_abbrev0
 155 000a 04       		.byte	0x4
 156 000b 01       		.uleb128 0x1
 157 000c 8F100000 		.4byte	.LASF522
 158 0010 01       		.byte	0x1
 159 0011 F4080000 		.4byte	.LASF523
 160 0015 94040000 		.4byte	.LASF524
 161 0019 00000000 		.4byte	.Ldebug_ranges0+0
 162 001d 00000000 		.4byte	0
 163 0021 00000000 		.4byte	.Ldebug_line0
 164 0025 02       		.uleb128 0x2
 165 0026 01       		.byte	0x1
 166 0027 08       		.byte	0x8
 167 0028 B4080000 		.4byte	.LASF2
 168 002c 03       		.uleb128 0x3
 169 002d F8040000 		.4byte	.LASF0
 170 0031 02       		.byte	0x2
ARM GAS  C:\Users\AHMED~1.ELE\AppData\Local\Temp\ccUAgQOL.s 			page 6


 171 0032 0E       		.byte	0xe
 172 0033 25000000 		.4byte	0x25
 173 0037 03       		.uleb128 0x3
 174 0038 42180000 		.4byte	.LASF1
 175 003c 02       		.byte	0x2
 176 003d 0F       		.byte	0xf
 177 003e 42000000 		.4byte	0x42
 178 0042 02       		.uleb128 0x2
 179 0043 02       		.byte	0x2
 180 0044 07       		.byte	0x7
 181 0045 87230000 		.4byte	.LASF3
 182 0049 03       		.uleb128 0x3
 183 004a F1220000 		.4byte	.LASF4
 184 004e 02       		.byte	0x2
 185 004f 10       		.byte	0x10
 186 0050 54000000 		.4byte	0x54
 187 0054 02       		.uleb128 0x2
 188 0055 04       		.byte	0x4
 189 0056 07       		.byte	0x7
 190 0057 B2150000 		.4byte	.LASF5
 191 005b 02       		.uleb128 0x2
 192 005c 08       		.byte	0x8
 193 005d 07       		.byte	0x7
 194 005e 031B0000 		.4byte	.LASF6
 195 0062 02       		.uleb128 0x2
 196 0063 04       		.byte	0x4
 197 0064 07       		.byte	0x7
 198 0065 8F000000 		.4byte	.LASF7
 199 0069 04       		.uleb128 0x4
 200 006a 04       		.byte	0x4
 201 006b 05       		.byte	0x5
 202 006c 696E7400 		.ascii	"int\000"
 203 0070 02       		.uleb128 0x2
 204 0071 01       		.byte	0x1
 205 0072 06       		.byte	0x6
 206 0073 41210000 		.4byte	.LASF8
 207 0077 02       		.uleb128 0x2
 208 0078 02       		.byte	0x2
 209 0079 05       		.byte	0x5
 210 007a 481F0000 		.4byte	.LASF9
 211 007e 02       		.uleb128 0x2
 212 007f 04       		.byte	0x4
 213 0080 05       		.byte	0x5
 214 0081 3C060000 		.4byte	.LASF10
 215 0085 02       		.uleb128 0x2
 216 0086 04       		.byte	0x4
 217 0087 07       		.byte	0x7
 218 0088 EF0F0000 		.4byte	.LASF11
 219 008c 02       		.uleb128 0x2
 220 008d 08       		.byte	0x8
 221 008e 05       		.byte	0x5
 222 008f 59130000 		.4byte	.LASF12
 223 0093 05       		.uleb128 0x5
 224 0094 18       		.byte	0x18
 225 0095 03       		.byte	0x3
 226 0096 4B01     		.2byte	0x14b
 227 0098 12010000 		.4byte	0x112
ARM GAS  C:\Users\AHMED~1.ELE\AppData\Local\Temp\ccUAgQOL.s 			page 7


 228 009c 06       		.uleb128 0x6
 229 009d 990B0000 		.4byte	.LASF13
 230 00a1 03       		.byte	0x3
 231 00a2 4C01     		.2byte	0x14c
 232 00a4 49000000 		.4byte	0x49
 233 00a8 00       		.byte	0
 234 00a9 06       		.uleb128 0x6
 235 00aa AC080000 		.4byte	.LASF14
 236 00ae 03       		.byte	0x3
 237 00af 4D01     		.2byte	0x14d
 238 00b1 49000000 		.4byte	0x49
 239 00b5 04       		.byte	0x4
 240 00b6 06       		.uleb128 0x6
 241 00b7 76000000 		.4byte	.LASF15
 242 00bb 03       		.byte	0x3
 243 00bc 4E01     		.2byte	0x14e
 244 00be 49000000 		.4byte	0x49
 245 00c2 08       		.byte	0x8
 246 00c3 06       		.uleb128 0x6
 247 00c4 6C220000 		.4byte	.LASF16
 248 00c8 03       		.byte	0x3
 249 00c9 4F01     		.2byte	0x14f
 250 00cb 49000000 		.4byte	0x49
 251 00cf 0C       		.byte	0xc
 252 00d0 06       		.uleb128 0x6
 253 00d1 150C0000 		.4byte	.LASF17
 254 00d5 03       		.byte	0x3
 255 00d6 5001     		.2byte	0x150
 256 00d8 2C000000 		.4byte	0x2c
 257 00dc 10       		.byte	0x10
 258 00dd 06       		.uleb128 0x6
 259 00de 13090000 		.4byte	.LASF18
 260 00e2 03       		.byte	0x3
 261 00e3 5101     		.2byte	0x151
 262 00e5 2C000000 		.4byte	0x2c
 263 00e9 11       		.byte	0x11
 264 00ea 06       		.uleb128 0x6
 265 00eb E2000000 		.4byte	.LASF19
 266 00ef 03       		.byte	0x3
 267 00f0 5201     		.2byte	0x152
 268 00f2 2C000000 		.4byte	0x2c
 269 00f6 12       		.byte	0x12
 270 00f7 06       		.uleb128 0x6
 271 00f8 9F0F0000 		.4byte	.LASF20
 272 00fc 03       		.byte	0x3
 273 00fd 5301     		.2byte	0x153
 274 00ff 2C000000 		.4byte	0x2c
 275 0103 13       		.byte	0x13
 276 0104 06       		.uleb128 0x6
 277 0105 A6090000 		.4byte	.LASF21
 278 0109 03       		.byte	0x3
 279 010a 5401     		.2byte	0x154
 280 010c 49000000 		.4byte	0x49
 281 0110 14       		.byte	0x14
 282 0111 00       		.byte	0
 283 0112 07       		.uleb128 0x7
 284 0113 89130000 		.4byte	.LASF22
ARM GAS  C:\Users\AHMED~1.ELE\AppData\Local\Temp\ccUAgQOL.s 			page 8


 285 0117 03       		.byte	0x3
 286 0118 5501     		.2byte	0x155
 287 011a 93000000 		.4byte	0x93
 288 011e 08       		.uleb128 0x8
 289 011f 2C000000 		.4byte	0x2c
 290 0123 2E010000 		.4byte	0x12e
 291 0127 09       		.uleb128 0x9
 292 0128 62000000 		.4byte	0x62
 293 012c 07       		.byte	0x7
 294 012d 00       		.byte	0
 295 012e 05       		.uleb128 0x5
 296 012f 24       		.byte	0x24
 297 0130 03       		.byte	0x3
 298 0131 0602     		.2byte	0x206
 299 0133 A0010000 		.4byte	0x1a0
 300 0137 06       		.uleb128 0x6
 301 0138 88100000 		.4byte	.LASF23
 302 013c 03       		.byte	0x3
 303 013d 0702     		.2byte	0x207
 304 013f 49000000 		.4byte	0x49
 305 0143 00       		.byte	0
 306 0144 06       		.uleb128 0x6
 307 0145 581E0000 		.4byte	.LASF24
 308 0149 03       		.byte	0x3
 309 014a 0802     		.2byte	0x208
 310 014c 49000000 		.4byte	0x49
 311 0150 04       		.byte	0x4
 312 0151 06       		.uleb128 0x6
 313 0152 A70F0000 		.4byte	.LASF25
 314 0156 03       		.byte	0x3
 315 0157 0902     		.2byte	0x209
 316 0159 1E010000 		.4byte	0x11e
 317 015d 08       		.byte	0x8
 318 015e 06       		.uleb128 0x6
 319 015f 5F1D0000 		.4byte	.LASF26
 320 0163 03       		.byte	0x3
 321 0164 0A02     		.2byte	0x20a
 322 0166 A0010000 		.4byte	0x1a0
 323 016a 10       		.byte	0x10
 324 016b 06       		.uleb128 0x6
 325 016c 150C0000 		.4byte	.LASF17
 326 0170 03       		.byte	0x3
 327 0171 0B02     		.2byte	0x20b
 328 0173 2C000000 		.4byte	0x2c
 329 0177 1D       		.byte	0x1d
 330 0178 06       		.uleb128 0x6
 331 0179 13090000 		.4byte	.LASF18
 332 017d 03       		.byte	0x3
 333 017e 0C02     		.2byte	0x20c
 334 0180 2C000000 		.4byte	0x2c
 335 0184 1E       		.byte	0x1e
 336 0185 06       		.uleb128 0x6
 337 0186 E2000000 		.4byte	.LASF19
 338 018a 03       		.byte	0x3
 339 018b 0D02     		.2byte	0x20d
 340 018d 2C000000 		.4byte	0x2c
 341 0191 1F       		.byte	0x1f
ARM GAS  C:\Users\AHMED~1.ELE\AppData\Local\Temp\ccUAgQOL.s 			page 9


 342 0192 06       		.uleb128 0x6
 343 0193 151E0000 		.4byte	.LASF27
 344 0197 03       		.byte	0x3
 345 0198 0E02     		.2byte	0x20e
 346 019a 37000000 		.4byte	0x37
 347 019e 20       		.byte	0x20
 348 019f 00       		.byte	0
 349 01a0 08       		.uleb128 0x8
 350 01a1 2C000000 		.4byte	0x2c
 351 01a5 B0010000 		.4byte	0x1b0
 352 01a9 09       		.uleb128 0x9
 353 01aa 62000000 		.4byte	0x62
 354 01ae 0C       		.byte	0xc
 355 01af 00       		.byte	0
 356 01b0 07       		.uleb128 0x7
 357 01b1 F7190000 		.4byte	.LASF28
 358 01b5 03       		.byte	0x3
 359 01b6 0F02     		.2byte	0x20f
 360 01b8 2E010000 		.4byte	0x12e
 361 01bc 0A       		.uleb128 0xa
 362 01bd 9D0E0000 		.4byte	.LASF525
 363 01c1 02       		.byte	0x2
 364 01c2 03       		.byte	0x3
 365 01c3 9A04     		.2byte	0x49a
 366 01c5 790E0000 		.4byte	0xe79
 367 01c9 0B       		.uleb128 0xb
 368 01ca 2E0D0000 		.4byte	.LASF29
 369 01ce 00       		.sleb128 0
 370 01cf 0B       		.uleb128 0xb
 371 01d0 45100000 		.4byte	.LASF30
 372 01d4 01       		.sleb128 1
 373 01d5 0B       		.uleb128 0xb
 374 01d6 02130000 		.4byte	.LASF31
 375 01da 02       		.sleb128 2
 376 01db 0B       		.uleb128 0xb
 377 01dc C2080000 		.4byte	.LASF32
 378 01e0 03       		.sleb128 3
 379 01e1 0B       		.uleb128 0xb
 380 01e2 49130000 		.4byte	.LASF33
 381 01e6 04       		.sleb128 4
 382 01e7 0B       		.uleb128 0xb
 383 01e8 1D190000 		.4byte	.LASF34
 384 01ec 05       		.sleb128 5
 385 01ed 0B       		.uleb128 0xb
 386 01ee 060B0000 		.4byte	.LASF35
 387 01f2 06       		.sleb128 6
 388 01f3 0B       		.uleb128 0xb
 389 01f4 BC1A0000 		.4byte	.LASF36
 390 01f8 07       		.sleb128 7
 391 01f9 0B       		.uleb128 0xb
 392 01fa B6110000 		.4byte	.LASF37
 393 01fe 08       		.sleb128 8
 394 01ff 0B       		.uleb128 0xb
 395 0200 25220000 		.4byte	.LASF38
 396 0204 09       		.sleb128 9
 397 0205 0B       		.uleb128 0xb
 398 0206 9C220000 		.4byte	.LASF39
ARM GAS  C:\Users\AHMED~1.ELE\AppData\Local\Temp\ccUAgQOL.s 			page 10


 399 020a 0A       		.sleb128 10
 400 020b 0B       		.uleb128 0xb
 401 020c F01C0000 		.4byte	.LASF40
 402 0210 0B       		.sleb128 11
 403 0211 0B       		.uleb128 0xb
 404 0212 4C020000 		.4byte	.LASF41
 405 0216 0C       		.sleb128 12
 406 0217 0B       		.uleb128 0xb
 407 0218 2D190000 		.4byte	.LASF42
 408 021c 0D       		.sleb128 13
 409 021d 0B       		.uleb128 0xb
 410 021e CF090000 		.4byte	.LASF43
 411 0222 0E       		.sleb128 14
 412 0223 0B       		.uleb128 0xb
 413 0224 4B250000 		.4byte	.LASF44
 414 0228 0F       		.sleb128 15
 415 0229 0B       		.uleb128 0xb
 416 022a CB120000 		.4byte	.LASF45
 417 022e 10       		.sleb128 16
 418 022f 0B       		.uleb128 0xb
 419 0230 6A1D0000 		.4byte	.LASF46
 420 0234 11       		.sleb128 17
 421 0235 0B       		.uleb128 0xb
 422 0236 A90C0000 		.4byte	.LASF47
 423 023a 12       		.sleb128 18
 424 023b 0B       		.uleb128 0xb
 425 023c A11D0000 		.4byte	.LASF48
 426 0240 13       		.sleb128 19
 427 0241 0B       		.uleb128 0xb
 428 0242 4D070000 		.4byte	.LASF49
 429 0246 14       		.sleb128 20
 430 0247 0B       		.uleb128 0xb
 431 0248 67130000 		.4byte	.LASF50
 432 024c 15       		.sleb128 21
 433 024d 0B       		.uleb128 0xb
 434 024e 5D070000 		.4byte	.LASF51
 435 0252 16       		.sleb128 22
 436 0253 0B       		.uleb128 0xb
 437 0254 17080000 		.4byte	.LASF52
 438 0258 17       		.sleb128 23
 439 0259 0B       		.uleb128 0xb
 440 025a BF070000 		.4byte	.LASF53
 441 025e 18       		.sleb128 24
 442 025f 0B       		.uleb128 0xb
 443 0260 B3180000 		.4byte	.LASF54
 444 0264 19       		.sleb128 25
 445 0265 0B       		.uleb128 0xb
 446 0266 81070000 		.4byte	.LASF55
 447 026a 1A       		.sleb128 26
 448 026b 0B       		.uleb128 0xb
 449 026c EA070000 		.4byte	.LASF56
 450 0270 1B       		.sleb128 27
 451 0271 0B       		.uleb128 0xb
 452 0272 12100000 		.4byte	.LASF57
 453 0276 1C       		.sleb128 28
 454 0277 0B       		.uleb128 0xb
 455 0278 8C150000 		.4byte	.LASF58
ARM GAS  C:\Users\AHMED~1.ELE\AppData\Local\Temp\ccUAgQOL.s 			page 11


 456 027c 1D       		.sleb128 29
 457 027d 0B       		.uleb128 0xb
 458 027e 6E250000 		.4byte	.LASF59
 459 0282 1E       		.sleb128 30
 460 0283 0B       		.uleb128 0xb
 461 0284 FE060000 		.4byte	.LASF60
 462 0288 1F       		.sleb128 31
 463 0289 0B       		.uleb128 0xb
 464 028a 01100000 		.4byte	.LASF61
 465 028e 20       		.sleb128 32
 466 028f 0B       		.uleb128 0xb
 467 0290 D5020000 		.4byte	.LASF62
 468 0294 21       		.sleb128 33
 469 0295 0B       		.uleb128 0xb
 470 0296 2C180000 		.4byte	.LASF63
 471 029a 22       		.sleb128 34
 472 029b 0B       		.uleb128 0xb
 473 029c 20140000 		.4byte	.LASF64
 474 02a0 23       		.sleb128 35
 475 02a1 0B       		.uleb128 0xb
 476 02a2 E4240000 		.4byte	.LASF65
 477 02a6 24       		.sleb128 36
 478 02a7 0B       		.uleb128 0xb
 479 02a8 740D0000 		.4byte	.LASF66
 480 02ac 25       		.sleb128 37
 481 02ad 0B       		.uleb128 0xb
 482 02ae 11210000 		.4byte	.LASF67
 483 02b2 26       		.sleb128 38
 484 02b3 0B       		.uleb128 0xb
 485 02b4 5C140000 		.4byte	.LASF68
 486 02b8 27       		.sleb128 39
 487 02b9 0B       		.uleb128 0xb
 488 02ba 58060000 		.4byte	.LASF69
 489 02be 28       		.sleb128 40
 490 02bf 0B       		.uleb128 0xb
 491 02c0 981A0000 		.4byte	.LASF70
 492 02c4 29       		.sleb128 41
 493 02c5 0B       		.uleb128 0xb
 494 02c6 B4140000 		.4byte	.LASF71
 495 02ca 2A       		.sleb128 42
 496 02cb 0B       		.uleb128 0xb
 497 02cc 02150000 		.4byte	.LASF72
 498 02d0 2B       		.sleb128 43
 499 02d1 0B       		.uleb128 0xb
 500 02d2 CF0B0000 		.4byte	.LASF73
 501 02d6 2C       		.sleb128 44
 502 02d7 0B       		.uleb128 0xb
 503 02d8 88090000 		.4byte	.LASF74
 504 02dc 2D       		.sleb128 45
 505 02dd 0B       		.uleb128 0xb
 506 02de 65210000 		.4byte	.LASF75
 507 02e2 2E       		.sleb128 46
 508 02e3 0B       		.uleb128 0xb
 509 02e4 F7230000 		.4byte	.LASF76
 510 02e8 2F       		.sleb128 47
 511 02e9 0B       		.uleb128 0xb
 512 02ea 7C1F0000 		.4byte	.LASF77
ARM GAS  C:\Users\AHMED~1.ELE\AppData\Local\Temp\ccUAgQOL.s 			page 12


 513 02ee 30       		.sleb128 48
 514 02ef 0B       		.uleb128 0xb
 515 02f0 AE030000 		.4byte	.LASF78
 516 02f4 31       		.sleb128 49
 517 02f5 0B       		.uleb128 0xb
 518 02f6 561C0000 		.4byte	.LASF79
 519 02fa 32       		.sleb128 50
 520 02fb 0B       		.uleb128 0xb
 521 02fc C0220000 		.4byte	.LASF80
 522 0300 33       		.sleb128 51
 523 0301 0B       		.uleb128 0xb
 524 0302 23120000 		.4byte	.LASF81
 525 0306 34       		.sleb128 52
 526 0307 0B       		.uleb128 0xb
 527 0308 BF090000 		.4byte	.LASF82
 528 030c 35       		.sleb128 53
 529 030d 0B       		.uleb128 0xb
 530 030e 93190000 		.4byte	.LASF83
 531 0312 36       		.sleb128 54
 532 0313 0B       		.uleb128 0xb
 533 0314 93130000 		.4byte	.LASF84
 534 0318 37       		.sleb128 55
 535 0319 0B       		.uleb128 0xb
 536 031a 99250000 		.4byte	.LASF85
 537 031e 38       		.sleb128 56
 538 031f 0B       		.uleb128 0xb
 539 0320 35230000 		.4byte	.LASF86
 540 0324 39       		.sleb128 57
 541 0325 0B       		.uleb128 0xb
 542 0326 ED1B0000 		.4byte	.LASF87
 543 032a 3A       		.sleb128 58
 544 032b 0B       		.uleb128 0xb
 545 032c 9D030000 		.4byte	.LASF88
 546 0330 3B       		.sleb128 59
 547 0331 0B       		.uleb128 0xb
 548 0332 63240000 		.4byte	.LASF89
 549 0336 3C       		.sleb128 60
 550 0337 0B       		.uleb128 0xb
 551 0338 3D190000 		.4byte	.LASF90
 552 033c 3D       		.sleb128 61
 553 033d 0B       		.uleb128 0xb
 554 033e 8F210000 		.4byte	.LASF91
 555 0342 3E       		.sleb128 62
 556 0343 0B       		.uleb128 0xb
 557 0344 EB1E0000 		.4byte	.LASF92
 558 0348 3F       		.sleb128 63
 559 0349 0B       		.uleb128 0xb
 560 034a E9050000 		.4byte	.LASF93
 561 034e C000     		.sleb128 64
 562 0350 0B       		.uleb128 0xb
 563 0351 51010000 		.4byte	.LASF94
 564 0355 C100     		.sleb128 65
 565 0357 0B       		.uleb128 0xb
 566 0358 C3240000 		.4byte	.LASF95
 567 035c C200     		.sleb128 66
 568 035e 0B       		.uleb128 0xb
 569 035f A7140000 		.4byte	.LASF96
ARM GAS  C:\Users\AHMED~1.ELE\AppData\Local\Temp\ccUAgQOL.s 			page 13


 570 0363 C300     		.sleb128 67
 571 0365 0B       		.uleb128 0xb
 572 0366 771A0000 		.4byte	.LASF97
 573 036a C400     		.sleb128 68
 574 036c 0B       		.uleb128 0xb
 575 036d 7C0B0000 		.4byte	.LASF98
 576 0371 C500     		.sleb128 69
 577 0373 0B       		.uleb128 0xb
 578 0374 080F0000 		.4byte	.LASF99
 579 0378 C600     		.sleb128 70
 580 037a 0B       		.uleb128 0xb
 581 037b CE1B0000 		.4byte	.LASF100
 582 037f C700     		.sleb128 71
 583 0381 0B       		.uleb128 0xb
 584 0382 A5130000 		.4byte	.LASF101
 585 0386 C800     		.sleb128 72
 586 0388 0B       		.uleb128 0xb
 587 0389 E1160000 		.4byte	.LASF102
 588 038d C900     		.sleb128 73
 589 038f 0B       		.uleb128 0xb
 590 0390 64230000 		.4byte	.LASF103
 591 0394 CA00     		.sleb128 74
 592 0396 0B       		.uleb128 0xb
 593 0397 18240000 		.4byte	.LASF104
 594 039b CB00     		.sleb128 75
 595 039d 0B       		.uleb128 0xb
 596 039e 26050000 		.4byte	.LASF105
 597 03a2 CC00     		.sleb128 76
 598 03a4 0B       		.uleb128 0xb
 599 03a5 BA160000 		.4byte	.LASF106
 600 03a9 CD00     		.sleb128 77
 601 03ab 0B       		.uleb128 0xb
 602 03ac E4030000 		.4byte	.LASF107
 603 03b0 CE00     		.sleb128 78
 604 03b2 0B       		.uleb128 0xb
 605 03b3 D2040000 		.4byte	.LASF108
 606 03b7 CF00     		.sleb128 79
 607 03b9 0B       		.uleb128 0xb
 608 03ba 91220000 		.4byte	.LASF109
 609 03be D000     		.sleb128 80
 610 03c0 0B       		.uleb128 0xb
 611 03c1 F81D0000 		.4byte	.LASF110
 612 03c5 D100     		.sleb128 81
 613 03c7 0B       		.uleb128 0xb
 614 03c8 D7140000 		.4byte	.LASF111
 615 03cc D200     		.sleb128 82
 616 03ce 0B       		.uleb128 0xb
 617 03cf 020D0000 		.4byte	.LASF112
 618 03d3 D300     		.sleb128 83
 619 03d5 0B       		.uleb128 0xb
 620 03d6 911E0000 		.4byte	.LASF113
 621 03da D400     		.sleb128 84
 622 03dc 0B       		.uleb128 0xb
 623 03dd 521A0000 		.4byte	.LASF114
 624 03e1 D500     		.sleb128 85
 625 03e3 0B       		.uleb128 0xb
 626 03e4 52040000 		.4byte	.LASF115
ARM GAS  C:\Users\AHMED~1.ELE\AppData\Local\Temp\ccUAgQOL.s 			page 14


 627 03e8 D600     		.sleb128 86
 628 03ea 0B       		.uleb128 0xb
 629 03eb 08240000 		.4byte	.LASF116
 630 03ef D700     		.sleb128 87
 631 03f1 0B       		.uleb128 0xb
 632 03f2 271D0000 		.4byte	.LASF117
 633 03f6 D800     		.sleb128 88
 634 03f8 0B       		.uleb128 0xb
 635 03f9 870B0000 		.4byte	.LASF118
 636 03fd D900     		.sleb128 89
 637 03ff 0B       		.uleb128 0xb
 638 0400 DC1B0000 		.4byte	.LASF119
 639 0404 DA00     		.sleb128 90
 640 0406 0B       		.uleb128 0xb
 641 0407 021A0000 		.4byte	.LASF120
 642 040b DB00     		.sleb128 91
 643 040d 0B       		.uleb128 0xb
 644 040e C2060000 		.4byte	.LASF121
 645 0412 DC00     		.sleb128 92
 646 0414 0B       		.uleb128 0xb
 647 0415 85030000 		.4byte	.LASF122
 648 0419 DD00     		.sleb128 93
 649 041b 0B       		.uleb128 0xb
 650 041c B7040000 		.4byte	.LASF123
 651 0420 DE00     		.sleb128 94
 652 0422 0B       		.uleb128 0xb
 653 0423 7D060000 		.4byte	.LASF124
 654 0427 DF00     		.sleb128 95
 655 0429 0B       		.uleb128 0xb
 656 042a 96170000 		.4byte	.LASF125
 657 042e E000     		.sleb128 96
 658 0430 0B       		.uleb128 0xb
 659 0431 3B200000 		.4byte	.LASF126
 660 0435 E100     		.sleb128 97
 661 0437 0B       		.uleb128 0xb
 662 0438 FF1F0000 		.4byte	.LASF127
 663 043c E200     		.sleb128 98
 664 043e 0B       		.uleb128 0xb
 665 043f B50A0000 		.4byte	.LASF128
 666 0443 E300     		.sleb128 99
 667 0445 0B       		.uleb128 0xb
 668 0446 FF200000 		.4byte	.LASF129
 669 044a E400     		.sleb128 100
 670 044c 0B       		.uleb128 0xb
 671 044d D8170000 		.4byte	.LASF130
 672 0451 E500     		.sleb128 101
 673 0453 0B       		.uleb128 0xb
 674 0454 8D010000 		.4byte	.LASF131
 675 0458 E600     		.sleb128 102
 676 045a 0B       		.uleb128 0xb
 677 045b 17050000 		.4byte	.LASF132
 678 045f E700     		.sleb128 103
 679 0461 0B       		.uleb128 0xb
 680 0462 EF120000 		.4byte	.LASF133
 681 0466 E800     		.sleb128 104
 682 0468 0B       		.uleb128 0xb
 683 0469 EA040000 		.4byte	.LASF134
ARM GAS  C:\Users\AHMED~1.ELE\AppData\Local\Temp\ccUAgQOL.s 			page 15


 684 046d E900     		.sleb128 105
 685 046f 0B       		.uleb128 0xb
 686 0470 EA0E0000 		.4byte	.LASF135
 687 0474 EA00     		.sleb128 106
 688 0476 0B       		.uleb128 0xb
 689 0477 2B200000 		.4byte	.LASF136
 690 047b EB00     		.sleb128 107
 691 047d 0B       		.uleb128 0xb
 692 047e FB1E0000 		.4byte	.LASF137
 693 0482 EC00     		.sleb128 108
 694 0484 0B       		.uleb128 0xb
 695 0485 36150000 		.4byte	.LASF138
 696 0489 ED00     		.sleb128 109
 697 048b 0B       		.uleb128 0xb
 698 048c D1080000 		.4byte	.LASF139
 699 0490 EE00     		.sleb128 110
 700 0492 0B       		.uleb128 0xb
 701 0493 A8160000 		.4byte	.LASF140
 702 0497 EF00     		.sleb128 111
 703 0499 0B       		.uleb128 0xb
 704 049a 87120000 		.4byte	.LASF141
 705 049e F000     		.sleb128 112
 706 04a0 0B       		.uleb128 0xb
 707 04a1 46030000 		.4byte	.LASF142
 708 04a5 F100     		.sleb128 113
 709 04a7 0B       		.uleb128 0xb
 710 04a8 60170000 		.4byte	.LASF143
 711 04ac F200     		.sleb128 114
 712 04ae 0B       		.uleb128 0xb
 713 04af B71B0000 		.4byte	.LASF144
 714 04b3 F300     		.sleb128 115
 715 04b5 0B       		.uleb128 0xb
 716 04b6 91070000 		.4byte	.LASF145
 717 04ba F400     		.sleb128 116
 718 04bc 0B       		.uleb128 0xb
 719 04bd CC200000 		.4byte	.LASF146
 720 04c1 F500     		.sleb128 117
 721 04c3 0B       		.uleb128 0xb
 722 04c4 77210000 		.4byte	.LASF147
 723 04c8 F600     		.sleb128 118
 724 04ca 0B       		.uleb128 0xb
 725 04cb 98090000 		.4byte	.LASF148
 726 04cf F700     		.sleb128 119
 727 04d1 0B       		.uleb128 0xb
 728 04d2 30090000 		.4byte	.LASF149
 729 04d6 F800     		.sleb128 120
 730 04d8 0B       		.uleb128 0xb
 731 04d9 6B0A0000 		.4byte	.LASF150
 732 04dd F900     		.sleb128 121
 733 04df 0B       		.uleb128 0xb
 734 04e0 9A230000 		.4byte	.LASF151
 735 04e4 FA00     		.sleb128 122
 736 04e6 0B       		.uleb128 0xb
 737 04e7 860C0000 		.4byte	.LASF152
 738 04eb FB00     		.sleb128 123
 739 04ed 0B       		.uleb128 0xb
 740 04ee 34120000 		.4byte	.LASF153
ARM GAS  C:\Users\AHMED~1.ELE\AppData\Local\Temp\ccUAgQOL.s 			page 16


 741 04f2 FC00     		.sleb128 124
 742 04f4 0B       		.uleb128 0xb
 743 04f5 131F0000 		.4byte	.LASF154
 744 04f9 FD00     		.sleb128 125
 745 04fb 0B       		.uleb128 0xb
 746 04fc 90080000 		.4byte	.LASF155
 747 0500 FE00     		.sleb128 126
 748 0502 0B       		.uleb128 0xb
 749 0503 410E0000 		.4byte	.LASF156
 750 0507 FF00     		.sleb128 127
 751 0509 0B       		.uleb128 0xb
 752 050a 1D1E0000 		.4byte	.LASF157
 753 050e 8001     		.sleb128 128
 754 0510 0B       		.uleb128 0xb
 755 0511 45060000 		.4byte	.LASF158
 756 0515 8101     		.sleb128 129
 757 0517 0B       		.uleb128 0xb
 758 0518 74020000 		.4byte	.LASF159
 759 051c 8201     		.sleb128 130
 760 051e 0B       		.uleb128 0xb
 761 051f D9190000 		.4byte	.LASF160
 762 0523 8301     		.sleb128 131
 763 0525 0B       		.uleb128 0xb
 764 0526 021D0000 		.4byte	.LASF161
 765 052a 8401     		.sleb128 132
 766 052c 0B       		.uleb128 0xb
 767 052d 9A0C0000 		.4byte	.LASF162
 768 0531 8501     		.sleb128 133
 769 0533 0B       		.uleb128 0xb
 770 0534 3E240000 		.4byte	.LASF163
 771 0538 8601     		.sleb128 134
 772 053a 0B       		.uleb128 0xb
 773 053b AE090000 		.4byte	.LASF164
 774 053f 8701     		.sleb128 135
 775 0541 0B       		.uleb128 0xb
 776 0542 D9110000 		.4byte	.LASF165
 777 0546 8801     		.sleb128 136
 778 0548 0B       		.uleb128 0xb
 779 0549 CA0C0000 		.4byte	.LASF166
 780 054d 8901     		.sleb128 137
 781 054f 0B       		.uleb128 0xb
 782 0550 63080000 		.4byte	.LASF167
 783 0554 8A01     		.sleb128 138
 784 0556 0B       		.uleb128 0xb
 785 0557 D11D0000 		.4byte	.LASF168
 786 055b 8B01     		.sleb128 139
 787 055d 0B       		.uleb128 0xb
 788 055e 76220000 		.4byte	.LASF169
 789 0562 8C01     		.sleb128 140
 790 0564 0B       		.uleb128 0xb
 791 0565 36140000 		.4byte	.LASF170
 792 0569 8D01     		.sleb128 141
 793 056b 0B       		.uleb128 0xb
 794 056c 3C1A0000 		.4byte	.LASF171
 795 0570 8E01     		.sleb128 142
 796 0572 0B       		.uleb128 0xb
 797 0573 1F0C0000 		.4byte	.LASF172
ARM GAS  C:\Users\AHMED~1.ELE\AppData\Local\Temp\ccUAgQOL.s 			page 17


 798 0577 8F01     		.sleb128 143
 799 0579 0B       		.uleb128 0xb
 800 057a 000C0000 		.4byte	.LASF173
 801 057e 9001     		.sleb128 144
 802 0580 0B       		.uleb128 0xb
 803 0581 F7210000 		.4byte	.LASF174
 804 0585 9101     		.sleb128 145
 805 0587 0B       		.uleb128 0xb
 806 0588 72190000 		.4byte	.LASF175
 807 058c 9201     		.sleb128 146
 808 058e 0B       		.uleb128 0xb
 809 058f 61200000 		.4byte	.LASF176
 810 0593 9301     		.sleb128 147
 811 0595 0B       		.uleb128 0xb
 812 0596 3E130000 		.4byte	.LASF177
 813 059a 9401     		.sleb128 148
 814 059c 0B       		.uleb128 0xb
 815 059d B6000000 		.4byte	.LASF178
 816 05a1 9501     		.sleb128 149
 817 05a3 0B       		.uleb128 0xb
 818 05a4 70080000 		.4byte	.LASF179
 819 05a8 9601     		.sleb128 150
 820 05aa 0B       		.uleb128 0xb
 821 05ab 9C0D0000 		.4byte	.LASF180
 822 05af 9701     		.sleb128 151
 823 05b1 0B       		.uleb128 0xb
 824 05b2 2D130000 		.4byte	.LASF181
 825 05b6 9801     		.sleb128 152
 826 05b8 0B       		.uleb128 0xb
 827 05b9 62010000 		.4byte	.LASF182
 828 05bd 9901     		.sleb128 153
 829 05bf 0B       		.uleb128 0xb
 830 05c0 13150000 		.4byte	.LASF183
 831 05c4 9A01     		.sleb128 154
 832 05c6 0B       		.uleb128 0xb
 833 05c7 C7190000 		.4byte	.LASF184
 834 05cb 9B01     		.sleb128 155
 835 05cd 0B       		.uleb128 0xb
 836 05ce 5B250000 		.4byte	.LASF185
 837 05d2 9C01     		.sleb128 156
 838 05d4 0B       		.uleb128 0xb
 839 05d5 7F000000 		.4byte	.LASF186
 840 05d9 9D01     		.sleb128 157
 841 05db 0B       		.uleb128 0xb
 842 05dc 310E0000 		.4byte	.LASF187
 843 05e0 9E01     		.sleb128 158
 844 05e2 0B       		.uleb128 0xb
 845 05e3 42090000 		.4byte	.LASF188
 846 05e7 9F01     		.sleb128 159
 847 05e9 0B       		.uleb128 0xb
 848 05ea 80080000 		.4byte	.LASF189
 849 05ee A001     		.sleb128 160
 850 05f0 0B       		.uleb128 0xb
 851 05f1 1B160000 		.4byte	.LASF190
 852 05f5 A101     		.sleb128 161
 853 05f7 0B       		.uleb128 0xb
 854 05f8 4E190000 		.4byte	.LASF191
ARM GAS  C:\Users\AHMED~1.ELE\AppData\Local\Temp\ccUAgQOL.s 			page 18


 855 05fc A201     		.sleb128 162
 856 05fe 0B       		.uleb128 0xb
 857 05ff FC030000 		.4byte	.LASF192
 858 0603 A301     		.sleb128 163
 859 0605 0B       		.uleb128 0xb
 860 0606 2B1B0000 		.4byte	.LASF193
 861 060a A401     		.sleb128 164
 862 060c 0B       		.uleb128 0xb
 863 060d 0F070000 		.4byte	.LASF194
 864 0611 A501     		.sleb128 165
 865 0613 0B       		.uleb128 0xb
 866 0614 16020000 		.4byte	.LASF195
 867 0618 A601     		.sleb128 166
 868 061a 0B       		.uleb128 0xb
 869 061b EF160000 		.4byte	.LASF196
 870 061f A701     		.sleb128 167
 871 0621 0B       		.uleb128 0xb
 872 0622 78150000 		.4byte	.LASF197
 873 0626 A801     		.sleb128 168
 874 0628 0B       		.uleb128 0xb
 875 0629 80040000 		.4byte	.LASF198
 876 062d A901     		.sleb128 169
 877 062f 0B       		.uleb128 0xb
 878 0630 73230000 		.4byte	.LASF199
 879 0634 AA01     		.sleb128 170
 880 0636 0B       		.uleb128 0xb
 881 0637 FB180000 		.4byte	.LASF200
 882 063b AB01     		.sleb128 171
 883 063d 0B       		.uleb128 0xb
 884 063e CE210000 		.4byte	.LASF201
 885 0642 AC01     		.sleb128 172
 886 0644 0B       		.uleb128 0xb
 887 0645 2C030000 		.4byte	.LASF202
 888 0649 AD01     		.sleb128 173
 889 064b 0B       		.uleb128 0xb
 890 064c 96120000 		.4byte	.LASF203
 891 0650 AE01     		.sleb128 174
 892 0652 0B       		.uleb128 0xb
 893 0653 641E0000 		.4byte	.LASF204
 894 0657 AF01     		.sleb128 175
 895 0659 0B       		.uleb128 0xb
 896 065a 460A0000 		.4byte	.LASF205
 897 065e B001     		.sleb128 176
 898 0660 0B       		.uleb128 0xb
 899 0661 53000000 		.4byte	.LASF206
 900 0665 B101     		.sleb128 177
 901 0667 0B       		.uleb128 0xb
 902 0668 B8120000 		.4byte	.LASF207
 903 066c B201     		.sleb128 178
 904 066e 0B       		.uleb128 0xb
 905 066f 5B220000 		.4byte	.LASF208
 906 0673 B301     		.sleb128 179
 907 0675 0B       		.uleb128 0xb
 908 0676 4D050000 		.4byte	.LASF209
 909 067a B401     		.sleb128 180
 910 067c 0B       		.uleb128 0xb
 911 067d 410F0000 		.4byte	.LASF210
ARM GAS  C:\Users\AHMED~1.ELE\AppData\Local\Temp\ccUAgQOL.s 			page 19


 912 0681 B501     		.sleb128 181
 913 0683 0B       		.uleb128 0xb
 914 0684 BA050000 		.4byte	.LASF211
 915 0688 B601     		.sleb128 182
 916 068a 0B       		.uleb128 0xb
 917 068b 1A1B0000 		.4byte	.LASF212
 918 068f B701     		.sleb128 183
 919 0691 0B       		.uleb128 0xb
 920 0692 FF080000 		.4byte	.LASF213
 921 0696 B801     		.sleb128 184
 922 0698 0B       		.uleb128 0xb
 923 0699 27080000 		.4byte	.LASF214
 924 069d B901     		.sleb128 185
 925 069f 0B       		.uleb128 0xb
 926 06a0 C6250000 		.4byte	.LASF215
 927 06a4 BA01     		.sleb128 186
 928 06a6 0B       		.uleb128 0xb
 929 06a7 311E0000 		.4byte	.LASF216
 930 06ab BB01     		.sleb128 187
 931 06ad 0B       		.uleb128 0xb
 932 06ae 43040000 		.4byte	.LASF217
 933 06b2 BC01     		.sleb128 188
 934 06b4 0B       		.uleb128 0xb
 935 06b5 F80E0000 		.4byte	.LASF218
 936 06b9 BD01     		.sleb128 189
 937 06bb 0B       		.uleb128 0xb
 938 06bc 0B040000 		.4byte	.LASF219
 939 06c0 BE01     		.sleb128 190
 940 06c2 0B       		.uleb128 0xb
 941 06c3 521F0000 		.4byte	.LASF220
 942 06c7 BF01     		.sleb128 191
 943 06c9 0B       		.uleb128 0xb
 944 06ca 340C0000 		.4byte	.LASF221
 945 06ce C001     		.sleb128 192
 946 06d0 0B       		.uleb128 0xb
 947 06d1 0F200000 		.4byte	.LASF222
 948 06d5 C101     		.sleb128 193
 949 06d7 0B       		.uleb128 0xb
 950 06d8 AB120000 		.4byte	.LASF223
 951 06dc C201     		.sleb128 194
 952 06de 0B       		.uleb128 0xb
 953 06df 67150000 		.4byte	.LASF224
 954 06e3 C301     		.sleb128 195
 955 06e5 0B       		.uleb128 0xb
 956 06e6 AF1D0000 		.4byte	.LASF225
 957 06ea C401     		.sleb128 196
 958 06ec 0B       		.uleb128 0xb
 959 06ed 82140000 		.4byte	.LASF226
 960 06f1 C501     		.sleb128 197
 961 06f3 0B       		.uleb128 0xb
 962 06f4 AD220000 		.4byte	.LASF227
 963 06f8 C601     		.sleb128 198
 964 06fa 0B       		.uleb128 0xb
 965 06fb 07020000 		.4byte	.LASF228
 966 06ff C701     		.sleb128 199
 967 0701 0B       		.uleb128 0xb
 968 0702 EA170000 		.4byte	.LASF229
ARM GAS  C:\Users\AHMED~1.ELE\AppData\Local\Temp\ccUAgQOL.s 			page 20


 969 0706 C801     		.sleb128 200
 970 0708 0B       		.uleb128 0xb
 971 0709 E51D0000 		.4byte	.LASF230
 972 070d C901     		.sleb128 201
 973 070f 0B       		.uleb128 0xb
 974 0710 D4180000 		.4byte	.LASF231
 975 0714 CA01     		.sleb128 202
 976 0716 0B       		.uleb128 0xb
 977 0717 46230000 		.4byte	.LASF232
 978 071b CB01     		.sleb128 203
 979 071d 0B       		.uleb128 0xb
 980 071e A50A0000 		.4byte	.LASF233
 981 0722 CC01     		.sleb128 204
 982 0724 0B       		.uleb128 0xb
 983 0725 671C0000 		.4byte	.LASF234
 984 0729 CD01     		.sleb128 205
 985 072b 0B       		.uleb128 0xb
 986 072c C6020000 		.4byte	.LASF235
 987 0730 CE01     		.sleb128 206
 988 0732 0B       		.uleb128 0xb
 989 0733 DF0B0000 		.4byte	.LASF236
 990 0737 CF01     		.sleb128 207
 991 0739 0B       		.uleb128 0xb
 992 073a B8170000 		.4byte	.LASF237
 993 073e D001     		.sleb128 208
 994 0740 0B       		.uleb128 0xb
 995 0741 AE0E0000 		.4byte	.LASF238
 996 0745 D101     		.sleb128 209
 997 0747 0B       		.uleb128 0xb
 998 0748 020A0000 		.4byte	.LASF239
 999 074c D201     		.sleb128 210
 1000 074e 0B       		.uleb128 0xb
 1001 074f 81220000 		.4byte	.LASF240
 1002 0753 D301     		.sleb128 211
 1003 0755 0B       		.uleb128 0xb
 1004 0756 911D0000 		.4byte	.LASF241
 1005 075a D401     		.sleb128 212
 1006 075c 0B       		.uleb128 0xb
 1007 075d 5B0A0000 		.4byte	.LASF242
 1008 0761 D501     		.sleb128 213
 1009 0763 0B       		.uleb128 0xb
 1010 0764 79100000 		.4byte	.LASF243
 1011 0768 D601     		.sleb128 214
 1012 076a 0B       		.uleb128 0xb
 1013 076b CC0D0000 		.4byte	.LASF244
 1014 076f D701     		.sleb128 215
 1015 0771 0B       		.uleb128 0xb
 1016 0772 EF0B0000 		.4byte	.LASF245
 1017 0776 D801     		.sleb128 216
 1018 0778 0B       		.uleb128 0xb
 1019 0779 04230000 		.4byte	.LASF246
 1020 077d D901     		.sleb128 217
 1021 077f 0B       		.uleb128 0xb
 1022 0780 50100000 		.4byte	.LASF247
 1023 0784 DA01     		.sleb128 218
 1024 0786 0B       		.uleb128 0xb
 1025 0787 D4030000 		.4byte	.LASF248
ARM GAS  C:\Users\AHMED~1.ELE\AppData\Local\Temp\ccUAgQOL.s 			page 21


 1026 078b DB01     		.sleb128 219
 1027 078d 0B       		.uleb128 0xb
 1028 078e DA050000 		.4byte	.LASF249
 1029 0792 DC01     		.sleb128 220
 1030 0794 0B       		.uleb128 0xb
 1031 0795 06220000 		.4byte	.LASF250
 1032 0799 DD01     		.sleb128 221
 1033 079b 0B       		.uleb128 0xb
 1034 079c 7B0F0000 		.4byte	.LASF251
 1035 07a0 DE01     		.sleb128 222
 1036 07a2 0B       		.uleb128 0xb
 1037 07a3 AE0D0000 		.4byte	.LASF252
 1038 07a7 DF01     		.sleb128 223
 1039 07a9 0B       		.uleb128 0xb
 1040 07aa DA0E0000 		.4byte	.LASF253
 1041 07ae E001     		.sleb128 224
 1042 07b0 0B       		.uleb128 0xb
 1043 07b1 BD0D0000 		.4byte	.LASF254
 1044 07b5 E101     		.sleb128 225
 1045 07b7 0B       		.uleb128 0xb
 1046 07b8 A6110000 		.4byte	.LASF255
 1047 07bc E201     		.sleb128 226
 1048 07be 0B       		.uleb128 0xb
 1049 07bf 0F140000 		.4byte	.LASF256
 1050 07c3 E301     		.sleb128 227
 1051 07c5 0B       		.uleb128 0xb
 1052 07c6 100E0000 		.4byte	.LASF257
 1053 07ca E401     		.sleb128 228
 1054 07cc 0B       		.uleb128 0xb
 1055 07cd 510C0000 		.4byte	.LASF258
 1056 07d1 E501     		.sleb128 229
 1057 07d3 0B       		.uleb128 0xb
 1058 07d4 C5140000 		.4byte	.LASF259
 1059 07d8 E601     		.sleb128 230
 1060 07da 0B       		.uleb128 0xb
 1061 07db CB0F0000 		.4byte	.LASF260
 1062 07df E701     		.sleb128 231
 1063 07e1 0B       		.uleb128 0xb
 1064 07e2 39080000 		.4byte	.LASF261
 1065 07e6 E801     		.sleb128 232
 1066 07e8 0B       		.uleb128 0xb
 1067 07e9 87240000 		.4byte	.LASF262
 1068 07ed E901     		.sleb128 233
 1069 07ef 0B       		.uleb128 0xb
 1070 07f0 D71F0000 		.4byte	.LASF263
 1071 07f4 EA01     		.sleb128 234
 1072 07f6 0B       		.uleb128 0xb
 1073 07f7 76170000 		.4byte	.LASF264
 1074 07fb EB01     		.sleb128 235
 1075 07fd 0B       		.uleb128 0xb
 1076 07fe 4E200000 		.4byte	.LASF265
 1077 0802 EC01     		.sleb128 236
 1078 0804 0B       		.uleb128 0xb
 1079 0805 071E0000 		.4byte	.LASF266
 1080 0809 ED01     		.sleb128 237
 1081 080b 0B       		.uleb128 0xb
 1082 080c F7220000 		.4byte	.LASF267
ARM GAS  C:\Users\AHMED~1.ELE\AppData\Local\Temp\ccUAgQOL.s 			page 22


 1083 0810 EE01     		.sleb128 238
 1084 0812 0B       		.uleb128 0xb
 1085 0813 D9130000 		.4byte	.LASF268
 1086 0817 EF01     		.sleb128 239
 1087 0819 0B       		.uleb128 0xb
 1088 081a 26230000 		.4byte	.LASF269
 1089 081e F001     		.sleb128 240
 1090 0820 0B       		.uleb128 0xb
 1091 0821 15170000 		.4byte	.LASF270
 1092 0825 F101     		.sleb128 241
 1093 0827 0B       		.uleb128 0xb
 1094 0828 E2210000 		.4byte	.LASF271
 1095 082c F201     		.sleb128 242
 1096 082e 0B       		.uleb128 0xb
 1097 082f EC130000 		.4byte	.LASF272
 1098 0833 F301     		.sleb128 243
 1099 0835 0B       		.uleb128 0xb
 1100 0836 E9060000 		.4byte	.LASF273
 1101 083a F401     		.sleb128 244
 1102 083c 0B       		.uleb128 0xb
 1103 083d 161C0000 		.4byte	.LASF274
 1104 0841 F501     		.sleb128 245
 1105 0843 0B       		.uleb128 0xb
 1106 0844 431C0000 		.4byte	.LASF275
 1107 0848 F601     		.sleb128 246
 1108 084a 0B       		.uleb128 0xb
 1109 084b 1C090000 		.4byte	.LASF276
 1110 084f F701     		.sleb128 247
 1111 0851 0B       		.uleb128 0xb
 1112 0852 26170000 		.4byte	.LASF277
 1113 0856 F801     		.sleb128 248
 1114 0858 0B       		.uleb128 0xb
 1115 0859 680F0000 		.4byte	.LASF278
 1116 085d F901     		.sleb128 249
 1117 085f 0B       		.uleb128 0xb
 1118 0860 0B190000 		.4byte	.LASF279
 1119 0864 FA01     		.sleb128 250
 1120 0866 0B       		.uleb128 0xb
 1121 0867 72110000 		.4byte	.LASF280
 1122 086b FB01     		.sleb128 251
 1123 086d 0B       		.uleb128 0xb
 1124 086e 0B250000 		.4byte	.LASF281
 1125 0872 FC01     		.sleb128 252
 1126 0874 0B       		.uleb128 0xb
 1127 0875 770C0000 		.4byte	.LASF282
 1128 0879 FD01     		.sleb128 253
 1129 087b 0B       		.uleb128 0xb
 1130 087c 55230000 		.4byte	.LASF283
 1131 0880 FE01     		.sleb128 254
 1132 0882 0B       		.uleb128 0xb
 1133 0883 BB0E0000 		.4byte	.LASF284
 1134 0887 FF01     		.sleb128 255
 1135 0889 0B       		.uleb128 0xb
 1136 088a E0220000 		.4byte	.LASF285
 1137 088e 8002     		.sleb128 256
 1138 0890 0B       		.uleb128 0xb
 1139 0891 81110000 		.4byte	.LASF286
ARM GAS  C:\Users\AHMED~1.ELE\AppData\Local\Temp\ccUAgQOL.s 			page 23


 1140 0895 8102     		.sleb128 257
 1141 0897 0B       		.uleb128 0xb
 1142 0898 161A0000 		.4byte	.LASF287
 1143 089c 8202     		.sleb128 258
 1144 089e 0B       		.uleb128 0xb
 1145 089f 161D0000 		.4byte	.LASF288
 1146 08a3 8302     		.sleb128 259
 1147 08a5 0B       		.uleb128 0xb
 1148 08a6 E20A0000 		.4byte	.LASF289
 1149 08aa 8402     		.sleb128 260
 1150 08ac 0B       		.uleb128 0xb
 1151 08ad C90E0000 		.4byte	.LASF290
 1152 08b1 8502     		.sleb128 261
 1153 08b3 0B       		.uleb128 0xb
 1154 08b4 B5020000 		.4byte	.LASF291
 1155 08b8 8602     		.sleb128 262
 1156 08ba 0B       		.uleb128 0xb
 1157 08bb 76120000 		.4byte	.LASF292
 1158 08bf 8702     		.sleb128 263
 1159 08c1 0B       		.uleb128 0xb
 1160 08c2 82050000 		.4byte	.LASF293
 1161 08c6 8802     		.sleb128 264
 1162 08c8 0B       		.uleb128 0xb
 1163 08c9 620D0000 		.4byte	.LASF294
 1164 08cd 8902     		.sleb128 265
 1165 08cf 0B       		.uleb128 0xb
 1166 08d0 A61F0000 		.4byte	.LASF295
 1167 08d4 8A02     		.sleb128 266
 1168 08d6 0B       		.uleb128 0xb
 1169 08d7 410C0000 		.4byte	.LASF296
 1170 08db 8B02     		.sleb128 267
 1171 08dd 0B       		.uleb128 0xb
 1172 08de 250A0000 		.4byte	.LASF297
 1173 08e2 8C02     		.sleb128 268
 1174 08e4 0B       		.uleb128 0xb
 1175 08e5 CD1C0000 		.4byte	.LASF298
 1176 08e9 8D02     		.sleb128 269
 1177 08eb 0B       		.uleb128 0xb
 1178 08ec 7E0A0000 		.4byte	.LASF299
 1179 08f0 8E02     		.sleb128 270
 1180 08f2 0B       		.uleb128 0xb
 1181 08f3 FB050000 		.4byte	.LASF300
 1182 08f7 8F02     		.sleb128 271
 1183 08f9 0B       		.uleb128 0xb
 1184 08fa AB070000 		.4byte	.LASF301
 1185 08fe 9002     		.sleb128 272
 1186 0900 0B       		.uleb128 0xb
 1187 0901 F2010000 		.4byte	.LASF302
 1188 0905 9102     		.sleb128 273
 1189 0907 0B       		.uleb128 0xb
 1190 0908 F9240000 		.4byte	.LASF303
 1191 090c 9202     		.sleb128 274
 1192 090e 0B       		.uleb128 0xb
 1193 090f C51F0000 		.4byte	.LASF304
 1194 0913 9302     		.sleb128 275
 1195 0915 0B       		.uleb128 0xb
 1196 0916 B1240000 		.4byte	.LASF305
ARM GAS  C:\Users\AHMED~1.ELE\AppData\Local\Temp\ccUAgQOL.s 			page 24


 1197 091a 9402     		.sleb128 276
 1198 091c 0B       		.uleb128 0xb
 1199 091d 190F0000 		.4byte	.LASF306
 1200 0921 9502     		.sleb128 277
 1201 0923 0B       		.uleb128 0xb
 1202 0924 86020000 		.4byte	.LASF307
 1203 0928 9602     		.sleb128 278
 1204 092a 0B       		.uleb128 0xb
 1205 092b FF130000 		.4byte	.LASF308
 1206 092f 9702     		.sleb128 279
 1207 0931 0B       		.uleb128 0xb
 1208 0932 FF020000 		.4byte	.LASF309
 1209 0936 9802     		.sleb128 280
 1210 0938 0B       		.uleb128 0xb
 1211 0939 B4130000 		.4byte	.LASF310
 1212 093d 9902     		.sleb128 281
 1213 093f 0B       		.uleb128 0xb
 1214 0940 7D160000 		.4byte	.LASF311
 1215 0944 9A02     		.sleb128 282
 1216 0946 0B       		.uleb128 0xb
 1217 0947 B9010000 		.4byte	.LASF312
 1218 094b 9B02     		.sleb128 283
 1219 094d 0B       		.uleb128 0xb
 1220 094e 68060000 		.4byte	.LASF313
 1221 0952 9C02     		.sleb128 284
 1222 0954 0B       		.uleb128 0xb
 1223 0955 60120000 		.4byte	.LASF314
 1224 0959 9D02     		.sleb128 285
 1225 095b 0B       		.uleb128 0xb
 1226 095c 32100000 		.4byte	.LASF315
 1227 0960 9E02     		.sleb128 286
 1228 0962 0B       		.uleb128 0xb
 1229 0963 CE000000 		.4byte	.LASF316
 1230 0967 9F02     		.sleb128 287
 1231 0969 0B       		.uleb128 0xb
 1232 096a 7A1D0000 		.4byte	.LASF317
 1233 096e A002     		.sleb128 288
 1234 0970 0B       		.uleb128 0xb
 1235 0971 EB020000 		.4byte	.LASF318
 1236 0975 A102     		.sleb128 289
 1237 0977 0B       		.uleb128 0xb
 1238 0978 86170000 		.4byte	.LASF319
 1239 097c A202     		.sleb128 290
 1240 097e 0B       		.uleb128 0xb
 1241 097f 371F0000 		.4byte	.LASF320
 1242 0983 A302     		.sleb128 291
 1243 0985 0B       		.uleb128 0xb
 1244 0986 F01A0000 		.4byte	.LASF321
 1245 098a A402     		.sleb128 292
 1246 098c 0B       		.uleb128 0xb
 1247 098d FD0D0000 		.4byte	.LASF322
 1248 0991 A502     		.sleb128 293
 1249 0993 0B       		.uleb128 0xb
 1250 0994 31210000 		.4byte	.LASF323
 1251 0998 A602     		.sleb128 294
 1252 099a 0B       		.uleb128 0xb
 1253 099b 9F1B0000 		.4byte	.LASF324
ARM GAS  C:\Users\AHMED~1.ELE\AppData\Local\Temp\ccUAgQOL.s 			page 25


 1254 099f A702     		.sleb128 295
 1255 09a1 0B       		.uleb128 0xb
 1256 09a2 38050000 		.4byte	.LASF325
 1257 09a6 A802     		.sleb128 296
 1258 09a8 0B       		.uleb128 0xb
 1259 09a9 6F140000 		.4byte	.LASF326
 1260 09ad A902     		.sleb128 297
 1261 09af 0B       		.uleb128 0xb
 1262 09b0 40010000 		.4byte	.LASF327
 1263 09b4 AA02     		.sleb128 298
 1264 09b6 0B       		.uleb128 0xb
 1265 09b7 30000000 		.4byte	.LASF328
 1266 09bb AB02     		.sleb128 299
 1267 09bd 0B       		.uleb128 0xb
 1268 09be 1B180000 		.4byte	.LASF329
 1269 09c2 AC02     		.sleb128 300
 1270 09c4 0B       		.uleb128 0xb
 1271 09c5 4D0D0000 		.4byte	.LASF330
 1272 09c9 AD02     		.sleb128 301
 1273 09cb 0B       		.uleb128 0xb
 1274 09cc 06080000 		.4byte	.LASF331
 1275 09d0 AE02     		.sleb128 302
 1276 09d2 0B       		.uleb128 0xb
 1277 09d3 6E180000 		.4byte	.LASF332
 1278 09d7 AF02     		.sleb128 303
 1279 09d9 0B       		.uleb128 0xb
 1280 09da E7110000 		.4byte	.LASF333
 1281 09de B002     		.sleb128 304
 1282 09e0 0B       		.uleb128 0xb
 1283 09e1 88250000 		.4byte	.LASF334
 1284 09e5 B102     		.sleb128 305
 1285 09e7 0B       		.uleb128 0xb
 1286 09e8 13230000 		.4byte	.LASF335
 1287 09ec B202     		.sleb128 306
 1288 09ee 0B       		.uleb128 0xb
 1289 09ef 520E0000 		.4byte	.LASF336
 1290 09f3 B302     		.sleb128 307
 1291 09f5 0B       		.uleb128 0xb
 1292 09f6 F5150000 		.4byte	.LASF337
 1293 09fa B402     		.sleb128 308
 1294 09fc 0B       		.uleb128 0xb
 1295 09fd C3180000 		.4byte	.LASF338
 1296 0a01 B502     		.sleb128 309
 1297 0a03 0B       		.uleb128 0xb
 1298 0a04 6D070000 		.4byte	.LASF339
 1299 0a08 B602     		.sleb128 310
 1300 0a0a 0B       		.uleb128 0xb
 1301 0a0b 00000000 		.4byte	.LASF340
 1302 0a0f B702     		.sleb128 311
 1303 0a11 0B       		.uleb128 0xb
 1304 0a12 DE090000 		.4byte	.LASF341
 1305 0a16 B802     		.sleb128 312
 1306 0a18 0B       		.uleb128 0xb
 1307 0a19 651F0000 		.4byte	.LASF342
 1308 0a1d B902     		.sleb128 313
 1309 0a1f 0B       		.uleb128 0xb
 1310 0a20 81180000 		.4byte	.LASF343
ARM GAS  C:\Users\AHMED~1.ELE\AppData\Local\Temp\ccUAgQOL.s 			page 26


 1311 0a24 BA02     		.sleb128 314
 1312 0a26 0B       		.uleb128 0xb
 1313 0a27 261A0000 		.4byte	.LASF344
 1314 0a2b BB02     		.sleb128 315
 1315 0a2d 0B       		.uleb128 0xb
 1316 0a2e E9000000 		.4byte	.LASF345
 1317 0a32 BC02     		.sleb128 316
 1318 0a34 0B       		.uleb128 0xb
 1319 0a35 AA250000 		.4byte	.LASF346
 1320 0a39 BD02     		.sleb128 317
 1321 0a3b 0B       		.uleb128 0xb
 1322 0a3c D9250000 		.4byte	.LASF347
 1323 0a40 BE02     		.sleb128 318
 1324 0a42 0B       		.uleb128 0xb
 1325 0a43 CD1A0000 		.4byte	.LASF348
 1326 0a47 BF02     		.sleb128 319
 1327 0a49 0B       		.uleb128 0xb
 1328 0a4a 640E0000 		.4byte	.LASF349
 1329 0a4e C002     		.sleb128 320
 1330 0a50 0B       		.uleb128 0xb
 1331 0a51 22240000 		.4byte	.LASF350
 1332 0a55 C102     		.sleb128 321
 1333 0a57 0B       		.uleb128 0xb
 1334 0a58 BE030000 		.4byte	.LASF351
 1335 0a5c C202     		.sleb128 322
 1336 0a5e 0B       		.uleb128 0xb
 1337 0a5f FC000000 		.4byte	.LASF352
 1338 0a63 C302     		.sleb128 323
 1339 0a65 0B       		.uleb128 0xb
 1340 0a66 15000000 		.4byte	.LASF353
 1341 0a6a C402     		.sleb128 324
 1342 0a6c 0B       		.uleb128 0xb
 1343 0a6d 6A1B0000 		.4byte	.LASF354
 1344 0a71 C502     		.sleb128 325
 1345 0a73 0B       		.uleb128 0xb
 1346 0a74 93050000 		.4byte	.LASF355
 1347 0a78 C602     		.sleb128 326
 1348 0a7a 0B       		.uleb128 0xb
 1349 0a7b B90B0000 		.4byte	.LASF356
 1350 0a7f C702     		.sleb128 327
 1351 0a81 0B       		.uleb128 0xb
 1352 0a82 A5060000 		.4byte	.LASF357
 1353 0a86 C802     		.sleb128 328
 1354 0a88 0B       		.uleb128 0xb
 1355 0a89 A01E0000 		.4byte	.LASF358
 1356 0a8d C902     		.sleb128 329
 1357 0a8f 0B       		.uleb128 0xb
 1358 0a90 BE1D0000 		.4byte	.LASF359
 1359 0a94 CA02     		.sleb128 330
 1360 0a96 0B       		.uleb128 0xb
 1361 0a97 8D1F0000 		.4byte	.LASF360
 1362 0a9b CB02     		.sleb128 331
 1363 0a9d 0B       		.uleb128 0xb
 1364 0a9e 14010000 		.4byte	.LASF361
 1365 0aa2 CC02     		.sleb128 332
 1366 0aa4 0B       		.uleb128 0xb
 1367 0aa5 4A140000 		.4byte	.LASF362
ARM GAS  C:\Users\AHMED~1.ELE\AppData\Local\Temp\ccUAgQOL.s 			page 27


 1368 0aa9 CD02     		.sleb128 333
 1369 0aab 0B       		.uleb128 0xb
 1370 0aac CE160000 		.4byte	.LASF363
 1371 0ab0 CE02     		.sleb128 334
 1372 0ab2 0B       		.uleb128 0xb
 1373 0ab3 4E240000 		.4byte	.LASF364
 1374 0ab7 CF02     		.sleb128 335
 1375 0ab9 0B       		.uleb128 0xb
 1376 0aba 4E150000 		.4byte	.LASF365
 1377 0abe D002     		.sleb128 336
 1378 0ac0 0B       		.uleb128 0xb
 1379 0ac1 3E160000 		.4byte	.LASF366
 1380 0ac5 D102     		.sleb128 337
 1381 0ac7 0B       		.uleb128 0xb
 1382 0ac8 F20C0000 		.4byte	.LASF367
 1383 0acc D202     		.sleb128 338
 1384 0ace 0B       		.uleb128 0xb
 1385 0acf 46120000 		.4byte	.LASF368
 1386 0ad3 D302     		.sleb128 339
 1387 0ad5 0B       		.uleb128 0xb
 1388 0ad6 25060000 		.4byte	.LASF369
 1389 0ada D402     		.sleb128 340
 1390 0adc 0B       		.uleb128 0xb
 1391 0add 47180000 		.4byte	.LASF370
 1392 0ae1 D502     		.sleb128 341
 1393 0ae3 0B       		.uleb128 0xb
 1394 0ae4 CE230000 		.4byte	.LASF371
 1395 0ae8 D602     		.sleb128 342
 1396 0aea 0B       		.uleb128 0xb
 1397 0aeb 92140000 		.4byte	.LASF372
 1398 0aef D702     		.sleb128 343
 1399 0af1 0B       		.uleb128 0xb
 1400 0af2 08180000 		.4byte	.LASF373
 1401 0af6 D802     		.sleb128 344
 1402 0af8 0B       		.uleb128 0xb
 1403 0af9 641A0000 		.4byte	.LASF374
 1404 0afd D902     		.sleb128 345
 1405 0aff 0B       		.uleb128 0xb
 1406 0b00 4A0B0000 		.4byte	.LASF375
 1407 0b04 DA02     		.sleb128 346
 1408 0b06 0B       		.uleb128 0xb
 1409 0b07 E8180000 		.4byte	.LASF376
 1410 0b0b DB02     		.sleb128 347
 1411 0b0d 0B       		.uleb128 0xb
 1412 0b0e 10120000 		.4byte	.LASF377
 1413 0b12 DC02     		.sleb128 348
 1414 0b14 0B       		.uleb128 0xb
 1415 0b15 7F190000 		.4byte	.LASF378
 1416 0b19 DD02     		.sleb128 349
 1417 0b1b 0B       		.uleb128 0xb
 1418 0b1c 05170000 		.4byte	.LASF379
 1419 0b20 DE02     		.sleb128 350
 1420 0b22 0B       		.uleb128 0xb
 1421 0b23 D31E0000 		.4byte	.LASF380
 1422 0b27 DF02     		.sleb128 351
 1423 0b29 0B       		.uleb128 0xb
 1424 0b2a CC010000 		.4byte	.LASF381
ARM GAS  C:\Users\AHMED~1.ELE\AppData\Local\Temp\ccUAgQOL.s 			page 28


 1425 0b2e E002     		.sleb128 352
 1426 0b30 0B       		.uleb128 0xb
 1427 0b31 8A1C0000 		.4byte	.LASF382
 1428 0b35 E102     		.sleb128 353
 1429 0b37 0B       		.uleb128 0xb
 1430 0b38 271F0000 		.4byte	.LASF383
 1431 0b3c E202     		.sleb128 354
 1432 0b3e 0B       		.uleb128 0xb
 1433 0b3f DE0F0000 		.4byte	.LASF384
 1434 0b43 E302     		.sleb128 355
 1435 0b45 0B       		.uleb128 0xb
 1436 0b46 590F0000 		.4byte	.LASF385
 1437 0b4a E402     		.sleb128 356
 1438 0b4c 0B       		.uleb128 0xb
 1439 0b4d 910A0000 		.4byte	.LASF386
 1440 0b51 E502     		.sleb128 357
 1441 0b53 0B       		.uleb128 0xb
 1442 0b54 DB0D0000 		.4byte	.LASF387
 1443 0b58 E602     		.sleb128 358
 1444 0b5a 0B       		.uleb128 0xb
 1445 0b5b E3080000 		.4byte	.LASF388
 1446 0b5f E702     		.sleb128 359
 1447 0b61 0B       		.uleb128 0xb
 1448 0b62 8B200000 		.4byte	.LASF389
 1449 0b66 E802     		.sleb128 360
 1450 0b68 0B       		.uleb128 0xb
 1451 0b69 78130000 		.4byte	.LASF390
 1452 0b6d E902     		.sleb128 361
 1453 0b6f 0B       		.uleb128 0xb
 1454 0b70 7E1E0000 		.4byte	.LASF391
 1455 0b74 EA02     		.sleb128 362
 1456 0b76 0B       		.uleb128 0xb
 1457 0b77 5C0B0000 		.4byte	.LASF392
 1458 0b7b EB02     		.sleb128 363
 1459 0b7d 0B       		.uleb128 0xb
 1460 0b7e 6C0B0000 		.4byte	.LASF393
 1461 0b82 EC02     		.sleb128 364
 1462 0b84 0B       		.uleb128 0xb
 1463 0b85 36220000 		.4byte	.LASF394
 1464 0b89 ED02     		.sleb128 365
 1465 0b8b 0B       		.uleb128 0xb
 1466 0b8c 15220000 		.4byte	.LASF395
 1467 0b90 EE02     		.sleb128 366
 1468 0b92 0B       		.uleb128 0xb
 1469 0b93 63040000 		.4byte	.LASF396
 1470 0b97 EF02     		.sleb128 367
 1471 0b99 0B       		.uleb128 0xb
 1472 0b9a F4090000 		.4byte	.LASF397
 1473 0b9e F002     		.sleb128 368
 1474 0ba0 0B       		.uleb128 0xb
 1475 0ba1 70050000 		.4byte	.LASF398
 1476 0ba5 F102     		.sleb128 369
 1477 0ba7 0B       		.uleb128 0xb
 1478 0ba8 DD1C0000 		.4byte	.LASF399
 1479 0bac F202     		.sleb128 370
 1480 0bae 0B       		.uleb128 0xb
 1481 0baf A50B0000 		.4byte	.LASF400
ARM GAS  C:\Users\AHMED~1.ELE\AppData\Local\Temp\ccUAgQOL.s 			page 29


 1482 0bb3 F302     		.sleb128 371
 1483 0bb5 0B       		.uleb128 0xb
 1484 0bb6 52170000 		.4byte	.LASF401
 1485 0bba F402     		.sleb128 372
 1486 0bbc 0B       		.uleb128 0xb
 1487 0bbd F40A0000 		.4byte	.LASF402
 1488 0bc1 F502     		.sleb128 373
 1489 0bc3 0B       		.uleb128 0xb
 1490 0bc4 C0210000 		.4byte	.LASF403
 1491 0bc8 F602     		.sleb128 374
 1492 0bca 0B       		.uleb128 0xb
 1493 0bcb 12060000 		.4byte	.LASF404
 1494 0bcf F702     		.sleb128 375
 1495 0bd1 0B       		.uleb128 0xb
 1496 0bd2 74240000 		.4byte	.LASF405
 1497 0bd6 F802     		.sleb128 376
 1498 0bd8 0B       		.uleb128 0xb
 1499 0bd9 8C0F0000 		.4byte	.LASF406
 1500 0bdd F902     		.sleb128 377
 1501 0bdf 0B       		.uleb128 0xb
 1502 0be0 C5130000 		.4byte	.LASF407
 1503 0be4 FA02     		.sleb128 378
 1504 0be6 0B       		.uleb128 0xb
 1505 0be7 4D1D0000 		.4byte	.LASF408
 1506 0beb FB02     		.sleb128 379
 1507 0bed 0B       		.uleb128 0xb
 1508 0bee A91A0000 		.4byte	.LASF409
 1509 0bf2 FC02     		.sleb128 380
 1510 0bf4 0B       		.uleb128 0xb
 1511 0bf5 2B160000 		.4byte	.LASF410
 1512 0bf9 FD02     		.sleb128 381
 1513 0bfb 0B       		.uleb128 0xb
 1514 0bfc 391D0000 		.4byte	.LASF411
 1515 0c00 FE02     		.sleb128 382
 1516 0c02 0B       		.uleb128 0xb
 1517 0c03 2E040000 		.4byte	.LASF412
 1518 0c07 FF02     		.sleb128 383
 1519 0c09 0B       		.uleb128 0xb
 1520 0c0a B1190000 		.4byte	.LASF413
 1521 0c0e 8003     		.sleb128 384
 1522 0c10 0B       		.uleb128 0xb
 1523 0c11 B70C0000 		.4byte	.LASF414
 1524 0c15 8103     		.sleb128 385
 1525 0c17 0B       		.uleb128 0xb
 1526 0c18 4D210000 		.4byte	.LASF415
 1527 0c1c 8203     		.sleb128 386
 1528 0c1e 0B       		.uleb128 0xb
 1529 0c1f 60100000 		.4byte	.LASF416
 1530 0c23 8303     		.sleb128 387
 1531 0c25 0B       		.uleb128 0xb
 1532 0c26 22070000 		.4byte	.LASF417
 1533 0c2a 8403     		.sleb128 388
 1534 0c2c 0B       		.uleb128 0xb
 1535 0c2d 14130000 		.4byte	.LASF418
 1536 0c31 8503     		.sleb128 389
 1537 0c33 0B       		.uleb128 0xb
 1538 0c34 FD040000 		.4byte	.LASF419
ARM GAS  C:\Users\AHMED~1.ELE\AppData\Local\Temp\ccUAgQOL.s 			page 30


 1539 0c38 8603     		.sleb128 390
 1540 0c3a 0B       		.uleb128 0xb
 1541 0c3b 4D080000 		.4byte	.LASF420
 1542 0c3f 8703     		.sleb128 391
 1543 0c41 0B       		.uleb128 0xb
 1544 0c42 95180000 		.4byte	.LASF421
 1545 0c46 8803     		.sleb128 392
 1546 0c48 0B       		.uleb128 0xb
 1547 0c49 53090000 		.4byte	.LASF422
 1548 0c4d 8903     		.sleb128 393
 1549 0c4f 0B       		.uleb128 0xb
 1550 0c50 D4240000 		.4byte	.LASF423
 1551 0c54 8A03     		.sleb128 394
 1552 0c56 0B       		.uleb128 0xb
 1553 0c57 3D1B0000 		.4byte	.LASF424
 1554 0c5b 8B03     		.sleb128 395
 1555 0c5d 0B       		.uleb128 0xb
 1556 0c5e 451E0000 		.4byte	.LASF425
 1557 0c62 8C03     		.sleb128 396
 1558 0c64 0B       		.uleb128 0xb
 1559 0c65 9E200000 		.4byte	.LASF426
 1560 0c69 8D03     		.sleb128 397
 1561 0c6b 0B       		.uleb128 0xb
 1562 0c6c 98000000 		.4byte	.LASF427
 1563 0c70 8E03     		.sleb128 398
 1564 0c72 0B       		.uleb128 0xb
 1565 0c73 35170000 		.4byte	.LASF428
 1566 0c77 8F03     		.sleb128 399
 1567 0c79 0B       		.uleb128 0xb
 1568 0c7a 400D0000 		.4byte	.LASF429
 1569 0c7e 9003     		.sleb128 400
 1570 0c80 0B       		.uleb128 0xb
 1571 0c81 1D200000 		.4byte	.LASF430
 1572 0c85 9103     		.sleb128 401
 1573 0c87 0B       		.uleb128 0xb
 1574 0c88 640C0000 		.4byte	.LASF431
 1575 0c8c 9203     		.sleb128 402
 1576 0c8e 0B       		.uleb128 0xb
 1577 0c8f 90160000 		.4byte	.LASF432
 1578 0c93 9303     		.sleb128 403
 1579 0c95 0B       		.uleb128 0xb
 1580 0c96 A3190000 		.4byte	.LASF433
 1581 0c9a 9403     		.sleb128 404
 1582 0c9c 0B       		.uleb128 0xb
 1583 0c9d 71040000 		.4byte	.LASF434
 1584 0ca1 9503     		.sleb128 405
 1585 0ca3 0B       		.uleb128 0xb
 1586 0ca4 7A1C0000 		.4byte	.LASF435
 1587 0ca8 9603     		.sleb128 406
 1588 0caa 0B       		.uleb128 0xb
 1589 0cab 1C040000 		.4byte	.LASF436
 1590 0caf 9703     		.sleb128 407
 1591 0cb1 0B       		.uleb128 0xb
 1592 0cb2 22100000 		.4byte	.LASF437
 1593 0cb6 9803     		.sleb128 408
 1594 0cb8 0B       		.uleb128 0xb
 1595 0cb9 C7170000 		.4byte	.LASF438
ARM GAS  C:\Users\AHMED~1.ELE\AppData\Local\Temp\ccUAgQOL.s 			page 31


 1596 0cbd 9903     		.sleb128 409
 1597 0cbf 0B       		.uleb128 0xb
 1598 0cc0 45220000 		.4byte	.LASF439
 1599 0cc4 9A03     		.sleb128 410
 1600 0cc6 0B       		.uleb128 0xb
 1601 0cc7 42000000 		.4byte	.LASF440
 1602 0ccb 9B03     		.sleb128 411
 1603 0ccd 0B       		.uleb128 0xb
 1604 0cce 9A110000 		.4byte	.LASF441
 1605 0cd2 9C03     		.sleb128 412
 1606 0cd4 0B       		.uleb128 0xb
 1607 0cd5 8A0D0000 		.4byte	.LASF442
 1608 0cd9 9D03     		.sleb128 413
 1609 0cdb 0B       		.uleb128 0xb
 1610 0cdc FC170000 		.4byte	.LASF443
 1611 0ce0 9E03     		.sleb128 414
 1612 0ce2 0B       		.uleb128 0xb
 1613 0ce3 B61F0000 		.4byte	.LASF444
 1614 0ce7 9F03     		.sleb128 415
 1615 0ce9 0B       		.uleb128 0xb
 1616 0cea 360A0000 		.4byte	.LASF445
 1617 0cee A003     		.sleb128 416
 1618 0cf0 0B       		.uleb128 0xb
 1619 0cf1 220E0000 		.4byte	.LASF446
 1620 0cf5 A103     		.sleb128 417
 1621 0cf7 0B       		.uleb128 0xb
 1622 0cf8 FA070000 		.4byte	.LASF447
 1623 0cfc A203     		.sleb128 418
 1624 0cfe 0B       		.uleb128 0xb
 1625 0cff A2080000 		.4byte	.LASF448
 1626 0d03 A303     		.sleb128 419
 1627 0d05 0B       		.uleb128 0xb
 1628 0d06 39020000 		.4byte	.LASF449
 1629 0d0a A403     		.sleb128 420
 1630 0d0c 0B       		.uleb128 0xb
 1631 0d0d 0D160000 		.4byte	.LASF450
 1632 0d11 A503     		.sleb128 421
 1633 0d13 0B       		.uleb128 0xb
 1634 0d14 D1220000 		.4byte	.LASF451
 1635 0d18 A603     		.sleb128 422
 1636 0d1a 0B       		.uleb128 0xb
 1637 0d1b 73030000 		.4byte	.LASF452
 1638 0d1f A703     		.sleb128 423
 1639 0d21 0B       		.uleb128 0xb
 1640 0d22 DA120000 		.4byte	.LASF453
 1641 0d26 A803     		.sleb128 424
 1642 0d28 0B       		.uleb128 0xb
 1643 0d29 E6010000 		.4byte	.LASF454
 1644 0d2d A903     		.sleb128 425
 1645 0d2f 0B       		.uleb128 0xb
 1646 0d30 5E050000 		.4byte	.LASF455
 1647 0d34 AA03     		.sleb128 426
 1648 0d36 0B       		.uleb128 0xb
 1649 0d37 1B250000 		.4byte	.LASF456
 1650 0d3b AB03     		.sleb128 427
 1651 0d3d 0B       		.uleb128 0xb
 1652 0d3e FD1B0000 		.4byte	.LASF457
ARM GAS  C:\Users\AHMED~1.ELE\AppData\Local\Temp\ccUAgQOL.s 			page 32


 1653 0d42 AC03     		.sleb128 428
 1654 0d44 0B       		.uleb128 0xb
 1655 0d45 DA0C0000 		.4byte	.LASF458
 1656 0d49 AD03     		.sleb128 429
 1657 0d4b 0B       		.uleb128 0xb
 1658 0d4c DD150000 		.4byte	.LASF459
 1659 0d50 AE03     		.sleb128 430
 1660 0d52 0B       		.uleb128 0xb
 1661 0d53 9B240000 		.4byte	.LASF460
 1662 0d57 AF03     		.sleb128 431
 1663 0d59 0B       		.uleb128 0xb
 1664 0d5a 110A0000 		.4byte	.LASF461
 1665 0d5e B003     		.sleb128 432
 1666 0d60 0B       		.uleb128 0xb
 1667 0d61 CA050000 		.4byte	.LASF462
 1668 0d65 B103     		.sleb128 433
 1669 0d67 0B       		.uleb128 0xb
 1670 0d68 25150000 		.4byte	.LASF463
 1671 0d6c B203     		.sleb128 434
 1672 0d6e 0B       		.uleb128 0xb
 1673 0d6f E90D0000 		.4byte	.LASF464
 1674 0d73 B303     		.sleb128 435
 1675 0d75 0B       		.uleb128 0xb
 1676 0d76 9E150000 		.4byte	.LASF465
 1677 0d7a B403     		.sleb128 436
 1678 0d7c 0B       		.uleb128 0xb
 1679 0d7d A6050000 		.4byte	.LASF466
 1680 0d81 B503     		.sleb128 437
 1681 0d83 0B       		.uleb128 0xb
 1682 0d84 C70A0000 		.4byte	.LASF467
 1683 0d88 B603     		.sleb128 438
 1684 0d8a 0B       		.uleb128 0xb
 1685 0d8b F8110000 		.4byte	.LASF468
 1686 0d8f B703     		.sleb128 439
 1687 0d91 0B       		.uleb128 0xb
 1688 0d92 300B0000 		.4byte	.LASF469
 1689 0d96 B803     		.sleb128 440
 1690 0d98 0B       		.uleb128 0xb
 1691 0d99 2D010000 		.4byte	.LASF470
 1692 0d9d B903     		.sleb128 441
 1693 0d9f 0B       		.uleb128 0xb
 1694 0da0 991C0000 		.4byte	.LASF471
 1695 0da4 BA03     		.sleb128 442
 1696 0da6 0B       		.uleb128 0xb
 1697 0da7 B91E0000 		.4byte	.LASF472
 1698 0dab BB03     		.sleb128 443
 1699 0dad 0B       		.uleb128 0xb
 1700 0dae 8F060000 		.4byte	.LASF473
 1701 0db2 BC03     		.sleb128 444
 1702 0db4 0B       		.uleb128 0xb
 1703 0db5 59180000 		.4byte	.LASF474
 1704 0db9 BD03     		.sleb128 445
 1705 0dbb 0B       		.uleb128 0xb
 1706 0dbc 5E110000 		.4byte	.LASF475
 1707 0dc0 BE03     		.sleb128 446
 1708 0dc2 0B       		.uleb128 0xb
 1709 0dc3 5C020000 		.4byte	.LASF476
ARM GAS  C:\Users\AHMED~1.ELE\AppData\Local\Temp\ccUAgQOL.s 			page 33


 1710 0dc7 BF03     		.sleb128 447
 1711 0dc9 0B       		.uleb128 0xb
 1712 0dca 160B0000 		.4byte	.LASF477
 1713 0dce C003     		.sleb128 448
 1714 0dd0 0B       		.uleb128 0xb
 1715 0dd1 821B0000 		.4byte	.LASF478
 1716 0dd5 C103     		.sleb128 449
 1717 0dd7 0B       		.uleb128 0xb
 1718 0dd8 6F200000 		.4byte	.LASF479
 1719 0ddc C203     		.sleb128 450
 1720 0dde 0B       		.uleb128 0xb
 1721 0ddf B1200000 		.4byte	.LASF480
 1722 0de3 C303     		.sleb128 451
 1723 0de5 0B       		.uleb128 0xb
 1724 0de6 58030000 		.4byte	.LASF481
 1725 0dea C403     		.sleb128 452
 1726 0dec 0B       		.uleb128 0xb
 1727 0ded 64090000 		.4byte	.LASF482
 1728 0df1 C503     		.sleb128 453
 1729 0df3 0B       		.uleb128 0xb
 1730 0df4 E2200000 		.4byte	.LASF483
 1731 0df8 C603     		.sleb128 454
 1732 0dfa 0B       		.uleb128 0xb
 1733 0dfb B20F0000 		.4byte	.LASF484
 1734 0dff C703     		.sleb128 455
 1735 0e01 0B       		.uleb128 0xb
 1736 0e02 E1230000 		.4byte	.LASF485
 1737 0e06 C803     		.sleb128 456
 1738 0e08 0B       		.uleb128 0xb
 1739 0e09 CF070000 		.4byte	.LASF486
 1740 0e0d C903     		.sleb128 457
 1741 0e0f 0B       		.uleb128 0xb
 1742 0e10 59160000 		.4byte	.LASF487
 1743 0e14 CA03     		.sleb128 458
 1744 0e16 0B       		.uleb128 0xb
 1745 0e17 811A0000 		.4byte	.LASF488
 1746 0e1b CB03     		.sleb128 459
 1747 0e1d 0B       		.uleb128 0xb
 1748 0e1e C5110000 		.4byte	.LASF489
 1749 0e22 CC03     		.sleb128 460
 1750 0e24 0B       		.uleb128 0xb
 1751 0e25 99020000 		.4byte	.LASF490
 1752 0e29 CD03     		.sleb128 461
 1753 0e2b 0B       		.uleb128 0xb
 1754 0e2c E51F0000 		.4byte	.LASF491
 1755 0e30 CE03     		.sleb128 462
 1756 0e32 0B       		.uleb128 0xb
 1757 0e33 73010000 		.4byte	.LASF492
 1758 0e37 CF03     		.sleb128 463
 1759 0e39 0B       		.uleb128 0xb
 1760 0e3a 840E0000 		.4byte	.LASF493
 1761 0e3e D003     		.sleb128 464
 1762 0e40 0B       		.uleb128 0xb
 1763 0e41 2B0F0000 		.4byte	.LASF494
 1764 0e45 D103     		.sleb128 465
 1765 0e47 0B       		.uleb128 0xb
 1766 0e48 9F210000 		.4byte	.LASF495
ARM GAS  C:\Users\AHMED~1.ELE\AppData\Local\Temp\ccUAgQOL.s 			page 34


 1767 0e4c D203     		.sleb128 466
 1768 0e4e 0B       		.uleb128 0xb
 1769 0e4f AC1C0000 		.4byte	.LASF496
 1770 0e53 D303     		.sleb128 467
 1771 0e55 0B       		.uleb128 0xb
 1772 0e56 561B0000 		.4byte	.LASF497
 1773 0e5a D403     		.sleb128 468
 1774 0e5c 0B       		.uleb128 0xb
 1775 0e5d D7060000 		.4byte	.LASF498
 1776 0e61 D503     		.sleb128 469
 1777 0e63 0B       		.uleb128 0xb
 1778 0e64 291C0000 		.4byte	.LASF499
 1779 0e68 D603     		.sleb128 470
 1780 0e6a 0B       		.uleb128 0xb
 1781 0e6b 9F010000 		.4byte	.LASF500
 1782 0e6f D703     		.sleb128 471
 1783 0e71 0B       		.uleb128 0xb
 1784 0e72 60190000 		.4byte	.LASF501
 1785 0e76 D803     		.sleb128 472
 1786 0e78 00       		.byte	0
 1787 0e79 02       		.uleb128 0x2
 1788 0e7a 01       		.byte	0x1
 1789 0e7b 06       		.byte	0x6
 1790 0e7c 2B000000 		.4byte	.LASF502
 1791 0e80 0C       		.uleb128 0xc
 1792 0e81 02       		.byte	0x2
 1793 0e82 03       		.byte	0x3
 1794 0e83 DD18     		.2byte	0x18dd
 1795 0e85 A90E0000 		.4byte	0xea9
 1796 0e89 0B       		.uleb128 0xb
 1797 0e8a 130D0000 		.4byte	.LASF503
 1798 0e8e 00       		.sleb128 0
 1799 0e8f 0B       		.uleb128 0xb
 1800 0e90 2C250000 		.4byte	.LASF504
 1801 0e94 01       		.sleb128 1
 1802 0e95 0B       		.uleb128 0xb
 1803 0e96 AE230000 		.4byte	.LASF505
 1804 0e9a 02       		.sleb128 2
 1805 0e9b 0B       		.uleb128 0xb
 1806 0e9c 0F030000 		.4byte	.LASF506
 1807 0ea0 03       		.sleb128 3
 1808 0ea1 0B       		.uleb128 0xb
 1809 0ea2 34070000 		.4byte	.LASF507
 1810 0ea6 8002     		.sleb128 256
 1811 0ea8 00       		.byte	0
 1812 0ea9 0D       		.uleb128 0xd
 1813 0eaa BD060000 		.4byte	.LASF526
 1814 0eae 01       		.byte	0x1
 1815 0eaf 4A       		.byte	0x4a
 1816 0eb0 69000000 		.4byte	0x69
 1817 0eb4 00000000 		.4byte	.LFB0
 1818 0eb8 78000000 		.4byte	.LFE0-.LFB0
 1819 0ebc 01       		.uleb128 0x1
 1820 0ebd 9C       		.byte	0x9c
 1821 0ebe 09100000 		.4byte	0x1009
 1822 0ec2 0E       		.uleb128 0xe
 1823 0ec3 80090000 		.4byte	.LASF508
ARM GAS  C:\Users\AHMED~1.ELE\AppData\Local\Temp\ccUAgQOL.s 			page 35


 1824 0ec7 01       		.byte	0x1
 1825 0ec8 4A       		.byte	0x4a
 1826 0ec9 49000000 		.4byte	0x49
 1827 0ecd 00000000 		.4byte	.LLST0
 1828 0ed1 0E       		.uleb128 0xe
 1829 0ed2 A8170000 		.4byte	.LASF509
 1830 0ed6 01       		.byte	0x1
 1831 0ed7 4A       		.byte	0x4a
 1832 0ed8 49000000 		.4byte	0x49
 1833 0edc 2C000000 		.4byte	.LLST1
 1834 0ee0 0E       		.uleb128 0xe
 1835 0ee1 B0170000 		.4byte	.LASF510
 1836 0ee5 01       		.byte	0x1
 1837 0ee6 4A       		.byte	0x4a
 1838 0ee7 49000000 		.4byte	0x49
 1839 0eeb 58000000 		.4byte	.LLST2
 1840 0eef 0F       		.uleb128 0xf
 1841 0ef0 BF0A0000 		.4byte	.LASF511
 1842 0ef4 01       		.byte	0x1
 1843 0ef5 4C       		.byte	0x4c
 1844 0ef6 69000000 		.4byte	0x69
 1845 0efa 84000000 		.4byte	.LLST3
 1846 0efe 10       		.uleb128 0x10
 1847 0eff 55120000 		.4byte	.LASF512
 1848 0f03 01       		.byte	0x1
 1849 0f04 4D       		.byte	0x4d
 1850 0f05 B0010000 		.4byte	0x1b0
 1851 0f09 02       		.uleb128 0x2
 1852 0f0a 91       		.byte	0x91
 1853 0f0b 4C       		.sleb128 -52
 1854 0f0c 11       		.uleb128 0x11
 1855 0f0d 14000000 		.4byte	.LVL4
 1856 0f11 55100000 		.4byte	0x1055
 1857 0f15 2B0F0000 		.4byte	0xf2b
 1858 0f19 12       		.uleb128 0x12
 1859 0f1a 01       		.uleb128 0x1
 1860 0f1b 52       		.byte	0x52
 1861 0f1c 02       		.uleb128 0x2
 1862 0f1d 91       		.byte	0x91
 1863 0f1e 4C       		.sleb128 -52
 1864 0f1f 12       		.uleb128 0x12
 1865 0f20 01       		.uleb128 0x1
 1866 0f21 51       		.byte	0x51
 1867 0f22 01       		.uleb128 0x1
 1868 0f23 3F       		.byte	0x3f
 1869 0f24 12       		.uleb128 0x12
 1870 0f25 01       		.uleb128 0x1
 1871 0f26 50       		.byte	0x50
 1872 0f27 02       		.uleb128 0x2
 1873 0f28 08       		.byte	0x8
 1874 0f29 91       		.byte	0x91
 1875 0f2a 00       		.byte	0
 1876 0f2b 11       		.uleb128 0x11
 1877 0f2c 1E000000 		.4byte	.LVL5
 1878 0f30 74100000 		.4byte	0x1074
 1879 0f34 470F0000 		.4byte	0xf47
 1880 0f38 12       		.uleb128 0x12
ARM GAS  C:\Users\AHMED~1.ELE\AppData\Local\Temp\ccUAgQOL.s 			page 36


 1881 0f39 01       		.uleb128 0x1
 1882 0f3a 51       		.byte	0x51
 1883 0f3b 05       		.uleb128 0x5
 1884 0f3c 03       		.byte	0x3
 1885 0f3d 00000000 		.4byte	.LC0
 1886 0f41 12       		.uleb128 0x12
 1887 0f42 01       		.uleb128 0x1
 1888 0f43 50       		.byte	0x50
 1889 0f44 01       		.uleb128 0x1
 1890 0f45 47       		.byte	0x47
 1891 0f46 00       		.byte	0
 1892 0f47 11       		.uleb128 0x11
 1893 0f48 24000000 		.4byte	.LVL6
 1894 0f4c 8E100000 		.4byte	0x108e
 1895 0f50 5A0F0000 		.4byte	0xf5a
 1896 0f54 12       		.uleb128 0x12
 1897 0f55 01       		.uleb128 0x1
 1898 0f56 50       		.byte	0x50
 1899 0f57 01       		.uleb128 0x1
 1900 0f58 37       		.byte	0x37
 1901 0f59 00       		.byte	0
 1902 0f5a 11       		.uleb128 0x11
 1903 0f5b 30000000 		.4byte	.LVL7
 1904 0f5f 8E100000 		.4byte	0x108e
 1905 0f63 6F0F0000 		.4byte	0xf6f
 1906 0f67 12       		.uleb128 0x12
 1907 0f68 01       		.uleb128 0x1
 1908 0f69 50       		.byte	0x50
 1909 0f6a 03       		.uleb128 0x3
 1910 0f6b 0A       		.byte	0xa
 1911 0f6c 9C01     		.2byte	0x19c
 1912 0f6e 00       		.byte	0
 1913 0f6f 11       		.uleb128 0x11
 1914 0f70 3A000000 		.4byte	.LVL8
 1915 0f74 8E100000 		.4byte	0x108e
 1916 0f78 840F0000 		.4byte	0xf84
 1917 0f7c 12       		.uleb128 0x12
 1918 0f7d 01       		.uleb128 0x1
 1919 0f7e 50       		.byte	0x50
 1920 0f7f 03       		.uleb128 0x3
 1921 0f80 0A       		.byte	0xa
 1922 0f81 9E01     		.2byte	0x19e
 1923 0f83 00       		.byte	0
 1924 0f84 11       		.uleb128 0x11
 1925 0f85 42000000 		.4byte	.LVL9
 1926 0f89 74100000 		.4byte	0x1074
 1927 0f8d 9D0F0000 		.4byte	0xf9d
 1928 0f91 12       		.uleb128 0x12
 1929 0f92 01       		.uleb128 0x1
 1930 0f93 51       		.byte	0x51
 1931 0f94 01       		.uleb128 0x1
 1932 0f95 41       		.byte	0x41
 1933 0f96 12       		.uleb128 0x12
 1934 0f97 01       		.uleb128 0x1
 1935 0f98 50       		.byte	0x50
 1936 0f99 02       		.uleb128 0x2
 1937 0f9a 08       		.byte	0x8
ARM GAS  C:\Users\AHMED~1.ELE\AppData\Local\Temp\ccUAgQOL.s 			page 37


 1938 0f9b 8F       		.byte	0x8f
 1939 0f9c 00       		.byte	0
 1940 0f9d 13       		.uleb128 0x13
 1941 0f9e 48000000 		.4byte	.LVL10
 1942 0fa2 A3100000 		.4byte	0x10a3
 1943 0fa6 11       		.uleb128 0x11
 1944 0fa7 50000000 		.4byte	.LVL11
 1945 0fab 74100000 		.4byte	0x1074
 1946 0faf BF0F0000 		.4byte	0xfbf
 1947 0fb3 12       		.uleb128 0x12
 1948 0fb4 01       		.uleb128 0x1
 1949 0fb5 51       		.byte	0x51
 1950 0fb6 01       		.uleb128 0x1
 1951 0fb7 41       		.byte	0x41
 1952 0fb8 12       		.uleb128 0x12
 1953 0fb9 01       		.uleb128 0x1
 1954 0fba 50       		.byte	0x50
 1955 0fbb 02       		.uleb128 0x2
 1956 0fbc 08       		.byte	0x8
 1957 0fbd 90       		.byte	0x90
 1958 0fbe 00       		.byte	0
 1959 0fbf 13       		.uleb128 0x13
 1960 0fc0 54000000 		.4byte	.LVL12
 1961 0fc4 AE100000 		.4byte	0x10ae
 1962 0fc8 11       		.uleb128 0x11
 1963 0fc9 5E000000 		.4byte	.LVL13
 1964 0fcd B5100000 		.4byte	0x10b5
 1965 0fd1 E80F0000 		.4byte	0xfe8
 1966 0fd5 12       		.uleb128 0x12
 1967 0fd6 01       		.uleb128 0x1
 1968 0fd7 52       		.byte	0x52
 1969 0fd8 02       		.uleb128 0x2
 1970 0fd9 74       		.byte	0x74
 1971 0fda 00       		.sleb128 0
 1972 0fdb 12       		.uleb128 0x12
 1973 0fdc 01       		.uleb128 0x1
 1974 0fdd 51       		.byte	0x51
 1975 0fde 02       		.uleb128 0x2
 1976 0fdf 75       		.byte	0x75
 1977 0fe0 00       		.sleb128 0
 1978 0fe1 12       		.uleb128 0x12
 1979 0fe2 01       		.uleb128 0x1
 1980 0fe3 50       		.byte	0x50
 1981 0fe4 02       		.uleb128 0x2
 1982 0fe5 76       		.byte	0x76
 1983 0fe6 00       		.sleb128 0
 1984 0fe7 00       		.byte	0
 1985 0fe8 13       		.uleb128 0x13
 1986 0fe9 64000000 		.4byte	.LVL15
 1987 0fed D4100000 		.4byte	0x10d4
 1988 0ff1 14       		.uleb128 0x14
 1989 0ff2 6E000000 		.4byte	.LVL16
 1990 0ff6 74100000 		.4byte	0x1074
 1991 0ffa 12       		.uleb128 0x12
 1992 0ffb 01       		.uleb128 0x1
 1993 0ffc 51       		.byte	0x51
 1994 0ffd 02       		.uleb128 0x2
ARM GAS  C:\Users\AHMED~1.ELE\AppData\Local\Temp\ccUAgQOL.s 			page 38


 1995 0ffe 74       		.byte	0x74
 1996 0fff 00       		.sleb128 0
 1997 1000 12       		.uleb128 0x12
 1998 1001 01       		.uleb128 0x1
 1999 1002 50       		.byte	0x50
 2000 1003 03       		.uleb128 0x3
 2001 1004 0A       		.byte	0xa
 2002 1005 A801     		.2byte	0x1a8
 2003 1007 00       		.byte	0
 2004 1008 00       		.byte	0
 2005 1009 08       		.uleb128 0x8
 2006 100a 2C000000 		.4byte	0x2c
 2007 100e 14100000 		.4byte	0x1014
 2008 1012 15       		.uleb128 0x15
 2009 1013 00       		.byte	0
 2010 1014 16       		.uleb128 0x16
 2011 1015 F8140000 		.4byte	.LASF513
 2012 1019 04       		.byte	0x4
 2013 101a 36       		.byte	0x36
 2014 101b 1F100000 		.4byte	0x101f
 2015 101f 17       		.uleb128 0x17
 2016 1020 09100000 		.4byte	0x1009
 2017 1024 08       		.uleb128 0x8
 2018 1025 49000000 		.4byte	0x49
 2019 1029 2F100000 		.4byte	0x102f
 2020 102d 15       		.uleb128 0x15
 2021 102e 00       		.byte	0
 2022 102f 16       		.uleb128 0x16
 2023 1030 2D020000 		.4byte	.LASF514
 2024 1034 04       		.byte	0x4
 2025 1035 37       		.byte	0x37
 2026 1036 3A100000 		.4byte	0x103a
 2027 103a 17       		.uleb128 0x17
 2028 103b 24100000 		.4byte	0x1024
 2029 103f 18       		.uleb128 0x18
 2030 1040 E81A0000 		.4byte	.LASF515
 2031 1044 01       		.byte	0x1
 2032 1045 36       		.byte	0x36
 2033 1046 50100000 		.4byte	0x1050
 2034 104a 05       		.uleb128 0x5
 2035 104b 03       		.byte	0x3
 2036 104c 00000000 		.4byte	KAppHdr
 2037 1050 17       		.uleb128 0x17
 2038 1051 12010000 		.4byte	0x112
 2039 1055 19       		.uleb128 0x19
 2040 1056 D3150000 		.4byte	.LASF516
 2041 105a 03       		.byte	0x3
 2042 105b A3       		.byte	0xa3
 2043 105c 49000000 		.4byte	0x49
 2044 1060 74100000 		.4byte	0x1074
 2045 1064 1A       		.uleb128 0x1a
 2046 1065 49000000 		.4byte	0x49
 2047 1069 1A       		.uleb128 0x1a
 2048 106a 49000000 		.4byte	0x49
 2049 106e 1A       		.uleb128 0x1a
 2050 106f 49000000 		.4byte	0x49
 2051 1073 00       		.byte	0
ARM GAS  C:\Users\AHMED~1.ELE\AppData\Local\Temp\ccUAgQOL.s 			page 39


 2052 1074 19       		.uleb128 0x19
 2053 1075 C9150000 		.4byte	.LASF517
 2054 1079 03       		.byte	0x3
 2055 107a A2       		.byte	0xa2
 2056 107b 49000000 		.4byte	0x49
 2057 107f 8E100000 		.4byte	0x108e
 2058 1083 1A       		.uleb128 0x1a
 2059 1084 49000000 		.4byte	0x49
 2060 1088 1A       		.uleb128 0x1a
 2061 1089 49000000 		.4byte	0x49
 2062 108d 00       		.byte	0
 2063 108e 19       		.uleb128 0x19
 2064 108f BF150000 		.4byte	.LASF518
 2065 1093 03       		.byte	0x3
 2066 1094 A1       		.byte	0xa1
 2067 1095 49000000 		.4byte	0x49
 2068 1099 A3100000 		.4byte	0x10a3
 2069 109d 1A       		.uleb128 0x1a
 2070 109e 49000000 		.4byte	0x49
 2071 10a2 00       		.byte	0
 2072 10a3 1B       		.uleb128 0x1b
 2073 10a4 790E0000 		.4byte	.LASF527
 2074 10a8 04       		.byte	0x4
 2075 10a9 3F       		.byte	0x3f
 2076 10aa 69000000 		.4byte	0x69
 2077 10ae 1C       		.uleb128 0x1c
 2078 10af 6A000000 		.4byte	.LASF520
 2079 10b3 04       		.byte	0x4
 2080 10b4 40       		.byte	0x40
 2081 10b5 19       		.uleb128 0x19
 2082 10b6 EE190000 		.4byte	.LASF519
 2083 10ba 04       		.byte	0x4
 2084 10bb 42       		.byte	0x42
 2085 10bc 69000000 		.4byte	0x69
 2086 10c0 D4100000 		.4byte	0x10d4
 2087 10c4 1A       		.uleb128 0x1a
 2088 10c5 49000000 		.4byte	0x49
 2089 10c9 1A       		.uleb128 0x1a
 2090 10ca 49000000 		.4byte	0x49
 2091 10ce 1A       		.uleb128 0x1a
 2092 10cf 49000000 		.4byte	0x49
 2093 10d3 00       		.byte	0
 2094 10d4 1C       		.uleb128 0x1c
 2095 10d5 E9140000 		.4byte	.LASF521
 2096 10d9 04       		.byte	0x4
 2097 10da 41       		.byte	0x41
 2098 10db 00       		.byte	0
 2099              		.section	.debug_abbrev,"",%progbits
 2100              	.Ldebug_abbrev0:
 2101 0000 01       		.uleb128 0x1
 2102 0001 11       		.uleb128 0x11
 2103 0002 01       		.byte	0x1
 2104 0003 25       		.uleb128 0x25
 2105 0004 0E       		.uleb128 0xe
 2106 0005 13       		.uleb128 0x13
 2107 0006 0B       		.uleb128 0xb
 2108 0007 03       		.uleb128 0x3
ARM GAS  C:\Users\AHMED~1.ELE\AppData\Local\Temp\ccUAgQOL.s 			page 40


 2109 0008 0E       		.uleb128 0xe
 2110 0009 1B       		.uleb128 0x1b
 2111 000a 0E       		.uleb128 0xe
 2112 000b 55       		.uleb128 0x55
 2113 000c 17       		.uleb128 0x17
 2114 000d 11       		.uleb128 0x11
 2115 000e 01       		.uleb128 0x1
 2116 000f 10       		.uleb128 0x10
 2117 0010 17       		.uleb128 0x17
 2118 0011 00       		.byte	0
 2119 0012 00       		.byte	0
 2120 0013 02       		.uleb128 0x2
 2121 0014 24       		.uleb128 0x24
 2122 0015 00       		.byte	0
 2123 0016 0B       		.uleb128 0xb
 2124 0017 0B       		.uleb128 0xb
 2125 0018 3E       		.uleb128 0x3e
 2126 0019 0B       		.uleb128 0xb
 2127 001a 03       		.uleb128 0x3
 2128 001b 0E       		.uleb128 0xe
 2129 001c 00       		.byte	0
 2130 001d 00       		.byte	0
 2131 001e 03       		.uleb128 0x3
 2132 001f 16       		.uleb128 0x16
 2133 0020 00       		.byte	0
 2134 0021 03       		.uleb128 0x3
 2135 0022 0E       		.uleb128 0xe
 2136 0023 3A       		.uleb128 0x3a
 2137 0024 0B       		.uleb128 0xb
 2138 0025 3B       		.uleb128 0x3b
 2139 0026 0B       		.uleb128 0xb
 2140 0027 49       		.uleb128 0x49
 2141 0028 13       		.uleb128 0x13
 2142 0029 00       		.byte	0
 2143 002a 00       		.byte	0
 2144 002b 04       		.uleb128 0x4
 2145 002c 24       		.uleb128 0x24
 2146 002d 00       		.byte	0
 2147 002e 0B       		.uleb128 0xb
 2148 002f 0B       		.uleb128 0xb
 2149 0030 3E       		.uleb128 0x3e
 2150 0031 0B       		.uleb128 0xb
 2151 0032 03       		.uleb128 0x3
 2152 0033 08       		.uleb128 0x8
 2153 0034 00       		.byte	0
 2154 0035 00       		.byte	0
 2155 0036 05       		.uleb128 0x5
 2156 0037 13       		.uleb128 0x13
 2157 0038 01       		.byte	0x1
 2158 0039 0B       		.uleb128 0xb
 2159 003a 0B       		.uleb128 0xb
 2160 003b 3A       		.uleb128 0x3a
 2161 003c 0B       		.uleb128 0xb
 2162 003d 3B       		.uleb128 0x3b
 2163 003e 05       		.uleb128 0x5
 2164 003f 01       		.uleb128 0x1
 2165 0040 13       		.uleb128 0x13
ARM GAS  C:\Users\AHMED~1.ELE\AppData\Local\Temp\ccUAgQOL.s 			page 41


 2166 0041 00       		.byte	0
 2167 0042 00       		.byte	0
 2168 0043 06       		.uleb128 0x6
 2169 0044 0D       		.uleb128 0xd
 2170 0045 00       		.byte	0
 2171 0046 03       		.uleb128 0x3
 2172 0047 0E       		.uleb128 0xe
 2173 0048 3A       		.uleb128 0x3a
 2174 0049 0B       		.uleb128 0xb
 2175 004a 3B       		.uleb128 0x3b
 2176 004b 05       		.uleb128 0x5
 2177 004c 49       		.uleb128 0x49
 2178 004d 13       		.uleb128 0x13
 2179 004e 38       		.uleb128 0x38
 2180 004f 0B       		.uleb128 0xb
 2181 0050 00       		.byte	0
 2182 0051 00       		.byte	0
 2183 0052 07       		.uleb128 0x7
 2184 0053 16       		.uleb128 0x16
 2185 0054 00       		.byte	0
 2186 0055 03       		.uleb128 0x3
 2187 0056 0E       		.uleb128 0xe
 2188 0057 3A       		.uleb128 0x3a
 2189 0058 0B       		.uleb128 0xb
 2190 0059 3B       		.uleb128 0x3b
 2191 005a 05       		.uleb128 0x5
 2192 005b 49       		.uleb128 0x49
 2193 005c 13       		.uleb128 0x13
 2194 005d 00       		.byte	0
 2195 005e 00       		.byte	0
 2196 005f 08       		.uleb128 0x8
 2197 0060 01       		.uleb128 0x1
 2198 0061 01       		.byte	0x1
 2199 0062 49       		.uleb128 0x49
 2200 0063 13       		.uleb128 0x13
 2201 0064 01       		.uleb128 0x1
 2202 0065 13       		.uleb128 0x13
 2203 0066 00       		.byte	0
 2204 0067 00       		.byte	0
 2205 0068 09       		.uleb128 0x9
 2206 0069 21       		.uleb128 0x21
 2207 006a 00       		.byte	0
 2208 006b 49       		.uleb128 0x49
 2209 006c 13       		.uleb128 0x13
 2210 006d 2F       		.uleb128 0x2f
 2211 006e 0B       		.uleb128 0xb
 2212 006f 00       		.byte	0
 2213 0070 00       		.byte	0
 2214 0071 0A       		.uleb128 0xa
 2215 0072 04       		.uleb128 0x4
 2216 0073 01       		.byte	0x1
 2217 0074 03       		.uleb128 0x3
 2218 0075 0E       		.uleb128 0xe
 2219 0076 0B       		.uleb128 0xb
 2220 0077 0B       		.uleb128 0xb
 2221 0078 3A       		.uleb128 0x3a
 2222 0079 0B       		.uleb128 0xb
ARM GAS  C:\Users\AHMED~1.ELE\AppData\Local\Temp\ccUAgQOL.s 			page 42


 2223 007a 3B       		.uleb128 0x3b
 2224 007b 05       		.uleb128 0x5
 2225 007c 01       		.uleb128 0x1
 2226 007d 13       		.uleb128 0x13
 2227 007e 00       		.byte	0
 2228 007f 00       		.byte	0
 2229 0080 0B       		.uleb128 0xb
 2230 0081 28       		.uleb128 0x28
 2231 0082 00       		.byte	0
 2232 0083 03       		.uleb128 0x3
 2233 0084 0E       		.uleb128 0xe
 2234 0085 1C       		.uleb128 0x1c
 2235 0086 0D       		.uleb128 0xd
 2236 0087 00       		.byte	0
 2237 0088 00       		.byte	0
 2238 0089 0C       		.uleb128 0xc
 2239 008a 04       		.uleb128 0x4
 2240 008b 01       		.byte	0x1
 2241 008c 0B       		.uleb128 0xb
 2242 008d 0B       		.uleb128 0xb
 2243 008e 3A       		.uleb128 0x3a
 2244 008f 0B       		.uleb128 0xb
 2245 0090 3B       		.uleb128 0x3b
 2246 0091 05       		.uleb128 0x5
 2247 0092 01       		.uleb128 0x1
 2248 0093 13       		.uleb128 0x13
 2249 0094 00       		.byte	0
 2250 0095 00       		.byte	0
 2251 0096 0D       		.uleb128 0xd
 2252 0097 2E       		.uleb128 0x2e
 2253 0098 01       		.byte	0x1
 2254 0099 3F       		.uleb128 0x3f
 2255 009a 19       		.uleb128 0x19
 2256 009b 03       		.uleb128 0x3
 2257 009c 0E       		.uleb128 0xe
 2258 009d 3A       		.uleb128 0x3a
 2259 009e 0B       		.uleb128 0xb
 2260 009f 3B       		.uleb128 0x3b
 2261 00a0 0B       		.uleb128 0xb
 2262 00a1 27       		.uleb128 0x27
 2263 00a2 19       		.uleb128 0x19
 2264 00a3 49       		.uleb128 0x49
 2265 00a4 13       		.uleb128 0x13
 2266 00a5 11       		.uleb128 0x11
 2267 00a6 01       		.uleb128 0x1
 2268 00a7 12       		.uleb128 0x12
 2269 00a8 06       		.uleb128 0x6
 2270 00a9 40       		.uleb128 0x40
 2271 00aa 18       		.uleb128 0x18
 2272 00ab 9742     		.uleb128 0x2117
 2273 00ad 19       		.uleb128 0x19
 2274 00ae 01       		.uleb128 0x1
 2275 00af 13       		.uleb128 0x13
 2276 00b0 00       		.byte	0
 2277 00b1 00       		.byte	0
 2278 00b2 0E       		.uleb128 0xe
 2279 00b3 05       		.uleb128 0x5
ARM GAS  C:\Users\AHMED~1.ELE\AppData\Local\Temp\ccUAgQOL.s 			page 43


 2280 00b4 00       		.byte	0
 2281 00b5 03       		.uleb128 0x3
 2282 00b6 0E       		.uleb128 0xe
 2283 00b7 3A       		.uleb128 0x3a
 2284 00b8 0B       		.uleb128 0xb
 2285 00b9 3B       		.uleb128 0x3b
 2286 00ba 0B       		.uleb128 0xb
 2287 00bb 49       		.uleb128 0x49
 2288 00bc 13       		.uleb128 0x13
 2289 00bd 02       		.uleb128 0x2
 2290 00be 17       		.uleb128 0x17
 2291 00bf 00       		.byte	0
 2292 00c0 00       		.byte	0
 2293 00c1 0F       		.uleb128 0xf
 2294 00c2 34       		.uleb128 0x34
 2295 00c3 00       		.byte	0
 2296 00c4 03       		.uleb128 0x3
 2297 00c5 0E       		.uleb128 0xe
 2298 00c6 3A       		.uleb128 0x3a
 2299 00c7 0B       		.uleb128 0xb
 2300 00c8 3B       		.uleb128 0x3b
 2301 00c9 0B       		.uleb128 0xb
 2302 00ca 49       		.uleb128 0x49
 2303 00cb 13       		.uleb128 0x13
 2304 00cc 02       		.uleb128 0x2
 2305 00cd 17       		.uleb128 0x17
 2306 00ce 00       		.byte	0
 2307 00cf 00       		.byte	0
 2308 00d0 10       		.uleb128 0x10
 2309 00d1 34       		.uleb128 0x34
 2310 00d2 00       		.byte	0
 2311 00d3 03       		.uleb128 0x3
 2312 00d4 0E       		.uleb128 0xe
 2313 00d5 3A       		.uleb128 0x3a
 2314 00d6 0B       		.uleb128 0xb
 2315 00d7 3B       		.uleb128 0x3b
 2316 00d8 0B       		.uleb128 0xb
 2317 00d9 49       		.uleb128 0x49
 2318 00da 13       		.uleb128 0x13
 2319 00db 02       		.uleb128 0x2
 2320 00dc 18       		.uleb128 0x18
 2321 00dd 00       		.byte	0
 2322 00de 00       		.byte	0
 2323 00df 11       		.uleb128 0x11
 2324 00e0 898201   		.uleb128 0x4109
 2325 00e3 01       		.byte	0x1
 2326 00e4 11       		.uleb128 0x11
 2327 00e5 01       		.uleb128 0x1
 2328 00e6 31       		.uleb128 0x31
 2329 00e7 13       		.uleb128 0x13
 2330 00e8 01       		.uleb128 0x1
 2331 00e9 13       		.uleb128 0x13
 2332 00ea 00       		.byte	0
 2333 00eb 00       		.byte	0
 2334 00ec 12       		.uleb128 0x12
 2335 00ed 8A8201   		.uleb128 0x410a
 2336 00f0 00       		.byte	0
ARM GAS  C:\Users\AHMED~1.ELE\AppData\Local\Temp\ccUAgQOL.s 			page 44


 2337 00f1 02       		.uleb128 0x2
 2338 00f2 18       		.uleb128 0x18
 2339 00f3 9142     		.uleb128 0x2111
 2340 00f5 18       		.uleb128 0x18
 2341 00f6 00       		.byte	0
 2342 00f7 00       		.byte	0
 2343 00f8 13       		.uleb128 0x13
 2344 00f9 898201   		.uleb128 0x4109
 2345 00fc 00       		.byte	0
 2346 00fd 11       		.uleb128 0x11
 2347 00fe 01       		.uleb128 0x1
 2348 00ff 31       		.uleb128 0x31
 2349 0100 13       		.uleb128 0x13
 2350 0101 00       		.byte	0
 2351 0102 00       		.byte	0
 2352 0103 14       		.uleb128 0x14
 2353 0104 898201   		.uleb128 0x4109
 2354 0107 01       		.byte	0x1
 2355 0108 11       		.uleb128 0x11
 2356 0109 01       		.uleb128 0x1
 2357 010a 31       		.uleb128 0x31
 2358 010b 13       		.uleb128 0x13
 2359 010c 00       		.byte	0
 2360 010d 00       		.byte	0
 2361 010e 15       		.uleb128 0x15
 2362 010f 21       		.uleb128 0x21
 2363 0110 00       		.byte	0
 2364 0111 00       		.byte	0
 2365 0112 00       		.byte	0
 2366 0113 16       		.uleb128 0x16
 2367 0114 34       		.uleb128 0x34
 2368 0115 00       		.byte	0
 2369 0116 03       		.uleb128 0x3
 2370 0117 0E       		.uleb128 0xe
 2371 0118 3A       		.uleb128 0x3a
 2372 0119 0B       		.uleb128 0xb
 2373 011a 3B       		.uleb128 0x3b
 2374 011b 0B       		.uleb128 0xb
 2375 011c 49       		.uleb128 0x49
 2376 011d 13       		.uleb128 0x13
 2377 011e 3F       		.uleb128 0x3f
 2378 011f 19       		.uleb128 0x19
 2379 0120 3C       		.uleb128 0x3c
 2380 0121 19       		.uleb128 0x19
 2381 0122 00       		.byte	0
 2382 0123 00       		.byte	0
 2383 0124 17       		.uleb128 0x17
 2384 0125 26       		.uleb128 0x26
 2385 0126 00       		.byte	0
 2386 0127 49       		.uleb128 0x49
 2387 0128 13       		.uleb128 0x13
 2388 0129 00       		.byte	0
 2389 012a 00       		.byte	0
 2390 012b 18       		.uleb128 0x18
 2391 012c 34       		.uleb128 0x34
 2392 012d 00       		.byte	0
 2393 012e 03       		.uleb128 0x3
ARM GAS  C:\Users\AHMED~1.ELE\AppData\Local\Temp\ccUAgQOL.s 			page 45


 2394 012f 0E       		.uleb128 0xe
 2395 0130 3A       		.uleb128 0x3a
 2396 0131 0B       		.uleb128 0xb
 2397 0132 3B       		.uleb128 0x3b
 2398 0133 0B       		.uleb128 0xb
 2399 0134 49       		.uleb128 0x49
 2400 0135 13       		.uleb128 0x13
 2401 0136 3F       		.uleb128 0x3f
 2402 0137 19       		.uleb128 0x19
 2403 0138 02       		.uleb128 0x2
 2404 0139 18       		.uleb128 0x18
 2405 013a 00       		.byte	0
 2406 013b 00       		.byte	0
 2407 013c 19       		.uleb128 0x19
 2408 013d 2E       		.uleb128 0x2e
 2409 013e 01       		.byte	0x1
 2410 013f 3F       		.uleb128 0x3f
 2411 0140 19       		.uleb128 0x19
 2412 0141 03       		.uleb128 0x3
 2413 0142 0E       		.uleb128 0xe
 2414 0143 3A       		.uleb128 0x3a
 2415 0144 0B       		.uleb128 0xb
 2416 0145 3B       		.uleb128 0x3b
 2417 0146 0B       		.uleb128 0xb
 2418 0147 27       		.uleb128 0x27
 2419 0148 19       		.uleb128 0x19
 2420 0149 49       		.uleb128 0x49
 2421 014a 13       		.uleb128 0x13
 2422 014b 3C       		.uleb128 0x3c
 2423 014c 19       		.uleb128 0x19
 2424 014d 01       		.uleb128 0x1
 2425 014e 13       		.uleb128 0x13
 2426 014f 00       		.byte	0
 2427 0150 00       		.byte	0
 2428 0151 1A       		.uleb128 0x1a
 2429 0152 05       		.uleb128 0x5
 2430 0153 00       		.byte	0
 2431 0154 49       		.uleb128 0x49
 2432 0155 13       		.uleb128 0x13
 2433 0156 00       		.byte	0
 2434 0157 00       		.byte	0
 2435 0158 1B       		.uleb128 0x1b
 2436 0159 2E       		.uleb128 0x2e
 2437 015a 00       		.byte	0
 2438 015b 3F       		.uleb128 0x3f
 2439 015c 19       		.uleb128 0x19
 2440 015d 03       		.uleb128 0x3
 2441 015e 0E       		.uleb128 0xe
 2442 015f 3A       		.uleb128 0x3a
 2443 0160 0B       		.uleb128 0xb
 2444 0161 3B       		.uleb128 0x3b
 2445 0162 0B       		.uleb128 0xb
 2446 0163 27       		.uleb128 0x27
 2447 0164 19       		.uleb128 0x19
 2448 0165 49       		.uleb128 0x49
 2449 0166 13       		.uleb128 0x13
 2450 0167 3C       		.uleb128 0x3c
ARM GAS  C:\Users\AHMED~1.ELE\AppData\Local\Temp\ccUAgQOL.s 			page 46


 2451 0168 19       		.uleb128 0x19
 2452 0169 00       		.byte	0
 2453 016a 00       		.byte	0
 2454 016b 1C       		.uleb128 0x1c
 2455 016c 2E       		.uleb128 0x2e
 2456 016d 00       		.byte	0
 2457 016e 3F       		.uleb128 0x3f
 2458 016f 19       		.uleb128 0x19
 2459 0170 03       		.uleb128 0x3
 2460 0171 0E       		.uleb128 0xe
 2461 0172 3A       		.uleb128 0x3a
 2462 0173 0B       		.uleb128 0xb
 2463 0174 3B       		.uleb128 0x3b
 2464 0175 0B       		.uleb128 0xb
 2465 0176 27       		.uleb128 0x27
 2466 0177 19       		.uleb128 0x19
 2467 0178 3C       		.uleb128 0x3c
 2468 0179 19       		.uleb128 0x19
 2469 017a 00       		.byte	0
 2470 017b 00       		.byte	0
 2471 017c 00       		.byte	0
 2472              		.section	.debug_loc,"",%progbits
 2473              	.Ldebug_loc0:
 2474              	.LLST0:
 2475 0000 00000000 		.4byte	.LVL0
 2476 0004 0C000000 		.4byte	.LVL1
 2477 0008 0100     		.2byte	0x1
 2478 000a 50       		.byte	0x50
 2479 000b 0C000000 		.4byte	.LVL1
 2480 000f 74000000 		.4byte	.LVL17
 2481 0013 0100     		.2byte	0x1
 2482 0015 56       		.byte	0x56
 2483 0016 74000000 		.4byte	.LVL17
 2484 001a 78000000 		.4byte	.LFE0
 2485 001e 0400     		.2byte	0x4
 2486 0020 F3       		.byte	0xf3
 2487 0021 01       		.uleb128 0x1
 2488 0022 50       		.byte	0x50
 2489 0023 9F       		.byte	0x9f
 2490 0024 00000000 		.4byte	0
 2491 0028 00000000 		.4byte	0
 2492              	.LLST1:
 2493 002c 00000000 		.4byte	.LVL0
 2494 0030 0E000000 		.4byte	.LVL2
 2495 0034 0100     		.2byte	0x1
 2496 0036 51       		.byte	0x51
 2497 0037 0E000000 		.4byte	.LVL2
 2498 003b 74000000 		.4byte	.LVL17
 2499 003f 0100     		.2byte	0x1
 2500 0041 55       		.byte	0x55
 2501 0042 74000000 		.4byte	.LVL17
 2502 0046 78000000 		.4byte	.LFE0
 2503 004a 0400     		.2byte	0x4
 2504 004c F3       		.byte	0xf3
 2505 004d 01       		.uleb128 0x1
 2506 004e 51       		.byte	0x51
 2507 004f 9F       		.byte	0x9f
ARM GAS  C:\Users\AHMED~1.ELE\AppData\Local\Temp\ccUAgQOL.s 			page 47


 2508 0050 00000000 		.4byte	0
 2509 0054 00000000 		.4byte	0
 2510              	.LLST2:
 2511 0058 00000000 		.4byte	.LVL0
 2512 005c 10000000 		.4byte	.LVL3
 2513 0060 0100     		.2byte	0x1
 2514 0062 52       		.byte	0x52
 2515 0063 10000000 		.4byte	.LVL3
 2516 0067 60000000 		.4byte	.LVL14
 2517 006b 0100     		.2byte	0x1
 2518 006d 54       		.byte	0x54
 2519 006e 60000000 		.4byte	.LVL14
 2520 0072 78000000 		.4byte	.LFE0
 2521 0076 0400     		.2byte	0x4
 2522 0078 F3       		.byte	0xf3
 2523 0079 01       		.uleb128 0x1
 2524 007a 52       		.byte	0x52
 2525 007b 9F       		.byte	0x9f
 2526 007c 00000000 		.4byte	0
 2527 0080 00000000 		.4byte	0
 2528              	.LLST3:
 2529 0084 00000000 		.4byte	.LVL0
 2530 0088 60000000 		.4byte	.LVL14
 2531 008c 0200     		.2byte	0x2
 2532 008e 30       		.byte	0x30
 2533 008f 9F       		.byte	0x9f
 2534 0090 60000000 		.4byte	.LVL14
 2535 0094 63000000 		.4byte	.LVL15-1
 2536 0098 0100     		.2byte	0x1
 2537 009a 50       		.byte	0x50
 2538 009b 63000000 		.4byte	.LVL15-1
 2539 009f 74000000 		.4byte	.LVL17
 2540 00a3 0100     		.2byte	0x1
 2541 00a5 54       		.byte	0x54
 2542 00a6 74000000 		.4byte	.LVL17
 2543 00aa 78000000 		.4byte	.LFE0
 2544 00ae 0100     		.2byte	0x1
 2545 00b0 50       		.byte	0x50
 2546 00b1 00000000 		.4byte	0
 2547 00b5 00000000 		.4byte	0
 2548              		.section	.debug_aranges,"",%progbits
 2549 0000 1C000000 		.4byte	0x1c
 2550 0004 0200     		.2byte	0x2
 2551 0006 00000000 		.4byte	.Ldebug_info0
 2552 000a 04       		.byte	0x4
 2553 000b 00       		.byte	0
 2554 000c 0000     		.2byte	0
 2555 000e 0000     		.2byte	0
 2556 0010 00000000 		.4byte	.LFB0
 2557 0014 78000000 		.4byte	.LFE0-.LFB0
 2558 0018 00000000 		.4byte	0
 2559 001c 00000000 		.4byte	0
 2560              		.section	.debug_ranges,"",%progbits
 2561              	.Ldebug_ranges0:
 2562 0000 00000000 		.4byte	.LFB0
 2563 0004 78000000 		.4byte	.LFE0
 2564 0008 00000000 		.4byte	0
ARM GAS  C:\Users\AHMED~1.ELE\AppData\Local\Temp\ccUAgQOL.s 			page 48


 2565 000c 00000000 		.4byte	0
 2566              		.section	.debug_line,"",%progbits
 2567              	.Ldebug_line0:
 2568 0000 83000000 		.section	.debug_str,"MS",%progbits,1
 2568      02005500 
 2568      00000201 
 2568      FB0E0D00 
 2568      01010101 
 2569              	.LASF340:
 2570 0000 4F535F46 		.ascii	"OS_FN_CLICC_LED_OPEN\000"
 2570      4E5F434C 
 2570      4943435F 
 2570      4C45445F 
 2570      4F50454E 
 2571              	.LASF353:
 2572 0015 4F535F46 		.ascii	"OS_FN_DRIVER_REGISTER\000"
 2572      4E5F4452 
 2572      49564552 
 2572      5F524547 
 2572      49535445 
 2573              	.LASF502:
 2574 002b 63686172 		.ascii	"char\000"
 2574      00
 2575              	.LASF328:
 2576 0030 4F535F46 		.ascii	"OS_FN_CODEC_CLOSE\000"
 2576      4E5F434F 
 2576      4445435F 
 2576      434C4F53 
 2576      4500
 2577              	.LASF440:
 2578 0042 4F535F46 		.ascii	"OS_FN_GET_CALLID\000"
 2578      4E5F4745 
 2578      545F4341 
 2578      4C4C4944 
 2578      00
 2579              	.LASF206:
 2580 0053 4F535F46 		.ascii	"OS_FN_FILE_INIT_SEARCH\000"
 2580      4E5F4649 
 2580      4C455F49 
 2580      4E49545F 
 2580      53454152 
 2581              	.LASF520:
 2582 006a 476C6F62 		.ascii	"GlobalsInit\000"
 2582      616C7349 
 2582      6E697400 
 2583              	.LASF15:
 2584 0076 705F7669 		.ascii	"p_virgin\000"
 2584      7267696E 
 2584      00
 2585              	.LASF186:
 2586 007f 4F535F46 		.ascii	"OS_FN_FILE_SEEK\000"
 2586      4E5F4649 
 2586      4C455F53 
 2586      45454B00 
 2587              	.LASF7:
 2588 008f 73697A65 		.ascii	"sizetype\000"
 2588      74797065 
ARM GAS  C:\Users\AHMED~1.ELE\AppData\Local\Temp\ccUAgQOL.s 			page 49


 2588      00
 2589              	.LASF427:
 2590 0098 4F535F46 		.ascii	"OS_FN_NFC_IC_REG_DIRECT_WRITE\000"
 2590      4E5F4E46 
 2590      435F4943 
 2590      5F524547 
 2590      5F444952 
 2591              	.LASF178:
 2592 00b6 4F535F46 		.ascii	"OS_FN_FILE_CREATE_OWNER\000"
 2592      4E5F4649 
 2592      4C455F43 
 2592      52454154 
 2592      455F4F57 
 2593              	.LASF316:
 2594 00ce 4F535F46 		.ascii	"OS_FN_GPRS_SMS_SEND\000"
 2594      4E5F4750 
 2594      52535F53 
 2594      4D535F53 
 2594      454E4400 
 2595              	.LASF19:
 2596 00e2 625F7479 		.ascii	"b_type\000"
 2596      706500
 2597              	.LASF345:
 2598 00e9 4F535F46 		.ascii	"OS_FN_CLICC_LED_ON\000"
 2598      4E5F434C 
 2598      4943435F 
 2598      4C45445F 
 2598      4F4E00
 2599              	.LASF352:
 2600 00fc 4F535F46 		.ascii	"OS_FN_USBHOST_DEVICEMAP\000"
 2600      4E5F5553 
 2600      42484F53 
 2600      545F4445 
 2600      56494345 
 2601              	.LASF361:
 2602 0114 4F535F46 		.ascii	"OS_FN_DEVICE_SEARCH_NEXT\000"
 2602      4E5F4445 
 2602      56494345 
 2602      5F534541 
 2602      5243485F 
 2603              	.LASF470:
 2604 012d 4F535F46 		.ascii	"OS_FN_GCM_AES_OPEN\000"
 2604      4E5F4743 
 2604      4D5F4145 
 2604      535F4F50 
 2604      454E00
 2605              	.LASF327:
 2606 0140 4F535F46 		.ascii	"OS_FN_CODEC_OPEN\000"
 2606      4E5F434F 
 2606      4445435F 
 2606      4F50454E 
 2606      00
 2607              	.LASF94:
 2608 0151 4F535F46 		.ascii	"OS_FN_COM3_SREAD\000"
 2608      4E5F434F 
 2608      4D335F53 
 2608      52454144 
ARM GAS  C:\Users\AHMED~1.ELE\AppData\Local\Temp\ccUAgQOL.s 			page 50


 2608      00
 2609              	.LASF182:
 2610 0162 4F535F46 		.ascii	"OS_FN_FILE_EXIST\000"
 2610      4E5F4649 
 2610      4C455F45 
 2610      58495354 
 2610      00
 2611              	.LASF492:
 2612 0173 4F535F46 		.ascii	"OS_FN_IMG_SENSOR_LED_OPEN\000"
 2612      4E5F494D 
 2612      475F5345 
 2612      4E534F52 
 2612      5F4C4544 
 2613              	.LASF131:
 2614 018d 4F535F46 		.ascii	"OS_FN_SM4_DECRYPT\000"
 2614      4E5F534D 
 2614      345F4445 
 2614      43525950 
 2614      5400
 2615              	.LASF500:
 2616 019f 4F535F46 		.ascii	"OS_FN_GPS_GET_DETAIL_INFO\000"
 2616      4E5F4750 
 2616      535F4745 
 2616      545F4445 
 2616      5441494C 
 2617              	.LASF312:
 2618 01b9 4F535F46 		.ascii	"OS_FN_GPRS_GET_CID\000"
 2618      4E5F4750 
 2618      52535F47 
 2618      45545F43 
 2618      494400
 2619              	.LASF381:
 2620 01cc 4F535F46 		.ascii	"OS_FN_TAMPER_RESET_STATUS\000"
 2620      4E5F5441 
 2620      4D504552 
 2620      5F524553 
 2620      45545F53 
 2621              	.LASF454:
 2622 01e6 4F535F46 		.ascii	"OS_FN_POWER\000"
 2622      4E5F504F 
 2622      57455200 
 2623              	.LASF302:
 2624 01f2 4F535F46 		.ascii	"OS_FN_ADC_CH_DISABLE\000"
 2624      4E5F4144 
 2624      435F4348 
 2624      5F444953 
 2624      41424C45 
 2625              	.LASF228:
 2626 0207 4F535F46 		.ascii	"OS_FN_MMC_SIZE\000"
 2626      4E5F4D4D 
 2626      435F5349 
 2626      5A4500
 2627              	.LASF195:
 2628 0216 4F535F46 		.ascii	"OS_FN_FILE_DSEARCH_ALL\000"
 2628      4E5F4649 
 2628      4C455F44 
 2628      53454152 
ARM GAS  C:\Users\AHMED~1.ELE\AppData\Local\Temp\ccUAgQOL.s 			page 51


 2628      43485F41 
 2629              	.LASF514:
 2630 022d 4B457870 		.ascii	"KExportFunc\000"
 2630      6F727446 
 2630      756E6300 
 2631              	.LASF449:
 2632 0239 4F535F46 		.ascii	"OS_FN_DMK_KVC_READ\000"
 2632      4E5F444D 
 2632      4B5F4B56 
 2632      435F5245 
 2632      414400
 2633              	.LASF41:
 2634 024c 4F535F46 		.ascii	"OS_FN_TIMER_SET\000"
 2634      4E5F5449 
 2634      4D45525F 
 2634      53455400 
 2635              	.LASF476:
 2636 025c 4F535F46 		.ascii	"OS_FN_SYS_THREAD_CREATE\000"
 2636      4E5F5359 
 2636      535F5448 
 2636      52454144 
 2636      5F435245 
 2637              	.LASF159:
 2638 0274 4F535F46 		.ascii	"OS_FN_BUFMAN_FREE\000"
 2638      4E5F4255 
 2638      464D414E 
 2638      5F465245 
 2638      4500
 2639              	.LASF307:
 2640 0286 4F535F46 		.ascii	"OS_FN_GPRS_AT_RESP\000"
 2640      4E5F4750 
 2640      52535F41 
 2640      545F5245 
 2640      535000
 2641              	.LASF490:
 2642 0299 4F535F46 		.ascii	"OS_FN_GPRS_IS_HL6RD_OLD_FRM\000"
 2642      4E5F4750 
 2642      52535F49 
 2642      535F484C 
 2642      3652445F 
 2643              	.LASF291:
 2644 02b5 4F535F46 		.ascii	"OS_FN_MCOM_TXRDY\000"
 2644      4E5F4D43 
 2644      4F4D5F54 
 2644      58524459 
 2644      00
 2645              	.LASF235:
 2646 02c6 4F535F46 		.ascii	"OS_FN_SLE_OPEN\000"
 2646      4E5F534C 
 2646      455F4F50 
 2646      454E00
 2647              	.LASF62:
 2648 02d5 4F535F46 		.ascii	"OS_FN_DISP_BRIGHTNESS\000"
 2648      4E5F4449 
 2648      53505F42 
 2648      52494748 
 2648      544E4553 
ARM GAS  C:\Users\AHMED~1.ELE\AppData\Local\Temp\ccUAgQOL.s 			page 52


 2649              	.LASF318:
 2650 02eb 4F535F46 		.ascii	"OS_FN_GPRS_SMS_READ\000"
 2650      4E5F4750 
 2650      52535F53 
 2650      4D535F52 
 2650      45414400 
 2651              	.LASF309:
 2652 02ff 4F535F46 		.ascii	"OS_FN_GPRS_READ\000"
 2652      4E5F4750 
 2652      52535F52 
 2652      45414400 
 2653              	.LASF506:
 2654 030f 55534246 		.ascii	"USBFPRT_GENERAL_INFO_IMG_BPP\000"
 2654      5052545F 
 2654      47454E45 
 2654      52414C5F 
 2654      494E464F 
 2655              	.LASF202:
 2656 032c 4F535F46 		.ascii	"OS_FN_FILE_GET_FREE_SPACE\000"
 2656      4E5F4649 
 2656      4C455F47 
 2656      45545F46 
 2656      5245455F 
 2657              	.LASF142:
 2658 0346 4F535F46 		.ascii	"OS_FN_KEY_SAVE_NC\000"
 2658      4E5F4B45 
 2658      595F5341 
 2658      56455F4E 
 2658      4300
 2659              	.LASF481:
 2660 0358 4F535F46 		.ascii	"OS_FN_WIFI_SOCKET_SEND_UDP\000"
 2660      4E5F5749 
 2660      46495F53 
 2660      4F434B45 
 2660      545F5345 
 2661              	.LASF452:
 2662 0373 4F535F46 		.ascii	"OS_FN_RMB_CONTROL\000"
 2662      4E5F524D 
 2662      425F434F 
 2662      4E54524F 
 2662      4C00
 2663              	.LASF122:
 2664 0385 4F535F46 		.ascii	"OS_FN_SM2_GET_SIGNATURE\000"
 2664      4E5F534D 
 2664      325F4745 
 2664      545F5349 
 2664      474E4154 
 2665              	.LASF88:
 2666 039d 4F535F46 		.ascii	"OS_FN_COM3_CLOSE\000"
 2666      4E5F434F 
 2666      4D335F43 
 2666      4C4F5345 
 2666      00
 2667              	.LASF78:
 2668 03ae 4F535F46 		.ascii	"OS_FN_COM2_OPEN\000"
 2668      4E5F434F 
 2668      4D325F4F 
ARM GAS  C:\Users\AHMED~1.ELE\AppData\Local\Temp\ccUAgQOL.s 			page 53


 2668      50454E00 
 2669              	.LASF351:
 2670 03be 4F535F46 		.ascii	"OS_FN_USBHOST_DEVINFO\000"
 2670      4E5F5553 
 2670      42484F53 
 2670      545F4445 
 2670      56494E46 
 2671              	.LASF248:
 2672 03d4 4F535F46 		.ascii	"OS_FN_MSR_RXLEN\000"
 2672      4E5F4D53 
 2672      525F5258 
 2672      4C454E00 
 2673              	.LASF107:
 2674 03e4 4F535F46 		.ascii	"OS_FN_AES_ENCRYPT_BLOCK\000"
 2674      4E5F4145 
 2674      535F454E 
 2674      43525950 
 2674      545F424C 
 2675              	.LASF192:
 2676 03fc 4F535F46 		.ascii	"OS_FN_FILE_END\000"
 2676      4E5F4649 
 2676      4C455F45 
 2676      4E4400
 2677              	.LASF219:
 2678 040b 4F535F46 		.ascii	"OS_FN_SAM_SELECT\000"
 2678      4E5F5341 
 2678      4D5F5345 
 2678      4C454354 
 2678      00
 2679              	.LASF436:
 2680 041c 4F535F46 		.ascii	"OS_FN_GPS_ENABLED\000"
 2680      4E5F4750 
 2680      535F454E 
 2680      41424C45 
 2680      4400
 2681              	.LASF412:
 2682 042e 4F535F46 		.ascii	"OS_FN_BARCODE_STATUS\000"
 2682      4E5F4241 
 2682      52434F44 
 2682      455F5354 
 2682      41545553 
 2683              	.LASF217:
 2684 0443 4F535F46 		.ascii	"OS_FN_SAM_OPEN\000"
 2684      4E5F5341 
 2684      4D5F4F50 
 2684      454E00
 2685              	.LASF115:
 2686 0452 4F535F46 		.ascii	"OS_FN_SHA_FINISH\000"
 2686      4E5F5348 
 2686      415F4649 
 2686      4E495348 
 2686      00
 2687              	.LASF396:
 2688 0463 4F535F46 		.ascii	"OS_FN_MIF_INC\000"
 2688      4E5F4D49 
 2688      465F494E 
 2688      4300
ARM GAS  C:\Users\AHMED~1.ELE\AppData\Local\Temp\ccUAgQOL.s 			page 54


 2689              	.LASF434:
 2690 0471 4F535F46 		.ascii	"OS_FN_GPS_RESP\000"
 2690      4E5F4750 
 2690      535F5245 
 2690      535000
 2691              	.LASF198:
 2692 0480 4F535F46 		.ascii	"OS_FN_FILE_GET_NAME\000"
 2692      4E5F4649 
 2692      4C455F47 
 2692      45545F4E 
 2692      414D4500 
 2693              	.LASF524:
 2694 0494 443A5C47 		.ascii	"D:\\GuadianPro\\Core\\S_MISR\\APP\\MISR\000"
 2694      75616469 
 2694      616E5072 
 2694      6F5C436F 
 2694      72655C53 
 2695              	.LASF123:
 2696 04b7 4F535F46 		.ascii	"OS_FN_SM2_VERIFY_SIGNATURE\000"
 2696      4E5F534D 
 2696      325F5645 
 2696      52494659 
 2696      5F534947 
 2697              	.LASF108:
 2698 04d2 4F535F46 		.ascii	"OS_FN_AES_DECRYPT_BLOCK\000"
 2698      4E5F4145 
 2698      535F4445 
 2698      43525950 
 2698      545F424C 
 2699              	.LASF134:
 2700 04ea 4F535F46 		.ascii	"OS_FN_KEY_DES\000"
 2700      4E5F4B45 
 2700      595F4445 
 2700      5300
 2701              	.LASF0:
 2702 04f8 42595445 		.ascii	"BYTE\000"
 2702      00
 2703              	.LASF419:
 2704 04fd 4F535F46 		.ascii	"OS_FN_WIFI_PROFILES_WRITE\000"
 2704      4E5F5749 
 2704      46495F50 
 2704      524F4649 
 2704      4C45535F 
 2705              	.LASF132:
 2706 0517 4F535F46 		.ascii	"OS_FN_KEY_SAVE\000"
 2706      4E5F4B45 
 2706      595F5341 
 2706      564500
 2707              	.LASF105:
 2708 0526 4F535F46 		.ascii	"OS_FN_RSA_PRIVATE\000"
 2708      4E5F5253 
 2708      415F5052 
 2708      49564154 
 2708      4500
 2709              	.LASF325:
 2710 0538 4F535F46 		.ascii	"OS_FN_TPAD_CALIBRATE\000"
 2710      4E5F5450 
ARM GAS  C:\Users\AHMED~1.ELE\AppData\Local\Temp\ccUAgQOL.s 			page 55


 2710      41445F43 
 2710      414C4942 
 2710      52415445 
 2711              	.LASF209:
 2712 054d 4F535F46 		.ascii	"OS_FN_FILE_RMDIR\000"
 2712      4E5F4649 
 2712      4C455F52 
 2712      4D444952 
 2712      00
 2713              	.LASF455:
 2714 055e 4F535F46 		.ascii	"OS_FN_CLICC_DEBUG\000"
 2714      4E5F434C 
 2714      4943435F 
 2714      44454255 
 2714      4700
 2715              	.LASF398:
 2716 0570 4F535F46 		.ascii	"OS_FN_MIF_RESTORE\000"
 2716      4E5F4D49 
 2716      465F5245 
 2716      53544F52 
 2716      4500
 2717              	.LASF293:
 2718 0582 4F535F46 		.ascii	"OS_FN_MCOM_SSEND\000"
 2718      4E5F4D43 
 2718      4F4D5F53 
 2718      53454E44 
 2718      00
 2719              	.LASF355:
 2720 0593 4F535F46 		.ascii	"OS_FN_DEVICE_ALLOC\000"
 2720      4E5F4445 
 2720      56494345 
 2720      5F414C4C 
 2720      4F4300
 2721              	.LASF466:
 2722 05a6 4F535F46 		.ascii	"OS_FN_FPRT_INFO_GET\000"
 2722      4E5F4650 
 2722      52545F49 
 2722      4E464F5F 
 2722      47455400 
 2723              	.LASF211:
 2724 05ba 4F535F46 		.ascii	"OS_FN_FILE_SYNC\000"
 2724      4E5F4649 
 2724      4C455F53 
 2724      594E4300 
 2725              	.LASF462:
 2726 05ca 4F535F46 		.ascii	"OS_FN_FPRT_OPEN\000"
 2726      4E5F4650 
 2726      52545F4F 
 2726      50454E00 
 2727              	.LASF249:
 2728 05da 4F535F46 		.ascii	"OS_FN_MSR_GETC\000"
 2728      4E5F4D53 
 2728      525F4745 
 2728      544300
 2729              	.LASF93:
 2730 05e9 4F535F46 		.ascii	"OS_FN_COM3_STATUS\000"
 2730      4E5F434F 
ARM GAS  C:\Users\AHMED~1.ELE\AppData\Local\Temp\ccUAgQOL.s 			page 56


 2730      4D335F53 
 2730      54415455 
 2730      5300
 2731              	.LASF300:
 2732 05fb 4F535F46 		.ascii	"OS_FN_BATT_CHARGE_MODE\000"
 2732      4E5F4241 
 2732      54545F43 
 2732      48415247 
 2732      455F4D4F 
 2733              	.LASF404:
 2734 0612 4F535F46 		.ascii	"OS_FN_MIF_INFO_SET\000"
 2734      4E5F4D49 
 2734      465F494E 
 2734      464F5F53 
 2734      455400
 2735              	.LASF369:
 2736 0625 4F535F46 		.ascii	"OS_FN_USBOTG_GET_STATE\000"
 2736      4E5F5553 
 2736      424F5447 
 2736      5F474554 
 2736      5F535441 
 2737              	.LASF10:
 2738 063c 6C6F6E67 		.ascii	"long int\000"
 2738      20696E74 
 2738      00
 2739              	.LASF158:
 2740 0645 4F535F46 		.ascii	"OS_FN_BUFMAN_ALLOC\000"
 2740      4E5F4255 
 2740      464D414E 
 2740      5F414C4C 
 2740      4F4300
 2741              	.LASF69:
 2742 0658 4F535F46 		.ascii	"OS_FN_COM1_OPEN\000"
 2742      4E5F434F 
 2742      4D315F4F 
 2742      50454E00 
 2743              	.LASF313:
 2744 0668 4F535F46 		.ascii	"OS_FN_GPRS_READ_USSD\000"
 2744      4E5F4750 
 2744      52535F52 
 2744      4541445F 
 2744      55535344 
 2745              	.LASF124:
 2746 067d 4F535F46 		.ascii	"OS_FN_SM2_ENCRYPT\000"
 2746      4E5F534D 
 2746      325F454E 
 2746      43525950 
 2746      5400
 2747              	.LASF473:
 2748 068f 4F535F46 		.ascii	"OS_FN_GCM_AES_PROCESS\000"
 2748      4E5F4743 
 2748      4D5F4145 
 2748      535F5052 
 2748      4F434553 
 2749              	.LASF357:
 2750 06a5 4F535F46 		.ascii	"OS_FN_DEVICE_UNREGISTER\000"
 2750      4E5F4445 
ARM GAS  C:\Users\AHMED~1.ELE\AppData\Local\Temp\ccUAgQOL.s 			page 57


 2750      56494345 
 2750      5F554E52 
 2750      45474953 
 2751              	.LASF526:
 2752 06bd 6D61696E 		.ascii	"main\000"
 2752      00
 2753              	.LASF121:
 2754 06c2 4F535F46 		.ascii	"OS_FN_SM2_FREE_CURVE\000"
 2754      4E5F534D 
 2754      325F4652 
 2754      45455F43 
 2754      55525645 
 2755              	.LASF498:
 2756 06d7 4F535F46 		.ascii	"OS_FN_BATT_LEVEL2\000"
 2756      4E5F4241 
 2756      54545F4C 
 2756      4556454C 
 2756      3200
 2757              	.LASF273:
 2758 06e9 4F535F46 		.ascii	"OS_FN_FL_COPYB_START\000"
 2758      4E5F464C 
 2758      5F434F50 
 2758      59425F53 
 2758      54415254 
 2759              	.LASF60:
 2760 06fe 4F535F46 		.ascii	"OS_FN_DISP_TEXTC\000"
 2760      4E5F4449 
 2760      53505F54 
 2760      45585443 
 2760      00
 2761              	.LASF194:
 2762 070f 4F535F46 		.ascii	"OS_FN_FILE_DSEARCH\000"
 2762      4E5F4649 
 2762      4C455F44 
 2762      53454152 
 2762      434800
 2763              	.LASF417:
 2764 0722 4F535F46 		.ascii	"OS_FN_WIFI_STATUS\000"
 2764      4E5F5749 
 2764      46495F53 
 2764      54415455 
 2764      5300
 2765              	.LASF507:
 2766 0734 55534246 		.ascii	"USBFPRT_GENERAL_INFO_END\000"
 2766      5052545F 
 2766      47454E45 
 2766      52414C5F 
 2766      494E464F 
 2767              	.LASF49:
 2768 074d 4F535F46 		.ascii	"OS_FN_DISP_OPEN\000"
 2768      4E5F4449 
 2768      53505F4F 
 2768      50454E00 
 2769              	.LASF51:
 2770 075d 4F535F46 		.ascii	"OS_FN_DISP_PUTC\000"
 2770      4E5F4449 
 2770      53505F50 
ARM GAS  C:\Users\AHMED~1.ELE\AppData\Local\Temp\ccUAgQOL.s 			page 58


 2770      55544300 
 2771              	.LASF339:
 2772 076d 4F535F46 		.ascii	"OS_FN_CLICC_EMV_LV1\000"
 2772      4E5F434C 
 2772      4943435F 
 2772      454D565F 
 2772      4C563100 
 2773              	.LASF55:
 2774 0781 4F535F46 		.ascii	"OS_FN_DISP_PUTG\000"
 2774      4E5F4449 
 2774      53505F50 
 2774      55544700 
 2775              	.LASF145:
 2776 0791 4F535F46 		.ascii	"OS_FN_KEY_SAVE_TMK_CBC_NC\000"
 2776      4E5F4B45 
 2776      595F5341 
 2776      56455F54 
 2776      4D4B5F43 
 2777              	.LASF301:
 2778 07ab 4F535F46 		.ascii	"OS_FN_ADC_CH_ENABLE\000"
 2778      4E5F4144 
 2778      435F4348 
 2778      5F454E41 
 2778      424C4500 
 2779              	.LASF53:
 2780 07bf 4F535F46 		.ascii	"OS_FN_DISP_PUTN\000"
 2780      4E5F4449 
 2780      53505F50 
 2780      55544E00 
 2781              	.LASF486:
 2782 07cf 4F535F46 		.ascii	"OS_FN_IMG_SENSOR_GET_FRAME\000"
 2782      4E5F494D 
 2782      475F5345 
 2782      4E534F52 
 2782      5F474554 
 2783              	.LASF56:
 2784 07ea 4F535F46 		.ascii	"OS_FN_DISP_PUTP\000"
 2784      4E5F4449 
 2784      53505F50 
 2784      55545000 
 2785              	.LASF447:
 2786 07fa 4F535F46 		.ascii	"OS_FN_DUMMY\000"
 2786      4E5F4455 
 2786      4D4D5900 
 2787              	.LASF331:
 2788 0806 4F535F46 		.ascii	"OS_FN_CODEC_STOP\000"
 2788      4E5F434F 
 2788      4445435F 
 2788      53544F50 
 2788      00
 2789              	.LASF52:
 2790 0817 4F535F46 		.ascii	"OS_FN_DISP_PUTS\000"
 2790      4E5F4449 
 2790      53505F50 
 2790      55545300 
 2791              	.LASF214:
 2792 0827 4F535F46 		.ascii	"OS_FN_CONFIG_READ\000"
ARM GAS  C:\Users\AHMED~1.ELE\AppData\Local\Temp\ccUAgQOL.s 			page 59


 2792      4E5F434F 
 2792      4E464947 
 2792      5F524541 
 2792      4400
 2793              	.LASF261:
 2794 0839 4F535F46 		.ascii	"OS_FN_USBSER_STATUS\000"
 2794      4E5F5553 
 2794      42534552 
 2794      5F535441 
 2794      54555300 
 2795              	.LASF420:
 2796 084d 4F535F46 		.ascii	"OS_FN_NFC_OPEN_FELICA\000"
 2796      4E5F4E46 
 2796      435F4F50 
 2796      454E5F46 
 2796      454C4943 
 2797              	.LASF167:
 2798 0863 4F535F46 		.ascii	"OS_FN_LED_ON\000"
 2798      4E5F4C45 
 2798      445F4F4E 
 2798      00
 2799              	.LASF179:
 2800 0870 4F535F46 		.ascii	"OS_FN_FILE_OPEN\000"
 2800      4E5F4649 
 2800      4C455F4F 
 2800      50454E00 
 2801              	.LASF189:
 2802 0880 4F535F46 		.ascii	"OS_FN_FILE_PUTC\000"
 2802      4E5F4649 
 2802      4C455F50 
 2802      55544300 
 2803              	.LASF155:
 2804 0890 4F535F46 		.ascii	"OS_FN_THREAD_PUSH\000"
 2804      4E5F5448 
 2804      52454144 
 2804      5F505553 
 2804      4800
 2805              	.LASF448:
 2806 08a2 4F535F46 		.ascii	"OS_FN_OFF\000"
 2806      4E5F4F46 
 2806      4600
 2807              	.LASF14:
 2808 08ac 705F666E 		.ascii	"p_fntbl\000"
 2808      74626C00 
 2809              	.LASF2:
 2810 08b4 756E7369 		.ascii	"unsigned char\000"
 2810      676E6564 
 2810      20636861 
 2810      7200
 2811              	.LASF32:
 2812 08c2 4F535F46 		.ascii	"OS_FN_KBD_OPEN\000"
 2812      4E5F4B42 
 2812      445F4F50 
 2812      454E00
 2813              	.LASF139:
 2814 08d1 4F535F46 		.ascii	"OS_FN_KEY_CUP_MAC\000"
 2814      4E5F4B45 
ARM GAS  C:\Users\AHMED~1.ELE\AppData\Local\Temp\ccUAgQOL.s 			page 60


 2814      595F4355 
 2814      505F4D41 
 2814      4300
 2815              	.LASF388:
 2816 08e3 4F535F46 		.ascii	"OS_FN_MIF_STATUS\000"
 2816      4E5F4D49 
 2816      465F5354 
 2816      41545553 
 2816      00
 2817              	.LASF523:
 2818 08f4 7372632F 		.ascii	"src/main.c\000"
 2818      6D61696E 
 2818      2E6300
 2819              	.LASF213:
 2820 08ff 4F535F46 		.ascii	"OS_FN_CONFIG_LENGTH\000"
 2820      4E5F434F 
 2820      4E464947 
 2820      5F4C454E 
 2820      47544800 
 2821              	.LASF18:
 2822 0913 625F7375 		.ascii	"b_subver\000"
 2822      62766572 
 2822      00
 2823              	.LASF276:
 2824 091c 4F535F46 		.ascii	"OS_FN_FL_CREAD_RAND\000"
 2824      4E5F464C 
 2824      5F435245 
 2824      41445F52 
 2824      414E4400 
 2825              	.LASF149:
 2826 0930 4F535F46 		.ascii	"OS_FN_THREAD_OPEN\000"
 2826      4E5F5448 
 2826      52454144 
 2826      5F4F5045 
 2826      4E00
 2827              	.LASF188:
 2828 0942 4F535F46 		.ascii	"OS_FN_FILE_WRITE\000"
 2828      4E5F4649 
 2828      4C455F57 
 2828      52495445 
 2828      00
 2829              	.LASF422:
 2830 0953 4F535F46 		.ascii	"OS_FN_NFC_CANCEL\000"
 2830      4E5F4E46 
 2830      435F4341 
 2830      4E43454C 
 2830      00
 2831              	.LASF482:
 2832 0964 4F535F46 		.ascii	"OS_FN_WIFI_GET_DEVICE_STATE\000"
 2832      4E5F5749 
 2832      46495F47 
 2832      45545F44 
 2832      45564943 
 2833              	.LASF508:
 2834 0980 61506172 		.ascii	"aParam1\000"
 2834      616D3100 
 2835              	.LASF74:
ARM GAS  C:\Users\AHMED~1.ELE\AppData\Local\Temp\ccUAgQOL.s 			page 61


 2836 0988 4F535F46 		.ascii	"OS_FN_COM1_SEND\000"
 2836      4E5F434F 
 2836      4D315F53 
 2836      454E4400 
 2837              	.LASF148:
 2838 0998 4F535F46 		.ascii	"OS_FN_PCI_DSS\000"
 2838      4E5F5043 
 2838      495F4453 
 2838      5300
 2839              	.LASF21:
 2840 09a6 645F6D61 		.ascii	"d_magic\000"
 2840      67696300 
 2841              	.LASF164:
 2842 09ae 4F535F46 		.ascii	"OS_FN_LED_STATUS\000"
 2842      4E5F4C45 
 2842      445F5354 
 2842      41545553 
 2842      00
 2843              	.LASF82:
 2844 09bf 4F535F46 		.ascii	"OS_FN_COM2_READ\000"
 2844      4E5F434F 
 2844      4D325F52 
 2844      45414400 
 2845              	.LASF43:
 2846 09cf 4F535F46 		.ascii	"OS_FN_BUZ_OPEN\000"
 2846      4E5F4255 
 2846      5A5F4F50 
 2846      454E00
 2847              	.LASF341:
 2848 09de 4F535F46 		.ascii	"OS_FN_CLICC_LED_CLOSE\000"
 2848      4E5F434C 
 2848      4943435F 
 2848      4C45445F 
 2848      434C4F53 
 2849              	.LASF397:
 2850 09f4 4F535F46 		.ascii	"OS_FN_MIF_DEC\000"
 2850      4E5F4D49 
 2850      465F4445 
 2850      4300
 2851              	.LASF239:
 2852 0a02 4F535F46 		.ascii	"OS_FN_LAN_OPEN\000"
 2852      4E5F4C41 
 2852      4E5F4F50 
 2852      454E00
 2853              	.LASF461:
 2854 0a11 4F535F46 		.ascii	"OS_FN_LPT_GET_COUNT\000"
 2854      4E5F4C50 
 2854      545F4745 
 2854      545F434F 
 2854      554E5400 
 2855              	.LASF297:
 2856 0a25 4F535F46 		.ascii	"OS_FN_BATT_LEVEL\000"
 2856      4E5F4241 
 2856      54545F4C 
 2856      4556454C 
 2856      00
 2857              	.LASF445:
ARM GAS  C:\Users\AHMED~1.ELE\AppData\Local\Temp\ccUAgQOL.s 			page 62


 2858 0a36 4F535F46 		.ascii	"OS_FN_HD_CONFIG\000"
 2858      4E5F4844 
 2858      5F434F4E 
 2858      46494700 
 2859              	.LASF205:
 2860 0a46 4F535F46 		.ascii	"OS_FN_FILE_FTRUNCATE\000"
 2860      4E5F4649 
 2860      4C455F46 
 2860      5452554E 
 2860      43415445 
 2861              	.LASF242:
 2862 0a5b 4F535F46 		.ascii	"OS_FN_LAN_TXRDY\000"
 2862      4E5F4C41 
 2862      4E5F5458 
 2862      52445900 
 2863              	.LASF150:
 2864 0a6b 4F535F46 		.ascii	"OS_FN_THREAD_CLOSE\000"
 2864      4E5F5448 
 2864      52454144 
 2864      5F434C4F 
 2864      534500
 2865              	.LASF299:
 2866 0a7e 4F535F46 		.ascii	"OS_FN_BATT_CONTROL\000"
 2866      4E5F4241 
 2866      54545F43 
 2866      4F4E5452 
 2866      4F4C00
 2867              	.LASF386:
 2868 0a91 4F535F46 		.ascii	"OS_FN_MIF_CARD_TYPE\000"
 2868      4E5F4D49 
 2868      465F4341 
 2868      52445F54 
 2868      59504500 
 2869              	.LASF233:
 2870 0aa5 4F535F46 		.ascii	"OS_FN_MMC_WRITE\000"
 2870      4E5F4D4D 
 2870      435F5752 
 2870      49544500 
 2871              	.LASF128:
 2872 0ab5 4F535F46 		.ascii	"OS_FN_SM3\000"
 2872      4E5F534D 
 2872      3300
 2873              	.LASF511:
 2874 0abf 7265745F 		.ascii	"ret_val\000"
 2874      76616C00 
 2875              	.LASF467:
 2876 0ac7 4F535F46 		.ascii	"OS_FN_ECC_KEYPAIR_GENERATE\000"
 2876      4E5F4543 
 2876      435F4B45 
 2876      59504149 
 2876      525F4745 
 2877              	.LASF289:
 2878 0ae2 4F535F46 		.ascii	"OS_FN_MCOM_PERMIT\000"
 2878      4E5F4D43 
 2878      4F4D5F50 
 2878      45524D49 
 2878      5400
ARM GAS  C:\Users\AHMED~1.ELE\AppData\Local\Temp\ccUAgQOL.s 			page 63


 2879              	.LASF402:
 2880 0af4 4F535F46 		.ascii	"OS_FN_MIF_SENDCMD\000"
 2880      4E5F4D49 
 2880      465F5345 
 2880      4E44434D 
 2880      4400
 2881              	.LASF35:
 2882 0b06 4F535F46 		.ascii	"OS_FN_KBD_SCODE\000"
 2882      4E5F4B42 
 2882      445F5343 
 2882      4F444500 
 2883              	.LASF477:
 2884 0b16 4F535F46 		.ascii	"OS_FN_WIFI_SOCKET_CONNECT\000"
 2884      4E5F5749 
 2884      46495F53 
 2884      4F434B45 
 2884      545F434F 
 2885              	.LASF469:
 2886 0b30 4F535F46 		.ascii	"OS_FN_ECC_SCALAR_MULTIPLY\000"
 2886      4E5F4543 
 2886      435F5343 
 2886      414C4152 
 2886      5F4D554C 
 2887              	.LASF375:
 2888 0b4a 4F535F46 		.ascii	"OS_FN_USBKBD_OPEN\000"
 2888      4E5F5553 
 2888      424B4244 
 2888      5F4F5045 
 2888      4E00
 2889              	.LASF392:
 2890 0b5c 4F535F46 		.ascii	"OS_FN_MIF_AUTH1\000"
 2890      4E5F4D49 
 2890      465F4155 
 2890      54483100 
 2891              	.LASF393:
 2892 0b6c 4F535F46 		.ascii	"OS_FN_MIF_AUTH2\000"
 2892      4E5F4D49 
 2892      465F4155 
 2892      54483200 
 2893              	.LASF98:
 2894 0b7c 4F535F46 		.ascii	"OS_FN_DES2\000"
 2894      4E5F4445 
 2894      533200
 2895              	.LASF118:
 2896 0b87 4F535F46 		.ascii	"OS_FN_MD4_PROCESS\000"
 2896      4E5F4D44 
 2896      345F5052 
 2896      4F434553 
 2896      5300
 2897              	.LASF13:
 2898 0b99 705F7369 		.ascii	"p_signature\000"
 2898      676E6174 
 2898      75726500 
 2899              	.LASF400:
 2900 0ba5 4F535F46 		.ascii	"OS_FN_MIF_DEC_TRANS\000"
 2900      4E5F4D49 
 2900      465F4445 
ARM GAS  C:\Users\AHMED~1.ELE\AppData\Local\Temp\ccUAgQOL.s 			page 64


 2900      435F5452 
 2900      414E5300 
 2901              	.LASF356:
 2902 0bb9 4F535F46 		.ascii	"OS_FN_DEVICE_REGISTER\000"
 2902      4E5F4445 
 2902      56494345 
 2902      5F524547 
 2902      49535445 
 2903              	.LASF73:
 2904 0bcf 4F535F46 		.ascii	"OS_FN_COM1_READ\000"
 2904      4E5F434F 
 2904      4D315F52 
 2904      45414400 
 2905              	.LASF236:
 2906 0bdf 4F535F46 		.ascii	"OS_FN_SLE_CLOSE\000"
 2906      4E5F534C 
 2906      455F434C 
 2906      4F534500 
 2907              	.LASF245:
 2908 0bef 4F535F46 		.ascii	"OS_FN_LAN_STATUS\000"
 2908      4E5F4C41 
 2908      4E5F5354 
 2908      41545553 
 2908      00
 2909              	.LASF173:
 2910 0c00 4F535F46 		.ascii	"OS_FN_APP_CLR_VIRGIN\000"
 2910      4E5F4150 
 2910      505F434C 
 2910      525F5649 
 2910      5247494E 
 2911              	.LASF17:
 2912 0c15 625F7665 		.ascii	"b_version\000"
 2912      7273696F 
 2912      6E00
 2913              	.LASF172:
 2914 0c1f 4F535F46 		.ascii	"OS_FN_APP_GET_VIRGIN\000"
 2914      4E5F4150 
 2914      505F4745 
 2914      545F5649 
 2914      5247494E 
 2915              	.LASF221:
 2916 0c34 4F535F46 		.ascii	"OS_FN_SAM_ON\000"
 2916      4E5F5341 
 2916      4D5F4F4E 
 2916      00
 2917              	.LASF296:
 2918 0c41 4F535F46 		.ascii	"OS_FN_MCOM_SEND\000"
 2918      4E5F4D43 
 2918      4F4D5F53 
 2918      454E4400 
 2919              	.LASF258:
 2920 0c51 4F535F46 		.ascii	"OS_FN_USBSER_CLOSE\000"
 2920      4E5F5553 
 2920      42534552 
 2920      5F434C4F 
 2920      534500
 2921              	.LASF431:
ARM GAS  C:\Users\AHMED~1.ELE\AppData\Local\Temp\ccUAgQOL.s 			page 65


 2922 0c64 4F535F46 		.ascii	"OS_FN_GPS_GET_INFO\000"
 2922      4E5F4750 
 2922      535F4745 
 2922      545F494E 
 2922      464F00
 2923              	.LASF282:
 2924 0c77 4F535F46 		.ascii	"OS_FN_MDM_DIAL\000"
 2924      4E5F4D44 
 2924      4D5F4449 
 2924      414C00
 2925              	.LASF152:
 2926 0c86 4F535F46 		.ascii	"OS_FN_THREAD_DELETE\000"
 2926      4E5F5448 
 2926      52454144 
 2926      5F44454C 
 2926      45544500 
 2927              	.LASF162:
 2928 0c9a 4F535F46 		.ascii	"OS_FN_LED_OPEN\000"
 2928      4E5F4C45 
 2928      445F4F50 
 2928      454E00
 2929              	.LASF47:
 2930 0ca9 4F535F46 		.ascii	"OS_FN_RTC_GET\000"
 2930      4E5F5254 
 2930      435F4745 
 2930      5400
 2931              	.LASF414:
 2932 0cb7 4F535F46 		.ascii	"OS_FN_WIFI_CONTROL\000"
 2932      4E5F5749 
 2932      46495F43 
 2932      4F4E5452 
 2932      4F4C00
 2933              	.LASF166:
 2934 0cca 4F535F46 		.ascii	"OS_FN_LED_CLEAR\000"
 2934      4E5F4C45 
 2934      445F434C 
 2934      45415200 
 2935              	.LASF458:
 2936 0cda 4F535F46 		.ascii	"OS_FN_DTIMER_LATCH_STOP\000"
 2936      4E5F4454 
 2936      494D4552 
 2936      5F4C4154 
 2936      43485F53 
 2937              	.LASF367:
 2938 0cf2 4F535F46 		.ascii	"OS_FN_BUS_START\000"
 2938      4E5F4255 
 2938      535F5354 
 2938      41525400 
 2939              	.LASF112:
 2940 0d02 4F535F46 		.ascii	"OS_FN_MD5_FINISH\000"
 2940      4E5F4D44 
 2940      355F4649 
 2940      4E495348 
 2940      00
 2941              	.LASF503:
 2942 0d13 55534246 		.ascii	"USBFPRT_GENERAL_INFO_MODEL\000"
 2942      5052545F 
ARM GAS  C:\Users\AHMED~1.ELE\AppData\Local\Temp\ccUAgQOL.s 			page 66


 2942      47454E45 
 2942      52414C5F 
 2942      494E464F 
 2943              	.LASF29:
 2944 0d2e 4F535F46 		.ascii	"OS_FN_GET_VERSION\000"
 2944      4E5F4745 
 2944      545F5645 
 2944      5253494F 
 2944      4E00
 2945              	.LASF429:
 2946 0d40 4F535F46 		.ascii	"OS_FN_GPS_ON\000"
 2946      4E5F4750 
 2946      535F4F4E 
 2946      00
 2947              	.LASF330:
 2948 0d4d 4F535F46 		.ascii	"OS_FN_CODEC_PLAY_RAM\000"
 2948      4E5F434F 
 2948      4445435F 
 2948      504C4159 
 2948      5F52414D 
 2949              	.LASF294:
 2950 0d62 4F535F46 		.ascii	"OS_FN_MCOM_STATUS\000"
 2950      4E5F4D43 
 2950      4F4D5F53 
 2950      54415455 
 2950      5300
 2951              	.LASF66:
 2952 0d74 4F535F46 		.ascii	"OS_FN_DISP_ICON_TEXTC\000"
 2952      4E5F4449 
 2952      53505F49 
 2952      434F4E5F 
 2952      54455854 
 2953              	.LASF442:
 2954 0d8a 4F535F46 		.ascii	"OS_FN_POWER_SLEEP\000"
 2954      4E5F504F 
 2954      5745525F 
 2954      534C4545 
 2954      5000
 2955              	.LASF180:
 2956 0d9c 4F535F46 		.ascii	"OS_FN_FILE_CREATE\000"
 2956      4E5F4649 
 2956      4C455F43 
 2956      52454154 
 2956      4500
 2957              	.LASF252:
 2958 0dae 4F535F46 		.ascii	"OS_FN_LPT_OPEN\000"
 2958      4E5F4C50 
 2958      545F4F50 
 2958      454E00
 2959              	.LASF254:
 2960 0dbd 4F535F46 		.ascii	"OS_FN_LPT_PUTC\000"
 2960      4E5F4C50 
 2960      545F5055 
 2960      544300
 2961              	.LASF244:
 2962 0dcc 4F535F46 		.ascii	"OS_FN_LAN_SEND\000"
 2962      4E5F4C41 
ARM GAS  C:\Users\AHMED~1.ELE\AppData\Local\Temp\ccUAgQOL.s 			page 67


 2962      4E5F5345 
 2962      4E4400
 2963              	.LASF387:
 2964 0ddb 4F535F46 		.ascii	"OS_FN_MIF_TAG\000"
 2964      4E5F4D49 
 2964      465F5441 
 2964      4700
 2965              	.LASF464:
 2966 0de9 4F535F46 		.ascii	"OS_FN_FPRT_SCAN_IMG\000"
 2966      4E5F4650 
 2966      52545F53 
 2966      43414E5F 
 2966      494D4700 
 2967              	.LASF322:
 2968 0dfd 4F535F46 		.ascii	"OS_FN_TPAD_DEL_OBJ\000"
 2968      4E5F5450 
 2968      41445F44 
 2968      454C5F4F 
 2968      424A00
 2969              	.LASF257:
 2970 0e10 4F535F46 		.ascii	"OS_FN_USBSER_OPEN\000"
 2970      4E5F5553 
 2970      42534552 
 2970      5F4F5045 
 2970      4E00
 2971              	.LASF446:
 2972 0e22 4F535F46 		.ascii	"OS_FN_RDLL_APP\000"
 2972      4E5F5244 
 2972      4C4C5F41 
 2972      505000
 2973              	.LASF187:
 2974 0e31 4F535F46 		.ascii	"OS_FN_FILE_READ\000"
 2974      4E5F4649 
 2974      4C455F52 
 2974      45414400 
 2975              	.LASF156:
 2976 0e41 4F535F46 		.ascii	"OS_FN_THREAD_POP\000"
 2976      4E5F5448 
 2976      52454144 
 2976      5F504F50 
 2976      00
 2977              	.LASF336:
 2978 0e52 4F535F46 		.ascii	"OS_FN_CLICC_CLOSE\000"
 2978      4E5F434C 
 2978      4943435F 
 2978      434C4F53 
 2978      4500
 2979              	.LASF349:
 2980 0e64 4F535F46 		.ascii	"OS_FN_USBHOST_STATUS\000"
 2980      4E5F5553 
 2980      42484F53 
 2980      545F5354 
 2980      41545553 
 2981              	.LASF527:
 2982 0e79 56697267 		.ascii	"VirginInit\000"
 2982      696E496E 
 2982      697400
ARM GAS  C:\Users\AHMED~1.ELE\AppData\Local\Temp\ccUAgQOL.s 			page 68


 2983              	.LASF493:
 2984 0e84 4F535F46 		.ascii	"OS_FN_DISP_PUTS_ANYWHERE\000"
 2984      4E5F4449 
 2984      53505F50 
 2984      5554535F 
 2984      414E5957 
 2985              	.LASF525:
 2986 0e9d 73797374 		.ascii	"system_call_list\000"
 2986      656D5F63 
 2986      616C6C5F 
 2986      6C697374 
 2986      00
 2987              	.LASF238:
 2988 0eae 4F535F46 		.ascii	"OS_FN_SLE_IO\000"
 2988      4E5F534C 
 2988      455F494F 
 2988      00
 2989              	.LASF284:
 2990 0ebb 4F535F46 		.ascii	"OS_FN_MDM_CID\000"
 2990      4E5F4D44 
 2990      4D5F4349 
 2990      4400
 2991              	.LASF290:
 2992 0ec9 4F535F46 		.ascii	"OS_FN_MCOM_RXRDY\000"
 2992      4E5F4D43 
 2992      4F4D5F52 
 2992      58524459 
 2992      00
 2993              	.LASF253:
 2994 0eda 4F535F46 		.ascii	"OS_FN_LPT_CLOSE\000"
 2994      4E5F4C50 
 2994      545F434C 
 2994      4F534500 
 2995              	.LASF135:
 2996 0eea 4F535F46 		.ascii	"OS_FN_KEY_RSA\000"
 2996      4E5F4B45 
 2996      595F5253 
 2996      4100
 2997              	.LASF218:
 2998 0ef8 4F535F46 		.ascii	"OS_FN_SAM_CLOSE\000"
 2998      4E5F5341 
 2998      4D5F434C 
 2998      4F534500 
 2999              	.LASF99:
 3000 0f08 4F535F46 		.ascii	"OS_FN_COM_DESKEY\000"
 3000      4E5F434F 
 3000      4D5F4445 
 3000      534B4559 
 3000      00
 3001              	.LASF306:
 3002 0f19 4F535F46 		.ascii	"OS_FN_GPRS_AT_CMD\000"
 3002      4E5F4750 
 3002      52535F41 
 3002      545F434D 
 3002      4400
 3003              	.LASF494:
 3004 0f2b 4F535F46 		.ascii	"OS_FN_BATT_CHARGE_NOW\000"
ARM GAS  C:\Users\AHMED~1.ELE\AppData\Local\Temp\ccUAgQOL.s 			page 69


 3004      4E5F4241 
 3004      54545F43 
 3004      48415247 
 3004      455F4E4F 
 3005              	.LASF210:
 3006 0f41 4F535F46 		.ascii	"OS_FN_FILE_GET_LONGNAME\000"
 3006      4E5F4649 
 3006      4C455F47 
 3006      45545F4C 
 3006      4F4E474E 
 3007              	.LASF385:
 3008 0f59 4F535F46 		.ascii	"OS_FN_MIF_HALT\000"
 3008      4E5F4D49 
 3008      465F4841 
 3008      4C5400
 3009              	.LASF278:
 3010 0f68 4F535F46 		.ascii	"OS_FN_FL_CREAD_END\000"
 3010      4E5F464C 
 3010      5F435245 
 3010      41445F45 
 3010      4E4400
 3011              	.LASF251:
 3012 0f7b 4F535F46 		.ascii	"OS_FN_MSR_STATUS\000"
 3012      4E5F4D53 
 3012      525F5354 
 3012      41545553 
 3012      00
 3013              	.LASF406:
 3014 0f8c 4F535F46 		.ascii	"OS_FN_BARCODE_OPEN\000"
 3014      4E5F4241 
 3014      52434F44 
 3014      455F4F50 
 3014      454E00
 3015              	.LASF20:
 3016 0f9f 625F6170 		.ascii	"b_appid\000"
 3016      70696400 
 3017              	.LASF25:
 3018 0fa7 735F6167 		.ascii	"s_agent_id\000"
 3018      656E745F 
 3018      696400
 3019              	.LASF484:
 3020 0fb2 4F535F46 		.ascii	"OS_FN_WIFI_SOCKET_LISTEN\000"
 3020      4E5F5749 
 3020      46495F53 
 3020      4F434B45 
 3020      545F4C49 
 3021              	.LASF260:
 3022 0fcb 4F535F46 		.ascii	"OS_FN_USBSER_WRITE\000"
 3022      4E5F5553 
 3022      42534552 
 3022      5F575249 
 3022      544500
 3023              	.LASF384:
 3024 0fde 4F535F46 		.ascii	"OS_FN_MIF_CANCEL\000"
 3024      4E5F4D49 
 3024      465F4341 
 3024      4E43454C 
ARM GAS  C:\Users\AHMED~1.ELE\AppData\Local\Temp\ccUAgQOL.s 			page 70


 3024      00
 3025              	.LASF11:
 3026 0fef 6C6F6E67 		.ascii	"long unsigned int\000"
 3026      20756E73 
 3026      69676E65 
 3026      6420696E 
 3026      7400
 3027              	.LASF61:
 3028 1001 4F535F46 		.ascii	"OS_FN_DISP_BACKC\000"
 3028      4E5F4449 
 3028      53505F42 
 3028      41434B43 
 3028      00
 3029              	.LASF57:
 3030 1012 4F535F46 		.ascii	"OS_FN_DISP_GETP\000"
 3030      4E5F4449 
 3030      53505F47 
 3030      45545000 
 3031              	.LASF437:
 3032 1022 4F535F46 		.ascii	"OS_FN_BREG_READ\000"
 3032      4E5F4252 
 3032      45475F52 
 3032      45414400 
 3033              	.LASF315:
 3034 1032 4F535F46 		.ascii	"OS_FN_GPRS_SMS_ACK\000"
 3034      4E5F4750 
 3034      52535F53 
 3034      4D535F41 
 3034      434B00
 3035              	.LASF30:
 3036 1045 4F535F46 		.ascii	"OS_FN_RAND\000"
 3036      4E5F5241 
 3036      4E4400
 3037              	.LASF247:
 3038 1050 4F535F46 		.ascii	"OS_FN_MSR_CLOSE\000"
 3038      4E5F4D53 
 3038      525F434C 
 3038      4F534500 
 3039              	.LASF416:
 3040 1060 4F535F46 		.ascii	"OS_FN_WIFI_RECV_RESPONSE\000"
 3040      4E5F5749 
 3040      46495F52 
 3040      4543565F 
 3040      52455350 
 3041              	.LASF243:
 3042 1079 4F535F46 		.ascii	"OS_FN_LAN_READ\000"
 3042      4E5F4C41 
 3042      4E5F5245 
 3042      414400
 3043              	.LASF23:
 3044 1088 645F6373 		.ascii	"d_cs32\000"
 3044      333200
 3045              	.LASF522:
 3046 108f 474E5520 		.ascii	"GNU C 4.9.3 20141119 (release) [ARM/embedded-4_9-br"
 3046      4320342E 
 3046      392E3320 
 3046      32303134 
ARM GAS  C:\Users\AHMED~1.ELE\AppData\Local\Temp\ccUAgQOL.s 			page 71


 3046      31313139 
 3047 10c2 616E6368 		.ascii	"anch revision 218278] -mthumb -mcpu=cortex-a5 -mthu"
 3047      20726576 
 3047      6973696F 
 3047      6E203231 
 3047      38323738 
 3048 10f5 6D622D69 		.ascii	"mb-interwork -mstructure-size-boundary=32 -mno-unal"
 3048      6E746572 
 3048      776F726B 
 3048      202D6D73 
 3048      74727563 
 3049 1128 69676E65 		.ascii	"igned-access -g -Os -ffunction-sections -fsigned-ch"
 3049      642D6163 
 3049      63657373 
 3049      202D6720 
 3049      2D4F7320 
 3050 115b 617200   		.ascii	"ar\000"
 3051              	.LASF475:
 3052 115e 4F535F46 		.ascii	"OS_FN_GCM_AES_CLOSE\000"
 3052      4E5F4743 
 3052      4D5F4145 
 3052      535F434C 
 3052      4F534500 
 3053              	.LASF280:
 3054 1172 4F535F46 		.ascii	"OS_FN_MDM_OPEN\000"
 3054      4E5F4D44 
 3054      4D5F4F50 
 3054      454E00
 3055              	.LASF286:
 3056 1181 4F535F46 		.ascii	"OS_FN_MDM_LAST_CONN_STAT\000"
 3056      4E5F4D44 
 3056      4D5F4C41 
 3056      53545F43 
 3056      4F4E4E5F 
 3057              	.LASF441:
 3058 119a 4F535F46 		.ascii	"OS_FN_SLEEP\000"
 3058      4E5F534C 
 3058      45455000 
 3059              	.LASF255:
 3060 11a6 4F535F46 		.ascii	"OS_FN_LPT_PUTDW\000"
 3060      4E5F4C50 
 3060      545F5055 
 3060      54445700 
 3061              	.LASF37:
 3062 11b6 4F535F46 		.ascii	"OS_FN_KBD_LOCK\000"
 3062      4E5F4B42 
 3062      445F4C4F 
 3062      434B00
 3063              	.LASF489:
 3064 11c5 4F535F46 		.ascii	"OS_FN_GPRS_IS_HL6RD\000"
 3064      4E5F4750 
 3064      52535F49 
 3064      535F484C 
 3064      36524400 
 3065              	.LASF165:
 3066 11d9 4F535F46 		.ascii	"OS_FN_LED_SET\000"
 3066      4E5F4C45 
ARM GAS  C:\Users\AHMED~1.ELE\AppData\Local\Temp\ccUAgQOL.s 			page 72


 3066      445F5345 
 3066      5400
 3067              	.LASF333:
 3068 11e7 4F535F46 		.ascii	"OS_FN_CLICC_OPEN\000"
 3068      4E5F434C 
 3068      4943435F 
 3068      4F50454E 
 3068      00
 3069              	.LASF468:
 3070 11f8 4F535F46 		.ascii	"OS_FN_ECC_PUBKEY_VERIFY\000"
 3070      4E5F4543 
 3070      435F5055 
 3070      424B4559 
 3070      5F564552 
 3071              	.LASF377:
 3072 1210 4F535F46 		.ascii	"OS_FN_USBKBD_INKEY\000"
 3072      4E5F5553 
 3072      424B4244 
 3072      5F494E4B 
 3072      455900
 3073              	.LASF81:
 3074 1223 4F535F46 		.ascii	"OS_FN_COM2_TXRDY\000"
 3074      4E5F434F 
 3074      4D325F54 
 3074      58524459 
 3074      00
 3075              	.LASF153:
 3076 1234 4F535F46 		.ascii	"OS_FN_THREAD_LOCK\000"
 3076      4E5F5448 
 3076      52454144 
 3076      5F4C4F43 
 3076      4B00
 3077              	.LASF368:
 3078 1246 4F535F46 		.ascii	"OS_FN_BUS_STOP\000"
 3078      4E5F4255 
 3078      535F5354 
 3078      4F5000
 3079              	.LASF512:
 3080 1255 73617070 		.ascii	"sappl_info\000"
 3080      6C5F696E 
 3080      666F00
 3081              	.LASF314:
 3082 1260 4F535F46 		.ascii	"OS_FN_GPRS_SMS_DECODE\000"
 3082      4E5F4750 
 3082      52535F53 
 3082      4D535F44 
 3082      45434F44 
 3083              	.LASF292:
 3084 1276 4F535F46 		.ascii	"OS_FN_MCOM_SREAD\000"
 3084      4E5F4D43 
 3084      4F4D5F53 
 3084      52454144 
 3084      00
 3085              	.LASF141:
 3086 1287 4F535F46 		.ascii	"OS_FN_KEY_HASH\000"
 3086      4E5F4B45 
 3086      595F4841 
ARM GAS  C:\Users\AHMED~1.ELE\AppData\Local\Temp\ccUAgQOL.s 			page 73


 3086      534800
 3087              	.LASF203:
 3088 1296 4F535F46 		.ascii	"OS_FN_FILE_FREESPACE\000"
 3088      4E5F4649 
 3088      4C455F46 
 3088      52454553 
 3088      50414345 
 3089              	.LASF223:
 3090 12ab 4F535F46 		.ascii	"OS_FN_SAM_T1\000"
 3090      4E5F5341 
 3090      4D5F5431 
 3090      00
 3091              	.LASF207:
 3092 12b8 4F535F46 		.ascii	"OS_FN_FILE_READDIR\000"
 3092      4E5F4649 
 3092      4C455F52 
 3092      45414444 
 3092      495200
 3093              	.LASF45:
 3094 12cb 4F535F46 		.ascii	"OS_FN_BUZ_BEEP\000"
 3094      4E5F4255 
 3094      5A5F4245 
 3094      455000
 3095              	.LASF453:
 3096 12da 4F535F46 		.ascii	"OS_FN_APPCALL_RETURN\000"
 3096      4E5F4150 
 3096      5043414C 
 3096      4C5F5245 
 3096      5455524E 
 3097              	.LASF133:
 3098 12ef 4F535F46 		.ascii	"OS_FN_KEY_SAVE_TMK\000"
 3098      4E5F4B45 
 3098      595F5341 
 3098      56455F54 
 3098      4D4B00
 3099              	.LASF31:
 3100 1302 4F535F46 		.ascii	"OS_FN_RAND_UPDATE\000"
 3100      4E5F5241 
 3100      4E445F55 
 3100      50444154 
 3100      4500
 3101              	.LASF418:
 3102 1314 4F535F46 		.ascii	"OS_FN_WIFI_PROFILES_READ\000"
 3102      4E5F5749 
 3102      46495F50 
 3102      524F4649 
 3102      4C45535F 
 3103              	.LASF181:
 3104 132d 4F535F46 		.ascii	"OS_FN_FILE_CLOSE\000"
 3104      4E5F4649 
 3104      4C455F43 
 3104      4C4F5345 
 3104      00
 3105              	.LASF177:
 3106 133e 4F535F46 		.ascii	"OS_FN_FREE\000"
 3106      4E5F4652 
 3106      454500
ARM GAS  C:\Users\AHMED~1.ELE\AppData\Local\Temp\ccUAgQOL.s 			page 74


 3107              	.LASF33:
 3108 1349 4F535F46 		.ascii	"OS_FN_KBD_CLOSE\000"
 3108      4E5F4B42 
 3108      445F434C 
 3108      4F534500 
 3109              	.LASF12:
 3110 1359 6C6F6E67 		.ascii	"long long int\000"
 3110      206C6F6E 
 3110      6720696E 
 3110      7400
 3111              	.LASF50:
 3112 1367 4F535F46 		.ascii	"OS_FN_DISP_CLOSE\000"
 3112      4E5F4449 
 3112      53505F43 
 3112      4C4F5345 
 3112      00
 3113              	.LASF390:
 3114 1378 4F535F46 		.ascii	"OS_FN_MIF_SELECT\000"
 3114      4E5F4D49 
 3114      465F5345 
 3114      4C454354 
 3114      00
 3115              	.LASF22:
 3116 1389 545F4150 		.ascii	"T_APP_HDR\000"
 3116      505F4844 
 3116      5200
 3117              	.LASF84:
 3118 1393 4F535F46 		.ascii	"OS_FN_COM2_STATUS\000"
 3118      4E5F434F 
 3118      4D325F53 
 3118      54415455 
 3118      5300
 3119              	.LASF101:
 3120 13a5 4F535F46 		.ascii	"OS_FN_COM_DES2\000"
 3120      4E5F434F 
 3120      4D5F4445 
 3120      533200
 3121              	.LASF310:
 3122 13b4 4F535F46 		.ascii	"OS_FN_GPRS_RESET\000"
 3122      4E5F4750 
 3122      52535F52 
 3122      45534554 
 3122      00
 3123              	.LASF407:
 3124 13c5 4F535F46 		.ascii	"OS_FN_BARCODE_CLOSE\000"
 3124      4E5F4241 
 3124      52434F44 
 3124      455F434C 
 3124      4F534500 
 3125              	.LASF268:
 3126 13d9 4F535F46 		.ascii	"OS_FN_FL_PGM_START\000"
 3126      4E5F464C 
 3126      5F50474D 
 3126      5F535441 
 3126      525400
 3127              	.LASF272:
 3128 13ec 4F535F46 		.ascii	"OS_FN_FL_ERASE_END\000"
ARM GAS  C:\Users\AHMED~1.ELE\AppData\Local\Temp\ccUAgQOL.s 			page 75


 3128      4E5F464C 
 3128      5F455241 
 3128      53455F45 
 3128      4E4400
 3129              	.LASF308:
 3130 13ff 4F535F46 		.ascii	"OS_FN_GPRS_SEND\000"
 3130      4E5F4750 
 3130      52535F53 
 3130      454E4400 
 3131              	.LASF256:
 3132 140f 4F535F46 		.ascii	"OS_FN_LPT_STATUS\000"
 3132      4E5F4C50 
 3132      545F5354 
 3132      41545553 
 3132      00
 3133              	.LASF64:
 3134 1420 4F535F46 		.ascii	"OS_FN_DISP_ICON_COLOR\000"
 3134      4E5F4449 
 3134      53505F49 
 3134      434F4E5F 
 3134      434F4C4F 
 3135              	.LASF170:
 3136 1436 4F535F46 		.ascii	"OS_FN_APP_SEARCH_ID\000"
 3136      4E5F4150 
 3136      505F5345 
 3136      41524348 
 3136      5F494400 
 3137              	.LASF362:
 3138 144a 4F535F46 		.ascii	"OS_FN_DEVICE_OPEN\000"
 3138      4E5F4445 
 3138      56494345 
 3138      5F4F5045 
 3138      4E00
 3139              	.LASF68:
 3140 145c 4F535F46 		.ascii	"OS_FN_DISP_OVERLAY\000"
 3140      4E5F4449 
 3140      53505F4F 
 3140      5645524C 
 3140      415900
 3141              	.LASF326:
 3142 146f 4F535F46 		.ascii	"OS_FN_TPAD_RAW_POS\000"
 3142      4E5F5450 
 3142      41445F52 
 3142      41575F50 
 3142      4F5300
 3143              	.LASF226:
 3144 1482 4F535F46 		.ascii	"OS_FN_MMC_CLOSE\000"
 3144      4E5F4D4D 
 3144      435F434C 
 3144      4F534500 
 3145              	.LASF372:
 3146 1492 4F535F46 		.ascii	"OS_FN_NETDEV_GETLINK\000"
 3146      4E5F4E45 
 3146      54444556 
 3146      5F474554 
 3146      4C494E4B 
 3147              	.LASF96:
ARM GAS  C:\Users\AHMED~1.ELE\AppData\Local\Temp\ccUAgQOL.s 			page 76


 3148 14a7 4F535F46 		.ascii	"OS_FN_DESKEY\000"
 3148      4E5F4445 
 3148      534B4559 
 3148      00
 3149              	.LASF71:
 3150 14b4 4F535F46 		.ascii	"OS_FN_COM1_RXRDY\000"
 3150      4E5F434F 
 3150      4D315F52 
 3150      58524459 
 3150      00
 3151              	.LASF259:
 3152 14c5 4F535F46 		.ascii	"OS_FN_USBSER_READ\000"
 3152      4E5F5553 
 3152      42534552 
 3152      5F524541 
 3152      4400
 3153              	.LASF111:
 3154 14d7 4F535F46 		.ascii	"OS_FN_MD5_PROCESS\000"
 3154      4E5F4D44 
 3154      355F5052 
 3154      4F434553 
 3154      5300
 3155              	.LASF521:
 3156 14e9 476C6F62 		.ascii	"GlobalsCleanUp\000"
 3156      616C7343 
 3156      6C65616E 
 3156      557000
 3157              	.LASF513:
 3158 14f8 4B536F66 		.ascii	"KSoftName\000"
 3158      744E616D 
 3158      6500
 3159              	.LASF72:
 3160 1502 4F535F46 		.ascii	"OS_FN_COM1_TXRDY\000"
 3160      4E5F434F 
 3160      4D315F54 
 3160      58524459 
 3160      00
 3161              	.LASF183:
 3162 1513 4F535F46 		.ascii	"OS_FN_FILE_RENAME\000"
 3162      4E5F4649 
 3162      4C455F52 
 3162      454E414D 
 3162      4500
 3163              	.LASF463:
 3164 1525 4F535F46 		.ascii	"OS_FN_FPRT_CLOSE\000"
 3164      4E5F4650 
 3164      52545F43 
 3164      4C4F5345 
 3164      00
 3165              	.LASF138:
 3166 1536 4F535F46 		.ascii	"OS_FN_KEY_DUKPT_MAC_CAL\000"
 3166      4E5F4B45 
 3166      595F4455 
 3166      4B50545F 
 3166      4D41435F 
 3167              	.LASF365:
 3168 154e 4F535F46 		.ascii	"OS_FN_INTERRUPT_REGISTER\000"
ARM GAS  C:\Users\AHMED~1.ELE\AppData\Local\Temp\ccUAgQOL.s 			page 77


 3168      4E5F494E 
 3168      54455252 
 3168      5550545F 
 3168      52454749 
 3169              	.LASF224:
 3170 1567 4F535F46 		.ascii	"OS_FN_SAM_CHANGE\000"
 3170      4E5F5341 
 3170      4D5F4348 
 3170      414E4745 
 3170      00
 3171              	.LASF197:
 3172 1578 4F535F46 		.ascii	"OS_FN_FILE_ACTIVATE\000"
 3172      4E5F4649 
 3172      4C455F41 
 3172      43544956 
 3172      41544500 
 3173              	.LASF58:
 3174 158c 4F535F46 		.ascii	"OS_FN_DISP_LENGTH\000"
 3174      4E5F4449 
 3174      53505F4C 
 3174      454E4754 
 3174      4800
 3175              	.LASF465:
 3176 159e 4F535F46 		.ascii	"OS_FN_FPRT_INFO_SET\000"
 3176      4E5F4650 
 3176      52545F49 
 3176      4E464F5F 
 3176      53455400 
 3177              	.LASF5:
 3178 15b2 756E7369 		.ascii	"unsigned int\000"
 3178      676E6564 
 3178      20696E74 
 3178      00
 3179              	.LASF518:
 3180 15bf 7379735F 		.ascii	"sys_func0\000"
 3180      66756E63 
 3180      3000
 3181              	.LASF517:
 3182 15c9 7379735F 		.ascii	"sys_func1\000"
 3182      66756E63 
 3182      3100
 3183              	.LASF516:
 3184 15d3 7379735F 		.ascii	"sys_func2\000"
 3184      66756E63 
 3184      3200
 3185              	.LASF459:
 3186 15dd 4F535F46 		.ascii	"OS_FN_DTIMER_LATCH_TIME\000"
 3186      4E5F4454 
 3186      494D4552 
 3186      5F4C4154 
 3186      43485F54 
 3187              	.LASF337:
 3188 15f5 4F535F46 		.ascii	"OS_FN_CLICC_SENDCOMMAND\000"
 3188      4E5F434C 
 3188      4943435F 
 3188      53454E44 
 3188      434F4D4D 
ARM GAS  C:\Users\AHMED~1.ELE\AppData\Local\Temp\ccUAgQOL.s 			page 78


 3189              	.LASF450:
 3190 160d 4F535F46 		.ascii	"OS_FN_DLL_REQ\000"
 3190      4E5F444C 
 3190      4C5F5245 
 3190      5100
 3191              	.LASF190:
 3192 161b 4F535F46 		.ascii	"OS_FN_FILE_GETC\000"
 3192      4E5F4649 
 3192      4C455F47 
 3192      45544300 
 3193              	.LASF410:
 3194 162b 4F535F46 		.ascii	"OS_FN_BARCODE_READ\000"
 3194      4E5F4241 
 3194      52434F44 
 3194      455F5245 
 3194      414400
 3195              	.LASF366:
 3196 163e 4F535F46 		.ascii	"OS_FN_INTERRUPT_UNREGISTER\000"
 3196      4E5F494E 
 3196      54455252 
 3196      5550545F 
 3196      554E5245 
 3197              	.LASF487:
 3198 1659 4F535F46 		.ascii	"OS_FN_IMG_SENSOR_GET_FRAME_COMPLETE\000"
 3198      4E5F494D 
 3198      475F5345 
 3198      4E534F52 
 3198      5F474554 
 3199              	.LASF311:
 3200 167d 4F535F46 		.ascii	"OS_FN_GPRS_CONTROL\000"
 3200      4E5F4750 
 3200      52535F43 
 3200      4F4E5452 
 3200      4F4C00
 3201              	.LASF432:
 3202 1690 4F535F46 		.ascii	"OS_FN_GPRS_GET_GPS_INFO\000"
 3202      4E5F4750 
 3202      52535F47 
 3202      45545F47 
 3202      50535F49 
 3203              	.LASF140:
 3204 16a8 4F535F46 		.ascii	"OS_FN_KEY_CBC_MAC\000"
 3204      4E5F4B45 
 3204      595F4342 
 3204      435F4D41 
 3204      4300
 3205              	.LASF106:
 3206 16ba 4F535F46 		.ascii	"OS_FN_AES_SETUP_KEY\000"
 3206      4E5F4145 
 3206      535F5345 
 3206      5455505F 
 3206      4B455900 
 3207              	.LASF363:
 3208 16ce 4F535F46 		.ascii	"OS_FN_DEVICE_MOUNT\000"
 3208      4E5F4445 
 3208      56494345 
 3208      5F4D4F55 
ARM GAS  C:\Users\AHMED~1.ELE\AppData\Local\Temp\ccUAgQOL.s 			page 79


 3208      4E5400
 3209              	.LASF102:
 3210 16e1 4F535F46 		.ascii	"OS_FN_NEW_DES\000"
 3210      4E5F4E45 
 3210      575F4445 
 3210      5300
 3211              	.LASF196:
 3212 16ef 4F535F46 		.ascii	"OS_FN_FILE_DEACTIVATE\000"
 3212      4E5F4649 
 3212      4C455F44 
 3212      45414354 
 3212      49564154 
 3213              	.LASF379:
 3214 1705 4F535F46 		.ascii	"OS_FN_TAMPER_ON\000"
 3214      4E5F5441 
 3214      4D504552 
 3214      5F4F4E00 
 3215              	.LASF270:
 3216 1715 4F535F46 		.ascii	"OS_FN_FL_PGM_END\000"
 3216      4E5F464C 
 3216      5F50474D 
 3216      5F454E44 
 3216      00
 3217              	.LASF277:
 3218 1726 4F535F46 		.ascii	"OS_FN_FL_CREAD\000"
 3218      4E5F464C 
 3218      5F435245 
 3218      414400
 3219              	.LASF428:
 3220 1735 4F535F46 		.ascii	"OS_FN_NFC_IC_REG_DIRECT_READ\000"
 3220      4E5F4E46 
 3220      435F4943 
 3220      5F524547 
 3220      5F444952 
 3221              	.LASF401:
 3222 1752 4F535F46 		.ascii	"OS_FN_MIF_SNO\000"
 3222      4E5F4D49 
 3222      465F534E 
 3222      4F00
 3223              	.LASF143:
 3224 1760 4F535F46 		.ascii	"OS_FN_KEY_SAVE_TMK_NC\000"
 3224      4E5F4B45 
 3224      595F5341 
 3224      56455F54 
 3224      4D4B5F4E 
 3225              	.LASF264:
 3226 1776 4F535F46 		.ascii	"OS_FN_FL_STATUS\000"
 3226      4E5F464C 
 3226      5F535441 
 3226      54555300 
 3227              	.LASF319:
 3228 1786 4F535F46 		.ascii	"OS_FN_TPAD_OPEN\000"
 3228      4E5F5450 
 3228      41445F4F 
 3228      50454E00 
 3229              	.LASF125:
 3230 1796 4F535F46 		.ascii	"OS_FN_SM2_DECRYPT\000"
ARM GAS  C:\Users\AHMED~1.ELE\AppData\Local\Temp\ccUAgQOL.s 			page 80


 3230      4E5F534D 
 3230      325F4445 
 3230      43525950 
 3230      5400
 3231              	.LASF509:
 3232 17a8 61506172 		.ascii	"aParam2\000"
 3232      616D3200 
 3233              	.LASF510:
 3234 17b0 61506172 		.ascii	"aParam3\000"
 3234      616D3300 
 3235              	.LASF237:
 3236 17b8 4F535F46 		.ascii	"OS_FN_SLE_HIST\000"
 3236      4E5F534C 
 3236      455F4849 
 3236      535400
 3237              	.LASF438:
 3238 17c7 4F535F46 		.ascii	"OS_FN_BREG_WRITE\000"
 3238      4E5F4252 
 3238      45475F57 
 3238      52495445 
 3238      00
 3239              	.LASF130:
 3240 17d8 4F535F46 		.ascii	"OS_FN_SM4_ENCRYPT\000"
 3240      4E5F534D 
 3240      345F454E 
 3240      43525950 
 3240      5400
 3241              	.LASF229:
 3242 17ea 4F535F46 		.ascii	"OS_FN_MMC_PSTATUS\000"
 3242      4E5F4D4D 
 3242      435F5053 
 3242      54415455 
 3242      5300
 3243              	.LASF443:
 3244 17fc 4F535F46 		.ascii	"OS_FN_RESET\000"
 3244      4E5F5245 
 3244      53455400 
 3245              	.LASF373:
 3246 1808 4F535F46 		.ascii	"OS_FN_NETDEV_EVENT\000"
 3246      4E5F4E45 
 3246      54444556 
 3246      5F455645 
 3246      4E5400
 3247              	.LASF329:
 3248 181b 4F535F46 		.ascii	"OS_FN_CODEC_PLAY\000"
 3248      4E5F434F 
 3248      4445435F 
 3248      504C4159 
 3248      00
 3249              	.LASF63:
 3250 182c 4F535F46 		.ascii	"OS_FN_DISP_BL_CONTROL\000"
 3250      4E5F4449 
 3250      53505F42 
 3250      4C5F434F 
 3250      4E54524F 
 3251              	.LASF1:
 3252 1842 574F5244 		.ascii	"WORD\000"
ARM GAS  C:\Users\AHMED~1.ELE\AppData\Local\Temp\ccUAgQOL.s 			page 81


 3252      00
 3253              	.LASF370:
 3254 1847 4F535F46 		.ascii	"OS_FN_NETDEV_OPEN\000"
 3254      4E5F4E45 
 3254      54444556 
 3254      5F4F5045 
 3254      4E00
 3255              	.LASF474:
 3256 1859 4F535F46 		.ascii	"OS_FN_GCM_AES_FINISH\000"
 3256      4E5F4743 
 3256      4D5F4145 
 3256      535F4649 
 3256      4E495348 
 3257              	.LASF332:
 3258 186e 4F535F46 		.ascii	"OS_FN_CODEC_STATUS\000"
 3258      4E5F434F 
 3258      4445435F 
 3258      53544154 
 3258      555300
 3259              	.LASF343:
 3260 1881 4F535F46 		.ascii	"OS_FN_CLICC_LED_SET\000"
 3260      4E5F434C 
 3260      4943435F 
 3260      4C45445F 
 3260      53455400 
 3261              	.LASF421:
 3262 1895 4F535F46 		.ascii	"OS_FN_NFC_SEND_FELICA_COMMAND\000"
 3262      4E5F4E46 
 3262      435F5345 
 3262      4E445F46 
 3262      454C4943 
 3263              	.LASF54:
 3264 18b3 4F535F46 		.ascii	"OS_FN_DISP_GETG\000"
 3264      4E5F4449 
 3264      53505F47 
 3264      45544700 
 3265              	.LASF338:
 3266 18c3 4F535F46 		.ascii	"OS_FN_CLICC_CTRL\000"
 3266      4E5F434C 
 3266      4943435F 
 3266      4354524C 
 3266      00
 3267              	.LASF231:
 3268 18d4 4F535F46 		.ascii	"OS_FN_MMC_BLK_WRITE\000"
 3268      4E5F4D4D 
 3268      435F424C 
 3268      4B5F5752 
 3268      49544500 
 3269              	.LASF376:
 3270 18e8 4F535F46 		.ascii	"OS_FN_USBKBD_CLOSE\000"
 3270      4E5F5553 
 3270      424B4244 
 3270      5F434C4F 
 3270      534500
 3271              	.LASF200:
 3272 18fb 4F535F46 		.ascii	"OS_FN_FILE_AUTH\000"
 3272      4E5F4649 
ARM GAS  C:\Users\AHMED~1.ELE\AppData\Local\Temp\ccUAgQOL.s 			page 82


 3272      4C455F41 
 3272      55544800 
 3273              	.LASF279:
 3274 190b 4F535F46 		.ascii	"OS_FN_FL_COPYBACK\000"
 3274      4E5F464C 
 3274      5F434F50 
 3274      59424143 
 3274      4B00
 3275              	.LASF34:
 3276 191d 4F535F46 		.ascii	"OS_FN_KBD_INKEY\000"
 3276      4E5F4B42 
 3276      445F494E 
 3276      4B455900 
 3277              	.LASF42:
 3278 192d 4F535F46 		.ascii	"OS_FN_TIMER_GET\000"
 3278      4E5F5449 
 3278      4D45525F 
 3278      47455400 
 3279              	.LASF90:
 3280 193d 4F535F46 		.ascii	"OS_FN_COM3_TXRDY\000"
 3280      4E5F434F 
 3280      4D335F54 
 3280      58524459 
 3280      00
 3281              	.LASF191:
 3282 194e 4F535F46 		.ascii	"OS_FN_FILE_LENGTH\000"
 3282      4E5F4649 
 3282      4C455F4C 
 3282      454E4754 
 3282      4800
 3283              	.LASF501:
 3284 1960 454E445F 		.ascii	"END_OF_OS_FN_LIST\000"
 3284      4F465F4F 
 3284      535F464E 
 3284      5F4C4953 
 3284      5400
 3285              	.LASF175:
 3286 1972 4F535F46 		.ascii	"OS_FN_MALLOC\000"
 3286      4E5F4D41 
 3286      4C4C4F43 
 3286      00
 3287              	.LASF378:
 3288 197f 4F535F46 		.ascii	"OS_FN_USBKBD_GETKEY\000"
 3288      4E5F5553 
 3288      424B4244 
 3288      5F474554 
 3288      4B455900 
 3289              	.LASF83:
 3290 1993 4F535F46 		.ascii	"OS_FN_COM2_SEND\000"
 3290      4E5F434F 
 3290      4D325F53 
 3290      454E4400 
 3291              	.LASF433:
 3292 19a3 4F535F46 		.ascii	"OS_FN_GPS_CMD\000"
 3292      4E5F4750 
 3292      535F434D 
 3292      4400
ARM GAS  C:\Users\AHMED~1.ELE\AppData\Local\Temp\ccUAgQOL.s 			page 83


 3293              	.LASF413:
 3294 19b1 4F535F46 		.ascii	"OS_FN_BARCODE_ENABLED\000"
 3294      4E5F4241 
 3294      52434F44 
 3294      455F454E 
 3294      41424C45 
 3295              	.LASF184:
 3296 19c7 4F535F46 		.ascii	"OS_FN_FILE_DELETE\000"
 3296      4E5F4649 
 3296      4C455F44 
 3296      454C4554 
 3296      4500
 3297              	.LASF160:
 3298 19d9 4F535F46 		.ascii	"OS_FN_BUFMAN_REALLOC\000"
 3298      4E5F4255 
 3298      464D414E 
 3298      5F524541 
 3298      4C4C4F43 
 3299              	.LASF519:
 3300 19ee 436F7265 		.ascii	"Coremain\000"
 3300      6D61696E 
 3300      00
 3301              	.LASF28:
 3302 19f7 545F4150 		.ascii	"T_APP_INFO\000"
 3302      505F494E 
 3302      464F00
 3303              	.LASF120:
 3304 1a02 4F535F46 		.ascii	"OS_FN_SM2_SET_CURVE\000"
 3304      4E5F534D 
 3304      325F5345 
 3304      545F4355 
 3304      52564500 
 3305              	.LASF287:
 3306 1a16 4F535F46 		.ascii	"OS_FN_MCOM_OPEN\000"
 3306      4E5F4D43 
 3306      4F4D5F4F 
 3306      50454E00 
 3307              	.LASF344:
 3308 1a26 4F535F46 		.ascii	"OS_FN_CLICC_LED_CLEAR\000"
 3308      4E5F434C 
 3308      4943435F 
 3308      4C45445F 
 3308      434C4541 
 3309              	.LASF171:
 3310 1a3c 4F535F46 		.ascii	"OS_FN_APP_SEARCH_NAME\000"
 3310      4E5F4150 
 3310      505F5345 
 3310      41524348 
 3310      5F4E414D 
 3311              	.LASF114:
 3312 1a52 4F535F46 		.ascii	"OS_FN_SHA_PROCESS\000"
 3312      4E5F5348 
 3312      415F5052 
 3312      4F434553 
 3312      5300
 3313              	.LASF374:
 3314 1a64 4F535F46 		.ascii	"OS_FN_NETDEV_IOCTL\000"
ARM GAS  C:\Users\AHMED~1.ELE\AppData\Local\Temp\ccUAgQOL.s 			page 84


 3314      4E5F4E45 
 3314      54444556 
 3314      5F494F43 
 3314      544C00
 3315              	.LASF97:
 3316 1a77 4F535F46 		.ascii	"OS_FN_DES\000"
 3316      4E5F4445 
 3316      5300
 3317              	.LASF488:
 3318 1a81 4F535F46 		.ascii	"OS_FN_IMG_SENSOR_CLOSE\000"
 3318      4E5F494D 
 3318      475F5345 
 3318      4E534F52 
 3318      5F434C4F 
 3319              	.LASF70:
 3320 1a98 4F535F46 		.ascii	"OS_FN_COM1_CLOSE\000"
 3320      4E5F434F 
 3320      4D315F43 
 3320      4C4F5345 
 3320      00
 3321              	.LASF409:
 3322 1aa9 4F535F46 		.ascii	"OS_FN_BARCODE_SCAN\000"
 3322      4E5F4241 
 3322      52434F44 
 3322      455F5343 
 3322      414E00
 3323              	.LASF36:
 3324 1abc 4F535F46 		.ascii	"OS_FN_KBD_GETKEY\000"
 3324      4E5F4B42 
 3324      445F4745 
 3324      544B4559 
 3324      00
 3325              	.LASF348:
 3326 1acd 4F535F46 		.ascii	"OS_FN_USBHOST_RESET_DEVICE\000"
 3326      4E5F5553 
 3326      42484F53 
 3326      545F5245 
 3326      5345545F 
 3327              	.LASF515:
 3328 1ae8 4B417070 		.ascii	"KAppHdr\000"
 3328      48647200 
 3329              	.LASF321:
 3330 1af0 4F535F46 		.ascii	"OS_FN_TPAD_ADD_OBJ\000"
 3330      4E5F5450 
 3330      41445F41 
 3330      44445F4F 
 3330      424A00
 3331              	.LASF6:
 3332 1b03 6C6F6E67 		.ascii	"long long unsigned int\000"
 3332      206C6F6E 
 3332      6720756E 
 3332      7369676E 
 3332      65642069 
 3333              	.LASF212:
 3334 1b1a 4F535F46 		.ascii	"OS_FN_FILE_IOCTL\000"
 3334      4E5F4649 
 3334      4C455F49 
ARM GAS  C:\Users\AHMED~1.ELE\AppData\Local\Temp\ccUAgQOL.s 			page 85


 3334      4F43544C 
 3334      00
 3335              	.LASF193:
 3336 1b2b 4F535F46 		.ascii	"OS_FN_FILE_SEARCH\000"
 3336      4E5F4649 
 3336      4C455F53 
 3336      45415243 
 3336      4800
 3337              	.LASF424:
 3338 1b3d 4F535F46 		.ascii	"OS_FN_NFC_GET_VALID_RESP\000"
 3338      4E5F4E46 
 3338      435F4745 
 3338      545F5641 
 3338      4C49445F 
 3339              	.LASF497:
 3340 1b56 4F535F46 		.ascii	"OS_FN_TAMPER_UNLOCK\000"
 3340      4E5F5441 
 3340      4D504552 
 3340      5F554E4C 
 3340      4F434B00 
 3341              	.LASF354:
 3342 1b6a 4F535F46 		.ascii	"OS_FN_DRIVER_UNREGISTER\000"
 3342      4E5F4452 
 3342      49564552 
 3342      5F554E52 
 3342      45474953 
 3343              	.LASF478:
 3344 1b82 4F535F46 		.ascii	"OS_FN_WIFI_SOCKET_DISCONNECT\000"
 3344      4E5F5749 
 3344      46495F53 
 3344      4F434B45 
 3344      545F4449 
 3345              	.LASF324:
 3346 1b9f 4F535F46 		.ascii	"OS_FN_TPAD_ALERT_RETURN\000"
 3346      4E5F5450 
 3346      41445F41 
 3346      4C455254 
 3346      5F524554 
 3347              	.LASF144:
 3348 1bb7 4F535F46 		.ascii	"OS_FN_KEY_SAVE_TMK_CBC\000"
 3348      4E5F4B45 
 3348      595F5341 
 3348      56455F54 
 3348      4D4B5F43 
 3349              	.LASF100:
 3350 1bce 4F535F46 		.ascii	"OS_FN_COM_DES\000"
 3350      4E5F434F 
 3350      4D5F4445 
 3350      5300
 3351              	.LASF119:
 3352 1bdc 4F535F46 		.ascii	"OS_FN_MD4_FINISH\000"
 3352      4E5F4D44 
 3352      345F4649 
 3352      4E495348 
 3352      00
 3353              	.LASF87:
 3354 1bed 4F535F46 		.ascii	"OS_FN_COM3_OPEN\000"
ARM GAS  C:\Users\AHMED~1.ELE\AppData\Local\Temp\ccUAgQOL.s 			page 86


 3354      4E5F434F 
 3354      4D335F4F 
 3354      50454E00 
 3355              	.LASF457:
 3356 1bfd 4F535F46 		.ascii	"OS_FN_DTIMER_LATCH_START\000"
 3356      4E5F4454 
 3356      494D4552 
 3356      5F4C4154 
 3356      43485F53 
 3357              	.LASF274:
 3358 1c16 4F535F46 		.ascii	"OS_FN_FL_COPYB_PGM\000"
 3358      4E5F464C 
 3358      5F434F50 
 3358      59425F50 
 3358      474D00
 3359              	.LASF499:
 3360 1c29 4F535F46 		.ascii	"OS_FN_IMG_SENSOR_SET_MODE\000"
 3360      4E5F494D 
 3360      475F5345 
 3360      4E534F52 
 3360      5F534554 
 3361              	.LASF275:
 3362 1c43 4F535F46 		.ascii	"OS_FN_FL_COPYB_END\000"
 3362      4E5F464C 
 3362      5F434F50 
 3362      59425F45 
 3362      4E4400
 3363              	.LASF79:
 3364 1c56 4F535F46 		.ascii	"OS_FN_COM2_CLOSE\000"
 3364      4E5F434F 
 3364      4D325F43 
 3364      4C4F5345 
 3364      00
 3365              	.LASF234:
 3366 1c67 4F535F46 		.ascii	"OS_FN_MMC_INSERTED\000"
 3366      4E5F4D4D 
 3366      435F494E 
 3366      53455254 
 3366      454400
 3367              	.LASF435:
 3368 1c7a 4F535F46 		.ascii	"OS_FN_GPS_RESET\000"
 3368      4E5F4750 
 3368      535F5245 
 3368      53455400 
 3369              	.LASF382:
 3370 1c8a 4F535F46 		.ascii	"OS_FN_MIF_OPEN\000"
 3370      4E5F4D49 
 3370      465F4F50 
 3370      454E00
 3371              	.LASF471:
 3372 1c99 4F535F46 		.ascii	"OS_FN_GCM_AES_INIT\000"
 3372      4E5F4743 
 3372      4D5F4145 
 3372      535F494E 
 3372      495400
 3373              	.LASF496:
 3374 1cac 4F535F46 		.ascii	"OS_FN_WIFI_SET_REGULATORY_DOMAIN\000"
ARM GAS  C:\Users\AHMED~1.ELE\AppData\Local\Temp\ccUAgQOL.s 			page 87


 3374      4E5F5749 
 3374      46495F53 
 3374      45545F52 
 3374      4547554C 
 3375              	.LASF298:
 3376 1ccd 4F535F46 		.ascii	"OS_FN_BATT_TEMP\000"
 3376      4E5F4241 
 3376      54545F54 
 3376      454D5000 
 3377              	.LASF399:
 3378 1cdd 4F535F46 		.ascii	"OS_FN_MIF_TRANSFER\000"
 3378      4E5F4D49 
 3378      465F5452 
 3378      414E5346 
 3378      455200
 3379              	.LASF40:
 3380 1cf0 4F535F46 		.ascii	"OS_FN_TIMER_CLOSE\000"
 3380      4E5F5449 
 3380      4D45525F 
 3380      434C4F53 
 3380      4500
 3381              	.LASF161:
 3382 1d02 4F535F46 		.ascii	"OS_FN_BUFMAN_SHRINK\000"
 3382      4E5F4255 
 3382      464D414E 
 3382      5F534852 
 3382      494E4B00 
 3383              	.LASF288:
 3384 1d16 4F535F46 		.ascii	"OS_FN_MCOM_CLOSE\000"
 3384      4E5F4D43 
 3384      4F4D5F43 
 3384      4C4F5345 
 3384      00
 3385              	.LASF117:
 3386 1d27 4F535F46 		.ascii	"OS_FN_RC4_ENCRYPT\000"
 3386      4E5F5243 
 3386      345F454E 
 3386      43525950 
 3386      5400
 3387              	.LASF411:
 3388 1d39 4F535F46 		.ascii	"OS_FN_BARCODE_ABORT\000"
 3388      4E5F4241 
 3388      52434F44 
 3388      455F4142 
 3388      4F525400 
 3389              	.LASF408:
 3390 1d4d 4F535F46 		.ascii	"OS_FN_BARCODE_CMD\000"
 3390      4E5F4241 
 3390      52434F44 
 3390      455F434D 
 3390      4400
 3391              	.LASF26:
 3392 1d5f 735F6170 		.ascii	"s_app_name\000"
 3392      705F6E61 
 3392      6D6500
 3393              	.LASF46:
 3394 1d6a 4F535F46 		.ascii	"OS_FN_BUZ_STATE\000"
ARM GAS  C:\Users\AHMED~1.ELE\AppData\Local\Temp\ccUAgQOL.s 			page 88


 3394      4E5F4255 
 3394      5A5F5354 
 3394      41544500 
 3395              	.LASF317:
 3396 1d7a 4F535F46 		.ascii	"OS_FN_GPRS_SMS_CONTROL\000"
 3396      4E5F4750 
 3396      52535F53 
 3396      4D535F43 
 3396      4F4E5452 
 3397              	.LASF241:
 3398 1d91 4F535F46 		.ascii	"OS_FN_LAN_RXRDY\000"
 3398      4E5F4C41 
 3398      4E5F5258 
 3398      52445900 
 3399              	.LASF48:
 3400 1da1 4F535F46 		.ascii	"OS_FN_RTC_SET\000"
 3400      4E5F5254 
 3400      435F5345 
 3400      5400
 3401              	.LASF225:
 3402 1daf 4F535F46 		.ascii	"OS_FN_MMC_OPEN\000"
 3402      4E5F4D4D 
 3402      435F4F50 
 3402      454E00
 3403              	.LASF359:
 3404 1dbe 4F535F46 		.ascii	"OS_FN_DEVICE_IOCTL\000"
 3404      4E5F4445 
 3404      56494345 
 3404      5F494F43 
 3404      544C00
 3405              	.LASF168:
 3406 1dd1 4F535F46 		.ascii	"OS_FN_GET_CHALLENGE\000"
 3406      4E5F4745 
 3406      545F4348 
 3406      414C4C45 
 3406      4E474500 
 3407              	.LASF230:
 3408 1de5 4F535F46 		.ascii	"OS_FN_MMC_BLK_READ\000"
 3408      4E5F4D4D 
 3408      435F424C 
 3408      4B5F5245 
 3408      414400
 3409              	.LASF110:
 3410 1df8 4F535F46 		.ascii	"OS_FN_MD5_INIT\000"
 3410      4E5F4D44 
 3410      355F494E 
 3410      495400
 3411              	.LASF266:
 3412 1e07 4F535F46 		.ascii	"OS_FN_FL_PAGE\000"
 3412      4E5F464C 
 3412      5F504147 
 3412      4500
 3413              	.LASF27:
 3414 1e15 775F6170 		.ascii	"w_appid\000"
 3414      70696400 
 3415              	.LASF157:
 3416 1e1d 4F535F46 		.ascii	"OS_FN_THREAD_RETURN\000"
ARM GAS  C:\Users\AHMED~1.ELE\AppData\Local\Temp\ccUAgQOL.s 			page 89


 3416      4E5F5448 
 3416      52454144 
 3416      5F524554 
 3416      55524E00 
 3417              	.LASF216:
 3418 1e31 4F535F46 		.ascii	"OS_FN_CONFIG_UPDATE\000"
 3418      4E5F434F 
 3418      4E464947 
 3418      5F555044 
 3418      41544500 
 3419              	.LASF425:
 3420 1e45 4F535F46 		.ascii	"OS_FN_NFC_INFO_GET\000"
 3420      4E5F4E46 
 3420      435F494E 
 3420      464F5F47 
 3420      455400
 3421              	.LASF24:
 3422 1e58 645F6469 		.ascii	"d_disp_cs32\000"
 3422      73705F63 
 3422      73333200 
 3423              	.LASF204:
 3424 1e64 4F535F46 		.ascii	"OS_FN_FILE_GET_SYSTEMINFO\000"
 3424      4E5F4649 
 3424      4C455F47 
 3424      45545F53 
 3424      59535445 
 3425              	.LASF391:
 3426 1e7e 4F535F46 		.ascii	"OS_FN_MIF_LOAD_KEY\000"
 3426      4E5F4D49 
 3426      465F4C4F 
 3426      41445F4B 
 3426      455900
 3427              	.LASF113:
 3428 1e91 4F535F46 		.ascii	"OS_FN_SHA_INIT\000"
 3428      4E5F5348 
 3428      415F494E 
 3428      495400
 3429              	.LASF358:
 3430 1ea0 4F535F46 		.ascii	"OS_FN_DEVICE_ALLOC_MEDIA\000"
 3430      4E5F4445 
 3430      56494345 
 3430      5F414C4C 
 3430      4F435F4D 
 3431              	.LASF472:
 3432 1eb9 4F535F46 		.ascii	"OS_FN_GCM_AES_PROCESS_AAD\000"
 3432      4E5F4743 
 3432      4D5F4145 
 3432      535F5052 
 3432      4F434553 
 3433              	.LASF380:
 3434 1ed3 4F535F46 		.ascii	"OS_FN_TAMPER_GET_STATUS\000"
 3434      4E5F5441 
 3434      4D504552 
 3434      5F474554 
 3434      5F535441 
 3435              	.LASF92:
 3436 1eeb 4F535F46 		.ascii	"OS_FN_COM3_SEND\000"
ARM GAS  C:\Users\AHMED~1.ELE\AppData\Local\Temp\ccUAgQOL.s 			page 90


 3436      4E5F434F 
 3436      4D335F53 
 3436      454E4400 
 3437              	.LASF137:
 3438 1efb 4F535F46 		.ascii	"OS_FN_KEY_DUKPT_ENCRYPT\000"
 3438      4E5F4B45 
 3438      595F4455 
 3438      4B50545F 
 3438      454E4352 
 3439              	.LASF154:
 3440 1f13 4F535F46 		.ascii	"OS_FN_THREAD_UNLOCK\000"
 3440      4E5F5448 
 3440      52454144 
 3440      5F554E4C 
 3440      4F434B00 
 3441              	.LASF383:
 3442 1f27 4F535F46 		.ascii	"OS_FN_MIF_CLOSE\000"
 3442      4E5F4D49 
 3442      465F434C 
 3442      4F534500 
 3443              	.LASF320:
 3444 1f37 4F535F46 		.ascii	"OS_FN_TPAD_CLOSE\000"
 3444      4E5F5450 
 3444      41445F43 
 3444      4C4F5345 
 3444      00
 3445              	.LASF9:
 3446 1f48 73686F72 		.ascii	"short int\000"
 3446      7420696E 
 3446      7400
 3447              	.LASF220:
 3448 1f52 4F535F46 		.ascii	"OS_FN_SAM_INSERTED\000"
 3448      4E5F5341 
 3448      4D5F494E 
 3448      53455254 
 3448      454400
 3449              	.LASF342:
 3450 1f65 4F535F46 		.ascii	"OS_FN_CLICC_LED_STATUS\000"
 3450      4E5F434C 
 3450      4943435F 
 3450      4C45445F 
 3450      53544154 
 3451              	.LASF77:
 3452 1f7c 4F535F46 		.ascii	"OS_FN_COM1_SSEND\000"
 3452      4E5F434F 
 3452      4D315F53 
 3452      53454E44 
 3452      00
 3453              	.LASF360:
 3454 1f8d 4F535F46 		.ascii	"OS_FN_DEVICE_SEARCH_INIT\000"
 3454      4E5F4445 
 3454      56494345 
 3454      5F534541 
 3454      5243485F 
 3455              	.LASF295:
 3456 1fa6 4F535F46 		.ascii	"OS_FN_MCOM_READ\000"
 3456      4E5F4D43 
ARM GAS  C:\Users\AHMED~1.ELE\AppData\Local\Temp\ccUAgQOL.s 			page 91


 3456      4F4D5F52 
 3456      45414400 
 3457              	.LASF444:
 3458 1fb6 4F535F46 		.ascii	"OS_FN_FREE_RUN\000"
 3458      4E5F4652 
 3458      45455F52 
 3458      554E00
 3459              	.LASF304:
 3460 1fc5 4F535F46 		.ascii	"OS_FN_GPRS_SIGNAL\000"
 3460      4E5F4750 
 3460      52535F53 
 3460      49474E41 
 3460      4C00
 3461              	.LASF263:
 3462 1fd7 4F535F46 		.ascii	"OS_FN_FL_INFO\000"
 3462      4E5F464C 
 3462      5F494E46 
 3462      4F00
 3463              	.LASF491:
 3464 1fe5 4F535F46 		.ascii	"OS_FN_GPRS_SET_PIN_STATUS\000"
 3464      4E5F4750 
 3464      52535F53 
 3464      45545F50 
 3464      494E5F53 
 3465              	.LASF127:
 3466 1fff 4F535F46 		.ascii	"OS_FN_SM3_ASCII\000"
 3466      4E5F534D 
 3466      335F4153 
 3466      43494900 
 3467              	.LASF222:
 3468 200f 4F535F46 		.ascii	"OS_FN_SAM_OFF\000"
 3468      4E5F5341 
 3468      4D5F4F46 
 3468      4600
 3469              	.LASF430:
 3470 201d 4F535F46 		.ascii	"OS_FN_GPS_OFF\000"
 3470      4E5F4750 
 3470      535F4F46 
 3470      4600
 3471              	.LASF136:
 3472 202b 4F535F46 		.ascii	"OS_FN_KEY_FLUSH\000"
 3472      4E5F4B45 
 3472      595F464C 
 3472      55534800 
 3473              	.LASF126:
 3474 203b 4F535F46 		.ascii	"OS_FN_SM2_GET_MESS\000"
 3474      4E5F534D 
 3474      325F4745 
 3474      545F4D45 
 3474      535300
 3475              	.LASF265:
 3476 204e 4F535F46 		.ascii	"OS_FN_FL_PAGE_READ\000"
 3476      4E5F464C 
 3476      5F504147 
 3476      455F5245 
 3476      414400
 3477              	.LASF176:
ARM GAS  C:\Users\AHMED~1.ELE\AppData\Local\Temp\ccUAgQOL.s 			page 92


 3478 2061 4F535F46 		.ascii	"OS_FN_REALLOC\000"
 3478      4E5F5245 
 3478      414C4C4F 
 3478      4300
 3479              	.LASF479:
 3480 206f 4F535F46 		.ascii	"OS_FN_WIFI_SOCKET_GET_STATE\000"
 3480      4E5F5749 
 3480      46495F53 
 3480      4F434B45 
 3480      545F4745 
 3481              	.LASF389:
 3482 208b 4F535F46 		.ascii	"OS_FN_MIF_ANTICOLL\000"
 3482      4E5F4D49 
 3482      465F414E 
 3482      5449434F 
 3482      4C4C00
 3483              	.LASF426:
 3484 209e 4F535F46 		.ascii	"OS_FN_NFC_INFO_SET\000"
 3484      4E5F4E46 
 3484      435F494E 
 3484      464F5F53 
 3484      455400
 3485              	.LASF480:
 3486 20b1 4F535F46 		.ascii	"OS_FN_WIFI_SOCKET_SEND_TCP\000"
 3486      4E5F5749 
 3486      46495F53 
 3486      4F434B45 
 3486      545F5345 
 3487              	.LASF146:
 3488 20cc 4F535F46 		.ascii	"OS_FN_PCI_DSS_GET_KVC\000"
 3488      4E5F5043 
 3488      495F4453 
 3488      535F4745 
 3488      545F4B56 
 3489              	.LASF483:
 3490 20e2 4F535F46 		.ascii	"OS_FN_WIFI_SOCKET_GET_STATUS\000"
 3490      4E5F5749 
 3490      46495F53 
 3490      4F434B45 
 3490      545F4745 
 3491              	.LASF129:
 3492 20ff 4F535F46 		.ascii	"OS_FN_SM4_SET_KEY\000"
 3492      4E5F534D 
 3492      345F5345 
 3492      545F4B45 
 3492      5900
 3493              	.LASF67:
 3494 2111 4F535F46 		.ascii	"OS_FN_DISP_ICON_SET_SIGNAL_TYPE\000"
 3494      4E5F4449 
 3494      53505F49 
 3494      434F4E5F 
 3494      5345545F 
 3495              	.LASF323:
 3496 2131 4F535F46 		.ascii	"OS_FN_TPAD_CPOS\000"
 3496      4E5F5450 
 3496      41445F43 
 3496      504F5300 
ARM GAS  C:\Users\AHMED~1.ELE\AppData\Local\Temp\ccUAgQOL.s 			page 93


 3497              	.LASF8:
 3498 2141 7369676E 		.ascii	"signed char\000"
 3498      65642063 
 3498      68617200 
 3499              	.LASF415:
 3500 214d 4F535F46 		.ascii	"OS_FN_WIFI_SEND_COMMAND\000"
 3500      4E5F5749 
 3500      46495F53 
 3500      454E445F 
 3500      434F4D4D 
 3501              	.LASF75:
 3502 2165 4F535F46 		.ascii	"OS_FN_COM1_STATUS\000"
 3502      4E5F434F 
 3502      4D315F53 
 3502      54415455 
 3502      5300
 3503              	.LASF147:
 3504 2177 4F535F46 		.ascii	"OS_FN_PCI_DSS_REGEN_KEY\000"
 3504      4E5F5043 
 3504      495F4453 
 3504      535F5245 
 3504      47454E5F 
 3505              	.LASF91:
 3506 218f 4F535F46 		.ascii	"OS_FN_COM3_READ\000"
 3506      4E5F434F 
 3506      4D335F52 
 3506      45414400 
 3507              	.LASF495:
 3508 219f 4F535F46 		.ascii	"OS_FN_WIFI_GET_REGULATORY_DOMAIN\000"
 3508      4E5F5749 
 3508      46495F47 
 3508      45545F52 
 3508      4547554C 
 3509              	.LASF403:
 3510 21c0 4F535F46 		.ascii	"OS_FN_MIF_GET\000"
 3510      4E5F4D49 
 3510      465F4745 
 3510      5400
 3511              	.LASF201:
 3512 21ce 4F535F46 		.ascii	"OS_FN_FILE_SET_LOCK\000"
 3512      4E5F4649 
 3512      4C455F53 
 3512      45545F4C 
 3512      4F434B00 
 3513              	.LASF271:
 3514 21e2 4F535F46 		.ascii	"OS_FN_FL_ERASE_START\000"
 3514      4E5F464C 
 3514      5F455241 
 3514      53455F53 
 3514      54415254 
 3515              	.LASF174:
 3516 21f7 4F535F46 		.ascii	"OS_FN_APP_INFO\000"
 3516      4E5F4150 
 3516      505F494E 
 3516      464F00
 3517              	.LASF250:
 3518 2206 4F535F46 		.ascii	"OS_FN_MSR_READ\000"
ARM GAS  C:\Users\AHMED~1.ELE\AppData\Local\Temp\ccUAgQOL.s 			page 94


 3518      4E5F4D53 
 3518      525F5245 
 3518      414400
 3519              	.LASF395:
 3520 2215 4F535F46 		.ascii	"OS_FN_MIF_WRITE\000"
 3520      4E5F4D49 
 3520      465F5752 
 3520      49544500 
 3521              	.LASF38:
 3522 2225 4F535F46 		.ascii	"OS_FN_KBD_UNLOCK\000"
 3522      4E5F4B42 
 3522      445F554E 
 3522      4C4F434B 
 3522      00
 3523              	.LASF394:
 3524 2236 4F535F46 		.ascii	"OS_FN_MIF_READ\000"
 3524      4E5F4D49 
 3524      465F5245 
 3524      414400
 3525              	.LASF439:
 3526 2245 4F535F46 		.ascii	"OS_FN_APPDL_WRITE_APP\000"
 3526      4E5F4150 
 3526      50444C5F 
 3526      57524954 
 3526      455F4150 
 3527              	.LASF208:
 3528 225b 4F535F46 		.ascii	"OS_FN_FILE_MKDIR\000"
 3528      4E5F4649 
 3528      4C455F4D 
 3528      4B444952 
 3528      00
 3529              	.LASF16:
 3530 226c 705F6170 		.ascii	"p_appname\000"
 3530      706E616D 
 3530      6500
 3531              	.LASF169:
 3532 2276 4F535F46 		.ascii	"OS_FN_AUTH\000"
 3532      4E5F4155 
 3532      544800
 3533              	.LASF240:
 3534 2281 4F535F46 		.ascii	"OS_FN_LAN_CLOSE\000"
 3534      4E5F4C41 
 3534      4E5F434C 
 3534      4F534500 
 3535              	.LASF109:
 3536 2291 4F535F46 		.ascii	"OS_FN_SHA1\000"
 3536      4E5F5348 
 3536      413100
 3537              	.LASF39:
 3538 229c 4F535F46 		.ascii	"OS_FN_TIMER_OPEN\000"
 3538      4E5F5449 
 3538      4D45525F 
 3538      4F50454E 
 3538      00
 3539              	.LASF227:
 3540 22ad 4F535F46 		.ascii	"OS_FN_MMC_BLK_SIZE\000"
 3540      4E5F4D4D 
ARM GAS  C:\Users\AHMED~1.ELE\AppData\Local\Temp\ccUAgQOL.s 			page 95


 3540      435F424C 
 3540      4B5F5349 
 3540      5A4500
 3541              	.LASF80:
 3542 22c0 4F535F46 		.ascii	"OS_FN_COM2_RXRDY\000"
 3542      4E5F434F 
 3542      4D325F52 
 3542      58524459 
 3542      00
 3543              	.LASF451:
 3544 22d1 4F535F46 		.ascii	"OS_FN_GET_MCLK\000"
 3544      4E5F4745 
 3544      545F4D43 
 3544      4C4B00
 3545              	.LASF285:
 3546 22e0 4F535F46 		.ascii	"OS_FN_MDM_STATUS\000"
 3546      4E5F4D44 
 3546      4D5F5354 
 3546      41545553 
 3546      00
 3547              	.LASF4:
 3548 22f1 44574F52 		.ascii	"DWORD\000"
 3548      4400
 3549              	.LASF267:
 3550 22f7 4F535F46 		.ascii	"OS_FN_FL_PGM\000"
 3550      4E5F464C 
 3550      5F50474D 
 3550      00
 3551              	.LASF246:
 3552 2304 4F535F46 		.ascii	"OS_FN_MSR_OPEN\000"
 3552      4E5F4D53 
 3552      525F4F50 
 3552      454E00
 3553              	.LASF335:
 3554 2313 4F535F46 		.ascii	"OS_FN_CLICC_REMOVE\000"
 3554      4E5F434C 
 3554      4943435F 
 3554      52454D4F 
 3554      564500
 3555              	.LASF269:
 3556 2326 4F535F46 		.ascii	"OS_FN_FL_WRITE\000"
 3556      4E5F464C 
 3556      5F575249 
 3556      544500
 3557              	.LASF86:
 3558 2335 4F535F46 		.ascii	"OS_FN_COM2_SSEND\000"
 3558      4E5F434F 
 3558      4D325F53 
 3558      53454E44 
 3558      00
 3559              	.LASF232:
 3560 2346 4F535F46 		.ascii	"OS_FN_MMC_READ\000"
 3560      4E5F4D4D 
 3560      435F5245 
 3560      414400
 3561              	.LASF283:
 3562 2355 4F535F46 		.ascii	"OS_FN_MDM_DISC\000"
ARM GAS  C:\Users\AHMED~1.ELE\AppData\Local\Temp\ccUAgQOL.s 			page 96


 3562      4E5F4D44 
 3562      4D5F4449 
 3562      534300
 3563              	.LASF103:
 3564 2364 4F535F46 		.ascii	"OS_FN_NEW_DES2\000"
 3564      4E5F4E45 
 3564      575F4445 
 3564      533200
 3565              	.LASF199:
 3566 2373 4F535F46 		.ascii	"OS_FN_FILE_TRUNCATE\000"
 3566      4E5F4649 
 3566      4C455F54 
 3566      52554E43 
 3566      41544500 
 3567              	.LASF3:
 3568 2387 73686F72 		.ascii	"short unsigned int\000"
 3568      7420756E 
 3568      7369676E 
 3568      65642069 
 3568      6E7400
 3569              	.LASF151:
 3570 239a 4F535F46 		.ascii	"OS_FN_THREAD_CREATE\000"
 3570      4E5F5448 
 3570      52454144 
 3570      5F435245 
 3570      41544500 
 3571              	.LASF505:
 3572 23ae 55534246 		.ascii	"USBFPRT_GENERAL_INFO_IMG_HEIGHT\000"
 3572      5052545F 
 3572      47454E45 
 3572      52414C5F 
 3572      494E464F 
 3573              	.LASF371:
 3574 23ce 4F535F46 		.ascii	"OS_FN_NETDEV_CLOSE\000"
 3574      4E5F4E45 
 3574      54444556 
 3574      5F434C4F 
 3574      534500
 3575              	.LASF485:
 3576 23e1 4F535F46 		.ascii	"OS_FN_IMG_SENSOR_OPEN\000"
 3576      4E5F494D 
 3576      475F5345 
 3576      4E534F52 
 3576      5F4F5045 
 3577              	.LASF76:
 3578 23f7 4F535F46 		.ascii	"OS_FN_COM1_SREAD\000"
 3578      4E5F434F 
 3578      4D315F53 
 3578      52454144 
 3578      00
 3579              	.LASF116:
 3580 2408 4F535F46 		.ascii	"OS_FN_RC4_SETUP\000"
 3580      4E5F5243 
 3580      345F5345 
 3580      54555000 
 3581              	.LASF104:
 3582 2418 4F535F46 		.ascii	"OS_FN_RSA\000"
ARM GAS  C:\Users\AHMED~1.ELE\AppData\Local\Temp\ccUAgQOL.s 			page 97


 3582      4E5F5253 
 3582      4100
 3583              	.LASF350:
 3584 2422 4F535F46 		.ascii	"OS_FN_USBHOST_RHPORT_STATUS\000"
 3584      4E5F5553 
 3584      42484F53 
 3584      545F5248 
 3584      504F5254 
 3585              	.LASF163:
 3586 243e 4F535F46 		.ascii	"OS_FN_LED_CLOSE\000"
 3586      4E5F4C45 
 3586      445F434C 
 3586      4F534500 
 3587              	.LASF364:
 3588 244e 4F535F46 		.ascii	"OS_FN_DEVICE_UNMOUNT\000"
 3588      4E5F4445 
 3588      56494345 
 3588      5F554E4D 
 3588      4F554E54 
 3589              	.LASF89:
 3590 2463 4F535F46 		.ascii	"OS_FN_COM3_RXRDY\000"
 3590      4E5F434F 
 3590      4D335F52 
 3590      58524459 
 3590      00
 3591              	.LASF405:
 3592 2474 4F535F46 		.ascii	"OS_FN_MIF_INFO_GET\000"
 3592      4E5F4D49 
 3592      465F494E 
 3592      464F5F47 
 3592      455400
 3593              	.LASF262:
 3594 2487 4F535F46 		.ascii	"OS_FN_USBSER_ENABLE\000"
 3594      4E5F5553 
 3594      42534552 
 3594      5F454E41 
 3594      424C4500 
 3595              	.LASF460:
 3596 249b 4F535F46 		.ascii	"OS_FN_LPT_RESET_COUNT\000"
 3596      4E5F4C50 
 3596      545F5245 
 3596      5345545F 
 3596      434F554E 
 3597              	.LASF305:
 3598 24b1 4F535F46 		.ascii	"OS_FN_GPRS_STATUS\000"
 3598      4E5F4750 
 3598      52535F53 
 3598      54415455 
 3598      5300
 3599              	.LASF95:
 3600 24c3 4F535F46 		.ascii	"OS_FN_COM3_SSEND\000"
 3600      4E5F434F 
 3600      4D335F53 
 3600      53454E44 
 3600      00
 3601              	.LASF423:
 3602 24d4 4F535F46 		.ascii	"OS_FN_NFC_CLOSE\000"
ARM GAS  C:\Users\AHMED~1.ELE\AppData\Local\Temp\ccUAgQOL.s 			page 98


 3602      4E5F4E46 
 3602      435F434C 
 3602      4F534500 
 3603              	.LASF65:
 3604 24e4 4F535F46 		.ascii	"OS_FN_DISP_ICON_PUTC\000"
 3604      4E5F4449 
 3604      53505F49 
 3604      434F4E5F 
 3604      50555443 
 3605              	.LASF303:
 3606 24f9 4F535F46 		.ascii	"OS_FN_ADC_CH_READ\000"
 3606      4E5F4144 
 3606      435F4348 
 3606      5F524541 
 3606      4400
 3607              	.LASF281:
 3608 250b 4F535F46 		.ascii	"OS_FN_MDM_CLOSE\000"
 3608      4E5F4D44 
 3608      4D5F434C 
 3608      4F534500 
 3609              	.LASF456:
 3610 251b 4F535F46 		.ascii	"OS_FN_DMK_INJECT\000"
 3610      4E5F444D 
 3610      4B5F494E 
 3610      4A454354 
 3610      00
 3611              	.LASF504:
 3612 252c 55534246 		.ascii	"USBFPRT_GENERAL_INFO_IMG_WIDTH\000"
 3612      5052545F 
 3612      47454E45 
 3612      52414C5F 
 3612      494E464F 
 3613              	.LASF44:
 3614 254b 4F535F46 		.ascii	"OS_FN_BUZ_CLOSE\000"
 3614      4E5F4255 
 3614      5A5F434C 
 3614      4F534500 
 3615              	.LASF185:
 3616 255b 4F535F46 		.ascii	"OS_FN_FILE_FLUSHED\000"
 3616      4E5F4649 
 3616      4C455F46 
 3616      4C555348 
 3616      454400
 3617              	.LASF59:
 3618 256e 4F535F46 		.ascii	"OS_FN_DISP_GET_LCD_BUFFER\000"
 3618      4E5F4449 
 3618      53505F47 
 3618      45545F4C 
 3618      43445F42 
 3619              	.LASF334:
 3620 2588 4F535F46 		.ascii	"OS_FN_CLICC_POLL\000"
 3620      4E5F434C 
 3620      4943435F 
 3620      504F4C4C 
 3620      00
 3621              	.LASF85:
 3622 2599 4F535F46 		.ascii	"OS_FN_COM2_SREAD\000"
ARM GAS  C:\Users\AHMED~1.ELE\AppData\Local\Temp\ccUAgQOL.s 			page 99


 3622      4E5F434F 
 3622      4D325F53 
 3622      52454144 
 3622      00
 3623              	.LASF346:
 3624 25aa 4F535F46 		.ascii	"OS_FN_USBHOST_SUBMIT_BUFFER\000"
 3624      4E5F5553 
 3624      42484F53 
 3624      545F5355 
 3624      424D4954 
 3625              	.LASF215:
 3626 25c6 4F535F46 		.ascii	"OS_FN_CONFIG_WRITE\000"
 3626      4E5F434F 
 3626      4E464947 
 3626      5F575249 
 3626      544500
 3627              	.LASF347:
 3628 25d9 4F535F46 		.ascii	"OS_FN_USBHOST_UNLINK_BUFFER\000"
 3628      4E5F5553 
 3628      42484F53 
 3628      545F554E 
 3628      4C494E4B 
 3629              		.ident	"GCC: (GNU Tools for ARM Embedded Processors) 4.9.3 20141119 (release) [ARM/embedded-4_9-br
ARM GAS  C:\Users\AHMED~1.ELE\AppData\Local\Temp\ccUAgQOL.s 			page 100


DEFINED SYMBOLS
                            *ABS*:00000000 main.c
C:\Users\AHMED~1.ELE\AppData\Local\Temp\ccUAgQOL.s:19     .text.startup.main:00000000 $t
C:\Users\AHMED~1.ELE\AppData\Local\Temp\ccUAgQOL.s:24     .text.startup.main:00000000 main
C:\Users\AHMED~1.ELE\AppData\Local\Temp\ccUAgQOL.s:121    .text.startup.main:00000074 $d
C:\Users\AHMED~1.ELE\AppData\Local\Temp\ccUAgQOL.s:130    .rodata:00000000 KAppHdr
C:\Users\AHMED~1.ELE\AppData\Local\Temp\ccUAgQOL.s:127    .rodata:00000000 $d
                     .debug_frame:00000010 $d

UNDEFINED SYMBOLS
sys_func2
sys_func1
sys_func0
VirginInit
GlobalsInit
Coremain
GlobalsCleanUp
KExportFunc
KSoftName
