ARM GAS  C:\Users\AHMED~1.ELE\AppData\Local\Temp\ccUAgQOL.s 			page 1


   1              		.syntax unified
   2              		.cpu cortex-a5
   3              		.fpu softvfp
   4              		.eabi_attribute 20, 1
   5              		.eabi_attribute 21, 1
   6              		.eabi_attribute 23, 3
   7              		.eabi_attribute 24, 1
   8              		.eabi_attribute 25, 1
   9              		.eabi_attribute 26, 1
  10              		.eabi_attribute 30, 4
  11              		.eabi_attribute 34, 0
  12              		.eabi_attribute 18, 4
  13              		.thumb
  14              		.file	"main.c"
  15              		.text
  16              	.Ltext0:
  17              		.cfi_sections	.debug_frame
  18              		.section	.text.startup.main,"ax",%progbits
  19              		.align	1
  20              		.global	main
  21              		.thumb
  22              		.thumb_func
  23              		.type	main, %function
  24              	main:
  25              	.LFB0:
  26              		.file 1 "src/main.c"
   1:src/main.c    **** //-----------------------------------------------------------------------------
   2:src/main.c    **** //  File          : main.c
   3:src/main.c    **** //  Module        :
   4:src/main.c    **** //  Description   : Main Entry.
   5:src/main.c    **** //  Author        : Auto Generate by main_c.bat
   6:src/main.c    **** //  Notes         :
   7:src/main.c    **** //
   8:src/main.c    **** // ============================================================================
   9:src/main.c    **** // | Naming conventions                                                       |
  10:src/main.c    **** // | ~~~~~~~~~~~~~~~~~~                                                       |
  11:src/main.c    **** // |         Struct/Array : Leading s                                         |
  12:src/main.c    **** // |             Constant : Leading K                                         |
  13:src/main.c    **** // |      Global Variable : Leading g  (variable use outside one C file)      |
  14:src/main.c    **** // |                                                                          |
  15:src/main.c    **** // |   BYTE( 8 Bits) size : Leading b                                         |
  16:src/main.c    **** // |   CHAR( 8 Bits) size : Leading c                                         |
  17:src/main.c    **** // |   WORD(16 Bits) size : Leading w                                         |
  18:src/main.c    **** // |  DWORD(32 Bits) size : Leading d                                         |
  19:src/main.c    **** // |    int(32 Bits) size : Leading i                                         |
  20:src/main.c    **** // | DDWORD(64 Bits) size : Leading dd                                        |
  21:src/main.c    **** // |              Pointer : Leading p                                         |
  22:src/main.c    **** // |                                                                          |
  23:src/main.c    **** // |    Function argument : Leading a                                         |
  24:src/main.c    **** // |       Local Variable : All lower case                                    |
  25:src/main.c    **** // |                                                                          |
  26:src/main.c    **** // | Examples:                                                                |
  27:src/main.c    **** // |                Array : Leading s, (sb = arrary of byte, etc)             |
  28:src/main.c    **** // |              Pointer : Leading p, (pb = pointer of byte, etc)            |
  29:src/main.c    **** // ============================================================================
  30:src/main.c    **** //
  31:src/main.c    **** //  Date          Who         Action
ARM GAS  C:\Users\AHMED~1.ELE\AppData\Local\Temp\ccUAgQOL.s 			page 2


  32:src/main.c    **** //  ------------  ----------- -------------------------------------------------
  33:src/main.c    **** //  DD MMM  YYYY  main_c      Initial Version.
  34:src/main.c    **** //-----------------------------------------------------------------------------
  35:src/main.c    **** #include "system.h"
  36:src/main.c    **** #include "coremain.h"
  37:src/main.c    **** 
  38:src/main.c    **** //-----------------------------------------------------------------------------
  39:src/main.c    **** //      Prototypes
  40:src/main.c    **** //-----------------------------------------------------------------------------
  41:src/main.c    **** 
  42:src/main.c    **** //-----------------------------------------------------------------------------
  43:src/main.c    **** //      Defines
  44:src/main.c    **** //-----------------------------------------------------------------------------
  45:src/main.c    **** 
  46:src/main.c    **** //-----------------------------------------------------------------------------
  47:src/main.c    **** //      Globals
  48:src/main.c    **** //-----------------------------------------------------------------------------
  49:src/main.c    **** 
  50:src/main.c    **** //-----------------------------------------------------------------------------
  51:src/main.c    **** //      Constant
  52:src/main.c    **** //-----------------------------------------------------------------------------
  53:src/main.c    **** // Application Header
  54:src/main.c    **** const T_APP_HDR KAppHdr = {
  55:src/main.c    ****   (DWORD) "spectratech.com",
  56:src/main.c    ****   (DWORD) KExportFunc,            // Export Function Table
  57:src/main.c    ****   (DWORD) NULL,                   // Reserved
  58:src/main.c    ****   (DWORD) KSoftName,              // Application Name
  59:src/main.c    ****   (BYTE)  SOFT_VERSION,           // Version
  60:src/main.c    ****   (BYTE)  SOFT_SUBVERSION,        // Sub Version
  61:src/main.c    ****   (BYTE)  APPL_TYPE,              // Application Type 0 => Appl, 1 => Appl DLL
  62:src/main.c    ****   (BYTE)  MY_APPL_ID,             // Application ID
  63:src/main.c    ****   (DWORD) 0x12345678,             // Magic Number
  64:src/main.c    **** };
  65:src/main.c    **** 
  66:src/main.c    **** //*****************************************************************************
  67:src/main.c    **** //  Function        : MainApplication
  68:src/main.c    **** //  Description     : Entry point for application.
  69:src/main.c    **** //  Input           : N/A
  70:src/main.c    **** //  Return          : N/A
  71:src/main.c    **** //  Note            : N/A
  72:src/main.c    **** //  Globals Changed : N/A
  73:src/main.c    **** //*****************************************************************************
  74:src/main.c    **** int main(DWORD aParam1, DWORD aParam2, DWORD aParam3)
  75:src/main.c    **** {
  27              		.loc 1 75 0
  28              		.cfi_startproc
  29              		@ args = 0, pretend = 0, frame = 40
  30              		@ frame_needed = 0, uses_anonymous_args = 0
  31              	.LVL0:
  32 0000 70B5     		push	{r4, r5, r6, lr}
  33              		.cfi_def_cfa_offset 16
  34              		.cfi_offset 4, -16
  35              		.cfi_offset 5, -12
  36              		.cfi_offset 6, -8
  37              		.cfi_offset 14, -4
  38 0002 8AB0     		sub	sp, sp, #40
  39              		.cfi_def_cfa_offset 56
ARM GAS  C:\Users\AHMED~1.ELE\AppData\Local\Temp\ccUAgQOL.s 			page 3


  40              		.loc 1 75 0
  41 0004 0646     		mov	r6, r0
  42 0006 0D46     		mov	r5, r1
  43 0008 1446     		mov	r4, r2
  76:src/main.c    ****   int ret_val = 0;
  77:src/main.c    ****   T_APP_INFO sappl_info;
  78:src/main.c    **** 
  79:src/main.c    ****   // Check Midware Exist
  80:src/main.c    ****   if (!os_app_info(0x0F, &sappl_info)) {
  44              		.loc 1 80 0
  45 000a 9120     		movs	r0, #145
  46              	.LVL1:
  47 000c 0F21     		movs	r1, #15
  48              	.LVL2:
  49 000e 01AA     		add	r2, sp, #4
  50              	.LVL3:
  51 0010 FFF7FEFF 		bl	sys_func2
  52              	.LVL4:
  53 0014 88B9     		cbnz	r0, .L2
  81:src/main.c    ****     // Midware not exist
  82:src/main.c    ****     os_disp_puts("\f\x12\nMidware Not Exist!");
  54              		.loc 1 82 0
  55 0016 1720     		movs	r0, #23
  56 0018 1649     		ldr	r1, .L11
  57 001a FFF7FEFF 		bl	sys_func1
  58              	.LVL5:
  59              	.L3:
  83:src/main.c    ****     while (os_kbd_getkey() != K_KeyCancel) os_sleep();
  60              		.loc 1 83 0 discriminator 1
  61 001e 0720     		movs	r0, #7
  62 0020 FFF7FEFF 		bl	sys_func0
  63              	.LVL6:
  64 0024 3C28     		cmp	r0, #60
  65 0026 04D0     		beq	.L10
  66              		.loc 1 83 0 is_stmt 0 discriminator 2
  67 0028 4FF4CE70 		mov	r0, #412
  68 002c FFF7FEFF 		bl	sys_func0
  69              	.LVL7:
  70 0030 F5E7     		b	.L3
  71              	.L10:
  84:src/main.c    ****     os_reset();
  72              		.loc 1 84 0 is_stmt 1
  73 0032 4FF4CF70 		mov	r0, #414
  74 0036 FFF7FEFF 		bl	sys_func0
  75              	.LVL8:
  76              	.L2:
  85:src/main.c    ****   }
  86:src/main.c    **** 
  87:src/main.c    ****   // Virgin Init
  88:src/main.c    ****   if (os_app_get_virgin(MY_APPL_ID)) {
  77              		.loc 1 88 0
  78 003a 8F20     		movs	r0, #143
  79 003c 1121     		movs	r1, #17
  80 003e FFF7FEFF 		bl	sys_func1
  81              	.LVL9:
  82 0042 28B1     		cbz	r0, .L5
  89:src/main.c    ****     VirginInit();
ARM GAS  C:\Users\AHMED~1.ELE\AppData\Local\Temp\ccUAgQOL.s 			page 4


  83              		.loc 1 89 0
  84 0044 FFF7FEFF 		bl	VirginInit
  85              	.LVL10:
  90:src/main.c    ****     os_app_clear_virgin(MY_APPL_ID);
  86              		.loc 1 90 0
  87 0048 9020     		movs	r0, #144
  88 004a 1121     		movs	r1, #17
  89 004c FFF7FEFF 		bl	sys_func1
  90              	.LVL11:
  91              	.L5:
  91:src/main.c    ****   }
  92:src/main.c    **** 
  93:src/main.c    ****   // Initialize Globals Variables
  94:src/main.c    ****   GlobalsInit();
  92              		.loc 1 94 0
  93 0050 FFF7FEFF 		bl	GlobalsInit
  94              	.LVL12:
  95:src/main.c    **** 
  96:src/main.c    ****   // Start application coremain
  97:src/main.c    ****   if (KAppHdr.b_type == 0x00) {         // is application
  98:src/main.c    ****     ret_val = Coremain(aParam1, aParam2, aParam3);
  95              		.loc 1 98 0
  96 0054 2246     		mov	r2, r4
  97 0056 2946     		mov	r1, r5
  98 0058 3046     		mov	r0, r6
  99 005a FFF7FEFF 		bl	Coremain
 100              	.LVL13:
 101 005e 0446     		mov	r4, r0
 102              	.LVL14:
  99:src/main.c    ****   }
 100:src/main.c    **** 
 101:src/main.c    ****   // House Keep
 102:src/main.c    ****   GlobalsCleanUp();
 103              		.loc 1 102 0
 104 0060 FFF7FEFF 		bl	GlobalsCleanUp
 105              	.LVL15:
 103:src/main.c    **** 
 104:src/main.c    ****   // Return to Caller.
 105:src/main.c    ****   os_appcall_return(ret_val);
 106              		.loc 1 105 0
 107 0064 2146     		mov	r1, r4
 108 0066 4FF4D470 		mov	r0, #424
 109 006a FFF7FEFF 		bl	sys_func1
 110              	.LVL16:
 106:src/main.c    **** 
 107:src/main.c    ****   return ret_val;
 108:src/main.c    **** }
 111              		.loc 1 108 0
 112 006e 2046     		mov	r0, r4
 113 0070 0AB0     		add	sp, sp, #40
 114              		.cfi_def_cfa_offset 16
 115              		@ sp needed
 116 0072 70BD     		pop	{r4, r5, r6, pc}
 117              	.LVL17:
 118              	.L12:
 119              		.align	2
 120              	.L11:
ARM GAS  C:\Users\AHMED~1.ELE\AppData\Local\Temp\ccUAgQOL.s 			page 5


 121 0074 00000000 		.word	.LC0
 122              		.cfi_endproc
 123              	.LFE0:
 124              		.size	main, .-main
 125              		.global	KAppHdr
 126              		.section	.rodata
 127              		.align	2
 128              		.type	KAppHdr, %object
 129              		.size	KAppHdr, 24
 130              	KAppHdr:
 131 0000 16000000 		.word	.LC1
 132 0004 00000000 		.word	KExportFunc
 133 0008 00000000 		.word	0
 134 000c 00000000 		.word	KSoftName
 135 0010 03       		.byte	3
 136 0011 01       		.byte	1
 137 0012 00       		.byte	0
 138 0013 11       		.byte	17
 139 0014 78563412 		.word	305419896
 140              		.section	.rodata.str1.1,"aMS",%progbits,1
 141              	.LC0:
 142 0000 0C120A4D 		.ascii	"\014\022\012Midware Not Exist!\000"
 142      69647761 
 142      7265204E 
 142      6F742045 
 142      78697374 
 143              	.LC1:
 144 0016 73706563 		.ascii	"spectratech.com\000"
 144      74726174 
 144      6563682E 
 144      636F6D00 
 145              		.text
 146              	.Letext0:
 147              		.file 2 "../LibA5T1000/common.h"
 148              		.file 3 "../LibA5T1000/system.h"
 149              		.file 4 "src/coremain.h"