ARM GAS  C:\Users\AHMED~1.ELE\AppData\Local\Temp\ccibgs93.s 			page 1


   1              		.syntax unified
   2              		.cpu cortex-a5
   3              		.fpu softvfp
   4              		.eabi_attribute 20, 1
   5              		.eabi_attribute 21, 1
   6              		.eabi_attribute 23, 3
   7              		.eabi_attribute 24, 1
   8              		.eabi_attribute 25, 1
   9              		.eabi_attribute 26, 1
  10              		.eabi_attribute 30, 4
  11              		.eabi_attribute 34, 0
  12              		.eabi_attribute 18, 4
  13              		.thumb
  14              		.file	"menu.c"
  15              		.text
  16              	.Ltext0:
  17              		.cfi_sections	.debug_frame
  18              		.global	__aeabi_idiv
  19              		.global	__aeabi_idivmod
  20              		.section	.text.MenuSelect,"ax",%progbits
  21              		.align	1
  22              		.global	MenuSelect
  23              		.thumb
  24              		.thumb_func
  25              		.type	MenuSelect, %function
  26              	MenuSelect:
  27              	.LFB0:
  28              		.file 1 "src/menu.c"
   1:src/menu.c    **** //-----------------------------------------------------------------------------
   2:src/menu.c    **** //  File          : menu.c
   3:src/menu.c    **** //  Module        :
   4:src/menu.c    **** //  Description   : Generic menu handling routines.
   5:src/menu.c    **** //  Author        : Lewis
   6:src/menu.c    **** //  Notes         :
   7:src/menu.c    **** //
   8:src/menu.c    **** // ============================================================================
   9:src/menu.c    **** // | Naming conventions                                                       |
  10:src/menu.c    **** // | ~~~~~~~~~~~~~~~~~~                                                       |
  11:src/menu.c    **** // |         Struct/Array : Leading s                                         |
  12:src/menu.c    **** // |             Constant : Leading K                                         |
  13:src/menu.c    **** // |      Global Variable : Leading g  (variable use outside one C file)      |
  14:src/menu.c    **** // |                                                                          |
  15:src/menu.c    **** // |   BYTE( 8 Bits) size : Leading b                                         |
  16:src/menu.c    **** // |   CHAR( 8 Bits) size : Leading c                                         |
  17:src/menu.c    **** // |   WORD(16 Bits) size : Leading w                                         |
  18:src/menu.c    **** // |  DWORD(32 Bits) size : Leading d                                         |
  19:src/menu.c    **** // |    int(32 Bits) size : Leading i                                         |
  20:src/menu.c    **** // | DDWORD(64 Bits) size : Leading dd                                        |
  21:src/menu.c    **** // |              Pointer : Leading p                                         |
  22:src/menu.c    **** // |                                                                          |
  23:src/menu.c    **** // |    Function argument : Leading a                                         |
  24:src/menu.c    **** // |       Local Variable : All lower case                                    |
  25:src/menu.c    **** // |                                                                          |
  26:src/menu.c    **** // | Examples:                                                                |
  27:src/menu.c    **** // |                Array : Leading s, (sb = arrary of byte, etc)             |
  28:src/menu.c    **** // |              Pointer : Leading p, (pb = pointer of byte, etc)            |
  29:src/menu.c    **** // ============================================================================
ARM GAS  C:\Users\AHMED~1.ELE\AppData\Local\Temp\ccibgs93.s 			page 2


  30:src/menu.c    **** //
  31:src/menu.c    **** //  Date          Who         Action
  32:src/menu.c    **** //  ------------  ----------- -------------------------------------------------
  33:src/menu.c    **** //  29 Sept 2008  Lewis       Initial Version.
  34:src/menu.c    **** //-----------------------------------------------------------------------------
  35:src/menu.c    **** #include <string.h>
  36:src/menu.c    **** #include "midware.h"
  37:src/menu.c    **** #include "apm.h"
  38:src/menu.c    **** #include "util.h"
  39:src/menu.c    **** #include "sysutil.h"
  40:src/menu.c    **** #include "menu.h"
  41:src/menu.c    **** 
  42:src/menu.c    **** //-----------------------------------------------------------------------------
  43:src/menu.c    **** //  Defines
  44:src/menu.c    **** //-----------------------------------------------------------------------------
  45:src/menu.c    **** #define MAX_PAGE_ITEM_COLOR            7
  46:src/menu.c    **** #define MAX_PAGE_ITEM_MONO             6
  47:src/menu.c    **** 
  48:src/menu.c    **** //-----------------------------------------------------------------------------
  49:src/menu.c    **** //  Constants
  50:src/menu.c    **** //-----------------------------------------------------------------------------
  51:src/menu.c    **** 
  52:src/menu.c    **** //*****************************************************************************
  53:src/menu.c    **** //  Function        : MenuSelect
  54:src/menu.c    **** //  Description     : Handle Menu Selection Operation.
  55:src/menu.c    **** //  Input           : aMenu;            // pointer to menu struct
  56:src/menu.c    **** //  Return          : selection index;  // -1 => No Selection
  57:src/menu.c    **** //  Note            : N/A
  58:src/menu.c    **** //  Globals Changed : N/A
  59:src/menu.c    **** //*****************************************************************************
  60:src/menu.c    **** int MenuSelect(const struct MENU_DAT *aMenu, int aCurrIndex)
  61:src/menu.c    **** {
  29              		.loc 1 61 0
  30              		.cfi_startproc
  31              		@ args = 0, pretend = 0, frame = 96
  32              		@ frame_needed = 0, uses_anonymous_args = 0
  33              	.LVL0:
  34 0000 2DE9F04F 		push	{r4, r5, r6, r7, r8, r9, r10, fp, lr}
  35              		.cfi_def_cfa_offset 36
  36              		.cfi_offset 4, -36
  37              		.cfi_offset 5, -32
  38              		.cfi_offset 6, -28
  39              		.cfi_offset 7, -24
  40              		.cfi_offset 8, -20
  41              		.cfi_offset 9, -16
  42              		.cfi_offset 10, -12
  43              		.cfi_offset 11, -8
  44              		.cfi_offset 14, -4
  62:src/menu.c    ****   int i, item_idx, start_idx;
  63:src/menu.c    ****   int no_of_item, no_of_page, curr_page, items_per_page;
  64:src/menu.c    ****   DWORD keyin, line_no;
  65:src/menu.c    ****   BYTE disp_buf[MW_MAX_LINESIZE+1], tmpbuf[MW_MAX_LINESIZE+1];
  66:src/menu.c    ****   BOOLEAN manual_entry;
  67:src/menu.c    ****   DWORD max_line_size = (GetLcdTypeMW()==MW_DISP_COLOR)?MW_MAXCOLOR_LINESIZE:MW_MAXMONO_LINESIZE;
  45              		.loc 1 67 0
  46 0004 0025     		movs	r5, #0
  61:src/menu.c    ****   int i, item_idx, start_idx;
ARM GAS  C:\Users\AHMED~1.ELE\AppData\Local\Temp\ccibgs93.s 			page 3


  47              		.loc 1 61 0
  48 0006 9BB0     		sub	sp, sp, #108
  49              		.cfi_def_cfa_offset 144
  61:src/menu.c    ****   int i, item_idx, start_idx;
  50              		.loc 1 61 0
  51 0008 8046     		mov	r8, r0
  52              		.loc 1 67 0
  53 000a 2A46     		mov	r2, r5
  54 000c 2B46     		mov	r3, r5
  61:src/menu.c    ****   int i, item_idx, start_idx;
  55              		.loc 1 61 0
  56 000e 0C46     		mov	r4, r1
  57              		.loc 1 67 0
  58 0010 0095     		str	r5, [sp]
  59 0012 2921     		movs	r1, #41
  60              	.LVL1:
  61 0014 0F20     		movs	r0, #15
  62              	.LVL2:
  63 0016 FFF7FEFF 		bl	lib_app_call
  64              	.LVL3:
  68:src/menu.c    ****   DWORD max_line      = (GetLcdTypeMW()==MW_DISP_COLOR)?MW_LINE9:MW_LINE8;
  65              		.loc 1 68 0
  66 001a 2921     		movs	r1, #41
  67 001c 2A46     		mov	r2, r5
  68 001e 0095     		str	r5, [sp]
  67:src/menu.c    ****   DWORD max_line      = (GetLcdTypeMW()==MW_DISP_COLOR)?MW_LINE9:MW_LINE8;
  69              		.loc 1 67 0
  70 0020 0128     		cmp	r0, #1
  71 0022 0CBF     		ite	eq
  72 0024 1A23     		moveq	r3, #26
  73 0026 1523     		movne	r3, #21
  74              		.loc 1 68 0
  75 0028 0F20     		movs	r0, #15
  67:src/menu.c    ****   DWORD max_line      = (GetLcdTypeMW()==MW_DISP_COLOR)?MW_LINE9:MW_LINE8;
  76              		.loc 1 67 0
  77 002a 0793     		str	r3, [sp, #28]
  78              	.LVL4:
  79              		.loc 1 68 0
  80 002c 2B46     		mov	r3, r5
  81              	.LVL5:
  82 002e FFF7FEFF 		bl	lib_app_call
  83              	.LVL6:
  69:src/menu.c    ****   int  entry_sel=0;
  70:src/menu.c    **** 
  71:src/menu.c    ****   // Find Items Per Page
  72:src/menu.c    ****   line_no = MW_LINE2;
  73:src/menu.c    ****   items_per_page = (GetLcdTypeMW()==MW_DISP_COLOR)?MAX_PAGE_ITEM_COLOR:MAX_PAGE_ITEM_MONO;
  84              		.loc 1 73 0
  85 0032 0095     		str	r5, [sp]
  86 0034 2921     		movs	r1, #41
  87 0036 2A46     		mov	r2, r5
  68:src/menu.c    ****   int  entry_sel=0;
  88              		.loc 1 68 0
  89 0038 0128     		cmp	r0, #1
  90 003a 0CBF     		ite	eq
  91 003c 4FF41063 		moveq	r3, #2304
  92 0040 4FF40063 		movne	r3, #2048
ARM GAS  C:\Users\AHMED~1.ELE\AppData\Local\Temp\ccibgs93.s 			page 4


  93              		.loc 1 73 0
  94 0044 0F20     		movs	r0, #15
  68:src/menu.c    ****   int  entry_sel=0;
  95              		.loc 1 68 0
  96 0046 0393     		str	r3, [sp, #12]
  97              	.LVL7:
  98              		.loc 1 73 0
  99 0048 2B46     		mov	r3, r5
 100              	.LVL8:
 101 004a FFF7FEFF 		bl	lib_app_call
 102              	.LVL9:
  74:src/menu.c    ****   //items_per_page = 0;
  75:src/menu.c    ****   //while(line_no < max_line) {
  76:src/menu.c    ****   //  items_per_page++;
  77:src/menu.c    ****   //  line_no += MW_LINE3-MW_LINE2;
  78:src/menu.c    ****   //}
  79:src/menu.c    **** 
  80:src/menu.c    ****   // Find total item and total page
  81:src/menu.c    ****   for (no_of_item = 0; no_of_item <= MAX_MENU_ITEMS; no_of_item++) {
 103              		.loc 1 81 0
 104 004e 0495     		str	r5, [sp, #16]
  73:src/menu.c    ****   //items_per_page = 0;
 105              		.loc 1 73 0
 106 0050 0128     		cmp	r0, #1
 107 0052 0CBF     		ite	eq
 108 0054 0723     		moveq	r3, #7
 109 0056 0623     		movne	r3, #6
 110 0058 0293     		str	r3, [sp, #8]
 111              	.LVL10:
  82:src/menu.c    ****     if (aMenu->psMenuItem[no_of_item].iID == -1)
 112              		.loc 1 82 0
 113 005a D8F81830 		ldr	r3, [r8, #24]
 114              	.LVL11:
 115              	.L6:
 116 005e 049A     		ldr	r2, [sp, #16]
 117 0060 5201     		lsls	r2, r2, #5
 118 0062 9A58     		ldr	r2, [r3, r2]
 119 0064 0132     		adds	r2, r2, #1
 120 0066 04D0     		beq	.L5
  81:src/menu.c    ****     if (aMenu->psMenuItem[no_of_item].iID == -1)
 121              		.loc 1 81 0 discriminator 2
 122 0068 049A     		ldr	r2, [sp, #16]
 123 006a 0132     		adds	r2, r2, #1
 124 006c 642A     		cmp	r2, #100
 125 006e 0492     		str	r2, [sp, #16]
 126              	.LVL12:
 127 0070 F5D1     		bne	.L6
 128              	.LVL13:
 129              	.L5:
  83:src/menu.c    ****       break;
  84:src/menu.c    ****   }
  85:src/menu.c    ****   no_of_page = (no_of_item+items_per_page-1)/items_per_page;
 130              		.loc 1 85 0
 131 0072 029A     		ldr	r2, [sp, #8]
 132 0074 049B     		ldr	r3, [sp, #16]
 133 0076 1146     		mov	r1, r2
 134 0078 9818     		adds	r0, r3, r2
ARM GAS  C:\Users\AHMED~1.ELE\AppData\Local\Temp\ccibgs93.s 			page 5


 135 007a 0138     		subs	r0, r0, #1
 136 007c FFF7FEFF 		bl	__aeabi_idiv
 137              	.LVL14:
 138 0080 0A90     		str	r0, [sp, #40]
 139              	.LVL15:
 140              	.LBB2:
  86:src/menu.c    **** 
  87:src/menu.c    ****   // Draw Frame & Header
  88:src/menu.c    ****   DispLineMW(aMenu->scHeader, MW_LINE1, MW_CLRDISP|MW_CENTER|MW_SPFONT);
 141              		.loc 1 88 0
 142 0082 4046     		mov	r0, r8
 143              	.LVL16:
 144 0084 FFF7FEFF 		bl	strlen
 145              	.LVL17:
 146 0088 0646     		mov	r6, r0
 147              	.LVL18:
 148 008a 711C     		adds	r1, r6, #1
 149 008c 9220     		movs	r0, #146
 150              	.LVL19:
 151 008e FFF7FEFF 		bl	sys_func1
 152              	.LVL20:
 153 0092 0546     		mov	r5, r0
 154 0094 98B1     		cbz	r0, .L7
 155              		.loc 1 88 0 is_stmt 0 discriminator 1
 156 0096 4146     		mov	r1, r8
 157 0098 3246     		mov	r2, r6
 158 009a FFF7FEFF 		bl	memcpy
 159              	.LVL21:
 160 009e 0023     		movs	r3, #0
 161 00a0 2521     		movs	r1, #37
 162 00a2 AB55     		strb	r3, [r5, r6]
 163 00a4 42F28203 		movw	r3, #8322
 164 00a8 0F20     		movs	r0, #15
 165 00aa 0093     		str	r3, [sp]
 166 00ac 2A46     		mov	r2, r5
 167 00ae 4FF48073 		mov	r3, #256
 168 00b2 FFF7FEFF 		bl	lib_app_call
 169              	.LVL22:
 170 00b6 9420     		movs	r0, #148
 171 00b8 2946     		mov	r1, r5
 172 00ba FFF7FEFF 		bl	sys_func1
 173              	.LVL23:
 174              	.L7:
 175              	.LBE2:
 176              	.LBB3:
  89:src/menu.c    ****   DispLineMW("+[", MW_LINE1, MW_LEFT|MW_SPFONT);
 177              		.loc 1 89 0 is_stmt 1
 178 00be 9220     		movs	r0, #146
 179 00c0 0321     		movs	r1, #3
 180 00c2 FFF7FEFF 		bl	sys_func1
 181              	.LVL24:
 182 00c6 0546     		mov	r5, r0
 183              	.LVL25:
 184 00c8 98B1     		cbz	r0, .L8
 185              		.loc 1 89 0 is_stmt 0 discriminator 1
 186 00ca B549     		ldr	r1, .L133
 187 00cc 0222     		movs	r2, #2
ARM GAS  C:\Users\AHMED~1.ELE\AppData\Local\Temp\ccibgs93.s 			page 6


 188 00ce FFF7FEFF 		bl	memcpy
 189              	.LVL26:
 190 00d2 0023     		movs	r3, #0
 191 00d4 2521     		movs	r1, #37
 192 00d6 AB70     		strb	r3, [r5, #2]
 193 00d8 4FF40053 		mov	r3, #8192
 194 00dc 0F20     		movs	r0, #15
 195 00de 0093     		str	r3, [sp]
 196 00e0 2A46     		mov	r2, r5
 197 00e2 4FF48073 		mov	r3, #256
 198 00e6 FFF7FEFF 		bl	lib_app_call
 199              	.LVL27:
 200 00ea 9420     		movs	r0, #148
 201 00ec 2946     		mov	r1, r5
 202 00ee FFF7FEFF 		bl	sys_func1
 203              	.LVL28:
 204              	.L8:
 205              	.LBE3:
 206              	.LBB4:
  90:src/menu.c    ****   DispLineMW("]+", MW_LINE1, MW_RIGHT|MW_SPFONT);
 207              		.loc 1 90 0 is_stmt 1
 208 00f2 9220     		movs	r0, #146
 209 00f4 0321     		movs	r1, #3
 210 00f6 FFF7FEFF 		bl	sys_func1
 211              	.LVL29:
 212 00fa 0546     		mov	r5, r0
 213              	.LVL30:
 214 00fc 98B1     		cbz	r0, .L9
 215              		.loc 1 90 0 is_stmt 0 discriminator 1
 216 00fe A949     		ldr	r1, .L133+4
 217 0100 0222     		movs	r2, #2
 218 0102 FFF7FEFF 		bl	memcpy
 219              	.LVL31:
 220 0106 0023     		movs	r3, #0
 221 0108 2521     		movs	r1, #37
 222 010a AB70     		strb	r3, [r5, #2]
 223 010c 42F20103 		movw	r3, #8193
 224 0110 0F20     		movs	r0, #15
 225 0112 0093     		str	r3, [sp]
 226 0114 2A46     		mov	r2, r5
 227 0116 4FF48073 		mov	r3, #256
 228 011a FFF7FEFF 		bl	lib_app_call
 229              	.LVL32:
 230 011e 9420     		movs	r0, #148
 231 0120 2946     		mov	r1, r5
 232 0122 FFF7FEFF 		bl	sys_func1
 233              	.LVL33:
 234              	.L9:
 235              	.LBE4:
  91:src/menu.c    ****   memset(tmpbuf, ' ', sizeof(tmpbuf));
 236              		.loc 1 91 0 is_stmt 1
 237 0126 2021     		movs	r1, #32
 238 0128 1B22     		movs	r2, #27
 239 012a 13A8     		add	r0, sp, #76
 240 012c FFF7FEFF 		bl	memset
 241              	.LVL34:
  92:src/menu.c    ****   tmpbuf[max_line_size-2] = 0;
ARM GAS  C:\Users\AHMED~1.ELE\AppData\Local\Temp\ccibgs93.s 			page 7


 242              		.loc 1 92 0
 243 0130 079B     		ldr	r3, [sp, #28]
  93:src/menu.c    ****   sprintf(disp_buf, "|%s|", tmpbuf);
 244              		.loc 1 93 0
 245 0132 0CA8     		add	r0, sp, #48
  92:src/menu.c    ****   tmpbuf[max_line_size-2] = 0;
 246              		.loc 1 92 0
 247 0134 023B     		subs	r3, r3, #2
 248              		.loc 1 93 0
 249 0136 9C49     		ldr	r1, .L133+8
  92:src/menu.c    ****   tmpbuf[max_line_size-2] = 0;
 250              		.loc 1 92 0
 251 0138 0893     		str	r3, [sp, #32]
 252 013a 089A     		ldr	r2, [sp, #32]
 253 013c 1AAB     		add	r3, sp, #104
 254 013e 1344     		add	r3, r3, r2
 255 0140 0022     		movs	r2, #0
  94:src/menu.c    ****   for (line_no=MW_LINE2; line_no < max_line; line_no+=(MW_LINE2-MW_LINE1)) {
 256              		.loc 1 94 0
 257 0142 4FF40075 		mov	r5, #512
 258              	.LVL35:
  92:src/menu.c    ****   tmpbuf[max_line_size-2] = 0;
 259              		.loc 1 92 0
 260 0146 03F81C2C 		strb	r2, [r3, #-28]
  93:src/menu.c    ****   sprintf(disp_buf, "|%s|", tmpbuf);
 261              		.loc 1 93 0
 262 014a 13AA     		add	r2, sp, #76
 263 014c FFF7FEFF 		bl	sprintf
 264              	.LVL36:
 265              	.L11:
 266              	.LBB5:
  95:src/menu.c    ****     DispLineMW(disp_buf, line_no, MW_CENTER|MW_SPFONT);
 267              		.loc 1 95 0
 268 0150 0CA8     		add	r0, sp, #48
 269 0152 FFF7FEFF 		bl	strlen
 270              	.LVL37:
 271 0156 0746     		mov	r7, r0
 272              	.LVL38:
 273 0158 791C     		adds	r1, r7, #1
 274 015a 9220     		movs	r0, #146
 275              	.LVL39:
 276 015c FFF7FEFF 		bl	sys_func1
 277              	.LVL40:
 278 0160 0646     		mov	r6, r0
 279 0162 90B1     		cbz	r0, .L10
 280              		.loc 1 95 0 is_stmt 0 discriminator 1
 281 0164 0CA9     		add	r1, sp, #48
 282 0166 3A46     		mov	r2, r7
 283 0168 FFF7FEFF 		bl	memcpy
 284              	.LVL41:
 285 016c 0023     		movs	r3, #0
 286 016e 2521     		movs	r1, #37
 287 0170 F355     		strb	r3, [r6, r7]
 288 0172 42F20203 		movw	r3, #8194
 289 0176 0F20     		movs	r0, #15
 290 0178 0093     		str	r3, [sp]
 291 017a 3246     		mov	r2, r6
ARM GAS  C:\Users\AHMED~1.ELE\AppData\Local\Temp\ccibgs93.s 			page 8


 292 017c 2B46     		mov	r3, r5
 293 017e FFF7FEFF 		bl	lib_app_call
 294              	.LVL42:
 295 0182 9420     		movs	r0, #148
 296 0184 3146     		mov	r1, r6
 297 0186 FFF7FEFF 		bl	sys_func1
 298              	.LVL43:
 299              	.L10:
 300              	.LBE5:
  94:src/menu.c    ****   for (line_no=MW_LINE2; line_no < max_line; line_no+=(MW_LINE2-MW_LINE1)) {
 301              		.loc 1 94 0 is_stmt 1 discriminator 2
 302 018a 039B     		ldr	r3, [sp, #12]
 303 018c 05F58075 		add	r5, r5, #256
 304              	.LVL44:
 305 0190 9D42     		cmp	r5, r3
 306 0192 DDD3     		bcc	.L11
  96:src/menu.c    ****   }
  97:src/menu.c    ****   memset(tmpbuf, '-', sizeof(tmpbuf));
 307              		.loc 1 97 0
 308 0194 2D21     		movs	r1, #45
 309 0196 1B22     		movs	r2, #27
 310 0198 13A8     		add	r0, sp, #76
 311 019a FFF7FEFF 		bl	memset
 312              	.LVL45:
  98:src/menu.c    ****   tmpbuf[max_line_size-2] = 0;
 313              		.loc 1 98 0
 314 019e 089A     		ldr	r2, [sp, #32]
 315 01a0 1AAB     		add	r3, sp, #104
 316 01a2 1344     		add	r3, r3, r2
 317 01a4 0025     		movs	r5, #0
 318              	.LVL46:
  99:src/menu.c    ****   sprintf(disp_buf, "+%s+", tmpbuf);
 319              		.loc 1 99 0
 320 01a6 8149     		ldr	r1, .L133+12
 321 01a8 13AA     		add	r2, sp, #76
 322 01aa 0CA8     		add	r0, sp, #48
  98:src/menu.c    ****   tmpbuf[max_line_size-2] = 0;
 323              		.loc 1 98 0
 324 01ac 03F81C5C 		strb	r5, [r3, #-28]
 325              		.loc 1 99 0
 326 01b0 FFF7FEFF 		bl	sprintf
 327              	.LVL47:
 328              	.LBB6:
 100:src/menu.c    ****   DispLineMW(disp_buf, max_line, MW_CENTER|MW_SPFONT);
 329              		.loc 1 100 0
 330 01b4 0CA8     		add	r0, sp, #48
 331 01b6 FFF7FEFF 		bl	strlen
 332              	.LVL48:
 333 01ba 0746     		mov	r7, r0
 334              	.LVL49:
 335 01bc 791C     		adds	r1, r7, #1
 336 01be 9220     		movs	r0, #146
 337              	.LVL50:
 338 01c0 FFF7FEFF 		bl	sys_func1
 339              	.LVL51:
 340 01c4 0646     		mov	r6, r0
 341              	.LVL52:
ARM GAS  C:\Users\AHMED~1.ELE\AppData\Local\Temp\ccibgs93.s 			page 9


 342 01c6 88B1     		cbz	r0, .L12
 343              		.loc 1 100 0 is_stmt 0 discriminator 1
 344 01c8 0CA9     		add	r1, sp, #48
 345 01ca 3A46     		mov	r2, r7
 346 01cc FFF7FEFF 		bl	memcpy
 347              	.LVL53:
 348 01d0 42F20203 		movw	r3, #8194
 349 01d4 F555     		strb	r5, [r6, r7]
 350 01d6 2521     		movs	r1, #37
 351 01d8 0093     		str	r3, [sp]
 352 01da 0F20     		movs	r0, #15
 353 01dc 3246     		mov	r2, r6
 354 01de 039B     		ldr	r3, [sp, #12]
 355 01e0 FFF7FEFF 		bl	lib_app_call
 356              	.LVL54:
 357 01e4 9420     		movs	r0, #148
 358 01e6 3146     		mov	r1, r6
 359 01e8 FFF7FEFF 		bl	sys_func1
 360              	.LVL55:
 361              	.L12:
 362              	.LBE6:
 101:src/menu.c    **** 
 102:src/menu.c    ****   // Assign current selection
 103:src/menu.c    ****   curr_page = aCurrIndex / items_per_page;
 363              		.loc 1 103 0 is_stmt 1
 364 01ec 2046     		mov	r0, r4
 365 01ee 0299     		ldr	r1, [sp, #8]
 366 01f0 FFF7FEFF 		bl	__aeabi_idiv
 367              	.LVL56:
 104:src/menu.c    ****   start_idx = curr_page * items_per_page;
 368              		.loc 1 104 0
 369 01f4 029B     		ldr	r3, [sp, #8]
 105:src/menu.c    ****   entry_sel = aCurrIndex;
 370              		.loc 1 105 0
 371 01f6 0694     		str	r4, [sp, #24]
 104:src/menu.c    ****   start_idx = curr_page * items_per_page;
 372              		.loc 1 104 0
 373 01f8 03FB00F6 		mul	r6, r3, r0
 374              	.LVL57:
 103:src/menu.c    ****   start_idx = curr_page * items_per_page;
 375              		.loc 1 103 0
 376 01fc 0546     		mov	r5, r0
 377              	.LVL58:
 106:src/menu.c    **** 
 107:src/menu.c    ****   manual_entry = FALSE;
 378              		.loc 1 107 0
 379 01fe 0023     		movs	r3, #0
 380 0200 0593     		str	r3, [sp, #20]
 381              	.LVL59:
 382              	.L54:
 383 0202 4FEA4619 		lsl	r9, r6, #5
 108:src/menu.c    ****   while (1) {
 109:src/menu.c    ****     // Show Menu Item
 110:src/menu.c    ****     item_idx = start_idx;
 111:src/menu.c    ****     for (line_no=MW_LINE2; line_no < max_line; line_no+=(MW_LINE2-MW_LINE1)) {
 384              		.loc 1 111 0
 385 0206 4FF40077 		mov	r7, #512
ARM GAS  C:\Users\AHMED~1.ELE\AppData\Local\Temp\ccibgs93.s 			page 10


 107:src/menu.c    ****   while (1) {
 386              		.loc 1 107 0
 387 020a 0996     		str	r6, [sp, #36]
 388              	.LVL60:
 389              	.L20:
 112:src/menu.c    ****       if (aMenu->psMenuItem[item_idx].iID == -1)  break;
 390              		.loc 1 112 0
 391 020c D8F81830 		ldr	r3, [r8, #24]
 392 0210 03EB090B 		add	fp, r3, r9
 393 0214 53F80930 		ldr	r3, [r3, r9]
 394 0218 0133     		adds	r3, r3, #1
 395 021a 66D0     		beq	.L13
 113:src/menu.c    ****       memset(tmpbuf, ' ', sizeof(tmpbuf));
 396              		.loc 1 113 0
 397 021c 13A8     		add	r0, sp, #76
 398 021e 2021     		movs	r1, #32
 399 0220 1B22     		movs	r2, #27
 400 0222 FFF7FEFF 		bl	memset
 401              	.LVL61:
 114:src/menu.c    ****       if (aMenu->psMenuItem[item_idx].pcDesc == NULL)
 402              		.loc 1 114 0
 403 0226 DBF804A0 		ldr	r10, [fp, #4]
 404 022a BAF1000F 		cmp	r10, #0
 405 022e 04D1     		bne	.L14
 115:src/menu.c    ****         memcpy(tmpbuf, aMenu->psMenuItem[item_idx].scDescDat, sizeof(aMenu->psMenuItem[item_idx].sc
 406              		.loc 1 115 0
 407 0230 13A8     		add	r0, sp, #76
 408 0232 0BF10801 		add	r1, fp, #8
 409 0236 1822     		movs	r2, #24
 410 0238 05E0     		b	.L125
 411              	.L14:
 116:src/menu.c    ****       else
 117:src/menu.c    ****         memcpy(tmpbuf, aMenu->psMenuItem[item_idx].pcDesc, strlen(aMenu->psMenuItem[item_idx].pcDes
 412              		.loc 1 117 0
 413 023a 5046     		mov	r0, r10
 414 023c FFF7FEFF 		bl	strlen
 415              	.LVL62:
 416 0240 5146     		mov	r1, r10
 417 0242 0246     		mov	r2, r0
 418 0244 13A8     		add	r0, sp, #76
 419              	.L125:
 420 0246 FFF7FEFF 		bl	memcpy
 421              	.LVL63:
 118:src/menu.c    ****       tmpbuf[max_line_size-2-3] = 0;  // max desc = max size - border - (index + .)
 422              		.loc 1 118 0
 423 024a 079A     		ldr	r2, [sp, #28]
 424 024c 1AAB     		add	r3, sp, #104
 425 024e 1344     		add	r3, r3, r2
 426 0250 4FF0000A 		mov	r10, #0
 119:src/menu.c    ****       sprintf(disp_buf, "%02d.%s", aMenu->psMenuItem[item_idx].iID, tmpbuf);
 427              		.loc 1 119 0
 428 0254 0CA8     		add	r0, sp, #48
 118:src/menu.c    ****       tmpbuf[max_line_size-2-3] = 0;  // max desc = max size - border - (index + .)
 429              		.loc 1 118 0
 430 0256 03F821AC 		strb	r10, [r3, #-33]
 431              		.loc 1 119 0
 432 025a 5549     		ldr	r1, .L133+16
ARM GAS  C:\Users\AHMED~1.ELE\AppData\Local\Temp\ccibgs93.s 			page 11


 433 025c 13AB     		add	r3, sp, #76
 434 025e DBF80020 		ldr	r2, [fp]
 435 0262 FFF7FEFF 		bl	sprintf
 436              	.LVL64:
 120:src/menu.c    ****       if (item_idx == aCurrIndex) {
 437              		.loc 1 120 0
 438 0266 099B     		ldr	r3, [sp, #36]
 439              	.LBB7:
 121:src/menu.c    ****         DispLineMW(disp_buf, line_no+1, MW_REVERSE|MW_SPFONT);
 440              		.loc 1 121 0
 441 0268 0CA8     		add	r0, sp, #48
 442              	.LBE7:
 120:src/menu.c    ****       if (item_idx == aCurrIndex) {
 443              		.loc 1 120 0
 444 026a A342     		cmp	r3, r4
 445 026c 14D1     		bne	.L16
 446              	.LBB8:
 447              		.loc 1 121 0
 448 026e FFF7FEFF 		bl	strlen
 449              	.LVL65:
 450 0272 0346     		mov	r3, r0
 451              	.LVL66:
 452 0274 591C     		adds	r1, r3, #1
 453 0276 9220     		movs	r0, #146
 454              	.LVL67:
 455 0278 0B93     		str	r3, [sp, #44]
 456 027a FFF7FEFF 		bl	sys_func1
 457              	.LVL68:
 458 027e 8346     		mov	fp, r0
 459 0280 48B3     		cbz	r0, .L18
 460              		.loc 1 121 0 is_stmt 0 discriminator 1
 461 0282 0B9B     		ldr	r3, [sp, #44]
 462 0284 0CA9     		add	r1, sp, #48
 463 0286 1A46     		mov	r2, r3
 464 0288 FFF7FEFF 		bl	memcpy
 465              	.LVL69:
 466 028c 0B9B     		ldr	r3, [sp, #44]
 467 028e 0BF803A0 		strb	r10, [fp, r3]
 468 0292 42F21003 		movw	r3, #8208
 469 0296 13E0     		b	.L126
 470              	.LVL70:
 471              	.L16:
 472              	.LBE8:
 473              	.LBB9:
 122:src/menu.c    ****       }
 123:src/menu.c    ****       else {
 124:src/menu.c    ****         DispLineMW(disp_buf, line_no+1, MW_SPFONT);
 474              		.loc 1 124 0 is_stmt 1
 475 0298 FFF7FEFF 		bl	strlen
 476              	.LVL71:
 477 029c 0346     		mov	r3, r0
 478              	.LVL72:
 479 029e 591C     		adds	r1, r3, #1
 480 02a0 9220     		movs	r0, #146
 481              	.LVL73:
 482 02a2 0B93     		str	r3, [sp, #44]
 483 02a4 FFF7FEFF 		bl	sys_func1
ARM GAS  C:\Users\AHMED~1.ELE\AppData\Local\Temp\ccibgs93.s 			page 12


 484              	.LVL74:
 485 02a8 8346     		mov	fp, r0
 486 02aa A0B1     		cbz	r0, .L18
 487              		.loc 1 124 0 is_stmt 0 discriminator 1
 488 02ac 0B9B     		ldr	r3, [sp, #44]
 489 02ae 0CA9     		add	r1, sp, #48
 490 02b0 1A46     		mov	r2, r3
 491 02b2 FFF7FEFF 		bl	memcpy
 492              	.LVL75:
 493 02b6 0B9B     		ldr	r3, [sp, #44]
 494 02b8 0BF803A0 		strb	r10, [fp, r3]
 495 02bc 4FF40053 		mov	r3, #8192
 496              	.LVL76:
 497              	.L126:
 498 02c0 0093     		str	r3, [sp]
 499 02c2 2521     		movs	r1, #37
 500 02c4 0F20     		movs	r0, #15
 501 02c6 5A46     		mov	r2, fp
 502 02c8 7B1C     		adds	r3, r7, #1
 503 02ca FFF7FEFF 		bl	lib_app_call
 504              	.LVL77:
 505 02ce 9420     		movs	r0, #148
 506 02d0 5946     		mov	r1, fp
 507 02d2 FFF7FEFF 		bl	sys_func1
 508              	.LVL78:
 509              	.L18:
 510              	.LBE9:
 125:src/menu.c    ****       }
 126:src/menu.c    ****       item_idx++;
 511              		.loc 1 126 0 is_stmt 1 discriminator 2
 512 02d6 099B     		ldr	r3, [sp, #36]
 111:src/menu.c    ****       if (aMenu->psMenuItem[item_idx].iID == -1)  break;
 513              		.loc 1 111 0 discriminator 2
 514 02d8 07F58077 		add	r7, r7, #256
 515              	.LVL79:
 516              		.loc 1 126 0 discriminator 2
 517 02dc 0133     		adds	r3, r3, #1
 518 02de 09F12009 		add	r9, r9, #32
 519 02e2 0993     		str	r3, [sp, #36]
 520              	.LVL80:
 111:src/menu.c    ****       if (aMenu->psMenuItem[item_idx].iID == -1)  break;
 521              		.loc 1 111 0 discriminator 2
 522 02e4 039B     		ldr	r3, [sp, #12]
 523              	.LVL81:
 524 02e6 9F42     		cmp	r7, r3
 525 02e8 90D3     		bcc	.L20
 526              	.L13:
 127:src/menu.c    ****     }
 128:src/menu.c    ****     // Clear the rest line
 129:src/menu.c    ****     memset(disp_buf, ' ', sizeof(disp_buf));
 527              		.loc 1 129 0
 528 02ea 2021     		movs	r1, #32
 529 02ec 1B22     		movs	r2, #27
 530 02ee 0CA8     		add	r0, sp, #48
 531 02f0 FFF7FEFF 		bl	memset
 532              	.LVL82:
 130:src/menu.c    ****     disp_buf[max_line_size-2] = 0;
ARM GAS  C:\Users\AHMED~1.ELE\AppData\Local\Temp\ccibgs93.s 			page 13


 533              		.loc 1 130 0
 534 02f4 0899     		ldr	r1, [sp, #32]
 535 02f6 1AAB     		add	r3, sp, #104
 536 02f8 0022     		movs	r2, #0
 537 02fa 0B44     		add	r3, r3, r1
 538 02fc 03F8382C 		strb	r2, [r3, #-56]
 539              	.L21:
 131:src/menu.c    ****     for (; line_no < max_line; line_no+=(MW_LINE2-MW_LINE1)) {
 540              		.loc 1 131 0 discriminator 1
 541 0300 039B     		ldr	r3, [sp, #12]
 542 0302 9F42     		cmp	r7, r3
 543 0304 21D2     		bcs	.L132
 544              	.LBB10:
 132:src/menu.c    ****       DispLineMW(disp_buf, line_no+1, MW_SPFONT);
 545              		.loc 1 132 0
 546 0306 0CA8     		add	r0, sp, #48
 547 0308 FFF7FEFF 		bl	strlen
 548              	.LVL83:
 549 030c 8246     		mov	r10, r0
 550              	.LVL84:
 551 030e 0AF10101 		add	r1, r10, #1
 552 0312 9220     		movs	r0, #146
 553              	.LVL85:
 554 0314 FFF7FEFF 		bl	sys_func1
 555              	.LVL86:
 556 0318 8146     		mov	r9, r0
 557 031a 98B1     		cbz	r0, .L22
 558              		.loc 1 132 0 is_stmt 0 discriminator 1
 559 031c 0CA9     		add	r1, sp, #48
 560 031e 5246     		mov	r2, r10
 561 0320 FFF7FEFF 		bl	memcpy
 562              	.LVL87:
 563 0324 0023     		movs	r3, #0
 564 0326 2521     		movs	r1, #37
 565 0328 09F80A30 		strb	r3, [r9, r10]
 566 032c 4FF40053 		mov	r3, #8192
 567 0330 0F20     		movs	r0, #15
 568 0332 0093     		str	r3, [sp]
 569 0334 4A46     		mov	r2, r9
 570 0336 7B1C     		adds	r3, r7, #1
 571 0338 FFF7FEFF 		bl	lib_app_call
 572              	.LVL88:
 573 033c 9420     		movs	r0, #148
 574 033e 4946     		mov	r1, r9
 575 0340 FFF7FEFF 		bl	sys_func1
 576              	.LVL89:
 577              	.L22:
 578              	.LBE10:
 131:src/menu.c    ****     for (; line_no < max_line; line_no+=(MW_LINE2-MW_LINE1)) {
 579              		.loc 1 131 0 is_stmt 1
 580 0344 07F58077 		add	r7, r7, #256
 581              	.LVL90:
 582 0348 DAE7     		b	.L21
 583              	.LVL91:
 584              	.L132:
 585              	.LBB11:
 133:src/menu.c    ****     }
ARM GAS  C:\Users\AHMED~1.ELE\AppData\Local\Temp\ccibgs93.s 			page 14


 134:src/menu.c    **** 
 135:src/menu.c    ****     // Show Trailer line
 136:src/menu.c    ****     if (curr_page == 0) {
 137:src/menu.c    ****       DispLineMW("+---", max_line, MW_SPFONT);
 586              		.loc 1 137 0
 587 034a 9220     		movs	r0, #146
 588 034c 0521     		movs	r1, #5
 589              	.LBE11:
 136:src/menu.c    ****       DispLineMW("+---", max_line, MW_SPFONT);
 590              		.loc 1 136 0
 591 034e 4DB9     		cbnz	r5, .L24
 592              	.LVL92:
 593              	.LBB12:
 594              		.loc 1 137 0
 595 0350 FFF7FEFF 		bl	sys_func1
 596              	.LVL93:
 597 0354 0746     		mov	r7, r0
 598              	.LVL94:
 599 0356 E0B1     		cbz	r0, .L26
 600              		.loc 1 137 0 is_stmt 0 discriminator 1
 601 0358 1649     		ldr	r1, .L133+20
 602 035a 0422     		movs	r2, #4
 603 035c FFF7FEFF 		bl	memcpy
 604              	.LVL95:
 605 0360 3D71     		strb	r5, [r7, #4]
 606 0362 09E0     		b	.L127
 607              	.LVL96:
 608              	.L24:
 609              	.LBE12:
 610              	.LBB13:
 138:src/menu.c    ****     }
 139:src/menu.c    ****     else {
 140:src/menu.c    ****       DispLineMW("+<<<", max_line, MW_SPFONT);
 611              		.loc 1 140 0 is_stmt 1
 612 0364 FFF7FEFF 		bl	sys_func1
 613              	.LVL97:
 614 0368 0746     		mov	r7, r0
 615              	.LVL98:
 616 036a 90B1     		cbz	r0, .L26
 617              		.loc 1 140 0 is_stmt 0 discriminator 1
 618 036c 1249     		ldr	r1, .L133+24
 619 036e 0422     		movs	r2, #4
 620 0370 FFF7FEFF 		bl	memcpy
 621              	.LVL99:
 622 0374 0023     		movs	r3, #0
 623 0376 3B71     		strb	r3, [r7, #4]
 624              	.LVL100:
 625              	.L127:
 626 0378 4FF40053 		mov	r3, #8192
 627 037c 2521     		movs	r1, #37
 628 037e 0093     		str	r3, [sp]
 629 0380 0F20     		movs	r0, #15
 630 0382 3A46     		mov	r2, r7
 631 0384 039B     		ldr	r3, [sp, #12]
 632 0386 FFF7FEFF 		bl	lib_app_call
 633              	.LVL101:
 634 038a 9420     		movs	r0, #148
ARM GAS  C:\Users\AHMED~1.ELE\AppData\Local\Temp\ccibgs93.s 			page 15


 635 038c 3946     		mov	r1, r7
 636 038e FFF7FEFF 		bl	sys_func1
 637              	.LVL102:
 638              	.L26:
 639              	.LBE13:
 141:src/menu.c    ****     }
 142:src/menu.c    **** 
 143:src/menu.c    ****     sprintf(disp_buf, "[%02d] %02x/%02x", manual_entry?entry_sel:aMenu->psMenuItem[aCurrIndex].iID,
 640              		.loc 1 143 0 is_stmt 1
 641 0392 059B     		ldr	r3, [sp, #20]
 642 0394 93B9     		cbnz	r3, .L58
 643              		.loc 1 143 0 is_stmt 0 discriminator 2
 644 0396 D8F81820 		ldr	r2, [r8, #24]
 645 039a 6301     		lsls	r3, r4, #5
 646 039c D258     		ldr	r2, [r2, r3]
 647 039e 0EE0     		b	.L28
 648              	.L134:
 649              		.align	2
 650              	.L133:
 651 03a0 00000000 		.word	.LC0
 652 03a4 03000000 		.word	.LC1
 653 03a8 06000000 		.word	.LC2
 654 03ac 0B000000 		.word	.LC3
 655 03b0 10000000 		.word	.LC4
 656 03b4 18000000 		.word	.LC5
 657 03b8 1D000000 		.word	.LC6
 658              	.L58:
 659              		.loc 1 143 0
 660 03bc 069A     		ldr	r2, [sp, #24]
 661              	.L28:
 662              		.loc 1 143 0 discriminator 4
 663 03be 0A9B     		ldr	r3, [sp, #40]
 664 03c0 6F1C     		adds	r7, r5, #1
 665 03c2 7049     		ldr	r1, .L135
 666 03c4 0093     		str	r3, [sp]
 667 03c6 0CA8     		add	r0, sp, #48
 668 03c8 3B46     		mov	r3, r7
 669 03ca FFF7FEFF 		bl	sprintf
 670              	.LVL103:
 671              	.LBB14:
 144:src/menu.c    ****     DispLineMW(disp_buf, max_line+(max_line_size-strlen(disp_buf))/2, MW_SPFONT);
 672              		.loc 1 144 0 is_stmt 1 discriminator 4
 673 03ce 0CA8     		add	r0, sp, #48
 674 03d0 FFF7FEFF 		bl	strlen
 675              	.LVL104:
 676 03d4 8246     		mov	r10, r0
 677              	.LVL105:
 678 03d6 0AF10101 		add	r1, r10, #1
 679 03da 9220     		movs	r0, #146
 680              	.LVL106:
 681 03dc FFF7FEFF 		bl	sys_func1
 682              	.LVL107:
 683 03e0 8146     		mov	r9, r0
 684 03e2 D8B1     		cbz	r0, .L29
 685              		.loc 1 144 0 is_stmt 0 discriminator 1
 686 03e4 0CA9     		add	r1, sp, #48
 687 03e6 5246     		mov	r2, r10
ARM GAS  C:\Users\AHMED~1.ELE\AppData\Local\Temp\ccibgs93.s 			page 16


 688 03e8 FFF7FEFF 		bl	memcpy
 689              	.LVL108:
 690 03ec 0023     		movs	r3, #0
 691 03ee 0CA8     		add	r0, sp, #48
 692 03f0 09F80A30 		strb	r3, [r9, r10]
 693 03f4 FFF7FEFF 		bl	strlen
 694              	.LVL109:
 695 03f8 079B     		ldr	r3, [sp, #28]
 696 03fa 4FF40052 		mov	r2, #8192
 697 03fe 2521     		movs	r1, #37
 698 0400 C0EB030E 		rsb	lr, r0, r3
 699 0404 039B     		ldr	r3, [sp, #12]
 700 0406 0092     		str	r2, [sp]
 701 0408 0F20     		movs	r0, #15
 702 040a 4A46     		mov	r2, r9
 703 040c 03EB5E03 		add	r3, r3, lr, lsr #1
 704 0410 FFF7FEFF 		bl	lib_app_call
 705              	.LVL110:
 706 0414 9420     		movs	r0, #148
 707 0416 4946     		mov	r1, r9
 708 0418 FFF7FEFF 		bl	sys_func1
 709              	.LVL111:
 710              	.L29:
 711              	.LBE14:
 145:src/menu.c    **** 
 146:src/menu.c    ****     if (curr_page == no_of_page-1) {
 712              		.loc 1 146 0 is_stmt 1
 713 041c 0A9B     		ldr	r3, [sp, #40]
 714              	.LBB15:
 147:src/menu.c    ****       DispLineMW("---+", max_line, MW_RIGHT|MW_SPFONT);
 715              		.loc 1 147 0
 716 041e 9220     		movs	r0, #146
 717              	.LBE15:
 146:src/menu.c    ****       DispLineMW("---+", max_line, MW_RIGHT|MW_SPFONT);
 718              		.loc 1 146 0
 719 0420 03F1FF39 		add	r9, r3, #-1
 720              	.LVL112:
 721 0424 4D45     		cmp	r5, r9
 722              	.LBB16:
 723              		.loc 1 147 0
 724 0426 4FF00501 		mov	r1, #5
 725              	.LBE16:
 146:src/menu.c    ****       DispLineMW("---+", max_line, MW_RIGHT|MW_SPFONT);
 726              		.loc 1 146 0
 727 042a 05D1     		bne	.L30
 728              	.LVL113:
 729              	.LBB17:
 730              		.loc 1 147 0
 731 042c FFF7FEFF 		bl	sys_func1
 732              	.LVL114:
 733 0430 8246     		mov	r10, r0
 734              	.LVL115:
 735 0432 C8B1     		cbz	r0, .L32
 736              		.loc 1 147 0 is_stmt 0 discriminator 1
 737 0434 5449     		ldr	r1, .L135+4
 738 0436 04E0     		b	.L128
 739              	.LVL116:
ARM GAS  C:\Users\AHMED~1.ELE\AppData\Local\Temp\ccibgs93.s 			page 17


 740              	.L30:
 741              	.LBE17:
 742              	.LBB18:
 148:src/menu.c    ****     }
 149:src/menu.c    ****     else {
 150:src/menu.c    ****       DispLineMW(">>>+", max_line, MW_RIGHT|MW_SPFONT);
 743              		.loc 1 150 0 is_stmt 1
 744 0438 FFF7FEFF 		bl	sys_func1
 745              	.LVL117:
 746 043c 8246     		mov	r10, r0
 747              	.LVL118:
 748 043e 98B1     		cbz	r0, .L32
 749              		.loc 1 150 0 is_stmt 0 discriminator 1
 750 0440 5249     		ldr	r1, .L135+8
 751              	.LVL119:
 752              	.L128:
 753 0442 0422     		movs	r2, #4
 754 0444 FFF7FEFF 		bl	memcpy
 755              	.LVL120:
 756 0448 0023     		movs	r3, #0
 757 044a 2521     		movs	r1, #37
 758 044c 8AF80430 		strb	r3, [r10, #4]
 759              	.LVL121:
 760 0450 42F20103 		movw	r3, #8193
 761 0454 0F20     		movs	r0, #15
 762 0456 0093     		str	r3, [sp]
 763 0458 5246     		mov	r2, r10
 764 045a 039B     		ldr	r3, [sp, #12]
 765 045c FFF7FEFF 		bl	lib_app_call
 766              	.LVL122:
 767 0460 9420     		movs	r0, #148
 768 0462 5146     		mov	r1, r10
 769 0464 FFF7FEFF 		bl	sys_func1
 770              	.LVL123:
 771              	.L32:
 772              	.LBE18:
 151:src/menu.c    ****     }
 152:src/menu.c    **** 
 153:src/menu.c    ****     keyin = APM_WaitKey(KBD_TIMEOUT, 0);
 773              		.loc 1 153 0 is_stmt 1
 774 0468 4FF0000A 		mov	r10, #0
 775 046c 1020     		movs	r0, #16
 776 046e CDF800A0 		str	r10, [sp]
 777 0472 0321     		movs	r1, #3
 778 0474 42F22832 		movw	r2, #9000
 779 0478 5346     		mov	r3, r10
 780 047a FFF7FEFF 		bl	lib_app_call
 781              	.LVL124:
 154:src/menu.c    ****     if (keyin == MWKEY_CANCL) {
 782              		.loc 1 154 0
 783 047e 1128     		cmp	r0, #17
 784 0480 7BD0     		beq	.L59
 155:src/menu.c    ****       return -1;
 156:src/menu.c    ****     }
 157:src/menu.c    **** 
 158:src/menu.c    ****     // Selected
 159:src/menu.c    ****     if ((keyin == MWKEY_ENTER) || (keyin == MWKEY_SELECT)) {
ARM GAS  C:\Users\AHMED~1.ELE\AppData\Local\Temp\ccibgs93.s 			page 18


 785              		.loc 1 159 0
 786 0482 1028     		cmp	r0, #16
 787 0484 74D0     		beq	.L35
 788              		.loc 1 159 0 is_stmt 0 discriminator 1
 789 0486 4D28     		cmp	r0, #77
 790 0488 72D0     		beq	.L35
 160:src/menu.c    ****       break;
 161:src/menu.c    ****     }
 162:src/menu.c    **** 
 163:src/menu.c    ****     // id entered.
 164:src/menu.c    ****     if ((keyin >= MWKEY_0) && (keyin <= MWKEY_9)) {
 791              		.loc 1 164 0 is_stmt 1
 792 048a A0F13003 		sub	r3, r0, #48
 793 048e 092B     		cmp	r3, #9
 794 0490 04D8     		bhi	.L60
 165:src/menu.c    ****       if (manual_entry == FALSE) {
 795              		.loc 1 165 0
 796 0492 059A     		ldr	r2, [sp, #20]
 797 0494 2AB9     		cbnz	r2, .L129
 166:src/menu.c    ****         entry_sel = 0;
 798              		.loc 1 166 0
 799 0496 059A     		ldr	r2, [sp, #20]
 800 0498 0692     		str	r2, [sp, #24]
 801 049a 02E0     		b	.L129
 802              	.L60:
 167:src/menu.c    ****         manual_entry = TRUE;
 168:src/menu.c    ****       }
 169:src/menu.c    ****     }
 170:src/menu.c    ****     else
 171:src/menu.c    ****       manual_entry = FALSE;
 803              		.loc 1 171 0
 804 049c CDF814A0 		str	r10, [sp, #20]
 805 04a0 01E0     		b	.L36
 806              	.L129:
 167:src/menu.c    ****         manual_entry = TRUE;
 807              		.loc 1 167 0
 808 04a2 0122     		movs	r2, #1
 809 04a4 0592     		str	r2, [sp, #20]
 810              	.L36:
 811              	.LVL125:
 172:src/menu.c    **** 
 173:src/menu.c    ****     switch (keyin) {
 812              		.loc 1 173 0
 813 04a6 4328     		cmp	r0, #67
 814 04a8 1FD0     		beq	.L38
 815 04aa 0FD8     		bhi	.L39
 816 04ac 3928     		cmp	r0, #57
 817 04ae 09D8     		bhi	.L40
 818 04b0 3028     		cmp	r0, #48
 819 04b2 36D2     		bcs	.L41
 820 04b4 1228     		cmp	r0, #18
 821 04b6 54D1     		bne	.L37
 822              	.LVL126:
 174:src/menu.c    ****       case MWKEY_RIGHT:
 175:src/menu.c    ****       case MWKEY_FUNC1:
 176:src/menu.c    ****         if (curr_page < no_of_page-1) {
 177:src/menu.c    ****           curr_page++;
ARM GAS  C:\Users\AHMED~1.ELE\AppData\Local\Temp\ccibgs93.s 			page 19


 178:src/menu.c    ****           start_idx += items_per_page;
 179:src/menu.c    ****           aCurrIndex = start_idx;
 180:src/menu.c    ****           break;
 181:src/menu.c    ****         }
 182:src/menu.c    ****         LongBeep();
 183:src/menu.c    ****         break;
 184:src/menu.c    ****       case MWKEY_LEFT:
 185:src/menu.c    ****       case MWKEY_FUNC2:
 186:src/menu.c    ****         if (curr_page > 0) {
 187:src/menu.c    ****           curr_page--;
 188:src/menu.c    ****           start_idx -= items_per_page;
 189:src/menu.c    ****           aCurrIndex = start_idx;
 190:src/menu.c    ****           break;
 191:src/menu.c    ****         }
 192:src/menu.c    ****         LongBeep();
 193:src/menu.c    ****         break;
 194:src/menu.c    ****       case MWKEY_UP:
 195:src/menu.c    ****       case MWKEY_FUNC3:
 196:src/menu.c    ****         if ((aCurrIndex > 0)) {
 197:src/menu.c    ****           aCurrIndex--;
 198:src/menu.c    ****           if (aCurrIndex < start_idx) {
 199:src/menu.c    ****             curr_page--;
 200:src/menu.c    ****             start_idx -= items_per_page;
 201:src/menu.c    ****           }
 202:src/menu.c    ****           break;
 203:src/menu.c    ****         }
 204:src/menu.c    ****         LongBeep();
 205:src/menu.c    ****         break;
 206:src/menu.c    ****       case MWKEY_DN:
 207:src/menu.c    ****       case MWKEY_FUNC4:
 208:src/menu.c    ****         if ((aCurrIndex < no_of_item-1)) {
 209:src/menu.c    ****           aCurrIndex++;
 210:src/menu.c    ****           if (aCurrIndex >= start_idx+items_per_page) {
 211:src/menu.c    ****             start_idx += items_per_page;
 212:src/menu.c    ****             curr_page++;
 213:src/menu.c    ****           }
 214:src/menu.c    ****           break;
 215:src/menu.c    ****         }
 216:src/menu.c    ****         LongBeep();
 217:src/menu.c    ****         break;
 218:src/menu.c    ****       case MWKEY_0:
 219:src/menu.c    ****       case MWKEY_1:
 220:src/menu.c    ****       case MWKEY_2:
 221:src/menu.c    ****       case MWKEY_3:
 222:src/menu.c    ****       case MWKEY_4:
 223:src/menu.c    ****       case MWKEY_5:
 224:src/menu.c    ****       case MWKEY_6:
 225:src/menu.c    ****       case MWKEY_7:
 226:src/menu.c    ****       case MWKEY_8:
 227:src/menu.c    ****       case MWKEY_9:
 228:src/menu.c    ****         entry_sel *= 10;
 229:src/menu.c    ****         entry_sel += keyin - MWKEY_0;
 230:src/menu.c    ****         entry_sel %= 100;
 231:src/menu.c    ****         for (i = 0; i < no_of_item; i++) {
 232:src/menu.c    ****           if (entry_sel == aMenu->psMenuItem[i].iID) {
 233:src/menu.c    ****             aCurrIndex = i;
 234:src/menu.c    ****             curr_page = (i / items_per_page);
ARM GAS  C:\Users\AHMED~1.ELE\AppData\Local\Temp\ccibgs93.s 			page 20


 235:src/menu.c    ****             start_idx = curr_page * items_per_page;
 236:src/menu.c    ****             break;
 237:src/menu.c    ****           }
 238:src/menu.c    ****           if (entry_sel < aMenu->psMenuItem[i].iID)
 239:src/menu.c    ****             break;
 240:src/menu.c    ****         }
 241:src/menu.c    ****         break;
 242:src/menu.c    ****       case MWKEY_CLR:
 243:src/menu.c    ****         aCurrIndex = 0;
 244:src/menu.c    ****         curr_page = 0;
 823              		.loc 1 244 0
 824 04b8 0025     		movs	r5, #0
 245:src/menu.c    ****         start_idx = 0;
 246:src/menu.c    ****         LongBeep();
 825              		.loc 1 246 0
 826 04ba FFF7FEFF 		bl	LongBeep
 827              	.LVL127:
 245:src/menu.c    ****         start_idx = 0;
 828              		.loc 1 245 0
 829 04be 2E46     		mov	r6, r5
 243:src/menu.c    ****         curr_page = 0;
 830              		.loc 1 243 0
 831 04c0 2C46     		mov	r4, r5
 247:src/menu.c    ****         break;
 832              		.loc 1 247 0
 833 04c2 50E0     		b	.L47
 834              	.LVL128:
 835              	.L40:
 173:src/menu.c    ****       case MWKEY_RIGHT:
 836              		.loc 1 173 0
 837 04c4 4128     		cmp	r0, #65
 838 04c6 17D0     		beq	.L43
 839 04c8 4228     		cmp	r0, #66
 840 04ca 05E0     		b	.L130
 841              	.L39:
 842 04cc 4628     		cmp	r0, #70
 843 04ce 0CD0     		beq	.L38
 844 04d0 04D3     		bcc	.L45
 845 04d2 4728     		cmp	r0, #71
 846 04d4 10D0     		beq	.L43
 847 04d6 4828     		cmp	r0, #72
 848              	.L130:
 849 04d8 17D0     		beq	.L44
 850 04da 42E0     		b	.L37
 851              	.L45:
 176:src/menu.c    ****           curr_page++;
 852              		.loc 1 176 0
 853 04dc 4D45     		cmp	r5, r9
 854 04de 40DA     		bge	.L37
 855              	.LVL129:
 178:src/menu.c    ****           aCurrIndex = start_idx;
 856              		.loc 1 178 0
 857 04e0 029B     		ldr	r3, [sp, #8]
 177:src/menu.c    ****           start_idx += items_per_page;
 858              		.loc 1 177 0
 859 04e2 3D46     		mov	r5, r7
 178:src/menu.c    ****           aCurrIndex = start_idx;
ARM GAS  C:\Users\AHMED~1.ELE\AppData\Local\Temp\ccibgs93.s 			page 21


 860              		.loc 1 178 0
 861 04e4 F418     		adds	r4, r6, r3
 862              	.LVL130:
 863 04e6 2646     		mov	r6, r4
 180:src/menu.c    ****         }
 864              		.loc 1 180 0
 865 04e8 3DE0     		b	.L47
 866              	.LVL131:
 867              	.L38:
 186:src/menu.c    ****           curr_page--;
 868              		.loc 1 186 0
 869 04ea 002D     		cmp	r5, #0
 870 04ec 39DD     		ble	.L37
 188:src/menu.c    ****           aCurrIndex = start_idx;
 871              		.loc 1 188 0
 872 04ee 029B     		ldr	r3, [sp, #8]
 187:src/menu.c    ****           start_idx -= items_per_page;
 873              		.loc 1 187 0
 874 04f0 013D     		subs	r5, r5, #1
 875              	.LVL132:
 188:src/menu.c    ****           aCurrIndex = start_idx;
 876              		.loc 1 188 0
 877 04f2 F61A     		subs	r6, r6, r3
 878              	.LVL133:
 879 04f4 3446     		mov	r4, r6
 190:src/menu.c    ****         }
 880              		.loc 1 190 0
 881 04f6 36E0     		b	.L47
 882              	.LVL134:
 883              	.L43:
 196:src/menu.c    ****           aCurrIndex--;
 884              		.loc 1 196 0
 885 04f8 002C     		cmp	r4, #0
 886 04fa 32DD     		ble	.L37
 887              	.LVL135:
 197:src/menu.c    ****           if (aCurrIndex < start_idx) {
 888              		.loc 1 197 0
 889 04fc 013C     		subs	r4, r4, #1
 890              	.LVL136:
 198:src/menu.c    ****             curr_page--;
 891              		.loc 1 198 0
 892 04fe B442     		cmp	r4, r6
 893 0500 31DA     		bge	.L47
 200:src/menu.c    ****           }
 894              		.loc 1 200 0
 895 0502 029B     		ldr	r3, [sp, #8]
 199:src/menu.c    ****             start_idx -= items_per_page;
 896              		.loc 1 199 0
 897 0504 013D     		subs	r5, r5, #1
 898              	.LVL137:
 200:src/menu.c    ****           }
 899              		.loc 1 200 0
 900 0506 F61A     		subs	r6, r6, r3
 901              	.LVL138:
 902 0508 2DE0     		b	.L47
 903              	.L44:
 208:src/menu.c    ****           aCurrIndex++;
ARM GAS  C:\Users\AHMED~1.ELE\AppData\Local\Temp\ccibgs93.s 			page 22


 904              		.loc 1 208 0
 905 050a 049B     		ldr	r3, [sp, #16]
 906 050c 013B     		subs	r3, r3, #1
 907 050e 9C42     		cmp	r4, r3
 908 0510 27DA     		bge	.L37
 909              	.LVL139:
 210:src/menu.c    ****             start_idx += items_per_page;
 910              		.loc 1 210 0
 911 0512 029B     		ldr	r3, [sp, #8]
 209:src/menu.c    ****           if (aCurrIndex >= start_idx+items_per_page) {
 912              		.loc 1 209 0
 913 0514 0134     		adds	r4, r4, #1
 914              	.LVL140:
 210:src/menu.c    ****             start_idx += items_per_page;
 915              		.loc 1 210 0
 916 0516 F318     		adds	r3, r6, r3
 212:src/menu.c    ****           }
 917              		.loc 1 212 0
 918 0518 9C42     		cmp	r4, r3
 919 051a A4BF     		itt	ge
 920 051c 3D46     		movge	r5, r7
 921              	.LVL141:
 922 051e 1E46     		movge	r6, r3
 923              	.LVL142:
 924 0520 21E0     		b	.L47
 925              	.LVL143:
 926              	.L41:
 230:src/menu.c    ****         for (i = 0; i < no_of_item; i++) {
 927              		.loc 1 230 0
 928 0522 069A     		ldr	r2, [sp, #24]
 929 0524 0A20     		movs	r0, #10
 930              	.LVL144:
 931 0526 6421     		movs	r1, #100
 932 0528 00FB0230 		mla	r0, r0, r2, r3
 933              	.LVL145:
 934 052c FFF7FEFF 		bl	__aeabi_idivmod
 935              	.LVL146:
 231:src/menu.c    ****           if (entry_sel == aMenu->psMenuItem[i].iID) {
 936              		.loc 1 231 0
 937 0530 0027     		movs	r7, #0
 230:src/menu.c    ****         for (i = 0; i < no_of_item; i++) {
 938              		.loc 1 230 0
 939 0532 0691     		str	r1, [sp, #24]
 940              	.LVL147:
 941              	.L51:
 231:src/menu.c    ****           if (entry_sel == aMenu->psMenuItem[i].iID) {
 942              		.loc 1 231 0 discriminator 1
 943 0534 049B     		ldr	r3, [sp, #16]
 944 0536 9F42     		cmp	r7, r3
 945 0538 15D0     		beq	.L47
 232:src/menu.c    ****             aCurrIndex = i;
 946              		.loc 1 232 0
 947 053a D8F81820 		ldr	r2, [r8, #24]
 948 053e 7B01     		lsls	r3, r7, #5
 949 0540 D358     		ldr	r3, [r2, r3]
 950 0542 069A     		ldr	r2, [sp, #24]
 951 0544 9A42     		cmp	r2, r3
ARM GAS  C:\Users\AHMED~1.ELE\AppData\Local\Temp\ccibgs93.s 			page 23


 952 0546 09D1     		bne	.L52
 953              	.LVL148:
 234:src/menu.c    ****             start_idx = curr_page * items_per_page;
 954              		.loc 1 234 0
 955 0548 3846     		mov	r0, r7
 956 054a 0299     		ldr	r1, [sp, #8]
 957              	.LVL149:
 958 054c FFF7FEFF 		bl	__aeabi_idiv
 959              	.LVL150:
 235:src/menu.c    ****             break;
 960              		.loc 1 235 0
 961 0550 029B     		ldr	r3, [sp, #8]
 236:src/menu.c    ****           }
 962              		.loc 1 236 0
 963 0552 3C46     		mov	r4, r7
 234:src/menu.c    ****             start_idx = curr_page * items_per_page;
 964              		.loc 1 234 0
 965 0554 0546     		mov	r5, r0
 966              	.LVL151:
 235:src/menu.c    ****             break;
 967              		.loc 1 235 0
 968 0556 03FB00F6 		mul	r6, r3, r0
 969              	.LVL152:
 236:src/menu.c    ****           }
 970              		.loc 1 236 0
 971 055a 04E0     		b	.L47
 972              	.LVL153:
 973              	.L52:
 238:src/menu.c    ****             break;
 974              		.loc 1 238 0
 975 055c 03DB     		blt	.L47
 231:src/menu.c    ****           if (entry_sel == aMenu->psMenuItem[i].iID) {
 976              		.loc 1 231 0 discriminator 2
 977 055e 0137     		adds	r7, r7, #1
 978              	.LVL154:
 979 0560 E8E7     		b	.L51
 980              	.LVL155:
 981              	.L37:
 248:src/menu.c    ****       default:
 249:src/menu.c    ****         LongBeep();
 982              		.loc 1 249 0
 983 0562 FFF7FEFF 		bl	LongBeep
 984              	.LVL156:
 985              	.L47:
 250:src/menu.c    ****         break;
 251:src/menu.c    ****     }
 252:src/menu.c    ****     SleepMW();
 986              		.loc 1 252 0
 987 0566 4FF4CE70 		mov	r0, #412
 988 056a FFF7FEFF 		bl	sys_func0
 989              	.LVL157:
 253:src/menu.c    ****   }
 990              		.loc 1 253 0
 991 056e 48E6     		b	.L54
 992              	.LVL158:
 993              	.L35:
 254:src/menu.c    **** 
ARM GAS  C:\Users\AHMED~1.ELE\AppData\Local\Temp\ccibgs93.s 			page 24


 255:src/menu.c    ****   return aMenu->psMenuItem[aCurrIndex].iID;
 994              		.loc 1 255 0
 995 0570 D8F81830 		ldr	r3, [r8, #24]
 996 0574 6401     		lsls	r4, r4, #5
 997              	.LVL159:
 998 0576 1859     		ldr	r0, [r3, r4]
 999              	.LVL160:
 1000 0578 01E0     		b	.L34
 1001              	.LVL161:
 1002              	.L59:
 155:src/menu.c    ****     }
 1003              		.loc 1 155 0
 1004 057a 4FF0FF30 		mov	r0, #-1
 1005              	.LVL162:
 1006              	.L34:
 256:src/menu.c    **** }
 1007              		.loc 1 256 0
 1008 057e 1BB0     		add	sp, sp, #108
 1009              		.cfi_def_cfa_offset 36
 1010              		@ sp needed
 1011 0580 BDE8F08F 		pop	{r4, r5, r6, r7, r8, r9, r10, fp, pc}
 1012              	.LVL163:
 1013              	.L136:
 1014              		.align	2
 1015              	.L135:
 1016 0584 22000000 		.word	.LC7
 1017 0588 33000000 		.word	.LC8
 1018 058c 38000000 		.word	.LC9
 1019              		.cfi_endproc
 1020              	.LFE0:
 1021              		.size	MenuSelect, .-MenuSelect
 1022              		.section	.rodata.str1.1,"aMS",%progbits,1
 1023              	.LC0:
 1024 0000 2B5B00   		.ascii	"+[\000"
 1025              	.LC1:
 1026 0003 5D2B00   		.ascii	"]+\000"
 1027              	.LC2:
 1028 0006 7C25737C 		.ascii	"|%s|\000"
 1028      00
 1029              	.LC3:
 1030 000b 2B25732B 		.ascii	"+%s+\000"
 1030      00
 1031              	.LC4:
 1032 0010 25303264 		.ascii	"%02d.%s\000"
 1032      2E257300 
 1033              	.LC5:
 1034 0018 2B2D2D2D 		.ascii	"+---\000"
 1034      00
 1035              	.LC6:
 1036 001d 2B3C3C3C 		.ascii	"+<<<\000"
 1036      00
 1037              	.LC7:
 1038 0022 5B253032 		.ascii	"[%02d] %02x/%02x\000"
 1038      645D2025 
 1038      3032782F 
 1038      25303278 
 1038      00
ARM GAS  C:\Users\AHMED~1.ELE\AppData\Local\Temp\ccibgs93.s 			page 25


 1039              	.LC8:
 1040 0033 2D2D2D2B 		.ascii	"---+\000"
 1040      00
 1041              	.LC9:
 1042 0038 3E3E3E2B 		.ascii	">>>+\000"
 1042      00
 1043              		.text
 1044              	.Letext0:
 1045              		.file 2 "c:\\devtools\\gcc_v49_2014q4\\lib\\gcc\\arm-none-eabi\\4.9.3\\include\\stddef.h"
 1046              		.file 3 "../LibA5T1000/common.h"
 1047              		.file 4 "../LibA5T1000/midware.h"
 1048              		.file 5 "../LibA5T1000/apm.h"
 1049              		.file 6 "src/menu.h"
 1050              		.file 7 "c:\\devtools\\gcc_v49_2014q4\\arm-none-eabi\\include\\string.h"
 1051              		.file 8 "../LibA5T1000/system.h"
 1052              		.file 9 "c:\\devtools\\gcc_v49_2014q4\\arm-none-eabi\\include\\stdio.h"
 1053              		.file 10 "src/sysutil.h"