ARM GAS  C:\Users\ahmedhamed\AppData\Local\Temp\cc6RV2Fb.s 			page 1


   1              		.syntax unified
   2              		.cpu cortex-a5
   3              		.fpu softvfp
   4              		.eabi_attribute 20, 1
   5              		.eabi_attribute 21, 1
   6              		.eabi_attribute 23, 3
   7              		.eabi_attribute 24, 1
   8              		.eabi_attribute 25, 1
   9              		.eabi_attribute 26, 1
  10              		.eabi_attribute 30, 4
  11              		.eabi_attribute 34, 0
  12              		.eabi_attribute 18, 4
  13              		.thumb
  14              		.file	"message.c"
  15              		.text
  16              	.Ltext0:
  17              		.cfi_sections	.debug_frame
  18              		.section	.text.GetConstMsg,"ax",%progbits
  19              		.align	1
  20              		.global	GetConstMsg
  21              		.thumb
  22              		.thumb_func
  23              		.type	GetConstMsg, %function
  24              	GetConstMsg:
  25              	.LFB0:
  26              		.file 1 "src/message.c"
   1:src/message.c **** //-----------------------------------------------------------------------------
   2:src/message.c **** //  File          : message.c
   3:src/message.c **** //  Module        :
   4:src/message.c **** //  Description   : Include Message defination use by Application.
   5:src/message.c **** //  Author        : Lewis
   6:src/message.c **** //  Notes         :
   7:src/message.c **** //
   8:src/message.c **** // ============================================================================
   9:src/message.c **** // | Naming conventions                                                       |
  10:src/message.c **** // | ~~~~~~~~~~~~~~~~~~                                                       |
  11:src/message.c **** // |        Struct define : Leading T                                         |
  12:src/message.c **** // |         Struct/Array : Leading s                                         |
  13:src/message.c **** // |             Constant : Leading K                                         |
  14:src/message.c **** // |      Global Variable : Leading g  (variable use outside one C file)      |
  15:src/message.c **** // |                                                                          |
  16:src/message.c **** // |   BYTE( 8 Bits) size : Leading b                                         |
  17:src/message.c **** // |   CHAR( 8 Bits) size : Leading c                                         |
  18:src/message.c **** // |   WORD(16 Bits) size : Leading w                                         |
  19:src/message.c **** // |  DWORD(32 Bits) size : Leading d                                         |
  20:src/message.c **** // |    int(32 Bits) size : Leading i                                         |
  21:src/message.c **** // | DDWORD(64 Bits) size : Leading dd                                        |
  22:src/message.c **** // |              Pointer : Leading p                                         |
  23:src/message.c **** // |                                                                          |
  24:src/message.c **** // |    Function argument : Leading a                                         |
  25:src/message.c **** // |       Local Variable : All lower case                                    |
  26:src/message.c **** // |                                                                          |
  27:src/message.c **** // | Examples:                                                                |
  28:src/message.c **** // |                Array : Leading s, (sb = arrary of byte, etc)             |
  29:src/message.c **** // |              Pointer : Leading p, (pb = pointer of byte, etc)            |
  30:src/message.c **** // ============================================================================
  31:src/message.c **** //
ARM GAS  C:\Users\ahmedhamed\AppData\Local\Temp\cc6RV2Fb.s 			page 2


  32:src/message.c **** //  Date          Who         Action
  33:src/message.c **** //  ------------  ----------- -------------------------------------------------
  34:src/message.c **** //  29 Sept 2008  Lewis       Initial Version.
  35:src/message.c **** //-----------------------------------------------------------------------------
  36:src/message.c **** #include "message.h"
  37:src/message.c **** 
  38:src/message.c **** //-----------------------------------------------------------------------------
  39:src/message.c **** //   Generic message struct
  40:src/message.c **** //-----------------------------------------------------------------------------
  41:src/message.c **** struct CONST_MSG {
  42:src/message.c ****   DWORD d_msg_id;
  43:src/message.c ****   const char *pb_Msg;
  44:src/message.c **** };
  45:src/message.c **** //-----------------------------------------------------------------------------
  46:src/message.c **** //   Constants  messages
  47:src/message.c **** //-----------------------------------------------------------------------------
  48:src/message.c **** static const struct CONST_MSG KMessage[] = {
  49:src/message.c ****   // coremain.c
  50:src/message.c ****   {EDC_CO_SWIPE_INS         ,"SWIPE | INS CARD"},
  51:src/message.c ****   {EDC_CO_SWIPE_INS_TAP     ," SWIPE|INS|TAP  "},
  52:src/message.c ****   {EDC_CO_REMOVE_ICC        ,"                 PLS REMOVE ICC "},
  53:src/message.c ****   {EDC_CO_PROCESSING        ,"                 PROCESSING...  "},
  54:src/message.c **** 
  55:src/message.c ****   // Constant.c
  56:src/message.c ****   {EDC_CN_AUTH              ,"AUTH            "},
  57:src/message.c ****   {EDC_CN_SALE              ,"SALE            "},
  58:src/message.c ****   {EDC_CN_REFUND            ,"OFFLINE REFUND  "},
  59:src/message.c ****   {EDC_CN_OFFLINE           ,"OFFLINE SALE    "},
  60:src/message.c ****   {EDC_CN_SALE_COMP         ,"SALE COMP       "},
  61:src/message.c ****   {EDC_CN_VOID              ,"VOID            "},
  62:src/message.c ****   {EDC_CN_ADJUST            ,"ADJUST          "},
  63:src/message.c ****   {EDC_CN_UPLOAD            ,"UPLOAD          "},
  64:src/message.c ****   {EDC_CN_SETTLE            ,"SETTLEMENT      "},
  65:src/message.c ****   {EDC_CN_REVERSAL          ,"REVERSAL        "},
  66:src/message.c ****   {EDC_CN_TEST_MSG          ,"TEST MSG        "},
  67:src/message.c ****   {EDC_CN_SETT_ADV          ,"SETT ADV        "},
  68:src/message.c ****   {EDC_CN_TRANS_LAST        ,"SETT UPLOAD     "},
  69:src/message.c **** 
  70:src/message.c ****   // input.c
  71:src/message.c ****   {EDC_IN_CHK_DIGIT_ERROR   ,"                CHECK DIGIT ERR."},
  72:src/message.c ****   {EDC_IN_USE_ICC           ,"                 PLS INSERT ICC "},
  73:src/message.c ****   {EDC_IN_SWIPE_CARD        ,"                 PLS SWIPE CARD "},
  74:src/message.c ****   {EDC_IN_CORRECT           ,"                CORRECT ?       "},
  75:src/message.c ****   {EDC_IN_APP_CODE          ,"                APPV CODE       "},
  76:src/message.c ****   {EDC_IN_BASE_AMT          ,"                 BASE AMOUNT ?  "},
  77:src/message.c ****   {EDC_IN_ENTER_AMOUNT      ,"                  ENTER AMOUNT  "},
  78:src/message.c ****   {EDC_IN_ENTER_TIPS        ,"                ENTER TIP AMOUNT"},
  79:src/message.c ****   {EDC_IN_INV_TIPS          ,"                INVALID TIPS AMT"},
  80:src/message.c ****   {EDC_IN_TOTAL_PROMPT      ,"           TOTAL"},
  81:src/message.c ****   {EDC_IN_EXPIRY_DATE       ,"                EXPIRY DATE:MMYY"},
  82:src/message.c ****   {EDC_IN_INV_EXPIRE        ,"   EXPIRY DATE      INVALID!    "},
  83:src/message.c ****   {EDC_IN_CARD_EXPIRED      ,"                 CARD EXPIRED !!"},
  84:src/message.c ****   {EDC_IN_ENTER_DESC        ," SELECT PRODUCT "},
  85:src/message.c ****   {EDC_IN_4DBC              ,"                CARD SECURITY NO"},
  86:src/message.c ****   {EDC_IN_INVALID_CARD      ,"                  INVALID CARD  "},
  87:src/message.c ****   {EDC_IN_TRACE             ,"                RECEIPT NUMBER  "},
  88:src/message.c ****   {EDC_IN_ECRREF            ,"                ECR REFERENCE NO"},
ARM GAS  C:\Users\ahmedhamed\AppData\Local\Temp\cc6RV2Fb.s 			page 3


  89:src/message.c ****   {EDC_IN_CUR_ERROR         ,"               CURRECY ERROR    "},
  90:src/message.c **** 
  91:src/message.c ****   // Tranutil.c
  92:src/message.c ****   {EDC_TU_NOT_ALLOW         ,"  NOT ALLOWED                   "},
  93:src/message.c ****   {EDC_TU_CLOSE_BATCH       ,"PLS SETTLE BATCH                "},
  94:src/message.c **** 
  95:src/message.c ****   // Adjust.c
  96:src/message.c ****   {EDC_AJ_TOTAL_PROMPT      ,"           TOTAL"},
  97:src/message.c ****   {EDC_AJ_NOT_ALLOW         ,"   NOT ALLOWED                  "},
  98:src/message.c ****   {EDC_AJ_ENTER_NAMT        ,"      NEW AMOUNT"},
  99:src/message.c ****   {EDC_AJ_ENTER_NTIP        ,"        NEW TIP "},
 100:src/message.c ****   {EDC_AJ_BASE_AMT          ,"     BASE AMOUNT"},
 101:src/message.c ****   {EDC_AJ_TIPS_AMT          ,"      TIP AMOUNT"},
 102:src/message.c ****   {EDC_AJ_OVERLIMIT         ,"ADJUST OVR LIMIT                "},
 103:src/message.c ****   {EDC_AJ_TXN_VOIDED        ,"                 TRANS. VOIDED  "},
 104:src/message.c ****   {EDC_AJ_CLOSE_BATCH       ,"                PLS SETTLE BATCH"},
 105:src/message.c ****   {EDC_AJ_COMPLETED         ,"                TRANS. ACCEPTED "},
 106:src/message.c **** 
 107:src/message.c ****   // Void.c
 108:src/message.c ****   {EDC_VD_VOIDED            ," TRANS. VOIDED                  "},
 109:src/message.c ****   {EDC_VD_NOT_ALLOW         ,"   NOT ALLOWED                  "},
 110:src/message.c **** 
 111:src/message.c ****   // Func.c
 112:src/message.c ****   {EDC_FN_START_BATCH       ,"                 START OF BATCH "},
 113:src/message.c ****   {EDC_FN_END_BATCH         ,"                  END OF BATCH  "},
 114:src/message.c ****   {EDC_FN_CARD_TOTAL        ," TOTAL  BY CARD "},
 115:src/message.c ****   {EDC_FN_CARD_REC          ," BATCH  RECORDS "},
 116:src/message.c ****   {EDC_FN_CLR_BATCH         ,"  CLEAR BATCH ? "},
 117:src/message.c ****   {EDC_FN_BATCH_ERASE       ,"  BATCH ERASED! "},
 118:src/message.c ****   {EDC_FN_NO_REV            ,"                  NO  REVERSAL  "},
 119:src/message.c ****   {EDC_FN_CLR_REV           ,"CLEAR REVERSAL? "},
 120:src/message.c ****   {EDC_FN_REV_CLEAR         ,"REVERSAL CLEARED"},
 121:src/message.c ****   {EDC_FN_DISP_BATCH        ," DISPLAY  BATCH "},
 122:src/message.c ****   {EDC_FN_REPRINT_BATCH     ," REPRINT  BATCH "},
 123:src/message.c ****   {EDC_FN_PRINT_REPORT      ," CONFIG   REPORT"},
 124:src/message.c **** 
 125:src/message.c ****   // Lptutil.c
 126:src/message.c ****   {EDC_PN_PRINTING          ,"  PRINTING...                   "},
 127:src/message.c ****   {EDC_PN_MANUALCUT         ," PLS TEAR PAPER                 "},
 128:src/message.c ****   {EDC_PN_HIGHTEMP          ,"    HIGH TEMP                   "},
 129:src/message.c ****   {EDC_PN_NO_PAPER          ,"   NO PAPER                     "},
 130:src/message.c ****   {EDC_PN_PLS_REPRINT       ," PLEASE REPRINT                 "},
 131:src/message.c ****   {EDC_PN_PLS_WAIT          ,"  PLEASE WAIT                   "},
 132:src/message.c ****   {EDC_PN_LOW_BATT          ,"  LOW BATTERY                   "},
 133:src/message.c **** 
 134:src/message.c ****  // Message.c
 135:src/message.c ****   {EDC_RSP_COMPLETED        ,"                TRANS. ACCEPTED "},
 136:src/message.c ****   {EDC_RSP_CALL_ISSUER      ,"                PLS CALL ISSUER "},
 137:src/message.c ****   {EDC_RSP_REFERRAL         ,"                REFERRAL        "},
 138:src/message.c ****   {EDC_RSP_INVALID_MERCH    ,"                INVALID MERCHANT"},
 139:src/message.c ****   {EDC_RSP_PICKUP_CARD      ,"                  PICK UP CARD  "},
 140:src/message.c ****   {EDC_RSP_NOT_HONOUR       ,"                 DO NOT HONOUR  "},
 141:src/message.c ****   {EDC_RSP_APPV_ID          ,"                APPROVED WITH ID"},
 142:src/message.c ****   {EDC_RSP_BAD_PROC         ,"                BAD PROCESS CODE"},
 143:src/message.c ****   {EDC_RSP_BAD_AMOUNT       ,"                 INVALID AMOUNT "},
 144:src/message.c ****   {EDC_RSP_INVALID_ACC      ,"                INVALID ACCOUNT "},
 145:src/message.c ****   {EDC_RSP_RETRY            ,"                RE-ENTER TRANS. "},
ARM GAS  C:\Users\ahmedhamed\AppData\Local\Temp\cc6RV2Fb.s 			page 4


 146:src/message.c ****   {EDC_RSP_INVALID_TERM     ,"                INVALID TERMINAL"},
 147:src/message.c ****   {EDC_RSP_EDIT_ERROR       ,"                   EDIT ERROR   "},
 148:src/message.c ****   {EDC_RSP_UNKNOWN_CARD     ,"                  UNKNOWN CARD  "},
 149:src/message.c ****   {EDC_RSP_CALL_LC          ,"                PLEASE CALL - LC"},
 150:src/message.c ****   {EDC_RSP_CALL_CC          ,"                PLEASE CALL - CC"},
 151:src/message.c ****   {EDC_RSP_DECLINED         ,"                    DECLINED    "},
 152:src/message.c ****   {EDC_RSP_CARD_EXPIRED     ,"                 CARD EXPIRED !!"},
 153:src/message.c ****   {EDC_RSP_PIN_ERROR        ,"                 INCORRECT PIN  "},
 154:src/message.c ****   {EDC_RSP_INV_SERVICE      ,"                INVALID SERVICE "},
 155:src/message.c ****   {EDC_RSP_CONTACT_ACQ      ,"                CONTACT ACQUIRER"},
 156:src/message.c ****   {EDC_RSP_BAD_PROD         ,"                BAD PRODUCT CODE"},
 157:src/message.c ****   {EDC_RSP_TOT_MISMATCH     ,"                RECONCILE ERROR "},
 158:src/message.c ****   {EDC_RSP_ROC_NOT_FOUND    ,"                TRACE NOT FOUND "},
 159:src/message.c ****   {EDC_RSP_BAD_BATCH_NO     ,"                BAD BATCH NUMBER"},
 160:src/message.c ****   {EDC_RSP_BATCH_NOT_FOUND  ,"                BATCH NOT FOUND "},
 161:src/message.c ****   {EDC_RSP_CALL_AMEX        ,"                APPRV, CALL AMEX"},
 162:src/message.c ****   {EDC_RSP_BAD_TERMINAL_ID  ,"                BAD TERMINAL ID "},
 163:src/message.c ****   {EDC_RSP_SYS_NOT_AVAIL    ,"                SYSTEM NOT AVAIL"},
 164:src/message.c ****   {EDC_RSP_DUP_TRACE        ,"                DUPLICATE TRACE "},
 165:src/message.c ****   {EDC_RSP_BATCH_XFER       ,"                 BATCH TRANSFER "},
 166:src/message.c ****   {EDC_RSP_OTHER_REASON     ,"                INVALID MESSAGE "},
 167:src/message.c ****   {EDC_RSP_APP_CODE         ,"                APPV CODE       "},
 168:src/message.c ****   {EDC_RSP_LOW_BATT         ,"LOW BATTERY                     "},
 169:src/message.c ****   {EDC_RSP_CTL_TOI          ,"                TRY OTHER INTERF"},
 170:src/message.c ****   {EDC_RSP_CTL_DDA          ,"                   DDA FAILED   "},
 171:src/message.c ****   {EDC_RSP_CTL_OCARD        ,"                 OVERSEAS CARD  "},
 172:src/message.c ****   {EDC_RSP_CTL_REFER_MOBILE ,"                REFER TO MOBILE "},
 173:src/message.c ****   {EDC_RSP_TXN_CANCEL       ,"                TRANS. CANCELLED"},
 174:src/message.c ****   {EDC_RSP_DATA_ERROR       ,"                   DATA ERROR   "},
 175:src/message.c ****   {EDC_RSP_TRY_AGAIN_NC     ,"                PLS TRY AGAIN-NC"},
 176:src/message.c ****   {EDC_RSP_CALL_IP          ,"                CALL HELP - IP  "},
 177:src/message.c ****   {EDC_RSP_CALL_IR          ,"                CALL HELP - IR  "},
 178:src/message.c ****   {EDC_RSP_CALL_IS          ,"                CALL HELP - IS  "},
 179:src/message.c ****   {EDC_RSP_CALL_IT          ,"                CALL HELP - IT  "},
 180:src/message.c ****   {EDC_RSP_TRY_AGAIN_LC     ,"                PLS TRY AGAIN-LC"},
 181:src/message.c ****   {EDC_RSP_NO_DIALTONE      ,"  NO DIAL TONE                  "},
 182:src/message.c ****   {EDC_RSP_LINE_OCCUP       ,"                 LINE  OCCUPIED "},
 183:src/message.c ****   {EDC_RSP_SWIPE_CARD       ," PLS SWIPE CARD                 "},
 184:src/message.c ****   {EDC_RSP_READ_ERROR       ,"                CARD READ ERROR "},
 185:src/message.c ****   {EDC_RSP_CARD_BLOCKED     ,"                  CARD BLOCKED  "},
 186:src/message.c ****   {EDC_RSP_SWIPT_AE         ,"SWIPE  AMEX CARD                "},
 187:src/message.c ****   {EDC_RSP_SYS_ERROR        ,"                  SYSTEM ERROR  "},
 188:src/message.c ****   {EDC_RSP_RSP_TXN_ACP      ,"                TRANS. ACCEPTED "},
 189:src/message.c ****   {EDC_RSP_TRY_AGAING_TO    ,"PLS TRY AGAIN-TO                "},
 190:src/message.c ****   //{EDC_RSP_VERIFY_SIGN      ,"                VERIFY SIGNATURE"},
 191:src/message.c ****   {EDC_RSP_VERIFY_SIGN      ,"                TRANS. ACCEPTED "},
 192:src/message.c ****   {EDC_RSP_UNSUPPORT_CARD   ,"                UNSUPPORTED CARD"},
 193:src/message.c ****   {EDC_RSP_INVALID_CARD     ,"                 INVALID  CARD  "},
 194:src/message.c ****   {EDC_RSP_CALL_IC          ,"                CALL HELP - IC  "},
 195:src/message.c ****   {EDC_RSP_NO_REC           ,"                NO TRANS. RECORD"},
 196:src/message.c **** 
 197:src/message.c ****   // Settle.c
 198:src/message.c ****   {EDC_SE_BUS_DATE          ,"                BUS. DATE:  MMDD"},
 199:src/message.c ****   {EDC_SE_NO_BATCH          ,"                 NO BATCH TOTAL "},
 200:src/message.c ****   {EDC_SE_SALE_TOTAL        ,"            SALE"},
 201:src/message.c ****   {EDC_SE_REFUND_TOTAL      ,"          REFUND"},
 202:src/message.c ****   {EDC_SE_TOTAL_WRONG       ,"                TOTAL INCORRECT "},
ARM GAS  C:\Users\ahmedhamed\AppData\Local\Temp\cc6RV2Fb.s 			page 5


 203:src/message.c ****   {EDC_SE_ENTER_SALE_TOTAL  ,"                SALE TOTAL:     "},
 204:src/message.c ****   {EDC_SE_ENTER_REF_TOTAL   ,"                REFUND TOTAL:   "},
 205:src/message.c **** 
 206:src/message.c ****   // emvtrans.c
 207:src/message.c ****   {EDC_EMV_FATAL            ," EMV2 FATAL ERR!PLS CALL SERVICE"},
 208:src/message.c ****   {EDC_EMV_PROCESSING       ,"                 PROCESSING...  "},
 209:src/message.c ****   {EDC_EMV_SEL_APP          ,"                PLS SELECT?[Y/N]"},
 210:src/message.c ****   {EDC_EMV_CANNOT_SEL       ,"CANNOT SEL. APP.                "},
 211:src/message.c **** 
 212:src/message.c ****   // ctltrans.c
 213:src/message.c ****   {EDC_CTL_FATAL            ,"EMVCL FATAL ERR!PLS CALL SERVICE"},
 214:src/message.c ****   {EDC_CTL_PROCESSING       ,"                 PROCESSING...  "},
 215:src/message.c ****   {EDC_CTL_PREPROCESS_ERR   ,"                PRE-PROCESS ERR "},
 216:src/message.c ****   {EDC_CTL_TAP_CARD         ,"                  PLS TAP CARD  "},
 217:src/message.c ****   {EDC_CTL_AMT_EXCEED       ,"                AMT EXCEED LIMIT"},
 218:src/message.c ****   {EDC_CTL_CARD_READ_OK     ,"CARD READ OK\n  REMOVE CARD"},
 219:src/message.c **** 
 220:src/message.c ****   // network.c
 221:src/message.c ****   {EDC_NET_INIT             ,"  NETWORK INIT      PLS WAIT    "},
 222:src/message.c **** 
 223:src/message.c ****   {EDC_MSG_END              ,NULL},
 224:src/message.c **** } ;
 225:src/message.c **** 
 226:src/message.c **** // Response Message
 227:src/message.c **** const struct RSP_TEXT KRspText[] = {
 228:src/message.c ****   {'0'*256+'0',EDC_RSP_COMPLETED               },
 229:src/message.c ****   {'0'*256+'1',EDC_RSP_CALL_ISSUER             },
 230:src/message.c ****   {'0'*256+'2',EDC_RSP_REFERRAL                },
 231:src/message.c ****   {'0'*256+'3',EDC_RSP_INVALID_MERCH           },
 232:src/message.c ****   {'0'*256+'4',EDC_RSP_PICKUP_CARD             },
 233:src/message.c ****   {'0'*256+'5',EDC_RSP_NOT_HONOUR              },
 234:src/message.c ****   {'0'*256+'8',EDC_RSP_APPV_ID                 },
 235:src/message.c ****   {'1'*256+'2',EDC_RSP_BAD_PROC                },
 236:src/message.c ****   {'1'*256+'3',EDC_RSP_BAD_AMOUNT              },
 237:src/message.c ****   {'1'*256+'4',EDC_RSP_INVALID_ACC             },
 238:src/message.c ****   {'1'*256+'9',EDC_RSP_RETRY                   },
 239:src/message.c ****   {'2'*256+'5',EDC_RSP_INVALID_TERM            },
 240:src/message.c ****   {'3'*256+'0',EDC_RSP_EDIT_ERROR              },
 241:src/message.c ****   {'3'*256+'1',EDC_RSP_UNKNOWN_CARD            },
 242:src/message.c ****   {'4'*256+'1',EDC_RSP_CALL_LC                 },
 243:src/message.c ****   {'4'*256+'3',EDC_RSP_CALL_CC                 },
 244:src/message.c ****   {'5'*256+'1',EDC_RSP_DECLINED                },
 245:src/message.c ****   {'5'*256+'4',EDC_RSP_CARD_EXPIRED            },
 246:src/message.c ****   {'5'*256+'5',EDC_RSP_PIN_ERROR               },
 247:src/message.c ****   {'5'*256+'8',EDC_RSP_INV_SERVICE             },
 248:src/message.c ****   {'6'*256+'0',EDC_RSP_CONTACT_ACQ             },
 249:src/message.c ****   {'7'*256+'6',EDC_RSP_BAD_PROD                },
 250:src/message.c ****   {'7'*256+'7',EDC_RSP_TOT_MISMATCH            },
 251:src/message.c ****   {'7'*256+'8',EDC_RSP_ROC_NOT_FOUND           },
 252:src/message.c ****   {'8'*256+'0',EDC_RSP_BAD_BATCH_NO            },
 253:src/message.c ****   {'8'*256+'5',EDC_RSP_BATCH_NOT_FOUND         },
 254:src/message.c ****   {'8'*256+'8',EDC_RSP_CALL_AMEX               },
 255:src/message.c ****   {'8'*256+'9',EDC_RSP_BAD_TERMINAL_ID         },
 256:src/message.c ****   {'9'*256+'1',EDC_RSP_SYS_NOT_AVAIL           },
 257:src/message.c ****   {'9'*256+'4',EDC_RSP_DUP_TRACE               },
 258:src/message.c ****   {'9'*256+'5',EDC_RSP_BATCH_XFER              },
 259:src/message.c ****   {'9'*256+'6',EDC_RSP_OTHER_REASON            },
ARM GAS  C:\Users\ahmedhamed\AppData\Local\Temp\cc6RV2Fb.s 			page 6


 260:src/message.c ****   {'A'*256+'P',EDC_RSP_APP_CODE                },
 261:src/message.c ****   {'B'*256+'L',EDC_RSP_LOW_BATT                },
 262:src/message.c ****   {'C'*256+'0',EDC_RSP_CTL_TOI                 },
 263:src/message.c ****   {'C'*256+'1',EDC_RSP_CTL_DDA                 },
 264:src/message.c ****   {'C'*256+'2',EDC_RSP_CTL_OCARD               },
 265:src/message.c ****   {'C'*256+'3',EDC_RSP_CTL_REFER_MOBILE        },
 266:src/message.c ****   {'C'*256+'N',EDC_RSP_TXN_CANCEL              },
 267:src/message.c ****   {'D'*256+'E',EDC_RSP_DATA_ERROR              },
 268:src/message.c ****   {'H'*256+'O',EDC_RSP_TRY_AGAIN_NC            },
 269:src/message.c ****   {'I'*256+'P',EDC_RSP_CALL_IP                 },
 270:src/message.c ****   {'I'*256+'R',EDC_RSP_CALL_IR                 },
 271:src/message.c ****   {'I'*256+'S',EDC_RSP_CALL_IS                 },
 272:src/message.c ****   {'I'*256+'T',EDC_RSP_CALL_IT                 },
 273:src/message.c ****   {'L'*256+'C',EDC_RSP_TRY_AGAIN_LC            },
 274:src/message.c ****   {'L'*256+'N',EDC_RSP_NO_DIALTONE             },
 275:src/message.c ****   {'L'*256+'O',EDC_RSP_LINE_OCCUP              },
 276:src/message.c ****   {'M'*256+'A',EDC_RSP_SWIPE_CARD              },
 277:src/message.c ****   {'N'*256+'C',EDC_RSP_TRY_AGAIN_NC            },
 278:src/message.c ****   {'N'*256+'T',EDC_RSP_NO_REC                  },
 279:src/message.c ****   {'R'*256+'E',EDC_RSP_READ_ERROR              },
 280:src/message.c ****   {'S'*256+'B',EDC_RSP_CARD_BLOCKED            },
 281:src/message.c ****   {'S'*256+'C',EDC_RSP_SWIPT_AE                },
 282:src/message.c ****   {'S'*256+'E',EDC_RSP_SYS_ERROR               },
 283:src/message.c ****   {'T'*256+'A',EDC_RSP_RSP_TXN_ACP             },
 284:src/message.c ****   {'T'*256+'O',EDC_RSP_TRY_AGAING_TO           },
 285:src/message.c ****   {'V'*256+'S',EDC_RSP_VERIFY_SIGN             },
 286:src/message.c ****   {'U'*256+'C',EDC_RSP_UNSUPPORT_CARD          },
 287:src/message.c ****   {'*'*256+'*',EDC_RSP_CALL_IC                 },
 288:src/message.c **** };
 289:src/message.c **** //*****************************************************************************
 290:src/message.c **** //  Function        : GetConstMsg
 291:src/message.c **** //  Description     : Get Message pointer base on the config.
 292:src/message.c **** //  Input           : aMsgId;     // KMessage id;
 293:src/message.c **** //  Return          : pointer to KMessage
 294:src/message.c **** //  Note            : N/A
 295:src/message.c **** //  Globals Changed : N/A
 296:src/message.c **** //*****************************************************************************
 297:src/message.c **** BYTE *GetConstMsg(DWORD aMsgId)
 298:src/message.c **** {
  27              		.loc 1 298 0
  28              		.cfi_startproc
  29              		@ args = 0, pretend = 0, frame = 0
  30              		@ frame_needed = 0, uses_anonymous_args = 0
  31              		@ link register save eliminated.
  32              	.LVL0:
 299:src/message.c ****   return ((BYTE *)KMessage[aMsgId].pb_Msg);
  33              		.loc 1 299 0
  34 0000 024B     		ldr	r3, .L2
  35 0002 03EBC000 		add	r0, r3, r0, lsl #3
  36              	.LVL1:
 300:src/message.c **** }
  37              		.loc 1 300 0
  38 0006 4068     		ldr	r0, [r0, #4]
  39 0008 7047     		bx	lr
  40              	.L3:
  41 000a 00BF     		.align	2
  42              	.L2:
ARM GAS  C:\Users\ahmedhamed\AppData\Local\Temp\cc6RV2Fb.s 			page 7


  43 000c 00000000 		.word	.LANCHOR0
  44              		.cfi_endproc
  45              	.LFE0:
  46              		.size	GetConstMsg, .-GetConstMsg
  47              		.global	KRspText
  48              		.section	.rodata
  49              		.align	2
  50              		.set	.LANCHOR0,. + 0
  51              		.type	KMessage, %object
  52              		.size	KMessage, 1184
  53              	KMessage:
  54 0000 00000000 		.word	0
  55 0004 00000000 		.word	.LC0
  56 0008 01000000 		.word	1
  57 000c 11000000 		.word	.LC1
  58 0010 02000000 		.word	2
  59 0014 22000000 		.word	.LC2
  60 0018 03000000 		.word	3
  61 001c 43000000 		.word	.LC3
  62 0020 04000000 		.word	4
  63 0024 64000000 		.word	.LC4
  64 0028 05000000 		.word	5
  65 002c 75000000 		.word	.LC5
  66 0030 06000000 		.word	6
  67 0034 86000000 		.word	.LC6
  68 0038 07000000 		.word	7
  69 003c 97000000 		.word	.LC7
  70 0040 08000000 		.word	8
  71 0044 A8000000 		.word	.LC8
  72 0048 09000000 		.word	9
  73 004c B9000000 		.word	.LC9
  74 0050 0A000000 		.word	10
  75 0054 CA000000 		.word	.LC10
  76 0058 0B000000 		.word	11
  77 005c DB000000 		.word	.LC11
  78 0060 0C000000 		.word	12
  79 0064 EC000000 		.word	.LC12
  80 0068 0D000000 		.word	13
  81 006c FD000000 		.word	.LC13
  82 0070 0E000000 		.word	14
  83 0074 0E010000 		.word	.LC14
  84 0078 0F000000 		.word	15
  85 007c 1F010000 		.word	.LC15
  86 0080 10000000 		.word	16
  87 0084 30010000 		.word	.LC16
  88 0088 11000000 		.word	17
  89 008c 41010000 		.word	.LC17
  90 0090 12000000 		.word	18
  91 0094 62010000 		.word	.LC18
  92 0098 13000000 		.word	19
  93 009c 83010000 		.word	.LC19
  94 00a0 14000000 		.word	20
  95 00a4 A4010000 		.word	.LC20
  96 00a8 15000000 		.word	21
  97 00ac C5010000 		.word	.LC21
  98 00b0 16000000 		.word	22
  99 00b4 E6010000 		.word	.LC22
ARM GAS  C:\Users\ahmedhamed\AppData\Local\Temp\cc6RV2Fb.s 			page 8


 100 00b8 17000000 		.word	23
 101 00bc 07020000 		.word	.LC23
 102 00c0 18000000 		.word	24
 103 00c4 28020000 		.word	.LC24
 104 00c8 19000000 		.word	25
 105 00cc 49020000 		.word	.LC25
 106 00d0 1A000000 		.word	26
 107 00d4 6A020000 		.word	.LC26
 108 00d8 1B000000 		.word	27
 109 00dc 7B020000 		.word	.LC27
 110 00e0 1C000000 		.word	28
 111 00e4 9C020000 		.word	.LC28
 112 00e8 1D000000 		.word	29
 113 00ec BD020000 		.word	.LC29
 114 00f0 1E000000 		.word	30
 115 00f4 DE020000 		.word	.LC30
 116 00f8 1F000000 		.word	31
 117 00fc EF020000 		.word	.LC31
 118 0100 20000000 		.word	32
 119 0104 10030000 		.word	.LC32
 120 0108 21000000 		.word	33
 121 010c 31030000 		.word	.LC33
 122 0110 22000000 		.word	34
 123 0114 52030000 		.word	.LC34
 124 0118 23000000 		.word	35
 125 011c 73030000 		.word	.LC35
 126 0120 24000000 		.word	36
 127 0124 94030000 		.word	.LC36
 128 0128 25000000 		.word	37
 129 012c B5030000 		.word	.LC37
 130 0130 26000000 		.word	38
 131 0134 6A020000 		.word	.LC26
 132 0138 27000000 		.word	39
 133 013c D6030000 		.word	.LC38
 134 0140 28000000 		.word	40
 135 0144 F7030000 		.word	.LC39
 136 0148 29000000 		.word	41
 137 014c 08040000 		.word	.LC40
 138 0150 2A000000 		.word	42
 139 0154 19040000 		.word	.LC41
 140 0158 2B000000 		.word	43
 141 015c 2A040000 		.word	.LC42
 142 0160 2C000000 		.word	44
 143 0164 3B040000 		.word	.LC43
 144 0168 2D000000 		.word	45
 145 016c 5C040000 		.word	.LC44
 146 0170 2E000000 		.word	46
 147 0174 7D040000 		.word	.LC45
 148 0178 2F000000 		.word	47
 149 017c 9E040000 		.word	.LC46
 150 0180 30000000 		.word	48
 151 0184 BF040000 		.word	.LC47
 152 0188 31000000 		.word	49
 153 018c D6030000 		.word	.LC38
 154 0190 32000000 		.word	50
 155 0194 E0040000 		.word	.LC48
 156 0198 33000000 		.word	51
ARM GAS  C:\Users\ahmedhamed\AppData\Local\Temp\cc6RV2Fb.s 			page 9


 157 019c 01050000 		.word	.LC49
 158 01a0 34000000 		.word	52
 159 01a4 22050000 		.word	.LC50
 160 01a8 35000000 		.word	53
 161 01ac 33050000 		.word	.LC51
 162 01b0 36000000 		.word	54
 163 01b4 44050000 		.word	.LC52
 164 01b8 37000000 		.word	55
 165 01bc 55050000 		.word	.LC53
 166 01c0 38000000 		.word	56
 167 01c4 66050000 		.word	.LC54
 168 01c8 39000000 		.word	57
 169 01cc 87050000 		.word	.LC55
 170 01d0 3A000000 		.word	58
 171 01d4 98050000 		.word	.LC56
 172 01d8 3B000000 		.word	59
 173 01dc A9050000 		.word	.LC57
 174 01e0 3C000000 		.word	60
 175 01e4 BA050000 		.word	.LC58
 176 01e8 3D000000 		.word	61
 177 01ec CB050000 		.word	.LC59
 178 01f0 3E000000 		.word	62
 179 01f4 DC050000 		.word	.LC60
 180 01f8 3F000000 		.word	63
 181 01fc FD050000 		.word	.LC61
 182 0200 40000000 		.word	64
 183 0204 1E060000 		.word	.LC62
 184 0208 41000000 		.word	65
 185 020c 3F060000 		.word	.LC63
 186 0210 42000000 		.word	66
 187 0214 60060000 		.word	.LC64
 188 0218 43000000 		.word	67
 189 021c 81060000 		.word	.LC65
 190 0220 44000000 		.word	68
 191 0224 A2060000 		.word	.LC66
 192 0228 45000000 		.word	69
 193 022c 9E040000 		.word	.LC46
 194 0230 46000000 		.word	70
 195 0234 C3060000 		.word	.LC67
 196 0238 47000000 		.word	71
 197 023c E4060000 		.word	.LC68
 198 0240 48000000 		.word	72
 199 0244 05070000 		.word	.LC69
 200 0248 49000000 		.word	73
 201 024c 26070000 		.word	.LC70
 202 0250 4A000000 		.word	74
 203 0254 47070000 		.word	.LC71
 204 0258 4B000000 		.word	75
 205 025c 68070000 		.word	.LC72
 206 0260 4C000000 		.word	76
 207 0264 89070000 		.word	.LC73
 208 0268 4D000000 		.word	77
 209 026c AA070000 		.word	.LC74
 210 0270 4E000000 		.word	78
 211 0274 CB070000 		.word	.LC75
 212 0278 4F000000 		.word	79
 213 027c EC070000 		.word	.LC76
ARM GAS  C:\Users\ahmedhamed\AppData\Local\Temp\cc6RV2Fb.s 			page 10


 214 0280 50000000 		.word	80
 215 0284 0D080000 		.word	.LC77
 216 0288 51000000 		.word	81
 217 028c 2E080000 		.word	.LC78
 218 0290 52000000 		.word	82
 219 0294 4F080000 		.word	.LC79
 220 0298 53000000 		.word	83
 221 029c 70080000 		.word	.LC80
 222 02a0 54000000 		.word	84
 223 02a4 91080000 		.word	.LC81
 224 02a8 55000000 		.word	85
 225 02ac B2080000 		.word	.LC82
 226 02b0 56000000 		.word	86
 227 02b4 BD020000 		.word	.LC29
 228 02b8 57000000 		.word	87
 229 02bc D3080000 		.word	.LC83
 230 02c0 58000000 		.word	88
 231 02c4 F4080000 		.word	.LC84
 232 02c8 59000000 		.word	89
 233 02cc 15090000 		.word	.LC85
 234 02d0 5A000000 		.word	90
 235 02d4 36090000 		.word	.LC86
 236 02d8 5B000000 		.word	91
 237 02dc 57090000 		.word	.LC87
 238 02e0 5C000000 		.word	92
 239 02e4 78090000 		.word	.LC88
 240 02e8 5D000000 		.word	93
 241 02ec 99090000 		.word	.LC89
 242 02f0 5E000000 		.word	94
 243 02f4 BA090000 		.word	.LC90
 244 02f8 5F000000 		.word	95
 245 02fc DB090000 		.word	.LC91
 246 0300 60000000 		.word	96
 247 0304 FC090000 		.word	.LC92
 248 0308 61000000 		.word	97
 249 030c 1D0A0000 		.word	.LC93
 250 0310 62000000 		.word	98
 251 0314 3E0A0000 		.word	.LC94
 252 0318 63000000 		.word	99
 253 031c 5F0A0000 		.word	.LC95
 254 0320 64000000 		.word	100
 255 0324 800A0000 		.word	.LC96
 256 0328 65000000 		.word	101
 257 032c C5010000 		.word	.LC21
 258 0330 66000000 		.word	102
 259 0334 A10A0000 		.word	.LC97
 260 0338 67000000 		.word	103
 261 033c C20A0000 		.word	.LC98
 262 0340 68000000 		.word	104
 263 0344 E30A0000 		.word	.LC99
 264 0348 69000000 		.word	105
 265 034c 040B0000 		.word	.LC100
 266 0350 6A000000 		.word	106
 267 0354 250B0000 		.word	.LC101
 268 0358 6B000000 		.word	107
 269 035c 460B0000 		.word	.LC102
 270 0360 6C000000 		.word	108
ARM GAS  C:\Users\ahmedhamed\AppData\Local\Temp\cc6RV2Fb.s 			page 11


 271 0364 670B0000 		.word	.LC103
 272 0368 6D000000 		.word	109
 273 036c 880B0000 		.word	.LC104
 274 0370 6E000000 		.word	110
 275 0374 A90B0000 		.word	.LC105
 276 0378 6F000000 		.word	111
 277 037c CA0B0000 		.word	.LC106
 278 0380 70000000 		.word	112
 279 0384 EB0B0000 		.word	.LC107
 280 0388 71000000 		.word	113
 281 038c 0C0C0000 		.word	.LC108
 282 0390 72000000 		.word	114
 283 0394 2D0C0000 		.word	.LC109
 284 0398 73000000 		.word	115
 285 039c 4E0C0000 		.word	.LC110
 286 03a0 74000000 		.word	116
 287 03a4 6F0C0000 		.word	.LC111
 288 03a8 75000000 		.word	117
 289 03ac 900C0000 		.word	.LC112
 290 03b0 76000000 		.word	118
 291 03b4 B10C0000 		.word	.LC113
 292 03b8 77000000 		.word	119
 293 03bc D20C0000 		.word	.LC114
 294 03c0 78000000 		.word	120
 295 03c4 F30C0000 		.word	.LC115
 296 03c8 79000000 		.word	121
 297 03cc 140D0000 		.word	.LC116
 298 03d0 7A000000 		.word	122
 299 03d4 9E040000 		.word	.LC46
 300 03d8 7B000000 		.word	123
 301 03dc 350D0000 		.word	.LC117
 302 03e0 7C000000 		.word	124
 303 03e4 9E040000 		.word	.LC46
 304 03e8 7D000000 		.word	125
 305 03ec 560D0000 		.word	.LC118
 306 03f0 7E000000 		.word	126
 307 03f4 770D0000 		.word	.LC119
 308 03f8 7F000000 		.word	127
 309 03fc 980D0000 		.word	.LC120
 310 0400 80000000 		.word	128
 311 0404 B90D0000 		.word	.LC121
 312 0408 81000000 		.word	129
 313 040c DA0D0000 		.word	.LC122
 314 0410 82000000 		.word	130
 315 0414 FB0D0000 		.word	.LC123
 316 0418 83000000 		.word	131
 317 041c 1C0E0000 		.word	.LC124
 318 0420 84000000 		.word	132
 319 0424 2D0E0000 		.word	.LC125
 320 0428 85000000 		.word	133
 321 042c 3E0E0000 		.word	.LC126
 322 0430 86000000 		.word	134
 323 0434 5F0E0000 		.word	.LC127
 324 0438 87000000 		.word	135
 325 043c 800E0000 		.word	.LC128
 326 0440 88000000 		.word	136
 327 0444 A10E0000 		.word	.LC129
ARM GAS  C:\Users\ahmedhamed\AppData\Local\Temp\cc6RV2Fb.s 			page 12


 328 0448 89000000 		.word	137
 329 044c 43000000 		.word	.LC3
 330 0450 8A000000 		.word	138
 331 0454 C20E0000 		.word	.LC130
 332 0458 8B000000 		.word	139
 333 045c E30E0000 		.word	.LC131
 334 0460 8C000000 		.word	140
 335 0464 040F0000 		.word	.LC132
 336 0468 8D000000 		.word	141
 337 046c 43000000 		.word	.LC3
 338 0470 8E000000 		.word	142
 339 0474 250F0000 		.word	.LC133
 340 0478 8F000000 		.word	143
 341 047c 460F0000 		.word	.LC134
 342 0480 90000000 		.word	144
 343 0484 670F0000 		.word	.LC135
 344 0488 91000000 		.word	145
 345 048c 880F0000 		.word	.LC136
 346 0490 92000000 		.word	146
 347 0494 A30F0000 		.word	.LC137
 348 0498 93000000 		.word	147
 349 049c 00000000 		.word	0
 350              		.type	KRspText, %object
 351              		.size	KRspText, 480
 352              	KRspText:
 353 04a0 3030     		.short	12336
 354 04a2 0000     		.space	2
 355 04a4 45000000 		.word	69
 356 04a8 3130     		.short	12337
 357 04aa 0000     		.space	2
 358 04ac 46000000 		.word	70
 359 04b0 3230     		.short	12338
 360 04b2 0000     		.space	2
 361 04b4 47000000 		.word	71
 362 04b8 3330     		.short	12339
 363 04ba 0000     		.space	2
 364 04bc 48000000 		.word	72
 365 04c0 3430     		.short	12340
 366 04c2 0000     		.space	2
 367 04c4 49000000 		.word	73
 368 04c8 3530     		.short	12341
 369 04ca 0000     		.space	2
 370 04cc 4A000000 		.word	74
 371 04d0 3830     		.short	12344
 372 04d2 0000     		.space	2
 373 04d4 4B000000 		.word	75
 374 04d8 3231     		.short	12594
 375 04da 0000     		.space	2
 376 04dc 4C000000 		.word	76
 377 04e0 3331     		.short	12595
 378 04e2 0000     		.space	2
 379 04e4 4D000000 		.word	77
 380 04e8 3431     		.short	12596
 381 04ea 0000     		.space	2
 382 04ec 4E000000 		.word	78
 383 04f0 3931     		.short	12601
 384 04f2 0000     		.space	2
ARM GAS  C:\Users\ahmedhamed\AppData\Local\Temp\cc6RV2Fb.s 			page 13


 385 04f4 4F000000 		.word	79
 386 04f8 3532     		.short	12853
 387 04fa 0000     		.space	2
 388 04fc 50000000 		.word	80
 389 0500 3033     		.short	13104
 390 0502 0000     		.space	2
 391 0504 51000000 		.word	81
 392 0508 3133     		.short	13105
 393 050a 0000     		.space	2
 394 050c 52000000 		.word	82
 395 0510 3134     		.short	13361
 396 0512 0000     		.space	2
 397 0514 53000000 		.word	83
 398 0518 3334     		.short	13363
 399 051a 0000     		.space	2
 400 051c 54000000 		.word	84
 401 0520 3135     		.short	13617
 402 0522 0000     		.space	2
 403 0524 55000000 		.word	85
 404 0528 3435     		.short	13620
 405 052a 0000     		.space	2
 406 052c 56000000 		.word	86
 407 0530 3535     		.short	13621
 408 0532 0000     		.space	2
 409 0534 57000000 		.word	87
 410 0538 3835     		.short	13624
 411 053a 0000     		.space	2
 412 053c 58000000 		.word	88
 413 0540 3036     		.short	13872
 414 0542 0000     		.space	2
 415 0544 59000000 		.word	89
 416 0548 3637     		.short	14134
 417 054a 0000     		.space	2
 418 054c 5A000000 		.word	90
 419 0550 3737     		.short	14135
 420 0552 0000     		.space	2
 421 0554 5B000000 		.word	91
 422 0558 3837     		.short	14136
 423 055a 0000     		.space	2
 424 055c 5C000000 		.word	92
 425 0560 3038     		.short	14384
 426 0562 0000     		.space	2
 427 0564 5D000000 		.word	93
 428 0568 3538     		.short	14389
 429 056a 0000     		.space	2
 430 056c 5E000000 		.word	94
 431 0570 3838     		.short	14392
 432 0572 0000     		.space	2
 433 0574 5F000000 		.word	95
 434 0578 3938     		.short	14393
 435 057a 0000     		.space	2
 436 057c 60000000 		.word	96
 437 0580 3139     		.short	14641
 438 0582 0000     		.space	2
 439 0584 61000000 		.word	97
 440 0588 3439     		.short	14644
 441 058a 0000     		.space	2
ARM GAS  C:\Users\ahmedhamed\AppData\Local\Temp\cc6RV2Fb.s 			page 14


 442 058c 62000000 		.word	98
 443 0590 3539     		.short	14645
 444 0592 0000     		.space	2
 445 0594 63000000 		.word	99
 446 0598 3639     		.short	14646
 447 059a 0000     		.space	2
 448 059c 64000000 		.word	100
 449 05a0 5041     		.short	16720
 450 05a2 0000     		.space	2
 451 05a4 65000000 		.word	101
 452 05a8 4C42     		.short	16972
 453 05aa 0000     		.space	2
 454 05ac 66000000 		.word	102
 455 05b0 3043     		.short	17200
 456 05b2 0000     		.space	2
 457 05b4 67000000 		.word	103
 458 05b8 3143     		.short	17201
 459 05ba 0000     		.space	2
 460 05bc 68000000 		.word	104
 461 05c0 3243     		.short	17202
 462 05c2 0000     		.space	2
 463 05c4 69000000 		.word	105
 464 05c8 3343     		.short	17203
 465 05ca 0000     		.space	2
 466 05cc 6A000000 		.word	106
 467 05d0 4E43     		.short	17230
 468 05d2 0000     		.space	2
 469 05d4 6B000000 		.word	107
 470 05d8 4544     		.short	17477
 471 05da 0000     		.space	2
 472 05dc 6C000000 		.word	108
 473 05e0 4F48     		.short	18511
 474 05e2 0000     		.space	2
 475 05e4 6D000000 		.word	109
 476 05e8 5049     		.short	18768
 477 05ea 0000     		.space	2
 478 05ec 6E000000 		.word	110
 479 05f0 5249     		.short	18770
 480 05f2 0000     		.space	2
 481 05f4 6F000000 		.word	111
 482 05f8 5349     		.short	18771
 483 05fa 0000     		.space	2
 484 05fc 70000000 		.word	112
 485 0600 5449     		.short	18772
 486 0602 0000     		.space	2
 487 0604 71000000 		.word	113
 488 0608 434C     		.short	19523
 489 060a 0000     		.space	2
 490 060c 72000000 		.word	114
 491 0610 4E4C     		.short	19534
 492 0612 0000     		.space	2
 493 0614 73000000 		.word	115
 494 0618 4F4C     		.short	19535
 495 061a 0000     		.space	2
 496 061c 74000000 		.word	116
 497 0620 414D     		.short	19777
 498 0622 0000     		.space	2
ARM GAS  C:\Users\ahmedhamed\AppData\Local\Temp\cc6RV2Fb.s 			page 15


 499 0624 75000000 		.word	117
 500 0628 434E     		.short	20035
 501 062a 0000     		.space	2
 502 062c 6D000000 		.word	109
 503 0630 544E     		.short	20052
 504 0632 0000     		.space	2
 505 0634 80000000 		.word	128
 506 0638 4552     		.short	21061
 507 063a 0000     		.space	2
 508 063c 76000000 		.word	118
 509 0640 4253     		.short	21314
 510 0642 0000     		.space	2
 511 0644 77000000 		.word	119
 512 0648 4353     		.short	21315
 513 064a 0000     		.space	2
 514 064c 78000000 		.word	120
 515 0650 4553     		.short	21317
 516 0652 0000     		.space	2
 517 0654 79000000 		.word	121
 518 0658 4154     		.short	21569
 519 065a 0000     		.space	2
 520 065c 7A000000 		.word	122
 521 0660 4F54     		.short	21583
 522 0662 0000     		.space	2
 523 0664 7B000000 		.word	123
 524 0668 5356     		.short	22099
 525 066a 0000     		.space	2
 526 066c 7C000000 		.word	124
 527 0670 4355     		.short	21827
 528 0672 0000     		.space	2
 529 0674 7D000000 		.word	125
 530 0678 2A2A     		.short	10794
 531 067a 0000     		.space	2
 532 067c 7F000000 		.word	127
 533              		.section	.rodata.str1.1,"aMS",%progbits,1
 534              	.LC0:
 535 0000 53574950 		.ascii	"SWIPE | INS CARD\000"
 535      45207C20 
 535      494E5320 
 535      43415244 
 535      00
 536              	.LC1:
 537 0011 20535749 		.ascii	" SWIPE|INS|TAP  \000"
 537      50457C49 
 537      4E537C54 
 537      41502020 
 537      00
 538              	.LC2:
 539 0022 20202020 		.ascii	"                 PLS REMOVE ICC \000"
 539      20202020 
 539      20202020 
 539      20202020 
 539      20504C53 
 540              	.LC3:
 541 0043 20202020 		.ascii	"                 PROCESSING...  \000"
 541      20202020 
 541      20202020 
ARM GAS  C:\Users\ahmedhamed\AppData\Local\Temp\cc6RV2Fb.s 			page 16


 541      20202020 
 541      2050524F 
 542              	.LC4:
 543 0064 41555448 		.ascii	"AUTH            \000"
 543      20202020 
 543      20202020 
 543      20202020 
 543      00
 544              	.LC5:
 545 0075 53414C45 		.ascii	"SALE            \000"
 545      20202020 
 545      20202020 
 545      20202020 
 545      00
 546              	.LC6:
 547 0086 4F46464C 		.ascii	"OFFLINE REFUND  \000"
 547      494E4520 
 547      52454655 
 547      4E442020 
 547      00
 548              	.LC7:
 549 0097 4F46464C 		.ascii	"OFFLINE SALE    \000"
 549      494E4520 
 549      53414C45 
 549      20202020 
 549      00
 550              	.LC8:
 551 00a8 53414C45 		.ascii	"SALE COMP       \000"
 551      20434F4D 
 551      50202020 
 551      20202020 
 551      00
 552              	.LC9:
 553 00b9 564F4944 		.ascii	"VOID            \000"
 553      20202020 
 553      20202020 
 553      20202020 
 553      00
 554              	.LC10:
 555 00ca 41444A55 		.ascii	"ADJUST          \000"
 555      53542020 
 555      20202020 
 555      20202020 
 555      00
 556              	.LC11:
 557 00db 55504C4F 		.ascii	"UPLOAD          \000"
 557      41442020 
 557      20202020 
 557      20202020 
 557      00
 558              	.LC12:
 559 00ec 53455454 		.ascii	"SETTLEMENT      \000"
 559      4C454D45 
 559      4E542020 
 559      20202020 
 559      00
 560              	.LC13:
ARM GAS  C:\Users\ahmedhamed\AppData\Local\Temp\cc6RV2Fb.s 			page 17


 561 00fd 52455645 		.ascii	"REVERSAL        \000"
 561      5253414C 
 561      20202020 
 561      20202020 
 561      00
 562              	.LC14:
 563 010e 54455354 		.ascii	"TEST MSG        \000"
 563      204D5347 
 563      20202020 
 563      20202020 
 563      00
 564              	.LC15:
 565 011f 53455454 		.ascii	"SETT ADV        \000"
 565      20414456 
 565      20202020 
 565      20202020 
 565      00
 566              	.LC16:
 567 0130 53455454 		.ascii	"SETT UPLOAD     \000"
 567      2055504C 
 567      4F414420 
 567      20202020 
 567      00
 568              	.LC17:
 569 0141 20202020 		.ascii	"                CHECK DIGIT ERR.\000"
 569      20202020 
 569      20202020 
 569      20202020 
 569      43484543 
 570              	.LC18:
 571 0162 20202020 		.ascii	"                 PLS INSERT ICC \000"
 571      20202020 
 571      20202020 
 571      20202020 
 571      20504C53 
 572              	.LC19:
 573 0183 20202020 		.ascii	"                 PLS SWIPE CARD \000"
 573      20202020 
 573      20202020 
 573      20202020 
 573      20504C53 
 574              	.LC20:
 575 01a4 20202020 		.ascii	"                CORRECT ?       \000"
 575      20202020 
 575      20202020 
 575      20202020 
 575      434F5252 
 576              	.LC21:
 577 01c5 20202020 		.ascii	"                APPV CODE       \000"
 577      20202020 
 577      20202020 
 577      20202020 
 577      41505056 
 578              	.LC22:
 579 01e6 20202020 		.ascii	"                 BASE AMOUNT ?  \000"
 579      20202020 
 579      20202020 
ARM GAS  C:\Users\ahmedhamed\AppData\Local\Temp\cc6RV2Fb.s 			page 18


 579      20202020 
 579      20424153 
 580              	.LC23:
 581 0207 20202020 		.ascii	"                  ENTER AMOUNT  \000"
 581      20202020 
 581      20202020 
 581      20202020 
 581      2020454E 
 582              	.LC24:
 583 0228 20202020 		.ascii	"                ENTER TIP AMOUNT\000"
 583      20202020 
 583      20202020 
 583      20202020 
 583      454E5445 
 584              	.LC25:
 585 0249 20202020 		.ascii	"                INVALID TIPS AMT\000"
 585      20202020 
 585      20202020 
 585      20202020 
 585      494E5641 
 586              	.LC26:
 587 026a 20202020 		.ascii	"           TOTAL\000"
 587      20202020 
 587      20202054 
 587      4F54414C 
 587      00
 588              	.LC27:
 589 027b 20202020 		.ascii	"                EXPIRY DATE:MMYY\000"
 589      20202020 
 589      20202020 
 589      20202020 
 589      45585049 
 590              	.LC28:
 591 029c 20202045 		.ascii	"   EXPIRY DATE      INVALID!    \000"
 591      58504952 
 591      59204441 
 591      54452020 
 591      20202020 
 592              	.LC29:
 593 02bd 20202020 		.ascii	"                 CARD EXPIRED !!\000"
 593      20202020 
 593      20202020 
 593      20202020 
 593      20434152 
 594              	.LC30:
 595 02de 2053454C 		.ascii	" SELECT PRODUCT \000"
 595      45435420 
 595      50524F44 
 595      55435420 
 595      00
 596              	.LC31:
 597 02ef 20202020 		.ascii	"                CARD SECURITY NO\000"
 597      20202020 
 597      20202020 
 597      20202020 
 597      43415244 
 598              	.LC32:
ARM GAS  C:\Users\ahmedhamed\AppData\Local\Temp\cc6RV2Fb.s 			page 19


 599 0310 20202020 		.ascii	"                  INVALID CARD  \000"
 599      20202020 
 599      20202020 
 599      20202020 
 599      2020494E 
 600              	.LC33:
 601 0331 20202020 		.ascii	"                RECEIPT NUMBER  \000"
 601      20202020 
 601      20202020 
 601      20202020 
 601      52454345 
 602              	.LC34:
 603 0352 20202020 		.ascii	"                ECR REFERENCE NO\000"
 603      20202020 
 603      20202020 
 603      20202020 
 603      45435220 
 604              	.LC35:
 605 0373 20202020 		.ascii	"               CURRECY ERROR    \000"
 605      20202020 
 605      20202020 
 605      20202043 
 605      55525245 
 606              	.LC36:
 607 0394 20204E4F 		.ascii	"  NOT ALLOWED                   \000"
 607      5420414C 
 607      4C4F5745 
 607      44202020 
 607      20202020 
 608              	.LC37:
 609 03b5 504C5320 		.ascii	"PLS SETTLE BATCH                \000"
 609      53455454 
 609      4C452042 
 609      41544348 
 609      20202020 
 610              	.LC38:
 611 03d6 2020204E 		.ascii	"   NOT ALLOWED                  \000"
 611      4F542041 
 611      4C4C4F57 
 611      45442020 
 611      20202020 
 612              	.LC39:
 613 03f7 20202020 		.ascii	"      NEW AMOUNT\000"
 613      20204E45 
 613      5720414D 
 613      4F554E54 
 613      00
 614              	.LC40:
 615 0408 20202020 		.ascii	"        NEW TIP \000"
 615      20202020 
 615      4E455720 
 615      54495020 
 615      00
 616              	.LC41:
 617 0419 20202020 		.ascii	"     BASE AMOUNT\000"
 617      20424153 
 617      4520414D 
ARM GAS  C:\Users\ahmedhamed\AppData\Local\Temp\cc6RV2Fb.s 			page 20


 617      4F554E54 
 617      00
 618              	.LC42:
 619 042a 20202020 		.ascii	"      TIP AMOUNT\000"
 619      20205449 
 619      5020414D 
 619      4F554E54 
 619      00
 620              	.LC43:
 621 043b 41444A55 		.ascii	"ADJUST OVR LIMIT                \000"
 621      5354204F 
 621      5652204C 
 621      494D4954 
 621      20202020 
 622              	.LC44:
 623 045c 20202020 		.ascii	"                 TRANS. VOIDED  \000"
 623      20202020 
 623      20202020 
 623      20202020 
 623      20545241 
 624              	.LC45:
 625 047d 20202020 		.ascii	"                PLS SETTLE BATCH\000"
 625      20202020 
 625      20202020 
 625      20202020 
 625      504C5320 
 626              	.LC46:
 627 049e 20202020 		.ascii	"                TRANS. ACCEPTED \000"
 627      20202020 
 627      20202020 
 627      20202020 
 627      5452414E 
 628              	.LC47:
 629 04bf 20545241 		.ascii	" TRANS. VOIDED                  \000"
 629      4E532E20 
 629      564F4944 
 629      45442020 
 629      20202020 
 630              	.LC48:
 631 04e0 20202020 		.ascii	"                 START OF BATCH \000"
 631      20202020 
 631      20202020 
 631      20202020 
 631      20535441 
 632              	.LC49:
 633 0501 20202020 		.ascii	"                  END OF BATCH  \000"
 633      20202020 
 633      20202020 
 633      20202020 
 633      2020454E 
 634              	.LC50:
 635 0522 20544F54 		.ascii	" TOTAL  BY CARD \000"
 635      414C2020 
 635      42592043 
 635      41524420 
 635      00
 636              	.LC51:
ARM GAS  C:\Users\ahmedhamed\AppData\Local\Temp\cc6RV2Fb.s 			page 21


 637 0533 20424154 		.ascii	" BATCH  RECORDS \000"
 637      43482020 
 637      5245434F 
 637      52445320 
 637      00
 638              	.LC52:
 639 0544 2020434C 		.ascii	"  CLEAR BATCH ? \000"
 639      45415220 
 639      42415443 
 639      48203F20 
 639      00
 640              	.LC53:
 641 0555 20204241 		.ascii	"  BATCH ERASED! \000"
 641      54434820 
 641      45524153 
 641      45442120 
 641      00
 642              	.LC54:
 643 0566 20202020 		.ascii	"                  NO  REVERSAL  \000"
 643      20202020 
 643      20202020 
 643      20202020 
 643      20204E4F 
 644              	.LC55:
 645 0587 434C4541 		.ascii	"CLEAR REVERSAL? \000"
 645      52205245 
 645      56455253 
 645      414C3F20 
 645      00
 646              	.LC56:
 647 0598 52455645 		.ascii	"REVERSAL CLEARED\000"
 647      5253414C 
 647      20434C45 
 647      41524544 
 647      00
 648              	.LC57:
 649 05a9 20444953 		.ascii	" DISPLAY  BATCH \000"
 649      504C4159 
 649      20204241 
 649      54434820 
 649      00
 650              	.LC58:
 651 05ba 20524550 		.ascii	" REPRINT  BATCH \000"
 651      52494E54 
 651      20204241 
 651      54434820 
 651      00
 652              	.LC59:
 653 05cb 20434F4E 		.ascii	" CONFIG   REPORT\000"
 653      46494720 
 653      20205245 
 653      504F5254 
 653      00
 654              	.LC60:
 655 05dc 20205052 		.ascii	"  PRINTING...                   \000"
 655      494E5449 
 655      4E472E2E 
ARM GAS  C:\Users\ahmedhamed\AppData\Local\Temp\cc6RV2Fb.s 			page 22


 655      2E202020 
 655      20202020 
 656              	.LC61:
 657 05fd 20504C53 		.ascii	" PLS TEAR PAPER                 \000"
 657      20544541 
 657      52205041 
 657      50455220 
 657      20202020 
 658              	.LC62:
 659 061e 20202020 		.ascii	"    HIGH TEMP                   \000"
 659      48494748 
 659      2054454D 
 659      50202020 
 659      20202020 
 660              	.LC63:
 661 063f 2020204E 		.ascii	"   NO PAPER                     \000"
 661      4F205041 
 661      50455220 
 661      20202020 
 661      20202020 
 662              	.LC64:
 663 0660 20504C45 		.ascii	" PLEASE REPRINT                 \000"
 663      41534520 
 663      52455052 
 663      494E5420 
 663      20202020 
 664              	.LC65:
 665 0681 2020504C 		.ascii	"  PLEASE WAIT                   \000"
 665      45415345 
 665      20574149 
 665      54202020 
 665      20202020 
 666              	.LC66:
 667 06a2 20204C4F 		.ascii	"  LOW BATTERY                   \000"
 667      57204241 
 667      54544552 
 667      59202020 
 667      20202020 
 668              	.LC67:
 669 06c3 20202020 		.ascii	"                PLS CALL ISSUER \000"
 669      20202020 
 669      20202020 
 669      20202020 
 669      504C5320 
 670              	.LC68:
 671 06e4 20202020 		.ascii	"                REFERRAL        \000"
 671      20202020 
 671      20202020 
 671      20202020 
 671      52454645 
 672              	.LC69:
 673 0705 20202020 		.ascii	"                INVALID MERCHANT\000"
 673      20202020 
 673      20202020 
 673      20202020 
 673      494E5641 
 674              	.LC70:
ARM GAS  C:\Users\ahmedhamed\AppData\Local\Temp\cc6RV2Fb.s 			page 23


 675 0726 20202020 		.ascii	"                  PICK UP CARD  \000"
 675      20202020 
 675      20202020 
 675      20202020 
 675      20205049 
 676              	.LC71:
 677 0747 20202020 		.ascii	"                 DO NOT HONOUR  \000"
 677      20202020 
 677      20202020 
 677      20202020 
 677      20444F20 
 678              	.LC72:
 679 0768 20202020 		.ascii	"                APPROVED WITH ID\000"
 679      20202020 
 679      20202020 
 679      20202020 
 679      41505052 
 680              	.LC73:
 681 0789 20202020 		.ascii	"                BAD PROCESS CODE\000"
 681      20202020 
 681      20202020 
 681      20202020 
 681      42414420 
 682              	.LC74:
 683 07aa 20202020 		.ascii	"                 INVALID AMOUNT \000"
 683      20202020 
 683      20202020 
 683      20202020 
 683      20494E56 
 684              	.LC75:
 685 07cb 20202020 		.ascii	"                INVALID ACCOUNT \000"
 685      20202020 
 685      20202020 
 685      20202020 
 685      494E5641 
 686              	.LC76:
 687 07ec 20202020 		.ascii	"                RE-ENTER TRANS. \000"
 687      20202020 
 687      20202020 
 687      20202020 
 687      52452D45 
 688              	.LC77:
 689 080d 20202020 		.ascii	"                INVALID TERMINAL\000"
 689      20202020 
 689      20202020 
 689      20202020 
 689      494E5641 
 690              	.LC78:
 691 082e 20202020 		.ascii	"                   EDIT ERROR   \000"
 691      20202020 
 691      20202020 
 691      20202020 
 691      20202045 
 692              	.LC79:
 693 084f 20202020 		.ascii	"                  UNKNOWN CARD  \000"
 693      20202020 
 693      20202020 
ARM GAS  C:\Users\ahmedhamed\AppData\Local\Temp\cc6RV2Fb.s 			page 24


 693      20202020 
 693      2020554E 
 694              	.LC80:
 695 0870 20202020 		.ascii	"                PLEASE CALL - LC\000"
 695      20202020 
 695      20202020 
 695      20202020 
 695      504C4541 
 696              	.LC81:
 697 0891 20202020 		.ascii	"                PLEASE CALL - CC\000"
 697      20202020 
 697      20202020 
 697      20202020 
 697      504C4541 
 698              	.LC82:
 699 08b2 20202020 		.ascii	"                    DECLINED    \000"
 699      20202020 
 699      20202020 
 699      20202020 
 699      20202020 
 700              	.LC83:
 701 08d3 20202020 		.ascii	"                 INCORRECT PIN  \000"
 701      20202020 
 701      20202020 
 701      20202020 
 701      20494E43 
 702              	.LC84:
 703 08f4 20202020 		.ascii	"                INVALID SERVICE \000"
 703      20202020 
 703      20202020 
 703      20202020 
 703      494E5641 
 704              	.LC85:
 705 0915 20202020 		.ascii	"                CONTACT ACQUIRER\000"
 705      20202020 
 705      20202020 
 705      20202020 
 705      434F4E54 
 706              	.LC86:
 707 0936 20202020 		.ascii	"                BAD PRODUCT CODE\000"
 707      20202020 
 707      20202020 
 707      20202020 
 707      42414420 
 708              	.LC87:
 709 0957 20202020 		.ascii	"                RECONCILE ERROR \000"
 709      20202020 
 709      20202020 
 709      20202020 
 709      5245434F 
 710              	.LC88:
 711 0978 20202020 		.ascii	"                TRACE NOT FOUND \000"
 711      20202020 
 711      20202020 
 711      20202020 
 711      54524143 
 712              	.LC89:
ARM GAS  C:\Users\ahmedhamed\AppData\Local\Temp\cc6RV2Fb.s 			page 25


 713 0999 20202020 		.ascii	"                BAD BATCH NUMBER\000"
 713      20202020 
 713      20202020 
 713      20202020 
 713      42414420 
 714              	.LC90:
 715 09ba 20202020 		.ascii	"                BATCH NOT FOUND \000"
 715      20202020 
 715      20202020 
 715      20202020 
 715      42415443 
 716              	.LC91:
 717 09db 20202020 		.ascii	"                APPRV, CALL AMEX\000"
 717      20202020 
 717      20202020 
 717      20202020 
 717      41505052 
 718              	.LC92:
 719 09fc 20202020 		.ascii	"                BAD TERMINAL ID \000"
 719      20202020 
 719      20202020 
 719      20202020 
 719      42414420 
 720              	.LC93:
 721 0a1d 20202020 		.ascii	"                SYSTEM NOT AVAIL\000"
 721      20202020 
 721      20202020 
 721      20202020 
 721      53595354 
 722              	.LC94:
 723 0a3e 20202020 		.ascii	"                DUPLICATE TRACE \000"
 723      20202020 
 723      20202020 
 723      20202020 
 723      4455504C 
 724              	.LC95:
 725 0a5f 20202020 		.ascii	"                 BATCH TRANSFER \000"
 725      20202020 
 725      20202020 
 725      20202020 
 725      20424154 
 726              	.LC96:
 727 0a80 20202020 		.ascii	"                INVALID MESSAGE \000"
 727      20202020 
 727      20202020 
 727      20202020 
 727      494E5641 
 728              	.LC97:
 729 0aa1 4C4F5720 		.ascii	"LOW BATTERY                     \000"
 729      42415454 
 729      45525920 
 729      20202020 
 729      20202020 
 730              	.LC98:
 731 0ac2 20202020 		.ascii	"                TRY OTHER INTERF\000"
 731      20202020 
 731      20202020 
ARM GAS  C:\Users\ahmedhamed\AppData\Local\Temp\cc6RV2Fb.s 			page 26


 731      20202020 
 731      54525920 
 732              	.LC99:
 733 0ae3 20202020 		.ascii	"                   DDA FAILED   \000"
 733      20202020 
 733      20202020 
 733      20202020 
 733      20202044 
 734              	.LC100:
 735 0b04 20202020 		.ascii	"                 OVERSEAS CARD  \000"
 735      20202020 
 735      20202020 
 735      20202020 
 735      204F5645 
 736              	.LC101:
 737 0b25 20202020 		.ascii	"                REFER TO MOBILE \000"
 737      20202020 
 737      20202020 
 737      20202020 
 737      52454645 
 738              	.LC102:
 739 0b46 20202020 		.ascii	"                TRANS. CANCELLED\000"
 739      20202020 
 739      20202020 
 739      20202020 
 739      5452414E 
 740              	.LC103:
 741 0b67 20202020 		.ascii	"                   DATA ERROR   \000"
 741      20202020 
 741      20202020 
 741      20202020 
 741      20202044 
 742              	.LC104:
 743 0b88 20202020 		.ascii	"                PLS TRY AGAIN-NC\000"
 743      20202020 
 743      20202020 
 743      20202020 
 743      504C5320 
 744              	.LC105:
 745 0ba9 20202020 		.ascii	"                CALL HELP - IP  \000"
 745      20202020 
 745      20202020 
 745      20202020 
 745      43414C4C 
 746              	.LC106:
 747 0bca 20202020 		.ascii	"                CALL HELP - IR  \000"
 747      20202020 
 747      20202020 
 747      20202020 
 747      43414C4C 
 748              	.LC107:
 749 0beb 20202020 		.ascii	"                CALL HELP - IS  \000"
 749      20202020 
 749      20202020 
 749      20202020 
 749      43414C4C 
 750              	.LC108:
ARM GAS  C:\Users\ahmedhamed\AppData\Local\Temp\cc6RV2Fb.s 			page 27


 751 0c0c 20202020 		.ascii	"                CALL HELP - IT  \000"
 751      20202020 
 751      20202020 
 751      20202020 
 751      43414C4C 
 752              	.LC109:
 753 0c2d 20202020 		.ascii	"                PLS TRY AGAIN-LC\000"
 753      20202020 
 753      20202020 
 753      20202020 
 753      504C5320 
 754              	.LC110:
 755 0c4e 20204E4F 		.ascii	"  NO DIAL TONE                  \000"
 755      20444941 
 755      4C20544F 
 755      4E452020 
 755      20202020 
 756              	.LC111:
 757 0c6f 20202020 		.ascii	"                 LINE  OCCUPIED \000"
 757      20202020 
 757      20202020 
 757      20202020 
 757      204C494E 
 758              	.LC112:
 759 0c90 20504C53 		.ascii	" PLS SWIPE CARD                 \000"
 759      20535749 
 759      50452043 
 759      41524420 
 759      20202020 
 760              	.LC113:
 761 0cb1 20202020 		.ascii	"                CARD READ ERROR \000"
 761      20202020 
 761      20202020 
 761      20202020 
 761      43415244 
 762              	.LC114:
 763 0cd2 20202020 		.ascii	"                  CARD BLOCKED  \000"
 763      20202020 
 763      20202020 
 763      20202020 
 763      20204341 
 764              	.LC115:
 765 0cf3 53574950 		.ascii	"SWIPE  AMEX CARD                \000"
 765      45202041 
 765      4D455820 
 765      43415244 
 765      20202020 
 766              	.LC116:
 767 0d14 20202020 		.ascii	"                  SYSTEM ERROR  \000"
 767      20202020 
 767      20202020 
 767      20202020 
 767      20205359 
 768              	.LC117:
 769 0d35 504C5320 		.ascii	"PLS TRY AGAIN-TO                \000"
 769      54525920 
 769      41474149 
ARM GAS  C:\Users\ahmedhamed\AppData\Local\Temp\cc6RV2Fb.s 			page 28


 769      4E2D544F 
 769      20202020 
 770              	.LC118:
 771 0d56 20202020 		.ascii	"                UNSUPPORTED CARD\000"
 771      20202020 
 771      20202020 
 771      20202020 
 771      554E5355 
 772              	.LC119:
 773 0d77 20202020 		.ascii	"                 INVALID  CARD  \000"
 773      20202020 
 773      20202020 
 773      20202020 
 773      20494E56 
 774              	.LC120:
 775 0d98 20202020 		.ascii	"                CALL HELP - IC  \000"
 775      20202020 
 775      20202020 
 775      20202020 
 775      43414C4C 
 776              	.LC121:
 777 0db9 20202020 		.ascii	"                NO TRANS. RECORD\000"
 777      20202020 
 777      20202020 
 777      20202020 
 777      4E4F2054 
 778              	.LC122:
 779 0dda 20202020 		.ascii	"                BUS. DATE:  MMDD\000"
 779      20202020 
 779      20202020 
 779      20202020 
 779      4255532E 
 780              	.LC123:
 781 0dfb 20202020 		.ascii	"                 NO BATCH TOTAL \000"
 781      20202020 
 781      20202020 
 781      20202020 
 781      204E4F20 
 782              	.LC124:
 783 0e1c 20202020 		.ascii	"            SALE\000"
 783      20202020 
 783      20202020 
 783      53414C45 
 783      00
 784              	.LC125:
 785 0e2d 20202020 		.ascii	"          REFUND\000"
 785      20202020 
 785      20205245 
 785      46554E44 
 785      00
 786              	.LC126:
 787 0e3e 20202020 		.ascii	"                TOTAL INCORRECT \000"
 787      20202020 
 787      20202020 
 787      20202020 
 787      544F5441 
 788              	.LC127:
ARM GAS  C:\Users\ahmedhamed\AppData\Local\Temp\cc6RV2Fb.s 			page 29


 789 0e5f 20202020 		.ascii	"                SALE TOTAL:     \000"
 789      20202020 
 789      20202020 
 789      20202020 
 789      53414C45 
 790              	.LC128:
 791 0e80 20202020 		.ascii	"                REFUND TOTAL:   \000"
 791      20202020 
 791      20202020 
 791      20202020 
 791      52454655 
 792              	.LC129:
 793 0ea1 20454D56 		.ascii	" EMV2 FATAL ERR!PLS CALL SERVICE\000"
 793      32204641 
 793      54414C20 
 793      45525221 
 793      504C5320 
 794              	.LC130:
 795 0ec2 20202020 		.ascii	"                PLS SELECT?[Y/N]\000"
 795      20202020 
 795      20202020 
 795      20202020 
 795      504C5320 
 796              	.LC131:
 797 0ee3 43414E4E 		.ascii	"CANNOT SEL. APP.                \000"
 797      4F542053 
 797      454C2E20 
 797      4150502E 
 797      20202020 
 798              	.LC132:
 799 0f04 454D5643 		.ascii	"EMVCL FATAL ERR!PLS CALL SERVICE\000"
 799      4C204641 
 799      54414C20 
 799      45525221 
 799      504C5320 
 800              	.LC133:
 801 0f25 20202020 		.ascii	"                PRE-PROCESS ERR \000"
 801      20202020 
 801      20202020 
 801      20202020 
 801      5052452D 
 802              	.LC134:
 803 0f46 20202020 		.ascii	"                  PLS TAP CARD  \000"
 803      20202020 
 803      20202020 
 803      20202020 
 803      2020504C 
 804              	.LC135:
 805 0f67 20202020 		.ascii	"                AMT EXCEED LIMIT\000"
 805      20202020 
 805      20202020 
 805      20202020 
 805      414D5420 
 806              	.LC136:
 807 0f88 43415244 		.ascii	"CARD READ OK\012  REMOVE CARD\000"
 807      20524541 
 807      44204F4B 
ARM GAS  C:\Users\ahmedhamed\AppData\Local\Temp\cc6RV2Fb.s 			page 30


 807      0A202052 
 807      454D4F56 
 808              	.LC137:
 809 0fa3 20204E45 		.ascii	"  NETWORK INIT      PLS WAIT    \000"
 809      54574F52 
 809      4B20494E 
 809      49542020 
 809      20202020 
 810              		.text
 811              	.Letext0:
 812              		.file 2 "../LibA5T1000/common.h"
 813              		.file 3 "src/message.h"
 814              		.section	.debug_info,"",%progbits
 815              	.Ldebug_info0:
 816 0000 14050000 		.4byte	0x514
 817 0004 0400     		.2byte	0x4
 818 0006 00000000 		.4byte	.Ldebug_abbrev0
 819 000a 04       		.byte	0x4
 820 000b 01       		.uleb128 0x1
 821 000c B4010000 		.4byte	.LASF163
 822 0010 01       		.byte	0x1
 823 0011 B9030000 		.4byte	.LASF164
 824 0015 9A040000 		.4byte	.LASF165
 825 0019 00000000 		.4byte	.Ldebug_ranges0+0
 826 001d 00000000 		.4byte	0
 827 0021 00000000 		.4byte	.Ldebug_line0
 828 0025 02       		.uleb128 0x2
 829 0026 01       		.byte	0x1
 830 0027 08       		.byte	0x8
 831 0028 E0070000 		.4byte	.LASF2
 832 002c 03       		.uleb128 0x3
 833 002d 4A050000 		.4byte	.LASF0
 834 0031 02       		.byte	0x2
 835 0032 0E       		.byte	0xe
 836 0033 25000000 		.4byte	0x25
 837 0037 03       		.uleb128 0x3
 838 0038 75060000 		.4byte	.LASF1
 839 003c 02       		.byte	0x2
 840 003d 0F       		.byte	0xf
 841 003e 42000000 		.4byte	0x42
 842 0042 02       		.uleb128 0x2
 843 0043 02       		.byte	0x2
 844 0044 07       		.byte	0x7
 845 0045 37050000 		.4byte	.LASF3
 846 0049 03       		.uleb128 0x3
 847 004a 39030000 		.4byte	.LASF4
 848 004e 02       		.byte	0x2
 849 004f 10       		.byte	0x10
 850 0050 54000000 		.4byte	0x54
 851 0054 02       		.uleb128 0x2
 852 0055 04       		.byte	0x4
 853 0056 07       		.byte	0x7
 854 0057 23040000 		.4byte	.LASF5
 855 005b 02       		.uleb128 0x2
 856 005c 08       		.byte	0x8
 857 005d 07       		.byte	0x7
 858 005e BC000000 		.4byte	.LASF6
ARM GAS  C:\Users\ahmedhamed\AppData\Local\Temp\cc6RV2Fb.s 			page 31


 859 0062 02       		.uleb128 0x2
 860 0063 04       		.byte	0x4
 861 0064 07       		.byte	0x7
 862 0065 3B060000 		.4byte	.LASF7
 863 0069 04       		.uleb128 0x4
 864 006a 04       		.byte	0x4
 865 006b 2C000000 		.4byte	0x2c
 866 006f 05       		.uleb128 0x5
 867 0070 65030000 		.4byte	.LASF158
 868 0074 08       		.byte	0x8
 869 0075 03       		.byte	0x3
 870 0076 2B       		.byte	0x2b
 871 0077 94000000 		.4byte	0x94
 872 007b 06       		.uleb128 0x6
 873 007c 35060000 		.4byte	.LASF8
 874 0080 03       		.byte	0x3
 875 0081 2C       		.byte	0x2c
 876 0082 37000000 		.4byte	0x37
 877 0086 00       		.byte	0
 878 0087 06       		.uleb128 0x6
 879 0088 3D000000 		.4byte	.LASF9
 880 008c 03       		.byte	0x3
 881 008d 2D       		.byte	0x2d
 882 008e 49000000 		.4byte	0x49
 883 0092 04       		.byte	0x4
 884 0093 00       		.byte	0
 885 0094 07       		.uleb128 0x7
 886 0095 01       		.byte	0x1
 887 0096 03       		.byte	0x3
 888 0097 34       		.byte	0x34
 889 0098 69040000 		.4byte	0x469
 890 009c 08       		.uleb128 0x8
 891 009d 96030000 		.4byte	.LASF10
 892 00a1 00       		.sleb128 0
 893 00a2 08       		.uleb128 0x8
 894 00a3 D2080000 		.4byte	.LASF11
 895 00a7 01       		.sleb128 1
 896 00a8 08       		.uleb128 0x8
 897 00a9 6C080000 		.4byte	.LASF12
 898 00ad 02       		.sleb128 2
 899 00ae 08       		.uleb128 0x8
 900 00af A7030000 		.4byte	.LASF13
 901 00b3 03       		.sleb128 3
 902 00b4 08       		.uleb128 0x8
 903 00b5 10000000 		.4byte	.LASF14
 904 00b9 04       		.sleb128 4
 905 00ba 08       		.uleb128 0x8
 906 00bb D9060000 		.4byte	.LASF15
 907 00bf 05       		.sleb128 5
 908 00c0 08       		.uleb128 0x8
 909 00c1 57060000 		.4byte	.LASF16
 910 00c5 06       		.sleb128 6
 911 00c6 08       		.uleb128 0x8
 912 00c7 7F010000 		.4byte	.LASF17
 913 00cb 07       		.sleb128 7
 914 00cc 08       		.uleb128 0x8
 915 00cd D3000000 		.4byte	.LASF18
ARM GAS  C:\Users\ahmedhamed\AppData\Local\Temp\cc6RV2Fb.s 			page 32


 916 00d1 08       		.sleb128 8
 917 00d2 08       		.uleb128 0x8
 918 00d3 40040000 		.4byte	.LASF19
 919 00d7 09       		.sleb128 9
 920 00d8 08       		.uleb128 0x8
 921 00d9 8E060000 		.4byte	.LASF20
 922 00dd 0A       		.sleb128 10
 923 00de 08       		.uleb128 0x8
 924 00df D1090000 		.4byte	.LASF21
 925 00e3 0B       		.sleb128 11
 926 00e4 08       		.uleb128 0x8
 927 00e5 1C000000 		.4byte	.LASF22
 928 00e9 0C       		.sleb128 12
 929 00ea 08       		.uleb128 0x8
 930 00eb F0040000 		.4byte	.LASF23
 931 00ef 0D       		.sleb128 13
 932 00f0 08       		.uleb128 0x8
 933 00f1 24080000 		.4byte	.LASF24
 934 00f5 0E       		.sleb128 14
 935 00f6 08       		.uleb128 0x8
 936 00f7 6F010000 		.4byte	.LASF25
 937 00fb 0F       		.sleb128 15
 938 00fc 08       		.uleb128 0x8
 939 00fd B3050000 		.4byte	.LASF26
 940 0101 10       		.sleb128 16
 941 0102 08       		.uleb128 0x8
 942 0103 400A0000 		.4byte	.LASF27
 943 0107 11       		.sleb128 17
 944 0108 08       		.uleb128 0x8
 945 0109 FB0A0000 		.4byte	.LASF28
 946 010d 12       		.sleb128 18
 947 010e 08       		.uleb128 0x8
 948 010f FF020000 		.4byte	.LASF29
 949 0113 13       		.sleb128 19
 950 0114 08       		.uleb128 0x8
 951 0115 0A0B0000 		.4byte	.LASF30
 952 0119 14       		.sleb128 20
 953 011a 08       		.uleb128 0x8
 954 011b 120C0000 		.4byte	.LASF31
 955 011f 15       		.sleb128 21
 956 0120 08       		.uleb128 0x8
 957 0121 3F030000 		.4byte	.LASF32
 958 0125 16       		.sleb128 22
 959 0126 08       		.uleb128 0x8
 960 0127 6E090000 		.4byte	.LASF33
 961 012b 17       		.sleb128 23
 962 012c 08       		.uleb128 0x8
 963 012d A3060000 		.4byte	.LASF34
 964 0131 18       		.sleb128 24
 965 0132 08       		.uleb128 0x8
 966 0133 17070000 		.4byte	.LASF35
 967 0137 19       		.sleb128 25
 968 0138 08       		.uleb128 0x8
 969 0139 DF020000 		.4byte	.LASF36
 970 013d 1A       		.sleb128 26
 971 013e 08       		.uleb128 0x8
 972 013f 11030000 		.4byte	.LASF37
ARM GAS  C:\Users\ahmedhamed\AppData\Local\Temp\cc6RV2Fb.s 			page 33


 973 0143 1B       		.sleb128 27
 974 0144 08       		.uleb128 0x8
 975 0145 4D010000 		.4byte	.LASF38
 976 0149 1C       		.sleb128 28
 977 014a 08       		.uleb128 0x8
 978 014b A9070000 		.4byte	.LASF39
 979 014f 1D       		.sleb128 29
 980 0150 08       		.uleb128 0x8
 981 0151 5D050000 		.4byte	.LASF40
 982 0155 1E       		.sleb128 30
 983 0156 08       		.uleb128 0x8
 984 0157 F3020000 		.4byte	.LASF41
 985 015b 1F       		.sleb128 31
 986 015c 08       		.uleb128 0x8
 987 015d FF070000 		.4byte	.LASF42
 988 0161 20       		.sleb128 32
 989 0162 08       		.uleb128 0x8
 990 0163 80030000 		.4byte	.LASF43
 991 0167 21       		.sleb128 33
 992 0168 08       		.uleb128 0x8
 993 0169 4F050000 		.4byte	.LASF44
 994 016d 22       		.sleb128 34
 995 016e 08       		.uleb128 0x8
 996 016f A60A0000 		.4byte	.LASF45
 997 0173 23       		.sleb128 35
 998 0174 08       		.uleb128 0x8
 999 0175 A2050000 		.4byte	.LASF46
 1000 0179 24       		.sleb128 36
 1001 017a 08       		.uleb128 0x8
 1002 017b 00040000 		.4byte	.LASF47
 1003 017f 25       		.sleb128 37
 1004 0180 08       		.uleb128 0x8
 1005 0181 8A0B0000 		.4byte	.LASF48
 1006 0185 26       		.sleb128 38
 1007 0186 08       		.uleb128 0x8
 1008 0187 B5060000 		.4byte	.LASF49
 1009 018b 27       		.sleb128 39
 1010 018c 08       		.uleb128 0x8
 1011 018d 05070000 		.4byte	.LASF50
 1012 0191 28       		.sleb128 40
 1013 0192 08       		.uleb128 0x8
 1014 0193 6E030000 		.4byte	.LASF51
 1015 0197 29       		.sleb128 41
 1016 0198 08       		.uleb128 0x8
 1017 0199 8B000000 		.4byte	.LASF52
 1018 019d 2A       		.sleb128 42
 1019 019e 08       		.uleb128 0x8
 1020 019f 31090000 		.4byte	.LASF53
 1021 01a3 2B       		.sleb128 43
 1022 01a4 08       		.uleb128 0x8
 1023 01a5 CF040000 		.4byte	.LASF54
 1024 01a9 2C       		.sleb128 44
 1025 01aa 08       		.uleb128 0x8
 1026 01ab 83020000 		.4byte	.LASF55
 1027 01af 2D       		.sleb128 45
 1028 01b0 08       		.uleb128 0x8
 1029 01b1 44060000 		.4byte	.LASF56
ARM GAS  C:\Users\ahmedhamed\AppData\Local\Temp\cc6RV2Fb.s 			page 34


 1030 01b5 2E       		.sleb128 46
 1031 01b6 08       		.uleb128 0x8
 1032 01b7 B70A0000 		.4byte	.LASF57
 1033 01bb 2F       		.sleb128 47
 1034 01bc 08       		.uleb128 0x8
 1035 01bd C4080000 		.4byte	.LASF58
 1036 01c1 30       		.sleb128 48
 1037 01c2 08       		.uleb128 0x8
 1038 01c3 20090000 		.4byte	.LASF59
 1039 01c7 31       		.sleb128 49
 1040 01c8 08       		.uleb128 0x8
 1041 01c9 24050000 		.4byte	.LASF60
 1042 01cd 32       		.sleb128 50
 1043 01ce 08       		.uleb128 0x8
 1044 01cf 7E080000 		.4byte	.LASF61
 1045 01d3 33       		.sleb128 51
 1046 01d4 08       		.uleb128 0x8
 1047 01d5 BF090000 		.4byte	.LASF62
 1048 01d9 34       		.sleb128 52
 1049 01da 08       		.uleb128 0x8
 1050 01db BD070000 		.4byte	.LASF63
 1051 01df 35       		.sleb128 53
 1052 01e0 08       		.uleb128 0x8
 1053 01e1 BC020000 		.4byte	.LASF64
 1054 01e5 36       		.sleb128 54
 1055 01e6 08       		.uleb128 0x8
 1056 01e7 78070000 		.4byte	.LASF65
 1057 01eb 37       		.sleb128 55
 1058 01ec 08       		.uleb128 0x8
 1059 01ed E4000000 		.4byte	.LASF66
 1060 01f1 38       		.sleb128 56
 1061 01f2 08       		.uleb128 0x8
 1062 01f3 A2080000 		.4byte	.LASF67
 1063 01f7 39       		.sleb128 57
 1064 01f8 08       		.uleb128 0x8
 1065 01f9 24060000 		.4byte	.LASF68
 1066 01fd 3A       		.sleb128 58
 1067 01fe 08       		.uleb128 0x8
 1068 01ff 34080000 		.4byte	.LASF69
 1069 0203 3B       		.sleb128 59
 1070 0204 08       		.uleb128 0x8
 1071 0205 C7030000 		.4byte	.LASF70
 1072 0209 3C       		.sleb128 60
 1073 020a 08       		.uleb128 0x8
 1074 020b 670A0000 		.4byte	.LASF71
 1075 020f 3D       		.sleb128 61
 1076 0210 08       		.uleb128 0x8
 1077 0211 DF090000 		.4byte	.LASF72
 1078 0215 3E       		.sleb128 62
 1079 0216 08       		.uleb128 0x8
 1080 0217 420B0000 		.4byte	.LASF73
 1081 021b 3F       		.sleb128 63
 1082 021c 08       		.uleb128 0x8
 1083 021d E5060000 		.4byte	.LASF74
 1084 0221 C000     		.sleb128 64
 1085 0223 08       		.uleb128 0x8
 1086 0224 F5060000 		.4byte	.LASF75
ARM GAS  C:\Users\ahmedhamed\AppData\Local\Temp\cc6RV2Fb.s 			page 35


 1087 0228 C100     		.sleb128 65
 1088 022a 08       		.uleb128 0x8
 1089 022b 8F080000 		.4byte	.LASF76
 1090 022f C200     		.sleb128 66
 1091 0231 08       		.uleb128 0x8
 1092 0232 47000000 		.4byte	.LASF77
 1093 0236 C300     		.sleb128 67
 1094 0238 08       		.uleb128 0x8
 1095 0239 13040000 		.4byte	.LASF78
 1096 023d C400     		.sleb128 68
 1097 023f 08       		.uleb128 0x8
 1098 0240 8E010000 		.4byte	.LASF79
 1099 0244 C500     		.sleb128 69
 1100 0246 08       		.uleb128 0x8
 1101 0247 1A0A0000 		.4byte	.LASF80
 1102 024b C600     		.sleb128 70
 1103 024d 08       		.uleb128 0x8
 1104 024e 6F050000 		.4byte	.LASF81
 1105 0252 C700     		.sleb128 71
 1106 0254 08       		.uleb128 0x8
 1107 0255 00050000 		.4byte	.LASF82
 1108 0259 C800     		.sleb128 72
 1109 025b 08       		.uleb128 0x8
 1110 025c EA050000 		.4byte	.LASF83
 1111 0260 C900     		.sleb128 73
 1112 0262 08       		.uleb128 0x8
 1113 0263 57000000 		.4byte	.LASF84
 1114 0267 CA00     		.sleb128 74
 1115 0269 08       		.uleb128 0x8
 1116 026a E0040000 		.4byte	.LASF85
 1117 026e CB00     		.sleb128 75
 1118 0270 08       		.uleb128 0x8
 1119 0271 80050000 		.4byte	.LASF86
 1120 0275 CC00     		.sleb128 76
 1121 0277 08       		.uleb128 0x8
 1122 0278 3E070000 		.4byte	.LASF87
 1123 027c CD00     		.sleb128 77
 1124 027e 08       		.uleb128 0x8
 1125 027f CF0A0000 		.4byte	.LASF88
 1126 0283 CE00     		.sleb128 78
 1127 0285 08       		.uleb128 0x8
 1128 0286 8C040000 		.4byte	.LASF89
 1129 028a CF00     		.sleb128 79
 1130 028c 08       		.uleb128 0x8
 1131 028d 9B000000 		.4byte	.LASF90
 1132 0291 D000     		.sleb128 80
 1133 0293 08       		.uleb128 0x8
 1134 0294 C6060000 		.4byte	.LASF91
 1135 0298 D100     		.sleb128 81
 1136 029a 08       		.uleb128 0x8
 1137 029b 63040000 		.4byte	.LASF92
 1138 029f D200     		.sleb128 82
 1139 02a1 08       		.uleb128 0x8
 1140 02a2 30040000 		.4byte	.LASF93
 1141 02a6 D300     		.sleb128 83
 1142 02a8 08       		.uleb128 0x8
 1143 02a9 5F010000 		.4byte	.LASF94
ARM GAS  C:\Users\ahmedhamed\AppData\Local\Temp\cc6RV2Fb.s 			page 36


 1144 02ad D400     		.sleb128 84
 1145 02af 08       		.uleb128 0x8
 1146 02b0 010C0000 		.4byte	.LASF95
 1147 02b4 D500     		.sleb128 85
 1148 02b6 08       		.uleb128 0x8
 1149 02b7 63070000 		.4byte	.LASF96
 1150 02bb D600     		.sleb128 86
 1151 02bd 08       		.uleb128 0x8
 1152 02be 51070000 		.4byte	.LASF97
 1153 02c2 D700     		.sleb128 87
 1154 02c4 08       		.uleb128 0x8
 1155 02c5 A0010000 		.4byte	.LASF98
 1156 02c9 D800     		.sleb128 88
 1157 02cb 08       		.uleb128 0x8
 1158 02cc 78040000 		.4byte	.LASF99
 1159 02d0 D900     		.sleb128 89
 1160 02d2 08       		.uleb128 0x8
 1161 02d3 91050000 		.4byte	.LASF100
 1162 02d7 DA00     		.sleb128 90
 1163 02d9 08       		.uleb128 0x8
 1164 02da 24030000 		.4byte	.LASF101
 1165 02de DB00     		.sleb128 91
 1166 02e0 08       		.uleb128 0x8
 1167 02e1 0E060000 		.4byte	.LASF102
 1168 02e5 DC00     		.sleb128 92
 1169 02e7 08       		.uleb128 0x8
 1170 02e8 6A000000 		.4byte	.LASF103
 1171 02ec DD00     		.sleb128 93
 1172 02ee 08       		.uleb128 0x8
 1173 02ef 82090000 		.4byte	.LASF104
 1174 02f3 DE00     		.sleb128 94
 1175 02f5 08       		.uleb128 0x8
 1176 02f6 2E0A0000 		.4byte	.LASF105
 1177 02fa DF00     		.sleb128 95
 1178 02fc 08       		.uleb128 0x8
 1179 02fd E30A0000 		.4byte	.LASF106
 1180 0301 E000     		.sleb128 96
 1181 0303 08       		.uleb128 0x8
 1182 0304 EF090000 		.4byte	.LASF107
 1183 0308 E100     		.sleb128 97
 1184 030a 08       		.uleb128 0x8
 1185 030b D8050000 		.4byte	.LASF108
 1186 030f E200     		.sleb128 98
 1187 0311 08       		.uleb128 0x8
 1188 0312 BE0B0000 		.4byte	.LASF109
 1189 0316 E300     		.sleb128 99
 1190 0318 08       		.uleb128 0x8
 1191 0319 530B0000 		.4byte	.LASF110
 1192 031d E400     		.sleb128 100
 1193 031f 08       		.uleb128 0x8
 1194 0320 13080000 		.4byte	.LASF111
 1195 0324 E500     		.sleb128 101
 1196 0326 08       		.uleb128 0x8
 1197 0327 EE070000 		.4byte	.LASF112
 1198 032b E600     		.sleb128 102
 1199 032d 08       		.uleb128 0x8
 1200 032e 46090000 		.4byte	.LASF113
ARM GAS  C:\Users\ahmedhamed\AppData\Local\Temp\cc6RV2Fb.s 			page 37


 1201 0332 E700     		.sleb128 103
 1202 0334 08       		.uleb128 0x8
 1203 0335 95020000 		.4byte	.LASF114
 1204 0339 E800     		.sleb128 104
 1205 033b 08       		.uleb128 0x8
 1206 033c 0E090000 		.4byte	.LASF115
 1207 0340 E900     		.sleb128 105
 1208 0342 08       		.uleb128 0x8
 1209 0343 F2000000 		.4byte	.LASF116
 1210 0347 EA00     		.sleb128 106
 1211 0349 08       		.uleb128 0x8
 1212 034a 1E010000 		.4byte	.LASF117
 1213 034e EB00     		.sleb128 107
 1214 0350 08       		.uleb128 0x8
 1215 0351 DC030000 		.4byte	.LASF118
 1216 0355 EC00     		.sleb128 108
 1217 0357 08       		.uleb128 0x8
 1218 0358 46080000 		.4byte	.LASF119
 1219 035c ED00     		.sleb128 109
 1220 035e 08       		.uleb128 0x8
 1221 035f 570A0000 		.4byte	.LASF120
 1222 0363 EE00     		.sleb128 110
 1223 0365 08       		.uleb128 0x8
 1224 0366 D10B0000 		.4byte	.LASF121
 1225 036a EF00     		.sleb128 111
 1226 036c 08       		.uleb128 0x8
 1227 036d E10B0000 		.4byte	.LASF122
 1228 0371 F000     		.sleb128 112
 1229 0373 08       		.uleb128 0x8
 1230 0374 F10B0000 		.4byte	.LASF123
 1231 0378 F100     		.sleb128 113
 1232 037a 08       		.uleb128 0x8
 1233 037b 050A0000 		.4byte	.LASF124
 1234 037f F200     		.sleb128 114
 1235 0381 08       		.uleb128 0x8
 1236 0382 190B0000 		.4byte	.LASF125
 1237 0386 F300     		.sleb128 115
 1238 0388 08       		.uleb128 0x8
 1239 0389 CD070000 		.4byte	.LASF126
 1240 038d F400     		.sleb128 116
 1241 038f 08       		.uleb128 0x8
 1242 0390 AB0B0000 		.4byte	.LASF127
 1243 0394 F500     		.sleb128 117
 1244 0396 08       		.uleb128 0x8
 1245 0397 B1080000 		.4byte	.LASF128
 1246 039b F600     		.sleb128 118
 1247 039d 08       		.uleb128 0x8
 1248 039e 2D0B0000 		.4byte	.LASF129
 1249 03a2 F700     		.sleb128 119
 1250 03a4 08       		.uleb128 0x8
 1251 03a5 5B080000 		.4byte	.LASF130
 1252 03a9 F800     		.sleb128 120
 1253 03ab 08       		.uleb128 0x8
 1254 03ac 3B010000 		.4byte	.LASF131
 1255 03b0 F900     		.sleb128 121
 1256 03b2 08       		.uleb128 0x8
 1257 03b3 7A060000 		.4byte	.LASF132
ARM GAS  C:\Users\ahmedhamed\AppData\Local\Temp\cc6RV2Fb.s 			page 38


 1258 03b7 FA00     		.sleb128 122
 1259 03b9 08       		.uleb128 0x8
 1260 03ba 4F030000 		.4byte	.LASF133
 1261 03be FB00     		.sleb128 123
 1262 03c0 08       		.uleb128 0x8
 1263 03c1 680B0000 		.4byte	.LASF134
 1264 03c5 FC00     		.sleb128 124
 1265 03c7 08       		.uleb128 0x8
 1266 03c8 27070000 		.4byte	.LASF135
 1267 03cc FD00     		.sleb128 125
 1268 03ce 08       		.uleb128 0x8
 1269 03cf 94070000 		.4byte	.LASF136
 1270 03d3 FE00     		.sleb128 126
 1271 03d5 08       		.uleb128 0x8
 1272 03d6 9A090000 		.4byte	.LASF137
 1273 03da FF00     		.sleb128 127
 1274 03dc 08       		.uleb128 0x8
 1275 03dd 5F090000 		.4byte	.LASF138
 1276 03e1 8001     		.sleb128 128
 1277 03e3 08       		.uleb128 0x8
 1278 03e4 00000000 		.4byte	.LASF139
 1279 03e8 8101     		.sleb128 129
 1280 03ea 08       		.uleb128 0x8
 1281 03eb FE050000 		.4byte	.LASF140
 1282 03ef 8201     		.sleb128 130
 1283 03f1 08       		.uleb128 0x8
 1284 03f2 CD020000 		.4byte	.LASF141
 1285 03f6 8301     		.sleb128 131
 1286 03f8 08       		.uleb128 0x8
 1287 03f9 FA080000 		.4byte	.LASF142
 1288 03fd 8401     		.sleb128 132
 1289 03ff 08       		.uleb128 0x8
 1290 0400 0B010000 		.4byte	.LASF143
 1291 0404 8501     		.sleb128 133
 1292 0406 08       		.uleb128 0x8
 1293 0407 7B0A0000 		.4byte	.LASF144
 1294 040b 8601     		.sleb128 134
 1295 040d 08       		.uleb128 0x8
 1296 040e A5020000 		.4byte	.LASF145
 1297 0412 8701     		.sleb128 135
 1298 0414 08       		.uleb128 0x8
 1299 0415 7C0B0000 		.4byte	.LASF146
 1300 0419 8801     		.sleb128 136
 1301 041b 08       		.uleb128 0x8
 1302 041c 2A000000 		.4byte	.LASF147
 1303 0420 8901     		.sleb128 137
 1304 0422 08       		.uleb128 0x8
 1305 0423 65060000 		.4byte	.LASF148
 1306 0427 8A01     		.sleb128 138
 1307 0429 08       		.uleb128 0x8
 1308 042a 930A0000 		.4byte	.LASF149
 1309 042e 8B01     		.sleb128 139
 1310 0430 08       		.uleb128 0x8
 1311 0431 16050000 		.4byte	.LASF150
 1312 0435 8C01     		.sleb128 140
 1313 0437 08       		.uleb128 0x8
 1314 0438 E7080000 		.4byte	.LASF151
ARM GAS  C:\Users\ahmedhamed\AppData\Local\Temp\cc6RV2Fb.s 			page 39


 1315 043c 8D01     		.sleb128 141
 1316 043e 08       		.uleb128 0x8
 1317 043f 4C040000 		.4byte	.LASF152
 1318 0443 8E01     		.sleb128 142
 1319 0445 08       		.uleb128 0x8
 1320 0446 EF030000 		.4byte	.LASF153
 1321 044a 8F01     		.sleb128 143
 1322 044c 08       		.uleb128 0x8
 1323 044d C5050000 		.4byte	.LASF154
 1324 0451 9001     		.sleb128 144
 1325 0453 08       		.uleb128 0x8
 1326 0454 AA090000 		.4byte	.LASF155
 1327 0458 9101     		.sleb128 145
 1328 045a 08       		.uleb128 0x8
 1329 045b 9E0B0000 		.4byte	.LASF156
 1330 045f 9201     		.sleb128 146
 1331 0461 08       		.uleb128 0x8
 1332 0462 B0000000 		.4byte	.LASF157
 1333 0466 9301     		.sleb128 147
 1334 0468 00       		.byte	0
 1335 0469 05       		.uleb128 0x5
 1336 046a 31010000 		.4byte	.LASF159
 1337 046e 08       		.byte	0x8
 1338 046f 01       		.byte	0x1
 1339 0470 29       		.byte	0x29
 1340 0471 8E040000 		.4byte	0x48e
 1341 0475 06       		.uleb128 0x6
 1342 0476 8D030000 		.4byte	.LASF160
 1343 047a 01       		.byte	0x1
 1344 047b 2A       		.byte	0x2a
 1345 047c 49000000 		.4byte	0x49
 1346 0480 00       		.byte	0
 1347 0481 06       		.uleb128 0x6
 1348 0482 C80A0000 		.4byte	.LASF161
 1349 0486 01       		.byte	0x1
 1350 0487 2B       		.byte	0x2b
 1351 0488 8E040000 		.4byte	0x48e
 1352 048c 04       		.byte	0x4
 1353 048d 00       		.byte	0
 1354 048e 04       		.uleb128 0x4
 1355 048f 04       		.byte	0x4
 1356 0490 94040000 		.4byte	0x494
 1357 0494 09       		.uleb128 0x9
 1358 0495 99040000 		.4byte	0x499
 1359 0499 02       		.uleb128 0x2
 1360 049a 01       		.byte	0x1
 1361 049b 06       		.byte	0x6
 1362 049c 41090000 		.4byte	.LASF162
 1363 04a0 0A       		.uleb128 0xa
 1364 04a1 7F000000 		.4byte	.LASF166
 1365 04a5 01       		.byte	0x1
 1366 04a6 2901     		.2byte	0x129
 1367 04a8 69000000 		.4byte	0x69
 1368 04ac 00000000 		.4byte	.LFB0
 1369 04b0 10000000 		.4byte	.LFE0-.LFB0
 1370 04b4 01       		.uleb128 0x1
 1371 04b5 9C       		.byte	0x9c
ARM GAS  C:\Users\ahmedhamed\AppData\Local\Temp\cc6RV2Fb.s 			page 40


 1372 04b6 CB040000 		.4byte	0x4cb
 1373 04ba 0B       		.uleb128 0xb
 1374 04bb 9C060000 		.4byte	.LASF167
 1375 04bf 01       		.byte	0x1
 1376 04c0 2901     		.2byte	0x129
 1377 04c2 49000000 		.4byte	0x49
 1378 04c6 00000000 		.4byte	.LLST0
 1379 04ca 00       		.byte	0
 1380 04cb 0C       		.uleb128 0xc
 1381 04cc 69040000 		.4byte	0x469
 1382 04d0 DB040000 		.4byte	0x4db
 1383 04d4 0D       		.uleb128 0xd
 1384 04d5 62000000 		.4byte	0x62
 1385 04d9 93       		.byte	0x93
 1386 04da 00       		.byte	0
 1387 04db 0E       		.uleb128 0xe
 1388 04dc 56090000 		.4byte	.LASF168
 1389 04e0 01       		.byte	0x1
 1390 04e1 30       		.byte	0x30
 1391 04e2 EC040000 		.4byte	0x4ec
 1392 04e6 05       		.uleb128 0x5
 1393 04e7 03       		.byte	0x3
 1394 04e8 00000000 		.4byte	KMessage
 1395 04ec 09       		.uleb128 0x9
 1396 04ed CB040000 		.4byte	0x4cb
 1397 04f1 0C       		.uleb128 0xc
 1398 04f2 6F000000 		.4byte	0x6f
 1399 04f6 01050000 		.4byte	0x501
 1400 04fa 0D       		.uleb128 0xd
 1401 04fb 62000000 		.4byte	0x62
 1402 04ff 3B       		.byte	0x3b
 1403 0500 00       		.byte	0
 1404 0501 0F       		.uleb128 0xf
 1405 0502 8B070000 		.4byte	.LASF169
 1406 0506 01       		.byte	0x1
 1407 0507 E3       		.byte	0xe3
 1408 0508 12050000 		.4byte	0x512
 1409 050c 05       		.uleb128 0x5
 1410 050d 03       		.byte	0x3
 1411 050e 00000000 		.4byte	KRspText
 1412 0512 09       		.uleb128 0x9
 1413 0513 F1040000 		.4byte	0x4f1
 1414 0517 00       		.byte	0
 1415              		.section	.debug_abbrev,"",%progbits
 1416              	.Ldebug_abbrev0:
 1417 0000 01       		.uleb128 0x1
 1418 0001 11       		.uleb128 0x11
 1419 0002 01       		.byte	0x1
 1420 0003 25       		.uleb128 0x25
 1421 0004 0E       		.uleb128 0xe
 1422 0005 13       		.uleb128 0x13
 1423 0006 0B       		.uleb128 0xb
 1424 0007 03       		.uleb128 0x3
 1425 0008 0E       		.uleb128 0xe
 1426 0009 1B       		.uleb128 0x1b
 1427 000a 0E       		.uleb128 0xe
 1428 000b 55       		.uleb128 0x55
ARM GAS  C:\Users\ahmedhamed\AppData\Local\Temp\cc6RV2Fb.s 			page 41


 1429 000c 17       		.uleb128 0x17
 1430 000d 11       		.uleb128 0x11
 1431 000e 01       		.uleb128 0x1
 1432 000f 10       		.uleb128 0x10
 1433 0010 17       		.uleb128 0x17
 1434 0011 00       		.byte	0
 1435 0012 00       		.byte	0
 1436 0013 02       		.uleb128 0x2
 1437 0014 24       		.uleb128 0x24
 1438 0015 00       		.byte	0
 1439 0016 0B       		.uleb128 0xb
 1440 0017 0B       		.uleb128 0xb
 1441 0018 3E       		.uleb128 0x3e
 1442 0019 0B       		.uleb128 0xb
 1443 001a 03       		.uleb128 0x3
 1444 001b 0E       		.uleb128 0xe
 1445 001c 00       		.byte	0
 1446 001d 00       		.byte	0
 1447 001e 03       		.uleb128 0x3
 1448 001f 16       		.uleb128 0x16
 1449 0020 00       		.byte	0
 1450 0021 03       		.uleb128 0x3
 1451 0022 0E       		.uleb128 0xe
 1452 0023 3A       		.uleb128 0x3a
 1453 0024 0B       		.uleb128 0xb
 1454 0025 3B       		.uleb128 0x3b
 1455 0026 0B       		.uleb128 0xb
 1456 0027 49       		.uleb128 0x49
 1457 0028 13       		.uleb128 0x13
 1458 0029 00       		.byte	0
 1459 002a 00       		.byte	0
 1460 002b 04       		.uleb128 0x4
 1461 002c 0F       		.uleb128 0xf
 1462 002d 00       		.byte	0
 1463 002e 0B       		.uleb128 0xb
 1464 002f 0B       		.uleb128 0xb
 1465 0030 49       		.uleb128 0x49
 1466 0031 13       		.uleb128 0x13
 1467 0032 00       		.byte	0
 1468 0033 00       		.byte	0
 1469 0034 05       		.uleb128 0x5
 1470 0035 13       		.uleb128 0x13
 1471 0036 01       		.byte	0x1
 1472 0037 03       		.uleb128 0x3
 1473 0038 0E       		.uleb128 0xe
 1474 0039 0B       		.uleb128 0xb
 1475 003a 0B       		.uleb128 0xb
 1476 003b 3A       		.uleb128 0x3a
 1477 003c 0B       		.uleb128 0xb
 1478 003d 3B       		.uleb128 0x3b
 1479 003e 0B       		.uleb128 0xb
 1480 003f 01       		.uleb128 0x1
 1481 0040 13       		.uleb128 0x13
 1482 0041 00       		.byte	0
 1483 0042 00       		.byte	0
 1484 0043 06       		.uleb128 0x6
 1485 0044 0D       		.uleb128 0xd
ARM GAS  C:\Users\ahmedhamed\AppData\Local\Temp\cc6RV2Fb.s 			page 42


 1486 0045 00       		.byte	0
 1487 0046 03       		.uleb128 0x3
 1488 0047 0E       		.uleb128 0xe
 1489 0048 3A       		.uleb128 0x3a
 1490 0049 0B       		.uleb128 0xb
 1491 004a 3B       		.uleb128 0x3b
 1492 004b 0B       		.uleb128 0xb
 1493 004c 49       		.uleb128 0x49
 1494 004d 13       		.uleb128 0x13
 1495 004e 38       		.uleb128 0x38
 1496 004f 0B       		.uleb128 0xb
 1497 0050 00       		.byte	0
 1498 0051 00       		.byte	0
 1499 0052 07       		.uleb128 0x7
 1500 0053 04       		.uleb128 0x4
 1501 0054 01       		.byte	0x1
 1502 0055 0B       		.uleb128 0xb
 1503 0056 0B       		.uleb128 0xb
 1504 0057 3A       		.uleb128 0x3a
 1505 0058 0B       		.uleb128 0xb
 1506 0059 3B       		.uleb128 0x3b
 1507 005a 0B       		.uleb128 0xb
 1508 005b 01       		.uleb128 0x1
 1509 005c 13       		.uleb128 0x13
 1510 005d 00       		.byte	0
 1511 005e 00       		.byte	0
 1512 005f 08       		.uleb128 0x8
 1513 0060 28       		.uleb128 0x28
 1514 0061 00       		.byte	0
 1515 0062 03       		.uleb128 0x3
 1516 0063 0E       		.uleb128 0xe
 1517 0064 1C       		.uleb128 0x1c
 1518 0065 0D       		.uleb128 0xd
 1519 0066 00       		.byte	0
 1520 0067 00       		.byte	0
 1521 0068 09       		.uleb128 0x9
 1522 0069 26       		.uleb128 0x26
 1523 006a 00       		.byte	0
 1524 006b 49       		.uleb128 0x49
 1525 006c 13       		.uleb128 0x13
 1526 006d 00       		.byte	0
 1527 006e 00       		.byte	0
 1528 006f 0A       		.uleb128 0xa
 1529 0070 2E       		.uleb128 0x2e
 1530 0071 01       		.byte	0x1
 1531 0072 3F       		.uleb128 0x3f
 1532 0073 19       		.uleb128 0x19
 1533 0074 03       		.uleb128 0x3
 1534 0075 0E       		.uleb128 0xe
 1535 0076 3A       		.uleb128 0x3a
 1536 0077 0B       		.uleb128 0xb
 1537 0078 3B       		.uleb128 0x3b
 1538 0079 05       		.uleb128 0x5
 1539 007a 27       		.uleb128 0x27
 1540 007b 19       		.uleb128 0x19
 1541 007c 49       		.uleb128 0x49
 1542 007d 13       		.uleb128 0x13
ARM GAS  C:\Users\ahmedhamed\AppData\Local\Temp\cc6RV2Fb.s 			page 43


 1543 007e 11       		.uleb128 0x11
 1544 007f 01       		.uleb128 0x1
 1545 0080 12       		.uleb128 0x12
 1546 0081 06       		.uleb128 0x6
 1547 0082 40       		.uleb128 0x40
 1548 0083 18       		.uleb128 0x18
 1549 0084 9742     		.uleb128 0x2117
 1550 0086 19       		.uleb128 0x19
 1551 0087 01       		.uleb128 0x1
 1552 0088 13       		.uleb128 0x13
 1553 0089 00       		.byte	0
 1554 008a 00       		.byte	0
 1555 008b 0B       		.uleb128 0xb
 1556 008c 05       		.uleb128 0x5
 1557 008d 00       		.byte	0
 1558 008e 03       		.uleb128 0x3
 1559 008f 0E       		.uleb128 0xe
 1560 0090 3A       		.uleb128 0x3a
 1561 0091 0B       		.uleb128 0xb
 1562 0092 3B       		.uleb128 0x3b
 1563 0093 05       		.uleb128 0x5
 1564 0094 49       		.uleb128 0x49
 1565 0095 13       		.uleb128 0x13
 1566 0096 02       		.uleb128 0x2
 1567 0097 17       		.uleb128 0x17
 1568 0098 00       		.byte	0
 1569 0099 00       		.byte	0
 1570 009a 0C       		.uleb128 0xc
 1571 009b 01       		.uleb128 0x1
 1572 009c 01       		.byte	0x1
 1573 009d 49       		.uleb128 0x49
 1574 009e 13       		.uleb128 0x13
 1575 009f 01       		.uleb128 0x1
 1576 00a0 13       		.uleb128 0x13
 1577 00a1 00       		.byte	0
 1578 00a2 00       		.byte	0
 1579 00a3 0D       		.uleb128 0xd
 1580 00a4 21       		.uleb128 0x21
 1581 00a5 00       		.byte	0
 1582 00a6 49       		.uleb128 0x49
 1583 00a7 13       		.uleb128 0x13
 1584 00a8 2F       		.uleb128 0x2f
 1585 00a9 0B       		.uleb128 0xb
 1586 00aa 00       		.byte	0
 1587 00ab 00       		.byte	0
 1588 00ac 0E       		.uleb128 0xe
 1589 00ad 34       		.uleb128 0x34
 1590 00ae 00       		.byte	0
 1591 00af 03       		.uleb128 0x3
 1592 00b0 0E       		.uleb128 0xe
 1593 00b1 3A       		.uleb128 0x3a
 1594 00b2 0B       		.uleb128 0xb
 1595 00b3 3B       		.uleb128 0x3b
 1596 00b4 0B       		.uleb128 0xb
 1597 00b5 49       		.uleb128 0x49
 1598 00b6 13       		.uleb128 0x13
 1599 00b7 02       		.uleb128 0x2
ARM GAS  C:\Users\ahmedhamed\AppData\Local\Temp\cc6RV2Fb.s 			page 44


 1600 00b8 18       		.uleb128 0x18
 1601 00b9 00       		.byte	0
 1602 00ba 00       		.byte	0
 1603 00bb 0F       		.uleb128 0xf
 1604 00bc 34       		.uleb128 0x34
 1605 00bd 00       		.byte	0
 1606 00be 03       		.uleb128 0x3
 1607 00bf 0E       		.uleb128 0xe
 1608 00c0 3A       		.uleb128 0x3a
 1609 00c1 0B       		.uleb128 0xb
 1610 00c2 3B       		.uleb128 0x3b
 1611 00c3 0B       		.uleb128 0xb
 1612 00c4 49       		.uleb128 0x49
 1613 00c5 13       		.uleb128 0x13
 1614 00c6 3F       		.uleb128 0x3f
 1615 00c7 19       		.uleb128 0x19
 1616 00c8 02       		.uleb128 0x2
 1617 00c9 18       		.uleb128 0x18
 1618 00ca 00       		.byte	0
 1619 00cb 00       		.byte	0
 1620 00cc 00       		.byte	0
 1621              		.section	.debug_loc,"",%progbits
 1622              	.Ldebug_loc0:
 1623              	.LLST0:
 1624 0000 00000000 		.4byte	.LVL0
 1625 0004 06000000 		.4byte	.LVL1
 1626 0008 0100     		.2byte	0x1
 1627 000a 50       		.byte	0x50
 1628 000b 06000000 		.4byte	.LVL1
 1629 000f 10000000 		.4byte	.LFE0
 1630 0013 0400     		.2byte	0x4
 1631 0015 F3       		.byte	0xf3
 1632 0016 01       		.uleb128 0x1
 1633 0017 50       		.byte	0x50
 1634 0018 9F       		.byte	0x9f
 1635 0019 00000000 		.4byte	0
 1636 001d 00000000 		.4byte	0
 1637              		.section	.debug_aranges,"",%progbits
 1638 0000 1C000000 		.4byte	0x1c
 1639 0004 0200     		.2byte	0x2
 1640 0006 00000000 		.4byte	.Ldebug_info0
 1641 000a 04       		.byte	0x4
 1642 000b 00       		.byte	0
 1643 000c 0000     		.2byte	0
 1644 000e 0000     		.2byte	0
 1645 0010 00000000 		.4byte	.LFB0
 1646 0014 10000000 		.4byte	.LFE0-.LFB0
 1647 0018 00000000 		.4byte	0
 1648 001c 00000000 		.4byte	0
 1649              		.section	.debug_ranges,"",%progbits
 1650              	.Ldebug_ranges0:
 1651 0000 00000000 		.4byte	.LFB0
 1652 0004 10000000 		.4byte	.LFE0
 1653 0008 00000000 		.4byte	0
 1654 000c 00000000 		.4byte	0
 1655              		.section	.debug_line,"",%progbits
 1656              	.Ldebug_line0:
ARM GAS  C:\Users\ahmedhamed\AppData\Local\Temp\cc6RV2Fb.s 			page 45


 1657 0000 63000000 		.section	.debug_str,"MS",%progbits,1
 1657      02004B00 
 1657      00000201 
 1657      FB0E0D00 
 1657      01010101 
 1658              	.LASF139:
 1659 0000 4544435F 		.ascii	"EDC_SE_BUS_DATE\000"
 1659      53455F42 
 1659      55535F44 
 1659      41544500 
 1660              	.LASF14:
 1661 0010 4544435F 		.ascii	"EDC_CN_AUTH\000"
 1661      434E5F41 
 1661      55544800 
 1662              	.LASF22:
 1663 001c 4544435F 		.ascii	"EDC_CN_SETTLE\000"
 1663      434E5F53 
 1663      4554544C 
 1663      4500
 1664              	.LASF147:
 1665 002a 4544435F 		.ascii	"EDC_EMV_PROCESSING\000"
 1665      454D565F 
 1665      50524F43 
 1665      45535349 
 1665      4E4700
 1666              	.LASF9:
 1667 003d 645F7465 		.ascii	"d_text_id\000"
 1667      78745F69 
 1667      6400
 1668              	.LASF77:
 1669 0047 4544435F 		.ascii	"EDC_PN_PLS_WAIT\000"
 1669      504E5F50 
 1669      4C535F57 
 1669      41495400 
 1670              	.LASF84:
 1671 0057 4544435F 		.ascii	"EDC_RSP_NOT_HONOUR\000"
 1671      5253505F 
 1671      4E4F545F 
 1671      484F4E4F 
 1671      555200
 1672              	.LASF103:
 1673 006a 4544435F 		.ascii	"EDC_RSP_BAD_BATCH_NO\000"
 1673      5253505F 
 1673      4241445F 
 1673      42415443 
 1673      485F4E4F 
 1674              	.LASF166:
 1675 007f 47657443 		.ascii	"GetConstMsg\000"
 1675      6F6E7374 
 1675      4D736700 
 1676              	.LASF52:
 1677 008b 4544435F 		.ascii	"EDC_AJ_BASE_AMT\000"
 1677      414A5F42 
 1677      4153455F 
 1677      414D5400 
 1678              	.LASF90:
 1679 009b 4544435F 		.ascii	"EDC_RSP_INVALID_TERM\000"
ARM GAS  C:\Users\ahmedhamed\AppData\Local\Temp\cc6RV2Fb.s 			page 46


 1679      5253505F 
 1679      494E5641 
 1679      4C49445F 
 1679      5445524D 
 1680              	.LASF157:
 1681 00b0 4544435F 		.ascii	"EDC_MSG_END\000"
 1681      4D53475F 
 1681      454E4400 
 1682              	.LASF6:
 1683 00bc 6C6F6E67 		.ascii	"long long unsigned int\000"
 1683      206C6F6E 
 1683      6720756E 
 1683      7369676E 
 1683      65642069 
 1684              	.LASF18:
 1685 00d3 4544435F 		.ascii	"EDC_CN_SALE_COMP\000"
 1685      434E5F53 
 1685      414C455F 
 1685      434F4D50 
 1685      00
 1686              	.LASF66:
 1687 00e4 4544435F 		.ascii	"EDC_FN_NO_REV\000"
 1687      464E5F4E 
 1687      4F5F5245 
 1687      5600
 1688              	.LASF116:
 1689 00f2 4544435F 		.ascii	"EDC_RSP_CTL_REFER_MOBILE\000"
 1689      5253505F 
 1689      43544C5F 
 1689      52454645 
 1689      525F4D4F 
 1690              	.LASF143:
 1691 010b 4544435F 		.ascii	"EDC_SE_TOTAL_WRONG\000"
 1691      53455F54 
 1691      4F54414C 
 1691      5F57524F 
 1691      4E4700
 1692              	.LASF117:
 1693 011e 4544435F 		.ascii	"EDC_RSP_TXN_CANCEL\000"
 1693      5253505F 
 1693      54584E5F 
 1693      43414E43 
 1693      454C00
 1694              	.LASF159:
 1695 0131 434F4E53 		.ascii	"CONST_MSG\000"
 1695      545F4D53 
 1695      4700
 1696              	.LASF131:
 1697 013b 4544435F 		.ascii	"EDC_RSP_SYS_ERROR\000"
 1697      5253505F 
 1697      5359535F 
 1697      4552524F 
 1697      5200
 1698              	.LASF38:
 1699 014d 4544435F 		.ascii	"EDC_IN_INV_EXPIRE\000"
 1699      494E5F49 
 1699      4E565F45 
ARM GAS  C:\Users\ahmedhamed\AppData\Local\Temp\cc6RV2Fb.s 			page 47


 1699      58504952 
 1699      4500
 1700              	.LASF94:
 1701 015f 4544435F 		.ascii	"EDC_RSP_CALL_CC\000"
 1701      5253505F 
 1701      43414C4C 
 1701      5F434300 
 1702              	.LASF25:
 1703 016f 4544435F 		.ascii	"EDC_CN_SETT_ADV\000"
 1703      434E5F53 
 1703      4554545F 
 1703      41445600 
 1704              	.LASF17:
 1705 017f 4544435F 		.ascii	"EDC_CN_OFFLINE\000"
 1705      434E5F4F 
 1705      46464C49 
 1705      4E4500
 1706              	.LASF79:
 1707 018e 4544435F 		.ascii	"EDC_RSP_COMPLETED\000"
 1707      5253505F 
 1707      434F4D50 
 1707      4C455445 
 1707      4400
 1708              	.LASF98:
 1709 01a0 4544435F 		.ascii	"EDC_RSP_INV_SERVICE\000"
 1709      5253505F 
 1709      494E565F 
 1709      53455256 
 1709      49434500 
 1710              	.LASF163:
 1711 01b4 474E5520 		.ascii	"GNU C 4.9.3 20141119 (release) [ARM/embedded-4_9-br"
 1711      4320342E 
 1711      392E3320 
 1711      32303134 
 1711      31313139 
 1712 01e7 616E6368 		.ascii	"anch revision 218278] -mthumb -mcpu=cortex-a5 -mthu"
 1712      20726576 
 1712      6973696F 
 1712      6E203231 
 1712      38323738 
 1713 021a 6D622D69 		.ascii	"mb-interwork -mstructure-size-boundary=32 -mno-unal"
 1713      6E746572 
 1713      776F726B 
 1713      202D6D73 
 1713      74727563 
 1714 024d 69676E65 		.ascii	"igned-access -g -Os -ffunction-sections -fsigned-ch"
 1714      642D6163 
 1714      63657373 
 1714      202D6720 
 1714      2D4F7320 
 1715 0280 617200   		.ascii	"ar\000"
 1716              	.LASF55:
 1717 0283 4544435F 		.ascii	"EDC_AJ_TXN_VOIDED\000"
 1717      414A5F54 
 1717      584E5F56 
 1717      4F494445 
 1717      4400
ARM GAS  C:\Users\ahmedhamed\AppData\Local\Temp\cc6RV2Fb.s 			page 48


 1718              	.LASF114:
 1719 0295 4544435F 		.ascii	"EDC_RSP_CTL_DDA\000"
 1719      5253505F 
 1719      43544C5F 
 1719      44444100 
 1720              	.LASF145:
 1721 02a5 4544435F 		.ascii	"EDC_SE_ENTER_REF_TOTAL\000"
 1721      53455F45 
 1721      4E544552 
 1721      5F524546 
 1721      5F544F54 
 1722              	.LASF64:
 1723 02bc 4544435F 		.ascii	"EDC_FN_CLR_BATCH\000"
 1723      464E5F43 
 1723      4C525F42 
 1723      41544348 
 1723      00
 1724              	.LASF141:
 1725 02cd 4544435F 		.ascii	"EDC_SE_SALE_TOTAL\000"
 1725      53455F53 
 1725      414C455F 
 1725      544F5441 
 1725      4C00
 1726              	.LASF36:
 1727 02df 4544435F 		.ascii	"EDC_IN_TOTAL_PROMPT\000"
 1727      494E5F54 
 1727      4F54414C 
 1727      5F50524F 
 1727      4D505400 
 1728              	.LASF41:
 1729 02f3 4544435F 		.ascii	"EDC_IN_4DBC\000"
 1729      494E5F34 
 1729      44424300 
 1730              	.LASF29:
 1731 02ff 4544435F 		.ascii	"EDC_IN_SWIPE_CARD\000"
 1731      494E5F53 
 1731      57495045 
 1731      5F434152 
 1731      4400
 1732              	.LASF37:
 1733 0311 4544435F 		.ascii	"EDC_IN_EXPIRY_DATE\000"
 1733      494E5F45 
 1733      58504952 
 1733      595F4441 
 1733      544500
 1734              	.LASF101:
 1735 0324 4544435F 		.ascii	"EDC_RSP_TOT_MISMATCH\000"
 1735      5253505F 
 1735      544F545F 
 1735      4D49534D 
 1735      41544348 
 1736              	.LASF4:
 1737 0339 44574F52 		.ascii	"DWORD\000"
 1737      4400
 1738              	.LASF32:
 1739 033f 4544435F 		.ascii	"EDC_IN_BASE_AMT\000"
 1739      494E5F42 
ARM GAS  C:\Users\ahmedhamed\AppData\Local\Temp\cc6RV2Fb.s 			page 49


 1739      4153455F 
 1739      414D5400 
 1740              	.LASF133:
 1741 034f 4544435F 		.ascii	"EDC_RSP_TRY_AGAING_TO\000"
 1741      5253505F 
 1741      5452595F 
 1741      41474149 
 1741      4E475F54 
 1742              	.LASF158:
 1743 0365 5253505F 		.ascii	"RSP_TEXT\000"
 1743      54455854 
 1743      00
 1744              	.LASF51:
 1745 036e 4544435F 		.ascii	"EDC_AJ_ENTER_NTIP\000"
 1745      414A5F45 
 1745      4E544552 
 1745      5F4E5449 
 1745      5000
 1746              	.LASF43:
 1747 0380 4544435F 		.ascii	"EDC_IN_TRACE\000"
 1747      494E5F54 
 1747      52414345 
 1747      00
 1748              	.LASF160:
 1749 038d 645F6D73 		.ascii	"d_msg_id\000"
 1749      675F6964 
 1749      00
 1750              	.LASF10:
 1751 0396 4544435F 		.ascii	"EDC_CO_SWIPE_INS\000"
 1751      434F5F53 
 1751      57495045 
 1751      5F494E53 
 1751      00
 1752              	.LASF13:
 1753 03a7 4544435F 		.ascii	"EDC_CO_PROCESSING\000"
 1753      434F5F50 
 1753      524F4345 
 1753      5353494E 
 1753      4700
 1754              	.LASF164:
 1755 03b9 7372632F 		.ascii	"src/message.c\000"
 1755      6D657373 
 1755      6167652E 
 1755      6300
 1756              	.LASF70:
 1757 03c7 4544435F 		.ascii	"EDC_FN_REPRINT_BATCH\000"
 1757      464E5F52 
 1757      45505249 
 1757      4E545F42 
 1757      41544348 
 1758              	.LASF118:
 1759 03dc 4544435F 		.ascii	"EDC_RSP_DATA_ERROR\000"
 1759      5253505F 
 1759      44415441 
 1759      5F455252 
 1759      4F5200
 1760              	.LASF153:
ARM GAS  C:\Users\ahmedhamed\AppData\Local\Temp\cc6RV2Fb.s 			page 50


 1761 03ef 4544435F 		.ascii	"EDC_CTL_TAP_CARD\000"
 1761      43544C5F 
 1761      5441505F 
 1761      43415244 
 1761      00
 1762              	.LASF47:
 1763 0400 4544435F 		.ascii	"EDC_TU_CLOSE_BATCH\000"
 1763      54555F43 
 1763      4C4F5345 
 1763      5F424154 
 1763      434800
 1764              	.LASF78:
 1765 0413 4544435F 		.ascii	"EDC_PN_LOW_BATT\000"
 1765      504E5F4C 
 1765      4F575F42 
 1765      41545400 
 1766              	.LASF5:
 1767 0423 756E7369 		.ascii	"unsigned int\000"
 1767      676E6564 
 1767      20696E74 
 1767      00
 1768              	.LASF93:
 1769 0430 4544435F 		.ascii	"EDC_RSP_CALL_LC\000"
 1769      5253505F 
 1769      43414C4C 
 1769      5F4C4300 
 1770              	.LASF19:
 1771 0440 4544435F 		.ascii	"EDC_CN_VOID\000"
 1771      434E5F56 
 1771      4F494400 
 1772              	.LASF152:
 1773 044c 4544435F 		.ascii	"EDC_CTL_PREPROCESS_ERR\000"
 1773      43544C5F 
 1773      50524550 
 1773      524F4345 
 1773      53535F45 
 1774              	.LASF92:
 1775 0463 4544435F 		.ascii	"EDC_RSP_UNKNOWN_CARD\000"
 1775      5253505F 
 1775      554E4B4E 
 1775      4F574E5F 
 1775      43415244 
 1776              	.LASF99:
 1777 0478 4544435F 		.ascii	"EDC_RSP_CONTACT_ACQ\000"
 1777      5253505F 
 1777      434F4E54 
 1777      4143545F 
 1777      41435100 
 1778              	.LASF89:
 1779 048c 4544435F 		.ascii	"EDC_RSP_RETRY\000"
 1779      5253505F 
 1779      52455452 
 1779      5900
 1780              	.LASF165:
 1781 049a 433A5C55 		.ascii	"C:\\Users\\ahmedhamed\\Documents\\GitHub\\S_MISR\\A"
 1781      73657273 
 1781      5C61686D 
ARM GAS  C:\Users\ahmedhamed\AppData\Local\Temp\cc6RV2Fb.s 			page 51


 1781      65646861 
 1781      6D65645C 
 1782 04c7 50505C4D 		.ascii	"PP\\MISR\000"
 1782      49535200 
 1783              	.LASF54:
 1784 04cf 4544435F 		.ascii	"EDC_AJ_OVERLIMIT\000"
 1784      414A5F4F 
 1784      5645524C 
 1784      494D4954 
 1784      00
 1785              	.LASF85:
 1786 04e0 4544435F 		.ascii	"EDC_RSP_APPV_ID\000"
 1786      5253505F 
 1786      41505056 
 1786      5F494400 
 1787              	.LASF23:
 1788 04f0 4544435F 		.ascii	"EDC_CN_REVERSAL\000"
 1788      434E5F52 
 1788      45564552 
 1788      53414C00 
 1789              	.LASF82:
 1790 0500 4544435F 		.ascii	"EDC_RSP_INVALID_MERCH\000"
 1790      5253505F 
 1790      494E5641 
 1790      4C49445F 
 1790      4D455243 
 1791              	.LASF150:
 1792 0516 4544435F 		.ascii	"EDC_CTL_FATAL\000"
 1792      43544C5F 
 1792      46415441 
 1792      4C00
 1793              	.LASF60:
 1794 0524 4544435F 		.ascii	"EDC_FN_START_BATCH\000"
 1794      464E5F53 
 1794      54415254 
 1794      5F424154 
 1794      434800
 1795              	.LASF3:
 1796 0537 73686F72 		.ascii	"short unsigned int\000"
 1796      7420756E 
 1796      7369676E 
 1796      65642069 
 1796      6E7400
 1797              	.LASF0:
 1798 054a 42595445 		.ascii	"BYTE\000"
 1798      00
 1799              	.LASF44:
 1800 054f 4544435F 		.ascii	"EDC_IN_ECRREF\000"
 1800      494E5F45 
 1800      43525245 
 1800      4600
 1801              	.LASF40:
 1802 055d 4544435F 		.ascii	"EDC_IN_ENTER_DESC\000"
 1802      494E5F45 
 1802      4E544552 
 1802      5F444553 
 1802      4300
ARM GAS  C:\Users\ahmedhamed\AppData\Local\Temp\cc6RV2Fb.s 			page 52


 1803              	.LASF81:
 1804 056f 4544435F 		.ascii	"EDC_RSP_REFERRAL\000"
 1804      5253505F 
 1804      52454645 
 1804      5252414C 
 1804      00
 1805              	.LASF86:
 1806 0580 4544435F 		.ascii	"EDC_RSP_BAD_PROC\000"
 1806      5253505F 
 1806      4241445F 
 1806      50524F43 
 1806      00
 1807              	.LASF100:
 1808 0591 4544435F 		.ascii	"EDC_RSP_BAD_PROD\000"
 1808      5253505F 
 1808      4241445F 
 1808      50524F44 
 1808      00
 1809              	.LASF46:
 1810 05a2 4544435F 		.ascii	"EDC_TU_NOT_ALLOW\000"
 1810      54555F4E 
 1810      4F545F41 
 1810      4C4C4F57 
 1810      00
 1811              	.LASF26:
 1812 05b3 4544435F 		.ascii	"EDC_CN_TRANS_LAST\000"
 1812      434E5F54 
 1812      52414E53 
 1812      5F4C4153 
 1812      5400
 1813              	.LASF154:
 1814 05c5 4544435F 		.ascii	"EDC_CTL_AMT_EXCEED\000"
 1814      43544C5F 
 1814      414D545F 
 1814      45584345 
 1814      454400
 1815              	.LASF108:
 1816 05d8 4544435F 		.ascii	"EDC_RSP_DUP_TRACE\000"
 1816      5253505F 
 1816      4455505F 
 1816      54524143 
 1816      4500
 1817              	.LASF83:
 1818 05ea 4544435F 		.ascii	"EDC_RSP_PICKUP_CARD\000"
 1818      5253505F 
 1818      5049434B 
 1818      55505F43 
 1818      41524400 
 1819              	.LASF140:
 1820 05fe 4544435F 		.ascii	"EDC_SE_NO_BATCH\000"
 1820      53455F4E 
 1820      4F5F4241 
 1820      54434800 
 1821              	.LASF102:
 1822 060e 4544435F 		.ascii	"EDC_RSP_ROC_NOT_FOUND\000"
 1822      5253505F 
 1822      524F435F 
ARM GAS  C:\Users\ahmedhamed\AppData\Local\Temp\cc6RV2Fb.s 			page 53


 1822      4E4F545F 
 1822      464F554E 
 1823              	.LASF68:
 1824 0624 4544435F 		.ascii	"EDC_FN_REV_CLEAR\000"
 1824      464E5F52 
 1824      45565F43 
 1824      4C454152 
 1824      00
 1825              	.LASF8:
 1826 0635 775F6964 		.ascii	"w_idx\000"
 1826      7800
 1827              	.LASF7:
 1828 063b 73697A65 		.ascii	"sizetype\000"
 1828      74797065 
 1828      00
 1829              	.LASF56:
 1830 0644 4544435F 		.ascii	"EDC_AJ_CLOSE_BATCH\000"
 1830      414A5F43 
 1830      4C4F5345 
 1830      5F424154 
 1830      434800
 1831              	.LASF16:
 1832 0657 4544435F 		.ascii	"EDC_CN_REFUND\000"
 1832      434E5F52 
 1832      4546554E 
 1832      4400
 1833              	.LASF148:
 1834 0665 4544435F 		.ascii	"EDC_EMV_SEL_APP\000"
 1834      454D565F 
 1834      53454C5F 
 1834      41505000 
 1835              	.LASF1:
 1836 0675 574F5244 		.ascii	"WORD\000"
 1836      00
 1837              	.LASF132:
 1838 067a 4544435F 		.ascii	"EDC_RSP_RSP_TXN_ACP\000"
 1838      5253505F 
 1838      5253505F 
 1838      54584E5F 
 1838      41435000 
 1839              	.LASF20:
 1840 068e 4544435F 		.ascii	"EDC_CN_ADJUST\000"
 1840      434E5F41 
 1840      444A5553 
 1840      5400
 1841              	.LASF167:
 1842 069c 614D7367 		.ascii	"aMsgId\000"
 1842      496400
 1843              	.LASF34:
 1844 06a3 4544435F 		.ascii	"EDC_IN_ENTER_TIPS\000"
 1844      494E5F45 
 1844      4E544552 
 1844      5F544950 
 1844      5300
 1845              	.LASF49:
 1846 06b5 4544435F 		.ascii	"EDC_AJ_NOT_ALLOW\000"
 1846      414A5F4E 
ARM GAS  C:\Users\ahmedhamed\AppData\Local\Temp\cc6RV2Fb.s 			page 54


 1846      4F545F41 
 1846      4C4C4F57 
 1846      00
 1847              	.LASF91:
 1848 06c6 4544435F 		.ascii	"EDC_RSP_EDIT_ERROR\000"
 1848      5253505F 
 1848      45444954 
 1848      5F455252 
 1848      4F5200
 1849              	.LASF15:
 1850 06d9 4544435F 		.ascii	"EDC_CN_SALE\000"
 1850      434E5F53 
 1850      414C4500 
 1851              	.LASF74:
 1852 06e5 4544435F 		.ascii	"EDC_PN_HIGHTEMP\000"
 1852      504E5F48 
 1852      49474854 
 1852      454D5000 
 1853              	.LASF75:
 1854 06f5 4544435F 		.ascii	"EDC_PN_NO_PAPER\000"
 1854      504E5F4E 
 1854      4F5F5041 
 1854      50455200 
 1855              	.LASF50:
 1856 0705 4544435F 		.ascii	"EDC_AJ_ENTER_NAMT\000"
 1856      414A5F45 
 1856      4E544552 
 1856      5F4E414D 
 1856      5400
 1857              	.LASF35:
 1858 0717 4544435F 		.ascii	"EDC_IN_INV_TIPS\000"
 1858      494E5F49 
 1858      4E565F54 
 1858      49505300 
 1859              	.LASF135:
 1860 0727 4544435F 		.ascii	"EDC_RSP_UNSUPPORT_CARD\000"
 1860      5253505F 
 1860      554E5355 
 1860      50504F52 
 1860      545F4341 
 1861              	.LASF87:
 1862 073e 4544435F 		.ascii	"EDC_RSP_BAD_AMOUNT\000"
 1862      5253505F 
 1862      4241445F 
 1862      414D4F55 
 1862      4E5400
 1863              	.LASF97:
 1864 0751 4544435F 		.ascii	"EDC_RSP_PIN_ERROR\000"
 1864      5253505F 
 1864      50494E5F 
 1864      4552524F 
 1864      5200
 1865              	.LASF96:
 1866 0763 4544435F 		.ascii	"EDC_RSP_CARD_EXPIRED\000"
 1866      5253505F 
 1866      43415244 
 1866      5F455850 
ARM GAS  C:\Users\ahmedhamed\AppData\Local\Temp\cc6RV2Fb.s 			page 55


 1866      49524544 
 1867              	.LASF65:
 1868 0778 4544435F 		.ascii	"EDC_FN_BATCH_ERASE\000"
 1868      464E5F42 
 1868      41544348 
 1868      5F455241 
 1868      534500
 1869              	.LASF169:
 1870 078b 4B527370 		.ascii	"KRspText\000"
 1870      54657874 
 1870      00
 1871              	.LASF136:
 1872 0794 4544435F 		.ascii	"EDC_RSP_INVALID_CARD\000"
 1872      5253505F 
 1872      494E5641 
 1872      4C49445F 
 1872      43415244 
 1873              	.LASF39:
 1874 07a9 4544435F 		.ascii	"EDC_IN_CARD_EXPIRED\000"
 1874      494E5F43 
 1874      4152445F 
 1874      45585049 
 1874      52454400 
 1875              	.LASF63:
 1876 07bd 4544435F 		.ascii	"EDC_FN_CARD_REC\000"
 1876      464E5F43 
 1876      4152445F 
 1876      52454300 
 1877              	.LASF126:
 1878 07cd 4544435F 		.ascii	"EDC_RSP_LINE_OCCUP\000"
 1878      5253505F 
 1878      4C494E45 
 1878      5F4F4343 
 1878      555000
 1879              	.LASF2:
 1880 07e0 756E7369 		.ascii	"unsigned char\000"
 1880      676E6564 
 1880      20636861 
 1880      7200
 1881              	.LASF112:
 1882 07ee 4544435F 		.ascii	"EDC_RSP_LOW_BATT\000"
 1882      5253505F 
 1882      4C4F575F 
 1882      42415454 
 1882      00
 1883              	.LASF42:
 1884 07ff 4544435F 		.ascii	"EDC_IN_INVALID_CARD\000"
 1884      494E5F49 
 1884      4E56414C 
 1884      49445F43 
 1884      41524400 
 1885              	.LASF111:
 1886 0813 4544435F 		.ascii	"EDC_RSP_APP_CODE\000"
 1886      5253505F 
 1886      4150505F 
 1886      434F4445 
 1886      00
ARM GAS  C:\Users\ahmedhamed\AppData\Local\Temp\cc6RV2Fb.s 			page 56


 1887              	.LASF24:
 1888 0824 4544435F 		.ascii	"EDC_CN_TEST_MSG\000"
 1888      434E5F54 
 1888      4553545F 
 1888      4D534700 
 1889              	.LASF69:
 1890 0834 4544435F 		.ascii	"EDC_FN_DISP_BATCH\000"
 1890      464E5F44 
 1890      4953505F 
 1890      42415443 
 1890      4800
 1891              	.LASF119:
 1892 0846 4544435F 		.ascii	"EDC_RSP_TRY_AGAIN_NC\000"
 1892      5253505F 
 1892      5452595F 
 1892      41474149 
 1892      4E5F4E43 
 1893              	.LASF130:
 1894 085b 4544435F 		.ascii	"EDC_RSP_SWIPT_AE\000"
 1894      5253505F 
 1894      53574950 
 1894      545F4145 
 1894      00
 1895              	.LASF12:
 1896 086c 4544435F 		.ascii	"EDC_CO_REMOVE_ICC\000"
 1896      434F5F52 
 1896      454D4F56 
 1896      455F4943 
 1896      4300
 1897              	.LASF61:
 1898 087e 4544435F 		.ascii	"EDC_FN_END_BATCH\000"
 1898      464E5F45 
 1898      4E445F42 
 1898      41544348 
 1898      00
 1899              	.LASF76:
 1900 088f 4544435F 		.ascii	"EDC_PN_PLS_REPRINT\000"
 1900      504E5F50 
 1900      4C535F52 
 1900      45505249 
 1900      4E5400
 1901              	.LASF67:
 1902 08a2 4544435F 		.ascii	"EDC_FN_CLR_REV\000"
 1902      464E5F43 
 1902      4C525F52 
 1902      455600
 1903              	.LASF128:
 1904 08b1 4544435F 		.ascii	"EDC_RSP_READ_ERROR\000"
 1904      5253505F 
 1904      52454144 
 1904      5F455252 
 1904      4F5200
 1905              	.LASF58:
 1906 08c4 4544435F 		.ascii	"EDC_VD_VOIDED\000"
 1906      56445F56 
 1906      4F494445 
 1906      4400
ARM GAS  C:\Users\ahmedhamed\AppData\Local\Temp\cc6RV2Fb.s 			page 57


 1907              	.LASF11:
 1908 08d2 4544435F 		.ascii	"EDC_CO_SWIPE_INS_TAP\000"
 1908      434F5F53 
 1908      57495045 
 1908      5F494E53 
 1908      5F544150 
 1909              	.LASF151:
 1910 08e7 4544435F 		.ascii	"EDC_CTL_PROCESSING\000"
 1910      43544C5F 
 1910      50524F43 
 1910      45535349 
 1910      4E4700
 1911              	.LASF142:
 1912 08fa 4544435F 		.ascii	"EDC_SE_REFUND_TOTAL\000"
 1912      53455F52 
 1912      4546554E 
 1912      445F544F 
 1912      54414C00 
 1913              	.LASF115:
 1914 090e 4544435F 		.ascii	"EDC_RSP_CTL_OCARD\000"
 1914      5253505F 
 1914      43544C5F 
 1914      4F434152 
 1914      4400
 1915              	.LASF59:
 1916 0920 4544435F 		.ascii	"EDC_VD_NOT_ALLOW\000"
 1916      56445F4E 
 1916      4F545F41 
 1916      4C4C4F57 
 1916      00
 1917              	.LASF53:
 1918 0931 4544435F 		.ascii	"EDC_AJ_TIPS_AMT\000"
 1918      414A5F54 
 1918      4950535F 
 1918      414D5400 
 1919              	.LASF162:
 1920 0941 63686172 		.ascii	"char\000"
 1920      00
 1921              	.LASF113:
 1922 0946 4544435F 		.ascii	"EDC_RSP_CTL_TOI\000"
 1922      5253505F 
 1922      43544C5F 
 1922      544F4900 
 1923              	.LASF168:
 1924 0956 4B4D6573 		.ascii	"KMessage\000"
 1924      73616765 
 1924      00
 1925              	.LASF138:
 1926 095f 4544435F 		.ascii	"EDC_RSP_NO_REC\000"
 1926      5253505F 
 1926      4E4F5F52 
 1926      454300
 1927              	.LASF33:
 1928 096e 4544435F 		.ascii	"EDC_IN_ENTER_AMOUNT\000"
 1928      494E5F45 
 1928      4E544552 
 1928      5F414D4F 
ARM GAS  C:\Users\ahmedhamed\AppData\Local\Temp\cc6RV2Fb.s 			page 58


 1928      554E5400 
 1929              	.LASF104:
 1930 0982 4544435F 		.ascii	"EDC_RSP_BATCH_NOT_FOUND\000"
 1930      5253505F 
 1930      42415443 
 1930      485F4E4F 
 1930      545F464F 
 1931              	.LASF137:
 1932 099a 4544435F 		.ascii	"EDC_RSP_CALL_IC\000"
 1932      5253505F 
 1932      43414C4C 
 1932      5F494300 
 1933              	.LASF155:
 1934 09aa 4544435F 		.ascii	"EDC_CTL_CARD_READ_OK\000"
 1934      43544C5F 
 1934      43415244 
 1934      5F524541 
 1934      445F4F4B 
 1935              	.LASF62:
 1936 09bf 4544435F 		.ascii	"EDC_FN_CARD_TOTAL\000"
 1936      464E5F43 
 1936      4152445F 
 1936      544F5441 
 1936      4C00
 1937              	.LASF21:
 1938 09d1 4544435F 		.ascii	"EDC_CN_UPLOAD\000"
 1938      434E5F55 
 1938      504C4F41 
 1938      4400
 1939              	.LASF72:
 1940 09df 4544435F 		.ascii	"EDC_PN_PRINTING\000"
 1940      504E5F50 
 1940      52494E54 
 1940      494E4700 
 1941              	.LASF107:
 1942 09ef 4544435F 		.ascii	"EDC_RSP_SYS_NOT_AVAIL\000"
 1942      5253505F 
 1942      5359535F 
 1942      4E4F545F 
 1942      41564149 
 1943              	.LASF124:
 1944 0a05 4544435F 		.ascii	"EDC_RSP_TRY_AGAIN_LC\000"
 1944      5253505F 
 1944      5452595F 
 1944      41474149 
 1944      4E5F4C43 
 1945              	.LASF80:
 1946 0a1a 4544435F 		.ascii	"EDC_RSP_CALL_ISSUER\000"
 1946      5253505F 
 1946      43414C4C 
 1946      5F495353 
 1946      55455200 
 1947              	.LASF105:
 1948 0a2e 4544435F 		.ascii	"EDC_RSP_CALL_AMEX\000"
 1948      5253505F 
 1948      43414C4C 
 1948      5F414D45 
ARM GAS  C:\Users\ahmedhamed\AppData\Local\Temp\cc6RV2Fb.s 			page 59


 1948      5800
 1949              	.LASF27:
 1950 0a40 4544435F 		.ascii	"EDC_IN_CHK_DIGIT_ERROR\000"
 1950      494E5F43 
 1950      484B5F44 
 1950      49474954 
 1950      5F455252 
 1951              	.LASF120:
 1952 0a57 4544435F 		.ascii	"EDC_RSP_CALL_IP\000"
 1952      5253505F 
 1952      43414C4C 
 1952      5F495000 
 1953              	.LASF71:
 1954 0a67 4544435F 		.ascii	"EDC_FN_PRINT_REPORT\000"
 1954      464E5F50 
 1954      52494E54 
 1954      5F524550 
 1954      4F525400 
 1955              	.LASF144:
 1956 0a7b 4544435F 		.ascii	"EDC_SE_ENTER_SALE_TOTAL\000"
 1956      53455F45 
 1956      4E544552 
 1956      5F53414C 
 1956      455F544F 
 1957              	.LASF149:
 1958 0a93 4544435F 		.ascii	"EDC_EMV_CANNOT_SEL\000"
 1958      454D565F 
 1958      43414E4E 
 1958      4F545F53 
 1958      454C00
 1959              	.LASF45:
 1960 0aa6 4544435F 		.ascii	"EDC_IN_CUR_ERROR\000"
 1960      494E5F43 
 1960      55525F45 
 1960      52524F52 
 1960      00
 1961              	.LASF57:
 1962 0ab7 4544435F 		.ascii	"EDC_AJ_COMPLETED\000"
 1962      414A5F43 
 1962      4F4D504C 
 1962      45544544 
 1962      00
 1963              	.LASF161:
 1964 0ac8 70625F4D 		.ascii	"pb_Msg\000"
 1964      736700
 1965              	.LASF88:
 1966 0acf 4544435F 		.ascii	"EDC_RSP_INVALID_ACC\000"
 1966      5253505F 
 1966      494E5641 
 1966      4C49445F 
 1966      41434300 
 1967              	.LASF106:
 1968 0ae3 4544435F 		.ascii	"EDC_RSP_BAD_TERMINAL_ID\000"
 1968      5253505F 
 1968      4241445F 
 1968      5445524D 
 1968      494E414C 
ARM GAS  C:\Users\ahmedhamed\AppData\Local\Temp\cc6RV2Fb.s 			page 60


 1969              	.LASF28:
 1970 0afb 4544435F 		.ascii	"EDC_IN_USE_ICC\000"
 1970      494E5F55 
 1970      53455F49 
 1970      434300
 1971              	.LASF30:
 1972 0b0a 4544435F 		.ascii	"EDC_IN_CORRECT\000"
 1972      494E5F43 
 1972      4F525245 
 1972      435400
 1973              	.LASF125:
 1974 0b19 4544435F 		.ascii	"EDC_RSP_NO_DIALTONE\000"
 1974      5253505F 
 1974      4E4F5F44 
 1974      49414C54 
 1974      4F4E4500 
 1975              	.LASF129:
 1976 0b2d 4544435F 		.ascii	"EDC_RSP_CARD_BLOCKED\000"
 1976      5253505F 
 1976      43415244 
 1976      5F424C4F 
 1976      434B4544 
 1977              	.LASF73:
 1978 0b42 4544435F 		.ascii	"EDC_PN_MANUALCUT\000"
 1978      504E5F4D 
 1978      414E5541 
 1978      4C435554 
 1978      00
 1979              	.LASF110:
 1980 0b53 4544435F 		.ascii	"EDC_RSP_OTHER_REASON\000"
 1980      5253505F 
 1980      4F544845 
 1980      525F5245 
 1980      41534F4E 
 1981              	.LASF134:
 1982 0b68 4544435F 		.ascii	"EDC_RSP_VERIFY_SIGN\000"
 1982      5253505F 
 1982      56455249 
 1982      46595F53 
 1982      49474E00 
 1983              	.LASF146:
 1984 0b7c 4544435F 		.ascii	"EDC_EMV_FATAL\000"
 1984      454D565F 
 1984      46415441 
 1984      4C00
 1985              	.LASF48:
 1986 0b8a 4544435F 		.ascii	"EDC_AJ_TOTAL_PROMPT\000"
 1986      414A5F54 
 1986      4F54414C 
 1986      5F50524F 
 1986      4D505400 
 1987              	.LASF156:
 1988 0b9e 4544435F 		.ascii	"EDC_NET_INIT\000"
 1988      4E45545F 
 1988      494E4954 
 1988      00
 1989              	.LASF127:
ARM GAS  C:\Users\ahmedhamed\AppData\Local\Temp\cc6RV2Fb.s 			page 61


 1990 0bab 4544435F 		.ascii	"EDC_RSP_SWIPE_CARD\000"
 1990      5253505F 
 1990      53574950 
 1990      455F4341 
 1990      524400
 1991              	.LASF109:
 1992 0bbe 4544435F 		.ascii	"EDC_RSP_BATCH_XFER\000"
 1992      5253505F 
 1992      42415443 
 1992      485F5846 
 1992      455200
 1993              	.LASF121:
 1994 0bd1 4544435F 		.ascii	"EDC_RSP_CALL_IR\000"
 1994      5253505F 
 1994      43414C4C 
 1994      5F495200 
 1995              	.LASF122:
 1996 0be1 4544435F 		.ascii	"EDC_RSP_CALL_IS\000"
 1996      5253505F 
 1996      43414C4C 
 1996      5F495300 
 1997              	.LASF123:
 1998 0bf1 4544435F 		.ascii	"EDC_RSP_CALL_IT\000"
 1998      5253505F 
 1998      43414C4C 
 1998      5F495400 
 1999              	.LASF95:
 2000 0c01 4544435F 		.ascii	"EDC_RSP_DECLINED\000"
 2000      5253505F 
 2000      4445434C 
 2000      494E4544 
 2000      00
 2001              	.LASF31:
 2002 0c12 4544435F 		.ascii	"EDC_IN_APP_CODE\000"
 2002      494E5F41 
 2002      50505F43 
 2002      4F444500 
 2003              		.ident	"GCC: (GNU Tools for ARM Embedded Processors) 4.9.3 20141119 (release) [ARM/embedded-4_9-br
ARM GAS  C:\Users\ahmedhamed\AppData\Local\Temp\cc6RV2Fb.s 			page 62


DEFINED SYMBOLS
                            *ABS*:00000000 message.c
C:\Users\ahmedhamed\AppData\Local\Temp\cc6RV2Fb.s:19     .text.GetConstMsg:00000000 $t
C:\Users\ahmedhamed\AppData\Local\Temp\cc6RV2Fb.s:24     .text.GetConstMsg:00000000 GetConstMsg
C:\Users\ahmedhamed\AppData\Local\Temp\cc6RV2Fb.s:43     .text.GetConstMsg:0000000c $d
C:\Users\ahmedhamed\AppData\Local\Temp\cc6RV2Fb.s:352    .rodata:000004a0 KRspText
C:\Users\ahmedhamed\AppData\Local\Temp\cc6RV2Fb.s:49     .rodata:00000000 $d
C:\Users\ahmedhamed\AppData\Local\Temp\cc6RV2Fb.s:53     .rodata:00000000 KMessage
                     .debug_frame:00000010 $d

NO UNDEFINED SYMBOLS
