ARM GAS  C:\Users\AHMED~1.ELE\AppData\Local\Temp\ccb86Llj.s 			page 1


   1              		.syntax unified
   2              		.cpu cortex-a5
   3              		.fpu softvfp
   4              		.eabi_attribute 20, 1
   5              		.eabi_attribute 21, 1
   6              		.eabi_attribute 23, 3
   7              		.eabi_attribute 24, 1
   8              		.eabi_attribute 25, 1
   9              		.eabi_attribute 26, 1
  10              		.eabi_attribute 30, 4
  11              		.eabi_attribute 34, 0
  12              		.eabi_attribute 18, 4
  13              		.thumb
  14              		.file	"network.c"
  15              		.text
  16              	.Ltext0:
  17              		.cfi_sections	.debug_frame
  18              		.section	.text.SetBannerMode,"ax",%progbits
  19              		.align	1
  20              		.global	SetBannerMode
  21              		.thumb
  22              		.thumb_func
  23              		.type	SetBannerMode, %function
  24              	SetBannerMode:
  25              	.LFB0:
  26              		.file 1 "src/network.c"
   1:src/network.c **** //-----------------------------------------------------------------------------
   2:src/network.c **** //  File          : network.c
   3:src/network.c **** //  Module        :
   4:src/network.c **** //  Description   : GPRS command test.
   5:src/network.c **** //  Author        : Lewis
   6:src/network.c **** //  Notes         : N/A
   7:src/network.c **** //
   8:src/network.c **** // ============================================================================
   9:src/network.c **** // | Naming conventions                                                       |
  10:src/network.c **** // | ~~~~~~~~~~~~~~~~~~                                                       |
  11:src/network.c **** // |         Struct/Array : Leading s                                         |
  12:src/network.c **** // |             Constant : Leading K                                         |
  13:src/network.c **** // |      Global Variable : Leading g  (variable use outside one C file)      |
  14:src/network.c **** // |                                                                          |
  15:src/network.c **** // |   BYTE( 8 Bits) size : Leading b                                         |
  16:src/network.c **** // |   CHAR( 8 Bits) size : Leading c                                         |
  17:src/network.c **** // |   WORD(16 Bits) size : Leading w                                         |
  18:src/network.c **** // |  DWORD(32 Bits) size : Leading d                                         |
  19:src/network.c **** // |    int(32 Bits) size : Leading i                                         |
  20:src/network.c **** // | DDWORD(64 Bits) size : Leading dd                                        |
  21:src/network.c **** // |              Pointer : Leading p                                         |
  22:src/network.c **** // |                                                                          |
  23:src/network.c **** // |    Function argument : Leading a                                         |
  24:src/network.c **** // |       Local Variable : All lower case                                    |
  25:src/network.c **** // |                                                                          |
  26:src/network.c **** // | Examples:                                                                |
  27:src/network.c **** // |                Array : Leading s, (sb = arrary of byte, etc)             |
  28:src/network.c **** // |              Pointer : Leading p, (pb = pointer of byte, etc)            |
  29:src/network.c **** // ============================================================================
  30:src/network.c **** //
  31:src/network.c **** //  Date          Who         Action
ARM GAS  C:\Users\AHMED~1.ELE\AppData\Local\Temp\ccb86Llj.s 			page 2


  32:src/network.c **** //  ------------  ----------- -------------------------------------------------
  33:src/network.c **** //  01 Apr  2009  Lewis       Initial Version.
  34:src/network.c **** //-----------------------------------------------------------------------------
  35:src/network.c **** #if (T300|T810|A5T1000|T1000|T800|TIRO)
  36:src/network.c **** #include <stdio.h>
  37:src/network.c **** #include <string.h>
  38:src/network.c **** #include "midware.h"
  39:src/network.c **** #include "util.h"
  40:src/network.c **** #if (T300|A5T1000|T1000|TIRO)
  41:src/network.c **** #include "apm.h"
  42:src/network.c **** #else
  43:src/network.c **** #include "apm_lite.h"
  44:src/network.c **** #endif
  45:src/network.c **** #include "sysutil.h"
  46:src/network.c **** #include "hardware.h"
  47:src/network.c **** #include "corevar.h"
  48:src/network.c **** #include "tranutil.h"
  49:src/network.c **** #include "message.h"
  50:src/network.c **** #include "toggle.h"
  51:src/network.c **** #include "input.h"
  52:src/network.c **** #include "wavecom.h"
  53:src/network.c **** #include "network.h"
  54:src/network.c **** 
  55:src/network.c **** //-----------------------------------------------------------------------------
  56:src/network.c **** //      Defines
  57:src/network.c **** //-----------------------------------------------------------------------------
  58:src/network.c **** #define MIN_TEST_BUF        16
  59:src/network.c **** #define MAX_TEST_BUF        8*16
  60:src/network.c **** 
  61:src/network.c **** #define OK_DELAY            500         //10ms 
  62:src/network.c **** #define RX_RETRY_DELAY      300         //10ms
  63:src/network.c **** #define RX_TIMEOUT_TICK     (RX_RETRY_DELAY * 10)
  64:src/network.c **** 
  65:src/network.c **** #define MODULE_TIMEOUT      6000          // 60 seconds
  66:src/network.c **** #define SIM_DETECT_TIMEOUT  1500          // 15 seconds
  67:src/network.c **** 
  68:src/network.c **** enum {
  69:src/network.c ****   G510,
  70:src/network.c ****   H330,
  71:src/network.c ****   UC15,
  72:src/network.c ****   HL6,
  73:src/network.c ****   HL8,
  74:src/network.c **** };
  75:src/network.c **** 
  76:src/network.c **** #define MAX_CHAR_ON_BANNER  19
  77:src/network.c **** 
  78:src/network.c **** //-----------------------------------------------------------------------------
  79:src/network.c **** //      Globals
  80:src/network.c **** //-----------------------------------------------------------------------------
  81:src/network.c **** BYTE gSimSlot=0;                              // active SIM slot
  82:src/network.c **** BYTE gOptrName1[32];
  83:src/network.c **** BYTE gOptrName2[32];
  84:src/network.c **** BYTE gOptrMain[32];
  85:src/network.c **** BYTE gOptrBkup[32];
  86:src/network.c **** //BYTE gGprsCfg1[32][3] = {"xxxx", "", ""};     // for SIM 1
  87:src/network.c **** //BYTE gGprsCfg2[32][3] = {"yyyy", "", ""};     // for SIM 2
  88:src/network.c **** BYTE gGprsCfg1[3][32] = {"aaa", "", ""};     // for SIM 1
ARM GAS  C:\Users\AHMED~1.ELE\AppData\Local\Temp\ccb86Llj.s 			page 3


  89:src/network.c **** BYTE gGprsCfg2[3][32] = {"bbb", "", ""};     // for SIM 2
  90:src/network.c **** 
  91:src/network.c **** //-----------------------------------------------------------------------------
  92:src/network.c **** //      Constants
  93:src/network.c **** //-----------------------------------------------------------------------------
  94:src/network.c **** static const char * const KPPPState[] = {
  95:src/network.c ****   "      Dead      ",
  96:src/network.c ****   "  Establishing  ",
  97:src/network.c ****   " Authenticating ",
  98:src/network.c ****   "    Network     ",
  99:src/network.c ****   "  Terminating   ",
 100:src/network.c ****   "   PPP Ready    "
 101:src/network.c **** };
 102:src/network.c **** 
 103:src/network.c **** //*****************************************************************************
 104:src/network.c **** //  Function        : SetBannerMode
 105:src/network.c **** //  Description     : Enable/Disable Banner mode in System
 106:src/network.c **** //  Input           : N/A
 107:src/network.c **** //  Return          : N/A
 108:src/network.c **** //  Note            : N/A
 109:src/network.c **** //  Globals Changed : N/A
 110:src/network.c **** //*****************************************************************************
 111:src/network.c **** void SetBannerMode(BOOLEAN aEnable)
 112:src/network.c **** {
  27              		.loc 1 112 0
  28              		.cfi_startproc
  29              		@ args = 0, pretend = 0, frame = 8
  30              		@ frame_needed = 0, uses_anonymous_args = 0
  31              	.LVL0:
  32 0000 13B5     		push	{r0, r1, r4, lr}
  33              		.cfi_def_cfa_offset 16
  34              		.cfi_offset 4, -8
  35              		.cfi_offset 14, -4
  36              		.loc 1 112 0
  37 0002 0446     		mov	r4, r0
 113:src/network.c ****   BYTE textmode;
 114:src/network.c **** 
 115:src/network.c ****   os_config_read(K_CF_LcdBannerEnable, &textmode);
  38              		.loc 1 115 0
  39 0004 2C21     		movs	r1, #44
  40 0006 B920     		movs	r0, #185
  41              	.LVL1:
  42 0008 0DF10702 		add	r2, sp, #7
  43 000c FFF7FEFF 		bl	sys_func2
  44              	.LVL2:
 116:src/network.c ****   if ((textmode == 0) && aEnable) {
  45              		.loc 1 116 0
  46 0010 9DF80730 		ldrb	r3, [sp, #7]	@ zero_extendqisi2
  47 0014 23B9     		cbnz	r3, .L2
  48              		.loc 1 116 0 is_stmt 0 discriminator 1
  49 0016 8CB1     		cbz	r4, .L3
 117:src/network.c ****     textmode = 1;
  50              		.loc 1 117 0 is_stmt 1
  51 0018 0123     		movs	r3, #1
  52 001a 8DF80730 		strb	r3, [sp, #7]
  53 001e 04E0     		b	.L7
  54              	.L2:
ARM GAS  C:\Users\AHMED~1.ELE\AppData\Local\Temp\ccb86Llj.s 			page 4


 118:src/network.c ****     os_config_write(K_CF_LcdBannerEnable, &textmode);
 119:src/network.c ****     os_config_update();
 120:src/network.c ****   }
 121:src/network.c ****   else if ((textmode == 1) && (aEnable == 0)) {
  55              		.loc 1 121 0
  56 0020 012B     		cmp	r3, #1
  57 0022 0BD1     		bne	.L3
  58              		.loc 1 121 0 is_stmt 0 discriminator 1
  59 0024 54B9     		cbnz	r4, .L3
 122:src/network.c ****     textmode = 0;
  60              		.loc 1 122 0 is_stmt 1
  61 0026 8DF80740 		strb	r4, [sp, #7]
  62              	.L7:
 123:src/network.c ****     os_config_write(K_CF_LcdBannerEnable, &textmode);
  63              		.loc 1 123 0
  64 002a BA20     		movs	r0, #186
  65 002c 2C21     		movs	r1, #44
  66 002e 0DF10702 		add	r2, sp, #7
  67 0032 FFF7FEFF 		bl	sys_func2
  68              	.LVL3:
 124:src/network.c ****     os_config_update();
  69              		.loc 1 124 0
  70 0036 BB20     		movs	r0, #187
  71 0038 FFF7FEFF 		bl	sys_func0
  72              	.LVL4:
  73              	.L3:
 125:src/network.c ****   }
 126:src/network.c ****   os_disp_icon_textc(RGB_BLACK);
  74              		.loc 1 126 0
  75 003c 0021     		movs	r1, #0
  76 003e 2520     		movs	r0, #37
  77 0040 FFF7FEFF 		bl	sys_func1
  78              	.LVL5:
 127:src/network.c **** }
  79              		.loc 1 127 0
  80 0044 02B0     		add	sp, sp, #8
  81              		.cfi_def_cfa_offset 8
  82              		@ sp needed
  83 0046 10BD     		pop	{r4, pc}
  84              		.cfi_endproc
  85              	.LFE0:
  86              		.size	SetBannerMode, .-SetBannerMode
  87              		.section	.text.IconPuts,"ax",%progbits
  88              		.align	1
  89              		.global	IconPuts
  90              		.thumb
  91              		.thumb_func
  92              		.type	IconPuts, %function
  93              	IconPuts:
  94              	.LFB1:
 128:src/network.c **** //*****************************************************************************
 129:src/network.c **** //  Function        : SetBannerText
 130:src/network.c **** //  Description     : Set Banner text
 131:src/network.c **** //  Input           : N/A
 132:src/network.c **** //  Return          : N/A
 133:src/network.c **** //  Note            : N/A
 134:src/network.c **** //  Globals Changed : N/A
ARM GAS  C:\Users\AHMED~1.ELE\AppData\Local\Temp\ccb86Llj.s 			page 5


 135:src/network.c **** //*****************************************************************************
 136:src/network.c **** void IconPuts(BYTE *aText)
 137:src/network.c **** {
  95              		.loc 1 137 0
  96              		.cfi_startproc
  97              		@ args = 0, pretend = 0, frame = 0
  98              		@ frame_needed = 0, uses_anonymous_args = 0
  99              	.LVL6:
 100 0000 70B5     		push	{r4, r5, r6, lr}
 101              		.cfi_def_cfa_offset 16
 102              		.cfi_offset 4, -16
 103              		.cfi_offset 5, -12
 104              		.cfi_offset 6, -8
 105              		.cfi_offset 14, -4
 138:src/network.c ****   DWORD len, i;
 139:src/network.c ****   
 140:src/network.c ****   os_disp_icon_putc('\f');
 106              		.loc 1 140 0
 107 0002 0C21     		movs	r1, #12
 137:src/network.c ****   DWORD len, i;
 108              		.loc 1 137 0
 109 0004 0446     		mov	r4, r0
 110              		.loc 1 140 0
 111 0006 2420     		movs	r0, #36
 112              	.LVL7:
 113 0008 FFF7FEFF 		bl	sys_func1
 114              	.LVL8:
 141:src/network.c ****   os_disp_icon_putc(0x12);
 115              		.loc 1 141 0
 116 000c 1221     		movs	r1, #18
 117 000e 2420     		movs	r0, #36
 118 0010 FFF7FEFF 		bl	sys_func1
 119              	.LVL9:
 142:src/network.c ****   len = i = strlen(aText);
 120              		.loc 1 142 0
 121 0014 2046     		mov	r0, r4
 122 0016 FFF7FEFF 		bl	strlen
 123              	.LVL10:
 124 001a 0546     		mov	r5, r0
 125              	.LVL11:
 126 001c 2618     		adds	r6, r4, r0
 127              	.LVL12:
 128              	.L10:
 143:src/network.c ****   while (i--)
 129              		.loc 1 143 0
 130 001e B442     		cmp	r4, r6
 131 0020 05D0     		beq	.L13
 132              	.LVL13:
 144:src/network.c ****     os_disp_icon_putc(*aText++);
 133              		.loc 1 144 0
 134 0022 14F8011B 		ldrb	r1, [r4], #1	@ zero_extendqisi2
 135              	.LVL14:
 136 0026 2420     		movs	r0, #36
 137 0028 FFF7FEFF 		bl	sys_func1
 138              	.LVL15:
 139 002c F7E7     		b	.L10
 140              	.L13:
ARM GAS  C:\Users\AHMED~1.ELE\AppData\Local\Temp\ccb86Llj.s 			page 6


 145:src/network.c ****   if (len < MAX_CHAR_ON_BANNER)
 141              		.loc 1 145 0
 142 002e 122D     		cmp	r5, #18
 143 0030 05D8     		bhi	.L9
 144              	.LVL16:
 145              	.LBB4:
 146              	.LBB5:
 146:src/network.c ****     os_disp_icon_putc(0x05);
 147              		.loc 1 146 0
 148 0032 2420     		movs	r0, #36
 149              	.LBE5:
 150              	.LBE4:
 147:src/network.c **** }
 151              		.loc 1 147 0
 152 0034 BDE87040 		pop	{r4, r5, r6, lr}
 153              		.cfi_remember_state
 154              		.cfi_restore 14
 155              		.cfi_restore 6
 156              		.cfi_restore 5
 157              		.cfi_restore 4
 158              		.cfi_def_cfa_offset 0
 159              	.LVL17:
 160              	.LBB7:
 161              	.LBB6:
 146:src/network.c ****     os_disp_icon_putc(0x05);
 162              		.loc 1 146 0
 163 0038 0521     		movs	r1, #5
 164 003a FFF7FEBF 		b	sys_func1
 165              	.LVL18:
 166              	.L9:
 167              		.cfi_restore_state
 168 003e 70BD     		pop	{r4, r5, r6, pc}
 169              	.LBE6:
 170              	.LBE7:
 171              		.cfi_endproc
 172              	.LFE1:
 173              		.size	IconPuts, .-IconPuts
 174              		.section	.text.SetBannerText,"ax",%progbits
 175              		.align	1
 176              		.global	SetBannerText
 177              		.thumb
 178              		.thumb_func
 179              		.type	SetBannerText, %function
 180              	SetBannerText:
 181              	.LFB2:
 148:src/network.c **** //*****************************************************************************
 149:src/network.c **** //  Function        : SetBannerText
 150:src/network.c **** //  Description     : Set Banner text
 151:src/network.c **** //  Input           : N/A
 152:src/network.c **** //  Return          : N/A
 153:src/network.c **** //  Note            : N/A
 154:src/network.c **** //  Globals Changed : N/A
 155:src/network.c **** //*****************************************************************************
 156:src/network.c **** void SetBannerText(BYTE *aMsg)
 157:src/network.c **** {
 182              		.loc 1 157 0
 183              		.cfi_startproc
ARM GAS  C:\Users\AHMED~1.ELE\AppData\Local\Temp\ccb86Llj.s 			page 7


 184              		@ args = 0, pretend = 0, frame = 0
 185              		@ frame_needed = 0, uses_anonymous_args = 0
 186              	.LVL19:
 187 0000 10B5     		push	{r4, lr}
 188              		.cfi_def_cfa_offset 8
 189              		.cfi_offset 4, -8
 190              		.cfi_offset 14, -4
 191              		.loc 1 157 0
 192 0002 0446     		mov	r4, r0
 158:src/network.c ****   SetBannerMode(TRUE);
 193              		.loc 1 158 0
 194 0004 0120     		movs	r0, #1
 195              	.LVL20:
 196 0006 FFF7FEFF 		bl	SetBannerMode
 197              	.LVL21:
 159:src/network.c ****   IconPuts(aMsg);
 198              		.loc 1 159 0
 199 000a 2046     		mov	r0, r4
 160:src/network.c **** }
 200              		.loc 1 160 0
 201 000c BDE81040 		pop	{r4, lr}
 202              		.cfi_restore 14
 203              		.cfi_restore 4
 204              		.cfi_def_cfa_offset 0
 205              	.LVL22:
 159:src/network.c ****   IconPuts(aMsg);
 206              		.loc 1 159 0
 207 0010 FFF7FEBF 		b	IconPuts
 208              	.LVL23:
 209              		.cfi_endproc
 210              	.LFE2:
 211              		.size	SetBannerText, .-SetBannerText
 212              		.section	.text.GPRSReset,"ax",%progbits
 213              		.align	1
 214              		.global	GPRSReset
 215              		.thumb
 216              		.thumb_func
 217              		.type	GPRSReset, %function
 218              	GPRSReset:
 219              	.LFB3:
 161:src/network.c **** //*****************************************************************************
 162:src/network.c **** //  Function        : GPRSReset
 163:src/network.c **** //  Description     : Test GPRS Reset command
 164:src/network.c **** //  Input           : N/A
 165:src/network.c **** //  Return          : N/A
 166:src/network.c **** //  Note            : N/A
 167:src/network.c **** //  Globals Changed : N/A
 168:src/network.c **** //*****************************************************************************
 169:src/network.c **** void GPRSReset(void)
 170:src/network.c **** {
 220              		.loc 1 170 0
 221              		.cfi_startproc
 222              		@ args = 0, pretend = 0, frame = 32
 223              		@ frame_needed = 0, uses_anonymous_args = 0
 224              	.LVL24:
 225 0000 F0B5     		push	{r4, r5, r6, r7, lr}
 226              		.cfi_def_cfa_offset 20
ARM GAS  C:\Users\AHMED~1.ELE\AppData\Local\Temp\ccb86Llj.s 			page 8


 227              		.cfi_offset 4, -20
 228              		.cfi_offset 5, -16
 229              		.cfi_offset 6, -12
 230              		.cfi_offset 7, -8
 231              		.cfi_offset 14, -4
 232              	.LBB8:
 171:src/network.c ****   DWORD last_status, status, signal, last_signal;
 172:src/network.c ****   DWORD keyin;
 173:src/network.c ****   BYTE  disp_buf[MW_MAX_LINESIZE+1];
 174:src/network.c **** 
 175:src/network.c ****   last_signal = last_status = (DWORD) -1;
 176:src/network.c **** 
 177:src/network.c ****   DispLineMW("Press Enter To Reset", MW_LINE3, MW_SPFONT);
 233              		.loc 1 177 0
 234 0002 9220     		movs	r0, #146
 235              	.LBE8:
 170:src/network.c ****   DWORD last_status, status, signal, last_signal;
 236              		.loc 1 170 0
 237 0004 8BB0     		sub	sp, sp, #44
 238              		.cfi_def_cfa_offset 64
 239              	.LBB9:
 240              		.loc 1 177 0
 241 0006 1521     		movs	r1, #21
 242 0008 FFF7FEFF 		bl	sys_func1
 243              	.LVL25:
 244 000c 0446     		mov	r4, r0
 245 000e 98B1     		cbz	r0, .L16
 246              		.loc 1 177 0 is_stmt 0 discriminator 1
 247 0010 4A49     		ldr	r1, .L36
 248 0012 1422     		movs	r2, #20
 249 0014 FFF7FEFF 		bl	memcpy
 250              	.LVL26:
 251 0018 0023     		movs	r3, #0
 252 001a 2521     		movs	r1, #37
 253 001c 2375     		strb	r3, [r4, #20]
 254 001e 4FF40053 		mov	r3, #8192
 255 0022 0F20     		movs	r0, #15
 256 0024 0093     		str	r3, [sp]
 257 0026 2246     		mov	r2, r4
 258 0028 4FF44073 		mov	r3, #768
 259 002c FFF7FEFF 		bl	lib_app_call
 260              	.LVL27:
 261 0030 9420     		movs	r0, #148
 262 0032 2146     		mov	r1, r4
 263 0034 FFF7FEFF 		bl	sys_func1
 264              	.LVL28:
 265              	.L16:
 266              	.LBE9:
 170:src/network.c ****   DWORD last_status, status, signal, last_signal;
 267              		.loc 1 170 0 is_stmt 1
 268 0038 4FF0FF37 		mov	r7, #-1
 269              	.LVL29:
 270              	.L17:
 178:src/network.c ****   while (1) {
 179:src/network.c ****     keyin = GetCharMW();
 271              		.loc 1 179 0
 272 003c 0024     		movs	r4, #0
ARM GAS  C:\Users\AHMED~1.ELE\AppData\Local\Temp\ccb86Llj.s 			page 9


 273 003e 0F20     		movs	r0, #15
 274 0040 0094     		str	r4, [sp]
 275 0042 1621     		movs	r1, #22
 276 0044 2246     		mov	r2, r4
 277 0046 2346     		mov	r3, r4
 278 0048 FFF7FEFF 		bl	lib_app_call
 279              	.LVL30:
 180:src/network.c ****     if (keyin == MWKEY_CANCL)
 280              		.loc 1 180 0
 281 004c 1128     		cmp	r0, #17
 282 004e 72D0     		beq	.L15
 181:src/network.c ****       break;
 182:src/network.c ****     if (keyin == MWKEY_ENTER) {
 283              		.loc 1 182 0
 284 0050 1028     		cmp	r0, #16
 285 0052 3B4D     		ldr	r5, .L36+4
 286 0054 32D1     		bne	.L19
 287              	.LVL31:
 288              	.LBB10:
 183:src/network.c ****       DispLineMW("Module Reseted", MW_LINE4, MW_SPFONT);
 289              		.loc 1 183 0
 290 0056 9220     		movs	r0, #146
 291              	.LVL32:
 292 0058 0F21     		movs	r1, #15
 293 005a FFF7FEFF 		bl	sys_func1
 294              	.LVL33:
 295 005e 0646     		mov	r6, r0
 296 0060 90B1     		cbz	r0, .L20
 297              		.loc 1 183 0 is_stmt 0 discriminator 1
 298 0062 3849     		ldr	r1, .L36+8
 299 0064 0E22     		movs	r2, #14
 300 0066 FFF7FEFF 		bl	memcpy
 301              	.LVL34:
 302 006a 4FF40053 		mov	r3, #8192
 303 006e B473     		strb	r4, [r6, #14]
 304 0070 2521     		movs	r1, #37
 305 0072 0093     		str	r3, [sp]
 306 0074 0F20     		movs	r0, #15
 307 0076 3246     		mov	r2, r6
 308 0078 4FF48063 		mov	r3, #1024
 309 007c FFF7FEFF 		bl	lib_app_call
 310              	.LVL35:
 311 0080 9420     		movs	r0, #148
 312 0082 3146     		mov	r1, r6
 313 0084 FFF7FEFF 		bl	sys_func1
 314              	.LVL36:
 315              	.L20:
 316              	.LBE10:
 184:src/network.c ****       LongBeep();
 185:src/network.c ****       IOCtlMW(gGprsHandle, IO_GPRS_RESET, 0);
 317              		.loc 1 185 0 is_stmt 1
 318 0088 0024     		movs	r4, #0
 184:src/network.c ****       LongBeep();
 319              		.loc 1 184 0
 320 008a FFF7FEFF 		bl	LongBeep
 321              	.LVL37:
 322              		.loc 1 185 0
ARM GAS  C:\Users\AHMED~1.ELE\AppData\Local\Temp\ccb86Llj.s 			page 10


 323 008e 0721     		movs	r1, #7
 324 0090 0094     		str	r4, [sp]
 325 0092 0423     		movs	r3, #4
 326 0094 2A68     		ldr	r2, [r5]
 327 0096 0F20     		movs	r0, #15
 328 0098 FFF7FEFF 		bl	lib_app_call
 329              	.LVL38:
 186:src/network.c ****       APM_WaitKey(KBD_TIMEOUT, 0);
 330              		.loc 1 186 0
 331 009c 0321     		movs	r1, #3
 332 009e 42F22832 		movw	r2, #9000
 333 00a2 2346     		mov	r3, r4
 334 00a4 0094     		str	r4, [sp]
 335 00a6 1020     		movs	r0, #16
 336 00a8 FFF7FEFF 		bl	lib_app_call
 337              	.LVL39:
 187:src/network.c ****       DispClrLineMW(MW_LINE4);
 338              		.loc 1 187 0
 339 00ac 0094     		str	r4, [sp]
 340 00ae 0F20     		movs	r0, #15
 341 00b0 2221     		movs	r1, #34
 342 00b2 4FF48062 		mov	r2, #1024
 343 00b6 2346     		mov	r3, r4
 344 00b8 FFF7FEFF 		bl	lib_app_call
 345              	.LVL40:
 346              	.L19:
 188:src/network.c ****     }
 189:src/network.c ****     status = StatMW(gGprsHandle, (DWORD) -1, NULL);
 347              		.loc 1 189 0
 348 00bc 0024     		movs	r4, #0
 349 00be 0821     		movs	r1, #8
 350 00c0 0094     		str	r4, [sp]
 351 00c2 4FF0FF33 		mov	r3, #-1
 352 00c6 2A68     		ldr	r2, [r5]
 353 00c8 0F20     		movs	r0, #15
 354 00ca FFF7FEFF 		bl	lib_app_call
 355              	.LVL41:
 190:src/network.c ****     signal = IOCtlMW(gGprsHandle, IO_GPRS_SIGNAL, NULL);
 356              		.loc 1 190 0
 357 00ce 0094     		str	r4, [sp]
 358 00d0 0123     		movs	r3, #1
 359 00d2 0721     		movs	r1, #7
 189:src/network.c ****     signal = IOCtlMW(gGprsHandle, IO_GPRS_SIGNAL, NULL);
 360              		.loc 1 189 0
 361 00d4 0646     		mov	r6, r0
 362              	.LVL42:
 363              		.loc 1 190 0
 364 00d6 2A68     		ldr	r2, [r5]
 365 00d8 0F20     		movs	r0, #15
 366              	.LVL43:
 367 00da FFF7FEFF 		bl	lib_app_call
 368              	.LVL44:
 191:src/network.c ****     if ((status != last_status)||(signal != last_signal)) {
 369              		.loc 1 191 0
 370 00de BE42     		cmp	r6, r7
 190:src/network.c ****     signal = IOCtlMW(gGprsHandle, IO_GPRS_SIGNAL, NULL);
 371              		.loc 1 190 0
ARM GAS  C:\Users\AHMED~1.ELE\AppData\Local\Temp\ccb86Llj.s 			page 11


 372 00e0 0346     		mov	r3, r0
 373              	.LVL45:
 374              		.loc 1 191 0
 375 00e2 03D1     		bne	.L21
 376              		.loc 1 191 0 is_stmt 0 discriminator 1
 377 00e4 421C     		adds	r2, r0, #1
 378 00e6 01D1     		bne	.L21
 379              	.LVL46:
 380              	.L23:
 189:src/network.c ****     signal = IOCtlMW(gGprsHandle, IO_GPRS_SIGNAL, NULL);
 381              		.loc 1 189 0 is_stmt 1
 382 00e8 3746     		mov	r7, r6
 383              	.LVL47:
 384 00ea A7E7     		b	.L17
 385              	.LVL48:
 386              	.L21:
 192:src/network.c ****       sprintf(disp_buf, "Status: %08X %02d", status, signal);
 387              		.loc 1 192 0
 388 00ec 1649     		ldr	r1, .L36+12
 389 00ee 3246     		mov	r2, r6
 390 00f0 03A8     		add	r0, sp, #12
 391              	.LVL49:
 392 00f2 FFF7FEFF 		bl	sprintf
 393              	.LVL50:
 394              	.LBB11:
 193:src/network.c ****       DispLineMW(disp_buf, MW_MAX_LINE, MW_SPFONT);
 395              		.loc 1 193 0
 396 00f6 03A8     		add	r0, sp, #12
 397 00f8 FFF7FEFF 		bl	strlen
 398              	.LVL51:
 399 00fc 0546     		mov	r5, r0
 400              	.LVL52:
 401 00fe 691C     		adds	r1, r5, #1
 402 0100 9220     		movs	r0, #146
 403              	.LVL53:
 404 0102 FFF7FEFF 		bl	sys_func1
 405              	.LVL54:
 406 0106 0446     		mov	r4, r0
 407 0108 0028     		cmp	r0, #0
 408 010a EDD0     		beq	.L23
 409              		.loc 1 193 0 is_stmt 0 discriminator 1
 410 010c 03A9     		add	r1, sp, #12
 411 010e 2A46     		mov	r2, r5
 412 0110 FFF7FEFF 		bl	memcpy
 413              	.LVL55:
 414 0114 0023     		movs	r3, #0
 415 0116 2521     		movs	r1, #37
 416 0118 6355     		strb	r3, [r4, r5]
 417 011a 4FF40053 		mov	r3, #8192
 418 011e 2246     		mov	r2, r4
 419 0120 0093     		str	r3, [sp]
 420 0122 0F20     		movs	r0, #15
 421 0124 4FF41063 		mov	r3, #2304
 422 0128 FFF7FEFF 		bl	lib_app_call
 423              	.LVL56:
 424 012c 2146     		mov	r1, r4
 425 012e 9420     		movs	r0, #148
ARM GAS  C:\Users\AHMED~1.ELE\AppData\Local\Temp\ccb86Llj.s 			page 12


 426 0130 FFF7FEFF 		bl	sys_func1
 427              	.LVL57:
 428 0134 D8E7     		b	.L23
 429              	.LVL58:
 430              	.L15:
 431              	.LBE11:
 194:src/network.c ****       last_status = status;
 195:src/network.c ****     }
 196:src/network.c ****   }
 197:src/network.c **** }
 432              		.loc 1 197 0 is_stmt 1
 433 0136 0BB0     		add	sp, sp, #44
 434              		.cfi_def_cfa_offset 20
 435              		@ sp needed
 436 0138 F0BD     		pop	{r4, r5, r6, r7, pc}
 437              	.LVL59:
 438              	.L37:
 439 013a 00BF     		.align	2
 440              	.L36:
 441 013c 00000000 		.word	.LC8
 442 0140 00000000 		.word	gGprsHandle
 443 0144 15000000 		.word	.LC9
 444 0148 24000000 		.word	.LC10
 445              		.cfi_endproc
 446              	.LFE3:
 447              		.size	GPRSReset, .-GPRSReset
 448              		.section	.text.SetPPPConfig,"ax",%progbits
 449              		.align	1
 450              		.global	SetPPPConfig
 451              		.thumb
 452              		.thumb_func
 453              		.type	SetPPPConfig, %function
 454              	SetPPPConfig:
 455              	.LFB4:
 198:src/network.c **** //*****************************************************************************
 199:src/network.c **** //  Function        : SetPPPConfig
 200:src/network.c **** //  Description     : Get APN/username/password for the operator
 201:src/network.c **** //  Input           : aApn;         // operator APN
 202:src/network.c **** //                    aUsername;    // username
 203:src/network.c **** //                    aPassword;    // password
 204:src/network.c **** //  Return          : N/A
 205:src/network.c **** //  Note            : N/A
 206:src/network.c **** //  Globals Changed : N/A
 207:src/network.c **** //*****************************************************************************
 208:src/network.c **** void SetPPPConfig(BYTE *aApn, BYTE *aUsername, BYTE *aPassword)
 209:src/network.c **** {
 456              		.loc 1 209 0
 457              		.cfi_startproc
 458              		@ args = 0, pretend = 0, frame = 424
 459              		@ frame_needed = 0, uses_anonymous_args = 0
 460              	.LVL60:
 461 0000 F0B5     		push	{r4, r5, r6, r7, lr}
 462              		.cfi_def_cfa_offset 20
 463              		.cfi_offset 4, -20
 464              		.cfi_offset 5, -16
 465              		.cfi_offset 6, -12
 466              		.cfi_offset 7, -8
ARM GAS  C:\Users\AHMED~1.ELE\AppData\Local\Temp\ccb86Llj.s 			page 13


 467              		.cfi_offset 14, -4
 468 0002 EBB0     		sub	sp, sp, #428
 469              		.cfi_def_cfa_offset 448
 470              		.loc 1 209 0
 471 0004 0746     		mov	r7, r0
 472 0006 0E46     		mov	r6, r1
 473 0008 1546     		mov	r5, r2
 210:src/network.c ****   struct PPPSREG sPPP;
 211:src/network.c ****   DWORD eidx;
 212:src/network.c **** 
 213:src/network.c ****   memset(&sPPP, 0, sizeof(struct PPPSREG));
 474              		.loc 1 213 0
 475 000a 01A8     		add	r0, sp, #4
 476              	.LVL61:
 477 000c 0021     		movs	r1, #0
 478              	.LVL62:
 479 000e 4FF4D272 		mov	r2, #420
 480              	.LVL63:
 481 0012 FFF7FEFF 		bl	memset
 482              	.LVL64:
 214:src/network.c ****   sPPP.bKeepAlive  = TRUE; // Never disconnect
 483              		.loc 1 214 0
 484 0016 0123     		movs	r3, #1
 215:src/network.c ****   sPPP.dDevice      = MW_PPP_DEVICE_GPRS;
 216:src/network.c ****   sPPP.dSpeed       = 230400;
 217:src/network.c ****   sPPP.dMode        = MW_PPP_MODE_NORMAL;
 218:src/network.c ****   //31-05-18 JC ++
 219:src/network.c ****   eidx = skpb(aApn, ' ', 32);                     // max size of apn in TERM_CFG
 485              		.loc 1 219 0
 486 0018 2021     		movs	r1, #32
 214:src/network.c ****   sPPP.bKeepAlive  = TRUE; // Never disconnect
 487              		.loc 1 214 0
 488 001a 8DF80430 		strb	r3, [sp, #4]
 215:src/network.c ****   sPPP.dDevice      = MW_PPP_DEVICE_GPRS;
 489              		.loc 1 215 0
 490 001e 0523     		movs	r3, #5
 491              		.loc 1 219 0
 492 0020 0A46     		mov	r2, r1
 215:src/network.c ****   sPPP.dDevice      = MW_PPP_DEVICE_GPRS;
 493              		.loc 1 215 0
 494 0022 0293     		str	r3, [sp, #8]
 216:src/network.c ****   sPPP.dMode        = MW_PPP_MODE_NORMAL;
 495              		.loc 1 216 0
 496 0024 4FF46133 		mov	r3, #230400
 497              		.loc 1 219 0
 498 0028 3846     		mov	r0, r7
 216:src/network.c ****   sPPP.dMode        = MW_PPP_MODE_NORMAL;
 499              		.loc 1 216 0
 500 002a 0393     		str	r3, [sp, #12]
 217:src/network.c ****   //31-05-18 JC ++
 501              		.loc 1 217 0
 502 002c 0223     		movs	r3, #2
 503 002e 0493     		str	r3, [sp, #16]
 504              		.loc 1 219 0
 505 0030 FFF7FEFF 		bl	skpb
 506              	.LVL65:
 507 0034 0446     		mov	r4, r0
ARM GAS  C:\Users\AHMED~1.ELE\AppData\Local\Temp\ccb86Llj.s 			page 14


 508              	.LVL66:
 220:src/network.c ****   eidx = (eidx < strlen(aApn))? eidx: strlen(aApn);
 509              		.loc 1 220 0
 510 0036 3846     		mov	r0, r7
 511              	.LVL67:
 512 0038 FFF7FEFF 		bl	strlen
 513              	.LVL68:
 514 003c 2246     		mov	r2, r4
 221:src/network.c ****   memcpy(sPPP.scAPN, aApn, eidx);
 515              		.loc 1 221 0
 516 003e 3946     		mov	r1, r7
 517 0040 8442     		cmp	r4, r0
 518 0042 28BF     		it	cs
 519 0044 0246     		movcs	r2, r0
 520 0046 05A8     		add	r0, sp, #20
 521              	.LVL69:
 522 0048 FFF7FEFF 		bl	memcpy
 523              	.LVL70:
 222:src/network.c ****   eidx = skpb(aUsername, ' ', 32);                // max size of username in TERM_CFG
 524              		.loc 1 222 0
 525 004c 2021     		movs	r1, #32
 526 004e 0A46     		mov	r2, r1
 527 0050 3046     		mov	r0, r6
 528 0052 FFF7FEFF 		bl	skpb
 529              	.LVL71:
 530 0056 0446     		mov	r4, r0
 531              	.LVL72:
 223:src/network.c ****   eidx = (eidx < strlen(aUsername))? eidx: strlen(aUsername);
 532              		.loc 1 223 0
 533 0058 3046     		mov	r0, r6
 534              	.LVL73:
 535 005a FFF7FEFF 		bl	strlen
 536              	.LVL74:
 537 005e 2246     		mov	r2, r4
 224:src/network.c ****   memcpy(sPPP.scUserID, aUsername, eidx);
 538              		.loc 1 224 0
 539 0060 3146     		mov	r1, r6
 540 0062 8442     		cmp	r4, r0
 541 0064 28BF     		it	cs
 542 0066 0246     		movcs	r2, r0
 543 0068 25A8     		add	r0, sp, #148
 544              	.LVL75:
 545 006a FFF7FEFF 		bl	memcpy
 546              	.LVL76:
 225:src/network.c ****   eidx = skpb(aPassword, ' ', 32);                // max size of password in TERM_CFG
 547              		.loc 1 225 0
 548 006e 2021     		movs	r1, #32
 549 0070 0A46     		mov	r2, r1
 550 0072 2846     		mov	r0, r5
 551 0074 FFF7FEFF 		bl	skpb
 552              	.LVL77:
 553 0078 0446     		mov	r4, r0
 554              	.LVL78:
 226:src/network.c ****   eidx = (eidx < strlen(aPassword))? eidx: strlen(aPassword);
 555              		.loc 1 226 0
 556 007a 2846     		mov	r0, r5
 557              	.LVL79:
ARM GAS  C:\Users\AHMED~1.ELE\AppData\Local\Temp\ccb86Llj.s 			page 15


 558 007c FFF7FEFF 		bl	strlen
 559              	.LVL80:
 560 0080 2246     		mov	r2, r4
 227:src/network.c ****   memcpy(sPPP.scPwd, aPassword, eidx);
 561              		.loc 1 227 0
 562 0082 2946     		mov	r1, r5
 563 0084 8442     		cmp	r4, r0
 564 0086 28BF     		it	cs
 565 0088 0246     		movcs	r2, r0
 566 008a 45A8     		add	r0, sp, #276
 567              	.LVL81:
 568 008c FFF7FEFF 		bl	memcpy
 569              	.LVL82:
 228:src/network.c ****   //31-05-18 JC --
 229:src/network.c ****   sPPP.psLogin      = NULL;
 570              		.loc 1 229 0
 571 0090 0023     		movs	r3, #0
 230:src/network.c ****   sPPP.dLoginPair   = 0;
 231:src/network.c ****   sPPP.psDialUp     = NULL;
 232:src/network.c ****   sPPP.dDialupPair  = 0;
 233:src/network.c ****   sPPP.psDialParam  = NULL;
 234:src/network.c ****   
 235:src/network.c ****   PPPCfgUpdate(&sPPP);
 572              		.loc 1 235 0
 573 0092 01A8     		add	r0, sp, #4
 229:src/network.c ****   sPPP.dLoginPair   = 0;
 574              		.loc 1 229 0
 575 0094 6593     		str	r3, [sp, #404]
 230:src/network.c ****   sPPP.dLoginPair   = 0;
 576              		.loc 1 230 0
 577 0096 6693     		str	r3, [sp, #408]
 231:src/network.c ****   sPPP.dDialupPair  = 0;
 578              		.loc 1 231 0
 579 0098 6793     		str	r3, [sp, #412]
 232:src/network.c ****   sPPP.psDialParam  = NULL;
 580              		.loc 1 232 0
 581 009a 6893     		str	r3, [sp, #416]
 233:src/network.c ****   
 582              		.loc 1 233 0
 583 009c 6993     		str	r3, [sp, #420]
 584              		.loc 1 235 0
 585 009e FFF7FEFF 		bl	PPPCfgUpdate
 586              	.LVL83:
 236:src/network.c **** }
 587              		.loc 1 236 0
 588 00a2 6BB0     		add	sp, sp, #428
 589              		.cfi_def_cfa_offset 20
 590              		@ sp needed
 591 00a4 F0BD     		pop	{r4, r5, r6, r7, pc}
 592              		.cfi_endproc
 593              	.LFE4:
 594              		.size	SetPPPConfig, .-SetPPPConfig
 595              		.section	.text.NetworkInfo,"ax",%progbits
 596              		.align	1
 597              		.global	NetworkInfo
 598              		.thumb
 599              		.thumb_func
ARM GAS  C:\Users\AHMED~1.ELE\AppData\Local\Temp\ccb86Llj.s 			page 16


 600              		.type	NetworkInfo, %function
 601              	NetworkInfo:
 602              	.LFB5:
 237:src/network.c **** //*****************************************************************************
 238:src/network.c **** //  Function        : NetworkInfo
 239:src/network.c **** //  Description     : Get network info from GPRS network
 240:src/network.c **** //  Input           : N/A
 241:src/network.c **** //  Return          : N/A
 242:src/network.c **** //  Note            : N/A
 243:src/network.c **** //  Globals Changed : N/A
 244:src/network.c **** //*****************************************************************************
 245:src/network.c **** void NetworkInfo(void)
 246:src/network.c **** {
 603              		.loc 1 246 0
 604              		.cfi_startproc
 605              		@ args = 0, pretend = 0, frame = 112
 606              		@ frame_needed = 0, uses_anonymous_args = 0
 247:src/network.c ****   const char *KSimSel[] = {"01", "02", NULL};
 607              		.loc 1 247 0
 608 0000 C24B     		ldr	r3, .L123
 246:src/network.c ****   const char *KSimSel[] = {"01", "02", NULL};
 609              		.loc 1 246 0
 610 0002 F0B5     		push	{r4, r5, r6, r7, lr}
 611              		.cfi_def_cfa_offset 20
 612              		.cfi_offset 4, -20
 613              		.cfi_offset 5, -16
 614              		.cfi_offset 6, -12
 615              		.cfi_offset 7, -8
 616              		.cfi_offset 14, -4
 617 0004 9FB0     		sub	sp, sp, #124
 618              		.cfi_def_cfa_offset 144
 619              		.loc 1 247 0
 620 0006 93E80700 		ldmia	r3, {r0, r1, r2}
 621 000a 04AC     		add	r4, sp, #16
 622 000c 84E80700 		stmia	r4, {r0, r1, r2}
 623              	.LVL84:
 624              	.LBB12:
 248:src/network.c ****   BYTE buf[64], disp_buf[MW_MAX_LINESIZE+1];
 249:src/network.c ****   BYTE *gprs_cfg1[] = {"internet", "", ""};
 250:src/network.c ****   BYTE *gprs_cfg2[] = {"pccw", "", ""};
 251:src/network.c ****   DWORD signal, status;
 252:src/network.c ****   int iOpt;
 253:src/network.c ****   BYTE bSimNum;
 254:src/network.c **** 
 255:src/network.c ****   DispLineMW("Network Info", MW_LINE1, MW_CLRDISP|MW_REVERSE|MW_CENTER|MW_SMFONT);
 625              		.loc 1 255 0
 626 0010 9220     		movs	r0, #146
 627 0012 0D21     		movs	r1, #13
 628 0014 FFF7FEFF 		bl	sys_func1
 629              	.LVL85:
 630 0018 0546     		mov	r5, r0
 631 001a 90B1     		cbz	r0, .L40
 632              		.loc 1 255 0 is_stmt 0 discriminator 1
 633 001c BC49     		ldr	r1, .L123+4
 634 001e 0C22     		movs	r2, #12
 635 0020 FFF7FEFF 		bl	memcpy
 636              	.LVL86:
ARM GAS  C:\Users\AHMED~1.ELE\AppData\Local\Temp\ccb86Llj.s 			page 17


 637 0024 0023     		movs	r3, #0
 638 0026 2521     		movs	r1, #37
 639 0028 2B73     		strb	r3, [r5, #12]
 640 002a 9223     		movs	r3, #146
 641 002c 0F20     		movs	r0, #15
 642 002e 0093     		str	r3, [sp]
 643 0030 2A46     		mov	r2, r5
 644 0032 4FF48073 		mov	r3, #256
 645 0036 FFF7FEFF 		bl	lib_app_call
 646              	.LVL87:
 647 003a 9420     		movs	r0, #148
 648 003c 2946     		mov	r1, r5
 649 003e FFF7FEFF 		bl	sys_func1
 650              	.LVL88:
 651              	.L40:
 652              	.LBE12:
 256:src/network.c ****   
 257:src/network.c ****   // select sim slot
 258:src/network.c ****   #if (T700|A5T1000|T300|T810)
 259:src/network.c ****   {      
 260:src/network.c ****     GetSysCfgMW(MW_SYSCFG_SIMSEL, &bSimNum);
 653              		.loc 1 260 0 is_stmt 1
 654 0042 0DF10F06 		add	r6, sp, #15
 655 0046 2121     		movs	r1, #33
 656 0048 3246     		mov	r2, r6
 657 004a B920     		movs	r0, #185
 658 004c FFF7FEFF 		bl	sys_func2
 659              	.LVL89:
 261:src/network.c ****     iOpt = bSimNum;
 262:src/network.c ****     iOpt = ToggleOption("SIM Num", KSimSel, iOpt);
 660              		.loc 1 262 0
 661 0050 B048     		ldr	r0, .L123+8
 662 0052 2146     		mov	r1, r4
 663 0054 9DF80F20 		ldrb	r2, [sp, #15]	@ zero_extendqisi2
 664              	.LVL90:
 665 0058 FFF7FEFF 		bl	ToggleOption
 666              	.LVL91:
 263:src/network.c ****     if (iOpt >= 0) {
 667              		.loc 1 263 0
 668 005c 071E     		subs	r7, r0, #0
 669 005e C0F25482 		blt	.L39
 264:src/network.c ****       if (bSimNum != iOpt) {
 670              		.loc 1 264 0
 671 0062 9DF80F30 		ldrb	r3, [sp, #15]	@ zero_extendqisi2
 672 0066 BB42     		cmp	r3, r7
 673 0068 6DD0     		beq	.L42
 265:src/network.c ****         DispClrBelowMW(MW_LINE3);
 674              		.loc 1 265 0
 675 006a 0025     		movs	r5, #0
 676              	.LVL92:
 677 006c 2321     		movs	r1, #35
 678 006e 4FF44072 		mov	r2, #768
 679 0072 2B46     		mov	r3, r5
 680 0074 0095     		str	r5, [sp]
 681 0076 0F20     		movs	r0, #15
 682              	.LVL93:
 683 0078 FFF7FEFF 		bl	lib_app_call
ARM GAS  C:\Users\AHMED~1.ELE\AppData\Local\Temp\ccb86Llj.s 			page 18


 684              	.LVL94:
 685              	.LBB13:
 266:src/network.c ****         DispLineMW("Pls Wait..", MW_LINE3, MW_CENTER|MW_BIGFONT);
 686              		.loc 1 266 0
 687 007c 9220     		movs	r0, #146
 688 007e 0B21     		movs	r1, #11
 689 0080 FFF7FEFF 		bl	sys_func1
 690              	.LVL95:
 691 0084 0446     		mov	r4, r0
 692 0086 90B1     		cbz	r0, .L43
 693              		.loc 1 266 0 is_stmt 0 discriminator 1
 694 0088 A349     		ldr	r1, .L123+12
 695 008a 0A22     		movs	r2, #10
 696 008c FFF7FEFF 		bl	memcpy
 697              	.LVL96:
 698 0090 41F20203 		movw	r3, #4098
 699 0094 A572     		strb	r5, [r4, #10]
 700 0096 2521     		movs	r1, #37
 701 0098 0093     		str	r3, [sp]
 702 009a 0F20     		movs	r0, #15
 703 009c 2246     		mov	r2, r4
 704 009e 4FF44073 		mov	r3, #768
 705 00a2 FFF7FEFF 		bl	lib_app_call
 706              	.LVL97:
 707 00a6 9420     		movs	r0, #148
 708 00a8 2146     		mov	r1, r4
 709 00aa FFF7FEFF 		bl	sys_func1
 710              	.LVL98:
 711              	.L43:
 712              	.LBE13:
 267:src/network.c ****         if (IOCtlMW(gPppHandle, IO_PPP_GET_PHASE, NULL) == MW_PPP_PHASE_READY) {
 713              		.loc 1 267 0 is_stmt 1
 714 00ae 9B4C     		ldr	r4, .L123+16
 715              	.LVL99:
 716 00b0 0025     		movs	r5, #0
 717 00b2 0F20     		movs	r0, #15
 718 00b4 0095     		str	r5, [sp]
 719 00b6 0721     		movs	r1, #7
 720 00b8 2268     		ldr	r2, [r4]
 721 00ba 0523     		movs	r3, #5
 722 00bc FFF7FEFF 		bl	lib_app_call
 723              	.LVL100:
 724 00c0 0528     		cmp	r0, #5
 725 00c2 1AD0     		beq	.L44
 726              	.L47:
 727              	.LVL101:
 728              	.LBB14:
 268:src/network.c ****           IOCtlMW(gPppHandle, IO_PPP_DISCONNECT, NULL);
 269:src/network.c ****           while (1) {
 270:src/network.c ****             status = IOCtlMW(gPppHandle, IO_PPP_GET_PHASE, NULL);
 271:src/network.c ****             if ((status == MW_PPP_PHASE_IDLE) || (status == MW_PPP_PHASE_DEAD))// || (status == MW_
 272:src/network.c ****               break;
 273:src/network.c ****             if (GetCharMW() != MWKEY_CANCL)
 274:src/network.c ****               break;
 275:src/network.c ****           }
 276:src/network.c ****         }
 277:src/network.c ****         DispLineMW("Pls Wait...", MW_LINE3, MW_CENTER|MW_BIGFONT);
ARM GAS  C:\Users\AHMED~1.ELE\AppData\Local\Temp\ccb86Llj.s 			page 19


 729              		.loc 1 277 0
 730 00c4 9220     		movs	r0, #146
 731 00c6 0C21     		movs	r1, #12
 732 00c8 FFF7FEFF 		bl	sys_func1
 733              	.LVL102:
 734 00cc 0446     		mov	r4, r0
 735 00ce 80B3     		cbz	r0, .L46
 736              		.loc 1 277 0 is_stmt 0 discriminator 1
 737 00d0 9349     		ldr	r1, .L123+20
 738 00d2 0B22     		movs	r2, #11
 739 00d4 FFF7FEFF 		bl	memcpy
 740              	.LVL103:
 741 00d8 0023     		movs	r3, #0
 742 00da 2521     		movs	r1, #37
 743 00dc E372     		strb	r3, [r4, #11]
 744 00de 41F20203 		movw	r3, #4098
 745 00e2 2246     		mov	r2, r4
 746 00e4 0093     		str	r3, [sp]
 747 00e6 0F20     		movs	r0, #15
 748 00e8 4FF44073 		mov	r3, #768
 749 00ec FFF7FEFF 		bl	lib_app_call
 750              	.LVL104:
 751 00f0 2146     		mov	r1, r4
 752 00f2 9420     		movs	r0, #148
 753 00f4 FFF7FEFF 		bl	sys_func1
 754              	.LVL105:
 755 00f8 1BE0     		b	.L46
 756              	.LVL106:
 757              	.L44:
 758              	.LBE14:
 268:src/network.c ****           IOCtlMW(gPppHandle, IO_PPP_DISCONNECT, NULL);
 759              		.loc 1 268 0 is_stmt 1
 760 00fa 0095     		str	r5, [sp]
 761 00fc 0F20     		movs	r0, #15
 762 00fe 0721     		movs	r1, #7
 763 0100 2268     		ldr	r2, [r4]
 764 0102 1323     		movs	r3, #19
 765 0104 FFF7FEFF 		bl	lib_app_call
 766              	.LVL107:
 767              	.L48:
 270:src/network.c ****             if ((status == MW_PPP_PHASE_IDLE) || (status == MW_PPP_PHASE_DEAD))// || (status == MW_
 768              		.loc 1 270 0
 769 0108 0025     		movs	r5, #0
 770 010a 0F20     		movs	r0, #15
 771 010c 0095     		str	r5, [sp]
 772 010e 0721     		movs	r1, #7
 773 0110 2268     		ldr	r2, [r4]
 774 0112 0523     		movs	r3, #5
 775 0114 FFF7FEFF 		bl	lib_app_call
 776              	.LVL108:
 271:src/network.c ****               break;
 777              		.loc 1 271 0
 778 0118 0138     		subs	r0, r0, #1
 779              	.LVL109:
 780 011a 0330     		adds	r0, r0, #3
 781              	.LVL110:
 782 011c D2D8     		bhi	.L47
ARM GAS  C:\Users\AHMED~1.ELE\AppData\Local\Temp\ccb86Llj.s 			page 20


 273:src/network.c ****               break;
 783              		.loc 1 273 0
 784 011e 0095     		str	r5, [sp]
 785 0120 0F20     		movs	r0, #15
 786              	.LVL111:
 787 0122 1621     		movs	r1, #22
 788 0124 2A46     		mov	r2, r5
 789 0126 2B46     		mov	r3, r5
 790 0128 FFF7FEFF 		bl	lib_app_call
 791              	.LVL112:
 792 012c 1128     		cmp	r0, #17
 793 012e EBD0     		beq	.L48
 794 0130 C8E7     		b	.L47
 795              	.LVL113:
 796              	.L46:
 278:src/network.c ****         bSimNum = iOpt;
 279:src/network.c ****         IOCtlMW(gGprsHandle, IO_GPRS_SIM_SEL, &bSimNum);      
 797              		.loc 1 279 0
 798 0132 7C4B     		ldr	r3, .L123+24
 799 0134 0096     		str	r6, [sp]
 800 0136 0F20     		movs	r0, #15
 801 0138 1A68     		ldr	r2, [r3]
 802 013a 0721     		movs	r1, #7
 803 013c 0823     		movs	r3, #8
 278:src/network.c ****         bSimNum = iOpt;
 804              		.loc 1 278 0
 805 013e 8DF80F70 		strb	r7, [sp, #15]
 806              		.loc 1 279 0
 807 0142 FFF7FEFF 		bl	lib_app_call
 808              	.LVL114:
 809              	.L42:
 280:src/network.c ****       }
 281:src/network.c ****       DispClrBelowMW(MW_LINE3);
 810              		.loc 1 281 0
 811 0146 0026     		movs	r6, #0
 812 0148 3346     		mov	r3, r6
 813 014a 2321     		movs	r1, #35
 814 014c 4FF44072 		mov	r2, #768
 815 0150 0096     		str	r6, [sp]
 816 0152 0F20     		movs	r0, #15
 817 0154 FFF7FEFF 		bl	lib_app_call
 818              	.LVL115:
 282:src/network.c ****     }
 283:src/network.c ****     else
 284:src/network.c ****       return;
 285:src/network.c ****   }
 286:src/network.c ****   #elif (T1000)
 287:src/network.c ****   {      
 288:src/network.c ****     os_config_read(K_CF_SimSelect, &bSimNum);
 289:src/network.c ****     iOpt = bSimNum;
 290:src/network.c ****     iOpt = ToggleOption("SIM Num", KSimSel, iOpt);
 291:src/network.c ****     if (iOpt >= 0) {
 292:src/network.c ****       if (bSimNum != iOpt) {
 293:src/network.c ****         DispClrBelowMW(MW_LINE3);
 294:src/network.c ****         DispLineMW("Pls Wait", MW_LINE3, MW_CENTER|MW_BIGFONT);
 295:src/network.c ****         if (IOCtlMW(gPppHandle, IO_PPP_GET_PHASE, NULL) == MW_PPP_PHASE_READY) {
 296:src/network.c ****           IOCtlMW(gPppHandle, IO_PPP_DISCONNECT, NULL);
ARM GAS  C:\Users\AHMED~1.ELE\AppData\Local\Temp\ccb86Llj.s 			page 21


 297:src/network.c ****           while (1) {
 298:src/network.c ****             status = IOCtlMW(gPppHandle, IO_PPP_GET_PHASE, NULL);
 299:src/network.c ****             if ((status == MW_PPP_PHASE_IDLE) || (status == MW_PPP_PHASE_DEAD))// || (status == MW_
 300:src/network.c ****               break;
 301:src/network.c ****             if (GetCharMW() != MWKEY_CANCL)
 302:src/network.c ****               break;
 303:src/network.c ****           }
 304:src/network.c ****         }
 305:src/network.c ****         DispLineMW("Pls Wait...", MW_LINE3, MW_CENTER|MW_BIGFONT);
 306:src/network.c ****         bSimNum = iOpt;
 307:src/network.c ****         os_config_write(K_CF_SimSelect, &bSimNum);
 308:src/network.c ****         os_config_update();
 309:src/network.c ****         os_gprs_reset(K_GPRS_MODE_NORMAL);
 310:src/network.c ****       }
 311:src/network.c ****       DispClrBelowMW(MW_LINE3);
 312:src/network.c ****     }      
 313:src/network.c ****     else
 314:src/network.c ****       return;
 315:src/network.c ****   }
 316:src/network.c ****   #endif
 317:src/network.c ****   sprintf(disp_buf, "SIM Slot: %d", bSimNum+1);
 819              		.loc 1 317 0
 820 0158 9DF80F20 		ldrb	r2, [sp, #15]	@ zero_extendqisi2
 821 015c 7249     		ldr	r1, .L123+28
 822 015e 0132     		adds	r2, r2, #1
 823 0160 07A8     		add	r0, sp, #28
 824 0162 FFF7FEFF 		bl	sprintf
 825              	.LVL116:
 826              	.LBB15:
 318:src/network.c ****   DispLineMW(disp_buf, MW_LINE1, MW_CLRDISP|MW_SPFONT);
 827              		.loc 1 318 0
 828 0166 07A8     		add	r0, sp, #28
 829 0168 FFF7FEFF 		bl	strlen
 830              	.LVL117:
 831 016c 0546     		mov	r5, r0
 832              	.LVL118:
 833 016e 691C     		adds	r1, r5, #1
 834 0170 9220     		movs	r0, #146
 835              	.LVL119:
 836 0172 FFF7FEFF 		bl	sys_func1
 837              	.LVL120:
 838 0176 0446     		mov	r4, r0
 839 0178 90B1     		cbz	r0, .L49
 840              		.loc 1 318 0 is_stmt 0 discriminator 1
 841 017a 07A9     		add	r1, sp, #28
 842 017c 2A46     		mov	r2, r5
 843 017e FFF7FEFF 		bl	memcpy
 844              	.LVL121:
 845 0182 4FF40253 		mov	r3, #8320
 846 0186 6655     		strb	r6, [r4, r5]
 847 0188 2521     		movs	r1, #37
 848 018a 0093     		str	r3, [sp]
 849 018c 0F20     		movs	r0, #15
 850 018e 2246     		mov	r2, r4
 851 0190 4FF48073 		mov	r3, #256
 852 0194 FFF7FEFF 		bl	lib_app_call
 853              	.LVL122:
ARM GAS  C:\Users\AHMED~1.ELE\AppData\Local\Temp\ccb86Llj.s 			page 22


 854 0198 9420     		movs	r0, #148
 855 019a 2146     		mov	r1, r4
 856 019c FFF7FEFF 		bl	sys_func1
 857              	.LVL123:
 858              	.L49:
 859              	.LBE15:
 860              	.LBB16:
 319:src/network.c ****   
 320:src/network.c ****   DispLineMW("Wait AT Rdy..", MW_MAX_LINE, MW_CLREOL|MW_SPFONT);
 861              		.loc 1 320 0 is_stmt 1
 862 01a0 9220     		movs	r0, #146
 863 01a2 0E21     		movs	r1, #14
 864 01a4 FFF7FEFF 		bl	sys_func1
 865              	.LVL124:
 866 01a8 0446     		mov	r4, r0
 867              	.LVL125:
 868 01aa 98B1     		cbz	r0, .L50
 869              		.loc 1 320 0 is_stmt 0 discriminator 1
 870 01ac 5F49     		ldr	r1, .L123+32
 871 01ae 0D22     		movs	r2, #13
 872 01b0 FFF7FEFF 		bl	memcpy
 873              	.LVL126:
 874 01b4 0023     		movs	r3, #0
 875 01b6 2521     		movs	r1, #37
 876 01b8 6373     		strb	r3, [r4, #13]
 877 01ba 42F22003 		movw	r3, #8224
 878 01be 0F20     		movs	r0, #15
 879 01c0 0093     		str	r3, [sp]
 880 01c2 2246     		mov	r2, r4
 881 01c4 4FF41063 		mov	r3, #2304
 882 01c8 FFF7FEFF 		bl	lib_app_call
 883              	.LVL127:
 884 01cc 9420     		movs	r0, #148
 885 01ce 2146     		mov	r1, r4
 886 01d0 FFF7FEFF 		bl	sys_func1
 887              	.LVL128:
 888              	.L50:
 889              	.LBE16:
 321:src/network.c ****   TimerSetMW(gTimerHdl[TIMER_GPRS], MODULE_TIMEOUT);
 890              		.loc 1 321 0 is_stmt 1
 891 01d4 564C     		ldr	r4, .L123+36
 892              	.LVL129:
 893 01d6 0C20     		movs	r0, #12
 894 01d8 6169     		ldr	r1, [r4, #20]
 895 01da 41F27072 		movw	r2, #6000
 896 01de FFF7FEFF 		bl	sys_func2
 897              	.LVL130:
 898              	.L51:
 322:src/network.c ****   while ((StatMW(gGprsHandle, MW_GSTS_ATCMDRDY, NULL)&MW_GSTS_ATCMDRDY) == 0) {
 899              		.loc 1 322 0
 900 01e2 504D     		ldr	r5, .L123+24
 901 01e4 0027     		movs	r7, #0
 902 01e6 0821     		movs	r1, #8
 903 01e8 0097     		str	r7, [sp]
 904 01ea 0F20     		movs	r0, #15
 905 01ec 2A68     		ldr	r2, [r5]
 906 01ee 4FF08073 		mov	r3, #16777216
ARM GAS  C:\Users\AHMED~1.ELE\AppData\Local\Temp\ccb86Llj.s 			page 23


 907 01f2 FFF7FEFF 		bl	lib_app_call
 908              	.LVL131:
 909 01f6 C101     		lsls	r1, r0, #7
 910 01f8 28D4     		bmi	.L120
 323:src/network.c ****     if (TimerGetMW(gTimerHdl[TIMER_GPRS]) == 0) {
 911              		.loc 1 323 0
 912 01fa 0D20     		movs	r0, #13
 913 01fc 6169     		ldr	r1, [r4, #20]
 914 01fe FFF7FEFF 		bl	sys_func1
 915              	.LVL132:
 916 0202 0546     		mov	r5, r0
 917 0204 0028     		cmp	r0, #0
 918 0206 ECD1     		bne	.L51
 919              	.LVL133:
 920              	.LBB17:
 324:src/network.c ****       DispLineMW("Timeout!", MW_MAX_LINE, MW_RIGHT|MW_SPFONT);
 921              		.loc 1 324 0
 922 0208 9220     		movs	r0, #146
 923 020a 0921     		movs	r1, #9
 924 020c FFF7FEFF 		bl	sys_func1
 925              	.LVL134:
 926 0210 0446     		mov	r4, r0
 927 0212 90B1     		cbz	r0, .L53
 928              		.loc 1 324 0 is_stmt 0 discriminator 1
 929 0214 4749     		ldr	r1, .L123+40
 930 0216 0822     		movs	r2, #8
 931 0218 FFF7FEFF 		bl	memcpy
 932              	.LVL135:
 933 021c 2572     		strb	r5, [r4, #8]
 934              	.LVL136:
 935              	.L117:
 936 021e 42F20103 		movw	r3, #8193
 937 0222 0F20     		movs	r0, #15
 938 0224 0093     		str	r3, [sp]
 939 0226 2521     		movs	r1, #37
 940 0228 2246     		mov	r2, r4
 941 022a 4FF41063 		mov	r3, #2304
 942              	.L116:
 943 022e FFF7FEFF 		bl	lib_app_call
 944              	.LVL137:
 945 0232 9420     		movs	r0, #148
 946 0234 2146     		mov	r1, r4
 947 0236 FFF7FEFF 		bl	sys_func1
 948              	.LVL138:
 949              	.L53:
 950              	.LBE17:
 325:src/network.c ****       APM_WaitKey(KBD_TIMEOUT, 0);
 951              		.loc 1 325 0 is_stmt 1
 952 023a 0023     		movs	r3, #0
 953 023c 0321     		movs	r1, #3
 954 023e 0093     		str	r3, [sp]
 955 0240 42F22832 		movw	r2, #9000
 956 0244 1020     		movs	r0, #16
 957 0246 FFF7FEFF 		bl	lib_app_call
 958              	.LVL139:
 326:src/network.c ****       return;
 959              		.loc 1 326 0
ARM GAS  C:\Users\AHMED~1.ELE\AppData\Local\Temp\ccb86Llj.s 			page 24


 960 024a 5EE1     		b	.L39
 961              	.L120:
 962              	.LVL140:
 963              	.LBB18:
 327:src/network.c ****     }
 328:src/network.c ****   }
 329:src/network.c ****   
 330:src/network.c ****   DispLineMW("Check SIM..", MW_MAX_LINE, MW_CLREOL|MW_SPFONT);
 964              		.loc 1 330 0
 965 024c 9220     		movs	r0, #146
 966 024e 0C21     		movs	r1, #12
 967 0250 FFF7FEFF 		bl	sys_func1
 968              	.LVL141:
 969 0254 0646     		mov	r6, r0
 970 0256 90B1     		cbz	r0, .L56
 971              		.loc 1 330 0 is_stmt 0 discriminator 1
 972 0258 3749     		ldr	r1, .L123+44
 973 025a 0B22     		movs	r2, #11
 974 025c FFF7FEFF 		bl	memcpy
 975              	.LVL142:
 976 0260 42F22003 		movw	r3, #8224
 977 0264 F772     		strb	r7, [r6, #11]
 978 0266 2521     		movs	r1, #37
 979 0268 0093     		str	r3, [sp]
 980 026a 0F20     		movs	r0, #15
 981 026c 3246     		mov	r2, r6
 982 026e 4FF41063 		mov	r3, #2304
 983 0272 FFF7FEFF 		bl	lib_app_call
 984              	.LVL143:
 985 0276 9420     		movs	r0, #148
 986 0278 3146     		mov	r1, r6
 987 027a FFF7FEFF 		bl	sys_func1
 988              	.LVL144:
 989              	.L56:
 990              	.LBE18:
 331:src/network.c ****   TimerSetMW(gTimerHdl[TIMER_GPRS], MODULE_TIMEOUT);
 991              		.loc 1 331 0 is_stmt 1
 992 027e 0C20     		movs	r0, #12
 993 0280 6169     		ldr	r1, [r4, #20]
 994 0282 41F27072 		movw	r2, #6000
 995 0286 FFF7FEFF 		bl	sys_func2
 996              	.LVL145:
 997              	.L57:
 332:src/network.c ****   while ((StatMW(gGprsHandle, MW_GSTS_SIMINSERTED, NULL)&MW_GSTS_SIMINSERTED) == 0) {
 998              		.loc 1 332 0
 999 028a 0027     		movs	r7, #0
 1000 028c 0F20     		movs	r0, #15
 1001 028e 0097     		str	r7, [sp]
 1002 0290 0821     		movs	r1, #8
 1003 0292 2A68     		ldr	r2, [r5]
 1004 0294 4FF40073 		mov	r3, #512
 1005 0298 FFF7FEFF 		bl	lib_app_call
 1006              	.LVL146:
 1007 029c 8205     		lsls	r2, r0, #22
 1008 029e 4FD4     		bmi	.L121
 333:src/network.c ****     if (TimerGetMW(gTimerHdl[TIMER_GPRS]) == 0) {
 1009              		.loc 1 333 0
ARM GAS  C:\Users\AHMED~1.ELE\AppData\Local\Temp\ccb86Llj.s 			page 25


 1010 02a0 0D20     		movs	r0, #13
 1011 02a2 6169     		ldr	r1, [r4, #20]
 1012 02a4 FFF7FEFF 		bl	sys_func1
 1013              	.LVL147:
 1014 02a8 0646     		mov	r6, r0
 1015 02aa 0028     		cmp	r0, #0
 1016 02ac EDD1     		bne	.L57
 1017              	.LVL148:
 1018              	.LBB19:
 334:src/network.c ****       DispLineMW("Timeout!", MW_MAX_LINE, MW_RIGHT|MW_SPFONT);
 1019              		.loc 1 334 0
 1020 02ae 9220     		movs	r0, #146
 1021 02b0 0921     		movs	r1, #9
 1022 02b2 FFF7FEFF 		bl	sys_func1
 1023              	.LVL149:
 1024 02b6 0446     		mov	r4, r0
 1025 02b8 90B1     		cbz	r0, .L58
 1026              		.loc 1 334 0 is_stmt 0 discriminator 1
 1027 02ba 1E49     		ldr	r1, .L123+40
 1028 02bc 0822     		movs	r2, #8
 1029 02be FFF7FEFF 		bl	memcpy
 1030              	.LVL150:
 1031 02c2 42F20103 		movw	r3, #8193
 1032 02c6 2672     		strb	r6, [r4, #8]
 1033 02c8 2521     		movs	r1, #37
 1034 02ca 0093     		str	r3, [sp]
 1035 02cc 0F20     		movs	r0, #15
 1036 02ce 2246     		mov	r2, r4
 1037 02d0 4FF41063 		mov	r3, #2304
 1038 02d4 FFF7FEFF 		bl	lib_app_call
 1039              	.LVL151:
 1040 02d8 9420     		movs	r0, #148
 1041 02da 2146     		mov	r1, r4
 1042 02dc FFF7FEFF 		bl	sys_func1
 1043              	.LVL152:
 1044              	.L58:
 1045              	.LBE19:
 1046              	.LBB20:
 335:src/network.c ****       DispLineMW("NoSIM", MW_LINE2, MW_SPFONT);
 1047              		.loc 1 335 0 is_stmt 1
 1048 02e0 9220     		movs	r0, #146
 1049 02e2 0621     		movs	r1, #6
 1050 02e4 FFF7FEFF 		bl	sys_func1
 1051              	.LVL153:
 1052 02e8 0446     		mov	r4, r0
 1053              	.LVL154:
 1054 02ea 0028     		cmp	r0, #0
 1055 02ec A5D0     		beq	.L53
 1056              		.loc 1 335 0 is_stmt 0 discriminator 1
 1057 02ee 1349     		ldr	r1, .L123+48
 1058 02f0 0522     		movs	r2, #5
 1059 02f2 FFF7FEFF 		bl	memcpy
 1060              	.LVL155:
 1061 02f6 0023     		movs	r3, #0
 1062 02f8 0F20     		movs	r0, #15
 1063 02fa 6371     		strb	r3, [r4, #5]
 1064 02fc 4FF40053 		mov	r3, #8192
ARM GAS  C:\Users\AHMED~1.ELE\AppData\Local\Temp\ccb86Llj.s 			page 26


 1065 0300 2521     		movs	r1, #37
 1066 0302 0093     		str	r3, [sp]
 1067 0304 2246     		mov	r2, r4
 1068 0306 4FF40073 		mov	r3, #512
 1069 030a 90E7     		b	.L116
 1070              	.L124:
 1071              		.align	2
 1072              	.L123:
 1073 030c 00000000 		.word	.LANCHOR0
 1074 0310 36000000 		.word	.LC12
 1075 0314 43000000 		.word	.LC13
 1076 0318 4B000000 		.word	.LC14
 1077 031c 00000000 		.word	gPppHandle
 1078 0320 56000000 		.word	.LC15
 1079 0324 00000000 		.word	gGprsHandle
 1080 0328 62000000 		.word	.LC16
 1081 032c 6F000000 		.word	.LC17
 1082 0330 00000000 		.word	gTimerHdl
 1083 0334 7D000000 		.word	.LC18
 1084 0338 86000000 		.word	.LC19
 1085 033c 92000000 		.word	.LC20
 1086              	.LVL156:
 1087              	.L121:
 1088              	.LBE20:
 1089              	.LBB21:
 336:src/network.c ****       APM_WaitKey(KBD_TIMEOUT, 0);
 337:src/network.c ****       return;
 338:src/network.c ****     }
 339:src/network.c ****   }
 340:src/network.c ****   
 341:src/network.c ****   DispLineMW("Wait Network Rdy..", MW_MAX_LINE, MW_CLREOL|MW_SPFONT);
 1090              		.loc 1 341 0 is_stmt 1
 1091 0340 9220     		movs	r0, #146
 1092 0342 1321     		movs	r1, #19
 1093 0344 FFF7FEFF 		bl	sys_func1
 1094              	.LVL157:
 1095 0348 0646     		mov	r6, r0
 1096 034a 90B1     		cbz	r0, .L61
 1097              		.loc 1 341 0 is_stmt 0 discriminator 1
 1098 034c 7049     		ldr	r1, .L125
 1099 034e 1222     		movs	r2, #18
 1100 0350 FFF7FEFF 		bl	memcpy
 1101              	.LVL158:
 1102 0354 42F22003 		movw	r3, #8224
 1103 0358 B774     		strb	r7, [r6, #18]
 1104 035a 2521     		movs	r1, #37
 1105 035c 0093     		str	r3, [sp]
 1106 035e 0F20     		movs	r0, #15
 1107 0360 3246     		mov	r2, r6
 1108 0362 4FF41063 		mov	r3, #2304
 1109 0366 FFF7FEFF 		bl	lib_app_call
 1110              	.LVL159:
 1111 036a 9420     		movs	r0, #148
 1112 036c 3146     		mov	r1, r6
 1113 036e FFF7FEFF 		bl	sys_func1
 1114              	.LVL160:
 1115              	.L61:
ARM GAS  C:\Users\AHMED~1.ELE\AppData\Local\Temp\ccb86Llj.s 			page 27


 1116              	.LBE21:
 342:src/network.c ****   TimerSetMW(gTimerHdl[TIMER_GPRS], MODULE_TIMEOUT);
 1117              		.loc 1 342 0 is_stmt 1
 1118 0372 0C20     		movs	r0, #12
 1119 0374 6169     		ldr	r1, [r4, #20]
 1120 0376 41F27072 		movw	r2, #6000
 1121 037a FFF7FEFF 		bl	sys_func2
 1122              	.LVL161:
 1123              	.L62:
 343:src/network.c ****   while ((StatMW(gGprsHandle, MW_GSTS_NETWORKAVAIL, NULL)&MW_GSTS_NETWORKAVAIL) == 0) {
 1124              		.loc 1 343 0
 1125 037e 0026     		movs	r6, #0
 1126 0380 4FF48063 		mov	r3, #1024
 1127 0384 0096     		str	r6, [sp]
 1128 0386 0F20     		movs	r0, #15
 1129 0388 0821     		movs	r1, #8
 1130 038a 2A68     		ldr	r2, [r5]
 1131 038c FFF7FEFF 		bl	lib_app_call
 1132              	.LVL162:
 1133 0390 4305     		lsls	r3, r0, #21
 1134 0392 14D4     		bmi	.L122
 344:src/network.c ****     if (TimerGetMW(gTimerHdl[TIMER_GPRS]) == 0) {
 1135              		.loc 1 344 0
 1136 0394 0D20     		movs	r0, #13
 1137 0396 6169     		ldr	r1, [r4, #20]
 1138 0398 FFF7FEFF 		bl	sys_func1
 1139              	.LVL163:
 1140 039c 0646     		mov	r6, r0
 1141 039e 0028     		cmp	r0, #0
 1142 03a0 EDD1     		bne	.L62
 1143              	.LVL164:
 1144              	.LBB22:
 345:src/network.c ****       DispLineMW("Timeout!", MW_MAX_LINE, MW_RIGHT|MW_SPFONT);
 1145              		.loc 1 345 0
 1146 03a2 9220     		movs	r0, #146
 1147 03a4 0921     		movs	r1, #9
 1148 03a6 FFF7FEFF 		bl	sys_func1
 1149              	.LVL165:
 1150 03aa 0446     		mov	r4, r0
 1151 03ac 0028     		cmp	r0, #0
 1152 03ae 3FF444AF 		beq	.L53
 1153              		.loc 1 345 0 is_stmt 0 discriminator 1
 1154 03b2 5849     		ldr	r1, .L125+4
 1155 03b4 0822     		movs	r2, #8
 1156 03b6 FFF7FEFF 		bl	memcpy
 1157              	.LVL166:
 1158 03ba 2672     		strb	r6, [r4, #8]
 1159 03bc 2FE7     		b	.L117
 1160              	.LVL167:
 1161              	.L122:
 1162              	.LBE22:
 1163              	.LBB23:
 346:src/network.c ****       APM_WaitKey(KBD_TIMEOUT, 0);
 347:src/network.c ****       return;
 348:src/network.c ****     }
 349:src/network.c ****   }
 350:src/network.c ****   
ARM GAS  C:\Users\AHMED~1.ELE\AppData\Local\Temp\ccb86Llj.s 			page 28


 351:src/network.c ****   DispLineMW("Get Operator Name..", MW_MAX_LINE, MW_CLREOL|MW_SPFONT);
 1164              		.loc 1 351 0 is_stmt 1
 1165 03be 9220     		movs	r0, #146
 1166 03c0 1421     		movs	r1, #20
 1167 03c2 FFF7FEFF 		bl	sys_func1
 1168              	.LVL168:
 1169 03c6 0446     		mov	r4, r0
 1170 03c8 90B1     		cbz	r0, .L64
 1171              		.loc 1 351 0 is_stmt 0 discriminator 1
 1172 03ca 5349     		ldr	r1, .L125+8
 1173 03cc 1322     		movs	r2, #19
 1174 03ce FFF7FEFF 		bl	memcpy
 1175              	.LVL169:
 1176 03d2 42F22003 		movw	r3, #8224
 1177 03d6 E674     		strb	r6, [r4, #19]
 1178 03d8 2521     		movs	r1, #37
 1179 03da 0093     		str	r3, [sp]
 1180 03dc 0F20     		movs	r0, #15
 1181 03de 2246     		mov	r2, r4
 1182 03e0 4FF41063 		mov	r3, #2304
 1183 03e4 FFF7FEFF 		bl	lib_app_call
 1184              	.LVL170:
 1185 03e8 9420     		movs	r0, #148
 1186 03ea 2146     		mov	r1, r4
 1187 03ec FFF7FEFF 		bl	sys_func1
 1188              	.LVL171:
 1189              	.L64:
 1190              	.LBE23:
 352:src/network.c ****   if (GetOptrName(buf, OPTR_NAME_SIZE) == TRUE) {
 1191              		.loc 1 352 0 is_stmt 1
 1192 03f0 0EA8     		add	r0, sp, #56
 1193 03f2 1421     		movs	r1, #20
 1194 03f4 FFF7FEFF 		bl	GetOptrName
 1195              	.LVL172:
 1196 03f8 0128     		cmp	r0, #1
 1197 03fa 15D1     		bne	.L65
 353:src/network.c ****     sprintf(disp_buf, "OptrName: %s", buf);
 1198              		.loc 1 353 0
 1199 03fc 4749     		ldr	r1, .L125+12
 1200 03fe 0EAA     		add	r2, sp, #56
 1201 0400 07A8     		add	r0, sp, #28
 1202 0402 FFF7FEFF 		bl	sprintf
 1203              	.LVL173:
 1204              	.LBB24:
 354:src/network.c ****     DispLineMW(disp_buf, MW_LINE2, MW_SPFONT);
 1205              		.loc 1 354 0
 1206 0406 07A8     		add	r0, sp, #28
 1207 0408 FFF7FEFF 		bl	strlen
 1208              	.LVL174:
 1209 040c 0646     		mov	r6, r0
 1210              	.LVL175:
 1211 040e 711C     		adds	r1, r6, #1
 1212 0410 9220     		movs	r0, #146
 1213              	.LVL176:
 1214 0412 FFF7FEFF 		bl	sys_func1
 1215              	.LVL177:
 1216 0416 0446     		mov	r4, r0
ARM GAS  C:\Users\AHMED~1.ELE\AppData\Local\Temp\ccb86Llj.s 			page 29


 1217              	.LVL178:
 1218 0418 00B3     		cbz	r0, .L67
 1219              		.loc 1 354 0 is_stmt 0 discriminator 1
 1220 041a 07A9     		add	r1, sp, #28
 1221 041c 3246     		mov	r2, r6
 1222 041e FFF7FEFF 		bl	memcpy
 1223              	.LVL179:
 1224 0422 0023     		movs	r3, #0
 1225 0424 A355     		strb	r3, [r4, r6]
 1226 0426 0BE0     		b	.L118
 1227              	.LVL180:
 1228              	.L65:
 1229              	.LBE24:
 1230              	.LBB25:
 355:src/network.c ****   }
 356:src/network.c ****   else {
 357:src/network.c ****     DispLineMW("OptrName: N/A", MW_LINE2, MW_SPFONT);
 1231              		.loc 1 357 0 is_stmt 1
 1232 0428 9220     		movs	r0, #146
 1233 042a 0E21     		movs	r1, #14
 1234 042c FFF7FEFF 		bl	sys_func1
 1235              	.LVL181:
 1236 0430 0446     		mov	r4, r0
 1237              	.LVL182:
 1238 0432 98B1     		cbz	r0, .L67
 1239              		.loc 1 357 0 is_stmt 0 discriminator 1
 1240 0434 3A49     		ldr	r1, .L125+16
 1241 0436 0D22     		movs	r2, #13
 1242 0438 FFF7FEFF 		bl	memcpy
 1243              	.LVL183:
 1244 043c 0023     		movs	r3, #0
 1245 043e 6373     		strb	r3, [r4, #13]
 1246              	.LVL184:
 1247              	.L118:
 1248 0440 4FF40053 		mov	r3, #8192
 1249 0444 2521     		movs	r1, #37
 1250 0446 0093     		str	r3, [sp]
 1251 0448 0F20     		movs	r0, #15
 1252 044a 2246     		mov	r2, r4
 1253 044c 4FF40073 		mov	r3, #512
 1254 0450 FFF7FEFF 		bl	lib_app_call
 1255              	.LVL185:
 1256 0454 9420     		movs	r0, #148
 1257 0456 2146     		mov	r1, r4
 1258 0458 FFF7FEFF 		bl	sys_func1
 1259              	.LVL186:
 1260              	.L67:
 1261              	.LBE25:
 358:src/network.c ****   }
 359:src/network.c ****   
 360:src/network.c ****   signal = IOCtlMW(gGprsHandle, IO_GPRS_SIGNAL, NULL);
 1262              		.loc 1 360 0 is_stmt 1
 1263 045c 0026     		movs	r6, #0
 1264 045e 0123     		movs	r3, #1
 1265 0460 0096     		str	r6, [sp]
 1266 0462 0721     		movs	r1, #7
 1267 0464 2A68     		ldr	r2, [r5]
ARM GAS  C:\Users\AHMED~1.ELE\AppData\Local\Temp\ccb86Llj.s 			page 30


 1268 0466 0F20     		movs	r0, #15
 1269 0468 FFF7FEFF 		bl	lib_app_call
 1270              	.LVL187:
 361:src/network.c ****   sprintf(disp_buf, "Signal  : %02d", signal);
 1271              		.loc 1 361 0
 1272 046c 2D49     		ldr	r1, .L125+20
 360:src/network.c ****   sprintf(disp_buf, "Signal  : %02d", signal);
 1273              		.loc 1 360 0
 1274 046e 0246     		mov	r2, r0
 1275              	.LVL188:
 1276              		.loc 1 361 0
 1277 0470 07A8     		add	r0, sp, #28
 1278              	.LVL189:
 1279 0472 FFF7FEFF 		bl	sprintf
 1280              	.LVL190:
 1281              	.LBB26:
 362:src/network.c ****   DispLineMW(disp_buf, MW_LINE3, MW_SPFONT);
 1282              		.loc 1 362 0
 1283 0476 07A8     		add	r0, sp, #28
 1284 0478 FFF7FEFF 		bl	strlen
 1285              	.LVL191:
 1286 047c 0546     		mov	r5, r0
 1287              	.LVL192:
 1288 047e 691C     		adds	r1, r5, #1
 1289 0480 9220     		movs	r0, #146
 1290              	.LVL193:
 1291 0482 FFF7FEFF 		bl	sys_func1
 1292              	.LVL194:
 1293 0486 0446     		mov	r4, r0
 1294 0488 90B1     		cbz	r0, .L69
 1295              		.loc 1 362 0 is_stmt 0 discriminator 1
 1296 048a 07A9     		add	r1, sp, #28
 1297 048c 2A46     		mov	r2, r5
 1298 048e FFF7FEFF 		bl	memcpy
 1299              	.LVL195:
 1300 0492 4FF40053 		mov	r3, #8192
 1301 0496 6655     		strb	r6, [r4, r5]
 1302 0498 2521     		movs	r1, #37
 1303 049a 0093     		str	r3, [sp]
 1304 049c 0F20     		movs	r0, #15
 1305 049e 2246     		mov	r2, r4
 1306 04a0 4FF44073 		mov	r3, #768
 1307 04a4 FFF7FEFF 		bl	lib_app_call
 1308              	.LVL196:
 1309 04a8 9420     		movs	r0, #148
 1310 04aa 2146     		mov	r1, r4
 1311 04ac FFF7FEFF 		bl	sys_func1
 1312              	.LVL197:
 1313              	.L69:
 1314              	.LBE26:
 1315              	.LBB27:
 363:src/network.c ****   
 364:src/network.c ****   DispLineMW("Use for Txn?!", MW_MAX_LINE, MW_CLREOL|MW_SPFONT);
 1316              		.loc 1 364 0 is_stmt 1
 1317 04b0 9220     		movs	r0, #146
 1318 04b2 0E21     		movs	r1, #14
 1319 04b4 FFF7FEFF 		bl	sys_func1
ARM GAS  C:\Users\AHMED~1.ELE\AppData\Local\Temp\ccb86Llj.s 			page 31


 1320              	.LVL198:
 1321 04b8 0446     		mov	r4, r0
 1322              	.LVL199:
 1323 04ba 98B1     		cbz	r0, .L70
 1324              		.loc 1 364 0 is_stmt 0 discriminator 1
 1325 04bc 1A49     		ldr	r1, .L125+24
 1326 04be 0D22     		movs	r2, #13
 1327 04c0 FFF7FEFF 		bl	memcpy
 1328              	.LVL200:
 1329 04c4 0023     		movs	r3, #0
 1330 04c6 2521     		movs	r1, #37
 1331 04c8 6373     		strb	r3, [r4, #13]
 1332 04ca 42F22003 		movw	r3, #8224
 1333 04ce 0F20     		movs	r0, #15
 1334 04d0 0093     		str	r3, [sp]
 1335 04d2 2246     		mov	r2, r4
 1336 04d4 4FF41063 		mov	r3, #2304
 1337 04d8 FFF7FEFF 		bl	lib_app_call
 1338              	.LVL201:
 1339 04dc 9420     		movs	r0, #148
 1340 04de 2146     		mov	r1, r4
 1341 04e0 FFF7FEFF 		bl	sys_func1
 1342              	.LVL202:
 1343              	.L70:
 1344              	.LBE27:
 365:src/network.c ****   if (APM_YesNo() != 2)
 1345              		.loc 1 365 0 is_stmt 1
 1346 04e4 0022     		movs	r2, #0
 1347 04e6 1020     		movs	r0, #16
 1348 04e8 0092     		str	r2, [sp]
 1349 04ea 0421     		movs	r1, #4
 1350 04ec 1346     		mov	r3, r2
 1351 04ee FFF7FEFF 		bl	lib_app_call
 1352              	.LVL203:
 1353 04f2 0228     		cmp	r0, #2
 1354 04f4 09D1     		bne	.L39
 366:src/network.c ****     return;
 367:src/network.c ****   if (bSimNum == 0)
 1355              		.loc 1 367 0
 1356 04f6 9DF80F30 		ldrb	r3, [sp, #15]	@ zero_extendqisi2
 1357 04fa 0BB9     		cbnz	r3, .L71
 368:src/network.c ****     SetPPPConfig(gprs_cfg1[0], gprs_cfg1[1], gprs_cfg1[2]);
 1358              		.loc 1 368 0
 1359 04fc 0B48     		ldr	r0, .L125+28
 1360 04fe 00E0     		b	.L119
 1361              	.L71:
 369:src/network.c ****   else
 370:src/network.c ****     SetPPPConfig(gprs_cfg2[0], gprs_cfg2[1], gprs_cfg2[2]);
 1362              		.loc 1 370 0
 1363 0500 0B48     		ldr	r0, .L125+32
 1364              	.L119:
 1365 0502 0C49     		ldr	r1, .L125+36
 1366 0504 0A46     		mov	r2, r1
 1367 0506 FFF7FEFF 		bl	SetPPPConfig
 1368              	.LVL204:
 1369              	.L39:
 371:src/network.c **** }
ARM GAS  C:\Users\AHMED~1.ELE\AppData\Local\Temp\ccb86Llj.s 			page 32


 1370              		.loc 1 371 0
 1371 050a 1FB0     		add	sp, sp, #124
 1372              		.cfi_def_cfa_offset 20
 1373              		@ sp needed
 1374 050c F0BD     		pop	{r4, r5, r6, r7, pc}
 1375              	.L126:
 1376 050e 00BF     		.align	2
 1377              	.L125:
 1378 0510 98000000 		.word	.LC21
 1379 0514 7D000000 		.word	.LC18
 1380 0518 AB000000 		.word	.LC22
 1381 051c BF000000 		.word	.LC23
 1382 0520 CC000000 		.word	.LC24
 1383 0524 DA000000 		.word	.LC25
 1384 0528 E9000000 		.word	.LC26
 1385 052c F7000000 		.word	.LC3
 1386 0530 01010000 		.word	.LC6
 1387 0534 00010000 		.word	.LC4
 1388              		.cfi_endproc
 1389              	.LFE5:
 1390              		.size	NetworkInfo, .-NetworkInfo
 1391              		.section	.text.SelSIM,"ax",%progbits
 1392              		.align	1
 1393              		.global	SelSIM
 1394              		.thumb
 1395              		.thumb_func
 1396              		.type	SelSIM, %function
 1397              	SelSIM:
 1398              	.LFB6:
 372:src/network.c **** //*****************************************************************************
 373:src/network.c **** //  Function        : SelSIM
 374:src/network.c **** //  Description     : Select SIM slot on terminal
 375:src/network.c **** //  Input           : aSIM    (0: SIM1; 1: SIM2)
 376:src/network.c **** //  Return          : N/A
 377:src/network.c **** //  Note            : N/A
 378:src/network.c **** //  Globals Changed : N/A
 379:src/network.c **** //*****************************************************************************
 380:src/network.c **** BOOLEAN SelSIM(BYTE aSIM, BYTE *aOperName, DWORD *aSignal)
 381:src/network.c **** {
 1399              		.loc 1 381 0
 1400              		.cfi_startproc
 1401              		@ args = 0, pretend = 0, frame = 496
 1402              		@ frame_needed = 0, uses_anonymous_args = 0
 1403              	.LVL205:
 1404 0000 2DE9F047 		push	{r4, r5, r6, r7, r8, r9, r10, lr}
 1405              		.cfi_def_cfa_offset 32
 1406              		.cfi_offset 4, -32
 1407              		.cfi_offset 5, -28
 1408              		.cfi_offset 6, -24
 1409              		.cfi_offset 7, -20
 1410              		.cfi_offset 8, -16
 1411              		.cfi_offset 9, -12
 1412              		.cfi_offset 10, -8
 1413              		.cfi_offset 14, -4
 1414 0004 FEB0     		sub	sp, sp, #504
 1415              		.cfi_def_cfa_offset 536
 382:src/network.c ****   struct TERM_CFG term_cfg;
ARM GAS  C:\Users\AHMED~1.ELE\AppData\Local\Temp\ccb86Llj.s 			page 33


 383:src/network.c ****   BYTE buf[64], disp_buf[32];
 384:src/network.c ****   DWORD signal, status;
 385:src/network.c ****   BYTE bSimNum;
 386:src/network.c **** 
 387:src/network.c ****   // select sim slot
 388:src/network.c ****   #if (T700|A5T1000|T300|T810)
 389:src/network.c ****   {      
 390:src/network.c ****     GetSysCfgMW(MW_SYSCFG_SIMSEL, &bSimNum);
 1416              		.loc 1 390 0
 1417 0006 0DF10F05 		add	r5, sp, #15
 381:src/network.c ****   struct TERM_CFG term_cfg;
 1418              		.loc 1 381 0
 1419 000a 0646     		mov	r6, r0
 1420 000c 8946     		mov	r9, r1
 1421 000e 9046     		mov	r8, r2
 1422              		.loc 1 390 0
 1423 0010 B920     		movs	r0, #185
 1424              	.LVL206:
 1425 0012 2A46     		mov	r2, r5
 1426              	.LVL207:
 1427 0014 2121     		movs	r1, #33
 1428              	.LVL208:
 1429 0016 FFF7FEFF 		bl	sys_func2
 1430              	.LVL209:
 391:src/network.c ****     gSimSlot = bSimNum;
 1431              		.loc 1 391 0
 1432 001a 2A78     		ldrb	r2, [r5]	@ zero_extendqisi2
 1433 001c 914F     		ldr	r7, .L150
 392:src/network.c ****     if (bSimNum != aSIM) {
 1434              		.loc 1 392 0
 1435 001e B242     		cmp	r2, r6
 391:src/network.c ****     gSimSlot = bSimNum;
 1436              		.loc 1 391 0
 1437 0020 3A70     		strb	r2, [r7]
 1438              		.loc 1 392 0
 1439 0022 43D0     		beq	.L128
 393:src/network.c ****       sprintf(disp_buf, "S%d:%s", bSimNum+1, "Pls Wait..");
 1440              		.loc 1 393 0
 1441 0024 9049     		ldr	r1, .L150+4
 1442 0026 0132     		adds	r2, r2, #1
 1443 0028 904B     		ldr	r3, .L150+8
 1444 002a 04A8     		add	r0, sp, #16
 394:src/network.c ****       SetBannerText(disp_buf);
 395:src/network.c ****       status = IOCtlMW(gPppHandle, IO_PPP_GET_PHASE, NULL);
 1445              		.loc 1 395 0
 1446 002c 904C     		ldr	r4, .L150+12
 393:src/network.c ****       sprintf(disp_buf, "S%d:%s", bSimNum+1, "Pls Wait..");
 1447              		.loc 1 393 0
 1448 002e FFF7FEFF 		bl	sprintf
 1449              	.LVL210:
 1450              		.loc 1 395 0
 1451 0032 4FF0000A 		mov	r10, #0
 394:src/network.c ****       SetBannerText(disp_buf);
 1452              		.loc 1 394 0
 1453 0036 04A8     		add	r0, sp, #16
 1454 0038 FFF7FEFF 		bl	SetBannerText
 1455              	.LVL211:
ARM GAS  C:\Users\AHMED~1.ELE\AppData\Local\Temp\ccb86Llj.s 			page 34


 1456              		.loc 1 395 0
 1457 003c CDF800A0 		str	r10, [sp]
 1458 0040 0F20     		movs	r0, #15
 1459 0042 0721     		movs	r1, #7
 1460 0044 2268     		ldr	r2, [r4]
 1461 0046 0523     		movs	r3, #5
 1462 0048 FFF7FEFF 		bl	lib_app_call
 1463              	.LVL212:
 396:src/network.c ****       if ((status != MW_PPP_PHASE_IDLE) && (status != MW_PPP_PHASE_DEAD)) {
 1464              		.loc 1 396 0
 1465 004c 0138     		subs	r0, r0, #1
 1466              	.LVL213:
 1467 004e 0330     		adds	r0, r0, #3
 1468              	.LVL214:
 1469 0050 18D9     		bls	.L129
 1470              	.LVL215:
 1471              	.L130:
 397:src/network.c ****         IOCtlMW(gPppHandle, IO_PPP_DISCONNECT, NULL);
 398:src/network.c ****         while (1) {
 399:src/network.c ****           status = IOCtlMW(gPppHandle, IO_PPP_GET_PHASE, NULL);
 400:src/network.c ****           if ((status == MW_PPP_PHASE_IDLE) || (status == MW_PPP_PHASE_DEAD))// || (status == MW_PP
 401:src/network.c ****             break;
 402:src/network.c ****         }
 403:src/network.c ****       }
 404:src/network.c ****       gSimSlot = bSimNum = aSIM;
 405:src/network.c ****       sprintf(disp_buf, "S%d:%s", bSimNum+1, "Pls Wait...");
 1472              		.loc 1 405 0
 1473 0052 721C     		adds	r2, r6, #1
 1474 0054 8449     		ldr	r1, .L150+4
 1475 0056 874B     		ldr	r3, .L150+16
 1476 0058 04A8     		add	r0, sp, #16
 404:src/network.c ****       sprintf(disp_buf, "S%d:%s", bSimNum+1, "Pls Wait...");
 1477              		.loc 1 404 0
 1478 005a 2E70     		strb	r6, [r5]
 1479 005c 3E70     		strb	r6, [r7]
 1480              		.loc 1 405 0
 1481 005e FFF7FEFF 		bl	sprintf
 1482              	.LVL216:
 406:src/network.c ****       SetBannerText(disp_buf);
 1483              		.loc 1 406 0
 1484 0062 04A8     		add	r0, sp, #16
 1485 0064 FFF7FEFF 		bl	SetBannerText
 1486              	.LVL217:
 407:src/network.c ****       IOCtlMW(gGprsHandle, IO_GPRS_SIM_SEL, &bSimNum);
 1487              		.loc 1 407 0
 1488 0068 834B     		ldr	r3, .L150+20
 1489 006a 0095     		str	r5, [sp]
 1490 006c 0721     		movs	r1, #7
 1491 006e 1A68     		ldr	r2, [r3]
 1492 0070 0F20     		movs	r0, #15
 1493 0072 0823     		movs	r3, #8
 1494 0074 FFF7FEFF 		bl	lib_app_call
 1495              	.LVL218:
 408:src/network.c ****       os_gprs_reset(K_GPRS_MODE_NORMAL);
 1496              		.loc 1 408 0
 1497 0078 0121     		movs	r1, #1
 1498 007a 40F21910 		movw	r0, #281
ARM GAS  C:\Users\AHMED~1.ELE\AppData\Local\Temp\ccb86Llj.s 			page 35


 1499 007e FFF7FEFF 		bl	sys_func1
 1500              	.LVL219:
 1501 0082 13E0     		b	.L128
 1502              	.LVL220:
 1503              	.L129:
 397:src/network.c ****         while (1) {
 1504              		.loc 1 397 0
 1505 0084 CDF800A0 		str	r10, [sp]
 1506 0088 0F20     		movs	r0, #15
 1507              	.LVL221:
 1508 008a 0721     		movs	r1, #7
 1509 008c 2268     		ldr	r2, [r4]
 1510 008e 1323     		movs	r3, #19
 1511 0090 FFF7FEFF 		bl	lib_app_call
 1512              	.LVL222:
 1513              	.L131:
 399:src/network.c ****           if ((status == MW_PPP_PHASE_IDLE) || (status == MW_PPP_PHASE_DEAD))// || (status == MW_PP
 1514              		.loc 1 399 0
 1515 0094 0023     		movs	r3, #0
 1516 0096 0F20     		movs	r0, #15
 1517 0098 0093     		str	r3, [sp]
 1518 009a 0721     		movs	r1, #7
 1519 009c 2268     		ldr	r2, [r4]
 1520 009e 0523     		movs	r3, #5
 1521 00a0 FFF7FEFF 		bl	lib_app_call
 1522              	.LVL223:
 400:src/network.c ****             break;
 1523              		.loc 1 400 0
 1524 00a4 0138     		subs	r0, r0, #1
 1525              	.LVL224:
 1526 00a6 0330     		adds	r0, r0, #3
 1527              	.LVL225:
 1528 00a8 F4D9     		bls	.L131
 1529 00aa D2E7     		b	.L130
 1530              	.LVL226:
 1531              	.L128:
 409:src/network.c ****     }
 410:src/network.c ****   }
 411:src/network.c ****   #elif (T1000)
 412:src/network.c ****   {      
 413:src/network.c ****     os_config_read(K_CF_SimSelect, &bSimNum);
 414:src/network.c ****     if (bSimNum != aSIM) {
 415:src/network.c ****       sprintf(disp_buf, "S%d:%s", bSimNum+1, "Pls Wait..");
 416:src/network.c ****       SetBannerText(disp_buf);
 417:src/network.c ****       status = IOCtlMW(gPppHandle, IO_PPP_GET_PHASE, NULL);
 418:src/network.c ****       if ((status != MW_PPP_PHASE_IDLE) && (status != MW_PPP_PHASE_DEAD)) {
 419:src/network.c ****         IOCtlMW(gPppHandle, IO_PPP_DISCONNECT, NULL);
 420:src/network.c ****         while (1) {
 421:src/network.c ****           status = IOCtlMW(gPppHandle, IO_PPP_GET_PHASE, NULL);
 422:src/network.c ****           if ((status == MW_PPP_PHASE_IDLE) || (status == MW_PPP_PHASE_DEAD))// || (status == MW_PP
 423:src/network.c ****             break;
 424:src/network.c ****         }
 425:src/network.c ****       }
 426:src/network.c ****       gSimSlot = bSimNum = aSIM;
 427:src/network.c ****       sprintf(disp_buf, "S%d:%s", bSimNum+1, "Pls Wait...");
 428:src/network.c ****       SetBannerText(disp_buf);
 429:src/network.c ****       os_config_write(K_CF_SimSelect, &bSimNum);
ARM GAS  C:\Users\AHMED~1.ELE\AppData\Local\Temp\ccb86Llj.s 			page 36


 430:src/network.c ****       os_config_update();
 431:src/network.c ****       os_gprs_reset(K_GPRS_MODE_NORMAL);
 432:src/network.c ****     }
 433:src/network.c ****   }
 434:src/network.c ****   #endif
 435:src/network.c ****   
 436:src/network.c ****   sprintf(disp_buf, "S%d:%s", bSimNum+1, "Wait AT Rdy..");
 1532              		.loc 1 436 0
 1533 00ac 2A78     		ldrb	r2, [r5]	@ zero_extendqisi2
 1534 00ae 6E49     		ldr	r1, .L150+4
 1535 00b0 0132     		adds	r2, r2, #1
 1536 00b2 724B     		ldr	r3, .L150+24
 1537 00b4 04A8     		add	r0, sp, #16
 437:src/network.c ****   SetBannerText(disp_buf);
 438:src/network.c ****   TimerSetMW(gTimerHdl[TIMER_GPRS], MODULE_TIMEOUT);
 1538              		.loc 1 438 0
 1539 00b6 724E     		ldr	r6, .L150+28
 436:src/network.c ****   SetBannerText(disp_buf);
 1540              		.loc 1 436 0
 1541 00b8 FFF7FEFF 		bl	sprintf
 1542              	.LVL227:
 437:src/network.c ****   SetBannerText(disp_buf);
 1543              		.loc 1 437 0
 1544 00bc 04A8     		add	r0, sp, #16
 1545 00be FFF7FEFF 		bl	SetBannerText
 1546              	.LVL228:
 1547              		.loc 1 438 0
 1548 00c2 0C20     		movs	r0, #12
 1549 00c4 7169     		ldr	r1, [r6, #20]
 1550 00c6 41F27072 		movw	r2, #6000
 1551 00ca FFF7FEFF 		bl	sys_func2
 1552              	.LVL229:
 1553              	.L132:
 439:src/network.c ****   while ((StatMW(gGprsHandle, MW_GSTS_ATCMDRDY, NULL)&MW_GSTS_ATCMDRDY) == 0) {
 1554              		.loc 1 439 0
 1555 00ce 0023     		movs	r3, #0
 1556 00d0 694F     		ldr	r7, .L150+20
 1557 00d2 0093     		str	r3, [sp]
 1558 00d4 0821     		movs	r1, #8
 1559 00d6 0F20     		movs	r0, #15
 1560 00d8 3A68     		ldr	r2, [r7]
 1561 00da 4FF08073 		mov	r3, #16777216
 1562 00de FFF7FEFF 		bl	lib_app_call
 1563              	.LVL230:
 1564 00e2 C101     		lsls	r1, r0, #7
 1565 00e4 10D4     		bmi	.L147
 440:src/network.c ****     if (TimerGetMW(gTimerHdl[TIMER_GPRS]) == 0) {
 1566              		.loc 1 440 0
 1567 00e6 0D20     		movs	r0, #13
 1568 00e8 7169     		ldr	r1, [r6, #20]
 1569 00ea FFF7FEFF 		bl	sys_func1
 1570              	.LVL231:
 1571 00ee 0446     		mov	r4, r0
 1572 00f0 28B9     		cbnz	r0, .L133
 441:src/network.c ****       sprintf(disp_buf, "S%d:%s", bSimNum+1, "Timeout1!");
 1573              		.loc 1 441 0
 1574 00f2 2A78     		ldrb	r2, [r5]	@ zero_extendqisi2
ARM GAS  C:\Users\AHMED~1.ELE\AppData\Local\Temp\ccb86Llj.s 			page 37


 1575 00f4 04A8     		add	r0, sp, #16
 1576 00f6 5C49     		ldr	r1, .L150+4
 1577 00f8 0132     		adds	r2, r2, #1
 1578 00fa 624B     		ldr	r3, .L150+32
 1579 00fc 5CE0     		b	.L145
 1580              	.L133:
 442:src/network.c ****       SetBannerText(disp_buf);
 443:src/network.c ****       //APM_WaitKey(100, 0);
 444:src/network.c ****       return FALSE;
 445:src/network.c ****     }
 446:src/network.c ****     SleepMW();
 1581              		.loc 1 446 0
 1582 00fe 4FF4CE70 		mov	r0, #412
 1583 0102 FFF7FEFF 		bl	sys_func0
 1584              	.LVL232:
 1585 0106 E2E7     		b	.L132
 1586              	.L147:
 447:src/network.c ****   }
 448:src/network.c ****   
 449:src/network.c ****   sprintf(disp_buf, "S%d:%s", bSimNum+1, "Check SIM..");
 1587              		.loc 1 449 0
 1588 0108 2A78     		ldrb	r2, [r5]	@ zero_extendqisi2
 1589 010a 5749     		ldr	r1, .L150+4
 1590 010c 0132     		adds	r2, r2, #1
 1591 010e 5E4B     		ldr	r3, .L150+36
 1592 0110 04A8     		add	r0, sp, #16
 1593 0112 FFF7FEFF 		bl	sprintf
 1594              	.LVL233:
 450:src/network.c ****   SetBannerText(disp_buf);
 1595              		.loc 1 450 0
 1596 0116 04A8     		add	r0, sp, #16
 1597 0118 FFF7FEFF 		bl	SetBannerText
 1598              	.LVL234:
 451:src/network.c ****   TimerSetMW(gTimerHdl[TIMER_GPRS], SIM_DETECT_TIMEOUT);
 1599              		.loc 1 451 0
 1600 011c 0C20     		movs	r0, #12
 1601 011e 7169     		ldr	r1, [r6, #20]
 1602 0120 40F2DC52 		movw	r2, #1500
 1603 0124 FFF7FEFF 		bl	sys_func2
 1604              	.LVL235:
 1605              	.L136:
 452:src/network.c ****   while ((StatMW(gGprsHandle, MW_GSTS_SIMINSERTED, NULL)&MW_GSTS_SIMINSERTED) == 0) {
 1606              		.loc 1 452 0
 1607 0128 0023     		movs	r3, #0
 1608 012a 0F20     		movs	r0, #15
 1609 012c 0093     		str	r3, [sp]
 1610 012e 3A68     		ldr	r2, [r7]
 1611 0130 0821     		movs	r1, #8
 1612 0132 4FF40073 		mov	r3, #512
 1613 0136 FFF7FEFF 		bl	lib_app_call
 1614              	.LVL236:
 1615 013a 8205     		lsls	r2, r0, #22
 1616 013c 10D4     		bmi	.L148
 453:src/network.c ****     if (TimerGetMW(gTimerHdl[TIMER_GPRS]) == 0) {
 1617              		.loc 1 453 0
 1618 013e 0D20     		movs	r0, #13
 1619 0140 7169     		ldr	r1, [r6, #20]
ARM GAS  C:\Users\AHMED~1.ELE\AppData\Local\Temp\ccb86Llj.s 			page 38


 1620 0142 FFF7FEFF 		bl	sys_func1
 1621              	.LVL237:
 1622 0146 0446     		mov	r4, r0
 1623 0148 28B9     		cbnz	r0, .L137
 454:src/network.c ****       sprintf(disp_buf, "S%d:%s", bSimNum+1, "NoSIM");
 1624              		.loc 1 454 0
 1625 014a 2A78     		ldrb	r2, [r5]	@ zero_extendqisi2
 1626 014c 04A8     		add	r0, sp, #16
 1627 014e 4649     		ldr	r1, .L150+4
 1628 0150 0132     		adds	r2, r2, #1
 1629 0152 4E4B     		ldr	r3, .L150+40
 1630 0154 30E0     		b	.L145
 1631              	.L137:
 455:src/network.c ****       SetBannerText(disp_buf);
 456:src/network.c ****       //APM_WaitKey(100, 0);
 457:src/network.c ****       return FALSE;
 458:src/network.c ****     }
 459:src/network.c ****     SleepMW();
 1632              		.loc 1 459 0
 1633 0156 4FF4CE70 		mov	r0, #412
 1634 015a FFF7FEFF 		bl	sys_func0
 1635              	.LVL238:
 1636 015e E3E7     		b	.L136
 1637              	.L148:
 460:src/network.c ****   }
 461:src/network.c ****   
 462:src/network.c ****   sprintf(disp_buf, "S%d:%s", bSimNum+1, "Wait Net Rdy..");
 1638              		.loc 1 462 0
 1639 0160 2A78     		ldrb	r2, [r5]	@ zero_extendqisi2
 1640 0162 4149     		ldr	r1, .L150+4
 1641 0164 0132     		adds	r2, r2, #1
 1642 0166 4A4B     		ldr	r3, .L150+44
 1643 0168 04A8     		add	r0, sp, #16
 1644 016a FFF7FEFF 		bl	sprintf
 1645              	.LVL239:
 463:src/network.c ****   SetBannerText(disp_buf);
 1646              		.loc 1 463 0
 1647 016e 04A8     		add	r0, sp, #16
 1648 0170 FFF7FEFF 		bl	SetBannerText
 1649              	.LVL240:
 464:src/network.c ****   TimerSetMW(gTimerHdl[TIMER_GPRS], MODULE_TIMEOUT);
 1650              		.loc 1 464 0
 1651 0174 7169     		ldr	r1, [r6, #20]
 1652 0176 41F27072 		movw	r2, #6000
 1653 017a 0C20     		movs	r0, #12
 1654 017c FFF7FEFF 		bl	sys_func2
 1655              	.LVL241:
 465:src/network.c ****   while ((StatMW(gGprsHandle, MW_GSTS_NETWORKAVAIL, NULL)&MW_GSTS_NETWORKAVAIL) == 0) {
 1656              		.loc 1 465 0
 1657 0180 03E0     		b	.L139
 1658              	.L140:
 466:src/network.c ****     if (TimerGetMW(gTimerHdl[TIMER_GPRS]) == 0) {
 467:src/network.c ****       sprintf(disp_buf, "S%d:%s", bSimNum+1, "Timeout2!");
 468:src/network.c ****       SetBannerText(disp_buf);
 469:src/network.c ****       //APM_WaitKey(100, 0);
 470:src/network.c ****       return FALSE;
 471:src/network.c ****     }
ARM GAS  C:\Users\AHMED~1.ELE\AppData\Local\Temp\ccb86Llj.s 			page 39


 472:src/network.c ****     SleepMW();
 1659              		.loc 1 472 0
 1660 0182 4FF4CE70 		mov	r0, #412
 1661 0186 FFF7FEFF 		bl	sys_func0
 1662              	.LVL242:
 1663              	.L139:
 465:src/network.c ****   while ((StatMW(gGprsHandle, MW_GSTS_NETWORKAVAIL, NULL)&MW_GSTS_NETWORKAVAIL) == 0) {
 1664              		.loc 1 465 0
 1665 018a 0024     		movs	r4, #0
 1666 018c 4FF48063 		mov	r3, #1024
 1667 0190 0094     		str	r4, [sp]
 1668 0192 0F20     		movs	r0, #15
 1669 0194 0821     		movs	r1, #8
 1670 0196 3A68     		ldr	r2, [r7]
 1671 0198 FFF7FEFF 		bl	lib_app_call
 1672              	.LVL243:
 1673 019c 4305     		lsls	r3, r0, #21
 1674 019e 12D4     		bmi	.L149
 466:src/network.c ****     if (TimerGetMW(gTimerHdl[TIMER_GPRS]) == 0) {
 1675              		.loc 1 466 0
 1676 01a0 0D20     		movs	r0, #13
 1677 01a2 7169     		ldr	r1, [r6, #20]
 1678 01a4 FFF7FEFF 		bl	sys_func1
 1679              	.LVL244:
 1680 01a8 0446     		mov	r4, r0
 1681 01aa 0028     		cmp	r0, #0
 1682 01ac E9D1     		bne	.L140
 467:src/network.c ****       SetBannerText(disp_buf);
 1683              		.loc 1 467 0
 1684 01ae 2A78     		ldrb	r2, [r5]	@ zero_extendqisi2
 1685 01b0 04A8     		add	r0, sp, #16
 1686 01b2 2D49     		ldr	r1, .L150+4
 1687 01b4 0132     		adds	r2, r2, #1
 1688 01b6 374B     		ldr	r3, .L150+48
 1689              	.L145:
 1690 01b8 FFF7FEFF 		bl	sprintf
 1691              	.LVL245:
 468:src/network.c ****       //APM_WaitKey(100, 0);
 1692              		.loc 1 468 0
 1693 01bc 04A8     		add	r0, sp, #16
 1694 01be FFF7FEFF 		bl	SetBannerText
 1695              	.LVL246:
 470:src/network.c ****     }
 1696              		.loc 1 470 0
 1697 01c2 2046     		mov	r0, r4
 1698 01c4 4BE0     		b	.L134
 1699              	.L149:
 473:src/network.c ****   }
 474:src/network.c ****   
 475:src/network.c ****   sprintf(disp_buf, "S%d:%s", bSimNum+1, "Get Operator Info..");
 1700              		.loc 1 475 0
 1701 01c6 2A78     		ldrb	r2, [r5]	@ zero_extendqisi2
 1702 01c8 334B     		ldr	r3, .L150+52
 1703 01ca 2749     		ldr	r1, .L150+4
 1704 01cc 0132     		adds	r2, r2, #1
 1705 01ce 04A8     		add	r0, sp, #16
 1706 01d0 FFF7FEFF 		bl	sprintf
ARM GAS  C:\Users\AHMED~1.ELE\AppData\Local\Temp\ccb86Llj.s 			page 40


 1707              	.LVL247:
 476:src/network.c ****   SetBannerText(disp_buf);
 1708              		.loc 1 476 0
 1709 01d4 04A8     		add	r0, sp, #16
 1710 01d6 FFF7FEFF 		bl	SetBannerText
 1711              	.LVL248:
 477:src/network.c ****   if (GetOptrName(buf, OPTR_NAME_SIZE) == TRUE) {
 1712              		.loc 1 477 0
 1713 01da 0CA8     		add	r0, sp, #48
 1714 01dc 1421     		movs	r1, #20
 1715 01de FFF7FEFF 		bl	GetOptrName
 1716              	.LVL249:
 1717 01e2 0128     		cmp	r0, #1
 1718 01e4 0346     		mov	r3, r0
 1719 01e6 15D1     		bne	.L142
 478:src/network.c ****     signal = IOCtlMW(gGprsHandle, IO_GPRS_SIGNAL, NULL);
 1720              		.loc 1 478 0
 1721 01e8 234A     		ldr	r2, .L150+20
 1722 01ea 0094     		str	r4, [sp]
 1723 01ec 0721     		movs	r1, #7
 1724 01ee 1268     		ldr	r2, [r2]
 1725 01f0 0F20     		movs	r0, #15
 1726 01f2 FFF7FEFF 		bl	lib_app_call
 1727              	.LVL250:
 479:src/network.c ****     sprintf(disp_buf, "%d:%s", bSimNum+1, buf);
 1728              		.loc 1 479 0
 1729 01f6 2A78     		ldrb	r2, [r5]	@ zero_extendqisi2
 1730 01f8 2849     		ldr	r1, .L150+56
 1731 01fa 0132     		adds	r2, r2, #1
 478:src/network.c ****     signal = IOCtlMW(gGprsHandle, IO_GPRS_SIGNAL, NULL);
 1732              		.loc 1 478 0
 1733 01fc 0446     		mov	r4, r0
 1734              	.LVL251:
 1735              		.loc 1 479 0
 1736 01fe 0CAB     		add	r3, sp, #48
 1737 0200 04A8     		add	r0, sp, #16
 1738              	.LVL252:
 1739 0202 FFF7FEFF 		bl	sprintf
 1740              	.LVL253:
 480:src/network.c ****     strcpy(aOperName, buf);
 1741              		.loc 1 480 0
 1742 0206 4846     		mov	r0, r9
 1743 0208 0CA9     		add	r1, sp, #48
 1744 020a FFF7FEFF 		bl	strcpy
 1745              	.LVL254:
 481:src/network.c ****     *aSignal = signal;
 1746              		.loc 1 481 0
 1747 020e C8F80040 		str	r4, [r8]
 1748 0212 06E0     		b	.L143
 1749              	.LVL255:
 1750              	.L142:
 482:src/network.c ****   }
 483:src/network.c ****   else {
 484:src/network.c ****     sprintf(disp_buf, "%d:%s", bSimNum+1, "N/A");
 1751              		.loc 1 484 0
 1752 0214 2A78     		ldrb	r2, [r5]	@ zero_extendqisi2
 1753 0216 04A8     		add	r0, sp, #16
ARM GAS  C:\Users\AHMED~1.ELE\AppData\Local\Temp\ccb86Llj.s 			page 41


 1754 0218 2049     		ldr	r1, .L150+56
 1755 021a 0132     		adds	r2, r2, #1
 1756 021c 204B     		ldr	r3, .L150+60
 1757 021e FFF7FEFF 		bl	sprintf
 1758              	.LVL256:
 1759              	.L143:
 485:src/network.c ****   }
 486:src/network.c ****   SetBannerText(disp_buf);
 1760              		.loc 1 486 0
 1761 0222 04A8     		add	r0, sp, #16
 1762 0224 FFF7FEFF 		bl	SetBannerText
 1763              	.LVL257:
 487:src/network.c ****   
 488:src/network.c ****   APM_GetTermCfg(&term_cfg);
 1764              		.loc 1 488 0
 1765 0228 0023     		movs	r3, #0
 1766 022a 1020     		movs	r0, #16
 1767 022c 0093     		str	r3, [sp]
 1768 022e 0F21     		movs	r1, #15
 1769 0230 1CAA     		add	r2, sp, #112
 1770 0232 FFF7FEFF 		bl	lib_app_call
 1771              	.LVL258:
 489:src/network.c ****   if (bSimNum == 0) {
 1772              		.loc 1 489 0
 1773 0236 2B78     		ldrb	r3, [r5]	@ zero_extendqisi2
 1774 0238 3BB9     		cbnz	r3, .L144
 490:src/network.c ****     //SetPPPConfig(gGprsCfg1[0], gGprsCfg1[1], gGprsCfg1[2]);
 491:src/network.c ****     SetPPPConfig(term_cfg.apnconfig, term_cfg.apn_username, term_cfg.apn_password);
 1775              		.loc 1 491 0
 1776 023a 1CAB     		add	r3, sp, #112
 1777 023c 0DF2AD10 		addw	r0, sp, #429
 1778 0240 03F1BD01 		add	r1, r3, #189
 1779 0244 03F1DD02 		add	r2, r3, #221
 1780 0248 06E0     		b	.L146
 1781              	.L144:
 492:src/network.c ****   }
 493:src/network.c ****   else {
 494:src/network.c ****     //SetPPPConfig(gGprsCfg2[0], gGprsCfg2[1], gGprsCfg2[2]);
 495:src/network.c ****     SetPPPConfig(term_cfg.apnconfig2, term_cfg.apn2_username, term_cfg.apn2_password);
 1782              		.loc 1 495 0
 1783 024a 1CAB     		add	r3, sp, #112
 1784 024c 0DF2CD10 		addw	r0, sp, #461
 1785 0250 03F1FD01 		add	r1, r3, #253
 1786 0254 0DF28D12 		addw	r2, sp, #397
 1787              	.L146:
 1788 0258 FFF7FEFF 		bl	SetPPPConfig
 1789              	.LVL259:
 496:src/network.c ****   }
 497:src/network.c ****     
 498:src/network.c ****   return TRUE;
 1790              		.loc 1 498 0
 1791 025c 0120     		movs	r0, #1
 1792              	.L134:
 499:src/network.c **** }
 1793              		.loc 1 499 0
 1794 025e 7EB0     		add	sp, sp, #504
 1795              		.cfi_def_cfa_offset 32
ARM GAS  C:\Users\AHMED~1.ELE\AppData\Local\Temp\ccb86Llj.s 			page 42


 1796              		@ sp needed
 1797 0260 BDE8F087 		pop	{r4, r5, r6, r7, r8, r9, r10, pc}
 1798              	.LVL260:
 1799              	.L151:
 1800              		.align	2
 1801              	.L150:
 1802 0264 00000000 		.word	.LANCHOR1
 1803 0268 06010000 		.word	.LC27
 1804 026c 4B000000 		.word	.LC14
 1805 0270 00000000 		.word	gPppHandle
 1806 0274 56000000 		.word	.LC15
 1807 0278 00000000 		.word	gGprsHandle
 1808 027c 6F000000 		.word	.LC17
 1809 0280 00000000 		.word	gTimerHdl
 1810 0284 0D010000 		.word	.LC28
 1811 0288 86000000 		.word	.LC19
 1812 028c 92000000 		.word	.LC20
 1813 0290 17010000 		.word	.LC29
 1814 0294 26010000 		.word	.LC30
 1815 0298 30010000 		.word	.LC31
 1816 029c 44010000 		.word	.LC32
 1817 02a0 4A010000 		.word	.LC33
 1818              		.cfi_endproc
 1819              	.LFE6:
 1820              		.size	SelSIM, .-SelSIM
 1821              		.global	__aeabi_uidiv
 1822              		.section	.text.GetBatteryPercent,"ax",%progbits
 1823              		.align	1
 1824              		.global	GetBatteryPercent
 1825              		.thumb
 1826              		.thumb_func
 1827              		.type	GetBatteryPercent, %function
 1828              	GetBatteryPercent:
 1829              	.LFB8:
 500:src/network.c **** //*****************************************************************************
 501:src/network.c **** //  Function        : DispDTG
 502:src/network.c **** //  Description     : Show data/time or training mode status on idle menu.
 503:src/network.c **** //  Input           : N/A
 504:src/network.c **** //  Return          : N/A
 505:src/network.c **** //  Note            : N/A
 506:src/network.c **** //  Globals Changed : N/A
 507:src/network.c **** //*****************************************************************************
 508:src/network.c **** static void DispDTG(void)
 509:src/network.c **** {
 510:src/network.c ****   struct DATETIME dtg;
 511:src/network.c ****   BYTE  tmp[MW_MAX_LINESIZE+1];
 512:src/network.c **** 
 513:src/network.c ****   TimerSetMW(gTimerHdl[TIMER_MAIN], 50);
 514:src/network.c **** 
 515:src/network.c ****   memset(tmp, 0, sizeof(tmp));
 516:src/network.c ****   ReadRTC(&dtg);
 517:src/network.c ****   ConvDateTime(tmp, &dtg, 1);
 518:src/network.c ****   memmove(&tmp[3], &tmp[4], 14);
 519:src/network.c ****   memmove(&tmp[6], &tmp[7], 10);
 520:src/network.c **** 
 521:src/network.c ****   tmp[16] = 0;
 522:src/network.c ****   os_disp_putc(K_PushCursor);
ARM GAS  C:\Users\AHMED~1.ELE\AppData\Local\Temp\ccb86Llj.s 			page 43


 523:src/network.c ****   os_disp_backc(RGB_WHITE);
 524:src/network.c ****   DispLineMW(tmp, MW_MAX_LINE, MW_CLREOL|MW_CENTER|MW_SPFONT);
 525:src/network.c ****   os_disp_putc(K_PopCursor);
 526:src/network.c **** }
 527:src/network.c **** //*****************************************************************************
 528:src/network.c **** //  Function        : GetBatteryPercent
 529:src/network.c **** //  Description     : Get battery level in percentage.
 530:src/network.c **** //  Input           : N/A
 531:src/network.c **** //  Return          : Battery level in percentage
 532:src/network.c **** //  Note            : N/A
 533:src/network.c **** //  Globals Changed : N/A
 534:src/network.c **** //****************************************************************************
 535:src/network.c **** BYTE GetBatteryPercent(void)
 536:src/network.c **** {
 1830              		.loc 1 536 0
 1831              		.cfi_startproc
 1832              		@ args = 0, pretend = 0, frame = 0
 1833              		@ frame_needed = 0, uses_anonymous_args = 0
 1834              	.LVL261:
 1835 0000 08B5     		push	{r3, lr}
 1836              		.cfi_def_cfa_offset 8
 1837              		.cfi_offset 3, -8
 1838              		.cfi_offset 14, -4
 537:src/network.c ****   // 3.30V - <3.50V =>  0 - 24%
 538:src/network.c ****   // 3.50V - <3.55V => 25 - 49%
 539:src/network.c ****   // 3.55V - <3.65V => 50 - 74%
 540:src/network.c ****   // 3.65V - <3.85V => 75 - 99%
 541:src/network.c ****   // >3.85V         => 100%
 542:src/network.c ****   DWORD volt;
 543:src/network.c ****   BYTE percent=0;
 544:src/network.c **** 
 545:src/network.c ****   volt = os_batt_level2() & 0xFFFF;
 1839              		.loc 1 545 0
 1840 0002 40F2D510 		movw	r0, #469
 1841 0006 FFF7FEFF 		bl	sys_func0
 1842              	.LVL262:
 1843 000a 80B2     		uxth	r0, r0
 1844              	.LVL263:
 546:src/network.c ****   if (volt < 335)
 1845              		.loc 1 546 0
 1846 000c B0F5A77F 		cmp	r0, #334
 1847 0010 20D9     		bls	.L155
 547:src/network.c ****     percent = 0;
 548:src/network.c ****   else if (volt < 345)
 1848              		.loc 1 548 0
 1849 0012 B0F5AC7F 		cmp	r0, #344
 1850 0016 1FD9     		bls	.L156
 549:src/network.c ****     percent = 10;
 550:src/network.c ****   else if ((volt >= 345) && (volt < 385))
 1851              		.loc 1 550 0
 1852 0018 6FF4AC72 		mvn	r2, #344
 1853 001c 8318     		adds	r3, r0, r2
 1854 001e 272B     		cmp	r3, #39
 1855 0020 09D8     		bhi	.L154
 551:src/network.c ****     percent = 25 + ((volt-345)*50)/(385-345);        // 25% - 75%
 1856              		.loc 1 551 0
 1857 0022 3223     		movs	r3, #50
ARM GAS  C:\Users\AHMED~1.ELE\AppData\Local\Temp\ccb86Llj.s 			page 44


 1858 0024 2821     		movs	r1, #40
 1859 0026 5843     		muls	r0, r3, r0
 1860              	.LVL264:
 1861 0028 A0F58640 		sub	r0, r0, #17152
 1862 002c 6238     		subs	r0, r0, #98
 1863 002e FFF7FEFF 		bl	__aeabi_uidiv
 1864              	.LVL265:
 1865 0032 1930     		adds	r0, r0, #25
 1866 0034 0CE0     		b	.L158
 1867              	.LVL266:
 1868              	.L154:
 552:src/network.c ****   else if ((volt >= 385) && (volt < 410))
 1869              		.loc 1 552 0
 1870 0036 6FF4C073 		mvn	r3, #384
 1871 003a C318     		adds	r3, r0, r3
 1872 003c 182B     		cmp	r3, #24
 1873 003e 0DD8     		bhi	.L157
 553:src/network.c ****     percent = 75 + ((volt-385)*25)/(410-385);        // 75% - 100%
 1874              		.loc 1 553 0
 1875 0040 1921     		movs	r1, #25
 1876 0042 4843     		muls	r0, r1, r0
 1877              	.LVL267:
 1878 0044 A0F51650 		sub	r0, r0, #9600
 1879 0048 1938     		subs	r0, r0, #25
 1880 004a FFF7FEFF 		bl	__aeabi_uidiv
 1881              	.LVL268:
 1882 004e 4B30     		adds	r0, r0, #75
 1883              	.L158:
 1884 0050 C0B2     		uxtb	r0, r0
 1885              	.LVL269:
 1886 0052 08BD     		pop	{r3, pc}
 1887              	.LVL270:
 1888              	.L155:
 547:src/network.c ****   else if (volt < 345)
 1889              		.loc 1 547 0
 1890 0054 0020     		movs	r0, #0
 1891              	.LVL271:
 1892 0056 08BD     		pop	{r3, pc}
 1893              	.LVL272:
 1894              	.L156:
 549:src/network.c ****   else if ((volt >= 345) && (volt < 385))
 1895              		.loc 1 549 0
 1896 0058 0A20     		movs	r0, #10
 1897              	.LVL273:
 1898 005a 08BD     		pop	{r3, pc}
 1899              	.LVL274:
 1900              	.L157:
 554:src/network.c ****   else if (volt >= 410)
 555:src/network.c ****     percent = 100;
 1901              		.loc 1 555 0
 1902 005c 6420     		movs	r0, #100
 1903              	.LVL275:
 556:src/network.c ****   
 557:src/network.c ****   return percent;
 558:src/network.c **** }
 1904              		.loc 1 558 0
 1905 005e 08BD     		pop	{r3, pc}
ARM GAS  C:\Users\AHMED~1.ELE\AppData\Local\Temp\ccb86Llj.s 			page 45


 1906              		.cfi_endproc
 1907              	.LFE8:
 1908              		.size	GetBatteryPercent, .-GetBatteryPercent
 1909              		.section	.text.ShowSimStatus,"ax",%progbits
 1910              		.align	1
 1911              		.global	ShowSimStatus
 1912              		.thumb
 1913              		.thumb_func
 1914              		.type	ShowSimStatus, %function
 1915              	ShowSimStatus:
 1916              	.LFB9:
 559:src/network.c **** //*****************************************************************************
 560:src/network.c **** //  Function        : ShowSimStatus
 561:src/network.c **** //  Description     : Show network status on terminal
 562:src/network.c **** //  Input           : N/A
 563:src/network.c **** //  Return          : N/A
 564:src/network.c **** //  Note            : N/A
 565:src/network.c **** //  Globals Changed : N/A
 566:src/network.c **** //*****************************************************************************
 567:src/network.c **** void ShowSimStatus(void)
 568:src/network.c **** {
 1917              		.loc 1 568 0
 1918              		.cfi_startproc
 1919              		@ args = 0, pretend = 0, frame = 80
 1920              		@ frame_needed = 0, uses_anonymous_args = 0
 1921 0000 70B5     		push	{r4, r5, r6, lr}
 1922              		.cfi_def_cfa_offset 16
 1923              		.cfi_offset 4, -16
 1924              		.cfi_offset 5, -12
 1925              		.cfi_offset 6, -8
 1926              		.cfi_offset 14, -4
 1927 0002 96B0     		sub	sp, sp, #88
 1928              		.cfi_def_cfa_offset 104
 569:src/network.c ****   BYTE buf[32], batt[8];
 570:src/network.c ****   
 571:src/network.c ****   memset(buf, 0, sizeof(buf));
 1929              		.loc 1 571 0
 1930 0004 0021     		movs	r1, #0
 1931 0006 2022     		movs	r2, #32
 1932 0008 0EA8     		add	r0, sp, #56
 1933 000a FFF7FEFF 		bl	memset
 1934              	.LVL276:
 572:src/network.c ****   // put SIM1 / SIM2 operator names (max 7 chars each)
 573:src/network.c ****   if (strlen(gOptrMain) > 7)
 1935              		.loc 1 573 0
 1936 000e 4C48     		ldr	r0, .L168
 1937 0010 FFF7FEFF 		bl	strlen
 1938              	.LVL277:
 574:src/network.c ****     memcpy(buf, gOptrMain, 7);
 1939              		.loc 1 574 0
 1940 0014 4A49     		ldr	r1, .L168
 573:src/network.c ****     memcpy(buf, gOptrMain, 7);
 1941              		.loc 1 573 0
 1942 0016 0728     		cmp	r0, #7
 1943              		.loc 1 574 0
 1944 0018 0EA8     		add	r0, sp, #56
 573:src/network.c ****     memcpy(buf, gOptrMain, 7);
ARM GAS  C:\Users\AHMED~1.ELE\AppData\Local\Temp\ccb86Llj.s 			page 46


 1945              		.loc 1 573 0
 1946 001a 03D9     		bls	.L160
 1947              		.loc 1 574 0
 1948 001c 0722     		movs	r2, #7
 1949 001e FFF7FEFF 		bl	memcpy
 1950              	.LVL278:
 1951 0022 01E0     		b	.L161
 1952              	.L160:
 575:src/network.c ****   else
 576:src/network.c ****     strcpy(buf, gOptrMain);
 1953              		.loc 1 576 0
 1954 0024 FFF7FEFF 		bl	strcpy
 1955              	.LVL279:
 1956              	.L161:
 577:src/network.c ****   strcat(buf, ",");
 1957              		.loc 1 577 0
 1958 0028 4649     		ldr	r1, .L168+4
 1959 002a 0EA8     		add	r0, sp, #56
 1960 002c FFF7FEFF 		bl	strcat
 1961              	.LVL280:
 578:src/network.c ****   if (strlen(gOptrBkup) > 7)
 1962              		.loc 1 578 0
 1963 0030 4548     		ldr	r0, .L168+8
 1964 0032 FFF7FEFF 		bl	strlen
 1965              	.LVL281:
 1966 0036 0728     		cmp	r0, #7
 579:src/network.c ****     memcpy(&buf[strlen(buf)], gOptrBkup, 7);
 1967              		.loc 1 579 0
 1968 0038 0EA8     		add	r0, sp, #56
 578:src/network.c ****   if (strlen(gOptrBkup) > 7)
 1969              		.loc 1 578 0
 1970 003a 08D9     		bls	.L162
 1971              		.loc 1 579 0
 1972 003c FFF7FEFF 		bl	strlen
 1973              	.LVL282:
 1974 0040 0EAB     		add	r3, sp, #56
 1975 0042 4149     		ldr	r1, .L168+8
 1976 0044 0722     		movs	r2, #7
 1977 0046 1844     		add	r0, r0, r3
 1978 0048 FFF7FEFF 		bl	memcpy
 1979              	.LVL283:
 1980 004c 06E0     		b	.L163
 1981              	.L162:
 580:src/network.c ****   else
 581:src/network.c ****     strcpy(&buf[strlen(buf)], gOptrBkup);
 1982              		.loc 1 581 0
 1983 004e FFF7FEFF 		bl	strlen
 1984              	.LVL284:
 1985 0052 0EAB     		add	r3, sp, #56
 1986 0054 3C49     		ldr	r1, .L168+8
 1987 0056 1844     		add	r0, r0, r3
 1988 0058 FFF7FEFF 		bl	strcpy
 1989              	.LVL285:
 1990              	.L163:
 582:src/network.c ****   memset(&buf[strlen(buf)], ' ', MAX_CHAR_ON_BANNER-strlen(buf));
 1991              		.loc 1 582 0
 1992 005c 0EA8     		add	r0, sp, #56
ARM GAS  C:\Users\AHMED~1.ELE\AppData\Local\Temp\ccb86Llj.s 			page 47


 1993 005e FFF7FEFF 		bl	strlen
 1994              	.LVL286:
 1995 0062 0EAB     		add	r3, sp, #56
 1996 0064 2021     		movs	r1, #32
 1997              	.LBB31:
 1998              	.LBB32:
 521:src/network.c ****   os_disp_putc(K_PushCursor);
 1999              		.loc 1 521 0
 2000 0066 0026     		movs	r6, #0
 2001              	.LBE32:
 2002              	.LBE31:
 2003              		.loc 1 582 0
 2004 0068 0246     		mov	r2, r0
 2005 006a C2F11302 		rsb	r2, r2, #19
 2006 006e 1818     		adds	r0, r3, r0
 2007 0070 FFF7FEFF 		bl	memset
 2008              	.LVL287:
 583:src/network.c ****   // put battery percentage
 584:src/network.c ****   SprintfMW(batt, "%d%%", GetBatteryPercent());
 2009              		.loc 1 584 0
 2010 0074 FFF7FEFF 		bl	GetBatteryPercent
 2011              	.LVL288:
 2012 0078 3449     		ldr	r1, .L168+12
 2013 007a 0246     		mov	r2, r0
 2014 007c 03A8     		add	r0, sp, #12
 2015 007e FFF7FEFF 		bl	sprintf
 2016              	.LVL289:
 585:src/network.c ****   strcpy(&buf[MAX_CHAR_ON_BANNER-strlen(batt)], batt);
 2017              		.loc 1 585 0
 2018 0082 03A8     		add	r0, sp, #12
 2019 0084 FFF7FEFF 		bl	strlen
 2020              	.LVL290:
 2021 0088 0EAB     		add	r3, sp, #56
 2022 008a 03A9     		add	r1, sp, #12
 2023 008c C0F11300 		rsb	r0, r0, #19
 2024 0090 1844     		add	r0, r0, r3
 2025 0092 FFF7FEFF 		bl	strcpy
 2026              	.LVL291:
 586:src/network.c ****   SetBannerText(buf);
 2027              		.loc 1 586 0
 2028 0096 0EA8     		add	r0, sp, #56
 2029 0098 FFF7FEFF 		bl	SetBannerText
 2030              	.LVL292:
 2031              	.LBB35:
 2032              	.LBB34:
 513:src/network.c **** 
 2033              		.loc 1 513 0
 2034 009c 2C4B     		ldr	r3, .L168+16
 2035 009e 3222     		movs	r2, #50
 2036 00a0 5968     		ldr	r1, [r3, #4]
 2037 00a2 0C20     		movs	r0, #12
 2038 00a4 FFF7FEFF 		bl	sys_func2
 2039              	.LVL293:
 515:src/network.c ****   ReadRTC(&dtg);
 2040              		.loc 1 515 0
 2041 00a8 0021     		movs	r1, #0
 2042 00aa 1B22     		movs	r2, #27
ARM GAS  C:\Users\AHMED~1.ELE\AppData\Local\Temp\ccb86Llj.s 			page 48


 2043 00ac 07A8     		add	r0, sp, #28
 2044 00ae FFF7FEFF 		bl	memset
 2045              	.LVL294:
 516:src/network.c ****   ConvDateTime(tmp, &dtg, 1);
 2046              		.loc 1 516 0
 2047 00b2 05A8     		add	r0, sp, #20
 2048 00b4 FFF7FEFF 		bl	ReadRTC
 2049              	.LVL295:
 517:src/network.c ****   memmove(&tmp[3], &tmp[4], 14);
 2050              		.loc 1 517 0
 2051 00b8 07A8     		add	r0, sp, #28
 2052 00ba 05A9     		add	r1, sp, #20
 2053 00bc 0122     		movs	r2, #1
 2054 00be FFF7FEFF 		bl	ConvDateTime
 2055              	.LVL296:
 518:src/network.c ****   memmove(&tmp[6], &tmp[7], 10);
 2056              		.loc 1 518 0
 2057 00c2 07AB     		add	r3, sp, #28
 2058 00c4 191D     		adds	r1, r3, #4
 2059 00c6 0E22     		movs	r2, #14
 2060 00c8 0DF11F00 		add	r0, sp, #31
 2061 00cc FFF7FEFF 		bl	memmove
 2062              	.LVL297:
 519:src/network.c **** 
 2063              		.loc 1 519 0
 2064 00d0 07AB     		add	r3, sp, #28
 2065 00d2 D91D     		adds	r1, r3, #7
 2066 00d4 0A22     		movs	r2, #10
 2067 00d6 0DF12200 		add	r0, sp, #34
 2068 00da FFF7FEFF 		bl	memmove
 2069              	.LVL298:
 522:src/network.c ****   os_disp_backc(RGB_WHITE);
 2070              		.loc 1 522 0
 2071 00de 0E21     		movs	r1, #14
 2072 00e0 1620     		movs	r0, #22
 521:src/network.c ****   os_disp_putc(K_PushCursor);
 2073              		.loc 1 521 0
 2074 00e2 8DF82C60 		strb	r6, [sp, #44]
 522:src/network.c ****   os_disp_backc(RGB_WHITE);
 2075              		.loc 1 522 0
 2076 00e6 FFF7FEFF 		bl	sys_func1
 2077              	.LVL299:
 523:src/network.c ****   DispLineMW(tmp, MW_MAX_LINE, MW_CLREOL|MW_CENTER|MW_SPFONT);
 2078              		.loc 1 523 0
 2079 00ea 4FF6FF71 		movw	r1, #65535
 2080 00ee 2020     		movs	r0, #32
 2081 00f0 FFF7FEFF 		bl	sys_func1
 2082              	.LVL300:
 2083              	.LBB33:
 524:src/network.c ****   os_disp_putc(K_PopCursor);
 2084              		.loc 1 524 0
 2085 00f4 07A8     		add	r0, sp, #28
 2086 00f6 FFF7FEFF 		bl	strlen
 2087              	.LVL301:
 2088 00fa 0546     		mov	r5, r0
 2089              	.LVL302:
 2090 00fc 691C     		adds	r1, r5, #1
ARM GAS  C:\Users\AHMED~1.ELE\AppData\Local\Temp\ccb86Llj.s 			page 49


 2091 00fe 9220     		movs	r0, #146
 2092              	.LVL303:
 2093 0100 FFF7FEFF 		bl	sys_func1
 2094              	.LVL304:
 2095 0104 0446     		mov	r4, r0
 2096 0106 90B1     		cbz	r0, .L164
 2097 0108 07A9     		add	r1, sp, #28
 2098 010a 2A46     		mov	r2, r5
 2099 010c FFF7FEFF 		bl	memcpy
 2100              	.LVL305:
 2101 0110 42F22203 		movw	r3, #8226
 2102 0114 6655     		strb	r6, [r4, r5]
 2103 0116 2521     		movs	r1, #37
 2104 0118 0093     		str	r3, [sp]
 2105 011a 0F20     		movs	r0, #15
 2106 011c 2246     		mov	r2, r4
 2107 011e 4FF41063 		mov	r3, #2304
 2108 0122 FFF7FEFF 		bl	lib_app_call
 2109              	.LVL306:
 2110 0126 9420     		movs	r0, #148
 2111 0128 2146     		mov	r1, r4
 2112 012a FFF7FEFF 		bl	sys_func1
 2113              	.LVL307:
 2114              	.L164:
 2115              	.LBE33:
 525:src/network.c **** }
 2116              		.loc 1 525 0
 2117 012e 0F21     		movs	r1, #15
 2118 0130 1620     		movs	r0, #22
 2119 0132 FFF7FEFF 		bl	sys_func1
 2120              	.LVL308:
 2121              	.LBE34:
 2122              	.LBE35:
 587:src/network.c ****   DispDTG();
 588:src/network.c ****   os_thread_return();
 2123              		.loc 1 588 0
 2124 0136 8020     		movs	r0, #128
 2125 0138 FFF7FEFF 		bl	sys_func0
 2126              	.LVL309:
 589:src/network.c **** }
 2127              		.loc 1 589 0
 2128 013c 16B0     		add	sp, sp, #88
 2129              		.cfi_def_cfa_offset 16
 2130              		@ sp needed
 2131 013e 70BD     		pop	{r4, r5, r6, pc}
 2132              	.LVL310:
 2133              	.L169:
 2134              		.align	2
 2135              	.L168:
 2136 0140 00000000 		.word	gOptrMain
 2137 0144 4E010000 		.word	.LC34
 2138 0148 00000000 		.word	gOptrBkup
 2139 014c 50010000 		.word	.LC35
 2140 0150 00000000 		.word	gTimerHdl
 2141              		.cfi_endproc
 2142              	.LFE9:
 2143              		.size	ShowSimStatus, .-ShowSimStatus
ARM GAS  C:\Users\AHMED~1.ELE\AppData\Local\Temp\ccb86Llj.s 			page 50


 2144              		.section	.text.SimStatusThrd,"ax",%progbits
 2145              		.align	1
 2146              		.global	SimStatusThrd
 2147              		.thumb
 2148              		.thumb_func
 2149              		.type	SimStatusThrd, %function
 2150              	SimStatusThrd:
 2151              	.LFB10:
 590:src/network.c **** //*****************************************************************************
 591:src/network.c **** //  Function        : SimStatusThrd
 592:src/network.c **** //  Description     : Start/Stop SIM status thread on terminal
 593:src/network.c **** //  Input           : aStart  (0: stop; 1: start)
 594:src/network.c **** //  Return          : N/A
 595:src/network.c **** //  Note            : N/A
 596:src/network.c **** //  Globals Changed : N/A
 597:src/network.c **** //*****************************************************************************
 598:src/network.c **** void SimStatusThrd(BOOLEAN aStart)
 599:src/network.c **** {
 2152              		.loc 1 599 0
 2153              		.cfi_startproc
 2154              		@ args = 0, pretend = 0, frame = 0
 2155              		@ frame_needed = 0, uses_anonymous_args = 0
 2156              		@ link register save eliminated.
 2157              	.LVL311:
 600:src/network.c ****   if (aStart)
 2158              		.loc 1 600 0
 2159 0000 20B1     		cbz	r0, .L171
 2160              	.LVL312:
 2161              	.LBB38:
 2162              	.LBB39:
 601:src/network.c ****     ThreadCreateMW(ShowSimStatus, 200);     // run thread function once per 1 second
 2163              		.loc 1 601 0
 2164 0002 7A20     		movs	r0, #122
 2165              	.LVL313:
 2166 0004 0349     		ldr	r1, .L172
 2167 0006 C822     		movs	r2, #200
 2168 0008 FFF7FEBF 		b	sys_func2
 2169              	.LVL314:
 2170              	.L171:
 2171              	.LBE39:
 2172              	.LBE38:
 602:src/network.c ****   else
 603:src/network.c ****     ThreadDeleteMW(ShowSimStatus);
 2173              		.loc 1 603 0
 2174 000c 7B20     		movs	r0, #123
 2175              	.LVL315:
 2176 000e 0149     		ldr	r1, .L172
 2177 0010 FFF7FEBF 		b	sys_func1
 2178              	.LVL316:
 2179              	.L173:
 2180              		.align	2
 2181              	.L172:
 2182 0014 00000000 		.word	ShowSimStatus
 2183              		.cfi_endproc
 2184              	.LFE10:
 2185              		.size	SimStatusThrd, .-SimStatusThrd
 2186              		.section	.text.NetworkInit,"ax",%progbits
ARM GAS  C:\Users\AHMED~1.ELE\AppData\Local\Temp\ccb86Llj.s 			page 51


 2187              		.align	1
 2188              		.global	NetworkInit
 2189              		.thumb
 2190              		.thumb_func
 2191              		.type	NetworkInit, %function
 2192              	NetworkInit:
 2193              	.LFB11:
 604:src/network.c **** }
 605:src/network.c **** //*****************************************************************************
 606:src/network.c **** //  Function        : NetworkInit
 607:src/network.c **** //  Description     : Select SIM which have the greatest signal strength on terminal
 608:src/network.c **** //  Input           : aSIM    (0: SIM1; 1: SIM2)
 609:src/network.c **** //  Return          : N/A
 610:src/network.c **** //  Note            : N/A
 611:src/network.c **** //  Globals Changed : N/A
 612:src/network.c **** //*****************************************************************************
 613:src/network.c **** void NetworkInit(void)
 614:src/network.c **** {
 2194              		.loc 1 614 0
 2195              		.cfi_startproc
 2196              		@ args = 0, pretend = 0, frame = 216
 2197              		@ frame_needed = 0, uses_anonymous_args = 0
 2198              	.LVL317:
 2199 0000 30B5     		push	{r4, r5, lr}
 2200              		.cfi_def_cfa_offset 12
 2201              		.cfi_offset 4, -12
 2202              		.cfi_offset 5, -8
 2203              		.cfi_offset 14, -4
 615:src/network.c ****   struct ACQUIRER_TBL acq_tbl;
 616:src/network.c ****   BYTE buf[32], bSimNum, count=2;
 617:src/network.c ****   DWORD signal1, signal2;
 618:src/network.c ****   
 619:src/network.c ****   APM_GetAcqTbl(INPUT.w_host_idx, &acq_tbl);
 2204              		.loc 1 619 0
 2205 0002 904B     		ldr	r3, .L214
 614:src/network.c ****   struct ACQUIRER_TBL acq_tbl;
 2206              		.loc 1 614 0
 2207 0004 B9B0     		sub	sp, sp, #228
 2208              		.cfi_def_cfa_offset 240
 2209              		.loc 1 619 0
 2210 0006 0024     		movs	r4, #0
 2211 0008 B3F87620 		ldrh	r2, [r3, #118]
 2212 000c 1020     		movs	r0, #16
 2213 000e 0DAB     		add	r3, sp, #52
 2214 0010 0094     		str	r4, [sp]
 2215 0012 1521     		movs	r1, #21
 2216 0014 FFF7FEFF 		bl	lib_app_call
 2217              	.LVL318:
 620:src/network.c ****   if ((acq_tbl.b_ssl_key_idx & 0x80) == 0)
 2218              		.loc 1 620 0
 2219 0018 9DF9D530 		ldrsb	r3, [sp, #213]
 2220 001c A342     		cmp	r3, r4
 2221 001e 80F20E81 		bge	.L174
 621:src/network.c ****     return;                                   // return if GPRS is not used for transaction
 622:src/network.c **** 
 623:src/network.c ****   Disp2x16Msg(GetConstMsg(EDC_NET_INIT), MW_LINE3, MW_CLRDISP|MW_BIGFONT);
 2222              		.loc 1 623 0
ARM GAS  C:\Users\AHMED~1.ELE\AppData\Local\Temp\ccb86Llj.s 			page 52


 2223 0022 9020     		movs	r0, #144
 2224 0024 FFF7FEFF 		bl	GetConstMsg
 2225              	.LVL319:
 2226 0028 4FF44071 		mov	r1, #768
 2227 002c 4FF48452 		mov	r2, #4224
 2228 0030 FFF7FEFF 		bl	Disp2x16Msg
 2229              	.LVL320:
 624:src/network.c ****   memset(gOptrName1, 0, sizeof(gOptrName1));
 2230              		.loc 1 624 0
 2231 0034 2146     		mov	r1, r4
 2232 0036 2022     		movs	r2, #32
 2233 0038 8348     		ldr	r0, .L214+4
 2234 003a FFF7FEFF 		bl	memset
 2235              	.LVL321:
 625:src/network.c ****   memset(gOptrName2, 0, sizeof(gOptrName2));
 2236              		.loc 1 625 0
 2237 003e 2146     		mov	r1, r4
 2238 0040 2022     		movs	r2, #32
 2239 0042 8248     		ldr	r0, .L214+8
 2240 0044 FFF7FEFF 		bl	memset
 2241              	.LVL322:
 626:src/network.c ****   memset(gOptrMain, 0, sizeof(gOptrMain));
 2242              		.loc 1 626 0
 2243 0048 2146     		mov	r1, r4
 2244 004a 2022     		movs	r2, #32
 2245 004c 8048     		ldr	r0, .L214+12
 2246 004e FFF7FEFF 		bl	memset
 2247              	.LVL323:
 627:src/network.c ****   memset(gOptrBkup, 0, sizeof(gOptrBkup));
 2248              		.loc 1 627 0
 2249 0052 2146     		mov	r1, r4
 2250 0054 2022     		movs	r2, #32
 2251 0056 7F48     		ldr	r0, .L214+16
 2252 0058 FFF7FEFF 		bl	memset
 2253              	.LVL324:
 628:src/network.c ****   signal1 = signal2 = 0;
 629:src/network.c ****   
 630:src/network.c ****   // check current sim slot
 631:src/network.c **** #if (T700|A5T1000|T300|T810)
 632:src/network.c ****   GetSysCfgMW(MW_SYSCFG_SIMSEL, &bSimNum);
 2254              		.loc 1 632 0
 2255 005c 2121     		movs	r1, #33
 2256 005e 0DF10B02 		add	r2, sp, #11
 2257 0062 B920     		movs	r0, #185
 628:src/network.c ****   signal1 = signal2 = 0;
 2258              		.loc 1 628 0
 2259 0064 0494     		str	r4, [sp, #16]
 2260 0066 0394     		str	r4, [sp, #12]
 2261              		.loc 1 632 0
 2262 0068 FFF7FEFF 		bl	sys_func2
 2263              	.LVL325:
 633:src/network.c **** #elif (T1000)
 634:src/network.c ****   os_config_read(K_CF_SimSelect, &bSimNum);
 635:src/network.c **** #endif
 636:src/network.c ****   if ((os_hd_config() & K_HdSim) == K_Hd2SimInstalled) {
 2264              		.loc 1 636 0
 2265 006c 4FF4D070 		mov	r0, #416
ARM GAS  C:\Users\AHMED~1.ELE\AppData\Local\Temp\ccb86Llj.s 			page 53


 2266 0070 FFF7FEFF 		bl	sys_func0
 2267              	.LVL326:
 2268 0074 00F4C030 		and	r0, r0, #98304
 2269 0078 B0F5803F 		cmp	r0, #65536
 2270 007c 2FD1     		bne	.L211
 2271 007e 0224     		movs	r4, #2
 2272              	.LVL327:
 2273              	.L176:
 637:src/network.c ****     // dual sim unit
 638:src/network.c ****     while (count) {
 639:src/network.c ****       if (bSimNum == 0) {
 2274              		.loc 1 639 0
 2275 0080 9DF80B30 		ldrb	r3, [sp, #11]	@ zero_extendqisi2
 2276 0084 8BB9     		cbnz	r3, .L178
 640:src/network.c ****         if (SelSIM(1, gOptrName2, &signal2) == TRUE) {
 2277              		.loc 1 640 0
 2278 0086 0120     		movs	r0, #1
 2279 0088 7049     		ldr	r1, .L214+8
 2280 008a 04AA     		add	r2, sp, #16
 2281 008c FFF7FEFF 		bl	SelSIM
 2282              	.LVL328:
 2283 0090 0128     		cmp	r0, #1
 2284 0092 08D1     		bne	.L179
 641:src/network.c ****           sprintf(buf, "2:%s", gOptrName2);
 2285              		.loc 1 641 0
 2286 0094 7049     		ldr	r1, .L214+20
 2287 0096 05A8     		add	r0, sp, #20
 2288 0098 6C4A     		ldr	r2, .L214+8
 2289 009a FFF7FEFF 		bl	sprintf
 2290              	.LVL329:
 642:src/network.c ****           strcpy(gOptrMain, buf);
 2291              		.loc 1 642 0
 2292 009e 6C48     		ldr	r0, .L214+12
 2293 00a0 05A9     		add	r1, sp, #20
 2294 00a2 FFF7FEFF 		bl	strcpy
 2295              	.LVL330:
 2296              	.L179:
 643:src/network.c ****         }
 644:src/network.c ****         bSimNum = 1;
 2297              		.loc 1 644 0
 2298 00a6 0123     		movs	r3, #1
 2299 00a8 12E0     		b	.L212
 2300              	.L178:
 645:src/network.c ****         count--;
 646:src/network.c ****       }
 647:src/network.c ****       else if (bSimNum == 1) {
 2301              		.loc 1 647 0
 2302 00aa 012B     		cmp	r3, #1
 2303 00ac E8D1     		bne	.L176
 648:src/network.c ****         if (SelSIM(0, gOptrName1, &signal1) == TRUE) {
 2304              		.loc 1 648 0
 2305 00ae 0020     		movs	r0, #0
 2306 00b0 6549     		ldr	r1, .L214+4
 2307 00b2 03AA     		add	r2, sp, #12
 2308 00b4 FFF7FEFF 		bl	SelSIM
 2309              	.LVL331:
 2310 00b8 0128     		cmp	r0, #1
ARM GAS  C:\Users\AHMED~1.ELE\AppData\Local\Temp\ccb86Llj.s 			page 54


 2311 00ba 08D1     		bne	.L182
 649:src/network.c ****           sprintf(buf, "1:%s", gOptrName1);
 2312              		.loc 1 649 0
 2313 00bc 6749     		ldr	r1, .L214+24
 2314 00be 05A8     		add	r0, sp, #20
 2315 00c0 614A     		ldr	r2, .L214+4
 2316 00c2 FFF7FEFF 		bl	sprintf
 2317              	.LVL332:
 650:src/network.c ****           strcpy(gOptrMain, buf);
 2318              		.loc 1 650 0
 2319 00c6 6248     		ldr	r0, .L214+12
 2320 00c8 05A9     		add	r1, sp, #20
 2321 00ca FFF7FEFF 		bl	strcpy
 2322              	.LVL333:
 2323              	.L182:
 651:src/network.c ****         }
 652:src/network.c ****         bSimNum = 0;
 2324              		.loc 1 652 0
 2325 00ce 0023     		movs	r3, #0
 2326              	.L212:
 653:src/network.c ****         count--;
 2327              		.loc 1 653 0
 2328 00d0 013C     		subs	r4, r4, #1
 2329              	.LVL334:
 652:src/network.c ****         count--;
 2330              		.loc 1 652 0
 2331 00d2 8DF80B30 		strb	r3, [sp, #11]
 2332              		.loc 1 653 0
 2333 00d6 E4B2     		uxtb	r4, r4
 2334              	.LVL335:
 638:src/network.c ****       if (bSimNum == 0) {
 2335              		.loc 1 638 0
 2336 00d8 002C     		cmp	r4, #0
 2337 00da D1D1     		bne	.L176
 2338 00dc 12E0     		b	.L184
 2339              	.LVL336:
 2340              	.L211:
 654:src/network.c ****       }
 655:src/network.c ****     }
 656:src/network.c ****   }
 657:src/network.c ****   else {
 658:src/network.c ****     // single sim unit
 659:src/network.c ****     if (SelSIM(0, gOptrName1, &signal1) == TRUE) {
 2341              		.loc 1 659 0
 2342 00de 2046     		mov	r0, r4
 2343 00e0 5949     		ldr	r1, .L214+4
 2344 00e2 03AA     		add	r2, sp, #12
 2345 00e4 FFF7FEFF 		bl	SelSIM
 2346              	.LVL337:
 2347 00e8 0128     		cmp	r0, #1
 2348 00ea 08D1     		bne	.L185
 660:src/network.c ****       sprintf(buf, "1:%s", gOptrName1);
 2349              		.loc 1 660 0
 2350 00ec 5B49     		ldr	r1, .L214+24
 2351 00ee 05A8     		add	r0, sp, #20
 2352 00f0 554A     		ldr	r2, .L214+4
 2353 00f2 FFF7FEFF 		bl	sprintf
ARM GAS  C:\Users\AHMED~1.ELE\AppData\Local\Temp\ccb86Llj.s 			page 55


 2354              	.LVL338:
 661:src/network.c ****       strcpy(gOptrMain, buf);
 2355              		.loc 1 661 0
 2356 00f6 5648     		ldr	r0, .L214+12
 2357 00f8 05A9     		add	r1, sp, #20
 2358 00fa FFF7FEFF 		bl	strcpy
 2359              	.LVL339:
 2360              	.L185:
 662:src/network.c ****     }
 663:src/network.c ****     bSimNum = 0;
 2361              		.loc 1 663 0
 2362 00fe 0023     		movs	r3, #0
 2363 0100 8DF80B30 		strb	r3, [sp, #11]
 2364              	.LVL340:
 2365              	.L184:
 664:src/network.c ****   }
 665:src/network.c ****   
 666:src/network.c ****   if ((signal1 >= signal2) && signal1) {
 2366              		.loc 1 666 0
 2367 0104 039A     		ldr	r2, [sp, #12]
 2368 0106 049B     		ldr	r3, [sp, #16]
 2369 0108 9A42     		cmp	r2, r3
 2370 010a 40D3     		bcc	.L186
 2371              		.loc 1 666 0 is_stmt 0 discriminator 1
 2372 010c 002A     		cmp	r2, #0
 2373 010e 00F08180 		beq	.L187
 667:src/network.c ****     sprintf(buf, "1:%s", gOptrName1);
 2374              		.loc 1 667 0 is_stmt 1
 2375 0112 5249     		ldr	r1, .L214+24
 2376 0114 4C4A     		ldr	r2, .L214+4
 2377 0116 05A8     		add	r0, sp, #20
 2378 0118 FFF7FEFF 		bl	sprintf
 2379              	.LVL341:
 668:src/network.c ****     strcpy(gOptrMain, buf);
 2380              		.loc 1 668 0
 2381 011c 4C48     		ldr	r0, .L214+12
 2382 011e 05A9     		add	r1, sp, #20
 2383 0120 FFF7FEFF 		bl	strcpy
 2384              	.LVL342:
 669:src/network.c ****     if (signal2 > 0)
 2385              		.loc 1 669 0
 2386 0124 049B     		ldr	r3, [sp, #16]
 670:src/network.c ****       sprintf(buf, "2:%s", gOptrName2);
 2387              		.loc 1 670 0
 2388 0126 05A8     		add	r0, sp, #20
 669:src/network.c ****     if (signal2 > 0)
 2389              		.loc 1 669 0
 2390 0128 23B1     		cbz	r3, .L188
 2391              		.loc 1 670 0
 2392 012a 4B49     		ldr	r1, .L214+20
 2393 012c 474A     		ldr	r2, .L214+8
 2394 012e FFF7FEFF 		bl	sprintf
 2395              	.LVL343:
 2396 0132 02E0     		b	.L189
 2397              	.L188:
 671:src/network.c ****     else
 672:src/network.c ****       sprintf(buf, "2:NoSIM");
ARM GAS  C:\Users\AHMED~1.ELE\AppData\Local\Temp\ccb86Llj.s 			page 56


 2398              		.loc 1 672 0
 2399 0134 4A49     		ldr	r1, .L214+28
 2400 0136 FFF7FEFF 		bl	strcpy
 2401              	.LVL344:
 2402              	.L189:
 2403              	.LBB46:
 673:src/network.c ****     DispLineMW(buf, MW_MAX_LINE, MW_CLREOL|MW_SPFONT);
 2404              		.loc 1 673 0
 2405 013a 05A8     		add	r0, sp, #20
 2406 013c FFF7FEFF 		bl	strlen
 2407              	.LVL345:
 2408 0140 0546     		mov	r5, r0
 2409              	.LVL346:
 2410 0142 691C     		adds	r1, r5, #1
 2411 0144 9220     		movs	r0, #146
 2412              	.LVL347:
 2413 0146 FFF7FEFF 		bl	sys_func1
 2414              	.LVL348:
 2415 014a 0446     		mov	r4, r0
 2416 014c 98B1     		cbz	r0, .L190
 2417              		.loc 1 673 0 is_stmt 0 discriminator 1
 2418 014e 05A9     		add	r1, sp, #20
 2419 0150 2A46     		mov	r2, r5
 2420 0152 FFF7FEFF 		bl	memcpy
 2421              	.LVL349:
 2422 0156 0023     		movs	r3, #0
 2423 0158 2521     		movs	r1, #37
 2424 015a 6355     		strb	r3, [r4, r5]
 2425 015c 42F22003 		movw	r3, #8224
 2426 0160 0F20     		movs	r0, #15
 2427 0162 0093     		str	r3, [sp]
 2428 0164 2246     		mov	r2, r4
 2429 0166 4FF41063 		mov	r3, #2304
 2430 016a FFF7FEFF 		bl	lib_app_call
 2431              	.LVL350:
 2432 016e 9420     		movs	r0, #148
 2433 0170 2146     		mov	r1, r4
 2434 0172 FFF7FEFF 		bl	sys_func1
 2435              	.LVL351:
 2436              	.L190:
 2437              	.LBE46:
 674:src/network.c ****     strcpy(gOptrBkup, buf);
 2438              		.loc 1 674 0 is_stmt 1
 2439 0176 3748     		ldr	r0, .L214+16
 2440 0178 05A9     		add	r1, sp, #20
 2441 017a FFF7FEFF 		bl	strcpy
 2442              	.LVL352:
 675:src/network.c ****     if (bSimNum == 1)
 2443              		.loc 1 675 0
 2444 017e 9DF80B30 		ldrb	r3, [sp, #11]	@ zero_extendqisi2
 2445 0182 012B     		cmp	r3, #1
 2446 0184 56D1     		bne	.L192
 676:src/network.c ****       SelSIM(0, gOptrName1, &signal1);
 2447              		.loc 1 676 0
 2448 0186 0020     		movs	r0, #0
 2449 0188 2F49     		ldr	r1, .L214+4
 2450 018a 03AA     		add	r2, sp, #12
ARM GAS  C:\Users\AHMED~1.ELE\AppData\Local\Temp\ccb86Llj.s 			page 57


 2451 018c 3FE0     		b	.L213
 2452              	.LVL353:
 2453              	.L186:
 677:src/network.c ****   }
 678:src/network.c ****   else if ((signal2 > signal1) && signal2) {
 2454              		.loc 1 678 0
 2455 018e 9342     		cmp	r3, r2
 2456 0190 40D9     		bls	.L187
 2457              		.loc 1 678 0 is_stmt 0 discriminator 1
 2458 0192 002B     		cmp	r3, #0
 2459 0194 3ED0     		beq	.L187
 679:src/network.c ****     sprintf(buf, "2:%s", gOptrName2);
 2460              		.loc 1 679 0 is_stmt 1
 2461 0196 3049     		ldr	r1, .L214+20
 2462 0198 2C4A     		ldr	r2, .L214+8
 2463 019a 05A8     		add	r0, sp, #20
 2464 019c FFF7FEFF 		bl	sprintf
 2465              	.LVL354:
 680:src/network.c ****     strcpy(gOptrMain, buf);
 2466              		.loc 1 680 0
 2467 01a0 2B48     		ldr	r0, .L214+12
 2468 01a2 05A9     		add	r1, sp, #20
 2469 01a4 FFF7FEFF 		bl	strcpy
 2470              	.LVL355:
 681:src/network.c ****     if (signal1 > 0)
 2471              		.loc 1 681 0
 2472 01a8 039B     		ldr	r3, [sp, #12]
 682:src/network.c ****       sprintf(buf, "1:%s", gOptrName1);
 2473              		.loc 1 682 0
 2474 01aa 05A8     		add	r0, sp, #20
 681:src/network.c ****     if (signal1 > 0)
 2475              		.loc 1 681 0
 2476 01ac 23B1     		cbz	r3, .L193
 2477              		.loc 1 682 0
 2478 01ae 2B49     		ldr	r1, .L214+24
 2479 01b0 254A     		ldr	r2, .L214+4
 2480 01b2 FFF7FEFF 		bl	sprintf
 2481              	.LVL356:
 2482 01b6 02E0     		b	.L194
 2483              	.L193:
 683:src/network.c ****     else
 684:src/network.c ****       sprintf(buf, "1:NoSIM");
 2484              		.loc 1 684 0
 2485 01b8 2A49     		ldr	r1, .L214+32
 2486 01ba FFF7FEFF 		bl	strcpy
 2487              	.LVL357:
 2488              	.L194:
 2489              	.LBB47:
 685:src/network.c ****     DispLineMW(buf, MW_MAX_LINE, MW_CLREOL|MW_SPFONT);
 2490              		.loc 1 685 0
 2491 01be 05A8     		add	r0, sp, #20
 2492 01c0 FFF7FEFF 		bl	strlen
 2493              	.LVL358:
 2494 01c4 0546     		mov	r5, r0
 2495              	.LVL359:
 2496 01c6 691C     		adds	r1, r5, #1
 2497 01c8 9220     		movs	r0, #146
ARM GAS  C:\Users\AHMED~1.ELE\AppData\Local\Temp\ccb86Llj.s 			page 58


 2498              	.LVL360:
 2499 01ca FFF7FEFF 		bl	sys_func1
 2500              	.LVL361:
 2501 01ce 0446     		mov	r4, r0
 2502 01d0 98B1     		cbz	r0, .L195
 2503              		.loc 1 685 0 is_stmt 0 discriminator 1
 2504 01d2 05A9     		add	r1, sp, #20
 2505 01d4 2A46     		mov	r2, r5
 2506 01d6 FFF7FEFF 		bl	memcpy
 2507              	.LVL362:
 2508 01da 0023     		movs	r3, #0
 2509 01dc 2521     		movs	r1, #37
 2510 01de 6355     		strb	r3, [r4, r5]
 2511 01e0 42F22003 		movw	r3, #8224
 2512 01e4 0F20     		movs	r0, #15
 2513 01e6 0093     		str	r3, [sp]
 2514 01e8 2246     		mov	r2, r4
 2515 01ea 4FF41063 		mov	r3, #2304
 2516 01ee FFF7FEFF 		bl	lib_app_call
 2517              	.LVL363:
 2518 01f2 9420     		movs	r0, #148
 2519 01f4 2146     		mov	r1, r4
 2520 01f6 FFF7FEFF 		bl	sys_func1
 2521              	.LVL364:
 2522              	.L195:
 2523              	.LBE47:
 686:src/network.c ****     strcpy(gOptrBkup, buf);
 2524              		.loc 1 686 0 is_stmt 1
 2525 01fa 1648     		ldr	r0, .L214+16
 2526 01fc 05A9     		add	r1, sp, #20
 2527 01fe FFF7FEFF 		bl	strcpy
 2528              	.LVL365:
 687:src/network.c ****     if (bSimNum == 0)
 2529              		.loc 1 687 0
 2530 0202 9DF80B30 		ldrb	r3, [sp, #11]	@ zero_extendqisi2
 2531 0206 ABB9     		cbnz	r3, .L192
 688:src/network.c ****       SelSIM(1, gOptrName2, &signal2);
 2532              		.loc 1 688 0
 2533 0208 0120     		movs	r0, #1
 2534 020a 1049     		ldr	r1, .L214+8
 2535 020c 04AA     		add	r2, sp, #16
 2536              	.LVL366:
 2537              	.L213:
 2538 020e FFF7FEFF 		bl	SelSIM
 2539              	.LVL367:
 2540 0212 0FE0     		b	.L192
 2541              	.L187:
 689:src/network.c ****   }
 690:src/network.c ****   else {
 691:src/network.c ****     // no SIM at SIM1 & SIM2
 692:src/network.c ****     strcpy(gOptrName1, "1:NoSIM");
 2542              		.loc 1 692 0
 2543 0214 1349     		ldr	r1, .L214+32
 2544 0216 0C48     		ldr	r0, .L214+4
 2545 0218 FFF7FEFF 		bl	strcpy
 2546              	.LVL368:
 693:src/network.c ****     strcpy(gOptrName2, "2:NoSIM");
ARM GAS  C:\Users\AHMED~1.ELE\AppData\Local\Temp\ccb86Llj.s 			page 59


 2547              		.loc 1 693 0
 2548 021c 1049     		ldr	r1, .L214+28
 2549 021e 0B48     		ldr	r0, .L214+8
 2550 0220 FFF7FEFF 		bl	strcpy
 2551              	.LVL369:
 694:src/network.c ****     strcpy(gOptrMain, "1:NoSIM");
 2552              		.loc 1 694 0
 2553 0224 0F49     		ldr	r1, .L214+32
 2554 0226 0A48     		ldr	r0, .L214+12
 2555 0228 FFF7FEFF 		bl	strcpy
 2556              	.LVL370:
 695:src/network.c ****     strcpy(gOptrBkup, "2:NoSIM");
 2557              		.loc 1 695 0
 2558 022c 0948     		ldr	r0, .L214+16
 2559 022e 0C49     		ldr	r1, .L214+28
 2560 0230 FFF7FEFF 		bl	strcpy
 2561              	.LVL371:
 2562              	.L192:
 2563              	.LBB48:
 2564              	.LBB49:
 2565              	.LBB50:
 601:src/network.c ****   else
 2566              		.loc 1 601 0 discriminator 1
 2567 0234 7A20     		movs	r0, #122
 2568 0236 0C49     		ldr	r1, .L214+36
 2569 0238 C822     		movs	r2, #200
 2570 023a FFF7FEFF 		bl	sys_func2
 2571              	.LVL372:
 2572              	.L174:
 2573              	.LBE50:
 2574              	.LBE49:
 2575              	.LBE48:
 696:src/network.c ****   }
 697:src/network.c ****   SimStatusThrd(TRUE);
 698:src/network.c **** }
 2576              		.loc 1 698 0
 2577 023e 39B0     		add	sp, sp, #228
 2578              		.cfi_def_cfa_offset 12
 2579              		@ sp needed
 2580 0240 30BD     		pop	{r4, r5, pc}
 2581              	.L215:
 2582 0242 00BF     		.align	2
 2583              	.L214:
 2584 0244 00000000 		.word	gGTS
 2585 0248 00000000 		.word	gOptrName1
 2586 024c 00000000 		.word	gOptrName2
 2587 0250 00000000 		.word	gOptrMain
 2588 0254 00000000 		.word	gOptrBkup
 2589 0258 55010000 		.word	.LC36
 2590 025c 5A010000 		.word	.LC37
 2591 0260 5F010000 		.word	.LC38
 2592 0264 67010000 		.word	.LC39
 2593 0268 00000000 		.word	ShowSimStatus
 2594              		.cfi_endproc
 2595              	.LFE11:
 2596              		.size	NetworkInit, .-NetworkInit
 2597              		.section	.text.GetSubNum,"ax",%progbits
ARM GAS  C:\Users\AHMED~1.ELE\AppData\Local\Temp\ccb86Llj.s 			page 60


 2598              		.align	1
 2599              		.global	GetSubNum
 2600              		.thumb
 2601              		.thumb_func
 2602              		.type	GetSubNum, %function
 2603              	GetSubNum:
 2604              	.LFB12:
 699:src/network.c **** //*****************************************************************************
 700:src/network.c **** //  Function        : GetSubNum
 701:src/network.c **** //  Description     : Get Subscriber's Number
 702:src/network.c **** //                  : *aStr;    // starting ptr to search
 703:src/network.c **** //                  : aLen;     // length of string to search
 704:src/network.c **** //                  : *aNum;    // buffer to hold the number
 705:src/network.c **** //  Return          : 0;        // Not found
 706:src/network.c **** //                    1;        // TEL READY
 707:src/network.c **** //                    2;        // TEL & NAME ready
 708:src/network.c **** //  Note            : N/A
 709:src/network.c **** //  Globals Changed : N/A;
 710:src/network.c **** //*****************************************************************************
 711:src/network.c **** void GetSubNum(BYTE *aStr, DWORD aLen, BYTE *aNum)
 712:src/network.c **** {
 2605              		.loc 1 712 0
 2606              		.cfi_startproc
 2607              		@ args = 0, pretend = 0, frame = 64
 2608              		@ frame_needed = 0, uses_anonymous_args = 0
 2609              	.LVL373:
 2610 0000 F0B5     		push	{r4, r5, r6, r7, lr}
 2611              		.cfi_def_cfa_offset 20
 2612              		.cfi_offset 4, -20
 2613              		.cfi_offset 5, -16
 2614              		.cfi_offset 6, -12
 2615              		.cfi_offset 7, -8
 2616              		.cfi_offset 14, -4
 2617 0002 0E46     		mov	r6, r1
 2618 0004 93B0     		sub	sp, sp, #76
 2619              		.cfi_def_cfa_offset 96
 713:src/network.c ****   BYTE buf[32];
 714:src/network.c ****   BYTE num[32];
 715:src/network.c ****   BYTE num_len;
 716:src/network.c ****   BYTE *ptr;
 717:src/network.c ****   BYTE state;
 718:src/network.c **** 
 719:src/network.c ****   ptr = (BYTE *)strstr((char const *)aStr, "+CNUM:");
 2620              		.loc 1 719 0
 2621 0006 2949     		ldr	r1, .L233
 2622              	.LVL374:
 712:src/network.c ****   BYTE buf[32];
 2623              		.loc 1 712 0
 2624 0008 0746     		mov	r7, r0
 2625 000a 1546     		mov	r5, r2
 2626              		.loc 1 719 0
 2627 000c FFF7FEFF 		bl	strstr
 2628              	.LVL375:
 720:src/network.c ****   if (ptr == NULL)
 2629              		.loc 1 720 0
 2630 0010 0446     		mov	r4, r0
 2631 0012 0028     		cmp	r0, #0
ARM GAS  C:\Users\AHMED~1.ELE\AppData\Local\Temp\ccb86Llj.s 			page 61


 2632 0014 48D0     		beq	.L216
 721:src/network.c ****     return;
 722:src/network.c ****     
 723:src/network.c ****   memset(num, 0, sizeof(num));
 2633              		.loc 1 723 0
 2634 0016 2022     		movs	r2, #32
 2635 0018 0AA8     		add	r0, sp, #40
 2636              	.LVL376:
 2637 001a 0021     		movs	r1, #0
 2638 001c FFF7FEFF 		bl	memset
 2639              	.LVL377:
 724:src/network.c ****   num_len = 0;
 725:src/network.c ****   state = 0;
 2640              		.loc 1 725 0
 2641 0020 0022     		movs	r2, #0
 726:src/network.c ****   ptr = ptr + 6;
 2642              		.loc 1 726 0
 2643 0022 A01D     		adds	r0, r4, #6
 2644              	.LVL378:
 724:src/network.c ****   num_len = 0;
 2645              		.loc 1 724 0
 2646 0024 1346     		mov	r3, r2
 2647              	.LVL379:
 2648              	.L218:
 727:src/network.c ****   while ((DWORD)(ptr - aStr) < aLen) {
 2649              		.loc 1 727 0
 2650 0026 C11B     		subs	r1, r0, r7
 2651 0028 B142     		cmp	r1, r6
 2652 002a 13D2     		bcs	.L232
 728:src/network.c ****     if (*ptr == ',') {
 2653              		.loc 1 728 0
 2654 002c 10F8011B 		ldrb	r1, [r0], #1	@ zero_extendqisi2
 2655              	.LVL380:
 2656 0030 2C29     		cmp	r1, #44
 2657 0032 02D1     		bne	.L219
 729:src/network.c ****       state++;
 2658              		.loc 1 729 0
 2659 0034 0132     		adds	r2, r2, #1
 2660              	.LVL381:
 2661 0036 D2B2     		uxtb	r2, r2
 2662              	.LVL382:
 730:src/network.c ****       ptr++;
 731:src/network.c ****       continue;
 2663              		.loc 1 731 0
 2664 0038 F5E7     		b	.L218
 2665              	.LVL383:
 2666              	.L219:
 732:src/network.c ****     }
 733:src/network.c ****     switch (state) {
 2667              		.loc 1 733 0
 2668 003a 012A     		cmp	r2, #1
 2669 003c F3D1     		bne	.L218
 734:src/network.c ****       case 1:
 735:src/network.c ****         if (num_len < sizeof(num))
 2670              		.loc 1 735 0
 2671 003e 1F2B     		cmp	r3, #31
 736:src/network.c ****           num[num_len++] = *ptr;
ARM GAS  C:\Users\AHMED~1.ELE\AppData\Local\Temp\ccb86Llj.s 			page 62


 2672              		.loc 1 736 0
 2673 0040 9FBF     		itttt	ls
 2674 0042 0DF1480E 		addls	lr, sp, #72
 2675 0046 5C1C     		addls	r4, r3, #1
 2676              	.LVL384:
 2677 0048 7344     		addls	r3, r3, lr
 2678 004a 03F8201C 		strbls	r1, [r3, #-32]
 2679 004e 98BF     		it	ls
 2680 0050 E3B2     		uxtbls	r3, r4
 2681              	.LVL385:
 2682 0052 E8E7     		b	.L218
 2683              	.LVL386:
 2684              	.L232:
 737:src/network.c ****         break;
 738:src/network.c ****       default:
 739:src/network.c ****         break;
 740:src/network.c ****     }
 741:src/network.c ****     ptr++;
 742:src/network.c ****   }
 743:src/network.c **** 
 744:src/network.c ****   sprintf(buf, "Num : %s", num);
 2685              		.loc 1 744 0
 2686 0054 1649     		ldr	r1, .L233+4
 2687 0056 0AAA     		add	r2, sp, #40
 2688              	.LVL387:
 2689 0058 02A8     		add	r0, sp, #8
 2690              	.LVL388:
 2691 005a FFF7FEFF 		bl	sprintf
 2692              	.LVL389:
 2693              	.LBB51:
 745:src/network.c ****   DispLineMW(buf, MW_LINE4, MW_SPFONT);
 2694              		.loc 1 745 0
 2695 005e 02A8     		add	r0, sp, #8
 2696 0060 FFF7FEFF 		bl	strlen
 2697              	.LVL390:
 2698 0064 0646     		mov	r6, r0
 2699              	.LVL391:
 2700 0066 711C     		adds	r1, r6, #1
 2701 0068 9220     		movs	r0, #146
 2702              	.LVL392:
 2703 006a FFF7FEFF 		bl	sys_func1
 2704              	.LVL393:
 2705 006e 0446     		mov	r4, r0
 2706 0070 98B1     		cbz	r0, .L224
 2707              		.loc 1 745 0 is_stmt 0 discriminator 1
 2708 0072 02A9     		add	r1, sp, #8
 2709 0074 3246     		mov	r2, r6
 2710 0076 FFF7FEFF 		bl	memcpy
 2711              	.LVL394:
 2712 007a 0023     		movs	r3, #0
 2713 007c 2521     		movs	r1, #37
 2714 007e A355     		strb	r3, [r4, r6]
 2715 0080 4FF40053 		mov	r3, #8192
 2716 0084 0F20     		movs	r0, #15
 2717 0086 0093     		str	r3, [sp]
 2718 0088 2246     		mov	r2, r4
 2719 008a 4FF48063 		mov	r3, #1024
ARM GAS  C:\Users\AHMED~1.ELE\AppData\Local\Temp\ccb86Llj.s 			page 63


 2720 008e FFF7FEFF 		bl	lib_app_call
 2721              	.LVL395:
 2722 0092 9420     		movs	r0, #148
 2723 0094 2146     		mov	r1, r4
 2724 0096 FFF7FEFF 		bl	sys_func1
 2725              	.LVL396:
 2726              	.L224:
 2727              	.LBE51:
 746:src/network.c ****   Delay10ms(50);
 2728              		.loc 1 746 0 is_stmt 1
 2729 009a 3220     		movs	r0, #50
 2730 009c FFF7FEFF 		bl	Delay10ms
 2731              	.LVL397:
 747:src/network.c ****   strcpy(aNum, num);
 2732              		.loc 1 747 0
 2733 00a0 2846     		mov	r0, r5
 2734 00a2 0AA9     		add	r1, sp, #40
 2735 00a4 FFF7FEFF 		bl	strcpy
 2736              	.LVL398:
 2737              	.L216:
 748:src/network.c **** }
 2738              		.loc 1 748 0
 2739 00a8 13B0     		add	sp, sp, #76
 2740              		.cfi_def_cfa_offset 20
 2741              		@ sp needed
 2742 00aa F0BD     		pop	{r4, r5, r6, r7, pc}
 2743              	.LVL399:
 2744              	.L234:
 2745              		.align	2
 2746              	.L233:
 2747 00ac 6F010000 		.word	.LC40
 2748 00b0 76010000 		.word	.LC41
 2749              		.cfi_endproc
 2750              	.LFE12:
 2751              		.size	GetSubNum, .-GetSubNum
 2752              		.section	.text.GetMobileNum,"ax",%progbits
 2753              		.align	1
 2754              		.global	GetMobileNum
 2755              		.thumb
 2756              		.thumb_func
 2757              		.type	GetMobileNum, %function
 2758              	GetMobileNum:
 2759              	.LFB13:
 749:src/network.c **** //*****************************************************************************
 750:src/network.c **** //  Function        : GetMobileNum
 751:src/network.c **** //  Description     : Get Mobile Subscriber's Number
 752:src/network.c **** //  Input           : N/A
 753:src/network.c **** //  Return          : N/A
 754:src/network.c **** //  Note            : N/A
 755:src/network.c **** //  Globals Changed : N/A
 756:src/network.c **** //*****************************************************************************
 757:src/network.c **** BOOLEAN GetMobileNum(BYTE *aNum)
 758:src/network.c **** {
 2760              		.loc 1 758 0
 2761              		.cfi_startproc
 2762              		@ args = 0, pretend = 0, frame = 3304
 2763              		@ frame_needed = 0, uses_anonymous_args = 0
ARM GAS  C:\Users\AHMED~1.ELE\AppData\Local\Temp\ccb86Llj.s 			page 64


 2764              	.LVL400:
 2765 0000 2DE9F043 		push	{r4, r5, r6, r7, r8, r9, lr}
 2766              		.cfi_def_cfa_offset 28
 2767              		.cfi_offset 4, -28
 2768              		.cfi_offset 5, -24
 2769              		.cfi_offset 6, -20
 2770              		.cfi_offset 7, -16
 2771              		.cfi_offset 8, -12
 2772              		.cfi_offset 9, -8
 2773              		.cfi_offset 14, -4
 759:src/network.c ****   #define LOOP_DELAY        600
 760:src/network.c ****   char tmp[256], disp_buf[MW_MAX_LINESIZE+1];
 761:src/network.c ****   DWORD status, last_status;
 762:src/network.c ****   DWORD loop_cnt, ret;
 763:src/network.c ****   struct GPRSATCMD  at_cmd;
 764:src/network.c ****   struct GPRSATRESP at_resp;
 765:src/network.c ****   BYTE endl=0;
 766:src/network.c **** 
 767:src/network.c ****   last_status = (DWORD) -1;
 768:src/network.c ****   loop_cnt    = 0;
 769:src/network.c ****   ret         = 0;
 770:src/network.c ****   while (GetCharMW()!=MWKEY_CANCL) {
 2774              		.loc 1 770 0
 2775 0004 0024     		movs	r4, #0
 758:src/network.c ****   #define LOOP_DELAY        600
 2776              		.loc 1 758 0
 2777 0006 ADF6F44D 		subw	sp, sp, #3316
 2778              		.cfi_def_cfa_offset 3344
 758:src/network.c ****   #define LOOP_DELAY        600
 2779              		.loc 1 758 0
 2780 000a 0646     		mov	r6, r0
 2781              		.loc 1 770 0
 2782 000c 0094     		str	r4, [sp]
 2783 000e 0F20     		movs	r0, #15
 2784              	.LVL401:
 2785 0010 1621     		movs	r1, #22
 2786 0012 2246     		mov	r2, r4
 2787 0014 2346     		mov	r3, r4
 2788 0016 FFF7FEFF 		bl	lib_app_call
 2789              	.LVL402:
 2790 001a 1128     		cmp	r0, #17
 2791 001c 00F0C080 		beq	.L236
 771:src/network.c ****     status = StatMW(gGprsHandle, (DWORD) -1, NULL);
 2792              		.loc 1 771 0
 2793 0020 694F     		ldr	r7, .L263
 2794 0022 0094     		str	r4, [sp]
 2795 0024 3A68     		ldr	r2, [r7]
 2796 0026 0F20     		movs	r0, #15
 2797 0028 0821     		movs	r1, #8
 2798 002a 4FF0FF33 		mov	r3, #-1
 2799 002e FFF7FEFF 		bl	lib_app_call
 2800              	.LVL403:
 772:src/network.c ****     if (status != last_status) {
 2801              		.loc 1 772 0
 2802 0032 421C     		adds	r2, r0, #1
 771:src/network.c ****     status = StatMW(gGprsHandle, (DWORD) -1, NULL);
 2803              		.loc 1 771 0
ARM GAS  C:\Users\AHMED~1.ELE\AppData\Local\Temp\ccb86Llj.s 			page 65


 2804 0034 0546     		mov	r5, r0
 2805              	.LVL404:
 2806              		.loc 1 772 0
 2807 0036 23D0     		beq	.L238
 773:src/network.c ****       sprintf(disp_buf, "Status: %08X", status);
 2808              		.loc 1 773 0
 2809 0038 6449     		ldr	r1, .L263+4
 2810 003a 2A46     		mov	r2, r5
 2811 003c 03A8     		add	r0, sp, #12
 2812              	.LVL405:
 2813 003e FFF7FEFF 		bl	sprintf
 2814              	.LVL406:
 2815              	.LBB52:
 774:src/network.c ****       DispLineMW(disp_buf, MW_MAX_LINE, MW_SPFONT);
 2816              		.loc 1 774 0
 2817 0042 03A8     		add	r0, sp, #12
 2818 0044 FFF7FEFF 		bl	strlen
 2819              	.LVL407:
 2820 0048 8146     		mov	r9, r0
 2821              	.LVL408:
 2822 004a 09F10101 		add	r1, r9, #1
 2823 004e 9220     		movs	r0, #146
 2824              	.LVL409:
 2825 0050 FFF7FEFF 		bl	sys_func1
 2826              	.LVL410:
 2827 0054 8046     		mov	r8, r0
 2828 0056 98B1     		cbz	r0, .L238
 2829              		.loc 1 774 0 is_stmt 0 discriminator 1
 2830 0058 03A9     		add	r1, sp, #12
 2831 005a 4A46     		mov	r2, r9
 2832 005c FFF7FEFF 		bl	memcpy
 2833              	.LVL411:
 2834 0060 4FF40053 		mov	r3, #8192
 2835 0064 08F80940 		strb	r4, [r8, r9]
 2836 0068 2521     		movs	r1, #37
 2837 006a 0093     		str	r3, [sp]
 2838 006c 0F20     		movs	r0, #15
 2839 006e 4246     		mov	r2, r8
 2840 0070 4FF41063 		mov	r3, #2304
 2841 0074 FFF7FEFF 		bl	lib_app_call
 2842              	.LVL412:
 2843 0078 9420     		movs	r0, #148
 2844 007a 4146     		mov	r1, r8
 2845 007c FFF7FEFF 		bl	sys_func1
 2846              	.LVL413:
 2847              	.L238:
 2848              	.LBE52:
 775:src/network.c ****       last_status = status;
 776:src/network.c ****     }
 777:src/network.c ****     if ((loop_cnt == 0)&&(status&MW_GSTS_ATREADY1)) {
 2849              		.loc 1 777 0 is_stmt 1
 2850 0080 15F40075 		ands	r5, r5, #512
 2851              	.LVL414:
 2852 0084 67D0     		beq	.L240
 778:src/network.c ****       strcpy(tmp, "AT+CNUM\r\n");                    // for G510/H330
 779:src/network.c ****       DispClrBelowMW(MW_LINE3);
 2853              		.loc 1 779 0
ARM GAS  C:\Users\AHMED~1.ELE\AppData\Local\Temp\ccb86Llj.s 			page 66


 2854 0086 4FF00008 		mov	r8, #0
 778:src/network.c ****       strcpy(tmp, "AT+CNUM\r\n");                    // for G510/H330
 2855              		.loc 1 778 0
 2856 008a 5149     		ldr	r1, .L263+8
 2857 008c 0AA8     		add	r0, sp, #40
 2858 008e FFF7FEFF 		bl	strcpy
 2859              	.LVL415:
 2860              		.loc 1 779 0
 2861 0092 4346     		mov	r3, r8
 2862 0094 2321     		movs	r1, #35
 2863 0096 4FF44072 		mov	r2, #768
 2864 009a CDF80080 		str	r8, [sp]
 2865 009e 0F20     		movs	r0, #15
 2866 00a0 FFF7FEFF 		bl	lib_app_call
 2867              	.LVL416:
 780:src/network.c ****       sprintf(disp_buf, "Send Cmd : %s", tmp);
 2868              		.loc 1 780 0
 2869 00a4 4B49     		ldr	r1, .L263+12
 2870 00a6 0AAA     		add	r2, sp, #40
 2871 00a8 03A8     		add	r0, sp, #12
 2872 00aa FFF7FEFF 		bl	sprintf
 2873              	.LVL417:
 2874              	.LBB53:
 781:src/network.c ****       DispLineMW(disp_buf, MW_LINE2,  MW_SPFONT);
 2875              		.loc 1 781 0
 2876 00ae 03A8     		add	r0, sp, #12
 2877 00b0 FFF7FEFF 		bl	strlen
 2878              	.LVL418:
 2879 00b4 0546     		mov	r5, r0
 2880              	.LVL419:
 2881 00b6 691C     		adds	r1, r5, #1
 2882 00b8 9220     		movs	r0, #146
 2883              	.LVL420:
 2884 00ba FFF7FEFF 		bl	sys_func1
 2885              	.LVL421:
 2886 00be 0446     		mov	r4, r0
 2887 00c0 98B1     		cbz	r0, .L241
 2888              		.loc 1 781 0 is_stmt 0 discriminator 1
 2889 00c2 03A9     		add	r1, sp, #12
 2890 00c4 2A46     		mov	r2, r5
 2891 00c6 FFF7FEFF 		bl	memcpy
 2892              	.LVL422:
 2893 00ca 4FF40053 		mov	r3, #8192
 2894 00ce 04F80580 		strb	r8, [r4, r5]
 2895 00d2 2521     		movs	r1, #37
 2896 00d4 0093     		str	r3, [sp]
 2897 00d6 0F20     		movs	r0, #15
 2898 00d8 2246     		mov	r2, r4
 2899 00da 4FF40073 		mov	r3, #512
 2900 00de FFF7FEFF 		bl	lib_app_call
 2901              	.LVL423:
 2902 00e2 9420     		movs	r0, #148
 2903 00e4 2146     		mov	r1, r4
 2904 00e6 FFF7FEFF 		bl	sys_func1
 2905              	.LVL424:
 2906              	.L241:
 2907              	.LBE53:
ARM GAS  C:\Users\AHMED~1.ELE\AppData\Local\Temp\ccb86Llj.s 			page 67


 782:src/network.c ****       at_cmd.d_timeout = LOOP_DELAY;
 2908              		.loc 1 782 0 is_stmt 1
 2909 00ea 4AAD     		add	r5, sp, #296
 2910              	.LVL425:
 2911 00ec 4FF41673 		mov	r3, #600
 2912 00f0 2C46     		mov	r4, r5
 2913              	.LVL426:
 783:src/network.c ****       memset(at_cmd.sb_content, 0x00, sizeof(at_cmd.sb_content));
 2914              		.loc 1 783 0
 2915 00f2 40F2DD52 		movw	r2, #1501
 782:src/network.c ****       at_cmd.d_timeout = LOOP_DELAY;
 2916              		.loc 1 782 0
 2917 00f6 44F8043B 		str	r3, [r4], #4
 2918              		.loc 1 783 0
 2919 00fa 0021     		movs	r1, #0
 2920 00fc 2046     		mov	r0, r4
 2921 00fe FFF7FEFF 		bl	memset
 2922              	.LVL427:
 784:src/network.c ****       strcpy(at_cmd.sb_content, tmp);
 2923              		.loc 1 784 0
 2924 0102 0AA9     		add	r1, sp, #40
 2925 0104 2046     		mov	r0, r4
 2926 0106 FFF7FEFF 		bl	strcpy
 2927              	.LVL428:
 785:src/network.c ****       IOCtlMW(gGprsHandle, IO_GPRS_CMDSEND, &at_cmd);
 2928              		.loc 1 785 0
 2929 010a 0095     		str	r5, [sp]
 2930 010c 0F20     		movs	r0, #15
 2931 010e 0721     		movs	r1, #7
 2932 0110 3A68     		ldr	r2, [r7]
 2933 0112 0223     		movs	r3, #2
 2934 0114 FFF7FEFF 		bl	lib_app_call
 2935              	.LVL429:
 786:src/network.c ****       Delay10ms(50);
 2936              		.loc 1 786 0
 2937 0118 3220     		movs	r0, #50
 2938 011a FFF7FEFF 		bl	Delay10ms
 2939              	.LVL430:
 2940              	.L242:
 787:src/network.c ****       while (!endl) {
 788:src/network.c ****         memset(at_resp.sb_content, 0, sizeof(at_resp.sb_content));
 2941              		.loc 1 788 0
 2942 011e 0021     		movs	r1, #0
 2943 0120 40F2DD52 		movw	r2, #1501
 2944 0124 0DF5E260 		add	r0, sp, #1808
 2945 0128 FFF7FEFF 		bl	memset
 2946              	.LVL431:
 2947 012c 0DF20C75 		addw	r5, sp, #1804
 789:src/network.c ****         at_resp.d_maxlen = sizeof(at_resp.sb_content) - 1;  // 1 byte for NULL.
 2948              		.loc 1 789 0
 2949 0130 40F2DC53 		movw	r3, #1500
 790:src/network.c ****         ret = IOCtlMW(gGprsHandle, IO_GPRS_CMDRESP, &at_resp);
 2950              		.loc 1 790 0
 2951 0134 0F20     		movs	r0, #15
 789:src/network.c ****         at_resp.d_maxlen = sizeof(at_resp.sb_content) - 1;  // 1 byte for NULL.
 2952              		.loc 1 789 0
 2953 0136 2B60     		str	r3, [r5]
ARM GAS  C:\Users\AHMED~1.ELE\AppData\Local\Temp\ccb86Llj.s 			page 68


 2954              		.loc 1 790 0
 2955 0138 0095     		str	r5, [sp]
 2956 013a 0721     		movs	r1, #7
 2957 013c 3A68     		ldr	r2, [r7]
 2958 013e 0323     		movs	r3, #3
 2959 0140 FFF7FEFF 		bl	lib_app_call
 2960              	.LVL432:
 791:src/network.c ****         switch (ret) {
 2961              		.loc 1 791 0
 2962 0144 0446     		mov	r4, r0
 2963 0146 0028     		cmp	r0, #0
 2964 0148 E9D0     		beq	.L242
 2965 014a 431C     		adds	r3, r0, #1
 2966 014c 24D0     		beq	.L244
 792:src/network.c ****           case 0:       // no response;
 793:src/network.c ****             break;
 794:src/network.c ****           case -1:      // timeout
 795:src/network.c ****             endl = 1;
 796:src/network.c ****             break;
 797:src/network.c ****           default:
 798:src/network.c ****             at_resp.sb_content[ret] = 0;
 2967              		.loc 1 798 0
 2968 014e 0544     		add	r5, r5, r0
 2969 0150 0023     		movs	r3, #0
 2970 0152 2B71     		strb	r3, [r5, #4]
 2971              	.LVL433:
 2972 0154 20E0     		b	.L244
 2973              	.LVL434:
 2974              	.L240:
 2975              	.LBB54:
 799:src/network.c **** //             sprintf(disp_buf, "Rcvd Rsp: %s", at_resp.sb_content);
 800:src/network.c **** //             DispLineMW(disp_buf, MW_LINE4, MW_SPFONT);
 801:src/network.c ****             endl = 1;
 802:src/network.c ****             break;
 803:src/network.c ****         }
 804:src/network.c ****       }
 805:src/network.c ****     }
 806:src/network.c ****     else if ((status&MW_GSTS_ATREADY1) == 0) {
 807:src/network.c ****       DispLineMW("Insert SIM Card!", MW_LINE5, MW_CENTER|MW_SMFONT);
 2976              		.loc 1 807 0
 2977 0156 9220     		movs	r0, #146
 2978 0158 1121     		movs	r1, #17
 2979 015a FFF7FEFF 		bl	sys_func1
 2980              	.LVL435:
 2981 015e 0446     		mov	r4, r0
 2982 0160 88B1     		cbz	r0, .L245
 2983              		.loc 1 807 0 is_stmt 0 discriminator 1
 2984 0162 1D49     		ldr	r1, .L263+16
 2985 0164 1022     		movs	r2, #16
 2986 0166 FFF7FEFF 		bl	memcpy
 2987              	.LVL436:
 2988 016a 0223     		movs	r3, #2
 2989 016c 2574     		strb	r5, [r4, #16]
 2990 016e 2521     		movs	r1, #37
 2991 0170 0093     		str	r3, [sp]
 2992 0172 0F20     		movs	r0, #15
 2993 0174 2246     		mov	r2, r4
ARM GAS  C:\Users\AHMED~1.ELE\AppData\Local\Temp\ccb86Llj.s 			page 69


 2994 0176 4FF4A063 		mov	r3, #1280
 2995 017a FFF7FEFF 		bl	lib_app_call
 2996              	.LVL437:
 2997 017e 9420     		movs	r0, #148
 2998 0180 2146     		mov	r1, r4
 2999 0182 FFF7FEFF 		bl	sys_func1
 3000              	.LVL438:
 3001              	.L245:
 3002              	.LBE54:
 808:src/network.c ****       APM_WaitKey(200, 0);
 3003              		.loc 1 808 0 is_stmt 1
 3004 0186 0024     		movs	r4, #0
 3005              	.LVL439:
 3006 0188 0321     		movs	r1, #3
 3007 018a 0094     		str	r4, [sp]
 3008 018c C822     		movs	r2, #200
 3009 018e 2346     		mov	r3, r4
 3010 0190 1020     		movs	r0, #16
 3011 0192 FFF7FEFF 		bl	lib_app_call
 3012              	.LVL440:
 809:src/network.c ****       break;
 3013              		.loc 1 809 0
 3014 0196 03E0     		b	.L236
 3015              	.LVL441:
 3016              	.L244:
 810:src/network.c ****     }
 811:src/network.c ****     loop_cnt -= loop_cnt > 0 ? 1: 0;
 812:src/network.c ****     SleepMW();
 3017              		.loc 1 812 0
 3018 0198 4FF4CE70 		mov	r0, #412
 3019 019c FFF7FEFF 		bl	sys_func0
 3020              	.LVL442:
 3021              	.L236:
 813:src/network.c ****     if (endl)
 814:src/network.c ****       break;
 815:src/network.c ****   }
 816:src/network.c ****   if ((ret != 0) && (ret != -1)) {
 3022              		.loc 1 816 0
 3023 01a0 013C     		subs	r4, r4, #1
 3024              	.LVL443:
 3025 01a2 0334     		adds	r4, r4, #3
 3026              	.LVL444:
 3027 01a4 0BD8     		bhi	.L248
 817:src/network.c ****     // valid response received
 818:src/network.c ****     GetSubNum(at_resp.sb_content, strlen(at_resp.sb_content), aNum);
 3028              		.loc 1 818 0
 3029 01a6 0DF5E260 		add	r0, sp, #1808
 3030 01aa FFF7FEFF 		bl	strlen
 3031              	.LVL445:
 3032 01ae 3246     		mov	r2, r6
 3033 01b0 0146     		mov	r1, r0
 3034 01b2 0DF5E260 		add	r0, sp, #1808
 3035 01b6 FFF7FEFF 		bl	GetSubNum
 3036              	.LVL446:
 819:src/network.c ****     return TRUE;
 3037              		.loc 1 819 0
 3038 01ba 0120     		movs	r0, #1
ARM GAS  C:\Users\AHMED~1.ELE\AppData\Local\Temp\ccb86Llj.s 			page 70


 3039 01bc 00E0     		b	.L246
 3040              	.L248:
 820:src/network.c ****   }
 821:src/network.c ****   return FALSE;
 3041              		.loc 1 821 0
 3042 01be 0020     		movs	r0, #0
 3043              	.L246:
 822:src/network.c **** }
 3044              		.loc 1 822 0
 3045 01c0 0DF6F44D 		addw	sp, sp, #3316
 3046              		.cfi_def_cfa_offset 28
 3047              		@ sp needed
 3048 01c4 BDE8F083 		pop	{r4, r5, r6, r7, r8, r9, pc}
 3049              	.LVL447:
 3050              	.L264:
 3051              		.align	2
 3052              	.L263:
 3053 01c8 00000000 		.word	gGprsHandle
 3054 01cc 7F010000 		.word	.LC42
 3055 01d0 8C010000 		.word	.LC43
 3056 01d4 96010000 		.word	.LC44
 3057 01d8 A4010000 		.word	.LC45
 3058              		.cfi_endproc
 3059              	.LFE13:
 3060              		.size	GetMobileNum, .-GetMobileNum
 3061              		.section	.text.GetSimCCID,"ax",%progbits
 3062              		.align	1
 3063              		.global	GetSimCCID
 3064              		.thumb
 3065              		.thumb_func
 3066              		.type	GetSimCCID, %function
 3067              	GetSimCCID:
 3068              	.LFB14:
 823:src/network.c **** //*****************************************************************************
 824:src/network.c **** //  Function        : GetSimCCID
 825:src/network.c **** //  Description     : Get SIM CCID
 826:src/network.c **** //  Input           : N/A
 827:src/network.c **** //  Return          : N/A
 828:src/network.c **** //  Note            : N/A
 829:src/network.c **** //  Globals Changed : N/A
 830:src/network.c **** //*****************************************************************************
 831:src/network.c **** BOOLEAN GetSimCCID(BYTE *aCCID)
 832:src/network.c **** {
 3069              		.loc 1 832 0
 3070              		.cfi_startproc
 3071              		@ args = 0, pretend = 0, frame = 3328
 3072              		@ frame_needed = 0, uses_anonymous_args = 0
 3073              	.LVL448:
 3074 0000 2DE9F047 		push	{r4, r5, r6, r7, r8, r9, r10, lr}
 3075              		.cfi_def_cfa_offset 32
 3076              		.cfi_offset 4, -32
 3077              		.cfi_offset 5, -28
 3078              		.cfi_offset 6, -24
 3079              		.cfi_offset 7, -20
 3080              		.cfi_offset 8, -16
 3081              		.cfi_offset 9, -12
 3082              		.cfi_offset 10, -8
ARM GAS  C:\Users\AHMED~1.ELE\AppData\Local\Temp\ccb86Llj.s 			page 71


 3083              		.cfi_offset 14, -4
 3084 0004 ADF6085D 		subw	sp, sp, #3336
 3085              		.cfi_def_cfa_offset 3368
 833:src/network.c ****   #define LOOP_DELAY        600
 834:src/network.c ****   char tmp[256], disp_buf[MW_MAX_LINESIZE+1];
 835:src/network.c ****   DWORD status, last_status;
 836:src/network.c ****   DWORD loop_cnt, ret;
 837:src/network.c ****   struct GPRSATCMD  at_cmd;
 838:src/network.c ****   struct GPRSATRESP at_resp;
 839:src/network.c ****   char ccid[20+1];
 840:src/network.c ****   char *s_ptr;
 841:src/network.c ****   BYTE model=G510, endl=0;
 842:src/network.c **** 
 843:src/network.c ****   last_status = (DWORD) -1;
 844:src/network.c ****   loop_cnt    = 0;
 845:src/network.c ****   ret         = 0;
 846:src/network.c ****   memset(ccid, 0, sizeof(ccid));
 3086              		.loc 1 846 0
 3087 0008 0021     		movs	r1, #0
 3088 000a 1522     		movs	r2, #21
 832:src/network.c ****   #define LOOP_DELAY        600
 3089              		.loc 1 832 0
 3090 000c 0746     		mov	r7, r0
 3091              		.loc 1 846 0
 3092 000e 03A8     		add	r0, sp, #12
 3093              	.LVL449:
 3094 0010 FFF7FEFF 		bl	memset
 3095              	.LVL450:
 847:src/network.c ****   if ((os_hd_config() & K_HdGprs) == K_HdFibocomG510)
 3096              		.loc 1 847 0
 3097 0014 4FF4D070 		mov	r0, #416
 3098 0018 FFF7FEFF 		bl	sys_func0
 3099              	.LVL451:
 3100 001c 00F01C00 		and	r0, r0, #28
 3101 0020 0428     		cmp	r0, #4
 3102 0022 21D0     		beq	.L285
 848:src/network.c ****     model = G510;
 849:src/network.c ****   else if ((os_hd_config() & K_HdGprs) == K_HdFibocomH330)
 3103              		.loc 1 849 0
 3104 0024 4FF4D070 		mov	r0, #416
 3105 0028 FFF7FEFF 		bl	sys_func0
 3106              	.LVL452:
 3107 002c 00F01C00 		and	r0, r0, #28
 3108 0030 0828     		cmp	r0, #8
 3109 0032 1BD0     		beq	.L286
 850:src/network.c ****     model = H330;
 851:src/network.c ****   else if ((os_hd_config() & K_HdGprs) == K_HdQuectelUC15)
 3110              		.loc 1 851 0
 3111 0034 4FF4D070 		mov	r0, #416
 3112 0038 FFF7FEFF 		bl	sys_func0
 3113              	.LVL453:
 3114 003c 00F01C00 		and	r0, r0, #28
 3115 0040 0C28     		cmp	r0, #12
 3116 0042 15D0     		beq	.L287
 852:src/network.c ****     model = UC15;
 853:src/network.c ****   else if ((os_hd_config() & K_HdGprs) == K_HdSierraHL6528)
 3117              		.loc 1 853 0
ARM GAS  C:\Users\AHMED~1.ELE\AppData\Local\Temp\ccb86Llj.s 			page 72


 3118 0044 4FF4D070 		mov	r0, #416
 3119 0048 FFF7FEFF 		bl	sys_func0
 3120              	.LVL454:
 3121 004c 00F01C00 		and	r0, r0, #28
 3122 0050 1428     		cmp	r0, #20
 3123 0052 0FD0     		beq	.L288
 854:src/network.c ****     model = HL6;
 855:src/network.c ****   else if ((os_hd_config() & K_HdGprs) == K_HdSierraHL8548)
 3124              		.loc 1 855 0
 3125 0054 4FF4D070 		mov	r0, #416
 3126 0058 FFF7FEFF 		bl	sys_func0
 3127              	.LVL455:
 3128 005c 00F01C00 		and	r0, r0, #28
 3129 0060 1028     		cmp	r0, #16
 3130 0062 09D0     		beq	.L289
 3131              	.LVL456:
 3132              	.L282:
 856:src/network.c ****     model = HL8;
 857:src/network.c ****   else
 858:src/network.c ****     return FALSE;
 3133              		.loc 1 858 0
 3134 0064 0020     		movs	r0, #0
 3135 0066 FCE0     		b	.L267
 3136              	.LVL457:
 3137              	.L285:
 848:src/network.c ****   else if ((os_hd_config() & K_HdGprs) == K_HdFibocomH330)
 3138              		.loc 1 848 0
 3139 0068 0025     		movs	r5, #0
 3140 006a 06E0     		b	.L266
 3141              	.L286:
 850:src/network.c ****   else if ((os_hd_config() & K_HdGprs) == K_HdQuectelUC15)
 3142              		.loc 1 850 0
 3143 006c 0125     		movs	r5, #1
 3144 006e 04E0     		b	.L266
 3145              	.L287:
 852:src/network.c ****   else if ((os_hd_config() & K_HdGprs) == K_HdSierraHL6528)
 3146              		.loc 1 852 0
 3147 0070 0225     		movs	r5, #2
 3148 0072 02E0     		b	.L266
 3149              	.L288:
 854:src/network.c ****   else if ((os_hd_config() & K_HdGprs) == K_HdSierraHL8548)
 3150              		.loc 1 854 0
 3151 0074 0325     		movs	r5, #3
 3152 0076 00E0     		b	.L266
 3153              	.L289:
 856:src/network.c ****   else
 3154              		.loc 1 856 0
 3155 0078 0425     		movs	r5, #4
 3156              	.L266:
 3157              	.LVL458:
 859:src/network.c ****   
 860:src/network.c ****   while (GetCharMW()!=MWKEY_CANCL) {
 3158              		.loc 1 860 0
 3159 007a 0024     		movs	r4, #0
 3160 007c 0F20     		movs	r0, #15
 3161 007e 0094     		str	r4, [sp]
 3162 0080 1621     		movs	r1, #22
ARM GAS  C:\Users\AHMED~1.ELE\AppData\Local\Temp\ccb86Llj.s 			page 73


 3163 0082 2246     		mov	r2, r4
 3164 0084 2346     		mov	r3, r4
 3165 0086 FFF7FEFF 		bl	lib_app_call
 3166              	.LVL459:
 3167 008a 1128     		cmp	r0, #17
 3168 008c 00F0CB80 		beq	.L280
 861:src/network.c ****     status = StatMW(gGprsHandle, (DWORD) -1, NULL);
 3169              		.loc 1 861 0
 3170 0090 DFF8F481 		ldr	r8, .L308+28
 3171 0094 0094     		str	r4, [sp]
 3172 0096 D8F80020 		ldr	r2, [r8]
 3173 009a 0F20     		movs	r0, #15
 3174 009c 0821     		movs	r1, #8
 3175 009e 4FF0FF33 		mov	r3, #-1
 3176 00a2 FFF7FEFF 		bl	lib_app_call
 3177              	.LVL460:
 862:src/network.c ****     if (status != last_status) {
 3178              		.loc 1 862 0
 3179 00a6 421C     		adds	r2, r0, #1
 861:src/network.c ****     status = StatMW(gGprsHandle, (DWORD) -1, NULL);
 3180              		.loc 1 861 0
 3181 00a8 0646     		mov	r6, r0
 3182              	.LVL461:
 3183              		.loc 1 862 0
 3184 00aa 23D0     		beq	.L269
 863:src/network.c ****       sprintf(disp_buf, "Status: %08X", status);
 3185              		.loc 1 863 0
 3186 00ac 6F49     		ldr	r1, .L308
 3187 00ae 3246     		mov	r2, r6
 3188 00b0 09A8     		add	r0, sp, #36
 3189              	.LVL462:
 3190 00b2 FFF7FEFF 		bl	sprintf
 3191              	.LVL463:
 3192              	.LBB55:
 864:src/network.c ****       DispLineMW(disp_buf, MW_MAX_LINE, MW_SPFONT);
 3193              		.loc 1 864 0
 3194 00b6 09A8     		add	r0, sp, #36
 3195 00b8 FFF7FEFF 		bl	strlen
 3196              	.LVL464:
 3197 00bc 8246     		mov	r10, r0
 3198              	.LVL465:
 3199 00be 0AF10101 		add	r1, r10, #1
 3200 00c2 9220     		movs	r0, #146
 3201              	.LVL466:
 3202 00c4 FFF7FEFF 		bl	sys_func1
 3203              	.LVL467:
 3204 00c8 8146     		mov	r9, r0
 3205 00ca 98B1     		cbz	r0, .L269
 3206              		.loc 1 864 0 is_stmt 0 discriminator 1
 3207 00cc 09A9     		add	r1, sp, #36
 3208 00ce 5246     		mov	r2, r10
 3209 00d0 FFF7FEFF 		bl	memcpy
 3210              	.LVL468:
 3211 00d4 4FF40053 		mov	r3, #8192
 3212 00d8 09F80A40 		strb	r4, [r9, r10]
 3213 00dc 2521     		movs	r1, #37
 3214 00de 0093     		str	r3, [sp]
ARM GAS  C:\Users\AHMED~1.ELE\AppData\Local\Temp\ccb86Llj.s 			page 74


 3215 00e0 0F20     		movs	r0, #15
 3216 00e2 4A46     		mov	r2, r9
 3217 00e4 4FF41063 		mov	r3, #2304
 3218 00e8 FFF7FEFF 		bl	lib_app_call
 3219              	.LVL469:
 3220 00ec 9420     		movs	r0, #148
 3221 00ee 4946     		mov	r1, r9
 3222 00f0 FFF7FEFF 		bl	sys_func1
 3223              	.LVL470:
 3224              	.L269:
 3225              	.LBE55:
 865:src/network.c ****       last_status = status;
 866:src/network.c ****     }
 867:src/network.c ****     if ((loop_cnt == 0)&&(status&MW_GSTS_ATREADY1)) {
 3226              		.loc 1 867 0 is_stmt 1
 3227 00f4 16F40076 		ands	r6, r6, #512
 3228              	.LVL471:
 3229 00f8 70D0     		beq	.L271
 868:src/network.c ****       if ((model == G510) || (model == H330) || (model == HL6) || (model == HL8))
 3230              		.loc 1 868 0
 3231 00fa 012D     		cmp	r5, #1
 869:src/network.c ****         strcpy(tmp, "AT+CCID?\r\n");                    // for G510/H330/HL6/HL8
 3232              		.loc 1 869 0
 3233 00fc 10A8     		add	r0, sp, #64
 868:src/network.c ****       if ((model == G510) || (model == H330) || (model == HL6) || (model == HL8))
 3234              		.loc 1 868 0
 3235 00fe 02D9     		bls	.L272
 868:src/network.c ****       if ((model == G510) || (model == H330) || (model == HL6) || (model == HL8))
 3236              		.loc 1 868 0 is_stmt 0 discriminator 1
 3237 0100 EB1E     		subs	r3, r5, #3
 3238 0102 012B     		cmp	r3, #1
 3239 0104 01D8     		bhi	.L273
 3240              	.L272:
 3241              		.loc 1 869 0 is_stmt 1
 3242 0106 5A49     		ldr	r1, .L308+4
 3243 0108 00E0     		b	.L306
 3244              	.L273:
 870:src/network.c ****       else if (model == UC15)
 871:src/network.c ****         strcpy(tmp, "AT+QCCID\r\n");                    // for UC15
 3245              		.loc 1 871 0
 3246 010a 5A49     		ldr	r1, .L308+8
 3247              	.L306:
 872:src/network.c ****       DispClrBelowMW(MW_LINE3);
 3248              		.loc 1 872 0
 3249 010c 4FF00009 		mov	r9, #0
 871:src/network.c ****       DispClrBelowMW(MW_LINE3);
 3250              		.loc 1 871 0
 3251 0110 FFF7FEFF 		bl	strcpy
 3252              	.LVL472:
 3253              		.loc 1 872 0
 3254 0114 4B46     		mov	r3, r9
 3255 0116 2321     		movs	r1, #35
 3256 0118 4FF44072 		mov	r2, #768
 3257 011c CDF80090 		str	r9, [sp]
 3258 0120 0F20     		movs	r0, #15
 3259 0122 FFF7FEFF 		bl	lib_app_call
 3260              	.LVL473:
ARM GAS  C:\Users\AHMED~1.ELE\AppData\Local\Temp\ccb86Llj.s 			page 75


 873:src/network.c ****       sprintf(disp_buf, "Send Cmd : %s", tmp);
 3261              		.loc 1 873 0
 3262 0126 5449     		ldr	r1, .L308+12
 3263 0128 10AA     		add	r2, sp, #64
 3264 012a 09A8     		add	r0, sp, #36
 3265 012c FFF7FEFF 		bl	sprintf
 3266              	.LVL474:
 3267              	.LBB56:
 874:src/network.c ****       DispLineMW(disp_buf, MW_LINE2,  MW_SPFONT);
 3268              		.loc 1 874 0
 3269 0130 09A8     		add	r0, sp, #36
 3270 0132 FFF7FEFF 		bl	strlen
 3271              	.LVL475:
 3272 0136 0646     		mov	r6, r0
 3273              	.LVL476:
 3274 0138 711C     		adds	r1, r6, #1
 3275 013a 9220     		movs	r0, #146
 3276              	.LVL477:
 3277 013c FFF7FEFF 		bl	sys_func1
 3278              	.LVL478:
 3279 0140 0446     		mov	r4, r0
 3280 0142 98B1     		cbz	r0, .L275
 3281              		.loc 1 874 0 is_stmt 0 discriminator 1
 3282 0144 09A9     		add	r1, sp, #36
 3283 0146 3246     		mov	r2, r6
 3284 0148 FFF7FEFF 		bl	memcpy
 3285              	.LVL479:
 3286 014c 4FF40053 		mov	r3, #8192
 3287 0150 04F80690 		strb	r9, [r4, r6]
 3288 0154 2521     		movs	r1, #37
 3289 0156 0093     		str	r3, [sp]
 3290 0158 0F20     		movs	r0, #15
 3291 015a 2246     		mov	r2, r4
 3292 015c 4FF40073 		mov	r3, #512
 3293 0160 FFF7FEFF 		bl	lib_app_call
 3294              	.LVL480:
 3295 0164 9420     		movs	r0, #148
 3296 0166 2146     		mov	r1, r4
 3297 0168 FFF7FEFF 		bl	sys_func1
 3298              	.LVL481:
 3299              	.L275:
 3300              	.LBE56:
 875:src/network.c ****       at_cmd.d_timeout = LOOP_DELAY;
 3301              		.loc 1 875 0 is_stmt 1
 3302 016c 50AE     		add	r6, sp, #320
 3303              	.LVL482:
 3304 016e 4FF41673 		mov	r3, #600
 3305 0172 3446     		mov	r4, r6
 3306              	.LVL483:
 876:src/network.c ****       memset(at_cmd.sb_content, 0x00, sizeof(at_cmd.sb_content));
 3307              		.loc 1 876 0
 3308 0174 40F2DD52 		movw	r2, #1501
 875:src/network.c ****       at_cmd.d_timeout = LOOP_DELAY;
 3309              		.loc 1 875 0
 3310 0178 44F8043B 		str	r3, [r4], #4
 3311              		.loc 1 876 0
 3312 017c 0021     		movs	r1, #0
ARM GAS  C:\Users\AHMED~1.ELE\AppData\Local\Temp\ccb86Llj.s 			page 76


 3313 017e 2046     		mov	r0, r4
 3314 0180 FFF7FEFF 		bl	memset
 3315              	.LVL484:
 877:src/network.c ****       strcpy(at_cmd.sb_content, tmp);
 3316              		.loc 1 877 0
 3317 0184 10A9     		add	r1, sp, #64
 3318 0186 2046     		mov	r0, r4
 3319 0188 FFF7FEFF 		bl	strcpy
 3320              	.LVL485:
 878:src/network.c ****       IOCtlMW(gGprsHandle, IO_GPRS_CMDSEND, &at_cmd);
 3321              		.loc 1 878 0
 3322 018c 0096     		str	r6, [sp]
 3323 018e 0F20     		movs	r0, #15
 3324 0190 0721     		movs	r1, #7
 3325 0192 D8F80020 		ldr	r2, [r8]
 3326 0196 0223     		movs	r3, #2
 3327 0198 FFF7FEFF 		bl	lib_app_call
 3328              	.LVL486:
 879:src/network.c ****       Delay10ms(50);
 3329              		.loc 1 879 0
 3330 019c 3220     		movs	r0, #50
 3331 019e FFF7FEFF 		bl	Delay10ms
 3332              	.LVL487:
 3333              	.L276:
 880:src/network.c ****       while (!endl) {
 881:src/network.c ****         memset(at_resp.sb_content, 0, sizeof(at_resp.sb_content));
 3334              		.loc 1 881 0
 3335 01a2 0021     		movs	r1, #0
 3336 01a4 40F2DD52 		movw	r2, #1501
 3337 01a8 0DF5E560 		add	r0, sp, #1832
 3338 01ac FFF7FEFF 		bl	memset
 3339              	.LVL488:
 3340 01b0 0DF22476 		addw	r6, sp, #1828
 882:src/network.c ****         at_resp.d_maxlen = sizeof(at_resp.sb_content) - 1;  // 1 byte for NULL.
 3341              		.loc 1 882 0
 3342 01b4 40F2DC53 		movw	r3, #1500
 883:src/network.c ****         ret = IOCtlMW(gGprsHandle, IO_GPRS_CMDRESP, &at_resp);
 3343              		.loc 1 883 0
 3344 01b8 0F20     		movs	r0, #15
 882:src/network.c ****         at_resp.d_maxlen = sizeof(at_resp.sb_content) - 1;  // 1 byte for NULL.
 3345              		.loc 1 882 0
 3346 01ba 3360     		str	r3, [r6]
 3347              		.loc 1 883 0
 3348 01bc 0721     		movs	r1, #7
 3349 01be 0096     		str	r6, [sp]
 3350 01c0 D8F80020 		ldr	r2, [r8]
 3351 01c4 0323     		movs	r3, #3
 3352 01c6 FFF7FEFF 		bl	lib_app_call
 3353              	.LVL489:
 884:src/network.c ****         switch (ret) {
 3354              		.loc 1 884 0
 3355 01ca 0446     		mov	r4, r0
 3356 01cc 0028     		cmp	r0, #0
 3357 01ce E8D0     		beq	.L276
 3358 01d0 431C     		adds	r3, r0, #1
 3359 01d2 24D0     		beq	.L278
 885:src/network.c ****           case 0:       // no response;
ARM GAS  C:\Users\AHMED~1.ELE\AppData\Local\Temp\ccb86Llj.s 			page 77


 886:src/network.c ****             break;
 887:src/network.c ****           case -1:      // timeout
 888:src/network.c ****             endl = 1;
 889:src/network.c ****             break;
 890:src/network.c ****           default:
 891:src/network.c ****             at_resp.sb_content[ret] = 0;
 3360              		.loc 1 891 0
 3361 01d4 0644     		add	r6, r6, r0
 3362 01d6 0023     		movs	r3, #0
 3363 01d8 3371     		strb	r3, [r6, #4]
 3364              	.LVL490:
 3365 01da 20E0     		b	.L278
 3366              	.LVL491:
 3367              	.L271:
 3368              	.LBB57:
 892:src/network.c **** //             sprintf(disp_buf, "Rcvd Rsp: %s", at_resp.sb_content);
 893:src/network.c **** //             DispLineMW(disp_buf, MW_LINE4, MW_SPFONT);
 894:src/network.c ****             endl = 1;
 895:src/network.c ****             break;
 896:src/network.c ****         }
 897:src/network.c ****       }
 898:src/network.c ****     }
 899:src/network.c ****     else if ((status&MW_GSTS_ATREADY1) == 0) {
 900:src/network.c ****       DispLineMW("Insert SIM Card!", MW_LINE5, MW_CENTER|MW_SMFONT);
 3369              		.loc 1 900 0
 3370 01dc 9220     		movs	r0, #146
 3371 01de 1121     		movs	r1, #17
 3372 01e0 FFF7FEFF 		bl	sys_func1
 3373              	.LVL492:
 3374 01e4 0446     		mov	r4, r0
 3375 01e6 88B1     		cbz	r0, .L279
 3376              		.loc 1 900 0 is_stmt 0 discriminator 1
 3377 01e8 2449     		ldr	r1, .L308+16
 3378 01ea 1022     		movs	r2, #16
 3379 01ec FFF7FEFF 		bl	memcpy
 3380              	.LVL493:
 3381 01f0 0223     		movs	r3, #2
 3382 01f2 2674     		strb	r6, [r4, #16]
 3383 01f4 2521     		movs	r1, #37
 3384 01f6 0093     		str	r3, [sp]
 3385 01f8 0F20     		movs	r0, #15
 3386 01fa 2246     		mov	r2, r4
 3387 01fc 4FF4A063 		mov	r3, #1280
 3388 0200 FFF7FEFF 		bl	lib_app_call
 3389              	.LVL494:
 3390 0204 9420     		movs	r0, #148
 3391 0206 2146     		mov	r1, r4
 3392 0208 FFF7FEFF 		bl	sys_func1
 3393              	.LVL495:
 3394              	.L279:
 3395              	.LBE57:
 901:src/network.c ****       APM_WaitKey(200, 0);
 3396              		.loc 1 901 0 is_stmt 1
 3397 020c 0024     		movs	r4, #0
 3398              	.LVL496:
 3399 020e 0321     		movs	r1, #3
 3400 0210 0094     		str	r4, [sp]
ARM GAS  C:\Users\AHMED~1.ELE\AppData\Local\Temp\ccb86Llj.s 			page 78


 3401 0212 C822     		movs	r2, #200
 3402 0214 2346     		mov	r3, r4
 3403 0216 1020     		movs	r0, #16
 3404 0218 FFF7FEFF 		bl	lib_app_call
 3405              	.LVL497:
 902:src/network.c ****       break;
 3406              		.loc 1 902 0
 3407 021c 03E0     		b	.L280
 3408              	.LVL498:
 3409              	.L278:
 903:src/network.c ****     }
 904:src/network.c ****     loop_cnt -= loop_cnt > 0 ? 1: 0;
 905:src/network.c ****     SleepMW();
 3410              		.loc 1 905 0
 3411 021e 4FF4CE70 		mov	r0, #412
 3412 0222 FFF7FEFF 		bl	sys_func0
 3413              	.LVL499:
 3414              	.L280:
 906:src/network.c ****     if (endl)
 907:src/network.c ****       break;
 908:src/network.c ****   }
 909:src/network.c ****   if ((ret != 0) && (ret != -1)) {
 3415              		.loc 1 909 0
 3416 0226 013C     		subs	r4, r4, #1
 3417              	.LVL500:
 3418 0228 0334     		adds	r4, r4, #3
 3419              	.LVL501:
 3420 022a 3FF61BAF 		bhi	.L282
 910:src/network.c ****     // valid response received
 911:src/network.c ****     if ((model == G510) || (model == H330) || (model == HL6) || (model == HL8)) {
 3421              		.loc 1 911 0
 3422 022e 012D     		cmp	r5, #1
 912:src/network.c ****       // G510/H330/HL6/HL8
 913:src/network.c ****       s_ptr = strstr(at_resp.sb_content, "+CCID:");
 3423              		.loc 1 913 0
 3424 0230 0DF5E560 		add	r0, sp, #1832
 911:src/network.c ****       // G510/H330/HL6/HL8
 3425              		.loc 1 911 0
 3426 0234 02D9     		bls	.L283
 911:src/network.c ****       // G510/H330/HL6/HL8
 3427              		.loc 1 911 0 is_stmt 0 discriminator 1
 3428 0236 033D     		subs	r5, r5, #3
 3429              	.LVL502:
 3430 0238 012D     		cmp	r5, #1
 3431 023a 07D8     		bhi	.L284
 3432              	.L283:
 3433              		.loc 1 913 0 is_stmt 1
 3434 023c 1049     		ldr	r1, .L308+20
 3435 023e FFF7FEFF 		bl	strstr
 3436              	.LVL503:
 914:src/network.c ****       if (s_ptr != NULL) {
 3437              		.loc 1 914 0
 3438 0242 0146     		mov	r1, r0
 3439 0244 60B1     		cbz	r0, .L291
 915:src/network.c ****         memcpy(aCCID, s_ptr+7, 20);
 3440              		.loc 1 915 0
 3441 0246 3846     		mov	r0, r7
ARM GAS  C:\Users\AHMED~1.ELE\AppData\Local\Temp\ccb86Llj.s 			page 79


 3442              	.LVL504:
 3443 0248 0731     		adds	r1, r1, #7
 3444              	.LVL505:
 3445 024a 06E0     		b	.L307
 3446              	.LVL506:
 3447              	.L284:
 916:src/network.c ****       }
 917:src/network.c ****     }
 918:src/network.c ****     else {
 919:src/network.c ****       // UC15
 920:src/network.c ****       s_ptr = strstr(at_resp.sb_content, "+QCCID:");
 3448              		.loc 1 920 0
 3449 024c 0D49     		ldr	r1, .L308+24
 3450 024e FFF7FEFF 		bl	strstr
 3451              	.LVL507:
 921:src/network.c ****       if (s_ptr != NULL) {
 3452              		.loc 1 921 0
 3453 0252 0146     		mov	r1, r0
 3454 0254 20B1     		cbz	r0, .L291
 922:src/network.c ****         memcpy(aCCID, s_ptr+8, 20);
 3455              		.loc 1 922 0
 3456 0256 3846     		mov	r0, r7
 3457              	.LVL508:
 3458 0258 0831     		adds	r1, r1, #8
 3459              	.LVL509:
 3460              	.L307:
 3461 025a 1422     		movs	r2, #20
 3462 025c FFF7FEFF 		bl	memcpy
 3463              	.LVL510:
 3464              	.L291:
 923:src/network.c ****       }
 924:src/network.c ****     }
 925:src/network.c ****     return TRUE;
 3465              		.loc 1 925 0
 3466 0260 0120     		movs	r0, #1
 3467              	.LVL511:
 3468              	.L267:
 926:src/network.c ****   }
 927:src/network.c ****   return FALSE;
 928:src/network.c **** }
 3469              		.loc 1 928 0
 3470 0262 0DF6085D 		addw	sp, sp, #3336
 3471              		.cfi_def_cfa_offset 32
 3472              		@ sp needed
 3473 0266 BDE8F087 		pop	{r4, r5, r6, r7, r8, r9, r10, pc}
 3474              	.LVL512:
 3475              	.L309:
 3476 026a 00BF     		.align	2
 3477              	.L308:
 3478 026c 7F010000 		.word	.LC42
 3479 0270 B5010000 		.word	.LC46
 3480 0274 C0010000 		.word	.LC47
 3481 0278 96010000 		.word	.LC44
 3482 027c A4010000 		.word	.LC45
 3483 0280 CB010000 		.word	.LC48
 3484 0284 D2010000 		.word	.LC49
 3485 0288 00000000 		.word	gGprsHandle
ARM GAS  C:\Users\AHMED~1.ELE\AppData\Local\Temp\ccb86Llj.s 			page 80


 3486              		.cfi_endproc
 3487              	.LFE14:
 3488              		.size	GetSimCCID, .-GetSimCCID
 3489              		.section	.text.MobileNumTest,"ax",%progbits
 3490              		.align	1
 3491              		.global	MobileNumTest
 3492              		.thumb
 3493              		.thumb_func
 3494              		.type	MobileNumTest, %function
 3495              	MobileNumTest:
 3496              	.LFB15:
 929:src/network.c **** //*****************************************************************************
 930:src/network.c **** //  Function        : MobileNumTest
 931:src/network.c **** //  Description     : Get Mobile Subscriber's Number
 932:src/network.c **** //  Input           : N/A
 933:src/network.c **** //  Return          : N/A
 934:src/network.c **** //  Note            : N/A
 935:src/network.c **** //  Globals Changed : N/A
 936:src/network.c **** //*****************************************************************************
 937:src/network.c **** void MobileNumTest(void)
 938:src/network.c **** {
 3497              		.loc 1 938 0
 3498              		.cfi_startproc
 3499              		@ args = 0, pretend = 0, frame = 96
 3500              		@ frame_needed = 0, uses_anonymous_args = 0
 3501 0000 30B5     		push	{r4, r5, lr}
 3502              		.cfi_def_cfa_offset 12
 3503              		.cfi_offset 4, -12
 3504              		.cfi_offset 5, -8
 3505              		.cfi_offset 14, -4
 939:src/network.c ****   BYTE buf[64], num[32];
 940:src/network.c ****   
 941:src/network.c ****   DispClrBelowMW(MW_LINE2);
 3506              		.loc 1 941 0
 3507 0002 0024     		movs	r4, #0
 938:src/network.c ****   BYTE buf[64], num[32];
 3508              		.loc 1 938 0
 3509 0004 9BB0     		sub	sp, sp, #108
 3510              		.cfi_def_cfa_offset 120
 3511              		.loc 1 941 0
 3512 0006 2346     		mov	r3, r4
 3513 0008 2321     		movs	r1, #35
 3514 000a 4FF40072 		mov	r2, #512
 3515 000e 0094     		str	r4, [sp]
 3516 0010 0F20     		movs	r0, #15
 3517 0012 FFF7FEFF 		bl	lib_app_call
 3518              	.LVL513:
 942:src/network.c ****   memset(num, 0, sizeof(num));
 3519              		.loc 1 942 0
 3520 0016 2146     		mov	r1, r4
 3521 0018 2022     		movs	r2, #32
 3522 001a 02A8     		add	r0, sp, #8
 3523 001c FFF7FEFF 		bl	memset
 3524              	.LVL514:
 943:src/network.c ****   if (GetMobileNum(num) == TRUE) {
 3525              		.loc 1 943 0
 3526 0020 02A8     		add	r0, sp, #8
ARM GAS  C:\Users\AHMED~1.ELE\AppData\Local\Temp\ccb86Llj.s 			page 81


 3527 0022 FFF7FEFF 		bl	GetMobileNum
 3528              	.LVL515:
 3529 0026 0128     		cmp	r0, #1
 3530              	.LBB58:
 944:src/network.c ****     DispLineMW("Mobile No:", MW_LINE4, MW_SMFONT);
 3531              		.loc 1 944 0
 3532 0028 4FF09200 		mov	r0, #146
 3533              	.LBE58:
 943:src/network.c ****   if (GetMobileNum(num) == TRUE) {
 3534              		.loc 1 943 0
 3535 002c 34D1     		bne	.L311
 3536              	.LVL516:
 3537              	.LBB59:
 3538              		.loc 1 944 0
 3539 002e 0B21     		movs	r1, #11
 3540 0030 FFF7FEFF 		bl	sys_func1
 3541              	.LVL517:
 3542 0034 0546     		mov	r5, r0
 3543 0036 80B1     		cbz	r0, .L312
 3544              		.loc 1 944 0 is_stmt 0 discriminator 1
 3545 0038 2849     		ldr	r1, .L323
 3546 003a 0A22     		movs	r2, #10
 3547 003c FFF7FEFF 		bl	memcpy
 3548              	.LVL518:
 3549 0040 AC72     		strb	r4, [r5, #10]
 3550 0042 2521     		movs	r1, #37
 3551 0044 0094     		str	r4, [sp]
 3552 0046 0F20     		movs	r0, #15
 3553 0048 2A46     		mov	r2, r5
 3554 004a 4FF48063 		mov	r3, #1024
 3555 004e FFF7FEFF 		bl	lib_app_call
 3556              	.LVL519:
 3557 0052 9420     		movs	r0, #148
 3558 0054 2946     		mov	r1, r5
 3559 0056 FFF7FEFF 		bl	sys_func1
 3560              	.LVL520:
 3561              	.L312:
 3562              	.LBE59:
 945:src/network.c ****     SprintfMW(buf, "%s", num);
 3563              		.loc 1 945 0 is_stmt 1
 3564 005a 02A9     		add	r1, sp, #8
 3565 005c 0AA8     		add	r0, sp, #40
 3566 005e FFF7FEFF 		bl	strcpy
 3567              	.LVL521:
 3568              	.LBB60:
 946:src/network.c ****     DispLineMW(buf, MW_LINE5, MW_SMFONT);
 3569              		.loc 1 946 0
 3570 0062 0AA8     		add	r0, sp, #40
 3571 0064 FFF7FEFF 		bl	strlen
 3572              	.LVL522:
 3573 0068 0546     		mov	r5, r0
 3574              	.LVL523:
 3575 006a 691C     		adds	r1, r5, #1
 3576 006c 9220     		movs	r0, #146
 3577              	.LVL524:
 3578 006e FFF7FEFF 		bl	sys_func1
 3579              	.LVL525:
ARM GAS  C:\Users\AHMED~1.ELE\AppData\Local\Temp\ccb86Llj.s 			page 82


 3580 0072 0446     		mov	r4, r0
 3581 0074 38B3     		cbz	r0, .L314
 3582              		.loc 1 946 0 is_stmt 0 discriminator 1
 3583 0076 0AA9     		add	r1, sp, #40
 3584 0078 2A46     		mov	r2, r5
 3585 007a FFF7FEFF 		bl	memcpy
 3586              	.LVL526:
 3587 007e 0023     		movs	r3, #0
 3588 0080 2521     		movs	r1, #37
 3589 0082 6355     		strb	r3, [r4, r5]
 3590 0084 0F20     		movs	r0, #15
 3591 0086 0093     		str	r3, [sp]
 3592 0088 2246     		mov	r2, r4
 3593 008a 4FF4A063 		mov	r3, #1280
 3594 008e FFF7FEFF 		bl	lib_app_call
 3595              	.LVL527:
 3596 0092 9420     		movs	r0, #148
 3597 0094 2146     		mov	r1, r4
 3598 0096 14E0     		b	.L322
 3599              	.LVL528:
 3600              	.L311:
 3601              	.LBE60:
 3602              	.LBB61:
 947:src/network.c ****   }
 948:src/network.c ****   else {
 949:src/network.c ****     DispLineMW("Get Num Failed!", MW_LINE5, MW_CENTER|MW_SMFONT);
 3603              		.loc 1 949 0 is_stmt 1
 3604 0098 1021     		movs	r1, #16
 3605 009a FFF7FEFF 		bl	sys_func1
 3606              	.LVL529:
 3607 009e 0546     		mov	r5, r0
 3608 00a0 88B1     		cbz	r0, .L314
 3609              		.loc 1 949 0 is_stmt 0 discriminator 1
 3610 00a2 0F49     		ldr	r1, .L323+4
 3611 00a4 0F22     		movs	r2, #15
 3612 00a6 FFF7FEFF 		bl	memcpy
 3613              	.LVL530:
 3614 00aa 0223     		movs	r3, #2
 3615 00ac EC73     		strb	r4, [r5, #15]
 3616 00ae 2521     		movs	r1, #37
 3617 00b0 0093     		str	r3, [sp]
 3618 00b2 0F20     		movs	r0, #15
 3619 00b4 2A46     		mov	r2, r5
 3620 00b6 4FF4A063 		mov	r3, #1280
 3621 00ba FFF7FEFF 		bl	lib_app_call
 3622              	.LVL531:
 3623 00be 9420     		movs	r0, #148
 3624 00c0 2946     		mov	r1, r5
 3625              	.LVL532:
 3626              	.L322:
 3627 00c2 FFF7FEFF 		bl	sys_func1
 3628              	.LVL533:
 3629              	.L314:
 3630              	.LBE61:
 950:src/network.c ****   }
 951:src/network.c ****   APM_WaitKey(KBD_TIMEOUT, 0);
 3631              		.loc 1 951 0 is_stmt 1
ARM GAS  C:\Users\AHMED~1.ELE\AppData\Local\Temp\ccb86Llj.s 			page 83


 3632 00c6 0023     		movs	r3, #0
 3633 00c8 0321     		movs	r1, #3
 3634 00ca 0093     		str	r3, [sp]
 3635 00cc 42F22832 		movw	r2, #9000
 3636 00d0 1020     		movs	r0, #16
 3637 00d2 FFF7FEFF 		bl	lib_app_call
 3638              	.LVL534:
 952:src/network.c **** }
 3639              		.loc 1 952 0
 3640 00d6 1BB0     		add	sp, sp, #108
 3641              		.cfi_def_cfa_offset 12
 3642              		@ sp needed
 3643 00d8 30BD     		pop	{r4, r5, pc}
 3644              	.L324:
 3645 00da 00BF     		.align	2
 3646              	.L323:
 3647 00dc DA010000 		.word	.LC50
 3648 00e0 E5010000 		.word	.LC51
 3649              		.cfi_endproc
 3650              	.LFE15:
 3651              		.size	MobileNumTest, .-MobileNumTest
 3652              		.section	.text.SNTest,"ax",%progbits
 3653              		.align	1
 3654              		.global	SNTest
 3655              		.thumb
 3656              		.thumb_func
 3657              		.type	SNTest, %function
 3658              	SNTest:
 3659              	.LFB16:
 953:src/network.c **** //*****************************************************************************
 954:src/network.c **** //  Function        : SNTest
 955:src/network.c **** //  Description     : Get SIM serial
 956:src/network.c **** //  Input           : N/A
 957:src/network.c **** //  Return          : N/A
 958:src/network.c **** //  Note            : N/A
 959:src/network.c **** //  Globals Changed : N/A
 960:src/network.c **** //*****************************************************************************
 961:src/network.c **** void SNTest(void)
 962:src/network.c **** {
 3660              		.loc 1 962 0
 3661              		.cfi_startproc
 3662              		@ args = 0, pretend = 0, frame = 96
 3663              		@ frame_needed = 0, uses_anonymous_args = 0
 3664 0000 30B5     		push	{r4, r5, lr}
 3665              		.cfi_def_cfa_offset 12
 3666              		.cfi_offset 4, -12
 3667              		.cfi_offset 5, -8
 3668              		.cfi_offset 14, -4
 963:src/network.c ****   BYTE buf[64], sn[32];
 964:src/network.c ****   
 965:src/network.c ****   DispClrBelowMW(MW_LINE2);
 3669              		.loc 1 965 0
 3670 0002 0024     		movs	r4, #0
 962:src/network.c ****   BYTE buf[64], sn[32];
 3671              		.loc 1 962 0
 3672 0004 9BB0     		sub	sp, sp, #108
 3673              		.cfi_def_cfa_offset 120
ARM GAS  C:\Users\AHMED~1.ELE\AppData\Local\Temp\ccb86Llj.s 			page 84


 3674              		.loc 1 965 0
 3675 0006 2346     		mov	r3, r4
 3676 0008 2321     		movs	r1, #35
 3677 000a 4FF40072 		mov	r2, #512
 3678 000e 0094     		str	r4, [sp]
 3679 0010 0F20     		movs	r0, #15
 3680 0012 FFF7FEFF 		bl	lib_app_call
 3681              	.LVL535:
 966:src/network.c ****   memset(sn, 0, sizeof(sn));
 3682              		.loc 1 966 0
 3683 0016 2146     		mov	r1, r4
 3684 0018 2022     		movs	r2, #32
 3685 001a 02A8     		add	r0, sp, #8
 3686 001c FFF7FEFF 		bl	memset
 3687              	.LVL536:
 967:src/network.c ****   if (GetSimCCID(sn) == TRUE) {
 3688              		.loc 1 967 0
 3689 0020 02A8     		add	r0, sp, #8
 3690 0022 FFF7FEFF 		bl	GetSimCCID
 3691              	.LVL537:
 3692 0026 0128     		cmp	r0, #1
 3693              	.LBB62:
 968:src/network.c ****     DispLineMW("SIM SN:", MW_LINE4, MW_SMFONT);
 3694              		.loc 1 968 0
 3695 0028 4FF09200 		mov	r0, #146
 3696              	.LBE62:
 967:src/network.c ****   if (GetSimCCID(sn) == TRUE) {
 3697              		.loc 1 967 0
 3698 002c 36D1     		bne	.L326
 3699              	.LVL538:
 3700              	.LBB63:
 3701              		.loc 1 968 0
 3702 002e 0821     		movs	r1, #8
 3703 0030 FFF7FEFF 		bl	sys_func1
 3704              	.LVL539:
 3705 0034 0546     		mov	r5, r0
 3706 0036 80B1     		cbz	r0, .L327
 3707              		.loc 1 968 0 is_stmt 0 discriminator 1
 3708 0038 2949     		ldr	r1, .L338
 3709 003a 0722     		movs	r2, #7
 3710 003c FFF7FEFF 		bl	memcpy
 3711              	.LVL540:
 3712 0040 EC71     		strb	r4, [r5, #7]
 3713 0042 2521     		movs	r1, #37
 3714 0044 0094     		str	r4, [sp]
 3715 0046 0F20     		movs	r0, #15
 3716 0048 2A46     		mov	r2, r5
 3717 004a 4FF48063 		mov	r3, #1024
 3718 004e FFF7FEFF 		bl	lib_app_call
 3719              	.LVL541:
 3720 0052 9420     		movs	r0, #148
 3721 0054 2946     		mov	r1, r5
 3722 0056 FFF7FEFF 		bl	sys_func1
 3723              	.LVL542:
 3724              	.L327:
 3725              	.LBE63:
 969:src/network.c ****     SprintfMW(buf, "%s", sn);
ARM GAS  C:\Users\AHMED~1.ELE\AppData\Local\Temp\ccb86Llj.s 			page 85


 3726              		.loc 1 969 0 is_stmt 1
 3727 005a 02A9     		add	r1, sp, #8
 3728 005c 0AA8     		add	r0, sp, #40
 3729 005e FFF7FEFF 		bl	strcpy
 3730              	.LVL543:
 3731              	.LBB64:
 970:src/network.c ****     DispLineMW(buf, MW_LINE5, MW_SPFONT);
 3732              		.loc 1 970 0
 3733 0062 0AA8     		add	r0, sp, #40
 3734 0064 FFF7FEFF 		bl	strlen
 3735              	.LVL544:
 3736 0068 0546     		mov	r5, r0
 3737              	.LVL545:
 3738 006a 691C     		adds	r1, r5, #1
 3739 006c 9220     		movs	r0, #146
 3740              	.LVL546:
 3741 006e FFF7FEFF 		bl	sys_func1
 3742              	.LVL547:
 3743 0072 0446     		mov	r4, r0
 3744 0074 48B3     		cbz	r0, .L329
 3745              		.loc 1 970 0 is_stmt 0 discriminator 1
 3746 0076 0AA9     		add	r1, sp, #40
 3747 0078 2A46     		mov	r2, r5
 3748 007a FFF7FEFF 		bl	memcpy
 3749              	.LVL548:
 3750 007e 0023     		movs	r3, #0
 3751 0080 2521     		movs	r1, #37
 3752 0082 6355     		strb	r3, [r4, r5]
 3753 0084 4FF40053 		mov	r3, #8192
 3754 0088 0F20     		movs	r0, #15
 3755 008a 0093     		str	r3, [sp]
 3756 008c 2246     		mov	r2, r4
 3757 008e 4FF4A063 		mov	r3, #1280
 3758 0092 FFF7FEFF 		bl	lib_app_call
 3759              	.LVL549:
 3760 0096 9420     		movs	r0, #148
 3761 0098 2146     		mov	r1, r4
 3762 009a 14E0     		b	.L337
 3763              	.LVL550:
 3764              	.L326:
 3765              	.LBE64:
 3766              	.LBB65:
 971:src/network.c ****   }
 972:src/network.c ****   else {
 973:src/network.c ****     DispLineMW("Get SN Failed!", MW_LINE5, MW_CENTER|MW_SMFONT);
 3767              		.loc 1 973 0 is_stmt 1
 3768 009c 0F21     		movs	r1, #15
 3769 009e FFF7FEFF 		bl	sys_func1
 3770              	.LVL551:
 3771 00a2 0546     		mov	r5, r0
 3772 00a4 88B1     		cbz	r0, .L329
 3773              		.loc 1 973 0 is_stmt 0 discriminator 1
 3774 00a6 0F49     		ldr	r1, .L338+4
 3775 00a8 0E22     		movs	r2, #14
 3776 00aa FFF7FEFF 		bl	memcpy
 3777              	.LVL552:
 3778 00ae 0223     		movs	r3, #2
ARM GAS  C:\Users\AHMED~1.ELE\AppData\Local\Temp\ccb86Llj.s 			page 86


 3779 00b0 AC73     		strb	r4, [r5, #14]
 3780 00b2 2521     		movs	r1, #37
 3781 00b4 0093     		str	r3, [sp]
 3782 00b6 0F20     		movs	r0, #15
 3783 00b8 2A46     		mov	r2, r5
 3784 00ba 4FF4A063 		mov	r3, #1280
 3785 00be FFF7FEFF 		bl	lib_app_call
 3786              	.LVL553:
 3787 00c2 9420     		movs	r0, #148
 3788 00c4 2946     		mov	r1, r5
 3789              	.LVL554:
 3790              	.L337:
 3791 00c6 FFF7FEFF 		bl	sys_func1
 3792              	.LVL555:
 3793              	.L329:
 3794              	.LBE65:
 974:src/network.c ****   }
 975:src/network.c ****   APM_WaitKey(KBD_TIMEOUT, 0);
 3795              		.loc 1 975 0 is_stmt 1
 3796 00ca 0023     		movs	r3, #0
 3797 00cc 0321     		movs	r1, #3
 3798 00ce 0093     		str	r3, [sp]
 3799 00d0 42F22832 		movw	r2, #9000
 3800 00d4 1020     		movs	r0, #16
 3801 00d6 FFF7FEFF 		bl	lib_app_call
 3802              	.LVL556:
 976:src/network.c **** }
 3803              		.loc 1 976 0
 3804 00da 1BB0     		add	sp, sp, #108
 3805              		.cfi_def_cfa_offset 12
 3806              		@ sp needed
 3807 00dc 30BD     		pop	{r4, r5, pc}
 3808              	.L339:
 3809 00de 00BF     		.align	2
 3810              	.L338:
 3811 00e0 F5010000 		.word	.LC52
 3812 00e4 FD010000 		.word	.LC53
 3813              		.cfi_endproc
 3814              	.LFE16:
 3815              		.size	SNTest, .-SNTest
 3816              		.section	.text.GetPPPStatus,"ax",%progbits
 3817              		.align	1
 3818              		.global	GetPPPStatus
 3819              		.thumb
 3820              		.thumb_func
 3821              		.type	GetPPPStatus, %function
 3822              	GetPPPStatus:
 3823              	.LFB17:
 977:src/network.c **** #endif //(T300|T810|A5T1000|T1000|T800|T700|TIRO)
 978:src/network.c **** 
 979:src/network.c **** //*****************************************************************************
 980:src/network.c **** //  Function        : GetPPPStatus
 981:src/network.c **** //  Description     : Return current PPP status
 982:src/network.c **** //  Input           : N/A
 983:src/network.c **** //  Return          : PPP status;
 984:src/network.c **** //  Note            : N/A
 985:src/network.c **** //  Globals Changed : N/A
ARM GAS  C:\Users\AHMED~1.ELE\AppData\Local\Temp\ccb86Llj.s 			page 87


 986:src/network.c **** //*****************************************************************************
 987:src/network.c **** DWORD GetPPPStatus(void)
 988:src/network.c **** {
 3824              		.loc 1 988 0
 3825              		.cfi_startproc
 3826              		@ args = 0, pretend = 0, frame = 0
 3827              		@ frame_needed = 0, uses_anonymous_args = 0
 989:src/network.c ****   return IOCtlMW(gPppHandle, IO_PPP_GET_PHASE, NULL);
 3828              		.loc 1 989 0
 3829 0000 0023     		movs	r3, #0
 988:src/network.c ****   return IOCtlMW(gPppHandle, IO_PPP_GET_PHASE, NULL);
 3830              		.loc 1 988 0
 3831 0002 07B5     		push	{r0, r1, r2, lr}
 3832              		.cfi_def_cfa_offset 16
 3833              		.cfi_offset 14, -4
 3834              		.loc 1 989 0
 3835 0004 0721     		movs	r1, #7
 3836 0006 0093     		str	r3, [sp]
 3837 0008 044B     		ldr	r3, .L341
 3838 000a 0F20     		movs	r0, #15
 3839 000c 1A68     		ldr	r2, [r3]
 3840 000e 0523     		movs	r3, #5
 3841 0010 FFF7FEFF 		bl	lib_app_call
 3842              	.LVL557:
 990:src/network.c **** }
 3843              		.loc 1 990 0
 3844 0014 03B0     		add	sp, sp, #12
 3845              		.cfi_def_cfa_offset 4
 3846              		@ sp needed
 3847 0016 5DF804FB 		ldr	pc, [sp], #4
 3848              	.L342:
 3849 001a 00BF     		.align	2
 3850              	.L341:
 3851 001c 00000000 		.word	gPppHandle
 3852              		.cfi_endproc
 3853              	.LFE17:
 3854              		.size	GetPPPStatus, .-GetPPPStatus
 3855              		.section	.text.DispNifInfo2,"ax",%progbits
 3856              		.align	1
 3857              		.global	DispNifInfo2
 3858              		.thumb
 3859              		.thumb_func
 3860              		.type	DispNifInfo2, %function
 3861              	DispNifInfo2:
 3862              	.LFB18:
 991:src/network.c **** //*****************************************************************************
 992:src/network.c **** //  Function        : DispNifInfo2
 993:src/network.c **** //  Description     : Display NIF INFO2
 994:src/network.c **** //  Input           : aNifInfo2;
 995:src/network.c **** //  Return          : N/A
 996:src/network.c **** //  Note            : N/A
 997:src/network.c **** //  Globals Changed : PC1210 new added
 998:src/network.c **** //*****************************************************************************
 999:src/network.c **** #ifdef bs_net_nif_info2 //PC1210 new added
1000:src/network.c **** void DispNifInfo2(T_NIF_INFO2 aNifInfo2)
1001:src/network.c **** {
 3863              		.loc 1 1001 0
ARM GAS  C:\Users\AHMED~1.ELE\AppData\Local\Temp\ccb86Llj.s 			page 88


 3864              		.cfi_startproc
 3865              		@ args = 100, pretend = 16, frame = 0
 3866              		@ frame_needed = 0, uses_anonymous_args = 0
 3867 0000 84B0     		sub	sp, sp, #16
 3868              		.cfi_def_cfa_offset 16
 3869 0002 37B5     		push	{r0, r1, r2, r4, r5, lr}
 3870              		.cfi_def_cfa_offset 40
 3871              		.cfi_offset 4, -28
 3872              		.cfi_offset 5, -24
 3873              		.cfi_offset 14, -20
 3874              		.loc 1 1001 0
 3875 0004 06AC     		add	r4, sp, #24
 3876 0006 84E80F00 		stmia	r4, {r0, r1, r2, r3}
1002:src/network.c ****   DispClrBelowMW(MW_LINE2);
 3877              		.loc 1 1002 0
 3878 000a 0024     		movs	r4, #0
 3879 000c 2321     		movs	r1, #35
 3880 000e 4FF40072 		mov	r2, #512
 3881 0012 2346     		mov	r3, r4
 3882 0014 0094     		str	r4, [sp]
 3883 0016 0F20     		movs	r0, #15
 3884 0018 FFF7FEFF 		bl	lib_app_call
 3885              	.LVL558:
 3886              	.LBB66:
1003:src/network.c ****   DispLineMW("IP Address", MW_LINE2, MW_SMFONT);
 3887              		.loc 1 1003 0
 3888 001c 9220     		movs	r0, #146
 3889 001e 0B21     		movs	r1, #11
 3890 0020 FFF7FEFF 		bl	sys_func1
 3891              	.LVL559:
 3892 0024 0546     		mov	r5, r0
 3893 0026 80B1     		cbz	r0, .L344
 3894              		.loc 1 1003 0 is_stmt 0 discriminator 1
 3895 0028 2B49     		ldr	r1, .L356
 3896 002a 0A22     		movs	r2, #10
 3897 002c FFF7FEFF 		bl	memcpy
 3898              	.LVL560:
 3899 0030 AC72     		strb	r4, [r5, #10]
 3900 0032 2521     		movs	r1, #37
 3901 0034 0094     		str	r4, [sp]
 3902 0036 0F20     		movs	r0, #15
 3903 0038 2A46     		mov	r2, r5
 3904 003a 4FF40073 		mov	r3, #512
 3905 003e FFF7FEFF 		bl	lib_app_call
 3906              	.LVL561:
 3907 0042 9420     		movs	r0, #148
 3908 0044 2946     		mov	r1, r5
 3909 0046 FFF7FEFF 		bl	sys_func1
 3910              	.LVL562:
 3911              	.L344:
 3912              	.LBE66:
1004:src/network.c ****   ShowIp((BYTE*)&aNifInfo2.d_ip, MW_LINE3, FALSE);
 3913              		.loc 1 1004 0 is_stmt 1
 3914 004a 06A8     		add	r0, sp, #24
 3915 004c 4FF44071 		mov	r1, #768
 3916 0050 0022     		movs	r2, #0
 3917 0052 FFF7FEFF 		bl	ShowIp
ARM GAS  C:\Users\AHMED~1.ELE\AppData\Local\Temp\ccb86Llj.s 			page 89


 3918              	.LVL563:
 3919              	.LBB67:
1005:src/network.c ****   DispLineMW("Netmask", MW_LINE4, MW_SMFONT);
 3920              		.loc 1 1005 0
 3921 0056 9220     		movs	r0, #146
 3922 0058 0821     		movs	r1, #8
 3923 005a FFF7FEFF 		bl	sys_func1
 3924              	.LVL564:
 3925 005e 0446     		mov	r4, r0
 3926 0060 88B1     		cbz	r0, .L345
 3927              		.loc 1 1005 0 is_stmt 0 discriminator 1
 3928 0062 1E49     		ldr	r1, .L356+4
 3929 0064 0722     		movs	r2, #7
 3930 0066 FFF7FEFF 		bl	memcpy
 3931              	.LVL565:
 3932 006a 0023     		movs	r3, #0
 3933 006c 2521     		movs	r1, #37
 3934 006e E371     		strb	r3, [r4, #7]
 3935 0070 0F20     		movs	r0, #15
 3936 0072 0093     		str	r3, [sp]
 3937 0074 2246     		mov	r2, r4
 3938 0076 4FF48063 		mov	r3, #1024
 3939 007a FFF7FEFF 		bl	lib_app_call
 3940              	.LVL566:
 3941 007e 9420     		movs	r0, #148
 3942 0080 2146     		mov	r1, r4
 3943 0082 FFF7FEFF 		bl	sys_func1
 3944              	.LVL567:
 3945              	.L345:
 3946              	.LBE67:
1006:src/network.c ****   ShowIp((BYTE*)&aNifInfo2.d_netmask, MW_LINE5, FALSE);
 3947              		.loc 1 1006 0 is_stmt 1
 3948 0086 07A8     		add	r0, sp, #28
 3949 0088 4FF4A061 		mov	r1, #1280
 3950 008c 0022     		movs	r2, #0
 3951 008e FFF7FEFF 		bl	ShowIp
 3952              	.LVL568:
 3953              	.LBB68:
1007:src/network.c ****   DispLineMW("Gateway IP", MW_LINE6, MW_SMFONT);
 3954              		.loc 1 1007 0
 3955 0092 9220     		movs	r0, #146
 3956 0094 0B21     		movs	r1, #11
 3957 0096 FFF7FEFF 		bl	sys_func1
 3958              	.LVL569:
 3959 009a 0446     		mov	r4, r0
 3960              	.LVL570:
 3961 009c 88B1     		cbz	r0, .L346
 3962              		.loc 1 1007 0 is_stmt 0 discriminator 1
 3963 009e 1049     		ldr	r1, .L356+8
 3964 00a0 0A22     		movs	r2, #10
 3965 00a2 FFF7FEFF 		bl	memcpy
 3966              	.LVL571:
 3967 00a6 0023     		movs	r3, #0
 3968 00a8 2521     		movs	r1, #37
 3969 00aa A372     		strb	r3, [r4, #10]
 3970 00ac 0F20     		movs	r0, #15
 3971 00ae 0093     		str	r3, [sp]
ARM GAS  C:\Users\AHMED~1.ELE\AppData\Local\Temp\ccb86Llj.s 			page 90


 3972 00b0 2246     		mov	r2, r4
 3973 00b2 4FF4C063 		mov	r3, #1536
 3974 00b6 FFF7FEFF 		bl	lib_app_call
 3975              	.LVL572:
 3976 00ba 9420     		movs	r0, #148
 3977 00bc 2146     		mov	r1, r4
 3978 00be FFF7FEFF 		bl	sys_func1
 3979              	.LVL573:
 3980              	.L346:
 3981              	.LBE68:
1008:src/network.c ****   ShowIp((BYTE*)&aNifInfo2.d_gateway, MW_LINE7, FALSE);
 3982              		.loc 1 1008 0 is_stmt 1
 3983 00c2 08A8     		add	r0, sp, #32
 3984 00c4 4FF4E061 		mov	r1, #1792
 3985 00c8 0022     		movs	r2, #0
 3986 00ca FFF7FEFF 		bl	ShowIp
 3987              	.LVL574:
1009:src/network.c **** }
 3988              		.loc 1 1009 0
 3989 00ce 03B0     		add	sp, sp, #12
 3990              		.cfi_def_cfa_offset 28
 3991              		@ sp needed
 3992 00d0 BDE83040 		pop	{r4, r5, lr}
 3993              		.cfi_restore 14
 3994              		.cfi_restore 5
 3995              		.cfi_restore 4
 3996              		.cfi_def_cfa_offset 16
 3997              	.LVL575:
 3998 00d4 04B0     		add	sp, sp, #16
 3999              		.cfi_def_cfa_offset 0
 4000 00d6 7047     		bx	lr
 4001              	.L357:
 4002              		.align	2
 4003              	.L356:
 4004 00d8 0C020000 		.word	.LC54
 4005 00dc 17020000 		.word	.LC55
 4006 00e0 1F020000 		.word	.LC56
 4007              		.cfi_endproc
 4008              	.LFE18:
 4009              		.size	DispNifInfo2, .-DispNifInfo2
 4010              		.section	.text.ShowPPPStatus,"ax",%progbits
 4011              		.align	1
 4012              		.global	ShowPPPStatus
 4013              		.thumb
 4014              		.thumb_func
 4015              		.type	ShowPPPStatus, %function
 4016              	ShowPPPStatus:
 4017              	.LFB19:
1010:src/network.c **** #endif //bs_net_nif_info2
1011:src/network.c **** //*****************************************************************************
1012:src/network.c **** //  Function        : ShowPPPStatus
1013:src/network.c **** //  Description     : Show PPP Status.
1014:src/network.c **** //  Input           : N/A
1015:src/network.c **** //  Return          : N/A
1016:src/network.c **** //  Note            : N/A
1017:src/network.c **** //  Globals Changed : N/A
1018:src/network.c **** //*****************************************************************************
ARM GAS  C:\Users\AHMED~1.ELE\AppData\Local\Temp\ccb86Llj.s 			page 91


1019:src/network.c **** void ShowPPPStatus(void)
1020:src/network.c **** {
 4018              		.loc 1 1020 0
 4019              		.cfi_startproc
 4020              		@ args = 0, pretend = 0, frame = 128
 4021              		@ frame_needed = 0, uses_anonymous_args = 0
 4022 0000 F0B5     		push	{r4, r5, r6, r7, lr}
 4023              		.cfi_def_cfa_offset 20
 4024              		.cfi_offset 4, -20
 4025              		.cfi_offset 5, -16
 4026              		.cfi_offset 6, -12
 4027              		.cfi_offset 7, -8
 4028              		.cfi_offset 14, -4
1021:src/network.c ****   DWORD status, ostatus, uptime;
1022:src/network.c **** #ifdef bs_net_nif_info2
1023:src/network.c ****   T_NIF_INFO2 nif_info;
1024:src/network.c **** #else
1025:src/network.c ****   struct MW_NIF_INFO nif_info;
1026:src/network.c **** #endif
1027:src/network.c ****   BYTE tmp[MW_MAX_LINESIZE+1];
1028:src/network.c **** 
1029:src/network.c ****   ClearDispMW();
 4029              		.loc 1 1029 0
 4030 0002 1620     		movs	r0, #22
1020:src/network.c ****   DWORD status, ostatus, uptime;
 4031              		.loc 1 1020 0
 4032 0004 B7B0     		sub	sp, sp, #220
 4033              		.cfi_def_cfa_offset 240
 4034              		.loc 1 1029 0
 4035 0006 0C21     		movs	r1, #12
 4036 0008 FFF7FEFF 		bl	sys_func1
 4037              	.LVL576:
1030:src/network.c ****   ostatus = -2;
 4038              		.loc 1 1030 0
 4039 000c 6FF00105 		mvn	r5, #1
 4040              	.LVL577:
 4041              	.L359:
1031:src/network.c ****   status  = -1;
1032:src/network.c ****   while (GetCharMW() != MWKEY_CANCL) {
 4042              		.loc 1 1032 0
 4043 0010 0026     		movs	r6, #0
 4044 0012 0F20     		movs	r0, #15
 4045 0014 0096     		str	r6, [sp]
 4046 0016 1621     		movs	r1, #22
 4047 0018 3246     		mov	r2, r6
 4048 001a 3346     		mov	r3, r6
 4049 001c FFF7FEFF 		bl	lib_app_call
 4050              	.LVL578:
 4051 0020 1128     		cmp	r0, #17
 4052 0022 00F08480 		beq	.L380
1033:src/network.c ****     SleepMW();
 4053              		.loc 1 1033 0
 4054 0026 4FF4CE70 		mov	r0, #412
 4055 002a FFF7FEFF 		bl	sys_func0
 4056              	.LVL579:
1034:src/network.c **** 
1035:src/network.c ****     // Show Status DWORD
ARM GAS  C:\Users\AHMED~1.ELE\AppData\Local\Temp\ccb86Llj.s 			page 92


1036:src/network.c ****     status = GetPPPStatus();
 4057              		.loc 1 1036 0
 4058 002e FFF7FEFF 		bl	GetPPPStatus
 4059              	.LVL580:
1037:src/network.c ****     if (ostatus != status) {
 4060              		.loc 1 1037 0
 4061 0032 8542     		cmp	r5, r0
1036:src/network.c ****     if (ostatus != status) {
 4062              		.loc 1 1036 0
 4063 0034 0446     		mov	r4, r0
 4064              	.LVL581:
 4065              		.loc 1 1037 0
 4066 0036 49D0     		beq	.L361
1038:src/network.c ****       // Show IP Info
1039:src/network.c ****       if (status == MW_PPP_PHASE_READY) {
 4067              		.loc 1 1039 0
 4068 0038 0528     		cmp	r0, #5
 4069 003a 1DAD     		add	r5, sp, #116
 4070              	.LVL582:
 4071 003c 08D1     		bne	.L362
1040:src/network.c **** #ifdef bs_net_nif_info2
1041:src/network.c ****         bs_net_nif_info2(bs_ppp_get_nif(), &nif_info);       // for 3G
 4072              		.loc 1 1041 0
 4073 003e 5620     		movs	r0, #86
 4074              	.LVL583:
 4075 0040 FFF7FEFF 		bl	base_func0
 4076              	.LVL584:
 4077 0044 2A46     		mov	r2, r5
 4078 0046 0146     		mov	r1, r0
 4079 0048 5020     		movs	r0, #80
 4080 004a FFF7FEFF 		bl	base_func2
 4081              	.LVL585:
 4082 004e 04E0     		b	.L363
 4083              	.LVL586:
 4084              	.L362:
1042:src/network.c **** #else
1043:src/network.c ****         NetInfoMW(MW_NIF_PPP, &nif_info);
1044:src/network.c **** #endif
1045:src/network.c ****       }
1046:src/network.c ****       else {
1047:src/network.c ****         memset(&nif_info, 0, sizeof(nif_info));
 4085              		.loc 1 1047 0
 4086 0050 2846     		mov	r0, r5
 4087              	.LVL587:
 4088 0052 3146     		mov	r1, r6
 4089 0054 6422     		movs	r2, #100
 4090 0056 FFF7FEFF 		bl	memset
 4091              	.LVL588:
 4092              	.L363:
1048:src/network.c ****       }
1049:src/network.c **** #ifdef bs_net_nif_info2
1050:src/network.c ****       DispNifInfo2(nif_info);                                // for 3G
 4093              		.loc 1 1050 0
 4094 005a 21A9     		add	r1, sp, #132
 4095 005c 5422     		movs	r2, #84
 4096 005e 6846     		mov	r0, sp
 4097 0060 FFF7FEFF 		bl	memcpy
ARM GAS  C:\Users\AHMED~1.ELE\AppData\Local\Temp\ccb86Llj.s 			page 93


 4098              	.LVL589:
 4099 0064 95E80F00 		ldmia	r5, {r0, r1, r2, r3}
 4100 0068 FFF7FEFF 		bl	DispNifInfo2
 4101              	.LVL590:
1051:src/network.c **** #else
1052:src/network.c ****       DispTermIP((BYTE *)&nif_info);
1053:src/network.c **** #endif
1054:src/network.c **** 
1055:src/network.c ****       // Show Status
1056:src/network.c ****       if (status < 6) {
 4102              		.loc 1 1056 0
 4103 006c 052C     		cmp	r4, #5
 4104 006e 14D8     		bhi	.L364
 4105              	.LBB69:
1057:src/network.c ****         DispLineMW(KPPPState[status], MW_LINE1, MW_REVERSE|MW_CENTER|MW_SMFONT);
 4106              		.loc 1 1057 0
 4107 0070 304B     		ldr	r3, .L381
 4108 0072 03EB8403 		add	r3, r3, r4, lsl #2
 4109 0076 DF68     		ldr	r7, [r3, #12]
 4110 0078 3846     		mov	r0, r7
 4111 007a FFF7FEFF 		bl	strlen
 4112              	.LVL591:
 4113 007e 0646     		mov	r6, r0
 4114              	.LVL592:
 4115 0080 711C     		adds	r1, r6, #1
 4116 0082 9220     		movs	r0, #146
 4117              	.LVL593:
 4118 0084 FFF7FEFF 		bl	sys_func1
 4119              	.LVL594:
 4120 0088 0546     		mov	r5, r0
 4121 008a F8B1     		cbz	r0, .L361
 4122              		.loc 1 1057 0 is_stmt 0 discriminator 1
 4123 008c 3946     		mov	r1, r7
 4124 008e 3246     		mov	r2, r6
 4125 0090 FFF7FEFF 		bl	memcpy
 4126              	.LVL595:
 4127 0094 0023     		movs	r3, #0
 4128 0096 AB55     		strb	r3, [r5, r6]
 4129 0098 0BE0     		b	.L379
 4130              	.LVL596:
 4131              	.L364:
 4132              	.LBE69:
 4133              	.LBB70:
1058:src/network.c ****       }
1059:src/network.c ****       else {
1060:src/network.c ****         DispLineMW("IDLE", MW_LINE1, MW_REVERSE|MW_CENTER|MW_SMFONT);
 4134              		.loc 1 1060 0 is_stmt 1
 4135 009a 9220     		movs	r0, #146
 4136 009c 0521     		movs	r1, #5
 4137 009e FFF7FEFF 		bl	sys_func1
 4138              	.LVL597:
 4139 00a2 0546     		mov	r5, r0
 4140 00a4 90B1     		cbz	r0, .L361
 4141              		.loc 1 1060 0 is_stmt 0 discriminator 1
 4142 00a6 2449     		ldr	r1, .L381+4
 4143 00a8 0422     		movs	r2, #4
 4144 00aa FFF7FEFF 		bl	memcpy
ARM GAS  C:\Users\AHMED~1.ELE\AppData\Local\Temp\ccb86Llj.s 			page 94


 4145              	.LVL598:
 4146 00ae 0023     		movs	r3, #0
 4147 00b0 2B71     		strb	r3, [r5, #4]
 4148              	.LVL599:
 4149              	.L379:
 4150 00b2 1223     		movs	r3, #18
 4151 00b4 2521     		movs	r1, #37
 4152 00b6 0093     		str	r3, [sp]
 4153 00b8 0F20     		movs	r0, #15
 4154 00ba 2A46     		mov	r2, r5
 4155 00bc 4FF48073 		mov	r3, #256
 4156 00c0 FFF7FEFF 		bl	lib_app_call
 4157              	.LVL600:
 4158 00c4 9420     		movs	r0, #148
 4159 00c6 2946     		mov	r1, r5
 4160 00c8 FFF7FEFF 		bl	sys_func1
 4161              	.LVL601:
 4162              	.L361:
 4163              	.LBE70:
1061:src/network.c ****       }
1062:src/network.c ****       ostatus = status;
1063:src/network.c ****     }
1064:src/network.c **** 
1065:src/network.c ****     if (status == MW_PPP_PHASE_READY)
 4164              		.loc 1 1065 0 is_stmt 1
 4165 00cc 052C     		cmp	r4, #5
 4166 00ce 4FF00002 		mov	r2, #0
 4167 00d2 08D1     		bne	.L366
1066:src/network.c ****       uptime = IOCtlMW(gPppHandle, IO_PPP_UPTIME, NULL);
 4168              		.loc 1 1066 0
 4169 00d4 194B     		ldr	r3, .L381+8
 4170 00d6 0092     		str	r2, [sp]
 4171 00d8 0F20     		movs	r0, #15
 4172 00da 1A68     		ldr	r2, [r3]
 4173 00dc 0721     		movs	r1, #7
 4174 00de 1023     		movs	r3, #16
 4175 00e0 FFF7FEFF 		bl	lib_app_call
 4176              	.LVL602:
 4177 00e4 0246     		mov	r2, r0
 4178              	.LVL603:
 4179              	.L366:
1067:src/network.c ****     else
1068:src/network.c ****       uptime = 0;
1069:src/network.c ****     sprintf(tmp, "Up Time: %05d Secs", uptime);
 4180              		.loc 1 1069 0
 4181 00e6 1649     		ldr	r1, .L381+12
 4182 00e8 16A8     		add	r0, sp, #88
 4183 00ea FFF7FEFF 		bl	sprintf
 4184              	.LVL604:
 4185              	.LBB71:
1070:src/network.c ****     DispLineMW(tmp, MW_MAX_LINE, MW_CENTER|MW_SPFONT);
 4186              		.loc 1 1070 0
 4187 00ee 16A8     		add	r0, sp, #88
 4188 00f0 FFF7FEFF 		bl	strlen
 4189              	.LVL605:
 4190 00f4 0646     		mov	r6, r0
 4191              	.LVL606:
ARM GAS  C:\Users\AHMED~1.ELE\AppData\Local\Temp\ccb86Llj.s 			page 95


 4192 00f6 711C     		adds	r1, r6, #1
 4193 00f8 9220     		movs	r0, #146
 4194              	.LVL607:
 4195 00fa FFF7FEFF 		bl	sys_func1
 4196              	.LVL608:
 4197 00fe 0546     		mov	r5, r0
 4198 0100 98B1     		cbz	r0, .L367
 4199              		.loc 1 1070 0 is_stmt 0 discriminator 1
 4200 0102 16A9     		add	r1, sp, #88
 4201 0104 3246     		mov	r2, r6
 4202 0106 FFF7FEFF 		bl	memcpy
 4203              	.LVL609:
 4204 010a 0023     		movs	r3, #0
 4205 010c 2521     		movs	r1, #37
 4206 010e AB55     		strb	r3, [r5, r6]
 4207 0110 42F20203 		movw	r3, #8194
 4208 0114 0F20     		movs	r0, #15
 4209 0116 0093     		str	r3, [sp]
 4210 0118 2A46     		mov	r2, r5
 4211 011a 4FF41063 		mov	r3, #2304
 4212 011e FFF7FEFF 		bl	lib_app_call
 4213              	.LVL610:
 4214 0122 9420     		movs	r0, #148
 4215 0124 2946     		mov	r1, r5
 4216 0126 FFF7FEFF 		bl	sys_func1
 4217              	.LVL611:
 4218              	.L367:
 4219              	.LBE71:
1036:src/network.c ****     if (ostatus != status) {
 4220              		.loc 1 1036 0 is_stmt 1
 4221 012a 2546     		mov	r5, r4
 4222              	.LVL612:
 4223 012c 70E7     		b	.L359
 4224              	.LVL613:
 4225              	.L380:
1071:src/network.c ****   }
1072:src/network.c **** }...
 4226              		.loc 1 1072 0
 4227 012e 37B0     		add	sp, sp, #220
 4228              		.cfi_def_cfa_offset 20
 4229              		@ sp needed
 4230 0130 F0BD     		pop	{r4, r5, r6, r7, pc}
 4231              	.LVL614:
 4232              	.L382:
 4233 0132 00BF     		.align	2
 4234              	.L381:
 4235 0134 00000000 		.word	.LANCHOR0
 4236 0138 2A020000 		.word	.LC57
 4237 013c 00000000 		.word	gPppHandle
 4238 0140 2F020000 		.word	.LC58
 4239              		.cfi_endproc
 4240              	.LFE19:
 4241              		.size	ShowPPPStatus, .-ShowPPPStatus
 4242              		.global	gGprsCfg2
 4243              		.global	gGprsCfg1
 4244              		.comm	gOptrBkup,32,1
 4245              		.comm	gOptrMain,32,1
ARM GAS  C:\Users\AHMED~1.ELE\AppData\Local\Temp\ccb86Llj.s 			page 96


 4246              		.comm	gOptrName2,32,1
 4247              		.comm	gOptrName1,32,1
 4248              		.global	gSimSlot
 4249              		.section	.rodata
 4250              		.align	2
 4251              		.set	.LANCHOR0,. + 0
 4252              	.LC11:
 4253 0000 42020000 		.word	.LC0
 4254 0004 45020000 		.word	.LC1
 4255 0008 00000000 		.word	0
 4256              		.type	KPPPState, %object
 4257              		.size	KPPPState, 24
 4258              	KPPPState:
 4259 000c 48020000 		.word	.LC59
 4260 0010 59020000 		.word	.LC60
 4261 0014 6A020000 		.word	.LC61
 4262 0018 7B020000 		.word	.LC62
 4263 001c 8C020000 		.word	.LC63
 4264 0020 9D020000 		.word	.LC64
 4265              		.section	.rodata.str1.1,"aMS",%progbits,1
 4266              	.LC8:
 4267 0000 50726573 		.ascii	"Press Enter To Reset\000"
 4267      7320456E 
 4267      74657220 
 4267      546F2052 
 4267      65736574 
 4268              	.LC9:
 4269 0015 4D6F6475 		.ascii	"Module Reseted\000"
 4269      6C652052 
 4269      65736574 
 4269      656400
 4270              	.LC10:
 4271 0024 53746174 		.ascii	"Status: %08X %02d\000"
 4271      75733A20 
 4271      25303858 
 4271      20253032 
 4271      6400
 4272              	.LC12:
 4273 0036 4E657477 		.ascii	"Network Info\000"
 4273      6F726B20 
 4273      496E666F 
 4273      00
 4274              	.LC13:
 4275 0043 53494D20 		.ascii	"SIM Num\000"
 4275      4E756D00 
 4276              	.LC14:
 4277 004b 506C7320 		.ascii	"Pls Wait..\000"
 4277      57616974 
 4277      2E2E00
 4278              	.LC15:
 4279 0056 506C7320 		.ascii	"Pls Wait...\000"
 4279      57616974 
 4279      2E2E2E00 
 4280              	.LC16:
 4281 0062 53494D20 		.ascii	"SIM Slot: %d\000"
 4281      536C6F74 
 4281      3A202564 
ARM GAS  C:\Users\AHMED~1.ELE\AppData\Local\Temp\ccb86Llj.s 			page 97


 4281      00
 4282              	.LC17:
 4283 006f 57616974 		.ascii	"Wait AT Rdy..\000"
 4283      20415420 
 4283      5264792E 
 4283      2E00
 4284              	.LC18:
 4285 007d 54696D65 		.ascii	"Timeout!\000"
 4285      6F757421 
 4285      00
 4286              	.LC19:
 4287 0086 43686563 		.ascii	"Check SIM..\000"
 4287      6B205349 
 4287      4D2E2E00 
 4288              	.LC20:
 4289 0092 4E6F5349 		.ascii	"NoSIM\000"
 4289      4D00
 4290              	.LC21:
 4291 0098 57616974 		.ascii	"Wait Network Rdy..\000"
 4291      204E6574 
 4291      776F726B 
 4291      20526479 
 4291      2E2E00
 4292              	.LC22:
 4293 00ab 47657420 		.ascii	"Get Operator Name..\000"
 4293      4F706572 
 4293      61746F72 
 4293      204E616D 
 4293      652E2E00 
 4294              	.LC23:
 4295 00bf 4F707472 		.ascii	"OptrName: %s\000"
 4295      4E616D65 
 4295      3A202573 
 4295      00
 4296              	.LC24:
 4297 00cc 4F707472 		.ascii	"OptrName: N/A\000"
 4297      4E616D65 
 4297      3A204E2F 
 4297      4100
 4298              	.LC25:
 4299 00da 5369676E 		.ascii	"Signal  : %02d\000"
 4299      616C2020 
 4299      3A202530 
 4299      326400
 4300              	.LC26:
 4301 00e9 55736520 		.ascii	"Use for Txn?!\000"
 4301      666F7220 
 4301      54786E3F 
 4301      2100
 4302              	.LC3:
 4303 00f7 696E7465 		.ascii	"internet\000"
 4303      726E6574 
 4303      00
 4304              	.LC4:
 4305 0100 00       		.ascii	"\000"
 4306              	.LC6:
 4307 0101 70636377 		.ascii	"pccw\000"
ARM GAS  C:\Users\AHMED~1.ELE\AppData\Local\Temp\ccb86Llj.s 			page 98


 4307      00
 4308              	.LC27:
 4309 0106 5325643A 		.ascii	"S%d:%s\000"
 4309      257300
 4310              	.LC28:
 4311 010d 54696D65 		.ascii	"Timeout1!\000"
 4311      6F757431 
 4311      2100
 4312              	.LC29:
 4313 0117 57616974 		.ascii	"Wait Net Rdy..\000"
 4313      204E6574 
 4313      20526479 
 4313      2E2E00
 4314              	.LC30:
 4315 0126 54696D65 		.ascii	"Timeout2!\000"
 4315      6F757432 
 4315      2100
 4316              	.LC31:
 4317 0130 47657420 		.ascii	"Get Operator Info..\000"
 4317      4F706572 
 4317      61746F72 
 4317      20496E66 
 4317      6F2E2E00 
 4318              	.LC32:
 4319 0144 25643A25 		.ascii	"%d:%s\000"
 4319      7300
 4320              	.LC33:
 4321 014a 4E2F4100 		.ascii	"N/A\000"
 4322              	.LC34:
 4323 014e 2C00     		.ascii	",\000"
 4324              	.LC35:
 4325 0150 25642525 		.ascii	"%d%%\000"
 4325      00
 4326              	.LC36:
 4327 0155 323A2573 		.ascii	"2:%s\000"
 4327      00
 4328              	.LC37:
 4329 015a 313A2573 		.ascii	"1:%s\000"
 4329      00
 4330              	.LC38:
 4331 015f 323A4E6F 		.ascii	"2:NoSIM\000"
 4331      53494D00 
 4332              	.LC39:
 4333 0167 313A4E6F 		.ascii	"1:NoSIM\000"
 4333      53494D00 
 4334              	.LC40:
 4335 016f 2B434E55 		.ascii	"+CNUM:\000"
 4335      4D3A00
 4336              	.LC41:
 4337 0176 4E756D20 		.ascii	"Num : %s\000"
 4337      3A202573 
 4337      00
 4338              	.LC42:
 4339 017f 53746174 		.ascii	"Status: %08X\000"
 4339      75733A20 
 4339      25303858 
 4339      00
ARM GAS  C:\Users\AHMED~1.ELE\AppData\Local\Temp\ccb86Llj.s 			page 99


 4340              	.LC43:
 4341 018c 41542B43 		.ascii	"AT+CNUM\015\012\000"
 4341      4E554D0D 
 4341      0A00
 4342              	.LC44:
 4343 0196 53656E64 		.ascii	"Send Cmd : %s\000"
 4343      20436D64 
 4343      203A2025 
 4343      7300
 4344              	.LC45:
 4345 01a4 496E7365 		.ascii	"Insert SIM Card!\000"
 4345      72742053 
 4345      494D2043 
 4345      61726421 
 4345      00
 4346              	.LC46:
 4347 01b5 41542B43 		.ascii	"AT+CCID?\015\012\000"
 4347      4349443F 
 4347      0D0A00
 4348              	.LC47:
 4349 01c0 41542B51 		.ascii	"AT+QCCID\015\012\000"
 4349      43434944 
 4349      0D0A00
 4350              	.LC48:
 4351 01cb 2B434349 		.ascii	"+CCID:\000"
 4351      443A00
 4352              	.LC49:
 4353 01d2 2B514343 		.ascii	"+QCCID:\000"
 4353      49443A00 
 4354              	.LC50:
 4355 01da 4D6F6269 		.ascii	"Mobile No:\000"
 4355      6C65204E 
 4355      6F3A00
 4356              	.LC51:
 4357 01e5 47657420 		.ascii	"Get Num Failed!\000"
 4357      4E756D20 
 4357      4661696C 
 4357      65642100 
 4358              	.LC52:
 4359 01f5 53494D20 		.ascii	"SIM SN:\000"
 4359      534E3A00 
 4360              	.LC53:
 4361 01fd 47657420 		.ascii	"Get SN Failed!\000"
 4361      534E2046 
 4361      61696C65 
 4361      642100
 4362              	.LC54:
 4363 020c 49502041 		.ascii	"IP Address\000"
 4363      64647265 
 4363      737300
 4364              	.LC55:
 4365 0217 4E65746D 		.ascii	"Netmask\000"
 4365      61736B00 
 4366              	.LC56:
 4367 021f 47617465 		.ascii	"Gateway IP\000"
 4367      77617920 
 4367      495000
ARM GAS  C:\Users\AHMED~1.ELE\AppData\Local\Temp\ccb86Llj.s 			page 100


 4368              	.LC57:
 4369 022a 49444C45 		.ascii	"IDLE\000"
 4369      00
 4370              	.LC58:
 4371 022f 55702054 		.ascii	"Up Time: %05d Secs\000"
 4371      696D653A 
 4371      20253035 
 4371      64205365 
 4371      637300
 4372              	.LC0:
 4373 0242 303100   		.ascii	"01\000"
 4374              	.LC1:
 4375 0245 303200   		.ascii	"02\000"
 4376              	.LC59:
 4377 0248 20202020 		.ascii	"      Dead      \000"
 4377      20204465 
 4377      61642020 
 4377      20202020 
 4377      00
 4378              	.LC60:
 4379 0259 20204573 		.ascii	"  Establishing  \000"
 4379      7461626C 
 4379      69736869 
 4379      6E672020 
 4379      00
 4380              	.LC61:
 4381 026a 20417574 		.ascii	" Authenticating \000"
 4381      68656E74 
 4381      69636174 
 4381      696E6720 
 4381      00
 4382              	.LC62:
 4383 027b 20202020 		.ascii	"    Network     \000"
 4383      4E657477 
 4383      6F726B20 
 4383      20202020 
 4383      00
 4384              	.LC63:
 4385 028c 20205465 		.ascii	"  Terminating   \000"
 4385      726D696E 
 4385      6174696E 
 4385      67202020 
 4385      00
 4386              	.LC64:
 4387 029d 20202050 		.ascii	"   PPP Ready    \000"
 4387      50502052 
 4387      65616479 
 4387      20202020 
 4387      00
 4388              		.data
 4389              		.type	gGprsCfg2, %object
 4390              		.size	gGprsCfg2, 96
 4391              	gGprsCfg2:
 4392 0000 62626200 		.ascii	"bbb\000"
 4393 0004 00000000 		.space	28
 4393      00000000 
 4393      00000000 
ARM GAS  C:\Users\AHMED~1.ELE\AppData\Local\Temp\ccb86Llj.s 			page 101


 4393      00000000 
 4393      00000000 
 4394 0020 00       		.ascii	"\000"
 4395 0021 00000000 		.space	31
 4395      00000000 
 4395      00000000 
 4395      00000000 
 4395      00000000 
 4396 0040 00       		.ascii	"\000"
 4397 0041 00000000 		.space	31
 4397      00000000 
 4397      00000000 
 4397      00000000 
 4397      00000000 
 4398              		.type	gGprsCfg1, %object
 4399              		.size	gGprsCfg1, 96
 4400              	gGprsCfg1:
 4401 0060 61616100 		.ascii	"aaa\000"
 4402 0064 00000000 		.space	28
 4402      00000000 
 4402      00000000 
 4402      00000000 
 4402      00000000 
 4403 0080 00       		.ascii	"\000"
 4404 0081 00000000 		.space	31
 4404      00000000 
 4404      00000000 
 4404      00000000 
 4404      00000000 
 4405 00a0 00       		.ascii	"\000"
 4406 00a1 00000000 		.space	31
 4406      00000000 
 4406      00000000 
 4406      00000000 
 4406      00000000 
 4407              		.bss
 4408              		.set	.LANCHOR1,. + 0
 4409              		.type	gSimSlot, %object
 4410              		.size	gSimSlot, 1
 4411              	gSimSlot:
 4412 0000 00       		.space	1
 4413              		.text
 4414              	.Letext0:
 4415              		.file 2 "c:\\devtools\\gcc_v49_2014q4\\lib\\gcc\\arm-none-eabi\\4.9.3\\include\\stddef.h"
 4416              		.file 3 "../LibA5T1000/common.h"
 4417              		.file 4 "../LibA5T1000/system.h"
 4418              		.file 5 "../LibA5T1000/basecall.h"
 4419              		.file 6 "../LibA5T1000/midware.h"
 4420              		.file 7 "../LibA5T1000/apm.h"
 4421              		.file 8 "src/sysutil.h"
 4422              		.file 9 "src/corevar.h"
 4423              		.file 10 "src/tranutil.h"
 4424              		.file 11 "src/message.h"
 4425              		.file 12 "src/hardware.h"
 4426              		.file 13 "c:\\devtools\\gcc_v49_2014q4\\arm-none-eabi\\include\\string.h"
 4427              		.file 14 "c:\\devtools\\gcc_v49_2014q4\\arm-none-eabi\\include\\stdio.h"
 4428              		.file 15 "../LibA5T1000/util.h"
ARM GAS  C:\Users\AHMED~1.ELE\AppData\Local\Temp\ccb86Llj.s 			page 102


 4429              		.file 16 "src/toggle.h"
 4430              		.file 17 "src/wavecom.h"
 4431              		.file 18 "<built-in>"