ARM GAS  C:\Users\ahmedhamed\AppData\Local\Temp\ccmB5tm6.s 			page 1


   1              		.syntax unified
   2              		.cpu cortex-a5
   3              		.fpu softvfp
   4              		.eabi_attribute 20, 1
   5              		.eabi_attribute 21, 1
   6              		.eabi_attribute 23, 3
   7              		.eabi_attribute 24, 1
   8              		.eabi_attribute 25, 1
   9              		.eabi_attribute 26, 1
  10              		.eabi_attribute 30, 4
  11              		.eabi_attribute 34, 0
  12              		.eabi_attribute 18, 4
  13              		.thumb
  14              		.file	"Offline.c"
  15              		.text
  16              	.Ltext0:
  17              		.cfi_sections	.debug_frame
  18              		.section	.text.OfflineSent,"ax",%progbits
  19              		.align	1
  20              		.global	OfflineSent
  21              		.thumb
  22              		.thumb_func
  23              		.type	OfflineSent, %function
  24              	OfflineSent:
  25              	.LFB0:
  26              		.file 1 "src/Offline.c"
   1:src/Offline.c **** //-----------------------------------------------------------------------------
   2:src/Offline.c **** //  File          : offline.c
   3:src/Offline.c **** //  Module        :
   4:src/Offline.c **** //  Description   : Include routines send "OFFLINE" transaction to host.
   5:src/Offline.c **** //  Author        : Lewis
   6:src/Offline.c **** //  Notes         :
   7:src/Offline.c **** //
   8:src/Offline.c **** // ============================================================================
   9:src/Offline.c **** // | Naming conventions                                                       |
  10:src/Offline.c **** // | ~~~~~~~~~~~~~~~~~~                                                       |
  11:src/Offline.c **** // |        Struct define : Leading T                                         |
  12:src/Offline.c **** // |         Struct/Array : Leading s                                         |
  13:src/Offline.c **** // |             Constant : Leading K                                         |
  14:src/Offline.c **** // |      Global Variable : Leading g  (variable use outside one C file)      |
  15:src/Offline.c **** // |                                                                          |
  16:src/Offline.c **** // |   BYTE( 8 Bits) size : Leading b                                         |
  17:src/Offline.c **** // |   CHAR( 8 Bits) size : Leading c                                         |
  18:src/Offline.c **** // |   WORD(16 Bits) size : Leading w                                         |
  19:src/Offline.c **** // |  DWORD(32 Bits) size : Leading d                                         |
  20:src/Offline.c **** // |    int(32 Bits) size : Leading i                                         |
  21:src/Offline.c **** // | DDWORD(64 Bits) size : Leading dd                                        |
  22:src/Offline.c **** // |              Pointer : Leading p                                         |
  23:src/Offline.c **** // |                                                                          |
  24:src/Offline.c **** // |    Function argument : Leading a                                         |
  25:src/Offline.c **** // |       Local Variable : All lower case                                    |
  26:src/Offline.c **** // |                                                                          |
  27:src/Offline.c **** // | Examples:                                                                |
  28:src/Offline.c **** // |                Array : Leading s, (sb = arrary of byte, etc)             |
  29:src/Offline.c **** // |              Pointer : Leading p, (pb = pointer of byte, etc)            |
  30:src/Offline.c **** // ============================================================================
  31:src/Offline.c **** //
ARM GAS  C:\Users\ahmedhamed\AppData\Local\Temp\ccmB5tm6.s 			page 2


  32:src/Offline.c **** //  Date          Who         Action
  33:src/Offline.c **** //  ------------  ----------- -------------------------------------------------
  34:src/Offline.c **** //  29 Sept 2008  Lewis       Initial Version.
  35:src/Offline.c **** //-----------------------------------------------------------------------------
  36:src/Offline.c **** #include <string.h>
  37:src/Offline.c **** #include "sysutil.h"
  38:src/Offline.c **** #include "constant.h"
  39:src/Offline.c **** #include "corevar.h"
  40:src/Offline.c **** #include "chkoptn.h"
  41:src/Offline.c **** #include "tranutil.h"
  42:src/Offline.c **** #include "hostmsg.h"
  43:src/Offline.c **** #include "record.h"
  44:src/Offline.c **** #include "offline.h"
  45:src/Offline.c **** 
  46:src/Offline.c **** //*****************************************************************************
  47:src/Offline.c **** //  Function        : OfflineSent
  48:src/Offline.c **** //  Description     : Send "OFFLINE" transaction to host.
  49:src/Offline.c **** //  Input           : aSendAll;      // TRUE:- send all
  50:src/Offline.c **** //                                   // FALSE; send only one.
  51:src/Offline.c **** //  Return          : TRUE/FALSE;
  52:src/Offline.c **** //  Note            : N/A
  53:src/Offline.c **** //  Globals Changed : N/A
  54:src/Offline.c **** //*****************************************************************************
  55:src/Offline.c **** BOOLEAN OfflineSent(BOOLEAN aSendAll)
  56:src/Offline.c **** {
  27              		.loc 1 56 0
  28              		.cfi_startproc
  29              		@ args = 0, pretend = 0, frame = 0
  30              		@ frame_needed = 0, uses_anonymous_args = 0
  31              	.LVL0:
  32 0000 2DE9F341 		push	{r0, r1, r4, r5, r6, r7, r8, lr}
  33              		.cfi_def_cfa_offset 32
  34              		.cfi_offset 4, -24
  35              		.cfi_offset 5, -20
  36              		.cfi_offset 6, -16
  37              		.cfi_offset 7, -12
  38              		.cfi_offset 8, -8
  39              		.cfi_offset 14, -4
  57:src/Offline.c ****   WORD trans_status, rec_idx;
  58:src/Offline.c **** 
  59:src/Offline.c ****   if (!aSendAll)
  40              		.loc 1 59 0
  41 0004 8046     		mov	r8, r0
  42 0006 624E     		ldr	r6, .L39
  43 0008 08B1     		cbz	r0, .L2
  44              	.LVL1:
  45              	.L7:
  56:src/Offline.c ****   WORD trans_status, rec_idx;
  46              		.loc 1 56 0
  47 000a 0025     		movs	r5, #0
  48 000c 1CE0     		b	.L10
  49              	.LVL2:
  50              	.L2:
  60:src/Offline.c ****     if ((STIS_ACQ_TBL(0).b_status == DOWN) || !PiggybackOffline())
  51              		.loc 1 60 0
  52 000e 3368     		ldr	r3, [r6]
  53 0010 93F8F033 		ldrb	r3, [r3, #1008]	@ zero_extendqisi2
ARM GAS  C:\Users\ahmedhamed\AppData\Local\Temp\ccmB5tm6.s 			page 3


  54 0014 012B     		cmp	r3, #1
  55 0016 01D1     		bne	.L4
  56              	.LVL3:
  57              	.L6:
  61:src/Offline.c ****       return TRUE;
  58              		.loc 1 61 0
  59 0018 0120     		movs	r0, #1
  60 001a B5E0     		b	.L36
  61              	.LVL4:
  62              	.L4:
  60:src/Offline.c ****     if ((STIS_ACQ_TBL(0).b_status == DOWN) || !PiggybackOffline())
  63              		.loc 1 60 0 discriminator 1
  64 001c FFF7FEFF 		bl	PiggybackOffline
  65              	.LVL5:
  66 0020 0028     		cmp	r0, #0
  67 0022 F2D1     		bne	.L7
  68 0024 F8E7     		b	.L6
  69              	.LVL6:
  70              	.L38:
  62:src/Offline.c **** 
  63:src/Offline.c ****   rec_idx = 0;
  64:src/Offline.c ****   while (TRUE) {
  65:src/Offline.c ****     trans_status = 0;
  66:src/Offline.c ****     while (trans_status == 0) {
  67:src/Offline.c ****       if (!APM_GetBatchRec(rec_idx, (BYTE *)&RECORD_BUF, sizeof(RECORD_BUF)))
  68:src/Offline.c ****         return TRUE;
  69:src/Offline.c ****       if (RECORD_BUF.w_host_idx == INPUT.w_host_idx)
  71              		.loc 1 69 0
  72 0026 5A4B     		ldr	r3, .L39
  73 0028 5A4C     		ldr	r4, .L39+4
  74 002a 1968     		ldr	r1, [r3]
  75 002c B4F87630 		ldrh	r3, [r4, #118]
  76 0030 B1F83E27 		ldrh	r2, [r1, #1854]
  77 0034 9A42     		cmp	r2, r3
  78 0036 14BF     		ite	ne
  79 0038 0023     		movne	r3, #0
  70:src/Offline.c ****         trans_status = RECORD_BUF.b_trans_status;
  80              		.loc 1 70 0
  81 003a 91F8CA36 		ldrbeq	r3, [r1, #1738]	@ zero_extendqisi2
  82              	.LVL7:
  71:src/Offline.c **** 
  72:src/Offline.c ****       trans_status &= (OFFLINE | ADJUSTED_OFF);
  73:src/Offline.c **** 
  74:src/Offline.c ****       if (trans_status == 0)
  83              		.loc 1 74 0
  84 003e 13F0C00F 		tst	r3, #192
  85 0042 10D1     		bne	.L9
  86              	.LVL8:
  75:src/Offline.c ****         rec_idx++;
  87              		.loc 1 75 0
  88 0044 0135     		adds	r5, r5, #1
  89              	.LVL9:
  90 0046 ADB2     		uxth	r5, r5
  91              	.LVL10:
  92              	.L10:
  67:src/Offline.c ****         return TRUE;
  93              		.loc 1 67 0
ARM GAS  C:\Users\ahmedhamed\AppData\Local\Temp\ccmB5tm6.s 			page 4


  94 0048 3368     		ldr	r3, [r6]
  95 004a 4FF40072 		mov	r2, #512
  96 004e 1020     		movs	r0, #16
  97 0050 0092     		str	r2, [sp]
  98 0052 2A21     		movs	r1, #42
  99 0054 2A46     		mov	r2, r5
 100 0056 03F5D963 		add	r3, r3, #1736
 101 005a FFF7FEFF 		bl	lib_app_call
 102              	.LVL11:
 103 005e 10F0FF0F 		tst	r0, #255
 104 0062 E0D1     		bne	.L38
 105 0064 D8E7     		b	.L6
 106              	.LVL12:
 107              	.L9:
  76:src/Offline.c ****     }
  77:src/Offline.c ****     ByteCopy((BYTE *)&TX_DATA, (BYTE *)&RECORD_BUF,
 108              		.loc 1 77 0
 109 0066 4C48     		ldr	r0, .L39+8
 110 0068 01F5D961 		add	r1, r1, #1736
 111 006c 8422     		movs	r2, #132
 112 006e FFF7FEFF 		bl	ByteCopy
 113              	.LVL13:
  78:src/Offline.c ****              (BYTE *)&RECORD_BUF.s_dtg-(BYTE *)&RECORD_BUF+sizeof(struct DATETIME));
  79:src/Offline.c ****     ByteCopy((BYTE *)&TX_DATA.s_icc_data, (BYTE *)&RECORD_BUF.s_icc_data, sizeof(struct ICC_DATA));
 114              		.loc 1 79 0
 115 0072 3168     		ldr	r1, [r6]
 116 0074 4FF4BA72 		mov	r2, #372
 117 0078 4848     		ldr	r0, .L39+12
 118 007a 01F24C71 		addw	r1, r1, #1868
 119 007e FFF7FEFF 		bl	ByteCopy
 120              	.LVL14:
  80:src/Offline.c ****     TX_DATA.b_org_trans = TX_DATA.b_trans;
 121              		.loc 1 80 0
 122 0082 94F80003 		ldrb	r0, [r4, #768]	@ zero_extendqisi2
  81:src/Offline.c **** 
  82:src/Offline.c ****     PackProcCode(TX_DATA.b_org_trans, TX_DATA.b_acc_ind);
 123              		.loc 1 82 0
 124 0086 94F80613 		ldrb	r1, [r4, #774]	@ zero_extendqisi2
  80:src/Offline.c ****     TX_DATA.b_org_trans = TX_DATA.b_trans;
 125              		.loc 1 80 0
 126 008a 84F80305 		strb	r0, [r4, #1283]
 127              		.loc 1 82 0
 128 008e FFF7FEFF 		bl	PackProcCode
 129              	.LVL15:
  83:src/Offline.c **** 
  84:src/Offline.c ****     if ((TX_DATA.b_trans_status & VOIDED) != 0) {
 130              		.loc 1 84 0
 131 0092 94F80233 		ldrb	r3, [r4, #770]	@ zero_extendqisi2
  80:src/Offline.c **** 
 132              		.loc 1 80 0
 133 0096 3F4F     		ldr	r7, .L39+4
 134              		.loc 1 84 0
 135 0098 DA06     		lsls	r2, r3, #27
 136 009a 0CD5     		bpl	.L12
  85:src/Offline.c ****       TX_DATA.dd_amount=0; /* offline void */
 137              		.loc 1 85 0
 138 009c 07F54672 		add	r2, r7, #792
ARM GAS  C:\Users\ahmedhamed\AppData\Local\Temp\ccmB5tm6.s 			page 5


 139 00a0 0020     		movs	r0, #0
 140 00a2 0021     		movs	r1, #0
 141 00a4 C2E90001 		strd	r0, [r2]
  86:src/Offline.c ****       if (TX_DATA.b_org_trans == REFUND)
 142              		.loc 1 86 0
 143 00a8 97F80325 		ldrb	r2, [r7, #1283]	@ zero_extendqisi2
 144 00ac 062A     		cmp	r2, #6
  87:src/Offline.c ****         TX_DATA.sb_proc_code[0] = 0x20;
 145              		.loc 1 87 0
 146 00ae 04BF     		itt	eq
 147 00b0 2022     		moveq	r2, #32
 148 00b2 87F80025 		strbeq	r2, [r7, #1280]
 149              	.L12:
  88:src/Offline.c ****     }
  89:src/Offline.c ****     if ((TX_DATA.b_trans_status & OFFLINE)==0) {
 150              		.loc 1 89 0
 151 00b6 1906     		lsls	r1, r3, #24
  90:src/Offline.c **** //        IncTraceNo();
  91:src/Offline.c ****       TX_DATA.b_trans = ADJUST;
 152              		.loc 1 91 0
 153 00b8 57BF     		itett	pl
 154 00ba 0B23     		movpl	r3, #11
  92:src/Offline.c ****       TX_DATA.sb_proc_code[0] |= 0x02;
  93:src/Offline.c ****     }
  94:src/Offline.c ****     else { /* offline - trans not sent to host yet */
  95:src/Offline.c ****       TX_DATA.b_trans = TX_DATA.b_org_trans;
 155              		.loc 1 95 0
 156 00bc 94F80335 		ldrbmi	r3, [r4, #1283]	@ zero_extendqisi2
  91:src/Offline.c ****       TX_DATA.sb_proc_code[0] |= 0x02;
 157              		.loc 1 91 0
 158 00c0 84F80033 		strbpl	r3, [r4, #768]
  92:src/Offline.c ****       TX_DATA.sb_proc_code[0] |= 0x02;
 159              		.loc 1 92 0
 160 00c4 94F80035 		ldrbpl	r3, [r4, #1280]	@ zero_extendqisi2
 161              		.loc 1 95 0
 162 00c8 4CBF     		ite	mi
 163 00ca 84F80033 		strbmi	r3, [r4, #768]
  92:src/Offline.c ****       TX_DATA.sb_proc_code[0] |= 0x02;
 164              		.loc 1 92 0
 165 00ce 43F00203 		orrpl	r3, r3, #2
  96:src/Offline.c ****     }
  97:src/Offline.c **** 
  98:src/Offline.c ****     PackHostMsg();
  99:src/Offline.c ****     ClearResponse();
 100:src/Offline.c ****     if ((RSP_DATA.w_rspcode=APM_SendRcvd(&TX_BUF, &RX_BUF))==COMM_OK) {
 166              		.loc 1 100 0
 167 00d2 4FF00007 		mov	r7, #0
  92:src/Offline.c ****     }
 168              		.loc 1 92 0
 169 00d6 58BF     		it	pl
 170 00d8 84F80035 		strbpl	r3, [r4, #1280]
  98:src/Offline.c ****     ClearResponse();
 171              		.loc 1 98 0
 172 00dc FFF7FEFF 		bl	PackHostMsg
 173              	.LVL16:
  99:src/Offline.c ****     if ((RSP_DATA.w_rspcode=APM_SendRcvd(&TX_BUF, &RX_BUF))==COMM_OK) {
 174              		.loc 1 99 0
ARM GAS  C:\Users\ahmedhamed\AppData\Local\Temp\ccmB5tm6.s 			page 6


 175 00e0 FFF7FEFF 		bl	ClearResponse
 176              	.LVL17:
 177              		.loc 1 100 0
 178 00e4 3368     		ldr	r3, [r6]
 179 00e6 0097     		str	r7, [sp]
 180 00e8 03F5CC52 		add	r2, r3, #6528
 181 00ec 03F51653 		add	r3, r3, #9600
 182 00f0 2033     		adds	r3, r3, #32
 183 00f2 1020     		movs	r0, #16
 184 00f4 0B21     		movs	r1, #11
 185 00f6 1C32     		adds	r2, r2, #28
 186 00f8 FFF7FEFF 		bl	lib_app_call
 187              	.LVL18:
 188 00fc 43F23003 		movw	r3, #12336
 189 0100 80B2     		uxth	r0, r0
 190 0102 9842     		cmp	r0, r3
 191 0104 A4F86E05 		strh	r0, [r4, #1390]	@ movhi
 192 0108 09D1     		bne	.L16
 101:src/Offline.c ****       RSP_DATA.b_response = CheckHostRsp();
 193              		.loc 1 101 0
 194 010a FFF7FEFF 		bl	CheckHostRsp
 195              	.LVL19:
 196 010e 214B     		ldr	r3, .L39+4
 102:src/Offline.c ****       if (RSP_DATA.b_response <= TRANS_REJ)
 197              		.loc 1 102 0
 198 0110 0128     		cmp	r0, #1
 101:src/Offline.c ****       RSP_DATA.b_response = CheckHostRsp();
 199              		.loc 1 101 0
 200 0112 83F80007 		strb	r0, [r3, #1792]
 201              		.loc 1 102 0
 202 0116 02D8     		bhi	.L16
 103:src/Offline.c ****         UpdateHostStatus(NO_PENDING);
 203              		.loc 1 103 0
 204 0118 3846     		mov	r0, r7
 205 011a FFF7FEFF 		bl	UpdateHostStatus
 206              	.LVL20:
 207              	.L16:
 104:src/Offline.c ****     }
 105:src/Offline.c ****     if (RSP_DATA.b_response <= TRANS_REJ) {
 208              		.loc 1 105 0
 209 011e 94F80037 		ldrb	r3, [r4, #1792]	@ zero_extendqisi2
 210 0122 012B     		cmp	r3, #1
 211 0124 2FD8     		bhi	.L22
 106:src/Offline.c ****       Short1Beep();
 212              		.loc 1 106 0
 213 0126 FFF7FEFF 		bl	Short1Beep
 214              	.LVL21:
 107:src/Offline.c ****       if (STIS_ACQ_TBL(0).b_status == DOWN)
 215              		.loc 1 107 0
 216 012a 3468     		ldr	r4, [r6]
 217 012c 94F8F033 		ldrb	r3, [r4, #1008]	@ zero_extendqisi2
 218 0130 012B     		cmp	r3, #1
 219 0132 3FF471AF 		beq	.L6
 108:src/Offline.c ****         return TRUE;   /* return if host still down */
 109:src/Offline.c ****       else
 110:src/Offline.c ****         RECORD_BUF.b_trans_status &= 0x3F;  // RETAIN ADJUSTED & VOIDED flag
 220              		.loc 1 110 0
ARM GAS  C:\Users\ahmedhamed\AppData\Local\Temp\ccmB5tm6.s 			page 7


 221 0136 94F8CA36 		ldrb	r3, [r4, #1738]	@ zero_extendqisi2
 222 013a 03F03F03 		and	r3, r3, #63
 223 013e 84F8CA36 		strb	r3, [r4, #1738]
 111:src/Offline.c **** 
 112:src/Offline.c ****       if (TX_DATA.b_trans != ADJUST)
 224              		.loc 1 112 0
 225 0142 144B     		ldr	r3, .L39+4
 226 0144 93F80033 		ldrb	r3, [r3, #768]	@ zero_extendqisi2
 227 0148 0B2B     		cmp	r3, #11
 228 014a 05D0     		beq	.L18
 113:src/Offline.c ****         memcpy(RECORD_BUF.sb_rrn, RSP_DATA.sb_rrn, 12);
 229              		.loc 1 113 0
 230 014c 04F23170 		addw	r0, r4, #1841
 231 0150 1349     		ldr	r1, .L39+16
 232 0152 0C22     		movs	r2, #12
 233 0154 FFF7FEFF 		bl	memcpy
 234              	.LVL22:
 235              	.L18:
 114:src/Offline.c ****       RECORD_BUF.dd_org_amount=TX_DATA.dd_amount;
 236              		.loc 1 114 0
 237 0158 124B     		ldr	r3, .L39+20
 238 015a 04F5DE61 		add	r1, r4, #1776
 239 015e D3E90023 		ldrd	r2, [r3]
 115:src/Offline.c ****       memcpy(RECORD_BUF.sb_trace_no, TX_DATA.sb_trace_no, 3);
 240              		.loc 1 115 0
 241 0162 04F2CB60 		addw	r0, r4, #1739
 114:src/Offline.c ****       RECORD_BUF.dd_org_amount=TX_DATA.dd_amount;
 242              		.loc 1 114 0
 243 0166 C1E90023 		strd	r2, [r1]
 244              		.loc 1 115 0
 245 016a 0F49     		ldr	r1, .L39+24
 246 016c 0322     		movs	r2, #3
 247 016e FFF7FEFF 		bl	memcpy
 248              	.LVL23:
 116:src/Offline.c ****       UpdateRecord(rec_idx);
 249              		.loc 1 116 0
 250 0172 2846     		mov	r0, r5
 117:src/Offline.c ****       rec_idx += 1;
 251              		.loc 1 117 0
 252 0174 0135     		adds	r5, r5, #1
 253              	.LVL24:
 116:src/Offline.c ****       UpdateRecord(rec_idx);
 254              		.loc 1 116 0
 255 0176 FFF7FEFF 		bl	UpdateRecord
 256              	.LVL25:
 257              		.loc 1 117 0
 258 017a ADB2     		uxth	r5, r5
 259              	.LVL26:
 118:src/Offline.c ****       if (aSendAll)
 260              		.loc 1 118 0
 261 017c B8F1000F 		cmp	r8, #0
 262 0180 7FF462AF 		bne	.L10
 263 0184 48E7     		b	.L6
 264              	.L22:
 119:src/Offline.c ****         continue;
 120:src/Offline.c ****       return TRUE;
 121:src/Offline.c ****     }
ARM GAS  C:\Users\ahmedhamed\AppData\Local\Temp\ccmB5tm6.s 			page 8


 122:src/Offline.c ****     return FALSE;
 265              		.loc 1 122 0
 266 0186 0020     		movs	r0, #0
 267              	.LVL27:
 268              	.L36:
 123:src/Offline.c ****   }
 124:src/Offline.c **** }
 269              		.loc 1 124 0
 270 0188 02B0     		add	sp, sp, #8
 271              		.cfi_def_cfa_offset 24
 272              		@ sp needed
 273 018a BDE8F081 		pop	{r4, r5, r6, r7, r8, pc}
 274              	.L40:
 275 018e 00BF     		.align	2
 276              	.L39:
 277 0190 00000000 		.word	gGDS
 278 0194 00000000 		.word	gGTS
 279 0198 00030000 		.word	gGTS+768
 280 019c 84030000 		.word	gGTS+900
 281 01a0 71050000 		.word	gGTS+1393
 282 01a4 18030000 		.word	gGTS+792
 283 01a8 03030000 		.word	gGTS+771
 284              		.cfi_endproc
 285              	.LFE0:
 286              		.size	OfflineSent, .-OfflineSent
 287              		.text
 288              	.Letext0:
 289              		.file 2 "../LibA5T1000/common.h"
 290              		.file 3 "src/sysutil.h"
 291              		.file 4 "../LibA5T1000/emv2dll.h"
 292              		.file 5 "../LibA5T1000/emvcl2dll.h"
 293              		.file 6 "../LibA5T1000/ecrdll.h"
 294              		.file 7 "../LibA5T1000/midware.h"
 295              		.file 8 "src/constant.h"
 296              		.file 9 "../LibA5T1000/apm.h"
 297              		.file 10 "src/corevar.h"
 298              		.file 11 "src/tranutil.h"
 299              		.file 12 "src/hostmsg.h"
 300              		.file 13 "src/chkoptn.h"
 301              		.file 14 "src/record.h"
 302              		.file 15 "../LibA5T1000/system.h"