ARM GAS  C:\Users\AHMED~1.ELE\AppData\Local\Temp\ccEeS1Va.s 			page 1


   1              		.syntax unified
   2              		.cpu cortex-a5
   3              		.fpu softvfp
   4              		.eabi_attribute 20, 1
   5              		.eabi_attribute 21, 1
   6              		.eabi_attribute 23, 3
   7              		.eabi_attribute 24, 1
   8              		.eabi_attribute 25, 1
   9              		.eabi_attribute 26, 1
  10              		.eabi_attribute 30, 4
  11              		.eabi_attribute 34, 0
  12              		.eabi_attribute 18, 4
  13              		.thumb
  14              		.file	"Others.c"
  15              		.text
  16              	.Ltext0:
  17              		.cfi_sections	.debug_frame
  18              		.section	.text.GetAccessrefund,"ax",%progbits
  19              		.align	1
  20              		.global	GetAccessrefund
  21              		.thumb
  22              		.thumb_func
  23              		.type	GetAccessrefund, %function
  24              	GetAccessrefund:
  25              	.LFB0:
  26              		.file 1 "src/Others.c"
   1:src/Others.c  **** //-----------------------------------------------------------------------------
   2:src/Others.c  **** //  File          : Others.c
   3:src/Others.c  **** //  Module        :
   4:src/Others.c  **** //  Description   : Include routines for other transactions.
   5:src/Others.c  **** //  Author        : Lewis
   6:src/Others.c  **** //  Notes         :
   7:src/Others.c  **** //
   8:src/Others.c  **** // ============================================================================
   9:src/Others.c  **** // | Naming conventions                                                       |
  10:src/Others.c  **** // | ~~~~~~~~~~~~~~~~~~                                                       |
  11:src/Others.c  **** // |        Struct define : Leading T                                         |
  12:src/Others.c  **** // |         Struct/Array : Leading s                                         |
  13:src/Others.c  **** // |             Constant : Leading K                                         |
  14:src/Others.c  **** // |      Global Variable : Leading g  (variable use outside one C file)      |
  15:src/Others.c  **** // |                                                                          |
  16:src/Others.c  **** // |   BYTE( 8 Bits) size : Leading b                                         |
  17:src/Others.c  **** // |   CHAR( 8 Bits) size : Leading c                                         |
  18:src/Others.c  **** // |   WORD(16 Bits) size : Leading w                                         |
  19:src/Others.c  **** // |  DWORD(32 Bits) size : Leading d                                         |
  20:src/Others.c  **** // |    int(32 Bits) size : Leading i                                         |
  21:src/Others.c  **** // | DDWORD(64 Bits) size : Leading dd                                        |
  22:src/Others.c  **** // |              Pointer : Leading p                                         |
  23:src/Others.c  **** // |                                                                          |
  24:src/Others.c  **** // |    Function argument : Leading a                                         |
  25:src/Others.c  **** // |       Local Variable : All lower case                                    |
  26:src/Others.c  **** // |                                                                          |
  27:src/Others.c  **** // | Examples:                                                                |
  28:src/Others.c  **** // |                Array : Leading s, (sb = arrary of byte, etc)             |
  29:src/Others.c  **** // |              Pointer : Leading p, (pb = pointer of byte, etc)            |
  30:src/Others.c  **** // ============================================================================
  31:src/Others.c  **** //
ARM GAS  C:\Users\AHMED~1.ELE\AppData\Local\Temp\ccEeS1Va.s 			page 2


  32:src/Others.c  **** //  Date          Who         Action
  33:src/Others.c  **** //  ------------  ----------- -------------------------------------------------
  34:src/Others.c  **** //  29 Sept 2008  Lewis       Initial Version.
  35:src/Others.c  **** //-----------------------------------------------------------------------------
  36:src/Others.c  **** #include <string.h>
  37:src/Others.c  **** #include "apm.h"
  38:src/Others.c  **** #include "sysutil.h"
  39:src/Others.c  **** #include "constant.h"
  40:src/Others.c  **** #include "corevar.h"
  41:src/Others.c  **** #include "tranutil.h"
  42:src/Others.c  **** #include "input.h"
  43:src/Others.c  **** #include "sale.h"
  44:src/Others.c  **** #include "saleoffl.h"
  45:src/Others.c  **** #include "auth.h"
  46:src/Others.c  **** #include "refund.h"
  47:src/Others.c  **** #include "void.h"
  48:src/Others.c  **** #include "adjust.h"
  49:src/Others.c  **** #include "settle.h"
  50:src/Others.c  **** #include "menu.h"
  51:src/Others.c  **** #include "emvtrans.h"
  52:src/Others.c  **** #include "others.h"
  53:src/Others.c  **** 
  54:src/Others.c  **** // Default Other Trans Menu
  55:src/Others.c  **** const struct MENU_ITEM KOtherTxnItem [] = {
  56:src/Others.c  ****   {  0, "Settlement"},
  57:src/Others.c  ****   {  1, "offline Void"},
  58:src/Others.c  ****   {  2, "Offline"},
  59:src/Others.c  ****   {  3, "Refund"},
  60:src/Others.c  ****   {  4, "Auth"},
  61:src/Others.c  ****   {  5, "Adjustment"},
  62:src/Others.c  ****   {-1, NULL},
  63:src/Others.c  **** };
  64:src/Others.c  **** 
  65:src/Others.c  **** 
  66:src/Others.c  **** const struct MENU_ITEM KOtherTxncurr [] = {
  67:src/Others.c  ****   {  1, "EGP"},
  68:src/Others.c  ****   {  2, "USD"},
  69:src/Others.c  ****   {  3, "EURO"},
  70:src/Others.c  ****   {-1, NULL},
  71:src/Others.c  **** };
  72:src/Others.c  **** 
  73:src/Others.c  **** 
  74:src/Others.c  **** const struct MENU_DAT KOtherTransMenu  = {
  75:src/Others.c  ****   "Trans Selection",
  76:src/Others.c  ****   KOtherTxnItem,
  77:src/Others.c  **** };
  78:src/Others.c  **** 
  79:src/Others.c  **** const struct MENU_DAT KOthercurrMenu  = {
  80:src/Others.c  ****   "Currency Select",
  81:src/Others.c  ****   KOtherTxncurr,
  82:src/Others.c  **** };
  83:src/Others.c  **** 
  84:src/Others.c  **** 
  85:src/Others.c  **** 
  86:src/Others.c  **** 
  87:src/Others.c  **** BOOLEAN GetAccessrefund(void)
  88:src/Others.c  **** {
ARM GAS  C:\Users\AHMED~1.ELE\AppData\Local\Temp\ccEeS1Va.s 			page 3


  27              		.loc 1 88 0
  28              		.cfi_startproc
  29              		@ args = 0, pretend = 0, frame = 32
  30              		@ frame_needed = 0, uses_anonymous_args = 0
  31 0000 70B5     		push	{r4, r5, r6, lr}
  32              		.cfi_def_cfa_offset 16
  33              		.cfi_offset 4, -16
  34              		.cfi_offset 5, -12
  35              		.cfi_offset 6, -8
  36              		.cfi_offset 14, -4
  89:src/Others.c  ****   DWORD retry;
  90:src/Others.c  ****   BYTE kbdbuf[MW_MAX_LINESIZE+1];
  91:src/Others.c  ****   os_disp_putc('\f');
  37              		.loc 1 91 0
  38 0002 0C21     		movs	r1, #12
  88:src/Others.c  ****   DWORD retry;
  39              		.loc 1 88 0
  40 0004 8AB0     		sub	sp, sp, #40
  41              		.cfi_def_cfa_offset 56
  42              		.loc 1 91 0
  43 0006 1620     		movs	r0, #22
  44 0008 FFF7FEFF 		bl	sys_func1
  45              	.LVL0:
  92:src/Others.c  ****         ClearDispMW();
  93:src/Others.c  ****  memset(kbdbuf, 0, sizeof(kbdbuf));
  46              		.loc 1 93 0
  47 000c 03AC     		add	r4, sp, #12
  92:src/Others.c  ****         ClearDispMW();
  48              		.loc 1 92 0
  49 000e 0C21     		movs	r1, #12
  50 0010 1620     		movs	r0, #22
  51 0012 FFF7FEFF 		bl	sys_func1
  52              	.LVL1:
  53              		.loc 1 93 0
  54 0016 0021     		movs	r1, #0
  55 0018 1B22     		movs	r2, #27
  56 001a 2046     		mov	r0, r4
  57 001c FFF7FEFF 		bl	memset
  58              	.LVL2:
  59              	.LBB2:
  94:src/Others.c  ****   DispLineMW("ACCESS CODE", MW_LINE3, MW_CENTER|MW_BIGFONT);
  60              		.loc 1 94 0
  61 0020 9220     		movs	r0, #146
  62 0022 0C21     		movs	r1, #12
  63 0024 FFF7FEFF 		bl	sys_func1
  64              	.LVL3:
  65 0028 0546     		mov	r5, r0
  66 002a 98B1     		cbz	r0, .L2
  67              		.loc 1 94 0 is_stmt 0 discriminator 1
  68 002c 2749     		ldr	r1, .L17
  69 002e 0B22     		movs	r2, #11
  70 0030 FFF7FEFF 		bl	memcpy
  71              	.LVL4:
  72 0034 0023     		movs	r3, #0
  73 0036 2521     		movs	r1, #37
  74 0038 EB72     		strb	r3, [r5, #11]
  75 003a 41F20203 		movw	r3, #4098
ARM GAS  C:\Users\AHMED~1.ELE\AppData\Local\Temp\ccEeS1Va.s 			page 4


  76 003e 0F20     		movs	r0, #15
  77 0040 0093     		str	r3, [sp]
  78 0042 2A46     		mov	r2, r5
  79 0044 4FF44073 		mov	r3, #768
  80 0048 FFF7FEFF 		bl	lib_app_call
  81              	.LVL5:
  82 004c 9420     		movs	r0, #148
  83 004e 2946     		mov	r1, r5
  84 0050 FFF7FEFF 		bl	sys_func1
  85              	.LVL6:
  86              	.L2:
  87              	.LBE2:
  88              	.LBB3:
  95:src/Others.c  ****   DispLineMW(kbdbuf, MW_LINE5, MW_CENTER|MW_BIGFONT);
  89              		.loc 1 95 0 is_stmt 1
  90 0054 2046     		mov	r0, r4
  91 0056 FFF7FEFF 		bl	strlen
  92              	.LVL7:
  93 005a 0646     		mov	r6, r0
  94              	.LVL8:
  95 005c 711C     		adds	r1, r6, #1
  96 005e 9220     		movs	r0, #146
  97              	.LVL9:
  98 0060 FFF7FEFF 		bl	sys_func1
  99              	.LVL10:
 100 0064 0546     		mov	r5, r0
 101              	.LVL11:
 102 0066 98B1     		cbz	r0, .L3
 103              		.loc 1 95 0 is_stmt 0 discriminator 1
 104 0068 2146     		mov	r1, r4
 105 006a 3246     		mov	r2, r6
 106 006c FFF7FEFF 		bl	memcpy
 107              	.LVL12:
 108 0070 0023     		movs	r3, #0
 109 0072 2521     		movs	r1, #37
 110 0074 AB55     		strb	r3, [r5, r6]
 111 0076 41F20203 		movw	r3, #4098
 112 007a 0F20     		movs	r0, #15
 113 007c 0093     		str	r3, [sp]
 114 007e 2A46     		mov	r2, r5
 115 0080 4FF4A063 		mov	r3, #1280
 116 0084 FFF7FEFF 		bl	lib_app_call
 117              	.LVL13:
 118 0088 9420     		movs	r0, #148
 119 008a 2946     		mov	r1, r5
 120 008c FFF7FEFF 		bl	sys_func1
 121              	.LVL14:
 122              	.L3:
 123              	.LBE3:
  88:src/Others.c  ****   DWORD retry;
 124              		.loc 1 88 0 is_stmt 1
 125 0090 0425     		movs	r5, #4
 126              	.LVL15:
 127              	.L4:
  96:src/Others.c  **** 
  97:src/Others.c  ****   retry = 3;
  98:src/Others.c  ****   while (retry--) {
ARM GAS  C:\Users\AHMED~1.ELE\AppData\Local\Temp\ccEeS1Va.s 			page 5


 128              		.loc 1 98 0
 129 0092 013D     		subs	r5, r5, #1
 130              	.LVL16:
 131 0094 0AD0     		beq	.L8
 132              	.LVL17:
  99:src/Others.c  ****     if (!APM_GetKbd(HIDE_NUMERIC+MW_BIGFONT+MW_LINE7+RIGHT_JUST, IMIN(16)+IMAX(16), kbdbuf))
 133              		.loc 1 99 0
 134 0096 0094     		str	r4, [sp]
 135 0098 1020     		movs	r0, #16
 136 009a 0521     		movs	r1, #5
 137 009c 0C4A     		ldr	r2, .L17+4
 138 009e 41F21003 		movw	r3, #4112
 139 00a2 FFF7FEFF 		bl	lib_app_call
 140              	.LVL18:
 141 00a6 10F0FF0F 		tst	r0, #255
 142 00aa 01D1     		bne	.L5
 143              	.LVL19:
 144              	.L8:
 100:src/Others.c  ****       return FALSE;
 145              		.loc 1 100 0
 146 00ac 0020     		movs	r0, #0
 147 00ae 0BE0     		b	.L6
 148              	.LVL20:
 149              	.L5:
 101:src/Others.c  **** 
 102:src/Others.c  ****     if (memcmp(STIS_TERM_CFG.sb_psw_refund, &kbdbuf[1], 16) == 0)
 150              		.loc 1 102 0
 151 00b0 084B     		ldr	r3, .L17+8
 152 00b2 611C     		adds	r1, r4, #1
 153 00b4 1868     		ldr	r0, [r3]
 154 00b6 1022     		movs	r2, #16
 155 00b8 9D30     		adds	r0, r0, #157
 156 00ba FFF7FEFF 		bl	memcmp
 157              	.LVL21:
 158 00be 10B1     		cbz	r0, .L9
 103:src/Others.c  ****       return TRUE;
 104:src/Others.c  **** 
 105:src/Others.c  ****     LongBeep();
 159              		.loc 1 105 0
 160 00c0 FFF7FEFF 		bl	LongBeep
 161              	.LVL22:
 162 00c4 E5E7     		b	.L4
 163              	.L9:
 103:src/Others.c  ****       return TRUE;
 164              		.loc 1 103 0
 165 00c6 0120     		movs	r0, #1
 166              	.LVL23:
 167              	.L6:
 106:src/Others.c  ****   }
 107:src/Others.c  **** 
 108:src/Others.c  ****   return FALSE;
 109:src/Others.c  **** }
 168              		.loc 1 109 0
 169 00c8 0AB0     		add	sp, sp, #40
 170              		.cfi_def_cfa_offset 16
 171              		@ sp needed
 172 00ca 70BD     		pop	{r4, r5, r6, pc}
ARM GAS  C:\Users\AHMED~1.ELE\AppData\Local\Temp\ccEeS1Va.s 			page 6


 173              	.LVL24:
 174              	.L18:
 175              		.align	2
 176              	.L17:
 177 00cc 00000000 		.word	.LC0
 178 00d0 FF170300 		.word	202751
 179 00d4 00000000 		.word	gGDS
 180              		.cfi_endproc
 181              	.LFE0:
 182              		.size	GetAccessrefund, .-GetAccessrefund
 183              		.section	.text.GetAccessrevoid,"ax",%progbits
 184              		.align	1
 185              		.global	GetAccessrevoid
 186              		.thumb
 187              		.thumb_func
 188              		.type	GetAccessrevoid, %function
 189              	GetAccessrevoid:
 190              	.LFB1:
 110:src/Others.c  **** 
 111:src/Others.c  **** 
 112:src/Others.c  **** BOOLEAN GetAccessrevoid(void)
 113:src/Others.c  **** {
 191              		.loc 1 113 0
 192              		.cfi_startproc
 193              		@ args = 0, pretend = 0, frame = 32
 194              		@ frame_needed = 0, uses_anonymous_args = 0
 195 0000 70B5     		push	{r4, r5, r6, lr}
 196              		.cfi_def_cfa_offset 16
 197              		.cfi_offset 4, -16
 198              		.cfi_offset 5, -12
 199              		.cfi_offset 6, -8
 200              		.cfi_offset 14, -4
 114:src/Others.c  ****   DWORD retry;
 115:src/Others.c  ****   BYTE kbdbuf[MW_MAX_LINESIZE+1];
 116:src/Others.c  **** 
 117:src/Others.c  ****   os_disp_putc('\f');
 201              		.loc 1 117 0
 202 0002 0C21     		movs	r1, #12
 113:src/Others.c  ****   DWORD retry;
 203              		.loc 1 113 0
 204 0004 8AB0     		sub	sp, sp, #40
 205              		.cfi_def_cfa_offset 56
 206              		.loc 1 117 0
 207 0006 1620     		movs	r0, #22
 208 0008 FFF7FEFF 		bl	sys_func1
 209              	.LVL25:
 118:src/Others.c  ****         ClearDispMW();
 119:src/Others.c  **** 		memset(kbdbuf, 0, sizeof(kbdbuf));
 210              		.loc 1 119 0
 211 000c 03AC     		add	r4, sp, #12
 118:src/Others.c  ****         ClearDispMW();
 212              		.loc 1 118 0
 213 000e 0C21     		movs	r1, #12
 214 0010 1620     		movs	r0, #22
 215 0012 FFF7FEFF 		bl	sys_func1
 216              	.LVL26:
 217              		.loc 1 119 0
ARM GAS  C:\Users\AHMED~1.ELE\AppData\Local\Temp\ccEeS1Va.s 			page 7


 218 0016 0021     		movs	r1, #0
 219 0018 1B22     		movs	r2, #27
 220 001a 2046     		mov	r0, r4
 221 001c FFF7FEFF 		bl	memset
 222              	.LVL27:
 223              	.LBB4:
 120:src/Others.c  ****   DispLineMW("ACCESS CODE", MW_LINE3, MW_CENTER|MW_BIGFONT);
 224              		.loc 1 120 0
 225 0020 9220     		movs	r0, #146
 226 0022 0C21     		movs	r1, #12
 227 0024 FFF7FEFF 		bl	sys_func1
 228              	.LVL28:
 229 0028 0546     		mov	r5, r0
 230 002a 98B1     		cbz	r0, .L20
 231              		.loc 1 120 0 is_stmt 0 discriminator 1
 232 002c 2749     		ldr	r1, .L34
 233 002e 0B22     		movs	r2, #11
 234 0030 FFF7FEFF 		bl	memcpy
 235              	.LVL29:
 236 0034 0023     		movs	r3, #0
 237 0036 2521     		movs	r1, #37
 238 0038 EB72     		strb	r3, [r5, #11]
 239 003a 41F20203 		movw	r3, #4098
 240 003e 0F20     		movs	r0, #15
 241 0040 0093     		str	r3, [sp]
 242 0042 2A46     		mov	r2, r5
 243 0044 4FF44073 		mov	r3, #768
 244 0048 FFF7FEFF 		bl	lib_app_call
 245              	.LVL30:
 246 004c 9420     		movs	r0, #148
 247 004e 2946     		mov	r1, r5
 248 0050 FFF7FEFF 		bl	sys_func1
 249              	.LVL31:
 250              	.L20:
 251              	.LBE4:
 252              	.LBB5:
 121:src/Others.c  ****   DispLineMW(kbdbuf, MW_LINE5, MW_CENTER|MW_BIGFONT);
 253              		.loc 1 121 0 is_stmt 1
 254 0054 2046     		mov	r0, r4
 255 0056 FFF7FEFF 		bl	strlen
 256              	.LVL32:
 257 005a 0646     		mov	r6, r0
 258              	.LVL33:
 259 005c 711C     		adds	r1, r6, #1
 260 005e 9220     		movs	r0, #146
 261              	.LVL34:
 262 0060 FFF7FEFF 		bl	sys_func1
 263              	.LVL35:
 264 0064 0546     		mov	r5, r0
 265              	.LVL36:
 266 0066 98B1     		cbz	r0, .L21
 267              		.loc 1 121 0 is_stmt 0 discriminator 1
 268 0068 2146     		mov	r1, r4
 269 006a 3246     		mov	r2, r6
 270 006c FFF7FEFF 		bl	memcpy
 271              	.LVL37:
 272 0070 0023     		movs	r3, #0
ARM GAS  C:\Users\AHMED~1.ELE\AppData\Local\Temp\ccEeS1Va.s 			page 8


 273 0072 2521     		movs	r1, #37
 274 0074 AB55     		strb	r3, [r5, r6]
 275 0076 41F20203 		movw	r3, #4098
 276 007a 0F20     		movs	r0, #15
 277 007c 0093     		str	r3, [sp]
 278 007e 2A46     		mov	r2, r5
 279 0080 4FF4A063 		mov	r3, #1280
 280 0084 FFF7FEFF 		bl	lib_app_call
 281              	.LVL38:
 282 0088 9420     		movs	r0, #148
 283 008a 2946     		mov	r1, r5
 284 008c FFF7FEFF 		bl	sys_func1
 285              	.LVL39:
 286              	.L21:
 287              	.LBE5:
 113:src/Others.c  ****   DWORD retry;
 288              		.loc 1 113 0 is_stmt 1
 289 0090 0425     		movs	r5, #4
 290              	.LVL40:
 291              	.L22:
 122:src/Others.c  **** 
 123:src/Others.c  ****   retry = 3;
 124:src/Others.c  ****   while (retry--) {
 292              		.loc 1 124 0
 293 0092 013D     		subs	r5, r5, #1
 294              	.LVL41:
 295 0094 0AD0     		beq	.L26
 296              	.LVL42:
 125:src/Others.c  ****     if (!APM_GetKbd(HIDE_NUMERIC+MW_BIGFONT+MW_LINE7+RIGHT_JUST, IMIN(16)+IMAX(16), kbdbuf))
 297              		.loc 1 125 0
 298 0096 0094     		str	r4, [sp]
 299 0098 1020     		movs	r0, #16
 300 009a 0521     		movs	r1, #5
 301 009c 0C4A     		ldr	r2, .L34+4
 302 009e 41F21003 		movw	r3, #4112
 303 00a2 FFF7FEFF 		bl	lib_app_call
 304              	.LVL43:
 305 00a6 10F0FF0F 		tst	r0, #255
 306 00aa 01D1     		bne	.L23
 307              	.LVL44:
 308              	.L26:
 126:src/Others.c  ****       return FALSE;
 309              		.loc 1 126 0
 310 00ac 0020     		movs	r0, #0
 311 00ae 0BE0     		b	.L24
 312              	.LVL45:
 313              	.L23:
 127:src/Others.c  **** 
 128:src/Others.c  **** 	if (memcmp(STIS_TERM_CFG.sb_psw_void, &kbdbuf[1], 16) == 0)
 314              		.loc 1 128 0
 315 00b0 084B     		ldr	r3, .L34+8
 316 00b2 611C     		adds	r1, r4, #1
 317 00b4 1868     		ldr	r0, [r3]
 318 00b6 1022     		movs	r2, #16
 319 00b8 AD30     		adds	r0, r0, #173
 320 00ba FFF7FEFF 		bl	memcmp
 321              	.LVL46:
ARM GAS  C:\Users\AHMED~1.ELE\AppData\Local\Temp\ccEeS1Va.s 			page 9


 322 00be 10B1     		cbz	r0, .L27
 129:src/Others.c  ****       return TRUE;
 130:src/Others.c  **** 
 131:src/Others.c  ****     LongBeep();
 323              		.loc 1 131 0
 324 00c0 FFF7FEFF 		bl	LongBeep
 325              	.LVL47:
 326 00c4 E5E7     		b	.L22
 327              	.L27:
 129:src/Others.c  ****       return TRUE;
 328              		.loc 1 129 0
 329 00c6 0120     		movs	r0, #1
 330              	.LVL48:
 331              	.L24:
 132:src/Others.c  ****   }
 133:src/Others.c  **** 
 134:src/Others.c  ****   return FALSE;
 135:src/Others.c  **** }
 332              		.loc 1 135 0
 333 00c8 0AB0     		add	sp, sp, #40
 334              		.cfi_def_cfa_offset 16
 335              		@ sp needed
 336 00ca 70BD     		pop	{r4, r5, r6, pc}
 337              	.LVL49:
 338              	.L35:
 339              		.align	2
 340              	.L34:
 341 00cc 00000000 		.word	.LC0
 342 00d0 FF170300 		.word	202751
 343 00d4 00000000 		.word	gGDS
 344              		.cfi_endproc
 345              	.LFE1:
 346              		.size	GetAccessrevoid, .-GetAccessrevoid
 347              		.section	.text.OtherTrans,"ax",%progbits
 348              		.align	1
 349              		.global	OtherTrans
 350              		.thumb
 351              		.thumb_func
 352              		.type	OtherTrans, %function
 353              	OtherTrans:
 354              	.LFB2:
 136:src/Others.c  **** //*****************************************************************************
 137:src/Others.c  **** //  Function        : OtherTrans
 138:src/Others.c  **** //  Description     : Show transaction select screen & run user's choice.
 139:src/Others.c  **** //  Input           : N/A
 140:src/Others.c  **** //  Return          : N/A
 141:src/Others.c  **** //  Note            : N/A
 142:src/Others.c  **** //  Globals Changed : N/A
 143:src/Others.c  **** //*****************************************************************************
 144:src/Others.c  **** void OtherTrans(void)
 145:src/Others.c  **** {
 355              		.loc 1 145 0
 356              		.cfi_startproc
 357              		@ args = 0, pretend = 0, frame = 0
 358              		@ frame_needed = 0, uses_anonymous_args = 0
 359              	.LVL50:
 360 0000 07B5     		push	{r0, r1, r2, lr}
ARM GAS  C:\Users\AHMED~1.ELE\AppData\Local\Temp\ccEeS1Va.s 			page 10


 361              		.cfi_def_cfa_offset 16
 362              		.cfi_offset 14, -4
 146:src/Others.c  ****   int select;
 147:src/Others.c  ****   int host_idx;
 148:src/Others.c  ****   DWORD keyin;
 149:src/Others.c  **** 
 150:src/Others.c  ****   select = 0;
 151:src/Others.c  ****   select = MenuSelect(&KOtherTransMenu, select);
 363              		.loc 1 151 0
 364 0002 2748     		ldr	r0, .L63
 365 0004 0021     		movs	r1, #0
 366 0006 FFF7FEFF 		bl	MenuSelect
 367              	.LVL51:
 152:src/Others.c  ****   if (select == -1)
 368              		.loc 1 152 0
 369 000a 421C     		adds	r2, r0, #1
 370 000c 45D0     		beq	.L36
 153:src/Others.c  ****     return;
 154:src/Others.c  **** 
 155:src/Others.c  ****   switch (select) {
 371              		.loc 1 155 0
 372 000e 0528     		cmp	r0, #5
 373 0010 43D8     		bhi	.L36
 374 0012 DFE800F0 		tbb	[pc, r0]
 375              	.L40:
 376 0016 03       		.byte	(.L39-.L40)/2
 377 0017 18       		.byte	(.L41-.L40)/2
 378 0018 26       		.byte	(.L42-.L40)/2
 379 0019 28       		.byte	(.L43-.L40)/2
 380 001a 37       		.byte	(.L44-.L40)/2
 381 001b 3B       		.byte	(.L45-.L40)/2
 382              		.p2align 1
 383              	.L39:
 156:src/Others.c  **** case 0:
 157:src/Others.c  **** 		if (GetAccessrefund()){
 384              		.loc 1 157 0
 385 001c FFF7FEFF 		bl	GetAccessrefund
 386              	.LVL52:
 387 0020 0028     		cmp	r0, #0
 388 0022 3AD0     		beq	.L36
 158:src/Others.c  ****       host_idx = APM_SelectAcquirer(TRUE);
 389              		.loc 1 158 0
 390 0024 0023     		movs	r3, #0
 391 0026 1020     		movs	r0, #16
 392 0028 0093     		str	r3, [sp]
 393 002a 2021     		movs	r1, #32
 394 002c 0122     		movs	r2, #1
 395 002e FFF7FEFF 		bl	lib_app_call
 396              	.LVL53:
 159:src/Others.c  ****       if (host_idx != -1) {
 397              		.loc 1 159 0
 398 0032 431C     		adds	r3, r0, #1
 399 0034 31D0     		beq	.L36
 160:src/Others.c  ****         INPUT.w_host_idx = host_idx;
 400              		.loc 1 160 0
 401 0036 1B4B     		ldr	r3, .L63+4
 402 0038 A3F87600 		strh	r0, [r3, #118]	@ movhi
ARM GAS  C:\Users\AHMED~1.ELE\AppData\Local\Temp\ccEeS1Va.s 			page 11


 161:src/Others.c  ****         SettleTrans();
 162:src/Others.c  **** 	  }
 163:src/Others.c  **** 		}
 164:src/Others.c  **** 
 165:src/Others.c  **** 		break;
 166:src/Others.c  **** 
 167:src/Others.c  **** case 1:
 168:src/Others.c  **** 		if (GetAccessrevoid())
 169:src/Others.c  ****       VoidTrans(-1);
 170:src/Others.c  **** 		DispCtrlMW(K_SelSmFont);
 171:src/Others.c  ****       break;
 172:src/Others.c  **** case 2:
 173:src/Others.c  ****       WaitCardTrans(SALE_OFFLINE);
 174:src/Others.c  ****       ResetTerm();
 175:src/Others.c  ****       break;
 176:src/Others.c  **** case 3:
 177:src/Others.c  **** 	if (GetAccessrefund())
 178:src/Others.c  ****       WaitCardTrans(REFUND);
 179:src/Others.c  **** 
 180:src/Others.c  **** 	  DispCtrlMW(K_SelSmFont);
 181:src/Others.c  ****       ResetTerm();
 182:src/Others.c  ****       break;
 183:src/Others.c  **** case 4:
 184:src/Others.c  ****       WaitCardTrans(AUTH_SWIPE);
 185:src/Others.c  ****       ResetTerm();
 186:src/Others.c  ****       break;
 187:src/Others.c  **** case 5:
 188:src/Others.c  ****       AdjustTrans(-1);
 189:src/Others.c  ****       break;  
 190:src/Others.c  ****   }
 191:src/Others.c  **** }
 403              		.loc 1 191 0
 404 003c 03B0     		add	sp, sp, #12
 405              		.cfi_remember_state
 406              		.cfi_def_cfa_offset 4
 407              		@ sp needed
 408 003e 5DF804EB 		ldr	lr, [sp], #4
 409              		.cfi_restore 14
 410              		.cfi_def_cfa_offset 0
 161:src/Others.c  ****         SettleTrans();
 411              		.loc 1 161 0
 412 0042 FFF7FEBF 		b	SettleTrans
 413              	.LVL54:
 414              	.L41:
 415              		.cfi_restore_state
 168:src/Others.c  ****       VoidTrans(-1);
 416              		.loc 1 168 0
 417 0046 FFF7FEFF 		bl	GetAccessrevoid
 418              	.LVL55:
 419 004a 18B1     		cbz	r0, .L47
 169:src/Others.c  **** 		DispCtrlMW(K_SelSmFont);
 420              		.loc 1 169 0
 421 004c 4FF0FF30 		mov	r0, #-1
 422 0050 FFF7FEFF 		bl	VoidTrans
 423              	.LVL56:
 424              	.L47:
 170:src/Others.c  ****       break;
ARM GAS  C:\Users\AHMED~1.ELE\AppData\Local\Temp\ccEeS1Va.s 			page 12


 425              		.loc 1 170 0
 426 0054 1620     		movs	r0, #22
 427 0056 1021     		movs	r1, #16
 428              		.loc 1 191 0
 429 0058 03B0     		add	sp, sp, #12
 430              		.cfi_remember_state
 431              		.cfi_def_cfa_offset 4
 432              		@ sp needed
 433 005a 5DF804EB 		ldr	lr, [sp], #4
 434              		.cfi_restore 14
 435              		.cfi_def_cfa_offset 0
 170:src/Others.c  ****       break;
 436              		.loc 1 170 0
 437 005e FFF7FEBF 		b	sys_func1
 438              	.LVL57:
 439              	.L42:
 440              		.cfi_restore_state
 173:src/Others.c  ****       ResetTerm();
 441              		.loc 1 173 0
 442 0062 0720     		movs	r0, #7
 443              	.LVL58:
 444 0064 0FE0     		b	.L62
 445              	.LVL59:
 446              	.L43:
 177:src/Others.c  ****       WaitCardTrans(REFUND);
 447              		.loc 1 177 0
 448 0066 FFF7FEFF 		bl	GetAccessrefund
 449              	.LVL60:
 450 006a 10B1     		cbz	r0, .L48
 178:src/Others.c  **** 
 451              		.loc 1 178 0
 452 006c 0620     		movs	r0, #6
 453 006e FFF7FEFF 		bl	WaitCardTrans
 454              	.LVL61:
 455              	.L48:
 180:src/Others.c  ****       ResetTerm();
 456              		.loc 1 180 0
 457 0072 1620     		movs	r0, #22
 458 0074 1021     		movs	r1, #16
 459 0076 FFF7FEFF 		bl	sys_func1
 460              	.LVL62:
 461              	.L61:
 462              		.loc 1 191 0
 463 007a 03B0     		add	sp, sp, #12
 464              		.cfi_remember_state
 465              		.cfi_def_cfa_offset 4
 466              		@ sp needed
 467 007c 5DF804EB 		ldr	lr, [sp], #4
 468              		.cfi_restore 14
 469              		.cfi_def_cfa_offset 0
 181:src/Others.c  ****       break;
 470              		.loc 1 181 0
 471 0080 FFF7FEBF 		b	ResetTerm
 472              	.LVL63:
 473              	.L44:
 474              		.cfi_restore_state
 184:src/Others.c  ****       ResetTerm();
ARM GAS  C:\Users\AHMED~1.ELE\AppData\Local\Temp\ccEeS1Va.s 			page 13


 475              		.loc 1 184 0
 476 0084 0020     		movs	r0, #0
 477              	.LVL64:
 478              	.L62:
 479 0086 FFF7FEFF 		bl	WaitCardTrans
 480              	.LVL65:
 481 008a F6E7     		b	.L61
 482              	.LVL66:
 483              	.L45:
 188:src/Others.c  ****       break;  
 484              		.loc 1 188 0
 485 008c 4FF0FF30 		mov	r0, #-1
 486              	.LVL67:
 487              		.loc 1 191 0
 488 0090 03B0     		add	sp, sp, #12
 489              		.cfi_remember_state
 490              		.cfi_def_cfa_offset 4
 491              		@ sp needed
 492 0092 5DF804EB 		ldr	lr, [sp], #4
 493              		.cfi_restore 14
 494              		.cfi_def_cfa_offset 0
 188:src/Others.c  ****       break;  
 495              		.loc 1 188 0
 496 0096 FFF7FEBF 		b	AdjustTrans
 497              	.LVL68:
 498              	.L36:
 499              		.cfi_restore_state
 500              		.loc 1 191 0
 501 009a 03B0     		add	sp, sp, #12
 502              		.cfi_def_cfa_offset 4
 503              		@ sp needed
 504 009c 5DF804FB 		ldr	pc, [sp], #4
 505              	.L64:
 506              		.align	2
 507              	.L63:
 508 00a0 00000000 		.word	.LANCHOR0
 509 00a4 00000000 		.word	gGTS
 510              		.cfi_endproc
 511              	.LFE2:
 512              		.size	OtherTrans, .-OtherTrans
 513              		.section	.text.OtherCurrency,"ax",%progbits
 514              		.align	1
 515              		.global	OtherCurrency
 516              		.thumb
 517              		.thumb_func
 518              		.type	OtherCurrency, %function
 519              	OtherCurrency:
 520              	.LFB3:
 192:src/Others.c  **** 
 193:src/Others.c  **** 
 194:src/Others.c  **** void OtherCurrency(void)
 195:src/Others.c  **** {
 521              		.loc 1 195 0
 522              		.cfi_startproc
 523              		@ args = 0, pretend = 0, frame = 0
 524              		@ frame_needed = 0, uses_anonymous_args = 0
 525              	.LVL69:
ARM GAS  C:\Users\AHMED~1.ELE\AppData\Local\Temp\ccEeS1Va.s 			page 14


 526 0000 08B5     		push	{r3, lr}
 527              		.cfi_def_cfa_offset 8
 528              		.cfi_offset 3, -8
 529              		.cfi_offset 14, -4
 196:src/Others.c  ****   int select;
 197:src/Others.c  **** 
 198:src/Others.c  ****   select = 0;
 199:src/Others.c  ****   select = MenuSelect(&KOthercurrMenu, select);
 530              		.loc 1 199 0
 531 0002 0A48     		ldr	r0, .L74
 532 0004 0021     		movs	r1, #0
 533 0006 FFF7FEFF 		bl	MenuSelect
 534              	.LVL70:
 200:src/Others.c  ****   if (select == -1)
 535              		.loc 1 200 0
 536 000a 431C     		adds	r3, r0, #1
 537 000c 0CD0     		beq	.L65
 201:src/Others.c  ****     return;
 202:src/Others.c  **** 
 203:src/Others.c  ****   switch (select) {
 538              		.loc 1 203 0
 539 000e 0228     		cmp	r0, #2
 540 0010 05D0     		beq	.L67
 541 0012 0328     		cmp	r0, #3
 542 0014 05D0     		beq	.L68
 543 0016 0128     		cmp	r0, #1
 544 0018 06D1     		bne	.L65
 204:src/Others.c  **** 	  case 1:
 205:src/Others.c  ****       INPUT.currency=0;
 545              		.loc 1 205 0
 546 001a 0022     		movs	r2, #0
 547 001c 02E0     		b	.L73
 548              	.L67:
 206:src/Others.c  ****       break;
 207:src/Others.c  **** 	  case 2:
 208:src/Others.c  ****       INPUT.currency=1;	  
 549              		.loc 1 208 0
 550 001e 0122     		movs	r2, #1
 551 0020 00E0     		b	.L73
 552              	.L68:
 209:src/Others.c  ****       break;
 210:src/Others.c  **** 	  case 3:
 211:src/Others.c  ****      INPUT.currency=2;
 553              		.loc 1 211 0
 554 0022 0222     		movs	r2, #2
 555              	.L73:
 556 0024 024B     		ldr	r3, .L74+4
 557 0026 9A75     		strb	r2, [r3, #22]
 558              	.L65:
 559 0028 08BD     		pop	{r3, pc}
 560              	.L75:
 561 002a 00BF     		.align	2
 562              	.L74:
 563 002c 1C000000 		.word	.LANCHOR0+28
 564 0030 00000000 		.word	gGTS
 565              		.cfi_endproc
 566              	.LFE3:
ARM GAS  C:\Users\AHMED~1.ELE\AppData\Local\Temp\ccEeS1Va.s 			page 15


 567              		.size	OtherCurrency, .-OtherCurrency
 568              		.global	KOthercurrMenu
 569              		.global	KOtherTransMenu
 570              		.global	KOtherTxncurr
 571              		.global	KOtherTxnItem
 572              		.section	.rodata
 573              		.align	2
 574              		.set	.LANCHOR0,. + 0
 575              		.type	KOtherTransMenu, %object
 576              		.size	KOtherTransMenu, 28
 577              	KOtherTransMenu:
 578 0000 5472616E 		.ascii	"Trans Selection\000"
 578      73205365 
 578      6C656374 
 578      696F6E00 
 579 0010 00000000 		.space	7
 579      000000
 580 0017 00       		.space	1
 581 0018 00000000 		.word	KOtherTxnItem
 582              		.type	KOthercurrMenu, %object
 583              		.size	KOthercurrMenu, 28
 584              	KOthercurrMenu:
 585 001c 43757272 		.ascii	"Currency Select\000"
 585      656E6379 
 585      2053656C 
 585      65637400 
 586 002c 00000000 		.space	7
 586      000000
 587 0033 00       		.space	1
 588 0034 00000000 		.word	KOtherTxncurr
 589              		.type	KOtherTxncurr, %object
 590              		.size	KOtherTxncurr, 128
 591              	KOtherTxncurr:
 592 0038 01000000 		.word	1
 593 003c 0C000000 		.word	.LC1
 594 0040 00000000 		.space	24
 594      00000000 
 594      00000000 
 594      00000000 
 594      00000000 
 595 0058 02000000 		.word	2
 596 005c 10000000 		.word	.LC2
 597 0060 00000000 		.space	24
 597      00000000 
 597      00000000 
 597      00000000 
 597      00000000 
 598 0078 03000000 		.word	3
 599 007c 14000000 		.word	.LC3
 600 0080 00000000 		.space	24
 600      00000000 
 600      00000000 
 600      00000000 
 600      00000000 
 601 0098 FFFFFFFF 		.word	-1
 602 009c 00000000 		.word	0
 603 00a0 00000000 		.space	24
ARM GAS  C:\Users\AHMED~1.ELE\AppData\Local\Temp\ccEeS1Va.s 			page 16


 603      00000000 
 603      00000000 
 603      00000000 
 603      00000000 
 604              		.type	KOtherTxnItem, %object
 605              		.size	KOtherTxnItem, 224
 606              	KOtherTxnItem:
 607 00b8 00000000 		.word	0
 608 00bc 19000000 		.word	.LC4
 609 00c0 00000000 		.space	24
 609      00000000 
 609      00000000 
 609      00000000 
 609      00000000 
 610 00d8 01000000 		.word	1
 611 00dc 24000000 		.word	.LC5
 612 00e0 00000000 		.space	24
 612      00000000 
 612      00000000 
 612      00000000 
 612      00000000 
 613 00f8 02000000 		.word	2
 614 00fc 31000000 		.word	.LC6
 615 0100 00000000 		.space	24
 615      00000000 
 615      00000000 
 615      00000000 
 615      00000000 
 616 0118 03000000 		.word	3
 617 011c 39000000 		.word	.LC7
 618 0120 00000000 		.space	24
 618      00000000 
 618      00000000 
 618      00000000 
 618      00000000 
 619 0138 04000000 		.word	4
 620 013c 40000000 		.word	.LC8
 621 0140 00000000 		.space	24
 621      00000000 
 621      00000000 
 621      00000000 
 621      00000000 
 622 0158 05000000 		.word	5
 623 015c 45000000 		.word	.LC9
 624 0160 00000000 		.space	24
 624      00000000 
 624      00000000 
 624      00000000 
 624      00000000 
 625 0178 FFFFFFFF 		.word	-1
 626 017c 00000000 		.word	0
 627 0180 00000000 		.space	24
 627      00000000 
 627      00000000 
 627      00000000 
 627      00000000 
 628              		.section	.rodata.str1.1,"aMS",%progbits,1
ARM GAS  C:\Users\AHMED~1.ELE\AppData\Local\Temp\ccEeS1Va.s 			page 17


 629              	.LC0:
 630 0000 41434345 		.ascii	"ACCESS CODE\000"
 630      53532043 
 630      4F444500 
 631              	.LC1:
 632 000c 45475000 		.ascii	"EGP\000"
 633              	.LC2:
 634 0010 55534400 		.ascii	"USD\000"
 635              	.LC3:
 636 0014 4555524F 		.ascii	"EURO\000"
 636      00
 637              	.LC4:
 638 0019 53657474 		.ascii	"Settlement\000"
 638      6C656D65 
 638      6E7400
 639              	.LC5:
 640 0024 6F66666C 		.ascii	"offline Void\000"
 640      696E6520 
 640      566F6964 
 640      00
 641              	.LC6:
 642 0031 4F66666C 		.ascii	"Offline\000"
 642      696E6500 
 643              	.LC7:
 644 0039 52656675 		.ascii	"Refund\000"
 644      6E6400
 645              	.LC8:
 646 0040 41757468 		.ascii	"Auth\000"
 646      00
 647              	.LC9:
 648 0045 41646A75 		.ascii	"Adjustment\000"
 648      73746D65 
 648      6E7400
 649              		.text
 650              	.Letext0:
 651              		.file 2 "c:\\devtools\\gcc_v49_2014q4\\lib\\gcc\\arm-none-eabi\\4.9.3\\include\\stddef.h"
 652              		.file 3 "../LibA5T1000/common.h"
 653              		.file 4 "../LibA5T1000/midware.h"
 654              		.file 5 "../LibA5T1000/system.h"
 655              		.file 6 "../LibA5T1000/apm.h"
 656              		.file 7 "src/sysutil.h"
 657              		.file 8 "src/constant.h"
 658              		.file 9 "../LibA5T1000/emv2dll.h"
 659              		.file 10 "../LibA5T1000/emvcl2dll.h"
 660              		.file 11 "../LibA5T1000/ecrdll.h"
 661              		.file 12 "src/corevar.h"
 662              		.file 13 "src/tranutil.h"
 663              		.file 14 "src/menu.h"
 664              		.file 15 "c:\\devtools\\gcc_v49_2014q4\\arm-none-eabi\\include\\string.h"
 665              		.file 16 "src/input.h"
 666              		.file 17 "src/settle.h"
 667              		.file 18 "src/void.h"
 668              		.file 19 "src/adjust.h"