ARM GAS  C:\Users\ahmedhamed\AppData\Local\Temp\ccS0aG3e.s 			page 1


   1              		.syntax unified
   2              		.cpu cortex-a5
   3              		.fpu softvfp
   4              		.eabi_attribute 20, 1
   5              		.eabi_attribute 21, 1
   6              		.eabi_attribute 23, 3
   7              		.eabi_attribute 24, 1
   8              		.eabi_attribute 25, 1
   9              		.eabi_attribute 26, 1
  10              		.eabi_attribute 30, 4
  11              		.eabi_attribute 34, 0
  12              		.eabi_attribute 18, 4
  13              		.thumb
  14              		.file	"Print.c"
  15              		.text
  16              	.Ltext0:
  17              		.cfi_sections	.debug_frame
  18              		.section	.text.PackLogo,"ax",%progbits
  19              		.align	1
  20              		.global	PackLogo
  21              		.thumb
  22              		.thumb_func
  23              		.type	PackLogo, %function
  24              	PackLogo:
  25              	.LFB0:
  26              		.file 1 "src/Print.c"
   1:src/Print.c   **** //-----------------------------------------------------------------------------
   2:src/Print.c   **** //  File          : print.c
   3:src/Print.c   **** //  Module        :
   4:src/Print.c   **** //  Description   : Include print utility functions.
   5:src/Print.c   **** //  Author        : Lewis
   6:src/Print.c   **** //  Notes         :
   7:src/Print.c   **** //
   8:src/Print.c   **** // ============================================================================
   9:src/Print.c   **** // | Naming conventions                                                       |
  10:src/Print.c   **** // | ~~~~~~~~~~~~~~~~~~                                                       |
  11:src/Print.c   **** // |        Struct define : Leading T                                         |
  12:src/Print.c   **** // |         Struct/Array : Leading s                                         |
  13:src/Print.c   **** // |             Constant : Leading K                                         |
  14:src/Print.c   **** // |      Global Variable : Leading g  (variable use outside one C file)      |
  15:src/Print.c   **** // |                                                                          |
  16:src/Print.c   **** // |   BYTE( 8 Bits) size : Leading b                                         |
  17:src/Print.c   **** // |   CHAR( 8 Bits) size : Leading c                                         |
  18:src/Print.c   **** // |   WORD(16 Bits) size : Leading w                                         |
  19:src/Print.c   **** // |  DWORD(32 Bits) size : Leading d                                         |
  20:src/Print.c   **** // |    int(32 Bits) size : Leading i                                         |
  21:src/Print.c   **** // | DDWORD(64 Bits) size : Leading dd                                        |
  22:src/Print.c   **** // |              Pointer : Leading p                                         |
  23:src/Print.c   **** // |                                                                          |
  24:src/Print.c   **** // |    Function argument : Leading a                                         |
  25:src/Print.c   **** // |       Local Variable : All lower case                                    |
  26:src/Print.c   **** // |                                                                          |
  27:src/Print.c   **** // | Examples:                                                                |
  28:src/Print.c   **** // |                Array : Leading s, (sb = arrary of byte, etc)             |
  29:src/Print.c   **** // |              Pointer : Leading p, (pb = pointer of byte, etc)            |
  30:src/Print.c   **** // ============================================================================
  31:src/Print.c   **** //
ARM GAS  C:\Users\ahmedhamed\AppData\Local\Temp\ccS0aG3e.s 			page 2


  32:src/Print.c   **** //  Date          Who         Action
  33:src/Print.c   **** //  ------------  ----------- -------------------------------------------------
  34:src/Print.c   **** //  29 Sept 2008  Lewis       Initial Version.
  35:src/Print.c   **** //-----------------------------------------------------------------------------
  36:src/Print.c   **** #include <string.h>
  37:src/Print.c   **** #include "util.h"
  38:src/Print.c   **** #include "hardware.h"
  39:src/Print.c   **** #include "corevar.h"
  40:src/Print.c   **** #include "chkoptn.h"
  41:src/Print.c   **** #include "constant.h"
  42:src/Print.c   **** #include "logo.h"
  43:src/Print.c   **** #include "message.h"
  44:src/Print.c   **** #include "lptutil.h"
  45:src/Print.c   **** #include "print.h"
  46:src/Print.c   **** 
  47:src/Print.c   **** //-----------------------------------------------------------------------------
  48:src/Print.c   **** // Print related
  49:src/Print.c   **** //-----------------------------------------------------------------------------
  50:src/Print.c   **** static char KLastRcptName[]     = { "EDCReprn" };
  51:src/Print.c   **** 
  52:src/Print.c   **** 
  53:src/Print.c   **** //*****************************************************************************
  54:src/Print.c   **** //  Function        : PackLogo
  55:src/Print.c   **** //  Description     : Pack receipt logo.
  56:src/Print.c   **** //  Input           : N/A
  57:src/Print.c   **** //  Return          : N/A
  58:src/Print.c   **** //  Note            : N/A
  59:src/Print.c   **** //  Globals Changed : N/A
  60:src/Print.c   **** //*****************************************************************************
  61:src/Print.c   **** void PackLogo(void)
  62:src/Print.c   **** {
  27              		.loc 1 62 0
  28              		.cfi_startproc
  29              		@ args = 0, pretend = 0, frame = 0
  30              		@ frame_needed = 0, uses_anonymous_args = 0
  31 0000 10B5     		push	{r4, lr}
  32              		.cfi_def_cfa_offset 8
  33              		.cfi_offset 4, -8
  34              		.cfi_offset 14, -4
  63:src/Print.c   ****   pack_nbyte(' ', ((MAX_CHAR_LINE_NORMAL-23)/2));
  64:src/Print.c   ****   pack_mem(STIS_TERM_CFG.sb_dflt_name, 23);
  35              		.loc 1 64 0
  36 0002 124C     		ldr	r4, .L2
  63:src/Print.c   ****   pack_nbyte(' ', ((MAX_CHAR_LINE_NORMAL-23)/2));
  37              		.loc 1 63 0
  38 0004 2020     		movs	r0, #32
  39 0006 0321     		movs	r1, #3
  40 0008 FFF7FEFF 		bl	pack_nbyte
  41              	.LVL0:
  42              		.loc 1 64 0
  43 000c 2068     		ldr	r0, [r4]
  44 000e 1721     		movs	r1, #23
  45 0010 4B30     		adds	r0, r0, #75
  46 0012 FFF7FEFF 		bl	pack_mem
  47              	.LVL1:
  65:src/Print.c   ****   pack_lf();
  48              		.loc 1 65 0
ARM GAS  C:\Users\ahmedhamed\AppData\Local\Temp\ccS0aG3e.s 			page 3


  49 0016 FFF7FEFF 		bl	pack_lf
  50              	.LVL2:
  66:src/Print.c   ****   pack_nbyte(' ', ((MAX_CHAR_LINE_NORMAL-23)/2));
  51              		.loc 1 66 0
  52 001a 2020     		movs	r0, #32
  53 001c 0321     		movs	r1, #3
  54 001e FFF7FEFF 		bl	pack_nbyte
  55              	.LVL3:
  67:src/Print.c   ****   pack_mem(STIS_TERM_CFG.sb_name_loc, 23); /* line 2 */
  56              		.loc 1 67 0
  57 0022 2068     		ldr	r0, [r4]
  58 0024 1721     		movs	r1, #23
  59 0026 1D30     		adds	r0, r0, #29
  60 0028 FFF7FEFF 		bl	pack_mem
  61              	.LVL4:
  68:src/Print.c   ****   pack_lf();
  62              		.loc 1 68 0
  63 002c FFF7FEFF 		bl	pack_lf
  64              	.LVL5:
  69:src/Print.c   ****   pack_nbyte(' ', ((MAX_CHAR_LINE_NORMAL-23)/2));
  65              		.loc 1 69 0
  66 0030 2020     		movs	r0, #32
  67 0032 0321     		movs	r1, #3
  68 0034 FFF7FEFF 		bl	pack_nbyte
  69              	.LVL6:
  70:src/Print.c   ****   pack_mem(&STIS_TERM_CFG.sb_name_loc[23], 23); /* line 3 */
  70              		.loc 1 70 0
  71 0038 2068     		ldr	r0, [r4]
  72 003a 1721     		movs	r1, #23
  73 003c 3430     		adds	r0, r0, #52
  74 003e FFF7FEFF 		bl	pack_mem
  75              	.LVL7:
  71:src/Print.c   ****   pack_lf();
  72:src/Print.c   **** }
  76              		.loc 1 72 0
  77 0042 BDE81040 		pop	{r4, lr}
  78              		.cfi_restore 14
  79              		.cfi_restore 4
  80              		.cfi_def_cfa_offset 0
  71:src/Print.c   ****   pack_lf();
  81              		.loc 1 71 0
  82 0046 FFF7FEBF 		b	pack_lf
  83              	.LVL8:
  84              	.L3:
  85 004a 00BF     		.align	2
  86              	.L2:
  87 004c 00000000 		.word	gGDS
  88              		.cfi_endproc
  89              	.LFE0:
  90              		.size	PackLogo, .-PackLogo
  91              		.section	.text.PackDtg,"ax",%progbits
  92              		.align	1
  93              		.global	PackDtg
  94              		.thumb
  95              		.thumb_func
  96              		.type	PackDtg, %function
  97              	PackDtg:
ARM GAS  C:\Users\ahmedhamed\AppData\Local\Temp\ccS0aG3e.s 			page 4


  98              	.LFB1:
  73:src/Print.c   **** //*****************************************************************************
  74:src/Print.c   **** //  Function        : PackDtg
  75:src/Print.c   **** //  Description     : Pack DATE/TIME on receipt.
  76:src/Print.c   **** //  Input           : N/A
  77:src/Print.c   **** //  Return          : N/A
  78:src/Print.c   **** //  Note            : N/A
  79:src/Print.c   **** //  Globals Changed : N/A
  80:src/Print.c   **** //*****************************************************************************
  81:src/Print.c   **** void PackDtg(struct DATETIME *aDtg)
  82:src/Print.c   **** {
  99              		.loc 1 82 0
 100              		.cfi_startproc
 101              		@ args = 0, pretend = 0, frame = 24
 102              		@ frame_needed = 0, uses_anonymous_args = 0
 103              	.LVL9:
 104 0000 7FB5     		push	{r0, r1, r2, r3, r4, r5, r6, lr}
 105              		.cfi_def_cfa_offset 32
 106              		.cfi_offset 14, -4
 107              		.loc 1 82 0
 108 0002 0146     		mov	r1, r0
  83:src/Print.c   ****   BYTE tmp[18];
  84:src/Print.c   **** 
  85:src/Print.c   ****   ConvDateTime(tmp, aDtg, 1);
 109              		.loc 1 85 0
 110 0004 0122     		movs	r2, #1
 111 0006 01A8     		add	r0, sp, #4
 112              	.LVL10:
 113 0008 FFF7FEFF 		bl	ConvDateTime
 114              	.LVL11:
  86:src/Print.c   ****   pack_mem(tmp, 12);
 115              		.loc 1 86 0
 116 000c 01A8     		add	r0, sp, #4
 117 000e 0C21     		movs	r1, #12
 118 0010 FFF7FEFF 		bl	pack_mem
 119              	.LVL12:
  87:src/Print.c   ****   if (PrintTimeReqd())
 120              		.loc 1 87 0
 121 0014 FFF7FEFF 		bl	PrintTimeReqd
 122              	.LVL13:
 123 0018 20B1     		cbz	r0, .L5
  88:src/Print.c   ****     pack_mem(&tmp[12], 6);
 124              		.loc 1 88 0
 125 001a 04A8     		add	r0, sp, #16
 126 001c 0621     		movs	r1, #6
 127 001e FFF7FEFF 		bl	pack_mem
 128              	.LVL14:
 129 0022 03E0     		b	.L4
 130              	.L5:
  89:src/Print.c   ****   else
  90:src/Print.c   ****     pack_nbyte(' ', 6);
 131              		.loc 1 90 0
 132 0024 2020     		movs	r0, #32
 133 0026 0621     		movs	r1, #6
 134 0028 FFF7FEFF 		bl	pack_nbyte
 135              	.LVL15:
 136              	.L4:
ARM GAS  C:\Users\ahmedhamed\AppData\Local\Temp\ccS0aG3e.s 			page 5


  91:src/Print.c   **** }
 137              		.loc 1 91 0
 138 002c 07B0     		add	sp, sp, #28
 139              		.cfi_def_cfa_offset 4
 140              		@ sp needed
 141 002e 5DF804FB 		ldr	pc, [sp], #4
 142              		.cfi_endproc
 143              	.LFE1:
 144              		.size	PackDtg, .-PackDtg
 145              		.section	.text.PackCurrentDate,"ax",%progbits
 146              		.align	1
 147              		.global	PackCurrentDate
 148              		.thumb
 149              		.thumb_func
 150              		.type	PackCurrentDate, %function
 151              	PackCurrentDate:
 152              	.LFB2:
  92:src/Print.c   **** //*****************************************************************************
  93:src/Print.c   **** //  Function        : PackCurrentDate
  94:src/Print.c   **** //  Description     : Pack current date/time on receipt.
  95:src/Print.c   **** //  Input           : N/A
  96:src/Print.c   **** //  Return          : N/A
  97:src/Print.c   **** //  Note            : N/A
  98:src/Print.c   **** //  Globals Changed : N/A
  99:src/Print.c   **** //*****************************************************************************
 100:src/Print.c   **** void PackCurrentDate(void)
 101:src/Print.c   **** {
 153              		.loc 1 101 0
 154              		.cfi_startproc
 155              		@ args = 0, pretend = 0, frame = 64
 156              		@ frame_needed = 0, uses_anonymous_args = 0
 157 0000 10B5     		push	{r4, lr}
 158              		.cfi_def_cfa_offset 8
 159              		.cfi_offset 4, -8
 160              		.cfi_offset 14, -4
 102:src/Print.c   ****   BYTE buf[64];
 103:src/Print.c   ****   
 104:src/Print.c   **** 
 105:src/Print.c   ****    pack_str("Date:");
 161              		.loc 1 105 0
 162 0002 1C48     		ldr	r0, .L9
 101:src/Print.c   ****   BYTE buf[64];
 163              		.loc 1 101 0
 164 0004 90B0     		sub	sp, sp, #64
 165              		.cfi_def_cfa_offset 72
 166              		.loc 1 105 0
 167 0006 FFF7FEFF 		bl	pack_str
 168              	.LVL16:
 106:src/Print.c   ****    os_rtc_get(buf);
 169              		.loc 1 106 0
 170 000a 6946     		mov	r1, sp
 171 000c 1220     		movs	r0, #18
 172 000e FFF7FEFF 		bl	sys_func1
 173              	.LVL17:
 107:src/Print.c   ****     pack_mem(buf, 4);
 174              		.loc 1 107 0
 175 0012 6846     		mov	r0, sp
ARM GAS  C:\Users\ahmedhamed\AppData\Local\Temp\ccS0aG3e.s 			page 6


 176 0014 0421     		movs	r1, #4
 177 0016 FFF7FEFF 		bl	pack_mem
 178              	.LVL18:
 108:src/Print.c   ****     pack_space(1);
 179              		.loc 1 108 0
 180 001a 0120     		movs	r0, #1
 181 001c FFF7FEFF 		bl	pack_space
 182              	.LVL19:
 109:src/Print.c   ****     pack_mem(&buf[4], 2);
 183              		.loc 1 109 0
 184 0020 01A8     		add	r0, sp, #4
 185 0022 0221     		movs	r1, #2
 186 0024 FFF7FEFF 		bl	pack_mem
 187              	.LVL20:
 110:src/Print.c   ****     pack_space(1);
 188              		.loc 1 110 0
 189 0028 0120     		movs	r0, #1
 190 002a FFF7FEFF 		bl	pack_space
 191              	.LVL21:
 111:src/Print.c   ****     pack_mem(&buf[6], 2);
 192              		.loc 1 111 0
 193 002e 0221     		movs	r1, #2
 194 0030 0DF10600 		add	r0, sp, #6
 195 0034 FFF7FEFF 		bl	pack_mem
 196              	.LVL22:
 112:src/Print.c   ****     pack_space(4);
 197              		.loc 1 112 0
 198 0038 0420     		movs	r0, #4
 199 003a FFF7FEFF 		bl	pack_space
 200              	.LVL23:
 113:src/Print.c   ****     pack_str("Time:");
 114:src/Print.c   ****     pack_mem(&buf[8], 2);
 115:src/Print.c   ****     pack_str(":");
 201              		.loc 1 115 0
 202 003e 0E4C     		ldr	r4, .L9+4
 113:src/Print.c   ****     pack_str("Time:");
 203              		.loc 1 113 0
 204 0040 0E48     		ldr	r0, .L9+8
 205 0042 FFF7FEFF 		bl	pack_str
 206              	.LVL24:
 114:src/Print.c   ****     pack_str(":");
 207              		.loc 1 114 0
 208 0046 02A8     		add	r0, sp, #8
 209 0048 0221     		movs	r1, #2
 210 004a FFF7FEFF 		bl	pack_mem
 211              	.LVL25:
 212              		.loc 1 115 0
 213 004e 2046     		mov	r0, r4
 214 0050 FFF7FEFF 		bl	pack_str
 215              	.LVL26:
 116:src/Print.c   ****     pack_mem(&buf[10], 2);
 216              		.loc 1 116 0
 217 0054 0DF10A00 		add	r0, sp, #10
 218 0058 0221     		movs	r1, #2
 219 005a FFF7FEFF 		bl	pack_mem
 220              	.LVL27:
 117:src/Print.c   ****     pack_str(":");
ARM GAS  C:\Users\ahmedhamed\AppData\Local\Temp\ccS0aG3e.s 			page 7


 221              		.loc 1 117 0
 222 005e 2046     		mov	r0, r4
 223 0060 FFF7FEFF 		bl	pack_str
 224              	.LVL28:
 118:src/Print.c   ****     pack_mem(&buf[12], 2);//ss
 225              		.loc 1 118 0
 226 0064 03A8     		add	r0, sp, #12
 227 0066 0221     		movs	r1, #2
 228 0068 FFF7FEFF 		bl	pack_mem
 229              	.LVL29:
 119:src/Print.c   **** 	pack_lf();
 230              		.loc 1 119 0
 231 006c FFF7FEFF 		bl	pack_lf
 232              	.LVL30:
 120:src/Print.c   **** }
 233              		.loc 1 120 0
 234 0070 10B0     		add	sp, sp, #64
 235              		.cfi_def_cfa_offset 8
 236              		@ sp needed
 237 0072 10BD     		pop	{r4, pc}
 238              	.L10:
 239              		.align	2
 240              	.L9:
 241 0074 00000000 		.word	.LC0
 242 0078 0C000000 		.word	.LC2
 243 007c 06000000 		.word	.LC1
 244              		.cfi_endproc
 245              	.LFE2:
 246              		.size	PackCurrentDate, .-PackCurrentDate
 247              		.section	.text.PackSeperator,"ax",%progbits
 248              		.align	1
 249              		.global	PackSeperator
 250              		.thumb
 251              		.thumb_func
 252              		.type	PackSeperator, %function
 253              	PackSeperator:
 254              	.LFB3:
 121:src/Print.c   **** //*****************************************************************************
 122:src/Print.c   **** //  Function        : PackSeperator
 123:src/Print.c   **** //  Description     : Pack receipt seperator line.
 124:src/Print.c   **** //  Input           : aChar;        // character to be print.
 125:src/Print.c   **** //  Return          : N/A
 126:src/Print.c   **** //  Note            : N/A
 127:src/Print.c   **** //  Globals Changed : N/A
 128:src/Print.c   **** //*****************************************************************************
 129:src/Print.c   **** void PackSeperator(BYTE aChar)
 130:src/Print.c   **** {
 255              		.loc 1 130 0
 256              		.cfi_startproc
 257              		@ args = 0, pretend = 0, frame = 0
 258              		@ frame_needed = 0, uses_anonymous_args = 0
 259              	.LVL31:
 260 0000 08B5     		push	{r3, lr}
 261              		.cfi_def_cfa_offset 8
 262              		.cfi_offset 3, -8
 263              		.cfi_offset 14, -4
 131:src/Print.c   ****   pack_nbyte(aChar, MAX_CHAR_LINE_NORMAL);
ARM GAS  C:\Users\ahmedhamed\AppData\Local\Temp\ccS0aG3e.s 			page 8


 264              		.loc 1 131 0
 265 0002 1E21     		movs	r1, #30
 266 0004 FFF7FEFF 		bl	pack_nbyte
 267              	.LVL32:
 132:src/Print.c   ****   pack_lf();
 133:src/Print.c   **** }
 268              		.loc 1 133 0
 269 0008 BDE80840 		pop	{r3, lr}
 270              		.cfi_restore 14
 271              		.cfi_restore 3
 272              		.cfi_def_cfa_offset 0
 132:src/Print.c   ****   pack_lf();
 273              		.loc 1 132 0
 274 000c FFF7FEBF 		b	pack_lf
 275              	.LVL33:
 276              		.cfi_endproc
 277              	.LFE3:
 278              		.size	PackSeperator, .-PackSeperator
 279              		.section	.text.PackRcptHeader,"ax",%progbits
 280              		.align	1
 281              		.global	PackRcptHeader
 282              		.thumb
 283              		.thumb_func
 284              		.type	PackRcptHeader, %function
 285              	PackRcptHeader:
 286              	.LFB4:
 134:src/Print.c   **** //*****************************************************************************
 135:src/Print.c   **** //  Function        : PackRcptHeader
 136:src/Print.c   **** //  Description     : Pack EDC receipt header.
 137:src/Print.c   **** //  Input           : N/A
 138:src/Print.c   **** //  Return          : N/A
 139:src/Print.c   **** //  Note            : N/A
 140:src/Print.c   **** //  Globals Changed : N/A
 141:src/Print.c   **** //*****************************************************************************
 142:src/Print.c   **** void PackRcptHeader(void)
 143:src/Print.c   **** {
 287              		.loc 1 143 0
 288              		.cfi_startproc
 289              		@ args = 0, pretend = 0, frame = 0
 290              		@ frame_needed = 0, uses_anonymous_args = 0
 291 0000 10B5     		push	{r4, lr}
 292              		.cfi_def_cfa_offset 8
 293              		.cfi_offset 4, -8
 294              		.cfi_offset 14, -4
 144:src/Print.c   ****   pack_mem("TERM ID :", 9);
 145:src/Print.c   ****   pack_mem(STIS_ACQ_TBL(0).sb_term_id, 8);
 295              		.loc 1 145 0
 296 0002 0D4C     		ldr	r4, .L13
 144:src/Print.c   ****   pack_mem("TERM ID :", 9);
 297              		.loc 1 144 0
 298 0004 0D48     		ldr	r0, .L13+4
 299 0006 0921     		movs	r1, #9
 300 0008 FFF7FEFF 		bl	pack_mem
 301              	.LVL34:
 302              		.loc 1 145 0
 303 000c 2068     		ldr	r0, [r4]
 304 000e 0821     		movs	r1, #8
ARM GAS  C:\Users\ahmedhamed\AppData\Local\Temp\ccS0aG3e.s 			page 9


 305 0010 00F56770 		add	r0, r0, #924
 306 0014 FFF7FEFF 		bl	pack_mem
 307              	.LVL35:
 146:src/Print.c   ****   pack_lf();
 308              		.loc 1 146 0
 309 0018 FFF7FEFF 		bl	pack_lf
 310              	.LVL36:
 147:src/Print.c   ****   pack_mem("MERCH ID:", 9);
 311              		.loc 1 147 0
 312 001c 0848     		ldr	r0, .L13+8
 313 001e 0921     		movs	r1, #9
 314 0020 FFF7FEFF 		bl	pack_mem
 315              	.LVL37:
 148:src/Print.c   ****   pack_mem(STIS_ACQ_TBL(0).sb_acceptor_id, 15);
 316              		.loc 1 148 0
 317 0024 2068     		ldr	r0, [r4]
 318 0026 0F21     		movs	r1, #15
 319 0028 00F56970 		add	r0, r0, #932
 320 002c FFF7FEFF 		bl	pack_mem
 321              	.LVL38:
 149:src/Print.c   ****   pack_lf();
 150:src/Print.c   **** }
 322              		.loc 1 150 0
 323 0030 BDE81040 		pop	{r4, lr}
 324              		.cfi_restore 14
 325              		.cfi_restore 4
 326              		.cfi_def_cfa_offset 0
 149:src/Print.c   ****   pack_lf();
 327              		.loc 1 149 0
 328 0034 FFF7FEBF 		b	pack_lf
 329              	.LVL39:
 330              	.L14:
 331              		.align	2
 332              	.L13:
 333 0038 00000000 		.word	gGDS
 334 003c 0E000000 		.word	.LC3
 335 0040 18000000 		.word	.LC4
 336              		.cfi_endproc
 337              	.LFE4:
 338              		.size	PackRcptHeader, .-PackRcptHeader
 339              		.section	.text.PackAmt,"ax",%progbits
 340              		.align	1
 341              		.global	PackAmt
 342              		.thumb
 343              		.thumb_func
 344              		.type	PackAmt, %function
 345              	PackAmt:
 346              	.LFB5:
 151:src/Print.c   **** //*****************************************************************************
 152:src/Print.c   **** //  Function        : PackAmt
 153:src/Print.c   **** //  Description     : Pack amount to predefine buffer.
 154:src/Print.c   **** //  Input           : aAmount;
 155:src/Print.c   **** //                    aOffset;          // start offset
 156:src/Print.c   **** //  Return          : len of amount string;
 157:src/Print.c   **** //  Note            : N/A
 158:src/Print.c   **** //  Globals Changed : N/A
 159:src/Print.c   **** //*****************************************************************************
ARM GAS  C:\Users\ahmedhamed\AppData\Local\Temp\ccS0aG3e.s 			page 10


 160:src/Print.c   **** BYTE PackAmt(DDWORD aAmount, BYTE aOffset)
 161:src/Print.c   **** {
 347              		.loc 1 161 0
 348              		.cfi_startproc
 349              		@ args = 0, pretend = 0, frame = 24
 350              		@ frame_needed = 0, uses_anonymous_args = 0
 351              	.LVL40:
 162:src/Print.c   ****   struct DISP_AMT disp_amt;
 163:src/Print.c   **** 
 164:src/Print.c   ****   ConvAmount(aAmount, &disp_amt, STIS_TERM_CFG.b_decimal_pos, STIS_TERM_CFG.b_currency);
 352              		.loc 1 164 0
 353 0000 0E4B     		ldr	r3, .L16
 161:src/Print.c   ****   struct DISP_AMT disp_amt;
 354              		.loc 1 161 0
 355 0002 10B5     		push	{r4, lr}
 356              		.cfi_def_cfa_offset 8
 357              		.cfi_offset 4, -8
 358              		.cfi_offset 14, -4
 359 0004 1446     		mov	r4, r2
 360              		.loc 1 164 0
 361 0006 1A68     		ldr	r2, [r3]
 362              	.LVL41:
 161:src/Print.c   ****   struct DISP_AMT disp_amt;
 363              		.loc 1 161 0
 364 0008 88B0     		sub	sp, sp, #32
 365              		.cfi_def_cfa_offset 40
 366              		.loc 1 164 0
 367 000a 92F86430 		ldrb	r3, [r2, #100]	@ zero_extendqisi2
 368 000e 92F86220 		ldrb	r2, [r2, #98]	@ zero_extendqisi2
 369 0012 0092     		str	r2, [sp]
 370 0014 02AA     		add	r2, sp, #8
 371 0016 FFF7FEFF 		bl	ConvAmount
 372              	.LVL42:
 165:src/Print.c   ****   pack_space((BYTE)(aOffset - disp_amt.len));
 373              		.loc 1 165 0
 374 001a 9DF80800 		ldrb	r0, [sp, #8]	@ zero_extendqisi2
 375 001e 201A     		subs	r0, r4, r0
 376 0020 C0B2     		uxtb	r0, r0
 377 0022 FFF7FEFF 		bl	pack_space
 378              	.LVL43:
 166:src/Print.c   ****   pack_mem(disp_amt.content, disp_amt.len);
 379              		.loc 1 166 0
 380 0026 0DF10900 		add	r0, sp, #9
 381 002a 9DF80810 		ldrb	r1, [sp, #8]	@ zero_extendqisi2
 382 002e FFF7FEFF 		bl	pack_mem
 383              	.LVL44:
 167:src/Print.c   ****   return(disp_amt.len);
 168:src/Print.c   **** }
 384              		.loc 1 168 0
 385 0032 9DF80800 		ldrb	r0, [sp, #8]	@ zero_extendqisi2
 386 0036 08B0     		add	sp, sp, #32
 387              		.cfi_def_cfa_offset 8
 388              		@ sp needed
 389 0038 10BD     		pop	{r4, pc}
 390              	.L17:
 391 003a 00BF     		.align	2
 392              	.L16:
ARM GAS  C:\Users\ahmedhamed\AppData\Local\Temp\ccS0aG3e.s 			page 11


 393 003c 00000000 		.word	gGDS
 394              		.cfi_endproc
 395              	.LFE5:
 396              		.size	PackAmt, .-PackAmt
 397              		.section	.text.PackCountAmt,"ax",%progbits
 398              		.align	1
 399              		.thumb
 400              		.thumb_func
 401              		.type	PackCountAmt, %function
 402              	PackCountAmt:
 403              	.LFB7:
 169:src/Print.c   **** //*****************************************************************************
 170:src/Print.c   **** //  Function        : PackFF
 171:src/Print.c   **** //  Description     : Pack Form Seperator line.
 172:src/Print.c   **** //  Input           : N/A
 173:src/Print.c   **** //  Return          : N/A
 174:src/Print.c   **** //  Note            : N/A
 175:src/Print.c   **** //  Globals Changed : N/A
 176:src/Print.c   **** //*****************************************************************************
 177:src/Print.c   **** void PackFF(void)
 178:src/Print.c   **** {
 179:src/Print.c   ****   #if (LPT_SUPPORT)    
 180:src/Print.c   ****   pack_byte(0x0C);
 181:src/Print.c   ****   #else
 182:src/Print.c   ****   pack_lfs(2);
 183:src/Print.c   ****   pack_nbyte('_', MAX_CHAR_LINE_NORMAL);
 184:src/Print.c   ****   pack_lfs(4);
 185:src/Print.c   ****   #endif  
 186:src/Print.c   **** }
 187:src/Print.c   **** //*****************************************************************************
 188:src/Print.c   **** //  Function        : PackCountAmt
 189:src/Print.c   **** //  Description     : Pack count & amount;
 190:src/Print.c   **** //  Input           : count;
 191:src/Print.c   **** //                    amount;
 192:src/Print.c   **** //  Return          : N/A
 193:src/Print.c   **** //  Note            : N/A
 194:src/Print.c   **** //  Globals Changed : N/A
 195:src/Print.c   **** //*****************************************************************************
 196:src/Print.c   **** static void PackCountAmt(WORD aCount, DDWORD aAmount)
 197:src/Print.c   **** {
 404              		.loc 1 197 0
 405              		.cfi_startproc
 406              		@ args = 0, pretend = 0, frame = 0
 407              		@ frame_needed = 0, uses_anonymous_args = 0
 408              	.LVL45:
 409 0000 D0B5     		push	{r4, r6, r7, lr}
 410              		.cfi_def_cfa_offset 16
 411              		.cfi_offset 4, -16
 412              		.cfi_offset 6, -12
 413              		.cfi_offset 7, -8
 414              		.cfi_offset 14, -4
 415              		.loc 1 197 0
 416 0002 0446     		mov	r4, r0
 198:src/Print.c   ****   pack_space(2);
 417              		.loc 1 198 0
 418 0004 0220     		movs	r0, #2
 419              	.LVL46:
ARM GAS  C:\Users\ahmedhamed\AppData\Local\Temp\ccS0aG3e.s 			page 12


 197:src/Print.c   ****   pack_space(2);
 420              		.loc 1 197 0
 421 0006 1646     		mov	r6, r2
 422 0008 1F46     		mov	r7, r3
 423              		.loc 1 198 0
 424 000a FFF7FEFF 		bl	pack_space
 425              	.LVL47:
 199:src/Print.c   ****   if(aCount<10){
 426              		.loc 1 199 0
 427 000e 092C     		cmp	r4, #9
 200:src/Print.c   ****   bindec_data(aCount, 1);
 428              		.loc 1 200 0
 429 0010 2046     		mov	r0, r4
 199:src/Print.c   ****   if(aCount<10){
 430              		.loc 1 199 0
 431 0012 06D8     		bhi	.L19
 432              		.loc 1 200 0
 433 0014 0121     		movs	r1, #1
 434 0016 FFF7FEFF 		bl	bindec_data
 435              	.LVL48:
 201:src/Print.c   ****   PackAmt(aAmount, 16);
 436              		.loc 1 201 0
 437 001a 3046     		mov	r0, r6
 438 001c 3946     		mov	r1, r7
 439 001e 1022     		movs	r2, #16
 440 0020 05E0     		b	.L21
 441              	.L19:
 202:src/Print.c   ****   }else if(aCount >= 10){
 203:src/Print.c   ****    bindec_data(aCount, 2);
 442              		.loc 1 203 0
 443 0022 0221     		movs	r1, #2
 444 0024 FFF7FEFF 		bl	bindec_data
 445              	.LVL49:
 204:src/Print.c   ****    PackAmt(aAmount, 15);
 446              		.loc 1 204 0
 447 0028 3046     		mov	r0, r6
 448 002a 3946     		mov	r1, r7
 449 002c 0F22     		movs	r2, #15
 450              	.L21:
 451 002e FFF7FEFF 		bl	PackAmt
 452              	.LVL50:
 205:src/Print.c   ****   }else{
 206:src/Print.c   ****    bindec_data(aCount, 3);
 207:src/Print.c   ****    PackAmt(aAmount, 14);
 208:src/Print.c   ****   }
 209:src/Print.c   ****   
 210:src/Print.c   ****   pack_lf();
 211:src/Print.c   **** }
 453              		.loc 1 211 0
 454 0032 BDE8D040 		pop	{r4, r6, r7, lr}
 455              		.cfi_restore 14
 456              		.cfi_restore 7
 457              		.cfi_restore 6
 458              		.cfi_restore 4
 459              		.cfi_def_cfa_offset 0
 210:src/Print.c   **** }
 460              		.loc 1 210 0
ARM GAS  C:\Users\ahmedhamed\AppData\Local\Temp\ccS0aG3e.s 			page 13


 461 0036 FFF7FEBF 		b	pack_lf
 462              	.LVL51:
 463              		.cfi_endproc
 464              	.LFE7:
 465              		.size	PackCountAmt, .-PackCountAmt
 466              		.section	.text.PackFF,"ax",%progbits
 467              		.align	1
 468              		.global	PackFF
 469              		.thumb
 470              		.thumb_func
 471              		.type	PackFF, %function
 472              	PackFF:
 473              	.LFB6:
 178:src/Print.c   ****   #if (LPT_SUPPORT)    
 474              		.loc 1 178 0
 475              		.cfi_startproc
 476              		@ args = 0, pretend = 0, frame = 0
 477              		@ frame_needed = 0, uses_anonymous_args = 0
 478 0000 08B5     		push	{r3, lr}
 479              		.cfi_def_cfa_offset 8
 480              		.cfi_offset 3, -8
 481              		.cfi_offset 14, -4
 182:src/Print.c   ****   pack_nbyte('_', MAX_CHAR_LINE_NORMAL);
 482              		.loc 1 182 0
 483 0002 0220     		movs	r0, #2
 484 0004 FFF7FEFF 		bl	pack_lfs
 485              	.LVL52:
 183:src/Print.c   ****   pack_lfs(4);
 486              		.loc 1 183 0
 487 0008 5F20     		movs	r0, #95
 488 000a 1E21     		movs	r1, #30
 489 000c FFF7FEFF 		bl	pack_nbyte
 490              	.LVL53:
 184:src/Print.c   ****   #endif  
 491              		.loc 1 184 0
 492 0010 0420     		movs	r0, #4
 186:src/Print.c   **** //*****************************************************************************
 493              		.loc 1 186 0
 494 0012 BDE80840 		pop	{r3, lr}
 495              		.cfi_restore 14
 496              		.cfi_restore 3
 497              		.cfi_def_cfa_offset 0
 184:src/Print.c   ****   #endif  
 498              		.loc 1 184 0
 499 0016 FFF7FEBF 		b	pack_lfs
 500              	.LVL54:
 501              		.cfi_endproc
 502              	.LFE6:
 503              		.size	PackFF, .-PackFF
 504              		.section	.text.PackTotals,"ax",%progbits
 505              		.align	1
 506              		.global	PackTotals
 507              		.thumb
 508              		.thumb_func
 509              		.type	PackTotals, %function
 510              	PackTotals:
 511              	.LFB8:
ARM GAS  C:\Users\ahmedhamed\AppData\Local\Temp\ccS0aG3e.s 			page 14


 212:src/Print.c   **** 
 213:src/Print.c   **** 
 214:src/Print.c   **** //*****************************************************************************
 215:src/Print.c   **** //  Function        : PackTotals
 216:src/Print.c   **** //  Description     : Pack total data.
 217:src/Print.c   **** //  Input           : aTot;    // pointer to data struct.
 218:src/Print.c   **** //  Return          : amount str's len;
 219:src/Print.c   **** //  Note            : N/A
 220:src/Print.c   **** //  Globals Changed : N/A
 221:src/Print.c   **** //*****************************************************************************
 222:src/Print.c   **** void PackTotals(struct TOTAL_STRUCT *aTot)
 223:src/Print.c   **** {
 512              		.loc 1 223 0
 513              		.cfi_startproc
 514              		@ args = 0, pretend = 0, frame = 0
 515              		@ frame_needed = 0, uses_anonymous_args = 0
 516              	.LVL55:
 517 0000 D0B5     		push	{r4, r6, r7, lr}
 518              		.cfi_def_cfa_offset 16
 519              		.cfi_offset 4, -16
 520              		.cfi_offset 6, -12
 521              		.cfi_offset 7, -8
 522              		.cfi_offset 14, -4
 523              		.loc 1 223 0
 524 0002 0446     		mov	r4, r0
 224:src/Print.c   ****   static const BYTE KBase[]            = {"BASE         "};
 225:src/Print.c   ****   static const BYTE KTips[]            = {"TIPS         "};
 226:src/Print.c   ****   static const BYTE KSales[]           = {"SALES        "};
 227:src/Print.c   ****   static const BYTE KRefund[]          = {"REFND        "};
 228:src/Print.c   ****    static const BYTE KTotal[]          = {"TOTAL        "};
 229:src/Print.c   ****   static const BYTE c_voided_sales[]   = {"VOIDED SALES "};
 230:src/Print.c   ****   static const BYTE c_voided_refund[]  = {"VOIDED REFUND"};
 231:src/Print.c   ****   DDWORD amount;
 232:src/Print.c   **** 
 233:src/Print.c   **** 
 234:src/Print.c   **** 
 235:src/Print.c   ****   if (TIPsReqd()) {
 525              		.loc 1 235 0
 526 0004 FFF7FEFF 		bl	TIPsReqd
 527              	.LVL56:
 528 0008 B0B1     		cbz	r0, .L24
 236:src/Print.c   ****     pack_mem((BYTE *)KBase, 6);
 529              		.loc 1 236 0
 530 000a 0621     		movs	r1, #6
 531 000c 2448     		ldr	r0, .L28
 532 000e FFF7FEFF 		bl	pack_mem
 533              	.LVL57:
 237:src/Print.c   ****     amount = aTot->s_sale_tot.dd_amount;
 238:src/Print.c   ****     amount -= aTot->s_tips_tot.dd_amount;
 239:src/Print.c   ****     PackCountAmt(aTot->s_sale_tot.w_count, amount);
 534              		.loc 1 239 0
 535 0012 2089     		ldrh	r0, [r4, #8]
 237:src/Print.c   ****     amount = aTot->s_sale_tot.dd_amount;
 536              		.loc 1 237 0
 537 0014 D4E90467 		ldrd	r6, [r4, #16]
 538              	.LVL58:
 238:src/Print.c   ****     PackCountAmt(aTot->s_sale_tot.w_count, amount);
ARM GAS  C:\Users\ahmedhamed\AppData\Local\Temp\ccS0aG3e.s 			page 15


 539              		.loc 1 238 0
 540 0018 D4E90823 		ldrd	r2, [r4, #32]
 541              		.loc 1 239 0
 542 001c B21A     		subs	r2, r6, r2
 543 001e 67EB0303 		sbc	r3, r7, r3
 544 0022 FFF7FEFF 		bl	PackCountAmt
 545              	.LVL59:
 240:src/Print.c   ****     pack_mem((BYTE *)KTips, 6);
 546              		.loc 1 240 0
 547 0026 1F48     		ldr	r0, .L28+4
 548 0028 0621     		movs	r1, #6
 549 002a FFF7FEFF 		bl	pack_mem
 550              	.LVL60:
 241:src/Print.c   ****     PackCountAmt(aTot->s_tips_tot.w_count, aTot->s_tips_tot.dd_amount);
 551              		.loc 1 241 0
 552 002e 208B     		ldrh	r0, [r4, #24]
 553 0030 D4E90823 		ldrd	r2, [r4, #32]
 554 0034 FFF7FEFF 		bl	PackCountAmt
 555              	.LVL61:
 556              	.L24:
 242:src/Print.c   ****   }
 243:src/Print.c   **** 
 244:src/Print.c   ****   pack_mem((BYTE *)KSales, 13);
 557              		.loc 1 244 0
 558 0038 0D21     		movs	r1, #13
 559 003a 1B48     		ldr	r0, .L28+8
 560 003c FFF7FEFF 		bl	pack_mem
 561              	.LVL62:
 245:src/Print.c   ****   PackCountAmt(aTot->s_sale_tot.w_count, aTot->s_sale_tot.dd_amount);
 562              		.loc 1 245 0
 563 0040 2089     		ldrh	r0, [r4, #8]
 564 0042 D4E90423 		ldrd	r2, [r4, #16]
 565 0046 FFF7FEFF 		bl	PackCountAmt
 566              	.LVL63:
 246:src/Print.c   **** 
 247:src/Print.c   **** 
 248:src/Print.c   ****   pack_mem((BYTE *)(KRefund), 13);
 567              		.loc 1 248 0
 568 004a 0D21     		movs	r1, #13
 569 004c 1748     		ldr	r0, .L28+12
 570 004e FFF7FEFF 		bl	pack_mem
 571              	.LVL64:
 249:src/Print.c   ****   PackCountAmt(aTot->s_refund_tot.w_count, aTot->s_refund_tot.dd_amount);
 572              		.loc 1 249 0
 573 0052 208D     		ldrh	r0, [r4, #40]
 574 0054 D4E90C23 		ldrd	r2, [r4, #48]
 575 0058 FFF7FEFF 		bl	PackCountAmt
 576              	.LVL65:
 250:src/Print.c   **** 
 251:src/Print.c   **** 
 252:src/Print.c   ****   pack_mem((BYTE *)c_voided_sales, 13);
 577              		.loc 1 252 0
 578 005c 0D21     		movs	r1, #13
 579 005e 1448     		ldr	r0, .L28+16
 580 0060 FFF7FEFF 		bl	pack_mem
 581              	.LVL66:
 253:src/Print.c   ****   PackCountAmt(aTot->s_void_sale.w_count, aTot->s_void_sale.dd_amount);
ARM GAS  C:\Users\ahmedhamed\AppData\Local\Temp\ccS0aG3e.s 			page 16


 582              		.loc 1 253 0
 583 0064 208F     		ldrh	r0, [r4, #56]
 584 0066 D4E91023 		ldrd	r2, [r4, #64]
 585 006a FFF7FEFF 		bl	PackCountAmt
 586              	.LVL67:
 254:src/Print.c   **** 
 255:src/Print.c   **** 
 256:src/Print.c   ****   pack_mem((BYTE *)(c_voided_refund), 13);
 587              		.loc 1 256 0
 588 006e 0D21     		movs	r1, #13
 589 0070 1048     		ldr	r0, .L28+20
 590 0072 FFF7FEFF 		bl	pack_mem
 591              	.LVL68:
 257:src/Print.c   ****   PackCountAmt(aTot->s_void_refund.w_count, aTot->s_void_refund.dd_amount);
 592              		.loc 1 257 0
 593 0076 B4F84800 		ldrh	r0, [r4, #72]
 594 007a D4E91423 		ldrd	r2, [r4, #80]
 595 007e FFF7FEFF 		bl	PackCountAmt
 596              	.LVL69:
 258:src/Print.c   ****   PackSeperator('-');
 597              		.loc 1 258 0
 598 0082 2D20     		movs	r0, #45
 599 0084 FFF7FEFF 		bl	PackSeperator
 600              	.LVL70:
 259:src/Print.c   **** 
 260:src/Print.c   ****   pack_mem((BYTE *)KTotal, 13);
 601              		.loc 1 260 0
 602 0088 0B48     		ldr	r0, .L28+24
 603 008a 0D21     		movs	r1, #13
 604 008c FFF7FEFF 		bl	pack_mem
 605              	.LVL71:
 261:src/Print.c   ****   PackCountAmt(aTot->s_ALL.w_count, aTot->s_ALL.dd_amount);
 606              		.loc 1 261 0
 607 0090 B4F85800 		ldrh	r0, [r4, #88]
 608 0094 D4E91823 		ldrd	r2, [r4, #96]
 262:src/Print.c   **** 
 263:src/Print.c   **** }
 609              		.loc 1 263 0
 610 0098 BDE8D040 		pop	{r4, r6, r7, lr}
 611              		.cfi_restore 14
 612              		.cfi_restore 7
 613              		.cfi_restore 6
 614              		.cfi_restore 4
 615              		.cfi_def_cfa_offset 0
 616              	.LVL72:
 261:src/Print.c   ****   PackCountAmt(aTot->s_ALL.w_count, aTot->s_ALL.dd_amount);
 617              		.loc 1 261 0
 618 009c FFF7FEBF 		b	PackCountAmt
 619              	.LVL73:
 620              	.L29:
 621              		.align	2
 622              	.L28:
 623 00a0 00000000 		.word	.LANCHOR0
 624 00a4 0E000000 		.word	.LANCHOR0+14
 625 00a8 1C000000 		.word	.LANCHOR0+28
 626 00ac 2A000000 		.word	.LANCHOR0+42
 627 00b0 38000000 		.word	.LANCHOR0+56
ARM GAS  C:\Users\ahmedhamed\AppData\Local\Temp\ccS0aG3e.s 			page 17


 628 00b4 46000000 		.word	.LANCHOR0+70
 629 00b8 54000000 		.word	.LANCHOR0+84
 630              		.cfi_endproc
 631              	.LFE8:
 632              		.size	PackTotals, .-PackTotals
 633              		.section	.text.PackEndOfRep,"ax",%progbits
 634              		.align	1
 635              		.global	PackEndOfRep
 636              		.thumb
 637              		.thumb_func
 638              		.type	PackEndOfRep, %function
 639              	PackEndOfRep:
 640              	.LFB9:
 264:src/Print.c   **** //*****************************************************************************
 265:src/Print.c   **** //  Function        : PackEndOfRep
 266:src/Print.c   **** //  Description     : Pack END OF REPORT line.
 267:src/Print.c   **** //  Input           : N/A
 268:src/Print.c   **** //  Return          : N/A
 269:src/Print.c   **** //  Note            : N/A
 270:src/Print.c   **** //  Globals Changed : N/A
 271:src/Print.c   **** //*****************************************************************************
 272:src/Print.c   **** void PackEndOfRep(void)
 273:src/Print.c   **** {
 641              		.loc 1 273 0
 642              		.cfi_startproc
 643              		@ args = 0, pretend = 0, frame = 24
 644              		@ frame_needed = 0, uses_anonymous_args = 0
 645 0000 7FB5     		push	{r0, r1, r2, r3, r4, r5, r6, lr}
 646              		.cfi_def_cfa_offset 32
 647              		.cfi_offset 14, -4
 274:src/Print.c   ****   char KEOR[]        = {"\x1BW1END OF REPORT\x1BW0"};
 648              		.loc 1 274 0
 649 0002 1422     		movs	r2, #20
 650 0004 0A49     		ldr	r1, .L31
 651 0006 01A8     		add	r0, sp, #4
 652 0008 FFF7FEFF 		bl	memcpy
 653              	.LVL74:
 275:src/Print.c   ****   pack_lf();
 654              		.loc 1 275 0
 655 000c FFF7FEFF 		bl	pack_lf
 656              	.LVL75:
 276:src/Print.c   ****   pack_space(2);
 657              		.loc 1 276 0
 658 0010 0220     		movs	r0, #2
 659 0012 FFF7FEFF 		bl	pack_space
 660              	.LVL76:
 277:src/Print.c   ****   pack_mem(KEOR, strlen(KEOR));
 661              		.loc 1 277 0
 662 0016 01A8     		add	r0, sp, #4
 663 0018 FFF7FEFF 		bl	strlen
 664              	.LVL77:
 665 001c 0146     		mov	r1, r0
 666 001e 01A8     		add	r0, sp, #4
 667 0020 FFF7FEFF 		bl	pack_mem
 668              	.LVL78:
 278:src/Print.c   ****   pack_lf();
 669              		.loc 1 278 0
ARM GAS  C:\Users\ahmedhamed\AppData\Local\Temp\ccS0aG3e.s 			page 18


 670 0024 FFF7FEFF 		bl	pack_lf
 671              	.LVL79:
 279:src/Print.c   **** }
 672              		.loc 1 279 0
 673 0028 07B0     		add	sp, sp, #28
 674              		.cfi_def_cfa_offset 4
 675              		@ sp needed
 676 002a 5DF804FB 		ldr	pc, [sp], #4
 677              	.L32:
 678 002e 00BF     		.align	2
 679              	.L31:
 680 0030 22000000 		.word	.LC5
 681              		.cfi_endproc
 682              	.LFE9:
 683              		.size	PackEndOfRep, .-PackEndOfRep
 684              		.section	.text.SaveLastRcpt,"ax",%progbits
 685              		.align	1
 686              		.global	SaveLastRcpt
 687              		.thumb
 688              		.thumb_func
 689              		.type	SaveLastRcpt, %function
 690              	SaveLastRcpt:
 691              	.LFB10:
 280:src/Print.c   **** //*****************************************************************************
 281:src/Print.c   **** //  Function        : SaveLastRcpt
 282:src/Print.c   **** //  Description     : Save Last Rcpt Copy.
 283:src/Print.c   **** //  Input           : N/A
 284:src/Print.c   **** //  Return          : N/A
 285:src/Print.c   **** //  Note            : N/A
 286:src/Print.c   **** //  Globals Changed : N/A
 287:src/Print.c   **** //*****************************************************************************
 288:src/Print.c   **** void SaveLastRcpt(BYTE *aDat, WORD aLen)
 289:src/Print.c   **** {
 692              		.loc 1 289 0
 693              		.cfi_startproc
 694              		@ args = 0, pretend = 0, frame = 32
 695              		@ frame_needed = 0, uses_anonymous_args = 0
 696              	.LVL80:
 697 0000 F0B5     		push	{r4, r5, r6, r7, lr}
 698              		.cfi_def_cfa_offset 20
 699              		.cfi_offset 4, -20
 700              		.cfi_offset 5, -16
 701              		.cfi_offset 6, -12
 702              		.cfi_offset 7, -8
 703              		.cfi_offset 14, -4
 704 0002 0746     		mov	r7, r0
 705 0004 8BB0     		sub	sp, sp, #44
 706              		.cfi_def_cfa_offset 64
 290:src/Print.c   ****   int fd;
 291:src/Print.c   ****   char filename[32];
 292:src/Print.c   **** 
 293:src/Print.c   ****   if (aLen == 0)
 707              		.loc 1 293 0
 708 0006 0E46     		mov	r6, r1
 709 0008 0029     		cmp	r1, #0
 710 000a 4BD0     		beq	.L33
 294:src/Print.c   ****     return;
ARM GAS  C:\Users\ahmedhamed\AppData\Local\Temp\ccS0aG3e.s 			page 19


 295:src/Print.c   **** 
 296:src/Print.c   ****   strcpy(filename, KLastRcptName);
 297:src/Print.c   ****   fd = fDeleteMW(filename);
 711              		.loc 1 297 0
 712 000c 0024     		movs	r4, #0
 296:src/Print.c   ****   fd = fDeleteMW(filename);
 713              		.loc 1 296 0
 714 000e 2649     		ldr	r1, .L45
 715              	.LVL81:
 716 0010 02A8     		add	r0, sp, #8
 717              	.LVL82:
 718 0012 FFF7FEFF 		bl	strcpy
 719              	.LVL83:
 720              		.loc 1 297 0
 721 0016 0C21     		movs	r1, #12
 722 0018 02AA     		add	r2, sp, #8
 723 001a 2346     		mov	r3, r4
 724 001c 0094     		str	r4, [sp]
 725 001e 0F20     		movs	r0, #15
 726 0020 FFF7FEFF 		bl	lib_app_call
 727              	.LVL84:
 298:src/Print.c   ****   fd = fCreateMW(filename, FALSE);
 728              		.loc 1 298 0
 729 0024 0094     		str	r4, [sp]
 730 0026 0F20     		movs	r0, #15
 731 0028 0B21     		movs	r1, #11
 732 002a 02AA     		add	r2, sp, #8
 733 002c 2346     		mov	r3, r4
 734 002e FFF7FEFF 		bl	lib_app_call
 735              	.LVL85:
 299:src/Print.c   ****   if (fd < 0) {
 736              		.loc 1 299 0
 737 0032 051E     		subs	r5, r0, #0
 738 0034 21DA     		bge	.L35
 739              	.LVL86:
 740              	.LBB2:
 300:src/Print.c   ****     DispLineMW("Reprint File ERR!", MW_MAX_LINE, MW_REVERSE|MW_CLREOL|MW_SPFONT);
 741              		.loc 1 300 0
 742 0036 9220     		movs	r0, #146
 743              	.LVL87:
 744 0038 1221     		movs	r1, #18
 745 003a FFF7FEFF 		bl	sys_func1
 746              	.LVL88:
 747 003e 0546     		mov	r5, r0
 748              	.LVL89:
 749 0040 90B1     		cbz	r0, .L36
 750              		.loc 1 300 0 is_stmt 0 discriminator 1
 751 0042 1A49     		ldr	r1, .L45+4
 752 0044 1122     		movs	r2, #17
 753 0046 FFF7FEFF 		bl	memcpy
 754              	.LVL90:
 755 004a 42F23003 		movw	r3, #8240
 756 004e 6C74     		strb	r4, [r5, #17]
 757 0050 2521     		movs	r1, #37
 758 0052 0093     		str	r3, [sp]
 759 0054 0F20     		movs	r0, #15
 760 0056 2A46     		mov	r2, r5
ARM GAS  C:\Users\ahmedhamed\AppData\Local\Temp\ccS0aG3e.s 			page 20


 761 0058 4FF41063 		mov	r3, #2304
 762 005c FFF7FEFF 		bl	lib_app_call
 763              	.LVL91:
 764 0060 9420     		movs	r0, #148
 765 0062 2946     		mov	r1, r5
 766 0064 FFF7FEFF 		bl	sys_func1
 767              	.LVL92:
 768              	.L36:
 769              	.LBE2:
 301:src/Print.c   ****     LongBeep();
 770              		.loc 1 301 0 is_stmt 1
 771 0068 FFF7FEFF 		bl	LongBeep
 772              	.LVL93:
 302:src/Print.c   ****     APM_WaitKey(9000, 0);
 773              		.loc 1 302 0
 774 006c 0023     		movs	r3, #0
 775 006e 1020     		movs	r0, #16
 776 0070 0093     		str	r3, [sp]
 777 0072 0321     		movs	r1, #3
 778 0074 42F22832 		movw	r2, #9000
 779 0078 12E0     		b	.L44
 780              	.LVL94:
 781              	.L35:
 303:src/Print.c   ****     return;
 304:src/Print.c   ****   }
 305:src/Print.c   ****   fWriteMW(fd, aDat, aLen);
 782              		.loc 1 305 0
 783 007a 1221     		movs	r1, #18
 784 007c 2A46     		mov	r2, r5
 785 007e 3B46     		mov	r3, r7
 786 0080 0096     		str	r6, [sp]
 787 0082 0F20     		movs	r0, #15
 788              	.LVL95:
 789 0084 FFF7FEFF 		bl	lib_app_call
 790              	.LVL96:
 306:src/Print.c   ****   fCloseMW(fd);
 791              		.loc 1 306 0
 792 0088 0E21     		movs	r1, #14
 793 008a 2A46     		mov	r2, r5
 794 008c 2346     		mov	r3, r4
 795 008e 0094     		str	r4, [sp]
 796 0090 0F20     		movs	r0, #15
 797 0092 FFF7FEFF 		bl	lib_app_call
 798              	.LVL97:
 307:src/Print.c   ****   fCommitAllMW();
 799              		.loc 1 307 0
 800 0096 0F20     		movs	r0, #15
 801 0098 1321     		movs	r1, #19
 802 009a 2246     		mov	r2, r4
 803 009c 2346     		mov	r3, r4
 804 009e 0094     		str	r4, [sp]
 805              	.LVL98:
 806              	.L44:
 807 00a0 FFF7FEFF 		bl	lib_app_call
 808              	.LVL99:
 809              	.L33:
 308:src/Print.c   **** }
ARM GAS  C:\Users\ahmedhamed\AppData\Local\Temp\ccS0aG3e.s 			page 21


 810              		.loc 1 308 0
 811 00a4 0BB0     		add	sp, sp, #44
 812              		.cfi_def_cfa_offset 20
 813              		@ sp needed
 814 00a6 F0BD     		pop	{r4, r5, r6, r7, pc}
 815              	.LVL100:
 816              	.L46:
 817              		.align	2
 818              	.L45:
 819 00a8 00000000 		.word	.LANCHOR1
 820 00ac 36000000 		.word	.LC6
 821              		.cfi_endproc
 822              	.LFE10:
 823              		.size	SaveLastRcpt, .-SaveLastRcpt
 824              		.section	.text.GetLastRcpt,"ax",%progbits
 825              		.align	1
 826              		.global	GetLastRcpt
 827              		.thumb
 828              		.thumb_func
 829              		.type	GetLastRcpt, %function
 830              	GetLastRcpt:
 831              	.LFB11:
 309:src/Print.c   **** //*****************************************************************************
 310:src/Print.c   **** //  Function        : GetLastRcpt
 311:src/Print.c   **** //  Description     : Get Last Rcpt Copy.
 312:src/Print.c   **** //  Input           : N/A
 313:src/Print.c   **** //  Return          : N/A
 314:src/Print.c   **** //  Note            : N/A
 315:src/Print.c   **** //  Globals Changed : N/A
 316:src/Print.c   **** //*****************************************************************************
 317:src/Print.c   **** int GetLastRcpt(BYTE *aDat, WORD aLen)
 318:src/Print.c   **** {
 832              		.loc 1 318 0
 833              		.cfi_startproc
 834              		@ args = 0, pretend = 0, frame = 32
 835              		@ frame_needed = 0, uses_anonymous_args = 0
 836              	.LVL101:
 837 0000 F0B5     		push	{r4, r5, r6, r7, lr}
 838              		.cfi_def_cfa_offset 20
 839              		.cfi_offset 4, -20
 840              		.cfi_offset 5, -16
 841              		.cfi_offset 6, -12
 842              		.cfi_offset 7, -8
 843              		.cfi_offset 14, -4
 319:src/Print.c   ****   int fd, len;
 320:src/Print.c   ****   char filename[32];
 321:src/Print.c   **** 
 322:src/Print.c   ****   strcpy(filename, KLastRcptName);
 323:src/Print.c   ****   fd = fOpenMW(filename);
 844              		.loc 1 323 0
 845 0002 0025     		movs	r5, #0
 318:src/Print.c   ****   int fd, len;
 846              		.loc 1 318 0
 847 0004 8BB0     		sub	sp, sp, #44
 848              		.cfi_def_cfa_offset 64
 318:src/Print.c   ****   int fd, len;
 849              		.loc 1 318 0
ARM GAS  C:\Users\ahmedhamed\AppData\Local\Temp\ccS0aG3e.s 			page 22


 850 0006 0446     		mov	r4, r0
 851 0008 0F46     		mov	r7, r1
 322:src/Print.c   ****   fd = fOpenMW(filename);
 852              		.loc 1 322 0
 853 000a 02A8     		add	r0, sp, #8
 854              	.LVL102:
 855 000c 1049     		ldr	r1, .L50
 856              	.LVL103:
 857 000e FFF7FEFF 		bl	strcpy
 858              	.LVL104:
 859              		.loc 1 323 0
 860 0012 0095     		str	r5, [sp]
 861 0014 0F20     		movs	r0, #15
 862 0016 0D21     		movs	r1, #13
 863 0018 02AA     		add	r2, sp, #8
 864 001a 2B46     		mov	r3, r5
 865 001c FFF7FEFF 		bl	lib_app_call
 866              	.LVL105:
 324:src/Print.c   ****   if (fd < 0) {
 867              		.loc 1 324 0
 868 0020 061E     		subs	r6, r0, #0
 869 0022 10DB     		blt	.L49
 325:src/Print.c   ****     return -1;
 326:src/Print.c   ****   }
 327:src/Print.c   ****   len = fReadMW(fd, aDat, aLen);
 870              		.loc 1 327 0
 871 0024 2346     		mov	r3, r4
 872 0026 1121     		movs	r1, #17
 873 0028 3246     		mov	r2, r6
 874 002a 0097     		str	r7, [sp]
 875 002c 0F20     		movs	r0, #15
 876              	.LVL106:
 877 002e FFF7FEFF 		bl	lib_app_call
 878              	.LVL107:
 328:src/Print.c   ****   fCloseMW(fd);
 879              		.loc 1 328 0
 880 0032 0095     		str	r5, [sp]
 881 0034 0E21     		movs	r1, #14
 882 0036 3246     		mov	r2, r6
 327:src/Print.c   ****   fCloseMW(fd);
 883              		.loc 1 327 0
 884 0038 0446     		mov	r4, r0
 885              	.LVL108:
 886              		.loc 1 328 0
 887 003a 2B46     		mov	r3, r5
 888 003c 0F20     		movs	r0, #15
 889              	.LVL109:
 890 003e FFF7FEFF 		bl	lib_app_call
 891              	.LVL110:
 329:src/Print.c   ****   return len;
 892              		.loc 1 329 0
 893 0042 2046     		mov	r0, r4
 894 0044 01E0     		b	.L48
 895              	.LVL111:
 896              	.L49:
 325:src/Print.c   ****   }
 897              		.loc 1 325 0
ARM GAS  C:\Users\ahmedhamed\AppData\Local\Temp\ccS0aG3e.s 			page 23


 898 0046 4FF0FF30 		mov	r0, #-1
 899              	.LVL112:
 900              	.L48:
 330:src/Print.c   **** }
 901              		.loc 1 330 0
 902 004a 0BB0     		add	sp, sp, #44
 903              		.cfi_def_cfa_offset 20
 904              		@ sp needed
 905 004c F0BD     		pop	{r4, r5, r6, r7, pc}
 906              	.LVL113:
 907              	.L51:
 908 004e 00BF     		.align	2
 909              	.L50:
 910 0050 00000000 		.word	.LANCHOR1
 911              		.cfi_endproc
 912              	.LFE11:
 913              		.size	GetLastRcpt, .-GetLastRcpt
 914              		.section	.text.ReprintLast,"ax",%progbits
 915              		.align	1
 916              		.global	ReprintLast
 917              		.thumb
 918              		.thumb_func
 919              		.type	ReprintLast, %function
 920              	ReprintLast:
 921              	.LFB12:
 331:src/Print.c   **** //*****************************************************************************
 332:src/Print.c   **** //  Function        : ReprintLast
 333:src/Print.c   **** //  Description     : Reprint Last Saved Receipt.
 334:src/Print.c   **** //  Input           : N/A
 335:src/Print.c   **** //  Return          : N/A
 336:src/Print.c   **** //  Note            : N/A
 337:src/Print.c   **** //  Globals Changed : N/A
 338:src/Print.c   **** //*****************************************************************************
 339:src/Print.c   **** void ReprintLast(void)
 340:src/Print.c   **** {
 922              		.loc 1 340 0
 923              		.cfi_startproc
 924              		@ args = 0, pretend = 0, frame = 0
 925              		@ frame_needed = 0, uses_anonymous_args = 0
 926 0000 F7B5     		push	{r0, r1, r2, r4, r5, r6, r7, lr}
 927              		.cfi_def_cfa_offset 32
 928              		.cfi_offset 4, -20
 929              		.cfi_offset 5, -16
 930              		.cfi_offset 6, -12
 931              		.cfi_offset 7, -8
 932              		.cfi_offset 14, -4
 341:src/Print.c   ****   int len;
 342:src/Print.c   **** 
 343:src/Print.c   ****   len = GetLastRcpt(MSG_BUF.sb_content, sizeof(MSG_BUF.sb_content));
 933              		.loc 1 343 0
 934 0002 234C     		ldr	r4, .L58
 935 0004 4FF44061 		mov	r1, #3072
 936 0008 2068     		ldr	r0, [r4]
 937 000a 2546     		mov	r5, r4
 938 000c 00F69C50 		addw	r0, r0, #3484
 939 0010 FFF7FEFF 		bl	GetLastRcpt
 940              	.LVL114:
ARM GAS  C:\Users\ahmedhamed\AppData\Local\Temp\ccS0aG3e.s 			page 24


 344:src/Print.c   ****   if (len == -1)
 941              		.loc 1 344 0
 942 0014 431C     		adds	r3, r0, #1
 343:src/Print.c   ****   if (len == -1)
 943              		.loc 1 343 0
 944 0016 0746     		mov	r7, r0
 945              	.LVL115:
 946              		.loc 1 344 0
 947 0018 37D0     		beq	.L52
 948              	.LBB3:
 345:src/Print.c   ****     return;
 346:src/Print.c   ****   DispLineMW(GetConstMsg(EDC_FN_REPRINT_BATCH), MW_LINE1, MW_CLRDISP|MW_REVERSE|MW_CENTER|MW_BIGFON
 949              		.loc 1 346 0
 950 001a 3C20     		movs	r0, #60
 951              	.LVL116:
 952 001c FFF7FEFF 		bl	GetConstMsg
 953              	.LVL117:
 954 0020 FFF7FEFF 		bl	strlen
 955              	.LVL118:
 956 0024 0646     		mov	r6, r0
 957              	.LVL119:
 958 0026 711C     		adds	r1, r6, #1
 959 0028 9220     		movs	r0, #146
 960              	.LVL120:
 961 002a FFF7FEFF 		bl	sys_func1
 962              	.LVL121:
 963 002e 0446     		mov	r4, r0
 964 0030 B8B1     		cbz	r0, .L54
 965              		.loc 1 346 0 is_stmt 0 discriminator 1
 966 0032 3C20     		movs	r0, #60
 967              	.LVL122:
 968 0034 FFF7FEFF 		bl	GetConstMsg
 969              	.LVL123:
 970 0038 3246     		mov	r2, r6
 971 003a 0146     		mov	r1, r0
 972 003c 2046     		mov	r0, r4
 973 003e FFF7FEFF 		bl	memcpy
 974              	.LVL124:
 975 0042 0023     		movs	r3, #0
 976 0044 2521     		movs	r1, #37
 977 0046 A355     		strb	r3, [r4, r6]
 978 0048 41F29203 		movw	r3, #4242
 979 004c 0F20     		movs	r0, #15
 980 004e 0093     		str	r3, [sp]
 981 0050 2246     		mov	r2, r4
 982 0052 4FF48073 		mov	r3, #256
 983 0056 FFF7FEFF 		bl	lib_app_call
 984              	.LVL125:
 985 005a 9420     		movs	r0, #148
 986 005c 2146     		mov	r1, r4
 987 005e FFF7FEFF 		bl	sys_func1
 988              	.LVL126:
 989              	.L54:
 990              	.LBE3:
 347:src/Print.c   ****   Disp2x16Msg(GetConstMsg(EDC_EMV_PROCESSING),MW_LINE5, MW_BIGFONT);
 991              		.loc 1 347 0 is_stmt 1
 992 0062 8920     		movs	r0, #137
ARM GAS  C:\Users\ahmedhamed\AppData\Local\Temp\ccS0aG3e.s 			page 25


 993 0064 FFF7FEFF 		bl	GetConstMsg
 994              	.LVL127:
 995 0068 4FF4A061 		mov	r1, #1280
 996 006c 4FF48052 		mov	r2, #4096
 997 0070 FFF7FEFF 		bl	Disp2x16Msg
 998              	.LVL128:
 348:src/Print.c   ****   PrintBuf(MSG_BUF.sb_content, len, FALSE, FALSE);
 999              		.loc 1 348 0
 1000 0074 2868     		ldr	r0, [r5]
 1001 0076 0022     		movs	r2, #0
 1002 0078 00F69C50 		addw	r0, r0, #3484
 1003 007c 3946     		mov	r1, r7
 1004 007e 1346     		mov	r3, r2
 349:src/Print.c   **** }
 1005              		.loc 1 349 0
 1006 0080 03B0     		add	sp, sp, #12
 1007              		.cfi_remember_state
 1008              		.cfi_def_cfa_offset 20
 1009              		@ sp needed
 1010 0082 BDE8F040 		pop	{r4, r5, r6, r7, lr}
 1011              		.cfi_restore 14
 1012              		.cfi_restore 7
 1013              		.cfi_restore 6
 1014              		.cfi_restore 5
 1015              		.cfi_restore 4
 1016              		.cfi_def_cfa_offset 0
 1017              	.LVL129:
 348:src/Print.c   ****   PrintBuf(MSG_BUF.sb_content, len, FALSE, FALSE);
 1018              		.loc 1 348 0
 1019 0086 FFF7FEBF 		b	PrintBuf
 1020              	.LVL130:
 1021              	.L52:
 1022              		.cfi_restore_state
 1023              		.loc 1 349 0
 1024 008a 03B0     		add	sp, sp, #12
 1025              		.cfi_def_cfa_offset 20
 1026              		@ sp needed
 1027 008c F0BD     		pop	{r4, r5, r6, r7, pc}
 1028              	.L59:
 1029 008e 00BF     		.align	2
 1030              	.L58:
 1031 0090 00000000 		.word	gGDS
 1032              		.cfi_endproc
 1033              	.LFE12:
 1034              		.size	ReprintLast, .-ReprintLast
 1035              		.section	.text.ManualFeed,"ax",%progbits
 1036              		.align	1
 1037              		.global	ManualFeed
 1038              		.thumb
 1039              		.thumb_func
 1040              		.type	ManualFeed, %function
 1041              	ManualFeed:
 1042              	.LFB13:
 350:src/Print.c   **** //*****************************************************************************
 351:src/Print.c   **** //  Function        : ManualFeed
 352:src/Print.c   **** //  Description     : Feed Paper.
 353:src/Print.c   **** //  Input           : N/A
ARM GAS  C:\Users\ahmedhamed\AppData\Local\Temp\ccS0aG3e.s 			page 26


 354:src/Print.c   **** //  Return          : N/A
 355:src/Print.c   **** //  Note            : N/A
 356:src/Print.c   **** //  Globals Changed : N/A
 357:src/Print.c   **** //*****************************************************************************
 358:src/Print.c   **** void ManualFeed(void)
 359:src/Print.c   **** {
 1043              		.loc 1 359 0
 1044              		.cfi_startproc
 1045              		@ args = 0, pretend = 0, frame = 8
 1046              		@ frame_needed = 0, uses_anonymous_args = 0
 1047 0000 1FB5     		push	{r0, r1, r2, r3, r4, lr}
 1048              		.cfi_def_cfa_offset 24
 1049              		.cfi_offset 4, -8
 1050              		.cfi_offset 14, -4
 360:src/Print.c   ****   BYTE tmp[] = {"\x1BJ\x20" };
 1051              		.loc 1 360 0
 1052 0002 094B     		ldr	r3, .L61
 1053 0004 04AC     		add	r4, sp, #16
 361:src/Print.c   **** 
 362:src/Print.c   ****   IOCtlMW(gLptHandle, MW_TMLPT_RESET, NULL);
 1054              		.loc 1 362 0
 1055 0006 0721     		movs	r1, #7
 360:src/Print.c   ****   BYTE tmp[] = {"\x1BJ\x20" };
 1056              		.loc 1 360 0
 1057 0008 44F8043D 		str	r3, [r4, #-4]!
 1058              		.loc 1 362 0
 1059 000c 0023     		movs	r3, #0
 1060 000e 0F20     		movs	r0, #15
 1061 0010 0093     		str	r3, [sp]
 1062 0012 064B     		ldr	r3, .L61+4
 1063 0014 1A68     		ldr	r2, [r3]
 1064 0016 0323     		movs	r3, #3
 1065 0018 FFF7FEFF 		bl	lib_app_call
 1066              	.LVL131:
 363:src/Print.c   ****   LptPutN(tmp, 3);
 1067              		.loc 1 363 0
 1068 001c 2046     		mov	r0, r4
 1069 001e 0321     		movs	r1, #3
 1070 0020 FFF7FEFF 		bl	LptPutN
 1071              	.LVL132:
 364:src/Print.c   **** }
 1072              		.loc 1 364 0
 1073 0024 04B0     		add	sp, sp, #16
 1074              		.cfi_def_cfa_offset 8
 1075              		@ sp needed
 1076 0026 10BD     		pop	{r4, pc}
 1077              	.L62:
 1078              		.align	2
 1079              	.L61:
 1080 0028 1B4A2000 		.word	2116123
 1081 002c 00000000 		.word	gLptHandle
 1082              		.cfi_endproc
 1083              	.LFE13:
 1084              		.size	ManualFeed, .-ManualFeed
 1085              		.section	.rodata
 1086              		.set	.LANCHOR0,. + 0
 1087              		.type	KBase.12430, %object
ARM GAS  C:\Users\ahmedhamed\AppData\Local\Temp\ccS0aG3e.s 			page 27


 1088              		.size	KBase.12430, 14
 1089              	KBase.12430:
 1090 0000 42415345 		.ascii	"BASE         \000"
 1090      20202020 
 1090      20202020 
 1090      2000
 1091              		.type	KTips.12431, %object
 1092              		.size	KTips.12431, 14
 1093              	KTips.12431:
 1094 000e 54495053 		.ascii	"TIPS         \000"
 1094      20202020 
 1094      20202020 
 1094      2000
 1095              		.type	KSales.12432, %object
 1096              		.size	KSales.12432, 14
 1097              	KSales.12432:
 1098 001c 53414C45 		.ascii	"SALES        \000"
 1098      53202020 
 1098      20202020 
 1098      2000
 1099              		.type	KRefund.12433, %object
 1100              		.size	KRefund.12433, 14
 1101              	KRefund.12433:
 1102 002a 5245464E 		.ascii	"REFND        \000"
 1102      44202020 
 1102      20202020 
 1102      2000
 1103              		.type	c_voided_sales.12435, %object
 1104              		.size	c_voided_sales.12435, 14
 1105              	c_voided_sales.12435:
 1106 0038 564F4944 		.ascii	"VOIDED SALES \000"
 1106      45442053 
 1106      414C4553 
 1106      2000
 1107              		.type	c_voided_refund.12436, %object
 1108              		.size	c_voided_refund.12436, 14
 1109              	c_voided_refund.12436:
 1110 0046 564F4944 		.ascii	"VOIDED REFUND\000"
 1110      45442052 
 1110      4546554E 
 1110      4400
 1111              		.type	KTotal.12434, %object
 1112              		.size	KTotal.12434, 14
 1113              	KTotal.12434:
 1114 0054 544F5441 		.ascii	"TOTAL        \000"
 1114      4C202020 
 1114      20202020 
 1114      2000
 1115              		.section	.rodata.str1.1,"aMS",%progbits,1
 1116              	.LC0:
 1117 0000 44617465 		.ascii	"Date:\000"
 1117      3A00
 1118              	.LC1:
 1119 0006 54696D65 		.ascii	"Time:\000"
 1119      3A00
 1120              	.LC2:
 1121 000c 3A00     		.ascii	":\000"
ARM GAS  C:\Users\ahmedhamed\AppData\Local\Temp\ccS0aG3e.s 			page 28


 1122              	.LC3:
 1123 000e 5445524D 		.ascii	"TERM ID :\000"
 1123      20494420 
 1123      3A00
 1124              	.LC4:
 1125 0018 4D455243 		.ascii	"MERCH ID:\000"
 1125      48204944 
 1125      3A00
 1126              	.LC5:
 1127 0022 1B573145 		.ascii	"\033W1END OF REPORT\033W0\000"
 1127      4E44204F 
 1127      46205245 
 1127      504F5254 
 1127      1B573000 
 1128              	.LC6:
 1129 0036 52657072 		.ascii	"Reprint File ERR!\000"
 1129      696E7420 
 1129      46696C65 
 1129      20455252 
 1129      2100
 1130              		.data
 1131              		.set	.LANCHOR1,. + 0
 1132              		.type	KLastRcptName, %object
 1133              		.size	KLastRcptName, 9
 1134              	KLastRcptName:
 1135 0000 45444352 		.ascii	"EDCReprn\000"
 1135      6570726E 
 1135      00
 1136              		.text
 1137              	.Letext0:
 1138              		.file 2 "c:\\devtools\\gcc_v49_2014q4\\lib\\gcc\\arm-none-eabi\\4.9.3\\include\\stddef.h"
 1139              		.file 3 "../LibA5T1000/common.h"
 1140              		.file 4 "../LibA5T1000/midware.h"
 1141              		.file 5 "../LibA5T1000/apm.h"
 1142              		.file 6 "../LibA5T1000/emv2dll.h"
 1143              		.file 7 "../LibA5T1000/emvcl2dll.h"
 1144              		.file 8 "../LibA5T1000/ecrdll.h"
 1145              		.file 9 "src/sysutil.h"
 1146              		.file 10 "src/corevar.h"
 1147              		.file 11 "src/message.h"
 1148              		.file 12 "src/logo.h"
 1149              		.file 13 "src/hardware.h"
 1150              		.file 14 "../LibA5T1000/util.h"
 1151              		.file 15 "../LibA5T1000/system.h"
 1152              		.file 16 "src/chkoptn.h"
 1153              		.file 17 "c:\\devtools\\gcc_v49_2014q4\\arm-none-eabi\\include\\string.h"
 1154              		.file 18 "src/lptutil.h"