ARM GAS  C:\Users\AHMED~1.ELE\AppData\Local\Temp\cc4Dzs6o.s 			page 1


   1              		.syntax unified
   2              		.cpu cortex-a5
   3              		.fpu softvfp
   4              		.eabi_attribute 20, 1
   5              		.eabi_attribute 21, 1
   6              		.eabi_attribute 23, 3
   7              		.eabi_attribute 24, 1
   8              		.eabi_attribute 25, 1
   9              		.eabi_attribute 26, 1
  10              		.eabi_attribute 30, 4
  11              		.eabi_attribute 34, 0
  12              		.eabi_attribute 18, 4
  13              		.thumb
  14              		.file	"record.c"
  15              		.text
  16              	.Ltext0:
  17              		.cfi_sections	.debug_frame
  18              		.section	.text.MoveInput2Tx,"ax",%progbits
  19              		.align	1
  20              		.global	MoveInput2Tx
  21              		.thumb
  22              		.thumb_func
  23              		.type	MoveInput2Tx, %function
  24              	MoveInput2Tx:
  25              	.LFB0:
  26              		.file 1 "src/record.c"
   1:src/record.c  **** //-----------------------------------------------------------------------------
   2:src/record.c  **** //  File          : record.c
   3:src/record.c  **** //  Module        :
   4:src/record.c  **** //  Description   : Include routines for handling record operation.
   5:src/record.c  **** //  Author        : Lewis
   6:src/record.c  **** //  Notes         :
   7:src/record.c  **** //
   8:src/record.c  **** // ============================================================================
   9:src/record.c  **** // | Naming conventions                                                       |
  10:src/record.c  **** // | ~~~~~~~~~~~~~~~~~~                                                       |
  11:src/record.c  **** // |        Struct define : Leading T                                         |
  12:src/record.c  **** // |         Struct/Array : Leading s                                         |
  13:src/record.c  **** // |             Constant : Leading K                                         |
  14:src/record.c  **** // |      Global Variable : Leading g  (variable use outside one C file)      |
  15:src/record.c  **** // |                                                                          |
  16:src/record.c  **** // |   BYTE( 8 Bits) size : Leading b                                         |
  17:src/record.c  **** // |   CHAR( 8 Bits) size : Leading c                                         |
  18:src/record.c  **** // |   WORD(16 Bits) size : Leading w                                         |
  19:src/record.c  **** // |  DWORD(32 Bits) size : Leading d                                         |
  20:src/record.c  **** // |    int(32 Bits) size : Leading i                                         |
  21:src/record.c  **** // | DDWORD(64 Bits) size : Leading dd                                        |
  22:src/record.c  **** // |              Pointer : Leading p                                         |
  23:src/record.c  **** // |                                                                          |
  24:src/record.c  **** // |    Function argument : Leading a                                         |
  25:src/record.c  **** // |       Local Variable : All lower case                                    |
  26:src/record.c  **** // |                                                                          |
  27:src/record.c  **** // | Examples:                                                                |
  28:src/record.c  **** // |                Array : Leading s, (sb = arrary of byte, etc)             |
  29:src/record.c  **** // |              Pointer : Leading p, (pb = pointer of byte, etc)            |
  30:src/record.c  **** // ============================================================================
  31:src/record.c  **** //
ARM GAS  C:\Users\AHMED~1.ELE\AppData\Local\Temp\cc4Dzs6o.s 			page 2


  32:src/record.c  **** //  Date          Who         Action
  33:src/record.c  **** //  ------------  ----------- -------------------------------------------------
  34:src/record.c  **** //  29 Sept 2008  Lewis       Initial Version.
  35:src/record.c  **** //-----------------------------------------------------------------------------
  36:src/record.c  **** #include <stdio.h>
  37:src/record.c  **** #include <string.h>
  38:src/record.c  **** #include "corevar.h"
  39:src/record.c  **** #include "constant.h"
  40:src/record.c  **** #include "message.h"
  41:src/record.c  **** #include "tranutil.h"
  42:src/record.c  **** #include "util.h"
  43:src/record.c  **** #include "record.h"
  44:src/record.c  **** 
  45:src/record.c  **** //*****************************************************************************
  46:src/record.c  **** //  Function        : MoveInput2Tx
  47:src/record.c  **** //  Description     : Save data from input to TX_DATA.
  48:src/record.c  **** //  Input           : N/A
  49:src/record.c  **** //  Return          : N/A
  50:src/record.c  **** //  Note            : N/A
  51:src/record.c  **** //  Globals Changed : TX_DATA
  52:src/record.c  **** //*****************************************************************************
  53:src/record.c  **** void MoveInput2Tx(void)
  54:src/record.c  **** {
  27              		.loc 1 54 0
  28              		.cfi_startproc
  29              		@ args = 0, pretend = 0, frame = 0
  30              		@ frame_needed = 0, uses_anonymous_args = 0
  31 0000 10B5     		push	{r4, lr}
  32              		.cfi_def_cfa_offset 8
  33              		.cfi_offset 4, -8
  34              		.cfi_offset 14, -4
  55:src/record.c  ****   ByteCopy((BYTE *)&TX_DATA, (BYTE *)&INPUT, TX_DATA.sb_proc_code-&TX_DATA.b_trans);
  35              		.loc 1 55 0
  36 0002 094C     		ldr	r4, .L2
  37 0004 4FF4DC72 		mov	r2, #440
  38 0008 2046     		mov	r0, r4
  39 000a A4F52E71 		sub	r1, r4, #696
  40 000e FFF7FEFF 		bl	ByteCopy
  41              	.LVL0:
  56:src/record.c  ****   ByteCopy((BYTE *)&TX_DATA.s_icc_data, (BYTE *)&INPUT.s_icc_data, sizeof(struct ICC_DATA));
  42              		.loc 1 56 0
  43 0012 04F18400 		add	r0, r4, #132
  44 0016 A4F50D71 		sub	r1, r4, #564
  57:src/record.c  **** }
  45              		.loc 1 57 0
  46 001a BDE81040 		pop	{r4, lr}
  47              		.cfi_restore 14
  48              		.cfi_restore 4
  49              		.cfi_def_cfa_offset 0
  56:src/record.c  ****   ByteCopy((BYTE *)&TX_DATA.s_icc_data, (BYTE *)&INPUT.s_icc_data, sizeof(struct ICC_DATA));
  50              		.loc 1 56 0
  51 001e 4FF49672 		mov	r2, #300
  52 0022 FFF7FEBF 		b	ByteCopy
  53              	.LVL1:
  54              	.L3:
  55 0026 00BF     		.align	2
  56              	.L2:
ARM GAS  C:\Users\AHMED~1.ELE\AppData\Local\Temp\cc4Dzs6o.s 			page 3


  57 0028 B8020000 		.word	gGTS+696
  58              		.cfi_endproc
  59              	.LFE0:
  60              		.size	MoveInput2Tx, .-MoveInput2Tx
  61              		.section	.text.Input2RecordBuf,"ax",%progbits
  62              		.align	1
  63              		.global	Input2RecordBuf
  64              		.thumb
  65              		.thumb_func
  66              		.type	Input2RecordBuf, %function
  67              	Input2RecordBuf:
  68              	.LFB1:
  58:src/record.c  **** //*****************************************************************************
  59:src/record.c  **** //  Function        : Input2RecordBuf
  60:src/record.c  **** //  Description     : Save data from input to RECORD_BUF.
  61:src/record.c  **** //  Input           : N/A
  62:src/record.c  **** //  Return          : N/A
  63:src/record.c  **** //  Note            : N/A
  64:src/record.c  **** //  Globals Changed : RECORD_BUF;
  65:src/record.c  **** //*****************************************************************************
  66:src/record.c  **** void Input2RecordBuf(void)
  67:src/record.c  **** {
  69              		.loc 1 67 0
  70              		.cfi_startproc
  71              		@ args = 0, pretend = 0, frame = 0
  72              		@ frame_needed = 0, uses_anonymous_args = 0
  73 0000 38B5     		push	{r3, r4, r5, lr}
  74              		.cfi_def_cfa_offset 16
  75              		.cfi_offset 3, -16
  76              		.cfi_offset 4, -12
  77              		.cfi_offset 5, -8
  78              		.cfi_offset 14, -4
  68:src/record.c  ****   memset(&RECORD_BUF, 0x00, sizeof(struct TXN_RECORD));
  79              		.loc 1 68 0
  80 0002 214D     		ldr	r5, .L7
  81 0004 0021     		movs	r1, #0
  82 0006 2C68     		ldr	r4, [r5]
  83 0008 4FF4DC72 		mov	r2, #440
  84 000c 04F5D964 		add	r4, r4, #1736
  85 0010 2046     		mov	r0, r4
  86 0012 FFF7FEFF 		bl	memset
  87              	.LVL2:
  69:src/record.c  **** 
  70:src/record.c  ****   ByteCopy((BYTE *)&RECORD_BUF, (BYTE *)&INPUT, (DWORD)((DWORD)&RECORD_BUF.w_crc - (DWORD)&RECORD_B
  88              		.loc 1 70 0
  89 0016 2046     		mov	r0, r4
  90 0018 1C49     		ldr	r1, .L7+4
  91 001a 4FF4D872 		mov	r2, #432
  92 001e FFF7FEFF 		bl	ByteCopy
  93              	.LVL3:
  71:src/record.c  ****   memcpy(RECORD_BUF.sb_rrn, &RSP_DATA.sb_rrn, sizeof(RECORD_BUF.sb_rrn));
  94              		.loc 1 71 0
  95 0022 2C68     		ldr	r4, [r5]
  96 0024 1A49     		ldr	r1, .L7+8
  97 0026 0C22     		movs	r2, #12
  98 0028 04F23170 		addw	r0, r4, #1841
  99 002c FFF7FEFF 		bl	memcpy
ARM GAS  C:\Users\AHMED~1.ELE\AppData\Local\Temp\cc4Dzs6o.s 			page 4


 100              	.LVL4:
  72:src/record.c  ****   memcpy(RECORD_BUF.sb_auth_code, &RSP_DATA.sb_auth_code, sizeof(RECORD_BUF.sb_auth_code));
 101              		.loc 1 72 0
 102 0030 1849     		ldr	r1, .L7+12
 103 0032 0622     		movs	r2, #6
 104 0034 04F22770 		addw	r0, r4, #1831
 105 0038 FFF7FEFF 		bl	memcpy
 106              	.LVL5:
  73:src/record.c  ****   if (memcmp(TX_DATA.sb_trace_no, INPUT.sb_trace_no, 3) > 0)
 107              		.loc 1 73 0
 108 003c 1648     		ldr	r0, .L7+16
 109 003e 0322     		movs	r2, #3
 110 0040 A0F52E71 		sub	r1, r0, #696
 111 0044 FFF7FEFF 		bl	memcmp
 112              	.LVL6:
 113 0048 0028     		cmp	r0, #0
 114 004a 05DD     		ble	.L5
  74:src/record.c  ****     memcpy(RECORD_BUF.sb_trace_no, &TX_DATA.sb_trace_no, 3);
 115              		.loc 1 74 0
 116 004c 04F2CB60 		addw	r0, r4, #1739
 117 0050 1149     		ldr	r1, .L7+16
 118 0052 0322     		movs	r2, #3
 119 0054 FFF7FEFF 		bl	memcpy
 120              	.LVL7:
 121              	.L5:
  75:src/record.c  ****   RECORD_BUF.w_rspcode = RSP_DATA.w_rspcode;
 122              		.loc 1 75 0
 123 0058 0C4B     		ldr	r3, .L7+4
 124 005a B3F8DE24 		ldrh	r2, [r3, #1246]
  76:src/record.c  ****   RECORD_BUF.b_PinVerified = RSP_DATA.b_PinVerified;
  77:src/record.c  ****   RECORD_BUF.dd_org_amount = INPUT.dd_amount;
 125              		.loc 1 77 0
 126 005e D3E90601 		ldrd	r0, [r3, #24]
  75:src/record.c  ****   RECORD_BUF.w_rspcode = RSP_DATA.w_rspcode;
 127              		.loc 1 75 0
 128 0062 A4F82E27 		strh	r2, [r4, #1838]	@ movhi
  76:src/record.c  ****   RECORD_BUF.b_PinVerified = RSP_DATA.b_PinVerified;
 129              		.loc 1 76 0
 130 0066 93F8E024 		ldrb	r2, [r3, #1248]	@ zero_extendqisi2
 131 006a 84F83027 		strb	r2, [r4, #1840]
 132              		.loc 1 77 0
 133 006e 04F5DE62 		add	r2, r4, #1776
 134 0072 C2E90001 		strd	r0, [r2]
  78:src/record.c  ****   memcpy(&RECORD_BUF.s_dtg, &RSP_DATA.s_dtg, sizeof(RECORD_BUF.s_dtg));
 135              		.loc 1 78 0
 136 0076 04F24470 		addw	r0, r4, #1860
  79:src/record.c  **** }
 137              		.loc 1 79 0
 138 007a BDE83840 		pop	{r3, r4, r5, lr}
 139              		.cfi_restore 14
 140              		.cfi_restore 5
 141              		.cfi_restore 4
 142              		.cfi_restore 3
 143              		.cfi_def_cfa_offset 0
  78:src/record.c  ****   memcpy(&RECORD_BUF.s_dtg, &RSP_DATA.s_dtg, sizeof(RECORD_BUF.s_dtg));
 144              		.loc 1 78 0
 145 007e 0749     		ldr	r1, .L7+20
ARM GAS  C:\Users\AHMED~1.ELE\AppData\Local\Temp\cc4Dzs6o.s 			page 5


 146 0080 0822     		movs	r2, #8
 147 0082 FFF7FEBF 		b	memcpy
 148              	.LVL8:
 149              	.L8:
 150 0086 00BF     		.align	2
 151              	.L7:
 152 0088 00000000 		.word	gGDS
 153 008c 00000000 		.word	gGTS
 154 0090 E1040000 		.word	gGTS+1249
 155 0094 D7040000 		.word	gGTS+1239
 156 0098 BB020000 		.word	gGTS+699
 157 009c F4040000 		.word	gGTS+1268
 158              		.cfi_endproc
 159              	.LFE1:
 160              		.size	Input2RecordBuf, .-Input2RecordBuf
 161              		.section	.text.UpdateHostStatus,"ax",%progbits
 162              		.align	1
 163              		.global	UpdateHostStatus
 164              		.thumb
 165              		.thumb_func
 166              		.type	UpdateHostStatus, %function
 167              	UpdateHostStatus:
 168              	.LFB2:
  80:src/record.c  **** //*****************************************************************************
  81:src/record.c  **** //  Function        : UpdateHostStatus
  82:src/record.c  **** //  Description     : Update acquirer status;
  83:src/record.c  **** //  Input           : aAction;       // host status flag
  84:src/record.c  **** //  Return          : N/A
  85:src/record.c  **** //  Note            : N/A
  86:src/record.c  **** //  Globals         : N/A
  87:src/record.c  **** //*****************************************************************************
  88:src/record.c  **** void UpdateHostStatus(BYTE aAction)
  89:src/record.c  **** {
 169              		.loc 1 89 0
 170              		.cfi_startproc
 171              		@ args = 0, pretend = 0, frame = 16
 172              		@ frame_needed = 0, uses_anonymous_args = 0
 173              	.LVL9:
  90:src/record.c  ****   struct BATSYS_HDR header;
  91:src/record.c  **** 
  92:src/record.c  ****   if (aAction == REV_PENDING) {
 174              		.loc 1 92 0
 175 0000 0128     		cmp	r0, #1
  89:src/record.c  ****   struct BATSYS_HDR header;
 176              		.loc 1 89 0
 177 0002 70B5     		push	{r4, r5, r6, lr}
 178              		.cfi_def_cfa_offset 16
 179              		.cfi_offset 4, -16
 180              		.cfi_offset 5, -12
 181              		.cfi_offset 6, -8
 182              		.cfi_offset 14, -4
 183 0004 0446     		mov	r4, r0
 184 0006 86B0     		sub	sp, sp, #24
 185              		.cfi_def_cfa_offset 40
 186 0008 224D     		ldr	r5, .L13
 187              		.loc 1 92 0
 188 000a 17D1     		bne	.L10
ARM GAS  C:\Users\AHMED~1.ELE\AppData\Local\Temp\cc4Dzs6o.s 			page 6


  93:src/record.c  ****     ReadRTC(&RSP_DATA.s_dtg);
 189              		.loc 1 93 0
 190 000c 2248     		ldr	r0, .L13+4
 191              	.LVL10:
 192 000e FFF7FEFF 		bl	ReadRTC
 193              	.LVL11:
  94:src/record.c  ****     Input2RecordBuf();
 194              		.loc 1 94 0
 195 0012 FFF7FEFF 		bl	Input2RecordBuf
 196              	.LVL12:
  95:src/record.c  ****     header.b_status = STS_REC_REVERSAL;
 197              		.loc 1 95 0
 198 0016 5223     		movs	r3, #82
  96:src/record.c  ****     header.w_acq_id = INPUT.w_host_idx;
  97:src/record.c  ****     memcpy(header.sb_trace_no, RECORD_BUF.sb_trace_no, sizeof(header.sb_trace_no));
 199              		.loc 1 97 0
 200 0018 0DF10D00 		add	r0, sp, #13
  95:src/record.c  ****     header.b_status = STS_REC_REVERSAL;
 201              		.loc 1 95 0
 202 001c 8DF80C30 		strb	r3, [sp, #12]
  96:src/record.c  ****     header.w_acq_id = INPUT.w_host_idx;
 203              		.loc 1 96 0
 204 0020 B5F87630 		ldrh	r3, [r5, #118]
 205              		.loc 1 97 0
 206 0024 0322     		movs	r2, #3
  96:src/record.c  ****     header.w_acq_id = INPUT.w_host_idx;
 207              		.loc 1 96 0
 208 0026 ADF81430 		strh	r3, [sp, #20]	@ movhi
 209              		.loc 1 97 0
 210 002a 1C4B     		ldr	r3, .L13+8
 211 002c 1E68     		ldr	r6, [r3]
 212 002e 06F2CB61 		addw	r1, r6, #1739
 213 0032 FFF7FEFF 		bl	memcpy
 214              	.LVL13:
  98:src/record.c  ****     APM_SaveBatRec(&RECORD_BUF, &header);
 215              		.loc 1 98 0
 216 0036 0023     		movs	r3, #0
 217 0038 0093     		str	r3, [sp]
 218 003a 11E0     		b	.L12
 219              	.LVL14:
 220              	.L10:
  99:src/record.c  ****   }
 100:src/record.c  ****   /* KC++ 21-Sep-2012 Fixed batch record bug */
 101:src/record.c  ****   else if (aAction == NO_PENDING) {
 221              		.loc 1 101 0
 222 003c B8B9     		cbnz	r0, .L11
 102:src/record.c  ****     header.b_status = STS_REC_EMPTY;
 223              		.loc 1 102 0
 224 003e 4523     		movs	r3, #69
 103:src/record.c  ****     header.w_acq_id = INPUT.w_host_idx;
 104:src/record.c  ****     memcpy(header.sb_trace_no, RECORD_BUF.sb_trace_no, sizeof(header.sb_trace_no));
 225              		.loc 1 104 0
 226 0040 0DF10D00 		add	r0, sp, #13
 227              	.LVL15:
 102:src/record.c  ****     header.b_status = STS_REC_EMPTY;
 228              		.loc 1 102 0
 229 0044 8DF80C30 		strb	r3, [sp, #12]
ARM GAS  C:\Users\AHMED~1.ELE\AppData\Local\Temp\cc4Dzs6o.s 			page 7


 103:src/record.c  ****     header.w_acq_id = INPUT.w_host_idx;
 230              		.loc 1 103 0
 231 0048 B5F87630 		ldrh	r3, [r5, #118]
 232              		.loc 1 104 0
 233 004c 0322     		movs	r2, #3
 103:src/record.c  ****     header.w_acq_id = INPUT.w_host_idx;
 234              		.loc 1 103 0
 235 004e ADF81430 		strh	r3, [sp, #20]	@ movhi
 236              		.loc 1 104 0
 237 0052 124B     		ldr	r3, .L13+8
 238 0054 1E68     		ldr	r6, [r3]
 239 0056 06F2CB61 		addw	r1, r6, #1739
 240 005a FFF7FEFF 		bl	memcpy
 241              	.LVL16:
 105:src/record.c  ****     APM_SaveBatRec(&RECORD_BUF, &header);
 242              		.loc 1 105 0
 243 005e 0094     		str	r4, [sp]
 244              	.L12:
 245 0060 1020     		movs	r0, #16
 246 0062 2D21     		movs	r1, #45
 247 0064 06F5D962 		add	r2, r6, #1736
 248 0068 03AB     		add	r3, sp, #12
 249 006a FFF7FEFF 		bl	lib_app_call
 250              	.LVL17:
 251              	.L11:
 106:src/record.c  ****   }
 107:src/record.c  ****   /* KC-- 21-Sep-2012 */
 108:src/record.c  ****   APM_SetPending(INPUT.w_host_idx, aAction);
 252              		.loc 1 108 0
 253 006e B5F87620 		ldrh	r2, [r5, #118]
 254 0072 0025     		movs	r5, #0
 255 0074 2346     		mov	r3, r4
 256 0076 0095     		str	r5, [sp]
 257 0078 1D21     		movs	r1, #29
 258 007a 1020     		movs	r0, #16
 259 007c FFF7FEFF 		bl	lib_app_call
 260              	.LVL18:
 109:src/record.c  ****   fCommitAllMW();
 261              		.loc 1 109 0
 262 0080 0095     		str	r5, [sp]
 263 0082 1321     		movs	r1, #19
 264 0084 2A46     		mov	r2, r5
 265 0086 2B46     		mov	r3, r5
 266 0088 0F20     		movs	r0, #15
 267 008a FFF7FEFF 		bl	lib_app_call
 268              	.LVL19:
 110:src/record.c  **** }
 269              		.loc 1 110 0
 270 008e 06B0     		add	sp, sp, #24
 271              		.cfi_def_cfa_offset 16
 272              		@ sp needed
 273 0090 70BD     		pop	{r4, r5, r6, pc}
 274              	.L14:
 275 0092 00BF     		.align	2
 276              	.L13:
 277 0094 00000000 		.word	gGTS
 278 0098 F4040000 		.word	gGTS+1268
ARM GAS  C:\Users\AHMED~1.ELE\AppData\Local\Temp\cc4Dzs6o.s 			page 8


 279 009c 00000000 		.word	gGDS
 280              		.cfi_endproc
 281              	.LFE2:
 282              		.size	UpdateHostStatus, .-UpdateHostStatus
 283              		.section	.text.SaveRecord,"ax",%progbits
 284              		.align	1
 285              		.global	SaveRecord
 286              		.thumb
 287              		.thumb_func
 288              		.type	SaveRecord, %function
 289              	SaveRecord:
 290              	.LFB3:
 111:src/record.c  **** //*****************************************************************************
 112:src/record.c  **** //  Function        : SaveRecord
 113:src/record.c  **** //  Description     : Save record to Batch file
 114:src/record.c  **** //  Input           : N/A
 115:src/record.c  **** //  Return          : N/A
 116:src/record.c  **** //  Note            : N/A
 117:src/record.c  **** //  Globals Changed : N/A
 118:src/record.c  **** //*****************************************************************************
 119:src/record.c  **** void SaveRecord(void)
 120:src/record.c  **** {
 291              		.loc 1 120 0
 292              		.cfi_startproc
 293              		@ args = 0, pretend = 0, frame = 16
 294              		@ frame_needed = 0, uses_anonymous_args = 0
 295 0000 70B5     		push	{r4, r5, r6, lr}
 296              		.cfi_def_cfa_offset 16
 297              		.cfi_offset 4, -16
 298              		.cfi_offset 5, -12
 299              		.cfi_offset 6, -8
 300              		.cfi_offset 14, -4
 121:src/record.c  ****   struct BATSYS_HDR header;
 122:src/record.c  **** 
 123:src/record.c  ****   Input2RecordBuf();
 124:src/record.c  ****   header.b_status = STS_REC_BATCH;
 125:src/record.c  ****   header.w_acq_id = RECORD_BUF.w_host_idx;
 301              		.loc 1 125 0
 302 0002 1C4D     		ldr	r5, .L16
 120:src/record.c  ****   struct BATSYS_HDR header;
 303              		.loc 1 120 0
 304 0004 86B0     		sub	sp, sp, #24
 305              		.cfi_def_cfa_offset 40
 123:src/record.c  ****   header.b_status = STS_REC_BATCH;
 306              		.loc 1 123 0
 307 0006 FFF7FEFF 		bl	Input2RecordBuf
 308              	.LVL20:
 309              		.loc 1 125 0
 310 000a 2C68     		ldr	r4, [r5]
 124:src/record.c  ****   header.w_acq_id = RECORD_BUF.w_host_idx;
 311              		.loc 1 124 0
 312 000c 4223     		movs	r3, #66
 126:src/record.c  ****   memcpy(header.sb_trace_no, RECORD_BUF.sb_trace_no, sizeof(header.sb_trace_no));
 313              		.loc 1 126 0
 314 000e 0326     		movs	r6, #3
 124:src/record.c  ****   header.w_acq_id = RECORD_BUF.w_host_idx;
 315              		.loc 1 124 0
ARM GAS  C:\Users\AHMED~1.ELE\AppData\Local\Temp\cc4Dzs6o.s 			page 9


 316 0010 8DF80C30 		strb	r3, [sp, #12]
 125:src/record.c  ****   memcpy(header.sb_trace_no, RECORD_BUF.sb_trace_no, sizeof(header.sb_trace_no));
 317              		.loc 1 125 0
 318 0014 B4F83E37 		ldrh	r3, [r4, #1854]
 319              		.loc 1 126 0
 320 0018 04F2CB61 		addw	r1, r4, #1739
 321 001c 3246     		mov	r2, r6
 322 001e 0DF10D00 		add	r0, sp, #13
 125:src/record.c  ****   memcpy(header.sb_trace_no, RECORD_BUF.sb_trace_no, sizeof(header.sb_trace_no));
 323              		.loc 1 125 0
 324 0022 ADF81430 		strh	r3, [sp, #20]	@ movhi
 325              		.loc 1 126 0
 326 0026 FFF7FEFF 		bl	memcpy
 327              	.LVL21:
 127:src/record.c  ****   memcpy(header.sb_roc_no, RECORD_BUF.sb_roc_no, sizeof(header.sb_roc_no));
 328              		.loc 1 127 0
 329 002a 3246     		mov	r2, r6
 330 002c 04F2CF61 		addw	r1, r4, #1743
 331 0030 04A8     		add	r0, sp, #16
 332 0032 FFF7FEFF 		bl	memcpy
 333              	.LVL22:
 128:src/record.c  ****   RECORD_BUF.w_crc = cal_crc((BYTE *)&RECORD_BUF,
 334              		.loc 1 128 0
 335 0036 04F5D960 		add	r0, r4, #1736
 336 003a 4FF4D871 		mov	r1, #432
 337 003e FFF7FEFF 		bl	cal_crc
 338              	.LVL23:
 129:src/record.c  ****                              (BYTE *)&RECORD_BUF.w_crc-(BYTE *)&RECORD_BUF.b_trans);
 130:src/record.c  **** 
 131:src/record.c  ****   // Save Record & Clear Reversal
 132:src/record.c  ****   APM_SaveBatRec(&RECORD_BUF, &header);
 339              		.loc 1 132 0
 340 0042 2A68     		ldr	r2, [r5]
 341 0044 03AB     		add	r3, sp, #12
 342 0046 2D21     		movs	r1, #45
 128:src/record.c  ****   RECORD_BUF.w_crc = cal_crc((BYTE *)&RECORD_BUF,
 343              		.loc 1 128 0
 344 0048 A4F87808 		strh	r0, [r4, #2168]	@ movhi
 345              		.loc 1 132 0
 346 004c 0024     		movs	r4, #0
 347 004e 02F5D962 		add	r2, r2, #1736
 348 0052 0094     		str	r4, [sp]
 349 0054 1020     		movs	r0, #16
 350 0056 FFF7FEFF 		bl	lib_app_call
 351              	.LVL24:
 133:src/record.c  ****   UpdateHostStatus(NO_PENDING);
 352              		.loc 1 133 0
 353 005a 2046     		mov	r0, r4
 354 005c FFF7FEFF 		bl	UpdateHostStatus
 355              	.LVL25:
 134:src/record.c  ****   fCommitAllMW();    // make sure all update in the same time
 356              		.loc 1 134 0
 357 0060 0094     		str	r4, [sp]
 358 0062 1321     		movs	r1, #19
 359 0064 2246     		mov	r2, r4
 360 0066 2346     		mov	r3, r4
 361 0068 0F20     		movs	r0, #15
ARM GAS  C:\Users\AHMED~1.ELE\AppData\Local\Temp\cc4Dzs6o.s 			page 10


 362 006a FFF7FEFF 		bl	lib_app_call
 363              	.LVL26:
 135:src/record.c  **** }
 364              		.loc 1 135 0
 365 006e 06B0     		add	sp, sp, #24
 366              		.cfi_def_cfa_offset 16
 367              		@ sp needed
 368 0070 70BD     		pop	{r4, r5, r6, pc}
 369              	.L17:
 370 0072 00BF     		.align	2
 371              	.L16:
 372 0074 00000000 		.word	gGDS
 373              		.cfi_endproc
 374              	.LFE3:
 375              		.size	SaveRecord, .-SaveRecord
 376              		.section	.text.SaveOfflRecord,"ax",%progbits
 377              		.align	1
 378              		.global	SaveOfflRecord
 379              		.thumb
 380              		.thumb_func
 381              		.type	SaveOfflRecord, %function
 382              	SaveOfflRecord:
 383              	.LFB4:
 136:src/record.c  **** //*****************************************************************************
 137:src/record.c  **** //  Function        : SaveOfflRecord
 138:src/record.c  **** //  Description     : Save offline record to Batch file
 139:src/record.c  **** //  Input           : N/A
 140:src/record.c  **** //  Return          : N/A
 141:src/record.c  **** //  Note            : //17-12-12 JC ++
 142:src/record.c  **** //  Globals Changed : N/A
 143:src/record.c  **** //*****************************************************************************
 144:src/record.c  **** void SaveOfflRecord(void)
 145:src/record.c  **** {
 384              		.loc 1 145 0
 385              		.cfi_startproc
 386              		@ args = 0, pretend = 0, frame = 16
 387              		@ frame_needed = 0, uses_anonymous_args = 0
 388 0000 70B5     		push	{r4, r5, r6, lr}
 389              		.cfi_def_cfa_offset 16
 390              		.cfi_offset 4, -16
 391              		.cfi_offset 5, -12
 392              		.cfi_offset 6, -8
 393              		.cfi_offset 14, -4
 146:src/record.c  ****   struct BATSYS_HDR header;
 147:src/record.c  **** 
 148:src/record.c  ****   Input2RecordBuf();
 149:src/record.c  ****   header.b_status = STS_REC_BATCH;
 150:src/record.c  ****   header.w_acq_id = RECORD_BUF.w_host_idx;
 394              		.loc 1 150 0
 395 0002 1A4D     		ldr	r5, .L19
 145:src/record.c  ****   struct BATSYS_HDR header;
 396              		.loc 1 145 0
 397 0004 86B0     		sub	sp, sp, #24
 398              		.cfi_def_cfa_offset 40
 148:src/record.c  ****   header.b_status = STS_REC_BATCH;
 399              		.loc 1 148 0
 400 0006 FFF7FEFF 		bl	Input2RecordBuf
ARM GAS  C:\Users\AHMED~1.ELE\AppData\Local\Temp\cc4Dzs6o.s 			page 11


 401              	.LVL27:
 402              		.loc 1 150 0
 403 000a 2C68     		ldr	r4, [r5]
 149:src/record.c  ****   header.w_acq_id = RECORD_BUF.w_host_idx;
 404              		.loc 1 149 0
 405 000c 4223     		movs	r3, #66
 151:src/record.c  ****   memcpy(header.sb_trace_no, RECORD_BUF.sb_trace_no, sizeof(header.sb_trace_no));
 406              		.loc 1 151 0
 407 000e 0326     		movs	r6, #3
 149:src/record.c  ****   header.w_acq_id = RECORD_BUF.w_host_idx;
 408              		.loc 1 149 0
 409 0010 8DF80C30 		strb	r3, [sp, #12]
 150:src/record.c  ****   memcpy(header.sb_trace_no, RECORD_BUF.sb_trace_no, sizeof(header.sb_trace_no));
 410              		.loc 1 150 0
 411 0014 B4F83E37 		ldrh	r3, [r4, #1854]
 412              		.loc 1 151 0
 413 0018 04F2CB61 		addw	r1, r4, #1739
 414 001c 3246     		mov	r2, r6
 415 001e 0DF10D00 		add	r0, sp, #13
 150:src/record.c  ****   memcpy(header.sb_trace_no, RECORD_BUF.sb_trace_no, sizeof(header.sb_trace_no));
 416              		.loc 1 150 0
 417 0022 ADF81430 		strh	r3, [sp, #20]	@ movhi
 418              		.loc 1 151 0
 419 0026 FFF7FEFF 		bl	memcpy
 420              	.LVL28:
 152:src/record.c  ****   memcpy(header.sb_roc_no, RECORD_BUF.sb_roc_no, sizeof(header.sb_roc_no));
 421              		.loc 1 152 0
 422 002a 3246     		mov	r2, r6
 423 002c 04F2CF61 		addw	r1, r4, #1743
 424 0030 04A8     		add	r0, sp, #16
 425 0032 FFF7FEFF 		bl	memcpy
 426              	.LVL29:
 153:src/record.c  ****   RECORD_BUF.w_crc = cal_crc((BYTE *)&RECORD_BUF,
 427              		.loc 1 153 0
 428 0036 04F5D960 		add	r0, r4, #1736
 429 003a 4FF4D871 		mov	r1, #432
 430 003e FFF7FEFF 		bl	cal_crc
 431              	.LVL30:
 154:src/record.c  ****                              (BYTE *)&RECORD_BUF.w_crc-(BYTE *)&RECORD_BUF.b_trans);
 155:src/record.c  **** 
 156:src/record.c  ****   // Save Record
 157:src/record.c  ****   APM_SaveBatRec(&RECORD_BUF, &header);
 432              		.loc 1 157 0
 433 0042 2A68     		ldr	r2, [r5]
 434 0044 03AB     		add	r3, sp, #12
 435 0046 2D21     		movs	r1, #45
 153:src/record.c  ****   RECORD_BUF.w_crc = cal_crc((BYTE *)&RECORD_BUF,
 436              		.loc 1 153 0
 437 0048 A4F87808 		strh	r0, [r4, #2168]	@ movhi
 438              		.loc 1 157 0
 439 004c 0024     		movs	r4, #0
 440 004e 02F5D962 		add	r2, r2, #1736
 441 0052 0094     		str	r4, [sp]
 442 0054 1020     		movs	r0, #16
 443 0056 FFF7FEFF 		bl	lib_app_call
 444              	.LVL31:
 158:src/record.c  ****   fCommitAllMW();    // make sure all update in the same time
ARM GAS  C:\Users\AHMED~1.ELE\AppData\Local\Temp\cc4Dzs6o.s 			page 12


 445              		.loc 1 158 0
 446 005a 0094     		str	r4, [sp]
 447 005c 1321     		movs	r1, #19
 448 005e 2246     		mov	r2, r4
 449 0060 2346     		mov	r3, r4
 450 0062 0F20     		movs	r0, #15
 451 0064 FFF7FEFF 		bl	lib_app_call
 452              	.LVL32:
 159:src/record.c  **** }
 453              		.loc 1 159 0
 454 0068 06B0     		add	sp, sp, #24
 455              		.cfi_def_cfa_offset 16
 456              		@ sp needed
 457 006a 70BD     		pop	{r4, r5, r6, pc}
 458              	.L20:
 459              		.align	2
 460              	.L19:
 461 006c 00000000 		.word	gGDS
 462              		.cfi_endproc
 463              	.LFE4:
 464              		.size	SaveOfflRecord, .-SaveOfflRecord
 465              		.section	.text.UpdateRecord,"ax",%progbits
 466              		.align	1
 467              		.global	UpdateRecord
 468              		.thumb
 469              		.thumb_func
 470              		.type	UpdateRecord, %function
 471              	UpdateRecord:
 472              	.LFB5:
 160:src/record.c  **** //*****************************************************************************
 161:src/record.c  **** //  Function        : UpdateRecord
 162:src/record.c  **** //  Description     : Update transaction record to recovery buffer.
 163:src/record.c  **** //  Input           : aRecIdx;      // Record Index
 164:src/record.c  **** //  Return          : N/A
 165:src/record.c  **** //  Note            : N/A
 166:src/record.c  **** //  Globals Changed : N/A
 167:src/record.c  **** //*****************************************************************************
 168:src/record.c  **** void UpdateRecord(int aRecIdx)
 169:src/record.c  **** {
 473              		.loc 1 169 0
 474              		.cfi_startproc
 475              		@ args = 0, pretend = 0, frame = 16
 476              		@ frame_needed = 0, uses_anonymous_args = 0
 477              	.LVL33:
 478 0000 F0B5     		push	{r4, r5, r6, r7, lr}
 479              		.cfi_def_cfa_offset 20
 480              		.cfi_offset 4, -20
 481              		.cfi_offset 5, -16
 482              		.cfi_offset 6, -12
 483              		.cfi_offset 7, -8
 484              		.cfi_offset 14, -4
 170:src/record.c  ****   struct BATSYS_HDR header;
 171:src/record.c  **** 
 172:src/record.c  ****   header.b_status = STS_REC_BATCH;
 173:src/record.c  ****   header.w_acq_id = RECORD_BUF.w_host_idx;
 485              		.loc 1 173 0
 486 0002 1A4D     		ldr	r5, .L22
ARM GAS  C:\Users\AHMED~1.ELE\AppData\Local\Temp\cc4Dzs6o.s 			page 13


 169:src/record.c  ****   struct BATSYS_HDR header;
 487              		.loc 1 169 0
 488 0004 87B0     		sub	sp, sp, #28
 489              		.cfi_def_cfa_offset 48
 490              		.loc 1 173 0
 491 0006 2C68     		ldr	r4, [r5]
 172:src/record.c  ****   header.w_acq_id = RECORD_BUF.w_host_idx;
 492              		.loc 1 172 0
 493 0008 4223     		movs	r3, #66
 174:src/record.c  ****   memcpy(header.sb_trace_no, RECORD_BUF.sb_trace_no, sizeof(header.sb_trace_no));
 494              		.loc 1 174 0
 495 000a 0326     		movs	r6, #3
 172:src/record.c  ****   header.w_acq_id = RECORD_BUF.w_host_idx;
 496              		.loc 1 172 0
 497 000c 8DF80C30 		strb	r3, [sp, #12]
 173:src/record.c  ****   memcpy(header.sb_trace_no, RECORD_BUF.sb_trace_no, sizeof(header.sb_trace_no));
 498              		.loc 1 173 0
 499 0010 B4F83E37 		ldrh	r3, [r4, #1854]
 169:src/record.c  ****   struct BATSYS_HDR header;
 500              		.loc 1 169 0
 501 0014 0746     		mov	r7, r0
 502              		.loc 1 174 0
 503 0016 04F2CB61 		addw	r1, r4, #1739
 504 001a 3246     		mov	r2, r6
 505 001c 0DF10D00 		add	r0, sp, #13
 506              	.LVL34:
 173:src/record.c  ****   memcpy(header.sb_trace_no, RECORD_BUF.sb_trace_no, sizeof(header.sb_trace_no));
 507              		.loc 1 173 0
 508 0020 ADF81430 		strh	r3, [sp, #20]	@ movhi
 509              		.loc 1 174 0
 510 0024 FFF7FEFF 		bl	memcpy
 511              	.LVL35:
 175:src/record.c  ****   memcpy(header.sb_roc_no, RECORD_BUF.sb_roc_no, sizeof(header.sb_roc_no));
 512              		.loc 1 175 0
 513 0028 3246     		mov	r2, r6
 514 002a 04F2CF61 		addw	r1, r4, #1743
 515 002e 04A8     		add	r0, sp, #16
 516 0030 FFF7FEFF 		bl	memcpy
 517              	.LVL36:
 176:src/record.c  ****   RECORD_BUF.w_crc = cal_crc((BYTE *)&RECORD_BUF,
 518              		.loc 1 176 0
 519 0034 04F5D960 		add	r0, r4, #1736
 520 0038 4FF4D871 		mov	r1, #432
 521 003c FFF7FEFF 		bl	cal_crc
 522              	.LVL37:
 177:src/record.c  ****                              (BYTE *)&RECORD_BUF.w_crc-(BYTE *)&RECORD_BUF.b_trans);
 178:src/record.c  **** 
 179:src/record.c  ****   APM_UpdateBatRec(aRecIdx, &RECORD_BUF, &header);
 523              		.loc 1 179 0
 524 0040 2B68     		ldr	r3, [r5]
 525 0042 03AA     		add	r2, sp, #12
 526 0044 2E21     		movs	r1, #46
 176:src/record.c  ****   RECORD_BUF.w_crc = cal_crc((BYTE *)&RECORD_BUF,
 527              		.loc 1 176 0
 528 0046 A4F87808 		strh	r0, [r4, #2168]	@ movhi
 529              		.loc 1 179 0
 530 004a 03F5D963 		add	r3, r3, #1736
ARM GAS  C:\Users\AHMED~1.ELE\AppData\Local\Temp\cc4Dzs6o.s 			page 14


 531 004e 0092     		str	r2, [sp]
 532 0050 1020     		movs	r0, #16
 533 0052 3A46     		mov	r2, r7
 534 0054 FFF7FEFF 		bl	lib_app_call
 535              	.LVL38:
 180:src/record.c  ****   fCommitAllMW();    // make sure all update in the same time
 536              		.loc 1 180 0
 537 0058 0022     		movs	r2, #0
 538 005a 1321     		movs	r1, #19
 539 005c 0092     		str	r2, [sp]
 540 005e 1346     		mov	r3, r2
 541 0060 0F20     		movs	r0, #15
 542 0062 FFF7FEFF 		bl	lib_app_call
 543              	.LVL39:
 181:src/record.c  **** }
 544              		.loc 1 181 0
 545 0066 07B0     		add	sp, sp, #28
 546              		.cfi_def_cfa_offset 20
 547              		@ sp needed
 548 0068 F0BD     		pop	{r4, r5, r6, r7, pc}
 549              	.LVL40:
 550              	.L23:
 551 006a 00BF     		.align	2
 552              	.L22:
 553 006c 00000000 		.word	gGDS
 554              		.cfi_endproc
 555              	.LFE5:
 556              		.size	UpdateRecord, .-UpdateRecord
 557              		.text
 558              	.Letext0:
 559              		.file 2 "c:\\devtools\\gcc_v49_2014q4\\lib\\gcc\\arm-none-eabi\\4.9.3\\include\\stddef.h"
 560              		.file 3 "../LibA5T1000/common.h"
 561              		.file 4 "../LibA5T1000/emv2dll.h"
 562              		.file 5 "../LibA5T1000/emvcl2dll.h"
 563              		.file 6 "../LibA5T1000/ecrdll.h"
 564              		.file 7 "../LibA5T1000/midware.h"
 565              		.file 8 "../LibA5T1000/apm.h"
 566              		.file 9 "src/sysutil.h"
 567              		.file 10 "src/corevar.h"
 568              		.file 11 "src/tranutil.h"
 569              		.file 12 "c:\\devtools\\gcc_v49_2014q4\\arm-none-eabi\\include\\string.h"
 570              		.file 13 "../LibA5T1000/system.h"
 571              		.file 14 "../LibA5T1000/util.h"