ARM GAS  C:\Users\AHMED~1.ELE\AppData\Local\Temp\ccwRXuxI.s 			page 1


   1              		.syntax unified
   2              		.cpu cortex-a5
   3              		.fpu softvfp
   4              		.eabi_attribute 20, 1
   5              		.eabi_attribute 21, 1
   6              		.eabi_attribute 23, 3
   7              		.eabi_attribute 24, 1
   8              		.eabi_attribute 25, 1
   9              		.eabi_attribute 26, 1
  10              		.eabi_attribute 30, 4
  11              		.eabi_attribute 34, 0
  12              		.eabi_attribute 18, 4
  13              		.thumb
  14              		.file	"refund.c"
  15              		.text
  16              	.Ltext0:
  17              		.cfi_sections	.debug_frame
  18              		.section	.text.RefundTrans,"ax",%progbits
  19              		.align	1
  20              		.global	RefundTrans
  21              		.thumb
  22              		.thumb_func
  23              		.type	RefundTrans, %function
  24              	RefundTrans:
  25              	.LFB0:
  26              		.file 1 "src/refund.c"
   1:src/refund.c  **** //-----------------------------------------------------------------------------
   2:src/refund.c  **** //  File          : refund.c
   3:src/refund.c  **** //  Module        :
   4:src/refund.c  **** //  Description   : Include Refund Transaction routine.
   5:src/refund.c  **** //  Author        : Lewis
   6:src/refund.c  **** //  Notes         :
   7:src/refund.c  **** //
   8:src/refund.c  **** // ============================================================================
   9:src/refund.c  **** // | Naming conventions                                                       |
  10:src/refund.c  **** // | ~~~~~~~~~~~~~~~~~~                                                       |
  11:src/refund.c  **** // |        Struct define : Leading T                                         |
  12:src/refund.c  **** // |         Struct/Array : Leading s                                         |
  13:src/refund.c  **** // |             Constant : Leading K                                         |
  14:src/refund.c  **** // |      Global Variable : Leading g  (variable use outside one C file)      |
  15:src/refund.c  **** // |                                                                          |
  16:src/refund.c  **** // |   BYTE( 8 Bits) size : Leading b                                         |
  17:src/refund.c  **** // |   CHAR( 8 Bits) size : Leading c                                         |
  18:src/refund.c  **** // |   WORD(16 Bits) size : Leading w                                         |
  19:src/refund.c  **** // |  DWORD(32 Bits) size : Leading d                                         |
  20:src/refund.c  **** // |    int(32 Bits) size : Leading i                                         |
  21:src/refund.c  **** // | DDWORD(64 Bits) size : Leading dd                                        |
  22:src/refund.c  **** // |              Pointer : Leading p                                         |
  23:src/refund.c  **** // |                                                                          |
  24:src/refund.c  **** // |    Function argument : Leading a                                         |
  25:src/refund.c  **** // |       Local Variable : All lower case                                    |
  26:src/refund.c  **** // |                                                                          |
  27:src/refund.c  **** // | Examples:                                                                |
  28:src/refund.c  **** // |                Array : Leading s, (sb = arrary of byte, etc)             |
  29:src/refund.c  **** // |              Pointer : Leading p, (pb = pointer of byte, etc)            |
  30:src/refund.c  **** // ============================================================================
  31:src/refund.c  **** //
ARM GAS  C:\Users\AHMED~1.ELE\AppData\Local\Temp\ccwRXuxI.s 			page 2


  32:src/refund.c  **** //  Date          Who         Action
  33:src/refund.c  **** //  ------------  ----------- -------------------------------------------------
  34:src/refund.c  **** //  29 Sept 2008  Lewis       Initial Version.
  35:src/refund.c  **** //-----------------------------------------------------------------------------
  36:src/refund.c  **** #include <string.h>
  37:src/refund.c  **** #include "util.h"
  38:src/refund.c  **** #include "sysutil.h"
  39:src/refund.c  **** #include "message.h"
  40:src/refund.c  **** #include "constant.h"
  41:src/refund.c  **** #include "corevar.h"
  42:src/refund.c  **** #include "chkoptn.h"
  43:src/refund.c  **** #include "print.h"
  44:src/refund.c  **** #include "tranutil.h"
  45:src/refund.c  **** #include "hostmsg.h"
  46:src/refund.c  **** #include "record.h"
  47:src/refund.c  **** #include "reversal.h"
  48:src/refund.c  **** #include "offline.h"
  49:src/refund.c  **** #include "emvtrans.h"
  50:src/refund.c  **** #include "refund.h"
  51:src/refund.c  **** 
  52:src/refund.c  **** //*****************************************************************************
  53:src/refund.c  **** //  Function        : RefundTrans
  54:src/refund.c  **** //  Description     : Refund transaction.
  55:src/refund.c  **** //  Input           : aInputMode;       // Transaction start mode
  56:src/refund.c  **** //  return          : TRUE/FALSE;       // FALSE => Cancel
  57:src/refund.c  **** //  Note            : N/A
  58:src/refund.c  **** //  Globals Changed : N/A
  59:src/refund.c  **** //*****************************************************************************
  60:src/refund.c  **** DWORD RefundTrans(DWORD aInputMode)
  61:src/refund.c  **** {
  27              		.loc 1 61 0
  28              		.cfi_startproc
  29              		@ args = 0, pretend = 0, frame = 0
  30              		@ frame_needed = 0, uses_anonymous_args = 0
  31              	.LVL0:
  32 0000 F7B5     		push	{r0, r1, r2, r4, r5, r6, r7, lr}
  33              		.cfi_def_cfa_offset 32
  34              		.cfi_offset 4, -20
  35              		.cfi_offset 5, -16
  36              		.cfi_offset 6, -12
  37              		.cfi_offset 7, -8
  38              		.cfi_offset 14, -4
  62:src/refund.c  ****   INPUT.b_trans = REFUND;
  39              		.loc 1 62 0
  40 0002 0623     		movs	r3, #6
  41 0004 4A4E     		ldr	r6, .L20
  61:src/refund.c  ****   INPUT.b_trans = REFUND;
  42              		.loc 1 61 0
  43 0006 0446     		mov	r4, r0
  63:src/refund.c  **** 
  64:src/refund.c  ****   DispHeader(NULL);
  44              		.loc 1 64 0
  45 0008 0020     		movs	r0, #0
  46              	.LVL1:
  62:src/refund.c  **** 
  47              		.loc 1 62 0
  48 000a 3370     		strb	r3, [r6]
ARM GAS  C:\Users\AHMED~1.ELE\AppData\Local\Temp\ccwRXuxI.s 			page 3


  49              		.loc 1 64 0
  50 000c FFF7FEFF 		bl	DispHeader
  51              	.LVL2:
  65:src/refund.c  **** //  PowerFailure();
  66:src/refund.c  **** 
  67:src/refund.c  ****   if (!TransAllowed(aInputMode)) {
  52              		.loc 1 67 0
  53 0010 2046     		mov	r0, r4
  54 0012 FFF7FEFF 		bl	TransAllowed
  55              	.LVL3:
  56 0016 3546     		mov	r5, r6
  57 0018 0446     		mov	r4, r0
  58              	.LVL4:
  59 001a 10B9     		cbnz	r0, .L2
  68:src/refund.c  ****     RefreshDispAfter(0);
  60              		.loc 1 68 0
  61 001c FFF7FEFF 		bl	RefreshDispAfter
  62              	.LVL5:
  63 0020 1BE0     		b	.L18
  64              	.L2:
  69:src/refund.c  ****     return FALSE;
  70:src/refund.c  ****   }
  71:src/refund.c  **** 
  72:src/refund.c  ****   if (RefundOffline()) {
  65              		.loc 1 72 0
  66 0022 FFF7FEFF 		bl	RefundOffline
  67              	.LVL6:
  68 0026 D0B1     		cbz	r0, .L4
  73:src/refund.c  **** 	 IncTraceNo();
  69              		.loc 1 73 0
  70 0028 FFF7FEFF 		bl	IncTraceNo
  71              	.LVL7:
  74:src/refund.c  **** 	   PackHeader();
  75:src/refund.c  ****     RSP_DATA.b_response = TRANS_ACP;
  72              		.loc 1 75 0
  73 002c 0024     		movs	r4, #0
  74:src/refund.c  **** 	   PackHeader();
  74              		.loc 1 74 0
  75 002e FFF7FEFF 		bl	PackHeader
  76              	.LVL8:
  76:src/refund.c  ****     INPUT.b_trans_status = OFFLINE;
  77              		.loc 1 76 0
  78 0032 8023     		movs	r3, #128
  75:src/refund.c  ****     INPUT.b_trans_status = OFFLINE;
  79              		.loc 1 75 0
  80 0034 86F8A848 		strb	r4, [r6, #2216]
  81              		.loc 1 76 0
  82 0038 B370     		strb	r3, [r6, #2]
  77:src/refund.c  ****     IncTraceNoEND();
  83              		.loc 1 77 0
  84 003a FFF7FEFF 		bl	IncTraceNoEND
  85              	.LVL9:
  78:src/refund.c  ****     GenAuthCode(RSP_DATA.sb_auth_code);
  86              		.loc 1 78 0
  87 003e 3D48     		ldr	r0, .L20+4
  88 0040 FFF7FEFF 		bl	GenAuthCode
  89              	.LVL10:
ARM GAS  C:\Users\AHMED~1.ELE\AppData\Local\Temp\ccwRXuxI.s 			page 4


  79:src/refund.c  ****     PackDTGAA();
  90              		.loc 1 79 0
  91 0044 FFF7FEFF 		bl	PackDTGAA
  92              	.LVL11:
  80:src/refund.c  ****     SaveOfflRecord();   //17-12-12 JC ++
  93              		.loc 1 80 0
  94 0048 FFF7FEFF 		bl	SaveOfflRecord
  95              	.LVL12:
  81:src/refund.c  ****     AcceptBeep();
  96              		.loc 1 81 0
  97 004c FFF7FEFF 		bl	AcceptBeep
  98              	.LVL13:
  82:src/refund.c  ****     PackInputP();
  99              		.loc 1 82 0
 100 0050 FFF7FEFF 		bl	PackInputP
 101              	.LVL14:
  83:src/refund.c  ****     TransEnd(TRUE);
 102              		.loc 1 83 0
 103 0054 0120     		movs	r0, #1
 104 0056 FFF7FEFF 		bl	TransEnd
 105              	.LVL15:
 106              	.L18:
  84:src/refund.c  ****     return FALSE;
 107              		.loc 1 84 0
 108 005a 2046     		mov	r0, r4
 109 005c 66E0     		b	.L3
 110              	.L4:
  85:src/refund.c  ****   }
  86:src/refund.c  **** 
  87:src/refund.c  ****   if ((INPUT.b_entry_mode == MANUAL) || (INPUT.b_entry_mode == MANUAL_4DBC))
 111              		.loc 1 87 0
 112 005e 96F83430 		ldrb	r3, [r6, #52]	@ zero_extendqisi2
  88:src/refund.c  ****     INPUT.b_trans = ONL_REFUND_MNL;
  89:src/refund.c  ****   else
  90:src/refund.c  ****     INPUT.b_trans = ONL_REFUND_SW;
  91:src/refund.c  ****   ClearResponse();
  92:src/refund.c  ****   //PackComm(INPUT.w_host_idx, FALSE);
  93:src/refund.c  ****   if ((RSP_DATA.w_rspcode = APM_ConnectOK(FALSE)) == COMM_OK) {
 113              		.loc 1 93 0
 114 0062 0024     		movs	r4, #0
  87:src/refund.c  ****     INPUT.b_trans = ONL_REFUND_MNL;
 115              		.loc 1 87 0
 116 0064 03F0DF03 		and	r3, r3, #223
 117 0068 4D2B     		cmp	r3, #77
  88:src/refund.c  ****     INPUT.b_trans = ONL_REFUND_MNL;
 118              		.loc 1 88 0
 119 006a 0CBF     		ite	eq
 120 006c 0523     		moveq	r3, #5
  90:src/refund.c  ****   ClearResponse();
 121              		.loc 1 90 0
 122 006e 0423     		movne	r3, #4
 123 0070 3370     		strb	r3, [r6]
  91:src/refund.c  ****   //PackComm(INPUT.w_host_idx, FALSE);
 124              		.loc 1 91 0
 125 0072 FFF7FEFF 		bl	ClearResponse
 126              	.LVL16:
 127              		.loc 1 93 0
ARM GAS  C:\Users\AHMED~1.ELE\AppData\Local\Temp\ccwRXuxI.s 			page 5


 128 0076 2346     		mov	r3, r4
 129 0078 0094     		str	r4, [sp]
 130 007a 1020     		movs	r0, #16
 131 007c 0A21     		movs	r1, #10
 132 007e 2246     		mov	r2, r4
 133 0080 FFF7FEFF 		bl	lib_app_call
 134              	.LVL17:
 135 0084 43F23003 		movw	r3, #12336
 136 0088 294E     		ldr	r6, .L20
 137 008a 87B2     		uxth	r7, r0
 138 008c 9F42     		cmp	r7, r3
 139 008e A5F81677 		strh	r7, [r5, #1814]	@ movhi
 140 0092 43D1     		bne	.L8
  94:src/refund.c  ****     if (ReversalOK()) {
 141              		.loc 1 94 0
 142 0094 FFF7FEFF 		bl	ReversalOK
 143              	.LVL18:
 144 0098 0028     		cmp	r0, #0
 145 009a 3FD0     		beq	.L8
  95:src/refund.c  ****       OfflineSent(0);
 146              		.loc 1 95 0
 147 009c 2046     		mov	r0, r4
 148 009e FFF7FEFF 		bl	OfflineSent
 149              	.LVL19:
  96:src/refund.c  **** 	  IncTraceNoEND();
 150              		.loc 1 96 0
 151 00a2 FFF7FEFF 		bl	IncTraceNoEND
 152              	.LVL20:
  97:src/refund.c  ****       MoveInput2Tx();
 153              		.loc 1 97 0
 154 00a6 FFF7FEFF 		bl	MoveInput2Tx
 155              	.LVL21:
  98:src/refund.c  ****       PackProcCode(TX_DATA.b_trans,0xFF);
 156              		.loc 1 98 0
 157 00aa FF21     		movs	r1, #255
 158 00ac 96F8A804 		ldrb	r0, [r6, #1192]	@ zero_extendqisi2
 159 00b0 FFF7FEFF 		bl	PackProcCode
 160              	.LVL22:
  99:src/refund.c  ****       PackHostMsg();
 161              		.loc 1 99 0
 162 00b4 FFF7FEFF 		bl	PackHostMsg
 163              	.LVL23:
 100:src/refund.c  ****       UpdateHostStatus(REV_PENDING);
 164              		.loc 1 100 0
 165 00b8 0120     		movs	r0, #1
 166 00ba FFF7FEFF 		bl	UpdateHostStatus
 167              	.LVL24:
 101:src/refund.c  **** 
 102:src/refund.c  ****       ClearResponse();
 168              		.loc 1 102 0
 169 00be FFF7FEFF 		bl	ClearResponse
 170              	.LVL25:
 103:src/refund.c  ****       if ((RSP_DATA.w_rspcode=APM_SendRcvd(&TX_BUF, &RX_BUF))==COMM_OK) {
 171              		.loc 1 103 0
 172 00c2 1D4B     		ldr	r3, .L20+8
 173 00c4 1020     		movs	r0, #16
 174 00c6 1B68     		ldr	r3, [r3]
ARM GAS  C:\Users\AHMED~1.ELE\AppData\Local\Temp\ccwRXuxI.s 			page 6


 175 00c8 0B21     		movs	r1, #11
 176 00ca 03F5CC52 		add	r2, r3, #6528
 177 00ce 03F51653 		add	r3, r3, #9600
 178 00d2 0094     		str	r4, [sp]
 179 00d4 1C32     		adds	r2, r2, #28
 180 00d6 2033     		adds	r3, r3, #32
 181 00d8 FFF7FEFF 		bl	lib_app_call
 182              	.LVL26:
 183 00dc 80B2     		uxth	r0, r0
 184 00de B842     		cmp	r0, r7
 185 00e0 A6F81607 		strh	r0, [r6, #1814]	@ movhi
 186 00e4 08D1     		bne	.L11
 104:src/refund.c  ****         RSP_DATA.b_response = CheckHostRsp();
 187              		.loc 1 104 0
 188 00e6 FFF7FEFF 		bl	CheckHostRsp
 189              	.LVL27:
 105:src/refund.c  ****         if (RSP_DATA.b_response <= TRANS_REJ)
 190              		.loc 1 105 0
 191 00ea 0128     		cmp	r0, #1
 104:src/refund.c  ****         RSP_DATA.b_response = CheckHostRsp();
 192              		.loc 1 104 0
 193 00ec 86F8A808 		strb	r0, [r6, #2216]
 194              		.loc 1 105 0
 195 00f0 02D8     		bhi	.L11
 106:src/refund.c  ****           UpdateHostStatus(NO_PENDING);
 196              		.loc 1 106 0
 197 00f2 2046     		mov	r0, r4
 198 00f4 FFF7FEFF 		bl	UpdateHostStatus
 199              	.LVL28:
 200              	.L11:
 107:src/refund.c  ****       }
 108:src/refund.c  ****       //SaveTraceNo();
 109:src/refund.c  ****       if (RSP_DATA.b_response == TRANS_ACP) {
 201              		.loc 1 109 0
 202 00f8 95F8A828 		ldrb	r2, [r5, #2216]	@ zero_extendqisi2
 203 00fc 0C4B     		ldr	r3, .L20
 204 00fe 6AB9     		cbnz	r2, .L8
 110:src/refund.c  ****         if (RSP_DATA.w_rspcode == '0'*256+'0')
 205              		.loc 1 110 0
 206 0100 B3F81617 		ldrh	r1, [r3, #1814]
 207 0104 43F23002 		movw	r2, #12336
 208 0108 9142     		cmp	r1, r2
 111:src/refund.c  ****           RSP_DATA.w_rspcode = 'A'*256+'P';
 209              		.loc 1 111 0
 210 010a 04BF     		itt	eq
 211 010c 02F58952 		addeq	r2, r2, #4384
 212 0110 A3F81627 		strheq	r2, [r3, #1814]	@ movhi
 112:src/refund.c  ****         SaveRecord();
 213              		.loc 1 112 0
 214 0114 FFF7FEFF 		bl	SaveRecord
 215              	.LVL29:
 113:src/refund.c  ****         PackInputP();
 216              		.loc 1 113 0
 217 0118 FFF7FEFF 		bl	PackInputP
 218              	.LVL30:
 219              	.L8:
 114:src/refund.c  ****       }
ARM GAS  C:\Users\AHMED~1.ELE\AppData\Local\Temp\ccwRXuxI.s 			page 7


 115:src/refund.c  ****     }
 116:src/refund.c  ****   }
 117:src/refund.c  ****   TransEnd((BOOLEAN)(RSP_DATA.b_response == TRANS_ACP));
 220              		.loc 1 117 0
 221 011c 95F8A808 		ldrb	r0, [r5, #2216]	@ zero_extendqisi2
 222 0120 B0FA80F0 		clz	r0, r0
 223 0124 4009     		lsrs	r0, r0, #5
 224 0126 FFF7FEFF 		bl	TransEnd
 225              	.LVL31:
 118:src/refund.c  ****   return TRUE;
 226              		.loc 1 118 0
 227 012a 0120     		movs	r0, #1
 228              	.L3:
 119:src/refund.c  **** }
 229              		.loc 1 119 0
 230 012c 03B0     		add	sp, sp, #12
 231              		.cfi_def_cfa_offset 20
 232              		@ sp needed
 233 012e F0BD     		pop	{r4, r5, r6, r7, pc}
 234              	.L21:
 235              		.align	2
 236              	.L20:
 237 0130 00000000 		.word	gGTS
 238 0134 0F070000 		.word	gGTS+1807
 239 0138 00000000 		.word	gGDS
 240              		.cfi_endproc
 241              	.LFE0:
 242              		.size	RefundTrans, .-RefundTrans
 243              		.text
 244              	.Letext0:
 245              		.file 2 "../LibA5T1000/common.h"
 246              		.file 3 "src/sysutil.h"
 247              		.file 4 "../LibA5T1000/emv2dll.h"
 248              		.file 5 "../LibA5T1000/emvcl2dll.h"
 249              		.file 6 "../LibA5T1000/ecrdll.h"
 250              		.file 7 "../LibA5T1000/midware.h"
 251              		.file 8 "src/constant.h"
 252              		.file 9 "../LibA5T1000/apm.h"
 253              		.file 10 "src/corevar.h"
 254              		.file 11 "src/tranutil.h"
 255              		.file 12 "src/record.h"
 256              		.file 13 "../LibA5T1000/system.h"
 257              		.file 14 "src/chkoptn.h"
 258              		.file 15 "src/reversal.h"
 259              		.file 16 "src/offline.h"
 260              		.file 17 "src/hostmsg.h"