ARM GAS  C:\Users\AHMEDH~1\AppData\Local\Temp\cckHnGgQ.s 			page 1


   1              		.syntax unified
   2              		.cpu cortex-a5
   3              		.fpu softvfp
   4              		.eabi_attribute 20, 1
   5              		.eabi_attribute 21, 1
   6              		.eabi_attribute 23, 3
   7              		.eabi_attribute 24, 1
   8              		.eabi_attribute 25, 1
   9              		.eabi_attribute 26, 1
  10              		.eabi_attribute 30, 4
  11              		.eabi_attribute 34, 0
  12              		.eabi_attribute 18, 4
  13              		.thumb
  14              		.file	"Reversal.c"
  15              		.text
  16              	.Ltext0:
  17              		.cfi_sections	.debug_frame
  18              		.section	.text.ReversalOK,"ax",%progbits
  19              		.align	1
  20              		.global	ReversalOK
  21              		.thumb
  22              		.thumb_func
  23              		.type	ReversalOK, %function
  24              	ReversalOK:
  25              	.LFB0:
  26              		.file 1 "src/Reversal.c"
   1:src/Reversal.c **** //-----------------------------------------------------------------------------
   2:src/Reversal.c **** //  File          : reversal.c
   3:src/Reversal.c **** //  Module        :
   4:src/Reversal.c **** //  Description   : Include routines send reversal transaction to host.
   5:src/Reversal.c **** //  Author        : Lewis
   6:src/Reversal.c **** //  Notes         :
   7:src/Reversal.c **** //
   8:src/Reversal.c **** // ============================================================================
   9:src/Reversal.c **** // | Naming conventions                                                       |
  10:src/Reversal.c **** // | ~~~~~~~~~~~~~~~~~~                                                       |
  11:src/Reversal.c **** // |        Struct define : Leading T                                         |
  12:src/Reversal.c **** // |         Struct/Array : Leading s                                         |
  13:src/Reversal.c **** // |             Constant : Leading K                                         |
  14:src/Reversal.c **** // |      Global Variable : Leading g  (variable use outside one C file)      |
  15:src/Reversal.c **** // |                                                                          |
  16:src/Reversal.c **** // |   BYTE( 8 Bits) size : Leading b                                         |
  17:src/Reversal.c **** // |   CHAR( 8 Bits) size : Leading c                                         |
  18:src/Reversal.c **** // |   WORD(16 Bits) size : Leading w                                         |
  19:src/Reversal.c **** // |  DWORD(32 Bits) size : Leading d                                         |
  20:src/Reversal.c **** // |    int(32 Bits) size : Leading i                                         |
  21:src/Reversal.c **** // | DDWORD(64 Bits) size : Leading dd                                        |
  22:src/Reversal.c **** // |              Pointer : Leading p                                         |
  23:src/Reversal.c **** // |                                                                          |
  24:src/Reversal.c **** // |    Function argument : Leading a                                         |
  25:src/Reversal.c **** // |       Local Variable : All lower case                                    |
  26:src/Reversal.c **** // |                                                                          |
  27:src/Reversal.c **** // | Examples:                                                                |
  28:src/Reversal.c **** // |                Array : Leading s, (sb = arrary of byte, etc)             |
  29:src/Reversal.c **** // |              Pointer : Leading p, (pb = pointer of byte, etc)            |
  30:src/Reversal.c **** // ============================================================================
  31:src/Reversal.c **** //
ARM GAS  C:\Users\AHMEDH~1\AppData\Local\Temp\cckHnGgQ.s 			page 2


  32:src/Reversal.c **** //  Date          Who         Action
  33:src/Reversal.c **** //  ------------  ----------- -------------------------------------------------
  34:src/Reversal.c **** //  29 Sept 2008  Lewis       Initial Version.
  35:src/Reversal.c **** //-----------------------------------------------------------------------------
  36:src/Reversal.c **** #include <string.h>
  37:src/Reversal.c **** #include "util.h"
  38:src/Reversal.c **** #include "sysutil.h"
  39:src/Reversal.c **** #include "constant.h"
  40:src/Reversal.c **** #include "corevar.h"
  41:src/Reversal.c **** #include "chkoptn.h"
  42:src/Reversal.c **** #include "tranutil.h"
  43:src/Reversal.c **** #include "hostmsg.h"
  44:src/Reversal.c **** #include "emvtrans.h"
  45:src/Reversal.c **** #include "record.h"
  46:src/Reversal.c **** #include "reversal.h"
  47:src/Reversal.c **** 
  48:src/Reversal.c **** //*****************************************************************************
  49:src/Reversal.c **** //  Function        : ReversalOK
  50:src/Reversal.c **** //  Description     : Send reversal transaction to host if available.
  51:src/Reversal.c **** //  Input           : N/A
  52:src/Reversal.c **** //  Return          : TRUE;     // sended;
  53:src/Reversal.c **** //                    FALSE;    // send error.
  54:src/Reversal.c **** //  Note            : N/A
  55:src/Reversal.c **** //  Globals Changed : N/A
  56:src/Reversal.c **** //*****************************************************************************
  57:src/Reversal.c **** BOOLEAN ReversalOK(void)
  58:src/Reversal.c **** {
  27              		.loc 1 58 0
  28              		.cfi_startproc
  29              		@ args = 0, pretend = 0, frame = 0
  30              		@ frame_needed = 0, uses_anonymous_args = 0
  31 0000 F7B5     		push	{r0, r1, r2, r4, r5, r6, r7, lr}
  32              		.cfi_def_cfa_offset 32
  33              		.cfi_offset 4, -20
  34              		.cfi_offset 5, -16
  35              		.cfi_offset 6, -12
  36              		.cfi_offset 7, -8
  37              		.cfi_offset 14, -4
  59:src/Reversal.c ****   DWORD host_idx;
  60:src/Reversal.c **** 
  61:src/Reversal.c ****   host_idx = INPUT.w_host_idx;
  38              		.loc 1 61 0
  39 0002 394C     		ldr	r4, .L11
  62:src/Reversal.c ****   if (APM_GetPending(host_idx) != REV_PENDING)
  40              		.loc 1 62 0
  41 0004 0023     		movs	r3, #0
  61:src/Reversal.c ****   if (APM_GetPending(host_idx) != REV_PENDING)
  42              		.loc 1 61 0
  43 0006 B4F87660 		ldrh	r6, [r4, #118]
  44              	.LVL0:
  45              		.loc 1 62 0
  46 000a 0093     		str	r3, [sp]
  47 000c 1020     		movs	r0, #16
  48 000e 1C21     		movs	r1, #28
  49 0010 3246     		mov	r2, r6
  50 0012 FFF7FEFF 		bl	lib_app_call
  51              	.LVL1:
ARM GAS  C:\Users\AHMEDH~1\AppData\Local\Temp\cckHnGgQ.s 			page 3


  52 0016 C5B2     		uxtb	r5, r0
  53 0018 012D     		cmp	r5, #1
  54 001a 5FD1     		bne	.L8
  63:src/Reversal.c ****     return TRUE;
  64:src/Reversal.c ****   APM_GetRevRec(host_idx, &RECORD_BUF, sizeof(RECORD_BUF));
  55              		.loc 1 64 0
  56 001c 334F     		ldr	r7, .L11+4
  57 001e 4FF40072 		mov	r2, #512
  58 0022 3B68     		ldr	r3, [r7]
  59 0024 2B21     		movs	r1, #43
  60 0026 0092     		str	r2, [sp]
  61 0028 03F5D963 		add	r3, r3, #1736
  62 002c 3246     		mov	r2, r6
  63 002e 1020     		movs	r0, #16
  64 0030 FFF7FEFF 		bl	lib_app_call
  65              	.LVL2:
  65:src/Reversal.c ****   memcpy(&TX_DATA.b_trans, &RECORD_BUF.b_trans, (DWORD) ((DWORD)&RECORD_BUF.w_crc - (DWORD)&RECORD_
  66              		.loc 1 65 0
  67 0034 3E68     		ldr	r6, [r7]
  68              	.LVL3:
  69 0036 04F54070 		add	r0, r4, #768
  70 003a 06F5D961 		add	r1, r6, #1736
  71 003e 4FF4FC72 		mov	r2, #504
  72 0042 FFF7FEFF 		bl	memcpy
  73              	.LVL4:
  66:src/Reversal.c **** 
  67:src/Reversal.c ****   if (TX_DATA.b_trans == VOID) {
  74              		.loc 1 67 0
  75 0046 94F80003 		ldrb	r0, [r4, #768]	@ zero_extendqisi2
  76 004a 96F8CD16 		ldrb	r1, [r6, #1741]	@ zero_extendqisi2
  77 004e 0A28     		cmp	r0, #10
  78 0050 10D1     		bne	.L3
  68:src/Reversal.c ****     PackProcCode(RECORD_BUF.b_trans, RECORD_BUF.b_acc_ind);
  79              		.loc 1 68 0
  80 0052 96F8C806 		ldrb	r0, [r6, #1736]	@ zero_extendqisi2
  81 0056 FFF7FEFF 		bl	PackProcCode
  82              	.LVL5:
  69:src/Reversal.c ****     TX_DATA.sb_proc_code[0] |= 0x02;
  83              		.loc 1 69 0
  84 005a 94F80035 		ldrb	r3, [r4, #1280]	@ zero_extendqisi2
  70:src/Reversal.c ****     TX_DATA.dd_amount = 0;
  85              		.loc 1 70 0
  86 005e 0020     		movs	r0, #0
  69:src/Reversal.c ****     TX_DATA.sb_proc_code[0] |= 0x02;
  87              		.loc 1 69 0
  88 0060 43F00203 		orr	r3, r3, #2
  89              		.loc 1 70 0
  90 0064 0021     		movs	r1, #0
  69:src/Reversal.c ****     TX_DATA.sb_proc_code[0] |= 0x02;
  91              		.loc 1 69 0
  92 0066 84F80035 		strb	r3, [r4, #1280]
  93              		.loc 1 70 0
  94 006a 04F54673 		add	r3, r4, #792
  95 006e C3E90001 		strd	r0, [r3]
  96 0072 01E0     		b	.L4
  97              	.L3:
  71:src/Reversal.c ****   }
ARM GAS  C:\Users\AHMEDH~1\AppData\Local\Temp\cckHnGgQ.s 			page 4


  72:src/Reversal.c ****   else
  73:src/Reversal.c ****     PackProcCode(TX_DATA.b_trans, RECORD_BUF.b_acc_ind);
  98              		.loc 1 73 0
  99 0074 FFF7FEFF 		bl	PackProcCode
 100              	.LVL6:
 101              	.L4:
  74:src/Reversal.c **** 
  75:src/Reversal.c ****   TX_DATA.b_org_trans = TX_DATA.b_trans;
 102              		.loc 1 75 0
 103 0078 94F80033 		ldrb	r3, [r4, #768]	@ zero_extendqisi2
  76:src/Reversal.c ****   TX_DATA.b_trans = EDC_REV;
  77:src/Reversal.c **** 
  78:src/Reversal.c ****   PackHostMsg();
  79:src/Reversal.c ****   ClearResponse();
  80:src/Reversal.c ****   if ((RSP_DATA.w_rspcode=APM_SendRcvd(&TX_BUF, &RX_BUF))==COMM_OK) {
 104              		.loc 1 80 0
 105 007c 0026     		movs	r6, #0
  75:src/Reversal.c ****   TX_DATA.b_trans = EDC_REV;
 106              		.loc 1 75 0
 107 007e 84F80335 		strb	r3, [r4, #1283]
  76:src/Reversal.c ****   TX_DATA.b_trans = EDC_REV;
 108              		.loc 1 76 0
 109 0082 0E23     		movs	r3, #14
 110 0084 84F80033 		strb	r3, [r4, #768]
  78:src/Reversal.c ****   ClearResponse();
 111              		.loc 1 78 0
 112 0088 FFF7FEFF 		bl	PackHostMsg
 113              	.LVL7:
  79:src/Reversal.c ****   if ((RSP_DATA.w_rspcode=APM_SendRcvd(&TX_BUF, &RX_BUF))==COMM_OK) {
 114              		.loc 1 79 0
 115 008c FFF7FEFF 		bl	ClearResponse
 116              	.LVL8:
 117              		.loc 1 80 0
 118 0090 3B68     		ldr	r3, [r7]
 119 0092 1020     		movs	r0, #16
 120 0094 03F5CC52 		add	r2, r3, #6528
 121 0098 03F51653 		add	r3, r3, #9600
 122 009c 2033     		adds	r3, r3, #32
 123 009e 0096     		str	r6, [sp]
 124 00a0 0B21     		movs	r1, #11
 125 00a2 1C32     		adds	r2, r2, #28
 126 00a4 FFF7FEFF 		bl	lib_app_call
 127              	.LVL9:
 128 00a8 43F23003 		movw	r3, #12336
 129 00ac 80B2     		uxth	r0, r0
 130 00ae 9842     		cmp	r0, r3
 131 00b0 A4F86E05 		strh	r0, [r4, #1390]	@ movhi
 132 00b4 09D1     		bne	.L6
  81:src/Reversal.c ****     RSP_DATA.b_response = CheckHostRsp();
 133              		.loc 1 81 0
 134 00b6 FFF7FEFF 		bl	CheckHostRsp
 135              	.LVL10:
 136 00ba 0B4B     		ldr	r3, .L11
  82:src/Reversal.c ****     if (RSP_DATA.b_response <= TRANS_REJ)
 137              		.loc 1 82 0
 138 00bc 0128     		cmp	r0, #1
  81:src/Reversal.c ****     RSP_DATA.b_response = CheckHostRsp();
ARM GAS  C:\Users\AHMEDH~1\AppData\Local\Temp\cckHnGgQ.s 			page 5


 139              		.loc 1 81 0
 140 00be 83F80007 		strb	r0, [r3, #1792]
 141              		.loc 1 82 0
 142 00c2 02D8     		bhi	.L6
  83:src/Reversal.c ****       UpdateHostStatus(NO_PENDING);
 143              		.loc 1 83 0
 144 00c4 3046     		mov	r0, r6
 145 00c6 FFF7FEFF 		bl	UpdateHostStatus
 146              	.LVL11:
 147              	.L6:
  84:src/Reversal.c ****   }
  85:src/Reversal.c ****   if (RSP_DATA.b_response <= TRANS_REJ) {
 148              		.loc 1 85 0
 149 00ca 94F80037 		ldrb	r3, [r4, #1792]	@ zero_extendqisi2
 150 00ce 012B     		cmp	r3, #1
 151 00d0 06D8     		bhi	.L9
  86:src/Reversal.c ****     gAppDat.reversal_count++;
 152              		.loc 1 86 0
 153 00d2 074A     		ldr	r2, .L11+8
 154 00d4 9388     		ldrh	r3, [r2, #4]
 155 00d6 0133     		adds	r3, r3, #1
 156 00d8 9380     		strh	r3, [r2, #4]	@ movhi
  87:src/Reversal.c ****     return TRUE;
 157              		.loc 1 87 0
 158 00da 02E0     		b	.L2
 159              	.LVL12:
 160              	.L8:
  63:src/Reversal.c ****   APM_GetRevRec(host_idx, &RECORD_BUF, sizeof(RECORD_BUF));
 161              		.loc 1 63 0
 162 00dc 0125     		movs	r5, #1
 163 00de 00E0     		b	.L2
 164              	.LVL13:
 165              	.L9:
  88:src/Reversal.c ****   }
  89:src/Reversal.c ****   return FALSE;
 166              		.loc 1 89 0
 167 00e0 0025     		movs	r5, #0
 168              	.L2:
  90:src/Reversal.c **** }
 169              		.loc 1 90 0
 170 00e2 2846     		mov	r0, r5
 171 00e4 03B0     		add	sp, sp, #12
 172              		.cfi_def_cfa_offset 20
 173              		@ sp needed
 174 00e6 F0BD     		pop	{r4, r5, r6, r7, pc}
 175              	.L12:
 176              		.align	2
 177              	.L11:
 178 00e8 00000000 		.word	gGTS
 179 00ec 00000000 		.word	gGDS
 180 00f0 00000000 		.word	gAppDat
 181              		.cfi_endproc
 182              	.LFE0:
 183              		.size	ReversalOK, .-ReversalOK
 184              		.text
 185              	.Letext0:
 186              		.file 2 "../LibA5T1000/common.h"
ARM GAS  C:\Users\AHMEDH~1\AppData\Local\Temp\cckHnGgQ.s 			page 6


 187              		.file 3 "src/sysutil.h"
 188              		.file 4 "../LibA5T1000/emv2dll.h"
 189              		.file 5 "../LibA5T1000/emvcl2dll.h"
 190              		.file 6 "../LibA5T1000/ecrdll.h"
 191              		.file 7 "../LibA5T1000/midware.h"
 192              		.file 8 "src/constant.h"
 193              		.file 9 "../LibA5T1000/apm.h"
 194              		.file 10 "src/corevar.h"
 195              		.file 11 "src/tranutil.h"
 196              		.file 12 "src/hostmsg.h"
 197              		.file 13 "../LibA5T1000/system.h"
 198              		.file 14 "src/record.h"