ARM GAS  C:\Users\ahmedhamed\AppData\Local\Temp\ccPu5fZo.s 			page 1


   1              		.syntax unified
   2              		.cpu cortex-a5
   3              		.fpu softvfp
   4              		.eabi_attribute 20, 1
   5              		.eabi_attribute 21, 1
   6              		.eabi_attribute 23, 3
   7              		.eabi_attribute 24, 1
   8              		.eabi_attribute 25, 1
   9              		.eabi_attribute 26, 1
  10              		.eabi_attribute 30, 4
  11              		.eabi_attribute 34, 0
  12              		.eabi_attribute 18, 4
  13              		.thumb
  14              		.file	"SaleOffl.c"
  15              		.text
  16              	.Ltext0:
  17              		.cfi_sections	.debug_frame
  18              		.section	.text.SaleOfflTrans,"ax",%progbits
  19              		.align	1
  20              		.global	SaleOfflTrans
  21              		.thumb
  22              		.thumb_func
  23              		.type	SaleOfflTrans, %function
  24              	SaleOfflTrans:
  25              	.LFB0:
  26              		.file 1 "src/SaleOffl.c"
   1:src/SaleOffl.c **** //-----------------------------------------------------------------------------
   2:src/SaleOffl.c **** //  File          : saleoffl.c
   3:src/SaleOffl.c **** //  Module        :
   4:src/SaleOffl.c **** //  Description   : Include Offline Sale transaction.
   5:src/SaleOffl.c **** //  Author        : Lewis
   6:src/SaleOffl.c **** //  Notes         : N/A
   7:src/SaleOffl.c **** //
   8:src/SaleOffl.c **** // ============================================================================
   9:src/SaleOffl.c **** // | Naming conventions                                                       |
  10:src/SaleOffl.c **** // | ~~~~~~~~~~~~~~~~~~                                                       |
  11:src/SaleOffl.c **** // |        Struct define : Leading T                                         |
  12:src/SaleOffl.c **** // |         Struct/Array : Leading s                                         |
  13:src/SaleOffl.c **** // |             Constant : Leading K                                         |
  14:src/SaleOffl.c **** // |      Global Variable : Leading g  (variable use outside one C file)      |
  15:src/SaleOffl.c **** // |                                                                          |
  16:src/SaleOffl.c **** // |   BYTE( 8 Bits) size : Leading b                                         |
  17:src/SaleOffl.c **** // |   CHAR( 8 Bits) size : Leading c                                         |
  18:src/SaleOffl.c **** // |   WORD(16 Bits) size : Leading w                                         |
  19:src/SaleOffl.c **** // |  DWORD(32 Bits) size : Leading d                                         |
  20:src/SaleOffl.c **** // |    int(32 Bits) size : Leading i                                         |
  21:src/SaleOffl.c **** // | DDWORD(64 Bits) size : Leading dd                                        |
  22:src/SaleOffl.c **** // |              Pointer : Leading p                                         |
  23:src/SaleOffl.c **** // |                                                                          |
  24:src/SaleOffl.c **** // |    Function argument : Leading a                                         |
  25:src/SaleOffl.c **** // |       Local Variable : All lower case                                    |
  26:src/SaleOffl.c **** // |                                                                          |
  27:src/SaleOffl.c **** // | Examples:                                                                |
  28:src/SaleOffl.c **** // |                Array : Leading s, (sb = arrary of byte, etc)             |
  29:src/SaleOffl.c **** // |              Pointer : Leading p, (pb = pointer of byte, etc)            |
  30:src/SaleOffl.c **** // ============================================================================
  31:src/SaleOffl.c **** //
ARM GAS  C:\Users\ahmedhamed\AppData\Local\Temp\ccPu5fZo.s 			page 2


  32:src/SaleOffl.c **** //  Date          Who         Action
  33:src/SaleOffl.c **** //  ------------  ----------- -------------------------------------------------
  34:src/SaleOffl.c **** //  10 May  2006  Lewis       Initial Version for new CONTROL
  35:src/SaleOffl.c **** //-----------------------------------------------------------------------------
  36:src/SaleOffl.c **** #include <string.h>
  37:src/SaleOffl.c **** #include "util.h"
  38:src/SaleOffl.c **** #include "sysutil.h"
  39:src/SaleOffl.c **** #include "message.h"
  40:src/SaleOffl.c **** #include "constant.h"
  41:src/SaleOffl.c **** #include "corevar.h"
  42:src/SaleOffl.c **** #include "chkoptn.h"
  43:src/SaleOffl.c **** #include "input.h"
  44:src/SaleOffl.c **** #include "print.h"
  45:src/SaleOffl.c **** #include "tranutil.h"
  46:src/SaleOffl.c **** #include "hostmsg.h"
  47:src/SaleOffl.c **** #include "record.h"
  48:src/SaleOffl.c **** #include "reversal.h"
  49:src/SaleOffl.c **** #include "offline.h"
  50:src/SaleOffl.c **** 
  51:src/SaleOffl.c **** 
  52:src/SaleOffl.c **** //*****************************************************************************
  53:src/SaleOffl.c **** //  Function        : SaleOfflTrans
  54:src/SaleOffl.c **** //  Description     : Sale Offline transaction.
  55:src/SaleOffl.c **** //  Input           : aInputMode;       // Transaction start mode
  56:src/SaleOffl.c **** //  Return          : N/A
  57:src/SaleOffl.c **** //  Note            : N/A
  58:src/SaleOffl.c **** //  Globals Changed : N/A
  59:src/SaleOffl.c **** //*****************************************************************************
  60:src/SaleOffl.c **** DWORD SaleOfflTrans(DWORD aInputMode)
  61:src/SaleOffl.c **** {
  27              		.loc 1 61 0
  28              		.cfi_startproc
  29              		@ args = 0, pretend = 0, frame = 0
  30              		@ frame_needed = 0, uses_anonymous_args = 0
  31              	.LVL0:
  32 0000 38B5     		push	{r3, r4, r5, lr}
  33              		.cfi_def_cfa_offset 16
  34              		.cfi_offset 3, -16
  35              		.cfi_offset 4, -12
  36              		.cfi_offset 5, -8
  37              		.cfi_offset 14, -4
  62:src/SaleOffl.c ****   INPUT.b_trans = SALE_OFFLINE;
  38              		.loc 1 62 0
  39 0002 0723     		movs	r3, #7
  40 0004 174C     		ldr	r4, .L9
  61:src/SaleOffl.c ****   INPUT.b_trans = SALE_OFFLINE;
  41              		.loc 1 61 0
  42 0006 0546     		mov	r5, r0
  63:src/SaleOffl.c **** 
  64:src/SaleOffl.c ****   DispHeader(NULL);
  43              		.loc 1 64 0
  44 0008 0020     		movs	r0, #0
  45              	.LVL1:
  62:src/SaleOffl.c **** 
  46              		.loc 1 62 0
  47 000a 2370     		strb	r3, [r4]
  48              		.loc 1 64 0
ARM GAS  C:\Users\ahmedhamed\AppData\Local\Temp\ccPu5fZo.s 			page 3


  49 000c FFF7FEFF 		bl	DispHeader
  50              	.LVL2:
  65:src/SaleOffl.c ****   //PowerFailure();
  66:src/SaleOffl.c ****   IncTraceNo();
  51              		.loc 1 66 0
  52 0010 FFF7FEFF 		bl	IncTraceNo
  53              	.LVL3:
  67:src/SaleOffl.c ****   PackHeader();
  54              		.loc 1 67 0
  55 0014 FFF7FEFF 		bl	PackHeader
  56              	.LVL4:
  68:src/SaleOffl.c **** 
  69:src/SaleOffl.c ****   if (!TransAllowed(aInputMode)) {
  57              		.loc 1 69 0
  58 0018 2846     		mov	r0, r5
  59 001a FFF7FEFF 		bl	TransAllowed
  60              	.LVL5:
  61 001e 20B9     		cbnz	r0, .L2
  62              	.L4:
  70:src/SaleOffl.c ****     RefreshDispAfter(0);
  63              		.loc 1 70 0
  64 0020 0020     		movs	r0, #0
  65 0022 FFF7FEFF 		bl	RefreshDispAfter
  66              	.LVL6:
  71:src/SaleOffl.c ****     return FALSE;
  67              		.loc 1 71 0
  68 0026 0020     		movs	r0, #0
  69 0028 38BD     		pop	{r3, r4, r5, pc}
  70              	.LVL7:
  71              	.L2:
  72:src/SaleOffl.c ****   }
  73:src/SaleOffl.c **** 
  74:src/SaleOffl.c ****   if (!GetAuthCode()) {
  72              		.loc 1 74 0
  73 002a FFF7FEFF 		bl	GetAuthCode
  74              	.LVL8:
  75 002e 0028     		cmp	r0, #0
  76 0030 F6D0     		beq	.L4
  75:src/SaleOffl.c ****     RefreshDispAfter(0);
  76:src/SaleOffl.c ****     return FALSE;
  77:src/SaleOffl.c ****   }
  78:src/SaleOffl.c **** 
  79:src/SaleOffl.c ****   DispHeader(STIS_ISS_TBL(0).sb_card_name);
  77              		.loc 1 79 0
  78 0032 0D4B     		ldr	r3, .L9+4
  79 0034 1868     		ldr	r0, [r3]
  80 0036 00F2A140 		addw	r0, r0, #1185
  81 003a FFF7FEFF 		bl	DispHeader
  82              	.LVL9:
  80:src/SaleOffl.c ****   RSP_DATA.b_response = TRANS_ACP;
  83              		.loc 1 80 0
  84 003e 0023     		movs	r3, #0
  85 0040 84F80037 		strb	r3, [r4, #1792]
  81:src/SaleOffl.c ****   INPUT.b_trans_status = OFFLINE;
  86              		.loc 1 81 0
  87 0044 8023     		movs	r3, #128
  88 0046 A370     		strb	r3, [r4, #2]
ARM GAS  C:\Users\ahmedhamed\AppData\Local\Temp\ccPu5fZo.s 			page 4


  82:src/SaleOffl.c ****   IncTraceNoEND();
  89              		.loc 1 82 0
  90 0048 FFF7FEFF 		bl	IncTraceNoEND
  91              	.LVL10:
  83:src/SaleOffl.c ****   PackDTGAA();
  92              		.loc 1 83 0
  93 004c FFF7FEFF 		bl	PackDTGAA
  94              	.LVL11:
  84:src/SaleOffl.c ****   SaveOfflRecord();   //17-12-12 JC ++
  95              		.loc 1 84 0
  96 0050 FFF7FEFF 		bl	SaveOfflRecord
  97              	.LVL12:
  85:src/SaleOffl.c ****   PackInputP();
  98              		.loc 1 85 0
  99 0054 FFF7FEFF 		bl	PackInputP
 100              	.LVL13:
  86:src/SaleOffl.c ****   TransEnd(TRUE);
 101              		.loc 1 86 0
 102 0058 0120     		movs	r0, #1
 103 005a FFF7FEFF 		bl	TransEnd
 104              	.LVL14:
  87:src/SaleOffl.c ****   return TRUE;
 105              		.loc 1 87 0
 106 005e 0120     		movs	r0, #1
  88:src/SaleOffl.c **** }
 107              		.loc 1 88 0
 108 0060 38BD     		pop	{r3, r4, r5, pc}
 109              	.LVL15:
 110              	.L10:
 111 0062 00BF     		.align	2
 112              	.L9:
 113 0064 00000000 		.word	gGTS
 114 0068 00000000 		.word	gGDS
 115              		.cfi_endproc
 116              	.LFE0:
 117              		.size	SaleOfflTrans, .-SaleOfflTrans
 118              		.text
 119              	.Letext0:
 120              		.file 2 "../LibA5T1000/common.h"
 121              		.file 3 "src/sysutil.h"
 122              		.file 4 "../LibA5T1000/emv2dll.h"
 123              		.file 5 "../LibA5T1000/emvcl2dll.h"
 124              		.file 6 "../LibA5T1000/ecrdll.h"
 125              		.file 7 "../LibA5T1000/midware.h"
 126              		.file 8 "../LibA5T1000/apm.h"
 127              		.file 9 "src/corevar.h"
 128              		.file 10 "src/tranutil.h"
 129              		.file 11 "src/record.h"
 130              		.file 12 "src/constant.h"
 131              		.file 13 "src/input.h"
 132              		.section	.debug_info,"",%progbits
 133              	.Ldebug_info0:
 134 0000 D2180000 		.4byte	0x18d2
 135 0004 0400     		.2byte	0x4
 136 0006 00000000 		.4byte	.Ldebug_abbrev0
 137 000a 04       		.byte	0x4
 138 000b 01       		.uleb128 0x1
ARM GAS  C:\Users\ahmedhamed\AppData\Local\Temp\ccPu5fZo.s 			page 5


 139 000c 2D010000 		.4byte	.LASF312
 140 0010 01       		.byte	0x1
 141 0011 0A070000 		.4byte	.LASF313
 142 0015 390E0000 		.4byte	.LASF314
 143 0019 00000000 		.4byte	.Ldebug_ranges0+0
 144 001d 00000000 		.4byte	0
 145 0021 00000000 		.4byte	.Ldebug_line0
 146 0025 02       		.uleb128 0x2
 147 0026 04       		.byte	0x4
 148 0027 05       		.byte	0x5
 149 0028 696E7400 		.ascii	"int\000"
 150 002c 03       		.uleb128 0x3
 151 002d 04       		.byte	0x4
 152 002e 07       		.byte	0x7
 153 002f 0B0C0000 		.4byte	.LASF0
 154 0033 03       		.uleb128 0x3
 155 0034 01       		.byte	0x1
 156 0035 06       		.byte	0x6
 157 0036 DB0D0000 		.4byte	.LASF1
 158 003a 03       		.uleb128 0x3
 159 003b 01       		.byte	0x1
 160 003c 08       		.byte	0x8
 161 003d 0E0D0000 		.4byte	.LASF2
 162 0041 03       		.uleb128 0x3
 163 0042 02       		.byte	0x2
 164 0043 05       		.byte	0x5
 165 0044 910A0000 		.4byte	.LASF3
 166 0048 03       		.uleb128 0x3
 167 0049 02       		.byte	0x2
 168 004a 07       		.byte	0x7
 169 004b 020E0000 		.4byte	.LASF4
 170 004f 03       		.uleb128 0x3
 171 0050 04       		.byte	0x4
 172 0051 05       		.byte	0x5
 173 0052 CA0A0000 		.4byte	.LASF5
 174 0056 03       		.uleb128 0x3
 175 0057 04       		.byte	0x4
 176 0058 07       		.byte	0x7
 177 0059 810C0000 		.4byte	.LASF6
 178 005d 03       		.uleb128 0x3
 179 005e 08       		.byte	0x8
 180 005f 05       		.byte	0x5
 181 0060 FF070000 		.4byte	.LASF7
 182 0064 03       		.uleb128 0x3
 183 0065 08       		.byte	0x8
 184 0066 07       		.byte	0x7
 185 0067 31040000 		.4byte	.LASF8
 186 006b 03       		.uleb128 0x3
 187 006c 04       		.byte	0x4
 188 006d 07       		.byte	0x7
 189 006e 6D0C0000 		.4byte	.LASF9
 190 0072 03       		.uleb128 0x3
 191 0073 01       		.byte	0x1
 192 0074 06       		.byte	0x6
 193 0075 73060000 		.4byte	.LASF10
 194 0079 04       		.uleb128 0x4
 195 007a 81020000 		.4byte	.LASF11
ARM GAS  C:\Users\ahmedhamed\AppData\Local\Temp\ccPu5fZo.s 			page 6


 196 007e 02       		.byte	0x2
 197 007f 0D       		.byte	0xd
 198 0080 3A000000 		.4byte	0x3a
 199 0084 04       		.uleb128 0x4
 200 0085 B9000000 		.4byte	.LASF12
 201 0089 02       		.byte	0x2
 202 008a 0E       		.byte	0xe
 203 008b 3A000000 		.4byte	0x3a
 204 008f 04       		.uleb128 0x4
 205 0090 BC080000 		.4byte	.LASF13
 206 0094 02       		.byte	0x2
 207 0095 0F       		.byte	0xf
 208 0096 48000000 		.4byte	0x48
 209 009a 04       		.uleb128 0x4
 210 009b 48040000 		.4byte	.LASF14
 211 009f 02       		.byte	0x2
 212 00a0 10       		.byte	0x10
 213 00a1 2C000000 		.4byte	0x2c
 214 00a5 04       		.uleb128 0x4
 215 00a6 2A0F0000 		.4byte	.LASF15
 216 00aa 02       		.byte	0x2
 217 00ab 11       		.byte	0x11
 218 00ac 64000000 		.4byte	0x64
 219 00b0 05       		.uleb128 0x5
 220 00b1 84000000 		.4byte	0x84
 221 00b5 C0000000 		.4byte	0xc0
 222 00b9 06       		.uleb128 0x6
 223 00ba 6B000000 		.4byte	0x6b
 224 00be 01       		.byte	0x1
 225 00bf 00       		.byte	0
 226 00c0 07       		.uleb128 0x7
 227 00c1 04       		.byte	0x4
 228 00c2 84000000 		.4byte	0x84
 229 00c6 05       		.uleb128 0x5
 230 00c7 84000000 		.4byte	0x84
 231 00cb D6000000 		.4byte	0xd6
 232 00cf 06       		.uleb128 0x6
 233 00d0 6B000000 		.4byte	0x6b
 234 00d4 03       		.byte	0x3
 235 00d5 00       		.byte	0
 236 00d6 08       		.uleb128 0x8
 237 00d7 230C0000 		.4byte	.LASF60
 238 00db 08       		.byte	0x8
 239 00dc 03       		.byte	0x3
 240 00dd 3A       		.byte	0x3a
 241 00de 37010000 		.4byte	0x137
 242 00e2 09       		.uleb128 0x9
 243 00e3 2D090000 		.4byte	.LASF16
 244 00e7 03       		.byte	0x3
 245 00e8 3B       		.byte	0x3b
 246 00e9 84000000 		.4byte	0x84
 247 00ed 00       		.byte	0
 248 00ee 09       		.uleb128 0x9
 249 00ef 87000000 		.4byte	.LASF17
 250 00f3 03       		.byte	0x3
 251 00f4 3C       		.byte	0x3c
 252 00f5 84000000 		.4byte	0x84
ARM GAS  C:\Users\ahmedhamed\AppData\Local\Temp\ccPu5fZo.s 			page 7


 253 00f9 01       		.byte	0x1
 254 00fa 09       		.uleb128 0x9
 255 00fb 310F0000 		.4byte	.LASF18
 256 00ff 03       		.byte	0x3
 257 0100 3D       		.byte	0x3d
 258 0101 84000000 		.4byte	0x84
 259 0105 02       		.byte	0x2
 260 0106 09       		.uleb128 0x9
 261 0107 050C0000 		.4byte	.LASF19
 262 010b 03       		.byte	0x3
 263 010c 3E       		.byte	0x3e
 264 010d 84000000 		.4byte	0x84
 265 0111 03       		.byte	0x3
 266 0112 09       		.uleb128 0x9
 267 0113 20080000 		.4byte	.LASF20
 268 0117 03       		.byte	0x3
 269 0118 3F       		.byte	0x3f
 270 0119 84000000 		.4byte	0x84
 271 011d 04       		.byte	0x4
 272 011e 09       		.uleb128 0x9
 273 011f 5F000000 		.4byte	.LASF21
 274 0123 03       		.byte	0x3
 275 0124 40       		.byte	0x40
 276 0125 84000000 		.4byte	0x84
 277 0129 05       		.byte	0x5
 278 012a 09       		.uleb128 0x9
 279 012b 150E0000 		.4byte	.LASF22
 280 012f 03       		.byte	0x3
 281 0130 41       		.byte	0x41
 282 0131 84000000 		.4byte	0x84
 283 0135 06       		.byte	0x6
 284 0136 00       		.byte	0
 285 0137 05       		.uleb128 0x5
 286 0138 84000000 		.4byte	0x84
 287 013c 47010000 		.4byte	0x147
 288 0140 06       		.uleb128 0x6
 289 0141 6B000000 		.4byte	0x6b
 290 0145 14       		.byte	0x14
 291 0146 00       		.byte	0
 292 0147 0A       		.uleb128 0xa
 293 0148 01       		.byte	0x1
 294 0149 0C       		.byte	0xc
 295 014a 33       		.byte	0x33
 296 014b F9010000 		.4byte	0x1f9
 297 014f 0B       		.uleb128 0xb
 298 0150 760C0000 		.4byte	.LASF23
 299 0154 00       		.sleb128 0
 300 0155 0B       		.uleb128 0xb
 301 0156 0B020000 		.4byte	.LASF24
 302 015a 01       		.sleb128 1
 303 015b 0B       		.uleb128 0xb
 304 015c 180C0000 		.4byte	.LASF25
 305 0160 02       		.sleb128 2
 306 0161 0B       		.uleb128 0xb
 307 0162 340D0000 		.4byte	.LASF26
 308 0166 03       		.sleb128 3
 309 0167 0B       		.uleb128 0xb
ARM GAS  C:\Users\ahmedhamed\AppData\Local\Temp\ccPu5fZo.s 			page 8


 310 0168 DE080000 		.4byte	.LASF27
 311 016c 04       		.sleb128 4
 312 016d 0B       		.uleb128 0xb
 313 016e 1C0D0000 		.4byte	.LASF28
 314 0172 05       		.sleb128 5
 315 0173 0B       		.uleb128 0xb
 316 0174 D6050000 		.4byte	.LASF29
 317 0178 06       		.sleb128 6
 318 0179 0B       		.uleb128 0xb
 319 017a 22070000 		.4byte	.LASF30
 320 017e 07       		.sleb128 7
 321 017f 0B       		.uleb128 0xb
 322 0180 690A0000 		.4byte	.LASF31
 323 0184 08       		.sleb128 8
 324 0185 0B       		.uleb128 0xb
 325 0186 6B040000 		.4byte	.LASF32
 326 018a 09       		.sleb128 9
 327 018b 0B       		.uleb128 0xb
 328 018c 0C060000 		.4byte	.LASF33
 329 0190 0A       		.sleb128 10
 330 0191 0B       		.uleb128 0xb
 331 0192 89020000 		.4byte	.LASF34
 332 0196 0B       		.sleb128 11
 333 0197 0B       		.uleb128 0xb
 334 0198 F6080000 		.4byte	.LASF35
 335 019c 0C       		.sleb128 12
 336 019d 0B       		.uleb128 0xb
 337 019e EA000000 		.4byte	.LASF36
 338 01a2 0D       		.sleb128 13
 339 01a3 0B       		.uleb128 0xb
 340 01a4 930C0000 		.4byte	.LASF37
 341 01a8 0E       		.sleb128 14
 342 01a9 0B       		.uleb128 0xb
 343 01aa 10010000 		.4byte	.LASF38
 344 01ae 0F       		.sleb128 15
 345 01af 0B       		.uleb128 0xb
 346 01b0 76090000 		.4byte	.LASF39
 347 01b4 10       		.sleb128 16
 348 01b5 0B       		.uleb128 0xb
 349 01b6 54020000 		.4byte	.LASF40
 350 01ba 11       		.sleb128 17
 351 01bb 0B       		.uleb128 0xb
 352 01bc 130B0000 		.4byte	.LASF41
 353 01c0 12       		.sleb128 18
 354 01c1 0B       		.uleb128 0xb
 355 01c2 BC050000 		.4byte	.LASF42
 356 01c6 13       		.sleb128 19
 357 01c7 0B       		.uleb128 0xb
 358 01c8 E80C0000 		.4byte	.LASF43
 359 01cc 14       		.sleb128 20
 360 01cd 0B       		.uleb128 0xb
 361 01ce D4030000 		.4byte	.LASF44
 362 01d2 15       		.sleb128 21
 363 01d3 0B       		.uleb128 0xb
 364 01d4 EF060000 		.4byte	.LASF45
 365 01d8 16       		.sleb128 22
 366 01d9 0B       		.uleb128 0xb
ARM GAS  C:\Users\ahmedhamed\AppData\Local\Temp\ccPu5fZo.s 			page 9


 367 01da C6040000 		.4byte	.LASF46
 368 01de 17       		.sleb128 23
 369 01df 0B       		.uleb128 0xb
 370 01e0 BC0C0000 		.4byte	.LASF47
 371 01e4 18       		.sleb128 24
 372 01e5 0B       		.uleb128 0xb
 373 01e6 82060000 		.4byte	.LASF48
 374 01ea 19       		.sleb128 25
 375 01eb 0B       		.uleb128 0xb
 376 01ec 740D0000 		.4byte	.LASF49
 377 01f0 1A       		.sleb128 26
 378 01f1 0B       		.uleb128 0xb
 379 01f2 6C0F0000 		.4byte	.LASF50
 380 01f6 FF01     		.sleb128 255
 381 01f8 00       		.byte	0
 382 01f9 05       		.uleb128 0x5
 383 01fa 84000000 		.4byte	0x84
 384 01fe 09020000 		.4byte	0x209
 385 0202 06       		.uleb128 0x6
 386 0203 6B000000 		.4byte	0x6b
 387 0207 0F       		.byte	0xf
 388 0208 00       		.byte	0
 389 0209 0C       		.uleb128 0xc
 390 020a 08       		.byte	0x8
 391 020b 04       		.byte	0x4
 392 020c 58       		.byte	0x58
 393 020d 2A020000 		.4byte	0x22a
 394 0211 09       		.uleb128 0x9
 395 0212 7A0F0000 		.4byte	.LASF51
 396 0216 04       		.byte	0x4
 397 0217 59       		.byte	0x59
 398 0218 8F000000 		.4byte	0x8f
 399 021c 00       		.byte	0
 400 021d 09       		.uleb128 0x9
 401 021e 5E0F0000 		.4byte	.LASF52
 402 0222 04       		.byte	0x4
 403 0223 5A       		.byte	0x5a
 404 0224 C0000000 		.4byte	0xc0
 405 0228 04       		.byte	0x4
 406 0229 00       		.byte	0
 407 022a 04       		.uleb128 0x4
 408 022b 40090000 		.4byte	.LASF53
 409 022f 04       		.byte	0x4
 410 0230 5B       		.byte	0x5b
 411 0231 09020000 		.4byte	0x209
 412 0235 0D       		.uleb128 0xd
 413 0236 544C00   		.ascii	"TL\000"
 414 0239 04       		.byte	0x4
 415 023a AD       		.byte	0xad
 416 023b 3A000000 		.4byte	0x3a
 417 023f 0C       		.uleb128 0xc
 418 0240 08       		.byte	0x8
 419 0241 04       		.byte	0x4
 420 0242 B0       		.byte	0xb0
 421 0243 6C020000 		.4byte	0x26c
 422 0247 09       		.uleb128 0x9
 423 0248 AA0D0000 		.4byte	.LASF54
ARM GAS  C:\Users\ahmedhamed\AppData\Local\Temp\ccPu5fZo.s 			page 10


 424 024c 04       		.byte	0x4
 425 024d B1       		.byte	0xb1
 426 024e 8F000000 		.4byte	0x8f
 427 0252 00       		.byte	0
 428 0253 09       		.uleb128 0x9
 429 0254 D30A0000 		.4byte	.LASF55
 430 0258 04       		.byte	0x4
 431 0259 B2       		.byte	0xb2
 432 025a 35020000 		.4byte	0x235
 433 025e 02       		.byte	0x2
 434 025f 09       		.uleb128 0x9
 435 0260 390F0000 		.4byte	.LASF56
 436 0264 04       		.byte	0x4
 437 0265 B3       		.byte	0xb3
 438 0266 C0000000 		.4byte	0xc0
 439 026a 04       		.byte	0x4
 440 026b 00       		.byte	0
 441 026c 04       		.uleb128 0x4
 442 026d 32000000 		.4byte	.LASF57
 443 0271 04       		.byte	0x4
 444 0272 B4       		.byte	0xb4
 445 0273 3F020000 		.4byte	0x23f
 446 0277 05       		.uleb128 0x5
 447 0278 84000000 		.4byte	0x84
 448 027c 87020000 		.4byte	0x287
 449 0280 06       		.uleb128 0x6
 450 0281 6B000000 		.4byte	0x6b
 451 0285 04       		.byte	0x4
 452 0286 00       		.byte	0
 453 0287 05       		.uleb128 0x5
 454 0288 84000000 		.4byte	0x84
 455 028c 97020000 		.4byte	0x297
 456 0290 06       		.uleb128 0x6
 457 0291 6B000000 		.4byte	0x6b
 458 0295 02       		.byte	0x2
 459 0296 00       		.byte	0
 460 0297 05       		.uleb128 0x5
 461 0298 84000000 		.4byte	0x84
 462 029c A7020000 		.4byte	0x2a7
 463 02a0 06       		.uleb128 0x6
 464 02a1 6B000000 		.4byte	0x6b
 465 02a5 09       		.byte	0x9
 466 02a6 00       		.byte	0
 467 02a7 05       		.uleb128 0x5
 468 02a8 84000000 		.4byte	0x84
 469 02ac B7020000 		.4byte	0x2b7
 470 02b0 06       		.uleb128 0x6
 471 02b1 6B000000 		.4byte	0x6b
 472 02b5 1F       		.byte	0x1f
 473 02b6 00       		.byte	0
 474 02b7 05       		.uleb128 0x5
 475 02b8 84000000 		.4byte	0x84
 476 02bc C7020000 		.4byte	0x2c7
 477 02c0 06       		.uleb128 0x6
 478 02c1 6B000000 		.4byte	0x6b
 479 02c5 07       		.byte	0x7
 480 02c6 00       		.byte	0
ARM GAS  C:\Users\ahmedhamed\AppData\Local\Temp\ccPu5fZo.s 			page 11


 481 02c7 05       		.uleb128 0x5
 482 02c8 84000000 		.4byte	0x84
 483 02cc D7020000 		.4byte	0x2d7
 484 02d0 06       		.uleb128 0x6
 485 02d1 6B000000 		.4byte	0x6b
 486 02d5 13       		.byte	0x13
 487 02d6 00       		.byte	0
 488 02d7 05       		.uleb128 0x5
 489 02d8 84000000 		.4byte	0x84
 490 02dc E7020000 		.4byte	0x2e7
 491 02e0 06       		.uleb128 0x6
 492 02e1 6B000000 		.4byte	0x6b
 493 02e5 06       		.byte	0x6
 494 02e6 00       		.byte	0
 495 02e7 05       		.uleb128 0x5
 496 02e8 84000000 		.4byte	0x84
 497 02ec F7020000 		.4byte	0x2f7
 498 02f0 06       		.uleb128 0x6
 499 02f1 6B000000 		.4byte	0x6b
 500 02f5 05       		.byte	0x5
 501 02f6 00       		.byte	0
 502 02f7 0E       		.uleb128 0xe
 503 02f8 08       		.byte	0x8
 504 02f9 05       		.byte	0x5
 505 02fa 2B01     		.2byte	0x12b
 506 02fc 1B030000 		.4byte	0x31b
 507 0300 0F       		.uleb128 0xf
 508 0301 7A0F0000 		.4byte	.LASF51
 509 0305 05       		.byte	0x5
 510 0306 2C01     		.2byte	0x12c
 511 0308 8F000000 		.4byte	0x8f
 512 030c 00       		.byte	0
 513 030d 0F       		.uleb128 0xf
 514 030e 190A0000 		.4byte	.LASF58
 515 0312 05       		.byte	0x5
 516 0313 2D01     		.2byte	0x12d
 517 0315 C0000000 		.4byte	0xc0
 518 0319 04       		.byte	0x4
 519 031a 00       		.byte	0
 520 031b 10       		.uleb128 0x10
 521 031c 0F000000 		.4byte	.LASF59
 522 0320 05       		.byte	0x5
 523 0321 2E01     		.2byte	0x12e
 524 0323 F7020000 		.4byte	0x2f7
 525 0327 11       		.uleb128 0x11
 526 0328 46090000 		.4byte	.LASF61
 527 032c 0406     		.2byte	0x604
 528 032e 06       		.byte	0x6
 529 032f 22       		.byte	0x22
 530 0330 59030000 		.4byte	0x359
 531 0334 09       		.uleb128 0x9
 532 0335 C6000000 		.4byte	.LASF62
 533 0339 06       		.byte	0x6
 534 033a 23       		.byte	0x23
 535 033b 84000000 		.4byte	0x84
 536 033f 00       		.byte	0
 537 0340 09       		.uleb128 0x9
ARM GAS  C:\Users\ahmedhamed\AppData\Local\Temp\ccPu5fZo.s 			page 12


 538 0341 6F020000 		.4byte	.LASF63
 539 0345 06       		.byte	0x6
 540 0346 24       		.byte	0x24
 541 0347 84000000 		.4byte	0x84
 542 034b 01       		.byte	0x1
 543 034c 09       		.uleb128 0x9
 544 034d 950B0000 		.4byte	.LASF64
 545 0351 06       		.byte	0x6
 546 0352 25       		.byte	0x25
 547 0353 59030000 		.4byte	0x359
 548 0357 02       		.byte	0x2
 549 0358 00       		.byte	0
 550 0359 05       		.uleb128 0x5
 551 035a 84000000 		.4byte	0x84
 552 035e 6A030000 		.4byte	0x36a
 553 0362 12       		.uleb128 0x12
 554 0363 6B000000 		.4byte	0x6b
 555 0367 FF05     		.2byte	0x5ff
 556 0369 00       		.byte	0
 557 036a 13       		.uleb128 0x13
 558 036b 94060000 		.4byte	.LASF65
 559 036f A0       		.byte	0xa0
 560 0370 07       		.byte	0x7
 561 0371 3002     		.2byte	0x230
 562 0373 92030000 		.4byte	0x392
 563 0377 0F       		.uleb128 0xf
 564 0378 60030000 		.4byte	.LASF66
 565 037c 07       		.byte	0x7
 566 037d 3102     		.2byte	0x231
 567 037f 84000000 		.4byte	0x84
 568 0383 00       		.byte	0
 569 0384 0F       		.uleb128 0xf
 570 0385 950B0000 		.4byte	.LASF64
 571 0389 07       		.byte	0x7
 572 038a 3202     		.2byte	0x232
 573 038c 92030000 		.4byte	0x392
 574 0390 01       		.byte	0x1
 575 0391 00       		.byte	0
 576 0392 05       		.uleb128 0x5
 577 0393 84000000 		.4byte	0x84
 578 0397 A2030000 		.4byte	0x3a2
 579 039b 06       		.uleb128 0x6
 580 039c 6B000000 		.4byte	0x6b
 581 03a0 9D       		.byte	0x9d
 582 03a1 00       		.byte	0
 583 03a2 13       		.uleb128 0x13
 584 03a3 890F0000 		.4byte	.LASF67
 585 03a7 54       		.byte	0x54
 586 03a8 07       		.byte	0x7
 587 03a9 3902     		.2byte	0x239
 588 03ab CA030000 		.4byte	0x3ca
 589 03af 0F       		.uleb128 0xf
 590 03b0 60030000 		.4byte	.LASF66
 591 03b4 07       		.byte	0x7
 592 03b5 3A02     		.2byte	0x23a
 593 03b7 84000000 		.4byte	0x84
 594 03bb 00       		.byte	0
ARM GAS  C:\Users\ahmedhamed\AppData\Local\Temp\ccPu5fZo.s 			page 13


 595 03bc 0F       		.uleb128 0xf
 596 03bd 950B0000 		.4byte	.LASF64
 597 03c1 07       		.byte	0x7
 598 03c2 3B02     		.2byte	0x23b
 599 03c4 CA030000 		.4byte	0x3ca
 600 03c8 01       		.byte	0x1
 601 03c9 00       		.byte	0
 602 03ca 05       		.uleb128 0x5
 603 03cb 84000000 		.4byte	0x84
 604 03cf DA030000 		.4byte	0x3da
 605 03d3 06       		.uleb128 0x6
 606 03d4 6B000000 		.4byte	0x6b
 607 03d8 4F       		.byte	0x4f
 608 03d9 00       		.byte	0
 609 03da 14       		.uleb128 0x14
 610 03db 19010000 		.4byte	.LASF68
 611 03df 040C     		.2byte	0xc04
 612 03e1 08       		.byte	0x8
 613 03e2 1E01     		.2byte	0x11e
 614 03e4 03040000 		.4byte	0x403
 615 03e8 0F       		.uleb128 0xf
 616 03e9 7A0F0000 		.4byte	.LASF51
 617 03ed 08       		.byte	0x8
 618 03ee 1F01     		.2byte	0x11f
 619 03f0 8F000000 		.4byte	0x8f
 620 03f4 00       		.byte	0
 621 03f5 0F       		.uleb128 0xf
 622 03f6 56030000 		.4byte	.LASF69
 623 03fa 08       		.byte	0x8
 624 03fb 2001     		.2byte	0x120
 625 03fd 03040000 		.4byte	0x403
 626 0401 02       		.byte	0x2
 627 0402 00       		.byte	0
 628 0403 05       		.uleb128 0x5
 629 0404 84000000 		.4byte	0x84
 630 0408 14040000 		.4byte	0x414
 631 040c 12       		.uleb128 0x12
 632 040d 6B000000 		.4byte	0x6b
 633 0411 FF0B     		.2byte	0xbff
 634 0413 00       		.byte	0
 635 0414 14       		.uleb128 0x14
 636 0415 0B050000 		.4byte	.LASF70
 637 0419 7001     		.2byte	0x170
 638 041b 08       		.byte	0x8
 639 041c 6401     		.2byte	0x164
 640 041e 30070000 		.4byte	0x730
 641 0422 0F       		.uleb128 0xf
 642 0423 3D020000 		.4byte	.LASF71
 643 0427 08       		.byte	0x8
 644 0428 6501     		.2byte	0x165
 645 042a 84000000 		.4byte	0x84
 646 042e 00       		.byte	0
 647 042f 0F       		.uleb128 0xf
 648 0430 89080000 		.4byte	.LASF72
 649 0434 08       		.byte	0x8
 650 0435 6601     		.2byte	0x166
 651 0437 84000000 		.4byte	0x84
ARM GAS  C:\Users\ahmedhamed\AppData\Local\Temp\ccPu5fZo.s 			page 14


 652 043b 01       		.byte	0x1
 653 043c 0F       		.uleb128 0xf
 654 043d 780B0000 		.4byte	.LASF73
 655 0441 08       		.byte	0x8
 656 0442 6701     		.2byte	0x167
 657 0444 30070000 		.4byte	0x730
 658 0448 02       		.byte	0x2
 659 0449 0F       		.uleb128 0xf
 660 044a DA0B0000 		.4byte	.LASF74
 661 044e 08       		.byte	0x8
 662 044f 6801     		.2byte	0x168
 663 0451 84000000 		.4byte	0x84
 664 0455 0B       		.byte	0xb
 665 0456 0F       		.uleb128 0xf
 666 0457 DB040000 		.4byte	.LASF75
 667 045b 08       		.byte	0x8
 668 045c 6901     		.2byte	0x169
 669 045e 40070000 		.4byte	0x740
 670 0462 0C       		.byte	0xc
 671 0463 0F       		.uleb128 0xf
 672 0464 33080000 		.4byte	.LASF76
 673 0468 08       		.byte	0x8
 674 0469 6A01     		.2byte	0x16a
 675 046b 84000000 		.4byte	0x84
 676 046f 18       		.byte	0x18
 677 0470 0F       		.uleb128 0xf
 678 0471 90020000 		.4byte	.LASF77
 679 0475 08       		.byte	0x8
 680 0476 6B01     		.2byte	0x16b
 681 0478 84000000 		.4byte	0x84
 682 047c 19       		.byte	0x19
 683 047d 0F       		.uleb128 0xf
 684 047e 20030000 		.4byte	.LASF78
 685 0482 08       		.byte	0x8
 686 0483 6C01     		.2byte	0x16c
 687 0485 40070000 		.4byte	0x740
 688 0489 1A       		.byte	0x1a
 689 048a 0F       		.uleb128 0xf
 690 048b 63070000 		.4byte	.LASF79
 691 048f 08       		.byte	0x8
 692 0490 6D01     		.2byte	0x16d
 693 0492 84000000 		.4byte	0x84
 694 0496 26       		.byte	0x26
 695 0497 0F       		.uleb128 0xf
 696 0498 970E0000 		.4byte	.LASF80
 697 049c 08       		.byte	0x8
 698 049d 6E01     		.2byte	0x16e
 699 049f 84000000 		.4byte	0x84
 700 04a3 27       		.byte	0x27
 701 04a4 0F       		.uleb128 0xf
 702 04a5 BC0A0000 		.4byte	.LASF81
 703 04a9 08       		.byte	0x8
 704 04aa 6F01     		.2byte	0x16f
 705 04ac 84000000 		.4byte	0x84
 706 04b0 28       		.byte	0x28
 707 04b1 0F       		.uleb128 0xf
 708 04b2 75020000 		.4byte	.LASF82
ARM GAS  C:\Users\ahmedhamed\AppData\Local\Temp\ccPu5fZo.s 			page 15


 709 04b6 08       		.byte	0x8
 710 04b7 7001     		.2byte	0x170
 711 04b9 84000000 		.4byte	0x84
 712 04bd 29       		.byte	0x29
 713 04be 0F       		.uleb128 0xf
 714 04bf 2F070000 		.4byte	.LASF83
 715 04c3 08       		.byte	0x8
 716 04c4 7101     		.2byte	0x171
 717 04c6 C6000000 		.4byte	0xc6
 718 04ca 2A       		.byte	0x2a
 719 04cb 0F       		.uleb128 0xf
 720 04cc 15090000 		.4byte	.LASF84
 721 04d0 08       		.byte	0x8
 722 04d1 7201     		.2byte	0x172
 723 04d3 87020000 		.4byte	0x287
 724 04d7 2E       		.byte	0x2e
 725 04d8 0F       		.uleb128 0xf
 726 04d9 7D000000 		.4byte	.LASF85
 727 04dd 08       		.byte	0x8
 728 04de 7301     		.2byte	0x173
 729 04e0 87020000 		.4byte	0x287
 730 04e4 31       		.byte	0x31
 731 04e5 0F       		.uleb128 0xf
 732 04e6 3F0F0000 		.4byte	.LASF86
 733 04ea 08       		.byte	0x8
 734 04eb 7401     		.2byte	0x174
 735 04ed C6000000 		.4byte	0xc6
 736 04f1 34       		.byte	0x34
 737 04f2 0F       		.uleb128 0xf
 738 04f3 BE000000 		.4byte	.LASF87
 739 04f7 08       		.byte	0x8
 740 04f8 7501     		.2byte	0x175
 741 04fa B0000000 		.4byte	0xb0
 742 04fe 38       		.byte	0x38
 743 04ff 0F       		.uleb128 0xf
 744 0500 5C060000 		.4byte	.LASF88
 745 0504 08       		.byte	0x8
 746 0505 7601     		.2byte	0x176
 747 0507 B0000000 		.4byte	0xb0
 748 050b 3A       		.byte	0x3a
 749 050c 0F       		.uleb128 0xf
 750 050d B00E0000 		.4byte	.LASF89
 751 0511 08       		.byte	0x8
 752 0512 7701     		.2byte	0x177
 753 0514 84000000 		.4byte	0x84
 754 0518 3C       		.byte	0x3c
 755 0519 0F       		.uleb128 0xf
 756 051a B8020000 		.4byte	.LASF90
 757 051e 08       		.byte	0x8
 758 051f 7801     		.2byte	0x178
 759 0521 84000000 		.4byte	0x84
 760 0525 3D       		.byte	0x3d
 761 0526 0F       		.uleb128 0xf
 762 0527 81070000 		.4byte	.LASF91
 763 052b 08       		.byte	0x8
 764 052c 7901     		.2byte	0x179
 765 052e 84000000 		.4byte	0x84
ARM GAS  C:\Users\ahmedhamed\AppData\Local\Temp\ccPu5fZo.s 			page 16


 766 0532 3E       		.byte	0x3e
 767 0533 0F       		.uleb128 0xf
 768 0534 F10C0000 		.4byte	.LASF92
 769 0538 08       		.byte	0x8
 770 0539 7A01     		.2byte	0x17a
 771 053b 8F000000 		.4byte	0x8f
 772 053f 40       		.byte	0x40
 773 0540 0F       		.uleb128 0xf
 774 0541 00000000 		.4byte	.LASF93
 775 0545 08       		.byte	0x8
 776 0546 7B01     		.2byte	0x17b
 777 0548 8F000000 		.4byte	0x8f
 778 054c 42       		.byte	0x42
 779 054d 0F       		.uleb128 0xf
 780 054e AA050000 		.4byte	.LASF94
 781 0552 08       		.byte	0x8
 782 0553 7C01     		.2byte	0x17c
 783 0555 A5000000 		.4byte	0xa5
 784 0559 48       		.byte	0x48
 785 055a 0F       		.uleb128 0xf
 786 055b 37070000 		.4byte	.LASF95
 787 055f 08       		.byte	0x8
 788 0560 7D01     		.2byte	0x17d
 789 0562 84000000 		.4byte	0x84
 790 0566 50       		.byte	0x50
 791 0567 0F       		.uleb128 0xf
 792 0568 EB0B0000 		.4byte	.LASF96
 793 056c 08       		.byte	0x8
 794 056d 7E01     		.2byte	0x17e
 795 056f 84000000 		.4byte	0x84
 796 0573 51       		.byte	0x51
 797 0574 0F       		.uleb128 0xf
 798 0575 AE040000 		.4byte	.LASF97
 799 0579 08       		.byte	0x8
 800 057a 8001     		.2byte	0x180
 801 057c 84000000 		.4byte	0x84
 802 0580 52       		.byte	0x52
 803 0581 0F       		.uleb128 0xf
 804 0582 A6080000 		.4byte	.LASF98
 805 0586 08       		.byte	0x8
 806 0587 8101     		.2byte	0x181
 807 0589 B0000000 		.4byte	0xb0
 808 058d 53       		.byte	0x53
 809 058e 0F       		.uleb128 0xf
 810 058f 27080000 		.4byte	.LASF99
 811 0593 08       		.byte	0x8
 812 0594 8201     		.2byte	0x182
 813 0596 C6000000 		.4byte	0xc6
 814 059a 55       		.byte	0x55
 815 059b 0F       		.uleb128 0xf
 816 059c 890B0000 		.4byte	.LASF100
 817 05a0 08       		.byte	0x8
 818 05a1 8301     		.2byte	0x183
 819 05a3 A5000000 		.4byte	0xa5
 820 05a7 60       		.byte	0x60
 821 05a8 0F       		.uleb128 0xf
 822 05a9 7A040000 		.4byte	.LASF101
ARM GAS  C:\Users\ahmedhamed\AppData\Local\Temp\ccPu5fZo.s 			page 17


 823 05ad 08       		.byte	0x8
 824 05ae 8401     		.2byte	0x184
 825 05b0 B0000000 		.4byte	0xb0
 826 05b4 68       		.byte	0x68
 827 05b5 0F       		.uleb128 0xf
 828 05b6 7A080000 		.4byte	.LASF102
 829 05ba 08       		.byte	0x8
 830 05bb 8501     		.2byte	0x185
 831 05bd C6000000 		.4byte	0xc6
 832 05c1 6A       		.byte	0x6a
 833 05c2 0F       		.uleb128 0xf
 834 05c3 F60B0000 		.4byte	.LASF103
 835 05c7 08       		.byte	0x8
 836 05c8 8601     		.2byte	0x186
 837 05ca A5000000 		.4byte	0xa5
 838 05ce 70       		.byte	0x70
 839 05cf 0F       		.uleb128 0xf
 840 05d0 A00B0000 		.4byte	.LASF104
 841 05d4 08       		.byte	0x8
 842 05d5 8701     		.2byte	0x187
 843 05d7 B0000000 		.4byte	0xb0
 844 05db 78       		.byte	0x78
 845 05dc 0F       		.uleb128 0xf
 846 05dd 9B0D0000 		.4byte	.LASF105
 847 05e1 08       		.byte	0x8
 848 05e2 8801     		.2byte	0x188
 849 05e4 C6000000 		.4byte	0xc6
 850 05e8 7A       		.byte	0x7a
 851 05e9 0F       		.uleb128 0xf
 852 05ea 690B0000 		.4byte	.LASF106
 853 05ee 08       		.byte	0x8
 854 05ef 8901     		.2byte	0x189
 855 05f1 A5000000 		.4byte	0xa5
 856 05f5 80       		.byte	0x80
 857 05f6 0F       		.uleb128 0xf
 858 05f7 CF0C0000 		.4byte	.LASF107
 859 05fb 08       		.byte	0x8
 860 05fc 8A01     		.2byte	0x18a
 861 05fe B0000000 		.4byte	0xb0
 862 0602 88       		.byte	0x88
 863 0603 0F       		.uleb128 0xf
 864 0604 F0030000 		.4byte	.LASF108
 865 0608 08       		.byte	0x8
 866 0609 8B01     		.2byte	0x18b
 867 060b C6000000 		.4byte	0xc6
 868 060f 8A       		.byte	0x8a
 869 0610 0F       		.uleb128 0xf
 870 0611 F60E0000 		.4byte	.LASF109
 871 0615 08       		.byte	0x8
 872 0616 8C01     		.2byte	0x18c
 873 0618 A5000000 		.4byte	0xa5
 874 061c 90       		.byte	0x90
 875 061d 0F       		.uleb128 0xf
 876 061e 5F020000 		.4byte	.LASF110
 877 0622 08       		.byte	0x8
 878 0623 8D01     		.2byte	0x18d
 879 0625 B0000000 		.4byte	0xb0
ARM GAS  C:\Users\ahmedhamed\AppData\Local\Temp\ccPu5fZo.s 			page 18


 880 0629 98       		.byte	0x98
 881 062a 0F       		.uleb128 0xf
 882 062b FE050000 		.4byte	.LASF111
 883 062f 08       		.byte	0x8
 884 0630 8E01     		.2byte	0x18e
 885 0632 C6000000 		.4byte	0xc6
 886 0636 9A       		.byte	0x9a
 887 0637 0F       		.uleb128 0xf
 888 0638 7F090000 		.4byte	.LASF112
 889 063c 08       		.byte	0x8
 890 063d 8F01     		.2byte	0x18f
 891 063f A5000000 		.4byte	0xa5
 892 0643 A0       		.byte	0xa0
 893 0644 0F       		.uleb128 0xf
 894 0645 770A0000 		.4byte	.LASF113
 895 0649 08       		.byte	0x8
 896 064a 9001     		.2byte	0x190
 897 064c A7020000 		.4byte	0x2a7
 898 0650 A8       		.byte	0xa8
 899 0651 0F       		.uleb128 0xf
 900 0652 A3070000 		.4byte	.LASF114
 901 0656 08       		.byte	0x8
 902 0657 9101     		.2byte	0x191
 903 0659 A7020000 		.4byte	0x2a7
 904 065d C8       		.byte	0xc8
 905 065e 0F       		.uleb128 0xf
 906 065f AD000000 		.4byte	.LASF115
 907 0663 08       		.byte	0x8
 908 0664 9201     		.2byte	0x192
 909 0666 A7020000 		.4byte	0x2a7
 910 066a E8       		.byte	0xe8
 911 066b 15       		.uleb128 0x15
 912 066c DD050000 		.4byte	.LASF116
 913 0670 08       		.byte	0x8
 914 0671 9301     		.2byte	0x193
 915 0673 A7020000 		.4byte	0x2a7
 916 0677 0801     		.2byte	0x108
 917 0679 15       		.uleb128 0x15
 918 067a EC080000 		.4byte	.LASF117
 919 067e 08       		.byte	0x8
 920 067f 9401     		.2byte	0x194
 921 0681 C6000000 		.4byte	0xc6
 922 0685 2801     		.2byte	0x128
 923 0687 15       		.uleb128 0x15
 924 0688 BE060000 		.4byte	.LASF118
 925 068c 08       		.byte	0x8
 926 068d 9501     		.2byte	0x195
 927 068f B0000000 		.4byte	0xb0
 928 0693 2C01     		.2byte	0x12c
 929 0695 15       		.uleb128 0x15
 930 0696 CC0E0000 		.4byte	.LASF119
 931 069a 08       		.byte	0x8
 932 069b 9601     		.2byte	0x196
 933 069d 50070000 		.4byte	0x750
 934 06a1 2E01     		.2byte	0x12e
 935 06a3 15       		.uleb128 0x15
 936 06a4 97030000 		.4byte	.LASF120
ARM GAS  C:\Users\ahmedhamed\AppData\Local\Temp\ccPu5fZo.s 			page 19


 937 06a8 08       		.byte	0x8
 938 06a9 9701     		.2byte	0x197
 939 06ab 40070000 		.4byte	0x740
 940 06af 4701     		.2byte	0x147
 941 06b1 15       		.uleb128 0x15
 942 06b2 CA060000 		.4byte	.LASF121
 943 06b6 08       		.byte	0x8
 944 06b7 9801     		.2byte	0x198
 945 06b9 84000000 		.4byte	0x84
 946 06bd 5301     		.2byte	0x153
 947 06bf 15       		.uleb128 0x15
 948 06c0 FE0A0000 		.4byte	.LASF122
 949 06c4 08       		.byte	0x8
 950 06c5 9901     		.2byte	0x199
 951 06c7 84000000 		.4byte	0x84
 952 06cb 5401     		.2byte	0x154
 953 06cd 15       		.uleb128 0x15
 954 06ce FE000000 		.4byte	.LASF123
 955 06d2 08       		.byte	0x8
 956 06d3 9A01     		.2byte	0x19a
 957 06d5 40070000 		.4byte	0x740
 958 06d9 5501     		.2byte	0x155
 959 06db 15       		.uleb128 0x15
 960 06dc 2A060000 		.4byte	.LASF124
 961 06e0 08       		.byte	0x8
 962 06e1 9B01     		.2byte	0x19b
 963 06e3 84000000 		.4byte	0x84
 964 06e7 6101     		.2byte	0x161
 965 06e9 15       		.uleb128 0x15
 966 06ea E70D0000 		.4byte	.LASF125
 967 06ee 08       		.byte	0x8
 968 06ef 9C01     		.2byte	0x19c
 969 06f1 84000000 		.4byte	0x84
 970 06f5 6201     		.2byte	0x162
 971 06f7 15       		.uleb128 0x15
 972 06f8 49000000 		.4byte	.LASF126
 973 06fc 08       		.byte	0x8
 974 06fd 9D01     		.2byte	0x19d
 975 06ff 84000000 		.4byte	0x84
 976 0703 6301     		.2byte	0x163
 977 0705 15       		.uleb128 0x15
 978 0706 FD020000 		.4byte	.LASF127
 979 070a 08       		.byte	0x8
 980 070b 9E01     		.2byte	0x19e
 981 070d 8F000000 		.4byte	0x8f
 982 0711 6401     		.2byte	0x164
 983 0713 15       		.uleb128 0x15
 984 0714 C9090000 		.4byte	.LASF128
 985 0718 08       		.byte	0x8
 986 0719 9F01     		.2byte	0x19f
 987 071b 84000000 		.4byte	0x84
 988 071f 6601     		.2byte	0x166
 989 0721 15       		.uleb128 0x15
 990 0722 59000000 		.4byte	.LASF129
 991 0726 08       		.byte	0x8
 992 0727 A101     		.2byte	0x1a1
 993 0729 9A000000 		.4byte	0x9a
ARM GAS  C:\Users\ahmedhamed\AppData\Local\Temp\ccPu5fZo.s 			page 20


 994 072d 6801     		.2byte	0x168
 995 072f 00       		.byte	0
 996 0730 05       		.uleb128 0x5
 997 0731 84000000 		.4byte	0x84
 998 0735 40070000 		.4byte	0x740
 999 0739 06       		.uleb128 0x6
 1000 073a 6B000000 		.4byte	0x6b
 1001 073e 08       		.byte	0x8
 1002 073f 00       		.byte	0
 1003 0740 05       		.uleb128 0x5
 1004 0741 84000000 		.4byte	0x84
 1005 0745 50070000 		.4byte	0x750
 1006 0749 06       		.uleb128 0x6
 1007 074a 6B000000 		.4byte	0x6b
 1008 074e 0B       		.byte	0xb
 1009 074f 00       		.byte	0
 1010 0750 05       		.uleb128 0x5
 1011 0751 84000000 		.4byte	0x84
 1012 0755 60070000 		.4byte	0x760
 1013 0759 06       		.uleb128 0x6
 1014 075a 6B000000 		.4byte	0x6b
 1015 075e 18       		.byte	0x18
 1016 075f 00       		.byte	0
 1017 0760 14       		.uleb128 0x14
 1018 0761 F5050000 		.4byte	.LASF130
 1019 0765 8801     		.2byte	0x188
 1020 0767 08       		.byte	0x8
 1021 0768 AC01     		.2byte	0x1ac
 1022 076a 08090000 		.4byte	0x908
 1023 076e 0F       		.uleb128 0xf
 1024 076f 830B0000 		.4byte	.LASF131
 1025 0773 08       		.byte	0x8
 1026 0774 AD01     		.2byte	0x1ad
 1027 0776 84000000 		.4byte	0x84
 1028 077a 00       		.byte	0
 1029 077b 0F       		.uleb128 0xf
 1030 077c AC090000 		.4byte	.LASF132
 1031 0780 08       		.byte	0x8
 1032 0781 AE01     		.2byte	0x1ae
 1033 0783 84000000 		.4byte	0x84
 1034 0787 01       		.byte	0x1
 1035 0788 0F       		.uleb128 0xf
 1036 0789 430A0000 		.4byte	.LASF133
 1037 078d 08       		.byte	0x8
 1038 078e AF01     		.2byte	0x1af
 1039 0790 84000000 		.4byte	0x84
 1040 0794 02       		.byte	0x2
 1041 0795 0F       		.uleb128 0xf
 1042 0796 58050000 		.4byte	.LASF134
 1043 079a 08       		.byte	0x8
 1044 079b B001     		.2byte	0x1b0
 1045 079d 84000000 		.4byte	0x84
 1046 07a1 03       		.byte	0x3
 1047 07a2 0F       		.uleb128 0xf
 1048 07a3 9F090000 		.4byte	.LASF135
 1049 07a7 08       		.byte	0x8
 1050 07a8 B101     		.2byte	0x1b1
ARM GAS  C:\Users\ahmedhamed\AppData\Local\Temp\ccPu5fZo.s 			page 21


 1051 07aa E7020000 		.4byte	0x2e7
 1052 07ae 04       		.byte	0x4
 1053 07af 0F       		.uleb128 0xf
 1054 07b0 400D0000 		.4byte	.LASF136
 1055 07b4 08       		.byte	0x8
 1056 07b5 B201     		.2byte	0x1b2
 1057 07b7 84000000 		.4byte	0x84
 1058 07bb 0A       		.byte	0xa
 1059 07bc 0F       		.uleb128 0xf
 1060 07bd A40E0000 		.4byte	.LASF137
 1061 07c1 08       		.byte	0x8
 1062 07c2 B301     		.2byte	0x1b3
 1063 07c4 B0000000 		.4byte	0xb0
 1064 07c8 0B       		.byte	0xb
 1065 07c9 0F       		.uleb128 0xf
 1066 07ca 1E060000 		.4byte	.LASF138
 1067 07ce 08       		.byte	0x8
 1068 07cf B401     		.2byte	0x1b4
 1069 07d1 40070000 		.4byte	0x740
 1070 07d5 0D       		.byte	0xd
 1071 07d6 0F       		.uleb128 0xf
 1072 07d7 49020000 		.4byte	.LASF139
 1073 07db 08       		.byte	0x8
 1074 07dc B501     		.2byte	0x1b5
 1075 07de C6000000 		.4byte	0xc6
 1076 07e2 19       		.byte	0x19
 1077 07e3 0F       		.uleb128 0xf
 1078 07e4 1A040000 		.4byte	.LASF140
 1079 07e8 08       		.byte	0x8
 1080 07e9 B601     		.2byte	0x1b6
 1081 07eb 08090000 		.4byte	0x908
 1082 07ef 1D       		.byte	0x1d
 1083 07f0 0F       		.uleb128 0xf
 1084 07f1 11060000 		.4byte	.LASF141
 1085 07f5 08       		.byte	0x8
 1086 07f6 B701     		.2byte	0x1b7
 1087 07f8 18090000 		.4byte	0x918
 1088 07fc 4B       		.byte	0x4b
 1089 07fd 0F       		.uleb128 0xf
 1090 07fe F30A0000 		.4byte	.LASF142
 1091 0802 08       		.byte	0x8
 1092 0803 B801     		.2byte	0x1b8
 1093 0805 84000000 		.4byte	0x84
 1094 0809 62       		.byte	0x62
 1095 080a 0F       		.uleb128 0xf
 1096 080b 45050000 		.4byte	.LASF143
 1097 080f 08       		.byte	0x8
 1098 0810 B901     		.2byte	0x1b9
 1099 0812 84000000 		.4byte	0x84
 1100 0816 63       		.byte	0x63
 1101 0817 0F       		.uleb128 0xf
 1102 0818 CC0B0000 		.4byte	.LASF144
 1103 081c 08       		.byte	0x8
 1104 081d BA01     		.2byte	0x1ba
 1105 081f 84000000 		.4byte	0x84
 1106 0823 64       		.byte	0x64
 1107 0824 0F       		.uleb128 0xf
ARM GAS  C:\Users\ahmedhamed\AppData\Local\Temp\ccPu5fZo.s 			page 22


 1108 0825 560A0000 		.4byte	.LASF145
 1109 0829 08       		.byte	0x8
 1110 082a BB01     		.2byte	0x1bb
 1111 082c 84000000 		.4byte	0x84
 1112 0830 65       		.byte	0x65
 1113 0831 0F       		.uleb128 0xf
 1114 0832 E9020000 		.4byte	.LASF146
 1115 0836 08       		.byte	0x8
 1116 0837 BC01     		.2byte	0x1bc
 1117 0839 84000000 		.4byte	0x84
 1118 083d 66       		.byte	0x66
 1119 083e 0F       		.uleb128 0xf
 1120 083f DB090000 		.4byte	.LASF147
 1121 0843 08       		.byte	0x8
 1122 0844 BD01     		.2byte	0x1bd
 1123 0846 87020000 		.4byte	0x287
 1124 084a 67       		.byte	0x67
 1125 084b 0F       		.uleb128 0xf
 1126 084c 650D0000 		.4byte	.LASF148
 1127 0850 08       		.byte	0x8
 1128 0851 BE01     		.2byte	0x1be
 1129 0853 84000000 		.4byte	0x84
 1130 0857 6A       		.byte	0x6a
 1131 0858 0F       		.uleb128 0xf
 1132 0859 99040000 		.4byte	.LASF149
 1133 085d 08       		.byte	0x8
 1134 085e BF01     		.2byte	0x1bf
 1135 0860 C7020000 		.4byte	0x2c7
 1136 0864 6B       		.byte	0x6b
 1137 0865 0F       		.uleb128 0xf
 1138 0866 4E0D0000 		.4byte	.LASF150
 1139 086a 08       		.byte	0x8
 1140 086b C001     		.2byte	0x1c0
 1141 086d 28090000 		.4byte	0x928
 1142 0871 7F       		.byte	0x7f
 1143 0872 0F       		.uleb128 0xf
 1144 0873 48030000 		.4byte	.LASF151
 1145 0877 08       		.byte	0x8
 1146 0878 C101     		.2byte	0x1c1
 1147 087a F9010000 		.4byte	0x1f9
 1148 087e 9D       		.byte	0x9d
 1149 087f 0F       		.uleb128 0xf
 1150 0880 5F040000 		.4byte	.LASF152
 1151 0884 08       		.byte	0x8
 1152 0885 C201     		.2byte	0x1c2
 1153 0887 F9010000 		.4byte	0x1f9
 1154 088b AD       		.byte	0xad
 1155 088c 0F       		.uleb128 0xf
 1156 088d FE040000 		.4byte	.LASF153
 1157 0891 08       		.byte	0x8
 1158 0892 C301     		.2byte	0x1c3
 1159 0894 A7020000 		.4byte	0x2a7
 1160 0898 BD       		.byte	0xbd
 1161 0899 0F       		.uleb128 0xf
 1162 089a 4F0C0000 		.4byte	.LASF154
 1163 089e 08       		.byte	0x8
 1164 089f C401     		.2byte	0x1c4
ARM GAS  C:\Users\ahmedhamed\AppData\Local\Temp\ccPu5fZo.s 			page 23


 1165 08a1 A7020000 		.4byte	0x2a7
 1166 08a5 DD       		.byte	0xdd
 1167 08a6 0F       		.uleb128 0xf
 1168 08a7 6E0E0000 		.4byte	.LASF155
 1169 08ab 08       		.byte	0x8
 1170 08ac C501     		.2byte	0x1c5
 1171 08ae A7020000 		.4byte	0x2a7
 1172 08b2 FD       		.byte	0xfd
 1173 08b3 15       		.uleb128 0x15
 1174 08b4 8B040000 		.4byte	.LASF156
 1175 08b8 08       		.byte	0x8
 1176 08b9 C601     		.2byte	0x1c6
 1177 08bb A7020000 		.4byte	0x2a7
 1178 08bf 1D01     		.2byte	0x11d
 1179 08c1 15       		.uleb128 0x15
 1180 08c2 940F0000 		.4byte	.LASF157
 1181 08c6 08       		.byte	0x8
 1182 08c7 C701     		.2byte	0x1c7
 1183 08c9 A7020000 		.4byte	0x2a7
 1184 08cd 3D01     		.2byte	0x13d
 1185 08cf 15       		.uleb128 0x15
 1186 08d0 E30A0000 		.4byte	.LASF158
 1187 08d4 08       		.byte	0x8
 1188 08d5 C801     		.2byte	0x1c8
 1189 08d7 A7020000 		.4byte	0x2a7
 1190 08db 5D01     		.2byte	0x15d
 1191 08dd 15       		.uleb128 0x15
 1192 08de 6E090000 		.4byte	.LASF159
 1193 08e2 08       		.byte	0x8
 1194 08e3 C901     		.2byte	0x1c9
 1195 08e5 C6000000 		.4byte	0xc6
 1196 08e9 7D01     		.2byte	0x17d
 1197 08eb 15       		.uleb128 0x15
 1198 08ec 3B050000 		.4byte	.LASF160
 1199 08f0 08       		.byte	0x8
 1200 08f1 CA01     		.2byte	0x1ca
 1201 08f3 B0000000 		.4byte	0xb0
 1202 08f7 8101     		.2byte	0x181
 1203 08f9 15       		.uleb128 0x15
 1204 08fa 59000000 		.4byte	.LASF129
 1205 08fe 08       		.byte	0x8
 1206 08ff CB01     		.2byte	0x1cb
 1207 0901 8F000000 		.4byte	0x8f
 1208 0905 8401     		.2byte	0x184
 1209 0907 00       		.byte	0
 1210 0908 05       		.uleb128 0x5
 1211 0909 84000000 		.4byte	0x84
 1212 090d 18090000 		.4byte	0x918
 1213 0911 06       		.uleb128 0x6
 1214 0912 6B000000 		.4byte	0x6b
 1215 0916 2D       		.byte	0x2d
 1216 0917 00       		.byte	0
 1217 0918 05       		.uleb128 0x5
 1218 0919 84000000 		.4byte	0x84
 1219 091d 28090000 		.4byte	0x928
 1220 0921 06       		.uleb128 0x6
 1221 0922 6B000000 		.4byte	0x6b
ARM GAS  C:\Users\ahmedhamed\AppData\Local\Temp\ccPu5fZo.s 			page 24


 1222 0926 16       		.byte	0x16
 1223 0927 00       		.byte	0
 1224 0928 05       		.uleb128 0x5
 1225 0929 84000000 		.4byte	0x84
 1226 092d 38090000 		.4byte	0x938
 1227 0931 06       		.uleb128 0x6
 1228 0932 6B000000 		.4byte	0x6b
 1229 0936 1D       		.byte	0x1d
 1230 0937 00       		.byte	0
 1231 0938 13       		.uleb128 0x13
 1232 0939 37090000 		.4byte	.LASF161
 1233 093d 24       		.byte	0x24
 1234 093e 08       		.byte	0x8
 1235 093f CE01     		.2byte	0x1ce
 1236 0941 A1090000 		.4byte	0x9a1
 1237 0945 0F       		.uleb128 0xf
 1238 0946 190F0000 		.4byte	.LASF162
 1239 094a 08       		.byte	0x8
 1240 094b CF01     		.2byte	0x1cf
 1241 094d 77020000 		.4byte	0x277
 1242 0951 00       		.byte	0
 1243 0952 0F       		.uleb128 0xf
 1244 0953 03090000 		.4byte	.LASF163
 1245 0957 08       		.byte	0x8
 1246 0958 D001     		.2byte	0x1d0
 1247 095a 77020000 		.4byte	0x277
 1248 095e 05       		.byte	0x5
 1249 095f 0F       		.uleb128 0xf
 1250 0960 43070000 		.4byte	.LASF164
 1251 0964 08       		.byte	0x8
 1252 0965 D101     		.2byte	0x1d1
 1253 0967 84000000 		.4byte	0x84
 1254 096b 0A       		.byte	0xa
 1255 096c 0F       		.uleb128 0xf
 1256 096d D0080000 		.4byte	.LASF165
 1257 0971 08       		.byte	0x8
 1258 0972 D201     		.2byte	0x1d2
 1259 0974 84000000 		.4byte	0x84
 1260 0978 0B       		.byte	0xb
 1261 0979 0F       		.uleb128 0xf
 1262 097a 910D0000 		.4byte	.LASF166
 1263 097e 08       		.byte	0x8
 1264 097f D301     		.2byte	0x1d3
 1265 0981 84000000 		.4byte	0x84
 1266 0985 0C       		.byte	0xc
 1267 0986 0F       		.uleb128 0xf
 1268 0987 4E0D0000 		.4byte	.LASF150
 1269 098b 08       		.byte	0x8
 1270 098c D401     		.2byte	0x1d4
 1271 098e C7020000 		.4byte	0x2c7
 1272 0992 0D       		.byte	0xd
 1273 0993 0F       		.uleb128 0xf
 1274 0994 59000000 		.4byte	.LASF129
 1275 0998 08       		.byte	0x8
 1276 0999 D501     		.2byte	0x1d5
 1277 099b 8F000000 		.4byte	0x8f
 1278 099f 22       		.byte	0x22
ARM GAS  C:\Users\ahmedhamed\AppData\Local\Temp\ccPu5fZo.s 			page 25


 1279 09a0 00       		.byte	0
 1280 09a1 13       		.uleb128 0x13
 1281 09a2 270A0000 		.4byte	.LASF167
 1282 09a6 38       		.byte	0x38
 1283 09a7 08       		.byte	0x8
 1284 09a8 D801     		.2byte	0x1d8
 1285 09aa 240A0000 		.4byte	0xa24
 1286 09ae 0F       		.uleb128 0xf
 1287 09af 4A0C0000 		.4byte	.LASF168
 1288 09b3 08       		.byte	0x8
 1289 09b4 D901     		.2byte	0x1d9
 1290 09b6 84000000 		.4byte	0x84
 1291 09ba 00       		.byte	0
 1292 09bb 0F       		.uleb128 0xf
 1293 09bc 1E020000 		.4byte	.LASF169
 1294 09c0 08       		.byte	0x8
 1295 09c1 DA01     		.2byte	0x1da
 1296 09c3 97020000 		.4byte	0x297
 1297 09c7 01       		.byte	0x1
 1298 09c8 0F       		.uleb128 0xf
 1299 09c9 73070000 		.4byte	.LASF170
 1300 09cd 08       		.byte	0x8
 1301 09ce DB01     		.2byte	0x1db
 1302 09d0 40070000 		.4byte	0x740
 1303 09d4 0B       		.byte	0xb
 1304 09d5 0F       		.uleb128 0xf
 1305 09d6 49020000 		.4byte	.LASF139
 1306 09da 08       		.byte	0x8
 1307 09db DC01     		.2byte	0x1dc
 1308 09dd C6000000 		.4byte	0xc6
 1309 09e1 17       		.byte	0x17
 1310 09e2 0F       		.uleb128 0xf
 1311 09e3 E5040000 		.4byte	.LASF171
 1312 09e7 08       		.byte	0x8
 1313 09e8 DD01     		.2byte	0x1dd
 1314 09ea 84000000 		.4byte	0x84
 1315 09ee 1B       		.byte	0x1b
 1316 09ef 0F       		.uleb128 0xf
 1317 09f0 2B0E0000 		.4byte	.LASF172
 1318 09f4 08       		.byte	0x8
 1319 09f5 DE01     		.2byte	0x1de
 1320 09f7 B0000000 		.4byte	0xb0
 1321 09fb 1C       		.byte	0x1c
 1322 09fc 0F       		.uleb128 0xf
 1323 09fd 42060000 		.4byte	.LASF173
 1324 0a01 08       		.byte	0x8
 1325 0a02 DF01     		.2byte	0x1df
 1326 0a04 B0000000 		.4byte	0xb0
 1327 0a08 1E       		.byte	0x1e
 1328 0a09 0F       		.uleb128 0xf
 1329 0a0a 4E0D0000 		.4byte	.LASF150
 1330 0a0e 08       		.byte	0x8
 1331 0a0f E001     		.2byte	0x1e0
 1332 0a11 C7020000 		.4byte	0x2c7
 1333 0a15 20       		.byte	0x20
 1334 0a16 0F       		.uleb128 0xf
 1335 0a17 59000000 		.4byte	.LASF129
ARM GAS  C:\Users\ahmedhamed\AppData\Local\Temp\ccPu5fZo.s 			page 26


 1336 0a1b 08       		.byte	0x8
 1337 0a1c E101     		.2byte	0x1e1
 1338 0a1e 8F000000 		.4byte	0x8f
 1339 0a22 34       		.byte	0x34
 1340 0a23 00       		.byte	0
 1341 0a24 13       		.uleb128 0x13
 1342 0a25 70000000 		.4byte	.LASF174
 1343 0a29 AC       		.byte	0xac
 1344 0a2a 08       		.byte	0x8
 1345 0a2b EC01     		.2byte	0x1ec
 1346 0a2d EC0B0000 		.4byte	0xbec
 1347 0a31 0F       		.uleb128 0xf
 1348 0a32 4A0C0000 		.4byte	.LASF168
 1349 0a36 08       		.byte	0x8
 1350 0a37 ED01     		.2byte	0x1ed
 1351 0a39 84000000 		.4byte	0x84
 1352 0a3d 00       		.byte	0
 1353 0a3e 0F       		.uleb128 0xf
 1354 0a3f D4000000 		.4byte	.LASF175
 1355 0a43 08       		.byte	0x8
 1356 0a44 EE01     		.2byte	0x1ee
 1357 0a46 97020000 		.4byte	0x297
 1358 0a4a 01       		.byte	0x1
 1359 0a4b 0F       		.uleb128 0xf
 1360 0a4c 15000000 		.4byte	.LASF176
 1361 0a50 08       		.byte	0x8
 1362 0a51 EF01     		.2byte	0x1ef
 1363 0a53 97020000 		.4byte	0x297
 1364 0a57 0B       		.byte	0xb
 1365 0a58 0F       		.uleb128 0xf
 1366 0a59 38000000 		.4byte	.LASF177
 1367 0a5d 08       		.byte	0x8
 1368 0a5e F001     		.2byte	0x1f0
 1369 0a60 40070000 		.4byte	0x740
 1370 0a64 15       		.byte	0x15
 1371 0a65 0F       		.uleb128 0xf
 1372 0a66 C6020000 		.4byte	.LASF178
 1373 0a6a 08       		.byte	0x8
 1374 0a6b F101     		.2byte	0x1f1
 1375 0a6d 84000000 		.4byte	0x84
 1376 0a71 21       		.byte	0x21
 1377 0a72 0F       		.uleb128 0xf
 1378 0a73 9D020000 		.4byte	.LASF179
 1379 0a77 08       		.byte	0x8
 1380 0a78 F201     		.2byte	0x1f2
 1381 0a7a 84000000 		.4byte	0x84
 1382 0a7e 22       		.byte	0x22
 1383 0a7f 0F       		.uleb128 0xf
 1384 0a80 92070000 		.4byte	.LASF180
 1385 0a84 08       		.byte	0x8
 1386 0a85 F301     		.2byte	0x1f3
 1387 0a87 40070000 		.4byte	0x740
 1388 0a8b 23       		.byte	0x23
 1389 0a8c 0F       		.uleb128 0xf
 1390 0a8d 94050000 		.4byte	.LASF181
 1391 0a91 08       		.byte	0x8
 1392 0a92 F401     		.2byte	0x1f4
ARM GAS  C:\Users\ahmedhamed\AppData\Local\Temp\ccPu5fZo.s 			page 27


 1393 0a94 84000000 		.4byte	0x84
 1394 0a98 2F       		.byte	0x2f
 1395 0a99 0F       		.uleb128 0xf
 1396 0a9a 8E000000 		.4byte	.LASF182
 1397 0a9e 08       		.byte	0x8
 1398 0a9f F501     		.2byte	0x1f5
 1399 0aa1 84000000 		.4byte	0x84
 1400 0aa5 30       		.byte	0x30
 1401 0aa6 0F       		.uleb128 0xf
 1402 0aa7 230B0000 		.4byte	.LASF183
 1403 0aab 08       		.byte	0x8
 1404 0aac F601     		.2byte	0x1f6
 1405 0aae 40070000 		.4byte	0x740
 1406 0ab2 31       		.byte	0x31
 1407 0ab3 0F       		.uleb128 0xf
 1408 0ab4 63080000 		.4byte	.LASF184
 1409 0ab8 08       		.byte	0x8
 1410 0ab9 F701     		.2byte	0x1f7
 1411 0abb 84000000 		.4byte	0x84
 1412 0abf 3D       		.byte	0x3d
 1413 0ac0 0F       		.uleb128 0xf
 1414 0ac1 A80A0000 		.4byte	.LASF185
 1415 0ac5 08       		.byte	0x8
 1416 0ac6 F801     		.2byte	0x1f8
 1417 0ac8 84000000 		.4byte	0x84
 1418 0acc 3E       		.byte	0x3e
 1419 0acd 0F       		.uleb128 0xf
 1420 0ace 36030000 		.4byte	.LASF186
 1421 0ad2 08       		.byte	0x8
 1422 0ad3 F901     		.2byte	0x1f9
 1423 0ad5 40070000 		.4byte	0x740
 1424 0ad9 3F       		.byte	0x3f
 1425 0ada 0F       		.uleb128 0xf
 1426 0adb EC090000 		.4byte	.LASF187
 1427 0adf 08       		.byte	0x8
 1428 0ae0 FA01     		.2byte	0x1fa
 1429 0ae2 84000000 		.4byte	0x84
 1430 0ae6 4B       		.byte	0x4b
 1431 0ae7 0F       		.uleb128 0xf
 1432 0ae8 66030000 		.4byte	.LASF188
 1433 0aec 08       		.byte	0x8
 1434 0aed FB01     		.2byte	0x1fb
 1435 0aef 84000000 		.4byte	0x84
 1436 0af3 4C       		.byte	0x4c
 1437 0af4 0F       		.uleb128 0xf
 1438 0af5 4E040000 		.4byte	.LASF189
 1439 0af9 08       		.byte	0x8
 1440 0afa FC01     		.2byte	0x1fc
 1441 0afc 84000000 		.4byte	0x84
 1442 0b00 4D       		.byte	0x4d
 1443 0b01 0F       		.uleb128 0xf
 1444 0b02 49020000 		.4byte	.LASF139
 1445 0b06 08       		.byte	0x8
 1446 0b07 FD01     		.2byte	0x1fd
 1447 0b09 C6000000 		.4byte	0xc6
 1448 0b0d 4E       		.byte	0x4e
 1449 0b0e 0F       		.uleb128 0xf
ARM GAS  C:\Users\ahmedhamed\AppData\Local\Temp\ccPu5fZo.s 			page 28


 1450 0b0f 17020000 		.4byte	.LASF190
 1451 0b13 08       		.byte	0x8
 1452 0b14 FE01     		.2byte	0x1fe
 1453 0b16 B0000000 		.4byte	0xb0
 1454 0b1a 52       		.byte	0x52
 1455 0b1b 0F       		.uleb128 0xf
 1456 0b1c 780B0000 		.4byte	.LASF73
 1457 0b20 08       		.byte	0x8
 1458 0b21 FF01     		.2byte	0x1ff
 1459 0b23 B7020000 		.4byte	0x2b7
 1460 0b27 54       		.byte	0x54
 1461 0b28 0F       		.uleb128 0xf
 1462 0b29 15050000 		.4byte	.LASF191
 1463 0b2d 08       		.byte	0x8
 1464 0b2e 0002     		.2byte	0x200
 1465 0b30 EC0B0000 		.4byte	0xbec
 1466 0b34 5C       		.byte	0x5c
 1467 0b35 0F       		.uleb128 0xf
 1468 0b36 B8040000 		.4byte	.LASF192
 1469 0b3a 08       		.byte	0x8
 1470 0b3b 0102     		.2byte	0x201
 1471 0b3d 84000000 		.4byte	0x84
 1472 0b41 6B       		.byte	0x6b
 1473 0b42 0F       		.uleb128 0xf
 1474 0b43 860E0000 		.4byte	.LASF193
 1475 0b47 08       		.byte	0x8
 1476 0b48 0202     		.2byte	0x202
 1477 0b4a 87020000 		.4byte	0x287
 1478 0b4e 6C       		.byte	0x6c
 1479 0b4f 0F       		.uleb128 0xf
 1480 0b50 0F030000 		.4byte	.LASF194
 1481 0b54 08       		.byte	0x8
 1482 0b55 0302     		.2byte	0x203
 1483 0b57 87020000 		.4byte	0x287
 1484 0b5b 6F       		.byte	0x6f
 1485 0b5c 0F       		.uleb128 0xf
 1486 0b5d 76050000 		.4byte	.LASF195
 1487 0b61 08       		.byte	0x8
 1488 0b62 0402     		.2byte	0x204
 1489 0b64 18090000 		.4byte	0x918
 1490 0b68 72       		.byte	0x72
 1491 0b69 0F       		.uleb128 0xf
 1492 0b6a FD030000 		.4byte	.LASF196
 1493 0b6e 08       		.byte	0x8
 1494 0b6f 0502     		.2byte	0x205
 1495 0b71 84000000 		.4byte	0x84
 1496 0b75 89       		.byte	0x89
 1497 0b76 0F       		.uleb128 0xf
 1498 0b77 4E0D0000 		.4byte	.LASF150
 1499 0b7b 08       		.byte	0x8
 1500 0b7c 0602     		.2byte	0x206
 1501 0b7e 37010000 		.4byte	0x137
 1502 0b82 8A       		.byte	0x8a
 1503 0b83 0F       		.uleb128 0xf
 1504 0b84 2A030000 		.4byte	.LASF197
 1505 0b88 08       		.byte	0x8
 1506 0b89 0702     		.2byte	0x207
ARM GAS  C:\Users\ahmedhamed\AppData\Local\Temp\ccPu5fZo.s 			page 29


 1507 0b8b 84000000 		.4byte	0x84
 1508 0b8f 9F       		.byte	0x9f
 1509 0b90 0F       		.uleb128 0xf
 1510 0b91 21010000 		.4byte	.LASF198
 1511 0b95 08       		.byte	0x8
 1512 0b96 0802     		.2byte	0x208
 1513 0b98 84000000 		.4byte	0x84
 1514 0b9c A0       		.byte	0xa0
 1515 0b9d 0F       		.uleb128 0xf
 1516 0b9e 5B0B0000 		.4byte	.LASF199
 1517 0ba2 08       		.byte	0x8
 1518 0ba3 0902     		.2byte	0x209
 1519 0ba5 84000000 		.4byte	0x84
 1520 0ba9 A1       		.byte	0xa1
 1521 0baa 0F       		.uleb128 0xf
 1522 0bab 3F0F0000 		.4byte	.LASF86
 1523 0baf 08       		.byte	0x8
 1524 0bb0 0A02     		.2byte	0x20a
 1525 0bb2 C6000000 		.4byte	0xc6
 1526 0bb6 A2       		.byte	0xa2
 1527 0bb7 0F       		.uleb128 0xf
 1528 0bb8 BE000000 		.4byte	.LASF87
 1529 0bbc 08       		.byte	0x8
 1530 0bbd 0B02     		.2byte	0x20b
 1531 0bbf B0000000 		.4byte	0xb0
 1532 0bc3 A6       		.byte	0xa6
 1533 0bc4 0F       		.uleb128 0xf
 1534 0bc5 630F0000 		.4byte	.LASF200
 1535 0bc9 08       		.byte	0x8
 1536 0bca 0C02     		.2byte	0x20c
 1537 0bcc 84000000 		.4byte	0x84
 1538 0bd0 A8       		.byte	0xa8
 1539 0bd1 0F       		.uleb128 0xf
 1540 0bd2 43080000 		.4byte	.LASF201
 1541 0bd6 08       		.byte	0x8
 1542 0bd7 0D02     		.2byte	0x20d
 1543 0bd9 84000000 		.4byte	0x84
 1544 0bdd A9       		.byte	0xa9
 1545 0bde 0F       		.uleb128 0xf
 1546 0bdf 59000000 		.4byte	.LASF129
 1547 0be3 08       		.byte	0x8
 1548 0be4 0E02     		.2byte	0x20e
 1549 0be6 8F000000 		.4byte	0x8f
 1550 0bea AA       		.byte	0xaa
 1551 0beb 00       		.byte	0
 1552 0bec 05       		.uleb128 0x5
 1553 0bed 84000000 		.4byte	0x84
 1554 0bf1 FC0B0000 		.4byte	0xbfc
 1555 0bf5 06       		.uleb128 0x6
 1556 0bf6 6B000000 		.4byte	0x6b
 1557 0bfa 0E       		.byte	0xe
 1558 0bfb 00       		.byte	0
 1559 0bfc 13       		.uleb128 0x13
 1560 0bfd F5000000 		.4byte	.LASF202
 1561 0c01 1C       		.byte	0x1c
 1562 0c02 08       		.byte	0x8
 1563 0c03 1102     		.2byte	0x211
ARM GAS  C:\Users\ahmedhamed\AppData\Local\Temp\ccPu5fZo.s 			page 30


 1564 0c05 3E0C0000 		.4byte	0xc3e
 1565 0c09 0F       		.uleb128 0xf
 1566 0c0a 9B0C0000 		.4byte	.LASF203
 1567 0c0e 08       		.byte	0x8
 1568 0c0f 1202     		.2byte	0x212
 1569 0c11 84000000 		.4byte	0x84
 1570 0c15 00       		.byte	0
 1571 0c16 0F       		.uleb128 0xf
 1572 0c17 A10C0000 		.4byte	.LASF204
 1573 0c1b 08       		.byte	0x8
 1574 0c1c 1302     		.2byte	0x213
 1575 0c1e B0000000 		.4byte	0xb0
 1576 0c22 01       		.byte	0x1
 1577 0c23 0F       		.uleb128 0xf
 1578 0c24 B0020000 		.4byte	.LASF205
 1579 0c28 08       		.byte	0x8
 1580 0c29 1402     		.2byte	0x214
 1581 0c2b C7020000 		.4byte	0x2c7
 1582 0c2f 03       		.byte	0x3
 1583 0c30 0F       		.uleb128 0xf
 1584 0c31 59000000 		.4byte	.LASF129
 1585 0c35 08       		.byte	0x8
 1586 0c36 1502     		.2byte	0x215
 1587 0c38 8F000000 		.4byte	0x8f
 1588 0c3c 18       		.byte	0x18
 1589 0c3d 00       		.byte	0
 1590 0c3e 11       		.uleb128 0x11
 1591 0c3f A6060000 		.4byte	.LASF206
 1592 0c43 7401     		.2byte	0x174
 1593 0c45 09       		.byte	0x9
 1594 0c46 5C       		.byte	0x5c
 1595 0c47 AC0C0000 		.4byte	0xcac
 1596 0c4b 09       		.uleb128 0x9
 1597 0c4c 32050000 		.4byte	.LASF207
 1598 0c50 09       		.byte	0x9
 1599 0c51 5D       		.byte	0x5d
 1600 0c52 F9010000 		.4byte	0x1f9
 1601 0c56 00       		.byte	0
 1602 0c57 09       		.uleb128 0x9
 1603 0c58 DE0C0000 		.4byte	.LASF208
 1604 0c5c 09       		.byte	0x9
 1605 0c5d 5E       		.byte	0x5e
 1606 0c5e 84000000 		.4byte	0x84
 1607 0c62 10       		.byte	0x10
 1608 0c63 09       		.uleb128 0x9
 1609 0c64 8A0A0000 		.4byte	.LASF209
 1610 0c68 09       		.byte	0x9
 1611 0c69 5F       		.byte	0x5f
 1612 0c6a D7020000 		.4byte	0x2d7
 1613 0c6e 11       		.byte	0x11
 1614 0c6f 09       		.uleb128 0x9
 1615 0c70 030F0000 		.4byte	.LASF210
 1616 0c74 09       		.byte	0x9
 1617 0c75 60       		.byte	0x60
 1618 0c76 77020000 		.4byte	0x277
 1619 0c7a 18       		.byte	0x18
 1620 0c7b 09       		.uleb128 0x9
ARM GAS  C:\Users\ahmedhamed\AppData\Local\Temp\ccPu5fZo.s 			page 31


 1621 0c7c 28000000 		.4byte	.LASF211
 1622 0c80 09       		.byte	0x9
 1623 0c81 61       		.byte	0x61
 1624 0c82 B0000000 		.4byte	0xb0
 1625 0c86 1D       		.byte	0x1d
 1626 0c87 09       		.uleb128 0x9
 1627 0c88 D7070000 		.4byte	.LASF212
 1628 0c8c 09       		.byte	0x9
 1629 0c8d 62       		.byte	0x62
 1630 0c8e B7020000 		.4byte	0x2b7
 1631 0c92 1F       		.byte	0x1f
 1632 0c93 09       		.uleb128 0x9
 1633 0c94 F3040000 		.4byte	.LASF213
 1634 0c98 09       		.byte	0x9
 1635 0c99 63       		.byte	0x63
 1636 0c9a 8F000000 		.4byte	0x8f
 1637 0c9e 28       		.byte	0x28
 1638 0c9f 09       		.uleb128 0x9
 1639 0ca0 810D0000 		.4byte	.LASF214
 1640 0ca4 09       		.byte	0x9
 1641 0ca5 64       		.byte	0x64
 1642 0ca6 AC0C0000 		.4byte	0xcac
 1643 0caa 2A       		.byte	0x2a
 1644 0cab 00       		.byte	0
 1645 0cac 05       		.uleb128 0x5
 1646 0cad 84000000 		.4byte	0x84
 1647 0cb1 BD0C0000 		.4byte	0xcbd
 1648 0cb5 12       		.uleb128 0x12
 1649 0cb6 6B000000 		.4byte	0x6b
 1650 0cba 4901     		.2byte	0x149
 1651 0cbc 00       		.byte	0
 1652 0cbd 11       		.uleb128 0x11
 1653 0cbe 370C0000 		.4byte	.LASF215
 1654 0cc2 0002     		.2byte	0x200
 1655 0cc4 09       		.byte	0x9
 1656 0cc5 67       		.byte	0x67
 1657 0cc6 F80D0000 		.4byte	0xdf8
 1658 0cca 09       		.uleb128 0x9
 1659 0ccb 420C0000 		.4byte	.LASF216
 1660 0ccf 09       		.byte	0x9
 1661 0cd0 68       		.byte	0x68
 1662 0cd1 84000000 		.4byte	0x84
 1663 0cd5 00       		.byte	0
 1664 0cd6 09       		.uleb128 0x9
 1665 0cd7 030A0000 		.4byte	.LASF217
 1666 0cdb 09       		.byte	0x9
 1667 0cdc 68       		.byte	0x68
 1668 0cdd 84000000 		.4byte	0x84
 1669 0ce1 01       		.byte	0x1
 1670 0ce2 09       		.uleb128 0x9
 1671 0ce3 BD0B0000 		.4byte	.LASF218
 1672 0ce7 09       		.byte	0x9
 1673 0ce8 68       		.byte	0x68
 1674 0ce9 84000000 		.4byte	0x84
 1675 0ced 02       		.byte	0x2
 1676 0cee 09       		.uleb128 0x9
 1677 0cef 15090000 		.4byte	.LASF84
ARM GAS  C:\Users\ahmedhamed\AppData\Local\Temp\ccPu5fZo.s 			page 32


 1678 0cf3 09       		.byte	0x9
 1679 0cf4 68       		.byte	0x68
 1680 0cf5 87020000 		.4byte	0x287
 1681 0cf9 03       		.byte	0x3
 1682 0cfa 09       		.uleb128 0x9
 1683 0cfb E6030000 		.4byte	.LASF219
 1684 0cff 09       		.byte	0x9
 1685 0d00 68       		.byte	0x68
 1686 0d01 84000000 		.4byte	0x84
 1687 0d05 06       		.byte	0x6
 1688 0d06 09       		.uleb128 0x9
 1689 0d07 7D000000 		.4byte	.LASF85
 1690 0d0b 09       		.byte	0x9
 1691 0d0c 68       		.byte	0x68
 1692 0d0d 87020000 		.4byte	0x287
 1693 0d11 07       		.byte	0x7
 1694 0d12 09       		.uleb128 0x9
 1695 0d13 830A0000 		.4byte	.LASF220
 1696 0d17 09       		.byte	0x9
 1697 0d18 68       		.byte	0x68
 1698 0d19 97020000 		.4byte	0x297
 1699 0d1d 0A       		.byte	0xa
 1700 0d1e 09       		.uleb128 0x9
 1701 0d1f 4E090000 		.4byte	.LASF221
 1702 0d23 09       		.byte	0x9
 1703 0d24 68       		.byte	0x68
 1704 0d25 B0000000 		.4byte	0xb0
 1705 0d29 14       		.byte	0x14
 1706 0d2a 09       		.uleb128 0x9
 1707 0d2b CE070000 		.4byte	.LASF222
 1708 0d2f 09       		.byte	0x9
 1709 0d30 68       		.byte	0x68
 1710 0d31 84000000 		.4byte	0x84
 1711 0d35 16       		.byte	0x16
 1712 0d36 09       		.uleb128 0x9
 1713 0d37 16080000 		.4byte	.LASF223
 1714 0d3b 09       		.byte	0x9
 1715 0d3c 68       		.byte	0x68
 1716 0d3d A5000000 		.4byte	0xa5
 1717 0d41 18       		.byte	0x18
 1718 0d42 09       		.uleb128 0x9
 1719 0d43 A1000000 		.4byte	.LASF224
 1720 0d47 09       		.byte	0x9
 1721 0d48 68       		.byte	0x68
 1722 0d49 A5000000 		.4byte	0xa5
 1723 0d4d 20       		.byte	0x20
 1724 0d4e 09       		.uleb128 0x9
 1725 0d4f 24050000 		.4byte	.LASF225
 1726 0d53 09       		.byte	0x9
 1727 0d54 68       		.byte	0x68
 1728 0d55 A5000000 		.4byte	0xa5
 1729 0d59 28       		.byte	0x28
 1730 0d5a 09       		.uleb128 0x9
 1731 0d5b 5E0A0000 		.4byte	.LASF226
 1732 0d5f 09       		.byte	0x9
 1733 0d60 68       		.byte	0x68
 1734 0d61 C6000000 		.4byte	0xc6
ARM GAS  C:\Users\ahmedhamed\AppData\Local\Temp\ccPu5fZo.s 			page 33


 1735 0d65 30       		.byte	0x30
 1736 0d66 09       		.uleb128 0x9
 1737 0d67 C60D0000 		.4byte	.LASF227
 1738 0d6b 09       		.byte	0x9
 1739 0d6c 68       		.byte	0x68
 1740 0d6d 84000000 		.4byte	0x84
 1741 0d71 34       		.byte	0x34
 1742 0d72 09       		.uleb128 0x9
 1743 0d73 FC010000 		.4byte	.LASF228
 1744 0d77 09       		.byte	0x9
 1745 0d78 68       		.byte	0x68
 1746 0d79 F80D0000 		.4byte	0xdf8
 1747 0d7d 35       		.byte	0x35
 1748 0d7e 09       		.uleb128 0x9
 1749 0d7f 51060000 		.4byte	.LASF229
 1750 0d83 09       		.byte	0x9
 1751 0d84 68       		.byte	0x68
 1752 0d85 F9010000 		.4byte	0x1f9
 1753 0d89 4F       		.byte	0x4f
 1754 0d8a 09       		.uleb128 0x9
 1755 0d8b 87050000 		.4byte	.LASF230
 1756 0d8f 09       		.byte	0x9
 1757 0d90 68       		.byte	0x68
 1758 0d91 E7020000 		.4byte	0x2e7
 1759 0d95 5F       		.byte	0x5f
 1760 0d96 09       		.uleb128 0x9
 1761 0d97 0F0A0000 		.4byte	.LASF231
 1762 0d9b 09       		.byte	0x9
 1763 0d9c 68       		.byte	0x68
 1764 0d9d 8F000000 		.4byte	0x8f
 1765 0da1 66       		.byte	0x66
 1766 0da2 09       		.uleb128 0x9
 1767 0da3 AF0D0000 		.4byte	.LASF232
 1768 0da7 09       		.byte	0x9
 1769 0da8 68       		.byte	0x68
 1770 0da9 84000000 		.4byte	0x84
 1771 0dad 68       		.byte	0x68
 1772 0dae 09       		.uleb128 0x9
 1773 0daf 9F060000 		.4byte	.LASF233
 1774 0db3 09       		.byte	0x9
 1775 0db4 68       		.byte	0x68
 1776 0db5 40070000 		.4byte	0x740
 1777 0db9 69       		.byte	0x69
 1778 0dba 09       		.uleb128 0x9
 1779 0dbb 0F040000 		.4byte	.LASF234
 1780 0dbf 09       		.byte	0x9
 1781 0dc0 68       		.byte	0x68
 1782 0dc1 8F000000 		.4byte	0x8f
 1783 0dc5 76       		.byte	0x76
 1784 0dc6 09       		.uleb128 0x9
 1785 0dc7 1E0E0000 		.4byte	.LASF235
 1786 0dcb 09       		.byte	0x9
 1787 0dcc 68       		.byte	0x68
 1788 0dcd 8F000000 		.4byte	0x8f
 1789 0dd1 78       		.byte	0x78
 1790 0dd2 09       		.uleb128 0x9
 1791 0dd3 DA0E0000 		.4byte	.LASF236
ARM GAS  C:\Users\ahmedhamed\AppData\Local\Temp\ccPu5fZo.s 			page 34


 1792 0dd7 09       		.byte	0x9
 1793 0dd8 68       		.byte	0x68
 1794 0dd9 D6000000 		.4byte	0xd6
 1795 0ddd 7C       		.byte	0x7c
 1796 0dde 09       		.uleb128 0x9
 1797 0ddf B10C0000 		.4byte	.LASF237
 1798 0de3 09       		.byte	0x9
 1799 0de4 68       		.byte	0x68
 1800 0de5 3E0C0000 		.4byte	0xc3e
 1801 0de9 84       		.byte	0x84
 1802 0dea 16       		.uleb128 0x16
 1803 0deb 59000000 		.4byte	.LASF129
 1804 0def 09       		.byte	0x9
 1805 0df0 69       		.byte	0x69
 1806 0df1 8F000000 		.4byte	0x8f
 1807 0df5 F801     		.2byte	0x1f8
 1808 0df7 00       		.byte	0
 1809 0df8 05       		.uleb128 0x5
 1810 0df9 84000000 		.4byte	0x84
 1811 0dfd 080E0000 		.4byte	0xe08
 1812 0e01 06       		.uleb128 0x6
 1813 0e02 6B000000 		.4byte	0x6b
 1814 0e06 19       		.byte	0x19
 1815 0e07 00       		.byte	0
 1816 0e08 11       		.uleb128 0x11
 1817 0e09 E2060000 		.4byte	.LASF238
 1818 0e0d F801     		.2byte	0x1f8
 1819 0e0f 09       		.byte	0x9
 1820 0e10 6C       		.byte	0x6c
 1821 0e11 360F0000 		.4byte	0xf36
 1822 0e15 09       		.uleb128 0x9
 1823 0e16 420C0000 		.4byte	.LASF216
 1824 0e1a 09       		.byte	0x9
 1825 0e1b 6D       		.byte	0x6d
 1826 0e1c 84000000 		.4byte	0x84
 1827 0e20 00       		.byte	0
 1828 0e21 09       		.uleb128 0x9
 1829 0e22 030A0000 		.4byte	.LASF217
 1830 0e26 09       		.byte	0x9
 1831 0e27 6D       		.byte	0x6d
 1832 0e28 84000000 		.4byte	0x84
 1833 0e2c 01       		.byte	0x1
 1834 0e2d 09       		.uleb128 0x9
 1835 0e2e BD0B0000 		.4byte	.LASF218
 1836 0e32 09       		.byte	0x9
 1837 0e33 6D       		.byte	0x6d
 1838 0e34 84000000 		.4byte	0x84
 1839 0e38 02       		.byte	0x2
 1840 0e39 09       		.uleb128 0x9
 1841 0e3a 15090000 		.4byte	.LASF84
 1842 0e3e 09       		.byte	0x9
 1843 0e3f 6D       		.byte	0x6d
 1844 0e40 87020000 		.4byte	0x287
 1845 0e44 03       		.byte	0x3
 1846 0e45 09       		.uleb128 0x9
 1847 0e46 E6030000 		.4byte	.LASF219
 1848 0e4a 09       		.byte	0x9
ARM GAS  C:\Users\ahmedhamed\AppData\Local\Temp\ccPu5fZo.s 			page 35


 1849 0e4b 6D       		.byte	0x6d
 1850 0e4c 84000000 		.4byte	0x84
 1851 0e50 06       		.byte	0x6
 1852 0e51 09       		.uleb128 0x9
 1853 0e52 7D000000 		.4byte	.LASF85
 1854 0e56 09       		.byte	0x9
 1855 0e57 6D       		.byte	0x6d
 1856 0e58 87020000 		.4byte	0x287
 1857 0e5c 07       		.byte	0x7
 1858 0e5d 09       		.uleb128 0x9
 1859 0e5e 830A0000 		.4byte	.LASF220
 1860 0e62 09       		.byte	0x9
 1861 0e63 6D       		.byte	0x6d
 1862 0e64 97020000 		.4byte	0x297
 1863 0e68 0A       		.byte	0xa
 1864 0e69 09       		.uleb128 0x9
 1865 0e6a 4E090000 		.4byte	.LASF221
 1866 0e6e 09       		.byte	0x9
 1867 0e6f 6D       		.byte	0x6d
 1868 0e70 B0000000 		.4byte	0xb0
 1869 0e74 14       		.byte	0x14
 1870 0e75 09       		.uleb128 0x9
 1871 0e76 CE070000 		.4byte	.LASF222
 1872 0e7a 09       		.byte	0x9
 1873 0e7b 6D       		.byte	0x6d
 1874 0e7c 84000000 		.4byte	0x84
 1875 0e80 16       		.byte	0x16
 1876 0e81 09       		.uleb128 0x9
 1877 0e82 16080000 		.4byte	.LASF223
 1878 0e86 09       		.byte	0x9
 1879 0e87 6D       		.byte	0x6d
 1880 0e88 A5000000 		.4byte	0xa5
 1881 0e8c 18       		.byte	0x18
 1882 0e8d 09       		.uleb128 0x9
 1883 0e8e A1000000 		.4byte	.LASF224
 1884 0e92 09       		.byte	0x9
 1885 0e93 6D       		.byte	0x6d
 1886 0e94 A5000000 		.4byte	0xa5
 1887 0e98 20       		.byte	0x20
 1888 0e99 09       		.uleb128 0x9
 1889 0e9a 24050000 		.4byte	.LASF225
 1890 0e9e 09       		.byte	0x9
 1891 0e9f 6D       		.byte	0x6d
 1892 0ea0 A5000000 		.4byte	0xa5
 1893 0ea4 28       		.byte	0x28
 1894 0ea5 09       		.uleb128 0x9
 1895 0ea6 5E0A0000 		.4byte	.LASF226
 1896 0eaa 09       		.byte	0x9
 1897 0eab 6D       		.byte	0x6d
 1898 0eac C6000000 		.4byte	0xc6
 1899 0eb0 30       		.byte	0x30
 1900 0eb1 09       		.uleb128 0x9
 1901 0eb2 C60D0000 		.4byte	.LASF227
 1902 0eb6 09       		.byte	0x9
 1903 0eb7 6D       		.byte	0x6d
 1904 0eb8 84000000 		.4byte	0x84
 1905 0ebc 34       		.byte	0x34
ARM GAS  C:\Users\ahmedhamed\AppData\Local\Temp\ccPu5fZo.s 			page 36


 1906 0ebd 09       		.uleb128 0x9
 1907 0ebe FC010000 		.4byte	.LASF228
 1908 0ec2 09       		.byte	0x9
 1909 0ec3 6D       		.byte	0x6d
 1910 0ec4 F80D0000 		.4byte	0xdf8
 1911 0ec8 35       		.byte	0x35
 1912 0ec9 09       		.uleb128 0x9
 1913 0eca 51060000 		.4byte	.LASF229
 1914 0ece 09       		.byte	0x9
 1915 0ecf 6D       		.byte	0x6d
 1916 0ed0 F9010000 		.4byte	0x1f9
 1917 0ed4 4F       		.byte	0x4f
 1918 0ed5 09       		.uleb128 0x9
 1919 0ed6 87050000 		.4byte	.LASF230
 1920 0eda 09       		.byte	0x9
 1921 0edb 6D       		.byte	0x6d
 1922 0edc E7020000 		.4byte	0x2e7
 1923 0ee0 5F       		.byte	0x5f
 1924 0ee1 09       		.uleb128 0x9
 1925 0ee2 0F0A0000 		.4byte	.LASF231
 1926 0ee6 09       		.byte	0x9
 1927 0ee7 6D       		.byte	0x6d
 1928 0ee8 8F000000 		.4byte	0x8f
 1929 0eec 66       		.byte	0x66
 1930 0eed 09       		.uleb128 0x9
 1931 0eee AF0D0000 		.4byte	.LASF232
 1932 0ef2 09       		.byte	0x9
 1933 0ef3 6D       		.byte	0x6d
 1934 0ef4 84000000 		.4byte	0x84
 1935 0ef8 68       		.byte	0x68
 1936 0ef9 09       		.uleb128 0x9
 1937 0efa 9F060000 		.4byte	.LASF233
 1938 0efe 09       		.byte	0x9
 1939 0eff 6D       		.byte	0x6d
 1940 0f00 40070000 		.4byte	0x740
 1941 0f04 69       		.byte	0x69
 1942 0f05 09       		.uleb128 0x9
 1943 0f06 0F040000 		.4byte	.LASF234
 1944 0f0a 09       		.byte	0x9
 1945 0f0b 6D       		.byte	0x6d
 1946 0f0c 8F000000 		.4byte	0x8f
 1947 0f10 76       		.byte	0x76
 1948 0f11 09       		.uleb128 0x9
 1949 0f12 1E0E0000 		.4byte	.LASF235
 1950 0f16 09       		.byte	0x9
 1951 0f17 6D       		.byte	0x6d
 1952 0f18 8F000000 		.4byte	0x8f
 1953 0f1c 78       		.byte	0x78
 1954 0f1d 09       		.uleb128 0x9
 1955 0f1e DA0E0000 		.4byte	.LASF236
 1956 0f22 09       		.byte	0x9
 1957 0f23 6D       		.byte	0x6d
 1958 0f24 D6000000 		.4byte	0xd6
 1959 0f28 7C       		.byte	0x7c
 1960 0f29 09       		.uleb128 0x9
 1961 0f2a B10C0000 		.4byte	.LASF237
 1962 0f2e 09       		.byte	0x9
ARM GAS  C:\Users\ahmedhamed\AppData\Local\Temp\ccPu5fZo.s 			page 37


 1963 0f2f 6D       		.byte	0x6d
 1964 0f30 3E0C0000 		.4byte	0xc3e
 1965 0f34 84       		.byte	0x84
 1966 0f35 00       		.byte	0
 1967 0f36 11       		.uleb128 0x11
 1968 0f37 BD0D0000 		.4byte	.LASF239
 1969 0f3b 0802     		.2byte	0x208
 1970 0f3d 09       		.byte	0x9
 1971 0f3e 70       		.byte	0x70
 1972 0f3f 7E100000 		.4byte	0x107e
 1973 0f43 09       		.uleb128 0x9
 1974 0f44 420C0000 		.4byte	.LASF216
 1975 0f48 09       		.byte	0x9
 1976 0f49 71       		.byte	0x71
 1977 0f4a 84000000 		.4byte	0x84
 1978 0f4e 00       		.byte	0
 1979 0f4f 09       		.uleb128 0x9
 1980 0f50 030A0000 		.4byte	.LASF217
 1981 0f54 09       		.byte	0x9
 1982 0f55 71       		.byte	0x71
 1983 0f56 84000000 		.4byte	0x84
 1984 0f5a 01       		.byte	0x1
 1985 0f5b 09       		.uleb128 0x9
 1986 0f5c BD0B0000 		.4byte	.LASF218
 1987 0f60 09       		.byte	0x9
 1988 0f61 71       		.byte	0x71
 1989 0f62 84000000 		.4byte	0x84
 1990 0f66 02       		.byte	0x2
 1991 0f67 09       		.uleb128 0x9
 1992 0f68 15090000 		.4byte	.LASF84
 1993 0f6c 09       		.byte	0x9
 1994 0f6d 71       		.byte	0x71
 1995 0f6e 87020000 		.4byte	0x287
 1996 0f72 03       		.byte	0x3
 1997 0f73 09       		.uleb128 0x9
 1998 0f74 E6030000 		.4byte	.LASF219
 1999 0f78 09       		.byte	0x9
 2000 0f79 71       		.byte	0x71
 2001 0f7a 84000000 		.4byte	0x84
 2002 0f7e 06       		.byte	0x6
 2003 0f7f 09       		.uleb128 0x9
 2004 0f80 7D000000 		.4byte	.LASF85
 2005 0f84 09       		.byte	0x9
 2006 0f85 71       		.byte	0x71
 2007 0f86 87020000 		.4byte	0x287
 2008 0f8a 07       		.byte	0x7
 2009 0f8b 09       		.uleb128 0x9
 2010 0f8c 830A0000 		.4byte	.LASF220
 2011 0f90 09       		.byte	0x9
 2012 0f91 71       		.byte	0x71
 2013 0f92 97020000 		.4byte	0x297
 2014 0f96 0A       		.byte	0xa
 2015 0f97 09       		.uleb128 0x9
 2016 0f98 4E090000 		.4byte	.LASF221
 2017 0f9c 09       		.byte	0x9
 2018 0f9d 71       		.byte	0x71
 2019 0f9e B0000000 		.4byte	0xb0
ARM GAS  C:\Users\ahmedhamed\AppData\Local\Temp\ccPu5fZo.s 			page 38


 2020 0fa2 14       		.byte	0x14
 2021 0fa3 09       		.uleb128 0x9
 2022 0fa4 CE070000 		.4byte	.LASF222
 2023 0fa8 09       		.byte	0x9
 2024 0fa9 71       		.byte	0x71
 2025 0faa 84000000 		.4byte	0x84
 2026 0fae 16       		.byte	0x16
 2027 0faf 09       		.uleb128 0x9
 2028 0fb0 16080000 		.4byte	.LASF223
 2029 0fb4 09       		.byte	0x9
 2030 0fb5 71       		.byte	0x71
 2031 0fb6 A5000000 		.4byte	0xa5
 2032 0fba 18       		.byte	0x18
 2033 0fbb 09       		.uleb128 0x9
 2034 0fbc A1000000 		.4byte	.LASF224
 2035 0fc0 09       		.byte	0x9
 2036 0fc1 71       		.byte	0x71
 2037 0fc2 A5000000 		.4byte	0xa5
 2038 0fc6 20       		.byte	0x20
 2039 0fc7 09       		.uleb128 0x9
 2040 0fc8 24050000 		.4byte	.LASF225
 2041 0fcc 09       		.byte	0x9
 2042 0fcd 71       		.byte	0x71
 2043 0fce A5000000 		.4byte	0xa5
 2044 0fd2 28       		.byte	0x28
 2045 0fd3 09       		.uleb128 0x9
 2046 0fd4 5E0A0000 		.4byte	.LASF226
 2047 0fd8 09       		.byte	0x9
 2048 0fd9 71       		.byte	0x71
 2049 0fda C6000000 		.4byte	0xc6
 2050 0fde 30       		.byte	0x30
 2051 0fdf 09       		.uleb128 0x9
 2052 0fe0 C60D0000 		.4byte	.LASF227
 2053 0fe4 09       		.byte	0x9
 2054 0fe5 71       		.byte	0x71
 2055 0fe6 84000000 		.4byte	0x84
 2056 0fea 34       		.byte	0x34
 2057 0feb 09       		.uleb128 0x9
 2058 0fec FC010000 		.4byte	.LASF228
 2059 0ff0 09       		.byte	0x9
 2060 0ff1 71       		.byte	0x71
 2061 0ff2 F80D0000 		.4byte	0xdf8
 2062 0ff6 35       		.byte	0x35
 2063 0ff7 09       		.uleb128 0x9
 2064 0ff8 51060000 		.4byte	.LASF229
 2065 0ffc 09       		.byte	0x9
 2066 0ffd 71       		.byte	0x71
 2067 0ffe F9010000 		.4byte	0x1f9
 2068 1002 4F       		.byte	0x4f
 2069 1003 09       		.uleb128 0x9
 2070 1004 87050000 		.4byte	.LASF230
 2071 1008 09       		.byte	0x9
 2072 1009 71       		.byte	0x71
 2073 100a E7020000 		.4byte	0x2e7
 2074 100e 5F       		.byte	0x5f
 2075 100f 09       		.uleb128 0x9
 2076 1010 0F0A0000 		.4byte	.LASF231
ARM GAS  C:\Users\ahmedhamed\AppData\Local\Temp\ccPu5fZo.s 			page 39


 2077 1014 09       		.byte	0x9
 2078 1015 71       		.byte	0x71
 2079 1016 8F000000 		.4byte	0x8f
 2080 101a 66       		.byte	0x66
 2081 101b 09       		.uleb128 0x9
 2082 101c AF0D0000 		.4byte	.LASF232
 2083 1020 09       		.byte	0x9
 2084 1021 71       		.byte	0x71
 2085 1022 84000000 		.4byte	0x84
 2086 1026 68       		.byte	0x68
 2087 1027 09       		.uleb128 0x9
 2088 1028 9F060000 		.4byte	.LASF233
 2089 102c 09       		.byte	0x9
 2090 102d 71       		.byte	0x71
 2091 102e 40070000 		.4byte	0x740
 2092 1032 69       		.byte	0x69
 2093 1033 09       		.uleb128 0x9
 2094 1034 0F040000 		.4byte	.LASF234
 2095 1038 09       		.byte	0x9
 2096 1039 71       		.byte	0x71
 2097 103a 8F000000 		.4byte	0x8f
 2098 103e 76       		.byte	0x76
 2099 103f 09       		.uleb128 0x9
 2100 1040 1E0E0000 		.4byte	.LASF235
 2101 1044 09       		.byte	0x9
 2102 1045 71       		.byte	0x71
 2103 1046 8F000000 		.4byte	0x8f
 2104 104a 78       		.byte	0x78
 2105 104b 09       		.uleb128 0x9
 2106 104c DA0E0000 		.4byte	.LASF236
 2107 1050 09       		.byte	0x9
 2108 1051 71       		.byte	0x71
 2109 1052 D6000000 		.4byte	0xd6
 2110 1056 7C       		.byte	0x7c
 2111 1057 09       		.uleb128 0x9
 2112 1058 B10C0000 		.4byte	.LASF237
 2113 105c 09       		.byte	0x9
 2114 105d 71       		.byte	0x71
 2115 105e 3E0C0000 		.4byte	0xc3e
 2116 1062 84       		.byte	0x84
 2117 1063 16       		.uleb128 0x16
 2118 1064 2B020000 		.4byte	.LASF240
 2119 1068 09       		.byte	0x9
 2120 1069 72       		.byte	0x72
 2121 106a 84000000 		.4byte	0x84
 2122 106e F801     		.2byte	0x1f8
 2123 1070 16       		.uleb128 0x16
 2124 1071 C1080000 		.4byte	.LASF241
 2125 1075 09       		.byte	0x9
 2126 1076 73       		.byte	0x73
 2127 1077 A5000000 		.4byte	0xa5
 2128 107b 0002     		.2byte	0x200
 2129 107d 00       		.byte	0
 2130 107e 08       		.uleb128 0x8
 2131 107f FC0D0000 		.4byte	.LASF242
 2132 1083 10       		.byte	0x10
 2133 1084 09       		.byte	0x9
ARM GAS  C:\Users\ahmedhamed\AppData\Local\Temp\ccPu5fZo.s 			page 40


 2134 1085 76       		.byte	0x76
 2135 1086 A3100000 		.4byte	0x10a3
 2136 108a 09       		.uleb128 0x9
 2137 108b 1F0A0000 		.4byte	.LASF243
 2138 108f 09       		.byte	0x9
 2139 1090 77       		.byte	0x77
 2140 1091 8F000000 		.4byte	0x8f
 2141 1095 00       		.byte	0
 2142 1096 09       		.uleb128 0x9
 2143 1097 16080000 		.4byte	.LASF223
 2144 109b 09       		.byte	0x9
 2145 109c 78       		.byte	0x78
 2146 109d A5000000 		.4byte	0xa5
 2147 10a1 08       		.byte	0x8
 2148 10a2 00       		.byte	0
 2149 10a3 08       		.uleb128 0x8
 2150 10a4 9B0A0000 		.4byte	.LASF244
 2151 10a8 68       		.byte	0x68
 2152 10a9 09       		.byte	0x9
 2153 10aa 7B       		.byte	0x7b
 2154 10ab 04110000 		.4byte	0x1104
 2155 10af 09       		.uleb128 0x9
 2156 10b0 BE030000 		.4byte	.LASF245
 2157 10b4 09       		.byte	0x9
 2158 10b5 7C       		.byte	0x7c
 2159 10b6 9A000000 		.4byte	0x9a
 2160 10ba 00       		.byte	0
 2161 10bb 09       		.uleb128 0x9
 2162 10bc 9E0F0000 		.4byte	.LASF246
 2163 10c0 09       		.byte	0x9
 2164 10c1 7D       		.byte	0x7d
 2165 10c2 7E100000 		.4byte	0x107e
 2166 10c6 08       		.byte	0x8
 2167 10c7 09       		.uleb128 0x9
 2168 10c8 CB050000 		.4byte	.LASF247
 2169 10cc 09       		.byte	0x9
 2170 10cd 7E       		.byte	0x7e
 2171 10ce 7E100000 		.4byte	0x107e
 2172 10d2 18       		.byte	0x18
 2173 10d3 09       		.uleb128 0x9
 2174 10d4 E8050000 		.4byte	.LASF248
 2175 10d8 09       		.byte	0x9
 2176 10d9 7F       		.byte	0x7f
 2177 10da 7E100000 		.4byte	0x107e
 2178 10de 28       		.byte	0x28
 2179 10df 09       		.uleb128 0x9
 2180 10e0 21090000 		.4byte	.LASF249
 2181 10e4 09       		.byte	0x9
 2182 10e5 80       		.byte	0x80
 2183 10e6 7E100000 		.4byte	0x107e
 2184 10ea 38       		.byte	0x38
 2185 10eb 09       		.uleb128 0x9
 2186 10ec 89030000 		.4byte	.LASF250
 2187 10f0 09       		.byte	0x9
 2188 10f1 81       		.byte	0x81
 2189 10f2 7E100000 		.4byte	0x107e
 2190 10f6 48       		.byte	0x48
ARM GAS  C:\Users\ahmedhamed\AppData\Local\Temp\ccPu5fZo.s 			page 41


 2191 10f7 09       		.uleb128 0x9
 2192 10f8 C2070000 		.4byte	.LASF251
 2193 10fc 09       		.byte	0x9
 2194 10fd 82       		.byte	0x82
 2195 10fe 7E100000 		.4byte	0x107e
 2196 1102 58       		.byte	0x58
 2197 1103 00       		.byte	0
 2198 1104 11       		.uleb128 0x11
 2199 1105 C50C0000 		.4byte	.LASF252
 2200 1109 5805     		.2byte	0x558
 2201 110b 09       		.byte	0x9
 2202 110c 87       		.byte	0x87
 2203 110d 52110000 		.4byte	0x1152
 2204 1111 09       		.uleb128 0x9
 2205 1112 32020000 		.4byte	.LASF253
 2206 1116 09       		.byte	0x9
 2207 1117 88       		.byte	0x88
 2208 1118 60070000 		.4byte	0x760
 2209 111c 00       		.byte	0
 2210 111d 16       		.uleb128 0x16
 2211 111e 030D0000 		.4byte	.LASF254
 2212 1122 09       		.byte	0x9
 2213 1123 89       		.byte	0x89
 2214 1124 52110000 		.4byte	0x1152
 2215 1128 8801     		.2byte	0x188
 2216 112a 16       		.uleb128 0x16
 2217 112b 4F0F0000 		.4byte	.LASF255
 2218 112f 09       		.byte	0x9
 2219 1130 8A       		.byte	0x8a
 2220 1131 62110000 		.4byte	0x1162
 2221 1135 4803     		.2byte	0x348
 2222 1137 16       		.uleb128 0x16
 2223 1138 4E0B0000 		.4byte	.LASF256
 2224 113c 09       		.byte	0x9
 2225 113d 8B       		.byte	0x8b
 2226 113e 72110000 		.4byte	0x1172
 2227 1142 A004     		.2byte	0x4a0
 2228 1144 16       		.uleb128 0x16
 2229 1145 60050000 		.4byte	.LASF257
 2230 1149 09       		.byte	0x9
 2231 114a 8C       		.byte	0x8c
 2232 114b 82110000 		.4byte	0x1182
 2233 114f 1005     		.2byte	0x510
 2234 1151 00       		.byte	0
 2235 1152 05       		.uleb128 0x5
 2236 1153 FC0B0000 		.4byte	0xbfc
 2237 1157 62110000 		.4byte	0x1162
 2238 115b 06       		.uleb128 0x6
 2239 115c 6B000000 		.4byte	0x6b
 2240 1160 0F       		.byte	0xf
 2241 1161 00       		.byte	0
 2242 1162 05       		.uleb128 0x5
 2243 1163 240A0000 		.4byte	0xa24
 2244 1167 72110000 		.4byte	0x1172
 2245 116b 06       		.uleb128 0x6
 2246 116c 6B000000 		.4byte	0x6b
 2247 1170 01       		.byte	0x1
ARM GAS  C:\Users\ahmedhamed\AppData\Local\Temp\ccPu5fZo.s 			page 42


 2248 1171 00       		.byte	0
 2249 1172 05       		.uleb128 0x5
 2250 1173 A1090000 		.4byte	0x9a1
 2251 1177 82110000 		.4byte	0x1182
 2252 117b 06       		.uleb128 0x6
 2253 117c 6B000000 		.4byte	0x6b
 2254 1180 01       		.byte	0x1
 2255 1181 00       		.byte	0
 2256 1182 05       		.uleb128 0x5
 2257 1183 38090000 		.4byte	0x938
 2258 1187 92110000 		.4byte	0x1192
 2259 118b 06       		.uleb128 0x6
 2260 118c 6B000000 		.4byte	0x6b
 2261 1190 01       		.byte	0x1
 2262 1191 00       		.byte	0
 2263 1192 08       		.uleb128 0x8
 2264 1193 650C0000 		.4byte	.LASF258
 2265 1197 04       		.byte	0x4
 2266 1198 09       		.byte	0x9
 2267 1199 8F       		.byte	0x8f
 2268 119a B7110000 		.4byte	0x11b7
 2269 119e 09       		.uleb128 0x9
 2270 119f A8000000 		.4byte	.LASF259
 2271 11a3 09       		.byte	0x9
 2272 11a4 90       		.byte	0x90
 2273 11a5 84000000 		.4byte	0x84
 2274 11a9 00       		.byte	0
 2275 11aa 09       		.uleb128 0x9
 2276 11ab 05070000 		.4byte	.LASF260
 2277 11af 09       		.byte	0x9
 2278 11b0 91       		.byte	0x91
 2279 11b1 84000000 		.4byte	0x84
 2280 11b5 01       		.byte	0x1
 2281 11b6 00       		.byte	0
 2282 11b7 11       		.uleb128 0x11
 2283 11b8 B4080000 		.4byte	.LASF261
 2284 11bc 040C     		.2byte	0xc04
 2285 11be 09       		.byte	0x9
 2286 11bf 9C       		.byte	0x9c
 2287 11c0 DD110000 		.4byte	0x11dd
 2288 11c4 09       		.uleb128 0x9
 2289 11c5 C8070000 		.4byte	.LASF262
 2290 11c9 09       		.byte	0x9
 2291 11ca 9D       		.byte	0x9d
 2292 11cb 9A000000 		.4byte	0x9a
 2293 11cf 00       		.byte	0
 2294 11d0 09       		.uleb128 0x9
 2295 11d1 950B0000 		.4byte	.LASF64
 2296 11d5 09       		.byte	0x9
 2297 11d6 9E       		.byte	0x9e
 2298 11d7 03040000 		.4byte	0x403
 2299 11db 04       		.byte	0x4
 2300 11dc 00       		.byte	0
 2301 11dd 17       		.uleb128 0x17
 2302 11de 47445300 		.ascii	"GDS\000"
 2303 11e2 6042     		.2byte	0x4260
 2304 11e4 09       		.byte	0x9
ARM GAS  C:\Users\ahmedhamed\AppData\Local\Temp\ccPu5fZo.s 			page 43


 2305 11e5 A2       		.byte	0xa2
 2306 11e6 EE120000 		.4byte	0x12ee
 2307 11ea 09       		.uleb128 0x9
 2308 11eb F3070000 		.4byte	.LASF263
 2309 11ef 09       		.byte	0x9
 2310 11f0 A4       		.byte	0xa4
 2311 11f1 04110000 		.4byte	0x1104
 2312 11f5 00       		.byte	0
 2313 11f6 16       		.uleb128 0x16
 2314 11f7 350B0000 		.4byte	.LASF264
 2315 11fb 09       		.byte	0x9
 2316 11fc A5       		.byte	0xa5
 2317 11fd 14040000 		.4byte	0x414
 2318 1201 5805     		.2byte	0x558
 2319 1203 16       		.uleb128 0x16
 2320 1204 99080000 		.4byte	.LASF265
 2321 1208 09       		.byte	0x9
 2322 1209 A7       		.byte	0xa7
 2323 120a BD0C0000 		.4byte	0xcbd
 2324 120e C806     		.2byte	0x6c8
 2325 1210 16       		.uleb128 0x16
 2326 1211 7C0E0000 		.4byte	.LASF266
 2327 1215 09       		.byte	0x9
 2328 1216 A8       		.byte	0xa8
 2329 1217 080E0000 		.4byte	0xe08
 2330 121b C808     		.2byte	0x8c8
 2331 121d 16       		.uleb128 0x16
 2332 121e 5C0C0000 		.4byte	.LASF267
 2333 1222 09       		.byte	0x9
 2334 1223 A9       		.byte	0xa9
 2335 1224 360F0000 		.4byte	0xf36
 2336 1228 C00A     		.2byte	0xac0
 2337 122a 16       		.uleb128 0x16
 2338 122b 58070000 		.4byte	.LASF268
 2339 122f 09       		.byte	0x9
 2340 1230 AA       		.byte	0xaa
 2341 1231 A3100000 		.4byte	0x10a3
 2342 1235 C80C     		.2byte	0xcc8
 2343 1237 16       		.uleb128 0x16
 2344 1238 D80A0000 		.4byte	.LASF269
 2345 123c 09       		.byte	0x9
 2346 123d AB       		.byte	0xab
 2347 123e A3100000 		.4byte	0x10a3
 2348 1242 300D     		.2byte	0xd30
 2349 1244 16       		.uleb128 0x16
 2350 1245 DD030000 		.4byte	.LASF270
 2351 1249 09       		.byte	0x9
 2352 124a AC       		.byte	0xac
 2353 124b B7110000 		.4byte	0x11b7
 2354 124f 980D     		.2byte	0xd98
 2355 1251 16       		.uleb128 0x16
 2356 1252 68000000 		.4byte	.LASF271
 2357 1256 09       		.byte	0x9
 2358 1257 AD       		.byte	0xad
 2359 1258 DA030000 		.4byte	0x3da
 2360 125c 9C19     		.2byte	0x199c
 2361 125e 16       		.uleb128 0x16
ARM GAS  C:\Users\ahmedhamed\AppData\Local\Temp\ccPu5fZo.s 			page 44


 2362 125f EE0E0000 		.4byte	.LASF272
 2363 1263 09       		.byte	0x9
 2364 1264 AE       		.byte	0xae
 2365 1265 DA030000 		.4byte	0x3da
 2366 1269 A025     		.2byte	0x25a0
 2367 126b 16       		.uleb128 0x16
 2368 126c AE070000 		.4byte	.LASF273
 2369 1270 09       		.byte	0x9
 2370 1271 AF       		.byte	0xaf
 2371 1272 EE120000 		.4byte	0x12ee
 2372 1276 A431     		.2byte	0x31a4
 2373 1278 16       		.uleb128 0x16
 2374 1279 D30D0000 		.4byte	.LASF274
 2375 127d 09       		.byte	0x9
 2376 127e B0       		.byte	0xb0
 2377 127f 2A020000 		.4byte	0x22a
 2378 1283 8037     		.2byte	0x3780
 2379 1285 16       		.uleb128 0x16
 2380 1286 2B0D0000 		.4byte	.LASF275
 2381 128a 09       		.byte	0x9
 2382 128b B1       		.byte	0xb1
 2383 128c 2A020000 		.4byte	0x22a
 2384 1290 8837     		.2byte	0x3788
 2385 1292 16       		.uleb128 0x16
 2386 1293 8D090000 		.4byte	.LASF276
 2387 1297 09       		.byte	0x9
 2388 1298 B2       		.byte	0xb2
 2389 1299 1B030000 		.4byte	0x31b
 2390 129d 9037     		.2byte	0x3790
 2391 129f 16       		.uleb128 0x16
 2392 12a0 4F070000 		.4byte	.LASF277
 2393 12a4 09       		.byte	0x9
 2394 12a5 B3       		.byte	0xb3
 2395 12a6 1B030000 		.4byte	0x31b
 2396 12aa 9837     		.2byte	0x3798
 2397 12ac 16       		.uleb128 0x16
 2398 12ad 450F0000 		.4byte	.LASF278
 2399 12b1 09       		.byte	0x9
 2400 12b2 B4       		.byte	0xb4
 2401 12b3 FF120000 		.4byte	0x12ff
 2402 12b7 A037     		.2byte	0x37a0
 2403 12b9 16       		.uleb128 0x16
 2404 12ba CF040000 		.4byte	.LASF279
 2405 12be 09       		.byte	0x9
 2406 12bf B5       		.byte	0xb5
 2407 12c0 79000000 		.4byte	0x79
 2408 12c4 503C     		.2byte	0x3c50
 2409 12c6 16       		.uleb128 0x16
 2410 12c7 5A090000 		.4byte	.LASF280
 2411 12cb 09       		.byte	0x9
 2412 12cc B6       		.byte	0xb6
 2413 12cd 92110000 		.4byte	0x1192
 2414 12d1 543C     		.2byte	0x3c54
 2415 12d3 16       		.uleb128 0x16
 2416 12d4 4B0A0000 		.4byte	.LASF281
 2417 12d8 09       		.byte	0x9
 2418 12d9 B7       		.byte	0xb7
ARM GAS  C:\Users\ahmedhamed\AppData\Local\Temp\ccPu5fZo.s 			page 45


 2419 12da 27030000 		.4byte	0x327
 2420 12de 583C     		.2byte	0x3c58
 2421 12e0 16       		.uleb128 0x16
 2422 12e1 64090000 		.4byte	.LASF282
 2423 12e5 09       		.byte	0x9
 2424 12e6 B8       		.byte	0xb8
 2425 12e7 25000000 		.4byte	0x25
 2426 12eb 5C42     		.2byte	0x425c
 2427 12ed 00       		.byte	0
 2428 12ee 05       		.uleb128 0x5
 2429 12ef 84000000 		.4byte	0x84
 2430 12f3 FF120000 		.4byte	0x12ff
 2431 12f7 12       		.uleb128 0x12
 2432 12f8 6B000000 		.4byte	0x6b
 2433 12fc DB05     		.2byte	0x5db
 2434 12fe 00       		.byte	0
 2435 12ff 05       		.uleb128 0x5
 2436 1300 6C020000 		.4byte	0x26c
 2437 1304 0F130000 		.4byte	0x130f
 2438 1308 06       		.uleb128 0x6
 2439 1309 6B000000 		.4byte	0x6b
 2440 130d 95       		.byte	0x95
 2441 130e 00       		.byte	0
 2442 130f 11       		.uleb128 0x11
 2443 1310 2C0C0000 		.4byte	.LASF283
 2444 1314 0003     		.2byte	0x300
 2445 1316 0A       		.byte	0xa
 2446 1317 33       		.byte	0x33
 2447 1318 8B140000 		.4byte	0x148b
 2448 131c 09       		.uleb128 0x9
 2449 131d 420C0000 		.4byte	.LASF216
 2450 1321 0A       		.byte	0xa
 2451 1322 34       		.byte	0x34
 2452 1323 84000000 		.4byte	0x84
 2453 1327 00       		.byte	0
 2454 1328 09       		.uleb128 0x9
 2455 1329 030A0000 		.4byte	.LASF217
 2456 132d 0A       		.byte	0xa
 2457 132e 34       		.byte	0x34
 2458 132f 84000000 		.4byte	0x84
 2459 1333 01       		.byte	0x1
 2460 1334 09       		.uleb128 0x9
 2461 1335 BD0B0000 		.4byte	.LASF218
 2462 1339 0A       		.byte	0xa
 2463 133a 34       		.byte	0x34
 2464 133b 84000000 		.4byte	0x84
 2465 133f 02       		.byte	0x2
 2466 1340 09       		.uleb128 0x9
 2467 1341 15090000 		.4byte	.LASF84
 2468 1345 0A       		.byte	0xa
 2469 1346 34       		.byte	0x34
 2470 1347 87020000 		.4byte	0x287
 2471 134b 03       		.byte	0x3
 2472 134c 09       		.uleb128 0x9
 2473 134d E6030000 		.4byte	.LASF219
 2474 1351 0A       		.byte	0xa
 2475 1352 34       		.byte	0x34
ARM GAS  C:\Users\ahmedhamed\AppData\Local\Temp\ccPu5fZo.s 			page 46


 2476 1353 84000000 		.4byte	0x84
 2477 1357 06       		.byte	0x6
 2478 1358 09       		.uleb128 0x9
 2479 1359 7D000000 		.4byte	.LASF85
 2480 135d 0A       		.byte	0xa
 2481 135e 34       		.byte	0x34
 2482 135f 87020000 		.4byte	0x287
 2483 1363 07       		.byte	0x7
 2484 1364 09       		.uleb128 0x9
 2485 1365 830A0000 		.4byte	.LASF220
 2486 1369 0A       		.byte	0xa
 2487 136a 34       		.byte	0x34
 2488 136b 97020000 		.4byte	0x297
 2489 136f 0A       		.byte	0xa
 2490 1370 09       		.uleb128 0x9
 2491 1371 4E090000 		.4byte	.LASF221
 2492 1375 0A       		.byte	0xa
 2493 1376 34       		.byte	0x34
 2494 1377 B0000000 		.4byte	0xb0
 2495 137b 14       		.byte	0x14
 2496 137c 09       		.uleb128 0x9
 2497 137d CE070000 		.4byte	.LASF222
 2498 1381 0A       		.byte	0xa
 2499 1382 34       		.byte	0x34
 2500 1383 84000000 		.4byte	0x84
 2501 1387 16       		.byte	0x16
 2502 1388 09       		.uleb128 0x9
 2503 1389 16080000 		.4byte	.LASF223
 2504 138d 0A       		.byte	0xa
 2505 138e 34       		.byte	0x34
 2506 138f A5000000 		.4byte	0xa5
 2507 1393 18       		.byte	0x18
 2508 1394 09       		.uleb128 0x9
 2509 1395 A1000000 		.4byte	.LASF224
 2510 1399 0A       		.byte	0xa
 2511 139a 34       		.byte	0x34
 2512 139b A5000000 		.4byte	0xa5
 2513 139f 20       		.byte	0x20
 2514 13a0 09       		.uleb128 0x9
 2515 13a1 24050000 		.4byte	.LASF225
 2516 13a5 0A       		.byte	0xa
 2517 13a6 34       		.byte	0x34
 2518 13a7 A5000000 		.4byte	0xa5
 2519 13ab 28       		.byte	0x28
 2520 13ac 09       		.uleb128 0x9
 2521 13ad 5E0A0000 		.4byte	.LASF226
 2522 13b1 0A       		.byte	0xa
 2523 13b2 34       		.byte	0x34
 2524 13b3 C6000000 		.4byte	0xc6
 2525 13b7 30       		.byte	0x30
 2526 13b8 09       		.uleb128 0x9
 2527 13b9 C60D0000 		.4byte	.LASF227
 2528 13bd 0A       		.byte	0xa
 2529 13be 34       		.byte	0x34
 2530 13bf 84000000 		.4byte	0x84
 2531 13c3 34       		.byte	0x34
 2532 13c4 09       		.uleb128 0x9
ARM GAS  C:\Users\ahmedhamed\AppData\Local\Temp\ccPu5fZo.s 			page 47


 2533 13c5 FC010000 		.4byte	.LASF228
 2534 13c9 0A       		.byte	0xa
 2535 13ca 34       		.byte	0x34
 2536 13cb F80D0000 		.4byte	0xdf8
 2537 13cf 35       		.byte	0x35
 2538 13d0 09       		.uleb128 0x9
 2539 13d1 51060000 		.4byte	.LASF229
 2540 13d5 0A       		.byte	0xa
 2541 13d6 34       		.byte	0x34
 2542 13d7 F9010000 		.4byte	0x1f9
 2543 13db 4F       		.byte	0x4f
 2544 13dc 09       		.uleb128 0x9
 2545 13dd 87050000 		.4byte	.LASF230
 2546 13e1 0A       		.byte	0xa
 2547 13e2 34       		.byte	0x34
 2548 13e3 E7020000 		.4byte	0x2e7
 2549 13e7 5F       		.byte	0x5f
 2550 13e8 09       		.uleb128 0x9
 2551 13e9 0F0A0000 		.4byte	.LASF231
 2552 13ed 0A       		.byte	0xa
 2553 13ee 34       		.byte	0x34
 2554 13ef 8F000000 		.4byte	0x8f
 2555 13f3 66       		.byte	0x66
 2556 13f4 09       		.uleb128 0x9
 2557 13f5 AF0D0000 		.4byte	.LASF232
 2558 13f9 0A       		.byte	0xa
 2559 13fa 34       		.byte	0x34
 2560 13fb 84000000 		.4byte	0x84
 2561 13ff 68       		.byte	0x68
 2562 1400 09       		.uleb128 0x9
 2563 1401 9F060000 		.4byte	.LASF233
 2564 1405 0A       		.byte	0xa
 2565 1406 34       		.byte	0x34
 2566 1407 40070000 		.4byte	0x740
 2567 140b 69       		.byte	0x69
 2568 140c 09       		.uleb128 0x9
 2569 140d 0F040000 		.4byte	.LASF234
 2570 1411 0A       		.byte	0xa
 2571 1412 34       		.byte	0x34
 2572 1413 8F000000 		.4byte	0x8f
 2573 1417 76       		.byte	0x76
 2574 1418 09       		.uleb128 0x9
 2575 1419 1E0E0000 		.4byte	.LASF235
 2576 141d 0A       		.byte	0xa
 2577 141e 34       		.byte	0x34
 2578 141f 8F000000 		.4byte	0x8f
 2579 1423 78       		.byte	0x78
 2580 1424 09       		.uleb128 0x9
 2581 1425 DA0E0000 		.4byte	.LASF236
 2582 1429 0A       		.byte	0xa
 2583 142a 34       		.byte	0x34
 2584 142b D6000000 		.4byte	0xd6
 2585 142f 7C       		.byte	0x7c
 2586 1430 09       		.uleb128 0x9
 2587 1431 B10C0000 		.4byte	.LASF237
 2588 1435 0A       		.byte	0xa
 2589 1436 34       		.byte	0x34
ARM GAS  C:\Users\ahmedhamed\AppData\Local\Temp\ccPu5fZo.s 			page 48


 2590 1437 3E0C0000 		.4byte	0xc3e
 2591 143b 84       		.byte	0x84
 2592 143c 16       		.uleb128 0x16
 2593 143d CD030000 		.4byte	.LASF284
 2594 1441 0A       		.byte	0xa
 2595 1442 35       		.byte	0x35
 2596 1443 B7020000 		.4byte	0x2b7
 2597 1447 F801     		.2byte	0x1f8
 2598 1449 16       		.uleb128 0x16
 2599 144a 7F0F0000 		.4byte	.LASF285
 2600 144e 0A       		.byte	0xa
 2601 144f 36       		.byte	0x36
 2602 1450 6A030000 		.4byte	0x36a
 2603 1454 0002     		.2byte	0x200
 2604 1456 16       		.uleb128 0x16
 2605 1457 78060000 		.4byte	.LASF286
 2606 145b 0A       		.byte	0xa
 2607 145c 37       		.byte	0x37
 2608 145d A2030000 		.4byte	0x3a2
 2609 1461 A002     		.2byte	0x2a0
 2610 1463 16       		.uleb128 0x16
 2611 1464 1D000000 		.4byte	.LASF287
 2612 1468 0A       		.byte	0xa
 2613 1469 38       		.byte	0x38
 2614 146a 8F000000 		.4byte	0x8f
 2615 146e F402     		.2byte	0x2f4
 2616 1470 16       		.uleb128 0x16
 2617 1471 7A030000 		.4byte	.LASF288
 2618 1475 0A       		.byte	0xa
 2619 1476 39       		.byte	0x39
 2620 1477 84000000 		.4byte	0x84
 2621 147b F602     		.2byte	0x2f6
 2622 147d 16       		.uleb128 0x16
 2623 147e 410B0000 		.4byte	.LASF289
 2624 1482 0A       		.byte	0xa
 2625 1483 3A       		.byte	0x3a
 2626 1484 C6000000 		.4byte	0xc6
 2627 1488 F702     		.2byte	0x2f7
 2628 148a 00       		.byte	0
 2629 148b 11       		.uleb128 0x11
 2630 148c CC000000 		.4byte	.LASF290
 2631 1490 0802     		.2byte	0x208
 2632 1492 0A       		.byte	0xa
 2633 1493 3D       		.byte	0x3d
 2634 1494 ED150000 		.4byte	0x15ed
 2635 1498 09       		.uleb128 0x9
 2636 1499 420C0000 		.4byte	.LASF216
 2637 149d 0A       		.byte	0xa
 2638 149e 3E       		.byte	0x3e
 2639 149f 84000000 		.4byte	0x84
 2640 14a3 00       		.byte	0
 2641 14a4 09       		.uleb128 0x9
 2642 14a5 030A0000 		.4byte	.LASF217
 2643 14a9 0A       		.byte	0xa
 2644 14aa 3E       		.byte	0x3e
 2645 14ab 84000000 		.4byte	0x84
 2646 14af 01       		.byte	0x1
ARM GAS  C:\Users\ahmedhamed\AppData\Local\Temp\ccPu5fZo.s 			page 49


 2647 14b0 09       		.uleb128 0x9
 2648 14b1 BD0B0000 		.4byte	.LASF218
 2649 14b5 0A       		.byte	0xa
 2650 14b6 3E       		.byte	0x3e
 2651 14b7 84000000 		.4byte	0x84
 2652 14bb 02       		.byte	0x2
 2653 14bc 09       		.uleb128 0x9
 2654 14bd 15090000 		.4byte	.LASF84
 2655 14c1 0A       		.byte	0xa
 2656 14c2 3E       		.byte	0x3e
 2657 14c3 87020000 		.4byte	0x287
 2658 14c7 03       		.byte	0x3
 2659 14c8 09       		.uleb128 0x9
 2660 14c9 E6030000 		.4byte	.LASF219
 2661 14cd 0A       		.byte	0xa
 2662 14ce 3E       		.byte	0x3e
 2663 14cf 84000000 		.4byte	0x84
 2664 14d3 06       		.byte	0x6
 2665 14d4 09       		.uleb128 0x9
 2666 14d5 7D000000 		.4byte	.LASF85
 2667 14d9 0A       		.byte	0xa
 2668 14da 3E       		.byte	0x3e
 2669 14db 87020000 		.4byte	0x287
 2670 14df 07       		.byte	0x7
 2671 14e0 09       		.uleb128 0x9
 2672 14e1 830A0000 		.4byte	.LASF220
 2673 14e5 0A       		.byte	0xa
 2674 14e6 3E       		.byte	0x3e
 2675 14e7 97020000 		.4byte	0x297
 2676 14eb 0A       		.byte	0xa
 2677 14ec 09       		.uleb128 0x9
 2678 14ed 4E090000 		.4byte	.LASF221
 2679 14f1 0A       		.byte	0xa
 2680 14f2 3E       		.byte	0x3e
 2681 14f3 B0000000 		.4byte	0xb0
 2682 14f7 14       		.byte	0x14
 2683 14f8 09       		.uleb128 0x9
 2684 14f9 CE070000 		.4byte	.LASF222
 2685 14fd 0A       		.byte	0xa
 2686 14fe 3E       		.byte	0x3e
 2687 14ff 84000000 		.4byte	0x84
 2688 1503 16       		.byte	0x16
 2689 1504 09       		.uleb128 0x9
 2690 1505 16080000 		.4byte	.LASF223
 2691 1509 0A       		.byte	0xa
 2692 150a 3E       		.byte	0x3e
 2693 150b A5000000 		.4byte	0xa5
 2694 150f 18       		.byte	0x18
 2695 1510 09       		.uleb128 0x9
 2696 1511 A1000000 		.4byte	.LASF224
 2697 1515 0A       		.byte	0xa
 2698 1516 3E       		.byte	0x3e
 2699 1517 A5000000 		.4byte	0xa5
 2700 151b 20       		.byte	0x20
 2701 151c 09       		.uleb128 0x9
 2702 151d 24050000 		.4byte	.LASF225
 2703 1521 0A       		.byte	0xa
ARM GAS  C:\Users\ahmedhamed\AppData\Local\Temp\ccPu5fZo.s 			page 50


 2704 1522 3E       		.byte	0x3e
 2705 1523 A5000000 		.4byte	0xa5
 2706 1527 28       		.byte	0x28
 2707 1528 09       		.uleb128 0x9
 2708 1529 5E0A0000 		.4byte	.LASF226
 2709 152d 0A       		.byte	0xa
 2710 152e 3E       		.byte	0x3e
 2711 152f C6000000 		.4byte	0xc6
 2712 1533 30       		.byte	0x30
 2713 1534 09       		.uleb128 0x9
 2714 1535 C60D0000 		.4byte	.LASF227
 2715 1539 0A       		.byte	0xa
 2716 153a 3E       		.byte	0x3e
 2717 153b 84000000 		.4byte	0x84
 2718 153f 34       		.byte	0x34
 2719 1540 09       		.uleb128 0x9
 2720 1541 FC010000 		.4byte	.LASF228
 2721 1545 0A       		.byte	0xa
 2722 1546 3E       		.byte	0x3e
 2723 1547 F80D0000 		.4byte	0xdf8
 2724 154b 35       		.byte	0x35
 2725 154c 09       		.uleb128 0x9
 2726 154d 51060000 		.4byte	.LASF229
 2727 1551 0A       		.byte	0xa
 2728 1552 3E       		.byte	0x3e
 2729 1553 F9010000 		.4byte	0x1f9
 2730 1557 4F       		.byte	0x4f
 2731 1558 09       		.uleb128 0x9
 2732 1559 87050000 		.4byte	.LASF230
 2733 155d 0A       		.byte	0xa
 2734 155e 3E       		.byte	0x3e
 2735 155f E7020000 		.4byte	0x2e7
 2736 1563 5F       		.byte	0x5f
 2737 1564 09       		.uleb128 0x9
 2738 1565 0F0A0000 		.4byte	.LASF231
 2739 1569 0A       		.byte	0xa
 2740 156a 3E       		.byte	0x3e
 2741 156b 8F000000 		.4byte	0x8f
 2742 156f 66       		.byte	0x66
 2743 1570 09       		.uleb128 0x9
 2744 1571 AF0D0000 		.4byte	.LASF232
 2745 1575 0A       		.byte	0xa
 2746 1576 3E       		.byte	0x3e
 2747 1577 84000000 		.4byte	0x84
 2748 157b 68       		.byte	0x68
 2749 157c 09       		.uleb128 0x9
 2750 157d 9F060000 		.4byte	.LASF233
 2751 1581 0A       		.byte	0xa
 2752 1582 3E       		.byte	0x3e
 2753 1583 40070000 		.4byte	0x740
 2754 1587 69       		.byte	0x69
 2755 1588 09       		.uleb128 0x9
 2756 1589 0F040000 		.4byte	.LASF234
 2757 158d 0A       		.byte	0xa
 2758 158e 3E       		.byte	0x3e
 2759 158f 8F000000 		.4byte	0x8f
 2760 1593 76       		.byte	0x76
ARM GAS  C:\Users\ahmedhamed\AppData\Local\Temp\ccPu5fZo.s 			page 51


 2761 1594 09       		.uleb128 0x9
 2762 1595 1E0E0000 		.4byte	.LASF235
 2763 1599 0A       		.byte	0xa
 2764 159a 3E       		.byte	0x3e
 2765 159b 8F000000 		.4byte	0x8f
 2766 159f 78       		.byte	0x78
 2767 15a0 09       		.uleb128 0x9
 2768 15a1 DA0E0000 		.4byte	.LASF236
 2769 15a5 0A       		.byte	0xa
 2770 15a6 3E       		.byte	0x3e
 2771 15a7 D6000000 		.4byte	0xd6
 2772 15ab 7C       		.byte	0x7c
 2773 15ac 09       		.uleb128 0x9
 2774 15ad B10C0000 		.4byte	.LASF237
 2775 15b1 0A       		.byte	0xa
 2776 15b2 3E       		.byte	0x3e
 2777 15b3 3E0C0000 		.4byte	0xc3e
 2778 15b7 84       		.byte	0x84
 2779 15b8 16       		.uleb128 0x16
 2780 15b9 CD030000 		.4byte	.LASF284
 2781 15bd 0A       		.byte	0xa
 2782 15be 3F       		.byte	0x3f
 2783 15bf B7020000 		.4byte	0x2b7
 2784 15c3 F801     		.2byte	0x1f8
 2785 15c5 16       		.uleb128 0x16
 2786 15c6 B1030000 		.4byte	.LASF291
 2787 15ca 0A       		.byte	0xa
 2788 15cb 40       		.byte	0x40
 2789 15cc 87020000 		.4byte	0x287
 2790 15d0 0002     		.2byte	0x200
 2791 15d2 16       		.uleb128 0x16
 2792 15d3 B10B0000 		.4byte	.LASF292
 2793 15d7 0A       		.byte	0xa
 2794 15d8 41       		.byte	0x41
 2795 15d9 84000000 		.4byte	0x84
 2796 15dd 0302     		.2byte	0x203
 2797 15df 16       		.uleb128 0x16
 2798 15e0 E3070000 		.4byte	.LASF293
 2799 15e4 0A       		.byte	0xa
 2800 15e5 42       		.byte	0x42
 2801 15e6 87020000 		.4byte	0x287
 2802 15ea 0402     		.2byte	0x204
 2803 15ec 00       		.byte	0
 2804 15ed 11       		.uleb128 0x11
 2805 15ee 0D080000 		.4byte	.LASF294
 2806 15f2 4802     		.2byte	0x248
 2807 15f4 0A       		.byte	0xa
 2808 15f5 45       		.byte	0x45
 2809 15f6 42170000 		.4byte	0x1742
 2810 15fa 09       		.uleb128 0x9
 2811 15fb 420C0000 		.4byte	.LASF216
 2812 15ff 0A       		.byte	0xa
 2813 1600 46       		.byte	0x46
 2814 1601 84000000 		.4byte	0x84
 2815 1605 00       		.byte	0
 2816 1606 09       		.uleb128 0x9
 2817 1607 030A0000 		.4byte	.LASF217
ARM GAS  C:\Users\ahmedhamed\AppData\Local\Temp\ccPu5fZo.s 			page 52


 2818 160b 0A       		.byte	0xa
 2819 160c 46       		.byte	0x46
 2820 160d 84000000 		.4byte	0x84
 2821 1611 01       		.byte	0x1
 2822 1612 09       		.uleb128 0x9
 2823 1613 BD0B0000 		.4byte	.LASF218
 2824 1617 0A       		.byte	0xa
 2825 1618 46       		.byte	0x46
 2826 1619 84000000 		.4byte	0x84
 2827 161d 02       		.byte	0x2
 2828 161e 09       		.uleb128 0x9
 2829 161f 15090000 		.4byte	.LASF84
 2830 1623 0A       		.byte	0xa
 2831 1624 46       		.byte	0x46
 2832 1625 87020000 		.4byte	0x287
 2833 1629 03       		.byte	0x3
 2834 162a 09       		.uleb128 0x9
 2835 162b E6030000 		.4byte	.LASF219
 2836 162f 0A       		.byte	0xa
 2837 1630 46       		.byte	0x46
 2838 1631 84000000 		.4byte	0x84
 2839 1635 06       		.byte	0x6
 2840 1636 09       		.uleb128 0x9
 2841 1637 7D000000 		.4byte	.LASF85
 2842 163b 0A       		.byte	0xa
 2843 163c 46       		.byte	0x46
 2844 163d 87020000 		.4byte	0x287
 2845 1641 07       		.byte	0x7
 2846 1642 09       		.uleb128 0x9
 2847 1643 830A0000 		.4byte	.LASF220
 2848 1647 0A       		.byte	0xa
 2849 1648 46       		.byte	0x46
 2850 1649 97020000 		.4byte	0x297
 2851 164d 0A       		.byte	0xa
 2852 164e 09       		.uleb128 0x9
 2853 164f 4E090000 		.4byte	.LASF221
 2854 1653 0A       		.byte	0xa
 2855 1654 46       		.byte	0x46
 2856 1655 B0000000 		.4byte	0xb0
 2857 1659 14       		.byte	0x14
 2858 165a 09       		.uleb128 0x9
 2859 165b CE070000 		.4byte	.LASF222
 2860 165f 0A       		.byte	0xa
 2861 1660 46       		.byte	0x46
 2862 1661 84000000 		.4byte	0x84
 2863 1665 16       		.byte	0x16
 2864 1666 09       		.uleb128 0x9
 2865 1667 16080000 		.4byte	.LASF223
 2866 166b 0A       		.byte	0xa
 2867 166c 46       		.byte	0x46
 2868 166d A5000000 		.4byte	0xa5
 2869 1671 18       		.byte	0x18
 2870 1672 09       		.uleb128 0x9
 2871 1673 A1000000 		.4byte	.LASF224
 2872 1677 0A       		.byte	0xa
 2873 1678 46       		.byte	0x46
 2874 1679 A5000000 		.4byte	0xa5
ARM GAS  C:\Users\ahmedhamed\AppData\Local\Temp\ccPu5fZo.s 			page 53


 2875 167d 20       		.byte	0x20
 2876 167e 09       		.uleb128 0x9
 2877 167f 24050000 		.4byte	.LASF225
 2878 1683 0A       		.byte	0xa
 2879 1684 46       		.byte	0x46
 2880 1685 A5000000 		.4byte	0xa5
 2881 1689 28       		.byte	0x28
 2882 168a 09       		.uleb128 0x9
 2883 168b 5E0A0000 		.4byte	.LASF226
 2884 168f 0A       		.byte	0xa
 2885 1690 46       		.byte	0x46
 2886 1691 C6000000 		.4byte	0xc6
 2887 1695 30       		.byte	0x30
 2888 1696 09       		.uleb128 0x9
 2889 1697 C60D0000 		.4byte	.LASF227
 2890 169b 0A       		.byte	0xa
 2891 169c 46       		.byte	0x46
 2892 169d 84000000 		.4byte	0x84
 2893 16a1 34       		.byte	0x34
 2894 16a2 09       		.uleb128 0x9
 2895 16a3 FC010000 		.4byte	.LASF228
 2896 16a7 0A       		.byte	0xa
 2897 16a8 46       		.byte	0x46
 2898 16a9 F80D0000 		.4byte	0xdf8
 2899 16ad 35       		.byte	0x35
 2900 16ae 09       		.uleb128 0x9
 2901 16af 51060000 		.4byte	.LASF229
 2902 16b3 0A       		.byte	0xa
 2903 16b4 46       		.byte	0x46
 2904 16b5 F9010000 		.4byte	0x1f9
 2905 16b9 4F       		.byte	0x4f
 2906 16ba 09       		.uleb128 0x9
 2907 16bb 87050000 		.4byte	.LASF230
 2908 16bf 0A       		.byte	0xa
 2909 16c0 46       		.byte	0x46
 2910 16c1 E7020000 		.4byte	0x2e7
 2911 16c5 5F       		.byte	0x5f
 2912 16c6 09       		.uleb128 0x9
 2913 16c7 0F0A0000 		.4byte	.LASF231
 2914 16cb 0A       		.byte	0xa
 2915 16cc 46       		.byte	0x46
 2916 16cd 8F000000 		.4byte	0x8f
 2917 16d1 66       		.byte	0x66
 2918 16d2 09       		.uleb128 0x9
 2919 16d3 AF0D0000 		.4byte	.LASF232
 2920 16d7 0A       		.byte	0xa
 2921 16d8 46       		.byte	0x46
 2922 16d9 84000000 		.4byte	0x84
 2923 16dd 68       		.byte	0x68
 2924 16de 09       		.uleb128 0x9
 2925 16df 9F060000 		.4byte	.LASF233
 2926 16e3 0A       		.byte	0xa
 2927 16e4 46       		.byte	0x46
 2928 16e5 40070000 		.4byte	0x740
 2929 16e9 69       		.byte	0x69
 2930 16ea 09       		.uleb128 0x9
 2931 16eb 0F040000 		.4byte	.LASF234
ARM GAS  C:\Users\ahmedhamed\AppData\Local\Temp\ccPu5fZo.s 			page 54


 2932 16ef 0A       		.byte	0xa
 2933 16f0 46       		.byte	0x46
 2934 16f1 8F000000 		.4byte	0x8f
 2935 16f5 76       		.byte	0x76
 2936 16f6 09       		.uleb128 0x9
 2937 16f7 1E0E0000 		.4byte	.LASF235
 2938 16fb 0A       		.byte	0xa
 2939 16fc 46       		.byte	0x46
 2940 16fd 8F000000 		.4byte	0x8f
 2941 1701 78       		.byte	0x78
 2942 1702 09       		.uleb128 0x9
 2943 1703 DA0E0000 		.4byte	.LASF236
 2944 1707 0A       		.byte	0xa
 2945 1708 46       		.byte	0x46
 2946 1709 D6000000 		.4byte	0xd6
 2947 170d 7C       		.byte	0x7c
 2948 170e 09       		.uleb128 0x9
 2949 170f B10C0000 		.4byte	.LASF237
 2950 1713 0A       		.byte	0xa
 2951 1714 46       		.byte	0x46
 2952 1715 3E0C0000 		.4byte	0xc3e
 2953 1719 84       		.byte	0x84
 2954 171a 16       		.uleb128 0x16
 2955 171b 6B050000 		.4byte	.LASF295
 2956 171f 0A       		.byte	0xa
 2957 1720 47       		.byte	0x47
 2958 1721 84000000 		.4byte	0x84
 2959 1725 F801     		.2byte	0x1f8
 2960 1727 16       		.uleb128 0x16
 2961 1728 B9060000 		.4byte	.LASF296
 2962 172c 0A       		.byte	0xa
 2963 172d 48       		.byte	0x48
 2964 172e 42170000 		.4byte	0x1742
 2965 1732 F901     		.2byte	0x1f9
 2966 1734 16       		.uleb128 0x16
 2967 1735 68060000 		.4byte	.LASF297
 2968 1739 0A       		.byte	0xa
 2969 173a 49       		.byte	0x49
 2970 173b 87020000 		.4byte	0x287
 2971 173f 3F02     		.2byte	0x23f
 2972 1741 00       		.byte	0
 2973 1742 05       		.uleb128 0x5
 2974 1743 84000000 		.4byte	0x84
 2975 1747 52170000 		.4byte	0x1752
 2976 174b 06       		.uleb128 0x6
 2977 174c 6B000000 		.4byte	0x6b
 2978 1750 45       		.byte	0x45
 2979 1751 00       		.byte	0
 2980 1752 11       		.uleb128 0x11
 2981 1753 4D080000 		.4byte	.LASF298
 2982 1757 5007     		.2byte	0x750
 2983 1759 0A       		.byte	0xa
 2984 175a 4F       		.byte	0x4f
 2985 175b 86170000 		.4byte	0x1786
 2986 175f 09       		.uleb128 0x9
 2987 1760 A9030000 		.4byte	.LASF299
 2988 1764 0A       		.byte	0xa
ARM GAS  C:\Users\ahmedhamed\AppData\Local\Temp\ccPu5fZo.s 			page 55


 2989 1765 50       		.byte	0x50
 2990 1766 0F130000 		.4byte	0x130f
 2991 176a 00       		.byte	0
 2992 176b 16       		.uleb128 0x16
 2993 176c 95090000 		.4byte	.LASF300
 2994 1770 0A       		.byte	0xa
 2995 1771 51       		.byte	0x51
 2996 1772 8B140000 		.4byte	0x148b
 2997 1776 0003     		.2byte	0x300
 2998 1778 16       		.uleb128 0x16
 2999 1779 5A0D0000 		.4byte	.LASF301
 3000 177d 0A       		.byte	0xa
 3001 177e 52       		.byte	0x52
 3002 177f ED150000 		.4byte	0x15ed
 3003 1783 0805     		.2byte	0x508
 3004 1785 00       		.byte	0
 3005 1786 18       		.uleb128 0x18
 3006 1787 E00E0000 		.4byte	.LASF315
 3007 178b 01       		.byte	0x1
 3008 178c 3C       		.byte	0x3c
 3009 178d 9A000000 		.4byte	0x9a
 3010 1791 00000000 		.4byte	.LFB0
 3011 1795 6C000000 		.4byte	.LFE0-.LFB0
 3012 1799 01       		.uleb128 0x1
 3013 179a 9C       		.byte	0x9c
 3014 179b 40180000 		.4byte	0x1840
 3015 179f 19       		.uleb128 0x19
 3016 17a0 DF000000 		.4byte	.LASF316
 3017 17a4 01       		.byte	0x1
 3018 17a5 3C       		.byte	0x3c
 3019 17a6 9A000000 		.4byte	0x9a
 3020 17aa 00000000 		.4byte	.LLST0
 3021 17ae 1A       		.uleb128 0x1a
 3022 17af 10000000 		.4byte	.LVL2
 3023 17b3 5C180000 		.4byte	0x185c
 3024 17b7 C1170000 		.4byte	0x17c1
 3025 17bb 1B       		.uleb128 0x1b
 3026 17bc 01       		.uleb128 0x1
 3027 17bd 50       		.byte	0x50
 3028 17be 01       		.uleb128 0x1
 3029 17bf 30       		.byte	0x30
 3030 17c0 00       		.byte	0
 3031 17c1 1C       		.uleb128 0x1c
 3032 17c2 14000000 		.4byte	.LVL3
 3033 17c6 6D180000 		.4byte	0x186d
 3034 17ca 1C       		.uleb128 0x1c
 3035 17cb 18000000 		.4byte	.LVL4
 3036 17cf 74180000 		.4byte	0x1874
 3037 17d3 1A       		.uleb128 0x1a
 3038 17d4 1E000000 		.4byte	.LVL5
 3039 17d8 7B180000 		.4byte	0x187b
 3040 17dc E7170000 		.4byte	0x17e7
 3041 17e0 1B       		.uleb128 0x1b
 3042 17e1 01       		.uleb128 0x1
 3043 17e2 50       		.byte	0x50
 3044 17e3 02       		.uleb128 0x2
 3045 17e4 75       		.byte	0x75
ARM GAS  C:\Users\ahmedhamed\AppData\Local\Temp\ccPu5fZo.s 			page 56


 3046 17e5 00       		.sleb128 0
 3047 17e6 00       		.byte	0
 3048 17e7 1A       		.uleb128 0x1a
 3049 17e8 26000000 		.4byte	.LVL6
 3050 17ec 90180000 		.4byte	0x1890
 3051 17f0 FA170000 		.4byte	0x17fa
 3052 17f4 1B       		.uleb128 0x1b
 3053 17f5 01       		.uleb128 0x1
 3054 17f6 50       		.byte	0x50
 3055 17f7 01       		.uleb128 0x1
 3056 17f8 30       		.byte	0x30
 3057 17f9 00       		.byte	0
 3058 17fa 1C       		.uleb128 0x1c
 3059 17fb 2E000000 		.4byte	.LVL8
 3060 17ff A1180000 		.4byte	0x18a1
 3061 1803 1C       		.uleb128 0x1c
 3062 1804 3E000000 		.4byte	.LVL9
 3063 1808 5C180000 		.4byte	0x185c
 3064 180c 1C       		.uleb128 0x1c
 3065 180d 4C000000 		.4byte	.LVL10
 3066 1811 AC180000 		.4byte	0x18ac
 3067 1815 1C       		.uleb128 0x1c
 3068 1816 50000000 		.4byte	.LVL11
 3069 181a B3180000 		.4byte	0x18b3
 3070 181e 1C       		.uleb128 0x1c
 3071 181f 54000000 		.4byte	.LVL12
 3072 1823 BA180000 		.4byte	0x18ba
 3073 1827 1C       		.uleb128 0x1c
 3074 1828 58000000 		.4byte	.LVL13
 3075 182c C1180000 		.4byte	0x18c1
 3076 1830 1D       		.uleb128 0x1d
 3077 1831 5E000000 		.4byte	.LVL14
 3078 1835 C8180000 		.4byte	0x18c8
 3079 1839 1B       		.uleb128 0x1b
 3080 183a 01       		.uleb128 0x1
 3081 183b 50       		.byte	0x50
 3082 183c 01       		.uleb128 0x1
 3083 183d 31       		.byte	0x31
 3084 183e 00       		.byte	0
 3085 183f 00       		.byte	0
 3086 1840 1E       		.uleb128 0x1e
 3087 1841 EE0A0000 		.4byte	.LASF302
 3088 1845 09       		.byte	0x9
 3089 1846 BA       		.byte	0xba
 3090 1847 4B180000 		.4byte	0x184b
 3091 184b 07       		.uleb128 0x7
 3092 184c 04       		.byte	0x4
 3093 184d DD110000 		.4byte	0x11dd
 3094 1851 1E       		.uleb128 0x1e
 3095 1852 E60B0000 		.4byte	.LASF303
 3096 1856 0A       		.byte	0xa
 3097 1857 54       		.byte	0x54
 3098 1858 52170000 		.4byte	0x1752
 3099 185c 1F       		.uleb128 0x1f
 3100 185d FA060000 		.4byte	.LASF306
 3101 1861 0A       		.byte	0xa
 3102 1862 61       		.byte	0x61
ARM GAS  C:\Users\ahmedhamed\AppData\Local\Temp\ccPu5fZo.s 			page 57


 3103 1863 6D180000 		.4byte	0x186d
 3104 1867 20       		.uleb128 0x20
 3105 1868 C0000000 		.4byte	0xc0
 3106 186c 00       		.byte	0
 3107 186d 21       		.uleb128 0x21
 3108 186e 58080000 		.4byte	.LASF304
 3109 1872 0A       		.byte	0xa
 3110 1873 72       		.byte	0x72
 3111 1874 21       		.uleb128 0x21
 3112 1875 B7070000 		.4byte	.LASF305
 3113 1879 0A       		.byte	0xa
 3114 187a 77       		.byte	0x77
 3115 187b 22       		.uleb128 0x22
 3116 187c DC020000 		.4byte	.LASF317
 3117 1880 0A       		.byte	0xa
 3118 1881 65       		.byte	0x65
 3119 1882 79000000 		.4byte	0x79
 3120 1886 90180000 		.4byte	0x1890
 3121 188a 20       		.uleb128 0x20
 3122 188b 9A000000 		.4byte	0x9a
 3123 188f 00       		.byte	0
 3124 1890 1F       		.uleb128 0x1f
 3125 1891 320A0000 		.4byte	.LASF307
 3126 1895 09       		.byte	0x9
 3127 1896 E8       		.byte	0xe8
 3128 1897 A1180000 		.4byte	0x18a1
 3129 189b 20       		.uleb128 0x20
 3130 189c 9A000000 		.4byte	0x9a
 3131 18a0 00       		.byte	0
 3132 18a1 23       		.uleb128 0x23
 3133 18a2 0D0F0000 		.4byte	.LASF318
 3134 18a6 0D       		.byte	0xd
 3135 18a7 34       		.byte	0x34
 3136 18a8 79000000 		.4byte	0x79
 3137 18ac 21       		.uleb128 0x21
 3138 18ad BB090000 		.4byte	.LASF308
 3139 18b1 0A       		.byte	0xa
 3140 18b2 73       		.byte	0x73
 3141 18b3 21       		.uleb128 0x21
 3142 18b4 AF060000 		.4byte	.LASF309
 3143 18b8 0A       		.byte	0xa
 3144 18b9 5E       		.byte	0x5e
 3145 18ba 21       		.uleb128 0x21
 3146 18bb BD0E0000 		.4byte	.LASF310
 3147 18bf 0B       		.byte	0xb
 3148 18c0 2F       		.byte	0x2f
 3149 18c1 21       		.uleb128 0x21
 3150 18c2 26040000 		.4byte	.LASF311
 3151 18c6 0A       		.byte	0xa
 3152 18c7 60       		.byte	0x60
 3153 18c8 24       		.uleb128 0x24
 3154 18c9 19070000 		.4byte	.LASF319
 3155 18cd 0A       		.byte	0xa
 3156 18ce 69       		.byte	0x69
 3157 18cf 20       		.uleb128 0x20
 3158 18d0 79000000 		.4byte	0x79
 3159 18d4 00       		.byte	0
ARM GAS  C:\Users\ahmedhamed\AppData\Local\Temp\ccPu5fZo.s 			page 58


 3160 18d5 00       		.byte	0
 3161              		.section	.debug_abbrev,"",%progbits
 3162              	.Ldebug_abbrev0:
 3163 0000 01       		.uleb128 0x1
 3164 0001 11       		.uleb128 0x11
 3165 0002 01       		.byte	0x1
 3166 0003 25       		.uleb128 0x25
 3167 0004 0E       		.uleb128 0xe
 3168 0005 13       		.uleb128 0x13
 3169 0006 0B       		.uleb128 0xb
 3170 0007 03       		.uleb128 0x3
 3171 0008 0E       		.uleb128 0xe
 3172 0009 1B       		.uleb128 0x1b
 3173 000a 0E       		.uleb128 0xe
 3174 000b 55       		.uleb128 0x55
 3175 000c 17       		.uleb128 0x17
 3176 000d 11       		.uleb128 0x11
 3177 000e 01       		.uleb128 0x1
 3178 000f 10       		.uleb128 0x10
 3179 0010 17       		.uleb128 0x17
 3180 0011 00       		.byte	0
 3181 0012 00       		.byte	0
 3182 0013 02       		.uleb128 0x2
 3183 0014 24       		.uleb128 0x24
 3184 0015 00       		.byte	0
 3185 0016 0B       		.uleb128 0xb
 3186 0017 0B       		.uleb128 0xb
 3187 0018 3E       		.uleb128 0x3e
 3188 0019 0B       		.uleb128 0xb
 3189 001a 03       		.uleb128 0x3
 3190 001b 08       		.uleb128 0x8
 3191 001c 00       		.byte	0
 3192 001d 00       		.byte	0
 3193 001e 03       		.uleb128 0x3
 3194 001f 24       		.uleb128 0x24
 3195 0020 00       		.byte	0
 3196 0021 0B       		.uleb128 0xb
 3197 0022 0B       		.uleb128 0xb
 3198 0023 3E       		.uleb128 0x3e
 3199 0024 0B       		.uleb128 0xb
 3200 0025 03       		.uleb128 0x3
 3201 0026 0E       		.uleb128 0xe
 3202 0027 00       		.byte	0
 3203 0028 00       		.byte	0
 3204 0029 04       		.uleb128 0x4
 3205 002a 16       		.uleb128 0x16
 3206 002b 00       		.byte	0
 3207 002c 03       		.uleb128 0x3
 3208 002d 0E       		.uleb128 0xe
 3209 002e 3A       		.uleb128 0x3a
 3210 002f 0B       		.uleb128 0xb
 3211 0030 3B       		.uleb128 0x3b
 3212 0031 0B       		.uleb128 0xb
 3213 0032 49       		.uleb128 0x49
 3214 0033 13       		.uleb128 0x13
 3215 0034 00       		.byte	0
 3216 0035 00       		.byte	0
ARM GAS  C:\Users\ahmedhamed\AppData\Local\Temp\ccPu5fZo.s 			page 59


 3217 0036 05       		.uleb128 0x5
 3218 0037 01       		.uleb128 0x1
 3219 0038 01       		.byte	0x1
 3220 0039 49       		.uleb128 0x49
 3221 003a 13       		.uleb128 0x13
 3222 003b 01       		.uleb128 0x1
 3223 003c 13       		.uleb128 0x13
 3224 003d 00       		.byte	0
 3225 003e 00       		.byte	0
 3226 003f 06       		.uleb128 0x6
 3227 0040 21       		.uleb128 0x21
 3228 0041 00       		.byte	0
 3229 0042 49       		.uleb128 0x49
 3230 0043 13       		.uleb128 0x13
 3231 0044 2F       		.uleb128 0x2f
 3232 0045 0B       		.uleb128 0xb
 3233 0046 00       		.byte	0
 3234 0047 00       		.byte	0
 3235 0048 07       		.uleb128 0x7
 3236 0049 0F       		.uleb128 0xf
 3237 004a 00       		.byte	0
 3238 004b 0B       		.uleb128 0xb
 3239 004c 0B       		.uleb128 0xb
 3240 004d 49       		.uleb128 0x49
 3241 004e 13       		.uleb128 0x13
 3242 004f 00       		.byte	0
 3243 0050 00       		.byte	0
 3244 0051 08       		.uleb128 0x8
 3245 0052 13       		.uleb128 0x13
 3246 0053 01       		.byte	0x1
 3247 0054 03       		.uleb128 0x3
 3248 0055 0E       		.uleb128 0xe
 3249 0056 0B       		.uleb128 0xb
 3250 0057 0B       		.uleb128 0xb
 3251 0058 3A       		.uleb128 0x3a
 3252 0059 0B       		.uleb128 0xb
 3253 005a 3B       		.uleb128 0x3b
 3254 005b 0B       		.uleb128 0xb
 3255 005c 01       		.uleb128 0x1
 3256 005d 13       		.uleb128 0x13
 3257 005e 00       		.byte	0
 3258 005f 00       		.byte	0
 3259 0060 09       		.uleb128 0x9
 3260 0061 0D       		.uleb128 0xd
 3261 0062 00       		.byte	0
 3262 0063 03       		.uleb128 0x3
 3263 0064 0E       		.uleb128 0xe
 3264 0065 3A       		.uleb128 0x3a
 3265 0066 0B       		.uleb128 0xb
 3266 0067 3B       		.uleb128 0x3b
 3267 0068 0B       		.uleb128 0xb
 3268 0069 49       		.uleb128 0x49
 3269 006a 13       		.uleb128 0x13
 3270 006b 38       		.uleb128 0x38
 3271 006c 0B       		.uleb128 0xb
 3272 006d 00       		.byte	0
 3273 006e 00       		.byte	0
ARM GAS  C:\Users\ahmedhamed\AppData\Local\Temp\ccPu5fZo.s 			page 60


 3274 006f 0A       		.uleb128 0xa
 3275 0070 04       		.uleb128 0x4
 3276 0071 01       		.byte	0x1
 3277 0072 0B       		.uleb128 0xb
 3278 0073 0B       		.uleb128 0xb
 3279 0074 3A       		.uleb128 0x3a
 3280 0075 0B       		.uleb128 0xb
 3281 0076 3B       		.uleb128 0x3b
 3282 0077 0B       		.uleb128 0xb
 3283 0078 01       		.uleb128 0x1
 3284 0079 13       		.uleb128 0x13
 3285 007a 00       		.byte	0
 3286 007b 00       		.byte	0
 3287 007c 0B       		.uleb128 0xb
 3288 007d 28       		.uleb128 0x28
 3289 007e 00       		.byte	0
 3290 007f 03       		.uleb128 0x3
 3291 0080 0E       		.uleb128 0xe
 3292 0081 1C       		.uleb128 0x1c
 3293 0082 0D       		.uleb128 0xd
 3294 0083 00       		.byte	0
 3295 0084 00       		.byte	0
 3296 0085 0C       		.uleb128 0xc
 3297 0086 13       		.uleb128 0x13
 3298 0087 01       		.byte	0x1
 3299 0088 0B       		.uleb128 0xb
 3300 0089 0B       		.uleb128 0xb
 3301 008a 3A       		.uleb128 0x3a
 3302 008b 0B       		.uleb128 0xb
 3303 008c 3B       		.uleb128 0x3b
 3304 008d 0B       		.uleb128 0xb
 3305 008e 01       		.uleb128 0x1
 3306 008f 13       		.uleb128 0x13
 3307 0090 00       		.byte	0
 3308 0091 00       		.byte	0
 3309 0092 0D       		.uleb128 0xd
 3310 0093 16       		.uleb128 0x16
 3311 0094 00       		.byte	0
 3312 0095 03       		.uleb128 0x3
 3313 0096 08       		.uleb128 0x8
 3314 0097 3A       		.uleb128 0x3a
 3315 0098 0B       		.uleb128 0xb
 3316 0099 3B       		.uleb128 0x3b
 3317 009a 0B       		.uleb128 0xb
 3318 009b 49       		.uleb128 0x49
 3319 009c 13       		.uleb128 0x13
 3320 009d 00       		.byte	0
 3321 009e 00       		.byte	0
 3322 009f 0E       		.uleb128 0xe
 3323 00a0 13       		.uleb128 0x13
 3324 00a1 01       		.byte	0x1
 3325 00a2 0B       		.uleb128 0xb
 3326 00a3 0B       		.uleb128 0xb
 3327 00a4 3A       		.uleb128 0x3a
 3328 00a5 0B       		.uleb128 0xb
 3329 00a6 3B       		.uleb128 0x3b
 3330 00a7 05       		.uleb128 0x5
ARM GAS  C:\Users\ahmedhamed\AppData\Local\Temp\ccPu5fZo.s 			page 61


 3331 00a8 01       		.uleb128 0x1
 3332 00a9 13       		.uleb128 0x13
 3333 00aa 00       		.byte	0
 3334 00ab 00       		.byte	0
 3335 00ac 0F       		.uleb128 0xf
 3336 00ad 0D       		.uleb128 0xd
 3337 00ae 00       		.byte	0
 3338 00af 03       		.uleb128 0x3
 3339 00b0 0E       		.uleb128 0xe
 3340 00b1 3A       		.uleb128 0x3a
 3341 00b2 0B       		.uleb128 0xb
 3342 00b3 3B       		.uleb128 0x3b
 3343 00b4 05       		.uleb128 0x5
 3344 00b5 49       		.uleb128 0x49
 3345 00b6 13       		.uleb128 0x13
 3346 00b7 38       		.uleb128 0x38
 3347 00b8 0B       		.uleb128 0xb
 3348 00b9 00       		.byte	0
 3349 00ba 00       		.byte	0
 3350 00bb 10       		.uleb128 0x10
 3351 00bc 16       		.uleb128 0x16
 3352 00bd 00       		.byte	0
 3353 00be 03       		.uleb128 0x3
 3354 00bf 0E       		.uleb128 0xe
 3355 00c0 3A       		.uleb128 0x3a
 3356 00c1 0B       		.uleb128 0xb
 3357 00c2 3B       		.uleb128 0x3b
 3358 00c3 05       		.uleb128 0x5
 3359 00c4 49       		.uleb128 0x49
 3360 00c5 13       		.uleb128 0x13
 3361 00c6 00       		.byte	0
 3362 00c7 00       		.byte	0
 3363 00c8 11       		.uleb128 0x11
 3364 00c9 13       		.uleb128 0x13
 3365 00ca 01       		.byte	0x1
 3366 00cb 03       		.uleb128 0x3
 3367 00cc 0E       		.uleb128 0xe
 3368 00cd 0B       		.uleb128 0xb
 3369 00ce 05       		.uleb128 0x5
 3370 00cf 3A       		.uleb128 0x3a
 3371 00d0 0B       		.uleb128 0xb
 3372 00d1 3B       		.uleb128 0x3b
 3373 00d2 0B       		.uleb128 0xb
 3374 00d3 01       		.uleb128 0x1
 3375 00d4 13       		.uleb128 0x13
 3376 00d5 00       		.byte	0
 3377 00d6 00       		.byte	0
 3378 00d7 12       		.uleb128 0x12
 3379 00d8 21       		.uleb128 0x21
 3380 00d9 00       		.byte	0
 3381 00da 49       		.uleb128 0x49
 3382 00db 13       		.uleb128 0x13
 3383 00dc 2F       		.uleb128 0x2f
 3384 00dd 05       		.uleb128 0x5
 3385 00de 00       		.byte	0
 3386 00df 00       		.byte	0
 3387 00e0 13       		.uleb128 0x13
ARM GAS  C:\Users\ahmedhamed\AppData\Local\Temp\ccPu5fZo.s 			page 62


 3388 00e1 13       		.uleb128 0x13
 3389 00e2 01       		.byte	0x1
 3390 00e3 03       		.uleb128 0x3
 3391 00e4 0E       		.uleb128 0xe
 3392 00e5 0B       		.uleb128 0xb
 3393 00e6 0B       		.uleb128 0xb
 3394 00e7 3A       		.uleb128 0x3a
 3395 00e8 0B       		.uleb128 0xb
 3396 00e9 3B       		.uleb128 0x3b
 3397 00ea 05       		.uleb128 0x5
 3398 00eb 01       		.uleb128 0x1
 3399 00ec 13       		.uleb128 0x13
 3400 00ed 00       		.byte	0
 3401 00ee 00       		.byte	0
 3402 00ef 14       		.uleb128 0x14
 3403 00f0 13       		.uleb128 0x13
 3404 00f1 01       		.byte	0x1
 3405 00f2 03       		.uleb128 0x3
 3406 00f3 0E       		.uleb128 0xe
 3407 00f4 0B       		.uleb128 0xb
 3408 00f5 05       		.uleb128 0x5
 3409 00f6 3A       		.uleb128 0x3a
 3410 00f7 0B       		.uleb128 0xb
 3411 00f8 3B       		.uleb128 0x3b
 3412 00f9 05       		.uleb128 0x5
 3413 00fa 01       		.uleb128 0x1
 3414 00fb 13       		.uleb128 0x13
 3415 00fc 00       		.byte	0
 3416 00fd 00       		.byte	0
 3417 00fe 15       		.uleb128 0x15
 3418 00ff 0D       		.uleb128 0xd
 3419 0100 00       		.byte	0
 3420 0101 03       		.uleb128 0x3
 3421 0102 0E       		.uleb128 0xe
 3422 0103 3A       		.uleb128 0x3a
 3423 0104 0B       		.uleb128 0xb
 3424 0105 3B       		.uleb128 0x3b
 3425 0106 05       		.uleb128 0x5
 3426 0107 49       		.uleb128 0x49
 3427 0108 13       		.uleb128 0x13
 3428 0109 38       		.uleb128 0x38
 3429 010a 05       		.uleb128 0x5
 3430 010b 00       		.byte	0
 3431 010c 00       		.byte	0
 3432 010d 16       		.uleb128 0x16
 3433 010e 0D       		.uleb128 0xd
 3434 010f 00       		.byte	0
 3435 0110 03       		.uleb128 0x3
 3436 0111 0E       		.uleb128 0xe
 3437 0112 3A       		.uleb128 0x3a
 3438 0113 0B       		.uleb128 0xb
 3439 0114 3B       		.uleb128 0x3b
 3440 0115 0B       		.uleb128 0xb
 3441 0116 49       		.uleb128 0x49
 3442 0117 13       		.uleb128 0x13
 3443 0118 38       		.uleb128 0x38
 3444 0119 05       		.uleb128 0x5
ARM GAS  C:\Users\ahmedhamed\AppData\Local\Temp\ccPu5fZo.s 			page 63


 3445 011a 00       		.byte	0
 3446 011b 00       		.byte	0
 3447 011c 17       		.uleb128 0x17
 3448 011d 13       		.uleb128 0x13
 3449 011e 01       		.byte	0x1
 3450 011f 03       		.uleb128 0x3
 3451 0120 08       		.uleb128 0x8
 3452 0121 0B       		.uleb128 0xb
 3453 0122 05       		.uleb128 0x5
 3454 0123 3A       		.uleb128 0x3a
 3455 0124 0B       		.uleb128 0xb
 3456 0125 3B       		.uleb128 0x3b
 3457 0126 0B       		.uleb128 0xb
 3458 0127 01       		.uleb128 0x1
 3459 0128 13       		.uleb128 0x13
 3460 0129 00       		.byte	0
 3461 012a 00       		.byte	0
 3462 012b 18       		.uleb128 0x18
 3463 012c 2E       		.uleb128 0x2e
 3464 012d 01       		.byte	0x1
 3465 012e 3F       		.uleb128 0x3f
 3466 012f 19       		.uleb128 0x19
 3467 0130 03       		.uleb128 0x3
 3468 0131 0E       		.uleb128 0xe
 3469 0132 3A       		.uleb128 0x3a
 3470 0133 0B       		.uleb128 0xb
 3471 0134 3B       		.uleb128 0x3b
 3472 0135 0B       		.uleb128 0xb
 3473 0136 27       		.uleb128 0x27
 3474 0137 19       		.uleb128 0x19
 3475 0138 49       		.uleb128 0x49
 3476 0139 13       		.uleb128 0x13
 3477 013a 11       		.uleb128 0x11
 3478 013b 01       		.uleb128 0x1
 3479 013c 12       		.uleb128 0x12
 3480 013d 06       		.uleb128 0x6
 3481 013e 40       		.uleb128 0x40
 3482 013f 18       		.uleb128 0x18
 3483 0140 9742     		.uleb128 0x2117
 3484 0142 19       		.uleb128 0x19
 3485 0143 01       		.uleb128 0x1
 3486 0144 13       		.uleb128 0x13
 3487 0145 00       		.byte	0
 3488 0146 00       		.byte	0
 3489 0147 19       		.uleb128 0x19
 3490 0148 05       		.uleb128 0x5
 3491 0149 00       		.byte	0
 3492 014a 03       		.uleb128 0x3
 3493 014b 0E       		.uleb128 0xe
 3494 014c 3A       		.uleb128 0x3a
 3495 014d 0B       		.uleb128 0xb
 3496 014e 3B       		.uleb128 0x3b
 3497 014f 0B       		.uleb128 0xb
 3498 0150 49       		.uleb128 0x49
 3499 0151 13       		.uleb128 0x13
 3500 0152 02       		.uleb128 0x2
 3501 0153 17       		.uleb128 0x17
ARM GAS  C:\Users\ahmedhamed\AppData\Local\Temp\ccPu5fZo.s 			page 64


 3502 0154 00       		.byte	0
 3503 0155 00       		.byte	0
 3504 0156 1A       		.uleb128 0x1a
 3505 0157 898201   		.uleb128 0x4109
 3506 015a 01       		.byte	0x1
 3507 015b 11       		.uleb128 0x11
 3508 015c 01       		.uleb128 0x1
 3509 015d 31       		.uleb128 0x31
 3510 015e 13       		.uleb128 0x13
 3511 015f 01       		.uleb128 0x1
 3512 0160 13       		.uleb128 0x13
 3513 0161 00       		.byte	0
 3514 0162 00       		.byte	0
 3515 0163 1B       		.uleb128 0x1b
 3516 0164 8A8201   		.uleb128 0x410a
 3517 0167 00       		.byte	0
 3518 0168 02       		.uleb128 0x2
 3519 0169 18       		.uleb128 0x18
 3520 016a 9142     		.uleb128 0x2111
 3521 016c 18       		.uleb128 0x18
 3522 016d 00       		.byte	0
 3523 016e 00       		.byte	0
 3524 016f 1C       		.uleb128 0x1c
 3525 0170 898201   		.uleb128 0x4109
 3526 0173 00       		.byte	0
 3527 0174 11       		.uleb128 0x11
 3528 0175 01       		.uleb128 0x1
 3529 0176 31       		.uleb128 0x31
 3530 0177 13       		.uleb128 0x13
 3531 0178 00       		.byte	0
 3532 0179 00       		.byte	0
 3533 017a 1D       		.uleb128 0x1d
 3534 017b 898201   		.uleb128 0x4109
 3535 017e 01       		.byte	0x1
 3536 017f 11       		.uleb128 0x11
 3537 0180 01       		.uleb128 0x1
 3538 0181 31       		.uleb128 0x31
 3539 0182 13       		.uleb128 0x13
 3540 0183 00       		.byte	0
 3541 0184 00       		.byte	0
 3542 0185 1E       		.uleb128 0x1e
 3543 0186 34       		.uleb128 0x34
 3544 0187 00       		.byte	0
 3545 0188 03       		.uleb128 0x3
 3546 0189 0E       		.uleb128 0xe
 3547 018a 3A       		.uleb128 0x3a
 3548 018b 0B       		.uleb128 0xb
 3549 018c 3B       		.uleb128 0x3b
 3550 018d 0B       		.uleb128 0xb
 3551 018e 49       		.uleb128 0x49
 3552 018f 13       		.uleb128 0x13
 3553 0190 3F       		.uleb128 0x3f
 3554 0191 19       		.uleb128 0x19
 3555 0192 3C       		.uleb128 0x3c
 3556 0193 19       		.uleb128 0x19
 3557 0194 00       		.byte	0
 3558 0195 00       		.byte	0
ARM GAS  C:\Users\ahmedhamed\AppData\Local\Temp\ccPu5fZo.s 			page 65


 3559 0196 1F       		.uleb128 0x1f
 3560 0197 2E       		.uleb128 0x2e
 3561 0198 01       		.byte	0x1
 3562 0199 3F       		.uleb128 0x3f
 3563 019a 19       		.uleb128 0x19
 3564 019b 03       		.uleb128 0x3
 3565 019c 0E       		.uleb128 0xe
 3566 019d 3A       		.uleb128 0x3a
 3567 019e 0B       		.uleb128 0xb
 3568 019f 3B       		.uleb128 0x3b
 3569 01a0 0B       		.uleb128 0xb
 3570 01a1 27       		.uleb128 0x27
 3571 01a2 19       		.uleb128 0x19
 3572 01a3 3C       		.uleb128 0x3c
 3573 01a4 19       		.uleb128 0x19
 3574 01a5 01       		.uleb128 0x1
 3575 01a6 13       		.uleb128 0x13
 3576 01a7 00       		.byte	0
 3577 01a8 00       		.byte	0
 3578 01a9 20       		.uleb128 0x20
 3579 01aa 05       		.uleb128 0x5
 3580 01ab 00       		.byte	0
 3581 01ac 49       		.uleb128 0x49
 3582 01ad 13       		.uleb128 0x13
 3583 01ae 00       		.byte	0
 3584 01af 00       		.byte	0
 3585 01b0 21       		.uleb128 0x21
 3586 01b1 2E       		.uleb128 0x2e
 3587 01b2 00       		.byte	0
 3588 01b3 3F       		.uleb128 0x3f
 3589 01b4 19       		.uleb128 0x19
 3590 01b5 03       		.uleb128 0x3
 3591 01b6 0E       		.uleb128 0xe
 3592 01b7 3A       		.uleb128 0x3a
 3593 01b8 0B       		.uleb128 0xb
 3594 01b9 3B       		.uleb128 0x3b
 3595 01ba 0B       		.uleb128 0xb
 3596 01bb 27       		.uleb128 0x27
 3597 01bc 19       		.uleb128 0x19
 3598 01bd 3C       		.uleb128 0x3c
 3599 01be 19       		.uleb128 0x19
 3600 01bf 00       		.byte	0
 3601 01c0 00       		.byte	0
 3602 01c1 22       		.uleb128 0x22
 3603 01c2 2E       		.uleb128 0x2e
 3604 01c3 01       		.byte	0x1
 3605 01c4 3F       		.uleb128 0x3f
 3606 01c5 19       		.uleb128 0x19
 3607 01c6 03       		.uleb128 0x3
 3608 01c7 0E       		.uleb128 0xe
 3609 01c8 3A       		.uleb128 0x3a
 3610 01c9 0B       		.uleb128 0xb
 3611 01ca 3B       		.uleb128 0x3b
 3612 01cb 0B       		.uleb128 0xb
 3613 01cc 27       		.uleb128 0x27
 3614 01cd 19       		.uleb128 0x19
 3615 01ce 49       		.uleb128 0x49
ARM GAS  C:\Users\ahmedhamed\AppData\Local\Temp\ccPu5fZo.s 			page 66


 3616 01cf 13       		.uleb128 0x13
 3617 01d0 3C       		.uleb128 0x3c
 3618 01d1 19       		.uleb128 0x19
 3619 01d2 01       		.uleb128 0x1
 3620 01d3 13       		.uleb128 0x13
 3621 01d4 00       		.byte	0
 3622 01d5 00       		.byte	0
 3623 01d6 23       		.uleb128 0x23
 3624 01d7 2E       		.uleb128 0x2e
 3625 01d8 00       		.byte	0
 3626 01d9 3F       		.uleb128 0x3f
 3627 01da 19       		.uleb128 0x19
 3628 01db 03       		.uleb128 0x3
 3629 01dc 0E       		.uleb128 0xe
 3630 01dd 3A       		.uleb128 0x3a
 3631 01de 0B       		.uleb128 0xb
 3632 01df 3B       		.uleb128 0x3b
 3633 01e0 0B       		.uleb128 0xb
 3634 01e1 27       		.uleb128 0x27
 3635 01e2 19       		.uleb128 0x19
 3636 01e3 49       		.uleb128 0x49
 3637 01e4 13       		.uleb128 0x13
 3638 01e5 3C       		.uleb128 0x3c
 3639 01e6 19       		.uleb128 0x19
 3640 01e7 00       		.byte	0
 3641 01e8 00       		.byte	0
 3642 01e9 24       		.uleb128 0x24
 3643 01ea 2E       		.uleb128 0x2e
 3644 01eb 01       		.byte	0x1
 3645 01ec 3F       		.uleb128 0x3f
 3646 01ed 19       		.uleb128 0x19
 3647 01ee 03       		.uleb128 0x3
 3648 01ef 0E       		.uleb128 0xe
 3649 01f0 3A       		.uleb128 0x3a
 3650 01f1 0B       		.uleb128 0xb
 3651 01f2 3B       		.uleb128 0x3b
 3652 01f3 0B       		.uleb128 0xb
 3653 01f4 27       		.uleb128 0x27
 3654 01f5 19       		.uleb128 0x19
 3655 01f6 3C       		.uleb128 0x3c
 3656 01f7 19       		.uleb128 0x19
 3657 01f8 00       		.byte	0
 3658 01f9 00       		.byte	0
 3659 01fa 00       		.byte	0
 3660              		.section	.debug_loc,"",%progbits
 3661              	.Ldebug_loc0:
 3662              	.LLST0:
 3663 0000 00000000 		.4byte	.LVL0
 3664 0004 0A000000 		.4byte	.LVL1
 3665 0008 0100     		.2byte	0x1
 3666 000a 50       		.byte	0x50
 3667 000b 0A000000 		.4byte	.LVL1
 3668 000f 62000000 		.4byte	.LVL15
 3669 0013 0100     		.2byte	0x1
 3670 0015 55       		.byte	0x55
 3671 0016 62000000 		.4byte	.LVL15
 3672 001a 6C000000 		.4byte	.LFE0
ARM GAS  C:\Users\ahmedhamed\AppData\Local\Temp\ccPu5fZo.s 			page 67


 3673 001e 0400     		.2byte	0x4
 3674 0020 F3       		.byte	0xf3
 3675 0021 01       		.uleb128 0x1
 3676 0022 50       		.byte	0x50
 3677 0023 9F       		.byte	0x9f
 3678 0024 00000000 		.4byte	0
 3679 0028 00000000 		.4byte	0
 3680              		.section	.debug_aranges,"",%progbits
 3681 0000 1C000000 		.4byte	0x1c
 3682 0004 0200     		.2byte	0x2
 3683 0006 00000000 		.4byte	.Ldebug_info0
 3684 000a 04       		.byte	0x4
 3685 000b 00       		.byte	0
 3686 000c 0000     		.2byte	0
 3687 000e 0000     		.2byte	0
 3688 0010 00000000 		.4byte	.LFB0
 3689 0014 6C000000 		.4byte	.LFE0-.LFB0
 3690 0018 00000000 		.4byte	0
 3691 001c 00000000 		.4byte	0
 3692              		.section	.debug_ranges,"",%progbits
 3693              	.Ldebug_ranges0:
 3694 0000 00000000 		.4byte	.LFB0
 3695 0004 6C000000 		.4byte	.LFE0
 3696 0008 00000000 		.4byte	0
 3697 000c 00000000 		.4byte	0
 3698              		.section	.debug_line,"",%progbits
 3699              	.Ldebug_line0:
 3700 0000 F4000000 		.section	.debug_str,"MS",%progbits,1
 3700      0200CA00 
 3700      00000201 
 3700      FB0E0D00 
 3700      01010101 
 3701              	.LASF93:
 3702 0000 775F6465 		.ascii	"w_debug_status\000"
 3702      6275675F 
 3702      73746174 
 3702      757300
 3703              	.LASF59:
 3704 000f 434C5F49 		.ascii	"CL_IO\000"
 3704      4F00
 3705              	.LASF176:
 3706 0015 73625F6E 		.ascii	"sb_name\000"
 3706      616D6500 
 3707              	.LASF287:
 3708 001d 775F6361 		.ascii	"w_card_idx\000"
 3708      72645F69 
 3708      647800
 3709              	.LASF211:
 3710 0028 73625F74 		.ascii	"sb_tag_9b\000"
 3710      61675F39 
 3710      6200
 3711              	.LASF57:
 3712 0032 544C4953 		.ascii	"TLIST\000"
 3712      5400
 3713              	.LASF177:
 3714 0038 73625F70 		.ascii	"sb_pri_trans_tel\000"
 3714      72695F74 
ARM GAS  C:\Users\ahmedhamed\AppData\Local\Temp\ccPu5fZo.s 			page 68


 3714      72616E73 
 3714      5F74656C 
 3714      00
 3715              	.LASF126:
 3716 0049 625F696E 		.ascii	"b_init_fallback\000"
 3716      69745F66 
 3716      616C6C62 
 3716      61636B00 
 3717              	.LASF129:
 3718 0059 775F6372 		.ascii	"w_crc\000"
 3718      6300
 3719              	.LASF21:
 3720 005f 625F6D69 		.ascii	"b_minute\000"
 3720      6E757465 
 3720      00
 3721              	.LASF271:
 3722 0068 735F5478 		.ascii	"s_TxBuf\000"
 3722      42756600 
 3723              	.LASF174:
 3724 0070 41435155 		.ascii	"ACQUIRER_TBL\000"
 3724      49524552 
 3724      5F54424C 
 3724      00
 3725              	.LASF85:
 3726 007d 73625F72 		.ascii	"sb_roc_no\000"
 3726      6F635F6E 
 3726      6F00
 3727              	.LASF17:
 3728 0087 625F7965 		.ascii	"b_year\000"
 3728      617200
 3729              	.LASF182:
 3730 008e 625F7365 		.ascii	"b_sec_trans_redial\000"
 3730      635F7472 
 3730      616E735F 
 3730      72656469 
 3730      616C00
 3731              	.LASF224:
 3732 00a1 64645F74 		.ascii	"dd_tip\000"
 3732      697000
 3733              	.LASF259:
 3734 00a8 625F6D6D 		.ascii	"b_mm\000"
 3734      00
 3735              	.LASF115:
 3736 00ad 73625F70 		.ascii	"sb_ppp_user\000"
 3736      70705F75 
 3736      73657200 
 3737              	.LASF12:
 3738 00b9 42595445 		.ascii	"BYTE\000"
 3738      00
 3739              	.LASF87:
 3740 00be 73625F70 		.ascii	"sb_port\000"
 3740      6F727400 
 3741              	.LASF62:
 3742 00c6 625F636C 		.ascii	"b_cla\000"
 3742      6100
 3743              	.LASF290:
 3744 00cc 54585F44 		.ascii	"TX_DATA\000"
ARM GAS  C:\Users\ahmedhamed\AppData\Local\Temp\ccPu5fZo.s 			page 69


 3744      41544100 
 3745              	.LASF175:
 3746 00d4 73625F70 		.ascii	"sb_program\000"
 3746      726F6772 
 3746      616D00
 3747              	.LASF316:
 3748 00df 61496E70 		.ascii	"aInputMode\000"
 3748      75744D6F 
 3748      646500
 3749              	.LASF36:
 3750 00ea 53455454 		.ascii	"SETTLEMENT\000"
 3750      4C454D45 
 3750      4E5400
 3751              	.LASF202:
 3752 00f5 44455343 		.ascii	"DESC_TBL\000"
 3752      5F54424C 
 3752      00
 3753              	.LASF123:
 3754 00fe 73625F63 		.ascii	"sb_checkin_sec_no\000"
 3754      6865636B 
 3754      696E5F73 
 3754      65635F6E 
 3754      6F00
 3755              	.LASF38:
 3756 0110 53414C45 		.ascii	"SALE_ICC\000"
 3756      5F494343 
 3756      00
 3757              	.LASF68:
 3758 0119 434F4D4D 		.ascii	"COMMBUF\000"
 3758      42554600 
 3759              	.LASF198:
 3760 0121 625F7265 		.ascii	"b_reserved1\000"
 3760      73657276 
 3760      65643100 
 3761              	.LASF312:
 3762 012d 474E5520 		.ascii	"GNU C 4.9.3 20141119 (release) [ARM/embedded-4_9-br"
 3762      4320342E 
 3762      392E3320 
 3762      32303134 
 3762      31313139 
 3763 0160 616E6368 		.ascii	"anch revision 218278] -mthumb -mcpu=cortex-a5 -mthu"
 3763      20726576 
 3763      6973696F 
 3763      6E203231 
 3763      38323738 
 3764 0193 6D622D69 		.ascii	"mb-interwork -mstructure-size-boundary=32 -mno-unal"
 3764      6E746572 
 3764      776F726B 
 3764      202D6D73 
 3764      74727563 
 3765 01c6 69676E65 		.ascii	"igned-access -g -Os -ffunction-sections -fsigned-ch"
 3765      642D6163 
 3765      63657373 
 3765      202D6720 
 3765      2D4F7320 
 3766 01f9 617200   		.ascii	"ar\000"
 3767              	.LASF228:
ARM GAS  C:\Users\ahmedhamed\AppData\Local\Temp\ccPu5fZo.s 			page 70


 3768 01fc 73625F68 		.ascii	"sb_holder_name\000"
 3768      6F6C6465 
 3768      725F6E61 
 3768      6D6500
 3769              	.LASF24:
 3770 020b 41555448 		.ascii	"AUTH_MANUAL\000"
 3770      5F4D414E 
 3770      55414C00 
 3771              	.LASF190:
 3772 0217 73625F6E 		.ascii	"sb_nii\000"
 3772      696900
 3773              	.LASF169:
 3774 021e 73625F63 		.ascii	"sb_card_name\000"
 3774      6172645F 
 3774      6E616D65 
 3774      00
 3775              	.LASF240:
 3776 022b 625F7479 		.ascii	"b_type\000"
 3776      706500
 3777              	.LASF253:
 3778 0232 735F7465 		.ascii	"s_term_cfg\000"
 3778      726D5F63 
 3778      666700
 3779              	.LASF71:
 3780 023d 625F7374 		.ascii	"b_stis_mode\000"
 3780      69735F6D 
 3780      6F646500 
 3781              	.LASF139:
 3782 0249 73625F6F 		.ascii	"sb_options\000"
 3782      7074696F 
 3782      6E7300
 3783              	.LASF40:
 3784 0254 52454655 		.ascii	"REFUND_ICC\000"
 3784      4E445F49 
 3784      434300
 3785              	.LASF110:
 3786 025f 73625F6C 		.ascii	"sb_lxapp_chksum\000"
 3786      78617070 
 3786      5F63686B 
 3786      73756D00 
 3787              	.LASF63:
 3788 026f 625F636D 		.ascii	"b_cmd\000"
 3788      6400
 3789              	.LASF82:
 3790 0275 625F6469 		.ascii	"b_dial_mode\000"
 3790      616C5F6D 
 3790      6F646500 
 3791              	.LASF11:
 3792 0281 424F4F4C 		.ascii	"BOOLEAN\000"
 3792      45414E00 
 3793              	.LASF34:
 3794 0289 41444A55 		.ascii	"ADJUST\000"
 3794      535400
 3795              	.LASF77:
 3796 0290 625F7072 		.ascii	"b_pri_redial\000"
 3796      695F7265 
 3796      6469616C 
ARM GAS  C:\Users\ahmedhamed\AppData\Local\Temp\ccPu5fZo.s 			page 71


 3796      00
 3797              	.LASF179:
 3798 029d 625F7072 		.ascii	"b_pri_trans_redial\000"
 3798      695F7472 
 3798      616E735F 
 3798      72656469 
 3798      616C00
 3799              	.LASF205:
 3800 02b0 73625F74 		.ascii	"sb_text\000"
 3800      65787400 
 3801              	.LASF90:
 3802 02b8 625F6465 		.ascii	"b_default_app\000"
 3802      6661756C 
 3802      745F6170 
 3802      7000
 3803              	.LASF178:
 3804 02c6 625F7072 		.ascii	"b_pri_trans_conn_time\000"
 3804      695F7472 
 3804      616E735F 
 3804      636F6E6E 
 3804      5F74696D 
 3805              	.LASF317:
 3806 02dc 5472616E 		.ascii	"TransAllowed\000"
 3806      73416C6C 
 3806      6F776564 
 3806      00
 3807              	.LASF146:
 3808 02e9 625F7365 		.ascii	"b_settle_amount_len\000"
 3808      74746C65 
 3808      5F616D6F 
 3808      756E745F 
 3808      6C656E00 
 3809              	.LASF127:
 3810 02fd 775F6170 		.ascii	"w_app_list_chksum\000"
 3810      705F6C69 
 3810      73745F63 
 3810      686B7375 
 3810      6D00
 3811              	.LASF194:
 3812 030f 73625F6E 		.ascii	"sb_next_batch_no\000"
 3812      6578745F 
 3812      62617463 
 3812      685F6E6F 
 3812      00
 3813              	.LASF78:
 3814 0320 73625F73 		.ascii	"sb_sec_no\000"
 3814      65635F6E 
 3814      6F00
 3815              	.LASF197:
 3816 032a 625F686F 		.ascii	"b_host_type\000"
 3816      73745F74 
 3816      79706500 
 3817              	.LASF186:
 3818 0336 73625F73 		.ascii	"sb_sec_settle_tel\000"
 3818      65635F73 
 3818      6574746C 
 3818      655F7465 
ARM GAS  C:\Users\ahmedhamed\AppData\Local\Temp\ccPu5fZo.s 			page 72


 3818      6C00
 3819              	.LASF151:
 3820 0348 73625F70 		.ascii	"sb_psw_refund\000"
 3820      73775F72 
 3820      6566756E 
 3820      6400
 3821              	.LASF69:
 3822 0356 7362436F 		.ascii	"sbContent\000"
 3822      6E74656E 
 3822      7400
 3823              	.LASF66:
 3824 0360 625F6C65 		.ascii	"b_len\000"
 3824      6E00
 3825              	.LASF188:
 3826 0366 625F7365 		.ascii	"b_sec_settle_redial\000"
 3826      635F7365 
 3826      74746C65 
 3826      5F726564 
 3826      69616C00 
 3827              	.LASF288:
 3828 037a 625F6361 		.ascii	"b_card_expired\000"
 3828      72645F65 
 3828      78706972 
 3828      656400
 3829              	.LASF250:
 3830 0389 735F766F 		.ascii	"s_void_refund\000"
 3830      69645F72 
 3830      6566756E 
 3830      6400
 3831              	.LASF120:
 3832 0397 73625F63 		.ascii	"sb_checkin_pri_no\000"
 3832      6865636B 
 3832      696E5F70 
 3832      72695F6E 
 3832      6F00
 3833              	.LASF299:
 3834 03a9 735F696E 		.ascii	"s_input\000"
 3834      70757400 
 3835              	.LASF291:
 3836 03b1 73625F70 		.ascii	"sb_proc_code\000"
 3836      726F635F 
 3836      636F6465 
 3836      00
 3837              	.LASF245:
 3838 03be 645F6164 		.ascii	"d_adjust_count\000"
 3838      6A757374 
 3838      5F636F75 
 3838      6E7400
 3839              	.LASF284:
 3840 03cd 73625F70 		.ascii	"sb_pin\000"
 3840      696E00
 3841              	.LASF44:
 3842 03d4 41555448 		.ascii	"AUTH_CTL\000"
 3842      5F43544C 
 3842      00
 3843              	.LASF270:
 3844 03dd 735F4D73 		.ascii	"s_MsgBuf\000"
ARM GAS  C:\Users\ahmedhamed\AppData\Local\Temp\ccPu5fZo.s 			page 73


 3844      67427566 
 3844      00
 3845              	.LASF219:
 3846 03e6 625F6163 		.ascii	"b_acc_ind\000"
 3846      635F696E 
 3846      6400
 3847              	.LASF108:
 3848 03f0 73625F78 		.ascii	"sb_xapp_date\000"
 3848      6170705F 
 3848      64617465 
 3848      00
 3849              	.LASF196:
 3850 03fd 625F7365 		.ascii	"b_settle_mdm_mode\000"
 3850      74746C65 
 3850      5F6D646D 
 3850      5F6D6F64 
 3850      6500
 3851              	.LASF234:
 3852 040f 775F686F 		.ascii	"w_host_idx\000"
 3852      73745F69 
 3852      647800
 3853              	.LASF140:
 3854 041a 73625F6E 		.ascii	"sb_name_loc\000"
 3854      616D655F 
 3854      6C6F6300 
 3855              	.LASF311:
 3856 0426 5061636B 		.ascii	"PackInputP\000"
 3856      496E7075 
 3856      745000
 3857              	.LASF8:
 3858 0431 6C6F6E67 		.ascii	"long long unsigned int\000"
 3858      206C6F6E 
 3858      6720756E 
 3858      7369676E 
 3858      65642069 
 3859              	.LASF14:
 3860 0448 44574F52 		.ascii	"DWORD\000"
 3860      4400
 3861              	.LASF189:
 3862 044e 625F7472 		.ascii	"b_trans_mdm_mode\000"
 3862      616E735F 
 3862      6D646D5F 
 3862      6D6F6465 
 3862      00
 3863              	.LASF152:
 3864 045f 73625F70 		.ascii	"sb_psw_void\000"
 3864      73775F76 
 3864      6F696400 
 3865              	.LASF32:
 3866 046b 53414C45 		.ascii	"SALE_UNDER_LMT\000"
 3866      5F554E44 
 3866      45525F4C 
 3866      4D5400
 3867              	.LASF101:
 3868 047a 73625F65 		.ascii	"sb_emvapp_chksum\000"
 3868      6D766170 
 3868      705F6368 
ARM GAS  C:\Users\ahmedhamed\AppData\Local\Temp\ccPu5fZo.s 			page 74


 3868      6B73756D 
 3868      00
 3869              	.LASF156:
 3870 048b 61706E32 		.ascii	"apn2_password\000"
 3870      5F706173 
 3870      73776F72 
 3870      6400
 3871              	.LASF149:
 3872 0499 73625F61 		.ascii	"sb_additional_prompt\000"
 3872      64646974 
 3872      696F6E61 
 3872      6C5F7072 
 3872      6F6D7074 
 3873              	.LASF97:
 3874 04ae 625F6563 		.ascii	"b_ecr_ssl\000"
 3874      725F7373 
 3874      6C00
 3875              	.LASF192:
 3876 04b8 625F7469 		.ascii	"b_timeout_val\000"
 3876      6D656F75 
 3876      745F7661 
 3876      6C00
 3877              	.LASF46:
 3878 04c6 54455354 		.ascii	"TEST_MSG\000"
 3878      5F4D5347 
 3878      00
 3879              	.LASF279:
 3880 04cf 625F6469 		.ascii	"b_disp_chgd\000"
 3880      73705F63 
 3880      68676400 
 3881              	.LASF75:
 3882 04db 73625F70 		.ascii	"sb_pri_no\000"
 3882      72695F6E 
 3882      6F00
 3883              	.LASF171:
 3884 04e5 625F6465 		.ascii	"b_default_acc\000"
 3884      6661756C 
 3884      745F6163 
 3884      6300
 3885              	.LASF213:
 3886 04f3 775F6D69 		.ascii	"w_misc_len\000"
 3886      73635F6C 
 3886      656E00
 3887              	.LASF153:
 3888 04fe 61706E5F 		.ascii	"apn_username\000"
 3888      75736572 
 3888      6E616D65 
 3888      00
 3889              	.LASF70:
 3890 050b 5445524D 		.ascii	"TERM_DATA\000"
 3890      5F444154 
 3890      4100
 3891              	.LASF191:
 3892 0515 73625F61 		.ascii	"sb_acceptor_id\000"
 3892      63636570 
 3892      746F725F 
 3892      696400
ARM GAS  C:\Users\ahmedhamed\AppData\Local\Temp\ccPu5fZo.s 			page 75


 3893              	.LASF225:
 3894 0524 64645F6F 		.ascii	"dd_org_amount\000"
 3894      72675F61 
 3894      6D6F756E 
 3894      7400
 3895              	.LASF207:
 3896 0532 73625F6C 		.ascii	"sb_label\000"
 3896      6162656C 
 3896      00
 3897              	.LASF160:
 3898 053b 61706E32 		.ascii	"apn2_port\000"
 3898      5F706F72 
 3898      7400
 3899              	.LASF143:
 3900 0545 625F7472 		.ascii	"b_trans_amount_len\000"
 3900      616E735F 
 3900      616D6F75 
 3900      6E745F6C 
 3900      656E00
 3901              	.LASF134:
 3902 0558 625F7273 		.ascii	"b_rsvd1\000"
 3902      76643100 
 3903              	.LASF257:
 3904 0560 735F6361 		.ascii	"s_card_tbl\000"
 3904      72645F74 
 3904      626C00
 3905              	.LASF295:
 3906 056b 625F7265 		.ascii	"b_response\000"
 3906      73706F6E 
 3906      736500
 3907              	.LASF195:
 3908 0576 73625F76 		.ascii	"sb_visa1_term_id\000"
 3908      69736131 
 3908      5F746572 
 3908      6D5F6964 
 3908      00
 3909              	.LASF230:
 3910 0587 73625F61 		.ascii	"sb_auth_code\000"
 3910      7574685F 
 3910      636F6465 
 3910      00
 3911              	.LASF181:
 3912 0594 625F7365 		.ascii	"b_sec_trans_conn_time\000"
 3912      635F7472 
 3912      616E735F 
 3912      636F6E6E 
 3912      5F74696D 
 3913              	.LASF94:
 3914 05aa 64645F64 		.ascii	"dd_default_amount\000"
 3914      65666175 
 3914      6C745F61 
 3914      6D6F756E 
 3914      7400
 3915              	.LASF42:
 3916 05bc 4553414C 		.ascii	"ESALE_COMPLETE\000"
 3916      455F434F 
 3916      4D504C45 
ARM GAS  C:\Users\ahmedhamed\AppData\Local\Temp\ccPu5fZo.s 			page 76


 3916      544500
 3917              	.LASF247:
 3918 05cb 735F7469 		.ascii	"s_tips_tot\000"
 3918      70735F74 
 3918      6F7400
 3919              	.LASF29:
 3920 05d6 52454655 		.ascii	"REFUND\000"
 3920      4E4400
 3921              	.LASF116:
 3922 05dd 73625F70 		.ascii	"sb_ppp_pwd\000"
 3922      70705F70 
 3922      776400
 3923              	.LASF248:
 3924 05e8 735F7265 		.ascii	"s_refund_tot\000"
 3924      66756E64 
 3924      5F746F74 
 3924      00
 3925              	.LASF130:
 3926 05f5 5445524D 		.ascii	"TERM_CFG\000"
 3926      5F434647 
 3926      00
 3927              	.LASF111:
 3928 05fe 73625F6C 		.ascii	"sb_lxapp_date\000"
 3928      78617070 
 3928      5F646174 
 3928      6500
 3929              	.LASF33:
 3930 060c 564F4944 		.ascii	"VOID\000"
 3930      00
 3931              	.LASF141:
 3932 0611 73625F64 		.ascii	"sb_dflt_name\000"
 3932      666C745F 
 3932      6E616D65 
 3932      00
 3933              	.LASF138:
 3934 061e 73625F68 		.ascii	"sb_help_tel\000"
 3934      656C705F 
 3934      74656C00 
 3935              	.LASF124:
 3936 062a 625F6368 		.ascii	"b_checkin_sec_conn_time\000"
 3936      65636B69 
 3936      6E5F7365 
 3936      635F636F 
 3936      6E6E5F74 
 3937              	.LASF173:
 3938 0642 73625F66 		.ascii	"sb_floor_limit\000"
 3938      6C6F6F72 
 3938      5F6C696D 
 3938      697400
 3939              	.LASF229:
 3940 0651 73625F65 		.ascii	"sb_ecr_ref\000"
 3940      63725F72 
 3940      656600
 3941              	.LASF88:
 3942 065c 73625F69 		.ascii	"sb_init_nii\000"
 3942      6E69745F 
 3942      6E696900 
ARM GAS  C:\Users\ahmedhamed\AppData\Local\Temp\ccPu5fZo.s 			page 77


 3943              	.LASF297:
 3944 0668 41637469 		.ascii	"Actioncode\000"
 3944      6F6E636F 
 3944      646500
 3945              	.LASF10:
 3946 0673 63686172 		.ascii	"char\000"
 3946      00
 3947              	.LASF286:
 3948 0678 735F7472 		.ascii	"s_trk2buf\000"
 3948      6B326275 
 3948      6600
 3949              	.LASF48:
 3950 0682 5452414E 		.ascii	"TRANS_UPLOAD_LAST\000"
 3950      535F5550 
 3950      4C4F4144 
 3950      5F4C4153 
 3950      5400
 3951              	.LASF65:
 3952 0694 4D575F54 		.ascii	"MW_TRK1BUF\000"
 3952      524B3142 
 3952      554600
 3953              	.LASF233:
 3954 069f 73625F72 		.ascii	"sb_rrn\000"
 3954      726E00
 3955              	.LASF206:
 3956 06a6 4943435F 		.ascii	"ICC_DATA\000"
 3956      44415441 
 3956      00
 3957              	.LASF309:
 3958 06af 5061636B 		.ascii	"PackDTGAA\000"
 3958      44544741 
 3958      4100
 3959              	.LASF296:
 3960 06b9 74657874 		.ascii	"text\000"
 3960      00
 3961              	.LASF118:
 3962 06be 73625F70 		.ascii	"sb_ppp_port\000"
 3962      70705F70 
 3962      6F727400 
 3963              	.LASF121:
 3964 06ca 625F6368 		.ascii	"b_checkin_pri_conn_time\000"
 3964      65636B69 
 3964      6E5F7072 
 3964      695F636F 
 3964      6E6E5F74 
 3965              	.LASF238:
 3966 06e2 41435155 		.ascii	"ACQUIRER_REV\000"
 3966      49524552 
 3966      5F524556 
 3966      00
 3967              	.LASF45:
 3968 06ef 52454655 		.ascii	"REFUND_CTL\000"
 3968      4E445F43 
 3968      544C00
 3969              	.LASF306:
 3970 06fa 44697370 		.ascii	"DispHeader\000"
 3970      48656164 
ARM GAS  C:\Users\ahmedhamed\AppData\Local\Temp\ccPu5fZo.s 			page 78


 3970      657200
 3971              	.LASF260:
 3972 0705 625F6464 		.ascii	"b_dd\000"
 3972      00
 3973              	.LASF313:
 3974 070a 7372632F 		.ascii	"src/SaleOffl.c\000"
 3974      53616C65 
 3974      4F66666C 
 3974      2E6300
 3975              	.LASF319:
 3976 0719 5472616E 		.ascii	"TransEnd\000"
 3976      73456E64 
 3976      00
 3977              	.LASF30:
 3978 0722 53414C45 		.ascii	"SALE_OFFLINE\000"
 3978      5F4F4646 
 3978      4C494E45 
 3978      00
 3979              	.LASF83:
 3980 072f 73625F70 		.ascii	"sb_pabx\000"
 3980      61627800 
 3981              	.LASF95:
 3982 0737 625F7070 		.ascii	"b_ppad_port\000"
 3982      61645F70 
 3982      6F727400 
 3983              	.LASF164:
 3984 0743 625F6973 		.ascii	"b_issuer_id\000"
 3984      73756572 
 3984      5F696400 
 3985              	.LASF277:
 3986 074f 735F4354 		.ascii	"s_CTLOut\000"
 3986      4C4F7574 
 3986      00
 3987              	.LASF268:
 3988 0758 735F7465 		.ascii	"s_term_tot\000"
 3988      726D5F74 
 3988      6F7400
 3989              	.LASF79:
 3990 0763 625F7365 		.ascii	"b_sec_conn_time\000"
 3990      635F636F 
 3990      6E6E5F74 
 3990      696D6500 
 3991              	.LASF170:
 3992 0773 73625F72 		.ascii	"sb_ref_tel_no\000"
 3992      65665F74 
 3992      656C5F6E 
 3992      6F00
 3993              	.LASF91:
 3994 0781 625F7265 		.ascii	"b_return_timeout\000"
 3994      7475726E 
 3994      5F74696D 
 3994      656F7574 
 3994      00
 3995              	.LASF180:
 3996 0792 73625F73 		.ascii	"sb_sec_trans_tel\000"
 3996      65635F74 
 3996      72616E73 
ARM GAS  C:\Users\ahmedhamed\AppData\Local\Temp\ccPu5fZo.s 			page 79


 3996      5F74656C 
 3996      00
 3997              	.LASF114:
 3998 07a3 73625F66 		.ascii	"sb_ftp_pwd\000"
 3998      74705F70 
 3998      776400
 3999              	.LASF273:
 4000 07ae 73625F49 		.ascii	"sb_IOBuf\000"
 4000      4F427566 
 4000      00
 4001              	.LASF305:
 4002 07b7 5061636B 		.ascii	"PackHeader\000"
 4002      48656164 
 4002      657200
 4003              	.LASF251:
 4004 07c2 735F414C 		.ascii	"s_ALL\000"
 4004      4C00
 4005              	.LASF262:
 4006 07c8 645F6C65 		.ascii	"d_len\000"
 4006      6E00
 4007              	.LASF222:
 4008 07ce 63757272 		.ascii	"currency\000"
 4008      656E6379 
 4008      00
 4009              	.LASF212:
 4010 07d7 73625F74 		.ascii	"sb_tag_9f26\000"
 4010      61675F39 
 4010      66323600 
 4011              	.LASF293:
 4012 07e3 73625F6F 		.ascii	"sb_org_trace_no\000"
 4012      72675F74 
 4012      72616365 
 4012      5F6E6F00 
 4013              	.LASF263:
 4014 07f3 735F7374 		.ascii	"s_stis_data\000"
 4014      69735F64 
 4014      61746100 
 4015              	.LASF7:
 4016 07ff 6C6F6E67 		.ascii	"long long int\000"
 4016      206C6F6E 
 4016      6720696E 
 4016      7400
 4017              	.LASF294:
 4018 080d 5253505F 		.ascii	"RSP_DATA\000"
 4018      44415441 
 4018      00
 4019              	.LASF223:
 4020 0816 64645F61 		.ascii	"dd_amount\000"
 4020      6D6F756E 
 4020      7400
 4021              	.LASF20:
 4022 0820 625F686F 		.ascii	"b_hour\000"
 4022      757200
 4023              	.LASF99:
 4024 0827 73625F65 		.ascii	"sb_edc_date\000"
 4024      64635F64 
 4024      61746500 
ARM GAS  C:\Users\ahmedhamed\AppData\Local\Temp\ccPu5fZo.s 			page 80


 4025              	.LASF76:
 4026 0833 625F7072 		.ascii	"b_pri_conn_time\000"
 4026      695F636F 
 4026      6E6E5F74 
 4026      696D6500 
 4027              	.LASF201:
 4028 0843 625F7065 		.ascii	"b_pending\000"
 4028      6E64696E 
 4028      6700
 4029              	.LASF298:
 4030 084d 5452414E 		.ascii	"TRANS_DATA\000"
 4030      535F4441 
 4030      544100
 4031              	.LASF304:
 4032 0858 496E6354 		.ascii	"IncTraceNo\000"
 4032      72616365 
 4032      4E6F00
 4033              	.LASF184:
 4034 0863 625F7072 		.ascii	"b_pri_settle_conn_time\000"
 4034      695F7365 
 4034      74746C65 
 4034      5F636F6E 
 4034      6E5F7469 
 4035              	.LASF102:
 4036 087a 73625F65 		.ascii	"sb_emvapp_date\000"
 4036      6D766170 
 4036      705F6461 
 4036      746500
 4037              	.LASF72:
 4038 0889 625F6469 		.ascii	"b_disp_contrast\000"
 4038      73705F63 
 4038      6F6E7472 
 4038      61737400 
 4039              	.LASF265:
 4040 0899 735F7265 		.ascii	"s_record_buf\000"
 4040      636F7264 
 4040      5F627566 
 4040      00
 4041              	.LASF98:
 4042 08a6 73625F65 		.ascii	"sb_edc_chksum\000"
 4042      64635F63 
 4042      686B7375 
 4042      6D00
 4043              	.LASF261:
 4044 08b4 4D53475F 		.ascii	"MSG_BUF\000"
 4044      42554600 
 4045              	.LASF13:
 4046 08bc 574F5244 		.ascii	"WORD\000"
 4046      00
 4047              	.LASF241:
 4048 08c1 64645F62 		.ascii	"dd_base_amount\000"
 4048      6173655F 
 4048      616D6F75 
 4048      6E7400
 4049              	.LASF165:
 4050 08d0 625F6163 		.ascii	"b_acquirer_id\000"
 4050      71756972 
ARM GAS  C:\Users\ahmedhamed\AppData\Local\Temp\ccPu5fZo.s 			page 81


 4050      65725F69 
 4050      6400
 4051              	.LASF27:
 4052 08de 4F4E4C5F 		.ascii	"ONL_REFUND_SW\000"
 4052      52454655 
 4052      4E445F53 
 4052      5700
 4053              	.LASF117:
 4054 08ec 73625F70 		.ascii	"sb_ppp_ip\000"
 4054      70705F69 
 4054      7000
 4055              	.LASF35:
 4056 08f6 5452414E 		.ascii	"TRANS_UPLOAD\000"
 4056      535F5550 
 4056      4C4F4144 
 4056      00
 4057              	.LASF163:
 4058 0903 73625F70 		.ascii	"sb_pan_range_high\000"
 4058      616E5F72 
 4058      616E6765 
 4058      5F686967 
 4058      6800
 4059              	.LASF84:
 4060 0915 73625F74 		.ascii	"sb_trace_no\000"
 4060      72616365 
 4060      5F6E6F00 
 4061              	.LASF249:
 4062 0921 735F766F 		.ascii	"s_void_sale\000"
 4062      69645F73 
 4062      616C6500 
 4063              	.LASF16:
 4064 092d 625F6365 		.ascii	"b_century\000"
 4064      6E747572 
 4064      7900
 4065              	.LASF161:
 4066 0937 43415244 		.ascii	"CARD_TBL\000"
 4066      5F54424C 
 4066      00
 4067              	.LASF53:
 4068 0940 73494F5F 		.ascii	"sIO_t\000"
 4068      7400
 4069              	.LASF61:
 4070 0946 45435244 		.ascii	"ECRDATA\000"
 4070      41544100 
 4071              	.LASF221:
 4072 094e 73625F65 		.ascii	"sb_exp_date\000"
 4072      78705F64 
 4072      61746500 
 4073              	.LASF280:
 4074 095a 735F6273 		.ascii	"s_bs_date\000"
 4074      5F646174 
 4074      6500
 4075              	.LASF282:
 4076 0964 695F6563 		.ascii	"i_ecr_len\000"
 4076      725F6C65 
 4076      6E00
 4077              	.LASF159:
ARM GAS  C:\Users\ahmedhamed\AppData\Local\Temp\ccPu5fZo.s 			page 82


 4078 096e 61706E32 		.ascii	"apn2_ip\000"
 4078      5F697000 
 4079              	.LASF39:
 4080 0976 41555448 		.ascii	"AUTH_ICC\000"
 4080      5F494343 
 4080      00
 4081              	.LASF112:
 4082 097f 73625F6C 		.ascii	"sb_lxapp_size\000"
 4082      78617070 
 4082      5F73697A 
 4082      6500
 4083              	.LASF276:
 4084 098d 735F4354 		.ascii	"s_CTLIn\000"
 4084      4C496E00 
 4085              	.LASF300:
 4086 0995 735F7478 		.ascii	"s_tx_data\000"
 4086      5F646174 
 4086      6100
 4087              	.LASF135:
 4088 099f 73625F64 		.ascii	"sb_date_time\000"
 4088      6174655F 
 4088      74696D65 
 4088      00
 4089              	.LASF132:
 4090 09ac 625F696E 		.ascii	"b_init_control\000"
 4090      69745F63 
 4090      6F6E7472 
 4090      6F6C00
 4091              	.LASF308:
 4092 09bb 496E6354 		.ascii	"IncTraceNoEND\000"
 4092      72616365 
 4092      4E6F454E 
 4092      4400
 4093              	.LASF128:
 4094 09c9 625F6170 		.ascii	"b_app_list_upload\000"
 4094      705F6C69 
 4094      73745F75 
 4094      706C6F61 
 4094      6400
 4095              	.LASF147:
 4096 09db 73625F63 		.ascii	"sb_currency_name\000"
 4096      75727265 
 4096      6E63795F 
 4096      6E616D65 
 4096      00
 4097              	.LASF187:
 4098 09ec 625F7365 		.ascii	"b_sec_settle_conn_time\000"
 4098      635F7365 
 4098      74746C65 
 4098      5F636F6E 
 4098      6E5F7469 
 4099              	.LASF217:
 4100 0a03 625F7472 		.ascii	"b_trans_old\000"
 4100      616E735F 
 4100      6F6C6400 
 4101              	.LASF231:
 4102 0a0f 775F7273 		.ascii	"w_rspcode\000"
ARM GAS  C:\Users\ahmedhamed\AppData\Local\Temp\ccPu5fZo.s 			page 83


 4102      70636F64 
 4102      6500
 4103              	.LASF58:
 4104 0a19 70624D73 		.ascii	"pbMsg\000"
 4104      6700
 4105              	.LASF243:
 4106 0a1f 775F636F 		.ascii	"w_count\000"
 4106      756E7400 
 4107              	.LASF167:
 4108 0a27 49535355 		.ascii	"ISSUER_TBL\000"
 4108      45525F54 
 4108      424C00
 4109              	.LASF307:
 4110 0a32 52656672 		.ascii	"RefreshDispAfter\000"
 4110      65736844 
 4110      69737041 
 4110      66746572 
 4110      00
 4111              	.LASF133:
 4112 0a43 625F7273 		.ascii	"b_rsvd0\000"
 4112      76643000 
 4113              	.LASF281:
 4114 0a4b 735F6563 		.ascii	"s_ecr_data\000"
 4114      725F6461 
 4114      746100
 4115              	.LASF145:
 4116 0a56 625F7273 		.ascii	"b_rsvd2\000"
 4116      76643200 
 4117              	.LASF226:
 4118 0a5e 73625F70 		.ascii	"sb_product\000"
 4118      726F6475 
 4118      637400
 4119              	.LASF31:
 4120 0a69 53414C45 		.ascii	"SALE_COMPLETE\000"
 4120      5F434F4D 
 4120      504C4554 
 4120      4500
 4121              	.LASF113:
 4122 0a77 73625F66 		.ascii	"sb_ftp_user\000"
 4122      74705F75 
 4122      73657200 
 4123              	.LASF220:
 4124 0a83 73625F70 		.ascii	"sb_pan\000"
 4124      616E00
 4125              	.LASF209:
 4126 0a8a 73625F61 		.ascii	"sb_aid\000"
 4126      696400
 4127              	.LASF3:
 4128 0a91 73686F72 		.ascii	"short int\000"
 4128      7420696E 
 4128      7400
 4129              	.LASF244:
 4130 0a9b 544F5441 		.ascii	"TOTAL_STRUCT\000"
 4130      4C5F5354 
 4130      52554354 
 4130      00
 4131              	.LASF185:
ARM GAS  C:\Users\ahmedhamed\AppData\Local\Temp\ccPu5fZo.s 			page 84


 4132 0aa8 625F7072 		.ascii	"b_pri_settle_redial\000"
 4132      695F7365 
 4132      74746C65 
 4132      5F726564 
 4132      69616C00 
 4133              	.LASF81:
 4134 0abc 625F6173 		.ascii	"b_async_delay\000"
 4134      796E635F 
 4134      64656C61 
 4134      7900
 4135              	.LASF5:
 4136 0aca 6C6F6E67 		.ascii	"long int\000"
 4136      20696E74 
 4136      00
 4137              	.LASF55:
 4138 0ad3 734C656E 		.ascii	"sLen\000"
 4138      00
 4139              	.LASF269:
 4140 0ad8 745F7465 		.ascii	"t_term_tot\000"
 4140      726D5F74 
 4140      6F7400
 4141              	.LASF158:
 4142 0ae3 61706E63 		.ascii	"apnconfig2\000"
 4142      6F6E6669 
 4142      673200
 4143              	.LASF302:
 4144 0aee 67474453 		.ascii	"gGDS\000"
 4144      00
 4145              	.LASF142:
 4146 0af3 625F6375 		.ascii	"b_currency\000"
 4146      7272656E 
 4146      637900
 4147              	.LASF122:
 4148 0afe 625F6368 		.ascii	"b_checkin_pri_redial\000"
 4148      65636B69 
 4148      6E5F7072 
 4148      695F7265 
 4148      6469616C 
 4149              	.LASF41:
 4150 0b13 4553414C 		.ascii	"ESALE_UNDER_LMT\000"
 4150      455F554E 
 4150      4445525F 
 4150      4C4D5400 
 4151              	.LASF183:
 4152 0b23 73625F70 		.ascii	"sb_pri_settle_tel\000"
 4152      72695F73 
 4152      6574746C 
 4152      655F7465 
 4152      6C00
 4153              	.LASF264:
 4154 0b35 735F7465 		.ascii	"s_term_data\000"
 4154      726D5F64 
 4154      61746100 
 4155              	.LASF289:
 4156 0b41 73625F61 		.ascii	"sb_amex_4DBC\000"
 4156      6D65785F 
 4156      34444243 
ARM GAS  C:\Users\ahmedhamed\AppData\Local\Temp\ccPu5fZo.s 			page 85


 4156      00
 4157              	.LASF256:
 4158 0b4e 735F6973 		.ascii	"s_issuer_tbl\000"
 4158      73756572 
 4158      5F74626C 
 4158      00
 4159              	.LASF199:
 4160 0b5b 625F7373 		.ascii	"b_ssl_key_idx\000"
 4160      6C5F6B65 
 4160      795F6964 
 4160      7800
 4161              	.LASF106:
 4162 0b69 73625F65 		.ascii	"sb_emvkey_size\000"
 4162      6D766B65 
 4162      795F7369 
 4162      7A6500
 4163              	.LASF73:
 4164 0b78 73625F74 		.ascii	"sb_term_id\000"
 4164      65726D5F 
 4164      696400
 4165              	.LASF131:
 4166 0b83 625F646C 		.ascii	"b_dll\000"
 4166      6C00
 4167              	.LASF100:
 4168 0b89 73625F65 		.ascii	"sb_edc_size\000"
 4168      64635F73 
 4168      697A6500 
 4169              	.LASF64:
 4170 0b95 73625F63 		.ascii	"sb_content\000"
 4170      6F6E7465 
 4170      6E7400
 4171              	.LASF104:
 4172 0ba0 73625F65 		.ascii	"sb_emvkey_chksum\000"
 4172      6D766B65 
 4172      795F6368 
 4172      6B73756D 
 4172      00
 4173              	.LASF292:
 4174 0bb1 625F6F72 		.ascii	"b_org_trans\000"
 4174      675F7472 
 4174      616E7300 
 4175              	.LASF218:
 4176 0bbd 625F7472 		.ascii	"b_trans_status\000"
 4176      616E735F 
 4176      73746174 
 4176      757300
 4177              	.LASF144:
 4178 0bcc 625F6465 		.ascii	"b_decimal_pos\000"
 4178      63696D61 
 4178      6C5F706F 
 4178      7300
 4179              	.LASF74:
 4180 0bda 625F696E 		.ascii	"b_init_mode\000"
 4180      69745F6D 
 4180      6F646500 
 4181              	.LASF303:
 4182 0be6 67475453 		.ascii	"gGTS\000"
ARM GAS  C:\Users\ahmedhamed\AppData\Local\Temp\ccPu5fZo.s 			page 86


 4182      00
 4183              	.LASF96:
 4184 0beb 625F6563 		.ascii	"b_ecr_port\000"
 4184      725F706F 
 4184      727400
 4185              	.LASF103:
 4186 0bf6 73625F65 		.ascii	"sb_emvapp_size\000"
 4186      6D766170 
 4186      705F7369 
 4186      7A6500
 4187              	.LASF19:
 4188 0c05 625F6461 		.ascii	"b_day\000"
 4188      7900
 4189              	.LASF0:
 4190 0c0b 756E7369 		.ascii	"unsigned int\000"
 4190      676E6564 
 4190      20696E74 
 4190      00
 4191              	.LASF25:
 4192 0c18 53414C45 		.ascii	"SALE_SWIPE\000"
 4192      5F535749 
 4192      504500
 4193              	.LASF60:
 4194 0c23 44415445 		.ascii	"DATETIME\000"
 4194      54494D45 
 4194      00
 4195              	.LASF283:
 4196 0c2c 494E5055 		.ascii	"INPUT_DATA\000"
 4196      545F4441 
 4196      544100
 4197              	.LASF215:
 4198 0c37 54584E5F 		.ascii	"TXN_RECORD\000"
 4198      5245434F 
 4198      524400
 4199              	.LASF216:
 4200 0c42 625F7472 		.ascii	"b_trans\000"
 4200      616E7300 
 4201              	.LASF168:
 4202 0c4a 625F6964 		.ascii	"b_id\000"
 4202      00
 4203              	.LASF154:
 4204 0c4f 61706E5F 		.ascii	"apn_password\000"
 4204      70617373 
 4204      776F7264 
 4204      00
 4205              	.LASF267:
 4206 0c5c 735F705F 		.ascii	"s_p_data\000"
 4206      64617461 
 4206      00
 4207              	.LASF258:
 4208 0c65 42535F44 		.ascii	"BS_DATE\000"
 4208      41544500 
 4209              	.LASF9:
 4210 0c6d 73697A65 		.ascii	"sizetype\000"
 4210      74797065 
 4210      00
 4211              	.LASF23:
ARM GAS  C:\Users\ahmedhamed\AppData\Local\Temp\ccPu5fZo.s 			page 87


 4212 0c76 41555448 		.ascii	"AUTH_SWIPE\000"
 4212      5F535749 
 4212      504500
 4213              	.LASF6:
 4214 0c81 6C6F6E67 		.ascii	"long unsigned int\000"
 4214      20756E73 
 4214      69676E65 
 4214      6420696E 
 4214      7400
 4215              	.LASF37:
 4216 0c93 4544435F 		.ascii	"EDC_REV\000"
 4216      52455600 
 4217              	.LASF203:
 4218 0c9b 625F6B65 		.ascii	"b_key\000"
 4218      7900
 4219              	.LASF204:
 4220 0ca1 73625F68 		.ascii	"sb_host_tx_code\000"
 4220      6F73745F 
 4220      74785F63 
 4220      6F646500 
 4221              	.LASF237:
 4222 0cb1 735F6963 		.ascii	"s_icc_data\000"
 4222      635F6461 
 4222      746100
 4223              	.LASF47:
 4224 0cbc 53455454 		.ascii	"SETT_ADV\000"
 4224      5F414456 
 4224      00
 4225              	.LASF252:
 4226 0cc5 53544953 		.ascii	"STIS_DATA\000"
 4226      5F444154 
 4226      4100
 4227              	.LASF107:
 4228 0ccf 73625F78 		.ascii	"sb_xapp_chksum\000"
 4228      6170705F 
 4228      63686B73 
 4228      756D00
 4229              	.LASF208:
 4230 0cde 625F6169 		.ascii	"b_aid_len\000"
 4230      645F6C65 
 4230      6E00
 4231              	.LASF43:
 4232 0ce8 53414C45 		.ascii	"SALE_CTL\000"
 4232      5F43544C 
 4232      00
 4233              	.LASF92:
 4234 0cf1 775F7472 		.ascii	"w_training_status\000"
 4234      61696E69 
 4234      6E675F73 
 4234      74617475 
 4234      7300
 4235              	.LASF254:
 4236 0d03 735F6465 		.ascii	"s_desc_tbl\000"
 4236      73635F74 
 4236      626C00
 4237              	.LASF2:
 4238 0d0e 756E7369 		.ascii	"unsigned char\000"
ARM GAS  C:\Users\ahmedhamed\AppData\Local\Temp\ccPu5fZo.s 			page 88


 4238      676E6564 
 4238      20636861 
 4238      7200
 4239              	.LASF28:
 4240 0d1c 4F4E4C5F 		.ascii	"ONL_REFUND_MNL\000"
 4240      52454655 
 4240      4E445F4D 
 4240      4E4C00
 4241              	.LASF275:
 4242 0d2b 735F454D 		.ascii	"s_EMVOut\000"
 4242      564F7574 
 4242      00
 4243              	.LASF26:
 4244 0d34 53414C45 		.ascii	"SALE_MANUAL\000"
 4244      5F4D414E 
 4244      55414C00 
 4245              	.LASF136:
 4246 0d40 625F6469 		.ascii	"b_dial_option\000"
 4246      616C5F6F 
 4246      7074696F 
 4246      6E00
 4247              	.LASF150:
 4248 0d4e 73625F72 		.ascii	"sb_reserved\000"
 4248      65736572 
 4248      76656400 
 4249              	.LASF301:
 4250 0d5a 735F7273 		.ascii	"s_rsp_data\000"
 4250      705F6461 
 4250      746100
 4251              	.LASF148:
 4252 0d65 625F6C6F 		.ascii	"b_local_option\000"
 4252      63616C5F 
 4252      6F707469 
 4252      6F6E00
 4253              	.LASF49:
 4254 0d74 4D41585F 		.ascii	"MAX_TXN_TYPE\000"
 4254      54584E5F 
 4254      54595045 
 4254      00
 4255              	.LASF214:
 4256 0d81 73625F6D 		.ascii	"sb_misc_content\000"
 4256      6973635F 
 4256      636F6E74 
 4256      656E7400 
 4257              	.LASF166:
 4258 0d91 625F7061 		.ascii	"b_pan_len\000"
 4258      6E5F6C65 
 4258      6E00
 4259              	.LASF105:
 4260 0d9b 73625F65 		.ascii	"sb_emvkey_date\000"
 4260      6D766B65 
 4260      795F6461 
 4260      746500
 4261              	.LASF54:
 4262 0daa 77546167 		.ascii	"wTag\000"
 4262      00
 4263              	.LASF232:
ARM GAS  C:\Users\ahmedhamed\AppData\Local\Temp\ccPu5fZo.s 			page 89


 4264 0daf 625F5069 		.ascii	"b_PinVerified\000"
 4264      6E566572 
 4264      69666965 
 4264      6400
 4265              	.LASF239:
 4266 0dbd 50524E5F 		.ascii	"PRN_DATA\000"
 4266      44415441 
 4266      00
 4267              	.LASF227:
 4268 0dc6 625F656E 		.ascii	"b_entry_mode\000"
 4268      7472795F 
 4268      6D6F6465 
 4268      00
 4269              	.LASF274:
 4270 0dd3 735F454D 		.ascii	"s_EMVIn\000"
 4270      56496E00 
 4271              	.LASF1:
 4272 0ddb 7369676E 		.ascii	"signed char\000"
 4272      65642063 
 4272      68617200 
 4273              	.LASF125:
 4274 0de7 625F6368 		.ascii	"b_checkin_sec_redial\000"
 4274      65636B69 
 4274      6E5F7365 
 4274      635F7265 
 4274      6469616C 
 4275              	.LASF242:
 4276 0dfc 544F5441 		.ascii	"TOTAL\000"
 4276      4C00
 4277              	.LASF4:
 4278 0e02 73686F72 		.ascii	"short unsigned int\000"
 4278      7420756E 
 4278      7369676E 
 4278      65642069 
 4278      6E7400
 4279              	.LASF22:
 4280 0e15 625F7365 		.ascii	"b_second\000"
 4280      636F6E64 
 4280      00
 4281              	.LASF235:
 4282 0e1e 775F6973 		.ascii	"w_issuer_idx\000"
 4282      73756572 
 4282      5F696478 
 4282      00
 4283              	.LASF172:
 4284 0e2b 73625F70 		.ascii	"sb_pan_format\000"
 4284      616E5F66 
 4284      6F726D61 
 4284      7400
 4285              	.LASF314:
 4286 0e39 433A5C55 		.ascii	"C:\\Users\\ahmedhamed\\Documents\\GitHub\\S_MISR\\A"
 4286      73657273 
 4286      5C61686D 
 4286      65646861 
 4286      6D65645C 
 4287 0e66 50505C4D 		.ascii	"PP\\MISR\000"
 4287      49535200 
ARM GAS  C:\Users\ahmedhamed\AppData\Local\Temp\ccPu5fZo.s 			page 90


 4288              	.LASF155:
 4289 0e6e 61706E32 		.ascii	"apn2_username\000"
 4289      5F757365 
 4289      726E616D 
 4289      6500
 4290              	.LASF266:
 4291 0e7c 735F6163 		.ascii	"s_acq_rev\000"
 4291      715F7265 
 4291      7600
 4292              	.LASF193:
 4293 0e86 73625F63 		.ascii	"sb_curr_batch_no\000"
 4293      7572725F 
 4293      62617463 
 4293      685F6E6F 
 4293      00
 4294              	.LASF80:
 4295 0e97 625F7365 		.ascii	"b_sec_redial\000"
 4295      635F7265 
 4295      6469616C 
 4295      00
 4296              	.LASF137:
 4297 0ea4 73625F70 		.ascii	"sb_password\000"
 4297      61737377 
 4297      6F726400 
 4298              	.LASF89:
 4299 0eb0 625F656D 		.ascii	"b_emv_enable\000"
 4299      765F656E 
 4299      61626C65 
 4299      00
 4300              	.LASF310:
 4301 0ebd 53617665 		.ascii	"SaveOfflRecord\000"
 4301      4F66666C 
 4301      5265636F 
 4301      726400
 4302              	.LASF119:
 4303 0ecc 73625F73 		.ascii	"sb_server_key\000"
 4303      65727665 
 4303      725F6B65 
 4303      7900
 4304              	.LASF236:
 4305 0eda 735F6474 		.ascii	"s_dtg\000"
 4305      6700
 4306              	.LASF315:
 4307 0ee0 53616C65 		.ascii	"SaleOfflTrans\000"
 4307      4F66666C 
 4307      5472616E 
 4307      7300
 4308              	.LASF272:
 4309 0eee 735F5278 		.ascii	"s_RxMsg\000"
 4309      4D736700 
 4310              	.LASF109:
 4311 0ef6 73625F78 		.ascii	"sb_xapp_size\000"
 4311      6170705F 
 4311      73697A65 
 4311      00
 4312              	.LASF210:
 4313 0f03 73625F74 		.ascii	"sb_tag_95\000"
ARM GAS  C:\Users\ahmedhamed\AppData\Local\Temp\ccPu5fZo.s 			page 91


 4313      61675F39 
 4313      3500
 4314              	.LASF318:
 4315 0f0d 47657441 		.ascii	"GetAuthCode\000"
 4315      75746843 
 4315      6F646500 
 4316              	.LASF162:
 4317 0f19 73625F70 		.ascii	"sb_pan_range_low\000"
 4317      616E5F72 
 4317      616E6765 
 4317      5F6C6F77 
 4317      00
 4318              	.LASF15:
 4319 0f2a 4444574F 		.ascii	"DDWORD\000"
 4319      524400
 4320              	.LASF18:
 4321 0f31 625F6D6F 		.ascii	"b_month\000"
 4321      6E746800 
 4322              	.LASF56:
 4323 0f39 70624C6F 		.ascii	"pbLoc\000"
 4323      6300
 4324              	.LASF86:
 4325 0f3f 73625F69 		.ascii	"sb_ip\000"
 4325      7000
 4326              	.LASF278:
 4327 0f45 735F5461 		.ascii	"s_TagList\000"
 4327      674C6973 
 4327      7400
 4328              	.LASF255:
 4329 0f4f 735F6163 		.ascii	"s_acquirer_tbl\000"
 4329      71756972 
 4329      65725F74 
 4329      626C00
 4330              	.LASF52:
 4331 0f5e 624D7367 		.ascii	"bMsg\000"
 4331      00
 4332              	.LASF200:
 4333 0f63 625F7374 		.ascii	"b_status\000"
 4333      61747573 
 4333      00
 4334              	.LASF50:
 4335 0f6c 44454641 		.ascii	"DEFAULT_TRANS\000"
 4335      554C545F 
 4335      5452414E 
 4335      5300
 4336              	.LASF51:
 4337 0f7a 774C656E 		.ascii	"wLen\000"
 4337      00
 4338              	.LASF285:
 4339 0f7f 735F7472 		.ascii	"s_trk1buf\000"
 4339      6B316275 
 4339      6600
 4340              	.LASF67:
 4341 0f89 4D575F54 		.ascii	"MW_TRK2BUF\000"
 4341      524B3242 
 4341      554600
 4342              	.LASF157:
ARM GAS  C:\Users\ahmedhamed\AppData\Local\Temp\ccPu5fZo.s 			page 92


 4343 0f94 61706E63 		.ascii	"apnconfig\000"
 4343      6F6E6669 
 4343      6700
 4344              	.LASF246:
 4345 0f9e 735F7361 		.ascii	"s_sale_tot\000"
 4345      6C655F74 
 4345      6F7400
 4346              		.ident	"GCC: (GNU Tools for ARM Embedded Processors) 4.9.3 20141119 (release) [ARM/embedded-4_9-br
ARM GAS  C:\Users\ahmedhamed\AppData\Local\Temp\ccPu5fZo.s 			page 93


DEFINED SYMBOLS
                            *ABS*:00000000 SaleOffl.c
C:\Users\ahmedhamed\AppData\Local\Temp\ccPu5fZo.s:19     .text.SaleOfflTrans:00000000 $t
C:\Users\ahmedhamed\AppData\Local\Temp\ccPu5fZo.s:24     .text.SaleOfflTrans:00000000 SaleOfflTrans
C:\Users\ahmedhamed\AppData\Local\Temp\ccPu5fZo.s:113    .text.SaleOfflTrans:00000064 $d
                     .debug_frame:00000010 $d

UNDEFINED SYMBOLS
DispHeader
IncTraceNo
PackHeader
TransAllowed
RefreshDispAfter
GetAuthCode
IncTraceNoEND
PackDTGAA
SaveOfflRecord
PackInputP
TransEnd
gGTS
gGDS
