ARM GAS  C:\Users\AHMED~1.ELE\AppData\Local\Temp\ccCpkcmf.s 			page 1


   1              		.syntax unified
   2              		.cpu cortex-a5
   3              		.fpu softvfp
   4              		.eabi_attribute 20, 1
   5              		.eabi_attribute 21, 1
   6              		.eabi_attribute 23, 3
   7              		.eabi_attribute 24, 1
   8              		.eabi_attribute 25, 1
   9              		.eabi_attribute 26, 1
  10              		.eabi_attribute 30, 4
  11              		.eabi_attribute 34, 0
  12              		.eabi_attribute 18, 4
  13              		.thumb
  14              		.file	"SaleOffl.c"
  15              		.text
  16              	.Ltext0:
  17              		.cfi_sections	.debug_frame
  18              		.section	.text.SaleOfflTrans,"ax",%progbits
  19              		.align	1
  20              		.global	SaleOfflTrans
  21              		.thumb
  22              		.thumb_func
  23              		.type	SaleOfflTrans, %function
  24              	SaleOfflTrans:
  25              	.LFB0:
  26              		.file 1 "src/SaleOffl.c"
   1:src/SaleOffl.c **** //-----------------------------------------------------------------------------
   2:src/SaleOffl.c **** //  File          : saleoffl.c
   3:src/SaleOffl.c **** //  Module        :
   4:src/SaleOffl.c **** //  Description   : Include Offline Sale transaction.
   5:src/SaleOffl.c **** //  Author        : Lewis
   6:src/SaleOffl.c **** //  Notes         : N/A
   7:src/SaleOffl.c **** //
   8:src/SaleOffl.c **** // ============================================================================
   9:src/SaleOffl.c **** // | Naming conventions                                                       |
  10:src/SaleOffl.c **** // | ~~~~~~~~~~~~~~~~~~                                                       |
  11:src/SaleOffl.c **** // |        Struct define : Leading T                                         |
  12:src/SaleOffl.c **** // |         Struct/Array : Leading s                                         |
  13:src/SaleOffl.c **** // |             Constant : Leading K                                         |
  14:src/SaleOffl.c **** // |      Global Variable : Leading g  (variable use outside one C file)      |
  15:src/SaleOffl.c **** // |                                                                          |
  16:src/SaleOffl.c **** // |   BYTE( 8 Bits) size : Leading b                                         |
  17:src/SaleOffl.c **** // |   CHAR( 8 Bits) size : Leading c                                         |
  18:src/SaleOffl.c **** // |   WORD(16 Bits) size : Leading w                                         |
  19:src/SaleOffl.c **** // |  DWORD(32 Bits) size : Leading d                                         |
  20:src/SaleOffl.c **** // |    int(32 Bits) size : Leading i                                         |
  21:src/SaleOffl.c **** // | DDWORD(64 Bits) size : Leading dd                                        |
  22:src/SaleOffl.c **** // |              Pointer : Leading p                                         |
  23:src/SaleOffl.c **** // |                                                                          |
  24:src/SaleOffl.c **** // |    Function argument : Leading a                                         |
  25:src/SaleOffl.c **** // |       Local Variable : All lower case                                    |
  26:src/SaleOffl.c **** // |                                                                          |
  27:src/SaleOffl.c **** // | Examples:                                                                |
  28:src/SaleOffl.c **** // |                Array : Leading s, (sb = arrary of byte, etc)             |
  29:src/SaleOffl.c **** // |              Pointer : Leading p, (pb = pointer of byte, etc)            |
  30:src/SaleOffl.c **** // ============================================================================
  31:src/SaleOffl.c **** //
ARM GAS  C:\Users\AHMED~1.ELE\AppData\Local\Temp\ccCpkcmf.s 			page 2


  32:src/SaleOffl.c **** //  Date          Who         Action
  33:src/SaleOffl.c **** //  ------------  ----------- -------------------------------------------------
  34:src/SaleOffl.c **** //  10 May  2006  Lewis       Initial Version for new CONTROL
  35:src/SaleOffl.c **** //-----------------------------------------------------------------------------
  36:src/SaleOffl.c **** #include <string.h>
  37:src/SaleOffl.c **** #include "util.h"
  38:src/SaleOffl.c **** #include "sysutil.h"
  39:src/SaleOffl.c **** #include "message.h"
  40:src/SaleOffl.c **** #include "constant.h"
  41:src/SaleOffl.c **** #include "corevar.h"
  42:src/SaleOffl.c **** #include "chkoptn.h"
  43:src/SaleOffl.c **** #include "input.h"
  44:src/SaleOffl.c **** #include "print.h"
  45:src/SaleOffl.c **** #include "tranutil.h"
  46:src/SaleOffl.c **** #include "hostmsg.h"
  47:src/SaleOffl.c **** #include "record.h"
  48:src/SaleOffl.c **** #include "reversal.h"
  49:src/SaleOffl.c **** #include "offline.h"
  50:src/SaleOffl.c **** 
  51:src/SaleOffl.c **** 
  52:src/SaleOffl.c **** //*****************************************************************************
  53:src/SaleOffl.c **** //  Function        : SaleOfflTrans
  54:src/SaleOffl.c **** //  Description     : Sale Offline transaction.
  55:src/SaleOffl.c **** //  Input           : aInputMode;       // Transaction start mode
  56:src/SaleOffl.c **** //  Return          : N/A
  57:src/SaleOffl.c **** //  Note            : N/A
  58:src/SaleOffl.c **** //  Globals Changed : N/A
  59:src/SaleOffl.c **** //*****************************************************************************
  60:src/SaleOffl.c **** DWORD SaleOfflTrans(DWORD aInputMode)
  61:src/SaleOffl.c **** {
  27              		.loc 1 61 0
  28              		.cfi_startproc
  29              		@ args = 0, pretend = 0, frame = 0
  30              		@ frame_needed = 0, uses_anonymous_args = 0
  31              	.LVL0:
  32 0000 38B5     		push	{r3, r4, r5, lr}
  33              		.cfi_def_cfa_offset 16
  34              		.cfi_offset 3, -16
  35              		.cfi_offset 4, -12
  36              		.cfi_offset 5, -8
  37              		.cfi_offset 14, -4
  62:src/SaleOffl.c ****   INPUT.b_trans = SALE_OFFLINE;
  38              		.loc 1 62 0
  39 0002 0723     		movs	r3, #7
  40 0004 174C     		ldr	r4, .L9
  61:src/SaleOffl.c ****   INPUT.b_trans = SALE_OFFLINE;
  41              		.loc 1 61 0
  42 0006 0546     		mov	r5, r0
  63:src/SaleOffl.c **** 
  64:src/SaleOffl.c ****   DispHeader(NULL);
  43              		.loc 1 64 0
  44 0008 0020     		movs	r0, #0
  45              	.LVL1:
  62:src/SaleOffl.c **** 
  46              		.loc 1 62 0
  47 000a 2370     		strb	r3, [r4]
  48              		.loc 1 64 0
ARM GAS  C:\Users\AHMED~1.ELE\AppData\Local\Temp\ccCpkcmf.s 			page 3


  49 000c FFF7FEFF 		bl	DispHeader
  50              	.LVL2:
  65:src/SaleOffl.c ****   //PowerFailure();
  66:src/SaleOffl.c ****   IncTraceNo();
  51              		.loc 1 66 0
  52 0010 FFF7FEFF 		bl	IncTraceNo
  53              	.LVL3:
  67:src/SaleOffl.c ****   PackHeader();
  54              		.loc 1 67 0
  55 0014 FFF7FEFF 		bl	PackHeader
  56              	.LVL4:
  68:src/SaleOffl.c **** 
  69:src/SaleOffl.c ****   if (!TransAllowed(aInputMode)) {
  57              		.loc 1 69 0
  58 0018 2846     		mov	r0, r5
  59 001a FFF7FEFF 		bl	TransAllowed
  60              	.LVL5:
  61 001e 20B9     		cbnz	r0, .L2
  62              	.L4:
  70:src/SaleOffl.c ****     RefreshDispAfter(0);
  63              		.loc 1 70 0
  64 0020 0020     		movs	r0, #0
  65 0022 FFF7FEFF 		bl	RefreshDispAfter
  66              	.LVL6:
  71:src/SaleOffl.c ****     return FALSE;
  67              		.loc 1 71 0
  68 0026 0020     		movs	r0, #0
  69 0028 38BD     		pop	{r3, r4, r5, pc}
  70              	.LVL7:
  71              	.L2:
  72:src/SaleOffl.c ****   }
  73:src/SaleOffl.c **** 
  74:src/SaleOffl.c ****   if (!GetAuthCode()) {
  72              		.loc 1 74 0
  73 002a FFF7FEFF 		bl	GetAuthCode
  74              	.LVL8:
  75 002e 0028     		cmp	r0, #0
  76 0030 F6D0     		beq	.L4
  75:src/SaleOffl.c ****     RefreshDispAfter(0);
  76:src/SaleOffl.c ****     return FALSE;
  77:src/SaleOffl.c ****   }
  78:src/SaleOffl.c **** 
  79:src/SaleOffl.c ****   DispHeader(STIS_ISS_TBL(0).sb_card_name);
  77              		.loc 1 79 0
  78 0032 0D4B     		ldr	r3, .L9+4
  79 0034 1868     		ldr	r0, [r3]
  80 0036 00F2A140 		addw	r0, r0, #1185
  81 003a FFF7FEFF 		bl	DispHeader
  82              	.LVL9:
  80:src/SaleOffl.c ****   RSP_DATA.b_response = TRANS_ACP;
  83              		.loc 1 80 0
  84 003e 0023     		movs	r3, #0
  85 0040 84F80037 		strb	r3, [r4, #1792]
  81:src/SaleOffl.c ****   INPUT.b_trans_status = OFFLINE;
  86              		.loc 1 81 0
  87 0044 8023     		movs	r3, #128
  88 0046 6370     		strb	r3, [r4, #1]
ARM GAS  C:\Users\AHMED~1.ELE\AppData\Local\Temp\ccCpkcmf.s 			page 4


  82:src/SaleOffl.c ****   IncTraceNoEND();
  89              		.loc 1 82 0
  90 0048 FFF7FEFF 		bl	IncTraceNoEND
  91              	.LVL10:
  83:src/SaleOffl.c ****   PackDTGAA();
  92              		.loc 1 83 0
  93 004c FFF7FEFF 		bl	PackDTGAA
  94              	.LVL11:
  84:src/SaleOffl.c ****   SaveOfflRecord();   //17-12-12 JC ++
  95              		.loc 1 84 0
  96 0050 FFF7FEFF 		bl	SaveOfflRecord
  97              	.LVL12:
  85:src/SaleOffl.c ****   PackInputP();
  98              		.loc 1 85 0
  99 0054 FFF7FEFF 		bl	PackInputP
 100              	.LVL13:
  86:src/SaleOffl.c ****   TransEnd(TRUE);
 101              		.loc 1 86 0
 102 0058 0120     		movs	r0, #1
 103 005a FFF7FEFF 		bl	TransEnd
 104              	.LVL14:
  87:src/SaleOffl.c ****   return TRUE;
 105              		.loc 1 87 0
 106 005e 0120     		movs	r0, #1
  88:src/SaleOffl.c **** }
 107              		.loc 1 88 0
 108 0060 38BD     		pop	{r3, r4, r5, pc}
 109              	.LVL15:
 110              	.L10:
 111 0062 00BF     		.align	2
 112              	.L9:
 113 0064 00000000 		.word	gGTS
 114 0068 00000000 		.word	gGDS
 115              		.cfi_endproc
 116              	.LFE0:
 117              		.size	SaleOfflTrans, .-SaleOfflTrans
 118              		.text
 119              	.Letext0:
 120              		.file 2 "../LibA5T1000/common.h"
 121              		.file 3 "src/sysutil.h"
 122              		.file 4 "../LibA5T1000/emv2dll.h"
 123              		.file 5 "../LibA5T1000/emvcl2dll.h"
 124              		.file 6 "../LibA5T1000/ecrdll.h"
 125              		.file 7 "../LibA5T1000/midware.h"
 126              		.file 8 "../LibA5T1000/apm.h"
 127              		.file 9 "src/corevar.h"
 128              		.file 10 "src/tranutil.h"
 129              		.file 11 "src/record.h"
 130              		.file 12 "src/constant.h"
 131              		.file 13 "src/input.h"
 132              		.section	.debug_info,"",%progbits
 133              	.Ldebug_info0:
 134 0000 77180000 		.4byte	0x1877
 135 0004 0400     		.2byte	0x4
 136 0006 00000000 		.4byte	.Ldebug_abbrev0
 137 000a 04       		.byte	0x4
 138 000b 01       		.uleb128 0x1
ARM GAS  C:\Users\AHMED~1.ELE\AppData\Local\Temp\ccCpkcmf.s 			page 5


 139 000c 2D010000 		.4byte	.LASF309
 140 0010 01       		.byte	0x1
 141 0011 F7060000 		.4byte	.LASF310
 142 0015 51090000 		.4byte	.LASF311
 143 0019 00000000 		.4byte	.Ldebug_ranges0+0
 144 001d 00000000 		.4byte	0
 145 0021 00000000 		.4byte	.Ldebug_line0
 146 0025 02       		.uleb128 0x2
 147 0026 04       		.byte	0x4
 148 0027 05       		.byte	0x5
 149 0028 696E7400 		.ascii	"int\000"
 150 002c 03       		.uleb128 0x3
 151 002d 04       		.byte	0x4
 152 002e 07       		.byte	0x7
 153 002f 0F0C0000 		.4byte	.LASF0
 154 0033 03       		.uleb128 0x3
 155 0034 01       		.byte	0x1
 156 0035 06       		.byte	0x6
 157 0036 DF0D0000 		.4byte	.LASF1
 158 003a 03       		.uleb128 0x3
 159 003b 01       		.byte	0x1
 160 003c 08       		.byte	0x8
 161 003d 120D0000 		.4byte	.LASF2
 162 0041 03       		.uleb128 0x3
 163 0042 02       		.byte	0x2
 164 0043 05       		.byte	0x5
 165 0044 950A0000 		.4byte	.LASF3
 166 0048 03       		.uleb128 0x3
 167 0049 02       		.byte	0x2
 168 004a 07       		.byte	0x7
 169 004b 060E0000 		.4byte	.LASF4
 170 004f 03       		.uleb128 0x3
 171 0050 04       		.byte	0x4
 172 0051 05       		.byte	0x5
 173 0052 CE0A0000 		.4byte	.LASF5
 174 0056 03       		.uleb128 0x3
 175 0057 04       		.byte	0x4
 176 0058 07       		.byte	0x7
 177 0059 850C0000 		.4byte	.LASF6
 178 005d 03       		.uleb128 0x3
 179 005e 08       		.byte	0x8
 180 005f 05       		.byte	0x5
 181 0060 EC070000 		.4byte	.LASF7
 182 0064 03       		.uleb128 0x3
 183 0065 08       		.byte	0x8
 184 0066 07       		.byte	0x7
 185 0067 31040000 		.4byte	.LASF8
 186 006b 03       		.uleb128 0x3
 187 006c 04       		.byte	0x4
 188 006d 07       		.byte	0x7
 189 006e 710C0000 		.4byte	.LASF9
 190 0072 03       		.uleb128 0x3
 191 0073 01       		.byte	0x1
 192 0074 06       		.byte	0x6
 193 0075 72060000 		.4byte	.LASF10
 194 0079 04       		.uleb128 0x4
 195 007a 81020000 		.4byte	.LASF11
ARM GAS  C:\Users\AHMED~1.ELE\AppData\Local\Temp\ccCpkcmf.s 			page 6


 196 007e 02       		.byte	0x2
 197 007f 0D       		.byte	0xd
 198 0080 3A000000 		.4byte	0x3a
 199 0084 04       		.uleb128 0x4
 200 0085 B9000000 		.4byte	.LASF12
 201 0089 02       		.byte	0x2
 202 008a 0E       		.byte	0xe
 203 008b 3A000000 		.4byte	0x3a
 204 008f 04       		.uleb128 0x4
 205 0090 A9080000 		.4byte	.LASF13
 206 0094 02       		.byte	0x2
 207 0095 0F       		.byte	0xf
 208 0096 48000000 		.4byte	0x48
 209 009a 04       		.uleb128 0x4
 210 009b 48040000 		.4byte	.LASF14
 211 009f 02       		.byte	0x2
 212 00a0 10       		.byte	0x10
 213 00a1 2C000000 		.4byte	0x2c
 214 00a5 04       		.uleb128 0x4
 215 00a6 F90E0000 		.4byte	.LASF15
 216 00aa 02       		.byte	0x2
 217 00ab 11       		.byte	0x11
 218 00ac 64000000 		.4byte	0x64
 219 00b0 05       		.uleb128 0x5
 220 00b1 84000000 		.4byte	0x84
 221 00b5 C0000000 		.4byte	0xc0
 222 00b9 06       		.uleb128 0x6
 223 00ba 6B000000 		.4byte	0x6b
 224 00be 01       		.byte	0x1
 225 00bf 00       		.byte	0
 226 00c0 07       		.uleb128 0x7
 227 00c1 04       		.byte	0x4
 228 00c2 84000000 		.4byte	0x84
 229 00c6 05       		.uleb128 0x5
 230 00c7 84000000 		.4byte	0x84
 231 00cb D6000000 		.4byte	0xd6
 232 00cf 06       		.uleb128 0x6
 233 00d0 6B000000 		.4byte	0x6b
 234 00d4 03       		.byte	0x3
 235 00d5 00       		.byte	0
 236 00d6 08       		.uleb128 0x8
 237 00d7 270C0000 		.4byte	.LASF59
 238 00db 08       		.byte	0x8
 239 00dc 03       		.byte	0x3
 240 00dd 3A       		.byte	0x3a
 241 00de 37010000 		.4byte	0x137
 242 00e2 09       		.uleb128 0x9
 243 00e3 1A090000 		.4byte	.LASF16
 244 00e7 03       		.byte	0x3
 245 00e8 3B       		.byte	0x3b
 246 00e9 84000000 		.4byte	0x84
 247 00ed 00       		.byte	0
 248 00ee 09       		.uleb128 0x9
 249 00ef 87000000 		.4byte	.LASF17
 250 00f3 03       		.byte	0x3
 251 00f4 3C       		.byte	0x3c
 252 00f5 84000000 		.4byte	0x84
ARM GAS  C:\Users\AHMED~1.ELE\AppData\Local\Temp\ccCpkcmf.s 			page 7


 253 00f9 01       		.byte	0x1
 254 00fa 09       		.uleb128 0x9
 255 00fb 000F0000 		.4byte	.LASF18
 256 00ff 03       		.byte	0x3
 257 0100 3D       		.byte	0x3d
 258 0101 84000000 		.4byte	0x84
 259 0105 02       		.byte	0x2
 260 0106 09       		.uleb128 0x9
 261 0107 090C0000 		.4byte	.LASF19
 262 010b 03       		.byte	0x3
 263 010c 3E       		.byte	0x3e
 264 010d 84000000 		.4byte	0x84
 265 0111 03       		.byte	0x3
 266 0112 09       		.uleb128 0x9
 267 0113 0D080000 		.4byte	.LASF20
 268 0117 03       		.byte	0x3
 269 0118 3F       		.byte	0x3f
 270 0119 84000000 		.4byte	0x84
 271 011d 04       		.byte	0x4
 272 011e 09       		.uleb128 0x9
 273 011f 5F000000 		.4byte	.LASF21
 274 0123 03       		.byte	0x3
 275 0124 40       		.byte	0x40
 276 0125 84000000 		.4byte	0x84
 277 0129 05       		.byte	0x5
 278 012a 09       		.uleb128 0x9
 279 012b 190E0000 		.4byte	.LASF22
 280 012f 03       		.byte	0x3
 281 0130 41       		.byte	0x41
 282 0131 84000000 		.4byte	0x84
 283 0135 06       		.byte	0x6
 284 0136 00       		.byte	0
 285 0137 05       		.uleb128 0x5
 286 0138 84000000 		.4byte	0x84
 287 013c 47010000 		.4byte	0x147
 288 0140 06       		.uleb128 0x6
 289 0141 6B000000 		.4byte	0x6b
 290 0145 14       		.byte	0x14
 291 0146 00       		.byte	0
 292 0147 0A       		.uleb128 0xa
 293 0148 01       		.byte	0x1
 294 0149 0C       		.byte	0xc
 295 014a 33       		.byte	0x33
 296 014b F3010000 		.4byte	0x1f3
 297 014f 0B       		.uleb128 0xb
 298 0150 7A0C0000 		.4byte	.LASF23
 299 0154 00       		.sleb128 0
 300 0155 0B       		.uleb128 0xb
 301 0156 0B020000 		.4byte	.LASF24
 302 015a 01       		.sleb128 1
 303 015b 0B       		.uleb128 0xb
 304 015c 1C0C0000 		.4byte	.LASF25
 305 0160 02       		.sleb128 2
 306 0161 0B       		.uleb128 0xb
 307 0162 380D0000 		.4byte	.LASF26
 308 0166 03       		.sleb128 3
 309 0167 0B       		.uleb128 0xb
ARM GAS  C:\Users\AHMED~1.ELE\AppData\Local\Temp\ccCpkcmf.s 			page 8


 310 0168 CB080000 		.4byte	.LASF27
 311 016c 04       		.sleb128 4
 312 016d 0B       		.uleb128 0xb
 313 016e 200D0000 		.4byte	.LASF28
 314 0172 05       		.sleb128 5
 315 0173 0B       		.uleb128 0xb
 316 0174 D6050000 		.4byte	.LASF29
 317 0178 06       		.sleb128 6
 318 0179 0B       		.uleb128 0xb
 319 017a 0F070000 		.4byte	.LASF30
 320 017e 07       		.sleb128 7
 321 017f 0B       		.uleb128 0xb
 322 0180 6D0A0000 		.4byte	.LASF31
 323 0184 08       		.sleb128 8
 324 0185 0B       		.uleb128 0xb
 325 0186 6B040000 		.4byte	.LASF32
 326 018a 09       		.sleb128 9
 327 018b 0B       		.uleb128 0xb
 328 018c 0C060000 		.4byte	.LASF33
 329 0190 0A       		.sleb128 10
 330 0191 0B       		.uleb128 0xb
 331 0192 89020000 		.4byte	.LASF34
 332 0196 0B       		.sleb128 11
 333 0197 0B       		.uleb128 0xb
 334 0198 E3080000 		.4byte	.LASF35
 335 019c 0C       		.sleb128 12
 336 019d 0B       		.uleb128 0xb
 337 019e EA000000 		.4byte	.LASF36
 338 01a2 0D       		.sleb128 13
 339 01a3 0B       		.uleb128 0xb
 340 01a4 970C0000 		.4byte	.LASF37
 341 01a8 0E       		.sleb128 14
 342 01a9 0B       		.uleb128 0xb
 343 01aa 10010000 		.4byte	.LASF38
 344 01ae 0F       		.sleb128 15
 345 01af 0B       		.uleb128 0xb
 346 01b0 86090000 		.4byte	.LASF39
 347 01b4 10       		.sleb128 16
 348 01b5 0B       		.uleb128 0xb
 349 01b6 54020000 		.4byte	.LASF40
 350 01ba 11       		.sleb128 17
 351 01bb 0B       		.uleb128 0xb
 352 01bc 170B0000 		.4byte	.LASF41
 353 01c0 12       		.sleb128 18
 354 01c1 0B       		.uleb128 0xb
 355 01c2 BC050000 		.4byte	.LASF42
 356 01c6 13       		.sleb128 19
 357 01c7 0B       		.uleb128 0xb
 358 01c8 EC0C0000 		.4byte	.LASF43
 359 01cc 14       		.sleb128 20
 360 01cd 0B       		.uleb128 0xb
 361 01ce D4030000 		.4byte	.LASF44
 362 01d2 15       		.sleb128 21
 363 01d3 0B       		.uleb128 0xb
 364 01d4 DC060000 		.4byte	.LASF45
 365 01d8 16       		.sleb128 22
 366 01d9 0B       		.uleb128 0xb
ARM GAS  C:\Users\AHMED~1.ELE\AppData\Local\Temp\ccCpkcmf.s 			page 9


 367 01da C6040000 		.4byte	.LASF46
 368 01de 17       		.sleb128 23
 369 01df 0B       		.uleb128 0xb
 370 01e0 C00C0000 		.4byte	.LASF47
 371 01e4 18       		.sleb128 24
 372 01e5 0B       		.uleb128 0xb
 373 01e6 780D0000 		.4byte	.LASF48
 374 01ea 19       		.sleb128 25
 375 01eb 0B       		.uleb128 0xb
 376 01ec 310F0000 		.4byte	.LASF49
 377 01f0 FF01     		.sleb128 255
 378 01f2 00       		.byte	0
 379 01f3 05       		.uleb128 0x5
 380 01f4 84000000 		.4byte	0x84
 381 01f8 03020000 		.4byte	0x203
 382 01fc 06       		.uleb128 0x6
 383 01fd 6B000000 		.4byte	0x6b
 384 0201 0F       		.byte	0xf
 385 0202 00       		.byte	0
 386 0203 0C       		.uleb128 0xc
 387 0204 08       		.byte	0x8
 388 0205 04       		.byte	0x4
 389 0206 58       		.byte	0x58
 390 0207 24020000 		.4byte	0x224
 391 020b 09       		.uleb128 0x9
 392 020c 3F0F0000 		.4byte	.LASF50
 393 0210 04       		.byte	0x4
 394 0211 59       		.byte	0x59
 395 0212 8F000000 		.4byte	0x8f
 396 0216 00       		.byte	0
 397 0217 09       		.uleb128 0x9
 398 0218 230F0000 		.4byte	.LASF51
 399 021c 04       		.byte	0x4
 400 021d 5A       		.byte	0x5a
 401 021e C0000000 		.4byte	0xc0
 402 0222 04       		.byte	0x4
 403 0223 00       		.byte	0
 404 0224 04       		.uleb128 0x4
 405 0225 2D090000 		.4byte	.LASF52
 406 0229 04       		.byte	0x4
 407 022a 5B       		.byte	0x5b
 408 022b 03020000 		.4byte	0x203
 409 022f 0D       		.uleb128 0xd
 410 0230 544C00   		.ascii	"TL\000"
 411 0233 04       		.byte	0x4
 412 0234 AD       		.byte	0xad
 413 0235 3A000000 		.4byte	0x3a
 414 0239 0C       		.uleb128 0xc
 415 023a 08       		.byte	0x8
 416 023b 04       		.byte	0x4
 417 023c B0       		.byte	0xb0
 418 023d 66020000 		.4byte	0x266
 419 0241 09       		.uleb128 0x9
 420 0242 AE0D0000 		.4byte	.LASF53
 421 0246 04       		.byte	0x4
 422 0247 B1       		.byte	0xb1
 423 0248 8F000000 		.4byte	0x8f
ARM GAS  C:\Users\AHMED~1.ELE\AppData\Local\Temp\ccCpkcmf.s 			page 10


 424 024c 00       		.byte	0
 425 024d 09       		.uleb128 0x9
 426 024e D70A0000 		.4byte	.LASF54
 427 0252 04       		.byte	0x4
 428 0253 B2       		.byte	0xb2
 429 0254 2F020000 		.4byte	0x22f
 430 0258 02       		.byte	0x2
 431 0259 09       		.uleb128 0x9
 432 025a 080F0000 		.4byte	.LASF55
 433 025e 04       		.byte	0x4
 434 025f B3       		.byte	0xb3
 435 0260 C0000000 		.4byte	0xc0
 436 0264 04       		.byte	0x4
 437 0265 00       		.byte	0
 438 0266 04       		.uleb128 0x4
 439 0267 32000000 		.4byte	.LASF56
 440 026b 04       		.byte	0x4
 441 026c B4       		.byte	0xb4
 442 026d 39020000 		.4byte	0x239
 443 0271 05       		.uleb128 0x5
 444 0272 84000000 		.4byte	0x84
 445 0276 81020000 		.4byte	0x281
 446 027a 06       		.uleb128 0x6
 447 027b 6B000000 		.4byte	0x6b
 448 027f 04       		.byte	0x4
 449 0280 00       		.byte	0
 450 0281 05       		.uleb128 0x5
 451 0282 84000000 		.4byte	0x84
 452 0286 91020000 		.4byte	0x291
 453 028a 06       		.uleb128 0x6
 454 028b 6B000000 		.4byte	0x6b
 455 028f 02       		.byte	0x2
 456 0290 00       		.byte	0
 457 0291 05       		.uleb128 0x5
 458 0292 84000000 		.4byte	0x84
 459 0296 A1020000 		.4byte	0x2a1
 460 029a 06       		.uleb128 0x6
 461 029b 6B000000 		.4byte	0x6b
 462 029f 09       		.byte	0x9
 463 02a0 00       		.byte	0
 464 02a1 05       		.uleb128 0x5
 465 02a2 84000000 		.4byte	0x84
 466 02a6 B1020000 		.4byte	0x2b1
 467 02aa 06       		.uleb128 0x6
 468 02ab 6B000000 		.4byte	0x6b
 469 02af 1F       		.byte	0x1f
 470 02b0 00       		.byte	0
 471 02b1 05       		.uleb128 0x5
 472 02b2 84000000 		.4byte	0x84
 473 02b6 C1020000 		.4byte	0x2c1
 474 02ba 06       		.uleb128 0x6
 475 02bb 6B000000 		.4byte	0x6b
 476 02bf 07       		.byte	0x7
 477 02c0 00       		.byte	0
 478 02c1 05       		.uleb128 0x5
 479 02c2 84000000 		.4byte	0x84
 480 02c6 D1020000 		.4byte	0x2d1
ARM GAS  C:\Users\AHMED~1.ELE\AppData\Local\Temp\ccCpkcmf.s 			page 11


 481 02ca 06       		.uleb128 0x6
 482 02cb 6B000000 		.4byte	0x6b
 483 02cf 13       		.byte	0x13
 484 02d0 00       		.byte	0
 485 02d1 05       		.uleb128 0x5
 486 02d2 84000000 		.4byte	0x84
 487 02d6 E1020000 		.4byte	0x2e1
 488 02da 06       		.uleb128 0x6
 489 02db 6B000000 		.4byte	0x6b
 490 02df 06       		.byte	0x6
 491 02e0 00       		.byte	0
 492 02e1 05       		.uleb128 0x5
 493 02e2 84000000 		.4byte	0x84
 494 02e6 F1020000 		.4byte	0x2f1
 495 02ea 06       		.uleb128 0x6
 496 02eb 6B000000 		.4byte	0x6b
 497 02ef 05       		.byte	0x5
 498 02f0 00       		.byte	0
 499 02f1 0E       		.uleb128 0xe
 500 02f2 08       		.byte	0x8
 501 02f3 05       		.byte	0x5
 502 02f4 2B01     		.2byte	0x12b
 503 02f6 15030000 		.4byte	0x315
 504 02fa 0F       		.uleb128 0xf
 505 02fb 3F0F0000 		.4byte	.LASF50
 506 02ff 05       		.byte	0x5
 507 0300 2C01     		.2byte	0x12c
 508 0302 8F000000 		.4byte	0x8f
 509 0306 00       		.byte	0
 510 0307 0F       		.uleb128 0xf
 511 0308 1D0A0000 		.4byte	.LASF57
 512 030c 05       		.byte	0x5
 513 030d 2D01     		.2byte	0x12d
 514 030f C0000000 		.4byte	0xc0
 515 0313 04       		.byte	0x4
 516 0314 00       		.byte	0
 517 0315 10       		.uleb128 0x10
 518 0316 0F000000 		.4byte	.LASF58
 519 031a 05       		.byte	0x5
 520 031b 2E01     		.2byte	0x12e
 521 031d F1020000 		.4byte	0x2f1
 522 0321 11       		.uleb128 0x11
 523 0322 33090000 		.4byte	.LASF60
 524 0326 0406     		.2byte	0x604
 525 0328 06       		.byte	0x6
 526 0329 22       		.byte	0x22
 527 032a 53030000 		.4byte	0x353
 528 032e 09       		.uleb128 0x9
 529 032f C6000000 		.4byte	.LASF61
 530 0333 06       		.byte	0x6
 531 0334 23       		.byte	0x23
 532 0335 84000000 		.4byte	0x84
 533 0339 00       		.byte	0
 534 033a 09       		.uleb128 0x9
 535 033b 6F020000 		.4byte	.LASF62
 536 033f 06       		.byte	0x6
 537 0340 24       		.byte	0x24
ARM GAS  C:\Users\AHMED~1.ELE\AppData\Local\Temp\ccCpkcmf.s 			page 12


 538 0341 84000000 		.4byte	0x84
 539 0345 01       		.byte	0x1
 540 0346 09       		.uleb128 0x9
 541 0347 990B0000 		.4byte	.LASF63
 542 034b 06       		.byte	0x6
 543 034c 25       		.byte	0x25
 544 034d 53030000 		.4byte	0x353
 545 0351 02       		.byte	0x2
 546 0352 00       		.byte	0
 547 0353 05       		.uleb128 0x5
 548 0354 84000000 		.4byte	0x84
 549 0358 64030000 		.4byte	0x364
 550 035c 12       		.uleb128 0x12
 551 035d 6B000000 		.4byte	0x6b
 552 0361 FF05     		.2byte	0x5ff
 553 0363 00       		.byte	0
 554 0364 13       		.uleb128 0x13
 555 0365 81060000 		.4byte	.LASF64
 556 0369 A0       		.byte	0xa0
 557 036a 07       		.byte	0x7
 558 036b 3002     		.2byte	0x230
 559 036d 8C030000 		.4byte	0x38c
 560 0371 0F       		.uleb128 0xf
 561 0372 60030000 		.4byte	.LASF65
 562 0376 07       		.byte	0x7
 563 0377 3102     		.2byte	0x231
 564 0379 84000000 		.4byte	0x84
 565 037d 00       		.byte	0
 566 037e 0F       		.uleb128 0xf
 567 037f 990B0000 		.4byte	.LASF63
 568 0383 07       		.byte	0x7
 569 0384 3202     		.2byte	0x232
 570 0386 8C030000 		.4byte	0x38c
 571 038a 01       		.byte	0x1
 572 038b 00       		.byte	0
 573 038c 05       		.uleb128 0x5
 574 038d 84000000 		.4byte	0x84
 575 0391 9C030000 		.4byte	0x39c
 576 0395 06       		.uleb128 0x6
 577 0396 6B000000 		.4byte	0x6b
 578 039a 9D       		.byte	0x9d
 579 039b 00       		.byte	0
 580 039c 13       		.uleb128 0x13
 581 039d 4E0F0000 		.4byte	.LASF66
 582 03a1 54       		.byte	0x54
 583 03a2 07       		.byte	0x7
 584 03a3 3902     		.2byte	0x239
 585 03a5 C4030000 		.4byte	0x3c4
 586 03a9 0F       		.uleb128 0xf
 587 03aa 60030000 		.4byte	.LASF65
 588 03ae 07       		.byte	0x7
 589 03af 3A02     		.2byte	0x23a
 590 03b1 84000000 		.4byte	0x84
 591 03b5 00       		.byte	0
 592 03b6 0F       		.uleb128 0xf
 593 03b7 990B0000 		.4byte	.LASF63
 594 03bb 07       		.byte	0x7
ARM GAS  C:\Users\AHMED~1.ELE\AppData\Local\Temp\ccCpkcmf.s 			page 13


 595 03bc 3B02     		.2byte	0x23b
 596 03be C4030000 		.4byte	0x3c4
 597 03c2 01       		.byte	0x1
 598 03c3 00       		.byte	0
 599 03c4 05       		.uleb128 0x5
 600 03c5 84000000 		.4byte	0x84
 601 03c9 D4030000 		.4byte	0x3d4
 602 03cd 06       		.uleb128 0x6
 603 03ce 6B000000 		.4byte	0x6b
 604 03d2 4F       		.byte	0x4f
 605 03d3 00       		.byte	0
 606 03d4 14       		.uleb128 0x14
 607 03d5 19010000 		.4byte	.LASF67
 608 03d9 040C     		.2byte	0xc04
 609 03db 08       		.byte	0x8
 610 03dc 1E01     		.2byte	0x11e
 611 03de FD030000 		.4byte	0x3fd
 612 03e2 0F       		.uleb128 0xf
 613 03e3 3F0F0000 		.4byte	.LASF50
 614 03e7 08       		.byte	0x8
 615 03e8 1F01     		.2byte	0x11f
 616 03ea 8F000000 		.4byte	0x8f
 617 03ee 00       		.byte	0
 618 03ef 0F       		.uleb128 0xf
 619 03f0 56030000 		.4byte	.LASF68
 620 03f4 08       		.byte	0x8
 621 03f5 2001     		.2byte	0x120
 622 03f7 FD030000 		.4byte	0x3fd
 623 03fb 02       		.byte	0x2
 624 03fc 00       		.byte	0
 625 03fd 05       		.uleb128 0x5
 626 03fe 84000000 		.4byte	0x84
 627 0402 0E040000 		.4byte	0x40e
 628 0406 12       		.uleb128 0x12
 629 0407 6B000000 		.4byte	0x6b
 630 040b FF0B     		.2byte	0xbff
 631 040d 00       		.byte	0
 632 040e 14       		.uleb128 0x14
 633 040f 0B050000 		.4byte	.LASF69
 634 0413 7001     		.2byte	0x170
 635 0415 08       		.byte	0x8
 636 0416 6401     		.2byte	0x164
 637 0418 2A070000 		.4byte	0x72a
 638 041c 0F       		.uleb128 0xf
 639 041d 3D020000 		.4byte	.LASF70
 640 0421 08       		.byte	0x8
 641 0422 6501     		.2byte	0x165
 642 0424 84000000 		.4byte	0x84
 643 0428 00       		.byte	0
 644 0429 0F       		.uleb128 0xf
 645 042a 76080000 		.4byte	.LASF71
 646 042e 08       		.byte	0x8
 647 042f 6601     		.2byte	0x166
 648 0431 84000000 		.4byte	0x84
 649 0435 01       		.byte	0x1
 650 0436 0F       		.uleb128 0xf
 651 0437 7C0B0000 		.4byte	.LASF72
ARM GAS  C:\Users\AHMED~1.ELE\AppData\Local\Temp\ccCpkcmf.s 			page 14


 652 043b 08       		.byte	0x8
 653 043c 6701     		.2byte	0x167
 654 043e 2A070000 		.4byte	0x72a
 655 0442 02       		.byte	0x2
 656 0443 0F       		.uleb128 0xf
 657 0444 DE0B0000 		.4byte	.LASF73
 658 0448 08       		.byte	0x8
 659 0449 6801     		.2byte	0x168
 660 044b 84000000 		.4byte	0x84
 661 044f 0B       		.byte	0xb
 662 0450 0F       		.uleb128 0xf
 663 0451 DB040000 		.4byte	.LASF74
 664 0455 08       		.byte	0x8
 665 0456 6901     		.2byte	0x169
 666 0458 3A070000 		.4byte	0x73a
 667 045c 0C       		.byte	0xc
 668 045d 0F       		.uleb128 0xf
 669 045e 20080000 		.4byte	.LASF75
 670 0462 08       		.byte	0x8
 671 0463 6A01     		.2byte	0x16a
 672 0465 84000000 		.4byte	0x84
 673 0469 18       		.byte	0x18
 674 046a 0F       		.uleb128 0xf
 675 046b 90020000 		.4byte	.LASF76
 676 046f 08       		.byte	0x8
 677 0470 6B01     		.2byte	0x16b
 678 0472 84000000 		.4byte	0x84
 679 0476 19       		.byte	0x19
 680 0477 0F       		.uleb128 0xf
 681 0478 20030000 		.4byte	.LASF77
 682 047c 08       		.byte	0x8
 683 047d 6C01     		.2byte	0x16c
 684 047f 3A070000 		.4byte	0x73a
 685 0483 1A       		.byte	0x1a
 686 0484 0F       		.uleb128 0xf
 687 0485 50070000 		.4byte	.LASF78
 688 0489 08       		.byte	0x8
 689 048a 6D01     		.2byte	0x16d
 690 048c 84000000 		.4byte	0x84
 691 0490 26       		.byte	0x26
 692 0491 0F       		.uleb128 0xf
 693 0492 660E0000 		.4byte	.LASF79
 694 0496 08       		.byte	0x8
 695 0497 6E01     		.2byte	0x16e
 696 0499 84000000 		.4byte	0x84
 697 049d 27       		.byte	0x27
 698 049e 0F       		.uleb128 0xf
 699 049f C00A0000 		.4byte	.LASF80
 700 04a3 08       		.byte	0x8
 701 04a4 6F01     		.2byte	0x16f
 702 04a6 84000000 		.4byte	0x84
 703 04aa 28       		.byte	0x28
 704 04ab 0F       		.uleb128 0xf
 705 04ac 75020000 		.4byte	.LASF81
 706 04b0 08       		.byte	0x8
 707 04b1 7001     		.2byte	0x170
 708 04b3 84000000 		.4byte	0x84
ARM GAS  C:\Users\AHMED~1.ELE\AppData\Local\Temp\ccCpkcmf.s 			page 15


 709 04b7 29       		.byte	0x29
 710 04b8 0F       		.uleb128 0xf
 711 04b9 1C070000 		.4byte	.LASF82
 712 04bd 08       		.byte	0x8
 713 04be 7101     		.2byte	0x171
 714 04c0 C6000000 		.4byte	0xc6
 715 04c4 2A       		.byte	0x2a
 716 04c5 0F       		.uleb128 0xf
 717 04c6 02090000 		.4byte	.LASF83
 718 04ca 08       		.byte	0x8
 719 04cb 7201     		.2byte	0x172
 720 04cd 81020000 		.4byte	0x281
 721 04d1 2E       		.byte	0x2e
 722 04d2 0F       		.uleb128 0xf
 723 04d3 7D000000 		.4byte	.LASF84
 724 04d7 08       		.byte	0x8
 725 04d8 7301     		.2byte	0x173
 726 04da 81020000 		.4byte	0x281
 727 04de 31       		.byte	0x31
 728 04df 0F       		.uleb128 0xf
 729 04e0 0E0F0000 		.4byte	.LASF85
 730 04e4 08       		.byte	0x8
 731 04e5 7401     		.2byte	0x174
 732 04e7 C6000000 		.4byte	0xc6
 733 04eb 34       		.byte	0x34
 734 04ec 0F       		.uleb128 0xf
 735 04ed BE000000 		.4byte	.LASF86
 736 04f1 08       		.byte	0x8
 737 04f2 7501     		.2byte	0x175
 738 04f4 B0000000 		.4byte	0xb0
 739 04f8 38       		.byte	0x38
 740 04f9 0F       		.uleb128 0xf
 741 04fa 5C060000 		.4byte	.LASF87
 742 04fe 08       		.byte	0x8
 743 04ff 7601     		.2byte	0x176
 744 0501 B0000000 		.4byte	0xb0
 745 0505 3A       		.byte	0x3a
 746 0506 0F       		.uleb128 0xf
 747 0507 7F0E0000 		.4byte	.LASF88
 748 050b 08       		.byte	0x8
 749 050c 7701     		.2byte	0x177
 750 050e 84000000 		.4byte	0x84
 751 0512 3C       		.byte	0x3c
 752 0513 0F       		.uleb128 0xf
 753 0514 B8020000 		.4byte	.LASF89
 754 0518 08       		.byte	0x8
 755 0519 7801     		.2byte	0x178
 756 051b 84000000 		.4byte	0x84
 757 051f 3D       		.byte	0x3d
 758 0520 0F       		.uleb128 0xf
 759 0521 6E070000 		.4byte	.LASF90
 760 0525 08       		.byte	0x8
 761 0526 7901     		.2byte	0x179
 762 0528 84000000 		.4byte	0x84
 763 052c 3E       		.byte	0x3e
 764 052d 0F       		.uleb128 0xf
 765 052e F50C0000 		.4byte	.LASF91
ARM GAS  C:\Users\AHMED~1.ELE\AppData\Local\Temp\ccCpkcmf.s 			page 16


 766 0532 08       		.byte	0x8
 767 0533 7A01     		.2byte	0x17a
 768 0535 8F000000 		.4byte	0x8f
 769 0539 40       		.byte	0x40
 770 053a 0F       		.uleb128 0xf
 771 053b 00000000 		.4byte	.LASF92
 772 053f 08       		.byte	0x8
 773 0540 7B01     		.2byte	0x17b
 774 0542 8F000000 		.4byte	0x8f
 775 0546 42       		.byte	0x42
 776 0547 0F       		.uleb128 0xf
 777 0548 AA050000 		.4byte	.LASF93
 778 054c 08       		.byte	0x8
 779 054d 7C01     		.2byte	0x17c
 780 054f A5000000 		.4byte	0xa5
 781 0553 48       		.byte	0x48
 782 0554 0F       		.uleb128 0xf
 783 0555 24070000 		.4byte	.LASF94
 784 0559 08       		.byte	0x8
 785 055a 7D01     		.2byte	0x17d
 786 055c 84000000 		.4byte	0x84
 787 0560 50       		.byte	0x50
 788 0561 0F       		.uleb128 0xf
 789 0562 EF0B0000 		.4byte	.LASF95
 790 0566 08       		.byte	0x8
 791 0567 7E01     		.2byte	0x17e
 792 0569 84000000 		.4byte	0x84
 793 056d 51       		.byte	0x51
 794 056e 0F       		.uleb128 0xf
 795 056f AE040000 		.4byte	.LASF96
 796 0573 08       		.byte	0x8
 797 0574 8001     		.2byte	0x180
 798 0576 84000000 		.4byte	0x84
 799 057a 52       		.byte	0x52
 800 057b 0F       		.uleb128 0xf
 801 057c 93080000 		.4byte	.LASF97
 802 0580 08       		.byte	0x8
 803 0581 8101     		.2byte	0x181
 804 0583 B0000000 		.4byte	0xb0
 805 0587 53       		.byte	0x53
 806 0588 0F       		.uleb128 0xf
 807 0589 14080000 		.4byte	.LASF98
 808 058d 08       		.byte	0x8
 809 058e 8201     		.2byte	0x182
 810 0590 C6000000 		.4byte	0xc6
 811 0594 55       		.byte	0x55
 812 0595 0F       		.uleb128 0xf
 813 0596 8D0B0000 		.4byte	.LASF99
 814 059a 08       		.byte	0x8
 815 059b 8301     		.2byte	0x183
 816 059d A5000000 		.4byte	0xa5
 817 05a1 60       		.byte	0x60
 818 05a2 0F       		.uleb128 0xf
 819 05a3 7A040000 		.4byte	.LASF100
 820 05a7 08       		.byte	0x8
 821 05a8 8401     		.2byte	0x184
 822 05aa B0000000 		.4byte	0xb0
ARM GAS  C:\Users\AHMED~1.ELE\AppData\Local\Temp\ccCpkcmf.s 			page 17


 823 05ae 68       		.byte	0x68
 824 05af 0F       		.uleb128 0xf
 825 05b0 67080000 		.4byte	.LASF101
 826 05b4 08       		.byte	0x8
 827 05b5 8501     		.2byte	0x185
 828 05b7 C6000000 		.4byte	0xc6
 829 05bb 6A       		.byte	0x6a
 830 05bc 0F       		.uleb128 0xf
 831 05bd FA0B0000 		.4byte	.LASF102
 832 05c1 08       		.byte	0x8
 833 05c2 8601     		.2byte	0x186
 834 05c4 A5000000 		.4byte	0xa5
 835 05c8 70       		.byte	0x70
 836 05c9 0F       		.uleb128 0xf
 837 05ca A40B0000 		.4byte	.LASF103
 838 05ce 08       		.byte	0x8
 839 05cf 8701     		.2byte	0x187
 840 05d1 B0000000 		.4byte	0xb0
 841 05d5 78       		.byte	0x78
 842 05d6 0F       		.uleb128 0xf
 843 05d7 9F0D0000 		.4byte	.LASF104
 844 05db 08       		.byte	0x8
 845 05dc 8801     		.2byte	0x188
 846 05de C6000000 		.4byte	0xc6
 847 05e2 7A       		.byte	0x7a
 848 05e3 0F       		.uleb128 0xf
 849 05e4 6D0B0000 		.4byte	.LASF105
 850 05e8 08       		.byte	0x8
 851 05e9 8901     		.2byte	0x189
 852 05eb A5000000 		.4byte	0xa5
 853 05ef 80       		.byte	0x80
 854 05f0 0F       		.uleb128 0xf
 855 05f1 D30C0000 		.4byte	.LASF106
 856 05f5 08       		.byte	0x8
 857 05f6 8A01     		.2byte	0x18a
 858 05f8 B0000000 		.4byte	0xb0
 859 05fc 88       		.byte	0x88
 860 05fd 0F       		.uleb128 0xf
 861 05fe F0030000 		.4byte	.LASF107
 862 0602 08       		.byte	0x8
 863 0603 8B01     		.2byte	0x18b
 864 0605 C6000000 		.4byte	0xc6
 865 0609 8A       		.byte	0x8a
 866 060a 0F       		.uleb128 0xf
 867 060b C50E0000 		.4byte	.LASF108
 868 060f 08       		.byte	0x8
 869 0610 8C01     		.2byte	0x18c
 870 0612 A5000000 		.4byte	0xa5
 871 0616 90       		.byte	0x90
 872 0617 0F       		.uleb128 0xf
 873 0618 5F020000 		.4byte	.LASF109
 874 061c 08       		.byte	0x8
 875 061d 8D01     		.2byte	0x18d
 876 061f B0000000 		.4byte	0xb0
 877 0623 98       		.byte	0x98
 878 0624 0F       		.uleb128 0xf
 879 0625 FE050000 		.4byte	.LASF110
ARM GAS  C:\Users\AHMED~1.ELE\AppData\Local\Temp\ccCpkcmf.s 			page 18


 880 0629 08       		.byte	0x8
 881 062a 8E01     		.2byte	0x18e
 882 062c C6000000 		.4byte	0xc6
 883 0630 9A       		.byte	0x9a
 884 0631 0F       		.uleb128 0xf
 885 0632 8F090000 		.4byte	.LASF111
 886 0636 08       		.byte	0x8
 887 0637 8F01     		.2byte	0x18f
 888 0639 A5000000 		.4byte	0xa5
 889 063d A0       		.byte	0xa0
 890 063e 0F       		.uleb128 0xf
 891 063f 7B0A0000 		.4byte	.LASF112
 892 0643 08       		.byte	0x8
 893 0644 9001     		.2byte	0x190
 894 0646 A1020000 		.4byte	0x2a1
 895 064a A8       		.byte	0xa8
 896 064b 0F       		.uleb128 0xf
 897 064c 90070000 		.4byte	.LASF113
 898 0650 08       		.byte	0x8
 899 0651 9101     		.2byte	0x191
 900 0653 A1020000 		.4byte	0x2a1
 901 0657 C8       		.byte	0xc8
 902 0658 0F       		.uleb128 0xf
 903 0659 AD000000 		.4byte	.LASF114
 904 065d 08       		.byte	0x8
 905 065e 9201     		.2byte	0x192
 906 0660 A1020000 		.4byte	0x2a1
 907 0664 E8       		.byte	0xe8
 908 0665 15       		.uleb128 0x15
 909 0666 DD050000 		.4byte	.LASF115
 910 066a 08       		.byte	0x8
 911 066b 9301     		.2byte	0x193
 912 066d A1020000 		.4byte	0x2a1
 913 0671 0801     		.2byte	0x108
 914 0673 15       		.uleb128 0x15
 915 0674 D9080000 		.4byte	.LASF116
 916 0678 08       		.byte	0x8
 917 0679 9401     		.2byte	0x194
 918 067b C6000000 		.4byte	0xc6
 919 067f 2801     		.2byte	0x128
 920 0681 15       		.uleb128 0x15
 921 0682 AB060000 		.4byte	.LASF117
 922 0686 08       		.byte	0x8
 923 0687 9501     		.2byte	0x195
 924 0689 B0000000 		.4byte	0xb0
 925 068d 2C01     		.2byte	0x12c
 926 068f 15       		.uleb128 0x15
 927 0690 9B0E0000 		.4byte	.LASF118
 928 0694 08       		.byte	0x8
 929 0695 9601     		.2byte	0x196
 930 0697 4A070000 		.4byte	0x74a
 931 069b 2E01     		.2byte	0x12e
 932 069d 15       		.uleb128 0x15
 933 069e 97030000 		.4byte	.LASF119
 934 06a2 08       		.byte	0x8
 935 06a3 9701     		.2byte	0x197
 936 06a5 3A070000 		.4byte	0x73a
ARM GAS  C:\Users\AHMED~1.ELE\AppData\Local\Temp\ccCpkcmf.s 			page 19


 937 06a9 4701     		.2byte	0x147
 938 06ab 15       		.uleb128 0x15
 939 06ac B7060000 		.4byte	.LASF120
 940 06b0 08       		.byte	0x8
 941 06b1 9801     		.2byte	0x198
 942 06b3 84000000 		.4byte	0x84
 943 06b7 5301     		.2byte	0x153
 944 06b9 15       		.uleb128 0x15
 945 06ba 020B0000 		.4byte	.LASF121
 946 06be 08       		.byte	0x8
 947 06bf 9901     		.2byte	0x199
 948 06c1 84000000 		.4byte	0x84
 949 06c5 5401     		.2byte	0x154
 950 06c7 15       		.uleb128 0x15
 951 06c8 FE000000 		.4byte	.LASF122
 952 06cc 08       		.byte	0x8
 953 06cd 9A01     		.2byte	0x19a
 954 06cf 3A070000 		.4byte	0x73a
 955 06d3 5501     		.2byte	0x155
 956 06d5 15       		.uleb128 0x15
 957 06d6 2A060000 		.4byte	.LASF123
 958 06da 08       		.byte	0x8
 959 06db 9B01     		.2byte	0x19b
 960 06dd 84000000 		.4byte	0x84
 961 06e1 6101     		.2byte	0x161
 962 06e3 15       		.uleb128 0x15
 963 06e4 EB0D0000 		.4byte	.LASF124
 964 06e8 08       		.byte	0x8
 965 06e9 9C01     		.2byte	0x19c
 966 06eb 84000000 		.4byte	0x84
 967 06ef 6201     		.2byte	0x162
 968 06f1 15       		.uleb128 0x15
 969 06f2 49000000 		.4byte	.LASF125
 970 06f6 08       		.byte	0x8
 971 06f7 9D01     		.2byte	0x19d
 972 06f9 84000000 		.4byte	0x84
 973 06fd 6301     		.2byte	0x163
 974 06ff 15       		.uleb128 0x15
 975 0700 FD020000 		.4byte	.LASF126
 976 0704 08       		.byte	0x8
 977 0705 9E01     		.2byte	0x19e
 978 0707 8F000000 		.4byte	0x8f
 979 070b 6401     		.2byte	0x164
 980 070d 15       		.uleb128 0x15
 981 070e D9090000 		.4byte	.LASF127
 982 0712 08       		.byte	0x8
 983 0713 9F01     		.2byte	0x19f
 984 0715 84000000 		.4byte	0x84
 985 0719 6601     		.2byte	0x166
 986 071b 15       		.uleb128 0x15
 987 071c 59000000 		.4byte	.LASF128
 988 0720 08       		.byte	0x8
 989 0721 A101     		.2byte	0x1a1
 990 0723 9A000000 		.4byte	0x9a
 991 0727 6801     		.2byte	0x168
 992 0729 00       		.byte	0
 993 072a 05       		.uleb128 0x5
ARM GAS  C:\Users\AHMED~1.ELE\AppData\Local\Temp\ccCpkcmf.s 			page 20


 994 072b 84000000 		.4byte	0x84
 995 072f 3A070000 		.4byte	0x73a
 996 0733 06       		.uleb128 0x6
 997 0734 6B000000 		.4byte	0x6b
 998 0738 08       		.byte	0x8
 999 0739 00       		.byte	0
 1000 073a 05       		.uleb128 0x5
 1001 073b 84000000 		.4byte	0x84
 1002 073f 4A070000 		.4byte	0x74a
 1003 0743 06       		.uleb128 0x6
 1004 0744 6B000000 		.4byte	0x6b
 1005 0748 0B       		.byte	0xb
 1006 0749 00       		.byte	0
 1007 074a 05       		.uleb128 0x5
 1008 074b 84000000 		.4byte	0x84
 1009 074f 5A070000 		.4byte	0x75a
 1010 0753 06       		.uleb128 0x6
 1011 0754 6B000000 		.4byte	0x6b
 1012 0758 18       		.byte	0x18
 1013 0759 00       		.byte	0
 1014 075a 14       		.uleb128 0x14
 1015 075b F5050000 		.4byte	.LASF129
 1016 075f 8801     		.2byte	0x188
 1017 0761 08       		.byte	0x8
 1018 0762 AC01     		.2byte	0x1ac
 1019 0764 02090000 		.4byte	0x902
 1020 0768 0F       		.uleb128 0xf
 1021 0769 870B0000 		.4byte	.LASF130
 1022 076d 08       		.byte	0x8
 1023 076e AD01     		.2byte	0x1ad
 1024 0770 84000000 		.4byte	0x84
 1025 0774 00       		.byte	0
 1026 0775 0F       		.uleb128 0xf
 1027 0776 BC090000 		.4byte	.LASF131
 1028 077a 08       		.byte	0x8
 1029 077b AE01     		.2byte	0x1ae
 1030 077d 84000000 		.4byte	0x84
 1031 0781 01       		.byte	0x1
 1032 0782 0F       		.uleb128 0xf
 1033 0783 470A0000 		.4byte	.LASF132
 1034 0787 08       		.byte	0x8
 1035 0788 AF01     		.2byte	0x1af
 1036 078a 84000000 		.4byte	0x84
 1037 078e 02       		.byte	0x2
 1038 078f 0F       		.uleb128 0xf
 1039 0790 58050000 		.4byte	.LASF133
 1040 0794 08       		.byte	0x8
 1041 0795 B001     		.2byte	0x1b0
 1042 0797 84000000 		.4byte	0x84
 1043 079b 03       		.byte	0x3
 1044 079c 0F       		.uleb128 0xf
 1045 079d AF090000 		.4byte	.LASF134
 1046 07a1 08       		.byte	0x8
 1047 07a2 B101     		.2byte	0x1b1
 1048 07a4 E1020000 		.4byte	0x2e1
 1049 07a8 04       		.byte	0x4
 1050 07a9 0F       		.uleb128 0xf
ARM GAS  C:\Users\AHMED~1.ELE\AppData\Local\Temp\ccCpkcmf.s 			page 21


 1051 07aa 440D0000 		.4byte	.LASF135
 1052 07ae 08       		.byte	0x8
 1053 07af B201     		.2byte	0x1b2
 1054 07b1 84000000 		.4byte	0x84
 1055 07b5 0A       		.byte	0xa
 1056 07b6 0F       		.uleb128 0xf
 1057 07b7 730E0000 		.4byte	.LASF136
 1058 07bb 08       		.byte	0x8
 1059 07bc B301     		.2byte	0x1b3
 1060 07be B0000000 		.4byte	0xb0
 1061 07c2 0B       		.byte	0xb
 1062 07c3 0F       		.uleb128 0xf
 1063 07c4 1E060000 		.4byte	.LASF137
 1064 07c8 08       		.byte	0x8
 1065 07c9 B401     		.2byte	0x1b4
 1066 07cb 3A070000 		.4byte	0x73a
 1067 07cf 0D       		.byte	0xd
 1068 07d0 0F       		.uleb128 0xf
 1069 07d1 49020000 		.4byte	.LASF138
 1070 07d5 08       		.byte	0x8
 1071 07d6 B501     		.2byte	0x1b5
 1072 07d8 C6000000 		.4byte	0xc6
 1073 07dc 19       		.byte	0x19
 1074 07dd 0F       		.uleb128 0xf
 1075 07de 1A040000 		.4byte	.LASF139
 1076 07e2 08       		.byte	0x8
 1077 07e3 B601     		.2byte	0x1b6
 1078 07e5 02090000 		.4byte	0x902
 1079 07e9 1D       		.byte	0x1d
 1080 07ea 0F       		.uleb128 0xf
 1081 07eb 11060000 		.4byte	.LASF140
 1082 07ef 08       		.byte	0x8
 1083 07f0 B701     		.2byte	0x1b7
 1084 07f2 12090000 		.4byte	0x912
 1085 07f6 4B       		.byte	0x4b
 1086 07f7 0F       		.uleb128 0xf
 1087 07f8 F70A0000 		.4byte	.LASF141
 1088 07fc 08       		.byte	0x8
 1089 07fd B801     		.2byte	0x1b8
 1090 07ff 84000000 		.4byte	0x84
 1091 0803 62       		.byte	0x62
 1092 0804 0F       		.uleb128 0xf
 1093 0805 45050000 		.4byte	.LASF142
 1094 0809 08       		.byte	0x8
 1095 080a B901     		.2byte	0x1b9
 1096 080c 84000000 		.4byte	0x84
 1097 0810 63       		.byte	0x63
 1098 0811 0F       		.uleb128 0xf
 1099 0812 D00B0000 		.4byte	.LASF143
 1100 0816 08       		.byte	0x8
 1101 0817 BA01     		.2byte	0x1ba
 1102 0819 84000000 		.4byte	0x84
 1103 081d 64       		.byte	0x64
 1104 081e 0F       		.uleb128 0xf
 1105 081f 5A0A0000 		.4byte	.LASF144
 1106 0823 08       		.byte	0x8
 1107 0824 BB01     		.2byte	0x1bb
ARM GAS  C:\Users\AHMED~1.ELE\AppData\Local\Temp\ccCpkcmf.s 			page 22


 1108 0826 84000000 		.4byte	0x84
 1109 082a 65       		.byte	0x65
 1110 082b 0F       		.uleb128 0xf
 1111 082c E9020000 		.4byte	.LASF145
 1112 0830 08       		.byte	0x8
 1113 0831 BC01     		.2byte	0x1bc
 1114 0833 84000000 		.4byte	0x84
 1115 0837 66       		.byte	0x66
 1116 0838 0F       		.uleb128 0xf
 1117 0839 EB090000 		.4byte	.LASF146
 1118 083d 08       		.byte	0x8
 1119 083e BD01     		.2byte	0x1bd
 1120 0840 81020000 		.4byte	0x281
 1121 0844 67       		.byte	0x67
 1122 0845 0F       		.uleb128 0xf
 1123 0846 690D0000 		.4byte	.LASF147
 1124 084a 08       		.byte	0x8
 1125 084b BE01     		.2byte	0x1be
 1126 084d 84000000 		.4byte	0x84
 1127 0851 6A       		.byte	0x6a
 1128 0852 0F       		.uleb128 0xf
 1129 0853 99040000 		.4byte	.LASF148
 1130 0857 08       		.byte	0x8
 1131 0858 BF01     		.2byte	0x1bf
 1132 085a C1020000 		.4byte	0x2c1
 1133 085e 6B       		.byte	0x6b
 1134 085f 0F       		.uleb128 0xf
 1135 0860 520D0000 		.4byte	.LASF149
 1136 0864 08       		.byte	0x8
 1137 0865 C001     		.2byte	0x1c0
 1138 0867 22090000 		.4byte	0x922
 1139 086b 7F       		.byte	0x7f
 1140 086c 0F       		.uleb128 0xf
 1141 086d 48030000 		.4byte	.LASF150
 1142 0871 08       		.byte	0x8
 1143 0872 C101     		.2byte	0x1c1
 1144 0874 F3010000 		.4byte	0x1f3
 1145 0878 9D       		.byte	0x9d
 1146 0879 0F       		.uleb128 0xf
 1147 087a 5F040000 		.4byte	.LASF151
 1148 087e 08       		.byte	0x8
 1149 087f C201     		.2byte	0x1c2
 1150 0881 F3010000 		.4byte	0x1f3
 1151 0885 AD       		.byte	0xad
 1152 0886 0F       		.uleb128 0xf
 1153 0887 FE040000 		.4byte	.LASF152
 1154 088b 08       		.byte	0x8
 1155 088c C301     		.2byte	0x1c3
 1156 088e A1020000 		.4byte	0x2a1
 1157 0892 BD       		.byte	0xbd
 1158 0893 0F       		.uleb128 0xf
 1159 0894 530C0000 		.4byte	.LASF153
 1160 0898 08       		.byte	0x8
 1161 0899 C401     		.2byte	0x1c4
 1162 089b A1020000 		.4byte	0x2a1
 1163 089f DD       		.byte	0xdd
 1164 08a0 0F       		.uleb128 0xf
ARM GAS  C:\Users\AHMED~1.ELE\AppData\Local\Temp\ccCpkcmf.s 			page 23


 1165 08a1 3D0E0000 		.4byte	.LASF154
 1166 08a5 08       		.byte	0x8
 1167 08a6 C501     		.2byte	0x1c5
 1168 08a8 A1020000 		.4byte	0x2a1
 1169 08ac FD       		.byte	0xfd
 1170 08ad 15       		.uleb128 0x15
 1171 08ae 8B040000 		.4byte	.LASF155
 1172 08b2 08       		.byte	0x8
 1173 08b3 C601     		.2byte	0x1c6
 1174 08b5 A1020000 		.4byte	0x2a1
 1175 08b9 1D01     		.2byte	0x11d
 1176 08bb 15       		.uleb128 0x15
 1177 08bc 590F0000 		.4byte	.LASF156
 1178 08c0 08       		.byte	0x8
 1179 08c1 C701     		.2byte	0x1c7
 1180 08c3 A1020000 		.4byte	0x2a1
 1181 08c7 3D01     		.2byte	0x13d
 1182 08c9 15       		.uleb128 0x15
 1183 08ca E70A0000 		.4byte	.LASF157
 1184 08ce 08       		.byte	0x8
 1185 08cf C801     		.2byte	0x1c8
 1186 08d1 A1020000 		.4byte	0x2a1
 1187 08d5 5D01     		.2byte	0x15d
 1188 08d7 15       		.uleb128 0x15
 1189 08d8 7E090000 		.4byte	.LASF158
 1190 08dc 08       		.byte	0x8
 1191 08dd C901     		.2byte	0x1c9
 1192 08df C6000000 		.4byte	0xc6
 1193 08e3 7D01     		.2byte	0x17d
 1194 08e5 15       		.uleb128 0x15
 1195 08e6 3B050000 		.4byte	.LASF159
 1196 08ea 08       		.byte	0x8
 1197 08eb CA01     		.2byte	0x1ca
 1198 08ed B0000000 		.4byte	0xb0
 1199 08f1 8101     		.2byte	0x181
 1200 08f3 15       		.uleb128 0x15
 1201 08f4 59000000 		.4byte	.LASF128
 1202 08f8 08       		.byte	0x8
 1203 08f9 CB01     		.2byte	0x1cb
 1204 08fb 8F000000 		.4byte	0x8f
 1205 08ff 8401     		.2byte	0x184
 1206 0901 00       		.byte	0
 1207 0902 05       		.uleb128 0x5
 1208 0903 84000000 		.4byte	0x84
 1209 0907 12090000 		.4byte	0x912
 1210 090b 06       		.uleb128 0x6
 1211 090c 6B000000 		.4byte	0x6b
 1212 0910 2D       		.byte	0x2d
 1213 0911 00       		.byte	0
 1214 0912 05       		.uleb128 0x5
 1215 0913 84000000 		.4byte	0x84
 1216 0917 22090000 		.4byte	0x922
 1217 091b 06       		.uleb128 0x6
 1218 091c 6B000000 		.4byte	0x6b
 1219 0920 16       		.byte	0x16
 1220 0921 00       		.byte	0
 1221 0922 05       		.uleb128 0x5
ARM GAS  C:\Users\AHMED~1.ELE\AppData\Local\Temp\ccCpkcmf.s 			page 24


 1222 0923 84000000 		.4byte	0x84
 1223 0927 32090000 		.4byte	0x932
 1224 092b 06       		.uleb128 0x6
 1225 092c 6B000000 		.4byte	0x6b
 1226 0930 1D       		.byte	0x1d
 1227 0931 00       		.byte	0
 1228 0932 13       		.uleb128 0x13
 1229 0933 24090000 		.4byte	.LASF160
 1230 0937 24       		.byte	0x24
 1231 0938 08       		.byte	0x8
 1232 0939 CE01     		.2byte	0x1ce
 1233 093b 9B090000 		.4byte	0x99b
 1234 093f 0F       		.uleb128 0xf
 1235 0940 E80E0000 		.4byte	.LASF161
 1236 0944 08       		.byte	0x8
 1237 0945 CF01     		.2byte	0x1cf
 1238 0947 71020000 		.4byte	0x271
 1239 094b 00       		.byte	0
 1240 094c 0F       		.uleb128 0xf
 1241 094d F0080000 		.4byte	.LASF162
 1242 0951 08       		.byte	0x8
 1243 0952 D001     		.2byte	0x1d0
 1244 0954 71020000 		.4byte	0x271
 1245 0958 05       		.byte	0x5
 1246 0959 0F       		.uleb128 0xf
 1247 095a 30070000 		.4byte	.LASF163
 1248 095e 08       		.byte	0x8
 1249 095f D101     		.2byte	0x1d1
 1250 0961 84000000 		.4byte	0x84
 1251 0965 0A       		.byte	0xa
 1252 0966 0F       		.uleb128 0xf
 1253 0967 BD080000 		.4byte	.LASF164
 1254 096b 08       		.byte	0x8
 1255 096c D201     		.2byte	0x1d2
 1256 096e 84000000 		.4byte	0x84
 1257 0972 0B       		.byte	0xb
 1258 0973 0F       		.uleb128 0xf
 1259 0974 950D0000 		.4byte	.LASF165
 1260 0978 08       		.byte	0x8
 1261 0979 D301     		.2byte	0x1d3
 1262 097b 84000000 		.4byte	0x84
 1263 097f 0C       		.byte	0xc
 1264 0980 0F       		.uleb128 0xf
 1265 0981 520D0000 		.4byte	.LASF149
 1266 0985 08       		.byte	0x8
 1267 0986 D401     		.2byte	0x1d4
 1268 0988 C1020000 		.4byte	0x2c1
 1269 098c 0D       		.byte	0xd
 1270 098d 0F       		.uleb128 0xf
 1271 098e 59000000 		.4byte	.LASF128
 1272 0992 08       		.byte	0x8
 1273 0993 D501     		.2byte	0x1d5
 1274 0995 8F000000 		.4byte	0x8f
 1275 0999 22       		.byte	0x22
 1276 099a 00       		.byte	0
 1277 099b 13       		.uleb128 0x13
 1278 099c 2B0A0000 		.4byte	.LASF166
ARM GAS  C:\Users\AHMED~1.ELE\AppData\Local\Temp\ccCpkcmf.s 			page 25


 1279 09a0 38       		.byte	0x38
 1280 09a1 08       		.byte	0x8
 1281 09a2 D801     		.2byte	0x1d8
 1282 09a4 1E0A0000 		.4byte	0xa1e
 1283 09a8 0F       		.uleb128 0xf
 1284 09a9 4E0C0000 		.4byte	.LASF167
 1285 09ad 08       		.byte	0x8
 1286 09ae D901     		.2byte	0x1d9
 1287 09b0 84000000 		.4byte	0x84
 1288 09b4 00       		.byte	0
 1289 09b5 0F       		.uleb128 0xf
 1290 09b6 1E020000 		.4byte	.LASF168
 1291 09ba 08       		.byte	0x8
 1292 09bb DA01     		.2byte	0x1da
 1293 09bd 91020000 		.4byte	0x291
 1294 09c1 01       		.byte	0x1
 1295 09c2 0F       		.uleb128 0xf
 1296 09c3 60070000 		.4byte	.LASF169
 1297 09c7 08       		.byte	0x8
 1298 09c8 DB01     		.2byte	0x1db
 1299 09ca 3A070000 		.4byte	0x73a
 1300 09ce 0B       		.byte	0xb
 1301 09cf 0F       		.uleb128 0xf
 1302 09d0 49020000 		.4byte	.LASF138
 1303 09d4 08       		.byte	0x8
 1304 09d5 DC01     		.2byte	0x1dc
 1305 09d7 C6000000 		.4byte	0xc6
 1306 09db 17       		.byte	0x17
 1307 09dc 0F       		.uleb128 0xf
 1308 09dd E5040000 		.4byte	.LASF170
 1309 09e1 08       		.byte	0x8
 1310 09e2 DD01     		.2byte	0x1dd
 1311 09e4 84000000 		.4byte	0x84
 1312 09e8 1B       		.byte	0x1b
 1313 09e9 0F       		.uleb128 0xf
 1314 09ea 2F0E0000 		.4byte	.LASF171
 1315 09ee 08       		.byte	0x8
 1316 09ef DE01     		.2byte	0x1de
 1317 09f1 B0000000 		.4byte	0xb0
 1318 09f5 1C       		.byte	0x1c
 1319 09f6 0F       		.uleb128 0xf
 1320 09f7 42060000 		.4byte	.LASF172
 1321 09fb 08       		.byte	0x8
 1322 09fc DF01     		.2byte	0x1df
 1323 09fe B0000000 		.4byte	0xb0
 1324 0a02 1E       		.byte	0x1e
 1325 0a03 0F       		.uleb128 0xf
 1326 0a04 520D0000 		.4byte	.LASF149
 1327 0a08 08       		.byte	0x8
 1328 0a09 E001     		.2byte	0x1e0
 1329 0a0b C1020000 		.4byte	0x2c1
 1330 0a0f 20       		.byte	0x20
 1331 0a10 0F       		.uleb128 0xf
 1332 0a11 59000000 		.4byte	.LASF128
 1333 0a15 08       		.byte	0x8
 1334 0a16 E101     		.2byte	0x1e1
 1335 0a18 8F000000 		.4byte	0x8f
ARM GAS  C:\Users\AHMED~1.ELE\AppData\Local\Temp\ccCpkcmf.s 			page 26


 1336 0a1c 34       		.byte	0x34
 1337 0a1d 00       		.byte	0
 1338 0a1e 13       		.uleb128 0x13
 1339 0a1f 70000000 		.4byte	.LASF173
 1340 0a23 AC       		.byte	0xac
 1341 0a24 08       		.byte	0x8
 1342 0a25 EC01     		.2byte	0x1ec
 1343 0a27 E60B0000 		.4byte	0xbe6
 1344 0a2b 0F       		.uleb128 0xf
 1345 0a2c 4E0C0000 		.4byte	.LASF167
 1346 0a30 08       		.byte	0x8
 1347 0a31 ED01     		.2byte	0x1ed
 1348 0a33 84000000 		.4byte	0x84
 1349 0a37 00       		.byte	0
 1350 0a38 0F       		.uleb128 0xf
 1351 0a39 D4000000 		.4byte	.LASF174
 1352 0a3d 08       		.byte	0x8
 1353 0a3e EE01     		.2byte	0x1ee
 1354 0a40 91020000 		.4byte	0x291
 1355 0a44 01       		.byte	0x1
 1356 0a45 0F       		.uleb128 0xf
 1357 0a46 15000000 		.4byte	.LASF175
 1358 0a4a 08       		.byte	0x8
 1359 0a4b EF01     		.2byte	0x1ef
 1360 0a4d 91020000 		.4byte	0x291
 1361 0a51 0B       		.byte	0xb
 1362 0a52 0F       		.uleb128 0xf
 1363 0a53 38000000 		.4byte	.LASF176
 1364 0a57 08       		.byte	0x8
 1365 0a58 F001     		.2byte	0x1f0
 1366 0a5a 3A070000 		.4byte	0x73a
 1367 0a5e 15       		.byte	0x15
 1368 0a5f 0F       		.uleb128 0xf
 1369 0a60 C6020000 		.4byte	.LASF177
 1370 0a64 08       		.byte	0x8
 1371 0a65 F101     		.2byte	0x1f1
 1372 0a67 84000000 		.4byte	0x84
 1373 0a6b 21       		.byte	0x21
 1374 0a6c 0F       		.uleb128 0xf
 1375 0a6d 9D020000 		.4byte	.LASF178
 1376 0a71 08       		.byte	0x8
 1377 0a72 F201     		.2byte	0x1f2
 1378 0a74 84000000 		.4byte	0x84
 1379 0a78 22       		.byte	0x22
 1380 0a79 0F       		.uleb128 0xf
 1381 0a7a 7F070000 		.4byte	.LASF179
 1382 0a7e 08       		.byte	0x8
 1383 0a7f F301     		.2byte	0x1f3
 1384 0a81 3A070000 		.4byte	0x73a
 1385 0a85 23       		.byte	0x23
 1386 0a86 0F       		.uleb128 0xf
 1387 0a87 94050000 		.4byte	.LASF180
 1388 0a8b 08       		.byte	0x8
 1389 0a8c F401     		.2byte	0x1f4
 1390 0a8e 84000000 		.4byte	0x84
 1391 0a92 2F       		.byte	0x2f
 1392 0a93 0F       		.uleb128 0xf
ARM GAS  C:\Users\AHMED~1.ELE\AppData\Local\Temp\ccCpkcmf.s 			page 27


 1393 0a94 8E000000 		.4byte	.LASF181
 1394 0a98 08       		.byte	0x8
 1395 0a99 F501     		.2byte	0x1f5
 1396 0a9b 84000000 		.4byte	0x84
 1397 0a9f 30       		.byte	0x30
 1398 0aa0 0F       		.uleb128 0xf
 1399 0aa1 270B0000 		.4byte	.LASF182
 1400 0aa5 08       		.byte	0x8
 1401 0aa6 F601     		.2byte	0x1f6
 1402 0aa8 3A070000 		.4byte	0x73a
 1403 0aac 31       		.byte	0x31
 1404 0aad 0F       		.uleb128 0xf
 1405 0aae 50080000 		.4byte	.LASF183
 1406 0ab2 08       		.byte	0x8
 1407 0ab3 F701     		.2byte	0x1f7
 1408 0ab5 84000000 		.4byte	0x84
 1409 0ab9 3D       		.byte	0x3d
 1410 0aba 0F       		.uleb128 0xf
 1411 0abb AC0A0000 		.4byte	.LASF184
 1412 0abf 08       		.byte	0x8
 1413 0ac0 F801     		.2byte	0x1f8
 1414 0ac2 84000000 		.4byte	0x84
 1415 0ac6 3E       		.byte	0x3e
 1416 0ac7 0F       		.uleb128 0xf
 1417 0ac8 36030000 		.4byte	.LASF185
 1418 0acc 08       		.byte	0x8
 1419 0acd F901     		.2byte	0x1f9
 1420 0acf 3A070000 		.4byte	0x73a
 1421 0ad3 3F       		.byte	0x3f
 1422 0ad4 0F       		.uleb128 0xf
 1423 0ad5 FC090000 		.4byte	.LASF186
 1424 0ad9 08       		.byte	0x8
 1425 0ada FA01     		.2byte	0x1fa
 1426 0adc 84000000 		.4byte	0x84
 1427 0ae0 4B       		.byte	0x4b
 1428 0ae1 0F       		.uleb128 0xf
 1429 0ae2 66030000 		.4byte	.LASF187
 1430 0ae6 08       		.byte	0x8
 1431 0ae7 FB01     		.2byte	0x1fb
 1432 0ae9 84000000 		.4byte	0x84
 1433 0aed 4C       		.byte	0x4c
 1434 0aee 0F       		.uleb128 0xf
 1435 0aef 4E040000 		.4byte	.LASF188
 1436 0af3 08       		.byte	0x8
 1437 0af4 FC01     		.2byte	0x1fc
 1438 0af6 84000000 		.4byte	0x84
 1439 0afa 4D       		.byte	0x4d
 1440 0afb 0F       		.uleb128 0xf
 1441 0afc 49020000 		.4byte	.LASF138
 1442 0b00 08       		.byte	0x8
 1443 0b01 FD01     		.2byte	0x1fd
 1444 0b03 C6000000 		.4byte	0xc6
 1445 0b07 4E       		.byte	0x4e
 1446 0b08 0F       		.uleb128 0xf
 1447 0b09 17020000 		.4byte	.LASF189
 1448 0b0d 08       		.byte	0x8
 1449 0b0e FE01     		.2byte	0x1fe
ARM GAS  C:\Users\AHMED~1.ELE\AppData\Local\Temp\ccCpkcmf.s 			page 28


 1450 0b10 B0000000 		.4byte	0xb0
 1451 0b14 52       		.byte	0x52
 1452 0b15 0F       		.uleb128 0xf
 1453 0b16 7C0B0000 		.4byte	.LASF72
 1454 0b1a 08       		.byte	0x8
 1455 0b1b FF01     		.2byte	0x1ff
 1456 0b1d B1020000 		.4byte	0x2b1
 1457 0b21 54       		.byte	0x54
 1458 0b22 0F       		.uleb128 0xf
 1459 0b23 15050000 		.4byte	.LASF190
 1460 0b27 08       		.byte	0x8
 1461 0b28 0002     		.2byte	0x200
 1462 0b2a E60B0000 		.4byte	0xbe6
 1463 0b2e 5C       		.byte	0x5c
 1464 0b2f 0F       		.uleb128 0xf
 1465 0b30 B8040000 		.4byte	.LASF191
 1466 0b34 08       		.byte	0x8
 1467 0b35 0102     		.2byte	0x201
 1468 0b37 84000000 		.4byte	0x84
 1469 0b3b 6B       		.byte	0x6b
 1470 0b3c 0F       		.uleb128 0xf
 1471 0b3d 550E0000 		.4byte	.LASF192
 1472 0b41 08       		.byte	0x8
 1473 0b42 0202     		.2byte	0x202
 1474 0b44 81020000 		.4byte	0x281
 1475 0b48 6C       		.byte	0x6c
 1476 0b49 0F       		.uleb128 0xf
 1477 0b4a 0F030000 		.4byte	.LASF193
 1478 0b4e 08       		.byte	0x8
 1479 0b4f 0302     		.2byte	0x203
 1480 0b51 81020000 		.4byte	0x281
 1481 0b55 6F       		.byte	0x6f
 1482 0b56 0F       		.uleb128 0xf
 1483 0b57 76050000 		.4byte	.LASF194
 1484 0b5b 08       		.byte	0x8
 1485 0b5c 0402     		.2byte	0x204
 1486 0b5e 12090000 		.4byte	0x912
 1487 0b62 72       		.byte	0x72
 1488 0b63 0F       		.uleb128 0xf
 1489 0b64 FD030000 		.4byte	.LASF195
 1490 0b68 08       		.byte	0x8
 1491 0b69 0502     		.2byte	0x205
 1492 0b6b 84000000 		.4byte	0x84
 1493 0b6f 89       		.byte	0x89
 1494 0b70 0F       		.uleb128 0xf
 1495 0b71 520D0000 		.4byte	.LASF149
 1496 0b75 08       		.byte	0x8
 1497 0b76 0602     		.2byte	0x206
 1498 0b78 37010000 		.4byte	0x137
 1499 0b7c 8A       		.byte	0x8a
 1500 0b7d 0F       		.uleb128 0xf
 1501 0b7e 2A030000 		.4byte	.LASF196
 1502 0b82 08       		.byte	0x8
 1503 0b83 0702     		.2byte	0x207
 1504 0b85 84000000 		.4byte	0x84
 1505 0b89 9F       		.byte	0x9f
 1506 0b8a 0F       		.uleb128 0xf
ARM GAS  C:\Users\AHMED~1.ELE\AppData\Local\Temp\ccCpkcmf.s 			page 29


 1507 0b8b 21010000 		.4byte	.LASF197
 1508 0b8f 08       		.byte	0x8
 1509 0b90 0802     		.2byte	0x208
 1510 0b92 84000000 		.4byte	0x84
 1511 0b96 A0       		.byte	0xa0
 1512 0b97 0F       		.uleb128 0xf
 1513 0b98 5F0B0000 		.4byte	.LASF198
 1514 0b9c 08       		.byte	0x8
 1515 0b9d 0902     		.2byte	0x209
 1516 0b9f 84000000 		.4byte	0x84
 1517 0ba3 A1       		.byte	0xa1
 1518 0ba4 0F       		.uleb128 0xf
 1519 0ba5 0E0F0000 		.4byte	.LASF85
 1520 0ba9 08       		.byte	0x8
 1521 0baa 0A02     		.2byte	0x20a
 1522 0bac C6000000 		.4byte	0xc6
 1523 0bb0 A2       		.byte	0xa2
 1524 0bb1 0F       		.uleb128 0xf
 1525 0bb2 BE000000 		.4byte	.LASF86
 1526 0bb6 08       		.byte	0x8
 1527 0bb7 0B02     		.2byte	0x20b
 1528 0bb9 B0000000 		.4byte	0xb0
 1529 0bbd A6       		.byte	0xa6
 1530 0bbe 0F       		.uleb128 0xf
 1531 0bbf 280F0000 		.4byte	.LASF199
 1532 0bc3 08       		.byte	0x8
 1533 0bc4 0C02     		.2byte	0x20c
 1534 0bc6 84000000 		.4byte	0x84
 1535 0bca A8       		.byte	0xa8
 1536 0bcb 0F       		.uleb128 0xf
 1537 0bcc 30080000 		.4byte	.LASF200
 1538 0bd0 08       		.byte	0x8
 1539 0bd1 0D02     		.2byte	0x20d
 1540 0bd3 84000000 		.4byte	0x84
 1541 0bd7 A9       		.byte	0xa9
 1542 0bd8 0F       		.uleb128 0xf
 1543 0bd9 59000000 		.4byte	.LASF128
 1544 0bdd 08       		.byte	0x8
 1545 0bde 0E02     		.2byte	0x20e
 1546 0be0 8F000000 		.4byte	0x8f
 1547 0be4 AA       		.byte	0xaa
 1548 0be5 00       		.byte	0
 1549 0be6 05       		.uleb128 0x5
 1550 0be7 84000000 		.4byte	0x84
 1551 0beb F60B0000 		.4byte	0xbf6
 1552 0bef 06       		.uleb128 0x6
 1553 0bf0 6B000000 		.4byte	0x6b
 1554 0bf4 0E       		.byte	0xe
 1555 0bf5 00       		.byte	0
 1556 0bf6 13       		.uleb128 0x13
 1557 0bf7 F5000000 		.4byte	.LASF201
 1558 0bfb 1C       		.byte	0x1c
 1559 0bfc 08       		.byte	0x8
 1560 0bfd 1102     		.2byte	0x211
 1561 0bff 380C0000 		.4byte	0xc38
 1562 0c03 0F       		.uleb128 0xf
 1563 0c04 9F0C0000 		.4byte	.LASF202
ARM GAS  C:\Users\AHMED~1.ELE\AppData\Local\Temp\ccCpkcmf.s 			page 30


 1564 0c08 08       		.byte	0x8
 1565 0c09 1202     		.2byte	0x212
 1566 0c0b 84000000 		.4byte	0x84
 1567 0c0f 00       		.byte	0
 1568 0c10 0F       		.uleb128 0xf
 1569 0c11 A50C0000 		.4byte	.LASF203
 1570 0c15 08       		.byte	0x8
 1571 0c16 1302     		.2byte	0x213
 1572 0c18 B0000000 		.4byte	0xb0
 1573 0c1c 01       		.byte	0x1
 1574 0c1d 0F       		.uleb128 0xf
 1575 0c1e B0020000 		.4byte	.LASF204
 1576 0c22 08       		.byte	0x8
 1577 0c23 1402     		.2byte	0x214
 1578 0c25 C1020000 		.4byte	0x2c1
 1579 0c29 03       		.byte	0x3
 1580 0c2a 0F       		.uleb128 0xf
 1581 0c2b 59000000 		.4byte	.LASF128
 1582 0c2f 08       		.byte	0x8
 1583 0c30 1502     		.2byte	0x215
 1584 0c32 8F000000 		.4byte	0x8f
 1585 0c36 18       		.byte	0x18
 1586 0c37 00       		.byte	0
 1587 0c38 11       		.uleb128 0x11
 1588 0c39 93060000 		.4byte	.LASF205
 1589 0c3d 7401     		.2byte	0x174
 1590 0c3f 09       		.byte	0x9
 1591 0c40 5B       		.byte	0x5b
 1592 0c41 A60C0000 		.4byte	0xca6
 1593 0c45 09       		.uleb128 0x9
 1594 0c46 32050000 		.4byte	.LASF206
 1595 0c4a 09       		.byte	0x9
 1596 0c4b 5C       		.byte	0x5c
 1597 0c4c F3010000 		.4byte	0x1f3
 1598 0c50 00       		.byte	0
 1599 0c51 09       		.uleb128 0x9
 1600 0c52 E20C0000 		.4byte	.LASF207
 1601 0c56 09       		.byte	0x9
 1602 0c57 5D       		.byte	0x5d
 1603 0c58 84000000 		.4byte	0x84
 1604 0c5c 10       		.byte	0x10
 1605 0c5d 09       		.uleb128 0x9
 1606 0c5e 8E0A0000 		.4byte	.LASF208
 1607 0c62 09       		.byte	0x9
 1608 0c63 5E       		.byte	0x5e
 1609 0c64 D1020000 		.4byte	0x2d1
 1610 0c68 11       		.byte	0x11
 1611 0c69 09       		.uleb128 0x9
 1612 0c6a D20E0000 		.4byte	.LASF209
 1613 0c6e 09       		.byte	0x9
 1614 0c6f 5F       		.byte	0x5f
 1615 0c70 71020000 		.4byte	0x271
 1616 0c74 18       		.byte	0x18
 1617 0c75 09       		.uleb128 0x9
 1618 0c76 28000000 		.4byte	.LASF210
 1619 0c7a 09       		.byte	0x9
 1620 0c7b 60       		.byte	0x60
ARM GAS  C:\Users\AHMED~1.ELE\AppData\Local\Temp\ccCpkcmf.s 			page 31


 1621 0c7c B0000000 		.4byte	0xb0
 1622 0c80 1D       		.byte	0x1d
 1623 0c81 09       		.uleb128 0x9
 1624 0c82 C4070000 		.4byte	.LASF211
 1625 0c86 09       		.byte	0x9
 1626 0c87 61       		.byte	0x61
 1627 0c88 B1020000 		.4byte	0x2b1
 1628 0c8c 1F       		.byte	0x1f
 1629 0c8d 09       		.uleb128 0x9
 1630 0c8e F3040000 		.4byte	.LASF212
 1631 0c92 09       		.byte	0x9
 1632 0c93 62       		.byte	0x62
 1633 0c94 8F000000 		.4byte	0x8f
 1634 0c98 28       		.byte	0x28
 1635 0c99 09       		.uleb128 0x9
 1636 0c9a 850D0000 		.4byte	.LASF213
 1637 0c9e 09       		.byte	0x9
 1638 0c9f 63       		.byte	0x63
 1639 0ca0 A60C0000 		.4byte	0xca6
 1640 0ca4 2A       		.byte	0x2a
 1641 0ca5 00       		.byte	0
 1642 0ca6 05       		.uleb128 0x5
 1643 0ca7 84000000 		.4byte	0x84
 1644 0cab B70C0000 		.4byte	0xcb7
 1645 0caf 12       		.uleb128 0x12
 1646 0cb0 6B000000 		.4byte	0x6b
 1647 0cb4 4901     		.2byte	0x149
 1648 0cb6 00       		.byte	0
 1649 0cb7 11       		.uleb128 0x11
 1650 0cb8 3B0C0000 		.4byte	.LASF214
 1651 0cbc 0002     		.2byte	0x200
 1652 0cbe 09       		.byte	0x9
 1653 0cbf 66       		.byte	0x66
 1654 0cc0 E60D0000 		.4byte	0xde6
 1655 0cc4 09       		.uleb128 0x9
 1656 0cc5 460C0000 		.4byte	.LASF215
 1657 0cc9 09       		.byte	0x9
 1658 0cca 67       		.byte	0x67
 1659 0ccb 84000000 		.4byte	0x84
 1660 0ccf 00       		.byte	0
 1661 0cd0 09       		.uleb128 0x9
 1662 0cd1 C10B0000 		.4byte	.LASF216
 1663 0cd5 09       		.byte	0x9
 1664 0cd6 67       		.byte	0x67
 1665 0cd7 84000000 		.4byte	0x84
 1666 0cdb 01       		.byte	0x1
 1667 0cdc 09       		.uleb128 0x9
 1668 0cdd 02090000 		.4byte	.LASF83
 1669 0ce1 09       		.byte	0x9
 1670 0ce2 67       		.byte	0x67
 1671 0ce3 81020000 		.4byte	0x281
 1672 0ce7 02       		.byte	0x2
 1673 0ce8 09       		.uleb128 0x9
 1674 0ce9 E6030000 		.4byte	.LASF217
 1675 0ced 09       		.byte	0x9
 1676 0cee 67       		.byte	0x67
 1677 0cef 84000000 		.4byte	0x84
ARM GAS  C:\Users\AHMED~1.ELE\AppData\Local\Temp\ccCpkcmf.s 			page 32


 1678 0cf3 05       		.byte	0x5
 1679 0cf4 09       		.uleb128 0x9
 1680 0cf5 7D000000 		.4byte	.LASF84
 1681 0cf9 09       		.byte	0x9
 1682 0cfa 67       		.byte	0x67
 1683 0cfb 81020000 		.4byte	0x281
 1684 0cff 06       		.byte	0x6
 1685 0d00 09       		.uleb128 0x9
 1686 0d01 870A0000 		.4byte	.LASF218
 1687 0d05 09       		.byte	0x9
 1688 0d06 67       		.byte	0x67
 1689 0d07 91020000 		.4byte	0x291
 1690 0d0b 09       		.byte	0x9
 1691 0d0c 09       		.uleb128 0x9
 1692 0d0d 3B090000 		.4byte	.LASF219
 1693 0d11 09       		.byte	0x9
 1694 0d12 67       		.byte	0x67
 1695 0d13 B0000000 		.4byte	0xb0
 1696 0d17 13       		.byte	0x13
 1697 0d18 09       		.uleb128 0x9
 1698 0d19 BB070000 		.4byte	.LASF220
 1699 0d1d 09       		.byte	0x9
 1700 0d1e 67       		.byte	0x67
 1701 0d1f 84000000 		.4byte	0x84
 1702 0d23 15       		.byte	0x15
 1703 0d24 09       		.uleb128 0x9
 1704 0d25 03080000 		.4byte	.LASF221
 1705 0d29 09       		.byte	0x9
 1706 0d2a 67       		.byte	0x67
 1707 0d2b A5000000 		.4byte	0xa5
 1708 0d2f 18       		.byte	0x18
 1709 0d30 09       		.uleb128 0x9
 1710 0d31 A1000000 		.4byte	.LASF222
 1711 0d35 09       		.byte	0x9
 1712 0d36 67       		.byte	0x67
 1713 0d37 A5000000 		.4byte	0xa5
 1714 0d3b 20       		.byte	0x20
 1715 0d3c 09       		.uleb128 0x9
 1716 0d3d 24050000 		.4byte	.LASF223
 1717 0d41 09       		.byte	0x9
 1718 0d42 67       		.byte	0x67
 1719 0d43 A5000000 		.4byte	0xa5
 1720 0d47 28       		.byte	0x28
 1721 0d48 09       		.uleb128 0x9
 1722 0d49 620A0000 		.4byte	.LASF224
 1723 0d4d 09       		.byte	0x9
 1724 0d4e 67       		.byte	0x67
 1725 0d4f C6000000 		.4byte	0xc6
 1726 0d53 30       		.byte	0x30
 1727 0d54 09       		.uleb128 0x9
 1728 0d55 CA0D0000 		.4byte	.LASF225
 1729 0d59 09       		.byte	0x9
 1730 0d5a 67       		.byte	0x67
 1731 0d5b 84000000 		.4byte	0x84
 1732 0d5f 34       		.byte	0x34
 1733 0d60 09       		.uleb128 0x9
 1734 0d61 FC010000 		.4byte	.LASF226
ARM GAS  C:\Users\AHMED~1.ELE\AppData\Local\Temp\ccCpkcmf.s 			page 33


 1735 0d65 09       		.byte	0x9
 1736 0d66 67       		.byte	0x67
 1737 0d67 E60D0000 		.4byte	0xde6
 1738 0d6b 35       		.byte	0x35
 1739 0d6c 09       		.uleb128 0x9
 1740 0d6d 51060000 		.4byte	.LASF227
 1741 0d71 09       		.byte	0x9
 1742 0d72 67       		.byte	0x67
 1743 0d73 F3010000 		.4byte	0x1f3
 1744 0d77 4F       		.byte	0x4f
 1745 0d78 09       		.uleb128 0x9
 1746 0d79 87050000 		.4byte	.LASF228
 1747 0d7d 09       		.byte	0x9
 1748 0d7e 67       		.byte	0x67
 1749 0d7f E1020000 		.4byte	0x2e1
 1750 0d83 5F       		.byte	0x5f
 1751 0d84 09       		.uleb128 0x9
 1752 0d85 130A0000 		.4byte	.LASF229
 1753 0d89 09       		.byte	0x9
 1754 0d8a 67       		.byte	0x67
 1755 0d8b 8F000000 		.4byte	0x8f
 1756 0d8f 66       		.byte	0x66
 1757 0d90 09       		.uleb128 0x9
 1758 0d91 B30D0000 		.4byte	.LASF230
 1759 0d95 09       		.byte	0x9
 1760 0d96 67       		.byte	0x67
 1761 0d97 84000000 		.4byte	0x84
 1762 0d9b 68       		.byte	0x68
 1763 0d9c 09       		.uleb128 0x9
 1764 0d9d 8C060000 		.4byte	.LASF231
 1765 0da1 09       		.byte	0x9
 1766 0da2 67       		.byte	0x67
 1767 0da3 3A070000 		.4byte	0x73a
 1768 0da7 69       		.byte	0x69
 1769 0da8 09       		.uleb128 0x9
 1770 0da9 0F040000 		.4byte	.LASF232
 1771 0dad 09       		.byte	0x9
 1772 0dae 67       		.byte	0x67
 1773 0daf 8F000000 		.4byte	0x8f
 1774 0db3 76       		.byte	0x76
 1775 0db4 09       		.uleb128 0x9
 1776 0db5 220E0000 		.4byte	.LASF233
 1777 0db9 09       		.byte	0x9
 1778 0dba 67       		.byte	0x67
 1779 0dbb 8F000000 		.4byte	0x8f
 1780 0dbf 78       		.byte	0x78
 1781 0dc0 09       		.uleb128 0x9
 1782 0dc1 A90E0000 		.4byte	.LASF234
 1783 0dc5 09       		.byte	0x9
 1784 0dc6 67       		.byte	0x67
 1785 0dc7 D6000000 		.4byte	0xd6
 1786 0dcb 7C       		.byte	0x7c
 1787 0dcc 09       		.uleb128 0x9
 1788 0dcd B50C0000 		.4byte	.LASF235
 1789 0dd1 09       		.byte	0x9
 1790 0dd2 67       		.byte	0x67
 1791 0dd3 380C0000 		.4byte	0xc38
ARM GAS  C:\Users\AHMED~1.ELE\AppData\Local\Temp\ccCpkcmf.s 			page 34


 1792 0dd7 84       		.byte	0x84
 1793 0dd8 16       		.uleb128 0x16
 1794 0dd9 59000000 		.4byte	.LASF128
 1795 0ddd 09       		.byte	0x9
 1796 0dde 68       		.byte	0x68
 1797 0ddf 8F000000 		.4byte	0x8f
 1798 0de3 F801     		.2byte	0x1f8
 1799 0de5 00       		.byte	0
 1800 0de6 05       		.uleb128 0x5
 1801 0de7 84000000 		.4byte	0x84
 1802 0deb F60D0000 		.4byte	0xdf6
 1803 0def 06       		.uleb128 0x6
 1804 0df0 6B000000 		.4byte	0x6b
 1805 0df4 19       		.byte	0x19
 1806 0df5 00       		.byte	0
 1807 0df6 11       		.uleb128 0x11
 1808 0df7 CF060000 		.4byte	.LASF236
 1809 0dfb F801     		.2byte	0x1f8
 1810 0dfd 09       		.byte	0x9
 1811 0dfe 6B       		.byte	0x6b
 1812 0dff 180F0000 		.4byte	0xf18
 1813 0e03 09       		.uleb128 0x9
 1814 0e04 460C0000 		.4byte	.LASF215
 1815 0e08 09       		.byte	0x9
 1816 0e09 6C       		.byte	0x6c
 1817 0e0a 84000000 		.4byte	0x84
 1818 0e0e 00       		.byte	0
 1819 0e0f 09       		.uleb128 0x9
 1820 0e10 C10B0000 		.4byte	.LASF216
 1821 0e14 09       		.byte	0x9
 1822 0e15 6C       		.byte	0x6c
 1823 0e16 84000000 		.4byte	0x84
 1824 0e1a 01       		.byte	0x1
 1825 0e1b 09       		.uleb128 0x9
 1826 0e1c 02090000 		.4byte	.LASF83
 1827 0e20 09       		.byte	0x9
 1828 0e21 6C       		.byte	0x6c
 1829 0e22 81020000 		.4byte	0x281
 1830 0e26 02       		.byte	0x2
 1831 0e27 09       		.uleb128 0x9
 1832 0e28 E6030000 		.4byte	.LASF217
 1833 0e2c 09       		.byte	0x9
 1834 0e2d 6C       		.byte	0x6c
 1835 0e2e 84000000 		.4byte	0x84
 1836 0e32 05       		.byte	0x5
 1837 0e33 09       		.uleb128 0x9
 1838 0e34 7D000000 		.4byte	.LASF84
 1839 0e38 09       		.byte	0x9
 1840 0e39 6C       		.byte	0x6c
 1841 0e3a 81020000 		.4byte	0x281
 1842 0e3e 06       		.byte	0x6
 1843 0e3f 09       		.uleb128 0x9
 1844 0e40 870A0000 		.4byte	.LASF218
 1845 0e44 09       		.byte	0x9
 1846 0e45 6C       		.byte	0x6c
 1847 0e46 91020000 		.4byte	0x291
 1848 0e4a 09       		.byte	0x9
ARM GAS  C:\Users\AHMED~1.ELE\AppData\Local\Temp\ccCpkcmf.s 			page 35


 1849 0e4b 09       		.uleb128 0x9
 1850 0e4c 3B090000 		.4byte	.LASF219
 1851 0e50 09       		.byte	0x9
 1852 0e51 6C       		.byte	0x6c
 1853 0e52 B0000000 		.4byte	0xb0
 1854 0e56 13       		.byte	0x13
 1855 0e57 09       		.uleb128 0x9
 1856 0e58 BB070000 		.4byte	.LASF220
 1857 0e5c 09       		.byte	0x9
 1858 0e5d 6C       		.byte	0x6c
 1859 0e5e 84000000 		.4byte	0x84
 1860 0e62 15       		.byte	0x15
 1861 0e63 09       		.uleb128 0x9
 1862 0e64 03080000 		.4byte	.LASF221
 1863 0e68 09       		.byte	0x9
 1864 0e69 6C       		.byte	0x6c
 1865 0e6a A5000000 		.4byte	0xa5
 1866 0e6e 18       		.byte	0x18
 1867 0e6f 09       		.uleb128 0x9
 1868 0e70 A1000000 		.4byte	.LASF222
 1869 0e74 09       		.byte	0x9
 1870 0e75 6C       		.byte	0x6c
 1871 0e76 A5000000 		.4byte	0xa5
 1872 0e7a 20       		.byte	0x20
 1873 0e7b 09       		.uleb128 0x9
 1874 0e7c 24050000 		.4byte	.LASF223
 1875 0e80 09       		.byte	0x9
 1876 0e81 6C       		.byte	0x6c
 1877 0e82 A5000000 		.4byte	0xa5
 1878 0e86 28       		.byte	0x28
 1879 0e87 09       		.uleb128 0x9
 1880 0e88 620A0000 		.4byte	.LASF224
 1881 0e8c 09       		.byte	0x9
 1882 0e8d 6C       		.byte	0x6c
 1883 0e8e C6000000 		.4byte	0xc6
 1884 0e92 30       		.byte	0x30
 1885 0e93 09       		.uleb128 0x9
 1886 0e94 CA0D0000 		.4byte	.LASF225
 1887 0e98 09       		.byte	0x9
 1888 0e99 6C       		.byte	0x6c
 1889 0e9a 84000000 		.4byte	0x84
 1890 0e9e 34       		.byte	0x34
 1891 0e9f 09       		.uleb128 0x9
 1892 0ea0 FC010000 		.4byte	.LASF226
 1893 0ea4 09       		.byte	0x9
 1894 0ea5 6C       		.byte	0x6c
 1895 0ea6 E60D0000 		.4byte	0xde6
 1896 0eaa 35       		.byte	0x35
 1897 0eab 09       		.uleb128 0x9
 1898 0eac 51060000 		.4byte	.LASF227
 1899 0eb0 09       		.byte	0x9
 1900 0eb1 6C       		.byte	0x6c
 1901 0eb2 F3010000 		.4byte	0x1f3
 1902 0eb6 4F       		.byte	0x4f
 1903 0eb7 09       		.uleb128 0x9
 1904 0eb8 87050000 		.4byte	.LASF228
 1905 0ebc 09       		.byte	0x9
ARM GAS  C:\Users\AHMED~1.ELE\AppData\Local\Temp\ccCpkcmf.s 			page 36


 1906 0ebd 6C       		.byte	0x6c
 1907 0ebe E1020000 		.4byte	0x2e1
 1908 0ec2 5F       		.byte	0x5f
 1909 0ec3 09       		.uleb128 0x9
 1910 0ec4 130A0000 		.4byte	.LASF229
 1911 0ec8 09       		.byte	0x9
 1912 0ec9 6C       		.byte	0x6c
 1913 0eca 8F000000 		.4byte	0x8f
 1914 0ece 66       		.byte	0x66
 1915 0ecf 09       		.uleb128 0x9
 1916 0ed0 B30D0000 		.4byte	.LASF230
 1917 0ed4 09       		.byte	0x9
 1918 0ed5 6C       		.byte	0x6c
 1919 0ed6 84000000 		.4byte	0x84
 1920 0eda 68       		.byte	0x68
 1921 0edb 09       		.uleb128 0x9
 1922 0edc 8C060000 		.4byte	.LASF231
 1923 0ee0 09       		.byte	0x9
 1924 0ee1 6C       		.byte	0x6c
 1925 0ee2 3A070000 		.4byte	0x73a
 1926 0ee6 69       		.byte	0x69
 1927 0ee7 09       		.uleb128 0x9
 1928 0ee8 0F040000 		.4byte	.LASF232
 1929 0eec 09       		.byte	0x9
 1930 0eed 6C       		.byte	0x6c
 1931 0eee 8F000000 		.4byte	0x8f
 1932 0ef2 76       		.byte	0x76
 1933 0ef3 09       		.uleb128 0x9
 1934 0ef4 220E0000 		.4byte	.LASF233
 1935 0ef8 09       		.byte	0x9
 1936 0ef9 6C       		.byte	0x6c
 1937 0efa 8F000000 		.4byte	0x8f
 1938 0efe 78       		.byte	0x78
 1939 0eff 09       		.uleb128 0x9
 1940 0f00 A90E0000 		.4byte	.LASF234
 1941 0f04 09       		.byte	0x9
 1942 0f05 6C       		.byte	0x6c
 1943 0f06 D6000000 		.4byte	0xd6
 1944 0f0a 7C       		.byte	0x7c
 1945 0f0b 09       		.uleb128 0x9
 1946 0f0c B50C0000 		.4byte	.LASF235
 1947 0f10 09       		.byte	0x9
 1948 0f11 6C       		.byte	0x6c
 1949 0f12 380C0000 		.4byte	0xc38
 1950 0f16 84       		.byte	0x84
 1951 0f17 00       		.byte	0
 1952 0f18 11       		.uleb128 0x11
 1953 0f19 C10D0000 		.4byte	.LASF237
 1954 0f1d 0802     		.2byte	0x208
 1955 0f1f 09       		.byte	0x9
 1956 0f20 6F       		.byte	0x6f
 1957 0f21 54100000 		.4byte	0x1054
 1958 0f25 09       		.uleb128 0x9
 1959 0f26 460C0000 		.4byte	.LASF215
 1960 0f2a 09       		.byte	0x9
 1961 0f2b 70       		.byte	0x70
 1962 0f2c 84000000 		.4byte	0x84
ARM GAS  C:\Users\AHMED~1.ELE\AppData\Local\Temp\ccCpkcmf.s 			page 37


 1963 0f30 00       		.byte	0
 1964 0f31 09       		.uleb128 0x9
 1965 0f32 C10B0000 		.4byte	.LASF216
 1966 0f36 09       		.byte	0x9
 1967 0f37 70       		.byte	0x70
 1968 0f38 84000000 		.4byte	0x84
 1969 0f3c 01       		.byte	0x1
 1970 0f3d 09       		.uleb128 0x9
 1971 0f3e 02090000 		.4byte	.LASF83
 1972 0f42 09       		.byte	0x9
 1973 0f43 70       		.byte	0x70
 1974 0f44 81020000 		.4byte	0x281
 1975 0f48 02       		.byte	0x2
 1976 0f49 09       		.uleb128 0x9
 1977 0f4a E6030000 		.4byte	.LASF217
 1978 0f4e 09       		.byte	0x9
 1979 0f4f 70       		.byte	0x70
 1980 0f50 84000000 		.4byte	0x84
 1981 0f54 05       		.byte	0x5
 1982 0f55 09       		.uleb128 0x9
 1983 0f56 7D000000 		.4byte	.LASF84
 1984 0f5a 09       		.byte	0x9
 1985 0f5b 70       		.byte	0x70
 1986 0f5c 81020000 		.4byte	0x281
 1987 0f60 06       		.byte	0x6
 1988 0f61 09       		.uleb128 0x9
 1989 0f62 870A0000 		.4byte	.LASF218
 1990 0f66 09       		.byte	0x9
 1991 0f67 70       		.byte	0x70
 1992 0f68 91020000 		.4byte	0x291
 1993 0f6c 09       		.byte	0x9
 1994 0f6d 09       		.uleb128 0x9
 1995 0f6e 3B090000 		.4byte	.LASF219
 1996 0f72 09       		.byte	0x9
 1997 0f73 70       		.byte	0x70
 1998 0f74 B0000000 		.4byte	0xb0
 1999 0f78 13       		.byte	0x13
 2000 0f79 09       		.uleb128 0x9
 2001 0f7a BB070000 		.4byte	.LASF220
 2002 0f7e 09       		.byte	0x9
 2003 0f7f 70       		.byte	0x70
 2004 0f80 84000000 		.4byte	0x84
 2005 0f84 15       		.byte	0x15
 2006 0f85 09       		.uleb128 0x9
 2007 0f86 03080000 		.4byte	.LASF221
 2008 0f8a 09       		.byte	0x9
 2009 0f8b 70       		.byte	0x70
 2010 0f8c A5000000 		.4byte	0xa5
 2011 0f90 18       		.byte	0x18
 2012 0f91 09       		.uleb128 0x9
 2013 0f92 A1000000 		.4byte	.LASF222
 2014 0f96 09       		.byte	0x9
 2015 0f97 70       		.byte	0x70
 2016 0f98 A5000000 		.4byte	0xa5
 2017 0f9c 20       		.byte	0x20
 2018 0f9d 09       		.uleb128 0x9
 2019 0f9e 24050000 		.4byte	.LASF223
ARM GAS  C:\Users\AHMED~1.ELE\AppData\Local\Temp\ccCpkcmf.s 			page 38


 2020 0fa2 09       		.byte	0x9
 2021 0fa3 70       		.byte	0x70
 2022 0fa4 A5000000 		.4byte	0xa5
 2023 0fa8 28       		.byte	0x28
 2024 0fa9 09       		.uleb128 0x9
 2025 0faa 620A0000 		.4byte	.LASF224
 2026 0fae 09       		.byte	0x9
 2027 0faf 70       		.byte	0x70
 2028 0fb0 C6000000 		.4byte	0xc6
 2029 0fb4 30       		.byte	0x30
 2030 0fb5 09       		.uleb128 0x9
 2031 0fb6 CA0D0000 		.4byte	.LASF225
 2032 0fba 09       		.byte	0x9
 2033 0fbb 70       		.byte	0x70
 2034 0fbc 84000000 		.4byte	0x84
 2035 0fc0 34       		.byte	0x34
 2036 0fc1 09       		.uleb128 0x9
 2037 0fc2 FC010000 		.4byte	.LASF226
 2038 0fc6 09       		.byte	0x9
 2039 0fc7 70       		.byte	0x70
 2040 0fc8 E60D0000 		.4byte	0xde6
 2041 0fcc 35       		.byte	0x35
 2042 0fcd 09       		.uleb128 0x9
 2043 0fce 51060000 		.4byte	.LASF227
 2044 0fd2 09       		.byte	0x9
 2045 0fd3 70       		.byte	0x70
 2046 0fd4 F3010000 		.4byte	0x1f3
 2047 0fd8 4F       		.byte	0x4f
 2048 0fd9 09       		.uleb128 0x9
 2049 0fda 87050000 		.4byte	.LASF228
 2050 0fde 09       		.byte	0x9
 2051 0fdf 70       		.byte	0x70
 2052 0fe0 E1020000 		.4byte	0x2e1
 2053 0fe4 5F       		.byte	0x5f
 2054 0fe5 09       		.uleb128 0x9
 2055 0fe6 130A0000 		.4byte	.LASF229
 2056 0fea 09       		.byte	0x9
 2057 0feb 70       		.byte	0x70
 2058 0fec 8F000000 		.4byte	0x8f
 2059 0ff0 66       		.byte	0x66
 2060 0ff1 09       		.uleb128 0x9
 2061 0ff2 B30D0000 		.4byte	.LASF230
 2062 0ff6 09       		.byte	0x9
 2063 0ff7 70       		.byte	0x70
 2064 0ff8 84000000 		.4byte	0x84
 2065 0ffc 68       		.byte	0x68
 2066 0ffd 09       		.uleb128 0x9
 2067 0ffe 8C060000 		.4byte	.LASF231
 2068 1002 09       		.byte	0x9
 2069 1003 70       		.byte	0x70
 2070 1004 3A070000 		.4byte	0x73a
 2071 1008 69       		.byte	0x69
 2072 1009 09       		.uleb128 0x9
 2073 100a 0F040000 		.4byte	.LASF232
 2074 100e 09       		.byte	0x9
 2075 100f 70       		.byte	0x70
 2076 1010 8F000000 		.4byte	0x8f
ARM GAS  C:\Users\AHMED~1.ELE\AppData\Local\Temp\ccCpkcmf.s 			page 39


 2077 1014 76       		.byte	0x76
 2078 1015 09       		.uleb128 0x9
 2079 1016 220E0000 		.4byte	.LASF233
 2080 101a 09       		.byte	0x9
 2081 101b 70       		.byte	0x70
 2082 101c 8F000000 		.4byte	0x8f
 2083 1020 78       		.byte	0x78
 2084 1021 09       		.uleb128 0x9
 2085 1022 A90E0000 		.4byte	.LASF234
 2086 1026 09       		.byte	0x9
 2087 1027 70       		.byte	0x70
 2088 1028 D6000000 		.4byte	0xd6
 2089 102c 7C       		.byte	0x7c
 2090 102d 09       		.uleb128 0x9
 2091 102e B50C0000 		.4byte	.LASF235
 2092 1032 09       		.byte	0x9
 2093 1033 70       		.byte	0x70
 2094 1034 380C0000 		.4byte	0xc38
 2095 1038 84       		.byte	0x84
 2096 1039 16       		.uleb128 0x16
 2097 103a 2B020000 		.4byte	.LASF238
 2098 103e 09       		.byte	0x9
 2099 103f 71       		.byte	0x71
 2100 1040 84000000 		.4byte	0x84
 2101 1044 F801     		.2byte	0x1f8
 2102 1046 16       		.uleb128 0x16
 2103 1047 AE080000 		.4byte	.LASF239
 2104 104b 09       		.byte	0x9
 2105 104c 72       		.byte	0x72
 2106 104d A5000000 		.4byte	0xa5
 2107 1051 0002     		.2byte	0x200
 2108 1053 00       		.byte	0
 2109 1054 08       		.uleb128 0x8
 2110 1055 000E0000 		.4byte	.LASF240
 2111 1059 10       		.byte	0x10
 2112 105a 09       		.byte	0x9
 2113 105b 75       		.byte	0x75
 2114 105c 79100000 		.4byte	0x1079
 2115 1060 09       		.uleb128 0x9
 2116 1061 230A0000 		.4byte	.LASF241
 2117 1065 09       		.byte	0x9
 2118 1066 76       		.byte	0x76
 2119 1067 8F000000 		.4byte	0x8f
 2120 106b 00       		.byte	0
 2121 106c 09       		.uleb128 0x9
 2122 106d 03080000 		.4byte	.LASF221
 2123 1071 09       		.byte	0x9
 2124 1072 77       		.byte	0x77
 2125 1073 A5000000 		.4byte	0xa5
 2126 1077 08       		.byte	0x8
 2127 1078 00       		.byte	0
 2128 1079 08       		.uleb128 0x8
 2129 107a 9F0A0000 		.4byte	.LASF242
 2130 107e 68       		.byte	0x68
 2131 107f 09       		.byte	0x9
 2132 1080 7A       		.byte	0x7a
 2133 1081 DA100000 		.4byte	0x10da
ARM GAS  C:\Users\AHMED~1.ELE\AppData\Local\Temp\ccCpkcmf.s 			page 40


 2134 1085 09       		.uleb128 0x9
 2135 1086 BE030000 		.4byte	.LASF243
 2136 108a 09       		.byte	0x9
 2137 108b 7B       		.byte	0x7b
 2138 108c 9A000000 		.4byte	0x9a
 2139 1090 00       		.byte	0
 2140 1091 09       		.uleb128 0x9
 2141 1092 630F0000 		.4byte	.LASF244
 2142 1096 09       		.byte	0x9
 2143 1097 7C       		.byte	0x7c
 2144 1098 54100000 		.4byte	0x1054
 2145 109c 08       		.byte	0x8
 2146 109d 09       		.uleb128 0x9
 2147 109e CB050000 		.4byte	.LASF245
 2148 10a2 09       		.byte	0x9
 2149 10a3 7D       		.byte	0x7d
 2150 10a4 54100000 		.4byte	0x1054
 2151 10a8 18       		.byte	0x18
 2152 10a9 09       		.uleb128 0x9
 2153 10aa E8050000 		.4byte	.LASF246
 2154 10ae 09       		.byte	0x9
 2155 10af 7E       		.byte	0x7e
 2156 10b0 54100000 		.4byte	0x1054
 2157 10b4 28       		.byte	0x28
 2158 10b5 09       		.uleb128 0x9
 2159 10b6 0E090000 		.4byte	.LASF247
 2160 10ba 09       		.byte	0x9
 2161 10bb 7F       		.byte	0x7f
 2162 10bc 54100000 		.4byte	0x1054
 2163 10c0 38       		.byte	0x38
 2164 10c1 09       		.uleb128 0x9
 2165 10c2 89030000 		.4byte	.LASF248
 2166 10c6 09       		.byte	0x9
 2167 10c7 80       		.byte	0x80
 2168 10c8 54100000 		.4byte	0x1054
 2169 10cc 48       		.byte	0x48
 2170 10cd 09       		.uleb128 0x9
 2171 10ce AF070000 		.4byte	.LASF249
 2172 10d2 09       		.byte	0x9
 2173 10d3 81       		.byte	0x81
 2174 10d4 54100000 		.4byte	0x1054
 2175 10d8 58       		.byte	0x58
 2176 10d9 00       		.byte	0
 2177 10da 11       		.uleb128 0x11
 2178 10db C90C0000 		.4byte	.LASF250
 2179 10df 5805     		.2byte	0x558
 2180 10e1 09       		.byte	0x9
 2181 10e2 86       		.byte	0x86
 2182 10e3 28110000 		.4byte	0x1128
 2183 10e7 09       		.uleb128 0x9
 2184 10e8 32020000 		.4byte	.LASF251
 2185 10ec 09       		.byte	0x9
 2186 10ed 87       		.byte	0x87
 2187 10ee 5A070000 		.4byte	0x75a
 2188 10f2 00       		.byte	0
 2189 10f3 16       		.uleb128 0x16
 2190 10f4 070D0000 		.4byte	.LASF252
ARM GAS  C:\Users\AHMED~1.ELE\AppData\Local\Temp\ccCpkcmf.s 			page 41


 2191 10f8 09       		.byte	0x9
 2192 10f9 88       		.byte	0x88
 2193 10fa 28110000 		.4byte	0x1128
 2194 10fe 8801     		.2byte	0x188
 2195 1100 16       		.uleb128 0x16
 2196 1101 140F0000 		.4byte	.LASF253
 2197 1105 09       		.byte	0x9
 2198 1106 89       		.byte	0x89
 2199 1107 38110000 		.4byte	0x1138
 2200 110b 4803     		.2byte	0x348
 2201 110d 16       		.uleb128 0x16
 2202 110e 520B0000 		.4byte	.LASF254
 2203 1112 09       		.byte	0x9
 2204 1113 8A       		.byte	0x8a
 2205 1114 48110000 		.4byte	0x1148
 2206 1118 A004     		.2byte	0x4a0
 2207 111a 16       		.uleb128 0x16
 2208 111b 60050000 		.4byte	.LASF255
 2209 111f 09       		.byte	0x9
 2210 1120 8B       		.byte	0x8b
 2211 1121 58110000 		.4byte	0x1158
 2212 1125 1005     		.2byte	0x510
 2213 1127 00       		.byte	0
 2214 1128 05       		.uleb128 0x5
 2215 1129 F60B0000 		.4byte	0xbf6
 2216 112d 38110000 		.4byte	0x1138
 2217 1131 06       		.uleb128 0x6
 2218 1132 6B000000 		.4byte	0x6b
 2219 1136 0F       		.byte	0xf
 2220 1137 00       		.byte	0
 2221 1138 05       		.uleb128 0x5
 2222 1139 1E0A0000 		.4byte	0xa1e
 2223 113d 48110000 		.4byte	0x1148
 2224 1141 06       		.uleb128 0x6
 2225 1142 6B000000 		.4byte	0x6b
 2226 1146 01       		.byte	0x1
 2227 1147 00       		.byte	0
 2228 1148 05       		.uleb128 0x5
 2229 1149 9B090000 		.4byte	0x99b
 2230 114d 58110000 		.4byte	0x1158
 2231 1151 06       		.uleb128 0x6
 2232 1152 6B000000 		.4byte	0x6b
 2233 1156 01       		.byte	0x1
 2234 1157 00       		.byte	0
 2235 1158 05       		.uleb128 0x5
 2236 1159 32090000 		.4byte	0x932
 2237 115d 68110000 		.4byte	0x1168
 2238 1161 06       		.uleb128 0x6
 2239 1162 6B000000 		.4byte	0x6b
 2240 1166 01       		.byte	0x1
 2241 1167 00       		.byte	0
 2242 1168 08       		.uleb128 0x8
 2243 1169 690C0000 		.4byte	.LASF256
 2244 116d 04       		.byte	0x4
 2245 116e 09       		.byte	0x9
 2246 116f 8E       		.byte	0x8e
 2247 1170 8D110000 		.4byte	0x118d
ARM GAS  C:\Users\AHMED~1.ELE\AppData\Local\Temp\ccCpkcmf.s 			page 42


 2248 1174 09       		.uleb128 0x9
 2249 1175 A8000000 		.4byte	.LASF257
 2250 1179 09       		.byte	0x9
 2251 117a 8F       		.byte	0x8f
 2252 117b 84000000 		.4byte	0x84
 2253 117f 00       		.byte	0
 2254 1180 09       		.uleb128 0x9
 2255 1181 F2060000 		.4byte	.LASF258
 2256 1185 09       		.byte	0x9
 2257 1186 90       		.byte	0x90
 2258 1187 84000000 		.4byte	0x84
 2259 118b 01       		.byte	0x1
 2260 118c 00       		.byte	0
 2261 118d 11       		.uleb128 0x11
 2262 118e A1080000 		.4byte	.LASF259
 2263 1192 040C     		.2byte	0xc04
 2264 1194 09       		.byte	0x9
 2265 1195 9B       		.byte	0x9b
 2266 1196 B3110000 		.4byte	0x11b3
 2267 119a 09       		.uleb128 0x9
 2268 119b B5070000 		.4byte	.LASF260
 2269 119f 09       		.byte	0x9
 2270 11a0 9C       		.byte	0x9c
 2271 11a1 9A000000 		.4byte	0x9a
 2272 11a5 00       		.byte	0
 2273 11a6 09       		.uleb128 0x9
 2274 11a7 990B0000 		.4byte	.LASF63
 2275 11ab 09       		.byte	0x9
 2276 11ac 9D       		.byte	0x9d
 2277 11ad FD030000 		.4byte	0x3fd
 2278 11b1 04       		.byte	0x4
 2279 11b2 00       		.byte	0
 2280 11b3 17       		.uleb128 0x17
 2281 11b4 47445300 		.ascii	"GDS\000"
 2282 11b8 6042     		.2byte	0x4260
 2283 11ba 09       		.byte	0x9
 2284 11bb A1       		.byte	0xa1
 2285 11bc C4120000 		.4byte	0x12c4
 2286 11c0 09       		.uleb128 0x9
 2287 11c1 E0070000 		.4byte	.LASF261
 2288 11c5 09       		.byte	0x9
 2289 11c6 A3       		.byte	0xa3
 2290 11c7 DA100000 		.4byte	0x10da
 2291 11cb 00       		.byte	0
 2292 11cc 16       		.uleb128 0x16
 2293 11cd 390B0000 		.4byte	.LASF262
 2294 11d1 09       		.byte	0x9
 2295 11d2 A4       		.byte	0xa4
 2296 11d3 0E040000 		.4byte	0x40e
 2297 11d7 5805     		.2byte	0x558
 2298 11d9 16       		.uleb128 0x16
 2299 11da 86080000 		.4byte	.LASF263
 2300 11de 09       		.byte	0x9
 2301 11df A6       		.byte	0xa6
 2302 11e0 B70C0000 		.4byte	0xcb7
 2303 11e4 C806     		.2byte	0x6c8
 2304 11e6 16       		.uleb128 0x16
ARM GAS  C:\Users\AHMED~1.ELE\AppData\Local\Temp\ccCpkcmf.s 			page 43


 2305 11e7 4B0E0000 		.4byte	.LASF264
 2306 11eb 09       		.byte	0x9
 2307 11ec A7       		.byte	0xa7
 2308 11ed F60D0000 		.4byte	0xdf6
 2309 11f1 C808     		.2byte	0x8c8
 2310 11f3 16       		.uleb128 0x16
 2311 11f4 600C0000 		.4byte	.LASF265
 2312 11f8 09       		.byte	0x9
 2313 11f9 A8       		.byte	0xa8
 2314 11fa 180F0000 		.4byte	0xf18
 2315 11fe C00A     		.2byte	0xac0
 2316 1200 16       		.uleb128 0x16
 2317 1201 45070000 		.4byte	.LASF266
 2318 1205 09       		.byte	0x9
 2319 1206 A9       		.byte	0xa9
 2320 1207 79100000 		.4byte	0x1079
 2321 120b C80C     		.2byte	0xcc8
 2322 120d 16       		.uleb128 0x16
 2323 120e DC0A0000 		.4byte	.LASF267
 2324 1212 09       		.byte	0x9
 2325 1213 AA       		.byte	0xaa
 2326 1214 79100000 		.4byte	0x1079
 2327 1218 300D     		.2byte	0xd30
 2328 121a 16       		.uleb128 0x16
 2329 121b DD030000 		.4byte	.LASF268
 2330 121f 09       		.byte	0x9
 2331 1220 AB       		.byte	0xab
 2332 1221 8D110000 		.4byte	0x118d
 2333 1225 980D     		.2byte	0xd98
 2334 1227 16       		.uleb128 0x16
 2335 1228 68000000 		.4byte	.LASF269
 2336 122c 09       		.byte	0x9
 2337 122d AC       		.byte	0xac
 2338 122e D4030000 		.4byte	0x3d4
 2339 1232 9C19     		.2byte	0x199c
 2340 1234 16       		.uleb128 0x16
 2341 1235 BD0E0000 		.4byte	.LASF270
 2342 1239 09       		.byte	0x9
 2343 123a AD       		.byte	0xad
 2344 123b D4030000 		.4byte	0x3d4
 2345 123f A025     		.2byte	0x25a0
 2346 1241 16       		.uleb128 0x16
 2347 1242 9B070000 		.4byte	.LASF271
 2348 1246 09       		.byte	0x9
 2349 1247 AE       		.byte	0xae
 2350 1248 C4120000 		.4byte	0x12c4
 2351 124c A431     		.2byte	0x31a4
 2352 124e 16       		.uleb128 0x16
 2353 124f D70D0000 		.4byte	.LASF272
 2354 1253 09       		.byte	0x9
 2355 1254 AF       		.byte	0xaf
 2356 1255 24020000 		.4byte	0x224
 2357 1259 8037     		.2byte	0x3780
 2358 125b 16       		.uleb128 0x16
 2359 125c 2F0D0000 		.4byte	.LASF273
 2360 1260 09       		.byte	0x9
 2361 1261 B0       		.byte	0xb0
ARM GAS  C:\Users\AHMED~1.ELE\AppData\Local\Temp\ccCpkcmf.s 			page 44


 2362 1262 24020000 		.4byte	0x224
 2363 1266 8837     		.2byte	0x3788
 2364 1268 16       		.uleb128 0x16
 2365 1269 9D090000 		.4byte	.LASF274
 2366 126d 09       		.byte	0x9
 2367 126e B1       		.byte	0xb1
 2368 126f 15030000 		.4byte	0x315
 2369 1273 9037     		.2byte	0x3790
 2370 1275 16       		.uleb128 0x16
 2371 1276 3C070000 		.4byte	.LASF275
 2372 127a 09       		.byte	0x9
 2373 127b B2       		.byte	0xb2
 2374 127c 15030000 		.4byte	0x315
 2375 1280 9837     		.2byte	0x3798
 2376 1282 16       		.uleb128 0x16
 2377 1283 68060000 		.4byte	.LASF276
 2378 1287 09       		.byte	0x9
 2379 1288 B3       		.byte	0xb3
 2380 1289 D5120000 		.4byte	0x12d5
 2381 128d A037     		.2byte	0x37a0
 2382 128f 16       		.uleb128 0x16
 2383 1290 CF040000 		.4byte	.LASF277
 2384 1294 09       		.byte	0x9
 2385 1295 B4       		.byte	0xb4
 2386 1296 79000000 		.4byte	0x79
 2387 129a 503C     		.2byte	0x3c50
 2388 129c 16       		.uleb128 0x16
 2389 129d 47090000 		.4byte	.LASF278
 2390 12a1 09       		.byte	0x9
 2391 12a2 B5       		.byte	0xb5
 2392 12a3 68110000 		.4byte	0x1168
 2393 12a7 543C     		.2byte	0x3c54
 2394 12a9 16       		.uleb128 0x16
 2395 12aa 4F0A0000 		.4byte	.LASF279
 2396 12ae 09       		.byte	0x9
 2397 12af B6       		.byte	0xb6
 2398 12b0 21030000 		.4byte	0x321
 2399 12b4 583C     		.2byte	0x3c58
 2400 12b6 16       		.uleb128 0x16
 2401 12b7 74090000 		.4byte	.LASF280
 2402 12bb 09       		.byte	0x9
 2403 12bc B7       		.byte	0xb7
 2404 12bd 25000000 		.4byte	0x25
 2405 12c1 5C42     		.2byte	0x425c
 2406 12c3 00       		.byte	0
 2407 12c4 05       		.uleb128 0x5
 2408 12c5 84000000 		.4byte	0x84
 2409 12c9 D5120000 		.4byte	0x12d5
 2410 12cd 12       		.uleb128 0x12
 2411 12ce 6B000000 		.4byte	0x6b
 2412 12d2 DB05     		.2byte	0x5db
 2413 12d4 00       		.byte	0
 2414 12d5 05       		.uleb128 0x5
 2415 12d6 66020000 		.4byte	0x266
 2416 12da E5120000 		.4byte	0x12e5
 2417 12de 06       		.uleb128 0x6
 2418 12df 6B000000 		.4byte	0x6b
ARM GAS  C:\Users\AHMED~1.ELE\AppData\Local\Temp\ccCpkcmf.s 			page 45


 2419 12e3 95       		.byte	0x95
 2420 12e4 00       		.byte	0
 2421 12e5 11       		.uleb128 0x11
 2422 12e6 300C0000 		.4byte	.LASF281
 2423 12ea 0003     		.2byte	0x300
 2424 12ec 0A       		.byte	0xa
 2425 12ed 33       		.byte	0x33
 2426 12ee 55140000 		.4byte	0x1455
 2427 12f2 09       		.uleb128 0x9
 2428 12f3 460C0000 		.4byte	.LASF215
 2429 12f7 0A       		.byte	0xa
 2430 12f8 34       		.byte	0x34
 2431 12f9 84000000 		.4byte	0x84
 2432 12fd 00       		.byte	0
 2433 12fe 09       		.uleb128 0x9
 2434 12ff C10B0000 		.4byte	.LASF216
 2435 1303 0A       		.byte	0xa
 2436 1304 34       		.byte	0x34
 2437 1305 84000000 		.4byte	0x84
 2438 1309 01       		.byte	0x1
 2439 130a 09       		.uleb128 0x9
 2440 130b 02090000 		.4byte	.LASF83
 2441 130f 0A       		.byte	0xa
 2442 1310 34       		.byte	0x34
 2443 1311 81020000 		.4byte	0x281
 2444 1315 02       		.byte	0x2
 2445 1316 09       		.uleb128 0x9
 2446 1317 E6030000 		.4byte	.LASF217
 2447 131b 0A       		.byte	0xa
 2448 131c 34       		.byte	0x34
 2449 131d 84000000 		.4byte	0x84
 2450 1321 05       		.byte	0x5
 2451 1322 09       		.uleb128 0x9
 2452 1323 7D000000 		.4byte	.LASF84
 2453 1327 0A       		.byte	0xa
 2454 1328 34       		.byte	0x34
 2455 1329 81020000 		.4byte	0x281
 2456 132d 06       		.byte	0x6
 2457 132e 09       		.uleb128 0x9
 2458 132f 870A0000 		.4byte	.LASF218
 2459 1333 0A       		.byte	0xa
 2460 1334 34       		.byte	0x34
 2461 1335 91020000 		.4byte	0x291
 2462 1339 09       		.byte	0x9
 2463 133a 09       		.uleb128 0x9
 2464 133b 3B090000 		.4byte	.LASF219
 2465 133f 0A       		.byte	0xa
 2466 1340 34       		.byte	0x34
 2467 1341 B0000000 		.4byte	0xb0
 2468 1345 13       		.byte	0x13
 2469 1346 09       		.uleb128 0x9
 2470 1347 BB070000 		.4byte	.LASF220
 2471 134b 0A       		.byte	0xa
 2472 134c 34       		.byte	0x34
 2473 134d 84000000 		.4byte	0x84
 2474 1351 15       		.byte	0x15
 2475 1352 09       		.uleb128 0x9
ARM GAS  C:\Users\AHMED~1.ELE\AppData\Local\Temp\ccCpkcmf.s 			page 46


 2476 1353 03080000 		.4byte	.LASF221
 2477 1357 0A       		.byte	0xa
 2478 1358 34       		.byte	0x34
 2479 1359 A5000000 		.4byte	0xa5
 2480 135d 18       		.byte	0x18
 2481 135e 09       		.uleb128 0x9
 2482 135f A1000000 		.4byte	.LASF222
 2483 1363 0A       		.byte	0xa
 2484 1364 34       		.byte	0x34
 2485 1365 A5000000 		.4byte	0xa5
 2486 1369 20       		.byte	0x20
 2487 136a 09       		.uleb128 0x9
 2488 136b 24050000 		.4byte	.LASF223
 2489 136f 0A       		.byte	0xa
 2490 1370 34       		.byte	0x34
 2491 1371 A5000000 		.4byte	0xa5
 2492 1375 28       		.byte	0x28
 2493 1376 09       		.uleb128 0x9
 2494 1377 620A0000 		.4byte	.LASF224
 2495 137b 0A       		.byte	0xa
 2496 137c 34       		.byte	0x34
 2497 137d C6000000 		.4byte	0xc6
 2498 1381 30       		.byte	0x30
 2499 1382 09       		.uleb128 0x9
 2500 1383 CA0D0000 		.4byte	.LASF225
 2501 1387 0A       		.byte	0xa
 2502 1388 34       		.byte	0x34
 2503 1389 84000000 		.4byte	0x84
 2504 138d 34       		.byte	0x34
 2505 138e 09       		.uleb128 0x9
 2506 138f FC010000 		.4byte	.LASF226
 2507 1393 0A       		.byte	0xa
 2508 1394 34       		.byte	0x34
 2509 1395 E60D0000 		.4byte	0xde6
 2510 1399 35       		.byte	0x35
 2511 139a 09       		.uleb128 0x9
 2512 139b 51060000 		.4byte	.LASF227
 2513 139f 0A       		.byte	0xa
 2514 13a0 34       		.byte	0x34
 2515 13a1 F3010000 		.4byte	0x1f3
 2516 13a5 4F       		.byte	0x4f
 2517 13a6 09       		.uleb128 0x9
 2518 13a7 87050000 		.4byte	.LASF228
 2519 13ab 0A       		.byte	0xa
 2520 13ac 34       		.byte	0x34
 2521 13ad E1020000 		.4byte	0x2e1
 2522 13b1 5F       		.byte	0x5f
 2523 13b2 09       		.uleb128 0x9
 2524 13b3 130A0000 		.4byte	.LASF229
 2525 13b7 0A       		.byte	0xa
 2526 13b8 34       		.byte	0x34
 2527 13b9 8F000000 		.4byte	0x8f
 2528 13bd 66       		.byte	0x66
 2529 13be 09       		.uleb128 0x9
 2530 13bf B30D0000 		.4byte	.LASF230
 2531 13c3 0A       		.byte	0xa
 2532 13c4 34       		.byte	0x34
ARM GAS  C:\Users\AHMED~1.ELE\AppData\Local\Temp\ccCpkcmf.s 			page 47


 2533 13c5 84000000 		.4byte	0x84
 2534 13c9 68       		.byte	0x68
 2535 13ca 09       		.uleb128 0x9
 2536 13cb 8C060000 		.4byte	.LASF231
 2537 13cf 0A       		.byte	0xa
 2538 13d0 34       		.byte	0x34
 2539 13d1 3A070000 		.4byte	0x73a
 2540 13d5 69       		.byte	0x69
 2541 13d6 09       		.uleb128 0x9
 2542 13d7 0F040000 		.4byte	.LASF232
 2543 13db 0A       		.byte	0xa
 2544 13dc 34       		.byte	0x34
 2545 13dd 8F000000 		.4byte	0x8f
 2546 13e1 76       		.byte	0x76
 2547 13e2 09       		.uleb128 0x9
 2548 13e3 220E0000 		.4byte	.LASF233
 2549 13e7 0A       		.byte	0xa
 2550 13e8 34       		.byte	0x34
 2551 13e9 8F000000 		.4byte	0x8f
 2552 13ed 78       		.byte	0x78
 2553 13ee 09       		.uleb128 0x9
 2554 13ef A90E0000 		.4byte	.LASF234
 2555 13f3 0A       		.byte	0xa
 2556 13f4 34       		.byte	0x34
 2557 13f5 D6000000 		.4byte	0xd6
 2558 13f9 7C       		.byte	0x7c
 2559 13fa 09       		.uleb128 0x9
 2560 13fb B50C0000 		.4byte	.LASF235
 2561 13ff 0A       		.byte	0xa
 2562 1400 34       		.byte	0x34
 2563 1401 380C0000 		.4byte	0xc38
 2564 1405 84       		.byte	0x84
 2565 1406 16       		.uleb128 0x16
 2566 1407 CD030000 		.4byte	.LASF282
 2567 140b 0A       		.byte	0xa
 2568 140c 35       		.byte	0x35
 2569 140d B1020000 		.4byte	0x2b1
 2570 1411 F801     		.2byte	0x1f8
 2571 1413 16       		.uleb128 0x16
 2572 1414 440F0000 		.4byte	.LASF283
 2573 1418 0A       		.byte	0xa
 2574 1419 36       		.byte	0x36
 2575 141a 64030000 		.4byte	0x364
 2576 141e 0002     		.2byte	0x200
 2577 1420 16       		.uleb128 0x16
 2578 1421 77060000 		.4byte	.LASF284
 2579 1425 0A       		.byte	0xa
 2580 1426 37       		.byte	0x37
 2581 1427 9C030000 		.4byte	0x39c
 2582 142b A002     		.2byte	0x2a0
 2583 142d 16       		.uleb128 0x16
 2584 142e 1D000000 		.4byte	.LASF285
 2585 1432 0A       		.byte	0xa
 2586 1433 38       		.byte	0x38
 2587 1434 8F000000 		.4byte	0x8f
 2588 1438 F402     		.2byte	0x2f4
 2589 143a 16       		.uleb128 0x16
ARM GAS  C:\Users\AHMED~1.ELE\AppData\Local\Temp\ccCpkcmf.s 			page 48


 2590 143b 7A030000 		.4byte	.LASF286
 2591 143f 0A       		.byte	0xa
 2592 1440 39       		.byte	0x39
 2593 1441 84000000 		.4byte	0x84
 2594 1445 F602     		.2byte	0x2f6
 2595 1447 16       		.uleb128 0x16
 2596 1448 450B0000 		.4byte	.LASF287
 2597 144c 0A       		.byte	0xa
 2598 144d 3A       		.byte	0x3a
 2599 144e C6000000 		.4byte	0xc6
 2600 1452 F702     		.2byte	0x2f7
 2601 1454 00       		.byte	0
 2602 1455 11       		.uleb128 0x11
 2603 1456 CC000000 		.4byte	.LASF288
 2604 145a 0802     		.2byte	0x208
 2605 145c 0A       		.byte	0xa
 2606 145d 3D       		.byte	0x3d
 2607 145e AB150000 		.4byte	0x15ab
 2608 1462 09       		.uleb128 0x9
 2609 1463 460C0000 		.4byte	.LASF215
 2610 1467 0A       		.byte	0xa
 2611 1468 3E       		.byte	0x3e
 2612 1469 84000000 		.4byte	0x84
 2613 146d 00       		.byte	0
 2614 146e 09       		.uleb128 0x9
 2615 146f C10B0000 		.4byte	.LASF216
 2616 1473 0A       		.byte	0xa
 2617 1474 3E       		.byte	0x3e
 2618 1475 84000000 		.4byte	0x84
 2619 1479 01       		.byte	0x1
 2620 147a 09       		.uleb128 0x9
 2621 147b 02090000 		.4byte	.LASF83
 2622 147f 0A       		.byte	0xa
 2623 1480 3E       		.byte	0x3e
 2624 1481 81020000 		.4byte	0x281
 2625 1485 02       		.byte	0x2
 2626 1486 09       		.uleb128 0x9
 2627 1487 E6030000 		.4byte	.LASF217
 2628 148b 0A       		.byte	0xa
 2629 148c 3E       		.byte	0x3e
 2630 148d 84000000 		.4byte	0x84
 2631 1491 05       		.byte	0x5
 2632 1492 09       		.uleb128 0x9
 2633 1493 7D000000 		.4byte	.LASF84
 2634 1497 0A       		.byte	0xa
 2635 1498 3E       		.byte	0x3e
 2636 1499 81020000 		.4byte	0x281
 2637 149d 06       		.byte	0x6
 2638 149e 09       		.uleb128 0x9
 2639 149f 870A0000 		.4byte	.LASF218
 2640 14a3 0A       		.byte	0xa
 2641 14a4 3E       		.byte	0x3e
 2642 14a5 91020000 		.4byte	0x291
 2643 14a9 09       		.byte	0x9
 2644 14aa 09       		.uleb128 0x9
 2645 14ab 3B090000 		.4byte	.LASF219
 2646 14af 0A       		.byte	0xa
ARM GAS  C:\Users\AHMED~1.ELE\AppData\Local\Temp\ccCpkcmf.s 			page 49


 2647 14b0 3E       		.byte	0x3e
 2648 14b1 B0000000 		.4byte	0xb0
 2649 14b5 13       		.byte	0x13
 2650 14b6 09       		.uleb128 0x9
 2651 14b7 BB070000 		.4byte	.LASF220
 2652 14bb 0A       		.byte	0xa
 2653 14bc 3E       		.byte	0x3e
 2654 14bd 84000000 		.4byte	0x84
 2655 14c1 15       		.byte	0x15
 2656 14c2 09       		.uleb128 0x9
 2657 14c3 03080000 		.4byte	.LASF221
 2658 14c7 0A       		.byte	0xa
 2659 14c8 3E       		.byte	0x3e
 2660 14c9 A5000000 		.4byte	0xa5
 2661 14cd 18       		.byte	0x18
 2662 14ce 09       		.uleb128 0x9
 2663 14cf A1000000 		.4byte	.LASF222
 2664 14d3 0A       		.byte	0xa
 2665 14d4 3E       		.byte	0x3e
 2666 14d5 A5000000 		.4byte	0xa5
 2667 14d9 20       		.byte	0x20
 2668 14da 09       		.uleb128 0x9
 2669 14db 24050000 		.4byte	.LASF223
 2670 14df 0A       		.byte	0xa
 2671 14e0 3E       		.byte	0x3e
 2672 14e1 A5000000 		.4byte	0xa5
 2673 14e5 28       		.byte	0x28
 2674 14e6 09       		.uleb128 0x9
 2675 14e7 620A0000 		.4byte	.LASF224
 2676 14eb 0A       		.byte	0xa
 2677 14ec 3E       		.byte	0x3e
 2678 14ed C6000000 		.4byte	0xc6
 2679 14f1 30       		.byte	0x30
 2680 14f2 09       		.uleb128 0x9
 2681 14f3 CA0D0000 		.4byte	.LASF225
 2682 14f7 0A       		.byte	0xa
 2683 14f8 3E       		.byte	0x3e
 2684 14f9 84000000 		.4byte	0x84
 2685 14fd 34       		.byte	0x34
 2686 14fe 09       		.uleb128 0x9
 2687 14ff FC010000 		.4byte	.LASF226
 2688 1503 0A       		.byte	0xa
 2689 1504 3E       		.byte	0x3e
 2690 1505 E60D0000 		.4byte	0xde6
 2691 1509 35       		.byte	0x35
 2692 150a 09       		.uleb128 0x9
 2693 150b 51060000 		.4byte	.LASF227
 2694 150f 0A       		.byte	0xa
 2695 1510 3E       		.byte	0x3e
 2696 1511 F3010000 		.4byte	0x1f3
 2697 1515 4F       		.byte	0x4f
 2698 1516 09       		.uleb128 0x9
 2699 1517 87050000 		.4byte	.LASF228
 2700 151b 0A       		.byte	0xa
 2701 151c 3E       		.byte	0x3e
 2702 151d E1020000 		.4byte	0x2e1
 2703 1521 5F       		.byte	0x5f
ARM GAS  C:\Users\AHMED~1.ELE\AppData\Local\Temp\ccCpkcmf.s 			page 50


 2704 1522 09       		.uleb128 0x9
 2705 1523 130A0000 		.4byte	.LASF229
 2706 1527 0A       		.byte	0xa
 2707 1528 3E       		.byte	0x3e
 2708 1529 8F000000 		.4byte	0x8f
 2709 152d 66       		.byte	0x66
 2710 152e 09       		.uleb128 0x9
 2711 152f B30D0000 		.4byte	.LASF230
 2712 1533 0A       		.byte	0xa
 2713 1534 3E       		.byte	0x3e
 2714 1535 84000000 		.4byte	0x84
 2715 1539 68       		.byte	0x68
 2716 153a 09       		.uleb128 0x9
 2717 153b 8C060000 		.4byte	.LASF231
 2718 153f 0A       		.byte	0xa
 2719 1540 3E       		.byte	0x3e
 2720 1541 3A070000 		.4byte	0x73a
 2721 1545 69       		.byte	0x69
 2722 1546 09       		.uleb128 0x9
 2723 1547 0F040000 		.4byte	.LASF232
 2724 154b 0A       		.byte	0xa
 2725 154c 3E       		.byte	0x3e
 2726 154d 8F000000 		.4byte	0x8f
 2727 1551 76       		.byte	0x76
 2728 1552 09       		.uleb128 0x9
 2729 1553 220E0000 		.4byte	.LASF233
 2730 1557 0A       		.byte	0xa
 2731 1558 3E       		.byte	0x3e
 2732 1559 8F000000 		.4byte	0x8f
 2733 155d 78       		.byte	0x78
 2734 155e 09       		.uleb128 0x9
 2735 155f A90E0000 		.4byte	.LASF234
 2736 1563 0A       		.byte	0xa
 2737 1564 3E       		.byte	0x3e
 2738 1565 D6000000 		.4byte	0xd6
 2739 1569 7C       		.byte	0x7c
 2740 156a 09       		.uleb128 0x9
 2741 156b B50C0000 		.4byte	.LASF235
 2742 156f 0A       		.byte	0xa
 2743 1570 3E       		.byte	0x3e
 2744 1571 380C0000 		.4byte	0xc38
 2745 1575 84       		.byte	0x84
 2746 1576 16       		.uleb128 0x16
 2747 1577 CD030000 		.4byte	.LASF282
 2748 157b 0A       		.byte	0xa
 2749 157c 3F       		.byte	0x3f
 2750 157d B1020000 		.4byte	0x2b1
 2751 1581 F801     		.2byte	0x1f8
 2752 1583 16       		.uleb128 0x16
 2753 1584 B1030000 		.4byte	.LASF289
 2754 1588 0A       		.byte	0xa
 2755 1589 40       		.byte	0x40
 2756 158a 81020000 		.4byte	0x281
 2757 158e 0002     		.2byte	0x200
 2758 1590 16       		.uleb128 0x16
 2759 1591 B50B0000 		.4byte	.LASF290
 2760 1595 0A       		.byte	0xa
ARM GAS  C:\Users\AHMED~1.ELE\AppData\Local\Temp\ccCpkcmf.s 			page 51


 2761 1596 41       		.byte	0x41
 2762 1597 84000000 		.4byte	0x84
 2763 159b 0302     		.2byte	0x203
 2764 159d 16       		.uleb128 0x16
 2765 159e D0070000 		.4byte	.LASF291
 2766 15a2 0A       		.byte	0xa
 2767 15a3 42       		.byte	0x42
 2768 15a4 81020000 		.4byte	0x281
 2769 15a8 0402     		.2byte	0x204
 2770 15aa 00       		.byte	0
 2771 15ab 11       		.uleb128 0x11
 2772 15ac FA070000 		.4byte	.LASF292
 2773 15b0 4002     		.2byte	0x240
 2774 15b2 0A       		.byte	0xa
 2775 15b3 45       		.byte	0x45
 2776 15b4 E7160000 		.4byte	0x16e7
 2777 15b8 09       		.uleb128 0x9
 2778 15b9 460C0000 		.4byte	.LASF215
 2779 15bd 0A       		.byte	0xa
 2780 15be 46       		.byte	0x46
 2781 15bf 84000000 		.4byte	0x84
 2782 15c3 00       		.byte	0
 2783 15c4 09       		.uleb128 0x9
 2784 15c5 C10B0000 		.4byte	.LASF216
 2785 15c9 0A       		.byte	0xa
 2786 15ca 46       		.byte	0x46
 2787 15cb 84000000 		.4byte	0x84
 2788 15cf 01       		.byte	0x1
 2789 15d0 09       		.uleb128 0x9
 2790 15d1 02090000 		.4byte	.LASF83
 2791 15d5 0A       		.byte	0xa
 2792 15d6 46       		.byte	0x46
 2793 15d7 81020000 		.4byte	0x281
 2794 15db 02       		.byte	0x2
 2795 15dc 09       		.uleb128 0x9
 2796 15dd E6030000 		.4byte	.LASF217
 2797 15e1 0A       		.byte	0xa
 2798 15e2 46       		.byte	0x46
 2799 15e3 84000000 		.4byte	0x84
 2800 15e7 05       		.byte	0x5
 2801 15e8 09       		.uleb128 0x9
 2802 15e9 7D000000 		.4byte	.LASF84
 2803 15ed 0A       		.byte	0xa
 2804 15ee 46       		.byte	0x46
 2805 15ef 81020000 		.4byte	0x281
 2806 15f3 06       		.byte	0x6
 2807 15f4 09       		.uleb128 0x9
 2808 15f5 870A0000 		.4byte	.LASF218
 2809 15f9 0A       		.byte	0xa
 2810 15fa 46       		.byte	0x46
 2811 15fb 91020000 		.4byte	0x291
 2812 15ff 09       		.byte	0x9
 2813 1600 09       		.uleb128 0x9
 2814 1601 3B090000 		.4byte	.LASF219
 2815 1605 0A       		.byte	0xa
 2816 1606 46       		.byte	0x46
 2817 1607 B0000000 		.4byte	0xb0
ARM GAS  C:\Users\AHMED~1.ELE\AppData\Local\Temp\ccCpkcmf.s 			page 52


 2818 160b 13       		.byte	0x13
 2819 160c 09       		.uleb128 0x9
 2820 160d BB070000 		.4byte	.LASF220
 2821 1611 0A       		.byte	0xa
 2822 1612 46       		.byte	0x46
 2823 1613 84000000 		.4byte	0x84
 2824 1617 15       		.byte	0x15
 2825 1618 09       		.uleb128 0x9
 2826 1619 03080000 		.4byte	.LASF221
 2827 161d 0A       		.byte	0xa
 2828 161e 46       		.byte	0x46
 2829 161f A5000000 		.4byte	0xa5
 2830 1623 18       		.byte	0x18
 2831 1624 09       		.uleb128 0x9
 2832 1625 A1000000 		.4byte	.LASF222
 2833 1629 0A       		.byte	0xa
 2834 162a 46       		.byte	0x46
 2835 162b A5000000 		.4byte	0xa5
 2836 162f 20       		.byte	0x20
 2837 1630 09       		.uleb128 0x9
 2838 1631 24050000 		.4byte	.LASF223
 2839 1635 0A       		.byte	0xa
 2840 1636 46       		.byte	0x46
 2841 1637 A5000000 		.4byte	0xa5
 2842 163b 28       		.byte	0x28
 2843 163c 09       		.uleb128 0x9
 2844 163d 620A0000 		.4byte	.LASF224
 2845 1641 0A       		.byte	0xa
 2846 1642 46       		.byte	0x46
 2847 1643 C6000000 		.4byte	0xc6
 2848 1647 30       		.byte	0x30
 2849 1648 09       		.uleb128 0x9
 2850 1649 CA0D0000 		.4byte	.LASF225
 2851 164d 0A       		.byte	0xa
 2852 164e 46       		.byte	0x46
 2853 164f 84000000 		.4byte	0x84
 2854 1653 34       		.byte	0x34
 2855 1654 09       		.uleb128 0x9
 2856 1655 FC010000 		.4byte	.LASF226
 2857 1659 0A       		.byte	0xa
 2858 165a 46       		.byte	0x46
 2859 165b E60D0000 		.4byte	0xde6
 2860 165f 35       		.byte	0x35
 2861 1660 09       		.uleb128 0x9
 2862 1661 51060000 		.4byte	.LASF227
 2863 1665 0A       		.byte	0xa
 2864 1666 46       		.byte	0x46
 2865 1667 F3010000 		.4byte	0x1f3
 2866 166b 4F       		.byte	0x4f
 2867 166c 09       		.uleb128 0x9
 2868 166d 87050000 		.4byte	.LASF228
 2869 1671 0A       		.byte	0xa
 2870 1672 46       		.byte	0x46
 2871 1673 E1020000 		.4byte	0x2e1
 2872 1677 5F       		.byte	0x5f
 2873 1678 09       		.uleb128 0x9
 2874 1679 130A0000 		.4byte	.LASF229
ARM GAS  C:\Users\AHMED~1.ELE\AppData\Local\Temp\ccCpkcmf.s 			page 53


 2875 167d 0A       		.byte	0xa
 2876 167e 46       		.byte	0x46
 2877 167f 8F000000 		.4byte	0x8f
 2878 1683 66       		.byte	0x66
 2879 1684 09       		.uleb128 0x9
 2880 1685 B30D0000 		.4byte	.LASF230
 2881 1689 0A       		.byte	0xa
 2882 168a 46       		.byte	0x46
 2883 168b 84000000 		.4byte	0x84
 2884 168f 68       		.byte	0x68
 2885 1690 09       		.uleb128 0x9
 2886 1691 8C060000 		.4byte	.LASF231
 2887 1695 0A       		.byte	0xa
 2888 1696 46       		.byte	0x46
 2889 1697 3A070000 		.4byte	0x73a
 2890 169b 69       		.byte	0x69
 2891 169c 09       		.uleb128 0x9
 2892 169d 0F040000 		.4byte	.LASF232
 2893 16a1 0A       		.byte	0xa
 2894 16a2 46       		.byte	0x46
 2895 16a3 8F000000 		.4byte	0x8f
 2896 16a7 76       		.byte	0x76
 2897 16a8 09       		.uleb128 0x9
 2898 16a9 220E0000 		.4byte	.LASF233
 2899 16ad 0A       		.byte	0xa
 2900 16ae 46       		.byte	0x46
 2901 16af 8F000000 		.4byte	0x8f
 2902 16b3 78       		.byte	0x78
 2903 16b4 09       		.uleb128 0x9
 2904 16b5 A90E0000 		.4byte	.LASF234
 2905 16b9 0A       		.byte	0xa
 2906 16ba 46       		.byte	0x46
 2907 16bb D6000000 		.4byte	0xd6
 2908 16bf 7C       		.byte	0x7c
 2909 16c0 09       		.uleb128 0x9
 2910 16c1 B50C0000 		.4byte	.LASF235
 2911 16c5 0A       		.byte	0xa
 2912 16c6 46       		.byte	0x46
 2913 16c7 380C0000 		.4byte	0xc38
 2914 16cb 84       		.byte	0x84
 2915 16cc 16       		.uleb128 0x16
 2916 16cd 6B050000 		.4byte	.LASF293
 2917 16d1 0A       		.byte	0xa
 2918 16d2 47       		.byte	0x47
 2919 16d3 84000000 		.4byte	0x84
 2920 16d7 F801     		.2byte	0x1f8
 2921 16d9 16       		.uleb128 0x16
 2922 16da A6060000 		.4byte	.LASF294
 2923 16de 0A       		.byte	0xa
 2924 16df 48       		.byte	0x48
 2925 16e0 E7160000 		.4byte	0x16e7
 2926 16e4 F901     		.2byte	0x1f9
 2927 16e6 00       		.byte	0
 2928 16e7 05       		.uleb128 0x5
 2929 16e8 84000000 		.4byte	0x84
 2930 16ec F7160000 		.4byte	0x16f7
 2931 16f0 06       		.uleb128 0x6
ARM GAS  C:\Users\AHMED~1.ELE\AppData\Local\Temp\ccCpkcmf.s 			page 54


 2932 16f1 6B000000 		.4byte	0x6b
 2933 16f5 45       		.byte	0x45
 2934 16f6 00       		.byte	0
 2935 16f7 11       		.uleb128 0x11
 2936 16f8 3A080000 		.4byte	.LASF295
 2937 16fc 4807     		.2byte	0x748
 2938 16fe 0A       		.byte	0xa
 2939 16ff 4E       		.byte	0x4e
 2940 1700 2B170000 		.4byte	0x172b
 2941 1704 09       		.uleb128 0x9
 2942 1705 A9030000 		.4byte	.LASF296
 2943 1709 0A       		.byte	0xa
 2944 170a 4F       		.byte	0x4f
 2945 170b E5120000 		.4byte	0x12e5
 2946 170f 00       		.byte	0
 2947 1710 16       		.uleb128 0x16
 2948 1711 A5090000 		.4byte	.LASF297
 2949 1715 0A       		.byte	0xa
 2950 1716 50       		.byte	0x50
 2951 1717 55140000 		.4byte	0x1455
 2952 171b 0003     		.2byte	0x300
 2953 171d 16       		.uleb128 0x16
 2954 171e 5E0D0000 		.4byte	.LASF298
 2955 1722 0A       		.byte	0xa
 2956 1723 51       		.byte	0x51
 2957 1724 AB150000 		.4byte	0x15ab
 2958 1728 0805     		.2byte	0x508
 2959 172a 00       		.byte	0
 2960 172b 18       		.uleb128 0x18
 2961 172c AF0E0000 		.4byte	.LASF312
 2962 1730 01       		.byte	0x1
 2963 1731 3C       		.byte	0x3c
 2964 1732 9A000000 		.4byte	0x9a
 2965 1736 00000000 		.4byte	.LFB0
 2966 173a 6C000000 		.4byte	.LFE0-.LFB0
 2967 173e 01       		.uleb128 0x1
 2968 173f 9C       		.byte	0x9c
 2969 1740 E5170000 		.4byte	0x17e5
 2970 1744 19       		.uleb128 0x19
 2971 1745 DF000000 		.4byte	.LASF313
 2972 1749 01       		.byte	0x1
 2973 174a 3C       		.byte	0x3c
 2974 174b 9A000000 		.4byte	0x9a
 2975 174f 00000000 		.4byte	.LLST0
 2976 1753 1A       		.uleb128 0x1a
 2977 1754 10000000 		.4byte	.LVL2
 2978 1758 01180000 		.4byte	0x1801
 2979 175c 66170000 		.4byte	0x1766
 2980 1760 1B       		.uleb128 0x1b
 2981 1761 01       		.uleb128 0x1
 2982 1762 50       		.byte	0x50
 2983 1763 01       		.uleb128 0x1
 2984 1764 30       		.byte	0x30
 2985 1765 00       		.byte	0
 2986 1766 1C       		.uleb128 0x1c
 2987 1767 14000000 		.4byte	.LVL3
 2988 176b 12180000 		.4byte	0x1812
ARM GAS  C:\Users\AHMED~1.ELE\AppData\Local\Temp\ccCpkcmf.s 			page 55


 2989 176f 1C       		.uleb128 0x1c
 2990 1770 18000000 		.4byte	.LVL4
 2991 1774 19180000 		.4byte	0x1819
 2992 1778 1A       		.uleb128 0x1a
 2993 1779 1E000000 		.4byte	.LVL5
 2994 177d 20180000 		.4byte	0x1820
 2995 1781 8C170000 		.4byte	0x178c
 2996 1785 1B       		.uleb128 0x1b
 2997 1786 01       		.uleb128 0x1
 2998 1787 50       		.byte	0x50
 2999 1788 02       		.uleb128 0x2
 3000 1789 75       		.byte	0x75
 3001 178a 00       		.sleb128 0
 3002 178b 00       		.byte	0
 3003 178c 1A       		.uleb128 0x1a
 3004 178d 26000000 		.4byte	.LVL6
 3005 1791 35180000 		.4byte	0x1835
 3006 1795 9F170000 		.4byte	0x179f
 3007 1799 1B       		.uleb128 0x1b
 3008 179a 01       		.uleb128 0x1
 3009 179b 50       		.byte	0x50
 3010 179c 01       		.uleb128 0x1
 3011 179d 30       		.byte	0x30
 3012 179e 00       		.byte	0
 3013 179f 1C       		.uleb128 0x1c
 3014 17a0 2E000000 		.4byte	.LVL8
 3015 17a4 46180000 		.4byte	0x1846
 3016 17a8 1C       		.uleb128 0x1c
 3017 17a9 3E000000 		.4byte	.LVL9
 3018 17ad 01180000 		.4byte	0x1801
 3019 17b1 1C       		.uleb128 0x1c
 3020 17b2 4C000000 		.4byte	.LVL10
 3021 17b6 51180000 		.4byte	0x1851
 3022 17ba 1C       		.uleb128 0x1c
 3023 17bb 50000000 		.4byte	.LVL11
 3024 17bf 58180000 		.4byte	0x1858
 3025 17c3 1C       		.uleb128 0x1c
 3026 17c4 54000000 		.4byte	.LVL12
 3027 17c8 5F180000 		.4byte	0x185f
 3028 17cc 1C       		.uleb128 0x1c
 3029 17cd 58000000 		.4byte	.LVL13
 3030 17d1 66180000 		.4byte	0x1866
 3031 17d5 1D       		.uleb128 0x1d
 3032 17d6 5E000000 		.4byte	.LVL14
 3033 17da 6D180000 		.4byte	0x186d
 3034 17de 1B       		.uleb128 0x1b
 3035 17df 01       		.uleb128 0x1
 3036 17e0 50       		.byte	0x50
 3037 17e1 01       		.uleb128 0x1
 3038 17e2 31       		.byte	0x31
 3039 17e3 00       		.byte	0
 3040 17e4 00       		.byte	0
 3041 17e5 1E       		.uleb128 0x1e
 3042 17e6 F20A0000 		.4byte	.LASF299
 3043 17ea 09       		.byte	0x9
 3044 17eb B9       		.byte	0xb9
 3045 17ec F0170000 		.4byte	0x17f0
ARM GAS  C:\Users\AHMED~1.ELE\AppData\Local\Temp\ccCpkcmf.s 			page 56


 3046 17f0 07       		.uleb128 0x7
 3047 17f1 04       		.byte	0x4
 3048 17f2 B3110000 		.4byte	0x11b3
 3049 17f6 1E       		.uleb128 0x1e
 3050 17f7 EA0B0000 		.4byte	.LASF300
 3051 17fb 0A       		.byte	0xa
 3052 17fc 53       		.byte	0x53
 3053 17fd F7160000 		.4byte	0x16f7
 3054 1801 1F       		.uleb128 0x1f
 3055 1802 E7060000 		.4byte	.LASF303
 3056 1806 0A       		.byte	0xa
 3057 1807 60       		.byte	0x60
 3058 1808 12180000 		.4byte	0x1812
 3059 180c 20       		.uleb128 0x20
 3060 180d C0000000 		.4byte	0xc0
 3061 1811 00       		.byte	0
 3062 1812 21       		.uleb128 0x21
 3063 1813 45080000 		.4byte	.LASF301
 3064 1817 0A       		.byte	0xa
 3065 1818 71       		.byte	0x71
 3066 1819 21       		.uleb128 0x21
 3067 181a A4070000 		.4byte	.LASF302
 3068 181e 0A       		.byte	0xa
 3069 181f 76       		.byte	0x76
 3070 1820 22       		.uleb128 0x22
 3071 1821 DC020000 		.4byte	.LASF314
 3072 1825 0A       		.byte	0xa
 3073 1826 64       		.byte	0x64
 3074 1827 79000000 		.4byte	0x79
 3075 182b 35180000 		.4byte	0x1835
 3076 182f 20       		.uleb128 0x20
 3077 1830 9A000000 		.4byte	0x9a
 3078 1834 00       		.byte	0
 3079 1835 1F       		.uleb128 0x1f
 3080 1836 360A0000 		.4byte	.LASF304
 3081 183a 09       		.byte	0x9
 3082 183b E7       		.byte	0xe7
 3083 183c 46180000 		.4byte	0x1846
 3084 1840 20       		.uleb128 0x20
 3085 1841 9A000000 		.4byte	0x9a
 3086 1845 00       		.byte	0
 3087 1846 23       		.uleb128 0x23
 3088 1847 DC0E0000 		.4byte	.LASF315
 3089 184b 0D       		.byte	0xd
 3090 184c 34       		.byte	0x34
 3091 184d 79000000 		.4byte	0x79
 3092 1851 21       		.uleb128 0x21
 3093 1852 CB090000 		.4byte	.LASF305
 3094 1856 0A       		.byte	0xa
 3095 1857 72       		.byte	0x72
 3096 1858 21       		.uleb128 0x21
 3097 1859 9C060000 		.4byte	.LASF306
 3098 185d 0A       		.byte	0xa
 3099 185e 5D       		.byte	0x5d
 3100 185f 21       		.uleb128 0x21
 3101 1860 8C0E0000 		.4byte	.LASF307
 3102 1864 0B       		.byte	0xb
ARM GAS  C:\Users\AHMED~1.ELE\AppData\Local\Temp\ccCpkcmf.s 			page 57


 3103 1865 2F       		.byte	0x2f
 3104 1866 21       		.uleb128 0x21
 3105 1867 26040000 		.4byte	.LASF308
 3106 186b 0A       		.byte	0xa
 3107 186c 5F       		.byte	0x5f
 3108 186d 24       		.uleb128 0x24
 3109 186e 06070000 		.4byte	.LASF316
 3110 1872 0A       		.byte	0xa
 3111 1873 68       		.byte	0x68
 3112 1874 20       		.uleb128 0x20
 3113 1875 79000000 		.4byte	0x79
 3114 1879 00       		.byte	0
 3115 187a 00       		.byte	0
 3116              		.section	.debug_abbrev,"",%progbits
 3117              	.Ldebug_abbrev0:
 3118 0000 01       		.uleb128 0x1
 3119 0001 11       		.uleb128 0x11
 3120 0002 01       		.byte	0x1
 3121 0003 25       		.uleb128 0x25
 3122 0004 0E       		.uleb128 0xe
 3123 0005 13       		.uleb128 0x13
 3124 0006 0B       		.uleb128 0xb
 3125 0007 03       		.uleb128 0x3
 3126 0008 0E       		.uleb128 0xe
 3127 0009 1B       		.uleb128 0x1b
 3128 000a 0E       		.uleb128 0xe
 3129 000b 55       		.uleb128 0x55
 3130 000c 17       		.uleb128 0x17
 3131 000d 11       		.uleb128 0x11
 3132 000e 01       		.uleb128 0x1
 3133 000f 10       		.uleb128 0x10
 3134 0010 17       		.uleb128 0x17
 3135 0011 00       		.byte	0
 3136 0012 00       		.byte	0
 3137 0013 02       		.uleb128 0x2
 3138 0014 24       		.uleb128 0x24
 3139 0015 00       		.byte	0
 3140 0016 0B       		.uleb128 0xb
 3141 0017 0B       		.uleb128 0xb
 3142 0018 3E       		.uleb128 0x3e
 3143 0019 0B       		.uleb128 0xb
 3144 001a 03       		.uleb128 0x3
 3145 001b 08       		.uleb128 0x8
 3146 001c 00       		.byte	0
 3147 001d 00       		.byte	0
 3148 001e 03       		.uleb128 0x3
 3149 001f 24       		.uleb128 0x24
 3150 0020 00       		.byte	0
 3151 0021 0B       		.uleb128 0xb
 3152 0022 0B       		.uleb128 0xb
 3153 0023 3E       		.uleb128 0x3e
 3154 0024 0B       		.uleb128 0xb
 3155 0025 03       		.uleb128 0x3
 3156 0026 0E       		.uleb128 0xe
 3157 0027 00       		.byte	0
 3158 0028 00       		.byte	0
 3159 0029 04       		.uleb128 0x4
ARM GAS  C:\Users\AHMED~1.ELE\AppData\Local\Temp\ccCpkcmf.s 			page 58


 3160 002a 16       		.uleb128 0x16
 3161 002b 00       		.byte	0
 3162 002c 03       		.uleb128 0x3
 3163 002d 0E       		.uleb128 0xe
 3164 002e 3A       		.uleb128 0x3a
 3165 002f 0B       		.uleb128 0xb
 3166 0030 3B       		.uleb128 0x3b
 3167 0031 0B       		.uleb128 0xb
 3168 0032 49       		.uleb128 0x49
 3169 0033 13       		.uleb128 0x13
 3170 0034 00       		.byte	0
 3171 0035 00       		.byte	0
 3172 0036 05       		.uleb128 0x5
 3173 0037 01       		.uleb128 0x1
 3174 0038 01       		.byte	0x1
 3175 0039 49       		.uleb128 0x49
 3176 003a 13       		.uleb128 0x13
 3177 003b 01       		.uleb128 0x1
 3178 003c 13       		.uleb128 0x13
 3179 003d 00       		.byte	0
 3180 003e 00       		.byte	0
 3181 003f 06       		.uleb128 0x6
 3182 0040 21       		.uleb128 0x21
 3183 0041 00       		.byte	0
 3184 0042 49       		.uleb128 0x49
 3185 0043 13       		.uleb128 0x13
 3186 0044 2F       		.uleb128 0x2f
 3187 0045 0B       		.uleb128 0xb
 3188 0046 00       		.byte	0
 3189 0047 00       		.byte	0
 3190 0048 07       		.uleb128 0x7
 3191 0049 0F       		.uleb128 0xf
 3192 004a 00       		.byte	0
 3193 004b 0B       		.uleb128 0xb
 3194 004c 0B       		.uleb128 0xb
 3195 004d 49       		.uleb128 0x49
 3196 004e 13       		.uleb128 0x13
 3197 004f 00       		.byte	0
 3198 0050 00       		.byte	0
 3199 0051 08       		.uleb128 0x8
 3200 0052 13       		.uleb128 0x13
 3201 0053 01       		.byte	0x1
 3202 0054 03       		.uleb128 0x3
 3203 0055 0E       		.uleb128 0xe
 3204 0056 0B       		.uleb128 0xb
 3205 0057 0B       		.uleb128 0xb
 3206 0058 3A       		.uleb128 0x3a
 3207 0059 0B       		.uleb128 0xb
 3208 005a 3B       		.uleb128 0x3b
 3209 005b 0B       		.uleb128 0xb
 3210 005c 01       		.uleb128 0x1
 3211 005d 13       		.uleb128 0x13
 3212 005e 00       		.byte	0
 3213 005f 00       		.byte	0
 3214 0060 09       		.uleb128 0x9
 3215 0061 0D       		.uleb128 0xd
 3216 0062 00       		.byte	0
ARM GAS  C:\Users\AHMED~1.ELE\AppData\Local\Temp\ccCpkcmf.s 			page 59


 3217 0063 03       		.uleb128 0x3
 3218 0064 0E       		.uleb128 0xe
 3219 0065 3A       		.uleb128 0x3a
 3220 0066 0B       		.uleb128 0xb
 3221 0067 3B       		.uleb128 0x3b
 3222 0068 0B       		.uleb128 0xb
 3223 0069 49       		.uleb128 0x49
 3224 006a 13       		.uleb128 0x13
 3225 006b 38       		.uleb128 0x38
 3226 006c 0B       		.uleb128 0xb
 3227 006d 00       		.byte	0
 3228 006e 00       		.byte	0
 3229 006f 0A       		.uleb128 0xa
 3230 0070 04       		.uleb128 0x4
 3231 0071 01       		.byte	0x1
 3232 0072 0B       		.uleb128 0xb
 3233 0073 0B       		.uleb128 0xb
 3234 0074 3A       		.uleb128 0x3a
 3235 0075 0B       		.uleb128 0xb
 3236 0076 3B       		.uleb128 0x3b
 3237 0077 0B       		.uleb128 0xb
 3238 0078 01       		.uleb128 0x1
 3239 0079 13       		.uleb128 0x13
 3240 007a 00       		.byte	0
 3241 007b 00       		.byte	0
 3242 007c 0B       		.uleb128 0xb
 3243 007d 28       		.uleb128 0x28
 3244 007e 00       		.byte	0
 3245 007f 03       		.uleb128 0x3
 3246 0080 0E       		.uleb128 0xe
 3247 0081 1C       		.uleb128 0x1c
 3248 0082 0D       		.uleb128 0xd
 3249 0083 00       		.byte	0
 3250 0084 00       		.byte	0
 3251 0085 0C       		.uleb128 0xc
 3252 0086 13       		.uleb128 0x13
 3253 0087 01       		.byte	0x1
 3254 0088 0B       		.uleb128 0xb
 3255 0089 0B       		.uleb128 0xb
 3256 008a 3A       		.uleb128 0x3a
 3257 008b 0B       		.uleb128 0xb
 3258 008c 3B       		.uleb128 0x3b
 3259 008d 0B       		.uleb128 0xb
 3260 008e 01       		.uleb128 0x1
 3261 008f 13       		.uleb128 0x13
 3262 0090 00       		.byte	0
 3263 0091 00       		.byte	0
 3264 0092 0D       		.uleb128 0xd
 3265 0093 16       		.uleb128 0x16
 3266 0094 00       		.byte	0
 3267 0095 03       		.uleb128 0x3
 3268 0096 08       		.uleb128 0x8
 3269 0097 3A       		.uleb128 0x3a
 3270 0098 0B       		.uleb128 0xb
 3271 0099 3B       		.uleb128 0x3b
 3272 009a 0B       		.uleb128 0xb
 3273 009b 49       		.uleb128 0x49
ARM GAS  C:\Users\AHMED~1.ELE\AppData\Local\Temp\ccCpkcmf.s 			page 60


 3274 009c 13       		.uleb128 0x13
 3275 009d 00       		.byte	0
 3276 009e 00       		.byte	0
 3277 009f 0E       		.uleb128 0xe
 3278 00a0 13       		.uleb128 0x13
 3279 00a1 01       		.byte	0x1
 3280 00a2 0B       		.uleb128 0xb
 3281 00a3 0B       		.uleb128 0xb
 3282 00a4 3A       		.uleb128 0x3a
 3283 00a5 0B       		.uleb128 0xb
 3284 00a6 3B       		.uleb128 0x3b
 3285 00a7 05       		.uleb128 0x5
 3286 00a8 01       		.uleb128 0x1
 3287 00a9 13       		.uleb128 0x13
 3288 00aa 00       		.byte	0
 3289 00ab 00       		.byte	0
 3290 00ac 0F       		.uleb128 0xf
 3291 00ad 0D       		.uleb128 0xd
 3292 00ae 00       		.byte	0
 3293 00af 03       		.uleb128 0x3
 3294 00b0 0E       		.uleb128 0xe
 3295 00b1 3A       		.uleb128 0x3a
 3296 00b2 0B       		.uleb128 0xb
 3297 00b3 3B       		.uleb128 0x3b
 3298 00b4 05       		.uleb128 0x5
 3299 00b5 49       		.uleb128 0x49
 3300 00b6 13       		.uleb128 0x13
 3301 00b7 38       		.uleb128 0x38
 3302 00b8 0B       		.uleb128 0xb
 3303 00b9 00       		.byte	0
 3304 00ba 00       		.byte	0
 3305 00bb 10       		.uleb128 0x10
 3306 00bc 16       		.uleb128 0x16
 3307 00bd 00       		.byte	0
 3308 00be 03       		.uleb128 0x3
 3309 00bf 0E       		.uleb128 0xe
 3310 00c0 3A       		.uleb128 0x3a
 3311 00c1 0B       		.uleb128 0xb
 3312 00c2 3B       		.uleb128 0x3b
 3313 00c3 05       		.uleb128 0x5
 3314 00c4 49       		.uleb128 0x49
 3315 00c5 13       		.uleb128 0x13
 3316 00c6 00       		.byte	0
 3317 00c7 00       		.byte	0
 3318 00c8 11       		.uleb128 0x11
 3319 00c9 13       		.uleb128 0x13
 3320 00ca 01       		.byte	0x1
 3321 00cb 03       		.uleb128 0x3
 3322 00cc 0E       		.uleb128 0xe
 3323 00cd 0B       		.uleb128 0xb
 3324 00ce 05       		.uleb128 0x5
 3325 00cf 3A       		.uleb128 0x3a
 3326 00d0 0B       		.uleb128 0xb
 3327 00d1 3B       		.uleb128 0x3b
 3328 00d2 0B       		.uleb128 0xb
 3329 00d3 01       		.uleb128 0x1
 3330 00d4 13       		.uleb128 0x13
ARM GAS  C:\Users\AHMED~1.ELE\AppData\Local\Temp\ccCpkcmf.s 			page 61


 3331 00d5 00       		.byte	0
 3332 00d6 00       		.byte	0
 3333 00d7 12       		.uleb128 0x12
 3334 00d8 21       		.uleb128 0x21
 3335 00d9 00       		.byte	0
 3336 00da 49       		.uleb128 0x49
 3337 00db 13       		.uleb128 0x13
 3338 00dc 2F       		.uleb128 0x2f
 3339 00dd 05       		.uleb128 0x5
 3340 00de 00       		.byte	0
 3341 00df 00       		.byte	0
 3342 00e0 13       		.uleb128 0x13
 3343 00e1 13       		.uleb128 0x13
 3344 00e2 01       		.byte	0x1
 3345 00e3 03       		.uleb128 0x3
 3346 00e4 0E       		.uleb128 0xe
 3347 00e5 0B       		.uleb128 0xb
 3348 00e6 0B       		.uleb128 0xb
 3349 00e7 3A       		.uleb128 0x3a
 3350 00e8 0B       		.uleb128 0xb
 3351 00e9 3B       		.uleb128 0x3b
 3352 00ea 05       		.uleb128 0x5
 3353 00eb 01       		.uleb128 0x1
 3354 00ec 13       		.uleb128 0x13
 3355 00ed 00       		.byte	0
 3356 00ee 00       		.byte	0
 3357 00ef 14       		.uleb128 0x14
 3358 00f0 13       		.uleb128 0x13
 3359 00f1 01       		.byte	0x1
 3360 00f2 03       		.uleb128 0x3
 3361 00f3 0E       		.uleb128 0xe
 3362 00f4 0B       		.uleb128 0xb
 3363 00f5 05       		.uleb128 0x5
 3364 00f6 3A       		.uleb128 0x3a
 3365 00f7 0B       		.uleb128 0xb
 3366 00f8 3B       		.uleb128 0x3b
 3367 00f9 05       		.uleb128 0x5
 3368 00fa 01       		.uleb128 0x1
 3369 00fb 13       		.uleb128 0x13
 3370 00fc 00       		.byte	0
 3371 00fd 00       		.byte	0
 3372 00fe 15       		.uleb128 0x15
 3373 00ff 0D       		.uleb128 0xd
 3374 0100 00       		.byte	0
 3375 0101 03       		.uleb128 0x3
 3376 0102 0E       		.uleb128 0xe
 3377 0103 3A       		.uleb128 0x3a
 3378 0104 0B       		.uleb128 0xb
 3379 0105 3B       		.uleb128 0x3b
 3380 0106 05       		.uleb128 0x5
 3381 0107 49       		.uleb128 0x49
 3382 0108 13       		.uleb128 0x13
 3383 0109 38       		.uleb128 0x38
 3384 010a 05       		.uleb128 0x5
 3385 010b 00       		.byte	0
 3386 010c 00       		.byte	0
 3387 010d 16       		.uleb128 0x16
ARM GAS  C:\Users\AHMED~1.ELE\AppData\Local\Temp\ccCpkcmf.s 			page 62


 3388 010e 0D       		.uleb128 0xd
 3389 010f 00       		.byte	0
 3390 0110 03       		.uleb128 0x3
 3391 0111 0E       		.uleb128 0xe
 3392 0112 3A       		.uleb128 0x3a
 3393 0113 0B       		.uleb128 0xb
 3394 0114 3B       		.uleb128 0x3b
 3395 0115 0B       		.uleb128 0xb
 3396 0116 49       		.uleb128 0x49
 3397 0117 13       		.uleb128 0x13
 3398 0118 38       		.uleb128 0x38
 3399 0119 05       		.uleb128 0x5
 3400 011a 00       		.byte	0
 3401 011b 00       		.byte	0
 3402 011c 17       		.uleb128 0x17
 3403 011d 13       		.uleb128 0x13
 3404 011e 01       		.byte	0x1
 3405 011f 03       		.uleb128 0x3
 3406 0120 08       		.uleb128 0x8
 3407 0121 0B       		.uleb128 0xb
 3408 0122 05       		.uleb128 0x5
 3409 0123 3A       		.uleb128 0x3a
 3410 0124 0B       		.uleb128 0xb
 3411 0125 3B       		.uleb128 0x3b
 3412 0126 0B       		.uleb128 0xb
 3413 0127 01       		.uleb128 0x1
 3414 0128 13       		.uleb128 0x13
 3415 0129 00       		.byte	0
 3416 012a 00       		.byte	0
 3417 012b 18       		.uleb128 0x18
 3418 012c 2E       		.uleb128 0x2e
 3419 012d 01       		.byte	0x1
 3420 012e 3F       		.uleb128 0x3f
 3421 012f 19       		.uleb128 0x19
 3422 0130 03       		.uleb128 0x3
 3423 0131 0E       		.uleb128 0xe
 3424 0132 3A       		.uleb128 0x3a
 3425 0133 0B       		.uleb128 0xb
 3426 0134 3B       		.uleb128 0x3b
 3427 0135 0B       		.uleb128 0xb
 3428 0136 27       		.uleb128 0x27
 3429 0137 19       		.uleb128 0x19
 3430 0138 49       		.uleb128 0x49
 3431 0139 13       		.uleb128 0x13
 3432 013a 11       		.uleb128 0x11
 3433 013b 01       		.uleb128 0x1
 3434 013c 12       		.uleb128 0x12
 3435 013d 06       		.uleb128 0x6
 3436 013e 40       		.uleb128 0x40
 3437 013f 18       		.uleb128 0x18
 3438 0140 9742     		.uleb128 0x2117
 3439 0142 19       		.uleb128 0x19
 3440 0143 01       		.uleb128 0x1
 3441 0144 13       		.uleb128 0x13
 3442 0145 00       		.byte	0
 3443 0146 00       		.byte	0
 3444 0147 19       		.uleb128 0x19
ARM GAS  C:\Users\AHMED~1.ELE\AppData\Local\Temp\ccCpkcmf.s 			page 63


 3445 0148 05       		.uleb128 0x5
 3446 0149 00       		.byte	0
 3447 014a 03       		.uleb128 0x3
 3448 014b 0E       		.uleb128 0xe
 3449 014c 3A       		.uleb128 0x3a
 3450 014d 0B       		.uleb128 0xb
 3451 014e 3B       		.uleb128 0x3b
 3452 014f 0B       		.uleb128 0xb
 3453 0150 49       		.uleb128 0x49
 3454 0151 13       		.uleb128 0x13
 3455 0152 02       		.uleb128 0x2
 3456 0153 17       		.uleb128 0x17
 3457 0154 00       		.byte	0
 3458 0155 00       		.byte	0
 3459 0156 1A       		.uleb128 0x1a
 3460 0157 898201   		.uleb128 0x4109
 3461 015a 01       		.byte	0x1
 3462 015b 11       		.uleb128 0x11
 3463 015c 01       		.uleb128 0x1
 3464 015d 31       		.uleb128 0x31
 3465 015e 13       		.uleb128 0x13
 3466 015f 01       		.uleb128 0x1
 3467 0160 13       		.uleb128 0x13
 3468 0161 00       		.byte	0
 3469 0162 00       		.byte	0
 3470 0163 1B       		.uleb128 0x1b
 3471 0164 8A8201   		.uleb128 0x410a
 3472 0167 00       		.byte	0
 3473 0168 02       		.uleb128 0x2
 3474 0169 18       		.uleb128 0x18
 3475 016a 9142     		.uleb128 0x2111
 3476 016c 18       		.uleb128 0x18
 3477 016d 00       		.byte	0
 3478 016e 00       		.byte	0
 3479 016f 1C       		.uleb128 0x1c
 3480 0170 898201   		.uleb128 0x4109
 3481 0173 00       		.byte	0
 3482 0174 11       		.uleb128 0x11
 3483 0175 01       		.uleb128 0x1
 3484 0176 31       		.uleb128 0x31
 3485 0177 13       		.uleb128 0x13
 3486 0178 00       		.byte	0
 3487 0179 00       		.byte	0
 3488 017a 1D       		.uleb128 0x1d
 3489 017b 898201   		.uleb128 0x4109
 3490 017e 01       		.byte	0x1
 3491 017f 11       		.uleb128 0x11
 3492 0180 01       		.uleb128 0x1
 3493 0181 31       		.uleb128 0x31
 3494 0182 13       		.uleb128 0x13
 3495 0183 00       		.byte	0
 3496 0184 00       		.byte	0
 3497 0185 1E       		.uleb128 0x1e
 3498 0186 34       		.uleb128 0x34
 3499 0187 00       		.byte	0
 3500 0188 03       		.uleb128 0x3
 3501 0189 0E       		.uleb128 0xe
ARM GAS  C:\Users\AHMED~1.ELE\AppData\Local\Temp\ccCpkcmf.s 			page 64


 3502 018a 3A       		.uleb128 0x3a
 3503 018b 0B       		.uleb128 0xb
 3504 018c 3B       		.uleb128 0x3b
 3505 018d 0B       		.uleb128 0xb
 3506 018e 49       		.uleb128 0x49
 3507 018f 13       		.uleb128 0x13
 3508 0190 3F       		.uleb128 0x3f
 3509 0191 19       		.uleb128 0x19
 3510 0192 3C       		.uleb128 0x3c
 3511 0193 19       		.uleb128 0x19
 3512 0194 00       		.byte	0
 3513 0195 00       		.byte	0
 3514 0196 1F       		.uleb128 0x1f
 3515 0197 2E       		.uleb128 0x2e
 3516 0198 01       		.byte	0x1
 3517 0199 3F       		.uleb128 0x3f
 3518 019a 19       		.uleb128 0x19
 3519 019b 03       		.uleb128 0x3
 3520 019c 0E       		.uleb128 0xe
 3521 019d 3A       		.uleb128 0x3a
 3522 019e 0B       		.uleb128 0xb
 3523 019f 3B       		.uleb128 0x3b
 3524 01a0 0B       		.uleb128 0xb
 3525 01a1 27       		.uleb128 0x27
 3526 01a2 19       		.uleb128 0x19
 3527 01a3 3C       		.uleb128 0x3c
 3528 01a4 19       		.uleb128 0x19
 3529 01a5 01       		.uleb128 0x1
 3530 01a6 13       		.uleb128 0x13
 3531 01a7 00       		.byte	0
 3532 01a8 00       		.byte	0
 3533 01a9 20       		.uleb128 0x20
 3534 01aa 05       		.uleb128 0x5
 3535 01ab 00       		.byte	0
 3536 01ac 49       		.uleb128 0x49
 3537 01ad 13       		.uleb128 0x13
 3538 01ae 00       		.byte	0
 3539 01af 00       		.byte	0
 3540 01b0 21       		.uleb128 0x21
 3541 01b1 2E       		.uleb128 0x2e
 3542 01b2 00       		.byte	0
 3543 01b3 3F       		.uleb128 0x3f
 3544 01b4 19       		.uleb128 0x19
 3545 01b5 03       		.uleb128 0x3
 3546 01b6 0E       		.uleb128 0xe
 3547 01b7 3A       		.uleb128 0x3a
 3548 01b8 0B       		.uleb128 0xb
 3549 01b9 3B       		.uleb128 0x3b
 3550 01ba 0B       		.uleb128 0xb
 3551 01bb 27       		.uleb128 0x27
 3552 01bc 19       		.uleb128 0x19
 3553 01bd 3C       		.uleb128 0x3c
 3554 01be 19       		.uleb128 0x19
 3555 01bf 00       		.byte	0
 3556 01c0 00       		.byte	0
 3557 01c1 22       		.uleb128 0x22
 3558 01c2 2E       		.uleb128 0x2e
ARM GAS  C:\Users\AHMED~1.ELE\AppData\Local\Temp\ccCpkcmf.s 			page 65


 3559 01c3 01       		.byte	0x1
 3560 01c4 3F       		.uleb128 0x3f
 3561 01c5 19       		.uleb128 0x19
 3562 01c6 03       		.uleb128 0x3
 3563 01c7 0E       		.uleb128 0xe
 3564 01c8 3A       		.uleb128 0x3a
 3565 01c9 0B       		.uleb128 0xb
 3566 01ca 3B       		.uleb128 0x3b
 3567 01cb 0B       		.uleb128 0xb
 3568 01cc 27       		.uleb128 0x27
 3569 01cd 19       		.uleb128 0x19
 3570 01ce 49       		.uleb128 0x49
 3571 01cf 13       		.uleb128 0x13
 3572 01d0 3C       		.uleb128 0x3c
 3573 01d1 19       		.uleb128 0x19
 3574 01d2 01       		.uleb128 0x1
 3575 01d3 13       		.uleb128 0x13
 3576 01d4 00       		.byte	0
 3577 01d5 00       		.byte	0
 3578 01d6 23       		.uleb128 0x23
 3579 01d7 2E       		.uleb128 0x2e
 3580 01d8 00       		.byte	0
 3581 01d9 3F       		.uleb128 0x3f
 3582 01da 19       		.uleb128 0x19
 3583 01db 03       		.uleb128 0x3
 3584 01dc 0E       		.uleb128 0xe
 3585 01dd 3A       		.uleb128 0x3a
 3586 01de 0B       		.uleb128 0xb
 3587 01df 3B       		.uleb128 0x3b
 3588 01e0 0B       		.uleb128 0xb
 3589 01e1 27       		.uleb128 0x27
 3590 01e2 19       		.uleb128 0x19
 3591 01e3 49       		.uleb128 0x49
 3592 01e4 13       		.uleb128 0x13
 3593 01e5 3C       		.uleb128 0x3c
 3594 01e6 19       		.uleb128 0x19
 3595 01e7 00       		.byte	0
 3596 01e8 00       		.byte	0
 3597 01e9 24       		.uleb128 0x24
 3598 01ea 2E       		.uleb128 0x2e
 3599 01eb 01       		.byte	0x1
 3600 01ec 3F       		.uleb128 0x3f
 3601 01ed 19       		.uleb128 0x19
 3602 01ee 03       		.uleb128 0x3
 3603 01ef 0E       		.uleb128 0xe
 3604 01f0 3A       		.uleb128 0x3a
 3605 01f1 0B       		.uleb128 0xb
 3606 01f2 3B       		.uleb128 0x3b
 3607 01f3 0B       		.uleb128 0xb
 3608 01f4 27       		.uleb128 0x27
 3609 01f5 19       		.uleb128 0x19
 3610 01f6 3C       		.uleb128 0x3c
 3611 01f7 19       		.uleb128 0x19
 3612 01f8 00       		.byte	0
 3613 01f9 00       		.byte	0
 3614 01fa 00       		.byte	0
 3615              		.section	.debug_loc,"",%progbits
ARM GAS  C:\Users\AHMED~1.ELE\AppData\Local\Temp\ccCpkcmf.s 			page 66


 3616              	.Ldebug_loc0:
 3617              	.LLST0:
 3618 0000 00000000 		.4byte	.LVL0
 3619 0004 0A000000 		.4byte	.LVL1
 3620 0008 0100     		.2byte	0x1
 3621 000a 50       		.byte	0x50
 3622 000b 0A000000 		.4byte	.LVL1
 3623 000f 62000000 		.4byte	.LVL15
 3624 0013 0100     		.2byte	0x1
 3625 0015 55       		.byte	0x55
 3626 0016 62000000 		.4byte	.LVL15
 3627 001a 6C000000 		.4byte	.LFE0
 3628 001e 0400     		.2byte	0x4
 3629 0020 F3       		.byte	0xf3
 3630 0021 01       		.uleb128 0x1
 3631 0022 50       		.byte	0x50
 3632 0023 9F       		.byte	0x9f
 3633 0024 00000000 		.4byte	0
 3634 0028 00000000 		.4byte	0
 3635              		.section	.debug_aranges,"",%progbits
 3636 0000 1C000000 		.4byte	0x1c
 3637 0004 0200     		.2byte	0x2
 3638 0006 00000000 		.4byte	.Ldebug_info0
 3639 000a 04       		.byte	0x4
 3640 000b 00       		.byte	0
 3641 000c 0000     		.2byte	0
 3642 000e 0000     		.2byte	0
 3643 0010 00000000 		.4byte	.LFB0
 3644 0014 6C000000 		.4byte	.LFE0-.LFB0
 3645 0018 00000000 		.4byte	0
 3646 001c 00000000 		.4byte	0
 3647              		.section	.debug_ranges,"",%progbits
 3648              	.Ldebug_ranges0:
 3649 0000 00000000 		.4byte	.LFB0
 3650 0004 6C000000 		.4byte	.LFE0
 3651 0008 00000000 		.4byte	0
 3652 000c 00000000 		.4byte	0
 3653              		.section	.debug_line,"",%progbits
 3654              	.Ldebug_line0:
 3655 0000 F4000000 		.section	.debug_str,"MS",%progbits,1
 3655      0200CA00 
 3655      00000201 
 3655      FB0E0D00 
 3655      01010101 
 3656              	.LASF92:
 3657 0000 775F6465 		.ascii	"w_debug_status\000"
 3657      6275675F 
 3657      73746174 
 3657      757300
 3658              	.LASF58:
 3659 000f 434C5F49 		.ascii	"CL_IO\000"
 3659      4F00
 3660              	.LASF175:
 3661 0015 73625F6E 		.ascii	"sb_name\000"
 3661      616D6500 
 3662              	.LASF285:
 3663 001d 775F6361 		.ascii	"w_card_idx\000"
ARM GAS  C:\Users\AHMED~1.ELE\AppData\Local\Temp\ccCpkcmf.s 			page 67


 3663      72645F69 
 3663      647800
 3664              	.LASF210:
 3665 0028 73625F74 		.ascii	"sb_tag_9b\000"
 3665      61675F39 
 3665      6200
 3666              	.LASF56:
 3667 0032 544C4953 		.ascii	"TLIST\000"
 3667      5400
 3668              	.LASF176:
 3669 0038 73625F70 		.ascii	"sb_pri_trans_tel\000"
 3669      72695F74 
 3669      72616E73 
 3669      5F74656C 
 3669      00
 3670              	.LASF125:
 3671 0049 625F696E 		.ascii	"b_init_fallback\000"
 3671      69745F66 
 3671      616C6C62 
 3671      61636B00 
 3672              	.LASF128:
 3673 0059 775F6372 		.ascii	"w_crc\000"
 3673      6300
 3674              	.LASF21:
 3675 005f 625F6D69 		.ascii	"b_minute\000"
 3675      6E757465 
 3675      00
 3676              	.LASF269:
 3677 0068 735F5478 		.ascii	"s_TxBuf\000"
 3677      42756600 
 3678              	.LASF173:
 3679 0070 41435155 		.ascii	"ACQUIRER_TBL\000"
 3679      49524552 
 3679      5F54424C 
 3679      00
 3680              	.LASF84:
 3681 007d 73625F72 		.ascii	"sb_roc_no\000"
 3681      6F635F6E 
 3681      6F00
 3682              	.LASF17:
 3683 0087 625F7965 		.ascii	"b_year\000"
 3683      617200
 3684              	.LASF181:
 3685 008e 625F7365 		.ascii	"b_sec_trans_redial\000"
 3685      635F7472 
 3685      616E735F 
 3685      72656469 
 3685      616C00
 3686              	.LASF222:
 3687 00a1 64645F74 		.ascii	"dd_tip\000"
 3687      697000
 3688              	.LASF257:
 3689 00a8 625F6D6D 		.ascii	"b_mm\000"
 3689      00
 3690              	.LASF114:
 3691 00ad 73625F70 		.ascii	"sb_ppp_user\000"
 3691      70705F75 
ARM GAS  C:\Users\AHMED~1.ELE\AppData\Local\Temp\ccCpkcmf.s 			page 68


 3691      73657200 
 3692              	.LASF12:
 3693 00b9 42595445 		.ascii	"BYTE\000"
 3693      00
 3694              	.LASF86:
 3695 00be 73625F70 		.ascii	"sb_port\000"
 3695      6F727400 
 3696              	.LASF61:
 3697 00c6 625F636C 		.ascii	"b_cla\000"
 3697      6100
 3698              	.LASF288:
 3699 00cc 54585F44 		.ascii	"TX_DATA\000"
 3699      41544100 
 3700              	.LASF174:
 3701 00d4 73625F70 		.ascii	"sb_program\000"
 3701      726F6772 
 3701      616D00
 3702              	.LASF313:
 3703 00df 61496E70 		.ascii	"aInputMode\000"
 3703      75744D6F 
 3703      646500
 3704              	.LASF36:
 3705 00ea 53455454 		.ascii	"SETTLEMENT\000"
 3705      4C454D45 
 3705      4E5400
 3706              	.LASF201:
 3707 00f5 44455343 		.ascii	"DESC_TBL\000"
 3707      5F54424C 
 3707      00
 3708              	.LASF122:
 3709 00fe 73625F63 		.ascii	"sb_checkin_sec_no\000"
 3709      6865636B 
 3709      696E5F73 
 3709      65635F6E 
 3709      6F00
 3710              	.LASF38:
 3711 0110 53414C45 		.ascii	"SALE_ICC\000"
 3711      5F494343 
 3711      00
 3712              	.LASF67:
 3713 0119 434F4D4D 		.ascii	"COMMBUF\000"
 3713      42554600 
 3714              	.LASF197:
 3715 0121 625F7265 		.ascii	"b_reserved1\000"
 3715      73657276 
 3715      65643100 
 3716              	.LASF309:
 3717 012d 474E5520 		.ascii	"GNU C 4.9.3 20141119 (release) [ARM/embedded-4_9-br"
 3717      4320342E 
 3717      392E3320 
 3717      32303134 
 3717      31313139 
 3718 0160 616E6368 		.ascii	"anch revision 218278] -mthumb -mcpu=cortex-a5 -mthu"
 3718      20726576 
 3718      6973696F 
 3718      6E203231 
 3718      38323738 
ARM GAS  C:\Users\AHMED~1.ELE\AppData\Local\Temp\ccCpkcmf.s 			page 69


 3719 0193 6D622D69 		.ascii	"mb-interwork -mstructure-size-boundary=32 -mno-unal"
 3719      6E746572 
 3719      776F726B 
 3719      202D6D73 
 3719      74727563 
 3720 01c6 69676E65 		.ascii	"igned-access -g -Os -ffunction-sections -fsigned-ch"
 3720      642D6163 
 3720      63657373 
 3720      202D6720 
 3720      2D4F7320 
 3721 01f9 617200   		.ascii	"ar\000"
 3722              	.LASF226:
 3723 01fc 73625F68 		.ascii	"sb_holder_name\000"
 3723      6F6C6465 
 3723      725F6E61 
 3723      6D6500
 3724              	.LASF24:
 3725 020b 41555448 		.ascii	"AUTH_MANUAL\000"
 3725      5F4D414E 
 3725      55414C00 
 3726              	.LASF189:
 3727 0217 73625F6E 		.ascii	"sb_nii\000"
 3727      696900
 3728              	.LASF168:
 3729 021e 73625F63 		.ascii	"sb_card_name\000"
 3729      6172645F 
 3729      6E616D65 
 3729      00
 3730              	.LASF238:
 3731 022b 625F7479 		.ascii	"b_type\000"
 3731      706500
 3732              	.LASF251:
 3733 0232 735F7465 		.ascii	"s_term_cfg\000"
 3733      726D5F63 
 3733      666700
 3734              	.LASF70:
 3735 023d 625F7374 		.ascii	"b_stis_mode\000"
 3735      69735F6D 
 3735      6F646500 
 3736              	.LASF138:
 3737 0249 73625F6F 		.ascii	"sb_options\000"
 3737      7074696F 
 3737      6E7300
 3738              	.LASF40:
 3739 0254 52454655 		.ascii	"REFUND_ICC\000"
 3739      4E445F49 
 3739      434300
 3740              	.LASF109:
 3741 025f 73625F6C 		.ascii	"sb_lxapp_chksum\000"
 3741      78617070 
 3741      5F63686B 
 3741      73756D00 
 3742              	.LASF62:
 3743 026f 625F636D 		.ascii	"b_cmd\000"
 3743      6400
 3744              	.LASF81:
 3745 0275 625F6469 		.ascii	"b_dial_mode\000"
ARM GAS  C:\Users\AHMED~1.ELE\AppData\Local\Temp\ccCpkcmf.s 			page 70


 3745      616C5F6D 
 3745      6F646500 
 3746              	.LASF11:
 3747 0281 424F4F4C 		.ascii	"BOOLEAN\000"
 3747      45414E00 
 3748              	.LASF34:
 3749 0289 41444A55 		.ascii	"ADJUST\000"
 3749      535400
 3750              	.LASF76:
 3751 0290 625F7072 		.ascii	"b_pri_redial\000"
 3751      695F7265 
 3751      6469616C 
 3751      00
 3752              	.LASF178:
 3753 029d 625F7072 		.ascii	"b_pri_trans_redial\000"
 3753      695F7472 
 3753      616E735F 
 3753      72656469 
 3753      616C00
 3754              	.LASF204:
 3755 02b0 73625F74 		.ascii	"sb_text\000"
 3755      65787400 
 3756              	.LASF89:
 3757 02b8 625F6465 		.ascii	"b_default_app\000"
 3757      6661756C 
 3757      745F6170 
 3757      7000
 3758              	.LASF177:
 3759 02c6 625F7072 		.ascii	"b_pri_trans_conn_time\000"
 3759      695F7472 
 3759      616E735F 
 3759      636F6E6E 
 3759      5F74696D 
 3760              	.LASF314:
 3761 02dc 5472616E 		.ascii	"TransAllowed\000"
 3761      73416C6C 
 3761      6F776564 
 3761      00
 3762              	.LASF145:
 3763 02e9 625F7365 		.ascii	"b_settle_amount_len\000"
 3763      74746C65 
 3763      5F616D6F 
 3763      756E745F 
 3763      6C656E00 
 3764              	.LASF126:
 3765 02fd 775F6170 		.ascii	"w_app_list_chksum\000"
 3765      705F6C69 
 3765      73745F63 
 3765      686B7375 
 3765      6D00
 3766              	.LASF193:
 3767 030f 73625F6E 		.ascii	"sb_next_batch_no\000"
 3767      6578745F 
 3767      62617463 
 3767      685F6E6F 
 3767      00
 3768              	.LASF77:
ARM GAS  C:\Users\AHMED~1.ELE\AppData\Local\Temp\ccCpkcmf.s 			page 71


 3769 0320 73625F73 		.ascii	"sb_sec_no\000"
 3769      65635F6E 
 3769      6F00
 3770              	.LASF196:
 3771 032a 625F686F 		.ascii	"b_host_type\000"
 3771      73745F74 
 3771      79706500 
 3772              	.LASF185:
 3773 0336 73625F73 		.ascii	"sb_sec_settle_tel\000"
 3773      65635F73 
 3773      6574746C 
 3773      655F7465 
 3773      6C00
 3774              	.LASF150:
 3775 0348 73625F70 		.ascii	"sb_psw_refund\000"
 3775      73775F72 
 3775      6566756E 
 3775      6400
 3776              	.LASF68:
 3777 0356 7362436F 		.ascii	"sbContent\000"
 3777      6E74656E 
 3777      7400
 3778              	.LASF65:
 3779 0360 625F6C65 		.ascii	"b_len\000"
 3779      6E00
 3780              	.LASF187:
 3781 0366 625F7365 		.ascii	"b_sec_settle_redial\000"
 3781      635F7365 
 3781      74746C65 
 3781      5F726564 
 3781      69616C00 
 3782              	.LASF286:
 3783 037a 625F6361 		.ascii	"b_card_expired\000"
 3783      72645F65 
 3783      78706972 
 3783      656400
 3784              	.LASF248:
 3785 0389 735F766F 		.ascii	"s_void_refund\000"
 3785      69645F72 
 3785      6566756E 
 3785      6400
 3786              	.LASF119:
 3787 0397 73625F63 		.ascii	"sb_checkin_pri_no\000"
 3787      6865636B 
 3787      696E5F70 
 3787      72695F6E 
 3787      6F00
 3788              	.LASF296:
 3789 03a9 735F696E 		.ascii	"s_input\000"
 3789      70757400 
 3790              	.LASF289:
 3791 03b1 73625F70 		.ascii	"sb_proc_code\000"
 3791      726F635F 
 3791      636F6465 
 3791      00
 3792              	.LASF243:
 3793 03be 645F6164 		.ascii	"d_adjust_count\000"
ARM GAS  C:\Users\AHMED~1.ELE\AppData\Local\Temp\ccCpkcmf.s 			page 72


 3793      6A757374 
 3793      5F636F75 
 3793      6E7400
 3794              	.LASF282:
 3795 03cd 73625F70 		.ascii	"sb_pin\000"
 3795      696E00
 3796              	.LASF44:
 3797 03d4 41555448 		.ascii	"AUTH_CTL\000"
 3797      5F43544C 
 3797      00
 3798              	.LASF268:
 3799 03dd 735F4D73 		.ascii	"s_MsgBuf\000"
 3799      67427566 
 3799      00
 3800              	.LASF217:
 3801 03e6 625F6163 		.ascii	"b_acc_ind\000"
 3801      635F696E 
 3801      6400
 3802              	.LASF107:
 3803 03f0 73625F78 		.ascii	"sb_xapp_date\000"
 3803      6170705F 
 3803      64617465 
 3803      00
 3804              	.LASF195:
 3805 03fd 625F7365 		.ascii	"b_settle_mdm_mode\000"
 3805      74746C65 
 3805      5F6D646D 
 3805      5F6D6F64 
 3805      6500
 3806              	.LASF232:
 3807 040f 775F686F 		.ascii	"w_host_idx\000"
 3807      73745F69 
 3807      647800
 3808              	.LASF139:
 3809 041a 73625F6E 		.ascii	"sb_name_loc\000"
 3809      616D655F 
 3809      6C6F6300 
 3810              	.LASF308:
 3811 0426 5061636B 		.ascii	"PackInputP\000"
 3811      496E7075 
 3811      745000
 3812              	.LASF8:
 3813 0431 6C6F6E67 		.ascii	"long long unsigned int\000"
 3813      206C6F6E 
 3813      6720756E 
 3813      7369676E 
 3813      65642069 
 3814              	.LASF14:
 3815 0448 44574F52 		.ascii	"DWORD\000"
 3815      4400
 3816              	.LASF188:
 3817 044e 625F7472 		.ascii	"b_trans_mdm_mode\000"
 3817      616E735F 
 3817      6D646D5F 
 3817      6D6F6465 
 3817      00
 3818              	.LASF151:
ARM GAS  C:\Users\AHMED~1.ELE\AppData\Local\Temp\ccCpkcmf.s 			page 73


 3819 045f 73625F70 		.ascii	"sb_psw_void\000"
 3819      73775F76 
 3819      6F696400 
 3820              	.LASF32:
 3821 046b 53414C45 		.ascii	"SALE_UNDER_LMT\000"
 3821      5F554E44 
 3821      45525F4C 
 3821      4D5400
 3822              	.LASF100:
 3823 047a 73625F65 		.ascii	"sb_emvapp_chksum\000"
 3823      6D766170 
 3823      705F6368 
 3823      6B73756D 
 3823      00
 3824              	.LASF155:
 3825 048b 61706E32 		.ascii	"apn2_password\000"
 3825      5F706173 
 3825      73776F72 
 3825      6400
 3826              	.LASF148:
 3827 0499 73625F61 		.ascii	"sb_additional_prompt\000"
 3827      64646974 
 3827      696F6E61 
 3827      6C5F7072 
 3827      6F6D7074 
 3828              	.LASF96:
 3829 04ae 625F6563 		.ascii	"b_ecr_ssl\000"
 3829      725F7373 
 3829      6C00
 3830              	.LASF191:
 3831 04b8 625F7469 		.ascii	"b_timeout_val\000"
 3831      6D656F75 
 3831      745F7661 
 3831      6C00
 3832              	.LASF46:
 3833 04c6 54455354 		.ascii	"TEST_MSG\000"
 3833      5F4D5347 
 3833      00
 3834              	.LASF277:
 3835 04cf 625F6469 		.ascii	"b_disp_chgd\000"
 3835      73705F63 
 3835      68676400 
 3836              	.LASF74:
 3837 04db 73625F70 		.ascii	"sb_pri_no\000"
 3837      72695F6E 
 3837      6F00
 3838              	.LASF170:
 3839 04e5 625F6465 		.ascii	"b_default_acc\000"
 3839      6661756C 
 3839      745F6163 
 3839      6300
 3840              	.LASF212:
 3841 04f3 775F6D69 		.ascii	"w_misc_len\000"
 3841      73635F6C 
 3841      656E00
 3842              	.LASF152:
 3843 04fe 61706E5F 		.ascii	"apn_username\000"
ARM GAS  C:\Users\AHMED~1.ELE\AppData\Local\Temp\ccCpkcmf.s 			page 74


 3843      75736572 
 3843      6E616D65 
 3843      00
 3844              	.LASF69:
 3845 050b 5445524D 		.ascii	"TERM_DATA\000"
 3845      5F444154 
 3845      4100
 3846              	.LASF190:
 3847 0515 73625F61 		.ascii	"sb_acceptor_id\000"
 3847      63636570 
 3847      746F725F 
 3847      696400
 3848              	.LASF223:
 3849 0524 64645F6F 		.ascii	"dd_org_amount\000"
 3849      72675F61 
 3849      6D6F756E 
 3849      7400
 3850              	.LASF206:
 3851 0532 73625F6C 		.ascii	"sb_label\000"
 3851      6162656C 
 3851      00
 3852              	.LASF159:
 3853 053b 61706E32 		.ascii	"apn2_port\000"
 3853      5F706F72 
 3853      7400
 3854              	.LASF142:
 3855 0545 625F7472 		.ascii	"b_trans_amount_len\000"
 3855      616E735F 
 3855      616D6F75 
 3855      6E745F6C 
 3855      656E00
 3856              	.LASF133:
 3857 0558 625F7273 		.ascii	"b_rsvd1\000"
 3857      76643100 
 3858              	.LASF255:
 3859 0560 735F6361 		.ascii	"s_card_tbl\000"
 3859      72645F74 
 3859      626C00
 3860              	.LASF293:
 3861 056b 625F7265 		.ascii	"b_response\000"
 3861      73706F6E 
 3861      736500
 3862              	.LASF194:
 3863 0576 73625F76 		.ascii	"sb_visa1_term_id\000"
 3863      69736131 
 3863      5F746572 
 3863      6D5F6964 
 3863      00
 3864              	.LASF228:
 3865 0587 73625F61 		.ascii	"sb_auth_code\000"
 3865      7574685F 
 3865      636F6465 
 3865      00
 3866              	.LASF180:
 3867 0594 625F7365 		.ascii	"b_sec_trans_conn_time\000"
 3867      635F7472 
 3867      616E735F 
ARM GAS  C:\Users\AHMED~1.ELE\AppData\Local\Temp\ccCpkcmf.s 			page 75


 3867      636F6E6E 
 3867      5F74696D 
 3868              	.LASF93:
 3869 05aa 64645F64 		.ascii	"dd_default_amount\000"
 3869      65666175 
 3869      6C745F61 
 3869      6D6F756E 
 3869      7400
 3870              	.LASF42:
 3871 05bc 4553414C 		.ascii	"ESALE_COMPLETE\000"
 3871      455F434F 
 3871      4D504C45 
 3871      544500
 3872              	.LASF245:
 3873 05cb 735F7469 		.ascii	"s_tips_tot\000"
 3873      70735F74 
 3873      6F7400
 3874              	.LASF29:
 3875 05d6 52454655 		.ascii	"REFUND\000"
 3875      4E4400
 3876              	.LASF115:
 3877 05dd 73625F70 		.ascii	"sb_ppp_pwd\000"
 3877      70705F70 
 3877      776400
 3878              	.LASF246:
 3879 05e8 735F7265 		.ascii	"s_refund_tot\000"
 3879      66756E64 
 3879      5F746F74 
 3879      00
 3880              	.LASF129:
 3881 05f5 5445524D 		.ascii	"TERM_CFG\000"
 3881      5F434647 
 3881      00
 3882              	.LASF110:
 3883 05fe 73625F6C 		.ascii	"sb_lxapp_date\000"
 3883      78617070 
 3883      5F646174 
 3883      6500
 3884              	.LASF33:
 3885 060c 564F4944 		.ascii	"VOID\000"
 3885      00
 3886              	.LASF140:
 3887 0611 73625F64 		.ascii	"sb_dflt_name\000"
 3887      666C745F 
 3887      6E616D65 
 3887      00
 3888              	.LASF137:
 3889 061e 73625F68 		.ascii	"sb_help_tel\000"
 3889      656C705F 
 3889      74656C00 
 3890              	.LASF123:
 3891 062a 625F6368 		.ascii	"b_checkin_sec_conn_time\000"
 3891      65636B69 
 3891      6E5F7365 
 3891      635F636F 
 3891      6E6E5F74 
 3892              	.LASF172:
ARM GAS  C:\Users\AHMED~1.ELE\AppData\Local\Temp\ccCpkcmf.s 			page 76


 3893 0642 73625F66 		.ascii	"sb_floor_limit\000"
 3893      6C6F6F72 
 3893      5F6C696D 
 3893      697400
 3894              	.LASF227:
 3895 0651 73625F65 		.ascii	"sb_ecr_ref\000"
 3895      63725F72 
 3895      656600
 3896              	.LASF87:
 3897 065c 73625F69 		.ascii	"sb_init_nii\000"
 3897      6E69745F 
 3897      6E696900 
 3898              	.LASF276:
 3899 0668 735F5461 		.ascii	"s_TagList\000"
 3899      674C6973 
 3899      7400
 3900              	.LASF10:
 3901 0672 63686172 		.ascii	"char\000"
 3901      00
 3902              	.LASF284:
 3903 0677 735F7472 		.ascii	"s_trk2buf\000"
 3903      6B326275 
 3903      6600
 3904              	.LASF64:
 3905 0681 4D575F54 		.ascii	"MW_TRK1BUF\000"
 3905      524B3142 
 3905      554600
 3906              	.LASF231:
 3907 068c 73625F72 		.ascii	"sb_rrn\000"
 3907      726E00
 3908              	.LASF205:
 3909 0693 4943435F 		.ascii	"ICC_DATA\000"
 3909      44415441 
 3909      00
 3910              	.LASF306:
 3911 069c 5061636B 		.ascii	"PackDTGAA\000"
 3911      44544741 
 3911      4100
 3912              	.LASF294:
 3913 06a6 74657874 		.ascii	"text\000"
 3913      00
 3914              	.LASF117:
 3915 06ab 73625F70 		.ascii	"sb_ppp_port\000"
 3915      70705F70 
 3915      6F727400 
 3916              	.LASF120:
 3917 06b7 625F6368 		.ascii	"b_checkin_pri_conn_time\000"
 3917      65636B69 
 3917      6E5F7072 
 3917      695F636F 
 3917      6E6E5F74 
 3918              	.LASF236:
 3919 06cf 41435155 		.ascii	"ACQUIRER_REV\000"
 3919      49524552 
 3919      5F524556 
 3919      00
 3920              	.LASF45:
ARM GAS  C:\Users\AHMED~1.ELE\AppData\Local\Temp\ccCpkcmf.s 			page 77


 3921 06dc 52454655 		.ascii	"REFUND_CTL\000"
 3921      4E445F43 
 3921      544C00
 3922              	.LASF303:
 3923 06e7 44697370 		.ascii	"DispHeader\000"
 3923      48656164 
 3923      657200
 3924              	.LASF258:
 3925 06f2 625F6464 		.ascii	"b_dd\000"
 3925      00
 3926              	.LASF310:
 3927 06f7 7372632F 		.ascii	"src/SaleOffl.c\000"
 3927      53616C65 
 3927      4F66666C 
 3927      2E6300
 3928              	.LASF316:
 3929 0706 5472616E 		.ascii	"TransEnd\000"
 3929      73456E64 
 3929      00
 3930              	.LASF30:
 3931 070f 53414C45 		.ascii	"SALE_OFFLINE\000"
 3931      5F4F4646 
 3931      4C494E45 
 3931      00
 3932              	.LASF82:
 3933 071c 73625F70 		.ascii	"sb_pabx\000"
 3933      61627800 
 3934              	.LASF94:
 3935 0724 625F7070 		.ascii	"b_ppad_port\000"
 3935      61645F70 
 3935      6F727400 
 3936              	.LASF163:
 3937 0730 625F6973 		.ascii	"b_issuer_id\000"
 3937      73756572 
 3937      5F696400 
 3938              	.LASF275:
 3939 073c 735F4354 		.ascii	"s_CTLOut\000"
 3939      4C4F7574 
 3939      00
 3940              	.LASF266:
 3941 0745 735F7465 		.ascii	"s_term_tot\000"
 3941      726D5F74 
 3941      6F7400
 3942              	.LASF78:
 3943 0750 625F7365 		.ascii	"b_sec_conn_time\000"
 3943      635F636F 
 3943      6E6E5F74 
 3943      696D6500 
 3944              	.LASF169:
 3945 0760 73625F72 		.ascii	"sb_ref_tel_no\000"
 3945      65665F74 
 3945      656C5F6E 
 3945      6F00
 3946              	.LASF90:
 3947 076e 625F7265 		.ascii	"b_return_timeout\000"
 3947      7475726E 
 3947      5F74696D 
ARM GAS  C:\Users\AHMED~1.ELE\AppData\Local\Temp\ccCpkcmf.s 			page 78


 3947      656F7574 
 3947      00
 3948              	.LASF179:
 3949 077f 73625F73 		.ascii	"sb_sec_trans_tel\000"
 3949      65635F74 
 3949      72616E73 
 3949      5F74656C 
 3949      00
 3950              	.LASF113:
 3951 0790 73625F66 		.ascii	"sb_ftp_pwd\000"
 3951      74705F70 
 3951      776400
 3952              	.LASF271:
 3953 079b 73625F49 		.ascii	"sb_IOBuf\000"
 3953      4F427566 
 3953      00
 3954              	.LASF302:
 3955 07a4 5061636B 		.ascii	"PackHeader\000"
 3955      48656164 
 3955      657200
 3956              	.LASF249:
 3957 07af 735F414C 		.ascii	"s_ALL\000"
 3957      4C00
 3958              	.LASF260:
 3959 07b5 645F6C65 		.ascii	"d_len\000"
 3959      6E00
 3960              	.LASF220:
 3961 07bb 63757272 		.ascii	"currency\000"
 3961      656E6379 
 3961      00
 3962              	.LASF211:
 3963 07c4 73625F74 		.ascii	"sb_tag_9f26\000"
 3963      61675F39 
 3963      66323600 
 3964              	.LASF291:
 3965 07d0 73625F6F 		.ascii	"sb_org_trace_no\000"
 3965      72675F74 
 3965      72616365 
 3965      5F6E6F00 
 3966              	.LASF261:
 3967 07e0 735F7374 		.ascii	"s_stis_data\000"
 3967      69735F64 
 3967      61746100 
 3968              	.LASF7:
 3969 07ec 6C6F6E67 		.ascii	"long long int\000"
 3969      206C6F6E 
 3969      6720696E 
 3969      7400
 3970              	.LASF292:
 3971 07fa 5253505F 		.ascii	"RSP_DATA\000"
 3971      44415441 
 3971      00
 3972              	.LASF221:
 3973 0803 64645F61 		.ascii	"dd_amount\000"
 3973      6D6F756E 
 3973      7400
 3974              	.LASF20:
ARM GAS  C:\Users\AHMED~1.ELE\AppData\Local\Temp\ccCpkcmf.s 			page 79


 3975 080d 625F686F 		.ascii	"b_hour\000"
 3975      757200
 3976              	.LASF98:
 3977 0814 73625F65 		.ascii	"sb_edc_date\000"
 3977      64635F64 
 3977      61746500 
 3978              	.LASF75:
 3979 0820 625F7072 		.ascii	"b_pri_conn_time\000"
 3979      695F636F 
 3979      6E6E5F74 
 3979      696D6500 
 3980              	.LASF200:
 3981 0830 625F7065 		.ascii	"b_pending\000"
 3981      6E64696E 
 3981      6700
 3982              	.LASF295:
 3983 083a 5452414E 		.ascii	"TRANS_DATA\000"
 3983      535F4441 
 3983      544100
 3984              	.LASF301:
 3985 0845 496E6354 		.ascii	"IncTraceNo\000"
 3985      72616365 
 3985      4E6F00
 3986              	.LASF183:
 3987 0850 625F7072 		.ascii	"b_pri_settle_conn_time\000"
 3987      695F7365 
 3987      74746C65 
 3987      5F636F6E 
 3987      6E5F7469 
 3988              	.LASF101:
 3989 0867 73625F65 		.ascii	"sb_emvapp_date\000"
 3989      6D766170 
 3989      705F6461 
 3989      746500
 3990              	.LASF71:
 3991 0876 625F6469 		.ascii	"b_disp_contrast\000"
 3991      73705F63 
 3991      6F6E7472 
 3991      61737400 
 3992              	.LASF263:
 3993 0886 735F7265 		.ascii	"s_record_buf\000"
 3993      636F7264 
 3993      5F627566 
 3993      00
 3994              	.LASF97:
 3995 0893 73625F65 		.ascii	"sb_edc_chksum\000"
 3995      64635F63 
 3995      686B7375 
 3995      6D00
 3996              	.LASF259:
 3997 08a1 4D53475F 		.ascii	"MSG_BUF\000"
 3997      42554600 
 3998              	.LASF13:
 3999 08a9 574F5244 		.ascii	"WORD\000"
 3999      00
 4000              	.LASF239:
 4001 08ae 64645F62 		.ascii	"dd_base_amount\000"
ARM GAS  C:\Users\AHMED~1.ELE\AppData\Local\Temp\ccCpkcmf.s 			page 80


 4001      6173655F 
 4001      616D6F75 
 4001      6E7400
 4002              	.LASF164:
 4003 08bd 625F6163 		.ascii	"b_acquirer_id\000"
 4003      71756972 
 4003      65725F69 
 4003      6400
 4004              	.LASF27:
 4005 08cb 4F4E4C5F 		.ascii	"ONL_REFUND_SW\000"
 4005      52454655 
 4005      4E445F53 
 4005      5700
 4006              	.LASF116:
 4007 08d9 73625F70 		.ascii	"sb_ppp_ip\000"
 4007      70705F69 
 4007      7000
 4008              	.LASF35:
 4009 08e3 5452414E 		.ascii	"TRANS_UPLOAD\000"
 4009      535F5550 
 4009      4C4F4144 
 4009      00
 4010              	.LASF162:
 4011 08f0 73625F70 		.ascii	"sb_pan_range_high\000"
 4011      616E5F72 
 4011      616E6765 
 4011      5F686967 
 4011      6800
 4012              	.LASF83:
 4013 0902 73625F74 		.ascii	"sb_trace_no\000"
 4013      72616365 
 4013      5F6E6F00 
 4014              	.LASF247:
 4015 090e 735F766F 		.ascii	"s_void_sale\000"
 4015      69645F73 
 4015      616C6500 
 4016              	.LASF16:
 4017 091a 625F6365 		.ascii	"b_century\000"
 4017      6E747572 
 4017      7900
 4018              	.LASF160:
 4019 0924 43415244 		.ascii	"CARD_TBL\000"
 4019      5F54424C 
 4019      00
 4020              	.LASF52:
 4021 092d 73494F5F 		.ascii	"sIO_t\000"
 4021      7400
 4022              	.LASF60:
 4023 0933 45435244 		.ascii	"ECRDATA\000"
 4023      41544100 
 4024              	.LASF219:
 4025 093b 73625F65 		.ascii	"sb_exp_date\000"
 4025      78705F64 
 4025      61746500 
 4026              	.LASF278:
 4027 0947 735F6273 		.ascii	"s_bs_date\000"
 4027      5F646174 
ARM GAS  C:\Users\AHMED~1.ELE\AppData\Local\Temp\ccCpkcmf.s 			page 81


 4027      6500
 4028              	.LASF311:
 4029 0951 443A5C47 		.ascii	"D:\\GuadianPro\\Core\\S_MISR\\APP\\MISR\000"
 4029      75616469 
 4029      616E5072 
 4029      6F5C436F 
 4029      72655C53 
 4030              	.LASF280:
 4031 0974 695F6563 		.ascii	"i_ecr_len\000"
 4031      725F6C65 
 4031      6E00
 4032              	.LASF158:
 4033 097e 61706E32 		.ascii	"apn2_ip\000"
 4033      5F697000 
 4034              	.LASF39:
 4035 0986 41555448 		.ascii	"AUTH_ICC\000"
 4035      5F494343 
 4035      00
 4036              	.LASF111:
 4037 098f 73625F6C 		.ascii	"sb_lxapp_size\000"
 4037      78617070 
 4037      5F73697A 
 4037      6500
 4038              	.LASF274:
 4039 099d 735F4354 		.ascii	"s_CTLIn\000"
 4039      4C496E00 
 4040              	.LASF297:
 4041 09a5 735F7478 		.ascii	"s_tx_data\000"
 4041      5F646174 
 4041      6100
 4042              	.LASF134:
 4043 09af 73625F64 		.ascii	"sb_date_time\000"
 4043      6174655F 
 4043      74696D65 
 4043      00
 4044              	.LASF131:
 4045 09bc 625F696E 		.ascii	"b_init_control\000"
 4045      69745F63 
 4045      6F6E7472 
 4045      6F6C00
 4046              	.LASF305:
 4047 09cb 496E6354 		.ascii	"IncTraceNoEND\000"
 4047      72616365 
 4047      4E6F454E 
 4047      4400
 4048              	.LASF127:
 4049 09d9 625F6170 		.ascii	"b_app_list_upload\000"
 4049      705F6C69 
 4049      73745F75 
 4049      706C6F61 
 4049      6400
 4050              	.LASF146:
 4051 09eb 73625F63 		.ascii	"sb_currency_name\000"
 4051      75727265 
 4051      6E63795F 
 4051      6E616D65 
 4051      00
ARM GAS  C:\Users\AHMED~1.ELE\AppData\Local\Temp\ccCpkcmf.s 			page 82


 4052              	.LASF186:
 4053 09fc 625F7365 		.ascii	"b_sec_settle_conn_time\000"
 4053      635F7365 
 4053      74746C65 
 4053      5F636F6E 
 4053      6E5F7469 
 4054              	.LASF229:
 4055 0a13 775F7273 		.ascii	"w_rspcode\000"
 4055      70636F64 
 4055      6500
 4056              	.LASF57:
 4057 0a1d 70624D73 		.ascii	"pbMsg\000"
 4057      6700
 4058              	.LASF241:
 4059 0a23 775F636F 		.ascii	"w_count\000"
 4059      756E7400 
 4060              	.LASF166:
 4061 0a2b 49535355 		.ascii	"ISSUER_TBL\000"
 4061      45525F54 
 4061      424C00
 4062              	.LASF304:
 4063 0a36 52656672 		.ascii	"RefreshDispAfter\000"
 4063      65736844 
 4063      69737041 
 4063      66746572 
 4063      00
 4064              	.LASF132:
 4065 0a47 625F7273 		.ascii	"b_rsvd0\000"
 4065      76643000 
 4066              	.LASF279:
 4067 0a4f 735F6563 		.ascii	"s_ecr_data\000"
 4067      725F6461 
 4067      746100
 4068              	.LASF144:
 4069 0a5a 625F7273 		.ascii	"b_rsvd2\000"
 4069      76643200 
 4070              	.LASF224:
 4071 0a62 73625F70 		.ascii	"sb_product\000"
 4071      726F6475 
 4071      637400
 4072              	.LASF31:
 4073 0a6d 53414C45 		.ascii	"SALE_COMPLETE\000"
 4073      5F434F4D 
 4073      504C4554 
 4073      4500
 4074              	.LASF112:
 4075 0a7b 73625F66 		.ascii	"sb_ftp_user\000"
 4075      74705F75 
 4075      73657200 
 4076              	.LASF218:
 4077 0a87 73625F70 		.ascii	"sb_pan\000"
 4077      616E00
 4078              	.LASF208:
 4079 0a8e 73625F61 		.ascii	"sb_aid\000"
 4079      696400
 4080              	.LASF3:
 4081 0a95 73686F72 		.ascii	"short int\000"
ARM GAS  C:\Users\AHMED~1.ELE\AppData\Local\Temp\ccCpkcmf.s 			page 83


 4081      7420696E 
 4081      7400
 4082              	.LASF242:
 4083 0a9f 544F5441 		.ascii	"TOTAL_STRUCT\000"
 4083      4C5F5354 
 4083      52554354 
 4083      00
 4084              	.LASF184:
 4085 0aac 625F7072 		.ascii	"b_pri_settle_redial\000"
 4085      695F7365 
 4085      74746C65 
 4085      5F726564 
 4085      69616C00 
 4086              	.LASF80:
 4087 0ac0 625F6173 		.ascii	"b_async_delay\000"
 4087      796E635F 
 4087      64656C61 
 4087      7900
 4088              	.LASF5:
 4089 0ace 6C6F6E67 		.ascii	"long int\000"
 4089      20696E74 
 4089      00
 4090              	.LASF54:
 4091 0ad7 734C656E 		.ascii	"sLen\000"
 4091      00
 4092              	.LASF267:
 4093 0adc 745F7465 		.ascii	"t_term_tot\000"
 4093      726D5F74 
 4093      6F7400
 4094              	.LASF157:
 4095 0ae7 61706E63 		.ascii	"apnconfig2\000"
 4095      6F6E6669 
 4095      673200
 4096              	.LASF299:
 4097 0af2 67474453 		.ascii	"gGDS\000"
 4097      00
 4098              	.LASF141:
 4099 0af7 625F6375 		.ascii	"b_currency\000"
 4099      7272656E 
 4099      637900
 4100              	.LASF121:
 4101 0b02 625F6368 		.ascii	"b_checkin_pri_redial\000"
 4101      65636B69 
 4101      6E5F7072 
 4101      695F7265 
 4101      6469616C 
 4102              	.LASF41:
 4103 0b17 4553414C 		.ascii	"ESALE_UNDER_LMT\000"
 4103      455F554E 
 4103      4445525F 
 4103      4C4D5400 
 4104              	.LASF182:
 4105 0b27 73625F70 		.ascii	"sb_pri_settle_tel\000"
 4105      72695F73 
 4105      6574746C 
 4105      655F7465 
 4105      6C00
ARM GAS  C:\Users\AHMED~1.ELE\AppData\Local\Temp\ccCpkcmf.s 			page 84


 4106              	.LASF262:
 4107 0b39 735F7465 		.ascii	"s_term_data\000"
 4107      726D5F64 
 4107      61746100 
 4108              	.LASF287:
 4109 0b45 73625F61 		.ascii	"sb_amex_4DBC\000"
 4109      6D65785F 
 4109      34444243 
 4109      00
 4110              	.LASF254:
 4111 0b52 735F6973 		.ascii	"s_issuer_tbl\000"
 4111      73756572 
 4111      5F74626C 
 4111      00
 4112              	.LASF198:
 4113 0b5f 625F7373 		.ascii	"b_ssl_key_idx\000"
 4113      6C5F6B65 
 4113      795F6964 
 4113      7800
 4114              	.LASF105:
 4115 0b6d 73625F65 		.ascii	"sb_emvkey_size\000"
 4115      6D766B65 
 4115      795F7369 
 4115      7A6500
 4116              	.LASF72:
 4117 0b7c 73625F74 		.ascii	"sb_term_id\000"
 4117      65726D5F 
 4117      696400
 4118              	.LASF130:
 4119 0b87 625F646C 		.ascii	"b_dll\000"
 4119      6C00
 4120              	.LASF99:
 4121 0b8d 73625F65 		.ascii	"sb_edc_size\000"
 4121      64635F73 
 4121      697A6500 
 4122              	.LASF63:
 4123 0b99 73625F63 		.ascii	"sb_content\000"
 4123      6F6E7465 
 4123      6E7400
 4124              	.LASF103:
 4125 0ba4 73625F65 		.ascii	"sb_emvkey_chksum\000"
 4125      6D766B65 
 4125      795F6368 
 4125      6B73756D 
 4125      00
 4126              	.LASF290:
 4127 0bb5 625F6F72 		.ascii	"b_org_trans\000"
 4127      675F7472 
 4127      616E7300 
 4128              	.LASF216:
 4129 0bc1 625F7472 		.ascii	"b_trans_status\000"
 4129      616E735F 
 4129      73746174 
 4129      757300
 4130              	.LASF143:
 4131 0bd0 625F6465 		.ascii	"b_decimal_pos\000"
 4131      63696D61 
ARM GAS  C:\Users\AHMED~1.ELE\AppData\Local\Temp\ccCpkcmf.s 			page 85


 4131      6C5F706F 
 4131      7300
 4132              	.LASF73:
 4133 0bde 625F696E 		.ascii	"b_init_mode\000"
 4133      69745F6D 
 4133      6F646500 
 4134              	.LASF300:
 4135 0bea 67475453 		.ascii	"gGTS\000"
 4135      00
 4136              	.LASF95:
 4137 0bef 625F6563 		.ascii	"b_ecr_port\000"
 4137      725F706F 
 4137      727400
 4138              	.LASF102:
 4139 0bfa 73625F65 		.ascii	"sb_emvapp_size\000"
 4139      6D766170 
 4139      705F7369 
 4139      7A6500
 4140              	.LASF19:
 4141 0c09 625F6461 		.ascii	"b_day\000"
 4141      7900
 4142              	.LASF0:
 4143 0c0f 756E7369 		.ascii	"unsigned int\000"
 4143      676E6564 
 4143      20696E74 
 4143      00
 4144              	.LASF25:
 4145 0c1c 53414C45 		.ascii	"SALE_SWIPE\000"
 4145      5F535749 
 4145      504500
 4146              	.LASF59:
 4147 0c27 44415445 		.ascii	"DATETIME\000"
 4147      54494D45 
 4147      00
 4148              	.LASF281:
 4149 0c30 494E5055 		.ascii	"INPUT_DATA\000"
 4149      545F4441 
 4149      544100
 4150              	.LASF214:
 4151 0c3b 54584E5F 		.ascii	"TXN_RECORD\000"
 4151      5245434F 
 4151      524400
 4152              	.LASF215:
 4153 0c46 625F7472 		.ascii	"b_trans\000"
 4153      616E7300 
 4154              	.LASF167:
 4155 0c4e 625F6964 		.ascii	"b_id\000"
 4155      00
 4156              	.LASF153:
 4157 0c53 61706E5F 		.ascii	"apn_password\000"
 4157      70617373 
 4157      776F7264 
 4157      00
 4158              	.LASF265:
 4159 0c60 735F705F 		.ascii	"s_p_data\000"
 4159      64617461 
 4159      00
ARM GAS  C:\Users\AHMED~1.ELE\AppData\Local\Temp\ccCpkcmf.s 			page 86


 4160              	.LASF256:
 4161 0c69 42535F44 		.ascii	"BS_DATE\000"
 4161      41544500 
 4162              	.LASF9:
 4163 0c71 73697A65 		.ascii	"sizetype\000"
 4163      74797065 
 4163      00
 4164              	.LASF23:
 4165 0c7a 41555448 		.ascii	"AUTH_SWIPE\000"
 4165      5F535749 
 4165      504500
 4166              	.LASF6:
 4167 0c85 6C6F6E67 		.ascii	"long unsigned int\000"
 4167      20756E73 
 4167      69676E65 
 4167      6420696E 
 4167      7400
 4168              	.LASF37:
 4169 0c97 4544435F 		.ascii	"EDC_REV\000"
 4169      52455600 
 4170              	.LASF202:
 4171 0c9f 625F6B65 		.ascii	"b_key\000"
 4171      7900
 4172              	.LASF203:
 4173 0ca5 73625F68 		.ascii	"sb_host_tx_code\000"
 4173      6F73745F 
 4173      74785F63 
 4173      6F646500 
 4174              	.LASF235:
 4175 0cb5 735F6963 		.ascii	"s_icc_data\000"
 4175      635F6461 
 4175      746100
 4176              	.LASF47:
 4177 0cc0 53455454 		.ascii	"SETT_ADV\000"
 4177      5F414456 
 4177      00
 4178              	.LASF250:
 4179 0cc9 53544953 		.ascii	"STIS_DATA\000"
 4179      5F444154 
 4179      4100
 4180              	.LASF106:
 4181 0cd3 73625F78 		.ascii	"sb_xapp_chksum\000"
 4181      6170705F 
 4181      63686B73 
 4181      756D00
 4182              	.LASF207:
 4183 0ce2 625F6169 		.ascii	"b_aid_len\000"
 4183      645F6C65 
 4183      6E00
 4184              	.LASF43:
 4185 0cec 53414C45 		.ascii	"SALE_CTL\000"
 4185      5F43544C 
 4185      00
 4186              	.LASF91:
 4187 0cf5 775F7472 		.ascii	"w_training_status\000"
 4187      61696E69 
 4187      6E675F73 
ARM GAS  C:\Users\AHMED~1.ELE\AppData\Local\Temp\ccCpkcmf.s 			page 87


 4187      74617475 
 4187      7300
 4188              	.LASF252:
 4189 0d07 735F6465 		.ascii	"s_desc_tbl\000"
 4189      73635F74 
 4189      626C00
 4190              	.LASF2:
 4191 0d12 756E7369 		.ascii	"unsigned char\000"
 4191      676E6564 
 4191      20636861 
 4191      7200
 4192              	.LASF28:
 4193 0d20 4F4E4C5F 		.ascii	"ONL_REFUND_MNL\000"
 4193      52454655 
 4193      4E445F4D 
 4193      4E4C00
 4194              	.LASF273:
 4195 0d2f 735F454D 		.ascii	"s_EMVOut\000"
 4195      564F7574 
 4195      00
 4196              	.LASF26:
 4197 0d38 53414C45 		.ascii	"SALE_MANUAL\000"
 4197      5F4D414E 
 4197      55414C00 
 4198              	.LASF135:
 4199 0d44 625F6469 		.ascii	"b_dial_option\000"
 4199      616C5F6F 
 4199      7074696F 
 4199      6E00
 4200              	.LASF149:
 4201 0d52 73625F72 		.ascii	"sb_reserved\000"
 4201      65736572 
 4201      76656400 
 4202              	.LASF298:
 4203 0d5e 735F7273 		.ascii	"s_rsp_data\000"
 4203      705F6461 
 4203      746100
 4204              	.LASF147:
 4205 0d69 625F6C6F 		.ascii	"b_local_option\000"
 4205      63616C5F 
 4205      6F707469 
 4205      6F6E00
 4206              	.LASF48:
 4207 0d78 4D41585F 		.ascii	"MAX_TXN_TYPE\000"
 4207      54584E5F 
 4207      54595045 
 4207      00
 4208              	.LASF213:
 4209 0d85 73625F6D 		.ascii	"sb_misc_content\000"
 4209      6973635F 
 4209      636F6E74 
 4209      656E7400 
 4210              	.LASF165:
 4211 0d95 625F7061 		.ascii	"b_pan_len\000"
 4211      6E5F6C65 
 4211      6E00
 4212              	.LASF104:
ARM GAS  C:\Users\AHMED~1.ELE\AppData\Local\Temp\ccCpkcmf.s 			page 88


 4213 0d9f 73625F65 		.ascii	"sb_emvkey_date\000"
 4213      6D766B65 
 4213      795F6461 
 4213      746500
 4214              	.LASF53:
 4215 0dae 77546167 		.ascii	"wTag\000"
 4215      00
 4216              	.LASF230:
 4217 0db3 625F5069 		.ascii	"b_PinVerified\000"
 4217      6E566572 
 4217      69666965 
 4217      6400
 4218              	.LASF237:
 4219 0dc1 50524E5F 		.ascii	"PRN_DATA\000"
 4219      44415441 
 4219      00
 4220              	.LASF225:
 4221 0dca 625F656E 		.ascii	"b_entry_mode\000"
 4221      7472795F 
 4221      6D6F6465 
 4221      00
 4222              	.LASF272:
 4223 0dd7 735F454D 		.ascii	"s_EMVIn\000"
 4223      56496E00 
 4224              	.LASF1:
 4225 0ddf 7369676E 		.ascii	"signed char\000"
 4225      65642063 
 4225      68617200 
 4226              	.LASF124:
 4227 0deb 625F6368 		.ascii	"b_checkin_sec_redial\000"
 4227      65636B69 
 4227      6E5F7365 
 4227      635F7265 
 4227      6469616C 
 4228              	.LASF240:
 4229 0e00 544F5441 		.ascii	"TOTAL\000"
 4229      4C00
 4230              	.LASF4:
 4231 0e06 73686F72 		.ascii	"short unsigned int\000"
 4231      7420756E 
 4231      7369676E 
 4231      65642069 
 4231      6E7400
 4232              	.LASF22:
 4233 0e19 625F7365 		.ascii	"b_second\000"
 4233      636F6E64 
 4233      00
 4234              	.LASF233:
 4235 0e22 775F6973 		.ascii	"w_issuer_idx\000"
 4235      73756572 
 4235      5F696478 
 4235      00
 4236              	.LASF171:
 4237 0e2f 73625F70 		.ascii	"sb_pan_format\000"
 4237      616E5F66 
 4237      6F726D61 
 4237      7400
ARM GAS  C:\Users\AHMED~1.ELE\AppData\Local\Temp\ccCpkcmf.s 			page 89


 4238              	.LASF154:
 4239 0e3d 61706E32 		.ascii	"apn2_username\000"
 4239      5F757365 
 4239      726E616D 
 4239      6500
 4240              	.LASF264:
 4241 0e4b 735F6163 		.ascii	"s_acq_rev\000"
 4241      715F7265 
 4241      7600
 4242              	.LASF192:
 4243 0e55 73625F63 		.ascii	"sb_curr_batch_no\000"
 4243      7572725F 
 4243      62617463 
 4243      685F6E6F 
 4243      00
 4244              	.LASF79:
 4245 0e66 625F7365 		.ascii	"b_sec_redial\000"
 4245      635F7265 
 4245      6469616C 
 4245      00
 4246              	.LASF136:
 4247 0e73 73625F70 		.ascii	"sb_password\000"
 4247      61737377 
 4247      6F726400 
 4248              	.LASF88:
 4249 0e7f 625F656D 		.ascii	"b_emv_enable\000"
 4249      765F656E 
 4249      61626C65 
 4249      00
 4250              	.LASF307:
 4251 0e8c 53617665 		.ascii	"SaveOfflRecord\000"
 4251      4F66666C 
 4251      5265636F 
 4251      726400
 4252              	.LASF118:
 4253 0e9b 73625F73 		.ascii	"sb_server_key\000"
 4253      65727665 
 4253      725F6B65 
 4253      7900
 4254              	.LASF234:
 4255 0ea9 735F6474 		.ascii	"s_dtg\000"
 4255      6700
 4256              	.LASF312:
 4257 0eaf 53616C65 		.ascii	"SaleOfflTrans\000"
 4257      4F66666C 
 4257      5472616E 
 4257      7300
 4258              	.LASF270:
 4259 0ebd 735F5278 		.ascii	"s_RxMsg\000"
 4259      4D736700 
 4260              	.LASF108:
 4261 0ec5 73625F78 		.ascii	"sb_xapp_size\000"
 4261      6170705F 
 4261      73697A65 
 4261      00
 4262              	.LASF209:
 4263 0ed2 73625F74 		.ascii	"sb_tag_95\000"
ARM GAS  C:\Users\AHMED~1.ELE\AppData\Local\Temp\ccCpkcmf.s 			page 90


 4263      61675F39 
 4263      3500
 4264              	.LASF315:
 4265 0edc 47657441 		.ascii	"GetAuthCode\000"
 4265      75746843 
 4265      6F646500 
 4266              	.LASF161:
 4267 0ee8 73625F70 		.ascii	"sb_pan_range_low\000"
 4267      616E5F72 
 4267      616E6765 
 4267      5F6C6F77 
 4267      00
 4268              	.LASF15:
 4269 0ef9 4444574F 		.ascii	"DDWORD\000"
 4269      524400
 4270              	.LASF18:
 4271 0f00 625F6D6F 		.ascii	"b_month\000"
 4271      6E746800 
 4272              	.LASF55:
 4273 0f08 70624C6F 		.ascii	"pbLoc\000"
 4273      6300
 4274              	.LASF85:
 4275 0f0e 73625F69 		.ascii	"sb_ip\000"
 4275      7000
 4276              	.LASF253:
 4277 0f14 735F6163 		.ascii	"s_acquirer_tbl\000"
 4277      71756972 
 4277      65725F74 
 4277      626C00
 4278              	.LASF51:
 4279 0f23 624D7367 		.ascii	"bMsg\000"
 4279      00
 4280              	.LASF199:
 4281 0f28 625F7374 		.ascii	"b_status\000"
 4281      61747573 
 4281      00
 4282              	.LASF49:
 4283 0f31 44454641 		.ascii	"DEFAULT_TRANS\000"
 4283      554C545F 
 4283      5452414E 
 4283      5300
 4284              	.LASF50:
 4285 0f3f 774C656E 		.ascii	"wLen\000"
 4285      00
 4286              	.LASF283:
 4287 0f44 735F7472 		.ascii	"s_trk1buf\000"
 4287      6B316275 
 4287      6600
 4288              	.LASF66:
 4289 0f4e 4D575F54 		.ascii	"MW_TRK2BUF\000"
 4289      524B3242 
 4289      554600
 4290              	.LASF156:
 4291 0f59 61706E63 		.ascii	"apnconfig\000"
 4291      6F6E6669 
 4291      6700
 4292              	.LASF244:
ARM GAS  C:\Users\AHMED~1.ELE\AppData\Local\Temp\ccCpkcmf.s 			page 91


 4293 0f63 735F7361 		.ascii	"s_sale_tot\000"
 4293      6C655F74 
 4293      6F7400
 4294              		.ident	"GCC: (GNU Tools for ARM Embedded Processors) 4.9.3 20141119 (release) [ARM/embedded-4_9-br
ARM GAS  C:\Users\AHMED~1.ELE\AppData\Local\Temp\ccCpkcmf.s 			page 92


DEFINED SYMBOLS
                            *ABS*:00000000 SaleOffl.c
C:\Users\AHMED~1.ELE\AppData\Local\Temp\ccCpkcmf.s:19     .text.SaleOfflTrans:00000000 $t
C:\Users\AHMED~1.ELE\AppData\Local\Temp\ccCpkcmf.s:24     .text.SaleOfflTrans:00000000 SaleOfflTrans
C:\Users\AHMED~1.ELE\AppData\Local\Temp\ccCpkcmf.s:113    .text.SaleOfflTrans:00000064 $d
                     .debug_frame:00000010 $d

UNDEFINED SYMBOLS
DispHeader
IncTraceNo
PackHeader
TransAllowed
RefreshDispAfter
GetAuthCode
IncTraceNoEND
PackDTGAA
SaveOfflRecord
PackInputP
TransEnd
gGTS
gGDS
