ARM GAS  C:\Users\AHMEDH~1\AppData\Local\Temp\cc7vPD4b.s 			page 1


   1              		.syntax unified
   2              		.cpu cortex-a5
   3              		.fpu softvfp
   4              		.eabi_attribute 20, 1
   5              		.eabi_attribute 21, 1
   6              		.eabi_attribute 23, 3
   7              		.eabi_attribute 24, 1
   8              		.eabi_attribute 25, 1
   9              		.eabi_attribute 26, 1
  10              		.eabi_attribute 30, 4
  11              		.eabi_attribute 34, 0
  12              		.eabi_attribute 18, 4
  13              		.thumb
  14              		.file	"Sale.c"
  15              		.text
  16              	.Ltext0:
  17              		.cfi_sections	.debug_frame
  18              		.section	.text.ReferralCall,"ax",%progbits
  19              		.align	1
  20              		.global	ReferralCall
  21              		.thumb
  22              		.thumb_func
  23              		.type	ReferralCall, %function
  24              	ReferralCall:
  25              	.LFB2:
  26              		.file 1 "src/Sale.c"
   1:src/Sale.c    **** //-----------------------------------------------------------------------------
   2:src/Sale.c    **** //  File          : sale.c
   3:src/Sale.c    **** //  Module        :
   4:src/Sale.c    **** //  Description   : Include routines for sale transaction.
   5:src/Sale.c    **** //  Author        : Lewis
   6:src/Sale.c    **** //  Notes         :
   7:src/Sale.c    **** //
   8:src/Sale.c    **** // ============================================================================
   9:src/Sale.c    **** // | Naming conventions                                                       |
  10:src/Sale.c    **** // | ~~~~~~~~~~~~~~~~~~                                                       |
  11:src/Sale.c    **** // |        Struct define : Leading T                                         |
  12:src/Sale.c    **** // |         Struct/Array : Leading s                                         |
  13:src/Sale.c    **** // |             Constant : Leading K                                         |
  14:src/Sale.c    **** // |      Global Variable : Leading g  (variable use outside one C file)      |
  15:src/Sale.c    **** // |                                                                          |
  16:src/Sale.c    **** // |   BYTE( 8 Bits) size : Leading b                                         |
  17:src/Sale.c    **** // |   CHAR( 8 Bits) size : Leading c                                         |
  18:src/Sale.c    **** // |   WORD(16 Bits) size : Leading w                                         |
  19:src/Sale.c    **** // |  DWORD(32 Bits) size : Leading d                                         |
  20:src/Sale.c    **** // |    int(32 Bits) size : Leading i                                         |
  21:src/Sale.c    **** // | DDWORD(64 Bits) size : Leading dd                                        |
  22:src/Sale.c    **** // |              Pointer : Leading p                                         |
  23:src/Sale.c    **** // |                                                                          |
  24:src/Sale.c    **** // |    Function argument : Leading a                                         |
  25:src/Sale.c    **** // |       Local Variable : All lower case                                    |
  26:src/Sale.c    **** // |                                                                          |
  27:src/Sale.c    **** // | Examples:                                                                |
  28:src/Sale.c    **** // |                Array : Leading s, (sb = arrary of byte, etc)             |
  29:src/Sale.c    **** // |              Pointer : Leading p, (pb = pointer of byte, etc)            |
  30:src/Sale.c    **** // ============================================================================
  31:src/Sale.c    **** //
ARM GAS  C:\Users\AHMEDH~1\AppData\Local\Temp\cc7vPD4b.s 			page 2


  32:src/Sale.c    **** //  Date          Who         Action
  33:src/Sale.c    **** //  ------------  ----------- -------------------------------------------------
  34:src/Sale.c    **** //  10 May  2006  Lewis       Initial Version.
  35:src/Sale.c    **** //-----------------------------------------------------------------------------
  36:src/Sale.c    **** #include <string.h>
  37:src/Sale.c    **** #include <stdio.h>
  38:src/Sale.c    **** #include "util.h"
  39:src/Sale.c    **** #include "sysutil.h"
  40:src/Sale.c    **** #include "message.h"
  41:src/Sale.c    **** #include "constant.h"
  42:src/Sale.c    **** #include "corevar.h"
  43:src/Sale.c    **** #include "chkoptn.h"
  44:src/Sale.c    **** #include "input.h"
  45:src/Sale.c    **** #include "print.h"
  46:src/Sale.c    **** #include "record.h"
  47:src/Sale.c    **** #include "tranutil.h"
  48:src/Sale.c    **** #include "hostmsg.h"
  49:src/Sale.c    **** #include "reversal.h"
  50:src/Sale.c    **** #include "offline.h"
  51:src/Sale.c    **** #include "emvtrans.h"
  52:src/Sale.c    **** #include "sale.h"
  53:src/Sale.c    **** 
  54:src/Sale.c    **** //*****************************************************************************
  55:src/Sale.c    **** //  Function        : OffHookState
  56:src/Sale.c    **** //  Description     : Reture TRUE if Phone is in Off Hook State.
  57:src/Sale.c    **** //                    (Off Hook or Speaker Phone On)
  58:src/Sale.c    **** //  Input           : N/A
  59:src/Sale.c    **** //  Return          : N/A
  60:src/Sale.c    **** //  Note            : N/A
  61:src/Sale.c    **** //  Globals Changed : N/A
  62:src/Sale.c    **** //*****************************************************************************
  63:src/Sale.c    **** static BOOLEAN OffHookState(void)
  64:src/Sale.c    **** {
  65:src/Sale.c    ****   DWORD status;
  66:src/Sale.c    ****   int handle;
  67:src/Sale.c    **** 
  68:src/Sale.c    ****   handle = APM_GetHwHandle(APM_SDEV_MDM);
  69:src/Sale.c    **** 
  70:src/Sale.c    ****   if (handle < 0) {
  71:src/Sale.c    ****     return FALSE;
  72:src/Sale.c    ****   }
  73:src/Sale.c    **** 
  74:src/Sale.c    ****   if (IOCtlMW(handle, IO_MDM_HSET_STS, 0)==1) {
  75:src/Sale.c    ****     return TRUE;
  76:src/Sale.c    ****   }
  77:src/Sale.c    **** 
  78:src/Sale.c    ****   status = IOCtlMW(handle, IO_MDM_GET_STATUS, 0);
  79:src/Sale.c    ****   if ((status == MWMDM_VoiceHs) || (status == MWMDM_VoiceFrSpPh) ||
  80:src/Sale.c    ****       (status == MWMDM_VoiceSpPh) || (status == MWMDM_VoiceSpPhFrHs) ) {
  81:src/Sale.c    ****     return TRUE;
  82:src/Sale.c    ****   }
  83:src/Sale.c    ****   return FALSE;
  84:src/Sale.c    **** }
  85:src/Sale.c    **** #if (R700)
  86:src/Sale.c    **** //*****************************************************************************
  87:src/Sale.c    **** //  Function        : SetSpeakerGain
  88:src/Sale.c    **** //  Description     : 
ARM GAS  C:\Users\AHMEDH~1\AppData\Local\Temp\cc7vPD4b.s 			page 3


  89:src/Sale.c    **** //  Input           : N/A
  90:src/Sale.c    **** //  Return          : N/A
  91:src/Sale.c    **** //  Note            : Gain may change after sending AT Cmd.
  92:src/Sale.c    **** //  Globals Changed : N/A
  93:src/Sale.c    **** //*****************************************************************************
  94:src/Sale.c    **** static void SetSpeakerGain(int aHandle, DWORD aGain)
  95:src/Sale.c    **** {
  96:src/Sale.c    ****   DWORD status = IOCtlMW(aHandle, IO_MDM_GET_STATUS, 0);
  97:src/Sale.c    **** 
  98:src/Sale.c    ****   if ((status == K_VoiceHs) || (status == K_VoiceFrSpPh)) {
  99:src/Sale.c    ****     IOCtlMW(aHandle, IO_MDM_SPR_GAIN, aGain);
 100:src/Sale.c    ****   }
 101:src/Sale.c    ****   else if ((status == K_VoiceSpPh) || (status == K_VoiceSpPhFrHs)) {
 102:src/Sale.c    ****     IOCtlMW(aHandle, IO_MDM_SPR_GAIN, aGain); 
 103:src/Sale.c    ****   }
 104:src/Sale.c    **** }
 105:src/Sale.c    **** #endif //(R700)
 106:src/Sale.c    **** //*****************************************************************************
 107:src/Sale.c    **** //  Function        : MakeVoiceCall
 108:src/Sale.c    **** //  Description     : Make Voice Call
 109:src/Sale.c    **** //  Input           : N/A
 110:src/Sale.c    **** //  Return          : N/A
 111:src/Sale.c    **** //  Note            : N/A
 112:src/Sale.c    **** //  Globals Changed : N/A
 113:src/Sale.c    **** //*****************************************************************************
 114:src/Sale.c    **** static void MakeVoiceCall(BYTE *aPhoneNum)
 115:src/Sale.c    **** {
 116:src/Sale.c    ****   int handle;
 117:src/Sale.c    ****   // int i;  // For R700-P
 118:src/Sale.c    **** 
 119:src/Sale.c    ****   handle = APM_GetHwHandle(APM_SDEV_MDM);
 120:src/Sale.c    ****   if (handle >= 0) {
 121:src/Sale.c    ****     #if (R700)
 122:src/Sale.c    ****     SetSpeakerGain(handle, 9*15);
 123:src/Sale.c    ****     #endif
 124:src/Sale.c    **** 
 125:src/Sale.c    ****     IOCtlMW(handle, IO_MDM_PHONE_DIAL, aPhoneNum);  // For R700
 126:src/Sale.c    **** 
 127:src/Sale.c    ****     #if (R700)
 128:src/Sale.c    ****     // For R700-P
 129:src/Sale.c    ****     //for (i = 0; i < strlen(aPhoneNum); i++) {
 130:src/Sale.c    ****     //  IOCtlMW(handle, IO_MDM_DIALCHAR, aPhoneNum[i]);
 131:src/Sale.c    ****     //}
 132:src/Sale.c    ****     SetSpeakerGain(handle, 9*15);
 133:src/Sale.c    ****     #endif
 134:src/Sale.c    ****   }
 135:src/Sale.c    **** }
 136:src/Sale.c    **** void ReferralCall(void)
 137:src/Sale.c    **** {
  27              		.loc 1 137 0
  28              		.cfi_startproc
  29              		@ args = 0, pretend = 0, frame = 0
  30              		@ frame_needed = 0, uses_anonymous_args = 0
  31 0000 37B5     		push	{r0, r1, r2, r4, r5, lr}
  32              		.cfi_def_cfa_offset 24
  33              		.cfi_offset 4, -12
  34              		.cfi_offset 5, -8
ARM GAS  C:\Users\AHMEDH~1\AppData\Local\Temp\cc7vPD4b.s 			page 4


  35              		.cfi_offset 14, -4
 138:src/Sale.c    ****   int handle;
 139:src/Sale.c    **** 
 140:src/Sale.c    ****   handle = APM_GetHwHandle(APM_SDEV_MDM);
  36              		.loc 1 140 0
  37 0002 0024     		movs	r4, #0
  38 0004 0522     		movs	r2, #5
  39 0006 0094     		str	r4, [sp]
  40 0008 1020     		movs	r0, #16
  41 000a 2146     		mov	r1, r4
  42 000c 2346     		mov	r3, r4
  43 000e FFF7FEFF 		bl	lib_app_call
  44              	.LVL0:
 141:src/Sale.c    ****   if (handle >= 0) {
  45              		.loc 1 141 0
  46 0012 021E     		subs	r2, r0, #0
  47 0014 49DB     		blt	.L2
 142:src/Sale.c    ****     IOCtlMW(handle, IO_MDM_SET_OPR_MODE, 21);  // set voice mode
  48              		.loc 1 142 0
  49 0016 1523     		movs	r3, #21
  50 0018 0721     		movs	r1, #7
  51 001a 0093     		str	r3, [sp]
  52 001c 0F20     		movs	r0, #15
  53              	.LVL1:
  54 001e 1323     		movs	r3, #19
  55 0020 FFF7FEFF 		bl	lib_app_call
  56              	.LVL2:
 143:src/Sale.c    ****     DispClrBelowMW(MW_LINE3);
  57              		.loc 1 143 0
  58 0024 2321     		movs	r1, #35
  59 0026 4FF44072 		mov	r2, #768
  60 002a 2346     		mov	r3, r4
  61 002c 0094     		str	r4, [sp]
  62 002e 0F20     		movs	r0, #15
  63 0030 FFF7FEFF 		bl	lib_app_call
  64              	.LVL3:
  65              	.LBB9:
 144:src/Sale.c    ****     DispLineMW("PLS LIFT HANDSET", MW_LINE5, MW_CENTER|MW_BIGFONT);
  66              		.loc 1 144 0
  67 0034 9220     		movs	r0, #146
  68 0036 1121     		movs	r1, #17
  69 0038 FFF7FEFF 		bl	sys_func1
  70              	.LVL4:
  71 003c 0546     		mov	r5, r0
  72 003e 90B1     		cbz	r0, .L14
  73              		.loc 1 144 0 is_stmt 0 discriminator 1
  74 0040 5249     		ldr	r1, .L28
  75 0042 1022     		movs	r2, #16
  76 0044 FFF7FEFF 		bl	memcpy
  77              	.LVL5:
  78 0048 41F20203 		movw	r3, #4098
  79 004c 2C74     		strb	r4, [r5, #16]
  80 004e 2521     		movs	r1, #37
  81 0050 0093     		str	r3, [sp]
  82 0052 0F20     		movs	r0, #15
  83 0054 2A46     		mov	r2, r5
  84 0056 4FF4A063 		mov	r3, #1280
ARM GAS  C:\Users\AHMEDH~1\AppData\Local\Temp\cc7vPD4b.s 			page 5


  85 005a FFF7FEFF 		bl	lib_app_call
  86              	.LVL6:
  87 005e 9420     		movs	r0, #148
  88 0060 2946     		mov	r1, r5
  89 0062 FFF7FEFF 		bl	sys_func1
  90              	.LVL7:
  91              	.L14:
  92              	.LBE9:
  93              	.LBB10:
  94              	.LBB11:
  68:src/Sale.c    **** 
  95              		.loc 1 68 0 is_stmt 1
  96 0066 0024     		movs	r4, #0
  97              	.LBE11:
  98              	.LBE10:
 145:src/Sale.c    ****     while (1) {
 146:src/Sale.c    ****       SleepMW();
  99              		.loc 1 146 0
 100 0068 4FF4CE70 		mov	r0, #412
 101 006c FFF7FEFF 		bl	sys_func0
 102              	.LVL8:
 103              	.LBB13:
 104              	.LBB12:
  68:src/Sale.c    **** 
 105              		.loc 1 68 0
 106 0070 0094     		str	r4, [sp]
 107 0072 1020     		movs	r0, #16
 108 0074 2146     		mov	r1, r4
 109 0076 0522     		movs	r2, #5
 110 0078 2346     		mov	r3, r4
 111 007a FFF7FEFF 		bl	lib_app_call
 112              	.LVL9:
  70:src/Sale.c    ****     return FALSE;
 113              		.loc 1 70 0
 114 007e 051E     		subs	r5, r0, #0
 115 0080 78DB     		blt	.L4
  74:src/Sale.c    ****     return TRUE;
 116              		.loc 1 74 0
 117 0082 0094     		str	r4, [sp]
 118 0084 0F20     		movs	r0, #15
 119              	.LVL10:
 120 0086 0721     		movs	r1, #7
 121 0088 2A46     		mov	r2, r5
 122 008a 0E23     		movs	r3, #14
 123 008c FFF7FEFF 		bl	lib_app_call
 124              	.LVL11:
 125 0090 0128     		cmp	r0, #1
 126 0092 28D0     		beq	.L5
  78:src/Sale.c    ****   if ((status == MWMDM_VoiceHs) || (status == MWMDM_VoiceFrSpPh) ||
 127              		.loc 1 78 0
 128 0094 0094     		str	r4, [sp]
 129 0096 0F20     		movs	r0, #15
 130 0098 0721     		movs	r1, #7
 131 009a 2A46     		mov	r2, r5
 132 009c 0B23     		movs	r3, #11
 133 009e FFF7FEFF 		bl	lib_app_call
 134              	.LVL12:
ARM GAS  C:\Users\AHMEDH~1\AppData\Local\Temp\cc7vPD4b.s 			page 6


  80:src/Sale.c    ****     return TRUE;
 135              		.loc 1 80 0
 136 00a2 2238     		subs	r0, r0, #34
 137              	.LVL13:
  79:src/Sale.c    ****       (status == MWMDM_VoiceSpPh) || (status == MWMDM_VoiceSpPhFrHs) ) {
 138              		.loc 1 79 0
 139 00a4 0328     		cmp	r0, #3
 140 00a6 65D8     		bhi	.L4
 141 00a8 1DE0     		b	.L5
 142              	.LVL14:
 143              	.L2:
 144              	.LBE12:
 145              	.LBE13:
 146              	.LBB14:
 147:src/Sale.c    ****       if (OffHookState()) {  // Handset in use
 148:src/Sale.c    ****         DispClrBelowMW(MW_LINE3);
 149:src/Sale.c    ****         DispLineMW("Dialing...      ", MW_LINE5, MW_CENTER|MW_BIGFONT);
 150:src/Sale.c    ****         break;
 151:src/Sale.c    ****       }
 152:src/Sale.c    ****       if (APM_GetKeyin() == MWKEY_CANCL)
 153:src/Sale.c    ****         return;
 154:src/Sale.c    ****     }
 155:src/Sale.c    ****     DispClrBelowMW(MW_LINE3);
 156:src/Sale.c    ****     MakeVoiceCall(STIS_ISS_TBL(0).sb_ref_tel_no);
 157:src/Sale.c    ****     while (os_kbd_getkey()==0) os_sleep();
 158:src/Sale.c    ****     return;
 159:src/Sale.c    ****   }
 160:src/Sale.c    ****   DispLineMW("Phone Error!", MW_LINE5, MW_CENTER|MW_BIGFONT);
 147              		.loc 1 160 0
 148 00aa 9220     		movs	r0, #146
 149              	.LVL15:
 150 00ac 0D21     		movs	r1, #13
 151 00ae FFF7FEFF 		bl	sys_func1
 152              	.LVL16:
 153 00b2 0546     		mov	r5, r0
 154 00b4 90B1     		cbz	r0, .L10
 155              		.loc 1 160 0 is_stmt 0 discriminator 1
 156 00b6 3649     		ldr	r1, .L28+4
 157 00b8 0C22     		movs	r2, #12
 158 00ba FFF7FEFF 		bl	memcpy
 159              	.LVL17:
 160 00be 41F20203 		movw	r3, #4098
 161 00c2 2C73     		strb	r4, [r5, #12]
 162 00c4 2521     		movs	r1, #37
 163 00c6 0093     		str	r3, [sp]
 164 00c8 0F20     		movs	r0, #15
 165 00ca 2A46     		mov	r2, r5
 166 00cc 4FF4A063 		mov	r3, #1280
 167 00d0 FFF7FEFF 		bl	lib_app_call
 168              	.LVL18:
 169 00d4 9420     		movs	r0, #148
 170 00d6 2946     		mov	r1, r5
 171 00d8 FFF7FEFF 		bl	sys_func1
 172              	.LVL19:
 173              	.L10:
 174              	.LBE14:
 161:src/Sale.c    ****   ErrorDelay();
ARM GAS  C:\Users\AHMEDH~1\AppData\Local\Temp\cc7vPD4b.s 			page 7


 162:src/Sale.c    **** }
 175              		.loc 1 162 0 is_stmt 1
 176 00dc 03B0     		add	sp, sp, #12
 177              		.cfi_remember_state
 178              		.cfi_def_cfa_offset 12
 179              		@ sp needed
 180 00de BDE83040 		pop	{r4, r5, lr}
 181              		.cfi_restore 14
 182              		.cfi_restore 5
 183              		.cfi_restore 4
 184              		.cfi_def_cfa_offset 0
 185              	.LVL20:
 161:src/Sale.c    ****   ErrorDelay();
 186              		.loc 1 161 0
 187 00e2 FFF7FEBF 		b	ErrorDelay
 188              	.LVL21:
 189              	.L5:
 190              		.cfi_restore_state
 148:src/Sale.c    ****         DispLineMW("Dialing...      ", MW_LINE5, MW_CENTER|MW_BIGFONT);
 191              		.loc 1 148 0
 192 00e6 0025     		movs	r5, #0
 193              	.LVL22:
 194 00e8 2321     		movs	r1, #35
 195 00ea 4FF44072 		mov	r2, #768
 196 00ee 2B46     		mov	r3, r5
 197 00f0 0095     		str	r5, [sp]
 198 00f2 0F20     		movs	r0, #15
 199 00f4 FFF7FEFF 		bl	lib_app_call
 200              	.LVL23:
 201              	.LBB15:
 149:src/Sale.c    ****         break;
 202              		.loc 1 149 0
 203 00f8 9220     		movs	r0, #146
 204 00fa 1121     		movs	r1, #17
 205 00fc FFF7FEFF 		bl	sys_func1
 206              	.LVL24:
 207 0100 0446     		mov	r4, r0
 208 0102 90B1     		cbz	r0, .L12
 149:src/Sale.c    ****         break;
 209              		.loc 1 149 0 is_stmt 0 discriminator 1
 210 0104 2349     		ldr	r1, .L28+8
 211 0106 1022     		movs	r2, #16
 212 0108 FFF7FEFF 		bl	memcpy
 213              	.LVL25:
 214 010c 41F20203 		movw	r3, #4098
 215 0110 2574     		strb	r5, [r4, #16]
 216 0112 2521     		movs	r1, #37
 217 0114 0093     		str	r3, [sp]
 218 0116 0F20     		movs	r0, #15
 219 0118 2246     		mov	r2, r4
 220 011a 4FF4A063 		mov	r3, #1280
 221 011e FFF7FEFF 		bl	lib_app_call
 222              	.LVL26:
 223 0122 9420     		movs	r0, #148
 224 0124 2146     		mov	r1, r4
 225 0126 FFF7FEFF 		bl	sys_func1
 226              	.LVL27:
ARM GAS  C:\Users\AHMEDH~1\AppData\Local\Temp\cc7vPD4b.s 			page 8


 227              	.L12:
 228              	.LBE15:
 155:src/Sale.c    ****     MakeVoiceCall(STIS_ISS_TBL(0).sb_ref_tel_no);
 229              		.loc 1 155 0 is_stmt 1
 230 012a 0024     		movs	r4, #0
 231              	.LVL28:
 232 012c 2321     		movs	r1, #35
 233 012e 4FF44072 		mov	r2, #768
 234 0132 2346     		mov	r3, r4
 235 0134 0094     		str	r4, [sp]
 236 0136 0F20     		movs	r0, #15
 237 0138 FFF7FEFF 		bl	lib_app_call
 238              	.LVL29:
 156:src/Sale.c    ****     while (os_kbd_getkey()==0) os_sleep();
 239              		.loc 1 156 0
 240 013c 164B     		ldr	r3, .L28+12
 241              	.LBB16:
 242              	.LBB17:
 119:src/Sale.c    ****   if (handle >= 0) {
 243              		.loc 1 119 0
 244 013e 0522     		movs	r2, #5
 245              	.LBE17:
 246              	.LBE16:
 156:src/Sale.c    ****     while (os_kbd_getkey()==0) os_sleep();
 247              		.loc 1 156 0
 248 0140 1D68     		ldr	r5, [r3]
 249              	.LVL30:
 250              	.LBB20:
 251              	.LBB18:
 119:src/Sale.c    ****   if (handle >= 0) {
 252              		.loc 1 119 0
 253 0142 1020     		movs	r0, #16
 254 0144 0094     		str	r4, [sp]
 255 0146 2146     		mov	r1, r4
 256 0148 2346     		mov	r3, r4
 257 014a FFF7FEFF 		bl	lib_app_call
 258              	.LVL31:
 120:src/Sale.c    ****     #if (R700)
 259              		.loc 1 120 0
 260 014e 021E     		subs	r2, r0, #0
 261 0150 07DB     		blt	.L7
 262              	.LBE18:
 263              	.LBE20:
 156:src/Sale.c    ****     while (os_kbd_getkey()==0) os_sleep();
 264              		.loc 1 156 0
 265 0152 05F2AB45 		addw	r5, r5, #1195
 266              	.LVL32:
 267              	.LBB21:
 268              	.LBB19:
 125:src/Sale.c    **** 
 269              		.loc 1 125 0
 270 0156 0F20     		movs	r0, #15
 271              	.LVL33:
 272 0158 0095     		str	r5, [sp]
 273 015a 0721     		movs	r1, #7
 274 015c 0623     		movs	r3, #6
 275 015e FFF7FEFF 		bl	lib_app_call
ARM GAS  C:\Users\AHMEDH~1\AppData\Local\Temp\cc7vPD4b.s 			page 9


 276              	.LVL34:
 277              	.L7:
 278              	.LBE19:
 279              	.LBE21:
 157:src/Sale.c    ****     return;
 280              		.loc 1 157 0 discriminator 1
 281 0162 0720     		movs	r0, #7
 282 0164 FFF7FEFF 		bl	sys_func0
 283              	.LVL35:
 284 0168 70B9     		cbnz	r0, .L1
 157:src/Sale.c    ****     return;
 285              		.loc 1 157 0 is_stmt 0 discriminator 2
 286 016a 4FF4CE70 		mov	r0, #412
 287 016e FFF7FEFF 		bl	sys_func0
 288              	.LVL36:
 289 0172 F6E7     		b	.L7
 290              	.LVL37:
 291              	.L4:
 152:src/Sale.c    ****         return;
 292              		.loc 1 152 0 is_stmt 1
 293 0174 0022     		movs	r2, #0
 294 0176 1020     		movs	r0, #16
 295 0178 0092     		str	r2, [sp]
 296 017a 0221     		movs	r1, #2
 297 017c 1346     		mov	r3, r2
 298 017e FFF7FEFF 		bl	lib_app_call
 299              	.LVL38:
 300 0182 1128     		cmp	r0, #17
 301 0184 7FF46FAF 		bne	.L14
 302              	.LVL39:
 303              	.L1:
 304              		.loc 1 162 0
 305 0188 03B0     		add	sp, sp, #12
 306              		.cfi_def_cfa_offset 12
 307              		@ sp needed
 308 018a 30BD     		pop	{r4, r5, pc}
 309              	.L29:
 310              		.align	2
 311              	.L28:
 312 018c 00000000 		.word	.LC0
 313 0190 22000000 		.word	.LC2
 314 0194 11000000 		.word	.LC1
 315 0198 00000000 		.word	gGDS
 316              		.cfi_endproc
 317              	.LFE2:
 318              		.size	ReferralCall, .-ReferralCall
 319              		.section	.text.ReferralProcess,"ax",%progbits
 320              		.align	1
 321              		.global	ReferralProcess
 322              		.thumb
 323              		.thumb_func
 324              		.type	ReferralProcess, %function
 325              	ReferralProcess:
 326              	.LFB3:
 163:src/Sale.c    **** //*****************************************************************************
 164:src/Sale.c    **** //  Function        : ReferralProcess
 165:src/Sale.c    **** //  Description     : Process referral response.
ARM GAS  C:\Users\AHMEDH~1\AppData\Local\Temp\cc7vPD4b.s 			page 10


 166:src/Sale.c    **** //  Input           : N/A
 167:src/Sale.c    **** //  return          : N/A
 168:src/Sale.c    **** //  Note            : N/A
 169:src/Sale.c    **** //  Globals Changed : N/A
 170:src/Sale.c    **** //*****************************************************************************
 171:src/Sale.c    **** void ReferralProcess(void)
 172:src/Sale.c    **** {
 327              		.loc 1 172 0
 328              		.cfi_startproc
 329              		@ args = 0, pretend = 0, frame = 32
 330              		@ frame_needed = 0, uses_anonymous_args = 0
 331 0000 70B5     		push	{r4, r5, r6, lr}
 332              		.cfi_def_cfa_offset 16
 333              		.cfi_offset 4, -16
 334              		.cfi_offset 5, -12
 335              		.cfi_offset 6, -8
 336              		.cfi_offset 14, -4
 337 0002 8AB0     		sub	sp, sp, #40
 338              		.cfi_def_cfa_offset 56
 173:src/Sale.c    ****   BYTE tmpbuf[MW_MAX_LINESIZE+1];
 174:src/Sale.c    **** 
 175:src/Sale.c    ****   PackRspText();
 339              		.loc 1 175 0
 340 0004 FFF7FEFF 		bl	PackRspText
 341              	.LVL40:
 176:src/Sale.c    ****   memcpy(tmpbuf, &RSP_DATA.text[1], 16);
 177:src/Sale.c    ****   tmpbuf[16]=0;
 342              		.loc 1 177 0
 343 0008 0026     		movs	r6, #0
 176:src/Sale.c    ****   memcpy(tmpbuf, &RSP_DATA.text[1], 16);
 344              		.loc 1 176 0
 345 000a 3549     		ldr	r1, .L42
 346 000c 1022     		movs	r2, #16
 347 000e 03A8     		add	r0, sp, #12
 348 0010 FFF7FEFF 		bl	memcpy
 349              	.LVL41:
 350              	.LBB22:
 178:src/Sale.c    ****   DispLineMW(tmpbuf, MW_LINE1, MW_CENTER|MW_BIGFONT);
 351              		.loc 1 178 0
 352 0014 03A8     		add	r0, sp, #12
 353              	.LBE22:
 177:src/Sale.c    ****   DispLineMW(tmpbuf, MW_LINE1, MW_CENTER|MW_BIGFONT);
 354              		.loc 1 177 0
 355 0016 8DF81C60 		strb	r6, [sp, #28]
 356              	.LBB23:
 357              		.loc 1 178 0
 358 001a FFF7FEFF 		bl	strlen
 359              	.LVL42:
 360 001e 0546     		mov	r5, r0
 361              	.LVL43:
 362 0020 691C     		adds	r1, r5, #1
 363 0022 9220     		movs	r0, #146
 364              	.LVL44:
 365 0024 FFF7FEFF 		bl	sys_func1
 366              	.LVL45:
 367 0028 0446     		mov	r4, r0
 368 002a 90B1     		cbz	r0, .L31
ARM GAS  C:\Users\AHMEDH~1\AppData\Local\Temp\cc7vPD4b.s 			page 11


 369              		.loc 1 178 0 is_stmt 0 discriminator 1
 370 002c 03A9     		add	r1, sp, #12
 371 002e 2A46     		mov	r2, r5
 372 0030 FFF7FEFF 		bl	memcpy
 373              	.LVL46:
 374 0034 41F20203 		movw	r3, #4098
 375 0038 6655     		strb	r6, [r4, r5]
 376 003a 2521     		movs	r1, #37
 377 003c 0093     		str	r3, [sp]
 378 003e 0F20     		movs	r0, #15
 379 0040 2246     		mov	r2, r4
 380 0042 4FF48073 		mov	r3, #256
 381 0046 FFF7FEFF 		bl	lib_app_call
 382              	.LVL47:
 383 004a 9420     		movs	r0, #148
 384 004c 2146     		mov	r1, r4
 385 004e FFF7FEFF 		bl	sys_func1
 386              	.LVL48:
 387              	.L31:
 388              	.LBE23:
 179:src/Sale.c    ****   LongBeep();
 180:src/Sale.c    **** 
 181:src/Sale.c    ****   APM_ResetComm();
 389              		.loc 1 181 0 is_stmt 1
 390 0052 0025     		movs	r5, #0
 391              	.LVL49:
 179:src/Sale.c    ****   LongBeep();
 392              		.loc 1 179 0
 393 0054 FFF7FEFF 		bl	LongBeep
 394              	.LVL50:
 395              		.loc 1 181 0
 396 0058 2B46     		mov	r3, r5
 397 005a 0095     		str	r5, [sp]
 398 005c 1020     		movs	r0, #16
 399 005e 0D21     		movs	r1, #13
 400 0060 2A46     		mov	r2, r5
 401 0062 FFF7FEFF 		bl	lib_app_call
 402              	.LVL51:
 182:src/Sale.c    ****   RSP_DATA.w_rspcode = 'C'*256+'N';
 403              		.loc 1 182 0
 404 0066 1F4C     		ldr	r4, .L42+4
 405              	.LVL52:
 406 0068 44F24E33 		movw	r3, #17230
 183:src/Sale.c    ****   RSP_DATA.text[0] = 0;
 407              		.loc 1 183 0
 408 006c 84F80157 		strb	r5, [r4, #1793]
 182:src/Sale.c    ****   RSP_DATA.w_rspcode = 'C'*256+'N';
 409              		.loc 1 182 0
 410 0070 A4F86E35 		strh	r3, [r4, #1390]	@ movhi
 184:src/Sale.c    **** 
 185:src/Sale.c    ****   if (ReferralDial()) {
 411              		.loc 1 185 0
 412 0074 FFF7FEFF 		bl	ReferralDial
 413              	.LVL53:
 414 0078 08B1     		cbz	r0, .L32
 186:src/Sale.c    ****     ReferralCall();
 415              		.loc 1 186 0
ARM GAS  C:\Users\AHMEDH~1\AppData\Local\Temp\cc7vPD4b.s 			page 12


 416 007a FFF7FEFF 		bl	ReferralCall
 417              	.LVL54:
 418              	.L32:
 187:src/Sale.c    ****   }
 188:src/Sale.c    **** 
 189:src/Sale.c    ****   if (GetAuthCode()) {
 419              		.loc 1 189 0
 420 007e FFF7FEFF 		bl	GetAuthCode
 421              	.LVL55:
 422 0082 194B     		ldr	r3, .L42+8
 423 0084 E8B1     		cbz	r0, .L33
 190:src/Sale.c    ****     if (INPUT.b_trans >= SALE_SWIPE) {
 424              		.loc 1 190 0
 425 0086 2178     		ldrb	r1, [r4]	@ zero_extendqisi2
 426 0088 164A     		ldr	r2, .L42+4
 427 008a 0129     		cmp	r1, #1
 191:src/Sale.c    ****       INPUT.b_trans = SALE_COMPLETE;
 428              		.loc 1 191 0
 429 008c 88BF     		it	hi
 430 008e 0821     		movhi	r1, #8
 192:src/Sale.c    ****       INPUT.b_trans_status = OFFLINE;
 193:src/Sale.c    ****     }
 194:src/Sale.c    **** 
 195:src/Sale.c    ****     DispHeader(STIS_ISS_TBL(0).sb_card_name);
 431              		.loc 1 195 0
 432 0090 1868     		ldr	r0, [r3]
 191:src/Sale.c    ****       INPUT.b_trans = SALE_COMPLETE;
 433              		.loc 1 191 0
 434 0092 84BF     		itt	hi
 435 0094 1170     		strbhi	r1, [r2]
 192:src/Sale.c    ****       INPUT.b_trans_status = OFFLINE;
 436              		.loc 1 192 0
 437 0096 8021     		movhi	r1, #128
 438              		.loc 1 195 0
 439 0098 00F2A140 		addw	r0, r0, #1185
 192:src/Sale.c    ****       INPUT.b_trans_status = OFFLINE;
 440              		.loc 1 192 0
 441 009c 88BF     		it	hi
 442 009e 5170     		strbhi	r1, [r2, #1]
 443              		.loc 1 195 0
 444 00a0 FFF7FEFF 		bl	DispHeader
 445              	.LVL56:
 196:src/Sale.c    ****     RSP_DATA.b_response = TRANS_ACP;
 446              		.loc 1 196 0
 447 00a4 0023     		movs	r3, #0
 448 00a6 84F80037 		strb	r3, [r4, #1792]
 197:src/Sale.c    ****     PackDTGAA();
 449              		.loc 1 197 0
 450 00aa FFF7FEFF 		bl	PackDTGAA
 451              	.LVL57:
 198:src/Sale.c    ****     PackInputP();
 452              		.loc 1 198 0
 453 00ae FFF7FEFF 		bl	PackInputP
 454              	.LVL58:
 199:src/Sale.c    ****     IncTraceNo();
 455              		.loc 1 199 0
 456 00b2 FFF7FEFF 		bl	IncTraceNo
ARM GAS  C:\Users\AHMEDH~1\AppData\Local\Temp\cc7vPD4b.s 			page 13


 457              	.LVL59:
 200:src/Sale.c    ****     if (INPUT.b_trans >= SALE_SWIPE)
 458              		.loc 1 200 0
 459 00b6 2378     		ldrb	r3, [r4]	@ zero_extendqisi2
 460 00b8 012B     		cmp	r3, #1
 461 00ba 07D9     		bls	.L35
 201:src/Sale.c    ****       SaveRecord();
 462              		.loc 1 201 0
 463 00bc FFF7FEFF 		bl	SaveRecord
 464              	.LVL60:
 465 00c0 04E0     		b	.L35
 466              	.L33:
 202:src/Sale.c    ****   }
 203:src/Sale.c    ****   else
 204:src/Sale.c    ****     DispHeader(STIS_ISS_TBL(0).sb_card_name);
 467              		.loc 1 204 0
 468 00c2 1868     		ldr	r0, [r3]
 469 00c4 00F2A140 		addw	r0, r0, #1185
 470 00c8 FFF7FEFF 		bl	DispHeader
 471              	.LVL61:
 472              	.L35:
 205:src/Sale.c    ****   TransEnd((BOOLEAN)(RSP_DATA.b_response == TRANS_ACP));
 473              		.loc 1 205 0
 474 00cc 94F80007 		ldrb	r0, [r4, #1792]	@ zero_extendqisi2
 475 00d0 B0FA80F0 		clz	r0, r0
 476 00d4 4009     		lsrs	r0, r0, #5
 477 00d6 FFF7FEFF 		bl	TransEnd
 478              	.LVL62:
 206:src/Sale.c    **** }
 479              		.loc 1 206 0
 480 00da 0AB0     		add	sp, sp, #40
 481              		.cfi_def_cfa_offset 16
 482              		@ sp needed
 483 00dc 70BD     		pop	{r4, r5, r6, pc}
 484              	.L43:
 485 00de 00BF     		.align	2
 486              	.L42:
 487 00e0 02070000 		.word	gGTS+1794
 488 00e4 00000000 		.word	gGTS
 489 00e8 00000000 		.word	gGDS
 490              		.cfi_endproc
 491              	.LFE3:
 492              		.size	ReferralProcess, .-ReferralProcess
 493              		.section	.text.SaleTrans,"ax",%progbits
 494              		.align	1
 495              		.global	SaleTrans
 496              		.thumb
 497              		.thumb_func
 498              		.type	SaleTrans, %function
 499              	SaleTrans:
 500              	.LFB4:
 207:src/Sale.c    **** //*****************************************************************************
 208:src/Sale.c    **** //  Function        : SaleTrans
 209:src/Sale.c    **** //  Description     : Do Online Sale transaction.
 210:src/Sale.c    **** //  Input           : aInputMode;       // Transaction start mode
 211:src/Sale.c    **** //  return          : N/A
 212:src/Sale.c    **** //  Note            : N/A
ARM GAS  C:\Users\AHMEDH~1\AppData\Local\Temp\cc7vPD4b.s 			page 14


 213:src/Sale.c    **** //  Globals Changed : N/A
 214:src/Sale.c    **** //*****************************************************************************
 215:src/Sale.c    **** DWORD SaleTrans(DWORD aInputMode)
 216:src/Sale.c    **** {
 501              		.loc 1 216 0
 502              		.cfi_startproc
 503              		@ args = 0, pretend = 0, frame = 0
 504              		@ frame_needed = 0, uses_anonymous_args = 0
 505              	.LVL63:
 506 0000 F7B5     		push	{r0, r1, r2, r4, r5, r6, r7, lr}
 507              		.cfi_def_cfa_offset 32
 508              		.cfi_offset 4, -20
 509              		.cfi_offset 5, -16
 510              		.cfi_offset 6, -12
 511              		.cfi_offset 7, -8
 512              		.cfi_offset 14, -4
 217:src/Sale.c    ****   INPUT.b_trans = SALE_SWIPE;
 513              		.loc 1 217 0
 514 0002 0223     		movs	r3, #2
 515 0004 524C     		ldr	r4, .L74
 216:src/Sale.c    ****   INPUT.b_trans = SALE_SWIPE;
 516              		.loc 1 216 0
 517 0006 0646     		mov	r6, r0
 218:src/Sale.c    **** 
 219:src/Sale.c    ****   DispHeader(NULL);
 518              		.loc 1 219 0
 519 0008 0020     		movs	r0, #0
 520              	.LVL64:
 217:src/Sale.c    **** 
 521              		.loc 1 217 0
 522 000a 2370     		strb	r3, [r4]
 523              		.loc 1 219 0
 524 000c FFF7FEFF 		bl	DispHeader
 525              	.LVL65:
 220:src/Sale.c    **** 
 221:src/Sale.c    ****   if (!TransAllowed(aInputMode)) {
 526              		.loc 1 221 0
 527 0010 3046     		mov	r0, r6
 528 0012 FFF7FEFF 		bl	TransAllowed
 529              	.LVL66:
 530 0016 10B9     		cbnz	r0, .L45
 222:src/Sale.c    ****     RefreshDispAfter(0);
 531              		.loc 1 222 0
 532 0018 FFF7FEFF 		bl	RefreshDispAfter
 533              	.LVL67:
 534 001c 8CE0     		b	.L72
 535              	.L45:
 223:src/Sale.c    ****     return FALSE;
 224:src/Sale.c    ****   }
 225:src/Sale.c    **** 
 226:src/Sale.c    ****   if (aInputMode == MANUAL)
 536              		.loc 1 226 0
 537 001e 4D2E     		cmp	r6, #77
 227:src/Sale.c    ****     INPUT.b_trans = SALE_MANUAL;
 538              		.loc 1 227 0
 539 0020 08BF     		it	eq
 540 0022 0323     		moveq	r3, #3
ARM GAS  C:\Users\AHMEDH~1\AppData\Local\Temp\cc7vPD4b.s 			page 15


 228:src/Sale.c    **** 
 229:src/Sale.c    ****   if (UnderFloorLimit(INPUT.dd_amount) && (!INPUT.b_card_expired) &&
 541              		.loc 1 229 0
 542 0024 D4E90601 		ldrd	r0, [r4, #24]
 227:src/Sale.c    ****     INPUT.b_trans = SALE_MANUAL;
 543              		.loc 1 227 0
 544 0028 08BF     		it	eq
 545 002a 2370     		strbeq	r3, [r4]
 546              		.loc 1 229 0
 547 002c 484D     		ldr	r5, .L74
 548 002e FFF7FEFF 		bl	UnderFloorLimit
 549              	.LVL68:
 550 0032 08B3     		cbz	r0, .L48
 551              		.loc 1 229 0 is_stmt 0 discriminator 1
 552 0034 95F8F672 		ldrb	r7, [r5, #758]	@ zero_extendqisi2
 553 0038 F7B9     		cbnz	r7, .L48
 554              		.loc 1 229 0 discriminator 2
 555 003a 462E     		cmp	r6, #70
 556 003c 1CD0     		beq	.L48
 230:src/Sale.c    ****       (aInputMode != FALLBACK)) {
 231:src/Sale.c    ****     INPUT.b_trans = SALE_UNDER_LMT;
 557              		.loc 1 231 0 is_stmt 1
 558 003e 0923     		movs	r3, #9
 232:src/Sale.c    ****     SetRspCode('0'*256 + '0');
 559              		.loc 1 232 0
 560 0040 43F23000 		movw	r0, #12336
 231:src/Sale.c    ****     SetRspCode('0'*256 + '0');
 561              		.loc 1 231 0
 562 0044 2B70     		strb	r3, [r5]
 563              		.loc 1 232 0
 564 0046 FFF7FEFF 		bl	SetRspCode
 565              	.LVL69:
 233:src/Sale.c    ****     RSP_DATA.b_response = TRANS_ACP;
 234:src/Sale.c    ****     GenAuthCode(RSP_DATA.sb_auth_code);
 566              		.loc 1 234 0
 567 004a 4248     		ldr	r0, .L74+4
 233:src/Sale.c    ****     RSP_DATA.b_response = TRANS_ACP;
 568              		.loc 1 233 0
 569 004c 85F80077 		strb	r7, [r5, #1792]
 570              		.loc 1 234 0
 571 0050 FFF7FEFF 		bl	GenAuthCode
 572              	.LVL70:
 235:src/Sale.c    ****     if (BlockAuthCode())
 573              		.loc 1 235 0
 574 0054 FFF7FEFF 		bl	BlockAuthCode
 575              	.LVL71:
 576 0058 20B1     		cbz	r0, .L49
 236:src/Sale.c    ****       memset(RSP_DATA.sb_auth_code, ' ', 6);
 577              		.loc 1 236 0
 578 005a 3E48     		ldr	r0, .L74+4
 579 005c 2021     		movs	r1, #32
 580 005e 0622     		movs	r2, #6
 581 0060 FFF7FEFF 		bl	memset
 582              	.LVL72:
 583              	.L49:
 237:src/Sale.c    ****     PackDTGAA();
 584              		.loc 1 237 0
ARM GAS  C:\Users\AHMEDH~1\AppData\Local\Temp\cc7vPD4b.s 			page 16


 585 0064 FFF7FEFF 		bl	PackDTGAA
 586              	.LVL73:
 238:src/Sale.c    ****     IncTraceNoEND();
 587              		.loc 1 238 0
 588 0068 FFF7FEFF 		bl	IncTraceNoEND
 589              	.LVL74:
 239:src/Sale.c    ****     SaveOfflRecord();   //17-12-12 JC ++
 590              		.loc 1 239 0
 591 006c FFF7FEFF 		bl	SaveOfflRecord
 592              	.LVL75:
 240:src/Sale.c    ****     PackInputP();
 593              		.loc 1 240 0
 594 0070 FFF7FEFF 		bl	PackInputP
 595              	.LVL76:
 241:src/Sale.c    ****     TransEnd(TRUE);
 596              		.loc 1 241 0
 597 0074 0120     		movs	r0, #1
 598 0076 66E0     		b	.L73
 599              	.L48:
 242:src/Sale.c    ****     return TRUE;
 243:src/Sale.c    ****   }
 244:src/Sale.c    **** 
 245:src/Sale.c    ****   ClearResponse();
 246:src/Sale.c    ****   //PackComm(INPUT.w_host_idx, FALSE);
 247:src/Sale.c    ****   if ((RSP_DATA.w_rspcode = APM_ConnectOK(FALSE)) == COMM_OK) {
 600              		.loc 1 247 0
 601 0078 0025     		movs	r5, #0
 245:src/Sale.c    ****   //PackComm(INPUT.w_host_idx, FALSE);
 602              		.loc 1 245 0
 603 007a FFF7FEFF 		bl	ClearResponse
 604              	.LVL77:
 605              		.loc 1 247 0
 606 007e 2B46     		mov	r3, r5
 607 0080 0095     		str	r5, [sp]
 608 0082 1020     		movs	r0, #16
 609 0084 0A21     		movs	r1, #10
 610 0086 2A46     		mov	r2, r5
 611 0088 FFF7FEFF 		bl	lib_app_call
 612              	.LVL78:
 613 008c 43F23003 		movw	r3, #12336
 614 0090 2F4E     		ldr	r6, .L74
 615              	.LVL79:
 616 0092 87B2     		uxth	r7, r0
 617 0094 9F42     		cmp	r7, r3
 618 0096 A4F86E75 		strh	r7, [r4, #1390]	@ movhi
 619 009a 4FD1     		bne	.L56
 248:src/Sale.c    ****     if (ReversalOK()) {
 620              		.loc 1 248 0
 621 009c FFF7FEFF 		bl	ReversalOK
 622              	.LVL80:
 623 00a0 0028     		cmp	r0, #0
 624 00a2 4BD0     		beq	.L56
 249:src/Sale.c    ****       OfflineSent(0);
 625              		.loc 1 249 0
 626 00a4 2846     		mov	r0, r5
 627 00a6 FFF7FEFF 		bl	OfflineSent
 628              	.LVL81:
ARM GAS  C:\Users\AHMEDH~1\AppData\Local\Temp\cc7vPD4b.s 			page 17


 250:src/Sale.c    ****       IncTraceNoEND();
 629              		.loc 1 250 0
 630 00aa FFF7FEFF 		bl	IncTraceNoEND
 631              	.LVL82:
 251:src/Sale.c    ****       MoveInput2Tx();
 632              		.loc 1 251 0
 633 00ae FFF7FEFF 		bl	MoveInput2Tx
 634              	.LVL83:
 252:src/Sale.c    ****       PackProcCode(TX_DATA.b_trans,0xFF);
 635              		.loc 1 252 0
 636 00b2 FF21     		movs	r1, #255
 637 00b4 96F80003 		ldrb	r0, [r6, #768]	@ zero_extendqisi2
 638 00b8 FFF7FEFF 		bl	PackProcCode
 639              	.LVL84:
 253:src/Sale.c    ****       PackHostMsg();
 640              		.loc 1 253 0
 641 00bc FFF7FEFF 		bl	PackHostMsg
 642              	.LVL85:
 254:src/Sale.c    ****       UpdateHostStatus(REV_PENDING);
 643              		.loc 1 254 0
 644 00c0 0120     		movs	r0, #1
 645 00c2 FFF7FEFF 		bl	UpdateHostStatus
 646              	.LVL86:
 255:src/Sale.c    **** 
 256:src/Sale.c    ****       ClearResponse();
 647              		.loc 1 256 0
 648 00c6 FFF7FEFF 		bl	ClearResponse
 649              	.LVL87:
 257:src/Sale.c    ****       if ((RSP_DATA.w_rspcode=APM_SendRcvd(&TX_BUF, &RX_BUF))==COMM_OK) {
 650              		.loc 1 257 0
 651 00ca 234B     		ldr	r3, .L74+8
 652 00cc 1020     		movs	r0, #16
 653 00ce 1B68     		ldr	r3, [r3]
 654 00d0 0B21     		movs	r1, #11
 655 00d2 03F5CC52 		add	r2, r3, #6528
 656 00d6 03F51653 		add	r3, r3, #9600
 657 00da 0095     		str	r5, [sp]
 658 00dc 1C32     		adds	r2, r2, #28
 659 00de 2033     		adds	r3, r3, #32
 660 00e0 FFF7FEFF 		bl	lib_app_call
 661              	.LVL88:
 662 00e4 80B2     		uxth	r0, r0
 663 00e6 B842     		cmp	r0, r7
 664 00e8 A6F86E05 		strh	r0, [r6, #1390]	@ movhi
 665 00ec 08D1     		bne	.L52
 258:src/Sale.c    ****         RSP_DATA.b_response = CheckHostRsp();
 666              		.loc 1 258 0
 667 00ee FFF7FEFF 		bl	CheckHostRsp
 668              	.LVL89:
 259:src/Sale.c    ****         if (RSP_DATA.b_response <= TRANS_REJ)
 669              		.loc 1 259 0
 670 00f2 0128     		cmp	r0, #1
 258:src/Sale.c    ****         RSP_DATA.b_response = CheckHostRsp();
 671              		.loc 1 258 0
 672 00f4 86F80007 		strb	r0, [r6, #1792]
 673              		.loc 1 259 0
 674 00f8 02D8     		bhi	.L52
ARM GAS  C:\Users\AHMEDH~1\AppData\Local\Temp\cc7vPD4b.s 			page 18


 260:src/Sale.c    ****           UpdateHostStatus(NO_PENDING);
 675              		.loc 1 260 0
 676 00fa 2846     		mov	r0, r5
 677 00fc FFF7FEFF 		bl	UpdateHostStatus
 678              	.LVL90:
 679              	.L52:
 261:src/Sale.c    ****       }
 262:src/Sale.c    ****       //SaveTraceNo();
 263:src/Sale.c    ****       if (RSP_DATA.b_response == TRANS_ACP) {
 680              		.loc 1 263 0
 681 0100 94F80027 		ldrb	r2, [r4, #1792]	@ zero_extendqisi2
 682 0104 124B     		ldr	r3, .L74
 683 0106 72B9     		cbnz	r2, .L54
 264:src/Sale.c    ****         if (RSP_DATA.w_rspcode == '0'*256+'0')
 684              		.loc 1 264 0
 685 0108 B3F86E15 		ldrh	r1, [r3, #1390]
 686 010c 43F23002 		movw	r2, #12336
 687 0110 9142     		cmp	r1, r2
 265:src/Sale.c    ****           RSP_DATA.w_rspcode = 'A'*256+'P';
 688              		.loc 1 265 0
 689 0112 04BF     		itt	eq
 690 0114 02F58952 		addeq	r2, r2, #4384
 691 0118 A3F86E25 		strheq	r2, [r3, #1390]	@ movhi
 266:src/Sale.c    ****         SaveRecord();
 692              		.loc 1 266 0
 693 011c FFF7FEFF 		bl	SaveRecord
 694              	.LVL91:
 267:src/Sale.c    ****         PackInputP();
 695              		.loc 1 267 0
 696 0120 FFF7FEFF 		bl	PackInputP
 697              	.LVL92:
 698 0124 0AE0     		b	.L56
 699              	.L54:
 268:src/Sale.c    ****       }
 269:src/Sale.c    ****       else
 270:src/Sale.c    ****         if (RSP_DATA.b_response == TRANS_REJ) {
 700              		.loc 1 270 0
 701 0126 012A     		cmp	r2, #1
 702 0128 08D1     		bne	.L56
 271:src/Sale.c    ****           if (VoiceReferral(RSP_DATA.w_rspcode)) {
 703              		.loc 1 271 0
 704 012a B3F86E05 		ldrh	r0, [r3, #1390]
 705 012e FFF7FEFF 		bl	VoiceReferral
 706              	.LVL93:
 707 0132 18B1     		cbz	r0, .L56
 272:src/Sale.c    ****             ReferralProcess();
 708              		.loc 1 272 0
 709 0134 FFF7FEFF 		bl	ReferralProcess
 710              	.LVL94:
 711              	.L72:
 273:src/Sale.c    ****             return FALSE;
 712              		.loc 1 273 0
 713 0138 0020     		movs	r0, #0
 714 013a 07E0     		b	.L46
 715              	.L56:
 274:src/Sale.c    ****           }
 275:src/Sale.c    ****         }
ARM GAS  C:\Users\AHMEDH~1\AppData\Local\Temp\cc7vPD4b.s 			page 19


 276:src/Sale.c    ****     }
 277:src/Sale.c    ****   }
 278:src/Sale.c    ****   TransEnd((BOOLEAN)(RSP_DATA.b_response == TRANS_ACP));
 716              		.loc 1 278 0
 717 013c 94F80007 		ldrb	r0, [r4, #1792]	@ zero_extendqisi2
 718 0140 B0FA80F0 		clz	r0, r0
 719 0144 4009     		lsrs	r0, r0, #5
 720              	.L73:
 721 0146 FFF7FEFF 		bl	TransEnd
 722              	.LVL95:
 279:src/Sale.c    ****   return TRUE;
 723              		.loc 1 279 0
 724 014a 0120     		movs	r0, #1
 725              	.L46:
 280:src/Sale.c    **** }
 726              		.loc 1 280 0
 727 014c 03B0     		add	sp, sp, #12
 728              		.cfi_def_cfa_offset 20
 729              		@ sp needed
 730 014e F0BD     		pop	{r4, r5, r6, r7, pc}
 731              	.L75:
 732              		.align	2
 733              	.L74:
 734 0150 00000000 		.word	gGTS
 735 0154 67050000 		.word	gGTS+1383
 736 0158 00000000 		.word	gGDS
 737              		.cfi_endproc
 738              	.LFE4:
 739              		.size	SaleTrans, .-SaleTrans
 740              		.section	.rodata.str1.1,"aMS",%progbits,1
 741              	.LC0:
 742 0000 504C5320 		.ascii	"PLS LIFT HANDSET\000"
 742      4C494654 
 742      2048414E 
 742      44534554 
 742      00
 743              	.LC1:
 744 0011 4469616C 		.ascii	"Dialing...      \000"
 744      696E672E 
 744      2E2E2020 
 744      20202020 
 744      00
 745              	.LC2:
 746 0022 50686F6E 		.ascii	"Phone Error!\000"
 746      65204572 
 746      726F7221 
 746      00
 747              		.text
 748              	.Letext0:
 749              		.file 2 "c:\\devtools\\gcc_v49_2014q4\\lib\\gcc\\arm-none-eabi\\4.9.3\\include\\stddef.h"
 750              		.file 3 "../LibA5T1000/common.h"
 751              		.file 4 "src/sysutil.h"
 752              		.file 5 "../LibA5T1000/emv2dll.h"
 753              		.file 6 "../LibA5T1000/emvcl2dll.h"
 754              		.file 7 "../LibA5T1000/ecrdll.h"
 755              		.file 8 "../LibA5T1000/midware.h"
 756              		.file 9 "src/constant.h"
ARM GAS  C:\Users\AHMEDH~1\AppData\Local\Temp\cc7vPD4b.s 			page 20


 757              		.file 10 "../LibA5T1000/apm.h"
 758              		.file 11 "src/corevar.h"
 759              		.file 12 "src/tranutil.h"
 760              		.file 13 "../LibA5T1000/system.h"
 761              		.file 14 "c:\\devtools\\gcc_v49_2014q4\\arm-none-eabi\\include\\string.h"
 762              		.file 15 "src/chkoptn.h"
 763              		.file 16 "src/input.h"
 764              		.file 17 "src/record.h"
 765              		.file 18 "src/reversal.h"
 766              		.file 19 "src/offline.h"
 767              		.file 20 "src/hostmsg.h"