ARM GAS  C:\Users\AHMED~1.ELE\AppData\Local\Temp\cc42JgX3.s 			page 1


   1              		.syntax unified
   2              		.cpu cortex-a5
   3              		.fpu softvfp
   4              		.eabi_attribute 20, 1
   5              		.eabi_attribute 21, 1
   6              		.eabi_attribute 23, 3
   7              		.eabi_attribute 24, 1
   8              		.eabi_attribute 25, 1
   9              		.eabi_attribute 26, 1
  10              		.eabi_attribute 30, 4
  11              		.eabi_attribute 34, 0
  12              		.eabi_attribute 18, 4
  13              		.thumb
  14              		.file	"SaleOffl.c"
  15              		.text
  16              	.Ltext0:
  17              		.cfi_sections	.debug_frame
  18              		.section	.text.SaleOfflTrans,"ax",%progbits
  19              		.align	1
  20              		.global	SaleOfflTrans
  21              		.thumb
  22              		.thumb_func
  23              		.type	SaleOfflTrans, %function
  24              	SaleOfflTrans:
  25              	.LFB0:
  26              		.file 1 "src/SaleOffl.c"
   1:src/SaleOffl.c **** //-----------------------------------------------------------------------------
   2:src/SaleOffl.c **** //  File          : saleoffl.c
   3:src/SaleOffl.c **** //  Module        :
   4:src/SaleOffl.c **** //  Description   : Include Offline Sale transaction.
   5:src/SaleOffl.c **** //  Author        : Lewis
   6:src/SaleOffl.c **** //  Notes         : N/A
   7:src/SaleOffl.c **** //
   8:src/SaleOffl.c **** // ============================================================================
   9:src/SaleOffl.c **** // | Naming conventions                                                       |
  10:src/SaleOffl.c **** // | ~~~~~~~~~~~~~~~~~~                                                       |
  11:src/SaleOffl.c **** // |        Struct define : Leading T                                         |
  12:src/SaleOffl.c **** // |         Struct/Array : Leading s                                         |
  13:src/SaleOffl.c **** // |             Constant : Leading K                                         |
  14:src/SaleOffl.c **** // |      Global Variable : Leading g  (variable use outside one C file)      |
  15:src/SaleOffl.c **** // |                                                                          |
  16:src/SaleOffl.c **** // |   BYTE( 8 Bits) size : Leading b                                         |
  17:src/SaleOffl.c **** // |   CHAR( 8 Bits) size : Leading c                                         |
  18:src/SaleOffl.c **** // |   WORD(16 Bits) size : Leading w                                         |
  19:src/SaleOffl.c **** // |  DWORD(32 Bits) size : Leading d                                         |
  20:src/SaleOffl.c **** // |    int(32 Bits) size : Leading i                                         |
  21:src/SaleOffl.c **** // | DDWORD(64 Bits) size : Leading dd                                        |
  22:src/SaleOffl.c **** // |              Pointer : Leading p                                         |
  23:src/SaleOffl.c **** // |                                                                          |
  24:src/SaleOffl.c **** // |    Function argument : Leading a                                         |
  25:src/SaleOffl.c **** // |       Local Variable : All lower case                                    |
  26:src/SaleOffl.c **** // |                                                                          |
  27:src/SaleOffl.c **** // | Examples:                                                                |
  28:src/SaleOffl.c **** // |                Array : Leading s, (sb = arrary of byte, etc)             |
  29:src/SaleOffl.c **** // |              Pointer : Leading p, (pb = pointer of byte, etc)            |
  30:src/SaleOffl.c **** // ============================================================================
  31:src/SaleOffl.c **** //
ARM GAS  C:\Users\AHMED~1.ELE\AppData\Local\Temp\cc42JgX3.s 			page 2


  32:src/SaleOffl.c **** //  Date          Who         Action
  33:src/SaleOffl.c **** //  ------------  ----------- -------------------------------------------------
  34:src/SaleOffl.c **** //  10 May  2006  Lewis       Initial Version for new CONTROL
  35:src/SaleOffl.c **** //-----------------------------------------------------------------------------
  36:src/SaleOffl.c **** #include <string.h>
  37:src/SaleOffl.c **** #include "util.h"
  38:src/SaleOffl.c **** #include "sysutil.h"
  39:src/SaleOffl.c **** #include "message.h"
  40:src/SaleOffl.c **** #include "constant.h"
  41:src/SaleOffl.c **** #include "corevar.h"
  42:src/SaleOffl.c **** #include "chkoptn.h"
  43:src/SaleOffl.c **** #include "input.h"
  44:src/SaleOffl.c **** #include "print.h"
  45:src/SaleOffl.c **** #include "tranutil.h"
  46:src/SaleOffl.c **** #include "hostmsg.h"
  47:src/SaleOffl.c **** #include "record.h"
  48:src/SaleOffl.c **** #include "reversal.h"
  49:src/SaleOffl.c **** #include "offline.h"
  50:src/SaleOffl.c **** 
  51:src/SaleOffl.c **** 
  52:src/SaleOffl.c **** //*****************************************************************************
  53:src/SaleOffl.c **** //  Function        : SaleOfflTrans
  54:src/SaleOffl.c **** //  Description     : Sale Offline transaction.
  55:src/SaleOffl.c **** //  Input           : aInputMode;       // Transaction start mode
  56:src/SaleOffl.c **** //  Return          : N/A
  57:src/SaleOffl.c **** //  Note            : N/A
  58:src/SaleOffl.c **** //  Globals Changed : N/A
  59:src/SaleOffl.c **** //*****************************************************************************
  60:src/SaleOffl.c **** DWORD SaleOfflTrans(DWORD aInputMode)
  61:src/SaleOffl.c **** {
  27              		.loc 1 61 0
  28              		.cfi_startproc
  29              		@ args = 0, pretend = 0, frame = 0
  30              		@ frame_needed = 0, uses_anonymous_args = 0
  31              	.LVL0:
  32 0000 38B5     		push	{r3, r4, r5, lr}
  33              		.cfi_def_cfa_offset 16
  34              		.cfi_offset 3, -16
  35              		.cfi_offset 4, -12
  36              		.cfi_offset 5, -8
  37              		.cfi_offset 14, -4
  62:src/SaleOffl.c ****   INPUT.b_trans = SALE_OFFLINE;
  38              		.loc 1 62 0
  39 0002 0723     		movs	r3, #7
  40 0004 174C     		ldr	r4, .L9
  61:src/SaleOffl.c ****   INPUT.b_trans = SALE_OFFLINE;
  41              		.loc 1 61 0
  42 0006 0546     		mov	r5, r0
  63:src/SaleOffl.c **** 
  64:src/SaleOffl.c ****   DispHeader(NULL);
  43              		.loc 1 64 0
  44 0008 0020     		movs	r0, #0
  45              	.LVL1:
  62:src/SaleOffl.c **** 
  46              		.loc 1 62 0
  47 000a 2370     		strb	r3, [r4]
  48              		.loc 1 64 0
ARM GAS  C:\Users\AHMED~1.ELE\AppData\Local\Temp\cc42JgX3.s 			page 3


  49 000c FFF7FEFF 		bl	DispHeader
  50              	.LVL2:
  65:src/SaleOffl.c ****   //PowerFailure();
  66:src/SaleOffl.c ****   IncTraceNo();
  51              		.loc 1 66 0
  52 0010 FFF7FEFF 		bl	IncTraceNo
  53              	.LVL3:
  67:src/SaleOffl.c ****   PackHeader();
  54              		.loc 1 67 0
  55 0014 FFF7FEFF 		bl	PackHeader
  56              	.LVL4:
  68:src/SaleOffl.c **** 
  69:src/SaleOffl.c ****   if (!TransAllowed(aInputMode)) {
  57              		.loc 1 69 0
  58 0018 2846     		mov	r0, r5
  59 001a FFF7FEFF 		bl	TransAllowed
  60              	.LVL5:
  61 001e 20B9     		cbnz	r0, .L2
  62              	.L4:
  70:src/SaleOffl.c ****     RefreshDispAfter(0);
  63              		.loc 1 70 0
  64 0020 0020     		movs	r0, #0
  65 0022 FFF7FEFF 		bl	RefreshDispAfter
  66              	.LVL6:
  71:src/SaleOffl.c ****     return FALSE;
  67              		.loc 1 71 0
  68 0026 0020     		movs	r0, #0
  69 0028 38BD     		pop	{r3, r4, r5, pc}
  70              	.LVL7:
  71              	.L2:
  72:src/SaleOffl.c ****   }
  73:src/SaleOffl.c **** 
  74:src/SaleOffl.c ****   if (!GetAuthCode()) {
  72              		.loc 1 74 0
  73 002a FFF7FEFF 		bl	GetAuthCode
  74              	.LVL8:
  75 002e 0028     		cmp	r0, #0
  76 0030 F6D0     		beq	.L4
  75:src/SaleOffl.c ****     RefreshDispAfter(0);
  76:src/SaleOffl.c ****     return FALSE;
  77:src/SaleOffl.c ****   }
  78:src/SaleOffl.c **** 
  79:src/SaleOffl.c ****   DispHeader(STIS_ISS_TBL(0).sb_card_name);
  77              		.loc 1 79 0
  78 0032 0D4B     		ldr	r3, .L9+4
  79 0034 1868     		ldr	r0, [r3]
  80 0036 00F2A140 		addw	r0, r0, #1185
  81 003a FFF7FEFF 		bl	DispHeader
  82              	.LVL9:
  80:src/SaleOffl.c ****   RSP_DATA.b_response = TRANS_ACP;
  83              		.loc 1 80 0
  84 003e 0023     		movs	r3, #0
  85 0040 84F8A838 		strb	r3, [r4, #2216]
  81:src/SaleOffl.c ****   INPUT.b_trans_status = OFFLINE;
  86              		.loc 1 81 0
  87 0044 8023     		movs	r3, #128
  88 0046 A370     		strb	r3, [r4, #2]
ARM GAS  C:\Users\AHMED~1.ELE\AppData\Local\Temp\cc42JgX3.s 			page 4


  82:src/SaleOffl.c ****   IncTraceNoEND();
  89              		.loc 1 82 0
  90 0048 FFF7FEFF 		bl	IncTraceNoEND
  91              	.LVL10:
  83:src/SaleOffl.c ****   PackDTGAA();
  92              		.loc 1 83 0
  93 004c FFF7FEFF 		bl	PackDTGAA
  94              	.LVL11:
  84:src/SaleOffl.c ****   SaveOfflRecord();   //17-12-12 JC ++
  95              		.loc 1 84 0
  96 0050 FFF7FEFF 		bl	SaveOfflRecord
  97              	.LVL12:
  85:src/SaleOffl.c ****   PackInputP();
  98              		.loc 1 85 0
  99 0054 FFF7FEFF 		bl	PackInputP
 100              	.LVL13:
  86:src/SaleOffl.c ****   TransEnd(TRUE);
 101              		.loc 1 86 0
 102 0058 0120     		movs	r0, #1
 103 005a FFF7FEFF 		bl	TransEnd
 104              	.LVL14:
  87:src/SaleOffl.c ****   return TRUE;
 105              		.loc 1 87 0
 106 005e 0120     		movs	r0, #1
  88:src/SaleOffl.c **** }
 107              		.loc 1 88 0
 108 0060 38BD     		pop	{r3, r4, r5, pc}
 109              	.LVL15:
 110              	.L10:
 111 0062 00BF     		.align	2
 112              	.L9:
 113 0064 00000000 		.word	gGTS
 114 0068 00000000 		.word	gGDS
 115              		.cfi_endproc
 116              	.LFE0:
 117              		.size	SaleOfflTrans, .-SaleOfflTrans
 118              		.text
 119              	.Letext0:
 120              		.file 2 "../LibA5T1000/common.h"
 121              		.file 3 "src/sysutil.h"
 122              		.file 4 "../LibA5T1000/emv2dll.h"
 123              		.file 5 "../LibA5T1000/emvcl2dll.h"
 124              		.file 6 "../LibA5T1000/ecrdll.h"
 125              		.file 7 "../LibA5T1000/midware.h"
 126              		.file 8 "../LibA5T1000/apm.h"
 127              		.file 9 "src/corevar.h"
 128              		.file 10 "src/tranutil.h"
 129              		.file 11 "src/record.h"
 130              		.file 12 "src/constant.h"
 131              		.file 13 "src/input.h"