ARM GAS  C:\Users\AHMEDH~1\AppData\Local\Temp\ccAmxyYZ.s 			page 1


   1              		.syntax unified
   2              		.cpu cortex-a5
   3              		.fpu softvfp
   4              		.eabi_attribute 20, 1
   5              		.eabi_attribute 21, 1
   6              		.eabi_attribute 23, 3
   7              		.eabi_attribute 24, 1
   8              		.eabi_attribute 25, 1
   9              		.eabi_attribute 26, 1
  10              		.eabi_attribute 30, 4
  11              		.eabi_attribute 34, 0
  12              		.eabi_attribute 18, 4
  13              		.thumb
  14              		.file	"Settle.c"
  15              		.text
  16              	.Ltext0:
  17              		.cfi_sections	.debug_frame
  18              		.section	.text.AllTotalZero,"ax",%progbits
  19              		.align	1
  20              		.thumb
  21              		.thumb_func
  22              		.type	AllTotalZero, %function
  23              	AllTotalZero:
  24              	.LFB7:
  25              		.file 1 "src/Settle.c"
   1:src/Settle.c  **** //-----------------------------------------------------------------------------
   2:src/Settle.c  **** //  File          : settle.c
   3:src/Settle.c  **** //  Module        :
   4:src/Settle.c  **** //  Description   : Include settlement releated routines.
   5:src/Settle.c  **** //  Author        : Lewis
   6:src/Settle.c  **** //  Notes         :
   7:src/Settle.c  **** //
   8:src/Settle.c  **** // ============================================================================
   9:src/Settle.c  **** // | Naming conventions                                                       |
  10:src/Settle.c  **** // | ~~~~~~~~~~~~~~~~~~                                                       |
  11:src/Settle.c  **** // |        Struct define : Leading T                                         |
  12:src/Settle.c  **** // |         Struct/Array : Leading s                                         |
  13:src/Settle.c  **** // |             Constant : Leading K                                         |
  14:src/Settle.c  **** // |      Global Variable : Leading g  (variable use outside one C file)      |
  15:src/Settle.c  **** // |                                                                          |
  16:src/Settle.c  **** // |   BYTE( 8 Bits) size : Leading b                                         |
  17:src/Settle.c  **** // |   CHAR( 8 Bits) size : Leading c                                         |
  18:src/Settle.c  **** // |   WORD(16 Bits) size : Leading w                                         |
  19:src/Settle.c  **** // |  DWORD(32 Bits) size : Leading d                                         |
  20:src/Settle.c  **** // |    int(32 Bits) size : Leading i                                         |
  21:src/Settle.c  **** // | DDWORD(64 Bits) size : Leading dd                                        |
  22:src/Settle.c  **** // |              Pointer : Leading p                                         |
  23:src/Settle.c  **** // |                                                                          |
  24:src/Settle.c  **** // |    Function argument : Leading a                                         |
  25:src/Settle.c  **** // |       Local Variable : All lower case                                    |
  26:src/Settle.c  **** // |                                                                          |
  27:src/Settle.c  **** // | Examples:                                                                |
  28:src/Settle.c  **** // |                Array : Leading s, (sb = arrary of byte, etc)             |
  29:src/Settle.c  **** // |              Pointer : Leading p, (pb = pointer of byte, etc)            |
  30:src/Settle.c  **** // ============================================================================
  31:src/Settle.c  **** //
  32:src/Settle.c  **** //  Date          Who         Action
ARM GAS  C:\Users\AHMEDH~1\AppData\Local\Temp\ccAmxyYZ.s 			page 2


  33:src/Settle.c  **** //  ------------  ----------- -------------------------------------------------
  34:src/Settle.c  **** //  10 May  2006  Lewis       Initial Version for new CONTROL
  35:src/Settle.c  **** //-----------------------------------------------------------------------------
  36:src/Settle.c  **** #include <string.h>
  37:src/Settle.c  **** #include <stdio.h>
  38:src/Settle.c  **** #include "util.h"
  39:src/Settle.c  **** #include "sysutil.h"
  40:src/Settle.c  **** #include "message.h"
  41:src/Settle.c  **** #include "constant.h"
  42:src/Settle.c  **** #include "corevar.h"
  43:src/Settle.c  **** #include "chkoptn.h"
  44:src/Settle.c  **** #include "input.h"
  45:src/Settle.c  **** #include "print.h"
  46:src/Settle.c  **** #include "tranutil.h"
  47:src/Settle.c  **** #include "hostmsg.h"
  48:src/Settle.c  **** #include "record.h"
  49:src/Settle.c  **** #include "reversal.h"
  50:src/Settle.c  **** #include "offline.h"
  51:src/Settle.c  **** #include "emvtrans.h"
  52:src/Settle.c  **** #include "settle.h"
  53:src/Settle.c  **** 
  54:src/Settle.c  **** //*****************************************************************************
  55:src/Settle.c  **** //  Function        : FormSettleSlip
  56:src/Settle.c  **** //  Description     : Pack the settlement slip.
  57:src/Settle.c  **** //  Input           : N/A
  58:src/Settle.c  **** //  Return          : N/A
  59:src/Settle.c  **** //  Note            : N/A
  60:src/Settle.c  **** //  Globals         : N/A
  61:src/Settle.c  **** //*****************************************************************************
  62:src/Settle.c  **** static void FormSettleSlip(void)
  63:src/Settle.c  **** {
  64:src/Settle.c  ****   static const BYTE KBusinessDate[]  = {"BUSINESS DATE - "};
  65:src/Settle.c  ****   static const BYTE KSoc[]            = {"****** SUMMARY OF CHARGE ******"};
  66:src/Settle.c  ****   static const BYTE KCloseBatch[]     = {"**** CLOSE BATCH CONFIRMED ****"};
  67:src/Settle.c  ****   static const BYTE KNII[]            = {"NII "};
  68:src/Settle.c  ****   BYTE tmp[31];
  69:src/Settle.c  ****   struct DATETIME dtg;
  70:src/Settle.c  **** 
  71:src/Settle.c  ****   if (gGDS->s_bs_date.b_mm == 0 && gGDS->s_bs_date.b_dd == 0) {
  72:src/Settle.c  ****     ReadRTC(&dtg);
  73:src/Settle.c  ****     gGDS->s_bs_date.b_mm = dtg.b_month;
  74:src/Settle.c  ****     gGDS->s_bs_date.b_dd = dtg.b_day;
  75:src/Settle.c  ****   }
  76:src/Settle.c  **** 
  77:src/Settle.c  ****   MsgBufSetup();
  78:src/Settle.c  ****   PackLogo();
  79:src/Settle.c  ****   pack_lf();
  80:src/Settle.c  ****   PackRcptHeader();
  81:src/Settle.c  ****   pack_lf();
  82:src/Settle.c  ****   pack_space(2);
  83:src/Settle.c  ****   pack_mem("\x1BW1SETTLEMENT\x1BW0", 16);
  84:src/Settle.c  ****   pack_lfs(2);
  85:src/Settle.c  **** 
  86:src/Settle.c  ****   pack_mem(STIS_ACQ_TBL(0).sb_name,10);
  87:src/Settle.c  ****   pack_space(MAX_CHAR_LINE_NORMAL-18);
  88:src/Settle.c  ****   pack_mem((BYTE *)KNII, 4);
  89:src/Settle.c  ****   split_data(STIS_ACQ_TBL(0).sb_nii,2);
ARM GAS  C:\Users\AHMEDH~1\AppData\Local\Temp\ccAmxyYZ.s 			page 3


  90:src/Settle.c  ****   pack_lf();
  91:src/Settle.c  **** 
  92:src/Settle.c  ****   pack_mem((BYTE *)KBusinessDate, 16);
  93:src/Settle.c  ****   pack_mem((BYTE *)GetMonthText((BYTE)bcd2bin(gGDS->s_bs_date.b_mm)),  3);
  94:src/Settle.c  ****   pack_byte(' ');
  95:src/Settle.c  ****   split_data(&gGDS->s_bs_date.b_dd, 1);
  96:src/Settle.c  ****   pack_lf();
  97:src/Settle.c  **** 
  98:src/Settle.c  ****   ReadRTC(&dtg);
  99:src/Settle.c  ****   ConvDateTime(tmp, &dtg, 1);
 100:src/Settle.c  ****   pack_mem(tmp, 18);
 101:src/Settle.c  ****   pack_lfs(2);
 102:src/Settle.c  **** 
 103:src/Settle.c  ****   pack_mem((BYTE *)KSoc, 31);
 104:src/Settle.c  ****   pack_lf();
 105:src/Settle.c  ****   pack_mem((BYTE *)KCloseBatch, 31);
 106:src/Settle.c  ****   pack_lf();
 107:src/Settle.c  ****   pack_mem(&RSP_DATA.text[1], 20);
 108:src/Settle.c  ****   pack_lf();
 109:src/Settle.c  ****   pack_mem(&RSP_DATA.text[21], 20);
 110:src/Settle.c  ****   pack_lfs(2);
 111:src/Settle.c  ****   PackTotals(&TERM_TOT);
 112:src/Settle.c  ****   PackFF();
 113:src/Settle.c  ****   PackIssuerSum(0);
 114:src/Settle.c  ****   pack_lf();
 115:src/Settle.c  ****   PackFF();
 116:src/Settle.c  **** 
 117:src/Settle.c  ****   PackMsgBufLen();
 118:src/Settle.c  **** }
 119:src/Settle.c  **** //*****************************************************************************
 120:src/Settle.c  **** //  Function        : UploadTransOK
 121:src/Settle.c  **** //  Description     : Upload transaction to host.
 122:src/Settle.c  **** //  Input           : N/A
 123:src/Settle.c  **** //  Return          : TRUE;  // upload success.
 124:src/Settle.c  **** //                    FALSE;
 125:src/Settle.c  **** //  Note            : N/A
 126:src/Settle.c  **** //  Globals         : N/A
 127:src/Settle.c  **** //*****************************************************************************
 128:src/Settle.c  **** static BOOLEAN UploadTransOK(void)
 129:src/Settle.c  **** {
 130:src/Settle.c  ****   DWORD i = 0;
 131:src/Settle.c  **** 
 132:src/Settle.c  ****   while (TRUE) {
 133:src/Settle.c  ****     if (!APM_GetBatchRec(i, (BYTE *)&RECORD_BUF, sizeof(RECORD_BUF)))
 134:src/Settle.c  ****       break;
 135:src/Settle.c  ****     i++;
 136:src/Settle.c  ****     if (RECORD_BUF.w_host_idx == INPUT.w_host_idx) {
 137:src/Settle.c  ****       if (!ValidRecordCRC((WORD)i)) {         // check record's crc
 138:src/Settle.c  ****         SetRspCode('D'*256+'E');
 139:src/Settle.c  ****         PackRspText();
 140:src/Settle.c  ****         return(FALSE);
 141:src/Settle.c  ****       }
 142:src/Settle.c  ****       ByteCopy((BYTE *)&TX_DATA, (BYTE *)&RECORD_BUF, (BYTE *)TX_DATA.sb_pin-(BYTE *)&TX_DATA);
 143:src/Settle.c  ****       memcpy(TX_DATA.sb_org_trace_no, TX_DATA.sb_trace_no, 3);
 144:src/Settle.c  ****       if (RECORD_BUF.b_trans_status & VOIDED)
 145:src/Settle.c  ****         TX_DATA.dd_amount = 0;
 146:src/Settle.c  **** 
ARM GAS  C:\Users\AHMEDH~1\AppData\Local\Temp\ccAmxyYZ.s 			page 4


 147:src/Settle.c  ****       TX_DATA.b_org_trans = RECORD_BUF.b_trans;
 148:src/Settle.c  ****       PackProcCode(TX_DATA.b_org_trans, RECORD_BUF.b_acc_ind);
 149:src/Settle.c  ****       TX_DATA.sb_proc_code[2] = 0x01;            /* more message to come */
 150:src/Settle.c  ****       TX_DATA.b_trans = TRANS_UPLOAD;
 151:src/Settle.c  ****       IncTraceNo();
 152:src/Settle.c  ****       PackHostMsg();
 153:src/Settle.c  ****       UpdateHostStatus(SETTLE_PENDING);
 154:src/Settle.c  **** 
 155:src/Settle.c  ****       ClearResponse();
 156:src/Settle.c  ****       if ((RSP_DATA.w_rspcode=APM_SendRcvd(&TX_BUF, &RX_BUF))==COMM_OK) {
 157:src/Settle.c  ****         RSP_DATA.b_response = CheckHostRsp();
 158:src/Settle.c  ****         //SaveTraceNo();
 159:src/Settle.c  ****         if (RSP_DATA.b_response == TRANS_ACP)
 160:src/Settle.c  ****           UpdateHostStatus(NO_PENDING);
 161:src/Settle.c  ****       }
 162:src/Settle.c  ****       if ((RSP_DATA.b_response == TRANS_ACP) || (RSP_DATA.b_response == MORE_RSP))
 163:src/Settle.c  ****         Short1Beep();
 164:src/Settle.c  ****       else
 165:src/Settle.c  ****         return FALSE;
 166:src/Settle.c  ****     }
 167:src/Settle.c  ****   }
 168:src/Settle.c  ****   return TRUE;
 169:src/Settle.c  **** }
 170:src/Settle.c  **** //*****************************************************************************
 171:src/Settle.c  **** //  Function        : ValidDate
 172:src/Settle.c  **** //  Description     : Validate the date value.
 173:src/Settle.c  **** //  Input           : aDate;    // pointer to date_t buffer.
 174:src/Settle.c  **** //  Return          : TRUE;     // valid input.
 175:src/Settle.c  **** //                    FALSE;
 176:src/Settle.c  **** //  Note            : N/A
 177:src/Settle.c  **** //  Globals         : N/A
 178:src/Settle.c  **** //*****************************************************************************
 179:src/Settle.c  **** static BOOLEAN ValidDate(struct BS_DATE *aDate)
 180:src/Settle.c  **** {
 181:src/Settle.c  ****   static const BYTE days_limit [13] = { 0, 31, 29, 31, 30, 31, 30, 31, 31, 30, 31, 30, 31};
 182:src/Settle.c  ****   DWORD var_x;
 183:src/Settle.c  **** 
 184:src/Settle.c  ****   var_x = (BYTE)bcd2bin(aDate->b_mm);
 185:src/Settle.c  ****   if ((var_x == 0) || (var_x > 12))
 186:src/Settle.c  ****     return FALSE;
 187:src/Settle.c  ****   if (bcd2bin(aDate->b_dd) > days_limit[var_x])
 188:src/Settle.c  ****     return FALSE;
 189:src/Settle.c  ****   return TRUE;
 190:src/Settle.c  **** }
 191:src/Settle.c  **** //*****************************************************************************
 192:src/Settle.c  **** //  Function        : GetBusinessDate
 193:src/Settle.c  **** //  Description     : Prompt user to enter bussiness date.
 194:src/Settle.c  **** //  Input           : N/A
 195:src/Settle.c  **** //  Return          : TRUE;  // valid INPUT.
 196:src/Settle.c  **** //                    FALSE; // user cancel
 197:src/Settle.c  **** //  Note            : result store in globals gBusDate
 198:src/Settle.c  **** //  Globals         : gBusDate;
 199:src/Settle.c  **** //*****************************************************************************
 200:src/Settle.c  **** static BOOLEAN GetBusinessDate(void)
 201:src/Settle.c  **** {
 202:src/Settle.c  ****   static const BYTE Kddmm[]            = {"DDMM"};
 203:src/Settle.c  ****   struct DATETIME dtg;
ARM GAS  C:\Users\AHMEDH~1\AppData\Local\Temp\ccAmxyYZ.s 			page 5


 204:src/Settle.c  ****   BYTE kbdbuf[31];
 205:src/Settle.c  **** 
 206:src/Settle.c  ****   while (1) {
 207:src/Settle.c  ****     kbdbuf[0] = 0;
 208:src/Settle.c  ****     DispHeader(NULL);
 209:src/Settle.c  ****     Disp2x16Msg(GetConstMsg(EDC_SE_BUS_DATE), MW_LINE3, MW_BIGFONT);
 210:src/Settle.c  ****     if (DDMMBusinessDate())
 211:src/Settle.c  ****       DispLineMW(Kddmm, MW_LINE5+12, MW_BIGFONT);
 212:src/Settle.c  ****     if (!APM_GetKbd(NUMERIC_INPUT+NULL_ENB+ECHO+MW_LINE7+MW_BIGFONT+RIGHT_JUST, IMIN(4)+IMAX(4), kb
 213:src/Settle.c  ****       return FALSE;
 214:src/Settle.c  **** 
 215:src/Settle.c  ****     if (kbdbuf[0] == 0) {
 216:src/Settle.c  ****       ReadRTC(&dtg);
 217:src/Settle.c  ****       gGDS->s_bs_date.b_mm = dtg.b_month;
 218:src/Settle.c  ****       gGDS->s_bs_date.b_dd = dtg.b_day;
 219:src/Settle.c  ****     } else if (DDMMBusinessDate()) {
 220:src/Settle.c  ****       compress(&kbdbuf[1],&kbdbuf[1], 2);
 221:src/Settle.c  ****       gGDS->s_bs_date.b_dd = kbdbuf[1];
 222:src/Settle.c  ****       gGDS->s_bs_date.b_mm = kbdbuf[2];
 223:src/Settle.c  ****     } else
 224:src/Settle.c  ****       CompressInputData(&gGDS->s_bs_date, kbdbuf, 2);
 225:src/Settle.c  **** 
 226:src/Settle.c  ****     if (ValidDate(&gGDS->s_bs_date)) {
 227:src/Settle.c  ****       return TRUE;
 228:src/Settle.c  ****     }
 229:src/Settle.c  ****     LongBeep();
 230:src/Settle.c  ****   }
 231:src/Settle.c  **** }
 232:src/Settle.c  **** //*****************************************************************************
 233:src/Settle.c  **** //  Function        : GetSettleAmount
 234:src/Settle.c  **** //  Description     : Prompt user to enter settlement amount.
 235:src/Settle.c  **** //  Input           : N/A
 236:src/Settle.c  **** //  Return          : TRUE;  // valid INPUT.
 237:src/Settle.c  **** //                    FALSE; // user cancel
 238:src/Settle.c  **** //  Note            : N/A
 239:src/Settle.c  **** //  Globals         : INPUT.dd_amount;
 240:src/Settle.c  **** //*****************************************************************************
 241:src/Settle.c  **** static BOOLEAN GetSettleAmount(void)
 242:src/Settle.c  **** {
 243:src/Settle.c  ****   static const DWORD KDecimalPos[4] = { DECIMAL_NONE, DECIMAL_POS1, DECIMAL_POS2, DECIMAL_POS3};
 244:src/Settle.c  ****   BYTE kbdbuf[31];
 245:src/Settle.c  **** 
 246:src/Settle.c  ****   if (!APM_GetKbd(AMOUNT_INPUT+NULL_ENB+MW_LINE7+KDecimalPos[STIS_TERM_CFG.b_decimal_pos],
 247:src/Settle.c  ****                   IMIN(1)+IMAX(STIS_TERM_CFG.b_settle_amount_len), kbdbuf))
 248:src/Settle.c  ****     return FALSE;
 249:src/Settle.c  ****   if (STIS_TERM_CFG.b_decimal_pos < 2) {  // 8583 expect 2 decimal pos.
 250:src/Settle.c  ****     memset(&kbdbuf[kbdbuf[0]+1], '0', 2);
 251:src/Settle.c  ****     kbdbuf[0] += (2-STIS_TERM_CFG.b_decimal_pos);
 252:src/Settle.c  ****   }
 253:src/Settle.c  ****   INPUT.dd_amount = decbin8b(&kbdbuf[1], kbdbuf[0]);
 254:src/Settle.c  ****   return TRUE;
 255:src/Settle.c  **** }
 256:src/Settle.c  **** //*****************************************************************************
 257:src/Settle.c  **** //  Function        : PackBatchText
 258:src/Settle.c  **** //  Description     : Pack settlement batch # in rspdata.text.
 259:src/Settle.c  **** //  Input           : N/A
 260:src/Settle.c  **** //  Return          : N/A
ARM GAS  C:\Users\AHMEDH~1\AppData\Local\Temp\ccAmxyYZ.s 			page 6


 261:src/Settle.c  **** //  Note            : N/A
 262:src/Settle.c  **** //  Globals         : rsp_data;
 263:src/Settle.c  **** //*****************************************************************************
 264:src/Settle.c  **** static void PackBatchText(void)
 265:src/Settle.c  **** {
 266:src/Settle.c  ****   RSP_DATA.text[0] = 40;
 267:src/Settle.c  ****   memset(&RSP_DATA.text[1+5], ' ', 15);
 268:src/Settle.c  ****   memcpy(&RSP_DATA.text[1], "BATCH", 5);
 269:src/Settle.c  ****   split(&RSP_DATA.text[7],STIS_ACQ_TBL(0).sb_curr_batch_no, 3);
 270:src/Settle.c  **** }
 271:src/Settle.c  **** //*****************************************************************************
 272:src/Settle.c  **** //  Function        : PrintSettle
 273:src/Settle.c  **** //  Description     : Print Settlement slip.
 274:src/Settle.c  **** //  Input           : aWorldHost
 275:src/Settle.c  **** //  Return          : N/A
 276:src/Settle.c  **** //  Note            : N/A
 277:src/Settle.c  **** //  Globals         : N/A
 278:src/Settle.c  **** //*****************************************************************************
 279:src/Settle.c  **** static void CloseBatch(void)
 280:src/Settle.c  **** {
 281:src/Settle.c  ****   memcpy(P_DATA.sb_roc_no, TX_DATA.sb_roc_no, 3);
 282:src/Settle.c  ****   FormSettleSlip(); /* print it */
 283:src/Settle.c  ****   memcpy(STIS_ACQ_TBL(0).sb_curr_batch_no, STIS_ACQ_TBL(0).sb_next_batch_no, 3);
 284:src/Settle.c  ****   bcdinc(STIS_ACQ_TBL(0).sb_next_batch_no, 3);
 285:src/Settle.c  ****   APM_SetBatchNo(INPUT.w_host_idx,STIS_ACQ_TBL(0).sb_curr_batch_no);
 286:src/Settle.c  ****   APM_BatchClear(INPUT.w_host_idx);
 287:src/Settle.c  ****   fCommitAllMW();
 288:src/Settle.c  **** }
 289:src/Settle.c  **** //*****************************************************************************
 290:src/Settle.c  **** //  Function        : AllTotalZero
 291:src/Settle.c  **** //  Description     : Return TRUE when all totals are zero.
 292:src/Settle.c  **** //  Input           : N/A
 293:src/Settle.c  **** //  Return          : TRUE/FALSE;
 294:src/Settle.c  **** //  Note            : N/A
 295:src/Settle.c  **** //  Globals Changed : N/A
 296:src/Settle.c  **** //*****************************************************************************
 297:src/Settle.c  **** static BOOLEAN AllTotalZero(void)
 298:src/Settle.c  **** {
  26              		.loc 1 298 0
  27              		.cfi_startproc
  28              		@ args = 0, pretend = 0, frame = 0
  29              		@ frame_needed = 0, uses_anonymous_args = 0
  30              		@ link register save eliminated.
 299:src/Settle.c  ****   return((TERM_TOT.s_sale_tot.dd_amount == 0)    &&
  31              		.loc 1 299 0
  32 0000 104B     		ldr	r3, .L7
  33 0002 1B68     		ldr	r3, [r3]
  34 0004 03F6D842 		addw	r2, r3, #3288
 300:src/Settle.c  ****          (TERM_TOT.s_refund_tot.dd_amount == 0)  &&
 301:src/Settle.c  ****          (TERM_TOT.s_void_sale.dd_amount == 0)   &&
  35              		.loc 1 301 0
  36 0008 D2E90001 		ldrd	r0, [r2]
  37 000c 50EA0102 		orrs	r2, r0, r1
  38 0010 16D1     		bne	.L5
 300:src/Settle.c  ****          (TERM_TOT.s_refund_tot.dd_amount == 0)  &&
  39              		.loc 1 300 0
  40 0012 03F6F842 		addw	r2, r3, #3320
ARM GAS  C:\Users\AHMEDH~1\AppData\Local\Temp\ccAmxyYZ.s 			page 7


 299:src/Settle.c  ****   return((TERM_TOT.s_sale_tot.dd_amount == 0)    &&
  41              		.loc 1 299 0
  42 0016 D2E90001 		ldrd	r0, [r2]
  43 001a 50EA0102 		orrs	r2, r0, r1
  44 001e 0FD1     		bne	.L5
  45              		.loc 1 301 0
  46 0020 03F60852 		addw	r2, r3, #3336
 300:src/Settle.c  ****          (TERM_TOT.s_refund_tot.dd_amount == 0)  &&
  47              		.loc 1 300 0
  48 0024 D2E90001 		ldrd	r0, [r2]
  49 0028 50EA0102 		orrs	r2, r0, r1
  50 002c 08D1     		bne	.L5
  51              		.loc 1 301 0 discriminator 3
  52 002e D3F8182D 		ldr	r2, [r3, #3352]
  53 0032 D3F81C3D 		ldr	r3, [r3, #3356]
  54 0036 1343     		orrs	r3, r2, r3
  55 0038 0CBF     		ite	eq
  56 003a 0120     		moveq	r0, #1
  57 003c 0020     		movne	r0, #0
  58 003e 7047     		bx	lr
  59              	.L5:
  60              		.loc 1 301 0 is_stmt 0
  61 0040 0020     		movs	r0, #0
 302:src/Settle.c  ****          (TERM_TOT.s_void_refund.dd_amount == 0)
 303:src/Settle.c  ****         );
 304:src/Settle.c  **** }
  62              		.loc 1 304 0 is_stmt 1
  63 0042 7047     		bx	lr
  64              	.L8:
  65              		.align	2
  66              	.L7:
  67 0044 00000000 		.word	gGDS
  68              		.cfi_endproc
  69              	.LFE7:
  70              		.size	AllTotalZero, .-AllTotalZero
  71              		.section	.text.GetSettleAmount,"ax",%progbits
  72              		.align	1
  73              		.thumb
  74              		.thumb_func
  75              		.type	GetSettleAmount, %function
  76              	GetSettleAmount:
  77              	.LFB4:
 242:src/Settle.c  ****   static const DWORD KDecimalPos[4] = { DECIMAL_NONE, DECIMAL_POS1, DECIMAL_POS2, DECIMAL_POS3};
  78              		.loc 1 242 0
  79              		.cfi_startproc
  80              		@ args = 0, pretend = 0, frame = 32
  81              		@ frame_needed = 0, uses_anonymous_args = 0
  82 0000 30B5     		push	{r4, r5, lr}
  83              		.cfi_def_cfa_offset 12
  84              		.cfi_offset 4, -12
  85              		.cfi_offset 5, -8
  86              		.cfi_offset 14, -4
 246:src/Settle.c  ****                   IMIN(1)+IMAX(STIS_TERM_CFG.b_settle_amount_len), kbdbuf))
  87              		.loc 1 246 0
  88 0002 1C4D     		ldr	r5, .L15
  89 0004 1C4A     		ldr	r2, .L15+4
  90 0006 2B68     		ldr	r3, [r5]
ARM GAS  C:\Users\AHMEDH~1\AppData\Local\Temp\ccAmxyYZ.s 			page 8


 242:src/Settle.c  ****   static const DWORD KDecimalPos[4] = { DECIMAL_NONE, DECIMAL_POS1, DECIMAL_POS2, DECIMAL_POS3};
  91              		.loc 1 242 0
  92 0008 8BB0     		sub	sp, sp, #44
  93              		.cfi_def_cfa_offset 56
 246:src/Settle.c  ****                   IMIN(1)+IMAX(STIS_TERM_CFG.b_settle_amount_len), kbdbuf))
  94              		.loc 1 246 0
  95 000a 93F86410 		ldrb	r1, [r3, #100]	@ zero_extendqisi2
  96 000e 02AC     		add	r4, sp, #8
  97 0010 52F82120 		ldr	r2, [r2, r1, lsl #2]
  98 0014 93F86630 		ldrb	r3, [r3, #102]	@ zero_extendqisi2
  99 0018 02F50102 		add	r2, r2, #8454144
 100 001c 0094     		str	r4, [sp]
 101 001e 1020     		movs	r0, #16
 102 0020 0521     		movs	r1, #5
 103 0022 02F5E062 		add	r2, r2, #1792
 104 0026 03F58073 		add	r3, r3, #256
 105 002a FFF7FEFF 		bl	lib_app_call
 106              	.LVL0:
 107 002e C0B2     		uxtb	r0, r0
 108 0030 E8B1     		cbz	r0, .L10
 249:src/Settle.c  ****     memset(&kbdbuf[kbdbuf[0]+1], '0', 2);
 109              		.loc 1 249 0
 110 0032 2D68     		ldr	r5, [r5]
 111 0034 95F86430 		ldrb	r3, [r5, #100]	@ zero_extendqisi2
 112 0038 012B     		cmp	r3, #1
 113 003a 0FD8     		bhi	.L11
 250:src/Settle.c  ****     kbdbuf[0] += (2-STIS_TERM_CFG.b_decimal_pos);
 114              		.loc 1 250 0
 115 003c 9DF80800 		ldrb	r0, [sp, #8]	@ zero_extendqisi2
 116 0040 0222     		movs	r2, #2
 117 0042 0130     		adds	r0, r0, #1
 118 0044 2044     		add	r0, r0, r4
 119 0046 3021     		movs	r1, #48
 120 0048 FFF7FEFF 		bl	memset
 121              	.LVL1:
 122 004c 9DF80830 		ldrb	r3, [sp, #8]	@ zero_extendqisi2
 251:src/Settle.c  ****   }
 123              		.loc 1 251 0
 124 0050 95F86420 		ldrb	r2, [r5, #100]	@ zero_extendqisi2
 125 0054 0233     		adds	r3, r3, #2
 126 0056 9B1A     		subs	r3, r3, r2
 127 0058 8DF80830 		strb	r3, [sp, #8]
 128              	.L11:
 253:src/Settle.c  ****   return TRUE;
 129              		.loc 1 253 0
 130 005c 601C     		adds	r0, r4, #1
 131 005e 9DF80810 		ldrb	r1, [sp, #8]	@ zero_extendqisi2
 132 0062 FFF7FEFF 		bl	decbin8b
 133              	.LVL2:
 134 0066 054B     		ldr	r3, .L15+8
 135 0068 C3E90601 		strd	r0, [r3, #24]
 254:src/Settle.c  **** }
 136              		.loc 1 254 0
 137 006c 0120     		movs	r0, #1
 138              	.L10:
 255:src/Settle.c  **** //*****************************************************************************
 139              		.loc 1 255 0
ARM GAS  C:\Users\AHMEDH~1\AppData\Local\Temp\ccAmxyYZ.s 			page 9


 140 006e 0BB0     		add	sp, sp, #44
 141              		.cfi_def_cfa_offset 12
 142              		@ sp needed
 143 0070 30BD     		pop	{r4, r5, pc}
 144              	.L16:
 145 0072 00BF     		.align	2
 146              	.L15:
 147 0074 00000000 		.word	gGDS
 148 0078 00000000 		.word	.LANCHOR0
 149 007c 00000000 		.word	gGTS
 150              		.cfi_endproc
 151              	.LFE4:
 152              		.size	GetSettleAmount, .-GetSettleAmount
 153              		.section	.text.UploadTransOK,"ax",%progbits
 154              		.align	1
 155              		.thumb
 156              		.thumb_func
 157              		.type	UploadTransOK, %function
 158              	UploadTransOK:
 159              	.LFB1:
 129:src/Settle.c  ****   DWORD i = 0;
 160              		.loc 1 129 0
 161              		.cfi_startproc
 162              		@ args = 0, pretend = 0, frame = 0
 163              		@ frame_needed = 0, uses_anonymous_args = 0
 164              	.LVL3:
 165 0000 2DE9F341 		push	{r0, r1, r4, r5, r6, r7, r8, lr}
 166              		.cfi_def_cfa_offset 32
 167              		.cfi_offset 4, -24
 168              		.cfi_offset 5, -20
 169              		.cfi_offset 6, -16
 170              		.cfi_offset 7, -12
 171              		.cfi_offset 8, -8
 172              		.cfi_offset 14, -4
 130:src/Settle.c  **** 
 173              		.loc 1 130 0
 174 0004 0027     		movs	r7, #0
 175              	.LVL4:
 176              	.L18:
 133:src/Settle.c  ****       break;
 177              		.loc 1 133 0
 178 0006 3F4D     		ldr	r5, .L31
 179 0008 4FF40072 		mov	r2, #512
 180 000c 2B68     		ldr	r3, [r5]
 181 000e 0092     		str	r2, [sp]
 182 0010 1020     		movs	r0, #16
 183 0012 2A21     		movs	r1, #42
 184 0014 3A46     		mov	r2, r7
 185 0016 03F5D963 		add	r3, r3, #1736
 186 001a FFF7FEFF 		bl	lib_app_call
 187              	.LVL5:
 188 001e 10F0FF0F 		tst	r0, #255
 189 0022 68D0     		beq	.L26
 136:src/Settle.c  ****       if (!ValidRecordCRC((WORD)i)) {         // check record's crc
 190              		.loc 1 136 0
 191 0024 2B68     		ldr	r3, [r5]
 192 0026 384C     		ldr	r4, .L31+4
ARM GAS  C:\Users\AHMEDH~1\AppData\Local\Temp\ccAmxyYZ.s 			page 10


 193 0028 B3F83E27 		ldrh	r2, [r3, #1854]
 194 002c B4F87630 		ldrh	r3, [r4, #118]
 135:src/Settle.c  ****     if (RECORD_BUF.w_host_idx == INPUT.w_host_idx) {
 195              		.loc 1 135 0
 196 0030 0137     		adds	r7, r7, #1
 197              	.LVL6:
 136:src/Settle.c  ****       if (!ValidRecordCRC((WORD)i)) {         // check record's crc
 198              		.loc 1 136 0
 199 0032 9A42     		cmp	r2, r3
 200 0034 E7D1     		bne	.L18
 137:src/Settle.c  ****         SetRspCode('D'*256+'E');
 201              		.loc 1 137 0
 202 0036 B8B2     		uxth	r0, r7
 203 0038 FFF7FEFF 		bl	ValidRecordCRC
 204              	.LVL7:
 205 003c 0646     		mov	r6, r0
 206 003e 30B9     		cbnz	r0, .L21
 138:src/Settle.c  ****         PackRspText();
 207              		.loc 1 138 0
 208 0040 44F24540 		movw	r0, #17477
 209 0044 FFF7FEFF 		bl	SetRspCode
 210              	.LVL8:
 139:src/Settle.c  ****         return(FALSE);
 211              		.loc 1 139 0
 212 0048 FFF7FEFF 		bl	PackRspText
 213              	.LVL9:
 140:src/Settle.c  ****       }
 214              		.loc 1 140 0
 215 004c 56E0     		b	.L19
 216              	.L21:
 142:src/Settle.c  ****       memcpy(TX_DATA.sb_org_trace_no, TX_DATA.sb_trace_no, 3);
 217              		.loc 1 142 0
 218 004e 2968     		ldr	r1, [r5]
 219 0050 04F54070 		add	r0, r4, #768
 220 0054 01F5D961 		add	r1, r1, #1736
 221 0058 4FF4FC72 		mov	r2, #504
 222 005c FFF7FEFF 		bl	ByteCopy
 223              	.LVL10:
 143:src/Settle.c  ****       if (RECORD_BUF.b_trans_status & VOIDED)
 224              		.loc 1 143 0
 225 0060 0322     		movs	r2, #3
 226 0062 2A48     		ldr	r0, .L31+8
 227 0064 2A49     		ldr	r1, .L31+12
 228 0066 FFF7FEFF 		bl	memcpy
 229              	.LVL11:
 144:src/Settle.c  ****         TX_DATA.dd_amount = 0;
 230              		.loc 1 144 0
 231 006a 2B68     		ldr	r3, [r5]
 232 006c 93F8C926 		ldrb	r2, [r3, #1737]	@ zero_extendqisi2
 233 0070 D206     		lsls	r2, r2, #27
 234 0072 05D5     		bpl	.L22
 145:src/Settle.c  **** 
 235              		.loc 1 145 0
 236 0074 04F54678 		add	r8, r4, #792
 237 0078 0020     		movs	r0, #0
 238 007a 0021     		movs	r1, #0
 239 007c C8E90001 		strd	r0, [r8]
ARM GAS  C:\Users\AHMEDH~1\AppData\Local\Temp\ccAmxyYZ.s 			page 11


 240              	.L22:
 147:src/Settle.c  ****       PackProcCode(TX_DATA.b_org_trans, RECORD_BUF.b_acc_ind);
 241              		.loc 1 147 0
 242 0080 93F8C806 		ldrb	r0, [r3, #1736]	@ zero_extendqisi2
 148:src/Settle.c  ****       TX_DATA.sb_proc_code[2] = 0x01;            /* more message to come */
 243              		.loc 1 148 0
 244 0084 93F8CD16 		ldrb	r1, [r3, #1741]	@ zero_extendqisi2
 147:src/Settle.c  ****       PackProcCode(TX_DATA.b_org_trans, RECORD_BUF.b_acc_ind);
 245              		.loc 1 147 0
 246 0088 84F80305 		strb	r0, [r4, #1283]
 148:src/Settle.c  ****       TX_DATA.sb_proc_code[2] = 0x01;            /* more message to come */
 247              		.loc 1 148 0
 248 008c FFF7FEFF 		bl	PackProcCode
 249              	.LVL12:
 149:src/Settle.c  ****       TX_DATA.b_trans = TRANS_UPLOAD;
 250              		.loc 1 149 0
 251 0090 0123     		movs	r3, #1
 252 0092 84F80235 		strb	r3, [r4, #1282]
 150:src/Settle.c  ****       IncTraceNo();
 253              		.loc 1 150 0
 254 0096 0C23     		movs	r3, #12
 255 0098 84F80033 		strb	r3, [r4, #768]
 151:src/Settle.c  ****       PackHostMsg();
 256              		.loc 1 151 0
 257 009c FFF7FEFF 		bl	IncTraceNo
 258              	.LVL13:
 152:src/Settle.c  ****       UpdateHostStatus(SETTLE_PENDING);
 259              		.loc 1 152 0
 260 00a0 FFF7FEFF 		bl	PackHostMsg
 261              	.LVL14:
 153:src/Settle.c  **** 
 262              		.loc 1 153 0
 263 00a4 0220     		movs	r0, #2
 264 00a6 FFF7FEFF 		bl	UpdateHostStatus
 265              	.LVL15:
 155:src/Settle.c  ****       if ((RSP_DATA.w_rspcode=APM_SendRcvd(&TX_BUF, &RX_BUF))==COMM_OK) {
 266              		.loc 1 155 0
 267 00aa FFF7FEFF 		bl	ClearResponse
 268              	.LVL16:
 156:src/Settle.c  ****         RSP_DATA.b_response = CheckHostRsp();
 269              		.loc 1 156 0
 270 00ae 2B68     		ldr	r3, [r5]
 271 00b0 0021     		movs	r1, #0
 272 00b2 03F5CC52 		add	r2, r3, #6528
 273 00b6 03F51653 		add	r3, r3, #9600
 274 00ba 0091     		str	r1, [sp]
 275 00bc 2033     		adds	r3, r3, #32
 276 00be 1020     		movs	r0, #16
 277 00c0 0B21     		movs	r1, #11
 278 00c2 1C32     		adds	r2, r2, #28
 279 00c4 FFF7FEFF 		bl	lib_app_call
 280              	.LVL17:
 281 00c8 43F23003 		movw	r3, #12336
 282 00cc 80B2     		uxth	r0, r0
 283 00ce 9842     		cmp	r0, r3
 284 00d0 A4F86E05 		strh	r0, [r4, #1390]	@ movhi
 285 00d4 07D1     		bne	.L24
ARM GAS  C:\Users\AHMEDH~1\AppData\Local\Temp\ccAmxyYZ.s 			page 12


 157:src/Settle.c  ****         //SaveTraceNo();
 286              		.loc 1 157 0
 287 00d6 FFF7FEFF 		bl	CheckHostRsp
 288              	.LVL18:
 289 00da 0B4A     		ldr	r2, .L31+4
 290 00dc 82F80007 		strb	r0, [r2, #1792]
 159:src/Settle.c  ****           UpdateHostStatus(NO_PENDING);
 291              		.loc 1 159 0
 292 00e0 08B9     		cbnz	r0, .L24
 160:src/Settle.c  ****       }
 293              		.loc 1 160 0
 294 00e2 FFF7FEFF 		bl	UpdateHostStatus
 295              	.LVL19:
 296              	.L24:
 162:src/Settle.c  ****         Short1Beep();
 297              		.loc 1 162 0
 298 00e6 94F80037 		ldrb	r3, [r4, #1792]	@ zero_extendqisi2
 299 00ea 13F0FB0F 		tst	r3, #251
 300 00ee 04D1     		bne	.L27
 163:src/Settle.c  ****       else
 301              		.loc 1 163 0
 302 00f0 FFF7FEFF 		bl	Short1Beep
 303              	.LVL20:
 304 00f4 87E7     		b	.L18
 305              	.L26:
 168:src/Settle.c  **** }
 306              		.loc 1 168 0
 307 00f6 0126     		movs	r6, #1
 308 00f8 00E0     		b	.L19
 309              	.L27:
 165:src/Settle.c  ****     }
 310              		.loc 1 165 0
 311 00fa 0026     		movs	r6, #0
 312              	.L19:
 169:src/Settle.c  **** //*****************************************************************************
 313              		.loc 1 169 0
 314 00fc 3046     		mov	r0, r6
 315 00fe 02B0     		add	sp, sp, #8
 316              		.cfi_def_cfa_offset 24
 317              		@ sp needed
 318 0100 BDE8F081 		pop	{r4, r5, r6, r7, r8, pc}
 319              	.LVL21:
 320              	.L32:
 321              		.align	2
 322              	.L31:
 323 0104 00000000 		.word	gGDS
 324 0108 00000000 		.word	gGTS
 325 010c 04050000 		.word	gGTS+1284
 326 0110 02030000 		.word	gGTS+770
 327              		.cfi_endproc
 328              	.LFE1:
 329              		.size	UploadTransOK, .-UploadTransOK
 330              		.section	.text.PackBatchText,"ax",%progbits
 331              		.align	1
 332              		.thumb
 333              		.thumb_func
 334              		.type	PackBatchText, %function
ARM GAS  C:\Users\AHMEDH~1\AppData\Local\Temp\ccAmxyYZ.s 			page 13


 335              	PackBatchText:
 336              	.LFB5:
 265:src/Settle.c  ****   RSP_DATA.text[0] = 40;
 337              		.loc 1 265 0
 338              		.cfi_startproc
 339              		@ args = 0, pretend = 0, frame = 0
 340              		@ frame_needed = 0, uses_anonymous_args = 0
 341 0000 10B5     		push	{r4, lr}
 342              		.cfi_def_cfa_offset 8
 343              		.cfi_offset 4, -8
 344              		.cfi_offset 14, -4
 266:src/Settle.c  ****   memset(&RSP_DATA.text[1+5], ' ', 15);
 345              		.loc 1 266 0
 346 0002 2823     		movs	r3, #40
 347 0004 0B4C     		ldr	r4, .L34
 267:src/Settle.c  ****   memcpy(&RSP_DATA.text[1], "BATCH", 5);
 348              		.loc 1 267 0
 349 0006 2021     		movs	r1, #32
 350 0008 0F22     		movs	r2, #15
 351 000a 0B48     		ldr	r0, .L34+4
 266:src/Settle.c  ****   memset(&RSP_DATA.text[1+5], ' ', 15);
 352              		.loc 1 266 0
 353 000c 84F80137 		strb	r3, [r4, #1793]
 267:src/Settle.c  ****   memcpy(&RSP_DATA.text[1], "BATCH", 5);
 354              		.loc 1 267 0
 355 0010 FFF7FEFF 		bl	memset
 356              	.LVL22:
 268:src/Settle.c  ****   split(&RSP_DATA.text[7],STIS_ACQ_TBL(0).sb_curr_batch_no, 3);
 357              		.loc 1 268 0
 358 0014 0949     		ldr	r1, .L34+8
 359 0016 0522     		movs	r2, #5
 360 0018 0948     		ldr	r0, .L34+12
 361 001a FFF7FEFF 		bl	memcpy
 362              	.LVL23:
 269:src/Settle.c  **** }
 363              		.loc 1 269 0
 364 001e 094B     		ldr	r3, .L34+16
 365 0020 04F5E160 		add	r0, r4, #1800
 270:src/Settle.c  **** //*****************************************************************************
 366              		.loc 1 270 0
 367 0024 BDE81040 		pop	{r4, lr}
 368              		.cfi_restore 14
 369              		.cfi_restore 4
 370              		.cfi_def_cfa_offset 0
 269:src/Settle.c  **** }
 371              		.loc 1 269 0
 372 0028 1968     		ldr	r1, [r3]
 373 002a 0322     		movs	r2, #3
 374 002c 01F56D71 		add	r1, r1, #948
 375 0030 FFF7FEBF 		b	split
 376              	.LVL24:
 377              	.L35:
 378              		.align	2
 379              	.L34:
 380 0034 00000000 		.word	gGTS
 381 0038 07070000 		.word	gGTS+1799
 382 003c 00000000 		.word	.LC0
ARM GAS  C:\Users\AHMEDH~1\AppData\Local\Temp\ccAmxyYZ.s 			page 14


 383 0040 02070000 		.word	gGTS+1794
 384 0044 00000000 		.word	gGDS
 385              		.cfi_endproc
 386              	.LFE5:
 387              		.size	PackBatchText, .-PackBatchText
 388              		.section	.text.CloseBatch,"ax",%progbits
 389              		.align	1
 390              		.thumb
 391              		.thumb_func
 392              		.type	CloseBatch, %function
 393              	CloseBatch:
 394              	.LFB6:
 280:src/Settle.c  ****   memcpy(P_DATA.sb_roc_no, TX_DATA.sb_roc_no, 3);
 395              		.loc 1 280 0
 396              		.cfi_startproc
 397              		@ args = 0, pretend = 0, frame = 40
 398              		@ frame_needed = 0, uses_anonymous_args = 0
 399 0000 30B5     		push	{r4, r5, lr}
 400              		.cfi_def_cfa_offset 12
 401              		.cfi_offset 4, -12
 402              		.cfi_offset 5, -8
 403              		.cfi_offset 14, -4
 281:src/Settle.c  ****   FormSettleSlip(); /* print it */
 404              		.loc 1 281 0
 405 0002 604C     		ldr	r4, .L38
 280:src/Settle.c  ****   memcpy(P_DATA.sb_roc_no, TX_DATA.sb_roc_no, 3);
 406              		.loc 1 280 0
 407 0004 8DB0     		sub	sp, sp, #52
 408              		.cfi_def_cfa_offset 64
 281:src/Settle.c  ****   FormSettleSlip(); /* print it */
 409              		.loc 1 281 0
 410 0006 2568     		ldr	r5, [r4]
 411 0008 5F49     		ldr	r1, .L38+4
 412 000a 05F6C620 		addw	r0, r5, #2758
 413              	.LBB4:
 414              	.LBB5:
  71:src/Settle.c  ****     ReadRTC(&dtg);
 415              		.loc 1 71 0
 416 000e 05F57155 		add	r5, r5, #15424
 417              	.LBE5:
 418              	.LBE4:
 281:src/Settle.c  ****   FormSettleSlip(); /* print it */
 419              		.loc 1 281 0
 420 0012 0322     		movs	r2, #3
 421 0014 FFF7FEFF 		bl	memcpy
 422              	.LVL25:
 423              	.LBB7:
 424              	.LBB6:
  71:src/Settle.c  ****     ReadRTC(&dtg);
 425              		.loc 1 71 0
 426 0018 AB8A     		ldrh	r3, [r5, #20]
 427 001a 5BB9     		cbnz	r3, .L37
  72:src/Settle.c  ****     gGDS->s_bs_date.b_mm = dtg.b_month;
 428              		.loc 1 72 0
 429 001c 02A8     		add	r0, sp, #8
 430 001e FFF7FEFF 		bl	ReadRTC
 431              	.LVL26:
ARM GAS  C:\Users\AHMEDH~1\AppData\Local\Temp\ccAmxyYZ.s 			page 15


  73:src/Settle.c  ****     gGDS->s_bs_date.b_dd = dtg.b_day;
 432              		.loc 1 73 0
 433 0022 2368     		ldr	r3, [r4]
 434 0024 9DF80A20 		ldrb	r2, [sp, #10]	@ zero_extendqisi2
 435 0028 03F57153 		add	r3, r3, #15424
 436 002c 1A75     		strb	r2, [r3, #20]
  74:src/Settle.c  ****   }
 437              		.loc 1 74 0
 438 002e 9DF80B20 		ldrb	r2, [sp, #11]	@ zero_extendqisi2
 439 0032 5A75     		strb	r2, [r3, #21]
 440              	.L37:
  77:src/Settle.c  ****   PackLogo();
 441              		.loc 1 77 0
 442 0034 FFF7FEFF 		bl	MsgBufSetup
 443              	.LVL27:
  78:src/Settle.c  ****   pack_lf();
 444              		.loc 1 78 0
 445 0038 FFF7FEFF 		bl	PackLogo
 446              	.LVL28:
  79:src/Settle.c  ****   PackRcptHeader();
 447              		.loc 1 79 0
 448 003c FFF7FEFF 		bl	pack_lf
 449              	.LVL29:
  80:src/Settle.c  ****   pack_lf();
 450              		.loc 1 80 0
 451 0040 FFF7FEFF 		bl	PackRcptHeader
 452              	.LVL30:
  81:src/Settle.c  ****   pack_space(2);
 453              		.loc 1 81 0
 454 0044 FFF7FEFF 		bl	pack_lf
 455              	.LVL31:
  82:src/Settle.c  ****   pack_mem("\x1BW1SETTLEMENT\x1BW0", 16);
 456              		.loc 1 82 0
 457 0048 0220     		movs	r0, #2
 458 004a FFF7FEFF 		bl	pack_space
 459              	.LVL32:
  83:src/Settle.c  ****   pack_lfs(2);
 460              		.loc 1 83 0
 461 004e 1021     		movs	r1, #16
 462 0050 4E48     		ldr	r0, .L38+8
 463 0052 FFF7FEFF 		bl	pack_mem
 464              	.LVL33:
  84:src/Settle.c  **** 
 465              		.loc 1 84 0
 466 0056 0220     		movs	r0, #2
 467 0058 FFF7FEFF 		bl	pack_lfs
 468              	.LVL34:
  86:src/Settle.c  ****   pack_space(MAX_CHAR_LINE_NORMAL-18);
 469              		.loc 1 86 0
 470 005c 2068     		ldr	r0, [r4]
 471 005e 0A21     		movs	r1, #10
 472 0060 00F25330 		addw	r0, r0, #851
 473 0064 FFF7FEFF 		bl	pack_mem
 474              	.LVL35:
  87:src/Settle.c  ****   pack_mem((BYTE *)KNII, 4);
 475              		.loc 1 87 0
 476 0068 0C20     		movs	r0, #12
ARM GAS  C:\Users\AHMEDH~1\AppData\Local\Temp\ccAmxyYZ.s 			page 16


 477 006a FFF7FEFF 		bl	pack_space
 478              	.LVL36:
  88:src/Settle.c  ****   split_data(STIS_ACQ_TBL(0).sb_nii,2);
 479              		.loc 1 88 0
 480 006e 4848     		ldr	r0, .L38+12
 481 0070 0421     		movs	r1, #4
 482 0072 FFF7FEFF 		bl	pack_mem
 483              	.LVL37:
  89:src/Settle.c  ****   pack_lf();
 484              		.loc 1 89 0
 485 0076 2068     		ldr	r0, [r4]
 486 0078 0221     		movs	r1, #2
 487 007a 00F29A30 		addw	r0, r0, #922
 488 007e FFF7FEFF 		bl	split_data
 489              	.LVL38:
  90:src/Settle.c  **** 
 490              		.loc 1 90 0
 491 0082 FFF7FEFF 		bl	pack_lf
 492              	.LVL39:
  92:src/Settle.c  ****   pack_mem((BYTE *)GetMonthText((BYTE)bcd2bin(gGDS->s_bs_date.b_mm)),  3);
 493              		.loc 1 92 0
 494 0086 1021     		movs	r1, #16
 495 0088 4248     		ldr	r0, .L38+16
 496 008a FFF7FEFF 		bl	pack_mem
 497              	.LVL40:
  93:src/Settle.c  ****   pack_byte(' ');
 498              		.loc 1 93 0
 499 008e 2368     		ldr	r3, [r4]
 500 0090 03F57153 		add	r3, r3, #15424
 501 0094 187D     		ldrb	r0, [r3, #20]	@ zero_extendqisi2
 502 0096 FFF7FEFF 		bl	bcd2bin
 503              	.LVL41:
 504 009a C0B2     		uxtb	r0, r0
 505 009c FFF7FEFF 		bl	GetMonthText
 506              	.LVL42:
 507 00a0 0321     		movs	r1, #3
 508 00a2 FFF7FEFF 		bl	pack_mem
 509              	.LVL43:
  94:src/Settle.c  ****   split_data(&gGDS->s_bs_date.b_dd, 1);
 510              		.loc 1 94 0
 511 00a6 2020     		movs	r0, #32
 512 00a8 FFF7FEFF 		bl	pack_byte
 513              	.LVL44:
  95:src/Settle.c  ****   pack_lf();
 514              		.loc 1 95 0
 515 00ac 2068     		ldr	r0, [r4]
 516 00ae 0121     		movs	r1, #1
 517 00b0 00F57150 		add	r0, r0, #15424
 518 00b4 1530     		adds	r0, r0, #21
 519 00b6 FFF7FEFF 		bl	split_data
 520              	.LVL45:
  96:src/Settle.c  **** 
 521              		.loc 1 96 0
 522 00ba FFF7FEFF 		bl	pack_lf
 523              	.LVL46:
  98:src/Settle.c  ****   ConvDateTime(tmp, &dtg, 1);
 524              		.loc 1 98 0
ARM GAS  C:\Users\AHMEDH~1\AppData\Local\Temp\ccAmxyYZ.s 			page 17


 525 00be 02A8     		add	r0, sp, #8
 526 00c0 FFF7FEFF 		bl	ReadRTC
 527              	.LVL47:
  99:src/Settle.c  ****   pack_mem(tmp, 18);
 528              		.loc 1 99 0
 529 00c4 0122     		movs	r2, #1
 530 00c6 04A8     		add	r0, sp, #16
 531 00c8 02A9     		add	r1, sp, #8
 532 00ca FFF7FEFF 		bl	ConvDateTime
 533              	.LVL48:
 100:src/Settle.c  ****   pack_lfs(2);
 534              		.loc 1 100 0
 535 00ce 04A8     		add	r0, sp, #16
 536 00d0 1221     		movs	r1, #18
 537 00d2 FFF7FEFF 		bl	pack_mem
 538              	.LVL49:
 101:src/Settle.c  **** 
 539              		.loc 1 101 0
 540 00d6 0220     		movs	r0, #2
 541 00d8 FFF7FEFF 		bl	pack_lfs
 542              	.LVL50:
 103:src/Settle.c  ****   pack_lf();
 543              		.loc 1 103 0
 544 00dc 2E48     		ldr	r0, .L38+20
 545 00de 1F21     		movs	r1, #31
 546 00e0 FFF7FEFF 		bl	pack_mem
 547              	.LVL51:
 104:src/Settle.c  ****   pack_mem((BYTE *)KCloseBatch, 31);
 548              		.loc 1 104 0
 549 00e4 FFF7FEFF 		bl	pack_lf
 550              	.LVL52:
 105:src/Settle.c  ****   pack_lf();
 551              		.loc 1 105 0
 552 00e8 2C48     		ldr	r0, .L38+24
 553 00ea 1F21     		movs	r1, #31
 554 00ec FFF7FEFF 		bl	pack_mem
 555              	.LVL53:
 106:src/Settle.c  ****   pack_mem(&RSP_DATA.text[1], 20);
 556              		.loc 1 106 0
 557 00f0 FFF7FEFF 		bl	pack_lf
 558              	.LVL54:
 107:src/Settle.c  ****   pack_lf();
 559              		.loc 1 107 0
 560 00f4 2A48     		ldr	r0, .L38+28
 561 00f6 1421     		movs	r1, #20
 562 00f8 FFF7FEFF 		bl	pack_mem
 563              	.LVL55:
 108:src/Settle.c  ****   pack_mem(&RSP_DATA.text[21], 20);
 564              		.loc 1 108 0
 565 00fc FFF7FEFF 		bl	pack_lf
 566              	.LVL56:
 109:src/Settle.c  ****   pack_lfs(2);
 567              		.loc 1 109 0
 568 0100 1421     		movs	r1, #20
 569 0102 2848     		ldr	r0, .L38+32
 570 0104 FFF7FEFF 		bl	pack_mem
 571              	.LVL57:
ARM GAS  C:\Users\AHMEDH~1\AppData\Local\Temp\ccAmxyYZ.s 			page 18


 110:src/Settle.c  ****   PackTotals(&TERM_TOT);
 572              		.loc 1 110 0
 573 0108 0220     		movs	r0, #2
 574 010a FFF7FEFF 		bl	pack_lfs
 575              	.LVL58:
 111:src/Settle.c  ****   PackFF();
 576              		.loc 1 111 0
 577 010e 2068     		ldr	r0, [r4]
 578 0110 00F6C840 		addw	r0, r0, #3272
 579 0114 FFF7FEFF 		bl	PackTotals
 580              	.LVL59:
 112:src/Settle.c  ****   PackIssuerSum(0);
 581              		.loc 1 112 0
 582 0118 FFF7FEFF 		bl	PackFF
 583              	.LVL60:
 113:src/Settle.c  ****   pack_lf();
 584              		.loc 1 113 0
 585 011c 0020     		movs	r0, #0
 586 011e FFF7FEFF 		bl	PackIssuerSum
 587              	.LVL61:
 114:src/Settle.c  ****   PackFF();
 588              		.loc 1 114 0
 589 0122 FFF7FEFF 		bl	pack_lf
 590              	.LVL62:
 115:src/Settle.c  **** 
 591              		.loc 1 115 0
 592 0126 FFF7FEFF 		bl	PackFF
 593              	.LVL63:
 117:src/Settle.c  **** }
 594              		.loc 1 117 0
 595 012a FFF7FEFF 		bl	PackMsgBufLen
 596              	.LVL64:
 597              	.LBE6:
 598              	.LBE7:
 283:src/Settle.c  ****   bcdinc(STIS_ACQ_TBL(0).sb_next_batch_no, 3);
 599              		.loc 1 283 0
 600 012e 2068     		ldr	r0, [r4]
 601 0130 0322     		movs	r2, #3
 602 0132 00F2B735 		addw	r5, r0, #951
 603 0136 2946     		mov	r1, r5
 604 0138 00F56D70 		add	r0, r0, #948
 605 013c FFF7FEFF 		bl	memcpy
 606              	.LVL65:
 284:src/Settle.c  ****   APM_SetBatchNo(INPUT.w_host_idx,STIS_ACQ_TBL(0).sb_curr_batch_no);
 607              		.loc 1 284 0
 608 0140 2846     		mov	r0, r5
 609 0142 0321     		movs	r1, #3
 610 0144 FFF7FEFF 		bl	bcdinc
 611              	.LVL66:
 285:src/Settle.c  ****   APM_BatchClear(INPUT.w_host_idx);
 612              		.loc 1 285 0
 613 0148 174D     		ldr	r5, .L38+36
 614 014a 2368     		ldr	r3, [r4]
 615 014c 0024     		movs	r4, #0
 616 014e B5F87620 		ldrh	r2, [r5, #118]
 617 0152 1F21     		movs	r1, #31
 618 0154 0094     		str	r4, [sp]
ARM GAS  C:\Users\AHMEDH~1\AppData\Local\Temp\ccAmxyYZ.s 			page 19


 619 0156 03F56D73 		add	r3, r3, #948
 620 015a 1020     		movs	r0, #16
 621 015c FFF7FEFF 		bl	lib_app_call
 622              	.LVL67:
 286:src/Settle.c  ****   fCommitAllMW();
 623              		.loc 1 286 0
 624 0160 B5F87620 		ldrh	r2, [r5, #118]
 625 0164 2346     		mov	r3, r4
 626 0166 0094     		str	r4, [sp]
 627 0168 2721     		movs	r1, #39
 628 016a 1020     		movs	r0, #16
 629 016c FFF7FEFF 		bl	lib_app_call
 630              	.LVL68:
 287:src/Settle.c  **** }
 631              		.loc 1 287 0
 632 0170 0094     		str	r4, [sp]
 633 0172 1321     		movs	r1, #19
 634 0174 2246     		mov	r2, r4
 635 0176 2346     		mov	r3, r4
 636 0178 0F20     		movs	r0, #15
 637 017a FFF7FEFF 		bl	lib_app_call
 638              	.LVL69:
 288:src/Settle.c  **** //*****************************************************************************
 639              		.loc 1 288 0
 640 017e 0DB0     		add	sp, sp, #52
 641              		.cfi_def_cfa_offset 12
 642              		@ sp needed
 643 0180 30BD     		pop	{r4, r5, pc}
 644              	.L39:
 645 0182 00BF     		.align	2
 646              	.L38:
 647 0184 00000000 		.word	gGDS
 648 0188 06030000 		.word	gGTS+774
 649 018c 06000000 		.word	.LC1
 650 0190 10000000 		.word	.LANCHOR0+16
 651 0194 15000000 		.word	.LANCHOR0+21
 652 0198 26000000 		.word	.LANCHOR0+38
 653 019c 46000000 		.word	.LANCHOR0+70
 654 01a0 02070000 		.word	gGTS+1794
 655 01a4 16070000 		.word	gGTS+1814
 656 01a8 00000000 		.word	gGTS
 657              		.cfi_endproc
 658              	.LFE6:
 659              		.size	CloseBatch, .-CloseBatch
 660              		.section	.text.ConfirmSetlTot,"ax",%progbits
 661              		.align	1
 662              		.global	ConfirmSetlTot
 663              		.thumb
 664              		.thumb_func
 665              		.type	ConfirmSetlTot, %function
 666              	ConfirmSetlTot:
 667              	.LFB8:
 305:src/Settle.c  **** //*****************************************************************************
 306:src/Settle.c  **** //  Function        : ComfirmSetlTot
 307:src/Settle.c  **** //  Description     : Confirm/Enter Settlement total & Bussiness Date.
 308:src/Settle.c  **** //  Input           : N/A
 309:src/Settle.c  **** //  Return          : TRUE/FALSE;       // TRUE => confirmed.
ARM GAS  C:\Users\AHMEDH~1\AppData\Local\Temp\ccAmxyYZ.s 			page 20


 310:src/Settle.c  **** //  Note            : N/A
 311:src/Settle.c  **** //  Globals         : N/A
 312:src/Settle.c  **** //*****************************************************************************
 313:src/Settle.c  **** BOOLEAN ConfirmSetlTot(void)
 314:src/Settle.c  **** {
 668              		.loc 1 314 0
 669              		.cfi_startproc
 670              		@ args = 0, pretend = 0, frame = 40
 671              		@ frame_needed = 0, uses_anonymous_args = 0
 672 0000 2DE9F047 		push	{r4, r5, r6, r7, r8, r9, r10, lr}
 673              		.cfi_def_cfa_offset 32
 674              		.cfi_offset 4, -32
 675              		.cfi_offset 5, -28
 676              		.cfi_offset 6, -24
 677              		.cfi_offset 7, -20
 678              		.cfi_offset 8, -16
 679              		.cfi_offset 9, -12
 680              		.cfi_offset 10, -8
 681              		.cfi_offset 14, -4
 315:src/Settle.c  ****   DDWORD total;
 316:src/Settle.c  ****   APM_GetAcqTbl(INPUT.w_host_idx, &STIS_ACQ_TBL(0));
 682              		.loc 1 316 0
 683 0004 B94F     		ldr	r7, .L86
 314:src/Settle.c  ****   DDWORD total;
 684              		.loc 1 314 0
 685 0006 8CB0     		sub	sp, sp, #48
 686              		.cfi_def_cfa_offset 80
 687              		.loc 1 316 0
 688 0008 B94E     		ldr	r6, .L86+4
 689 000a 3B68     		ldr	r3, [r7]
 690 000c 4FF00009 		mov	r9, #0
 691 0010 B6F87620 		ldrh	r2, [r6, #118]
 692 0014 1521     		movs	r1, #21
 693 0016 03F55273 		add	r3, r3, #840
 694 001a CDF80090 		str	r9, [sp]
 695 001e 1020     		movs	r0, #16
 696 0020 FFF7FEFF 		bl	lib_app_call
 697              	.LVL70:
 317:src/Settle.c  **** 
 318:src/Settle.c  ****   INPUT.b_trans = SETTLEMENT;
 698              		.loc 1 318 0
 699 0024 0D23     		movs	r3, #13
 319:src/Settle.c  **** 
 320:src/Settle.c  ****   CalTotals(FALSE);
 700              		.loc 1 320 0
 701 0026 4846     		mov	r0, r9
 318:src/Settle.c  **** 
 702              		.loc 1 318 0
 703 0028 3370     		strb	r3, [r6]
 704              		.loc 1 320 0
 705 002a FFF7FEFF 		bl	CalTotals
 706              	.LVL71:
 321:src/Settle.c  ****   if (AllTotalZero()) {
 707              		.loc 1 321 0
 708 002e FFF7FEFF 		bl	AllTotalZero
 709              	.LVL72:
 710 0032 B246     		mov	r10, r6
ARM GAS  C:\Users\AHMEDH~1\AppData\Local\Temp\ccAmxyYZ.s 			page 21


 711 0034 3D46     		mov	r5, r7
 712 0036 8046     		mov	r8, r0
 713 0038 78B3     		cbz	r0, .L41
 714              	.LBB16:
 322:src/Settle.c  ****     DispLineMW(GetConstMsg(KTransHeader[SETTLEMENT]), MW_LINE1, MW_REVERSE|MW_CENTER|MW_BIGFONT);
 715              		.loc 1 322 0
 716 003a AE4B     		ldr	r3, .L86+8
 717 003c 5E7B     		ldrb	r6, [r3, #13]	@ zero_extendqisi2
 718 003e 3046     		mov	r0, r6
 719 0040 FFF7FEFF 		bl	GetConstMsg
 720              	.LVL73:
 721 0044 FFF7FEFF 		bl	strlen
 722              	.LVL74:
 723 0048 0546     		mov	r5, r0
 724              	.LVL75:
 725 004a 691C     		adds	r1, r5, #1
 726 004c 9220     		movs	r0, #146
 727              	.LVL76:
 728 004e FFF7FEFF 		bl	sys_func1
 729              	.LVL77:
 730 0052 0446     		mov	r4, r0
 731 0054 B8B1     		cbz	r0, .L42
 732              		.loc 1 322 0 is_stmt 0 discriminator 1
 733 0056 3046     		mov	r0, r6
 734              	.LVL78:
 735 0058 FFF7FEFF 		bl	GetConstMsg
 736              	.LVL79:
 737 005c 2A46     		mov	r2, r5
 738 005e 0146     		mov	r1, r0
 739 0060 2046     		mov	r0, r4
 740 0062 FFF7FEFF 		bl	memcpy
 741              	.LVL80:
 742 0066 41F21203 		movw	r3, #4114
 743 006a 04F80590 		strb	r9, [r4, r5]
 744 006e 2521     		movs	r1, #37
 745 0070 0093     		str	r3, [sp]
 746 0072 0F20     		movs	r0, #15
 747 0074 2246     		mov	r2, r4
 748 0076 4FF48073 		mov	r3, #256
 749 007a FFF7FEFF 		bl	lib_app_call
 750              	.LVL81:
 751 007e 9420     		movs	r0, #148
 752 0080 2146     		mov	r1, r4
 753 0082 FFF7FEFF 		bl	sys_func1
 754              	.LVL82:
 755              	.L42:
 756              	.LBE16:
 323:src/Settle.c  ****     DispErrorMsg(GetConstMsg(EDC_SE_NO_BATCH));
 757              		.loc 1 323 0 is_stmt 1
 758 0086 8120     		movs	r0, #129
 759 0088 FFF7FEFF 		bl	GetConstMsg
 760              	.LVL83:
 761 008c FFF7FEFF 		bl	DispErrorMsg
 762              	.LVL84:
 324:src/Settle.c  ****     RSP_DATA.w_rspcode = 'N'*256 + 'T';  // For ECR response
 763              		.loc 1 324 0
 764 0090 44F65463 		movw	r3, #20052
ARM GAS  C:\Users\AHMEDH~1\AppData\Local\Temp\ccAmxyYZ.s 			page 22


 765 0094 AAF86E35 		strh	r3, [r10, #1390]	@ movhi
 766 0098 3EE0     		b	.L48
 767              	.LVL85:
 768              	.L41:
 325:src/Settle.c  ****     return FALSE;
 326:src/Settle.c  ****   }
 327:src/Settle.c  **** 
 328:src/Settle.c  ****   // No Confirmation for ECR Settlement
 329:src/Settle.c  ****   if (gGDS->i_ecr_len > 0)
 769              		.loc 1 329 0
 770 009a 3B68     		ldr	r3, [r7]
 771 009c 03F58443 		add	r3, r3, #16896
 772 00a0 DB6D     		ldr	r3, [r3, #92]
 773 00a2 002B     		cmp	r3, #0
 774 00a4 00F31D81 		bgt	.L61
 330:src/Settle.c  ****     return TRUE;
 331:src/Settle.c  **** 
 332:src/Settle.c  ****   if (ComfirmTotal()) {
 775              		.loc 1 332 0
 776 00a8 FFF7FEFF 		bl	ComfirmTotal
 777              	.LVL86:
 778 00ac 0446     		mov	r4, r0
 779 00ae 0028     		cmp	r0, #0
 780 00b0 68D0     		beq	.L44
 781              	.LBB17:
 333:src/Settle.c  ****     DispLineMW(GetConstMsg(EDC_SE_SALE_TOTAL), MW_LINE1, MW_CLRDISP|MW_BIGFONT);
 782              		.loc 1 333 0
 783 00b2 8220     		movs	r0, #130
 784 00b4 FFF7FEFF 		bl	GetConstMsg
 785              	.LVL87:
 786 00b8 FFF7FEFF 		bl	strlen
 787              	.LVL88:
 788 00bc 0646     		mov	r6, r0
 789              	.LVL89:
 790 00be 711C     		adds	r1, r6, #1
 791 00c0 9220     		movs	r0, #146
 792              	.LVL90:
 793 00c2 FFF7FEFF 		bl	sys_func1
 794              	.LVL91:
 795 00c6 0446     		mov	r4, r0
 796 00c8 B8B1     		cbz	r0, .L45
 797              		.loc 1 333 0 is_stmt 0 discriminator 1
 798 00ca 8220     		movs	r0, #130
 799              	.LVL92:
 800 00cc FFF7FEFF 		bl	GetConstMsg
 801              	.LVL93:
 802 00d0 3246     		mov	r2, r6
 803 00d2 0146     		mov	r1, r0
 804 00d4 2046     		mov	r0, r4
 805 00d6 FFF7FEFF 		bl	memcpy
 806              	.LVL94:
 807 00da 4FF48453 		mov	r3, #4224
 808 00de 04F80680 		strb	r8, [r4, r6]
 809 00e2 2521     		movs	r1, #37
 810 00e4 0093     		str	r3, [sp]
 811 00e6 0F20     		movs	r0, #15
 812 00e8 2246     		mov	r2, r4
ARM GAS  C:\Users\AHMEDH~1\AppData\Local\Temp\ccAmxyYZ.s 			page 23


 813 00ea 4FF48073 		mov	r3, #256
 814 00ee FFF7FEFF 		bl	lib_app_call
 815              	.LVL95:
 816 00f2 9420     		movs	r0, #148
 817 00f4 2146     		mov	r1, r4
 818 00f6 FFF7FEFF 		bl	sys_func1
 819              	.LVL96:
 820              	.L45:
 821              	.LBE17:
 334:src/Settle.c  ****     DispAmount(TERM_TOT.s_sale_tot.dd_amount, MW_LINE3, MW_BIGFONT);
 822              		.loc 1 334 0 is_stmt 1
 823 00fa 2B68     		ldr	r3, [r5]
 824 00fc 4FF44072 		mov	r2, #768
 825 0100 03F6D843 		addw	r3, r3, #3288
 826 0104 D3E90001 		ldrd	r0, [r3]
 827 0108 4FF48053 		mov	r3, #4096
 828 010c FFF7FEFF 		bl	DispAmount
 829              	.LVL97:
 335:src/Settle.c  ****     if (PromptYesNo() != 2)
 830              		.loc 1 335 0
 831 0110 FFF7FEFF 		bl	PromptYesNo
 832              	.LVL98:
 833 0114 0228     		cmp	r0, #2
 834 0116 01D0     		beq	.L46
 835              	.LVL99:
 836              	.L48:
 336:src/Settle.c  ****       return FALSE;
 837              		.loc 1 336 0
 838 0118 0024     		movs	r4, #0
 839 011a E3E0     		b	.L43
 840              	.LVL100:
 841              	.L46:
 842              	.LBB18:
 337:src/Settle.c  ****     DispLineMW(GetConstMsg(EDC_SE_REFUND_TOTAL), MW_LINE1, MW_CLRDISP|MW_BIGFONT);
 843              		.loc 1 337 0
 844 011c 8320     		movs	r0, #131
 845 011e FFF7FEFF 		bl	GetConstMsg
 846              	.LVL101:
 847 0122 FFF7FEFF 		bl	strlen
 848              	.LVL102:
 849 0126 0646     		mov	r6, r0
 850              	.LVL103:
 851 0128 711C     		adds	r1, r6, #1
 852 012a 9220     		movs	r0, #146
 853              	.LVL104:
 854 012c FFF7FEFF 		bl	sys_func1
 855              	.LVL105:
 856 0130 0446     		mov	r4, r0
 857              	.LVL106:
 858 0132 B8B1     		cbz	r0, .L47
 859              		.loc 1 337 0 is_stmt 0 discriminator 1
 860 0134 8320     		movs	r0, #131
 861              	.LVL107:
 862 0136 FFF7FEFF 		bl	GetConstMsg
 863              	.LVL108:
 864 013a 3246     		mov	r2, r6
 865 013c 0146     		mov	r1, r0
ARM GAS  C:\Users\AHMEDH~1\AppData\Local\Temp\ccAmxyYZ.s 			page 24


 866 013e 2046     		mov	r0, r4
 867 0140 FFF7FEFF 		bl	memcpy
 868              	.LVL109:
 869 0144 0023     		movs	r3, #0
 870 0146 2521     		movs	r1, #37
 871 0148 A355     		strb	r3, [r4, r6]
 872 014a 4FF48453 		mov	r3, #4224
 873 014e 0F20     		movs	r0, #15
 874 0150 0093     		str	r3, [sp]
 875 0152 2246     		mov	r2, r4
 876 0154 4FF48073 		mov	r3, #256
 877 0158 FFF7FEFF 		bl	lib_app_call
 878              	.LVL110:
 879 015c 9420     		movs	r0, #148
 880 015e 2146     		mov	r1, r4
 881 0160 FFF7FEFF 		bl	sys_func1
 882              	.LVL111:
 883              	.L47:
 884              	.LBE18:
 338:src/Settle.c  ****     DispAmount(TERM_TOT.s_refund_tot.dd_amount, MW_LINE3, MW_BIGFONT);
 885              		.loc 1 338 0 is_stmt 1
 886 0164 2B68     		ldr	r3, [r5]
 887 0166 4FF44072 		mov	r2, #768
 888 016a 03F6F843 		addw	r3, r3, #3320
 889 016e D3E90001 		ldrd	r0, [r3]
 890 0172 4FF48053 		mov	r3, #4096
 891 0176 FFF7FEFF 		bl	DispAmount
 892              	.LVL112:
 339:src/Settle.c  ****     if (PromptYesNo() != 2)
 893              		.loc 1 339 0
 894 017a FFF7FEFF 		bl	PromptYesNo
 895              	.LVL113:
 896 017e 0228     		cmp	r0, #2
 897 0180 CAD1     		bne	.L48
 898 0182 76E0     		b	.L49
 899              	.LVL114:
 900              	.L44:
 340:src/Settle.c  ****       return FALSE;
 341:src/Settle.c  ****   }
 342:src/Settle.c  ****   else {
 343:src/Settle.c  ****     Disp2x16Msg(GetConstMsg(EDC_SE_ENTER_SALE_TOTAL), MW_LINE3, MW_CLRDISP|MW_BIGFONT);
 901              		.loc 1 343 0
 902 0184 8520     		movs	r0, #133
 903 0186 FFF7FEFF 		bl	GetConstMsg
 904              	.LVL115:
 905 018a 4FF44071 		mov	r1, #768
 906 018e 4FF48452 		mov	r2, #4224
 907 0192 FFF7FEFF 		bl	Disp2x16Msg
 908              	.LVL116:
 344:src/Settle.c  ****     if (!GetSettleAmount())
 909              		.loc 1 344 0
 910 0196 FFF7FEFF 		bl	GetSettleAmount
 911              	.LVL117:
 912 019a 0028     		cmp	r0, #0
 913 019c BCD0     		beq	.L48
 345:src/Settle.c  ****       return FALSE;
 346:src/Settle.c  ****     if (INPUT.dd_amount != TERM_TOT.s_sale_tot.dd_amount) {
ARM GAS  C:\Users\AHMEDH~1\AppData\Local\Temp\ccAmxyYZ.s 			page 25


 914              		.loc 1 346 0
 915 019e 3968     		ldr	r1, [r7]
 916 01a0 D6E90623 		ldrd	r2, [r6, #24]
 917 01a4 01F6D840 		addw	r0, r1, #3288
 918 01a8 D0E90089 		ldrd	r8, [r0]
 919 01ac 4B45     		cmp	r3, r9
 920 01ae 08BF     		it	eq
 921 01b0 4245     		cmpeq	r2, r8
 922 01b2 16D1     		bne	.L83
 347:src/Settle.c  ****       DispErrorMsg(GetConstMsg(EDC_SE_TOTAL_WRONG));
 348:src/Settle.c  ****       return FALSE;
 349:src/Settle.c  ****     }
 350:src/Settle.c  ****     total = TERM_TOT.s_refund_tot.dd_amount;
 923              		.loc 1 350 0
 924 01b4 01F6F841 		addw	r1, r1, #3320
 351:src/Settle.c  ****     Disp2x16Msg(GetConstMsg(EDC_SE_ENTER_REF_TOTAL), MW_LINE3, MW_CLRDISP|MW_BIGFONT);
 925              		.loc 1 351 0
 926 01b8 8620     		movs	r0, #134
 350:src/Settle.c  ****     Disp2x16Msg(GetConstMsg(EDC_SE_ENTER_REF_TOTAL), MW_LINE3, MW_CLRDISP|MW_BIGFONT);
 927              		.loc 1 350 0
 928 01ba D1E90089 		ldrd	r8, [r1]
 929              	.LVL118:
 930              		.loc 1 351 0
 931 01be FFF7FEFF 		bl	GetConstMsg
 932              	.LVL119:
 933 01c2 4FF44071 		mov	r1, #768
 934 01c6 4FF48452 		mov	r2, #4224
 935 01ca FFF7FEFF 		bl	Disp2x16Msg
 936              	.LVL120:
 352:src/Settle.c  ****     if (!GetSettleAmount())
 937              		.loc 1 352 0
 938 01ce FFF7FEFF 		bl	GetSettleAmount
 939              	.LVL121:
 940 01d2 0028     		cmp	r0, #0
 941 01d4 A0D0     		beq	.L48
 353:src/Settle.c  ****       return FALSE;
 354:src/Settle.c  ****     if (INPUT.dd_amount != total) {
 942              		.loc 1 354 0
 943 01d6 D6E90623 		ldrd	r2, [r6, #24]
 944 01da 4B45     		cmp	r3, r9
 945 01dc 08BF     		it	eq
 946 01de 4245     		cmpeq	r2, r8
 947 01e0 47D0     		beq	.L49
 948              	.LVL122:
 949              	.L83:
 355:src/Settle.c  ****       DispErrorMsg(GetConstMsg(EDC_SE_TOTAL_WRONG));
 950              		.loc 1 355 0
 951 01e2 8420     		movs	r0, #132
 952 01e4 FFF7FEFF 		bl	GetConstMsg
 953              	.LVL123:
 954 01e8 FFF7FEFF 		bl	DispErrorMsg
 955              	.LVL124:
 356:src/Settle.c  ****       return FALSE;
 956              		.loc 1 356 0
 957 01ec 7AE0     		b	.L43
 958              	.L85:
 959              	.LVL125:
ARM GAS  C:\Users\AHMEDH~1\AppData\Local\Temp\ccAmxyYZ.s 			page 26


 960              	.LBB19:
 961              	.LBB20:
 962              	.LBB21:
 211:src/Settle.c  ****     if (!APM_GetKbd(NUMERIC_INPUT+NULL_ENB+ECHO+MW_LINE7+MW_BIGFONT+RIGHT_JUST, IMIN(4)+IMAX(4), kb
 963              		.loc 1 211 0
 964 01ee 9220     		movs	r0, #146
 965 01f0 0521     		movs	r1, #5
 966 01f2 FFF7FEFF 		bl	sys_func1
 967              	.LVL126:
 968 01f6 0446     		mov	r4, r0
 969 01f8 90B1     		cbz	r0, .L53
 970 01fa 3F49     		ldr	r1, .L86+12
 971 01fc 0422     		movs	r2, #4
 972 01fe FFF7FEFF 		bl	memcpy
 973              	.LVL127:
 974 0202 4FF48053 		mov	r3, #4096
 975 0206 2671     		strb	r6, [r4, #4]
 976 0208 2521     		movs	r1, #37
 977 020a 0093     		str	r3, [sp]
 978 020c 0F20     		movs	r0, #15
 979 020e 2246     		mov	r2, r4
 980 0210 40F20C53 		movw	r3, #1292
 981 0214 FFF7FEFF 		bl	lib_app_call
 982              	.LVL128:
 983 0218 9420     		movs	r0, #148
 984 021a 2146     		mov	r1, r4
 985 021c FFF7FEFF 		bl	sys_func1
 986              	.LVL129:
 987              	.L53:
 988              	.LBE21:
 212:src/Settle.c  ****       return FALSE;
 989              		.loc 1 212 0
 990 0220 04AE     		add	r6, sp, #16
 991 0222 1020     		movs	r0, #16
 992 0224 0096     		str	r6, [sp]
 993 0226 0521     		movs	r1, #5
 994 0228 344A     		ldr	r2, .L86+16
 995 022a 40F20443 		movw	r3, #1028
 996 022e FFF7FEFF 		bl	lib_app_call
 997              	.LVL130:
 998 0232 C4B2     		uxtb	r4, r0
 999 0234 002C     		cmp	r4, #0
 1000 0236 55D0     		beq	.L43
 215:src/Settle.c  ****       ReadRTC(&dtg);
 1001              		.loc 1 215 0
 1002 0238 9DF81030 		ldrb	r3, [sp, #16]	@ zero_extendqisi2
 1003 023c 6BBB     		cbnz	r3, .L56
 216:src/Settle.c  ****       gGDS->s_bs_date.b_mm = dtg.b_month;
 1004              		.loc 1 216 0
 1005 023e 02A8     		add	r0, sp, #8
 1006 0240 FFF7FEFF 		bl	ReadRTC
 1007              	.LVL131:
 217:src/Settle.c  ****       gGDS->s_bs_date.b_dd = dtg.b_day;
 1008              		.loc 1 217 0
 1009 0244 2B68     		ldr	r3, [r5]
 1010 0246 9DF80A20 		ldrb	r2, [sp, #10]	@ zero_extendqisi2
 1011 024a 03F57153 		add	r3, r3, #15424
ARM GAS  C:\Users\AHMEDH~1\AppData\Local\Temp\ccAmxyYZ.s 			page 27


 1012 024e 1A75     		strb	r2, [r3, #20]
 218:src/Settle.c  ****     } else if (DDMMBusinessDate()) {
 1013              		.loc 1 218 0
 1014 0250 9DF80B20 		ldrb	r2, [sp, #11]	@ zero_extendqisi2
 1015 0254 5A75     		strb	r2, [r3, #21]
 1016              	.L57:
 226:src/Settle.c  ****       return TRUE;
 1017              		.loc 1 226 0
 1018 0256 2B68     		ldr	r3, [r5]
 1019              	.LVL132:
 1020              	.LBB22:
 1021              	.LBB23:
 184:src/Settle.c  ****   if ((var_x == 0) || (var_x > 12))
 1022              		.loc 1 184 0
 1023 0258 03F57153 		add	r3, r3, #15424
 1024              	.LVL133:
 1025 025c 03F11406 		add	r6, r3, #20
 1026 0260 187D     		ldrb	r0, [r3, #20]	@ zero_extendqisi2
 1027 0262 FFF7FEFF 		bl	bcd2bin
 1028              	.LVL134:
 1029 0266 C4B2     		uxtb	r4, r0
 1030              	.LVL135:
 185:src/Settle.c  ****     return FALSE;
 1031              		.loc 1 185 0
 1032 0268 631E     		subs	r3, r4, #1
 1033 026a 0B2B     		cmp	r3, #11
 1034 026c 30D9     		bls	.L84
 1035              	.LVL136:
 1036              	.L60:
 1037              	.LBE23:
 1038              	.LBE22:
 229:src/Settle.c  ****   }
 1039              		.loc 1 229 0
 1040 026e FFF7FEFF 		bl	LongBeep
 1041              	.LVL137:
 1042              	.L49:
 207:src/Settle.c  ****     DispHeader(NULL);
 1043              		.loc 1 207 0
 1044 0272 0026     		movs	r6, #0
 208:src/Settle.c  ****     Disp2x16Msg(GetConstMsg(EDC_SE_BUS_DATE), MW_LINE3, MW_BIGFONT);
 1045              		.loc 1 208 0
 1046 0274 3046     		mov	r0, r6
 207:src/Settle.c  ****     DispHeader(NULL);
 1047              		.loc 1 207 0
 1048 0276 8DF81060 		strb	r6, [sp, #16]
 208:src/Settle.c  ****     Disp2x16Msg(GetConstMsg(EDC_SE_BUS_DATE), MW_LINE3, MW_BIGFONT);
 1049              		.loc 1 208 0
 1050 027a FFF7FEFF 		bl	DispHeader
 1051              	.LVL138:
 209:src/Settle.c  ****     if (DDMMBusinessDate())
 1052              		.loc 1 209 0
 1053 027e 8020     		movs	r0, #128
 1054 0280 FFF7FEFF 		bl	GetConstMsg
 1055              	.LVL139:
 1056 0284 4FF44071 		mov	r1, #768
 1057 0288 4FF48052 		mov	r2, #4096
 1058 028c FFF7FEFF 		bl	Disp2x16Msg
ARM GAS  C:\Users\AHMEDH~1\AppData\Local\Temp\ccAmxyYZ.s 			page 28


 1059              	.LVL140:
 210:src/Settle.c  ****       DispLineMW(Kddmm, MW_LINE5+12, MW_BIGFONT);
 1060              		.loc 1 210 0
 1061 0290 FFF7FEFF 		bl	DDMMBusinessDate
 1062              	.LVL141:
 1063 0294 0028     		cmp	r0, #0
 1064 0296 C3D0     		beq	.L53
 1065 0298 A9E7     		b	.L85
 1066              	.L56:
 219:src/Settle.c  ****       compress(&kbdbuf[1],&kbdbuf[1], 2);
 1067              		.loc 1 219 0
 1068 029a FFF7FEFF 		bl	DDMMBusinessDate
 1069              	.LVL142:
 1070 029e 70B1     		cbz	r0, .L58
 220:src/Settle.c  ****       gGDS->s_bs_date.b_dd = kbdbuf[1];
 1071              		.loc 1 220 0
 1072 02a0 701C     		adds	r0, r6, #1
 1073 02a2 0222     		movs	r2, #2
 1074 02a4 0146     		mov	r1, r0
 1075 02a6 FFF7FEFF 		bl	compress
 1076              	.LVL143:
 221:src/Settle.c  ****       gGDS->s_bs_date.b_mm = kbdbuf[2];
 1077              		.loc 1 221 0
 1078 02aa 2B68     		ldr	r3, [r5]
 1079 02ac 9DF81120 		ldrb	r2, [sp, #17]	@ zero_extendqisi2
 1080 02b0 03F57153 		add	r3, r3, #15424
 1081 02b4 5A75     		strb	r2, [r3, #21]
 222:src/Settle.c  ****     } else
 1082              		.loc 1 222 0
 1083 02b6 9DF81220 		ldrb	r2, [sp, #18]	@ zero_extendqisi2
 1084 02ba 1A75     		strb	r2, [r3, #20]
 1085 02bc CBE7     		b	.L57
 1086              	.L58:
 224:src/Settle.c  **** 
 1087              		.loc 1 224 0
 1088 02be 2868     		ldr	r0, [r5]
 1089 02c0 3146     		mov	r1, r6
 1090 02c2 00F57150 		add	r0, r0, #15424
 1091 02c6 1430     		adds	r0, r0, #20
 1092 02c8 0222     		movs	r2, #2
 1093 02ca FFF7FEFF 		bl	CompressInputData
 1094              	.LVL144:
 1095 02ce C2E7     		b	.L57
 1096              	.LVL145:
 1097              	.L84:
 1098              	.LBB25:
 1099              	.LBB24:
 187:src/Settle.c  ****     return FALSE;
 1100              		.loc 1 187 0
 1101 02d0 7078     		ldrb	r0, [r6, #1]	@ zero_extendqisi2
 1102 02d2 FFF7FEFF 		bl	bcd2bin
 1103              	.LVL146:
 1104 02d6 0A4B     		ldr	r3, .L86+20
 1105 02d8 1C44     		add	r4, r4, r3
 1106              	.LVL147:
 1107 02da 94F86B30 		ldrb	r3, [r4, #107]	@ zero_extendqisi2
 1108 02de 9842     		cmp	r0, r3
ARM GAS  C:\Users\AHMEDH~1\AppData\Local\Temp\ccAmxyYZ.s 			page 29


 1109 02e0 C5D8     		bhi	.L60
 1110              	.LVL148:
 1111              	.L61:
 1112              	.LBE24:
 1113              	.LBE25:
 1114              	.LBE20:
 1115              	.LBE19:
 330:src/Settle.c  **** 
 1116              		.loc 1 330 0
 1117 02e2 0124     		movs	r4, #1
 1118              	.L43:
 357:src/Settle.c  ****     }
 358:src/Settle.c  ****   }
 359:src/Settle.c  **** 
 360:src/Settle.c  ****   if (!GetBusinessDate())
 361:src/Settle.c  ****     return FALSE;
 362:src/Settle.c  **** 
 363:src/Settle.c  ****   return TRUE;
 364:src/Settle.c  **** }
 1119              		.loc 1 364 0
 1120 02e4 2046     		mov	r0, r4
 1121 02e6 0CB0     		add	sp, sp, #48
 1122              		.cfi_def_cfa_offset 32
 1123              		@ sp needed
 1124 02e8 BDE8F087 		pop	{r4, r5, r6, r7, r8, r9, r10, pc}
 1125              	.L87:
 1126              		.align	2
 1127              	.L86:
 1128 02ec 00000000 		.word	gGDS
 1129 02f0 00000000 		.word	gGTS
 1130 02f4 00000000 		.word	KTransHeader
 1131 02f8 66000000 		.word	.LANCHOR0+102
 1132 02fc FF17A000 		.word	10491903
 1133 0300 00000000 		.word	.LANCHOR0
 1134              		.cfi_endproc
 1135              	.LFE8:
 1136              		.size	ConfirmSetlTot, .-ConfirmSetlTot
 1137              		.section	.text.SettleTrans,"ax",%progbits
 1138              		.align	1
 1139              		.global	SettleTrans
 1140              		.thumb
 1141              		.thumb_func
 1142              		.type	SettleTrans, %function
 1143              	SettleTrans:
 1144              	.LFB9:
 365:src/Settle.c  **** //*****************************************************************************
 366:src/Settle.c  **** //  Function        : SettleTrans
 367:src/Settle.c  **** //  Description     : Do the settlement transaction.
 368:src/Settle.c  **** //  Input           : N/A
 369:src/Settle.c  **** //  Return          : N/A
 370:src/Settle.c  **** //  Note            : N/A
 371:src/Settle.c  **** //  Globals         : N/A
 372:src/Settle.c  **** //*****************************************************************************
 373:src/Settle.c  **** BOOLEAN SettleTrans(void)
 374:src/Settle.c  **** {
 1145              		.loc 1 374 0
 1146              		.cfi_startproc
ARM GAS  C:\Users\AHMEDH~1\AppData\Local\Temp\ccAmxyYZ.s 			page 30


 1147              		@ args = 0, pretend = 0, frame = 16
 1148              		@ frame_needed = 0, uses_anonymous_args = 0
 1149              	.LVL149:
 1150 0000 2DE9F04F 		push	{r4, r5, r6, r7, r8, r9, r10, fp, lr}
 1151              		.cfi_def_cfa_offset 36
 1152              		.cfi_offset 4, -36
 1153              		.cfi_offset 5, -32
 1154              		.cfi_offset 6, -28
 1155              		.cfi_offset 7, -24
 1156              		.cfi_offset 8, -20
 1157              		.cfi_offset 9, -16
 1158              		.cfi_offset 10, -12
 1159              		.cfi_offset 11, -8
 1160              		.cfi_offset 14, -4
 375:src/Settle.c  ****   DWORD upload_count;
 376:src/Settle.c  ****   BOOLEAN connected, settle_all, settle_done = FALSE;
 377:src/Settle.c  ****      int i=0;
 378:src/Settle.c  ****   WORD max_acq = APM_GetAcqCount();
 1161              		.loc 1 378 0
 1162 0004 0026     		movs	r6, #0
 374:src/Settle.c  ****   DWORD upload_count;
 1163              		.loc 1 374 0
 1164 0006 87B0     		sub	sp, sp, #28
 1165              		.cfi_def_cfa_offset 64
 1166              		.loc 1 378 0
 1167 0008 3346     		mov	r3, r6
 1168 000a 0096     		str	r6, [sp]
 1169 000c 1020     		movs	r0, #16
 1170 000e 1421     		movs	r1, #20
 1171 0010 3246     		mov	r2, r6
 1172 0012 FFF7FEFF 		bl	lib_app_call
 1173              	.LVL150:
 379:src/Settle.c  ****     
 380:src/Settle.c  **** 
 381:src/Settle.c  ****   settle_all = (INPUT.w_host_idx == (WORD) -2);
 1174              		.loc 1 381 0
 1175 0016 CA4C     		ldr	r4, .L151
 1176 0018 B4F87650 		ldrh	r5, [r4, #118]
 378:src/Settle.c  ****     
 1177              		.loc 1 378 0
 1178 001c 83B2     		uxth	r3, r0
 1179 001e 0493     		str	r3, [sp, #16]
 1180              	.LVL151:
 1181              		.loc 1 381 0
 1182 0020 4FF6FE73 		movw	r3, #65534
 1183 0024 EB1A     		subs	r3, r5, r3
 1184 0026 5D42     		rsbs	r5, r3, #0
 1185 0028 5D41     		adcs	r5, r5, r3
 1186              	.LVL152:
 382:src/Settle.c  **** 
 383:src/Settle.c  ****   if (settle_all)
 1187              		.loc 1 383 0
 1188 002a 15B1     		cbz	r5, .L89
 384:src/Settle.c  ****     INPUT.w_host_idx = 0;
 1189              		.loc 1 384 0
 1190 002c A4F87660 		strh	r6, [r4, #118]	@ movhi
 1191 0030 15E0     		b	.L90
ARM GAS  C:\Users\AHMEDH~1\AppData\Local\Temp\ccAmxyYZ.s 			page 31


 1192              	.L89:
 385:src/Settle.c  ****   else {
 386:src/Settle.c  ****     if (!ConfirmSetlTot())
 1193              		.loc 1 386 0
 1194 0032 FFF7FEFF 		bl	ConfirmSetlTot
 1195              	.LVL153:
 1196 0036 90B9     		cbnz	r0, .L90
 1197 0038 A6E1     		b	.L91
 1198              	.LVL154:
 1199              	.L127:
 387:src/Settle.c  ****       return FALSE;
 388:src/Settle.c  ****   }
 389:src/Settle.c  **** 
 390:src/Settle.c  ****   //ProtectPutL(&gPRAM->reprint_buf.len, 0);
 391:src/Settle.c  ****   for (; INPUT.w_host_idx < max_acq; INPUT.w_host_idx++) {
 392:src/Settle.c  ****     if (!APM_GetAcqTbl(INPUT.w_host_idx, &STIS_ACQ_TBL(0)))
 1200              		.loc 1 392 0
 1201 003a C24F     		ldr	r7, .L151+4
 1202 003c 1020     		movs	r0, #16
 1203 003e 3B68     		ldr	r3, [r7]
 1204 0040 1521     		movs	r1, #21
 1205 0042 0096     		str	r6, [sp]
 1206 0044 03F55273 		add	r3, r3, #840
 1207 0048 FFF7FEFF 		bl	lib_app_call
 1208              	.LVL155:
 1209 004c BB46     		mov	fp, r7
 1210 004e 10F0FF0F 		tst	r0, #255
 1211 0052 0BD1     		bne	.L148
 1212              	.L94:
 391:src/Settle.c  ****     if (!APM_GetAcqTbl(INPUT.w_host_idx, &STIS_ACQ_TBL(0)))
 1213              		.loc 1 391 0
 1214 0054 B4F87630 		ldrh	r3, [r4, #118]
 1215 0058 0133     		adds	r3, r3, #1
 1216 005a A4F87630 		strh	r3, [r4, #118]	@ movhi
 1217              	.L90:
 391:src/Settle.c  ****     if (!APM_GetAcqTbl(INPUT.w_host_idx, &STIS_ACQ_TBL(0)))
 1218              		.loc 1 391 0 is_stmt 0 discriminator 1
 1219 005e B4F87620 		ldrh	r2, [r4, #118]
 1220 0062 049B     		ldr	r3, [sp, #16]
 1221 0064 0026     		movs	r6, #0
 1222 0066 9A42     		cmp	r2, r3
 1223 0068 E7D3     		bcc	.L127
 1224 006a 8CE1     		b	.L149
 1225              	.L148:
 393:src/Settle.c  ****       continue;
 394:src/Settle.c  ****     if (STIS_ACQ_TBL(0).b_status == NOT_LOADED)
 1226              		.loc 1 394 0 is_stmt 1
 1227 006c 3B68     		ldr	r3, [r7]
 1228 006e 93F8F033 		ldrb	r3, [r3, #1008]	@ zero_extendqisi2
 1229 0072 FF2B     		cmp	r3, #255
 1230 0074 EED0     		beq	.L94
 395:src/Settle.c  ****       continue;
 396:src/Settle.c  ****     if (!CorrectHost(GetHostType(0)))
 1231              		.loc 1 396 0
 1232 0076 3046     		mov	r0, r6
 1233 0078 FFF7FEFF 		bl	GetHostType
 1234              	.LVL156:
ARM GAS  C:\Users\AHMEDH~1\AppData\Local\Temp\ccAmxyYZ.s 			page 32


 1235 007c FFF7FEFF 		bl	CorrectHost
 1236              	.LVL157:
 1237 0080 0028     		cmp	r0, #0
 1238 0082 E7D0     		beq	.L94
 397:src/Settle.c  ****       continue;
 398:src/Settle.c  **** 
 399:src/Settle.c  ****     INPUT.b_trans = SETTLEMENT;
 1239              		.loc 1 399 0
 1240 0084 AE4B     		ldr	r3, .L151
 1241 0086 0D22     		movs	r2, #13
 1242 0088 1A70     		strb	r2, [r3]
 400:src/Settle.c  ****     if (settle_all) {
 1243              		.loc 1 400 0
 1244 008a FDB1     		cbz	r5, .L96
 401:src/Settle.c  ****       DispHeader(STIS_ACQ_TBL(0).sb_name);
 1245              		.loc 1 401 0
 1246 008c 3868     		ldr	r0, [r7]
 1247 008e 00F25330 		addw	r0, r0, #851
 1248 0092 FFF7FEFF 		bl	DispHeader
 1249              	.LVL158:
 402:src/Settle.c  ****       Disp2x16Msg(GetConstMsg(EDC_EMV_PROCESSING),MW_LINE5, MW_BIGFONT);
 1250              		.loc 1 402 0
 1251 0096 8820     		movs	r0, #136
 1252 0098 FFF7FEFF 		bl	GetConstMsg
 1253              	.LVL159:
 1254 009c 4FF4A061 		mov	r1, #1280
 1255 00a0 4FF48052 		mov	r2, #4096
 1256 00a4 FFF7FEFF 		bl	Disp2x16Msg
 1257              	.LVL160:
 403:src/Settle.c  ****       CalTotals(FALSE);
 1258              		.loc 1 403 0
 1259 00a8 3046     		mov	r0, r6
 1260 00aa FFF7FEFF 		bl	CalTotals
 1261              	.LVL161:
 404:src/Settle.c  ****       if (AllTotalZero()) {
 1262              		.loc 1 404 0
 1263 00ae FFF7FEFF 		bl	AllTotalZero
 1264              	.LVL162:
 1265 00b2 70B1     		cbz	r0, .L97
 405:src/Settle.c  ****         Disp2x16Msg(GetConstMsg(EDC_SE_NO_BATCH), MW_LINE5, MW_BIGFONT);
 1266              		.loc 1 405 0
 1267 00b4 8120     		movs	r0, #129
 1268 00b6 FFF7FEFF 		bl	GetConstMsg
 1269              	.LVL163:
 1270 00ba 4FF4A061 		mov	r1, #1280
 1271 00be 4FF48052 		mov	r2, #4096
 1272 00c2 FFF7FEFF 		bl	Disp2x16Msg
 1273              	.LVL164:
 406:src/Settle.c  ****         Delay1Sec(3, 1);
 1274              		.loc 1 406 0
 1275 00c6 0320     		movs	r0, #3
 1276 00c8 0121     		movs	r1, #1
 1277 00ca 59E1     		b	.L147
 1278              	.L96:
 407:src/Settle.c  ****         continue;
 408:src/Settle.c  ****       }
 409:src/Settle.c  ****     } else
ARM GAS  C:\Users\AHMEDH~1\AppData\Local\Temp\ccAmxyYZ.s 			page 33


 410:src/Settle.c  ****       DispHeader(NULL);
 1279              		.loc 1 410 0
 1280 00cc 2846     		mov	r0, r5
 1281 00ce FFF7FEFF 		bl	DispHeader
 1282              	.LVL165:
 1283              	.L97:
 411:src/Settle.c  **** 
 412:src/Settle.c  ****     upload_count = 0;
 413:src/Settle.c  ****     PackComm(INPUT.w_host_idx, TRUE);
 1284              		.loc 1 413 0
 1285 00d2 B4F87600 		ldrh	r0, [r4, #118]
 1286 00d6 0121     		movs	r1, #1
 1287 00d8 FFF7FEFF 		bl	PackComm
 1288              	.LVL166:
 414:src/Settle.c  ****     settle_done = FALSE;
 415:src/Settle.c  ****     connected   = FALSE;
 416:src/Settle.c  ****     ClearResponse();
 1289              		.loc 1 416 0
 1290 00dc FFF7FEFF 		bl	ClearResponse
 1291              	.LVL167:
 417:src/Settle.c  ****     if ((RSP_DATA.w_rspcode = APM_ConnectOK(FALSE)) == COMM_OK) {
 1292              		.loc 1 417 0
 1293 00e0 0022     		movs	r2, #0
 1294 00e2 1346     		mov	r3, r2
 1295 00e4 0092     		str	r2, [sp]
 1296 00e6 1020     		movs	r0, #16
 1297 00e8 0A21     		movs	r1, #10
 1298 00ea FFF7FEFF 		bl	lib_app_call
 1299              	.LVL168:
 1300 00ee 43F23003 		movw	r3, #12336
 1301 00f2 80B2     		uxth	r0, r0
 1302 00f4 9842     		cmp	r0, r3
 1303 00f6 A4F86E05 		strh	r0, [r4, #1390]	@ movhi
 1304 00fa 01D0     		beq	.L98
 1305              	.L100:
 415:src/Settle.c  ****     ClearResponse();
 1306              		.loc 1 415 0
 1307 00fc 0023     		movs	r3, #0
 1308 00fe 09E0     		b	.L146
 1309              	.L98:
 418:src/Settle.c  ****       if (ReversalOK())
 1310              		.loc 1 418 0
 1311 0100 FFF7FEFF 		bl	ReversalOK
 1312              	.LVL169:
 1313 0104 0028     		cmp	r0, #0
 1314 0106 F9D0     		beq	.L100
 419:src/Settle.c  ****         if (OfflineSent(TRUE))
 1315              		.loc 1 419 0
 1316 0108 0120     		movs	r0, #1
 1317 010a FFF7FEFF 		bl	OfflineSent
 1318              	.LVL170:
 415:src/Settle.c  ****     ClearResponse();
 1319              		.loc 1 415 0
 1320 010e 031C     		adds	r3, r0, #0
 1321 0110 18BF     		it	ne
 1322 0112 0123     		movne	r3, #1
 1323              	.L146:
ARM GAS  C:\Users\AHMEDH~1\AppData\Local\Temp\ccAmxyYZ.s 			page 34


 420:src/Settle.c  ****           connected = TRUE;
 421:src/Settle.c  ****     }
 422:src/Settle.c  ****     while (connected) {
 423:src/Settle.c  ****       TX_DATA.b_trans = SETTLEMENT;
 424:src/Settle.c  ****       if (upload_count == 0)
 425:src/Settle.c  ****         PackProcCode(SETTLEMENT, 0x00);
 426:src/Settle.c  ****       else
 427:src/Settle.c  ****         memcpy(TX_DATA.sb_proc_code, KSetlPCode2, 3);
 428:src/Settle.c  **** 
 429:src/Settle.c  ****       memcpy(TX_DATA.sb_roc_no, INPUT.sb_roc_no, 3);
 430:src/Settle.c  ****       IncTraceNo();
 431:src/Settle.c  ****       PackHostMsg();
 432:src/Settle.c  ****       UpdateHostStatus(SETTLE_PENDING);
 433:src/Settle.c  **** 
 434:src/Settle.c  ****       ClearResponse();
 435:src/Settle.c  ****       if ((RSP_DATA.w_rspcode=APM_SendRcvd(&TX_BUF, &RX_BUF))!=COMM_OK)
 436:src/Settle.c  ****         break;
 437:src/Settle.c  ****       RSP_DATA.b_response = CheckHostRsp();
 438:src/Settle.c  ****       //SaveTraceNo();
 439:src/Settle.c  ****       if (RSP_DATA.b_response==TRANS_ACP) {
 440:src/Settle.c  **** 
 441:src/Settle.c  ****           TX_DATA.b_trans = SETT_ADV;
 442:src/Settle.c  ****           IncTraceNo();
 443:src/Settle.c  ****           PackHostMsg();
 444:src/Settle.c  ****           UpdateHostStatus(SETTLE_PENDING);
 445:src/Settle.c  ****           ClearResponse();
 446:src/Settle.c  ****          if ((RSP_DATA.w_rspcode=APM_SendRcvd(&TX_BUF, &RX_BUF))!=COMM_OK)
 447:src/Settle.c  ****            break;
 448:src/Settle.c  ****          RSP_DATA.b_response = CheckHostRsp();
 449:src/Settle.c  ****            if (RSP_DATA.b_response==TRANS_ACP) {
 450:src/Settle.c  ****           
 451:src/Settle.c  ****           if (RSP_DATA.Actioncode[0] == 0x35 && RSP_DATA.Actioncode[1] == 0x30 && RSP_DATA.Actionco
 452:src/Settle.c  ****           {
 453:src/Settle.c  ****               
 454:src/Settle.c  ****               
 455:src/Settle.c  ****           }else{
 456:src/Settle.c  ****               
 457:src/Settle.c  ****               printf("\f");
 458:src/Settle.c  ****               i=0;
 459:src/Settle.c  ****               while (i < 3)
 460:src/Settle.c  ****               {
 461:src/Settle.c  ****                   printf("%02X:",(int)RSP_DATA.Actioncode[i]);
 462:src/Settle.c  ****                   i++;
 463:src/Settle.c  ****               }
 464:src/Settle.c  ****               APM_WaitKey(9000, 0);
 465:src/Settle.c  ****               
 466:src/Settle.c  ****               Short1Beep();
 467:src/Settle.c  ****               if (UploadTransOK())
 468:src/Settle.c  ****                   continue;
 469:src/Settle.c  ****               
 470:src/Settle.c  ****           }
 471:src/Settle.c  ****           
 472:src/Settle.c  ****            }
 473:src/Settle.c  ****           
 474:src/Settle.c  ****           
 475:src/Settle.c  **** 
 476:src/Settle.c  ****         UpdateHostStatus(NO_PENDING);
ARM GAS  C:\Users\AHMEDH~1\AppData\Local\Temp\ccAmxyYZ.s 			page 35


 477:src/Settle.c  ****         if (RSP_DATA.text[0] == 0) {
 478:src/Settle.c  ****           PackBatchText();
 479:src/Settle.c  ****           memcpy(&RSP_DATA.text[21], "CLOSED          ", 16);
 480:src/Settle.c  ****         }
 481:src/Settle.c  ****         CloseBatch();
 482:src/Settle.c  ****       } else if (RSP_DATA.b_response == TRANS_REJ) {
 483:src/Settle.c  ****         if (RSP_DATA.w_rspcode == '9'*256+'5') {
 484:src/Settle.c  ****           upload_count += 1;
 485:src/Settle.c  ****           if (upload_count == 4) {
 486:src/Settle.c  ****             UpdateHostStatus(NO_PENDING);
 487:src/Settle.c  ****             RSP_DATA.w_rspcode = '7'*256+'7';
 488:src/Settle.c  ****           } else {
 489:src/Settle.c  ****             Short1Beep();
 490:src/Settle.c  ****             if (UploadTransOK())
 491:src/Settle.c  ****               continue;
 492:src/Settle.c  ****           }
 493:src/Settle.c  ****         } else if (RSP_DATA.w_rspcode == '7'*256+'7') {
 494:src/Settle.c  ****         
 495:src/Settle.c  **** 
 496:src/Settle.c  ****           TX_DATA.b_trans = SETT_ADV;
 497:src/Settle.c  ****           IncTraceNo();
 498:src/Settle.c  ****           PackHostMsg();
 499:src/Settle.c  ****           UpdateHostStatus(SETTLE_PENDING);
 500:src/Settle.c  ****           ClearResponse();
 501:src/Settle.c  ****          if ((RSP_DATA.w_rspcode=APM_SendRcvd(&TX_BUF, &RX_BUF))!=COMM_OK)
 502:src/Settle.c  ****            break;
 503:src/Settle.c  ****          RSP_DATA.b_response = CheckHostRsp();
 504:src/Settle.c  ****             if (RSP_DATA.b_response==TRANS_ACP) {
 505:src/Settle.c  ****                 
 506:src/Settle.c  ****                 if (RSP_DATA.Actioncode[0] == 0x35 && RSP_DATA.Actioncode[1] == 0x30 && RSP_DATA.Ac
 507:src/Settle.c  ****                 {
 508:src/Settle.c  ****                     
 509:src/Settle.c  ****                     
 510:src/Settle.c  ****                 }else{
 511:src/Settle.c  ****                     
 512:src/Settle.c  ****                     printf("\f");
 513:src/Settle.c  ****                     i=0;
 1324              		.loc 1 513 0
 1325 0114 0026     		movs	r6, #0
 415:src/Settle.c  ****     ClearResponse();
 1326              		.loc 1 415 0
 1327 0116 0393     		str	r3, [sp, #12]
 1328              	.LVL171:
 1329              	.L101:
 422:src/Settle.c  ****       TX_DATA.b_trans = SETTLEMENT;
 1330              		.loc 1 422 0
 1331 0118 039B     		ldr	r3, [sp, #12]
 1332 011a 002B     		cmp	r3, #0
 1333 011c 00F02081 		beq	.L105
 423:src/Settle.c  ****       if (upload_count == 0)
 1334              		.loc 1 423 0
 1335 0120 0D20     		movs	r0, #13
 1336 0122 84F80003 		strb	r0, [r4, #768]
 424:src/Settle.c  ****         PackProcCode(SETTLEMENT, 0x00);
 1337              		.loc 1 424 0
 1338 0126 1EB9     		cbnz	r6, .L102
 425:src/Settle.c  ****       else
ARM GAS  C:\Users\AHMEDH~1\AppData\Local\Temp\ccAmxyYZ.s 			page 36


 1339              		.loc 1 425 0
 1340 0128 3146     		mov	r1, r6
 1341 012a FFF7FEFF 		bl	PackProcCode
 1342              	.LVL172:
 1343 012e 04E0     		b	.L103
 1344              	.L102:
 427:src/Settle.c  **** 
 1345              		.loc 1 427 0
 1346 0130 8548     		ldr	r0, .L151+8
 1347 0132 8649     		ldr	r1, .L151+12
 1348 0134 0322     		movs	r2, #3
 1349 0136 FFF7FEFF 		bl	memcpy
 1350              	.LVL173:
 1351              	.L103:
 429:src/Settle.c  ****       IncTraceNo();
 1352              		.loc 1 429 0
 1353 013a DFF80492 		ldr	r9, .L151
 1354 013e 0322     		movs	r2, #3
 1355 0140 09F10601 		add	r1, r9, #6
 1356 0144 8248     		ldr	r0, .L151+16
 1357 0146 FFF7FEFF 		bl	memcpy
 1358              	.LVL174:
 435:src/Settle.c  ****         break;
 1359              		.loc 1 435 0
 1360 014a 4FF00008 		mov	r8, #0
 430:src/Settle.c  ****       PackHostMsg();
 1361              		.loc 1 430 0
 1362 014e FFF7FEFF 		bl	IncTraceNo
 1363              	.LVL175:
 435:src/Settle.c  ****         break;
 1364              		.loc 1 435 0
 1365 0152 DFF8F0A1 		ldr	r10, .L151+4
 431:src/Settle.c  ****       UpdateHostStatus(SETTLE_PENDING);
 1366              		.loc 1 431 0
 1367 0156 FFF7FEFF 		bl	PackHostMsg
 1368              	.LVL176:
 432:src/Settle.c  **** 
 1369              		.loc 1 432 0
 1370 015a 0220     		movs	r0, #2
 1371 015c FFF7FEFF 		bl	UpdateHostStatus
 1372              	.LVL177:
 434:src/Settle.c  ****       if ((RSP_DATA.w_rspcode=APM_SendRcvd(&TX_BUF, &RX_BUF))!=COMM_OK)
 1373              		.loc 1 434 0
 1374 0160 FFF7FEFF 		bl	ClearResponse
 1375              	.LVL178:
 435:src/Settle.c  ****         break;
 1376              		.loc 1 435 0
 1377 0164 DBF80030 		ldr	r3, [fp]
 1378 0168 1020     		movs	r0, #16
 1379 016a 03F5CC52 		add	r2, r3, #6528
 1380 016e 03F51653 		add	r3, r3, #9600
 1381 0172 2033     		adds	r3, r3, #32
 1382 0174 CDF80080 		str	r8, [sp]
 1383 0178 0B21     		movs	r1, #11
 1384 017a 1C32     		adds	r2, r2, #28
 1385 017c FFF7FEFF 		bl	lib_app_call
 1386              	.LVL179:
ARM GAS  C:\Users\AHMEDH~1\AppData\Local\Temp\ccAmxyYZ.s 			page 37


 1387 0180 43F23003 		movw	r3, #12336
 1388 0184 87B2     		uxth	r7, r0
 1389 0186 9F42     		cmp	r7, r3
 1390 0188 A4F86E75 		strh	r7, [r4, #1390]	@ movhi
 1391 018c 40F0E880 		bne	.L105
 437:src/Settle.c  ****       //SaveTraceNo();
 1392              		.loc 1 437 0
 1393 0190 FFF7FEFF 		bl	CheckHostRsp
 1394              	.LVL180:
 1395 0194 89F80007 		strb	r0, [r9, #1792]
 439:src/Settle.c  **** 
 1396              		.loc 1 439 0
 1397 0198 0028     		cmp	r0, #0
 1398 019a 5AD1     		bne	.L106
 441:src/Settle.c  ****           IncTraceNo();
 1399              		.loc 1 441 0
 1400 019c 1823     		movs	r3, #24
 1401 019e 0590     		str	r0, [sp, #20]
 1402 01a0 89F80033 		strb	r3, [r9, #768]
 442:src/Settle.c  ****           PackHostMsg();
 1403              		.loc 1 442 0
 1404 01a4 FFF7FEFF 		bl	IncTraceNo
 1405              	.LVL181:
 443:src/Settle.c  ****           UpdateHostStatus(SETTLE_PENDING);
 1406              		.loc 1 443 0
 1407 01a8 FFF7FEFF 		bl	PackHostMsg
 1408              	.LVL182:
 444:src/Settle.c  ****           ClearResponse();
 1409              		.loc 1 444 0
 1410 01ac 0220     		movs	r0, #2
 1411 01ae FFF7FEFF 		bl	UpdateHostStatus
 1412              	.LVL183:
 445:src/Settle.c  ****          if ((RSP_DATA.w_rspcode=APM_SendRcvd(&TX_BUF, &RX_BUF))!=COMM_OK)
 1413              		.loc 1 445 0
 1414 01b2 FFF7FEFF 		bl	ClearResponse
 1415              	.LVL184:
 446:src/Settle.c  ****            break;
 1416              		.loc 1 446 0
 1417 01b6 DAF80030 		ldr	r3, [r10]
 1418 01ba 0599     		ldr	r1, [sp, #20]
 1419 01bc 03F5CC52 		add	r2, r3, #6528
 1420 01c0 03F51653 		add	r3, r3, #9600
 1421 01c4 0091     		str	r1, [sp]
 1422 01c6 1020     		movs	r0, #16
 1423 01c8 0B21     		movs	r1, #11
 1424 01ca 1C32     		adds	r2, r2, #28
 1425 01cc 2033     		adds	r3, r3, #32
 1426 01ce FFF7FEFF 		bl	lib_app_call
 1427              	.LVL185:
 1428 01d2 1FFA80F8 		uxth	r8, r0
 1429 01d6 B845     		cmp	r8, r7
 1430 01d8 A9F86E85 		strh	r8, [r9, #1390]	@ movhi
 1431 01dc 40F0C080 		bne	.L105
 448:src/Settle.c  ****            if (RSP_DATA.b_response==TRANS_ACP) {
 1432              		.loc 1 448 0
 1433 01e0 FFF7FEFF 		bl	CheckHostRsp
 1434              	.LVL186:
ARM GAS  C:\Users\AHMEDH~1\AppData\Local\Temp\ccAmxyYZ.s 			page 38


 1435 01e4 89F80007 		strb	r0, [r9, #1792]
 449:src/Settle.c  ****           
 1436              		.loc 1 449 0
 1437 01e8 70B1     		cbz	r0, .L108
 1438              	.L112:
 476:src/Settle.c  ****         if (RSP_DATA.text[0] == 0) {
 1439              		.loc 1 476 0
 1440 01ea 0020     		movs	r0, #0
 1441 01ec FFF7FEFF 		bl	UpdateHostStatus
 1442              	.LVL187:
 477:src/Settle.c  ****           PackBatchText();
 1443              		.loc 1 477 0
 1444 01f0 94F80137 		ldrb	r3, [r4, #1793]	@ zero_extendqisi2
 1445 01f4 002B     		cmp	r3, #0
 1446 01f6 68D1     		bne	.L115
 478:src/Settle.c  ****           memcpy(&RSP_DATA.text[21], "CLOSED          ", 16);
 1447              		.loc 1 478 0
 1448 01f8 FFF7FEFF 		bl	PackBatchText
 1449              	.LVL188:
 479:src/Settle.c  ****         }
 1450              		.loc 1 479 0
 1451 01fc 5549     		ldr	r1, .L151+20
 1452 01fe 1022     		movs	r2, #16
 1453 0200 5548     		ldr	r0, .L151+24
 1454 0202 FFF7FEFF 		bl	memcpy
 1455              	.LVL189:
 1456 0206 60E0     		b	.L115
 1457              	.L108:
 451:src/Settle.c  ****           {
 1458              		.loc 1 451 0
 1459 0208 99F84737 		ldrb	r3, [r9, #1863]	@ zero_extendqisi2
 1460 020c 352B     		cmp	r3, #53
 1461 020e 03D1     		bne	.L111
 451:src/Settle.c  ****           {
 1462              		.loc 1 451 0 is_stmt 0 discriminator 1
 1463 0210 B9F84837 		ldrh	r3, [r9, #1864]
 1464 0214 4345     		cmp	r3, r8
 1465 0216 E8D0     		beq	.L112
 1466              	.L111:
 457:src/Settle.c  ****               i=0;
 1467              		.loc 1 457 0 is_stmt 1
 1468 0218 0C20     		movs	r0, #12
 1469 021a FFF7FEFF 		bl	putchar
 1470              	.LVL190:
 458:src/Settle.c  ****               while (i < 3)
 1471              		.loc 1 458 0
 1472 021e 0027     		movs	r7, #0
 1473              	.LVL191:
 1474              	.L113:
 1475 0220 E319     		adds	r3, r4, r7
 461:src/Settle.c  ****                   i++;
 1476              		.loc 1 461 0
 1477 0222 4E48     		ldr	r0, .L151+28
 1478 0224 93F84717 		ldrb	r1, [r3, #1863]	@ zero_extendqisi2
 462:src/Settle.c  ****               }
 1479              		.loc 1 462 0
 1480 0228 0137     		adds	r7, r7, #1
ARM GAS  C:\Users\AHMEDH~1\AppData\Local\Temp\ccAmxyYZ.s 			page 39


 1481              	.LVL192:
 461:src/Settle.c  ****                   i++;
 1482              		.loc 1 461 0
 1483 022a FFF7FEFF 		bl	printf
 1484              	.LVL193:
 459:src/Settle.c  ****               {
 1485              		.loc 1 459 0
 1486 022e 032F     		cmp	r7, #3
 1487 0230 F6D1     		bne	.L113
 464:src/Settle.c  ****               
 1488              		.loc 1 464 0
 1489 0232 0023     		movs	r3, #0
 1490 0234 3946     		mov	r1, r7
 1491 0236 0093     		str	r3, [sp]
 1492 0238 42F22832 		movw	r2, #9000
 1493 023c 1020     		movs	r0, #16
 1494 023e FFF7FEFF 		bl	lib_app_call
 1495              	.LVL194:
 466:src/Settle.c  ****               if (UploadTransOK())
 1496              		.loc 1 466 0
 1497 0242 FFF7FEFF 		bl	Short1Beep
 1498              	.LVL195:
 467:src/Settle.c  ****                   continue;
 1499              		.loc 1 467 0
 1500 0246 FFF7FEFF 		bl	UploadTransOK
 1501              	.LVL196:
 1502 024a 0028     		cmp	r0, #0
 1503 024c 7FF464AF 		bne	.L101
 1504 0250 CBE7     		b	.L112
 1505              	.LVL197:
 1506              	.L106:
 482:src/Settle.c  ****         if (RSP_DATA.w_rspcode == '9'*256+'5') {
 1507              		.loc 1 482 0
 1508 0252 0128     		cmp	r0, #1
 1509 0254 40F08480 		bne	.L105
 483:src/Settle.c  ****           upload_count += 1;
 1510              		.loc 1 483 0
 1511 0258 B9F86E35 		ldrh	r3, [r9, #1390]
 1512 025c 43F63512 		movw	r2, #14645
 1513 0260 9342     		cmp	r3, r2
 1514 0262 35D0     		beq	.L150
 493:src/Settle.c  ****         
 1515              		.loc 1 493 0
 1516 0264 43F23772 		movw	r2, #14135
 1517 0268 9342     		cmp	r3, r2
 1518 026a 79D1     		bne	.L105
 496:src/Settle.c  ****           IncTraceNo();
 1519              		.loc 1 496 0
 1520 026c 1823     		movs	r3, #24
 1521 026e 89F80033 		strb	r3, [r9, #768]
 497:src/Settle.c  ****           PackHostMsg();
 1522              		.loc 1 497 0
 1523 0272 FFF7FEFF 		bl	IncTraceNo
 1524              	.LVL198:
 498:src/Settle.c  ****           UpdateHostStatus(SETTLE_PENDING);
 1525              		.loc 1 498 0
 1526 0276 FFF7FEFF 		bl	PackHostMsg
ARM GAS  C:\Users\AHMEDH~1\AppData\Local\Temp\ccAmxyYZ.s 			page 40


 1527              	.LVL199:
 499:src/Settle.c  ****           ClearResponse();
 1528              		.loc 1 499 0
 1529 027a 0220     		movs	r0, #2
 1530 027c FFF7FEFF 		bl	UpdateHostStatus
 1531              	.LVL200:
 500:src/Settle.c  ****          if ((RSP_DATA.w_rspcode=APM_SendRcvd(&TX_BUF, &RX_BUF))!=COMM_OK)
 1532              		.loc 1 500 0
 1533 0280 FFF7FEFF 		bl	ClearResponse
 1534              	.LVL201:
 501:src/Settle.c  ****            break;
 1535              		.loc 1 501 0
 1536 0284 DAF80030 		ldr	r3, [r10]
 1537 0288 CDF80080 		str	r8, [sp]
 1538 028c 03F5CC52 		add	r2, r3, #6528
 1539 0290 03F51653 		add	r3, r3, #9600
 1540 0294 1020     		movs	r0, #16
 1541 0296 0B21     		movs	r1, #11
 1542 0298 1C32     		adds	r2, r2, #28
 1543 029a 2033     		adds	r3, r3, #32
 1544 029c FFF7FEFF 		bl	lib_app_call
 1545              	.LVL202:
 1546 02a0 1FFA80F8 		uxth	r8, r0
 1547 02a4 B845     		cmp	r8, r7
 1548 02a6 A9F86E85 		strh	r8, [r9, #1390]	@ movhi
 1549 02aa 59D1     		bne	.L105
 503:src/Settle.c  ****             if (RSP_DATA.b_response==TRANS_ACP) {
 1550              		.loc 1 503 0
 1551 02ac FFF7FEFF 		bl	CheckHostRsp
 1552              	.LVL203:
 1553 02b0 89F80007 		strb	r0, [r9, #1792]
 504:src/Settle.c  ****                 
 1554              		.loc 1 504 0
 1555 02b4 F8B1     		cbz	r0, .L118
 1556              	.L121:
 514:src/Settle.c  ****                     while (i < 3)
 515:src/Settle.c  ****                     {
 516:src/Settle.c  ****                         printf("%02X:",(int)RSP_DATA.Actioncode[i]);
 517:src/Settle.c  ****                         i++;
 518:src/Settle.c  ****                     }
 519:src/Settle.c  ****                     APM_WaitKey(9000, 0);
 520:src/Settle.c  ****                     
 521:src/Settle.c  ****                     Short1Beep();
 522:src/Settle.c  ****                     if (UploadTransOK())
 523:src/Settle.c  ****                         continue;
 524:src/Settle.c  ****                     
 525:src/Settle.c  ****                 }
 526:src/Settle.c  ****                 
 527:src/Settle.c  ****             }
 528:src/Settle.c  ****           
 529:src/Settle.c  **** 
 530:src/Settle.c  **** 
 531:src/Settle.c  **** 
 532:src/Settle.c  ****           UpdateHostStatus(NO_PENDING);
 1557              		.loc 1 532 0
 1558 02b6 0020     		movs	r0, #0
 1559 02b8 FFF7FEFF 		bl	UpdateHostStatus
ARM GAS  C:\Users\AHMEDH~1\AppData\Local\Temp\ccAmxyYZ.s 			page 41


 1560              	.LVL204:
 533:src/Settle.c  ****           if (RSP_DATA.text[0] == 0) {
 1561              		.loc 1 533 0
 1562 02bc 94F80137 		ldrb	r3, [r4, #1793]	@ zero_extendqisi2
 1563 02c0 1BB9     		cbnz	r3, .L115
 534:src/Settle.c  ****             PackRspText();
 1564              		.loc 1 534 0
 1565 02c2 FFF7FEFF 		bl	PackRspText
 1566              	.LVL205:
 535:src/Settle.c  ****             PackBatchText();
 1567              		.loc 1 535 0
 1568 02c6 FFF7FEFF 		bl	PackBatchText
 1569              	.LVL206:
 1570              	.L115:
 481:src/Settle.c  ****       } else if (RSP_DATA.b_response == TRANS_REJ) {
 1571              		.loc 1 481 0
 1572 02ca FFF7FEFF 		bl	CloseBatch
 1573              	.LVL207:
 1574 02ce 47E0     		b	.L105
 1575              	.L150:
 484:src/Settle.c  ****           if (upload_count == 4) {
 1576              		.loc 1 484 0
 1577 02d0 0136     		adds	r6, r6, #1
 1578              	.LVL208:
 485:src/Settle.c  ****             UpdateHostStatus(NO_PENDING);
 1579              		.loc 1 485 0
 1580 02d2 042E     		cmp	r6, #4
 1581 02d4 07D1     		bne	.L117
 486:src/Settle.c  ****             RSP_DATA.w_rspcode = '7'*256+'7';
 1582              		.loc 1 486 0
 1583 02d6 4046     		mov	r0, r8
 1584 02d8 FFF7FEFF 		bl	UpdateHostStatus
 1585              	.LVL209:
 487:src/Settle.c  ****           } else {
 1586              		.loc 1 487 0
 1587 02dc 43F23773 		movw	r3, #14135
 1588 02e0 A9F86E35 		strh	r3, [r9, #1390]	@ movhi
 1589 02e4 3CE0     		b	.L105
 1590              	.L117:
 489:src/Settle.c  ****             if (UploadTransOK())
 1591              		.loc 1 489 0
 1592 02e6 FFF7FEFF 		bl	Short1Beep
 1593              	.LVL210:
 490:src/Settle.c  ****               continue;
 1594              		.loc 1 490 0
 1595 02ea FFF7FEFF 		bl	UploadTransOK
 1596              	.LVL211:
 1597 02ee 0028     		cmp	r0, #0
 1598 02f0 7FF412AF 		bne	.L101
 1599 02f4 34E0     		b	.L105
 1600              	.L118:
 506:src/Settle.c  ****                 {
 1601              		.loc 1 506 0
 1602 02f6 99F84737 		ldrb	r3, [r9, #1863]	@ zero_extendqisi2
 1603 02fa 352B     		cmp	r3, #53
 1604 02fc 03D1     		bne	.L120
 506:src/Settle.c  ****                 {
ARM GAS  C:\Users\AHMEDH~1\AppData\Local\Temp\ccAmxyYZ.s 			page 42


 1605              		.loc 1 506 0 is_stmt 0 discriminator 1
 1606 02fe B9F84837 		ldrh	r3, [r9, #1864]
 1607 0302 4345     		cmp	r3, r8
 1608 0304 D7D0     		beq	.L121
 1609              	.L120:
 512:src/Settle.c  ****                     i=0;
 1610              		.loc 1 512 0 is_stmt 1
 1611 0306 0C20     		movs	r0, #12
 1612 0308 FFF7FEFF 		bl	putchar
 1613              	.LVL212:
 513:src/Settle.c  ****                     while (i < 3)
 1614              		.loc 1 513 0
 1615 030c 0027     		movs	r7, #0
 1616              	.LVL213:
 1617              	.L122:
 1618 030e E319     		adds	r3, r4, r7
 516:src/Settle.c  ****                         i++;
 1619              		.loc 1 516 0
 1620 0310 1248     		ldr	r0, .L151+28
 1621 0312 93F84717 		ldrb	r1, [r3, #1863]	@ zero_extendqisi2
 517:src/Settle.c  ****                     }
 1622              		.loc 1 517 0
 1623 0316 0137     		adds	r7, r7, #1
 1624              	.LVL214:
 516:src/Settle.c  ****                         i++;
 1625              		.loc 1 516 0
 1626 0318 FFF7FEFF 		bl	printf
 1627              	.LVL215:
 514:src/Settle.c  ****                     {
 1628              		.loc 1 514 0
 1629 031c 032F     		cmp	r7, #3
 1630 031e F6D1     		bne	.L122
 519:src/Settle.c  ****                     
 1631              		.loc 1 519 0
 1632 0320 0023     		movs	r3, #0
 1633 0322 3946     		mov	r1, r7
 1634 0324 0093     		str	r3, [sp]
 1635 0326 42F22832 		movw	r2, #9000
 1636 032a 1020     		movs	r0, #16
 1637 032c FFF7FEFF 		bl	lib_app_call
 1638              	.LVL216:
 521:src/Settle.c  ****                     if (UploadTransOK())
 1639              		.loc 1 521 0
 1640 0330 FFF7FEFF 		bl	Short1Beep
 1641              	.LVL217:
 522:src/Settle.c  ****                         continue;
 1642              		.loc 1 522 0
 1643 0334 FFF7FEFF 		bl	UploadTransOK
 1644              	.LVL218:
 1645 0338 0028     		cmp	r0, #0
 1646 033a 7FF4EDAE 		bne	.L101
 1647 033e BAE7     		b	.L121
 1648              	.L152:
 1649              		.align	2
 1650              	.L151:
 1651 0340 00000000 		.word	gGTS
 1652 0344 00000000 		.word	gGDS
ARM GAS  C:\Users\AHMEDH~1\AppData\Local\Temp\ccAmxyYZ.s 			page 43


 1653 0348 00050000 		.word	gGTS+1280
 1654 034c 00000000 		.word	KSetlPCode2
 1655 0350 06030000 		.word	gGTS+774
 1656 0354 1D000000 		.word	.LC3
 1657 0358 16070000 		.word	gGTS+1814
 1658 035c 17000000 		.word	.LC2
 1659              	.LVL219:
 1660              	.L105:
 536:src/Settle.c  ****           }
 537:src/Settle.c  **** 
 538:src/Settle.c  ****           CloseBatch();
 539:src/Settle.c  ****         }
 540:src/Settle.c  ****       }
 541:src/Settle.c  ****       break;
 542:src/Settle.c  ****     } // End While
 543:src/Settle.c  **** 
 544:src/Settle.c  **** 
 545:src/Settle.c  **** 
 546:src/Settle.c  **** 
 547:src/Settle.c  **** 
 548:src/Settle.c  ****     TransEnd(FALSE);
 1661              		.loc 1 548 0
 1662 0360 0020     		movs	r0, #0
 1663 0362 FFF7FEFF 		bl	TransEnd
 1664              	.LVL220:
 549:src/Settle.c  **** 
 550:src/Settle.c  ****     if (!settle_all) {
 1665              		.loc 1 550 0
 1666 0366 4DB9     		cbnz	r5, .L124
 551:src/Settle.c  ****       RefreshDispAfter((RSP_DATA.b_response != TRANS_ACP)? 90 : 30);
 1667              		.loc 1 551 0
 1668 0368 94F80007 		ldrb	r0, [r4, #1792]	@ zero_extendqisi2
 1669 036c 0028     		cmp	r0, #0
 1670 036e 14BF     		ite	ne
 1671 0370 5A20     		movne	r0, #90
 1672 0372 1E20     		moveq	r0, #30
 1673 0374 FFF7FEFF 		bl	RefreshDispAfter
 1674              	.LVL221:
 552:src/Settle.c  ****       settle_done = TRUE;
 1675              		.loc 1 552 0
 1676 0378 0120     		movs	r0, #1
 553:src/Settle.c  ****       break;
 1677              		.loc 1 553 0
 1678 037a 05E0     		b	.L91
 1679              	.LVL222:
 1680              	.L124:
 554:src/Settle.c  ****     } else
 555:src/Settle.c  ****       Delay1Sec(3, 0);
 1681              		.loc 1 555 0
 1682 037c 0320     		movs	r0, #3
 1683 037e 0021     		movs	r1, #0
 1684              	.LVL223:
 1685              	.L147:
 1686 0380 FFF7FEFF 		bl	Delay1Sec
 1687              	.LVL224:
 1688 0384 66E6     		b	.L94
 1689              	.L149:
ARM GAS  C:\Users\AHMEDH~1\AppData\Local\Temp\ccAmxyYZ.s 			page 44


 1690 0386 3046     		mov	r0, r6
 1691              	.LVL225:
 1692              	.L91:
 556:src/Settle.c  ****   }
 557:src/Settle.c  ****   return (settle_done==TRUE);
 558:src/Settle.c  **** }
 1693              		.loc 1 558 0
 1694 0388 07B0     		add	sp, sp, #28
 1695              		.cfi_def_cfa_offset 36
 1696              		@ sp needed
 1697 038a BDE8F08F 		pop	{r4, r5, r6, r7, r8, r9, r10, fp, pc}
 1698              		.cfi_endproc
 1699              	.LFE9:
 1700              		.size	SettleTrans, .-SettleTrans
 1701 038e 00BF     		.section	.rodata
 1702              		.align	2
 1703              		.set	.LANCHOR0,. + 0
 1704              		.type	KDecimalPos.12620, %object
 1705              		.size	KDecimalPos.12620, 16
 1706              	KDecimalPos.12620:
 1707 0000 00000000 		.word	0
 1708 0004 00000001 		.word	16777216
 1709 0008 00000002 		.word	33554432
 1710 000c 00000003 		.word	50331648
 1711              		.type	KNII.12594, %object
 1712              		.size	KNII.12594, 5
 1713              	KNII.12594:
 1714 0010 4E494920 		.ascii	"NII \000"
 1714      00
 1715              		.type	KBusinessDate.12591, %object
 1716              		.size	KBusinessDate.12591, 17
 1717              	KBusinessDate.12591:
 1718 0015 42555349 		.ascii	"BUSINESS DATE - \000"
 1718      4E455353 
 1718      20444154 
 1718      45202D20 
 1718      00
 1719              		.type	KSoc.12592, %object
 1720              		.size	KSoc.12592, 32
 1721              	KSoc.12592:
 1722 0026 2A2A2A2A 		.ascii	"****** SUMMARY OF CHARGE ******\000"
 1722      2A2A2053 
 1722      554D4D41 
 1722      5259204F 
 1722      46204348 
 1723              		.type	KCloseBatch.12593, %object
 1724              		.size	KCloseBatch.12593, 32
 1725              	KCloseBatch.12593:
 1726 0046 2A2A2A2A 		.ascii	"**** CLOSE BATCH CONFIRMED ****\000"
 1726      20434C4F 
 1726      53452042 
 1726      41544348 
 1726      20434F4E 
 1727              		.type	Kddmm.12611, %object
 1728              		.size	Kddmm.12611, 5
 1729              	Kddmm.12611:
 1730 0066 44444D4D 		.ascii	"DDMM\000"
ARM GAS  C:\Users\AHMEDH~1\AppData\Local\Temp\ccAmxyYZ.s 			page 45


 1730      00
 1731              		.type	days_limit.12606, %object
 1732              		.size	days_limit.12606, 13
 1733              	days_limit.12606:
 1734 006b 00       		.byte	0
 1735 006c 1F       		.byte	31
 1736 006d 1D       		.byte	29
 1737 006e 1F       		.byte	31
 1738 006f 1E       		.byte	30
 1739 0070 1F       		.byte	31
 1740 0071 1E       		.byte	30
 1741 0072 1F       		.byte	31
 1742 0073 1F       		.byte	31
 1743 0074 1E       		.byte	30
 1744 0075 1F       		.byte	31
 1745 0076 1E       		.byte	30
 1746 0077 1F       		.byte	31
 1747              		.section	.rodata.str1.1,"aMS",%progbits,1
 1748              	.LC0:
 1749 0000 42415443 		.ascii	"BATCH\000"
 1749      4800
 1750              	.LC1:
 1751 0006 1B573153 		.ascii	"\033W1SETTLEMENT\033W0\000"
 1751      4554544C 
 1751      454D454E 
 1751      541B5730 
 1751      00
 1752              	.LC2:
 1753 0017 25303258 		.ascii	"%02X:\000"
 1753      3A00
 1754              	.LC3:
 1755 001d 434C4F53 		.ascii	"CLOSED          \000"
 1755      45442020 
 1755      20202020 
 1755      20202020 
 1755      00
 1756              		.text
 1757              	.Letext0:
 1758              		.file 2 "c:\\devtools\\gcc_v49_2014q4\\lib\\gcc\\arm-none-eabi\\4.9.3\\include\\stddef.h"
 1759              		.file 3 "../LibA5T1000/common.h"
 1760              		.file 4 "src/sysutil.h"
 1761              		.file 5 "src/message.h"
 1762              		.file 6 "src/constant.h"
 1763              		.file 7 "../LibA5T1000/emv2dll.h"
 1764              		.file 8 "../LibA5T1000/emvcl2dll.h"
 1765              		.file 9 "../LibA5T1000/ecrdll.h"
 1766              		.file 10 "../LibA5T1000/midware.h"
 1767              		.file 11 "../LibA5T1000/apm.h"
 1768              		.file 12 "src/corevar.h"
 1769              		.file 13 "src/tranutil.h"
 1770              		.file 14 "../LibA5T1000/system.h"
 1771              		.file 15 "c:\\devtools\\gcc_v49_2014q4\\arm-none-eabi\\include\\string.h"
 1772              		.file 16 "../LibA5T1000/util.h"
 1773              		.file 17 "src/hostmsg.h"
 1774              		.file 18 "src/record.h"
 1775              		.file 19 "src/print.h"
 1776              		.file 20 "src/chkoptn.h"
ARM GAS  C:\Users\AHMEDH~1\AppData\Local\Temp\ccAmxyYZ.s 			page 46


 1777              		.file 21 "src/input.h"
 1778              		.file 22 "src/reversal.h"
 1779              		.file 23 "src/offline.h"
 1780              		.file 24 "c:\\devtools\\gcc_v49_2014q4\\arm-none-eabi\\include\\stdio.h"
 1781              		.file 25 "<built-in>"