ARM GAS  C:\Users\AHMED~1.ELE\AppData\Local\Temp\ccRDj6wn.s 			page 1


   1              		.syntax unified
   2              		.cpu cortex-a5
   3              		.fpu softvfp
   4              		.eabi_attribute 20, 1
   5              		.eabi_attribute 21, 1
   6              		.eabi_attribute 23, 3
   7              		.eabi_attribute 24, 1
   8              		.eabi_attribute 25, 1
   9              		.eabi_attribute 26, 1
  10              		.eabi_attribute 30, 4
  11              		.eabi_attribute 34, 0
  12              		.eabi_attribute 18, 4
  13              		.thumb
  14              		.file	"Sysutil.c"
  15              		.text
  16              	.Ltext0:
  17              		.cfi_sections	.debug_frame
  18              		.section	.text.LongBeep,"ax",%progbits
  19              		.align	1
  20              		.global	LongBeep
  21              		.thumb
  22              		.thumb_func
  23              		.type	LongBeep, %function
  24              	LongBeep:
  25              	.LFB0:
  26              		.file 1 "src/Sysutil.c"
   1:src/Sysutil.c **** //-----------------------------------------------------------------------------
   2:src/Sysutil.c **** //  File          : sysutil.c
   3:src/Sysutil.c **** //  Module        :
   4:src/Sysutil.c **** //  Description   : Include Enhance System utitilies function.
   5:src/Sysutil.c **** //  Author        : Lewis
   6:src/Sysutil.c **** //  Notes         : No UI is include in the routines & call SYSTEM or UTILIB
   7:src/Sysutil.c **** //                  Only.
   8:src/Sysutil.c **** //
   9:src/Sysutil.c **** // ============================================================================
  10:src/Sysutil.c **** // | Naming conventions                                                       |
  11:src/Sysutil.c **** // | ~~~~~~~~~~~~~~~~~~                                                       |
  12:src/Sysutil.c **** // |         Struct/Array : Leading s                                         |
  13:src/Sysutil.c **** // |             Constant : Leading K                                         |
  14:src/Sysutil.c **** // |      Global Variable : Leading g  (variable use outside one C file)      |
  15:src/Sysutil.c **** // |                                                                          |
  16:src/Sysutil.c **** // |   BYTE( 8 Bits) size : Leading b                                         |
  17:src/Sysutil.c **** // |   CHAR( 8 Bits) size : Leading c                                         |
  18:src/Sysutil.c **** // |   WORD(16 Bits) size : Leading w                                         |
  19:src/Sysutil.c **** // |  DWORD(32 Bits) size : Leading d                                         |
  20:src/Sysutil.c **** // |    int(32 Bits) size : Leading i                                         |
  21:src/Sysutil.c **** // | DDWORD(64 Bits) size : Leading dd                                        |
  22:src/Sysutil.c **** // |              Pointer : Leading p                                         |
  23:src/Sysutil.c **** // |                                                                          |
  24:src/Sysutil.c **** // |    Function argument : Leading a                                         |
  25:src/Sysutil.c **** // |       Local Variable : All lower case                                    |
  26:src/Sysutil.c **** // |                                                                          |
  27:src/Sysutil.c **** // | Examples:                                                                |
  28:src/Sysutil.c **** // |                Array : Leading s, (sb = arrary of byte, etc)             |
  29:src/Sysutil.c **** // |              Pointer : Leading p, (pb = pointer of byte, etc)            |
  30:src/Sysutil.c **** // ============================================================================
  31:src/Sysutil.c **** //
ARM GAS  C:\Users\AHMED~1.ELE\AppData\Local\Temp\ccRDj6wn.s 			page 2


  32:src/Sysutil.c **** //  Date          Who         Action
  33:src/Sysutil.c **** //  ------------  ----------- -------------------------------------------------
  34:src/Sysutil.c **** //  29 Sept 2008  Lewis       Initial Version.
  35:src/Sysutil.c **** //-----------------------------------------------------------------------------
  36:src/Sysutil.c **** #include <string.h>
  37:src/Sysutil.c **** #include "midware.h"
  38:src/Sysutil.c **** #include "util.h"
  39:src/Sysutil.c **** #include "hardware.h"
  40:src/Sysutil.c **** #include "lptutil.h"
  41:src/Sysutil.c **** #include "sysutil.h"
  42:src/Sysutil.c **** 
  43:src/Sysutil.c **** //-----------------------------------------------------------------------------
  44:src/Sysutil.c **** //      Defines
  45:src/Sysutil.c **** //-----------------------------------------------------------------------------
  46:src/Sysutil.c **** #define DEBUG_POINT         1
  47:src/Sysutil.c **** //-----------------------------------------------------------------------------
  48:src/Sysutil.c **** //      Constants
  49:src/Sysutil.c **** //-----------------------------------------------------------------------------
  50:src/Sysutil.c **** static const BYTE KMonthText[13][3] = {
  51:src/Sysutil.c ****   {' ',' ',' '},
  52:src/Sysutil.c ****   {'J','A','N'},
  53:src/Sysutil.c ****   {'F','E','B'},
  54:src/Sysutil.c ****   {'M','A','R'},
  55:src/Sysutil.c ****   {'A','P','R'},
  56:src/Sysutil.c ****   {'M','A','Y'},
  57:src/Sysutil.c ****   {'J','U','N'},
  58:src/Sysutil.c ****   {'J','U','L'},
  59:src/Sysutil.c ****   {'A','U','G'},
  60:src/Sysutil.c ****   {'S','E','P'},
  61:src/Sysutil.c ****   {'O','C','T'},
  62:src/Sysutil.c ****   {'N','O','V'},
  63:src/Sysutil.c ****   {'D','E','C'}
  64:src/Sysutil.c **** };
  65:src/Sysutil.c **** 
  66:src/Sysutil.c **** //*****************************************************************************
  67:src/Sysutil.c **** //  Function        : LongBeep
  68:src/Sysutil.c **** //  Description     : Generate long beep sound.
  69:src/Sysutil.c **** //  Input           : N/A
  70:src/Sysutil.c **** //  Return          : N/A
  71:src/Sysutil.c **** //  Note            : 30ms;
  72:src/Sysutil.c **** //  Globals Changed : N/A
  73:src/Sysutil.c **** //*****************************************************************************
  74:src/Sysutil.c **** void LongBeep(void)
  75:src/Sysutil.c **** {
  27              		.loc 1 75 0
  28              		.cfi_startproc
  29              		@ args = 0, pretend = 0, frame = 0
  30              		@ frame_needed = 0, uses_anonymous_args = 0
  31              		@ link register save eliminated.
  76:src/Sysutil.c ****   BeepMW(30, 9, 1);
  32              		.loc 1 76 0
  33 0000 1020     		movs	r0, #16
  34 0002 1E21     		movs	r1, #30
  35 0004 0922     		movs	r2, #9
  36 0006 0123     		movs	r3, #1
  37 0008 FFF7FEBF 		b	sys_func3
  38              	.LVL0:
ARM GAS  C:\Users\AHMED~1.ELE\AppData\Local\Temp\ccRDj6wn.s 			page 3


  39              		.cfi_endproc
  40              	.LFE0:
  41              		.size	LongBeep, .-LongBeep
  42              		.section	.text.AcceptBeep,"ax",%progbits
  43              		.align	1
  44              		.global	AcceptBeep
  45              		.thumb
  46              		.thumb_func
  47              		.type	AcceptBeep, %function
  48              	AcceptBeep:
  49              	.LFB1:
  77:src/Sysutil.c **** }
  78:src/Sysutil.c **** //*****************************************************************************
  79:src/Sysutil.c **** //  Function        : AcceptBeep
  80:src/Sysutil.c **** //  Description     : Generate a beep sound for accept.
  81:src/Sysutil.c **** //  Input           : N/A
  82:src/Sysutil.c **** //  Return          : N/A
  83:src/Sysutil.c **** //  Note            : 3 X 100ms
  84:src/Sysutil.c **** //  Globals Changed : N/A
  85:src/Sysutil.c **** //*****************************************************************************
  86:src/Sysutil.c **** void AcceptBeep(void)
  87:src/Sysutil.c **** {
  50              		.loc 1 87 0
  51              		.cfi_startproc
  52              		@ args = 0, pretend = 0, frame = 0
  53              		@ frame_needed = 0, uses_anonymous_args = 0
  54              		@ link register save eliminated.
  88:src/Sysutil.c ****   BeepMW(10, 10, 3);
  55              		.loc 1 88 0
  56 0000 0A21     		movs	r1, #10
  57 0002 1020     		movs	r0, #16
  58 0004 0A46     		mov	r2, r1
  59 0006 0323     		movs	r3, #3
  60 0008 FFF7FEBF 		b	sys_func3
  61              	.LVL1:
  62              		.cfi_endproc
  63              	.LFE1:
  64              		.size	AcceptBeep, .-AcceptBeep
  65              		.section	.text.Short2Beep,"ax",%progbits
  66              		.align	1
  67              		.global	Short2Beep
  68              		.thumb
  69              		.thumb_func
  70              		.type	Short2Beep, %function
  71              	Short2Beep:
  72              	.LFB2:
  89:src/Sysutil.c **** }
  90:src/Sysutil.c **** //*****************************************************************************
  91:src/Sysutil.c **** //  Function        : Short2Beep
  92:src/Sysutil.c **** //  Description     : Generate two short beep sound.
  93:src/Sysutil.c **** //  Input           : N/A
  94:src/Sysutil.c **** //  Return          : N/A
  95:src/Sysutil.c **** //  Note            : 2 X 20ms
  96:src/Sysutil.c **** //  Globals Changed : N/A
  97:src/Sysutil.c **** //*****************************************************************************
  98:src/Sysutil.c **** void Short2Beep(void)
  99:src/Sysutil.c **** {
ARM GAS  C:\Users\AHMED~1.ELE\AppData\Local\Temp\ccRDj6wn.s 			page 4


  73              		.loc 1 99 0
  74              		.cfi_startproc
  75              		@ args = 0, pretend = 0, frame = 0
  76              		@ frame_needed = 0, uses_anonymous_args = 0
  77              		@ link register save eliminated.
 100:src/Sysutil.c ****   BeepMW(2, 2, 2);
  78              		.loc 1 100 0
  79 0000 0221     		movs	r1, #2
  80 0002 1020     		movs	r0, #16
  81 0004 0A46     		mov	r2, r1
  82 0006 0B46     		mov	r3, r1
  83 0008 FFF7FEBF 		b	sys_func3
  84              	.LVL2:
  85              		.cfi_endproc
  86              	.LFE2:
  87              		.size	Short2Beep, .-Short2Beep
  88              		.section	.text.Short1Beep,"ax",%progbits
  89              		.align	1
  90              		.global	Short1Beep
  91              		.thumb
  92              		.thumb_func
  93              		.type	Short1Beep, %function
  94              	Short1Beep:
  95              	.LFB3:
 101:src/Sysutil.c **** }
 102:src/Sysutil.c **** //*****************************************************************************
 103:src/Sysutil.c **** //  Function        : Short1Beep
 104:src/Sysutil.c **** //  Description     : Generate one short beep sound.
 105:src/Sysutil.c **** //  Input           : N/A
 106:src/Sysutil.c **** //  Return          : N/A
 107:src/Sysutil.c **** //  Note            : 1 X 20ms
 108:src/Sysutil.c **** //  Globals Changed : N/A
 109:src/Sysutil.c **** //*****************************************************************************
 110:src/Sysutil.c **** void Short1Beep(void)
 111:src/Sysutil.c **** {
  96              		.loc 1 111 0
  97              		.cfi_startproc
  98              		@ args = 0, pretend = 0, frame = 0
  99              		@ frame_needed = 0, uses_anonymous_args = 0
 100              		@ link register save eliminated.
 112:src/Sysutil.c ****   BeepMW(2, 2, 1);
 101              		.loc 1 112 0
 102 0000 0221     		movs	r1, #2
 103 0002 1020     		movs	r0, #16
 104 0004 0A46     		mov	r2, r1
 105 0006 0123     		movs	r3, #1
 106 0008 FFF7FEBF 		b	sys_func3
 107              	.LVL3:
 108              		.cfi_endproc
 109              	.LFE3:
 110              		.size	Short1Beep, .-Short1Beep
 111              		.section	.text.Delay1Sec,"ax",%progbits
 112              		.align	1
 113              		.global	Delay1Sec
 114              		.thumb
 115              		.thumb_func
 116              		.type	Delay1Sec, %function
ARM GAS  C:\Users\AHMED~1.ELE\AppData\Local\Temp\ccRDj6wn.s 			page 5


 117              	Delay1Sec:
 118              	.LFB4:
 113:src/Sysutil.c **** }
 114:src/Sysutil.c **** //*****************************************************************************
 115:src/Sysutil.c **** //  Function        : Delay1Sec
 116:src/Sysutil.c **** //  Description     : Delay for certain second or key pressed.
 117:src/Sysutil.c **** //  Input           : time;         // seconds to Delay
 118:src/Sysutil.c **** //                    beep_reqd;    // beep required ?
 119:src/Sysutil.c **** //  Return          : N/A
 120:src/Sysutil.c **** //  Note            : N/A
 121:src/Sysutil.c **** //  Globals Changed : N/A
 122:src/Sysutil.c **** //*****************************************************************************
 123:src/Sysutil.c **** void Delay1Sec(DWORD aTime, BOOLEAN aBeepReqd)
 124:src/Sysutil.c **** {
 119              		.loc 1 124 0
 120              		.cfi_startproc
 121              		@ args = 0, pretend = 0, frame = 0
 122              		@ frame_needed = 0, uses_anonymous_args = 0
 123              	.LVL4:
 124 0000 37B5     		push	{r0, r1, r2, r4, r5, lr}
 125              		.cfi_def_cfa_offset 24
 126              		.cfi_offset 4, -12
 127              		.cfi_offset 5, -8
 128              		.cfi_offset 14, -4
 129              		.loc 1 124 0
 130 0002 0446     		mov	r4, r0
 125:src/Sysutil.c ****   DWORD free_run, curr;
 126:src/Sysutil.c ****   if (aBeepReqd)
 131              		.loc 1 126 0
 132 0004 09B1     		cbz	r1, .L6
 127:src/Sysutil.c ****     LongBeep();
 133              		.loc 1 127 0
 134 0006 FFF7FEFF 		bl	LongBeep
 135              	.LVL5:
 136              	.L6:
 128:src/Sysutil.c **** 
 129:src/Sysutil.c ****   aTime *= 200;  // convert to 5ms units
 137              		.loc 1 129 0
 138 000a C823     		movs	r3, #200
 130:src/Sysutil.c ****   free_run = FreeRunMW();
 139              		.loc 1 130 0
 140 000c 40F29F10 		movw	r0, #415
 129:src/Sysutil.c ****   free_run = FreeRunMW();
 141              		.loc 1 129 0
 142 0010 5C43     		muls	r4, r3, r4
 143              	.LVL6:
 144              		.loc 1 130 0
 145 0012 FFF7FEFF 		bl	sys_func0
 146              	.LVL7:
 147 0016 0546     		mov	r5, r0
 148              	.LVL8:
 149              	.L7:
 131:src/Sysutil.c ****   while (GetCharMW() != MWKEY_CANCL) {
 150              		.loc 1 131 0
 151 0018 0022     		movs	r2, #0
 152 001a 0F20     		movs	r0, #15
 153 001c 0092     		str	r2, [sp]
ARM GAS  C:\Users\AHMED~1.ELE\AppData\Local\Temp\ccRDj6wn.s 			page 6


 154 001e 1621     		movs	r1, #22
 155 0020 1346     		mov	r3, r2
 156 0022 FFF7FEFF 		bl	lib_app_call
 157              	.LVL9:
 158 0026 1128     		cmp	r0, #17
 159 0028 0AD0     		beq	.L5
 132:src/Sysutil.c ****     SleepMW();
 160              		.loc 1 132 0
 161 002a 4FF4CE70 		mov	r0, #412
 162 002e FFF7FEFF 		bl	sys_func0
 163              	.LVL10:
 133:src/Sysutil.c ****     curr = FreeRunMW();
 164              		.loc 1 133 0
 165 0032 40F29F10 		movw	r0, #415
 166 0036 FFF7FEFF 		bl	sys_func0
 167              	.LVL11:
 134:src/Sysutil.c ****     curr -= free_run;
 168              		.loc 1 134 0
 169 003a 401B     		subs	r0, r0, r5
 170              	.LVL12:
 135:src/Sysutil.c ****     if (curr >= aTime)
 171              		.loc 1 135 0
 172 003c A042     		cmp	r0, r4
 173 003e EBD3     		bcc	.L7
 174              	.LVL13:
 175              	.L5:
 136:src/Sysutil.c ****       break;
 137:src/Sysutil.c ****   }
 138:src/Sysutil.c **** }
 176              		.loc 1 138 0
 177 0040 03B0     		add	sp, sp, #12
 178              		.cfi_def_cfa_offset 12
 179              		@ sp needed
 180 0042 30BD     		pop	{r4, r5, pc}
 181              		.cfi_endproc
 182              	.LFE4:
 183              		.size	Delay1Sec, .-Delay1Sec
 184              		.section	.text.ErrorDelay,"ax",%progbits
 185              		.align	1
 186              		.global	ErrorDelay
 187              		.thumb
 188              		.thumb_func
 189              		.type	ErrorDelay, %function
 190              	ErrorDelay:
 191              	.LFB5:
 139:src/Sysutil.c **** //*****************************************************************************
 140:src/Sysutil.c **** //  Function        : ErrorDelay
 141:src/Sysutil.c **** //  Description     : Special Delay routine for error.
 142:src/Sysutil.c **** //  Input           : N/A
 143:src/Sysutil.c **** //  Return          : N/A
 144:src/Sysutil.c **** //  Note            : N/A
 145:src/Sysutil.c **** //  Globals Changed : N/A
 146:src/Sysutil.c **** //*****************************************************************************
 147:src/Sysutil.c **** void ErrorDelay(void)
 148:src/Sysutil.c **** {
 192              		.loc 1 148 0
 193              		.cfi_startproc
ARM GAS  C:\Users\AHMED~1.ELE\AppData\Local\Temp\ccRDj6wn.s 			page 7


 194              		@ args = 0, pretend = 0, frame = 0
 195              		@ frame_needed = 0, uses_anonymous_args = 0
 196              		@ link register save eliminated.
 149:src/Sysutil.c ****   Delay1Sec(10, 1);
 197              		.loc 1 149 0
 198 0000 0A20     		movs	r0, #10
 199 0002 0121     		movs	r1, #1
 200 0004 FFF7FEBF 		b	Delay1Sec
 201              	.LVL14:
 202              		.cfi_endproc
 203              	.LFE5:
 204              		.size	ErrorDelay, .-ErrorDelay
 205              		.section	.text.Delay10ms,"ax",%progbits
 206              		.align	1
 207              		.global	Delay10ms
 208              		.thumb
 209              		.thumb_func
 210              		.type	Delay10ms, %function
 211              	Delay10ms:
 212              	.LFB6:
 150:src/Sysutil.c **** }
 151:src/Sysutil.c **** //*****************************************************************************
 152:src/Sysutil.c **** //  Function        : Delay10ms
 153:src/Sysutil.c **** //  Description     : Delay a number of 10ms .
 154:src/Sysutil.c **** //  Input           : cnt; // count of 10ms to Delay
 155:src/Sysutil.c **** //  Return          : N/A
 156:src/Sysutil.c **** //  Note            : N/A
 157:src/Sysutil.c **** //  Globals Changed : N/A
 158:src/Sysutil.c **** //*****************************************************************************
 159:src/Sysutil.c **** void Delay10ms(DWORD aCnt)
 160:src/Sysutil.c **** {
 213              		.loc 1 160 0
 214              		.cfi_startproc
 215              		@ args = 0, pretend = 0, frame = 0
 216              		@ frame_needed = 0, uses_anonymous_args = 0
 217              	.LVL15:
 218 0000 38B5     		push	{r3, r4, r5, lr}
 219              		.cfi_def_cfa_offset 16
 220              		.cfi_offset 3, -16
 221              		.cfi_offset 4, -12
 222              		.cfi_offset 5, -8
 223              		.cfi_offset 14, -4
 224              		.loc 1 160 0
 225 0002 0446     		mov	r4, r0
 161:src/Sysutil.c ****   DWORD curr, free_run = FreeRunMW();
 226              		.loc 1 161 0
 227 0004 40F29F10 		movw	r0, #415
 228              	.LVL16:
 229 0008 FFF7FEFF 		bl	sys_func0
 230              	.LVL17:
 162:src/Sysutil.c ****   aCnt *= 2;
 231              		.loc 1 162 0
 232 000c 6400     		lsls	r4, r4, #1
 233              	.LVL18:
 161:src/Sysutil.c ****   DWORD curr, free_run = FreeRunMW();
 234              		.loc 1 161 0
 235 000e 0546     		mov	r5, r0
ARM GAS  C:\Users\AHMED~1.ELE\AppData\Local\Temp\ccRDj6wn.s 			page 8


 236              	.LVL19:
 237              	.L17:
 163:src/Sysutil.c ****   do {
 164:src/Sysutil.c ****     SleepMW();
 238              		.loc 1 164 0 discriminator 1
 239 0010 4FF4CE70 		mov	r0, #412
 240 0014 FFF7FEFF 		bl	sys_func0
 241              	.LVL20:
 165:src/Sysutil.c ****     curr = FreeRunMW();
 242              		.loc 1 165 0 discriminator 1
 243 0018 40F29F10 		movw	r0, #415
 244 001c FFF7FEFF 		bl	sys_func0
 245              	.LVL21:
 166:src/Sysutil.c ****     curr -= free_run;
 246              		.loc 1 166 0 discriminator 1
 247 0020 401B     		subs	r0, r0, r5
 248              	.LVL22:
 167:src/Sysutil.c ****   } while (curr < aCnt);
 249              		.loc 1 167 0 discriminator 1
 250 0022 A042     		cmp	r0, r4
 251 0024 F4D3     		bcc	.L17
 168:src/Sysutil.c **** }
 252              		.loc 1 168 0
 253 0026 38BD     		pop	{r3, r4, r5, pc}
 254              		.cfi_endproc
 255              	.LFE6:
 256              		.size	Delay10ms, .-Delay10ms
 257              		.section	.text.SetRTC,"ax",%progbits
 258              		.align	1
 259              		.global	SetRTC
 260              		.thumb
 261              		.thumb_func
 262              		.type	SetRTC, %function
 263              	SetRTC:
 264              	.LFB7:
 169:src/Sysutil.c **** //*****************************************************************************
 170:src/Sysutil.c **** //  Function        : SetRTC
 171:src/Sysutil.c **** //  Description     : Set Real Time clock.
 172:src/Sysutil.c **** //  Input           : aTDtg;     // pointer to structure DATETIME.
 173:src/Sysutil.c **** //  Return          : N/A
 174:src/Sysutil.c **** //  Note            : N/A
 175:src/Sysutil.c **** //  Globals Changed : N/A
 176:src/Sysutil.c **** //*****************************************************************************
 177:src/Sysutil.c **** void SetRTC(struct DATETIME *aTDtg)
 178:src/Sysutil.c **** {
 265              		.loc 1 178 0
 266              		.cfi_startproc
 267              		@ args = 0, pretend = 0, frame = 16
 268              		@ frame_needed = 0, uses_anonymous_args = 0
 269              	.LVL23:
 270 0000 1FB5     		push	{r0, r1, r2, r3, r4, lr}
 271              		.cfi_def_cfa_offset 24
 272              		.cfi_offset 14, -4
 179:src/Sysutil.c ****   BYTE buffer[14];
 180:src/Sysutil.c **** 
 181:src/Sysutil.c ****   aTDtg->b_century = (aTDtg->b_year>0x50)?0x19:0x20;
 273              		.loc 1 181 0
ARM GAS  C:\Users\AHMED~1.ELE\AppData\Local\Temp\ccRDj6wn.s 			page 9


 274 0002 4378     		ldrb	r3, [r0, #1]	@ zero_extendqisi2
 178:src/Sysutil.c ****   BYTE buffer[14];
 275              		.loc 1 178 0
 276 0004 0146     		mov	r1, r0
 277              		.loc 1 181 0
 278 0006 502B     		cmp	r3, #80
 279 0008 8CBF     		ite	hi
 280 000a 1923     		movhi	r3, #25
 281 000c 2023     		movls	r3, #32
 182:src/Sysutil.c ****   split(buffer,(BYTE*)aTDtg,7);
 282              		.loc 1 182 0
 283 000e 0722     		movs	r2, #7
 181:src/Sysutil.c ****   split(buffer,(BYTE*)aTDtg,7);
 284              		.loc 1 181 0
 285 0010 0370     		strb	r3, [r0]
 286              		.loc 1 182 0
 287 0012 6846     		mov	r0, sp
 288              	.LVL24:
 289 0014 FFF7FEFF 		bl	split
 290              	.LVL25:
 183:src/Sysutil.c ****   RtcSetMW(buffer);
 291              		.loc 1 183 0
 292 0018 6946     		mov	r1, sp
 293 001a 1320     		movs	r0, #19
 294 001c FFF7FEFF 		bl	sys_func1
 295              	.LVL26:
 184:src/Sysutil.c **** }
 296              		.loc 1 184 0
 297 0020 05B0     		add	sp, sp, #20
 298              		.cfi_def_cfa_offset 4
 299              		@ sp needed
 300 0022 5DF804FB 		ldr	pc, [sp], #4
 301              		.cfi_endproc
 302              	.LFE7:
 303              		.size	SetRTC, .-SetRTC
 304              		.section	.text.ReadRTC,"ax",%progbits
 305              		.align	1
 306              		.global	ReadRTC
 307              		.thumb
 308              		.thumb_func
 309              		.type	ReadRTC, %function
 310              	ReadRTC:
 311              	.LFB8:
 185:src/Sysutil.c **** //*****************************************************************************
 186:src/Sysutil.c **** //  Function        : ReadRTC
 187:src/Sysutil.c **** //  Description     : Get Real Time clock.
 188:src/Sysutil.c **** //  Input           : dtg;     // pointer to structure struct DATETIME buffer.
 189:src/Sysutil.c **** //  Return          : N/A
 190:src/Sysutil.c **** //  Note            : N/A
 191:src/Sysutil.c **** //  Globals Changed : N/A
 192:src/Sysutil.c **** //*****************************************************************************
 193:src/Sysutil.c **** void ReadRTC(struct DATETIME *aTDtg)
 194:src/Sysutil.c **** {
 312              		.loc 1 194 0
 313              		.cfi_startproc
 314              		@ args = 0, pretend = 0, frame = 16
 315              		@ frame_needed = 0, uses_anonymous_args = 0
ARM GAS  C:\Users\AHMED~1.ELE\AppData\Local\Temp\ccRDj6wn.s 			page 10


 316              	.LVL27:
 317 0000 1FB5     		push	{r0, r1, r2, r3, r4, lr}
 318              		.cfi_def_cfa_offset 24
 319              		.cfi_offset 4, -8
 320              		.cfi_offset 14, -4
 321              		.loc 1 194 0
 322 0002 0446     		mov	r4, r0
 195:src/Sysutil.c ****   BYTE buffer[14];
 196:src/Sysutil.c **** 
 197:src/Sysutil.c ****   RtcGetMW(buffer);
 323              		.loc 1 197 0
 324 0004 6946     		mov	r1, sp
 325 0006 1220     		movs	r0, #18
 326              	.LVL28:
 327 0008 FFF7FEFF 		bl	sys_func1
 328              	.LVL29:
 198:src/Sysutil.c ****   compress((BYTE*)aTDtg,buffer,7);
 329              		.loc 1 198 0
 330 000c 2046     		mov	r0, r4
 331 000e 6946     		mov	r1, sp
 332 0010 0722     		movs	r2, #7
 333 0012 FFF7FEFF 		bl	compress
 334              	.LVL30:
 199:src/Sysutil.c **** }
 335              		.loc 1 199 0
 336 0016 04B0     		add	sp, sp, #16
 337              		.cfi_def_cfa_offset 8
 338              		@ sp needed
 339 0018 10BD     		pop	{r4, pc}
 340              		.cfi_endproc
 341              	.LFE8:
 342              		.size	ReadRTC, .-ReadRTC
 343              		.section	.text.ConvDateTime,"ax",%progbits
 344              		.align	1
 345              		.global	ConvDateTime
 346              		.thumb
 347              		.thumb_func
 348              		.type	ConvDateTime, %function
 349              	ConvDateTime:
 350              	.LFB9:
 200:src/Sysutil.c **** //*****************************************************************************
 201:src/Sysutil.c **** //  Function        : ConvDateTime
 202:src/Sysutil.c **** //  Description     : Convert input DATETIME to specify string.
 203:src/Sysutil.c **** //  Input           : aBuf;       // pointer to output buf
 204:src/Sysutil.c **** //                    aTDtg;       // pointer struct DATETIME value
 205:src/Sysutil.c **** //                    aLongYear;  // convert to LONG year fmt when TRUE.
 206:src/Sysutil.c **** //  Return          : N/A
 207:src/Sysutil.c **** //  Note            : N/A
 208:src/Sysutil.c **** //  Globals Changed : N/A
 209:src/Sysutil.c **** //*****************************************************************************
 210:src/Sysutil.c **** void ConvDateTime(BYTE *aBuf, struct DATETIME *aTDtg, BOOLEAN aLongYear)
 211:src/Sysutil.c **** {
 351              		.loc 1 211 0
 352              		.cfi_startproc
 353              		@ args = 0, pretend = 0, frame = 0
 354              		@ frame_needed = 0, uses_anonymous_args = 0
 355              	.LVL31:
ARM GAS  C:\Users\AHMED~1.ELE\AppData\Local\Temp\ccRDj6wn.s 			page 11


 356 0000 F8B5     		push	{r3, r4, r5, r6, r7, lr}
 357              		.cfi_def_cfa_offset 24
 358              		.cfi_offset 3, -24
 359              		.cfi_offset 4, -20
 360              		.cfi_offset 5, -16
 361              		.cfi_offset 6, -12
 362              		.cfi_offset 7, -8
 363              		.cfi_offset 14, -4
 364              		.loc 1 211 0
 365 0002 0D46     		mov	r5, r1
 366 0004 1746     		mov	r7, r2
 212:src/Sysutil.c ****   memset(aBuf,' ',18);
 367              		.loc 1 212 0
 368 0006 2021     		movs	r1, #32
 369              	.LVL32:
 370 0008 1222     		movs	r2, #18
 371              	.LVL33:
 211:src/Sysutil.c ****   memset(aBuf,' ',18);
 372              		.loc 1 211 0
 373 000a 0446     		mov	r4, r0
 374              		.loc 1 212 0
 375 000c FFF7FEFF 		bl	memset
 376              	.LVL34:
 213:src/Sysutil.c ****   memcpy(aBuf, KMonthText[(BYTE)bcd2bin(aTDtg->b_month)], 3); /* month */
 377              		.loc 1 213 0
 378 0010 A878     		ldrb	r0, [r5, #2]	@ zero_extendqisi2
 379 0012 FFF7FEFF 		bl	bcd2bin
 380              	.LVL35:
 381 0016 1A4B     		ldr	r3, .L26
 382 0018 0322     		movs	r2, #3
 214:src/Sysutil.c ****   split(&aBuf[4], &aTDtg->b_day, 1); /* day */
 215:src/Sysutil.c ****   if (aBuf[4] == '0')
 216:src/Sysutil.c ****     aBuf[4] = ' ';
 217:src/Sysutil.c ****   aBuf[6] = ',';
 218:src/Sysutil.c ****   split(&aBuf[8],&aTDtg->b_century,2);
 383              		.loc 1 218 0
 384 001a 04F10806 		add	r6, r4, #8
 385 001e C1B2     		uxtb	r1, r0
 213:src/Sysutil.c ****   memcpy(aBuf, KMonthText[(BYTE)bcd2bin(aTDtg->b_month)], 3); /* month */
 386              		.loc 1 213 0
 387 0020 2046     		mov	r0, r4
 388 0022 02FB0131 		mla	r1, r2, r1, r3
 389 0026 FFF7FEFF 		bl	memcpy
 390              	.LVL36:
 214:src/Sysutil.c ****   split(&aBuf[4], &aTDtg->b_day, 1); /* day */
 391              		.loc 1 214 0
 392 002a 201D     		adds	r0, r4, #4
 393 002c E91C     		adds	r1, r5, #3
 394 002e 0122     		movs	r2, #1
 395 0030 FFF7FEFF 		bl	split
 396              	.LVL37:
 215:src/Sysutil.c ****     aBuf[4] = ' ';
 397              		.loc 1 215 0
 398 0034 2379     		ldrb	r3, [r4, #4]	@ zero_extendqisi2
 399              		.loc 1 218 0
 400 0036 3046     		mov	r0, r6
 215:src/Sysutil.c ****     aBuf[4] = ' ';
ARM GAS  C:\Users\AHMED~1.ELE\AppData\Local\Temp\ccRDj6wn.s 			page 12


 401              		.loc 1 215 0
 402 0038 302B     		cmp	r3, #48
 216:src/Sysutil.c ****   aBuf[6] = ',';
 403              		.loc 1 216 0
 404 003a 08BF     		it	eq
 405 003c 2023     		moveq	r3, #32
 406              		.loc 1 218 0
 407 003e 2946     		mov	r1, r5
 216:src/Sysutil.c ****   aBuf[6] = ',';
 408              		.loc 1 216 0
 409 0040 08BF     		it	eq
 410 0042 2371     		strbeq	r3, [r4, #4]
 217:src/Sysutil.c ****   split(&aBuf[8],&aTDtg->b_century,2);
 411              		.loc 1 217 0
 412 0044 2C23     		movs	r3, #44
 413              		.loc 1 218 0
 414 0046 0222     		movs	r2, #2
 217:src/Sysutil.c ****   split(&aBuf[8],&aTDtg->b_century,2);
 415              		.loc 1 217 0
 416 0048 A371     		strb	r3, [r4, #6]
 417              		.loc 1 218 0
 418 004a FFF7FEFF 		bl	split
 419              	.LVL38:
 219:src/Sysutil.c ****   split(&aBuf[13], &aTDtg->b_hour, 1);
 420              		.loc 1 219 0
 421 004e 04F10D00 		add	r0, r4, #13
 422 0052 291D     		adds	r1, r5, #4
 423 0054 0122     		movs	r2, #1
 424 0056 FFF7FEFF 		bl	split
 425              	.LVL39:
 220:src/Sysutil.c ****   aBuf[15] = ':';
 426              		.loc 1 220 0
 427 005a 3A23     		movs	r3, #58
 221:src/Sysutil.c ****   split(&aBuf[16], &aTDtg->b_minute, 1);
 428              		.loc 1 221 0
 429 005c 04F11000 		add	r0, r4, #16
 220:src/Sysutil.c ****   aBuf[15] = ':';
 430              		.loc 1 220 0
 431 0060 E373     		strb	r3, [r4, #15]
 432              		.loc 1 221 0
 433 0062 691D     		adds	r1, r5, #5
 434 0064 0122     		movs	r2, #1
 435 0066 FFF7FEFF 		bl	split
 436              	.LVL40:
 222:src/Sysutil.c ****   if (!aLongYear)
 437              		.loc 1 222 0
 438 006a 3FB9     		cbnz	r7, .L23
 223:src/Sysutil.c ****     memmove(&aBuf[8],&aBuf[10], 8);
 439              		.loc 1 223 0
 440 006c 3046     		mov	r0, r6
 441 006e 04F10A01 		add	r1, r4, #10
 224:src/Sysutil.c **** }
 442              		.loc 1 224 0
 443 0072 BDE8F840 		pop	{r3, r4, r5, r6, r7, lr}
 444              		.cfi_remember_state
 445              		.cfi_restore 14
 446              		.cfi_restore 7
ARM GAS  C:\Users\AHMED~1.ELE\AppData\Local\Temp\ccRDj6wn.s 			page 13


 447              		.cfi_restore 6
 448              		.cfi_restore 5
 449              		.cfi_restore 4
 450              		.cfi_restore 3
 451              		.cfi_def_cfa_offset 0
 452              	.LVL41:
 223:src/Sysutil.c ****     memmove(&aBuf[8],&aBuf[10], 8);
 453              		.loc 1 223 0
 454 0076 0822     		movs	r2, #8
 455 0078 FFF7FEBF 		b	memmove
 456              	.LVL42:
 457              	.L23:
 458              		.cfi_restore_state
 459 007c F8BD     		pop	{r3, r4, r5, r6, r7, pc}
 460              	.LVL43:
 461              	.L27:
 462 007e 00BF     		.align	2
 463              	.L26:
 464 0080 00000000 		.word	.LANCHOR0
 465              		.cfi_endproc
 466              	.LFE9:
 467              		.size	ConvDateTime, .-ConvDateTime
 468              		.section	.text.ConvDateTimeT,"ax",%progbits
 469              		.align	1
 470              		.global	ConvDateTimeT
 471              		.thumb
 472              		.thumb_func
 473              		.type	ConvDateTimeT, %function
 474              	ConvDateTimeT:
 475              	.LFB10:
 225:src/Sysutil.c **** 
 226:src/Sysutil.c **** //*****************************************************************************
 227:src/Sysutil.c **** //  Function        : ConvDateTime
 228:src/Sysutil.c **** //  Description     : Convert input DATETIME to specify string.
 229:src/Sysutil.c **** //  Input           : aBuf;       // pointer to output buf
 230:src/Sysutil.c **** //                    aTDtg;       // pointer struct DATETIME value
 231:src/Sysutil.c **** //                    aLongYear;  // convert to LONG year fmt when TRUE.
 232:src/Sysutil.c **** //  Return          : N/A
 233:src/Sysutil.c **** //  Note            : N/A
 234:src/Sysutil.c **** //  Globals Changed : N/A
 235:src/Sysutil.c **** //*****************************************************************************
 236:src/Sysutil.c **** void ConvDateTimeT(BYTE *aBuf, struct DATETIME *aTDtg, BOOLEAN aLongYear)
 237:src/Sysutil.c **** {
 476              		.loc 1 237 0
 477              		.cfi_startproc
 478              		@ args = 0, pretend = 0, frame = 0
 479              		@ frame_needed = 0, uses_anonymous_args = 0
 480              	.LVL44:
 481 0000 38B5     		push	{r3, r4, r5, lr}
 482              		.cfi_def_cfa_offset 16
 483              		.cfi_offset 3, -16
 484              		.cfi_offset 4, -12
 485              		.cfi_offset 5, -8
 486              		.cfi_offset 14, -4
 238:src/Sysutil.c ****   memset(aBuf,' ',11);
 487              		.loc 1 238 0
 488 0002 0B22     		movs	r2, #11
ARM GAS  C:\Users\AHMED~1.ELE\AppData\Local\Temp\ccRDj6wn.s 			page 14


 489              	.LVL45:
 237:src/Sysutil.c ****   memset(aBuf,' ',11);
 490              		.loc 1 237 0
 491 0004 0446     		mov	r4, r0
 492 0006 0D46     		mov	r5, r1
 493              		.loc 1 238 0
 494 0008 2021     		movs	r1, #32
 495              	.LVL46:
 496 000a FFF7FEFF 		bl	memset
 497              	.LVL47:
 239:src/Sysutil.c ****   split(aBuf, &aTDtg->b_month, 1); /* month */
 498              		.loc 1 239 0
 499 000e 2046     		mov	r0, r4
 500 0010 A91C     		adds	r1, r5, #2
 501 0012 0122     		movs	r2, #1
 502 0014 FFF7FEFF 		bl	split
 503              	.LVL48:
 240:src/Sysutil.c ****   aBuf[2] = '/';
 504              		.loc 1 240 0
 505 0018 2F23     		movs	r3, #47
 241:src/Sysutil.c ****  // memcpy(aBuf, KMonthText[(BYTE)bcd2bin(aTDtg->b_month)], 3); /* month */
 242:src/Sysutil.c ****   split(&aBuf[3], &aTDtg->b_day, 1); /* day */
 506              		.loc 1 242 0
 507 001a E01C     		adds	r0, r4, #3
 240:src/Sysutil.c ****   aBuf[2] = '/';
 508              		.loc 1 240 0
 509 001c A370     		strb	r3, [r4, #2]
 510              		.loc 1 242 0
 511 001e E91C     		adds	r1, r5, #3
 512 0020 0122     		movs	r2, #1
 513 0022 FFF7FEFF 		bl	split
 514              	.LVL49:
 243:src/Sysutil.c ****   aBuf[5] = ' ';
 515              		.loc 1 243 0
 516 0026 2023     		movs	r3, #32
 244:src/Sysutil.c ****  // split(&aBuf[8],&aTDtg->b_century,2);
 245:src/Sysutil.c ****   split(&aBuf[6], &aTDtg->b_hour, 1);
 517              		.loc 1 245 0
 518 0028 A01D     		adds	r0, r4, #6
 243:src/Sysutil.c ****   aBuf[5] = ' ';
 519              		.loc 1 243 0
 520 002a 6371     		strb	r3, [r4, #5]
 521              		.loc 1 245 0
 522 002c 291D     		adds	r1, r5, #4
 523 002e 0122     		movs	r2, #1
 524 0030 FFF7FEFF 		bl	split
 525              	.LVL50:
 246:src/Sysutil.c ****   aBuf[8] = ':';
 526              		.loc 1 246 0
 527 0034 3A23     		movs	r3, #58
 247:src/Sysutil.c ****   split(&aBuf[9], &aTDtg->b_minute, 1);
 528              		.loc 1 247 0
 529 0036 04F10900 		add	r0, r4, #9
 246:src/Sysutil.c ****   aBuf[8] = ':';
 530              		.loc 1 246 0
 531 003a 2372     		strb	r3, [r4, #8]
 532              		.loc 1 247 0
ARM GAS  C:\Users\AHMED~1.ELE\AppData\Local\Temp\ccRDj6wn.s 			page 15


 533 003c 691D     		adds	r1, r5, #5
 248:src/Sysutil.c ****  
 249:src/Sysutil.c **** }
 534              		.loc 1 249 0
 535 003e BDE83840 		pop	{r3, r4, r5, lr}
 536              		.cfi_restore 14
 537              		.cfi_restore 5
 538              		.cfi_restore 4
 539              		.cfi_restore 3
 540              		.cfi_def_cfa_offset 0
 541              	.LVL51:
 247:src/Sysutil.c ****   split(&aBuf[9], &aTDtg->b_minute, 1);
 542              		.loc 1 247 0
 543 0042 0122     		movs	r2, #1
 544 0044 FFF7FEBF 		b	split
 545              	.LVL52:
 546              		.cfi_endproc
 547              	.LFE10:
 548              		.size	ConvDateTimeT, .-ConvDateTimeT
 549              		.section	.text.SetDTG,"ax",%progbits
 550              		.align	1
 551              		.global	SetDTG
 552              		.thumb
 553              		.thumb_func
 554              		.type	SetDTG, %function
 555              	SetDTG:
 556              	.LFB11:
 250:src/Sysutil.c **** //*****************************************************************************
 251:src/Sysutil.c **** //  Function        : SetDTG
 252:src/Sysutil.c **** //  Description     : Sync RTC with input date time.
 253:src/Sysutil.c **** //  Input           : aDataTime;   // pointer to 6 byte date_time
 254:src/Sysutil.c **** //                                 // in bcd YYMMDDHHMMSS
 255:src/Sysutil.c **** //  Return          : System Year BCD value;
 256:src/Sysutil.c **** //  Note            : Year is adjust when necessary.
 257:src/Sysutil.c **** //  Globals Changed : N/A
 258:src/Sysutil.c **** //*****************************************************************************
 259:src/Sysutil.c **** BYTE SetDTG(BYTE *aDateTime)
 260:src/Sysutil.c **** {
 557              		.loc 1 260 0
 558              		.cfi_startproc
 559              		@ args = 0, pretend = 0, frame = 16
 560              		@ frame_needed = 0, uses_anonymous_args = 0
 561              	.LVL53:
 562 0000 1FB5     		push	{r0, r1, r2, r3, r4, lr}
 563              		.cfi_def_cfa_offset 24
 564              		.cfi_offset 4, -8
 565              		.cfi_offset 14, -4
 566              		.loc 1 260 0
 567 0002 0446     		mov	r4, r0
 261:src/Sysutil.c ****   BYTE tmp;
 262:src/Sysutil.c ****   struct DATETIME dtg;
 263:src/Sysutil.c **** 
 264:src/Sysutil.c ****   ReadRTC(&dtg);
 568              		.loc 1 264 0
 569 0004 02A8     		add	r0, sp, #8
 570              	.LVL54:
 571 0006 FFF7FEFF 		bl	ReadRTC
ARM GAS  C:\Users\AHMED~1.ELE\AppData\Local\Temp\ccRDj6wn.s 			page 16


 572              	.LVL55:
 265:src/Sysutil.c ****   tmp = 1;
 266:src/Sysutil.c ****   if ((aDateTime[1] == 0x12) && (dtg.b_month == 0x01))
 573              		.loc 1 266 0
 574 000a 6278     		ldrb	r2, [r4, #1]	@ zero_extendqisi2
 265:src/Sysutil.c ****   tmp = 1;
 575              		.loc 1 265 0
 576 000c 0123     		movs	r3, #1
 577              		.loc 1 266 0
 578 000e 122A     		cmp	r2, #18
 265:src/Sysutil.c ****   tmp = 1;
 579              		.loc 1 265 0
 580 0010 8DF80730 		strb	r3, [sp, #7]
 581              		.loc 1 266 0
 582 0014 09D1     		bne	.L30
 583              		.loc 1 266 0 is_stmt 0 discriminator 1
 584 0016 9DF80A20 		ldrb	r2, [sp, #10]	@ zero_extendqisi2
 585 001a 9A42     		cmp	r2, r3
 586 001c 10D1     		bne	.L31
 267:src/Sysutil.c ****     bcdsub(aDateTime,&tmp,1);
 587              		.loc 1 267 0 is_stmt 1
 588 001e 2046     		mov	r0, r4
 589 0020 0DF10701 		add	r1, sp, #7
 590 0024 FFF7FEFF 		bl	bcdsub
 591              	.LVL56:
 592 0028 0AE0     		b	.L31
 593              	.L30:
 268:src/Sysutil.c ****   else
 269:src/Sysutil.c ****     if ((aDateTime[1] == 0x01) && (dtg.b_month == 0x12))
 594              		.loc 1 269 0
 595 002a 012A     		cmp	r2, #1
 596 002c 08D1     		bne	.L31
 597              		.loc 1 269 0 is_stmt 0 discriminator 1
 598 002e 9DF80A30 		ldrb	r3, [sp, #10]	@ zero_extendqisi2
 599 0032 122B     		cmp	r3, #18
 600 0034 04D1     		bne	.L31
 270:src/Sysutil.c ****       bcdadd(aDateTime,&tmp,1);
 601              		.loc 1 270 0 is_stmt 1
 602 0036 2046     		mov	r0, r4
 603 0038 0DF10701 		add	r1, sp, #7
 604 003c FFF7FEFF 		bl	bcdadd
 605              	.LVL57:
 606              	.L31:
 271:src/Sysutil.c ****   memcpy(&dtg.b_year,aDateTime,6);
 607              		.loc 1 271 0
 608 0040 2146     		mov	r1, r4
 609 0042 0622     		movs	r2, #6
 610 0044 0DF10900 		add	r0, sp, #9
 611 0048 FFF7FEFF 		bl	memcpy
 612              	.LVL58:
 272:src/Sysutil.c ****   SetRTC(&dtg);
 613              		.loc 1 272 0
 614 004c 02A8     		add	r0, sp, #8
 615 004e FFF7FEFF 		bl	SetRTC
 616              	.LVL59:
 273:src/Sysutil.c **** 
 274:src/Sysutil.c ****   return dtg.b_year;
ARM GAS  C:\Users\AHMED~1.ELE\AppData\Local\Temp\ccRDj6wn.s 			page 17


 275:src/Sysutil.c **** }
 617              		.loc 1 275 0
 618 0052 9DF80900 		ldrb	r0, [sp, #9]	@ zero_extendqisi2
 619 0056 04B0     		add	sp, sp, #16
 620              		.cfi_def_cfa_offset 8
 621              		@ sp needed
 622 0058 10BD     		pop	{r4, pc}
 623              		.cfi_endproc
 624              	.LFE11:
 625              		.size	SetDTG, .-SetDTG
 626              		.section	.text.FreeRunMark,"ax",%progbits
 627              		.align	1
 628              		.global	FreeRunMark
 629              		.thumb
 630              		.thumb_func
 631              		.type	FreeRunMark, %function
 632              	FreeRunMark:
 633              	.LFB12:
 276:src/Sysutil.c **** //*****************************************************************************
 277:src/Sysutil.c **** //  Function        : FreeRunMark
 278:src/Sysutil.c **** //  Description     : Get the current free run mark.
 279:src/Sysutil.c **** //  Input           : N/A
 280:src/Sysutil.c **** //  Return          : current mark.
 281:src/Sysutil.c **** //  Note            : //25-07-17 JC ++
 282:src/Sysutil.c **** //  Globals Changed : N/A
 283:src/Sysutil.c **** //*****************************************************************************
 284:src/Sysutil.c **** DWORD FreeRunMark(void)
 285:src/Sysutil.c **** {
 634              		.loc 1 285 0
 635              		.cfi_startproc
 636              		@ args = 0, pretend = 0, frame = 0
 637              		@ frame_needed = 0, uses_anonymous_args = 0
 638              		@ link register save eliminated.
 286:src/Sysutil.c ****   return FreeRunMW();
 639              		.loc 1 286 0
 640 0000 40F29F10 		movw	r0, #415
 641 0004 FFF7FEBF 		b	sys_func0
 642              	.LVL60:
 643              		.cfi_endproc
 644              	.LFE12:
 645              		.size	FreeRunMark, .-FreeRunMark
 646              		.section	.text.FreeRunElapsed,"ax",%progbits
 647              		.align	1
 648              		.global	FreeRunElapsed
 649              		.thumb
 650              		.thumb_func
 651              		.type	FreeRunElapsed, %function
 652              	FreeRunElapsed:
 653              	.LFB13:
 287:src/Sysutil.c **** }
 288:src/Sysutil.c **** //*****************************************************************************
 289:src/Sysutil.c **** //  Function        : FreeRunElapsed
 290:src/Sysutil.c **** //  Description     : Calc the Time elapsed in ms start from mark.
 291:src/Sysutil.c **** //  Input           : aStartMark.
 292:src/Sysutil.c **** //  Return          : time in ms.
 293:src/Sysutil.c **** //  Note            : //25-07-17 JC ++
 294:src/Sysutil.c **** //  Globals Changed : N/A
ARM GAS  C:\Users\AHMED~1.ELE\AppData\Local\Temp\ccRDj6wn.s 			page 18


 295:src/Sysutil.c **** //*****************************************************************************
 296:src/Sysutil.c **** DWORD FreeRunElapsed(DWORD aStartMark)
 297:src/Sysutil.c **** {
 654              		.loc 1 297 0
 655              		.cfi_startproc
 656              		@ args = 0, pretend = 0, frame = 0
 657              		@ frame_needed = 0, uses_anonymous_args = 0
 658              	.LVL61:
 659 0000 10B5     		push	{r4, lr}
 660              		.cfi_def_cfa_offset 8
 661              		.cfi_offset 4, -8
 662              		.cfi_offset 14, -4
 663              		.loc 1 297 0
 664 0002 0446     		mov	r4, r0
 298:src/Sysutil.c ****   DWORD curr_mark = FreeRunMW();
 665              		.loc 1 298 0
 666 0004 40F29F10 		movw	r0, #415
 667              	.LVL62:
 668 0008 FFF7FEFF 		bl	sys_func0
 669              	.LVL63:
 299:src/Sysutil.c **** 
 300:src/Sysutil.c ****   return ((curr_mark - aStartMark) * 5);   // 5ms per tick.
 301:src/Sysutil.c **** }
 670              		.loc 1 301 0
 671 000c 0523     		movs	r3, #5
 300:src/Sysutil.c **** }
 672              		.loc 1 300 0
 673 000e 001B     		subs	r0, r0, r4
 674              	.LVL64:
 675              		.loc 1 301 0
 676 0010 5843     		muls	r0, r3, r0
 677 0012 10BD     		pop	{r4, pc}
 678              		.cfi_endproc
 679              	.LFE13:
 680              		.size	FreeRunElapsed, .-FreeRunElapsed
 681              		.section	.text.ByteCopy,"ax",%progbits
 682              		.align	1
 683              		.global	ByteCopy
 684              		.thumb
 685              		.thumb_func
 686              		.type	ByteCopy, %function
 687              	ByteCopy:
 688              	.LFB14:
 302:src/Sysutil.c **** //*****************************************************************************
 303:src/Sysutil.c **** //  Function        : ByteCopy
 304:src/Sysutil.c **** //  Description     : Same as memcpy. Use to avoid compiler bug.
 305:src/Sysutil.c **** //  Input           : dest;     // pointer to destination buffer
 306:src/Sysutil.c **** //                    src;      // pointer to source buffer
 307:src/Sysutil.c **** //                    len;      // number of bytes to copy
 308:src/Sysutil.c **** //  Return          : N/A
 309:src/Sysutil.c **** //  Note            : typedef struct {
 310:src/Sysutil.c **** //                      BYTE abc;
 311:src/Sysutil.c **** //                      WORD C;
 312:src/Sysutil.c **** //                    } a; b;
 313:src/Sysutil.c **** //                    memcpy(&a, &b, sizeof(a));
 314:src/Sysutil.c **** //                    IAR fail to generate correct code for about memcpy statement.
 315:src/Sysutil.c **** //  Globals Changed : N/A
ARM GAS  C:\Users\AHMED~1.ELE\AppData\Local\Temp\ccRDj6wn.s 			page 19


 316:src/Sysutil.c **** //*****************************************************************************
 317:src/Sysutil.c **** void ByteCopy(BYTE *aDest, BYTE *aSrc, DWORD aLen)
 318:src/Sysutil.c **** {
 689              		.loc 1 318 0
 690              		.cfi_startproc
 691              		@ args = 0, pretend = 0, frame = 0
 692              		@ frame_needed = 0, uses_anonymous_args = 0
 693              		@ link register save eliminated.
 694              	.LVL65:
 319:src/Sysutil.c ****   memcpy(aDest, aSrc, aLen);
 695              		.loc 1 319 0
 696 0000 FFF7FEBF 		b	memcpy
 697              	.LVL66:
 698              		.cfi_endproc
 699              	.LFE14:
 700              		.size	ByteCopy, .-ByteCopy
 701              		.section	.text.CompressInputData,"ax",%progbits
 702              		.align	1
 703              		.global	CompressInputData
 704              		.thumb
 705              		.thumb_func
 706              		.type	CompressInputData, %function
 707              	CompressInputData:
 708              	.LFB15:
 320:src/Sysutil.c **** }
 321:src/Sysutil.c **** //*****************************************************************************
 322:src/Sysutil.c **** //  Function        : CompressInputData
 323:src/Sysutil.c **** //  Description     : Fill the data with '0' & compress it.
 324:src/Sysutil.c **** //  Input           : aDest;    // pointer to destinate buffer;
 325:src/Sysutil.c **** //                    aSrc;     // pointer to src buffer.
 326:src/Sysutil.c **** //                              // 1st byte is len of input
 327:src/Sysutil.c **** //                    aLen;     // number of byte to compress.
 328:src/Sysutil.c **** //  Return          : N/A
 329:src/Sysutil.c **** //  Note            : Max len for input is 12.
 330:src/Sysutil.c **** //  Globals Changed : N/A
 331:src/Sysutil.c **** //*****************************************************************************
 332:src/Sysutil.c **** void CompressInputData(void *aDest, BYTE *aSrc, BYTE aLen)
 333:src/Sysutil.c **** {
 709              		.loc 1 333 0
 710              		.cfi_startproc
 711              		@ args = 0, pretend = 0, frame = 16
 712              		@ frame_needed = 0, uses_anonymous_args = 0
 713              	.LVL67:
 714 0000 7FB5     		push	{r0, r1, r2, r3, r4, r5, r6, lr}
 715              		.cfi_def_cfa_offset 32
 716              		.cfi_offset 4, -16
 717              		.cfi_offset 5, -12
 718              		.cfi_offset 6, -8
 719              		.cfi_offset 14, -4
 720              		.loc 1 333 0
 721 0002 1546     		mov	r5, r2
 722 0004 0646     		mov	r6, r0
 723 0006 0C46     		mov	r4, r1
 334:src/Sysutil.c ****   BYTE buffer[12];
 335:src/Sysutil.c **** 
 336:src/Sysutil.c ****   memset(buffer, '0', 12); /* 12 is the max len */
 724              		.loc 1 336 0
ARM GAS  C:\Users\AHMED~1.ELE\AppData\Local\Temp\ccRDj6wn.s 			page 20


 725 0008 01A8     		add	r0, sp, #4
 726              	.LVL68:
 727 000a 3021     		movs	r1, #48
 728              	.LVL69:
 729 000c 0C22     		movs	r2, #12
 730              	.LVL70:
 731 000e FFF7FEFF 		bl	memset
 732              	.LVL71:
 337:src/Sysutil.c ****   memcpy(&buffer[aLen*2-aSrc[0]], &aSrc[1], aSrc[0]);
 733              		.loc 1 337 0
 734 0012 2146     		mov	r1, r4
 735 0014 01AB     		add	r3, sp, #4
 736 0016 11F8012B 		ldrb	r2, [r1], #1	@ zero_extendqisi2
 737 001a 03EB4500 		add	r0, r3, r5, lsl #1
 738 001e 801A     		subs	r0, r0, r2
 739 0020 FFF7FEFF 		bl	memcpy
 740              	.LVL72:
 338:src/Sysutil.c ****   compress(aDest, buffer, aLen);
 741              		.loc 1 338 0
 742 0024 3046     		mov	r0, r6
 743 0026 01A9     		add	r1, sp, #4
 744 0028 2A46     		mov	r2, r5
 745 002a FFF7FEFF 		bl	compress
 746              	.LVL73:
 339:src/Sysutil.c **** }
 747              		.loc 1 339 0
 748 002e 04B0     		add	sp, sp, #16
 749              		.cfi_def_cfa_offset 16
 750              		@ sp needed
 751 0030 70BD     		pop	{r4, r5, r6, pc}
 752              		.cfi_endproc
 753              	.LFE15:
 754              		.size	CompressInputData, .-CompressInputData
 755              		.section	.text.CompressInputFData,"ax",%progbits
 756              		.align	1
 757              		.global	CompressInputFData
 758              		.thumb
 759              		.thumb_func
 760              		.type	CompressInputFData, %function
 761              	CompressInputFData:
 762              	.LFB16:
 340:src/Sysutil.c **** //*****************************************************************************
 341:src/Sysutil.c **** //  Function        : CompressInputFData
 342:src/Sysutil.c **** //  Description     : Fill the data with 'F' & compress it.
 343:src/Sysutil.c **** //  Input           : aDest;    // pointer to destinate buffer;
 344:src/Sysutil.c **** //                    aSrc;     // pointer to src buffer.
 345:src/Sysutil.c **** //                              // 1st byte is len of input
 346:src/Sysutil.c **** //                    aLen;     // number of byte to compress.
 347:src/Sysutil.c **** //  Return          : N/A
 348:src/Sysutil.c **** //  Note            : Max len for input is 24.
 349:src/Sysutil.c **** //  Globals Changed : N/A
 350:src/Sysutil.c **** //*****************************************************************************
 351:src/Sysutil.c **** void CompressInputFData(void *aDest, BYTE *aSrc,  BYTE aLen)
 352:src/Sysutil.c **** {
 763              		.loc 1 352 0
 764              		.cfi_startproc
 765              		@ args = 0, pretend = 0, frame = 32
ARM GAS  C:\Users\AHMED~1.ELE\AppData\Local\Temp\ccRDj6wn.s 			page 21


 766              		@ frame_needed = 0, uses_anonymous_args = 0
 767              	.LVL74:
 768 0000 30B5     		push	{r4, r5, lr}
 769              		.cfi_def_cfa_offset 12
 770              		.cfi_offset 4, -12
 771              		.cfi_offset 5, -8
 772              		.cfi_offset 14, -4
 773 0002 1446     		mov	r4, r2
 353:src/Sysutil.c ****   BYTE tmp[25];
 354:src/Sysutil.c **** 
 355:src/Sysutil.c ****   memcpy(tmp, aSrc, aSrc[0]+1);
 774              		.loc 1 355 0
 775 0004 0A78     		ldrb	r2, [r1]	@ zero_extendqisi2
 776              	.LVL75:
 352:src/Sysutil.c ****   BYTE tmp[25];
 777              		.loc 1 352 0
 778 0006 89B0     		sub	sp, sp, #36
 779              		.cfi_def_cfa_offset 48
 352:src/Sysutil.c ****   BYTE tmp[25];
 780              		.loc 1 352 0
 781 0008 0546     		mov	r5, r0
 782              		.loc 1 355 0
 783 000a 0132     		adds	r2, r2, #1
 784 000c 01A8     		add	r0, sp, #4
 785              	.LVL76:
 786 000e FFF7FEFF 		bl	memcpy
 787              	.LVL77:
 356:src/Sysutil.c ****   memset(&tmp[tmp[0]+1], 'F', 24-tmp[0]);
 788              		.loc 1 356 0
 789 0012 9DF80420 		ldrb	r2, [sp, #4]	@ zero_extendqisi2
 790 0016 01AB     		add	r3, sp, #4
 791 0018 501C     		adds	r0, r2, #1
 792 001a 1844     		add	r0, r0, r3
 793 001c 4621     		movs	r1, #70
 794 001e C2F11802 		rsb	r2, r2, #24
 795 0022 FFF7FEFF 		bl	memset
 796              	.LVL78:
 357:src/Sysutil.c ****   compress(aDest, &tmp[1], aLen);
 797              		.loc 1 357 0
 798 0026 2846     		mov	r0, r5
 799 0028 0DF10501 		add	r1, sp, #5
 800 002c 2246     		mov	r2, r4
 801 002e FFF7FEFF 		bl	compress
 802              	.LVL79:
 358:src/Sysutil.c **** }
 803              		.loc 1 358 0
 804 0032 09B0     		add	sp, sp, #36
 805              		.cfi_def_cfa_offset 12
 806              		@ sp needed
 807 0034 30BD     		pop	{r4, r5, pc}
 808              		.cfi_endproc
 809              	.LFE16:
 810              		.size	CompressInputFData, .-CompressInputFData
 811              		.section	.text.GetMonthText,"ax",%progbits
 812              		.align	1
 813              		.global	GetMonthText
 814              		.thumb
ARM GAS  C:\Users\AHMED~1.ELE\AppData\Local\Temp\ccRDj6wn.s 			page 22


 815              		.thumb_func
 816              		.type	GetMonthText, %function
 817              	GetMonthText:
 818              	.LFB17:
 359:src/Sysutil.c **** //*****************************************************************************
 360:src/Sysutil.c **** //  Function        : GetMonthText
 361:src/Sysutil.c **** //  Description     : Return pointer to three byte month text.
 362:src/Sysutil.c **** //  Input           : mm;    // month
 363:src/Sysutil.c **** //  Return          : N/A
 364:src/Sysutil.c **** //  Note            : N/A
 365:src/Sysutil.c **** //  Globals Changed : N/A
 366:src/Sysutil.c **** //*****************************************************************************
 367:src/Sysutil.c **** BYTE *GetMonthText(BYTE aMM)
 368:src/Sysutil.c **** {
 819              		.loc 1 368 0
 820              		.cfi_startproc
 821              		@ args = 0, pretend = 0, frame = 0
 822              		@ frame_needed = 0, uses_anonymous_args = 0
 823              		@ link register save eliminated.
 824              	.LVL80:
 369:src/Sysutil.c ****   return(BYTE *)KMonthText[aMM];
 370:src/Sysutil.c **** }
 825              		.loc 1 370 0
 826 0000 0322     		movs	r2, #3
 827 0002 024B     		ldr	r3, .L38
 828 0004 02FB0030 		mla	r0, r2, r0, r3
 829              	.LVL81:
 830 0008 7047     		bx	lr
 831              	.L39:
 832 000a 00BF     		.align	2
 833              	.L38:
 834 000c 00000000 		.word	.LANCHOR0
 835              		.cfi_endproc
 836              	.LFE17:
 837              		.size	GetMonthText, .-GetMonthText
 838              		.section	.text.MemFatalErr,"ax",%progbits
 839              		.align	1
 840              		.global	MemFatalErr
 841              		.thumb
 842              		.thumb_func
 843              		.type	MemFatalErr, %function
 844              	MemFatalErr:
 845              	.LFB18:
 371:src/Sysutil.c **** //*****************************************************************************
 372:src/Sysutil.c **** //  Function        : MemFatalErr
 373:src/Sysutil.c **** //  Description     : Check for valid memory allocated pointer.
 374:src/Sysutil.c **** //                    Err: Prompt Error Message & Reset.
 375:src/Sysutil.c **** //  Input           : aMemPtr;          // pointer to allocated memory
 376:src/Sysutil.c **** //  Return          : N/A
 377:src/Sysutil.c **** //  Note            : N/A
 378:src/Sysutil.c **** //  Globals Changed : N/A
 379:src/Sysutil.c **** //*****************************************************************************
 380:src/Sysutil.c **** void MemFatalErr(void *aMemPtr)
 381:src/Sysutil.c **** {
 846              		.loc 1 381 0
 847              		.cfi_startproc
 848              		@ args = 0, pretend = 0, frame = 0
ARM GAS  C:\Users\AHMED~1.ELE\AppData\Local\Temp\ccRDj6wn.s 			page 23


 849              		@ frame_needed = 0, uses_anonymous_args = 0
 850              	.LVL82:
 851 0000 37B5     		push	{r0, r1, r2, r4, r5, lr}
 852              		.cfi_def_cfa_offset 24
 853              		.cfi_offset 4, -12
 854              		.cfi_offset 5, -8
 855              		.cfi_offset 14, -4
 382:src/Sysutil.c ****   if (aMemPtr == NULL) {
 856              		.loc 1 382 0
 857 0002 0546     		mov	r5, r0
 858 0004 70BB     		cbnz	r0, .L40
 859              	.LVL83:
 860              	.LBB6:
 861              	.LBB7:
 862              	.LBB8:
 383:src/Sysutil.c ****     DispLineMW("Memory Error!", MW_LINE3, MW_CLRDISP|MW_BIGFONT);
 863              		.loc 1 383 0
 864 0006 9220     		movs	r0, #146
 865              	.LVL84:
 866 0008 0E21     		movs	r1, #14
 867 000a FFF7FEFF 		bl	sys_func1
 868              	.LVL85:
 869 000e 0446     		mov	r4, r0
 870 0010 90B1     		cbz	r0, .L42
 871 0012 1549     		ldr	r1, .L49
 872 0014 0D22     		movs	r2, #13
 873 0016 FFF7FEFF 		bl	memcpy
 874              	.LVL86:
 875 001a 4FF48453 		mov	r3, #4224
 876 001e 6573     		strb	r5, [r4, #13]
 877 0020 2521     		movs	r1, #37
 878 0022 0093     		str	r3, [sp]
 879 0024 0F20     		movs	r0, #15
 880 0026 2246     		mov	r2, r4
 881 0028 4FF44073 		mov	r3, #768
 882 002c FFF7FEFF 		bl	lib_app_call
 883              	.LVL87:
 884 0030 9420     		movs	r0, #148
 885 0032 2146     		mov	r1, r4
 886 0034 FFF7FEFF 		bl	sys_func1
 887              	.LVL88:
 888              	.L42:
 889              	.LBE8:
 384:src/Sysutil.c ****     LongBeep();
 890              		.loc 1 384 0
 891 0038 FFF7FEFF 		bl	LongBeep
 892              	.LVL89:
 893              	.L43:
 385:src/Sysutil.c ****     while (GetCharMW() == 0) SleepMW();
 894              		.loc 1 385 0
 895 003c 0022     		movs	r2, #0
 896 003e 0F20     		movs	r0, #15
 897 0040 0092     		str	r2, [sp]
 898 0042 1621     		movs	r1, #22
 899 0044 1346     		mov	r3, r2
 900 0046 FFF7FEFF 		bl	lib_app_call
 901              	.LVL90:
ARM GAS  C:\Users\AHMED~1.ELE\AppData\Local\Temp\ccRDj6wn.s 			page 24


 902 004a 20B9     		cbnz	r0, .L48
 903 004c 4FF4CE70 		mov	r0, #412
 904 0050 FFF7FEFF 		bl	sys_func0
 905              	.LVL91:
 906 0054 F2E7     		b	.L43
 907              	.L48:
 386:src/Sysutil.c ****     ResetMW();
 908              		.loc 1 386 0
 909 0056 4FF4CF70 		mov	r0, #414
 910              	.LBE7:
 911              	.LBE6:
 387:src/Sysutil.c ****   }
 388:src/Sysutil.c **** }
 912              		.loc 1 388 0
 913 005a 03B0     		add	sp, sp, #12
 914              		.cfi_remember_state
 915              		.cfi_def_cfa_offset 12
 916              		@ sp needed
 917 005c BDE83040 		pop	{r4, r5, lr}
 918              		.cfi_restore 14
 919              		.cfi_restore 5
 920              		.cfi_restore 4
 921              		.cfi_def_cfa_offset 0
 922              	.LVL92:
 923              	.LBB10:
 924              	.LBB9:
 386:src/Sysutil.c ****     ResetMW();
 925              		.loc 1 386 0
 926 0060 FFF7FEBF 		b	sys_func0
 927              	.LVL93:
 928              	.L40:
 929              		.cfi_restore_state
 930              	.LBE9:
 931              	.LBE10:
 932              		.loc 1 388 0
 933 0064 03B0     		add	sp, sp, #12
 934              		.cfi_def_cfa_offset 12
 935              		@ sp needed
 936 0066 30BD     		pop	{r4, r5, pc}
 937              	.L50:
 938              		.align	2
 939              	.L49:
 940 0068 00000000 		.word	.LC1
 941              		.cfi_endproc
 942              	.LFE18:
 943              		.size	MemFatalErr, .-MemFatalErr
 944              		.section	.text.DebugPoint,"ax",%progbits
 945              		.align	1
 946              		.global	DebugPoint
 947              		.thumb
 948              		.thumb_func
 949              		.type	DebugPoint, %function
 950              	DebugPoint:
 951              	.LFB19:
 389:src/Sysutil.c **** //*****************************************************************************
 390:src/Sysutil.c **** //  Function        : DebugPoint
 391:src/Sysutil.c **** //  Description     : Display Msg on line 9 and wait for key press.
ARM GAS  C:\Users\AHMED~1.ELE\AppData\Local\Temp\ccRDj6wn.s 			page 25


 392:src/Sysutil.c **** //  Input           : aStr;         // pointer to message string.
 393:src/Sysutil.c **** //  Return          : N/A
 394:src/Sysutil.c **** //  Note            : N/A
 395:src/Sysutil.c **** //  Globals Changed : N/A
 396:src/Sysutil.c **** //*****************************************************************************
 397:src/Sysutil.c **** void DebugPoint(char *aStr)
 398:src/Sysutil.c **** {
 952              		.loc 1 398 0
 953              		.cfi_startproc
 954              		@ args = 0, pretend = 0, frame = 0
 955              		@ frame_needed = 0, uses_anonymous_args = 0
 956              	.LVL94:
 957 0000 73B5     		push	{r0, r1, r4, r5, r6, lr}
 958              		.cfi_def_cfa_offset 24
 959              		.cfi_offset 4, -16
 960              		.cfi_offset 5, -12
 961              		.cfi_offset 6, -8
 962              		.cfi_offset 14, -4
 963              		.loc 1 398 0
 964 0002 0646     		mov	r6, r0
 965              	.LBB11:
 399:src/Sysutil.c **** #ifdef DEBUG_POINT
 400:src/Sysutil.c ****   DispLineMW(aStr, MW_MAX_LINE, MW_REVERSE|MW_CLREOL|MW_SPFONT);
 966              		.loc 1 400 0
 967 0004 FFF7FEFF 		bl	strlen
 968              	.LVL95:
 969 0008 0546     		mov	r5, r0
 970              	.LVL96:
 971 000a 691C     		adds	r1, r5, #1
 972 000c 9220     		movs	r0, #146
 973              	.LVL97:
 974 000e FFF7FEFF 		bl	sys_func1
 975              	.LVL98:
 976 0012 0446     		mov	r4, r0
 977 0014 98B1     		cbz	r0, .L53
 978              		.loc 1 400 0 is_stmt 0 discriminator 1
 979 0016 3146     		mov	r1, r6
 980 0018 2A46     		mov	r2, r5
 981 001a FFF7FEFF 		bl	memcpy
 982              	.LVL99:
 983 001e 0023     		movs	r3, #0
 984 0020 2521     		movs	r1, #37
 985 0022 6355     		strb	r3, [r4, r5]
 986 0024 42F23003 		movw	r3, #8240
 987 0028 0F20     		movs	r0, #15
 988 002a 0093     		str	r3, [sp]
 989 002c 2246     		mov	r2, r4
 990 002e 4FF41063 		mov	r3, #2304
 991 0032 FFF7FEFF 		bl	lib_app_call
 992              	.LVL100:
 993 0036 9420     		movs	r0, #148
 994 0038 2146     		mov	r1, r4
 995 003a FFF7FEFF 		bl	sys_func1
 996              	.LVL101:
 997              	.L53:
 998              	.LBE11:
 401:src/Sysutil.c ****   while (GetCharMW() == 0) SleepMW();
ARM GAS  C:\Users\AHMED~1.ELE\AppData\Local\Temp\ccRDj6wn.s 			page 26


 999              		.loc 1 401 0 is_stmt 1 discriminator 1
 1000 003e 0022     		movs	r2, #0
 1001 0040 0F20     		movs	r0, #15
 1002 0042 0092     		str	r2, [sp]
 1003 0044 1621     		movs	r1, #22
 1004 0046 1346     		mov	r3, r2
 1005 0048 FFF7FEFF 		bl	lib_app_call
 1006              	.LVL102:
 1007 004c 20B9     		cbnz	r0, .L58
 1008              		.loc 1 401 0 is_stmt 0 discriminator 2
 1009 004e 4FF4CE70 		mov	r0, #412
 1010 0052 FFF7FEFF 		bl	sys_func0
 1011              	.LVL103:
 1012 0056 F2E7     		b	.L53
 1013              	.L58:
 402:src/Sysutil.c **** #endif // DEBUG_POINT
 403:src/Sysutil.c **** }
 1014              		.loc 1 403 0 is_stmt 1
 1015 0058 02B0     		add	sp, sp, #8
 1016              		.cfi_def_cfa_offset 16
 1017              		@ sp needed
 1018 005a 70BD     		pop	{r4, r5, r6, pc}
 1019              		.cfi_endproc
 1020              	.LFE19:
 1021              		.size	DebugPoint, .-DebugPoint
 1022              		.section	.text.ConvAmount,"ax",%progbits
 1023              		.align	1
 1024              		.global	ConvAmount
 1025              		.thumb
 1026              		.thumb_func
 1027              		.type	ConvAmount, %function
 1028              	ConvAmount:
 1029              	.LFB20:
 404:src/Sysutil.c **** //*****************************************************************************
 405:src/Sysutil.c **** //  Function        : ConvAmount
 406:src/Sysutil.c **** //  Description     : Converts a formated amount to a format easy for display
 407:src/Sysutil.c **** //                    and printing.
 408:src/Sysutil.c **** //  Input           : aAmt;       // DDWORD amount
 409:src/Sysutil.c **** //                    aDispAmt;   // pointer to sturct DISP_AMT buffer.
 410:src/Sysutil.c **** //                    aDecPos;    // Decimal Position
 411:src/Sysutil.c **** //                    aCurrSym;   // Currency Symbol.
 412:src/Sysutil.c **** //  Return          : TURE  => convertion ok
 413:src/Sysutil.c **** //                    FALSE => conversion fail, return all '9'
 414:src/Sysutil.c **** //  Note            : result = > len byte + $NNNN.NN
 415:src/Sysutil.c **** //  Globals Changed : N/A
 416:src/Sysutil.c **** //*****************************************************************************
 417:src/Sysutil.c **** BOOLEAN ConvAmount(DDWORD aAmt, struct DISP_AMT *aDispAmt, DWORD aDecPos, BYTE aCurrSym)
 418:src/Sysutil.c **** {
 1030              		.loc 1 418 0
 1031              		.cfi_startproc
 1032              		@ args = 4, pretend = 0, frame = 24
 1033              		@ frame_needed = 0, uses_anonymous_args = 0
 1034              	.LVL104:
 1035 0000 F0B5     		push	{r4, r5, r6, r7, lr}
 1036              		.cfi_def_cfa_offset 20
 1037              		.cfi_offset 4, -20
 1038              		.cfi_offset 5, -16
ARM GAS  C:\Users\AHMED~1.ELE\AppData\Local\Temp\ccRDj6wn.s 			page 27


 1039              		.cfi_offset 6, -12
 1040              		.cfi_offset 7, -8
 1041              		.cfi_offset 14, -4
 1042 0002 0446     		mov	r4, r0
 1043 0004 87B0     		sub	sp, sp, #28
 1044              		.cfi_def_cfa_offset 48
 419:src/Sysutil.c ****   BYTE buffer[21];
 420:src/Sysutil.c ****   BYTE lead0len;
 421:src/Sysutil.c ****   BOOLEAN overflow;
 422:src/Sysutil.c **** 
 423:src/Sysutil.c ****   overflow = FALSE;
 424:src/Sysutil.c ****   dbin2asc(buffer,aAmt);
 1045              		.loc 1 424 0
 1046 0006 6846     		mov	r0, sp
 1047              	.LVL105:
 418:src/Sysutil.c ****   BYTE buffer[21];
 1048              		.loc 1 418 0
 1049 0008 1646     		mov	r6, r2
 1050 000a 1F46     		mov	r7, r3
 1051              		.loc 1 424 0
 1052 000c 2246     		mov	r2, r4
 1053              	.LVL106:
 1054 000e 0B46     		mov	r3, r1
 1055              	.LVL107:
 1056 0010 FFF7FEFF 		bl	dbin2asc
 1057              	.LVL108:
 425:src/Sysutil.c **** 
 426:src/Sysutil.c ****   if (memcmp(buffer, "00000000", 8)!=0) {
 1058              		.loc 1 426 0
 1059 0014 6846     		mov	r0, sp
 1060 0016 1949     		ldr	r1, .L66
 1061 0018 0822     		movs	r2, #8
 1062 001a FFF7FEFF 		bl	memcmp
 1063              	.LVL109:
 1064 001e 30B1     		cbz	r0, .L62
 1065              	.LVL110:
 427:src/Sysutil.c ****     overflow = TRUE;
 428:src/Sysutil.c ****     memset(&buffer[8], '9', 12);
 1066              		.loc 1 428 0
 1067 0020 02A8     		add	r0, sp, #8
 1068 0022 3921     		movs	r1, #57
 1069 0024 0C22     		movs	r2, #12
 1070 0026 FFF7FEFF 		bl	memset
 1071              	.LVL111:
 427:src/Sysutil.c ****     overflow = TRUE;
 1072              		.loc 1 427 0
 1073 002a 0125     		movs	r5, #1
 1074 002c 00E0     		b	.L60
 1075              	.LVL112:
 1076              	.L62:
 423:src/Sysutil.c ****   dbin2asc(buffer,aAmt);
 1077              		.loc 1 423 0
 1078 002e 0546     		mov	r5, r0
 1079              	.LVL113:
 1080              	.L60:
 429:src/Sysutil.c ****   }
 430:src/Sysutil.c ****   lead0len = (BYTE)skpb(buffer, '0', 17);      /* leading zero count */
ARM GAS  C:\Users\AHMED~1.ELE\AppData\Local\Temp\ccRDj6wn.s 			page 28


 1081              		.loc 1 430 0
 1082 0030 3021     		movs	r1, #48
 1083 0032 1122     		movs	r2, #17
 1084 0034 6846     		mov	r0, sp
 1085 0036 FFF7FEFF 		bl	skpb
 1086              	.LVL114:
 431:src/Sysutil.c ****   aDispAmt->content[0] = aCurrSym;
 1087              		.loc 1 431 0
 1088 003a 9DF83030 		ldrb	r3, [sp, #48]	@ zero_extendqisi2
 1089 003e 7370     		strb	r3, [r6, #1]
 432:src/Sysutil.c ****   aDispAmt->len = 19 -lead0len;          /* excluding decimal digits */
 1090              		.loc 1 432 0
 1091 0040 C0F11304 		rsb	r4, r0, #19
 430:src/Sysutil.c ****   aDispAmt->content[0] = aCurrSym;
 1092              		.loc 1 430 0
 1093 0044 0146     		mov	r1, r0
 1094              	.LVL115:
 1095              		.loc 1 432 0
 1096 0046 E4B2     		uxtb	r4, r4
 1097 0048 3046     		mov	r0, r6
 1098              	.LVL116:
 433:src/Sysutil.c ****   memcpy(&aDispAmt->content[1], &buffer[lead0len], aDispAmt->len - 1);
 1099              		.loc 1 433 0
 1100 004a 6B46     		mov	r3, sp
 432:src/Sysutil.c ****   aDispAmt->len = 19 -lead0len;          /* excluding decimal digits */
 1101              		.loc 1 432 0
 1102 004c 00F8024B 		strb	r4, [r0], #2
 1103              		.loc 1 433 0
 1104 0050 53FA81F1 		uxtab	r1, r3, r1
 1105 0054 621E     		subs	r2, r4, #1
 1106 0056 FFF7FEFF 		bl	memcpy
 1107              	.LVL117:
 434:src/Sysutil.c ****   if (aDecPos != 0) {
 1108              		.loc 1 434 0
 1109 005a 67B1     		cbz	r7, .L61
 435:src/Sysutil.c ****     buffer[17] = '.';
 1110              		.loc 1 435 0
 1111 005c 2E23     		movs	r3, #46
 436:src/Sysutil.c ****     memcpy(&aDispAmt->content[aDispAmt->len], &buffer[17], 3);
 1112              		.loc 1 436 0
 1113 005e 3019     		adds	r0, r6, r4
 1114 0060 0130     		adds	r0, r0, #1
 1115 0062 0DF11101 		add	r1, sp, #17
 1116 0066 0322     		movs	r2, #3
 435:src/Sysutil.c ****     buffer[17] = '.';
 1117              		.loc 1 435 0
 1118 0068 8DF81130 		strb	r3, [sp, #17]
 1119              		.loc 1 436 0
 1120 006c FFF7FEFF 		bl	memcpy
 1121              	.LVL118:
 437:src/Sysutil.c ****     aDispAmt->len += 3;
 1122              		.loc 1 437 0
 1123 0070 3378     		ldrb	r3, [r6]	@ zero_extendqisi2
 1124 0072 0333     		adds	r3, r3, #3
 1125 0074 3370     		strb	r3, [r6]
 1126              	.L61:
 438:src/Sysutil.c ****   }
ARM GAS  C:\Users\AHMED~1.ELE\AppData\Local\Temp\ccRDj6wn.s 			page 29


 439:src/Sysutil.c ****   return overflow;
 440:src/Sysutil.c **** }
 1127              		.loc 1 440 0
 1128 0076 2846     		mov	r0, r5
 1129 0078 07B0     		add	sp, sp, #28
 1130              		.cfi_def_cfa_offset 20
 1131              		@ sp needed
 1132 007a F0BD     		pop	{r4, r5, r6, r7, pc}
 1133              	.LVL119:
 1134              	.L67:
 1135              		.align	2
 1136              	.L66:
 1137 007c 0E000000 		.word	.LC2
 1138              		.cfi_endproc
 1139              	.LFE20:
 1140              		.size	ConvAmount, .-ConvAmount
 1141              		.section	.text.Disp2x16Msg,"ax",%progbits
 1142              		.align	1
 1143              		.global	Disp2x16Msg
 1144              		.thumb
 1145              		.thumb_func
 1146              		.type	Disp2x16Msg, %function
 1147              	Disp2x16Msg:
 1148              	.LFB21:
 441:src/Sysutil.c **** //*****************************************************************************
 442:src/Sysutil.c **** //  Function        : Disp2x16Msg
 443:src/Sysutil.c **** //  Description     : Display 2x16 message on lcd using DispLine
 444:src/Sysutil.c **** //  Input           : aMsg;         // pointer to 2x16 message
 445:src/Sysutil.c **** //                    aOffset;      // DispLine's offset
 446:src/Sysutil.c **** //                    aCtrl;        // DispLine's control 
 447:src/Sysutil.c **** //  Return          : N/A
 448:src/Sysutil.c **** //  Note            : N/A
 449:src/Sysutil.c **** //  Globals Changed : N/A
 450:src/Sysutil.c **** //*****************************************************************************
 451:src/Sysutil.c **** void Disp2x16Msg(const BYTE *aMsg, DWORD aOffset, DWORD aCtrl)
 452:src/Sysutil.c **** {
 1149              		.loc 1 452 0
 1150              		.cfi_startproc
 1151              		@ args = 0, pretend = 0, frame = 24
 1152              		@ frame_needed = 0, uses_anonymous_args = 0
 1153              	.LVL120:
 1154 0000 2DE9F043 		push	{r4, r5, r6, r7, r8, r9, lr}
 1155              		.cfi_def_cfa_offset 28
 1156              		.cfi_offset 4, -28
 1157              		.cfi_offset 5, -24
 1158              		.cfi_offset 6, -20
 1159              		.cfi_offset 7, -16
 1160              		.cfi_offset 8, -12
 1161              		.cfi_offset 9, -8
 1162              		.cfi_offset 14, -4
 1163 0004 89B0     		sub	sp, sp, #36
 1164              		.cfi_def_cfa_offset 64
 1165              		.loc 1 452 0
 1166 0006 8046     		mov	r8, r0
 1167 0008 0F46     		mov	r7, r1
 1168 000a 1446     		mov	r4, r2
 453:src/Sysutil.c ****   DWORD next_line;
ARM GAS  C:\Users\AHMED~1.ELE\AppData\Local\Temp\ccRDj6wn.s 			page 30


 454:src/Sysutil.c ****   BYTE  tmpbuf[17];
 455:src/Sysutil.c **** 
 456:src/Sysutil.c ****   memset(tmpbuf, 0, sizeof(tmpbuf));
 1169              		.loc 1 456 0
 1170 000c 0021     		movs	r1, #0
 1171              	.LVL121:
 1172 000e 1122     		movs	r2, #17
 1173              	.LVL122:
 1174 0010 03A8     		add	r0, sp, #12
 1175              	.LVL123:
 1176 0012 FFF7FEFF 		bl	memset
 1177              	.LVL124:
 457:src/Sysutil.c ****   memcpy(tmpbuf, aMsg, 16);
 1178              		.loc 1 457 0
 1179 0016 4146     		mov	r1, r8
 1180 0018 1022     		movs	r2, #16
 1181 001a 03A8     		add	r0, sp, #12
 1182 001c FFF7FEFF 		bl	memcpy
 1183              	.LVL125:
 1184              	.LBB12:
 458:src/Sysutil.c ****   DispLineMW(tmpbuf,  aOffset, aCtrl|MW_CENTER);
 1185              		.loc 1 458 0
 1186 0020 03A8     		add	r0, sp, #12
 1187 0022 FFF7FEFF 		bl	strlen
 1188              	.LVL126:
 1189 0026 0646     		mov	r6, r0
 1190              	.LVL127:
 1191 0028 711C     		adds	r1, r6, #1
 1192 002a 9220     		movs	r0, #146
 1193              	.LVL128:
 1194 002c FFF7FEFF 		bl	sys_func1
 1195              	.LVL129:
 1196 0030 0546     		mov	r5, r0
 1197 0032 90B1     		cbz	r0, .L69
 1198              		.loc 1 458 0 is_stmt 0 discriminator 1
 1199 0034 03A9     		add	r1, sp, #12
 1200 0036 3246     		mov	r2, r6
 1201 0038 FFF7FEFF 		bl	memcpy
 1202              	.LVL130:
 1203 003c 0023     		movs	r3, #0
 1204 003e 2521     		movs	r1, #37
 1205 0040 AB55     		strb	r3, [r5, r6]
 1206 0042 44F00203 		orr	r3, r4, #2
 1207 0046 0F20     		movs	r0, #15
 1208 0048 0093     		str	r3, [sp]
 1209 004a 2A46     		mov	r2, r5
 1210 004c 3B46     		mov	r3, r7
 1211 004e FFF7FEFF 		bl	lib_app_call
 1212              	.LVL131:
 1213 0052 9420     		movs	r0, #148
 1214 0054 2946     		mov	r1, r5
 1215 0056 FFF7FEFF 		bl	sys_func1
 1216              	.LVL132:
 1217              	.L69:
 1218              	.LBE12:
 459:src/Sysutil.c ****   next_line = (aCtrl&MW_BIGFONT)?(MW_LINE3-MW_LINE1):(MW_LINE2-MW_LINE1);
 1219              		.loc 1 459 0 is_stmt 1
ARM GAS  C:\Users\AHMED~1.ELE\AppData\Local\Temp\ccRDj6wn.s 			page 31


 1220 005a 14F4805F 		tst	r4, #4096
 460:src/Sysutil.c ****   aCtrl &= ~MW_CLRDISP;
 461:src/Sysutil.c ****   memcpy(tmpbuf, &aMsg[16], 16);
 1221              		.loc 1 461 0
 1222 005e 08F11001 		add	r1, r8, #16
 1223 0062 4FF01002 		mov	r2, #16
 1224 0066 03A8     		add	r0, sp, #12
 459:src/Sysutil.c ****   next_line = (aCtrl&MW_BIGFONT)?(MW_LINE3-MW_LINE1):(MW_LINE2-MW_LINE1);
 1225              		.loc 1 459 0
 1226 0068 14BF     		ite	ne
 1227 006a 4FF40079 		movne	r9, #512
 1228 006e 4FF48079 		moveq	r9, #256
 1229              	.LVL133:
 1230              		.loc 1 461 0
 1231 0072 FFF7FEFF 		bl	memcpy
 1232              	.LVL134:
 1233              	.LBB13:
 462:src/Sysutil.c ****   DispLineMW(tmpbuf, aOffset+next_line, aCtrl|MW_CENTER);
 1234              		.loc 1 462 0
 1235 0076 03A8     		add	r0, sp, #12
 1236 0078 FFF7FEFF 		bl	strlen
 1237              	.LVL135:
 1238              	.LBE13:
 460:src/Sysutil.c ****   aCtrl &= ~MW_CLRDISP;
 1239              		.loc 1 460 0
 1240 007c 24F08004 		bic	r4, r4, #128
 1241              	.LVL136:
 1242              	.LBB14:
 1243              		.loc 1 462 0
 1244 0080 0646     		mov	r6, r0
 1245              	.LVL137:
 1246 0082 711C     		adds	r1, r6, #1
 1247 0084 9220     		movs	r0, #146
 1248              	.LVL138:
 1249 0086 FFF7FEFF 		bl	sys_func1
 1250              	.LVL139:
 1251 008a 0546     		mov	r5, r0
 1252              	.LVL140:
 1253 008c 98B1     		cbz	r0, .L68
 1254              		.loc 1 462 0 is_stmt 0 discriminator 1
 1255 008e 03A9     		add	r1, sp, #12
 1256 0090 3246     		mov	r2, r6
 1257 0092 FFF7FEFF 		bl	memcpy
 1258              	.LVL141:
 1259 0096 44F00204 		orr	r4, r4, #2
 1260              	.LVL142:
 1261 009a 0023     		movs	r3, #0
 1262 009c 2521     		movs	r1, #37
 1263 009e AB55     		strb	r3, [r5, r6]
 1264 00a0 0F20     		movs	r0, #15
 1265 00a2 0094     		str	r4, [sp]
 1266 00a4 2A46     		mov	r2, r5
 1267 00a6 09EB0703 		add	r3, r9, r7
 1268 00aa FFF7FEFF 		bl	lib_app_call
 1269              	.LVL143:
 1270 00ae 9420     		movs	r0, #148
 1271 00b0 2946     		mov	r1, r5
ARM GAS  C:\Users\AHMED~1.ELE\AppData\Local\Temp\ccRDj6wn.s 			page 32


 1272 00b2 FFF7FEFF 		bl	sys_func1
 1273              	.LVL144:
 1274              	.L68:
 1275              	.LBE14:
 463:src/Sysutil.c **** }
 1276              		.loc 1 463 0 is_stmt 1
 1277 00b6 09B0     		add	sp, sp, #36
 1278              		.cfi_def_cfa_offset 28
 1279              		@ sp needed
 1280 00b8 BDE8F083 		pop	{r4, r5, r6, r7, r8, r9, pc}
 1281              		.cfi_endproc
 1282              	.LFE21:
 1283              		.size	Disp2x16Msg, .-Disp2x16Msg
 1284              		.section	.text.PrintLcd2LptCtr,"ax",%progbits
 1285              		.align	1
 1286              		.global	PrintLcd2LptCtr
 1287              		.thumb
 1288              		.thumb_func
 1289              		.type	PrintLcd2LptCtr, %function
 1290              	PrintLcd2LptCtr:
 1291              	.LFB23:
 464:src/Sysutil.c **** //*****************************************************************************
 465:src/Sysutil.c **** //  Function        : Transform
 466:src/Sysutil.c **** //  Description     : Convert T_LCDG data to byte array.
 467:src/Sysutil.c **** //  Input           : aDest;    // dest byte array
 468:src/Sysutil.c **** //                    aLcd;     // source lcd graphic data.
 469:src/Sysutil.c **** //  T_LCDG->p_data:                 aDest:
 470:src/Sysutil.c **** //        XXXXXX40 |            01234567
 471:src/Sysutil.c **** //        XXXXXX51 v            xxxxxxxx
 472:src/Sysutil.c **** //        XXXXXX62              xxxxxxxx
 473:src/Sysutil.c **** //  last->XXXXXXX3              xxxxxxxx  <- last byte
 474:src/Sysutil.c **** //  Return          : N/A
 475:src/Sysutil.c **** //  Note            : N/A
 476:src/Sysutil.c **** //  Globals Changed : N/A
 477:src/Sysutil.c **** //*****************************************************************************
 478:src/Sysutil.c **** static void Transform(BYTE *aDest, T_LCDG *aLcd, WORD aLdZeroPixel)
 479:src/Sysutil.c **** {
 480:src/Sysutil.c ****   DWORD x,y;
 481:src/Sysutil.c ****   WORD  *ptr = aLcd->p_data;
 482:src/Sysutil.c ****   
 483:src/Sysutil.c ****   memset(aDest, 0, (aLcd->w_hwidth+aLdZeroPixel)*aLcd->w_vwidth);
 484:src/Sysutil.c ****   for (x=aLcd->w_hwidth; x>0; x--) {
 485:src/Sysutil.c ****     for (y=0; y < aLcd->w_vwidth; y++) {
 486:src/Sysutil.c ****       aDest[y*(aLcd->w_hwidth+aLdZeroPixel)+aLdZeroPixel+x-1]=(*ptr++==0x0000) ? 0x01 : 0x00;
 487:src/Sysutil.c ****     }
 488:src/Sysutil.c ****   }
 489:src/Sysutil.c **** }
 490:src/Sysutil.c **** 
 491:src/Sysutil.c **** //*****************************************************************************
 492:src/Sysutil.c **** //  Function        : PrintLcd2LptCtr
 493:src/Sysutil.c **** //  Description     : Print Lcd Pixel to printer.
 494:src/Sysutil.c **** //  Input           : aPosX;    // left top x
 495:src/Sysutil.c **** //                    aPosY;    // left top y
 496:src/Sysutil.c **** //                    aHPixel;  // horizontal width
 497:src/Sysutil.c **** //                    aVPixel;  // veritcal width
 498:src/Sysutil.c **** //  Return          : 0:        // 0 success
 499:src/Sysutil.c **** //  Note            : N/A
ARM GAS  C:\Users\AHMED~1.ELE\AppData\Local\Temp\ccRDj6wn.s 			page 33


 500:src/Sysutil.c **** //  Globals Changed : N/A
 501:src/Sysutil.c **** //*****************************************************************************
 502:src/Sysutil.c **** int PrintLcd2LptCtr(WORD aPosX, WORD aPosY, WORD aHPixel, WORD aVPixel)
 503:src/Sysutil.c **** {
 1292              		.loc 1 503 0
 1293              		.cfi_startproc
 1294              		@ args = 0, pretend = 0, frame = 32
 1295              		@ frame_needed = 0, uses_anonymous_args = 0
 1296              	.LVL145:
 1297 0000 2DE9F04F 		push	{r4, r5, r6, r7, r8, r9, r10, fp, lr}
 1298              		.cfi_def_cfa_offset 36
 1299              		.cfi_offset 4, -36
 1300              		.cfi_offset 5, -32
 1301              		.cfi_offset 6, -28
 1302              		.cfi_offset 7, -24
 1303              		.cfi_offset 8, -20
 1304              		.cfi_offset 9, -16
 1305              		.cfi_offset 10, -12
 1306              		.cfi_offset 11, -8
 1307              		.cfi_offset 14, -4
 504:src/Sysutil.c ****   #define MAX_PRN_WIDTH        384
 505:src/Sysutil.c ****   #if(T300|T810)
 506:src/Sysutil.c ****   struct TMLPTCFG lptcfg= {5, 0, 2, 2, 2, 2};
 507:src/Sysutil.c ****   #else
 508:src/Sysutil.c ****   struct TMLPTCFG lptcfg = {5, 0, 0, 0, 0, 0}; 
 509:src/Sysutil.c ****   #endif  
 510:src/Sysutil.c ****   #if(T300)
 511:src/Sysutil.c ****   DWORD hd_cfg;
 512:src/Sysutil.c ****   #endif
 513:src/Sysutil.c **** 
 514:src/Sysutil.c ****   T_LCDG *pScreenBuf;
 515:src/Sysutil.c ****   BYTE   *pLptBuf, *pTranBuf, *pSrc, *pDest;
 516:src/Sysutil.c ****   WORD   lptLdZeroPixel = (MAX_PRN_WIDTH - aHPixel) / 2;          // leading zeros
 1308              		.loc 1 516 0
 1309 0004 C2F5C076 		rsb	r6, r2, #384
 503:src/Sysutil.c ****   #define MAX_PRN_WIDTH        384
 1310              		.loc 1 503 0
 1311 0008 89B0     		sub	sp, sp, #36
 1312              		.cfi_def_cfa_offset 72
 1313              		.loc 1 516 0
 1314 000a 06EBD676 		add	r6, r6, r6, lsr #31
 517:src/Sysutil.c ****   WORD   lptwidth_bytes = (aHPixel + lptLdZeroPixel + 7) / 8;     // center-aligned
 1315              		.loc 1 517 0
 1316 000e C6F34F06 		ubfx	r6, r6, #1, #16
 1317 0012 02EB0609 		add	r9, r2, r6
 503:src/Sysutil.c ****   #define MAX_PRN_WIDTH        384
 1318              		.loc 1 503 0
 1319 0016 9846     		mov	r8, r3
 1320 0018 0391     		str	r1, [sp, #12]
 508:src/Sysutil.c ****   #endif  
 1321              		.loc 1 508 0
 1322 001a 0523     		movs	r3, #5
 1323              	.LVL146:
 1324              		.loc 1 517 0
 1325 001c 09F10701 		add	r1, r9, #7
 1326              	.LVL147:
 508:src/Sysutil.c ****   #endif  
ARM GAS  C:\Users\AHMED~1.ELE\AppData\Local\Temp\ccRDj6wn.s 			page 34


 1327              		.loc 1 508 0
 1328 0020 8DF81830 		strb	r3, [sp, #24]
 1329              		.loc 1 517 0
 1330 0024 CB10     		asrs	r3, r1, #3
 508:src/Sysutil.c ****   #endif  
 1331              		.loc 1 508 0
 1332 0026 4FF0000B 		mov	fp, #0
 1333              		.loc 1 517 0
 1334 002a 0193     		str	r3, [sp, #4]
 518:src/Sysutil.c ****   DWORD  lptbuf_size    = lptwidth_bytes*aVPixel+4;
 1335              		.loc 1 518 0
 1336 002c 08FB03F3 		mul	r3, r8, r3
 503:src/Sysutil.c ****   #define MAX_PRN_WIDTH        384
 1337              		.loc 1 503 0
 1338 0030 0590     		str	r0, [sp, #20]
 519:src/Sysutil.c ****   DWORD  offset, x, y, i;
 520:src/Sysutil.c ****   int    ret = 0;
 521:src/Sysutil.c **** 
 522:src/Sysutil.c ****   #if(T300)
 523:src/Sysutil.c ****   hd_cfg = os_hd_config_extend();
 524:src/Sysutil.c ****   if (((hd_cfg & K_XHdModelT300)||(hd_cfg & K_XHdModelT300C)))
 525:src/Sysutil.c ****     return 0;
 526:src/Sysutil.c ****   #endif
 527:src/Sysutil.c ****   
 528:src/Sysutil.c ****   pScreenBuf = (T_LCDG *) os_malloc(K_LogoSize);
 1339              		.loc 1 528 0
 1340 0032 6249     		ldr	r1, .L103
 1341 0034 9220     		movs	r0, #146
 1342              	.LVL148:
 518:src/Sysutil.c ****   DWORD  offset, x, y, i;
 1343              		.loc 1 518 0
 1344 0036 03F1040A 		add	r10, r3, #4
 517:src/Sysutil.c ****   DWORD  lptbuf_size    = lptwidth_bytes*aVPixel+4;
 1345              		.loc 1 517 0
 1346 003a 0492     		str	r2, [sp, #16]
 518:src/Sysutil.c ****   DWORD  offset, x, y, i;
 1347              		.loc 1 518 0
 1348 003c 0293     		str	r3, [sp, #8]
 508:src/Sysutil.c ****   #endif  
 1349              		.loc 1 508 0
 1350 003e 8DF819B0 		strb	fp, [sp, #25]
 1351 0042 8DF81AB0 		strb	fp, [sp, #26]
 1352 0046 8DF81BB0 		strb	fp, [sp, #27]
 1353 004a 8DF81CB0 		strb	fp, [sp, #28]
 1354 004e 8DF81DB0 		strb	fp, [sp, #29]
 1355              	.LVL149:
 1356              		.loc 1 528 0
 1357 0052 FFF7FEFF 		bl	sys_func1
 1358              	.LVL150:
 529:src/Sysutil.c ****   pTranBuf   = (BYTE *) os_malloc((aHPixel+lptLdZeroPixel)*aVPixel);
 1359              		.loc 1 529 0
 1360 0056 08FB09F1 		mul	r1, r8, r9
 528:src/Sysutil.c ****   pTranBuf   = (BYTE *) os_malloc((aHPixel+lptLdZeroPixel)*aVPixel);
 1361              		.loc 1 528 0
 1362 005a 0446     		mov	r4, r0
 1363              	.LVL151:
 1364              		.loc 1 529 0
ARM GAS  C:\Users\AHMED~1.ELE\AppData\Local\Temp\ccRDj6wn.s 			page 35


 1365 005c 9220     		movs	r0, #146
 1366              	.LVL152:
 1367 005e FFF7FEFF 		bl	sys_func1
 1368              	.LVL153:
 530:src/Sysutil.c ****   pLptBuf    = (BYTE *) os_malloc(lptbuf_size);
 1369              		.loc 1 530 0
 1370 0062 5146     		mov	r1, r10
 529:src/Sysutil.c ****   pTranBuf   = (BYTE *) os_malloc((aHPixel+lptLdZeroPixel)*aVPixel);
 1371              		.loc 1 529 0
 1372 0064 0746     		mov	r7, r0
 1373              	.LVL154:
 1374              		.loc 1 530 0
 1375 0066 9220     		movs	r0, #146
 1376              	.LVL155:
 1377 0068 FFF7FEFF 		bl	sys_func1
 1378              	.LVL156:
 1379 006c 0546     		mov	r5, r0
 1380              	.LVL157:
 531:src/Sysutil.c ****   MemFatalErr(pScreenBuf);
 1381              		.loc 1 531 0
 1382 006e 2046     		mov	r0, r4
 1383              	.LVL158:
 1384 0070 FFF7FEFF 		bl	MemFatalErr
 1385              	.LVL159:
 532:src/Sysutil.c ****   MemFatalErr(pTranBuf);
 1386              		.loc 1 532 0
 1387 0074 3846     		mov	r0, r7
 1388 0076 FFF7FEFF 		bl	MemFatalErr
 1389              	.LVL160:
 533:src/Sysutil.c ****   MemFatalErr(pLptBuf);
 1390              		.loc 1 533 0
 1391 007a 2846     		mov	r0, r5
 1392 007c FFF7FEFF 		bl	MemFatalErr
 1393              	.LVL161:
 534:src/Sysutil.c **** 
 535:src/Sysutil.c ****   pScreenBuf->w_hstart = aPosX;
 1394              		.loc 1 535 0
 1395 0080 DDF814C0 		ldr	ip, [sp, #20]
 536:src/Sysutil.c ****   pScreenBuf->w_vstart = aPosY;
 1396              		.loc 1 536 0
 1397 0084 BDF80C30 		ldrh	r3, [sp, #12]
 537:src/Sysutil.c ****   pScreenBuf->w_hwidth = aHPixel;
 1398              		.loc 1 537 0
 1399 0088 049A     		ldr	r2, [sp, #16]
 535:src/Sysutil.c ****   pScreenBuf->w_vstart = aPosY;
 1400              		.loc 1 535 0
 1401 008a A4F800C0 		strh	ip, [r4]	@ movhi
 536:src/Sysutil.c ****   pScreenBuf->w_vstart = aPosY;
 1402              		.loc 1 536 0
 1403 008e 6380     		strh	r3, [r4, #2]	@ movhi
 1404              		.loc 1 537 0
 1405 0090 A280     		strh	r2, [r4, #4]	@ movhi
 538:src/Sysutil.c ****   pScreenBuf->w_vwidth = aVPixel;
 1406              		.loc 1 538 0
 1407 0092 A4F80680 		strh	r8, [r4, #6]	@ movhi
 539:src/Sysutil.c ****   if (!os_disp_getg(pScreenBuf)) {
 1408              		.loc 1 539 0
ARM GAS  C:\Users\AHMED~1.ELE\AppData\Local\Temp\ccRDj6wn.s 			page 36


 1409 0096 1920     		movs	r0, #25
 1410 0098 2146     		mov	r1, r4
 1411 009a FFF7FEFF 		bl	sys_func1
 1412              	.LVL162:
 1413 009e 0028     		cmp	r0, #0
 1414 00a0 00F08780 		beq	.L90
 1415              	.LVL163:
 540:src/Sysutil.c ****     return -1;
 541:src/Sysutil.c ****   }
 542:src/Sysutil.c **** 
 543:src/Sysutil.c ****   ret = -2;     // lpt open fail
 544:src/Sysutil.c **** 
 545:src/Sysutil.c ****       
 546:src/Sysutil.c ****   if (LptOpen(&lptcfg)) {
 1416              		.loc 1 546 0
 1417 00a4 06A8     		add	r0, sp, #24
 1418 00a6 FFF7FEFF 		bl	LptOpen
 1419              	.LVL164:
 1420 00aa 0028     		cmp	r0, #0
 1421 00ac 73D0     		beq	.L81
 547:src/Sysutil.c ****     
 548:src/Sysutil.c ****     LptPutN("\x1B\x44\x01\n", 4); // enable half dot mode
 1422              		.loc 1 548 0
 1423 00ae 0421     		movs	r1, #4
 1424 00b0 4348     		ldr	r0, .L103+4
 1425 00b2 FFF7FEFF 		bl	LptPutN
 1426              	.LVL165:
 1427              	.LBB17:
 1428              	.LBB18:
 483:src/Sysutil.c ****   for (x=aLcd->w_hwidth; x>0; x--) {
 1429              		.loc 1 483 0
 1430 00b6 A288     		ldrh	r2, [r4, #4]
 1431 00b8 B4F806E0 		ldrh	lr, [r4, #6]
 1432 00bc 3244     		add	r2, r2, r6
 481:src/Sysutil.c ****   
 1433              		.loc 1 481 0
 1434 00be 04F1080C 		add	ip, r4, #8
 483:src/Sysutil.c ****   for (x=aLcd->w_hwidth; x>0; x--) {
 1435              		.loc 1 483 0
 1436 00c2 5946     		mov	r1, fp
 1437 00c4 3846     		mov	r0, r7
 1438 00c6 0EFB02F2 		mul	r2, lr, r2
 481:src/Sysutil.c ****   
 1439              		.loc 1 481 0
 1440 00ca CDF80CC0 		str	ip, [sp, #12]
 1441              	.LVL166:
 483:src/Sysutil.c ****   for (x=aLcd->w_hwidth; x>0; x--) {
 1442              		.loc 1 483 0
 1443 00ce FFF7FEFF 		bl	memset
 1444              	.LVL167:
 484:src/Sysutil.c ****     for (y=0; y < aLcd->w_vwidth; y++) {
 1445              		.loc 1 484 0
 1446 00d2 B4F804B0 		ldrh	fp, [r4, #4]
 1447              	.LVL168:
 1448 00d6 DDF80CC0 		ldr	ip, [sp, #12]
 1449              	.LVL169:
 1450              	.L82:
ARM GAS  C:\Users\AHMED~1.ELE\AppData\Local\Temp\ccRDj6wn.s 			page 37


 1451 00da BBF1000F 		cmp	fp, #0
 1452 00de 15D0     		beq	.L84
 1453 00e0 0020     		movs	r0, #0
 1454              	.LVL170:
 1455              	.L85:
 485:src/Sysutil.c ****       aDest[y*(aLcd->w_hwidth+aLdZeroPixel)+aLdZeroPixel+x-1]=(*ptr++==0x0000) ? 0x01 : 0x00;
 1456              		.loc 1 485 0
 1457 00e2 E288     		ldrh	r2, [r4, #6]
 1458 00e4 9042     		cmp	r0, r2
 1459 00e6 0ED2     		bcs	.L100
 486:src/Sysutil.c ****     }
 1460              		.loc 1 486 0
 1461 00e8 A288     		ldrh	r2, [r4, #4]
 1462 00ea 9119     		adds	r1, r2, r6
 1463 00ec BA19     		adds	r2, r7, r6
 1464 00ee 5A44     		add	r2, r2, fp
 1465 00f0 01FB0022 		mla	r2, r1, r0, r2
 1466 00f4 3CF8021B 		ldrh	r1, [ip], #2
 1467              	.LVL171:
 485:src/Sysutil.c ****       aDest[y*(aLcd->w_hwidth+aLdZeroPixel)+aLdZeroPixel+x-1]=(*ptr++==0x0000) ? 0x01 : 0x00;
 1468              		.loc 1 485 0
 1469 00f8 0130     		adds	r0, r0, #1
 1470              	.LVL172:
 486:src/Sysutil.c ****     }
 1471              		.loc 1 486 0
 1472 00fa B1FA81F1 		clz	r1, r1
 1473 00fe 4909     		lsrs	r1, r1, #5
 1474 0100 02F8011C 		strb	r1, [r2, #-1]
 1475 0104 EDE7     		b	.L85
 1476              	.LVL173:
 1477              	.L100:
 484:src/Sysutil.c ****     for (y=0; y < aLcd->w_vwidth; y++) {
 1478              		.loc 1 484 0
 1479 0106 0BF1FF3B 		add	fp, fp, #-1
 1480              	.LVL174:
 1481 010a E6E7     		b	.L82
 1482              	.LVL175:
 1483              	.L84:
 1484              	.LBE18:
 1485              	.LBE17:
 549:src/Sysutil.c ****          
 550:src/Sysutil.c ****     Transform(pTranBuf, pScreenBuf, lptLdZeroPixel);
 551:src/Sysutil.c ****     memset(pLptBuf, 0, lptbuf_size);
 1486              		.loc 1 551 0
 1487 010c 5946     		mov	r1, fp
 1488 010e 5246     		mov	r2, r10
 1489 0110 2846     		mov	r0, r5
 1490 0112 FFF7FEFF 		bl	memset
 1491              	.LVL176:
 552:src/Sysutil.c ****     pLptBuf[0] = 0x1B;
 1492              		.loc 1 552 0
 1493 0116 1B22     		movs	r2, #27
 553:src/Sysutil.c ****     pLptBuf[1] = 'K';
 554:src/Sysutil.c ****     pLptBuf[2] = lptwidth_bytes;
 1494              		.loc 1 554 0
 1495 0118 9DF80430 		ldrb	r3, [sp, #4]	@ zero_extendqisi2
 552:src/Sysutil.c ****     pLptBuf[0] = 0x1B;
ARM GAS  C:\Users\AHMED~1.ELE\AppData\Local\Temp\ccRDj6wn.s 			page 38


 1496              		.loc 1 552 0
 1497 011c 2A70     		strb	r2, [r5]
 553:src/Sysutil.c ****     pLptBuf[1] = 'K';
 1498              		.loc 1 553 0
 1499 011e 4B22     		movs	r2, #75
 555:src/Sysutil.c ****     pLptBuf[3] = aVPixel;
 556:src/Sysutil.c ****     pDest = &pLptBuf[4];
 1500              		.loc 1 556 0
 1501 0120 2E1D     		adds	r6, r5, #4
 1502              	.LVL177:
 553:src/Sysutil.c ****     pLptBuf[1] = 'K';
 1503              		.loc 1 553 0
 1504 0122 6A70     		strb	r2, [r5, #1]
 554:src/Sysutil.c ****     pLptBuf[3] = aVPixel;
 1505              		.loc 1 554 0
 1506 0124 AB70     		strb	r3, [r5, #2]
 555:src/Sysutil.c ****     pLptBuf[3] = aVPixel;
 1507              		.loc 1 555 0
 1508 0126 85F80380 		strb	r8, [r5, #3]
 557:src/Sysutil.c ****     memset(pDest, 0, lptwidth_bytes*aVPixel);
 1509              		.loc 1 557 0
 1510 012a 3046     		mov	r0, r6
 1511 012c 5946     		mov	r1, fp
 1512 012e 029A     		ldr	r2, [sp, #8]
 1513 0130 FFF7FEFF 		bl	memset
 1514              	.LVL178:
 558:src/Sysutil.c ****     pSrc = pTranBuf;
 559:src/Sysutil.c ****     for (y=0; y<aVPixel; y++) {     // row
 1515              		.loc 1 559 0
 1516 0134 BE46     		mov	lr, r7
 1517 0136 5B46     		mov	r3, fp
 1518              	.LVL179:
 1519              	.L86:
 1520              		.loc 1 559 0 is_stmt 0 discriminator 1
 1521 0138 4345     		cmp	r3, r8
 1522 013a 1DD2     		bcs	.L101
 1523 013c 0021     		movs	r1, #0
 1524              	.L89:
 1525              	.LVL180:
 560:src/Sysutil.c ****       for (x=0; x<(aHPixel+lptLdZeroPixel); x+=8) {  // col
 1526              		.loc 1 560 0 is_stmt 1 discriminator 1
 1527 013e 4945     		cmp	r1, r9
 1528 0140 17D2     		bcs	.L102
 1529 0142 0020     		movs	r0, #0
 1530              	.L88:
 1531              	.LVL181:
 561:src/Sysutil.c ****         offset = y*(aHPixel+lptLdZeroPixel)+x;
 562:src/Sysutil.c ****         for (i=0; i<8; i++) {
 563:src/Sysutil.c ****           *pDest >>= 1;
 1532              		.loc 1 563 0
 1533 0144 3278     		ldrb	r2, [r6]	@ zero_extendqisi2
 1534 0146 00EB010C 		add	ip, r0, r1
 1535 014a 5208     		lsrs	r2, r2, #1
 564:src/Sysutil.c ****           if (((x+i)<(aHPixel+lptLdZeroPixel))&&(pSrc[offset+i]&0x01)) {
 1536              		.loc 1 564 0
 1537 014c CC45     		cmp	ip, r9
 563:src/Sysutil.c ****           if (((x+i)<(aHPixel+lptLdZeroPixel))&&(pSrc[offset+i]&0x01)) {
ARM GAS  C:\Users\AHMED~1.ELE\AppData\Local\Temp\ccRDj6wn.s 			page 39


 1538              		.loc 1 563 0
 1539 014e 3270     		strb	r2, [r6]
 1540              		.loc 1 564 0
 1541 0150 09D2     		bcs	.L87
 1542 0152 01EB0E0C 		add	ip, r1, lr
 1543              		.loc 1 564 0 is_stmt 0 discriminator 1
 1544 0156 1CF800C0 		ldrb	ip, [ip, r0]	@ zero_extendqisi2
 1545 015a 1CF0010F 		tst	ip, #1
 565:src/Sysutil.c ****             *pDest |= 0x80;
 1546              		.loc 1 565 0 is_stmt 1 discriminator 1
 1547 015e 1CBF     		itt	ne
 1548 0160 62F07F02 		ornne	r2, r2, #127
 1549 0164 3270     		strbne	r2, [r6]
 1550              	.L87:
 562:src/Sysutil.c ****           *pDest >>= 1;
 1551              		.loc 1 562 0 discriminator 2
 1552 0166 0130     		adds	r0, r0, #1
 1553              	.LVL182:
 1554 0168 0828     		cmp	r0, #8
 1555 016a EBD1     		bne	.L88
 566:src/Sysutil.c ****           }
 567:src/Sysutil.c ****         }
 568:src/Sysutil.c ****         pDest++;
 1556              		.loc 1 568 0 discriminator 2
 1557 016c 0136     		adds	r6, r6, #1
 1558              	.LVL183:
 560:src/Sysutil.c ****         offset = y*(aHPixel+lptLdZeroPixel)+x;
 1559              		.loc 1 560 0 discriminator 2
 1560 016e 0831     		adds	r1, r1, #8
 1561              	.LVL184:
 1562 0170 E5E7     		b	.L89
 1563              	.LVL185:
 1564              	.L102:
 559:src/Sysutil.c ****       for (x=0; x<(aHPixel+lptLdZeroPixel); x+=8) {  // col
 1565              		.loc 1 559 0 discriminator 2
 1566 0172 0133     		adds	r3, r3, #1
 1567              	.LVL186:
 1568 0174 CE44     		add	lr, lr, r9
 1569 0176 DFE7     		b	.L86
 1570              	.LVL187:
 1571              	.L101:
 569:src/Sysutil.c ****       }
 570:src/Sysutil.c ****     } 
 571:src/Sysutil.c ****     LptPutN(pLptBuf, lptbuf_size);
 1572              		.loc 1 571 0
 1573 0178 5146     		mov	r1, r10
 1574 017a 2846     		mov	r0, r5
 1575 017c FFF7FEFF 		bl	LptPutN
 1576              	.LVL188:
 572:src/Sysutil.c ****     lptbuf_size = 10;
 573:src/Sysutil.c ****     memset(pLptBuf, '\n', lptbuf_size);
 1577              		.loc 1 573 0
 1578 0180 0A21     		movs	r1, #10
 1579 0182 0A46     		mov	r2, r1
 1580 0184 2846     		mov	r0, r5
 1581 0186 FFF7FEFF 		bl	memset
 1582              	.LVL189:
ARM GAS  C:\Users\AHMED~1.ELE\AppData\Local\Temp\ccRDj6wn.s 			page 40


 574:src/Sysutil.c ****     LptPutN(pLptBuf, lptbuf_size);
 1583              		.loc 1 574 0
 1584 018a 0A21     		movs	r1, #10
 1585 018c 2846     		mov	r0, r5
 1586 018e FFF7FEFF 		bl	LptPutN
 1587              	.LVL190:
 575:src/Sysutil.c ****     LptClose();
 1588              		.loc 1 575 0
 1589 0192 FFF7FEFF 		bl	LptClose
 1590              	.LVL191:
 1591              	.L81:
 576:src/Sysutil.c ****   }
 577:src/Sysutil.c ****   ret = 0; // success
 578:src/Sysutil.c ****   os_free(pScreenBuf);
 1592              		.loc 1 578 0
 1593 0196 2146     		mov	r1, r4
 1594 0198 9420     		movs	r0, #148
 1595 019a FFF7FEFF 		bl	sys_func1
 1596              	.LVL192:
 579:src/Sysutil.c ****   os_free(pTranBuf);
 1597              		.loc 1 579 0
 1598 019e 3946     		mov	r1, r7
 1599 01a0 9420     		movs	r0, #148
 1600 01a2 FFF7FEFF 		bl	sys_func1
 1601              	.LVL193:
 580:src/Sysutil.c ****   os_free(pLptBuf);
 1602              		.loc 1 580 0
 1603 01a6 9420     		movs	r0, #148
 1604 01a8 2946     		mov	r1, r5
 1605 01aa FFF7FEFF 		bl	sys_func1
 1606              	.LVL194:
 581:src/Sysutil.c ****   return ret;
 1607              		.loc 1 581 0
 1608 01ae 0020     		movs	r0, #0
 1609 01b0 01E0     		b	.L80
 1610              	.LVL195:
 1611              	.L90:
 540:src/Sysutil.c ****   }
 1612              		.loc 1 540 0
 1613 01b2 4FF0FF30 		mov	r0, #-1
 1614              	.LVL196:
 1615              	.L80:
 582:src/Sysutil.c **** }
 1616              		.loc 1 582 0
 1617 01b6 09B0     		add	sp, sp, #36
 1618              		.cfi_def_cfa_offset 36
 1619              		@ sp needed
 1620 01b8 BDE8F08F 		pop	{r4, r5, r6, r7, r8, r9, r10, fp, pc}
 1621              	.LVL197:
 1622              	.L104:
 1623              		.align	2
 1624              	.L103:
 1625 01bc 081C0200 		.word	138248
 1626 01c0 17000000 		.word	.LC3
 1627              		.cfi_endproc
 1628              	.LFE23:
 1629              		.size	PrintLcd2LptCtr, .-PrintLcd2LptCtr
ARM GAS  C:\Users\AHMED~1.ELE\AppData\Local\Temp\ccRDj6wn.s 			page 41


 1630              		.section	.text.debugAsc,"ax",%progbits
 1631              		.align	1
 1632              		.global	debugAsc
 1633              		.thumb
 1634              		.thumb_func
 1635              		.type	debugAsc, %function
 1636              	debugAsc:
 1637              	.LFB24:
 583:src/Sysutil.c **** /******************************************************************************
 584:src/Sysutil.c ****  *  Function        : debugAsc
 585:src/Sysutil.c ****  *  Description     : Debug ASCII data.
 586:src/Sysutil.c ****  *  Input           : N/A
 587:src/Sysutil.c ****  *  Return          : N/A
 588:src/Sysutil.c ****  *  Note            : N/A
 589:src/Sysutil.c ****  *  Globals Changed : N/A
 590:src/Sysutil.c ****  ******************************************************************************
 591:src/Sysutil.c ****  */
 592:src/Sysutil.c **** void debugAsc(BYTE *aTitle, BYTE *aData, DWORD aLen)
 593:src/Sysutil.c **** {
 1638              		.loc 1 593 0
 1639              		.cfi_startproc
 1640              		@ args = 0, pretend = 0, frame = 40
 1641              		@ frame_needed = 0, uses_anonymous_args = 0
 1642              	.LVL198:
 1643 0000 70B5     		push	{r4, r5, r6, lr}
 1644              		.cfi_def_cfa_offset 16
 1645              		.cfi_offset 4, -16
 1646              		.cfi_offset 5, -12
 1647              		.cfi_offset 6, -8
 1648              		.cfi_offset 14, -4
 1649 0002 1446     		mov	r4, r2
 1650 0004 8AB0     		sub	sp, sp, #40
 1651              		.cfi_def_cfa_offset 56
 1652              		.loc 1 593 0
 1653 0006 0646     		mov	r6, r0
 1654 0008 0D46     		mov	r5, r1
 594:src/Sysutil.c ****   BYTE buf[30];
 595:src/Sysutil.c ****   //WORD i;
 596:src/Sysutil.c ****   BYTE prncfg[5] = { 4, 7, 7, 4, 4 };
 1655              		.loc 1 596 0
 1656 000a 6846     		mov	r0, sp
 1657              	.LVL199:
 1658 000c 0F49     		ldr	r1, .L111
 1659              	.LVL200:
 1660 000e 0522     		movs	r2, #5
 1661              	.LVL201:
 1662 0010 FFF7FEFF 		bl	memcpy
 1663              	.LVL202:
 597:src/Sysutil.c ****   
 598:src/Sysutil.c ****   if (aLen == 0)
 1664              		.loc 1 598 0
 1665 0014 C4B1     		cbz	r4, .L105
 599:src/Sysutil.c ****     return;
 600:src/Sysutil.c ****     
 601:src/Sysutil.c **** #if 1
 602:src/Sysutil.c ****   // Print out TLV
 603:src/Sysutil.c ****   LptOpen(prncfg);
ARM GAS  C:\Users\AHMED~1.ELE\AppData\Local\Temp\ccRDj6wn.s 			page 42


 1666              		.loc 1 603 0
 1667 0016 6846     		mov	r0, sp
 1668 0018 FFF7FEFF 		bl	LptOpen
 1669              	.LVL203:
 604:src/Sysutil.c ****   LptPutS("\x1B""F1\n");
 1670              		.loc 1 604 0
 1671 001c 0C48     		ldr	r0, .L111+4
 1672 001e FFF7FEFF 		bl	LptPutS
 1673              	.LVL204:
 605:src/Sysutil.c ****   sprintf(buf, "\n%s-asc(%d):\n", aTitle, aLen);
 1674              		.loc 1 605 0
 1675 0022 3246     		mov	r2, r6
 1676 0024 2346     		mov	r3, r4
 1677 0026 0B49     		ldr	r1, .L111+8
 1678 0028 02A8     		add	r0, sp, #8
 1679 002a FFF7FEFF 		bl	sprintf
 1680              	.LVL205:
 606:src/Sysutil.c ****   LptPutS(buf);
 1681              		.loc 1 606 0
 1682 002e 02A8     		add	r0, sp, #8
 1683 0030 FFF7FEFF 		bl	LptPutS
 1684              	.LVL206:
 607:src/Sysutil.c ****   LptPutN(aData, aLen);
 1685              		.loc 1 607 0
 1686 0034 2146     		mov	r1, r4
 1687 0036 2846     		mov	r0, r5
 1688 0038 FFF7FEFF 		bl	LptPutN
 1689              	.LVL207:
 608:src/Sysutil.c ****   LptPutS("\n");
 1690              		.loc 1 608 0
 1691 003c 0648     		ldr	r0, .L111+12
 1692 003e FFF7FEFF 		bl	LptPutS
 1693              	.LVL208:
 609:src/Sysutil.c ****   LptPutS("-- END --\n");
 1694              		.loc 1 609 0
 1695 0042 0648     		ldr	r0, .L111+16
 1696 0044 FFF7FEFF 		bl	LptPutS
 1697              	.LVL209:
 1698              	.L105:
 610:src/Sysutil.c **** #else
 611:src/Sysutil.c ****   // Display TLV
 612:src/Sysutil.c ****   for (i=1; i<=pEMV->wLen; i++) {
 613:src/Sysutil.c ****     if ((i%64) == 1)
 614:src/Sysutil.c ****       DispLineMW("TLV-Out:\n", MW_LINE1, MW_CLRDISP|MW_SPFONT);
 615:src/Sysutil.c ****     SprintfMW(buf, "%02X ", (BYTE)pEMV->pbMsg[i-1]);
 616:src/Sysutil.c ****     DispPutNCMW(buf, 3);
 617:src/Sysutil.c ****     if ((i%8) == 0) PrintfMW("\n");
 618:src/Sysutil.c ****     if ((i%64) == 0)
 619:src/Sysutil.c ****       APM_WaitKey((DWORD)-1,0);
 620:src/Sysutil.c ****   }
 621:src/Sysutil.c ****   PrintfMW("\n[End]\x05");
 622:src/Sysutil.c ****   APM_WaitKey((DWORD)-1,0);
 623:src/Sysutil.c **** #endif
 624:src/Sysutil.c **** }
 1699              		.loc 1 624 0
 1700 0048 0AB0     		add	sp, sp, #40
 1701              		.cfi_def_cfa_offset 16
ARM GAS  C:\Users\AHMED~1.ELE\AppData\Local\Temp\ccRDj6wn.s 			page 43


 1702              		@ sp needed
 1703 004a 70BD     		pop	{r4, r5, r6, pc}
 1704              	.LVL210:
 1705              	.L112:
 1706              		.align	2
 1707              	.L111:
 1708 004c 27000000 		.word	.LANCHOR0+39
 1709 0050 1C000000 		.word	.LC4
 1710 0054 21000000 		.word	.LC5
 1711 0058 2F000000 		.word	.LC6
 1712 005c 31000000 		.word	.LC7
 1713              		.cfi_endproc
 1714              	.LFE24:
 1715              		.size	debugAsc, .-debugAsc
 1716              		.section	.text.debugHex,"ax",%progbits
 1717              		.align	1
 1718              		.global	debugHex
 1719              		.thumb
 1720              		.thumb_func
 1721              		.type	debugHex, %function
 1722              	debugHex:
 1723              	.LFB25:
 625:src/Sysutil.c **** /******************************************************************************
 626:src/Sysutil.c ****  *  Function        : debugHex
 627:src/Sysutil.c ****  *  Description     : Debug HEX data.
 628:src/Sysutil.c ****  *  Input           : N/A
 629:src/Sysutil.c ****  *  Return          : N/A
 630:src/Sysutil.c ****  *  Note            : N/A
 631:src/Sysutil.c ****  *  Globals Changed : N/A
 632:src/Sysutil.c ****  ******************************************************************************
 633:src/Sysutil.c ****  */
 634:src/Sysutil.c **** void debugHex(BYTE *aTitle, BYTE *aData, DWORD aLen)
 635:src/Sysutil.c **** {
 1724              		.loc 1 635 0
 1725              		.cfi_startproc
 1726              		@ args = 0, pretend = 0, frame = 40
 1727              		@ frame_needed = 0, uses_anonymous_args = 0
 1728              	.LVL211:
 1729 0000 70B5     		push	{r4, r5, r6, lr}
 1730              		.cfi_def_cfa_offset 16
 1731              		.cfi_offset 4, -16
 1732              		.cfi_offset 5, -12
 1733              		.cfi_offset 6, -8
 1734              		.cfi_offset 14, -4
 1735 0002 1546     		mov	r5, r2
 1736 0004 8AB0     		sub	sp, sp, #40
 1737              		.cfi_def_cfa_offset 56
 1738              		.loc 1 635 0
 1739 0006 0446     		mov	r4, r0
 1740 0008 0E46     		mov	r6, r1
 636:src/Sysutil.c ****   BYTE buf[30];
 637:src/Sysutil.c ****   WORD i;
 638:src/Sysutil.c ****   BYTE prncfg[5] = { 4, 7, 7, 4, 4 };
 1741              		.loc 1 638 0
 1742 000a 6846     		mov	r0, sp
 1743              	.LVL212:
 1744 000c 1649     		ldr	r1, .L122
ARM GAS  C:\Users\AHMED~1.ELE\AppData\Local\Temp\ccRDj6wn.s 			page 44


 1745              	.LVL213:
 1746 000e 0522     		movs	r2, #5
 1747              	.LVL214:
 1748 0010 FFF7FEFF 		bl	memcpy
 1749              	.LVL215:
 639:src/Sysutil.c ****   
 640:src/Sysutil.c ****   if (aLen == 0)
 1750              		.loc 1 640 0
 1751 0014 2DB3     		cbz	r5, .L113
 641:src/Sysutil.c ****     return;
 642:src/Sysutil.c ****     
 643:src/Sysutil.c ****   // Print out TLV
 644:src/Sysutil.c ****   LptOpen(prncfg);
 1752              		.loc 1 644 0
 1753 0016 6846     		mov	r0, sp
 1754 0018 FFF7FEFF 		bl	LptOpen
 1755              	.LVL216:
 645:src/Sysutil.c ****   LptPutS("\x1B""F1\n");
 1756              		.loc 1 645 0
 1757 001c 1348     		ldr	r0, .L122+4
 1758 001e FFF7FEFF 		bl	LptPutS
 1759              	.LVL217:
 646:src/Sysutil.c ****   sprintf(buf, "%s(%d):\n", aTitle, aLen);
 1760              		.loc 1 646 0
 1761 0022 2246     		mov	r2, r4
 1762 0024 1249     		ldr	r1, .L122+8
 1763 0026 2B46     		mov	r3, r5
 1764 0028 02A8     		add	r0, sp, #8
 1765 002a FFF7FEFF 		bl	sprintf
 1766              	.LVL218:
 647:src/Sysutil.c ****   LptPutS(buf);
 1767              		.loc 1 647 0
 1768 002e 02A8     		add	r0, sp, #8
 1769 0030 FFF7FEFF 		bl	LptPutS
 1770              	.LVL219:
 648:src/Sysutil.c ****   for (i=0; i<aLen; i++) {
 1771              		.loc 1 648 0
 1772 0034 0024     		movs	r4, #0
 1773              	.LVL220:
 1774              	.L115:
 1775              		.loc 1 648 0 is_stmt 0 discriminator 1
 1776 0036 AC42     		cmp	r4, r5
 1777 0038 0BD2     		bcs	.L121
 649:src/Sysutil.c ****     sprintf(buf, "%02X ", aData[i]);
 1778              		.loc 1 649 0 is_stmt 1 discriminator 3
 1779 003a 325D     		ldrb	r2, [r6, r4]	@ zero_extendqisi2
 1780 003c 0D49     		ldr	r1, .L122+12
 1781 003e 02A8     		add	r0, sp, #8
 648:src/Sysutil.c ****   for (i=0; i<aLen; i++) {
 1782              		.loc 1 648 0 discriminator 3
 1783 0040 0134     		adds	r4, r4, #1
 1784              	.LVL221:
 1785              		.loc 1 649 0 discriminator 3
 1786 0042 FFF7FEFF 		bl	sprintf
 1787              	.LVL222:
 650:src/Sysutil.c ****     LptPutN(buf, 3);
 1788              		.loc 1 650 0 discriminator 3
ARM GAS  C:\Users\AHMED~1.ELE\AppData\Local\Temp\ccRDj6wn.s 			page 45


 1789 0046 02A8     		add	r0, sp, #8
 1790 0048 0321     		movs	r1, #3
 1791 004a FFF7FEFF 		bl	LptPutN
 1792              	.LVL223:
 648:src/Sysutil.c ****   for (i=0; i<aLen; i++) {
 1793              		.loc 1 648 0 discriminator 3
 1794 004e A4B2     		uxth	r4, r4
 1795              	.LVL224:
 1796 0050 F1E7     		b	.L115
 1797              	.L121:
 651:src/Sysutil.c ****   }
 652:src/Sysutil.c ****   LptPutS("\n");
 1798              		.loc 1 652 0
 1799 0052 0948     		ldr	r0, .L122+16
 1800 0054 FFF7FEFF 		bl	LptPutS
 1801              	.LVL225:
 653:src/Sysutil.c ****   LptPutS("-- END --\n");
 1802              		.loc 1 653 0
 1803 0058 0848     		ldr	r0, .L122+20
 1804 005a FFF7FEFF 		bl	LptPutS
 1805              	.LVL226:
 654:src/Sysutil.c ****   LptClose();
 1806              		.loc 1 654 0
 1807 005e FFF7FEFF 		bl	LptClose
 1808              	.LVL227:
 1809              	.L113:
 655:src/Sysutil.c **** }
 1810              		.loc 1 655 0
 1811 0062 0AB0     		add	sp, sp, #40
 1812              		.cfi_def_cfa_offset 16
 1813              		@ sp needed
 1814 0064 70BD     		pop	{r4, r5, r6, pc}
 1815              	.LVL228:
 1816              	.L123:
 1817 0066 00BF     		.align	2
 1818              	.L122:
 1819 0068 27000000 		.word	.LANCHOR0+39
 1820 006c 1C000000 		.word	.LC4
 1821 0070 3C000000 		.word	.LC8
 1822 0074 45000000 		.word	.LC9
 1823 0078 2F000000 		.word	.LC6
 1824 007c 31000000 		.word	.LC7
 1825              		.cfi_endproc
 1826              	.LFE25:
 1827              		.size	debugHex, .-debugHex
 1828              		.section	.text.ShowIp,"ax",%progbits
 1829              		.align	1
 1830              		.global	ShowIp
 1831              		.thumb
 1832              		.thumb_func
 1833              		.type	ShowIp, %function
 1834              	ShowIp:
 1835              	.LFB26:
 656:src/Sysutil.c **** 
 657:src/Sysutil.c **** //*****************************************************************************
 658:src/Sysutil.c **** //  Function        : ShowIp
 659:src/Sysutil.c **** //  Description     : Show ip addr.
ARM GAS  C:\Users\AHMED~1.ELE\AppData\Local\Temp\ccRDj6wn.s 			page 46


 660:src/Sysutil.c **** //  Input           : aIp;        // pointer to 4 byte ip.
 661:src/Sysutil.c **** //                    aPos;       // line pos.
 662:src/Sysutil.c **** //                    aReverse;   // TRUE=> reverse on.
 663:src/Sysutil.c **** //  Return          : -1;         // Cancel;
 664:src/Sysutil.c **** //  Note            : N/A
 665:src/Sysutil.c **** //  Globals Changed : N/A
 666:src/Sysutil.c **** //*****************************************************************************
 667:src/Sysutil.c **** void ShowIp(unsigned char *aIp, int aPos, int aReverse)
 668:src/Sysutil.c **** {
 1836              		.loc 1 668 0
 1837              		.cfi_startproc
 1838              		@ args = 0, pretend = 0, frame = 128
 1839              		@ frame_needed = 0, uses_anonymous_args = 0
 1840              	.LVL229:
 1841 0000 F0B5     		push	{r4, r5, r6, r7, lr}
 1842              		.cfi_def_cfa_offset 20
 1843              		.cfi_offset 4, -20
 1844              		.cfi_offset 5, -16
 1845              		.cfi_offset 6, -12
 1846              		.cfi_offset 7, -8
 1847              		.cfi_offset 14, -4
 669:src/Sysutil.c ****   BYTE buf[128];
 670:src/Sysutil.c **** 
 671:src/Sysutil.c ****   DispGotoMW(aPos, MW_SPFONT);
 1848              		.loc 1 671 0
 1849 0002 0023     		movs	r3, #0
 668:src/Sysutil.c ****   BYTE buf[128];
 1850              		.loc 1 668 0
 1851 0004 A3B0     		sub	sp, sp, #140
 1852              		.cfi_def_cfa_offset 160
 668:src/Sysutil.c ****   BYTE buf[128];
 1853              		.loc 1 668 0
 1854 0006 0F46     		mov	r7, r1
 1855 0008 1646     		mov	r6, r2
 1856 000a 0446     		mov	r4, r0
 1857              		.loc 1 671 0
 1858 000c 0093     		str	r3, [sp]
 1859 000e 0F20     		movs	r0, #15
 1860              	.LVL230:
 1861 0010 2421     		movs	r1, #36
 1862              	.LVL231:
 1863 0012 3A46     		mov	r2, r7
 1864              	.LVL232:
 1865 0014 4FF40053 		mov	r3, #8192
 1866 0018 FFF7FEFF 		bl	lib_app_call
 1867              	.LVL233:
 672:src/Sysutil.c ****   if (aReverse) DispCtrlMW(MW_REV_ON);
 1868              		.loc 1 672 0
 1869 001c 1EB1     		cbz	r6, .L125
 1870              		.loc 1 672 0 is_stmt 0 discriminator 1
 1871 001e 1620     		movs	r0, #22
 1872 0020 1C21     		movs	r1, #28
 1873 0022 FFF7FEFF 		bl	sys_func1
 1874              	.LVL234:
 1875              	.L125:
 673:src/Sysutil.c ****   sprintf(buf, "%3d.%3d.%3d.%3d", aIp[0], aIp[1], aIp[2], aIp[3]);
 1876              		.loc 1 673 0 is_stmt 1
ARM GAS  C:\Users\AHMED~1.ELE\AppData\Local\Temp\ccRDj6wn.s 			page 47


 1877 0026 A178     		ldrb	r1, [r4, #2]	@ zero_extendqisi2
 1878 0028 2278     		ldrb	r2, [r4]	@ zero_extendqisi2
 1879 002a 6378     		ldrb	r3, [r4, #1]	@ zero_extendqisi2
 1880 002c 0091     		str	r1, [sp]
 1881 002e E178     		ldrb	r1, [r4, #3]	@ zero_extendqisi2
 1882 0030 02A8     		add	r0, sp, #8
 1883 0032 0191     		str	r1, [sp, #4]
 1884 0034 1349     		ldr	r1, .L137
 1885 0036 FFF7FEFF 		bl	sprintf
 1886              	.LVL235:
 1887              	.LBB19:
 674:src/Sysutil.c ****   DispLineMW(buf, aPos, MW_SPFONT);
 1888              		.loc 1 674 0
 1889 003a 02A8     		add	r0, sp, #8
 1890 003c FFF7FEFF 		bl	strlen
 1891              	.LVL236:
 1892 0040 0546     		mov	r5, r0
 1893              	.LVL237:
 1894 0042 691C     		adds	r1, r5, #1
 1895 0044 9220     		movs	r0, #146
 1896              	.LVL238:
 1897 0046 FFF7FEFF 		bl	sys_func1
 1898              	.LVL239:
 1899 004a 0446     		mov	r4, r0
 1900              	.LVL240:
 1901 004c 90B1     		cbz	r0, .L126
 1902              		.loc 1 674 0 is_stmt 0 discriminator 1
 1903 004e 02A9     		add	r1, sp, #8
 1904 0050 2A46     		mov	r2, r5
 1905 0052 FFF7FEFF 		bl	memcpy
 1906              	.LVL241:
 1907 0056 0023     		movs	r3, #0
 1908 0058 2521     		movs	r1, #37
 1909 005a 6355     		strb	r3, [r4, r5]
 1910 005c 4FF40053 		mov	r3, #8192
 1911 0060 0F20     		movs	r0, #15
 1912 0062 0093     		str	r3, [sp]
 1913 0064 2246     		mov	r2, r4
 1914 0066 3B46     		mov	r3, r7
 1915 0068 FFF7FEFF 		bl	lib_app_call
 1916              	.LVL242:
 1917 006c 9420     		movs	r0, #148
 1918 006e 2146     		mov	r1, r4
 1919 0070 FFF7FEFF 		bl	sys_func1
 1920              	.LVL243:
 1921              	.L126:
 1922              	.LBE19:
 675:src/Sysutil.c ****   if (aReverse) DispCtrlMW(MW_REV_OFF);
 1923              		.loc 1 675 0 is_stmt 1
 1924 0074 1EB1     		cbz	r6, .L124
 1925              		.loc 1 675 0 is_stmt 0 discriminator 1
 1926 0076 1620     		movs	r0, #22
 1927 0078 1D21     		movs	r1, #29
 1928 007a FFF7FEFF 		bl	sys_func1
 1929              	.LVL244:
 1930              	.L124:
 676:src/Sysutil.c **** }...
ARM GAS  C:\Users\AHMED~1.ELE\AppData\Local\Temp\ccRDj6wn.s 			page 48


 1931              		.loc 1 676 0 is_stmt 1
 1932 007e 23B0     		add	sp, sp, #140
 1933              		.cfi_def_cfa_offset 20
 1934              		@ sp needed
 1935 0080 F0BD     		pop	{r4, r5, r6, r7, pc}
 1936              	.LVL245:
 1937              	.L138:
 1938 0082 00BF     		.align	2
 1939              	.L137:
 1940 0084 4B000000 		.word	.LC10
 1941              		.cfi_endproc
 1942              	.LFE26:
 1943              		.size	ShowIp, .-ShowIp
 1944              		.section	.rodata
 1945              		.set	.LANCHOR0,. + 0
 1946              		.type	KMonthText, %object
 1947              		.size	KMonthText, 39
 1948              	KMonthText:
 1949 0000 20       		.byte	32
 1950 0001 20       		.byte	32
 1951 0002 20       		.byte	32
 1952 0003 4A       		.byte	74
 1953 0004 41       		.byte	65
 1954 0005 4E       		.byte	78
 1955 0006 46       		.byte	70
 1956 0007 45       		.byte	69
 1957 0008 42       		.byte	66
 1958 0009 4D       		.byte	77
 1959 000a 41       		.byte	65
 1960 000b 52       		.byte	82
 1961 000c 41       		.byte	65
 1962 000d 50       		.byte	80
 1963 000e 52       		.byte	82
 1964 000f 4D       		.byte	77
 1965 0010 41       		.byte	65
 1966 0011 59       		.byte	89
 1967 0012 4A       		.byte	74
 1968 0013 55       		.byte	85
 1969 0014 4E       		.byte	78
 1970 0015 4A       		.byte	74
 1971 0016 55       		.byte	85
 1972 0017 4C       		.byte	76
 1973 0018 41       		.byte	65
 1974 0019 55       		.byte	85
 1975 001a 47       		.byte	71
 1976 001b 53       		.byte	83
 1977 001c 45       		.byte	69
 1978 001d 50       		.byte	80
 1979 001e 4F       		.byte	79
 1980 001f 43       		.byte	67
 1981 0020 54       		.byte	84
 1982 0021 4E       		.byte	78
 1983 0022 4F       		.byte	79
 1984 0023 56       		.byte	86
 1985 0024 44       		.byte	68
 1986 0025 45       		.byte	69
 1987 0026 43       		.byte	67
ARM GAS  C:\Users\AHMED~1.ELE\AppData\Local\Temp\ccRDj6wn.s 			page 49


 1988              	.LC0:
 1989 0027 04       		.byte	4
 1990 0028 07       		.byte	7
 1991 0029 07       		.byte	7
 1992 002a 04       		.byte	4
 1993 002b 04       		.byte	4
 1994              		.section	.rodata.str1.1,"aMS",%progbits,1
 1995              	.LC1:
 1996 0000 4D656D6F 		.ascii	"Memory Error!\000"
 1996      72792045 
 1996      72726F72 
 1996      2100
 1997              	.LC2:
 1998 000e 30303030 		.ascii	"00000000\000"
 1998      30303030 
 1998      00
 1999              	.LC3:
 2000 0017 1B44010A 		.ascii	"\033D\001\012\000"
 2000      00
 2001              	.LC4:
 2002 001c 1B46310A 		.ascii	"\033F1\012\000"
 2002      00
 2003              	.LC5:
 2004 0021 0A25732D 		.ascii	"\012%s-asc(%d):\012\000"
 2004      61736328 
 2004      2564293A 
 2004      0A00
 2005              	.LC6:
 2006 002f 0A00     		.ascii	"\012\000"
 2007              	.LC7:
 2008 0031 2D2D2045 		.ascii	"-- END --\012\000"
 2008      4E44202D 
 2008      2D0A00
 2009              	.LC8:
 2010 003c 25732825 		.ascii	"%s(%d):\012\000"
 2010      64293A0A 
 2010      00
 2011              	.LC9:
 2012 0045 25303258 		.ascii	"%02X \000"
 2012      2000
 2013              	.LC10:
 2014 004b 2533642E 		.ascii	"%3d.%3d.%3d.%3d\000"
 2014      2533642E 
 2014      2533642E 
 2014      25336400 
 2015              		.text
 2016              	.Letext0:
 2017              		.file 2 "c:\\devtools\\gcc_v49_2014q4\\lib\\gcc\\arm-none-eabi\\4.9.3\\include\\stddef.h"
 2018              		.file 3 "../LibA5T1000/common.h"
 2019              		.file 4 "../LibA5T1000/system.h"
 2020              		.file 5 "../LibA5T1000/midware.h"
 2021              		.file 6 "src/sysutil.h"
 2022              		.file 7 "../LibA5T1000/util.h"
 2023              		.file 8 "c:\\devtools\\gcc_v49_2014q4\\arm-none-eabi\\include\\string.h"
 2024              		.file 9 "src/lptutil.h"
 2025              		.file 10 "c:\\devtools\\gcc_v49_2014q4\\arm-none-eabi\\include\\stdio.h"