ARM GAS  C:\Users\AHMED~1.ELE\AppData\Local\Temp\ccDs54C0.s 			page 1


   1              		.syntax unified
   2              		.cpu cortex-a5
   3              		.fpu softvfp
   4              		.eabi_attribute 20, 1
   5              		.eabi_attribute 21, 1
   6              		.eabi_attribute 23, 3
   7              		.eabi_attribute 24, 1
   8              		.eabi_attribute 25, 1
   9              		.eabi_attribute 26, 1
  10              		.eabi_attribute 30, 4
  11              		.eabi_attribute 34, 0
  12              		.eabi_attribute 18, 4
  13              		.thumb
  14              		.file	"TestCfg.c"
  15              		.text
  16              	.Ltext0:
  17              		.cfi_sections	.debug_frame
  18              		.section	.text.KernelReady,"ax",%progbits
  19              		.align	1
  20              		.thumb
  21              		.thumb_func
  22              		.type	KernelReady, %function
  23              	KernelReady:
  24              	.LFB5:
  25              		.file 1 "src/TestCfg.c"
   1:src/TestCfg.c **** //-----------------------------------------------------------------------------
   2:src/TestCfg.c **** //  File          : TestCfg.c
   3:src/TestCfg.c **** //  Module        :
   4:src/TestCfg.c **** //  Description   : Include Debug Test Config Setup.
   5:src/TestCfg.c **** //  Author        : Lewis
   6:src/TestCfg.c **** //  Notes         : N/A
   7:src/TestCfg.c **** //
   8:src/TestCfg.c **** // ============================================================================
   9:src/TestCfg.c **** // | Naming conventions                                                       |
  10:src/TestCfg.c **** // | ~~~~~~~~~~~~~~~~~~                                                       |
  11:src/TestCfg.c **** // |        Struct define : Leading T                                         |
  12:src/TestCfg.c **** // |         Struct/Array : Leading s                                         |
  13:src/TestCfg.c **** // |             Constant : Leading K                                         |
  14:src/TestCfg.c **** // |      Global Variable : Leading g  (variable use outside one C file)      |
  15:src/TestCfg.c **** // |                                                                          |
  16:src/TestCfg.c **** // |   BYTE( 8 Bits) size : Leading b                                         |
  17:src/TestCfg.c **** // |   CHAR( 8 Bits) size : Leading c                                         |
  18:src/TestCfg.c **** // |   WORD(16 Bits) size : Leading w                                         |
  19:src/TestCfg.c **** // |  DWORD(32 Bits) size : Leading d                                         |
  20:src/TestCfg.c **** // |    int(32 Bits) size : Leading i                                         |
  21:src/TestCfg.c **** // | DDWORD(64 Bits) size : Leading dd                                        |
  22:src/TestCfg.c **** // |              Pointer : Leading p                                         |
  23:src/TestCfg.c **** // |                                                                          |
  24:src/TestCfg.c **** // |    Function argument : Leading a                                         |
  25:src/TestCfg.c **** // |       Local Variable : All lower case                                    |
  26:src/TestCfg.c **** // |                                                                          |
  27:src/TestCfg.c **** // | Examples:                                                                |
  28:src/TestCfg.c **** // |                Array : Leading s, (sb = arrary of byte, etc)             |
  29:src/TestCfg.c **** // |              Pointer : Leading p, (pb = pointer of byte, etc)            |
  30:src/TestCfg.c **** // ============================================================================
  31:src/TestCfg.c **** //
  32:src/TestCfg.c **** //  Date          Who         Action
ARM GAS  C:\Users\AHMED~1.ELE\AppData\Local\Temp\ccDs54C0.s 			page 2


  33:src/TestCfg.c **** //  ------------  ----------- -------------------------------------------------
  34:src/TestCfg.c **** //  09 Apr  2008  Lewis       Initial Version.
  35:src/TestCfg.c **** //  15 Jan  2009  Lewis       Add External PP300 support
  36:src/TestCfg.c **** //-----------------------------------------------------------------------------
  37:src/TestCfg.c **** #include <stdio.h>
  38:src/TestCfg.c **** #include <string.h>
  39:src/TestCfg.c **** #include <stdlib.h>
  40:src/TestCfg.c **** #include "apm.h"
  41:src/TestCfg.c **** #include "menu.h"
  42:src/TestCfg.c **** #include "corevar.h"
  43:src/TestCfg.c **** #include "emvtrans.h"
  44:src/TestCfg.c **** #include "ctltrans.h"
  45:src/TestCfg.c **** #include "testcfg.h"
  46:src/TestCfg.c **** 
  47:src/TestCfg.c **** //-----------------------------------------------------------------------------
  48:src/TestCfg.c **** //  Constants
  49:src/TestCfg.c **** //-----------------------------------------------------------------------------
  50:src/TestCfg.c **** //-----------------------------------------------------------------------------
  51:src/TestCfg.c **** //  Globals
  52:src/TestCfg.c **** //-----------------------------------------------------------------------------
  53:src/TestCfg.c **** static BOOLEAN bDebugAuto;
  54:src/TestCfg.c **** static int     iDebugAutoTrans;
  55:src/TestCfg.c **** static DWORD   dDebugAutoAmt;
  56:src/TestCfg.c **** static DWORD   dDebugAutoPin;
  57:src/TestCfg.c **** static DWORD   dDebugMaxAmt;
  58:src/TestCfg.c **** 
  59:src/TestCfg.c **** ////*****************************************************************************
  60:src/TestCfg.c **** ////  Function        : GetTermCap
  61:src/TestCfg.c **** ////  Description     : Get terminal capabality from input buffer.
  62:src/TestCfg.c **** ////  Input           : aDat;     // pointer to TLV data.
  63:src/TestCfg.c **** ////  Return          : capabality byte.
  64:src/TestCfg.c **** ////  Note            : N/A
  65:src/TestCfg.c **** ////  Globals Changed : N/A
  66:src/TestCfg.c **** ////*****************************************************************************
  67:src/TestCfg.c **** //static BYTE GetTermCap(BYTE *aDat)
  68:src/TestCfg.c **** //{
  69:src/TestCfg.c **** //  BYTE *ptr;
  70:src/TestCfg.c **** //  ptr = TLFind(aDat, 0x9F40);   // additional terminal capabality.
  71:src/TestCfg.c **** //  return ptr[1];
  72:src/TestCfg.c **** //}
  73:src/TestCfg.c **** ////*****************************************************************************
  74:src/TestCfg.c **** ////  Function        : DebugTestSetup
  75:src/TestCfg.c **** ////  Description     : Setup debug auto run option.
  76:src/TestCfg.c **** ////  Input           : N/A
  77:src/TestCfg.c **** ////  Return          : N/A
  78:src/TestCfg.c **** ////  Note            : N/A
  79:src/TestCfg.c **** ////  Globals Changed : N/A
  80:src/TestCfg.c **** ////*****************************************************************************
  81:src/TestCfg.c **** //void DebugTestSetup(void)
  82:src/TestCfg.c **** //{
  83:src/TestCfg.c **** //  BYTE term_cap;
  84:src/TestCfg.c **** //  struct MENU_ITEM eTransItem[7];
  85:src/TestCfg.c **** //  struct MENU_DAT  eTransMenu;
  86:src/TestCfg.c **** //  BYTE   menu_idx;
  87:src/TestCfg.c **** //  int    select;
  88:src/TestCfg.c **** //  BYTE   kbdbuf[32];
  89:src/TestCfg.c **** //
ARM GAS  C:\Users\AHMED~1.ELE\AppData\Local\Temp\ccDs54C0.s 			page 3


  90:src/TestCfg.c **** //  term_cap = GetTermCap((BYTE *)KApplCfg[gEMVTestCfg.cConfig][0].eACFG);
  91:src/TestCfg.c **** //
  92:src/TestCfg.c **** //  menu_idx = 0;
  93:src/TestCfg.c **** //  // Add Manual option
  94:src/TestCfg.c **** //  eTransItem[menu_idx].id = menu_idx+1;
  95:src/TestCfg.c **** //  eTransItem[menu_idx].desc = "Manual Select";
  96:src/TestCfg.c **** //  menu_idx++;
  97:src/TestCfg.c **** //
  98:src/TestCfg.c **** //  if (term_cap & 0x40) {
  99:src/TestCfg.c **** //    eTransItem[menu_idx].id = menu_idx+1;
 100:src/TestCfg.c **** //    eTransItem[menu_idx].desc = "Goods Sale";
 101:src/TestCfg.c **** //    menu_idx++;
 102:src/TestCfg.c **** //  }
 103:src/TestCfg.c **** //  if (term_cap & 0x20) {
 104:src/TestCfg.c **** //    eTransItem[menu_idx].id = menu_idx+1;
 105:src/TestCfg.c **** //    eTransItem[menu_idx].desc = "Services Sale";
 106:src/TestCfg.c **** //    menu_idx++;
 107:src/TestCfg.c **** //  }
 108:src/TestCfg.c **** //  if (term_cap & 0x80) {
 109:src/TestCfg.c **** //    eTransItem[menu_idx].id = menu_idx+1;
 110:src/TestCfg.c **** //    eTransItem[menu_idx].desc = "Cash Withdraw";
 111:src/TestCfg.c **** //    menu_idx++;
 112:src/TestCfg.c **** //  }
 113:src/TestCfg.c **** //  if (((term_cap & 0x50) == 0x50) || ((term_cap & 0x30) == 0x30)) {
 114:src/TestCfg.c **** //    eTransItem[menu_idx].id = menu_idx+1;
 115:src/TestCfg.c **** //    eTransItem[menu_idx].desc = "CashBack";
 116:src/TestCfg.c **** //    menu_idx++;
 117:src/TestCfg.c **** //  }
 118:src/TestCfg.c **** ////  if (gPBOCApp) {
 119:src/TestCfg.c **** ////    eTransItem[menu_idx].id = menu_idx+1;
 120:src/TestCfg.c **** ////    eTransItem[menu_idx].desc = "Read Card Log";
 121:src/TestCfg.c **** ////    menu_idx++;
 122:src/TestCfg.c **** ////  }
 123:src/TestCfg.c **** //  eTransItem[menu_idx].id = -1;
 124:src/TestCfg.c **** //  eTransItem[menu_idx].desc = NULL;
 125:src/TestCfg.c **** //
 126:src/TestCfg.c **** //  eTransMenu.line_mode = MENU_MODE_6LINE;
 127:src/TestCfg.c **** //  memcpy(eTransMenu.header, "AUTO RUN CONFIG  ", 17);
 128:src/TestCfg.c **** //
 129:src/TestCfg.c **** //  eTransMenu.menu_item = eTransItem;
 130:src/TestCfg.c **** //  select = MenuSelect(&eTransMenu);
 131:src/TestCfg.c **** //  if (select == -1)
 132:src/TestCfg.c **** //    return;
 133:src/TestCfg.c **** //
 134:src/TestCfg.c **** //  if (select == 1) {
 135:src/TestCfg.c **** //    bDebugAuto = FALSE;
 136:src/TestCfg.c **** //    dDebugMaxAmt = 0;
 137:src/TestCfg.c **** //  }
 138:src/TestCfg.c **** //  else {
 139:src/TestCfg.c **** //    bDebugAuto = TRUE;
 140:src/TestCfg.c **** //    iDebugAutoTrans = select-1;
 141:src/TestCfg.c **** //    dDebugAutoAmt = 100;
 142:src/TestCfg.c **** //    dDebugAutoPin = 0;
 143:src/TestCfg.c **** //    printf("\fTxn Count :");
 144:src/TestCfg.c **** //    kbdbuf[0]  = 0;
 145:src/TestCfg.c **** //    dDebugMaxAmt = 0;
 146:src/TestCfg.c **** //    if (APM_GetKbd(NUMERIC_INPUT, 4, kbdbuf)) {
ARM GAS  C:\Users\AHMED~1.ELE\AppData\Local\Temp\ccDs54C0.s 			page 4


 147:src/TestCfg.c **** //      kbdbuf[kbdbuf[0]+1] = 0;
 148:src/TestCfg.c **** //      dDebugMaxAmt = dDebugAutoAmt + atoi((char *)&kbdbuf[1]);
 149:src/TestCfg.c **** //    }
 150:src/TestCfg.c **** //  }
 151:src/TestCfg.c **** //}
 152:src/TestCfg.c **** //*****************************************************************************
 153:src/TestCfg.c **** //  Function        : DebugAutoRun
 154:src/TestCfg.c **** //  Description     : Return Debug Auto run status;
 155:src/TestCfg.c **** //  Input           : N/A
 156:src/TestCfg.c **** //  Return          : TRUE/FALSE;
 157:src/TestCfg.c **** //  Note            : N/A
 158:src/TestCfg.c **** //  Globals Changed : N/A
 159:src/TestCfg.c **** //*****************************************************************************
 160:src/TestCfg.c **** BOOLEAN DebugAutoRun(void)
 161:src/TestCfg.c **** {
 162:src/TestCfg.c ****   return bDebugAuto;
 163:src/TestCfg.c **** }
 164:src/TestCfg.c **** //*****************************************************************************
 165:src/TestCfg.c **** //  Function        : GetAutoTrans
 166:src/TestCfg.c **** //  Description     : Return Auto run Transaction Selection.
 167:src/TestCfg.c **** //  Input           : N/A
 168:src/TestCfg.c **** //  Return          : select index.
 169:src/TestCfg.c **** //  Note            : N/A
 170:src/TestCfg.c **** //  Globals Changed : N/A
 171:src/TestCfg.c **** //*****************************************************************************
 172:src/TestCfg.c **** int GetAutoTrans(void)
 173:src/TestCfg.c **** {
 174:src/TestCfg.c ****   return iDebugAutoTrans;
 175:src/TestCfg.c **** }
 176:src/TestCfg.c **** //*****************************************************************************
 177:src/TestCfg.c **** //  Function        : GetDebugAmount
 178:src/TestCfg.c **** //  Description     : Return Debug Auto run Amount
 179:src/TestCfg.c **** //  Input           : N/A
 180:src/TestCfg.c **** //  Return          : Amount value;
 181:src/TestCfg.c **** //  Note            : N/A
 182:src/TestCfg.c **** //  Globals Changed : N/A
 183:src/TestCfg.c **** //*****************************************************************************
 184:src/TestCfg.c **** DWORD GetAutoAmount(void)
 185:src/TestCfg.c **** {
 186:src/TestCfg.c ****   dDebugAutoAmt++;
 187:src/TestCfg.c ****   return dDebugAutoAmt;
 188:src/TestCfg.c **** }
 189:src/TestCfg.c **** //*****************************************************************************
 190:src/TestCfg.c **** //  Function        : GetAutoPin
 191:src/TestCfg.c **** //  Description     : Return Auto run PIN.
 192:src/TestCfg.c **** //  Input           : N/A
 193:src/TestCfg.c **** //  Return          : PIN value;
 194:src/TestCfg.c **** //  Note            : N/A
 195:src/TestCfg.c **** //  Globals Changed : N/A
 196:src/TestCfg.c **** //*****************************************************************************
 197:src/TestCfg.c **** DWORD GetAutoPin(void)
 198:src/TestCfg.c **** {
 199:src/TestCfg.c ****   dDebugAutoPin++;
 200:src/TestCfg.c ****   return dDebugAutoPin;
 201:src/TestCfg.c **** }
 202:src/TestCfg.c **** //*****************************************************************************
 203:src/TestCfg.c **** //  Function        : DebugEnd
ARM GAS  C:\Users\AHMED~1.ELE\AppData\Local\Temp\ccDs54C0.s 			page 5


 204:src/TestCfg.c **** //  Description     : Return debug end condition
 205:src/TestCfg.c **** //  Input           : N/A
 206:src/TestCfg.c **** //  Return          : TRUE/FALSE;
 207:src/TestCfg.c **** //  Note            : N/A
 208:src/TestCfg.c **** //  Globals Changed : N/A
 209:src/TestCfg.c **** //*****************************************************************************
 210:src/TestCfg.c **** BOOLEAN DebugEnd(void)
 211:src/TestCfg.c **** {
 212:src/TestCfg.c ****   return (dDebugMaxAmt <= dDebugAutoAmt)?TRUE:FALSE;
 213:src/TestCfg.c **** }
 214:src/TestCfg.c **** //*****************************************************************************
 215:src/TestCfg.c **** //  Function        : KernelReady
 216:src/TestCfg.c **** //  Description     : Check Whether EMV/CTL Kernel exist
 217:src/TestCfg.c **** //  Input           : N/A
 218:src/TestCfg.c **** //  Return          : N/A
 219:src/TestCfg.c **** //  Note            : N/A
 220:src/TestCfg.c **** //  Globals Changed : N/A
 221:src/TestCfg.c **** //*****************************************************************************
 222:src/TestCfg.c **** static BOOLEAN KernelReady(BYTE aAppID)
 223:src/TestCfg.c **** {
  26              		.loc 1 223 0
  27              		.cfi_startproc
  28              		@ args = 0, pretend = 0, frame = 0
  29              		@ frame_needed = 0, uses_anonymous_args = 0
  30              	.LVL0:
  31 0000 0146     		mov	r1, r0
  32 0002 08B5     		push	{r3, lr}
  33              		.cfi_def_cfa_offset 8
  34              		.cfi_offset 3, -8
  35              		.cfi_offset 14, -4
 224:src/TestCfg.c ****   if (!IsAppIdExistMW(aAppID)) {
  36              		.loc 1 224 0
  37 0004 8D20     		movs	r0, #141
  38              	.LVL1:
  39 0006 FFF7FEFF 		bl	sys_func1
  40              	.LVL2:
 225:src/TestCfg.c ****     return FALSE;
 226:src/TestCfg.c ****   }
 227:src/TestCfg.c ****   return TRUE;
 228:src/TestCfg.c **** }
  41              		.loc 1 228 0
  42 000a 0030     		adds	r0, r0, #0
  43 000c 18BF     		it	ne
  44 000e 0120     		movne	r0, #1
  45 0010 08BD     		pop	{r3, pc}
  46              		.cfi_endproc
  47              	.LFE5:
  48              		.size	KernelReady, .-KernelReady
  49              		.section	.text.DoSetup,"ax",%progbits
  50              		.align	1
  51              		.thumb
  52              		.thumb_func
  53              		.type	DoSetup, %function
  54              	DoSetup:
  55              	.LFB6:
 229:src/TestCfg.c **** //*****************************************************************************
 230:src/TestCfg.c **** //  Function        : DoSetup
ARM GAS  C:\Users\AHMED~1.ELE\AppData\Local\Temp\ccDs54C0.s 			page 6


 231:src/TestCfg.c **** //  Description     : Send the setup command to EMV Kernel.
 232:src/TestCfg.c **** //  Input           : aCmd;             // Setup Command
 233:src/TestCfg.c **** //  Return          : N/A
 234:src/TestCfg.c **** //  Note            :
 235:src/TestCfg.c **** //  Globals Changed : N/A
 236:src/TestCfg.c **** //*****************************************************************************
 237:src/TestCfg.c **** static void DoSetup(DWORD aCmd)
 238:src/TestCfg.c **** {
  56              		.loc 1 238 0
  57              		.cfi_startproc
  58              		@ args = 0, pretend = 0, frame = 0
  59              		@ frame_needed = 0, uses_anonymous_args = 0
  60              	.LVL3:
  61 0000 37B5     		push	{r0, r1, r2, r4, r5, lr}
  62              		.cfi_def_cfa_offset 24
  63              		.cfi_offset 4, -12
  64              		.cfi_offset 5, -8
  65              		.cfi_offset 14, -4
 239:src/TestCfg.c ****   if (EMV_DllSetup(aCmd,  &gGDS->s_EMVIn, &gGDS->s_EMVOut) == FALSE) {
  66              		.loc 1 239 0
  67 0002 0E4C     		ldr	r4, .L6
 238:src/TestCfg.c ****   if (EMV_DllSetup(aCmd,  &gGDS->s_EMVIn, &gGDS->s_EMVOut) == FALSE) {
  68              		.loc 1 238 0
  69 0004 0546     		mov	r5, r0
  70              		.loc 1 239 0
  71 0006 2368     		ldr	r3, [r4]
  72 0008 0E20     		movs	r0, #14
  73              	.LVL4:
  74 000a 03F55E53 		add	r3, r3, #14208
  75 000e 03F10802 		add	r2, r3, #8
  76 0012 0021     		movs	r1, #0
  77 0014 0092     		str	r2, [sp]
  78 0016 2A46     		mov	r2, r5
  79 0018 FFF7FEFF 		bl	lib_app_call
  80              	.LVL5:
  81 001c C0B2     		uxtb	r0, r0
  82 001e 50B9     		cbnz	r0, .L2
  83              	.LVL6:
  84              	.LBB4:
  85              	.LBB5:
 240:src/TestCfg.c ****     if (aCmd !=IOCMD_READ_AIDIDX) {
  86              		.loc 1 240 0
  87 0020 092D     		cmp	r5, #9
  88 0022 04D0     		beq	.L4
  89              	.LBE5:
  90              	.LBE4:
 241:src/TestCfg.c ****       EMVFatal();
 242:src/TestCfg.c ****     }
 243:src/TestCfg.c ****     else
 244:src/TestCfg.c ****       gGDS->s_EMVOut.wLen = 0;
 245:src/TestCfg.c ****   }
 246:src/TestCfg.c **** }
  91              		.loc 1 246 0
  92 0024 03B0     		add	sp, sp, #12
  93              		.cfi_remember_state
  94              		.cfi_def_cfa_offset 12
  95              		@ sp needed
ARM GAS  C:\Users\AHMED~1.ELE\AppData\Local\Temp\ccDs54C0.s 			page 7


  96 0026 BDE83040 		pop	{r4, r5, lr}
  97              		.cfi_restore 14
  98              		.cfi_restore 5
  99              		.cfi_restore 4
 100              		.cfi_def_cfa_offset 0
 101              	.LVL7:
 102              	.LBB7:
 103              	.LBB6:
 241:src/TestCfg.c ****       EMVFatal();
 104              		.loc 1 241 0
 105 002a FFF7FEBF 		b	EMVFatal
 106              	.LVL8:
 107              	.L4:
 108              		.cfi_restore_state
 244:src/TestCfg.c ****   }
 109              		.loc 1 244 0
 110 002e 2368     		ldr	r3, [r4]
 111 0030 03F55E53 		add	r3, r3, #14208
 112 0034 1881     		strh	r0, [r3, #8]	@ movhi
 113              	.LVL9:
 114              	.L2:
 115              	.LBE6:
 116              	.LBE7:
 117              		.loc 1 246 0
 118 0036 03B0     		add	sp, sp, #12
 119              		.cfi_def_cfa_offset 12
 120              		@ sp needed
 121 0038 30BD     		pop	{r4, r5, pc}
 122              	.LVL10:
 123              	.L7:
 124 003a 00BF     		.align	2
 125              	.L6:
 126 003c 00000000 		.word	gGDS
 127              		.cfi_endproc
 128              	.LFE6:
 129              		.size	DoSetup, .-DoSetup
 130              		.section	.text.DoCTLSetup,"ax",%progbits
 131              		.align	1
 132              		.thumb
 133              		.thumb_func
 134              		.type	DoCTLSetup, %function
 135              	DoCTLSetup:
 136              	.LFB12:
 247:src/TestCfg.c **** //*****************************************************************************
 248:src/TestCfg.c **** //  Function        : ClrEMVKey
 249:src/TestCfg.c **** //  Description     : Clear All EMV Keys.
 250:src/TestCfg.c **** //  Input           : N/A
 251:src/TestCfg.c **** //  Return          : N/A
 252:src/TestCfg.c **** //  Note            : N/A
 253:src/TestCfg.c **** //  Globals Changed : N/A
 254:src/TestCfg.c **** //*****************************************************************************
 255:src/TestCfg.c **** static void ClrEMVKey(void)
 256:src/TestCfg.c **** {
 257:src/TestCfg.c ****   if (!KernelReady(EMVDLL_ID))
 258:src/TestCfg.c ****     return;
 259:src/TestCfg.c **** 
 260:src/TestCfg.c ****   memset(gGDS->s_EMVIn.bMsg, 0, 6);
ARM GAS  C:\Users\AHMED~1.ELE\AppData\Local\Temp\ccDs54C0.s 			page 8


 261:src/TestCfg.c ****   gGDS->s_EMVIn.wLen = 6;
 262:src/TestCfg.c ****   if (EMV_DllSetup(IOCMD_KEY_LOADING, &gGDS->s_EMVIn, &gGDS->s_EMVOut) == FALSE)     // clear all k
 263:src/TestCfg.c ****     EMVFatal();
 264:src/TestCfg.c **** }
 265:src/TestCfg.c **** //*****************************************************************************
 266:src/TestCfg.c **** //  Function        : ClrEMVParam
 267:src/TestCfg.c **** //  Description     : Clear all EMV dll's parameters.
 268:src/TestCfg.c **** //  Input           : N/A
 269:src/TestCfg.c **** //  Return          : N/A
 270:src/TestCfg.c **** //  Note            : N/A
 271:src/TestCfg.c **** //  Globals Changed : N/A
 272:src/TestCfg.c **** //*****************************************************************************
 273:src/TestCfg.c **** static void ClrEMVParam(void)
 274:src/TestCfg.c **** {
 275:src/TestCfg.c ****   if (!KernelReady(EMVDLL_ID))
 276:src/TestCfg.c ****     return;
 277:src/TestCfg.c **** 
 278:src/TestCfg.c ****   os_config_read(K_CF_SerialNo, gGDS->s_EMVIn.bMsg);
 279:src/TestCfg.c ****   gGDS->s_EMVIn.wLen = 8;
 280:src/TestCfg.c **** 
 281:src/TestCfg.c ****   if (EMV_DllSetup(IOCMD_IFDSN_RW, &gGDS->s_EMVIn, &gGDS->s_EMVOut) == FALSE) // set IFDSN
 282:src/TestCfg.c ****     EMVFatal();
 283:src/TestCfg.c **** 
 284:src/TestCfg.c ****   EMV_DllSetup(IOCMD_CLR_AID, &gGDS->s_EMVIn, &gGDS->s_EMVOut); // clear AID parameters
 285:src/TestCfg.c **** }
 286:src/TestCfg.c **** //*****************************************************************************
 287:src/TestCfg.c **** //  Function        : LoadEMVKey
 288:src/TestCfg.c **** //  Description     : Load Debug EMV keys.
 289:src/TestCfg.c **** //  Input           : N/A
 290:src/TestCfg.c **** //  Return          : N/A
 291:src/TestCfg.c **** //  Note            : N/A
 292:src/TestCfg.c **** //  Globals Changed : N/A
 293:src/TestCfg.c **** //*****************************************************************************
 294:src/TestCfg.c **** void LoadEMVKey(void)
 295:src/TestCfg.c **** {
 296:src/TestCfg.c ****   BYTE i, room_size;
 297:src/TestCfg.c ****   const KEY_ROOM *key_room;
 298:src/TestCfg.c **** 
 299:src/TestCfg.c ****   ClrEMVKey();
 300:src/TestCfg.c ****   room_size = KEY_ROOM_SIZE;
 301:src/TestCfg.c ****   key_room  = KKeyRoom;
 302:src/TestCfg.c **** 
 303:src/TestCfg.c ****   for (i = 0; i < room_size; ++i) {
 304:src/TestCfg.c ****     memcpy(gGDS->s_EMVIn.bMsg, &key_room[i], sizeof(KEY_ROOM));
 305:src/TestCfg.c ****     gGDS->s_EMVIn.wLen = sizeof(KEY_ROOM);
 306:src/TestCfg.c ****     DoSetup(IOCMD_KEY_LOADING);  // Key Loading
 307:src/TestCfg.c ****   }
 308:src/TestCfg.c **** }
 309:src/TestCfg.c **** //*****************************************************************************
 310:src/TestCfg.c **** //  Function        : EMVDLLSetup
 311:src/TestCfg.c **** //  Description     : Setup EMVDLL
 312:src/TestCfg.c **** //  Input           : aConfirm;       // TRUE => Prompt for confirm & set IFNSN
 313:src/TestCfg.c **** //  Return          : N/A
 314:src/TestCfg.c **** //  Note            :
 315:src/TestCfg.c **** //  Globals Changed : N/A
 316:src/TestCfg.c **** //*****************************************************************************
 317:src/TestCfg.c **** void LoadEMVCfg(void)
ARM GAS  C:\Users\AHMED~1.ELE\AppData\Local\Temp\ccDs54C0.s 			page 9


 318:src/TestCfg.c **** {
 319:src/TestCfg.c ****   BYTE i, max_aid;
 320:src/TestCfg.c **** 
 321:src/TestCfg.c ****   max_aid = MAX_AID_SUPPORT;
 322:src/TestCfg.c ****   ClrEMVParam();
 323:src/TestCfg.c ****   //DoSetup(IOCMD_CLR_AID); // Clear AID parameters
 324:src/TestCfg.c ****   gEMVTestCfg.cConfig = 0;
 325:src/TestCfg.c ****   for (i = 0; i < max_aid; ++i) {
 326:src/TestCfg.c ****     memcpy(gGDS->s_EMVIn.bMsg, &KApplCfg[gEMVTestCfg.cConfig][i], sizeof(APP_CFG));
 327:src/TestCfg.c ****     gGDS->s_EMVIn.wLen = sizeof(APP_CFG);
 328:src/TestCfg.c ****     DoSetup(IOCMD_LOAD_AID);  // Load AID parameters
 329:src/TestCfg.c ****   }
 330:src/TestCfg.c ****   gGDS->s_EMVIn.wLen = 0;
 331:src/TestCfg.c ****   DoSetup(IOCMD_CLOSE_LOAD);  // End AID parameter load
 332:src/TestCfg.c **** }
 333:src/TestCfg.c **** //*****************************************************************************
 334:src/TestCfg.c **** //  Function        : ExtPPadSetup
 335:src/TestCfg.c **** //  Description     : Setup EMVDLL to use External PPad for PIN input.
 336:src/TestCfg.c **** //  Input           : N/A
 337:src/TestCfg.c **** //  Return          : N/A
 338:src/TestCfg.c **** //  Note            :
 339:src/TestCfg.c **** //  Globals Changed : N/A
 340:src/TestCfg.c **** //*****************************************************************************
 341:src/TestCfg.c **** void ExtPPadSetup(void)
 342:src/TestCfg.c **** {
 343:src/TestCfg.c ****   struct TERM_DATA term_data;
 344:src/TestCfg.c ****   BYTE   pinpad;
 345:src/TestCfg.c **** 
 346:src/TestCfg.c ****   pinpad = 0;  // default disable
 347:src/TestCfg.c ****   if (APM_GetTermData(&term_data)) {
 348:src/TestCfg.c ****     if (term_data.b_ppad_port!=0) {
 349:src/TestCfg.c ****       pinpad = MIDWARE_ID;
 350:src/TestCfg.c ****     }
 351:src/TestCfg.c ****   }
 352:src/TestCfg.c ****   gGDS->s_EMVIn.wLen = 3;
 353:src/TestCfg.c ****   gGDS->s_EMVIn.bMsg[0] = pinpad;
 354:src/TestCfg.c ****   gGDS->s_EMVIn.bMsg[1] = SCHNLGETPINMW;
 355:src/TestCfg.c ****   gGDS->s_EMVIn.bMsg[2] = MW_PIN_BOC;   // Use PP300 default get pin mode
 356:src/TestCfg.c ****   DoSetup(IOCMD_SET_PINPAD);
 357:src/TestCfg.c **** }
 358:src/TestCfg.c **** //*****************************************************************************
 359:src/TestCfg.c **** //  Function        : DoSetup
 360:src/TestCfg.c **** //  Description     : Send the setup command to EMV Kernel.
 361:src/TestCfg.c **** //  Input           : aCmd;             // Setup Command
 362:src/TestCfg.c **** //  Return          : N/A
 363:src/TestCfg.c **** //  Note            :
 364:src/TestCfg.c **** //  Globals Changed : N/A
 365:src/TestCfg.c **** //*****************************************************************************
 366:src/TestCfg.c **** static void DoCTLSetup(DWORD aCmd)
 367:src/TestCfg.c **** {
 137              		.loc 1 367 0
 138              		.cfi_startproc
 139              		@ args = 0, pretend = 0, frame = 0
 140              		@ frame_needed = 0, uses_anonymous_args = 0
 141              	.LVL11:
 142 0000 37B5     		push	{r0, r1, r2, r4, r5, lr}
 143              		.cfi_def_cfa_offset 24
ARM GAS  C:\Users\AHMED~1.ELE\AppData\Local\Temp\ccDs54C0.s 			page 10


 144              		.cfi_offset 4, -12
 145              		.cfi_offset 5, -8
 146              		.cfi_offset 14, -4
 368:src/TestCfg.c ****   if (emvclSetup(aCmd,  &gGDS->s_CTLIn, &gGDS->s_CTLOut) == FALSE) {
 147              		.loc 1 368 0
 148 0002 0E4C     		ldr	r4, .L11
 367:src/TestCfg.c ****   if (emvclSetup(aCmd,  &gGDS->s_CTLIn, &gGDS->s_CTLOut) == FALSE) {
 149              		.loc 1 367 0
 150 0004 0546     		mov	r5, r0
 151              		.loc 1 368 0
 152 0006 2368     		ldr	r3, [r4]
 153 0008 6420     		movs	r0, #100
 154              	.LVL12:
 155 000a 03F55E53 		add	r3, r3, #14208
 156 000e 03F11802 		add	r2, r3, #24
 157 0012 0021     		movs	r1, #0
 158 0014 0092     		str	r2, [sp]
 159 0016 1033     		adds	r3, r3, #16
 160 0018 2A46     		mov	r2, r5
 161 001a FFF7FEFF 		bl	lib_app_call
 162              	.LVL13:
 163 001e C0B2     		uxtb	r0, r0
 164 0020 50B9     		cbnz	r0, .L8
 165              	.LVL14:
 166              	.LBB10:
 167              	.LBB11:
 369:src/TestCfg.c ****     if (aCmd != CLCMD_READ_AIDIDX) {
 168              		.loc 1 369 0
 169 0022 092D     		cmp	r5, #9
 170 0024 04D0     		beq	.L10
 171              	.LBE11:
 172              	.LBE10:
 370:src/TestCfg.c ****       CTLFatal();
 371:src/TestCfg.c ****     }
 372:src/TestCfg.c ****     else
 373:src/TestCfg.c ****       gGDS->s_CTLOut.wLen = 0;
 374:src/TestCfg.c ****   }
 375:src/TestCfg.c **** }
 173              		.loc 1 375 0
 174 0026 03B0     		add	sp, sp, #12
 175              		.cfi_remember_state
 176              		.cfi_def_cfa_offset 12
 177              		@ sp needed
 178 0028 BDE83040 		pop	{r4, r5, lr}
 179              		.cfi_restore 14
 180              		.cfi_restore 5
 181              		.cfi_restore 4
 182              		.cfi_def_cfa_offset 0
 183              	.LVL15:
 184              	.LBB13:
 185              	.LBB12:
 370:src/TestCfg.c ****       CTLFatal();
 186              		.loc 1 370 0
 187 002c FFF7FEBF 		b	CTLFatal
 188              	.LVL16:
 189              	.L10:
 190              		.cfi_restore_state
ARM GAS  C:\Users\AHMED~1.ELE\AppData\Local\Temp\ccDs54C0.s 			page 11


 373:src/TestCfg.c ****   }
 191              		.loc 1 373 0
 192 0030 2368     		ldr	r3, [r4]
 193 0032 03F55E53 		add	r3, r3, #14208
 194 0036 1883     		strh	r0, [r3, #24]	@ movhi
 195              	.LVL17:
 196              	.L8:
 197              	.LBE12:
 198              	.LBE13:
 199              		.loc 1 375 0
 200 0038 03B0     		add	sp, sp, #12
 201              		.cfi_def_cfa_offset 12
 202              		@ sp needed
 203 003a 30BD     		pop	{r4, r5, pc}
 204              	.LVL18:
 205              	.L12:
 206              		.align	2
 207              	.L11:
 208 003c 00000000 		.word	gGDS
 209              		.cfi_endproc
 210              	.LFE12:
 211              		.size	DoCTLSetup, .-DoCTLSetup
 212              		.section	.text.DebugAutoRun,"ax",%progbits
 213              		.align	1
 214              		.global	DebugAutoRun
 215              		.thumb
 216              		.thumb_func
 217              		.type	DebugAutoRun, %function
 218              	DebugAutoRun:
 219              	.LFB0:
 161:src/TestCfg.c ****   return bDebugAuto;
 220              		.loc 1 161 0
 221              		.cfi_startproc
 222              		@ args = 0, pretend = 0, frame = 0
 223              		@ frame_needed = 0, uses_anonymous_args = 0
 224              		@ link register save eliminated.
 163:src/TestCfg.c **** //*****************************************************************************
 225              		.loc 1 163 0
 226 0000 0020     		movs	r0, #0
 227 0002 7047     		bx	lr
 228              		.cfi_endproc
 229              	.LFE0:
 230              		.size	DebugAutoRun, .-DebugAutoRun
 231              		.section	.text.GetAutoTrans,"ax",%progbits
 232              		.align	1
 233              		.global	GetAutoTrans
 234              		.thumb
 235              		.thumb_func
 236              		.type	GetAutoTrans, %function
 237              	GetAutoTrans:
 238              	.LFB1:
 173:src/TestCfg.c ****   return iDebugAutoTrans;
 239              		.loc 1 173 0
 240              		.cfi_startproc
 241              		@ args = 0, pretend = 0, frame = 0
 242              		@ frame_needed = 0, uses_anonymous_args = 0
 243              		@ link register save eliminated.
ARM GAS  C:\Users\AHMED~1.ELE\AppData\Local\Temp\ccDs54C0.s 			page 12


 175:src/TestCfg.c **** //*****************************************************************************
 244              		.loc 1 175 0
 245 0000 0020     		movs	r0, #0
 246 0002 7047     		bx	lr
 247              		.cfi_endproc
 248              	.LFE1:
 249              		.size	GetAutoTrans, .-GetAutoTrans
 250              		.section	.text.GetAutoAmount,"ax",%progbits
 251              		.align	1
 252              		.global	GetAutoAmount
 253              		.thumb
 254              		.thumb_func
 255              		.type	GetAutoAmount, %function
 256              	GetAutoAmount:
 257              	.LFB2:
 185:src/TestCfg.c ****   dDebugAutoAmt++;
 258              		.loc 1 185 0
 259              		.cfi_startproc
 260              		@ args = 0, pretend = 0, frame = 0
 261              		@ frame_needed = 0, uses_anonymous_args = 0
 262              		@ link register save eliminated.
 186:src/TestCfg.c ****   return dDebugAutoAmt;
 263              		.loc 1 186 0
 264 0000 024B     		ldr	r3, .L16
 265 0002 1868     		ldr	r0, [r3]
 266 0004 0130     		adds	r0, r0, #1
 267 0006 1860     		str	r0, [r3]
 188:src/TestCfg.c **** //*****************************************************************************
 268              		.loc 1 188 0
 269 0008 7047     		bx	lr
 270              	.L17:
 271 000a 00BF     		.align	2
 272              	.L16:
 273 000c 00000000 		.word	.LANCHOR0
 274              		.cfi_endproc
 275              	.LFE2:
 276              		.size	GetAutoAmount, .-GetAutoAmount
 277              		.section	.text.GetAutoPin,"ax",%progbits
 278              		.align	1
 279              		.global	GetAutoPin
 280              		.thumb
 281              		.thumb_func
 282              		.type	GetAutoPin, %function
 283              	GetAutoPin:
 284              	.LFB3:
 198:src/TestCfg.c ****   dDebugAutoPin++;
 285              		.loc 1 198 0
 286              		.cfi_startproc
 287              		@ args = 0, pretend = 0, frame = 0
 288              		@ frame_needed = 0, uses_anonymous_args = 0
 289              		@ link register save eliminated.
 199:src/TestCfg.c ****   return dDebugAutoPin;
 290              		.loc 1 199 0
 291 0000 024B     		ldr	r3, .L19
 292 0002 5868     		ldr	r0, [r3, #4]
 293 0004 0130     		adds	r0, r0, #1
 294 0006 5860     		str	r0, [r3, #4]
ARM GAS  C:\Users\AHMED~1.ELE\AppData\Local\Temp\ccDs54C0.s 			page 13


 201:src/TestCfg.c **** //*****************************************************************************
 295              		.loc 1 201 0
 296 0008 7047     		bx	lr
 297              	.L20:
 298 000a 00BF     		.align	2
 299              	.L19:
 300 000c 00000000 		.word	.LANCHOR0
 301              		.cfi_endproc
 302              	.LFE3:
 303              		.size	GetAutoPin, .-GetAutoPin
 304              		.section	.text.DebugEnd,"ax",%progbits
 305              		.align	1
 306              		.global	DebugEnd
 307              		.thumb
 308              		.thumb_func
 309              		.type	DebugEnd, %function
 310              	DebugEnd:
 311              	.LFB4:
 211:src/TestCfg.c ****   return (dDebugMaxAmt <= dDebugAutoAmt)?TRUE:FALSE;
 312              		.loc 1 211 0
 313              		.cfi_startproc
 314              		@ args = 0, pretend = 0, frame = 0
 315              		@ frame_needed = 0, uses_anonymous_args = 0
 316              		@ link register save eliminated.
 213:src/TestCfg.c **** //*****************************************************************************
 317              		.loc 1 213 0
 318 0000 0120     		movs	r0, #1
 319 0002 7047     		bx	lr
 320              		.cfi_endproc
 321              	.LFE4:
 322              		.size	DebugEnd, .-DebugEnd
 323              		.section	.text.LoadEMVKey,"ax",%progbits
 324              		.align	1
 325              		.global	LoadEMVKey
 326              		.thumb
 327              		.thumb_func
 328              		.type	LoadEMVKey, %function
 329              	LoadEMVKey:
 330              	.LFB9:
 295:src/TestCfg.c ****   BYTE i, room_size;
 331              		.loc 1 295 0
 332              		.cfi_startproc
 333              		@ args = 0, pretend = 0, frame = 0
 334              		@ frame_needed = 0, uses_anonymous_args = 0
 335 0000 73B5     		push	{r0, r1, r4, r5, r6, lr}
 336              		.cfi_def_cfa_offset 24
 337              		.cfi_offset 4, -16
 338              		.cfi_offset 5, -12
 339              		.cfi_offset 6, -8
 340              		.cfi_offset 14, -4
 341              	.LBB16:
 342              	.LBB17:
 257:src/TestCfg.c ****     return;
 343              		.loc 1 257 0
 344 0002 0E20     		movs	r0, #14
 345 0004 FFF7FEFF 		bl	KernelReady
 346              	.LVL19:
ARM GAS  C:\Users\AHMED~1.ELE\AppData\Local\Temp\ccDs54C0.s 			page 14


 347 0008 1A4D     		ldr	r5, .L28
 348 000a C8B1     		cbz	r0, .L24
 260:src/TestCfg.c ****   gGDS->s_EMVIn.wLen = 6;
 349              		.loc 1 260 0
 350 000c 2B68     		ldr	r3, [r5]
 351 000e 0624     		movs	r4, #6
 352 0010 03F55E53 		add	r3, r3, #14208
 353 0014 0021     		movs	r1, #0
 354 0016 5868     		ldr	r0, [r3, #4]
 355 0018 2246     		mov	r2, r4
 356 001a FFF7FEFF 		bl	memset
 357              	.LVL20:
 261:src/TestCfg.c ****   if (EMV_DllSetup(IOCMD_KEY_LOADING, &gGDS->s_EMVIn, &gGDS->s_EMVOut) == FALSE)     // clear all k
 358              		.loc 1 261 0
 359 001e 2B68     		ldr	r3, [r5]
 262:src/TestCfg.c ****     EMVFatal();
 360              		.loc 1 262 0
 361 0020 0E20     		movs	r0, #14
 261:src/TestCfg.c ****   if (EMV_DllSetup(IOCMD_KEY_LOADING, &gGDS->s_EMVIn, &gGDS->s_EMVOut) == FALSE)     // clear all k
 362              		.loc 1 261 0
 363 0022 03F55E53 		add	r3, r3, #14208
 364 0026 1A46     		mov	r2, r3
 262:src/TestCfg.c ****     EMVFatal();
 365              		.loc 1 262 0
 366 0028 0021     		movs	r1, #0
 261:src/TestCfg.c ****   if (EMV_DllSetup(IOCMD_KEY_LOADING, &gGDS->s_EMVIn, &gGDS->s_EMVOut) == FALSE)     // clear all k
 367              		.loc 1 261 0
 368 002a 22F8084B 		strh	r4, [r2], #8	@ movhi
 262:src/TestCfg.c ****     EMVFatal();
 369              		.loc 1 262 0
 370 002e 0092     		str	r2, [sp]
 371 0030 0222     		movs	r2, #2
 372 0032 FFF7FEFF 		bl	lib_app_call
 373              	.LVL21:
 374 0036 10F0FF0F 		tst	r0, #255
 375 003a 01D1     		bne	.L24
 263:src/TestCfg.c **** }
 376              		.loc 1 263 0
 377 003c FFF7FEFF 		bl	EMVFatal
 378              	.LVL22:
 379              	.L24:
 380              	.LBE17:
 381              	.LBE16:
 295:src/TestCfg.c ****   BYTE i, room_size;
 382              		.loc 1 295 0 discriminator 1
 383 0040 0024     		movs	r4, #0
 384              	.LVL23:
 385              	.L26:
 304:src/TestCfg.c ****     gGDS->s_EMVIn.wLen = sizeof(KEY_ROOM);
 386              		.loc 1 304 0 discriminator 3
 387 0042 2B68     		ldr	r3, [r5]
 388 0044 0C49     		ldr	r1, .L28+4
 389 0046 03F55E53 		add	r3, r3, #14208
 390 004a 4FF48C76 		mov	r6, #280
 391 004e 2144     		add	r1, r1, r4
 392 0050 5868     		ldr	r0, [r3, #4]
 393 0052 3246     		mov	r2, r6
ARM GAS  C:\Users\AHMED~1.ELE\AppData\Local\Temp\ccDs54C0.s 			page 15


 394 0054 FFF7FEFF 		bl	memcpy
 395              	.LVL24:
 305:src/TestCfg.c ****     DoSetup(IOCMD_KEY_LOADING);  // Key Loading
 396              		.loc 1 305 0 discriminator 3
 397 0058 2B68     		ldr	r3, [r5]
 306:src/TestCfg.c ****   }
 398              		.loc 1 306 0 discriminator 3
 399 005a 0220     		movs	r0, #2
 305:src/TestCfg.c ****     DoSetup(IOCMD_KEY_LOADING);  // Key Loading
 400              		.loc 1 305 0 discriminator 3
 401 005c 03F55E53 		add	r3, r3, #14208
 402 0060 3444     		add	r4, r4, r6
 403 0062 1E80     		strh	r6, [r3]	@ movhi
 306:src/TestCfg.c ****   }
 404              		.loc 1 306 0 discriminator 3
 405 0064 FFF7FEFF 		bl	DoSetup
 406              	.LVL25:
 303:src/TestCfg.c ****     memcpy(gGDS->s_EMVIn.bMsg, &key_room[i], sizeof(KEY_ROOM));
 407              		.loc 1 303 0 discriminator 3
 408 0068 40F60843 		movw	r3, #3080
 409 006c 9C42     		cmp	r4, r3
 410 006e E8D1     		bne	.L26
 308:src/TestCfg.c **** //*****************************************************************************
 411              		.loc 1 308 0
 412 0070 02B0     		add	sp, sp, #8
 413              		.cfi_def_cfa_offset 16
 414              		@ sp needed
 415 0072 70BD     		pop	{r4, r5, r6, pc}
 416              	.L29:
 417              		.align	2
 418              	.L28:
 419 0074 00000000 		.word	gGDS
 420 0078 00000000 		.word	KKeyRoom
 421              		.cfi_endproc
 422              	.LFE9:
 423              		.size	LoadEMVKey, .-LoadEMVKey
 424              		.section	.text.LoadEMVCfg,"ax",%progbits
 425              		.align	1
 426              		.global	LoadEMVCfg
 427              		.thumb
 428              		.thumb_func
 429              		.type	LoadEMVCfg, %function
 430              	LoadEMVCfg:
 431              	.LFB10:
 318:src/TestCfg.c ****   BYTE i, max_aid;
 432              		.loc 1 318 0
 433              		.cfi_startproc
 434              		@ args = 0, pretend = 0, frame = 0
 435              		@ frame_needed = 0, uses_anonymous_args = 0
 436              	.LVL26:
 437 0000 F7B5     		push	{r0, r1, r2, r4, r5, r6, r7, lr}
 438              		.cfi_def_cfa_offset 32
 439              		.cfi_offset 4, -20
 440              		.cfi_offset 5, -16
 441              		.cfi_offset 6, -12
 442              		.cfi_offset 7, -8
 443              		.cfi_offset 14, -4
ARM GAS  C:\Users\AHMED~1.ELE\AppData\Local\Temp\ccDs54C0.s 			page 16


 444              	.LBB20:
 445              	.LBB21:
 275:src/TestCfg.c ****     return;
 446              		.loc 1 275 0
 447 0002 0E20     		movs	r0, #14
 448 0004 FFF7FEFF 		bl	KernelReady
 449              	.LVL27:
 450 0008 284D     		ldr	r5, .L38
 451 000a 20B3     		cbz	r0, .L31
 278:src/TestCfg.c ****   gGDS->s_EMVIn.wLen = 8;
 452              		.loc 1 278 0
 453 000c 2B68     		ldr	r3, [r5]
 454 000e 0221     		movs	r1, #2
 455 0010 03F55E53 		add	r3, r3, #14208
 456 0014 B920     		movs	r0, #185
 457 0016 5A68     		ldr	r2, [r3, #4]
 458 0018 FFF7FEFF 		bl	sys_func2
 459              	.LVL28:
 279:src/TestCfg.c **** 
 460              		.loc 1 279 0
 461 001c 2B68     		ldr	r3, [r5]
 462 001e 0821     		movs	r1, #8
 463 0020 03F55E53 		add	r3, r3, #14208
 464 0024 1A46     		mov	r2, r3
 281:src/TestCfg.c ****     EMVFatal();
 465              		.loc 1 281 0
 466 0026 0E20     		movs	r0, #14
 279:src/TestCfg.c **** 
 467              		.loc 1 279 0
 468 0028 22F8081B 		strh	r1, [r2], #8	@ movhi
 281:src/TestCfg.c ****     EMVFatal();
 469              		.loc 1 281 0
 470 002c 0021     		movs	r1, #0
 471 002e 0092     		str	r2, [sp]
 472 0030 0122     		movs	r2, #1
 473 0032 FFF7FEFF 		bl	lib_app_call
 474              	.LVL29:
 475 0036 10F0FF0F 		tst	r0, #255
 476 003a 01D1     		bne	.L32
 282:src/TestCfg.c **** 
 477              		.loc 1 282 0
 478 003c FFF7FEFF 		bl	EMVFatal
 479              	.LVL30:
 480              	.L32:
 284:src/TestCfg.c **** }
 481              		.loc 1 284 0
 482 0040 2B68     		ldr	r3, [r5]
 483 0042 0E20     		movs	r0, #14
 484 0044 03F55E53 		add	r3, r3, #14208
 485 0048 03F10802 		add	r2, r3, #8
 486 004c 0021     		movs	r1, #0
 487 004e 0092     		str	r2, [sp]
 488 0050 0322     		movs	r2, #3
 489 0052 FFF7FEFF 		bl	lib_app_call
 490              	.LVL31:
 491              	.L31:
 492              	.LBE21:
ARM GAS  C:\Users\AHMED~1.ELE\AppData\Local\Temp\ccDs54C0.s 			page 17


 493              	.LBE20:
 324:src/TestCfg.c ****   for (i = 0; i < max_aid; ++i) {
 494              		.loc 1 324 0
 495 0056 164E     		ldr	r6, .L38+4
 496 0058 0024     		movs	r4, #0
 497 005a 3470     		strb	r4, [r6]
 498              	.LVL32:
 499              	.L33:
 326:src/TestCfg.c ****     gGDS->s_EMVIn.wLen = sizeof(APP_CFG);
 500              		.loc 1 326 0 discriminator 3
 501 005c 2B68     		ldr	r3, [r5]
 502 005e 3178     		ldrb	r1, [r6]	@ zero_extendqisi2
 503 0060 03F55E52 		add	r2, r3, #14208
 504 0064 40F67323 		movw	r3, #2675
 505 0068 40F21727 		movw	r7, #535
 506 006c 4B43     		muls	r3, r1, r3
 507 006e 1149     		ldr	r1, .L38+8
 508 0070 07FB0433 		mla	r3, r7, r4, r3
 509 0074 5068     		ldr	r0, [r2, #4]
 510 0076 1944     		add	r1, r1, r3
 511 0078 3A46     		mov	r2, r7
 512 007a FFF7FEFF 		bl	memcpy
 513              	.LVL33:
 327:src/TestCfg.c ****     DoSetup(IOCMD_LOAD_AID);  // Load AID parameters
 514              		.loc 1 327 0 discriminator 3
 515 007e 2B68     		ldr	r3, [r5]
 328:src/TestCfg.c ****   }
 516              		.loc 1 328 0 discriminator 3
 517 0080 0420     		movs	r0, #4
 327:src/TestCfg.c ****     DoSetup(IOCMD_LOAD_AID);  // Load AID parameters
 518              		.loc 1 327 0 discriminator 3
 519 0082 03F55E53 		add	r3, r3, #14208
 520 0086 0134     		adds	r4, r4, #1
 521              	.LVL34:
 522 0088 1F80     		strh	r7, [r3]	@ movhi
 328:src/TestCfg.c ****   }
 523              		.loc 1 328 0 discriminator 3
 524 008a FFF7FEFF 		bl	DoSetup
 525              	.LVL35:
 325:src/TestCfg.c ****     memcpy(gGDS->s_EMVIn.bMsg, &KApplCfg[gEMVTestCfg.cConfig][i], sizeof(APP_CFG));
 526              		.loc 1 325 0 discriminator 3
 527 008e 052C     		cmp	r4, #5
 528 0090 E4D1     		bne	.L33
 330:src/TestCfg.c ****   DoSetup(IOCMD_CLOSE_LOAD);  // End AID parameter load
 529              		.loc 1 330 0
 530 0092 064B     		ldr	r3, .L38
 531 0094 0022     		movs	r2, #0
 532 0096 1B68     		ldr	r3, [r3]
 331:src/TestCfg.c **** }
 533              		.loc 1 331 0
 534 0098 2046     		mov	r0, r4
 330:src/TestCfg.c ****   DoSetup(IOCMD_CLOSE_LOAD);  // End AID parameter load
 535              		.loc 1 330 0
 536 009a 03F55E53 		add	r3, r3, #14208
 537 009e 1A80     		strh	r2, [r3]	@ movhi
 332:src/TestCfg.c **** //*****************************************************************************
 538              		.loc 1 332 0
ARM GAS  C:\Users\AHMED~1.ELE\AppData\Local\Temp\ccDs54C0.s 			page 18


 539 00a0 03B0     		add	sp, sp, #12
 540              		.cfi_def_cfa_offset 20
 541              		@ sp needed
 542 00a2 BDE8F040 		pop	{r4, r5, r6, r7, lr}
 543              		.cfi_restore 14
 544              		.cfi_restore 7
 545              		.cfi_restore 6
 546              		.cfi_restore 5
 547              		.cfi_restore 4
 548              		.cfi_def_cfa_offset 0
 331:src/TestCfg.c **** }
 549              		.loc 1 331 0
 550 00a6 FFF7FEBF 		b	DoSetup
 551              	.LVL36:
 552              	.L39:
 553 00aa 00BF     		.align	2
 554              	.L38:
 555 00ac 00000000 		.word	gGDS
 556 00b0 00000000 		.word	gEMVTestCfg
 557 00b4 00000000 		.word	KApplCfg
 558              		.cfi_endproc
 559              	.LFE10:
 560              		.size	LoadEMVCfg, .-LoadEMVCfg
 561              		.section	.text.ExtPPadSetup,"ax",%progbits
 562              		.align	1
 563              		.global	ExtPPadSetup
 564              		.thumb
 565              		.thumb_func
 566              		.type	ExtPPadSetup, %function
 567              	ExtPPadSetup:
 568              	.LFB11:
 342:src/TestCfg.c ****   struct TERM_DATA term_data;
 569              		.loc 1 342 0
 570              		.cfi_startproc
 571              		@ args = 0, pretend = 0, frame = 368
 572              		@ frame_needed = 0, uses_anonymous_args = 0
 573              	.LVL37:
 574 0000 00B5     		push	{lr}
 575              		.cfi_def_cfa_offset 4
 576              		.cfi_offset 14, -4
 347:src/TestCfg.c ****     if (term_data.b_ppad_port!=0) {
 577              		.loc 1 347 0
 578 0002 0023     		movs	r3, #0
 342:src/TestCfg.c ****   struct TERM_DATA term_data;
 579              		.loc 1 342 0
 580 0004 DFB0     		sub	sp, sp, #380
 581              		.cfi_def_cfa_offset 384
 347:src/TestCfg.c ****     if (term_data.b_ppad_port!=0) {
 582              		.loc 1 347 0
 583 0006 1020     		movs	r0, #16
 584 0008 0093     		str	r3, [sp]
 585 000a 0E21     		movs	r1, #14
 586 000c 02AA     		add	r2, sp, #8
 587 000e FFF7FEFF 		bl	lib_app_call
 588              	.LVL38:
 589 0012 C0B2     		uxtb	r0, r0
 590 0014 28B1     		cbz	r0, .L41
ARM GAS  C:\Users\AHMED~1.ELE\AppData\Local\Temp\ccDs54C0.s 			page 19


 348:src/TestCfg.c ****       pinpad = MIDWARE_ID;
 591              		.loc 1 348 0
 592 0016 9DF85800 		ldrb	r0, [sp, #88]	@ zero_extendqisi2
 349:src/TestCfg.c ****     }
 593              		.loc 1 349 0
 594 001a 0028     		cmp	r0, #0
 595 001c 14BF     		ite	ne
 596 001e 0F20     		movne	r0, #15
 597 0020 0020     		moveq	r0, #0
 598              	.L41:
 599              	.LVL39:
 352:src/TestCfg.c ****   gGDS->s_EMVIn.bMsg[0] = pinpad;
 600              		.loc 1 352 0
 601 0022 0D4A     		ldr	r2, .L44
 602 0024 0321     		movs	r1, #3
 603 0026 1368     		ldr	r3, [r2]
 604 0028 03F55E53 		add	r3, r3, #14208
 605 002c 1980     		strh	r1, [r3]	@ movhi
 353:src/TestCfg.c ****   gGDS->s_EMVIn.bMsg[1] = SCHNLGETPINMW;
 606              		.loc 1 353 0
 607 002e 5B68     		ldr	r3, [r3, #4]
 354:src/TestCfg.c ****   gGDS->s_EMVIn.bMsg[2] = MW_PIN_BOC;   // Use PP300 default get pin mode
 608              		.loc 1 354 0
 609 0030 1E21     		movs	r1, #30
 353:src/TestCfg.c ****   gGDS->s_EMVIn.bMsg[1] = SCHNLGETPINMW;
 610              		.loc 1 353 0
 611 0032 1870     		strb	r0, [r3]
 354:src/TestCfg.c ****   gGDS->s_EMVIn.bMsg[2] = MW_PIN_BOC;   // Use PP300 default get pin mode
 612              		.loc 1 354 0
 613 0034 1368     		ldr	r3, [r2]
 356:src/TestCfg.c **** }
 614              		.loc 1 356 0
 615 0036 1420     		movs	r0, #20
 616              	.LVL40:
 354:src/TestCfg.c ****   gGDS->s_EMVIn.bMsg[2] = MW_PIN_BOC;   // Use PP300 default get pin mode
 617              		.loc 1 354 0
 618 0038 03F55E53 		add	r3, r3, #14208
 619 003c 5B68     		ldr	r3, [r3, #4]
 620 003e 5970     		strb	r1, [r3, #1]
 355:src/TestCfg.c ****   DoSetup(IOCMD_SET_PINPAD);
 621              		.loc 1 355 0
 622 0040 1368     		ldr	r3, [r2]
 623 0042 6022     		movs	r2, #96
 624 0044 03F55E53 		add	r3, r3, #14208
 625 0048 5B68     		ldr	r3, [r3, #4]
 626 004a 9A70     		strb	r2, [r3, #2]
 356:src/TestCfg.c **** }
 627              		.loc 1 356 0
 628 004c FFF7FEFF 		bl	DoSetup
 629              	.LVL41:
 357:src/TestCfg.c **** //*****************************************************************************
 630              		.loc 1 357 0
 631 0050 5FB0     		add	sp, sp, #380
 632              		.cfi_def_cfa_offset 4
 633              		@ sp needed
 634 0052 5DF804FB 		ldr	pc, [sp], #4
 635              	.L45:
ARM GAS  C:\Users\AHMED~1.ELE\AppData\Local\Temp\ccDs54C0.s 			page 20


 636 0056 00BF     		.align	2
 637              	.L44:
 638 0058 00000000 		.word	gGDS
 639              		.cfi_endproc
 640              	.LFE11:
 641              		.size	ExtPPadSetup, .-ExtPPadSetup
 642              		.section	.text.LoadCTLKey,"ax",%progbits
 643              		.align	1
 644              		.global	LoadCTLKey
 645              		.thumb
 646              		.thumb_func
 647              		.type	LoadCTLKey, %function
 648              	LoadCTLKey:
 649              	.LFB15:
 376:src/TestCfg.c **** //*****************************************************************************
 377:src/TestCfg.c **** //  Function        : ClrCTLKey
 378:src/TestCfg.c **** //  Description     : Clear All Contactless Keys.
 379:src/TestCfg.c **** //  Input           : N/A
 380:src/TestCfg.c **** //  Return          : N/A
 381:src/TestCfg.c **** //  Note            : N/A
 382:src/TestCfg.c **** //  Globals Changed : N/A
 383:src/TestCfg.c **** //*****************************************************************************
 384:src/TestCfg.c **** static void ClrCTLKey(void)
 385:src/TestCfg.c **** {
 386:src/TestCfg.c ****   if (!KernelReady(EMVCLDLL_ID))
 387:src/TestCfg.c ****     return;
 388:src/TestCfg.c **** 
 389:src/TestCfg.c ****   memset(gGDS->s_CTLIn.pbMsg, 0, 6);
 390:src/TestCfg.c ****   gGDS->s_CTLIn.wLen = 6;
 391:src/TestCfg.c ****   if (emvclSetup(CLCMD_KEY_LOADING, &gGDS->s_CTLIn, &gGDS->s_CTLOut) == FALSE)     // clear all key
 392:src/TestCfg.c ****     CTLFatal();
 393:src/TestCfg.c **** }
 394:src/TestCfg.c **** //*****************************************************************************
 395:src/TestCfg.c **** //  Function        : ClrCTLParam
 396:src/TestCfg.c **** //  Description     : Clear all Contactless dll's parameters.
 397:src/TestCfg.c **** //  Input           : N/A
 398:src/TestCfg.c **** //  Return          : N/A
 399:src/TestCfg.c **** //  Note            : N/A
 400:src/TestCfg.c **** //  Globals Changed : N/A
 401:src/TestCfg.c **** //*****************************************************************************
 402:src/TestCfg.c **** static void ClrCTLParam(void)
 403:src/TestCfg.c **** {
 404:src/TestCfg.c ****   if (!KernelReady(EMVCLDLL_ID))
 405:src/TestCfg.c ****     return;
 406:src/TestCfg.c **** 
 407:src/TestCfg.c ****   os_config_read(K_CF_SerialNo, gGDS->s_CTLIn.pbMsg);
 408:src/TestCfg.c ****   gGDS->s_CTLIn.wLen = 8;
 409:src/TestCfg.c **** 
 410:src/TestCfg.c ****   if (emvclSetup(CLCMD_IFDSN_RW, &gGDS->s_CTLIn, &gGDS->s_CTLOut) == FALSE) // set IFDSN
 411:src/TestCfg.c ****     CTLFatal();
 412:src/TestCfg.c **** 
 413:src/TestCfg.c ****   emvclSetup(CLCMD_CLR_AID, &gGDS->s_CTLIn, &gGDS->s_CTLOut); // clear AID parameters
 414:src/TestCfg.c **** }
 415:src/TestCfg.c **** //*****************************************************************************
 416:src/TestCfg.c **** //  Function        : LoadCTLKey
 417:src/TestCfg.c **** //  Description     : Load Debug Contactless keys.
 418:src/TestCfg.c **** //  Input           : N/A
ARM GAS  C:\Users\AHMED~1.ELE\AppData\Local\Temp\ccDs54C0.s 			page 21


 419:src/TestCfg.c **** //  Return          : N/A
 420:src/TestCfg.c **** //  Note            : N/A
 421:src/TestCfg.c **** //  Globals Changed : N/A
 422:src/TestCfg.c **** //*****************************************************************************
 423:src/TestCfg.c **** void LoadCTLKey(void)
 424:src/TestCfg.c **** {
 650              		.loc 1 424 0
 651              		.cfi_startproc
 652              		@ args = 0, pretend = 0, frame = 0
 653              		@ frame_needed = 0, uses_anonymous_args = 0
 654 0000 73B5     		push	{r0, r1, r4, r5, r6, lr}
 655              		.cfi_def_cfa_offset 24
 656              		.cfi_offset 4, -16
 657              		.cfi_offset 5, -12
 658              		.cfi_offset 6, -8
 659              		.cfi_offset 14, -4
 660              	.LBB24:
 661              	.LBB25:
 386:src/TestCfg.c ****     return;
 662              		.loc 1 386 0
 663 0002 6420     		movs	r0, #100
 664 0004 FFF7FEFF 		bl	KernelReady
 665              	.LVL42:
 666 0008 1B4D     		ldr	r5, .L52
 667 000a D0B1     		cbz	r0, .L48
 389:src/TestCfg.c ****   gGDS->s_CTLIn.wLen = 6;
 668              		.loc 1 389 0
 669 000c 2B68     		ldr	r3, [r5]
 670 000e 0624     		movs	r4, #6
 671 0010 03F55E53 		add	r3, r3, #14208
 672 0014 0021     		movs	r1, #0
 673 0016 5869     		ldr	r0, [r3, #20]
 674 0018 2246     		mov	r2, r4
 675 001a FFF7FEFF 		bl	memset
 676              	.LVL43:
 390:src/TestCfg.c ****   if (emvclSetup(CLCMD_KEY_LOADING, &gGDS->s_CTLIn, &gGDS->s_CTLOut) == FALSE)     // clear all key
 677              		.loc 1 390 0
 678 001e 2B68     		ldr	r3, [r5]
 391:src/TestCfg.c ****     CTLFatal();
 679              		.loc 1 391 0
 680 0020 6420     		movs	r0, #100
 390:src/TestCfg.c ****   if (emvclSetup(CLCMD_KEY_LOADING, &gGDS->s_CTLIn, &gGDS->s_CTLOut) == FALSE)     // clear all key
 681              		.loc 1 390 0
 682 0022 03F55E53 		add	r3, r3, #14208
 391:src/TestCfg.c ****     CTLFatal();
 683              		.loc 1 391 0
 684 0026 03F11802 		add	r2, r3, #24
 390:src/TestCfg.c ****   if (emvclSetup(CLCMD_KEY_LOADING, &gGDS->s_CTLIn, &gGDS->s_CTLOut) == FALSE)     // clear all key
 685              		.loc 1 390 0
 686 002a 1C82     		strh	r4, [r3, #16]	@ movhi
 391:src/TestCfg.c ****     CTLFatal();
 687              		.loc 1 391 0
 688 002c 0021     		movs	r1, #0
 689 002e 0092     		str	r2, [sp]
 690 0030 1033     		adds	r3, r3, #16
 691 0032 0222     		movs	r2, #2
 692 0034 FFF7FEFF 		bl	lib_app_call
ARM GAS  C:\Users\AHMED~1.ELE\AppData\Local\Temp\ccDs54C0.s 			page 22


 693              	.LVL44:
 694 0038 10F0FF0F 		tst	r0, #255
 695 003c 01D1     		bne	.L48
 392:src/TestCfg.c **** }
 696              		.loc 1 392 0
 697 003e FFF7FEFF 		bl	CTLFatal
 698              	.LVL45:
 699              	.L48:
 700              	.LBE25:
 701              	.LBE24:
 702              		.loc 1 424 0 discriminator 1
 703 0042 0024     		movs	r4, #0
 704              	.LVL46:
 705              	.L50:
 425:src/TestCfg.c ****   BYTE i, room_size;
 426:src/TestCfg.c ****   const CL_KEY_ROOM *key_room;
 427:src/TestCfg.c **** 
 428:src/TestCfg.c ****   ClrCTLKey();
 429:src/TestCfg.c ****   room_size = CTL_KEY_ROOM_SIZE;
 430:src/TestCfg.c ****   key_room  = KCtlKeyRoom;
 431:src/TestCfg.c **** 
 432:src/TestCfg.c ****   for (i = 0; i < room_size; ++i) {
 433:src/TestCfg.c ****     memcpy(gGDS->s_CTLIn.pbMsg, &key_room[i], sizeof(CL_KEY_ROOM));
 706              		.loc 1 433 0 discriminator 3
 707 0044 2B68     		ldr	r3, [r5]
 708 0046 0D49     		ldr	r1, .L52+4
 709 0048 03F55E53 		add	r3, r3, #14208
 710 004c 4FF48C76 		mov	r6, #280
 711 0050 2144     		add	r1, r1, r4
 712 0052 5869     		ldr	r0, [r3, #20]
 713 0054 3246     		mov	r2, r6
 714 0056 FFF7FEFF 		bl	memcpy
 715              	.LVL47:
 434:src/TestCfg.c ****     gGDS->s_CTLIn.wLen = sizeof(CL_KEY_ROOM);
 716              		.loc 1 434 0 discriminator 3
 717 005a 2B68     		ldr	r3, [r5]
 435:src/TestCfg.c ****     DoCTLSetup(CLCMD_KEY_LOADING);  // Key Loading
 718              		.loc 1 435 0 discriminator 3
 719 005c 0220     		movs	r0, #2
 434:src/TestCfg.c ****     gGDS->s_CTLIn.wLen = sizeof(CL_KEY_ROOM);
 720              		.loc 1 434 0 discriminator 3
 721 005e 03F55E53 		add	r3, r3, #14208
 722 0062 3444     		add	r4, r4, r6
 723 0064 1E82     		strh	r6, [r3, #16]	@ movhi
 724              		.loc 1 435 0 discriminator 3
 725 0066 FFF7FEFF 		bl	DoCTLSetup
 726              	.LVL48:
 432:src/TestCfg.c ****     memcpy(gGDS->s_CTLIn.pbMsg, &key_room[i], sizeof(CL_KEY_ROOM));
 727              		.loc 1 432 0 discriminator 3
 728 006a 41F29823 		movw	r3, #4760
 729 006e 9C42     		cmp	r4, r3
 730 0070 E8D1     		bne	.L50
 436:src/TestCfg.c ****   }
 437:src/TestCfg.c **** }
 731              		.loc 1 437 0
 732 0072 02B0     		add	sp, sp, #8
 733              		.cfi_def_cfa_offset 16
ARM GAS  C:\Users\AHMED~1.ELE\AppData\Local\Temp\ccDs54C0.s 			page 23


 734              		@ sp needed
 735 0074 70BD     		pop	{r4, r5, r6, pc}
 736              	.L53:
 737 0076 00BF     		.align	2
 738              	.L52:
 739 0078 00000000 		.word	gGDS
 740 007c 00000000 		.word	KCtlKeyRoom
 741              		.cfi_endproc
 742              	.LFE15:
 743              		.size	LoadCTLKey, .-LoadCTLKey
 744              		.section	.text.LoadCTLCfg,"ax",%progbits
 745              		.align	1
 746              		.global	LoadCTLCfg
 747              		.thumb
 748              		.thumb_func
 749              		.type	LoadCTLCfg, %function
 750              	LoadCTLCfg:
 751              	.LFB16:
 438:src/TestCfg.c **** //*****************************************************************************
 439:src/TestCfg.c **** //  Function        : LoadCTLCfg
 440:src/TestCfg.c **** //  Description     : Setup EMVCLDLL
 441:src/TestCfg.c **** //  Input           : N/A
 442:src/TestCfg.c **** //  Return          : N/A
 443:src/TestCfg.c **** //  Note            : N/A
 444:src/TestCfg.c **** //  Globals Changed : N/A
 445:src/TestCfg.c **** //*****************************************************************************
 446:src/TestCfg.c **** void LoadCTLCfg(void)
 447:src/TestCfg.c **** {
 752              		.loc 1 447 0
 753              		.cfi_startproc
 754              		@ args = 0, pretend = 0, frame = 0
 755              		@ frame_needed = 0, uses_anonymous_args = 0
 756              	.LVL49:
 757 0000 F7B5     		push	{r0, r1, r2, r4, r5, r6, r7, lr}
 758              		.cfi_def_cfa_offset 32
 759              		.cfi_offset 4, -20
 760              		.cfi_offset 5, -16
 761              		.cfi_offset 6, -12
 762              		.cfi_offset 7, -8
 763              		.cfi_offset 14, -4
 764              	.LBB28:
 765              	.LBB29:
 404:src/TestCfg.c ****     return;
 766              		.loc 1 404 0
 767 0002 6420     		movs	r0, #100
 768 0004 FFF7FEFF 		bl	KernelReady
 769              	.LVL50:
 770 0008 294D     		ldr	r5, .L62
 771 000a 30B3     		cbz	r0, .L55
 407:src/TestCfg.c ****   gGDS->s_CTLIn.wLen = 8;
 772              		.loc 1 407 0
 773 000c 2B68     		ldr	r3, [r5]
 774 000e 0221     		movs	r1, #2
 775 0010 03F55E53 		add	r3, r3, #14208
 776 0014 B920     		movs	r0, #185
 777 0016 5A69     		ldr	r2, [r3, #20]
 778 0018 FFF7FEFF 		bl	sys_func2
ARM GAS  C:\Users\AHMED~1.ELE\AppData\Local\Temp\ccDs54C0.s 			page 24


 779              	.LVL51:
 408:src/TestCfg.c **** 
 780              		.loc 1 408 0
 781 001c 2B68     		ldr	r3, [r5]
 782 001e 0822     		movs	r2, #8
 783 0020 03F55E53 		add	r3, r3, #14208
 410:src/TestCfg.c ****     CTLFatal();
 784              		.loc 1 410 0
 785 0024 6420     		movs	r0, #100
 408:src/TestCfg.c **** 
 786              		.loc 1 408 0
 787 0026 1A82     		strh	r2, [r3, #16]	@ movhi
 410:src/TestCfg.c ****     CTLFatal();
 788              		.loc 1 410 0
 789 0028 03F11802 		add	r2, r3, #24
 790 002c 0021     		movs	r1, #0
 791 002e 0092     		str	r2, [sp]
 792 0030 1033     		adds	r3, r3, #16
 793 0032 0122     		movs	r2, #1
 794 0034 FFF7FEFF 		bl	lib_app_call
 795              	.LVL52:
 796 0038 10F0FF0F 		tst	r0, #255
 797 003c 01D1     		bne	.L56
 411:src/TestCfg.c **** 
 798              		.loc 1 411 0
 799 003e FFF7FEFF 		bl	CTLFatal
 800              	.LVL53:
 801              	.L56:
 413:src/TestCfg.c **** }
 802              		.loc 1 413 0
 803 0042 2B68     		ldr	r3, [r5]
 804 0044 6420     		movs	r0, #100
 805 0046 03F55E53 		add	r3, r3, #14208
 806 004a 03F11802 		add	r2, r3, #24
 807 004e 0021     		movs	r1, #0
 808 0050 0092     		str	r2, [sp]
 809 0052 1033     		adds	r3, r3, #16
 810 0054 0322     		movs	r2, #3
 811 0056 FFF7FEFF 		bl	lib_app_call
 812              	.LVL54:
 813              	.L55:
 814              	.LBE29:
 815              	.LBE28:
 448:src/TestCfg.c ****   BYTE i, max_aid;
 449:src/TestCfg.c **** 
 450:src/TestCfg.c ****   max_aid = MAX_CTL_AID_SUPPORT;
 451:src/TestCfg.c ****   ClrCTLParam();
 452:src/TestCfg.c ****   //DoSetup(IOCMD_CLR_AID); // Clear AID parameters
 453:src/TestCfg.c ****   gEMVTestCfg.cConfig = 0;
 816              		.loc 1 453 0
 817 005a 164E     		ldr	r6, .L62+4
 818 005c 0024     		movs	r4, #0
 819 005e 3470     		strb	r4, [r6]
 820              	.LVL55:
 821              	.L57:
 454:src/TestCfg.c ****   for (i = 0; i < max_aid; ++i) {
 455:src/TestCfg.c ****     memcpy(gGDS->s_CTLIn.pbMsg, &KCtlApplCfg[gEMVTestCfg.cConfig][i], sizeof(CL_CFGP));
ARM GAS  C:\Users\AHMED~1.ELE\AppData\Local\Temp\ccDs54C0.s 			page 25


 822              		.loc 1 455 0 discriminator 3
 823 0060 2B68     		ldr	r3, [r5]
 824 0062 3178     		ldrb	r1, [r6]	@ zero_extendqisi2
 825 0064 03F55E52 		add	r2, r3, #14208
 826 0068 40F67323 		movw	r3, #2675
 827 006c 40F21727 		movw	r7, #535
 828 0070 4B43     		muls	r3, r1, r3
 829 0072 1149     		ldr	r1, .L62+8
 830 0074 07FB0433 		mla	r3, r7, r4, r3
 831 0078 5069     		ldr	r0, [r2, #20]
 832 007a 1944     		add	r1, r1, r3
 833 007c 3A46     		mov	r2, r7
 834 007e FFF7FEFF 		bl	memcpy
 835              	.LVL56:
 456:src/TestCfg.c ****     gGDS->s_CTLIn.wLen = sizeof(CL_CFGP);
 836              		.loc 1 456 0 discriminator 3
 837 0082 2B68     		ldr	r3, [r5]
 457:src/TestCfg.c ****     DoCTLSetup(CLCMD_LOAD_AID);  // Load AID parameters
 838              		.loc 1 457 0 discriminator 3
 839 0084 0420     		movs	r0, #4
 456:src/TestCfg.c ****     gGDS->s_CTLIn.wLen = sizeof(CL_CFGP);
 840              		.loc 1 456 0 discriminator 3
 841 0086 03F55E53 		add	r3, r3, #14208
 842 008a 0134     		adds	r4, r4, #1
 843              	.LVL57:
 844 008c 1F82     		strh	r7, [r3, #16]	@ movhi
 845              		.loc 1 457 0 discriminator 3
 846 008e FFF7FEFF 		bl	DoCTLSetup
 847              	.LVL58:
 454:src/TestCfg.c ****   for (i = 0; i < max_aid; ++i) {
 848              		.loc 1 454 0 discriminator 3
 849 0092 052C     		cmp	r4, #5
 850 0094 E4D1     		bne	.L57
 458:src/TestCfg.c ****   }
 459:src/TestCfg.c ****   gGDS->s_CTLIn.wLen = 0;
 851              		.loc 1 459 0
 852 0096 064B     		ldr	r3, .L62
 853 0098 0022     		movs	r2, #0
 854 009a 1B68     		ldr	r3, [r3]
 460:src/TestCfg.c ****   DoCTLSetup(CLCMD_CLOSE_LOAD);  // End AID parameter load
 855              		.loc 1 460 0
 856 009c 2046     		mov	r0, r4
 459:src/TestCfg.c ****   DoCTLSetup(CLCMD_CLOSE_LOAD);  // End AID parameter load
 857              		.loc 1 459 0
 858 009e 03F55E53 		add	r3, r3, #14208
 859 00a2 1A82     		strh	r2, [r3, #16]	@ movhi
 461:src/TestCfg.c **** }
 860              		.loc 1 461 0
 861 00a4 03B0     		add	sp, sp, #12
 862              		.cfi_def_cfa_offset 20
 863              		@ sp needed
 864 00a6 BDE8F040 		pop	{r4, r5, r6, r7, lr}
 865              		.cfi_restore 14
 866              		.cfi_restore 7
 867              		.cfi_restore 6
 868              		.cfi_restore 5
 869              		.cfi_restore 4
ARM GAS  C:\Users\AHMED~1.ELE\AppData\Local\Temp\ccDs54C0.s 			page 26


 870              		.cfi_def_cfa_offset 0
 460:src/TestCfg.c ****   DoCTLSetup(CLCMD_CLOSE_LOAD);  // End AID parameter load
 871              		.loc 1 460 0
 872 00aa FFF7FEBF 		b	DoCTLSetup
 873              	.LVL59:
 874              	.L63:
 875 00ae 00BF     		.align	2
 876              	.L62:
 877 00b0 00000000 		.word	gGDS
 878 00b4 00000000 		.word	gEMVTestCfg
 879 00b8 00000000 		.word	KCtlApplCfg
 880              		.cfi_endproc
 881              	.LFE16:
 882              		.size	LoadCTLCfg, .-LoadCTLCfg
 883              		.bss
 884              		.align	2
 885              		.set	.LANCHOR0,. + 0
 886              		.type	dDebugAutoAmt, %object
 887              		.size	dDebugAutoAmt, 4
 888              	dDebugAutoAmt:
 889 0000 00000000 		.space	4
 890              		.type	dDebugAutoPin, %object
 891              		.size	dDebugAutoPin, 4
 892              	dDebugAutoPin:
 893 0004 00000000 		.space	4
 894              		.text
 895              	.Letext0:
 896              		.file 2 "../LibA5T1000/common.h"
 897              		.file 3 "../LibA5T1000/system.h"
 898              		.file 4 "../LibA5T1000/midware.h"
 899              		.file 5 "../LibA5T1000/apm.h"
 900              		.file 6 "../LibA5T1000/emv2dll.h"
 901              		.file 7 "../LibA5T1000/emvcl2dll.h"
 902              		.file 8 "../LibA5T1000/ecrdll.h"
 903              		.file 9 "src/sysutil.h"
 904              		.file 10 "src/corevar.h"
 905              		.file 11 "src/testcfg.h"
 906              		.file 12 "src/emvtrans.h"
 907              		.file 13 "src/ctltrans.h"