ARM GAS  C:\Users\AHMEDH~1\AppData\Local\Temp\ccNc6GFw.s 			page 1


   1              		.syntax unified
   2              		.cpu cortex-a5
   3              		.fpu softvfp
   4              		.eabi_attribute 20, 1
   5              		.eabi_attribute 21, 1
   6              		.eabi_attribute 23, 3
   7              		.eabi_attribute 24, 1
   8              		.eabi_attribute 25, 1
   9              		.eabi_attribute 26, 1
  10              		.eabi_attribute 30, 4
  11              		.eabi_attribute 34, 0
  12              		.eabi_attribute 18, 4
  13              		.thumb
  14              		.file	"toggle.c"
  15              		.text
  16              	.Ltext0:
  17              		.cfi_sections	.debug_frame
  18              		.global	__aeabi_idivmod
  19              		.section	.text.ToggleOption,"ax",%progbits
  20              		.align	1
  21              		.global	ToggleOption
  22              		.thumb
  23              		.thumb_func
  24              		.type	ToggleOption, %function
  25              	ToggleOption:
  26              	.LFB0:
  27              		.file 1 "src/toggle.c"
   1:src/toggle.c  **** //-----------------------------------------------------------------------------
   2:src/toggle.c  **** //  File          : toggle.c
   3:src/toggle.c  **** //  Module        :
   4:src/toggle.c  **** //  Description   : Include Toggle Selection functions.
   5:src/toggle.c  **** //  Author        : Lewis
   6:src/toggle.c  **** //  Notes         :
   7:src/toggle.c  **** //
   8:src/toggle.c  **** //  Naming conventions
   9:src/toggle.c  **** //  ~~~~~~~~~~~~~~~~~~
  10:src/toggle.c  **** //             Constant : Leading K
  11:src/toggle.c  **** //      Global Variable : Leading g
  12:src/toggle.c  **** //    Function argument : Leading a
  13:src/toggle.c  **** //       Local Variable : All lower case
  14:src/toggle.c  **** //
  15:src/toggle.c  **** //  Date          Who         Action
  16:src/toggle.c  **** //  ------------  ----------- -------------------------------------------------
  17:src/toggle.c  **** //  01 Dec  2007 Lewis       Initial Version.
  18:src/toggle.c  **** //-----------------------------------------------------------------------------
  19:src/toggle.c  **** #include <string.h>
  20:src/toggle.c  **** #include "midware.h"
  21:src/toggle.c  **** #include "hwdef.h"
  22:src/toggle.c  **** #include "apm.h"
  23:src/toggle.c  **** #include "sysutil.h"
  24:src/toggle.c  **** #include "toggle.h"
  25:src/toggle.c  **** 
  26:src/toggle.c  **** //-----------------------------------------------------------------------------
  27:src/toggle.c  **** //      Constants
  28:src/toggle.c  **** //-----------------------------------------------------------------------------
  29:src/toggle.c  **** #ifndef DEBUG_MODE
  30:src/toggle.c  **** const char *KInitMode[] =  { "SYNC  ", "TCP/IP", "ASYNC ", NULL};
ARM GAS  C:\Users\AHMEDH~1\AppData\Local\Temp\ccNc6GFw.s 			page 2


  31:src/toggle.c  **** #else
  32:src/toggle.c  **** const char *KInitMode[] =  { "SYNC  ", "TCP/IP", "ASYNC ", "AUX   ", NULL};
  33:src/toggle.c  **** #endif
  34:src/toggle.c  **** const char *KTrueFalse[] =  { "FALSE", "TRUE ", NULL};
  35:src/toggle.c  **** const char *KDialMode[]  =  { "TONE ", "PULSE", NULL};
  36:src/toggle.c  **** const char *KOnOff[]  =  {"OFF","ON ", NULL};
  37:src/toggle.c  **** const char *KEnable[] =  {"Disable", " Enable", NULL};
  38:src/toggle.c  **** const char *KAuxSpeed[] = { "  9600", "  2400", "  4800", " 19200", " 28800", " 38400", " 57600", "
  39:src/toggle.c  **** const char *KAuxPort[]  = { "AUXD", "AUX1", "AUX2", NULL};
  40:src/toggle.c  **** const char *KAuxCommMode[]  = { "    STX", " EN_STX", "SOH_LRC", "SOH_CRC", "ASYN_N1", "ASYN_E1", "
  41:src/toggle.c  **** const char *KAuxDataLen[] =  { "1 Byte", "2 Byte", NULL};
  42:src/toggle.c  **** 
  43:src/toggle.c  **** const char *KPPPport[]   = { "LINE", "AUX1", "AUX2", "AUXD", "GPRS", NULL};
  44:src/toggle.c  **** const char *KProtoMode[] = { "SDLC ", "ASYNC", NULL};
  45:src/toggle.c  **** const char *KCcittMode[] = { "CCITT", "BELL ", NULL};
  46:src/toggle.c  **** const char *KMdmSpeed[]  = { "  300", " 1200", " 2400", " 9600", " Auto", " V.42", "Union", "11400"
  47:src/toggle.c  **** 
  48:src/toggle.c  **** //*****************************************************************************
  49:src/toggle.c  **** //  Function        : ToggleOption
  50:src/toggle.c  **** //  Description     : Prompt user to toggle option.
  51:src/toggle.c  **** //  Input           : aMsg;         // message to display
  52:src/toggle.c  **** //                    aOptTbl;      // Pointer to Option Table
  53:src/toggle.c  **** //                    aCurVal;      // current option & Display Mode
  54:src/toggle.c  **** //  Return          : user select option.
  55:src/toggle.c  **** //  Note            : N/A
  56:src/toggle.c  **** //  Globals Changed : N/A
  57:src/toggle.c  **** //*****************************************************************************
  58:src/toggle.c  **** char ToggleOption(const char *aMsg, const char **aOptTbl, DWORD aCurVal)
  59:src/toggle.c  **** {
  28              		.loc 1 59 0
  29              		.cfi_startproc
  30              		@ args = 0, pretend = 0, frame = 8
  31              		@ frame_needed = 0, uses_anonymous_args = 0
  32              	.LVL0:
  33 0000 2DE9F04F 		push	{r4, r5, r6, r7, r8, r9, r10, fp, lr}
  34              		.cfi_def_cfa_offset 36
  35              		.cfi_offset 4, -36
  36              		.cfi_offset 5, -32
  37              		.cfi_offset 6, -28
  38              		.cfi_offset 7, -24
  39              		.cfi_offset 8, -20
  40              		.cfi_offset 9, -16
  41              		.cfi_offset 10, -12
  42              		.cfi_offset 11, -8
  43              		.cfi_offset 14, -4
  44 0004 0023     		movs	r3, #0
  45 0006 85B0     		sub	sp, sp, #20
  46              		.cfi_def_cfa_offset 56
  47              		.loc 1 59 0
  48 0008 8346     		mov	fp, r0
  49 000a 8846     		mov	r8, r1
  50 000c 1446     		mov	r4, r2
  51              	.LVL1:
  52              	.L3:
  60:src/toggle.c  ****   BYTE max_opt, max_len, len;
  61:src/toggle.c  ****   BYTE cur_val;
  62:src/toggle.c  ****   DWORD mode, line_no, font;
ARM GAS  C:\Users\AHMEDH~1\AppData\Local\Temp\ccNc6GFw.s 			page 3


  63:src/toggle.c  **** 
  64:src/toggle.c  ****   // Find Max Option & Len;
  65:src/toggle.c  ****   max_len = 0;
  66:src/toggle.c  ****   for (max_opt = 0; max_opt < MAX_OPTION_LIST; max_opt++) {
  67:src/toggle.c  ****     if (aOptTbl[max_opt] == NULL)
  53              		.loc 1 67 0
  54 000e 58F82320 		ldr	r2, [r8, r3, lsl #2]
  55 0012 DFB2     		uxtb	r7, r3
  56              	.LVL2:
  57 0014 1AB1     		cbz	r2, .L2
  58              	.LVL3:
  59 0016 0133     		adds	r3, r3, #1
  60              	.LVL4:
  66:src/toggle.c  ****     if (aOptTbl[max_opt] == NULL)
  61              		.loc 1 66 0 discriminator 2
  62 0018 102B     		cmp	r3, #16
  63 001a F8D1     		bne	.L3
  64 001c 1F46     		mov	r7, r3
  65              	.LVL5:
  66              	.L2:
  68:src/toggle.c  ****       break;
  69:src/toggle.c  ****     len = strlen(aOptTbl[max_opt]);
  70:src/toggle.c  ****     max_len = max_len < len ? len : max_len;
  71:src/toggle.c  ****   }
  72:src/toggle.c  **** 
  73:src/toggle.c  ****   mode    = aCurVal & 0xFF0000;
  67              		.loc 1 73 0
  68 001e 04F47F05 		and	r5, r4, #16711680
  69              	.LVL6:
  74:src/toggle.c  ****   if (aMsg != NULL) {
  70              		.loc 1 74 0
  71 0022 BBF1000F 		cmp	fp, #0
  72 0026 28D0     		beq	.L5
  75:src/toggle.c  ****     if (mode == TOGGLE_MODE_4LINE) {
  76:src/toggle.c  ****       line_no = MW_LINE5;
  77:src/toggle.c  ****       font    = MW_BIGFONT;
  78:src/toggle.c  ****     }
  79:src/toggle.c  ****     else {
  80:src/toggle.c  ****       line_no = MW_LINE7;
  81:src/toggle.c  ****       font    = MW_SMFONT;
  73              		.loc 1 81 0
  74 0028 002D     		cmp	r5, #0
  75 002a 0CBF     		ite	eq
  76 002c 4FF48053 		moveq	r3, #4096
  77 0030 0023     		movne	r3, #0
  78              	.LBB2:
  82:src/toggle.c  ****     }
  83:src/toggle.c  ****     DispLineMW(aMsg, line_no, font);
  79              		.loc 1 83 0
  80 0032 5846     		mov	r0, fp
  81              	.LVL7:
  82              	.LBE2:
  81:src/toggle.c  ****     }
  83              		.loc 1 81 0
  84 0034 0393     		str	r3, [sp, #12]
  85 0036 0CBF     		ite	eq
  86 0038 4FF4A06A 		moveq	r10, #1280
ARM GAS  C:\Users\AHMEDH~1\AppData\Local\Temp\ccNc6GFw.s 			page 4


  87 003c 4FF4E06A 		movne	r10, #1792
  88              	.LVL8:
  89              	.LBB3:
  90              		.loc 1 83 0
  91 0040 FFF7FEFF 		bl	strlen
  92              	.LVL9:
  93 0044 8146     		mov	r9, r0
  94              	.LVL10:
  95 0046 09F10101 		add	r1, r9, #1
  96 004a 9220     		movs	r0, #146
  97              	.LVL11:
  98 004c FFF7FEFF 		bl	sys_func1
  99              	.LVL12:
 100 0050 0646     		mov	r6, r0
 101 0052 90B1     		cbz	r0, .L5
 102              		.loc 1 83 0 is_stmt 0 discriminator 1
 103 0054 5946     		mov	r1, fp
 104 0056 4A46     		mov	r2, r9
 105 0058 FFF7FEFF 		bl	memcpy
 106              	.LVL13:
 107 005c 0023     		movs	r3, #0
 108 005e 2521     		movs	r1, #37
 109 0060 06F80930 		strb	r3, [r6, r9]
 110 0064 039B     		ldr	r3, [sp, #12]
 111 0066 0F20     		movs	r0, #15
 112 0068 0093     		str	r3, [sp]
 113 006a 3246     		mov	r2, r6
 114 006c 5346     		mov	r3, r10
 115 006e FFF7FEFF 		bl	lib_app_call
 116              	.LVL14:
 117 0072 9420     		movs	r0, #148
 118 0074 3146     		mov	r1, r6
 119 0076 FFF7FEFF 		bl	sys_func1
 120              	.LVL15:
 121              	.L5:
 122              	.LBE3:
  84:src/toggle.c  ****   }
  85:src/toggle.c  **** 
  86:src/toggle.c  ****   cur_val = (BYTE)(aCurVal & 0xFF);
 123              		.loc 1 86 0 is_stmt 1
 124 007a E4B2     		uxtb	r4, r4
 125              	.LVL16:
 126 007c 002D     		cmp	r5, #0
 127 007e 0CBF     		ite	eq
 128 0080 4FF48056 		moveq	r6, #4096
 129 0084 0026     		movne	r6, #0
  87:src/toggle.c  ****   if (cur_val > max_opt)
  88:src/toggle.c  ****     cur_val = 0;
 130              		.loc 1 88 0
 131 0086 BC42     		cmp	r4, r7
 132 0088 88BF     		it	hi
 133 008a 0024     		movhi	r4, #0
 134              	.LVL17:
 135              	.LBB4:
  89:src/toggle.c  **** 
  90:src/toggle.c  ****   while (1) {
  91:src/toggle.c  ****     DispCtrlMW(MW_REV_ON);
ARM GAS  C:\Users\AHMEDH~1\AppData\Local\Temp\ccNc6GFw.s 			page 5


  92:src/toggle.c  ****     if (mode == TOGGLE_MODE_4LINE) {
  93:src/toggle.c  ****       line_no = MW_LINE7;
  94:src/toggle.c  ****       font    = MW_BIGFONT;
  95:src/toggle.c  ****     }
  96:src/toggle.c  ****     else {
  97:src/toggle.c  ****       line_no = MW_LINE8;
  98:src/toggle.c  ****       font    = MW_SMFONT;
  99:src/toggle.c  ****     }
 100:src/toggle.c  ****     DispLineMW(aOptTbl[cur_val], line_no, MW_RIGHT|font);
 136              		.loc 1 100 0
 137 008c 46F00106 		orr	r6, r6, #1
 138              	.LVL18:
 139              	.L9:
 140              	.LBE4:
  91:src/toggle.c  ****     if (mode == TOGGLE_MODE_4LINE) {
 141              		.loc 1 91 0
 142 0090 1C21     		movs	r1, #28
 143 0092 1620     		movs	r0, #22
 144 0094 FFF7FEFF 		bl	sys_func1
 145              	.LVL19:
 146              	.LBB5:
 147              		.loc 1 100 0
 148 0098 23B2     		sxth	r3, r4
 149              	.LBE5:
  97:src/toggle.c  ****       font    = MW_SMFONT;
 150              		.loc 1 97 0
 151 009a 002D     		cmp	r5, #0
 152 009c 0CBF     		ite	eq
 153 009e 4FF4E06B 		moveq	fp, #1792
 154 00a2 4FF4006B 		movne	fp, #2048
 155              	.LVL20:
 156              	.LBB6:
 157              		.loc 1 100 0
 158 00a6 58F82300 		ldr	r0, [r8, r3, lsl #2]
 159 00aa 0393     		str	r3, [sp, #12]
 160 00ac FFF7FEFF 		bl	strlen
 161              	.LVL21:
 162 00b0 8246     		mov	r10, r0
 163              	.LVL22:
 164 00b2 0AF10101 		add	r1, r10, #1
 165 00b6 9220     		movs	r0, #146
 166              	.LVL23:
 167 00b8 FFF7FEFF 		bl	sys_func1
 168              	.LVL24:
 169 00bc 8146     		mov	r9, r0
 170 00be 98B1     		cbz	r0, .L11
 171              		.loc 1 100 0 is_stmt 0 discriminator 1
 172 00c0 039B     		ldr	r3, [sp, #12]
 173 00c2 5246     		mov	r2, r10
 174 00c4 58F82310 		ldr	r1, [r8, r3, lsl #2]
 175 00c8 FFF7FEFF 		bl	memcpy
 176              	.LVL25:
 177 00cc 0023     		movs	r3, #0
 178 00ce 2521     		movs	r1, #37
 179 00d0 09F80A30 		strb	r3, [r9, r10]
 180 00d4 0F20     		movs	r0, #15
 181 00d6 0096     		str	r6, [sp]
ARM GAS  C:\Users\AHMEDH~1\AppData\Local\Temp\ccNc6GFw.s 			page 6


 182 00d8 4A46     		mov	r2, r9
 183 00da 5B46     		mov	r3, fp
 184 00dc FFF7FEFF 		bl	lib_app_call
 185              	.LVL26:
 186 00e0 9420     		movs	r0, #148
 187 00e2 4946     		mov	r1, r9
 188 00e4 FFF7FEFF 		bl	sys_func1
 189              	.LVL27:
 190              	.L11:
 191              	.LBE6:
 101:src/toggle.c  ****     DispCtrlMW(MW_REV_OFF);
 192              		.loc 1 101 0 is_stmt 1
 193 00e8 1D21     		movs	r1, #29
 194 00ea 1620     		movs	r0, #22
 195 00ec FFF7FEFF 		bl	sys_func1
 196              	.LVL28:
 102:src/toggle.c  ****     switch (APM_WaitKey(KBD_TIMEOUT,0)) {
 197              		.loc 1 102 0
 198 00f0 0023     		movs	r3, #0
 199 00f2 1020     		movs	r0, #16
 200 00f4 0093     		str	r3, [sp]
 201 00f6 0321     		movs	r1, #3
 202 00f8 42F22832 		movw	r2, #9000
 203 00fc FFF7FEFF 		bl	lib_app_call
 204              	.LVL29:
 205 0100 1128     		cmp	r0, #17
 206 0102 0ED0     		beq	.L19
 207 0104 1228     		cmp	r0, #18
 208 0106 03D0     		beq	.L14
 209 0108 1028     		cmp	r0, #16
 210 010a 07D1     		bne	.L30
 103:src/toggle.c  ****       case MWKEY_ENTER:
 104:src/toggle.c  ****         return(cur_val);
 211              		.loc 1 104 0
 212 010c E0B2     		uxtb	r0, r4
 213 010e 09E0     		b	.L13
 214              	.L14:
 105:src/toggle.c  ****       case MWKEY_CANCL:
 106:src/toggle.c  ****         return -1;
 107:src/toggle.c  ****       case MWKEY_CLR:
 108:src/toggle.c  ****         cur_val = (cur_val+1)%max_opt;
 215              		.loc 1 108 0
 216 0110 601C     		adds	r0, r4, #1
 217 0112 3946     		mov	r1, r7
 218 0114 FFF7FEFF 		bl	__aeabi_idivmod
 219              	.LVL30:
 220 0118 CCB2     		uxtb	r4, r1
 221              	.LVL31:
 109:src/toggle.c  ****         break;
 222              		.loc 1 109 0
 223 011a B9E7     		b	.L9
 224              	.L30:
 110:src/toggle.c  ****       default:
 111:src/toggle.c  ****         LongBeep();
 225              		.loc 1 111 0
 226 011c FFF7FEFF 		bl	LongBeep
 227              	.LVL32:
ARM GAS  C:\Users\AHMEDH~1\AppData\Local\Temp\ccNc6GFw.s 			page 7


 228 0120 B6E7     		b	.L9
 229              	.L19:
 106:src/toggle.c  ****       case MWKEY_CLR:
 230              		.loc 1 106 0
 231 0122 FF20     		movs	r0, #255
 232              	.L13:
 112:src/toggle.c  ****     }
 113:src/toggle.c  ****   }
 114:src/toggle.c  **** }
 233              		.loc 1 114 0
 234 0124 40B2     		sxtb	r0, r0
 235 0126 05B0     		add	sp, sp, #20
 236              		.cfi_def_cfa_offset 36
 237              		@ sp needed
 238 0128 BDE8F08F 		pop	{r4, r5, r6, r7, r8, r9, r10, fp, pc}
 239              		.cfi_endproc
 240              	.LFE0:
 241              		.size	ToggleOption, .-ToggleOption
 242              		.global	KMdmSpeed
 243              		.global	KCcittMode
 244              		.global	KProtoMode
 245              		.global	KPPPport
 246              		.global	KAuxDataLen
 247              		.global	KAuxCommMode
 248              		.global	KAuxPort
 249              		.global	KAuxSpeed
 250              		.global	KEnable
 251              		.global	KOnOff
 252              		.global	KDialMode
 253              		.global	KTrueFalse
 254              		.global	KInitMode
 255              		.section	.rodata.str1.1,"aMS",%progbits,1
 256              	.LC0:
 257 0000 20203330 		.ascii	"  300\000"
 257      3000
 258              	.LC1:
 259 0006 20313230 		.ascii	" 1200\000"
 259      3000
 260              	.LC2:
 261 000c 20323430 		.ascii	" 2400\000"
 261      3000
 262              	.LC3:
 263 0012 20393630 		.ascii	" 9600\000"
 263      3000
 264              	.LC4:
 265 0018 20417574 		.ascii	" Auto\000"
 265      6F00
 266              	.LC5:
 267 001e 20562E34 		.ascii	" V.42\000"
 267      3200
 268              	.LC6:
 269 0024 556E696F 		.ascii	"Union\000"
 269      6E00
 270              	.LC7:
 271 002a 31313430 		.ascii	"11400\000"
 271      3000
 272              	.LC8:
ARM GAS  C:\Users\AHMEDH~1\AppData\Local\Temp\ccNc6GFw.s 			page 8


 273 0030 33333630 		.ascii	"33600\000"
 273      3000
 274              	.LC9:
 275 0036 35363030 		.ascii	"56000\000"
 275      3000
 276              	.LC10:
 277 003c 43434954 		.ascii	"CCITT\000"
 277      5400
 278              	.LC11:
 279 0042 42454C4C 		.ascii	"BELL \000"
 279      2000
 280              	.LC12:
 281 0048 53444C43 		.ascii	"SDLC \000"
 281      2000
 282              	.LC13:
 283 004e 4153594E 		.ascii	"ASYNC\000"
 283      4300
 284              	.LC14:
 285 0054 4C494E45 		.ascii	"LINE\000"
 285      00
 286              	.LC15:
 287 0059 41555831 		.ascii	"AUX1\000"
 287      00
 288              	.LC16:
 289 005e 41555832 		.ascii	"AUX2\000"
 289      00
 290              	.LC17:
 291 0063 41555844 		.ascii	"AUXD\000"
 291      00
 292              	.LC18:
 293 0068 47505253 		.ascii	"GPRS\000"
 293      00
 294              	.LC19:
 295 006d 31204279 		.ascii	"1 Byte\000"
 295      746500
 296              	.LC20:
 297 0074 32204279 		.ascii	"2 Byte\000"
 297      746500
 298              	.LC21:
 299 007b 20202020 		.ascii	"    STX\000"
 299      53545800 
 300              	.LC22:
 301 0083 20454E5F 		.ascii	" EN_STX\000"
 301      53545800 
 302              	.LC23:
 303 008b 534F485F 		.ascii	"SOH_LRC\000"
 303      4C524300 
 304              	.LC24:
 305 0093 534F485F 		.ascii	"SOH_CRC\000"
 305      43524300 
 306              	.LC25:
 307 009b 4153594E 		.ascii	"ASYN_N1\000"
 307      5F4E3100 
 308              	.LC26:
 309 00a3 4153594E 		.ascii	"ASYN_E1\000"
 309      5F453100 
 310              	.LC27:
ARM GAS  C:\Users\AHMEDH~1\AppData\Local\Temp\ccNc6GFw.s 			page 9


 311 00ab 4153594E 		.ascii	"ASYN_O1\000"
 311      5F4F3100 
 312              	.LC28:
 313 00b3 20203936 		.ascii	"  9600\000"
 313      303000
 314              	.LC29:
 315 00ba 20203234 		.ascii	"  2400\000"
 315      303000
 316              	.LC30:
 317 00c1 20203438 		.ascii	"  4800\000"
 317      303000
 318              	.LC31:
 319 00c8 20313932 		.ascii	" 19200\000"
 319      303000
 320              	.LC32:
 321 00cf 20323838 		.ascii	" 28800\000"
 321      303000
 322              	.LC33:
 323 00d6 20333834 		.ascii	" 38400\000"
 323      303000
 324              	.LC34:
 325 00dd 20353736 		.ascii	" 57600\000"
 325      303000
 326              	.LC35:
 327 00e4 31313532 		.ascii	"115200\000"
 327      303000
 328              	.LC36:
 329 00eb 32333034 		.ascii	"230400\000"
 329      303000
 330              	.LC37:
 331 00f2 44697361 		.ascii	"Disable\000"
 331      626C6500 
 332              	.LC38:
 333 00fa 20456E61 		.ascii	" Enable\000"
 333      626C6500 
 334              	.LC39:
 335 0102 4F464600 		.ascii	"OFF\000"
 336              	.LC40:
 337 0106 4F4E2000 		.ascii	"ON \000"
 338              	.LC41:
 339 010a 544F4E45 		.ascii	"TONE \000"
 339      2000
 340              	.LC42:
 341 0110 50554C53 		.ascii	"PULSE\000"
 341      4500
 342              	.LC43:
 343 0116 46414C53 		.ascii	"FALSE\000"
 343      4500
 344              	.LC44:
 345 011c 54525545 		.ascii	"TRUE \000"
 345      2000
 346              	.LC45:
 347 0122 53594E43 		.ascii	"SYNC  \000"
 347      202000
 348              	.LC46:
 349 0129 5443502F 		.ascii	"TCP/IP\000"
 349      495000
ARM GAS  C:\Users\AHMEDH~1\AppData\Local\Temp\ccNc6GFw.s 			page 10


 350              	.LC47:
 351 0130 4153594E 		.ascii	"ASYNC \000"
 351      432000
 352              		.data
 353              		.align	2
 354              		.type	KMdmSpeed, %object
 355              		.size	KMdmSpeed, 44
 356              	KMdmSpeed:
 357 0000 00000000 		.word	.LC0
 358 0004 06000000 		.word	.LC1
 359 0008 0C000000 		.word	.LC2
 360 000c 12000000 		.word	.LC3
 361 0010 18000000 		.word	.LC4
 362 0014 1E000000 		.word	.LC5
 363 0018 24000000 		.word	.LC6
 364 001c 2A000000 		.word	.LC7
 365 0020 30000000 		.word	.LC8
 366 0024 36000000 		.word	.LC9
 367 0028 00000000 		.word	0
 368              		.type	KCcittMode, %object
 369              		.size	KCcittMode, 12
 370              	KCcittMode:
 371 002c 3C000000 		.word	.LC10
 372 0030 42000000 		.word	.LC11
 373 0034 00000000 		.word	0
 374              		.type	KProtoMode, %object
 375              		.size	KProtoMode, 12
 376              	KProtoMode:
 377 0038 48000000 		.word	.LC12
 378 003c 4E000000 		.word	.LC13
 379 0040 00000000 		.word	0
 380              		.type	KPPPport, %object
 381              		.size	KPPPport, 24
 382              	KPPPport:
 383 0044 54000000 		.word	.LC14
 384 0048 59000000 		.word	.LC15
 385 004c 5E000000 		.word	.LC16
 386 0050 63000000 		.word	.LC17
 387 0054 68000000 		.word	.LC18
 388 0058 00000000 		.word	0
 389              		.type	KAuxDataLen, %object
 390              		.size	KAuxDataLen, 12
 391              	KAuxDataLen:
 392 005c 6D000000 		.word	.LC19
 393 0060 74000000 		.word	.LC20
 394 0064 00000000 		.word	0
 395              		.type	KAuxCommMode, %object
 396              		.size	KAuxCommMode, 32
 397              	KAuxCommMode:
 398 0068 7B000000 		.word	.LC21
 399 006c 83000000 		.word	.LC22
 400 0070 8B000000 		.word	.LC23
 401 0074 93000000 		.word	.LC24
 402 0078 9B000000 		.word	.LC25
 403 007c A3000000 		.word	.LC26
 404 0080 AB000000 		.word	.LC27
 405 0084 00000000 		.word	0
ARM GAS  C:\Users\AHMEDH~1\AppData\Local\Temp\ccNc6GFw.s 			page 11


 406              		.type	KAuxPort, %object
 407              		.size	KAuxPort, 16
 408              	KAuxPort:
 409 0088 63000000 		.word	.LC17
 410 008c 59000000 		.word	.LC15
 411 0090 5E000000 		.word	.LC16
 412 0094 00000000 		.word	0
 413              		.type	KAuxSpeed, %object
 414              		.size	KAuxSpeed, 40
 415              	KAuxSpeed:
 416 0098 B3000000 		.word	.LC28
 417 009c BA000000 		.word	.LC29
 418 00a0 C1000000 		.word	.LC30
 419 00a4 C8000000 		.word	.LC31
 420 00a8 CF000000 		.word	.LC32
 421 00ac D6000000 		.word	.LC33
 422 00b0 DD000000 		.word	.LC34
 423 00b4 E4000000 		.word	.LC35
 424 00b8 EB000000 		.word	.LC36
 425 00bc 00000000 		.word	0
 426              		.type	KEnable, %object
 427              		.size	KEnable, 12
 428              	KEnable:
 429 00c0 F2000000 		.word	.LC37
 430 00c4 FA000000 		.word	.LC38
 431 00c8 00000000 		.word	0
 432              		.type	KOnOff, %object
 433              		.size	KOnOff, 12
 434              	KOnOff:
 435 00cc 02010000 		.word	.LC39
 436 00d0 06010000 		.word	.LC40
 437 00d4 00000000 		.word	0
 438              		.type	KDialMode, %object
 439              		.size	KDialMode, 12
 440              	KDialMode:
 441 00d8 0A010000 		.word	.LC41
 442 00dc 10010000 		.word	.LC42
 443 00e0 00000000 		.word	0
 444              		.type	KTrueFalse, %object
 445              		.size	KTrueFalse, 12
 446              	KTrueFalse:
 447 00e4 16010000 		.word	.LC43
 448 00e8 1C010000 		.word	.LC44
 449 00ec 00000000 		.word	0
 450              		.type	KInitMode, %object
 451              		.size	KInitMode, 16
 452              	KInitMode:
 453 00f0 22010000 		.word	.LC45
 454 00f4 29010000 		.word	.LC46
 455 00f8 30010000 		.word	.LC47
 456 00fc 00000000 		.word	0
 457              		.text
 458              	.Letext0:
 459              		.file 2 "c:\\devtools\\gcc_v49_2014q4\\lib\\gcc\\arm-none-eabi\\4.9.3\\include\\stddef.h"
 460              		.file 3 "../LibA5T1000/common.h"
 461              		.file 4 "../LibA5T1000/system.h"
 462              		.file 5 "../LibA5T1000/midware.h"
ARM GAS  C:\Users\AHMEDH~1\AppData\Local\Temp\ccNc6GFw.s 			page 12


 463              		.file 6 "../LibA5T1000/apm.h"
 464              		.file 7 "c:\\devtools\\gcc_v49_2014q4\\arm-none-eabi\\include\\string.h"
 465              		.file 8 "src/sysutil.h"