ARM GAS  C:\Users\AHMED~1.ELE\AppData\Local\Temp\cc98zNMh.s 			page 1


   1              		.syntax unified
   2              		.cpu cortex-a5
   3              		.fpu softvfp
   4              		.eabi_attribute 20, 1
   5              		.eabi_attribute 21, 1
   6              		.eabi_attribute 23, 3
   7              		.eabi_attribute 24, 1
   8              		.eabi_attribute 25, 1
   9              		.eabi_attribute 26, 1
  10              		.eabi_attribute 30, 4
  11              		.eabi_attribute 34, 0
  12              		.eabi_attribute 18, 4
  13              		.thumb
  14              		.file	"tranutil.c"
  15              		.text
  16              	.Ltext0:
  17              		.cfi_sections	.debug_frame
  18              		.section	.text.AddTotal,"ax",%progbits
  19              		.align	1
  20              		.thumb
  21              		.thumb_func
  22              		.type	AddTotal, %function
  23              	AddTotal:
  24              	.LFB26:
  25              		.file 1 "src/tranutil.c"
   1:src/tranutil.c **** //-----------------------------------------------------------------------------
   2:src/tranutil.c **** //  File          : tranutil.c
   3:src/tranutil.c **** //  Module        :
   4:src/tranutil.c **** //  Description   : Utilities function for transactions.
   5:src/tranutil.c **** //  Author        : Lewis
   6:src/tranutil.c **** //  Notes         :
   7:src/tranutil.c **** //
   8:src/tranutil.c **** // ============================================================================
   9:src/tranutil.c **** // | Naming conventions                                                       |
  10:src/tranutil.c **** // | ~~~~~~~~~~~~~~~~~~                                                       |
  11:src/tranutil.c **** // |        Struct define : Leading T                                         |
  12:src/tranutil.c **** // |         Struct/Array : Leading s                                         |
  13:src/tranutil.c **** // |             Constant : Leading K                                         |
  14:src/tranutil.c **** // |      Global Variable : Leading g  (variable use outside one C file)      |
  15:src/tranutil.c **** // |                                                                          |
  16:src/tranutil.c **** // |   BYTE( 8 Bits) size : Leading b                                         |
  17:src/tranutil.c **** // |   CHAR( 8 Bits) size : Leading c                                         |
  18:src/tranutil.c **** // |   WORD(16 Bits) size : Leading w                                         |
  19:src/tranutil.c **** // |  DWORD(32 Bits) size : Leading d                                         |
  20:src/tranutil.c **** // |    int(32 Bits) size : Leading i                                         |
  21:src/tranutil.c **** // | DDWORD(64 Bits) size : Leading dd                                        |
  22:src/tranutil.c **** // |              Pointer : Leading p                                         |
  23:src/tranutil.c **** // |                                                                          |
  24:src/tranutil.c **** // |    Function argument : Leading a                                         |
  25:src/tranutil.c **** // |       Local Variable : All lower case                                    |
  26:src/tranutil.c **** // |                                                                          |
  27:src/tranutil.c **** // | Examples:                                                                |
  28:src/tranutil.c **** // |                Array : Leading s, (sb = arrary of byte, etc)             |
  29:src/tranutil.c **** // |              Pointer : Leading p, (pb = pointer of byte, etc)            |
  30:src/tranutil.c **** // ============================================================================
  31:src/tranutil.c **** //
  32:src/tranutil.c **** //  Date          Who         Action
ARM GAS  C:\Users\AHMED~1.ELE\AppData\Local\Temp\cc98zNMh.s 			page 2


  33:src/tranutil.c **** //  ------------  ----------- -------------------------------------------------
  34:src/tranutil.c **** //  10 May  2006  Lewis       Initial Version for new CONTROL
  35:src/tranutil.c **** //  15 Jan  2009  Lewis       Bug Fixed.
  36:src/tranutil.c **** //-----------------------------------------------------------------------------
  37:src/tranutil.c **** #include <stdio.h>
  38:src/tranutil.c **** #include <string.h>
  39:src/tranutil.c **** #include "corevar.h"
  40:src/tranutil.c **** #include "chkoptn.h"
  41:src/tranutil.c **** #include "constant.h"
  42:src/tranutil.c **** #include "input.h"
  43:src/tranutil.c **** #include "message.h"
  44:src/tranutil.c **** #include "print.h"
  45:src/tranutil.c **** #include "util.h"
  46:src/tranutil.c **** #include "record.h"
  47:src/tranutil.c **** #include "ecr.h"
  48:src/tranutil.c **** #include "lptutil.h"
  49:src/tranutil.c **** #include "keytrans.h"
  50:src/tranutil.c **** #include "tranutil.h"
  51:src/tranutil.c **** #include "coremain.h"
  52:src/tranutil.c **** #include "wavecom.h"
  53:src/tranutil.c **** #include "network.h"
  54:src/tranutil.c **** 
  55:src/tranutil.c **** //-----------------------------------------------------------------------------
  56:src/tranutil.c **** //      Globals Variables
  57:src/tranutil.c **** //-----------------------------------------------------------------------------
  58:src/tranutil.c **** struct TRANS_DATA gGTS;
  59:src/tranutil.c **** 
  60:src/tranutil.c **** //-----------------------------------------------------------------------------
  61:src/tranutil.c **** //      Constant
  62:src/tranutil.c **** //-----------------------------------------------------------------------------
  63:src/tranutil.c **** #define TYPE_VISA1       0x00
  64:src/tranutil.c **** #define TYPE_SDLC        0x01
  65:src/tranutil.c **** #define TYPE_ASYN        0x02
  66:src/tranutil.c **** #define TYPE_VOICE       0x03
  67:src/tranutil.c **** 
  68:src/tranutil.c **** #define MODE_BELL        0x00
  69:src/tranutil.c **** #define MODE_CCITT       0x01
  70:src/tranutil.c **** 
  71:src/tranutil.c **** #define BPS_300          0x00
  72:src/tranutil.c **** #define BPS_1200         0x01
  73:src/tranutil.c **** #define BPS_2400         0x02
  74:src/tranutil.c **** #define BPS_9600         0x03
  75:src/tranutil.c **** #define BPS_AUTO         0x04
  76:src/tranutil.c **** 
  77:src/tranutil.c **** static const struct {
  78:src/tranutil.c ****   BYTE b_protocol;
  79:src/tranutil.c ****   BYTE b_mode;
  80:src/tranutil.c ****   BYTE b_speed;
  81:src/tranutil.c **** } KCommParam[8] = {
  82:src/tranutil.c ****   {TYPE_SDLC, MODE_BELL,  BPS_1200},
  83:src/tranutil.c ****   {TYPE_ASYN, MODE_BELL,  BPS_1200},
  84:src/tranutil.c ****   {TYPE_SDLC, MODE_CCITT, BPS_1200},
  85:src/tranutil.c ****   {TYPE_ASYN, MODE_CCITT, BPS_1200},
  86:src/tranutil.c ****   {TYPE_ASYN, MODE_BELL,  BPS_300},
  87:src/tranutil.c ****   {TYPE_ASYN, MODE_CCITT, BPS_300},
  88:src/tranutil.c ****   {TYPE_SDLC, MODE_CCITT, BPS_2400},
  89:src/tranutil.c ****   {TYPE_ASYN, MODE_CCITT, BPS_2400}
ARM GAS  C:\Users\AHMED~1.ELE\AppData\Local\Temp\cc98zNMh.s 			page 3


  90:src/tranutil.c **** };
  91:src/tranutil.c **** 
  92:src/tranutil.c **** static const struct MDMSREG KDefaultSReg =  {
  93:src/tranutil.c ****   sizeof(struct MW_MDM_PORT),                 // len
  94:src/tranutil.c ****   {
  95:src/tranutil.c ****     0x01,                                     // Protocol = SDLC
  96:src/tranutil.c ****     0x01,                                     // Modem Type = CCITT
  97:src/tranutil.c ****     0x01,                                     // Speed = 1200
  98:src/tranutil.c ****     12,                                       // Inactivity Timeout in unit of 2.5 sec, total 30sec
  99:src/tranutil.c ****     15,                                       // Redial Pause time in 100 msec, total 1.5secs */
 100:src/tranutil.c ****     0x00,                                     // Primary Tel Len
 101:src/tranutil.c ****     {'F','F','F','F','F','F','F','F','F','F', // Primary Phone #
 102:src/tranutil.c ****       'F','F','F','F','F','F','F','F','F','F',
 103:src/tranutil.c ****       'F','F','F','F','F','F','F','F','F','F',
 104:src/tranutil.c ****       'F','F','F','F'},
 105:src/tranutil.c ****     0x03,                                     // Primary Dial Attempts
 106:src/tranutil.c ****     20,                                       // Primary Connection Time
 107:src/tranutil.c ****     0x00,                                     // Secondary Tel Len
 108:src/tranutil.c ****     {'F','F','F','F','F','F','F','F','F','F', // Secondary Phone #
 109:src/tranutil.c ****      'F','F','F','F','F','F','F','F','F','F',
 110:src/tranutil.c ****      'F','F','F','F','F','F','F','F','F','F',
 111:src/tranutil.c ****      'F','F','F','F'},
 112:src/tranutil.c ****     0x03,                                     // Secondary Dial Attempts
 113:src/tranutil.c ****     20,                                       // Secondary Connection Time
 114:src/tranutil.c ****     3,                                        // CD on qualify time
 115:src/tranutil.c ****     4,                                        // CD off qualify time
 116:src/tranutil.c ****     10,                                       // Async Message qualify time in 10msec, total 100ms
 117:src/tranutil.c ****     15,                                       // Wait Online time in sec, total 15 secs */
 118:src/tranutil.c ****     10,                                       // (DTMF) tone duration in 10msec, total 100ms */
 119:src/tranutil.c ****     5,                                        // hold line time in minutes */
 120:src/tranutil.c ****     MW_SHORT_DIALTONE,                        // busy tone + check line + blink dialing + short dia
 121:src/tranutil.c ****   }
 122:src/tranutil.c **** };
 123:src/tranutil.c **** 
 124:src/tranutil.c **** //*****************************************************************************
 125:src/tranutil.c **** //  Function        : OverMargin
 126:src/tranutil.c **** //  Description     : Check for over adjustment margin.
 127:src/tranutil.c **** //  Input           : N/A
 128:src/tranutil.c **** //  Return          : TRUE;     // over limit;
 129:src/tranutil.c **** //                    FALSE;
 130:src/tranutil.c **** //  Note            : N/A
 131:src/tranutil.c **** //  Globals Changed : N/A
 132:src/tranutil.c **** //*****************************************************************************
 133:src/tranutil.c **** BOOLEAN OverMargin(void)
 134:src/tranutil.c **** {
 135:src/tranutil.c ****   DDWORD amount;
 136:src/tranutil.c **** 
 137:src/tranutil.c ****   if (STIS_ACQ_TBL(0).sb_reserved[2] == 0) /* zero for no limit */
 138:src/tranutil.c ****     return(FALSE);
 139:src/tranutil.c **** 
 140:src/tranutil.c ****   amount  = INPUT.dd_amount * bcd2val(STIS_ACQ_TBL(0).sb_reserved[2]);
 141:src/tranutil.c ****   amount /= 100;
 142:src/tranutil.c ****   return (INPUT.dd_tip > amount);
 143:src/tranutil.c **** }
 144:src/tranutil.c **** //*****************************************************************************
 145:src/tranutil.c **** //  Function        : PackDTGAA
 146:src/tranutil.c **** //  Description     : Pack date/time & accept response code.
ARM GAS  C:\Users\AHMED~1.ELE\AppData\Local\Temp\cc98zNMh.s 			page 4


 147:src/tranutil.c **** //  Input           : N/A
 148:src/tranutil.c **** //  Return          : N/A
 149:src/tranutil.c **** //  Note            : N/A
 150:src/tranutil.c **** //  Globals Changed : N/A
 151:src/tranutil.c **** //*****************************************************************************
 152:src/tranutil.c **** void PackDTGAA(void)
 153:src/tranutil.c **** {
 154:src/tranutil.c ****   ReadRTC(&RSP_DATA.s_dtg);
 155:src/tranutil.c ****   RSP_DATA.w_rspcode = 'A'*256+'P';
 156:src/tranutil.c ****   memset(RSP_DATA.sb_rrn, ' ', 12);
 157:src/tranutil.c **** }
 158:src/tranutil.c **** //*****************************************************************************
 159:src/tranutil.c **** //  Function        : PackDateTime
 160:src/tranutil.c **** //  Description     : Pack DATE/TIME on receipt.
 161:src/tranutil.c **** //  Input           : N/A
 162:src/tranutil.c **** //  Return          : N/A
 163:src/tranutil.c **** //  Note            : N/A
 164:src/tranutil.c **** //  Globals Changed : N/A
 165:src/tranutil.c **** //*****************************************************************************
 166:src/tranutil.c **** void PackDateTime(struct DATETIME *aDtg)
 167:src/tranutil.c **** {
 168:src/tranutil.c ****   BYTE tmp[32];
 169:src/tranutil.c **** 
 170:src/tranutil.c ****   ConvDateTime(tmp, aDtg, 1);
 171:src/tranutil.c ****   pack_mem("Date/Time:", 10);
 172:src/tranutil.c ****   pack_space(1);
 173:src/tranutil.c ****   pack_mem(tmp, 12);
 174:src/tranutil.c ****   pack_space(1);
 175:src/tranutil.c ****   if (PrintTimeReqd())
 176:src/tranutil.c ****     pack_mem(&tmp[12], 6);
 177:src/tranutil.c ****   pack_lf();
 178:src/tranutil.c **** }
 179:src/tranutil.c **** 
 180:src/tranutil.c **** //*****************************************************************************
 181:src/tranutil.c **** //  Function        : Packconfig
 182:src/tranutil.c **** //  Description     : Pack receipt small.
 183:src/tranutil.c **** //  Input           : N/A
 184:src/tranutil.c **** //  Return          : N/A
 185:src/tranutil.c **** //  Note            : N/A
 186:src/tranutil.c **** //  Globals Changed : N/A
 187:src/tranutil.c **** //*****************************************************************************
 188:src/tranutil.c **** static void Packissuer()
 189:src/tranutil.c **** {
 190:src/tranutil.c **** pack_mem("\x1b""F1\x1bW1------------------------\x1bW0", 33);
 191:src/tranutil.c ****   pack_lf();
 192:src/tranutil.c ****   pack_mem("\x1bW1         ISSURES        \x1bW0", 30);
 193:src/tranutil.c ****   pack_lf();
 194:src/tranutil.c ****   pack_mem("\x1bW1------------------------\x1bW0", 30);
 195:src/tranutil.c ****   pack_lf();
 196:src/tranutil.c ****   pack_mem("CARD NAME                     : ", 32);
 197:src/tranutil.c ****   pack_mem("()              ", 16);
 198:src/tranutil.c ****   pack_lf();
 199:src/tranutil.c ****   pack_mem("ISSUER #                      : ", 32);
 200:src/tranutil.c ****   pack_mem("()              ", 16);
 201:src/tranutil.c ****   pack_lf();
 202:src/tranutil.c ****   pack_mem("ID                            : ", 32);
 203:src/tranutil.c ****   pack_mem("()              ", 16);
ARM GAS  C:\Users\AHMED~1.ELE\AppData\Local\Temp\cc98zNMh.s 			page 5


 204:src/tranutil.c ****   pack_lf();
 205:src/tranutil.c ****   pack_mem("DEBIT TRANSACTION             : ", 32);
 206:src/tranutil.c ****   pack_mem("()              ", 16);
 207:src/tranutil.c ****   pack_lf();
 208:src/tranutil.c ****   pack_mem("VERFY LAST 4 OF PAN           : ", 32);
 209:src/tranutil.c ****   pack_mem("()              ", 16);
 210:src/tranutil.c ****   pack_lf();
 211:src/tranutil.c ****   pack_mem("MANUAL KEY ENTRY              : ", 32);
 212:src/tranutil.c ****   pack_mem("()              ", 16);
 213:src/tranutil.c ****   pack_lf();
 214:src/tranutil.c ****   pack_mem("CVV2 PROCESSING               : ", 32);
 215:src/tranutil.c ****   pack_mem("()              ", 16);
 216:src/tranutil.c ****   pack_lf();
 217:src/tranutil.c ****   pack_mem("MASK PAN                      : ", 32);
 218:src/tranutil.c ****   pack_mem("()              ", 16);
 219:src/tranutil.c ****   pack_lf();
 220:src/tranutil.c ****   pack_mem("OFFLINE ALLOWED               : ", 32);
 221:src/tranutil.c ****   pack_mem("()              ", 16);
 222:src/tranutil.c ****   pack_lf();
 223:src/tranutil.c ****   pack_mem("VOID NOT ALLOWED              : ", 32);
 224:src/tranutil.c ****   pack_mem("()              ", 16);
 225:src/tranutil.c ****   pack_lf();
 226:src/tranutil.c ****   pack_mem("REFUND NOT ALLOWED            : ", 32);
 227:src/tranutil.c ****   pack_mem("()              ", 16);
 228:src/tranutil.c ****   pack_lf();
 229:src/tranutil.c ****   pack_mem("PRE-AUTH NOT ALLOWED          : ", 32);
 230:src/tranutil.c ****   pack_mem("()              ", 16);
 231:src/tranutil.c ****   pack_lf();
 232:src/tranutil.c ****   pack_mem("DCC ALLOWED                   : ", 32);
 233:src/tranutil.c ****   pack_mem("()              ", 16);
 234:src/tranutil.c ****   pack_lf();
 235:src/tranutil.c ****   pack_mem("INSTALLMENT                   : ", 32);
 236:src/tranutil.c ****   pack_mem("()              ", 16);
 237:src/tranutil.c ****   pack_lf();
 238:src/tranutil.c ****   pack_mem("\x1bW1************************\x1bW0", 30);
 239:src/tranutil.c ****   pack_lf();
 240:src/tranutil.c ****   pack_mem("TOATL ISSUER : 1                                ", 48);
 241:src/tranutil.c ****   pack_lf();
 242:src/tranutil.c ****   pack_lf();
 243:src/tranutil.c ****   pack_lf();
 244:src/tranutil.c ****   pack_mem("\x1bW1    PLEASE SIGN BELOW   \x1bW0", 30);
 245:src/tranutil.c ****   pack_lf();
 246:src/tranutil.c ****   pack_mem("\x1bW1************************\x1bW0", 30);
 247:src/tranutil.c ****   pack_mem("\x1bW1*******THANK YOU********\x1bW0", 30);
 248:src/tranutil.c **** 
 249:src/tranutil.c **** }
 250:src/tranutil.c **** 
 251:src/tranutil.c **** //*****************************************************************************
 252:src/tranutil.c **** //  Function        : Packconfig
 253:src/tranutil.c **** //  Description     : Pack receipt small.
 254:src/tranutil.c **** //  Input           : N/A
 255:src/tranutil.c **** //  Return          : N/A
 256:src/tranutil.c **** //  Note            : N/A
 257:src/tranutil.c **** //  Globals Changed : N/A
 258:src/tranutil.c **** //*****************************************************************************
 259:src/tranutil.c **** static void Packconfig()
 260:src/tranutil.c **** {
ARM GAS  C:\Users\AHMED~1.ELE\AppData\Local\Temp\cc98zNMh.s 			page 6


 261:src/tranutil.c ****  DDWORD no_tips = -1;
 262:src/tranutil.c ****     BYTE trans, offset;
 263:src/tranutil.c ****     BYTE tmp[32];
 264:src/tranutil.c ****     BYTE buf[64];
 265:src/tranutil.c **** 	BYTE  sn[32];
 266:src/tranutil.c **** 	char serial_number[9];
 267:src/tranutil.c ****   
 268:src/tranutil.c ****   pack_mem(STIS_TERM_CFG.sb_dflt_name, 23);/* Shop name */
 269:src/tranutil.c ****   pack_lf();
 270:src/tranutil.c ****   pack_mem(STIS_TERM_CFG.sb_name_loc, 23); /* location  */
 271:src/tranutil.c ****   pack_lf();
 272:src/tranutil.c ****   pack_mem(&STIS_TERM_CFG.sb_name_loc[23], 23); /* location 2 */
 273:src/tranutil.c ****   pack_lf();
 274:src/tranutil.c ****   pack_mem("\x1b""F1POS ID :", 11);
 275:src/tranutil.c ****   pack_mem(STIS_ACQ_TBL(0).sb_term_id, 8);
 276:src/tranutil.c ****   pack_lf();
 277:src/tranutil.c ****   pack_mem("MID :", 5);
 278:src/tranutil.c ****   pack_mem(STIS_ACQ_TBL(0).sb_acceptor_id, 15);
 279:src/tranutil.c ****   pack_lf();
 280:src/tranutil.c ****   os_rtc_get(buf);/* date and time */
 281:src/tranutil.c ****   pack_mem(buf, 4);
 282:src/tranutil.c ****   pack_space(1);
 283:src/tranutil.c ****   pack_mem(&buf[4], 2);
 284:src/tranutil.c ****   pack_space(1);
 285:src/tranutil.c ****   pack_mem(&buf[6], 2);
 286:src/tranutil.c ****   pack_space(4);
 287:src/tranutil.c ****   pack_mem("                          ", 26); 
 288:src/tranutil.c ****   pack_mem(&buf[8], 2);
 289:src/tranutil.c ****   pack_space(1);
 290:src/tranutil.c ****   pack_mem(&buf[10], 2);
 291:src/tranutil.c ****   pack_space(1);
 292:src/tranutil.c ****   pack_mem(&buf[12], 2);//ss
 293:src/tranutil.c ****   pack_lf();
 294:src/tranutil.c ****   pack_mem("\x1bW1************************\x1bW0", 30);
 295:src/tranutil.c ****   pack_lf();
 296:src/tranutil.c ****   pack_mem("\x1bW1   CONFIGRATION REPORT  \x1bW0", 30);
 297:src/tranutil.c ****   pack_lf();
 298:src/tranutil.c ****   pack_mem("\x1bW1************************\x1bW0", 30);
 299:src/tranutil.c ****   pack_lf();
 300:src/tranutil.c ****   pack_mem("TERMINAL TYPE                 : ", 32);
 301:src/tranutil.c ****   pack_mem("()              ", 16);
 302:src/tranutil.c ****   pack_lf();
 303:src/tranutil.c ****   pack_mem("SERIAL NUMBER                 : ", 32);
 304:src/tranutil.c ****  memset(serial_number, 0, sizeof(serial_number));
 305:src/tranutil.c ****   GetSysCfgMW(K_CF_SerialNo, serial_number);
 306:src/tranutil.c ****   serial_number [8] = 0x00;
 307:src/tranutil.c ****   pack_mem(serial_number, 8);
 308:src/tranutil.c ****   pack_lf();
 309:src/tranutil.c ****   pack_mem("DoWNLOAD DATE                 : ", 32);
 310:src/tranutil.c ****   pack_mem("()              ", 16);
 311:src/tranutil.c ****   pack_lf();
 312:src/tranutil.c ****   pack_mem("DOWNLOAD TIME                 : ", 32);
 313:src/tranutil.c ****   pack_mem("()              ", 16);
 314:src/tranutil.c ****   pack_lf();
 315:src/tranutil.c ****   pack_mem("APP VERSION                   : ", 32);
 316:src/tranutil.c ****   pack_mem("()              ", 16);
 317:src/tranutil.c ****   pack_lf();
ARM GAS  C:\Users\AHMED~1.ELE\AppData\Local\Temp\cc98zNMh.s 			page 7


 318:src/tranutil.c ****   pack_mem("ZMK KCV                       : ", 32);
 319:src/tranutil.c ****   pack_mem("()              ", 16);
 320:src/tranutil.c ****   pack_lf();
 321:src/tranutil.c ****   pack_mem("TMK KCV                       : ", 32);
 322:src/tranutil.c ****   pack_mem("()              ", 16);
 323:src/tranutil.c ****   pack_lf();
 324:src/tranutil.c ****   
 325:src/tranutil.c ****   pack_mem("\x1bW1  TERMINAL PARAMETERS   \x1bW0", 30);
 326:src/tranutil.c ****   pack_lf();
 327:src/tranutil.c ****   pack_mem("\x1bW1------------------------\x1bW0", 30);
 328:src/tranutil.c ****   pack_lf();
 329:src/tranutil.c ****   pack_mem("CURRENCY SYMBOL               : ", 32);
 330:src/tranutil.c ****   pack_mem("()              ", 16);
 331:src/tranutil.c ****   pack_lf();
 332:src/tranutil.c ****   pack_mem("CURRENCY CODE                 : ", 32);
 333:src/tranutil.c ****   pack_mem("()              ", 16);
 334:src/tranutil.c ****   pack_lf();
 335:src/tranutil.c ****   pack_mem("MINIMUM AMONT                 : ", 32);
 336:src/tranutil.c ****   pack_mem("()              ", 16);
 337:src/tranutil.c ****   pack_lf();
 338:src/tranutil.c ****   pack_mem("MINIMUM ONLINE                : ", 32);
 339:src/tranutil.c ****   pack_mem("()              ", 16);
 340:src/tranutil.c ****   pack_lf();
 341:src/tranutil.c ****   pack_mem("MAXIMUM OFFLINE               : ", 32);
 342:src/tranutil.c ****   pack_mem("()              ", 16);
 343:src/tranutil.c ****   pack_lf();
 344:src/tranutil.c ****   pack_mem("\x1bW1   TRANSACTION OPTIONS  \x1bW0", 30);
 345:src/tranutil.c ****   pack_lf();
 346:src/tranutil.c ****   pack_mem("\x1bW1------------------------\x1bW0", 30);
 347:src/tranutil.c ****   pack_lf();
 348:src/tranutil.c ****   pack_mem("sale                          : ", 32);
 349:src/tranutil.c ****   pack_mem("[+]             ", 16);
 350:src/tranutil.c ****   pack_lf();
 351:src/tranutil.c ****   pack_mem("PRE-AUTH                      : ", 32);
 352:src/tranutil.c ****   pack_mem("[-]             ", 16);
 353:src/tranutil.c ****   pack_lf();
 354:src/tranutil.c ****   pack_mem("OFFLINE                       : ", 32);
 355:src/tranutil.c ****   pack_mem("[-]             ", 16);
 356:src/tranutil.c ****   pack_lf();
 357:src/tranutil.c ****   pack_mem("REFUND                        : ", 32);
 358:src/tranutil.c ****   pack_mem("[+]             ", 16);
 359:src/tranutil.c ****   pack_lf();
 360:src/tranutil.c ****   pack_mem("VOIDS                         : ", 32);
 361:src/tranutil.c ****   pack_mem("[+]             ", 16);
 362:src/tranutil.c ****   pack_lf();
 363:src/tranutil.c ****   pack_mem("\x1bW1    PASSWORD OPTIONS    \x1bW0", 30);
 364:src/tranutil.c ****   pack_lf();
 365:src/tranutil.c ****   pack_mem("\x1bW1------------------------\x1bW0", 30);
 366:src/tranutil.c ****   pack_lf();
 367:src/tranutil.c ****   pack_mem("SUPERVISOR MENU               : ", 32);
 368:src/tranutil.c ****   pack_mem("            <00>", 16);
 369:src/tranutil.c ****   pack_lf();
 370:src/tranutil.c ****   pack_mem("VOID                          : ", 32);
 371:src/tranutil.c ****   pack_mem("[-]       <1111>", 16);
 372:src/tranutil.c ****   pack_lf();
 373:src/tranutil.c ****   pack_mem("OFFLINE                       : ", 32);
 374:src/tranutil.c ****   pack_mem("[-]       <1111>", 16);
ARM GAS  C:\Users\AHMED~1.ELE\AppData\Local\Temp\cc98zNMh.s 			page 8


 375:src/tranutil.c ****   pack_lf();
 376:src/tranutil.c ****   pack_mem("REFUND                        : ", 32);
 377:src/tranutil.c ****   pack_mem("[-]       <0000>", 16);
 378:src/tranutil.c ****   pack_lf();
 379:src/tranutil.c ****   pack_mem("PRE-AUTH                      : ", 32);
 380:src/tranutil.c ****   pack_mem("[-]       <0000>", 16);
 381:src/tranutil.c ****   pack_lf();
 382:src/tranutil.c ****   pack_mem("SETTLE                        : ", 32);
 383:src/tranutil.c ****   pack_mem("[-]       <1111>", 16);
 384:src/tranutil.c ****   pack_lf();
 385:src/tranutil.c ****   pack_mem("REPORTS                       : ", 32);
 386:src/tranutil.c ****   pack_mem("[+]       <0000>", 16);
 387:src/tranutil.c ****   pack_lf();
 388:src/tranutil.c ****   pack_mem("DUPLICATE                     : ", 32);
 389:src/tranutil.c ****   pack_mem("[+]       <1111>", 16);
 390:src/tranutil.c ****   pack_lf();
 391:src/tranutil.c ****   pack_mem("KEY ENTRY                     : ", 32);
 392:src/tranutil.c ****   pack_mem("[+]       <0000>", 16);
 393:src/tranutil.c ****   pack_lf();
 394:src/tranutil.c ****   pack_mem("\x1bW1    TERMINAL OPTIONS    \x1bW0", 30);
 395:src/tranutil.c ****   pack_lf();
 396:src/tranutil.c ****   pack_mem("\x1bW1------------------------\x1bW0", 30);
 397:src/tranutil.c ****   pack_lf();
 398:src/tranutil.c ****   pack_mem("MASK PAN REPORTS              : ", 32);
 399:src/tranutil.c ****   pack_mem("[+]             ", 16);
 400:src/tranutil.c ****   pack_lf();
 401:src/tranutil.c ****   pack_mem("KEY ENTRY ALLOWED             : ", 32);
 402:src/tranutil.c ****   pack_mem("[-]             ", 16);
 403:src/tranutil.c ****   pack_lf();
 404:src/tranutil.c ****   pack_mem("CONSECUTIVE NOT ALLOWED       : ", 32);
 405:src/tranutil.c ****   pack_mem("[-]             ", 16);
 406:src/tranutil.c ****   pack_lf();
 407:src/tranutil.c ****   pack_mem("FALLBACK ALLOWED              : ", 32);
 408:src/tranutil.c ****   pack_mem("[-] <01>        ", 16);
 409:src/tranutil.c ****   pack_lf();
 410:src/tranutil.c ****   pack_mem("ARABIC APPROVED & DECLINE     : ", 32);
 411:src/tranutil.c ****   pack_mem("[+]             ", 16);
 412:src/tranutil.c ****   pack_lf();
 413:src/tranutil.c ****   pack_mem("FORCED DETAILED REPORT        : ", 32);
 414:src/tranutil.c ****   pack_mem("[+]             ", 16);
 415:src/tranutil.c ****   pack_lf();
 416:src/tranutil.c ****   pack_mem("BLOCK DOMESTIC BINS           : ", 32);
 417:src/tranutil.c ****   pack_mem("[-]             ", 16);
 418:src/tranutil.c ****   pack_lf();
 419:src/tranutil.c ****   pack_mem("INSTALLMENT ALLOWED           : ", 32);
 420:src/tranutil.c ****   pack_mem("[-]             ", 16);
 421:src/tranutil.c ****   pack_lf();
 422:src/tranutil.c ****   pack_mem("DCC ALLOWED                   : ", 32);
 423:src/tranutil.c ****   pack_mem("[+]             ", 16);
 424:src/tranutil.c ****   pack_lf();
 425:src/tranutil.c ****   pack_mem("\x1bW1      HOST OPTIONS      \x1bW0", 30);
 426:src/tranutil.c ****   pack_lf();
 427:src/tranutil.c ****   pack_mem("\x1bW1------------------------\x1bW0", 30);
 428:src/tranutil.c ****   pack_lf();
 429:src/tranutil.c ****   pack_mem("Terminal ID                   : ", 32);
 430:src/tranutil.c ****   pack_mem("()              ", 16);
 431:src/tranutil.c ****   pack_lf();
ARM GAS  C:\Users\AHMED~1.ELE\AppData\Local\Temp\cc98zNMh.s 			page 9


 432:src/tranutil.c ****   pack_mem("Merchant ID                   : ", 32);
 433:src/tranutil.c ****   pack_mem("()              ", 16);
 434:src/tranutil.c ****   pack_lf();
 435:src/tranutil.c ****   pack_mem("AMEX MID                      : ", 32);
 436:src/tranutil.c ****   pack_mem("()              ", 16);
 437:src/tranutil.c ****   pack_lf();
 438:src/tranutil.c ****   pack_mem("Premium MID                   : ", 32);
 439:src/tranutil.c ****   pack_mem("()              ", 16);
 440:src/tranutil.c ****   pack_lf();
 441:src/tranutil.c ****   pack_mem("MCC                           : ", 32);
 442:src/tranutil.c ****   pack_mem("()              ", 16);
 443:src/tranutil.c ****   pack_lf();
 444:src/tranutil.c ****   pack_mem("\x1bW1     COMMUNICATION      \x1bW0", 30);
 445:src/tranutil.c ****   pack_lf();
 446:src/tranutil.c ****   pack_mem("\x1bW1------------------------\x1bW0", 30);
 447:src/tranutil.c ****   pack_lf();
 448:src/tranutil.c ****   pack_mem("              SIGNAL SIM TERMINAL               ", 48);
 449:src/tranutil.c ****   pack_lf();
 450:src/tranutil.c ****   pack_mem("OPERATOR NAME                 : ", 32);
 451:src/tranutil.c ****   memset(buf, 0x20, sizeof(buf));
 452:src/tranutil.c ****  if(GetOptrName(buf, OPTR_NAME_SIZE) == TRUE) {
 453:src/tranutil.c ****      pack_mem(&buf[0], 16);
 454:src/tranutil.c ****   }
 455:src/tranutil.c ****   else {
 456:src/tranutil.c ****      pack_mem("()              ", 16);
 457:src/tranutil.c ****   }
 458:src/tranutil.c ****   pack_lf();
 459:src/tranutil.c ****   pack_mem("SIM ID                        : ", 32);
 460:src/tranutil.c ****     memset(sn, 0, sizeof(sn));
 461:src/tranutil.c ****   if (GetSimCCID(sn) == TRUE) {
 462:src/tranutil.c ****     pack_mem(&sn[1], 16);
 463:src/tranutil.c ****   }
 464:src/tranutil.c ****   else {
 465:src/tranutil.c ****    pack_mem("()              ", 16);
 466:src/tranutil.c ****   }
 467:src/tranutil.c ****   pack_lf();
 468:src/tranutil.c ****   pack_lf();
 469:src/tranutil.c **** 
 470:src/tranutil.c **** }
 471:src/tranutil.c **** 
 472:src/tranutil.c **** //*****************************************************************************
 473:src/tranutil.c **** //  Function        : PackFirst
 474:src/tranutil.c **** //  Description     : Pack receipt small.
 475:src/tranutil.c **** //  Input           : N/A
 476:src/tranutil.c **** //  Return          : N/A
 477:src/tranutil.c **** //  Note            : N/A
 478:src/tranutil.c **** //  Globals Changed : N/A
 479:src/tranutil.c **** //*****************************************************************************
 480:src/tranutil.c **** static void PackContents(BYTE aCustCopy)
 481:src/tranutil.c **** {
 482:src/tranutil.c ****     
 483:src/tranutil.c ****     DDWORD no_tips = -1;
 484:src/tranutil.c ****     BYTE trans, offset;
 485:src/tranutil.c ****     BYTE tmp[32];
 486:src/tranutil.c ****     BYTE buf[64];
 487:src/tranutil.c ****     struct DISP_AMT disp_amt;
 488:src/tranutil.c ****     struct DESC_TBL prod;
ARM GAS  C:\Users\AHMED~1.ELE\AppData\Local\Temp\cc98zNMh.s 			page 10


 489:src/tranutil.c ****     
 490:src/tranutil.c ****   //  PackLogo();             // Header line
 491:src/tranutil.c ****   //  pack_lf();
 492:src/tranutil.c **** 
 493:src/tranutil.c ****     //PackRcptHeader();
 494:src/tranutil.c ****    // pack_lf();
 495:src/tranutil.c **** 
 496:src/tranutil.c **** 
 497:src/tranutil.c **** 	//  pack_lf();
 498:src/tranutil.c ****   //pack_mem("\x1b""F0 PLEASE KEEP THIS COPY FOR YOUR RECORD", 48);
 499:src/tranutil.c ****   //  pack_lf();
 500:src/tranutil.c ****  // pack_mem("\x1b""F1    ******THANK YOU******    ", 32);
 501:src/tranutil.c **** 
 502:src/tranutil.c ****   pack_nbyte(' ', ((MAX_CHAR_LINE_NORMAL-23)/2));
 503:src/tranutil.c ****   pack_mem(STIS_TERM_CFG.sb_dflt_name, 23);
 504:src/tranutil.c ****   pack_lf();
 505:src/tranutil.c ****   pack_nbyte(' ', ((MAX_CHAR_LINE_NORMAL-23)/2));
 506:src/tranutil.c ****   pack_mem(STIS_TERM_CFG.sb_name_loc, 23); /* line 2 */
 507:src/tranutil.c ****   pack_lf();
 508:src/tranutil.c ****   pack_nbyte(' ', ((MAX_CHAR_LINE_NORMAL-23)/2));
 509:src/tranutil.c ****   pack_mem(&STIS_TERM_CFG.sb_name_loc[23], 23); /* line 3 */
 510:src/tranutil.c ****   pack_lf();
 511:src/tranutil.c ****   //   pack_mem("\x1B""B1", 3);  
 512:src/tranutil.c ****     pack_mem("POS ID :", 8);
 513:src/tranutil.c ****   pack_mem(STIS_ACQ_TBL(0).sb_term_id, 8);
 514:src/tranutil.c ****  //    pack_mem("\x1B""B0", 3);  
 515:src/tranutil.c ****   pack_lf();
 516:src/tranutil.c ****   memset(tmp,0, sizeof(tmp));
 517:src/tranutil.c ****   pack_mem("\x1B""W1", 3);
 518:src/tranutil.c ****   // pack_mem("\x1B""B1", 3);  
 519:src/tranutil.c ****    pack_space(1);
 520:src/tranutil.c ****      // Trans Name & Expiry date
 521:src/tranutil.c ****     trans = (P_DATA.b_trans_status & VOIDED) ? VOID : P_DATA.b_trans;
 522:src/tranutil.c ****     memcpy(tmp, GetConstMsg(KTransHeader[trans]),16);
 523:src/tranutil.c ****     // locate start pos of English transaction name
 524:src/tranutil.c **** 
 525:src/tranutil.c ****     pack_mem(tmp,16);
 526:src/tranutil.c ****  //   pack_mem("\x1B""B0", 3);  
 527:src/tranutil.c **** 	pack_mem("\x1B""W0", 3);  
 528:src/tranutil.c **** 	pack_lf();
 529:src/tranutil.c ****   // pack_mem("\x1B""B1", 3);  
 530:src/tranutil.c ****   pack_mem("MID: ", 5);
 531:src/tranutil.c ****   pack_mem(STIS_ACQ_TBL(0).sb_acceptor_id, 15);
 532:src/tranutil.c ****  //    pack_mem("\x1B""B0", 3);  
 533:src/tranutil.c ****   pack_lf();
 534:src/tranutil.c **** 
 535:src/tranutil.c ****    // Batch & Trace
 536:src/tranutil.c ****   pack_mem("RECEIPT:  ", 10);
 537:src/tranutil.c ****     split_data(STIS_ACQ_TBL(0).sb_curr_batch_no, 3);
 538:src/tranutil.c **** 	 pack_lf();
 539:src/tranutil.c **** 	 if(INPUT.b_trans == VOID){
 540:src/tranutil.c **** 	 
 541:src/tranutil.c **** 	 }else{
 542:src/tranutil.c **** 	  pack_mem("STAN:  ", 7);
 543:src/tranutil.c ****     split_data(INPUT.sb_trace_no, 3);
 544:src/tranutil.c ****     pack_lf(); 
 545:src/tranutil.c **** 	 }
ARM GAS  C:\Users\AHMED~1.ELE\AppData\Local\Temp\cc98zNMh.s 			page 11


 546:src/tranutil.c **** 
 547:src/tranutil.c **** 	 pack_space((BYTE)(MAX_CHAR_LINE_NORMAL-18)/2);
 548:src/tranutil.c ****   
 549:src/tranutil.c ****      memset(tmp,0, sizeof(tmp));
 550:src/tranutil.c **** 	  memset(buf,0, sizeof(buf));
 551:src/tranutil.c ****     // PAN
 552:src/tranutil.c ****     split(tmp, P_DATA.sb_pan, 8);
 553:src/tranutil.c ****    // if (MaskCardNo())
 554:src/tranutil.c **** 	  if (aCustCopy == 0) {
 555:src/tranutil.c **** 	 memset(&tmp[6],'*', 6);     // mask PAN
 556:src/tranutil.c **** 	sprintf(buf, "\x1bH1\x1bB1%.4s %.4s %.4s %.4s\x1bB0\x1bH0", tmp, &tmp[4],&tmp[8],&tmp[12]);
 557:src/tranutil.c ****     pack_str(buf);
 558:src/tranutil.c ****   }else{
 559:src/tranutil.c ****    //    memset(&tmp[0],'*', 12);     // mask PAN
 560:src/tranutil.c **** 	//sprintf(buf, "\x1bW1%.16s\x1bW0", tmp);
 561:src/tranutil.c ****   //  pack_str(buf);
 562:src/tranutil.c **** 	   memset(&tmp[6],'*', 6);     // mask PAN
 563:src/tranutil.c **** 	sprintf(buf, "\x1bH1\x1bB1%.4s %.4s %.4s %.4s\x1bB0\x1bH0", tmp, &tmp[4],&tmp[8],&tmp[12]);
 564:src/tranutil.c ****     pack_str(buf);
 565:src/tranutil.c ****   }
 566:src/tranutil.c ****    
 567:src/tranutil.c ****      pack_lf();
 568:src/tranutil.c **** if ((P_DATA.b_entry_mode == ICC) || (P_DATA.b_entry_mode == CONTACTLESS)) {
 569:src/tranutil.c ****     pack_mem(P_DATA.s_icc_data.sb_label, 4);
 570:src/tranutil.c ****     pack_byte('(');
 571:src/tranutil.c ****     pack_byte(P_DATA.b_entry_mode);
 572:src/tranutil.c ****     pack_byte(')');
 573:src/tranutil.c **** }
 574:src/tranutil.c ****          pack_lf();
 575:src/tranutil.c **** 	
 576:src/tranutil.c **** 		 memset(buf, 0x20, sizeof(buf));
 577:src/tranutil.c **** 		 sprintf(buf, "%s", STIS_ISS_TBL(0).sb_card_name);
 578:src/tranutil.c ****         pack_mem(buf, 10);
 579:src/tranutil.c ****         pack_space((BYTE)(MAX_CHAR_LINE_NORMAL-10-9+2));
 580:src/tranutil.c **** 		if (P_DATA.sb_exp_date[0] != 0) {
 581:src/tranutil.c ****         pack_mem("Exp:", 4);
 582:src/tranutil.c ****         split_data((BYTE *)&P_DATA.sb_exp_date[1], 1);
 583:src/tranutil.c ****         pack_byte('/');
 584:src/tranutil.c ****         split_data((BYTE *)&P_DATA.sb_exp_date[0], 1);
 585:src/tranutil.c **** 		}else{
 586:src/tranutil.c **** 		pack_mem("Exp:", 4);
 587:src/tranutil.c ****         pack_mem("XX", 2);
 588:src/tranutil.c ****         pack_byte('/');
 589:src/tranutil.c ****         pack_mem("XX", 2);
 590:src/tranutil.c **** 		}
 591:src/tranutil.c ****     pack_lf();
 592:src/tranutil.c **** 
 593:src/tranutil.c **** 	   if ((P_DATA.b_entry_mode == ICC) || (P_DATA.b_entry_mode == CONTACTLESS)) {
 594:src/tranutil.c ****         pack_mem("APPLICATION NAME: ", 18);
 595:src/tranutil.c ****         pack_mem(P_DATA.s_icc_data.sb_label, 14);
 596:src/tranutil.c ****         pack_lf();
 597:src/tranutil.c ****         pack_mem("AID    : ", 9);
 598:src/tranutil.c ****         split_data(P_DATA.s_icc_data.sb_aid, P_DATA.s_icc_data.b_aid_len); // !2009-01-15
 599:src/tranutil.c ****         pack_lf();
 600:src/tranutil.c ****         //20-10-15 JC ++
 601:src/tranutil.c ****     }
 602:src/tranutil.c **** 
ARM GAS  C:\Users\AHMED~1.ELE\AppData\Local\Temp\cc98zNMh.s 			page 12


 603:src/tranutil.c **** if(INPUT.b_trans == SALE_ICC ){
 604:src/tranutil.c **** pack_mem("PIN ENTERED", 11);
 605:src/tranutil.c **** pack_lf();
 606:src/tranutil.c **** }else if(INPUT.b_trans == REFUND_ICC || INPUT.b_trans == REFUND || INPUT.b_trans == SALE_OFFLINE ||
 607:src/tranutil.c **** 		pack_mem("MAGNETIC             OFFLINE PIN", 32);
 608:src/tranutil.c **** 		pack_lf();
 609:src/tranutil.c **** }
 610:src/tranutil.c ****                                                                               
 611:src/tranutil.c ****  }
 612:src/tranutil.c **** //*****************************************************************************
 613:src/tranutil.c **** //  Function        : PackContent
 614:src/tranutil.c **** //  Description     : Pack receipt contents.
 615:src/tranutil.c **** //  Input           : N/A
 616:src/tranutil.c **** //  Return          : N/A
 617:src/tranutil.c **** //  Note            : N/A
 618:src/tranutil.c **** //  Globals Changed : N/A
 619:src/tranutil.c **** //*****************************************************************************
 620:src/tranutil.c **** static void PackContent(BYTE aCustCopy)
 621:src/tranutil.c **** {
 622:src/tranutil.c ****   DDWORD no_tips = -1;
 623:src/tranutil.c ****   BYTE trans, offset;
 624:src/tranutil.c ****     BYTE tmp[32];
 625:src/tranutil.c ****     BYTE buf[64];
 626:src/tranutil.c ****   struct DISP_AMT disp_amt;
 627:src/tranutil.c ****   struct DESC_TBL prod;
 628:src/tranutil.c **** 
 629:src/tranutil.c **** 
 630:src/tranutil.c **** 
 631:src/tranutil.c ****   if (aCustCopy == 0) {
 632:src/tranutil.c ****   }else{
 633:src/tranutil.c ****     PackContents(aCustCopy);
 634:src/tranutil.c ****   }
 635:src/tranutil.c ****    // pack_mem("\x1B""B1", 3);  
 636:src/tranutil.c ****   //amount 
 637:src/tranutil.c ****     pack_mem("AMOUNT:", 7);
 638:src/tranutil.c ****   pack_space(MAX_CHAR_LINE_NORMAL-30);
 639:src/tranutil.c ****   if ((P_DATA.dd_tip == 0) && ((P_DATA.b_trans_status&VOIDED) == 0)) {
 640:src/tranutil.c ****   //  pack_mem(STIS_TERM_CFG.sb_currency_name, 3);
 641:src/tranutil.c **** 	   pack_mem(gCurInfo[P_DATA.currency].name, 3);    //15-10-15 JC ++
 642:src/tranutil.c ****   }
 643:src/tranutil.c ****   else {
 644:src/tranutil.c ****     ConvAmount(P_DATA.dd_amount, &disp_amt, STIS_TERM_CFG.b_decimal_pos, STIS_TERM_CFG.b_currency);
 645:src/tranutil.c ****     pack_space((BYTE)(22 - disp_amt.len));
 646:src/tranutil.c ****    // pack_mem(STIS_TERM_CFG.sb_currency_name, 3);
 647:src/tranutil.c **** 	 pack_mem(gCurInfo[P_DATA.currency].name, 3);    //15-10-15 JC ++
 648:src/tranutil.c ****     pack_mem(disp_amt.content, disp_amt.len);
 649:src/tranutil.c ****   }
 650:src/tranutil.c **** 
 651:src/tranutil.c ****   //   pack_mem("\x1B""B0", 3);  
 652:src/tranutil.c ****   pack_lf();
 653:src/tranutil.c ****     
 654:src/tranutil.c **** 	
 655:src/tranutil.c ****     
 656:src/tranutil.c **** 	if(INPUT.b_trans == SALE_ICC || INPUT.b_trans == SALE_OFFLINE || INPUT.b_trans == VOID || 1){
 657:src/tranutil.c **** 
 658:src/tranutil.c **** 	pack_mem("\x1bU1AUTH CODE : \x1bU0", 18);
 659:src/tranutil.c **** 	memset(buf,0, sizeof(buf));
ARM GAS  C:\Users\AHMED~1.ELE\AppData\Local\Temp\cc98zNMh.s 			page 13


 660:src/tranutil.c **** 	sprintf(buf, "\x1bW1\x1bU1%.6s\x1bW0\x1bU0", P_DATA.sb_auth_code);
 661:src/tranutil.c ****     pack_str(buf);
 662:src/tranutil.c ****      pack_lf();
 663:src/tranutil.c ****       // Batch & Trace
 664:src/tranutil.c ****     pack_mem("Batch:", 6);
 665:src/tranutil.c ****      split_data(STIS_ACQ_TBL(0).sb_curr_batch_no, 3);
 666:src/tranutil.c ****     pack_lf();
 667:src/tranutil.c **** 	//if (aCustCopy == 0) {
 668:src/tranutil.c **** 		pack_mem("\x1bH0\x1bW0\x1b""F0      PLEASE SIGN BELOW", 32);
 669:src/tranutil.c ****  pack_lf();
 670:src/tranutil.c ****  pack_lf();
 671:src/tranutil.c ****  pack_mem("  X_______________________", 26);
 672:src/tranutil.c ****  pack_lf();
 673:src/tranutil.c ****  // }else{
 674:src/tranutil.c ****    
 675:src/tranutil.c ****  // }
 676:src/tranutil.c ****  
 677:src/tranutil.c **** 
 678:src/tranutil.c **** 		if ((P_DATA.b_entry_mode == ICC) || (P_DATA.b_entry_mode == CONTACTLESS)) {
 679:src/tranutil.c **** 	 
 680:src/tranutil.c ****   if(RSP_DATA.b_response == TRANS_ACP){
 681:src/tranutil.c **** 	   pack_mem("Reject",6);
 682:src/tranutil.c **** 	  }else{
 683:src/tranutil.c ****  pack_mem("\x1bH0\x1bW1\x1b""F3\x20\x20\x20\x20\x20\x20\xB0\xA7\xE0\x8E\xA4\xA8\x20\xB0\xEA\xA7\xA8
 684:src/tranutil.c **** 	  }
 685:src/tranutil.c **** 		
 686:src/tranutil.c **** 		
 687:src/tranutil.c **** 				}else{
 688:src/tranutil.c **** 		 pack_mem("\x1bH0\x1bW1\x1b""F3\x20\x20\x20\x20\x20\x20\xB0\xA7\xE0\x8E\xA4\xA8\x20\xB0\xEA\xA7\x
 689:src/tranutil.c **** 					}
 690:src/tranutil.c **** 
 691:src/tranutil.c **** 	     pack_lf();
 692:src/tranutil.c ****         pack_mem("\x1bH0\x1bW0\x1b""F0",9);
 693:src/tranutil.c **** 		pack_lf();
 694:src/tranutil.c **** 	 os_rtc_get(buf);
 695:src/tranutil.c ****     pack_mem(buf, 4);
 696:src/tranutil.c ****     pack_mem("/", 1);
 697:src/tranutil.c ****     pack_mem(&buf[4], 2);
 698:src/tranutil.c ****     pack_mem("/", 1);
 699:src/tranutil.c ****     pack_mem(&buf[6], 2);
 700:src/tranutil.c ****     //pack_space(4);
 701:src/tranutil.c ****     pack_space((BYTE)(MAX_CHAR_LINE_NORMAL-10-8+2));
 702:src/tranutil.c ****     
 703:src/tranutil.c ****     pack_mem(&buf[8], 2);
 704:src/tranutil.c **** 	pack_mem(":", 1);
 705:src/tranutil.c ****     pack_mem(&buf[10], 2);
 706:src/tranutil.c ****     pack_mem(":", 1);
 707:src/tranutil.c ****     pack_mem(&buf[12], 2);//ss
 708:src/tranutil.c **** 	 pack_lf();
 709:src/tranutil.c ****   pack_mem("PlEASE DEBIT THE ABOVE FROM     ", 32);
 710:src/tranutil.c ****   	   pack_lf();
 711:src/tranutil.c ****   pack_mem("MY ACCOUNT                      ", 32);
 712:src/tranutil.c ****   	   pack_lf();
 713:src/tranutil.c ****  pack_mem(P_DATA.sb_holder_name, 26);
 714:src/tranutil.c ****      pack_lf();
 715:src/tranutil.c ****   pack_mem("I  AUTHORIZE TO DEBIT THE ABOVE ", 32);
 716:src/tranutil.c ****   	   pack_lf();
ARM GAS  C:\Users\AHMED~1.ELE\AppData\Local\Temp\cc98zNMh.s 			page 14


 717:src/tranutil.c ****   pack_mem("FROM  MY  ACCOUNT.I   CONFIRM   ", 32);
 718:src/tranutil.c ****   	   pack_lf();
 719:src/tranutil.c ****   pack_mem("RECEIPT OF MERCHANDIS INSIDE THE", 32);
 720:src/tranutil.c ****   	   pack_lf();
 721:src/tranutil.c ****   pack_mem("SHOP  AND  IN  A GOOD CONDITION ", 32);
 722:src/tranutil.c ****     	   pack_lf();
 723:src/tranutil.c ****   pack_mem("     * ALL   SALES   FINAL *    ", 32);
 724:src/tranutil.c ****     	   pack_lf();
 725:src/tranutil.c **** 		   if(aCustCopy == 0) {
 726:src/tranutil.c **** 		      pack_mem(" ******* CLIENT COPY *********  ", 32);
 727:src/tranutil.c **** 			 pack_lf();
 728:src/tranutil.c **** 		   }else{
 729:src/tranutil.c **** 			   pack_mem("******* MERCHANT COPY ********* ", 32);
 730:src/tranutil.c **** 		   
 731:src/tranutil.c **** 			 pack_lf();
 732:src/tranutil.c **** 		   
 733:src/tranutil.c **** 		   }
 734:src/tranutil.c **** 
 735:src/tranutil.c **** 
 736:src/tranutil.c ****   pack_mem("     ******THANK YOU******      ", 32);
 737:src/tranutil.c ****  // pack_lf();
 738:src/tranutil.c ****   //pack_lf();
 739:src/tranutil.c **** 	}else if(INPUT.b_trans == REFUND_ICC || INPUT.b_trans == REFUND){
 740:src/tranutil.c **** if (aCustCopy == 0) {
 741:src/tranutil.c ****   
 742:src/tranutil.c **** 
 743:src/tranutil.c **** 		// pack_mem("AUTH CODE:", 9);
 744:src/tranutil.c ****    // pack_mem(P_DATA.sb_auth_code, 6);
 745:src/tranutil.c ****    //  pack_lf();
 746:src/tranutil.c ****       // Batch & Trace
 747:src/tranutil.c ****     pack_mem("Batch:", 6);
 748:src/tranutil.c ****     split_data(STIS_ACQ_TBL(0).sb_curr_batch_no, 3);
 749:src/tranutil.c ****     pack_lf();
 750:src/tranutil.c **** 	//	if (aCustCopy == 0) {
 751:src/tranutil.c **** 		pack_mem("\x1bH0\x1bW0\x1b""F0      PLEASE SIGN BELOW", 32);
 752:src/tranutil.c ****  pack_lf();
 753:src/tranutil.c ****  pack_lf();
 754:src/tranutil.c ****  pack_mem("  X_______________________", 26);
 755:src/tranutil.c ****  pack_lf();
 756:src/tranutil.c ****  // }else{
 757:src/tranutil.c ****    
 758:src/tranutil.c ****  // }
 759:src/tranutil.c **** 	
 760:src/tranutil.c **** if ((P_DATA.b_entry_mode == ICC) || (P_DATA.b_entry_mode == CONTACTLESS)) {
 761:src/tranutil.c **** 			if(RSP_DATA.b_response == TRANS_ACP){
 762:src/tranutil.c **** 	   pack_mem("Reject",6);
 763:src/tranutil.c **** 	         }else{
 764:src/tranutil.c ****  pack_mem("\x1bH0\x1bW1\x1b""F3\x20\x20\x20\x20\x20\x20\xB0\xA7\xE0\x8E\xA4\xA8\x20\xB0\xEA\xA7\xA8
 765:src/tranutil.c **** 	            }
 766:src/tranutil.c **** }else{
 767:src/tranutil.c ****  pack_mem("\x1bH0\x1bW1\x1b""F3\x20\x20\x20\x20\x20\x20\xB0\xA7\xE0\x8E\xA4\xA8\x20\xB0\xEA\xA7\xA8
 768:src/tranutil.c **** }
 769:src/tranutil.c **** 
 770:src/tranutil.c ****    pack_lf();
 771:src/tranutil.c ****  pack_mem("\x1bH0\x1bW0\x1b""F0",9);
 772:src/tranutil.c **** 
 773:src/tranutil.c **** pack_lf();
ARM GAS  C:\Users\AHMED~1.ELE\AppData\Local\Temp\cc98zNMh.s 			page 15


 774:src/tranutil.c **** 	 os_rtc_get(buf);
 775:src/tranutil.c ****     pack_mem(buf, 4);
 776:src/tranutil.c ****     pack_mem("/", 1);
 777:src/tranutil.c ****     pack_mem(&buf[4], 2);
 778:src/tranutil.c ****     pack_mem("/", 1);
 779:src/tranutil.c ****     pack_mem(&buf[6], 2);
 780:src/tranutil.c ****     //pack_space(4);
 781:src/tranutil.c ****     pack_space((BYTE)(MAX_CHAR_LINE_NORMAL-10-8+2));
 782:src/tranutil.c ****     
 783:src/tranutil.c ****     pack_mem(&buf[8], 2);
 784:src/tranutil.c **** 	pack_mem(":", 1);
 785:src/tranutil.c ****     pack_mem(&buf[10], 2);
 786:src/tranutil.c ****     pack_mem(":", 1);
 787:src/tranutil.c ****     pack_mem(&buf[12], 2);//ss
 788:src/tranutil.c **** 	 pack_lf();
 789:src/tranutil.c ****   pack_mem("PlEASE CREDIT THE ABOVE FROM    ", 32);
 790:src/tranutil.c ****   	   pack_lf();
 791:src/tranutil.c ****   pack_mem("MY ACCOUNT                      ", 32);
 792:src/tranutil.c ****   	   pack_lf();
 793:src/tranutil.c ****  pack_mem(P_DATA.sb_holder_name, 26);
 794:src/tranutil.c ****      pack_lf();
 795:src/tranutil.c ****   pack_mem("I  AUTHORIZE TO CREDIT THE ABOVE", 32);
 796:src/tranutil.c ****   	   pack_lf();
 797:src/tranutil.c ****   pack_mem("FROM  MY  ACCOUNT.I   CONFIRM   ", 32);
 798:src/tranutil.c ****   	   pack_lf();
 799:src/tranutil.c ****   pack_mem("RECEIPT OF MERCHANDIS INSIDE THE", 32);
 800:src/tranutil.c ****   	   pack_lf();
 801:src/tranutil.c ****   pack_mem("SHOP  AND  IN  A GOOD CONDITION ", 32);
 802:src/tranutil.c ****     	   pack_lf();
 803:src/tranutil.c ****   pack_mem("     * ALL   SALES   FINAL *    ", 32);
 804:src/tranutil.c ****      pack_lf();
 805:src/tranutil.c ****    pack_mem(" ******* CLIENT COPY *********  ", 32);
 806:src/tranutil.c ****     	   pack_lf();
 807:src/tranutil.c ****   pack_mem("     ******THANK YOU******      ", 32);
 808:src/tranutil.c **** }else{
 809:src/tranutil.c **** 
 810:src/tranutil.c **** 	 pack_mem("Batch:", 6);
 811:src/tranutil.c ****     split_data(STIS_ACQ_TBL(0).sb_curr_batch_no, 3);
 812:src/tranutil.c ****     pack_lf();
 813:src/tranutil.c **** 	pack_mem("\x1bH0\x1bW0\x1b""F0      PLEASE SIGN BELOW", 32);
 814:src/tranutil.c ****  pack_lf();
 815:src/tranutil.c ****  pack_lf();
 816:src/tranutil.c ****  pack_mem("  X_______________________", 26);
 817:src/tranutil.c ****  pack_lf();
 818:src/tranutil.c **** 	
 819:src/tranutil.c **** if ((P_DATA.b_entry_mode == ICC) || (P_DATA.b_entry_mode == CONTACTLESS)) {
 820:src/tranutil.c **** 			if(RSP_DATA.b_response == TRANS_ACP){
 821:src/tranutil.c **** 	   pack_mem("Reject",6);
 822:src/tranutil.c **** 	  }else{
 823:src/tranutil.c ****    pack_mem("\x1bH0\x1bW1\x1b""F3\x20\x20\x20\x20\x20\x20\xB0\xA7\xE0\x8E\xA4\xA8\x20\xB0\xEA\xA7\x
 824:src/tranutil.c **** 	  }
 825:src/tranutil.c **** }else{
 826:src/tranutil.c ****  pack_mem("\x1bH0\x1bW1\x1b""F3\x20\x20\x20\x20\x20\x20\xB0\xA7\xE0\x8E\xA4\xA8\x20\xB0\xEA\xA7\xA8
 827:src/tranutil.c **** }
 828:src/tranutil.c **** 
 829:src/tranutil.c ****   pack_lf();
 830:src/tranutil.c ****  pack_mem("\x1bH0\x1bW0\x1b""F0",9);
ARM GAS  C:\Users\AHMED~1.ELE\AppData\Local\Temp\cc98zNMh.s 			page 16


 831:src/tranutil.c ****    pack_lf();
 832:src/tranutil.c **** 	 os_rtc_get(buf);
 833:src/tranutil.c ****     pack_mem(buf, 4);
 834:src/tranutil.c ****     pack_mem("/", 1);
 835:src/tranutil.c ****     pack_mem(&buf[4], 2);
 836:src/tranutil.c ****     pack_mem("/", 1);
 837:src/tranutil.c ****     pack_mem(&buf[6], 2);
 838:src/tranutil.c ****     //pack_space(4);
 839:src/tranutil.c ****     pack_space((BYTE)(MAX_CHAR_LINE_NORMAL-10-8+2));
 840:src/tranutil.c ****     
 841:src/tranutil.c ****     pack_mem(&buf[8], 2);
 842:src/tranutil.c **** 	pack_mem(":", 1);
 843:src/tranutil.c ****     pack_mem(&buf[10], 2);
 844:src/tranutil.c ****     pack_mem(":", 1);
 845:src/tranutil.c ****     pack_mem(&buf[12], 2);//ss
 846:src/tranutil.c **** 	 pack_lf();
 847:src/tranutil.c ****   pack_mem("\x1b""F1     PLEASE KEEP THIS COPY FOR YOUR RECORD      ", 51);
 848:src/tranutil.c ****        pack_lf();
 849:src/tranutil.c **** 	    pack_mem("******* MERCHANT COPY ********* ", 32);
 850:src/tranutil.c **** 
 851:src/tranutil.c ****     pack_lf();
 852:src/tranutil.c ****   pack_mem("\x1b""F0     ******THANK YOU******      ", 35);
 853:src/tranutil.c ****   }
 854:src/tranutil.c **** 	
 855:src/tranutil.c **** 	}
 856:src/tranutil.c **** 
 857:src/tranutil.c ****  // pack_lfs(2);
 858:src/tranutil.c **** 	
 859:src/tranutil.c **** }
 860:src/tranutil.c **** 
 861:src/tranutil.c **** //*****************************************************************************
 862:src/tranutil.c **** //  Function        : PackTxnconfig
 863:src/tranutil.c **** //  Description     : Ready transaction receipts.
 864:src/tranutil.c **** //  Input           : aReprint;     // TRUE => pack Reprint Line
 865:src/tranutil.c **** //  Return          : N/A
 866:src/tranutil.c **** //  Note            : N/A
 867:src/tranutil.c **** //  Globals Changed : N/A
 868:src/tranutil.c **** //*****************************************************************************
 869:src/tranutil.c **** static void PackTxnconfig()
 870:src/tranutil.c **** {
 871:src/tranutil.c **** 
 872:src/tranutil.c **** 	DispLineMW(GetConstMsg(EDC_FN_PRINT_REPORT), MW_LINE1, MW_CLRDISP|MW_REVERSE|MW_CENTER|MW_BIGFONT)
 873:src/tranutil.c ****     Disp2x16Msg(GetConstMsg(EDC_EMV_PROCESSING),MW_LINE5, MW_BIGFONT);
 874:src/tranutil.c **** 
 875:src/tranutil.c ****  // if (!PrintReqd())
 876:src/tranutil.c ****   //  return;
 877:src/tranutil.c **** 
 878:src/tranutil.c ****   MsgBufSetup();
 879:src/tranutil.c ****   Packconfig();
 880:src/tranutil.c ****   PackMsgBufLen();
 881:src/tranutil.c **** }
 882:src/tranutil.c **** 
 883:src/tranutil.c **** 
 884:src/tranutil.c **** //*****************************************************************************
 885:src/tranutil.c **** //  Function        : PackTxnissuer
 886:src/tranutil.c **** //  Description     : Ready transaction receipts.
 887:src/tranutil.c **** //  Input           : aReprint;     // TRUE => pack Reprint Line
ARM GAS  C:\Users\AHMED~1.ELE\AppData\Local\Temp\cc98zNMh.s 			page 17


 888:src/tranutil.c **** //  Return          : N/A
 889:src/tranutil.c **** //  Note            : N/A
 890:src/tranutil.c **** //  Globals Changed : N/A
 891:src/tranutil.c **** //*****************************************************************************
 892:src/tranutil.c **** static void PackTxnissuer()
 893:src/tranutil.c **** {
 894:src/tranutil.c ****  // if (!PrintReqd())
 895:src/tranutil.c ****   //  return;
 896:src/tranutil.c **** 
 897:src/tranutil.c ****   MsgBufSetup();
 898:src/tranutil.c ****   Packissuer();
 899:src/tranutil.c ****   PackFF();
 900:src/tranutil.c ****   PackMsgBufLen();
 901:src/tranutil.c **** }
 902:src/tranutil.c **** 
 903:src/tranutil.c **** 
 904:src/tranutil.c **** //*****************************************************************************
 905:src/tranutil.c **** //  Function        : PackTxnSlip
 906:src/tranutil.c **** //  Description     : Ready transaction receipts.
 907:src/tranutil.c **** //  Input           : aReprint;     // TRUE => pack Reprint Line
 908:src/tranutil.c **** //  Return          : N/A
 909:src/tranutil.c **** //  Note            : N/A
 910:src/tranutil.c **** //  Globals Changed : N/A
 911:src/tranutil.c **** //*****************************************************************************
 912:src/tranutil.c **** static void PackTxnSlip(BOOLEAN header,BOOLEAN aReprint, BYTE aCustCopy)
 913:src/tranutil.c **** {
 914:src/tranutil.c ****  // if (!PrintReqd())
 915:src/tranutil.c ****   //  return;
 916:src/tranutil.c **** 
 917:src/tranutil.c ****   MsgBufSetup();
 918:src/tranutil.c ****   if(header)
 919:src/tranutil.c ****   PackContents(aCustCopy);
 920:src/tranutil.c ****   else{
 921:src/tranutil.c ****   PackContent(aCustCopy);
 922:src/tranutil.c ****   PackFF();
 923:src/tranutil.c ****   }
 924:src/tranutil.c ****   if (aReprint) {
 925:src/tranutil.c ****     pack_lf();
 926:src/tranutil.c ****     pack_mem("\x1BW1****REPRINT****\x1BW0", 21);
 927:src/tranutil.c ****   }
 928:src/tranutil.c ****  
 929:src/tranutil.c ****   PackMsgBufLen();
 930:src/tranutil.c ****   if (aReprint == FALSE && header==FALSE)
 931:src/tranutil.c ****     SaveLastRcpt(MSG_BUF.sb_content, MSG_BUF.d_len);
 932:src/tranutil.c **** }
 933:src/tranutil.c **** 
 934:src/tranutil.c **** 
 935:src/tranutil.c **** 
 936:src/tranutil.c **** //*****************************************************************************
 937:src/tranutil.c **** //  Function        : Packprintconfig
 938:src/tranutil.c **** //  Description     : Pack config receipt.
 939:src/tranutil.c **** //  Input           : aReprint;     // TRUE=>for reprint.
 940:src/tranutil.c **** //  Return          : N/A
 941:src/tranutil.c **** //  Note            : N/A
 942:src/tranutil.c **** //  Globals Changed : p_data;
 943:src/tranutil.c **** //*****************************************************************************
 944:src/tranutil.c **** void Packprintissuer(void)
ARM GAS  C:\Users\AHMED~1.ELE\AppData\Local\Temp\cc98zNMh.s 			page 18


 945:src/tranutil.c **** {
 946:src/tranutil.c **** 	PackTxnissuer();
 947:src/tranutil.c ****   PrintBuf(MSG_BUF.sb_content, MSG_BUF.d_len, FALSE, TRUE);
 948:src/tranutil.c ****   DispClrBelowMW(MW_LINE9);
 949:src/tranutil.c **** }
 950:src/tranutil.c **** 
 951:src/tranutil.c **** 
 952:src/tranutil.c **** //*****************************************************************************
 953:src/tranutil.c **** //  Function        : Packprintconfig
 954:src/tranutil.c **** //  Description     : Pack config receipt.
 955:src/tranutil.c **** //  Input           : aReprint;     // TRUE=>for reprint.
 956:src/tranutil.c **** //  Return          : N/A
 957:src/tranutil.c **** //  Note            : N/A
 958:src/tranutil.c **** //  Globals Changed : p_data;
 959:src/tranutil.c **** //*****************************************************************************
 960:src/tranutil.c **** void Packprintconfig(void)
 961:src/tranutil.c **** {
 962:src/tranutil.c **** 	PackTxnconfig();
 963:src/tranutil.c ****   PrintBuf(MSG_BUF.sb_content, MSG_BUF.d_len, FALSE, FALSE);
 964:src/tranutil.c ****   DispClrBelowMW(MW_LINE9);
 965:src/tranutil.c **** }
 966:src/tranutil.c **** 
 967:src/tranutil.c **** //*****************************************************************************
 968:src/tranutil.c **** //  Function        : PackRecordP
 969:src/tranutil.c **** //  Description     : Pack data from RECORD_BUF to p_data & ready receipt.
 970:src/tranutil.c **** //  Input           : aReprint;     // TRUE=>for reprint.
 971:src/tranutil.c **** //  Return          : N/A
 972:src/tranutil.c **** //  Note            : N/A
 973:src/tranutil.c **** //  Globals Changed : p_data;
 974:src/tranutil.c **** //*****************************************************************************
 975:src/tranutil.c **** void PackHeader(void)
 976:src/tranutil.c **** {
 977:src/tranutil.c **** 
 978:src/tranutil.c **** 	 DDWORD no_tips = -1;
 979:src/tranutil.c **** 
 980:src/tranutil.c ****   ByteCopy((BYTE *)&P_DATA.b_trans, (BYTE *)&INPUT.b_trans, (DWORD)((DWORD)&P_DATA.b_type-(DWORD)&P
 981:src/tranutil.c ****   ByteCopy((BYTE *)&P_DATA.s_icc_data, (BYTE *)&INPUT.s_icc_data, sizeof(struct ICC_DATA));
 982:src/tranutil.c ****   ByteCopy((BYTE *)&P_DATA.s_dtg, (BYTE *)&RSP_DATA.s_dtg, sizeof(struct DATETIME));
 983:src/tranutil.c **** 
 984:src/tranutil.c ****   PackTxnSlip(TRUE,FALSE, 0);
 985:src/tranutil.c ****   PrintBuf(MSG_BUF.sb_content, MSG_BUF.d_len, FALSE, FALSE);
 986:src/tranutil.c ****   DispClrBelowMW(MW_LINE9);
 987:src/tranutil.c **** }
 988:src/tranutil.c **** 
 989:src/tranutil.c **** 
 990:src/tranutil.c **** //*****************************************************************************
 991:src/tranutil.c **** //  Function        : PackRecordP
 992:src/tranutil.c **** //  Description     : Pack data from RECORD_BUF to p_data & ready receipt.
 993:src/tranutil.c **** //  Input           : aReprint;     // TRUE=>for reprint.
 994:src/tranutil.c **** //  Return          : N/A
 995:src/tranutil.c **** //  Note            : N/A
 996:src/tranutil.c **** //  Globals Changed : p_data;
 997:src/tranutil.c **** //*****************************************************************************
 998:src/tranutil.c **** void PackRecordP(BOOLEAN aReprint)
 999:src/tranutil.c **** {
1000:src/tranutil.c ****   DDWORD no_tips = -1;
1001:src/tranutil.c **** 
ARM GAS  C:\Users\AHMED~1.ELE\AppData\Local\Temp\cc98zNMh.s 			page 19


1002:src/tranutil.c ****   ByteCopy((BYTE *)&P_DATA, (BYTE *)&RECORD_BUF, (BYTE *)&P_DATA.b_type-(BYTE *)&P_DATA.b_trans);
1003:src/tranutil.c ****   ByteCopy((BYTE *)&P_DATA.s_icc_data, (BYTE *)&RECORD_BUF.s_icc_data, sizeof(struct ICC_DATA));
1004:src/tranutil.c ****   P_DATA.dd_base_amount=P_DATA.dd_amount;
1005:src/tranutil.c ****   RSP_DATA.w_rspcode = 'A'*256+'P';
1006:src/tranutil.c ****   // !2007-05-23++
1007:src/tranutil.c ****   P_DATA.w_rspcode = RECORD_BUF.w_rspcode;
1008:src/tranutil.c ****   P_DATA.b_PinVerified = RECORD_BUF.b_PinVerified;
1009:src/tranutil.c ****   // !2007-05-23--
1010:src/tranutil.c **** 
1011:src/tranutil.c ****   if (TIPsReqd() && SaleType(RECORD_BUF.b_trans))
1012:src/tranutil.c ****     P_DATA.dd_base_amount -= P_DATA.dd_tip;
1013:src/tranutil.c ****   else
1014:src/tranutil.c ****     P_DATA.dd_tip = no_tips;
1015:src/tranutil.c **** 
1016:src/tranutil.c ****  if(INPUT.b_trans == VOID){
1017:src/tranutil.c **** 	 PackTxnSlip(FALSE,FALSE, 1);
1018:src/tranutil.c ****  }else{
1019:src/tranutil.c ****    PackTxnSlip(FALSE,FALSE, 0);
1020:src/tranutil.c ****  }
1021:src/tranutil.c **** }
1022:src/tranutil.c **** //*****************************************************************************
1023:src/tranutil.c **** //  Function        : PackInputP
1024:src/tranutil.c **** //  Description     : Pack data from input to p_data & ready receipt.
1025:src/tranutil.c **** //  Input           : N/A
1026:src/tranutil.c **** //  Return          : N/A
1027:src/tranutil.c **** //  Note            : N/A
1028:src/tranutil.c **** //  Globals Changed : p_data;
1029:src/tranutil.c **** //*****************************************************************************
1030:src/tranutil.c **** void PackInputP(void)
1031:src/tranutil.c **** {
1032:src/tranutil.c ****   DDWORD no_tips = -1;
1033:src/tranutil.c **** 
1034:src/tranutil.c ****   ByteCopy((BYTE *)&P_DATA.b_trans, (BYTE *)&INPUT.b_trans, (DWORD)((DWORD)&P_DATA.b_type-(DWORD)&P
1035:src/tranutil.c ****   ByteCopy((BYTE *)&P_DATA.s_icc_data, (BYTE *)&INPUT.s_icc_data, sizeof(struct ICC_DATA));
1036:src/tranutil.c ****   ByteCopy((BYTE *)&P_DATA.s_dtg, (BYTE *)&RSP_DATA.s_dtg, sizeof(struct DATETIME));
1037:src/tranutil.c ****   memcpy(P_DATA.sb_rrn, &RSP_DATA.sb_rrn, sizeof(P_DATA.sb_rrn));
1038:src/tranutil.c ****   memcpy(P_DATA.sb_auth_code, &RSP_DATA.sb_auth_code, sizeof(P_DATA.sb_auth_code));
1039:src/tranutil.c ****   P_DATA.w_rspcode = RSP_DATA.w_rspcode;
1040:src/tranutil.c ****   P_DATA.b_PinVerified = RSP_DATA.b_PinVerified;
1041:src/tranutil.c ****   P_DATA.b_type = CUS_SLIP;
1042:src/tranutil.c ****   P_DATA.dd_base_amount = INPUT.dd_amount; /* base amount */
1043:src/tranutil.c ****   if (TIPsReqd() && SaleType(INPUT.b_trans)) {
1044:src/tranutil.c ****     P_DATA.dd_tip = INPUT.dd_tip;
1045:src/tranutil.c ****     P_DATA.dd_base_amount -= INPUT.dd_tip;
1046:src/tranutil.c ****   }
1047:src/tranutil.c ****   else
1048:src/tranutil.c ****     P_DATA.dd_tip = no_tips;
1049:src/tranutil.c ****  if(INPUT.b_trans == VOID){
1050:src/tranutil.c **** 	 PackTxnSlip(FALSE,FALSE, 1);
1051:src/tranutil.c ****  }else{
1052:src/tranutil.c ****    PackTxnSlip(FALSE,FALSE, 0);
1053:src/tranutil.c ****  }
1054:src/tranutil.c **** }
1055:src/tranutil.c **** //*****************************************************************************
1056:src/tranutil.c **** //  Function        : DispHeader
1057:src/tranutil.c **** //  Description     : Display transaction header.
1058:src/tranutil.c **** //  Input           : aCardName;  // pointer to card name
ARM GAS  C:\Users\AHMED~1.ELE\AppData\Local\Temp\cc98zNMh.s 			page 20


1059:src/tranutil.c **** //  Return          : N/A
1060:src/tranutil.c **** //  Note            : N/A
1061:src/tranutil.c **** //  Globals Changed : N/A
1062:src/tranutil.c **** //*****************************************************************************
1063:src/tranutil.c **** void DispHeader(BYTE *aCardName)
1064:src/tranutil.c **** {
1065:src/tranutil.c ****   BYTE tmpbuf[MW_MAX_LINESIZE+1];
1066:src/tranutil.c **** 
1067:src/tranutil.c ****   DispLineMW(GetConstMsg(KTransHeader[INPUT.b_trans]), MW_LINE1, MW_CLRDISP|MW_REVERSE|MW_CENTER|MW
1068:src/tranutil.c **** 
1069:src/tranutil.c ****   if (aCardName != NULL) {
1070:src/tranutil.c ****     memset(tmpbuf, 0, sizeof(tmpbuf));
1071:src/tranutil.c ****     memcpy(tmpbuf, aCardName, 10);
1072:src/tranutil.c ****     DispLineMW(tmpbuf, MW_LINE3, MW_BIGFONT);
1073:src/tranutil.c ****   }
1074:src/tranutil.c **** }
1075:src/tranutil.c **** //*****************************************************************************
1076:src/tranutil.c **** //  Function        : SetRspCode
1077:src/tranutil.c **** //  Description     : Update the rspdata.w_rspcode with INPUT.
1078:src/tranutil.c **** //  Input           : N/A
1079:src/tranutil.c **** //  Return          : N/A
1080:src/tranutil.c **** //  Note            : N/A
1081:src/tranutil.c **** //  Globals Changed : hst_rsp_data;
1082:src/tranutil.c **** //*****************************************************************************
1083:src/tranutil.c **** void SetRspCode(WORD aRspCode)
1084:src/tranutil.c **** {
1085:src/tranutil.c ****   RSP_DATA.w_rspcode = aRspCode;
1086:src/tranutil.c **** }
1087:src/tranutil.c **** //*****************************************************************************
1088:src/tranutil.c **** //  Function        : ClearResponse
1089:src/tranutil.c **** //  Description     : Clear host gGTS.b_response data.
1090:src/tranutil.c **** //  Input           : N/A
1091:src/tranutil.c **** //  Return          : N/A
1092:src/tranutil.c **** //  Note            : N/A
1093:src/tranutil.c **** //  Globals Changed : hst_rsp_data;
1094:src/tranutil.c **** //*****************************************************************************
1095:src/tranutil.c **** void ClearResponse(void)
1096:src/tranutil.c **** {
1097:src/tranutil.c ****   RSP_DATA.text[0] = 0;
1098:src/tranutil.c ****   memset(&RSP_DATA.text[1], ' ', 69);
1099:src/tranutil.c ****   memset(RSP_DATA.sb_rrn, ' ', 12);
1100:src/tranutil.c ****   RSP_DATA.b_response = TRANS_FAIL;
1101:src/tranutil.c ****   RSP_DATA.w_rspcode = 'N'*256+'C';
1102:src/tranutil.c **** }
1103:src/tranutil.c **** //*****************************************************************************
1104:src/tranutil.c **** //  Function        : ConfirmCard
1105:src/tranutil.c **** //  Description     : Prompt user to comfirm card data.
1106:src/tranutil.c **** //  Input           : N/A
1107:src/tranutil.c **** //  Return          : TRUE;   // confirmed
1108:src/tranutil.c **** //                    FALSE;  // CANCEL
1109:src/tranutil.c **** //  Note            : N/A
1110:src/tranutil.c **** //  Globals Changed : N/A
1111:src/tranutil.c **** //*****************************************************************************
1112:src/tranutil.c **** BOOLEAN ConfirmCard(void)
1113:src/tranutil.c **** {
1114:src/tranutil.c ****   BYTE buffer[4];
1115:src/tranutil.c ****   BYTE tmpbuf[MW_MAX_LINESIZE+1];
ARM GAS  C:\Users\AHMED~1.ELE\AppData\Local\Temp\cc98zNMh.s 			page 21


1116:src/tranutil.c ****   DWORD i, keyin;
1117:src/tranutil.c ****   if ((INPUT.b_entry_mode == MANUAL) || !DispMSRReqd())
1118:src/tranutil.c ****     return TRUE;
1119:src/tranutil.c **** 
1120:src/tranutil.c ****   DispClrBelowMW(MW_LINE3);
1121:src/tranutil.c ****   memset(tmpbuf, 0, sizeof(tmpbuf));
1122:src/tranutil.c ****   memcpy(tmpbuf, STIS_ISS_TBL(0).sb_card_name,10);
1123:src/tranutil.c ****   DispLineMW(tmpbuf, MW_LINE4, MW_SMFONT);
1124:src/tranutil.c **** 
1125:src/tranutil.c ****   split(&tmpbuf[1],INPUT.sb_pan, 10);
1126:src/tranutil.c ****   tmpbuf[0] = (BYTE) fndb(&tmpbuf[1], 'F', 19);
1127:src/tranutil.c ****   tmpbuf[1+tmpbuf[0]] = 0;
1128:src/tranutil.c ****   DispLineMW(&tmpbuf[1], MW_LINE5, MW_SPFONT);
1129:src/tranutil.c **** 
1130:src/tranutil.c ****   if (ExpDateReqd()) {
1131:src/tranutil.c ****     split(buffer, INPUT.sb_exp_date, 2);
1132:src/tranutil.c ****     sprintf(tmpbuf, "EXP DATE : %c%c/%c%c", buffer[2], buffer[3], buffer[0], buffer[1]);
1133:src/tranutil.c ****     DispLineMW(tmpbuf, MW_LINE6, MW_SMFONT);
1134:src/tranutil.c ****   }
1135:src/tranutil.c **** 
1136:src/tranutil.c ****   for (i = 20; i ; i--) {
1137:src/tranutil.c ****     if (INPUT.sb_holder_name[i] != ' ')
1138:src/tranutil.c ****       break;
1139:src/tranutil.c ****   }
1140:src/tranutil.c ****   memset(tmpbuf, 0, sizeof(tmpbuf));
1141:src/tranutil.c ****   memcpy(tmpbuf, INPUT.sb_holder_name, (BYTE) (i + 1));
1142:src/tranutil.c ****   DispLineMW(tmpbuf, MW_LINE7, MW_BIGFONT);
1143:src/tranutil.c **** 
1144:src/tranutil.c ****   do {
1145:src/tranutil.c ****     keyin=APM_WaitKey(KBD_TIMEOUT,0);
1146:src/tranutil.c ****     if (keyin == MWKEY_CANCL)
1147:src/tranutil.c ****       return(FALSE);
1148:src/tranutil.c ****   } while (keyin != MWKEY_ENTER);
1149:src/tranutil.c **** 
1150:src/tranutil.c **** 
1151:src/tranutil.c ****   return(TRUE);
1152:src/tranutil.c **** }
1153:src/tranutil.c **** //*****************************************************************************
1154:src/tranutil.c **** //  Function        : TransAllowed
1155:src/tranutil.c **** //  Description     : Check Whether Transaction is allowed
1156:src/tranutil.c **** //  Input           : N/A
1157:src/tranutil.c **** //  Return          : N/A
1158:src/tranutil.c **** //  Note            : N/A
1159:src/tranutil.c **** //  Globals Changed : N/A
1160:src/tranutil.c **** //*****************************************************************************
1161:src/tranutil.c **** BOOLEAN TransAllowed(DWORD aInputMode)
1162:src/tranutil.c **** {
1163:src/tranutil.c ****   BOOLEAN tips_req;
1164:src/tranutil.c **** 
1165:src/tranutil.c ****   if (STIS_TERM_DATA.b_stis_mode < TRANS_MODE) {
1166:src/tranutil.c ****     DispErrorMsg(GetConstMsg(EDC_TU_NOT_ALLOW));
1167:src/tranutil.c ****     return FALSE;
1168:src/tranutil.c ****   }
1169:src/tranutil.c **** 
1170:src/tranutil.c ****   switch (INPUT.b_trans) {
1171:src/tranutil.c ****     case AUTH_SWIPE:
1172:src/tranutil.c ****     case AUTH_MANUAL:
ARM GAS  C:\Users\AHMED~1.ELE\AppData\Local\Temp\cc98zNMh.s 			page 22


1173:src/tranutil.c ****       if (AuthBlocked()) {
1174:src/tranutil.c ****         DispErrorMsg(GetConstMsg(EDC_TU_NOT_ALLOW));
1175:src/tranutil.c ****         return FALSE;
1176:src/tranutil.c ****       }
1177:src/tranutil.c ****       break;
1178:src/tranutil.c ****     case OFFLINE:
1179:src/tranutil.c ****       if (!OfflineAllowed()) {
1180:src/tranutil.c ****         DispErrorMsg(GetConstMsg(EDC_TU_NOT_ALLOW));
1181:src/tranutil.c ****         return FALSE;
1182:src/tranutil.c ****       }
1183:src/tranutil.c ****       break;
1184:src/tranutil.c ****     case REFUND:
1185:src/tranutil.c ****       if (RefundBlocked()) {
1186:src/tranutil.c ****         DispErrorMsg(GetConstMsg(EDC_TU_NOT_ALLOW));
1187:src/tranutil.c ****         return FALSE;
1188:src/tranutil.c ****       }
1189:src/tranutil.c ****       break;
1190:src/tranutil.c ****   }
1191:src/tranutil.c **** 
1192:src/tranutil.c ****   if (BlockLocalTrans()) {
1193:src/tranutil.c ****     DispErrorMsg(GetConstMsg(EDC_TU_NOT_ALLOW));
1194:src/tranutil.c ****     return FALSE;
1195:src/tranutil.c ****   }
1196:src/tranutil.c ****   if ((aInputMode == MANUAL) &&
1197:src/tranutil.c ****       (BlockLocalManual()||!ManualEntryAllow()) ) {
1198:src/tranutil.c ****     DispErrorMsg(GetConstMsg(EDC_TU_NOT_ALLOW));
1199:src/tranutil.c ****     return FALSE;
1200:src/tranutil.c ****   }
1201:src/tranutil.c ****   if ((aInputMode == SWIPE)&&BlockLocalSwipe()) {
1202:src/tranutil.c ****     DispErrorMsg(GetConstMsg(EDC_TU_NOT_ALLOW));
1203:src/tranutil.c ****     return FALSE;
1204:src/tranutil.c ****   }
1205:src/tranutil.c ****   if (HostSettlePending() || APM_BatchFull(INPUT.w_host_idx)) {
1206:src/tranutil.c ****     DispErrorMsg(GetConstMsg(EDC_TU_CLOSE_BATCH));
1207:src/tranutil.c ****     return FALSE;
1208:src/tranutil.c ****   }
1209:src/tranutil.c **** 
1210:src/tranutil.c ****   if (INPUT.b_trans != SALE_OFFLINE) {
1211:src/tranutil.c ****     PackComm(INPUT.w_host_idx, FALSE);
1212:src/tranutil.c ****     APM_PreConnect();
1213:src/tranutil.c ****   }
1214:src/tranutil.c **** 
1215:src/tranutil.c ****   while (TRUE) {
1216:src/tranutil.c ****     if (INPUT.b_entry_mode != MANUAL)
1217:src/tranutil.c ****       Short1Beep();
1218:src/tranutil.c **** 
1219:src/tranutil.c ****    // if (!ConfirmCard())
1220:src/tranutil.c ****     //  break;
1221:src/tranutil.c **** 
1222:src/tranutil.c ****     if (!GetExpDate())
1223:src/tranutil.c ****       break;
1224:src/tranutil.c **** 
1225:src/tranutil.c ****     //if ((INPUT.b_entry_mode == MANUAL) && ManualPSWReqd()) {
1226:src/tranutil.c ****     //  if (A21_PSWGet(NULL, P_MANUAL) != PASSWORD_OK)
1227:src/tranutil.c ****     //    break;
1228:src/tranutil.c ****     //  DispHeader(NULL);
1229:src/tranutil.c ****     //}
ARM GAS  C:\Users\AHMED~1.ELE\AppData\Local\Temp\cc98zNMh.s 			page 23


1230:src/tranutil.c **** 
1231:src/tranutil.c ****     if (INPUT.b_trans == REFUND)
1232:src/tranutil.c ****       tips_req = 0;
1233:src/tranutil.c ****     else
1234:src/tranutil.c ****       tips_req = TIPsReqd();
1235:src/tranutil.c **** 
1236:src/tranutil.c ****     if (INPUT.dd_amount == 0) {
1237:src/tranutil.c ****       if (!GetAmount(tips_req, 0))
1238:src/tranutil.c ****         break;
1239:src/tranutil.c ****     }
1240:src/tranutil.c **** 
1241:src/tranutil.c ****     if (INPUT.b_trans != AUTH_SWIPE) {
1242:src/tranutil.c ****       if (!GetProductCode())
1243:src/tranutil.c ****         break;
1244:src/tranutil.c ****       DispHeader(NULL);
1245:src/tranutil.c ****     }
1246:src/tranutil.c ****     else
1247:src/tranutil.c ****       memset(INPUT.sb_product, 0xFF, sizeof(INPUT.sb_product));
1248:src/tranutil.c **** 
1249:src/tranutil.c ****     if ((Prompt4DBC())&&
1250:src/tranutil.c ****         (INPUT.b_trans != SALE_OFFLINE)) {
1251:src/tranutil.c ****       if (!Get4DBC())
1252:src/tranutil.c ****         break;
1253:src/tranutil.c ****     }
1254:src/tranutil.c ****     else
1255:src/tranutil.c ****       memset(INPUT.sb_amex_4DBC, 0x00, sizeof(INPUT.sb_amex_4DBC));
1256:src/tranutil.c **** 
1257:src/tranutil.c ****     GetEcrRef(TRUE);
1258:src/tranutil.c **** 
1259:src/tranutil.c ****     DispHeader(NULL);
1260:src/tranutil.c ****     if (INPUT.b_trans != SALE_OFFLINE) {
1261:src/tranutil.c ****       if (!GetPIN())
1262:src/tranutil.c ****         break;
1263:src/tranutil.c ****     }
1264:src/tranutil.c ****     return TRUE;
1265:src/tranutil.c ****   }
1266:src/tranutil.c **** 
1267:src/tranutil.c ****   APM_ResetComm();
1268:src/tranutil.c ****   return FALSE;
1269:src/tranutil.c **** }
1270:src/tranutil.c **** //*****************************************************************************
1271:src/tranutil.c **** //  Function        : PackRspText
1272:src/tranutil.c **** //  Description     : Update response text base on rspcode.
1273:src/tranutil.c **** //  Input           : N/A
1274:src/tranutil.c **** //  Return          : N/A
1275:src/tranutil.c **** //  Note            : N/A
1276:src/tranutil.c **** //  Globals Changed : N/A
1277:src/tranutil.c **** //*****************************************************************************
1278:src/tranutil.c **** void PackRspText(void)
1279:src/tranutil.c **** {
1280:src/tranutil.c ****   BYTE var_i;
1281:src/tranutil.c ****   BYTE *pMsg;
1282:src/tranutil.c **** 
1283:src/tranutil.c ****   if (RSP_DATA.text[0] != 0)
1284:src/tranutil.c ****     return;
1285:src/tranutil.c **** 
1286:src/tranutil.c ****   var_i = 0;
ARM GAS  C:\Users\AHMED~1.ELE\AppData\Local\Temp\cc98zNMh.s 			page 24


1287:src/tranutil.c ****   while ((KRspText[var_i].w_idx != RSP_DATA.w_rspcode) &&
1288:src/tranutil.c ****          (KRspText[var_i].w_idx != '*'*256+'*'))
1289:src/tranutil.c ****     var_i += 1;
1290:src/tranutil.c **** 
1291:src/tranutil.c ****   memset(&RSP_DATA.text[1], ' ', 40);
1292:src/tranutil.c **** 
1293:src/tranutil.c ****   pMsg = GetConstMsg(KRspText[var_i].d_text_id);
1294:src/tranutil.c ****   memcpy(&RSP_DATA.text[1], pMsg, 16);
1295:src/tranutil.c ****   memcpy(&RSP_DATA.text[21],&pMsg[16], 16);
1296:src/tranutil.c ****   if (RSP_DATA.w_rspcode == 'A'*256+'P')
1297:src/tranutil.c ****     memcpy(&RSP_DATA.text[31], RSP_DATA.sb_auth_code, 6);
1298:src/tranutil.c ****   else if (RSP_DATA.w_rspcode == '0'*256+'2')
1299:src/tranutil.c ****     memcpy(&RSP_DATA.text[11], RSP_DATA.sb_auth_code, 6);
1300:src/tranutil.c ****   RSP_DATA.text[0] = 40;
1301:src/tranutil.c **** }
1302:src/tranutil.c **** //*****************************************************************************
1303:src/tranutil.c **** //  Function        : DispRspText
1304:src/tranutil.c **** //  Description     : Display Response text.
1305:src/tranutil.c **** //  Input           : N/A
1306:src/tranutil.c **** //  Return          : N/A
1307:src/tranutil.c **** //  Note            : N/A
1308:src/tranutil.c **** //  Globals Changed : N/A
1309:src/tranutil.c **** //*****************************************************************************
1310:src/tranutil.c **** void DispRspText(BOOLEAN aDispHdr)
1311:src/tranutil.c **** {
1312:src/tranutil.c ****   BYTE tmpbuf[MW_MAX_LINESIZE+1];
1313:src/tranutil.c ****   PackRspText();
1314:src/tranutil.c ****   DispClrBelowMW(MW_LINE3);
1315:src/tranutil.c ****   if (aDispHdr)
1316:src/tranutil.c ****     DispHeader(STIS_ISS_TBL(0).sb_card_name);
1317:src/tranutil.c ****   memset(tmpbuf, 0, sizeof(tmpbuf));
1318:src/tranutil.c ****   memcpy(tmpbuf, &RSP_DATA.text[1], 16);
1319:src/tranutil.c ****   DispLineMW(tmpbuf, MW_LINE5, MW_CENTER|MW_BIGFONT);
1320:src/tranutil.c ****   memcpy(tmpbuf, &RSP_DATA.text[21], 16);
1321:src/tranutil.c ****   DispLineMW(tmpbuf, MW_LINE7, MW_CENTER|MW_BIGFONT);
1322:src/tranutil.c **** }
1323:src/tranutil.c **** //*****************************************************************************
1324:src/tranutil.c **** //  Function        : DispErrorMsg
1325:src/tranutil.c **** //  Description     : Display Error Message on MW_LLINE5 and pause 3 sec.
1326:src/tranutil.c **** //  Input           : aMsg;     // pointer to constant message.
1327:src/tranutil.c **** //  Return          : N/A
1328:src/tranutil.c **** //  Note            : N/A
1329:src/tranutil.c **** //  Globals Changed : N/A
1330:src/tranutil.c **** //*****************************************************************************
1331:src/tranutil.c **** void DispErrorMsg(const BYTE *aMsg)
1332:src/tranutil.c **** {
1333:src/tranutil.c ****   DispClrBelowMW(MW_LINE3);
1334:src/tranutil.c ****   Disp2x16Msg(aMsg, MW_LINE5, MW_BIGFONT);
1335:src/tranutil.c ****   Delay1Sec(2, 1);
1336:src/tranutil.c **** }
1337:src/tranutil.c **** //*****************************************************************************
1338:src/tranutil.c **** //  Function        : TransEnd
1339:src/tranutil.c **** //  Description     : Transaction end process.
1340:src/tranutil.c **** //  Input           : aShowCard;  // Show card name when TRUE
1341:src/tranutil.c **** //  Return          : N/A
1342:src/tranutil.c **** //  Note            : N/A
1343:src/tranutil.c **** //  Globals Changed : N/A
ARM GAS  C:\Users\AHMED~1.ELE\AppData\Local\Temp\cc98zNMh.s 			page 25


1344:src/tranutil.c **** //*****************************************************************************
1345:src/tranutil.c **** void TransEnd(BOOLEAN aShowCard)
1346:src/tranutil.c **** {
1347:src/tranutil.c ****   struct TERM_DATA term_data;
1348:src/tranutil.c ****    DWORD keyin;
1349:src/tranutil.c ****   
1350:src/tranutil.c ****   if (RSP_DATA.b_response == TRANS_ACP)
1351:src/tranutil.c ****     AcceptBeep();
1352:src/tranutil.c ****   else
1353:src/tranutil.c ****     LongBeep();
1354:src/tranutil.c **** 
1355:src/tranutil.c ****   APM_ResetComm();
1356:src/tranutil.c ****   #if (LPT_SUPPORT|TMLPT_SUPPORT)    // Conditional Compile for Printer support
1357:src/tranutil.c ****   if (RSP_DATA.b_response == TRANS_ACP){
1358:src/tranutil.c ****   if (MSG_BUF.d_len) {
1359:src/tranutil.c **** 	   if(INPUT.b_trans == VOID){
1360:src/tranutil.c **** 	 PrintBuf(MSG_BUF.sb_content, MSG_BUF.d_len, FALSE, FALSE);
1361:src/tranutil.c ****  }else{
1362:src/tranutil.c ****   PrintBuf(MSG_BUF.sb_content, MSG_BUF.d_len, FALSE, TRUE);
1363:src/tranutil.c ****  }
1364:src/tranutil.c ****     
1365:src/tranutil.c ****     DispLineMW("[Enter] - 2nd Copy", MW_LINE9, MW_CLREOL|MW_CENTER|MW_SPFONT);
1366:src/tranutil.c **** 	
1367:src/tranutil.c ****     APM_WaitKey(300,0);  
1368:src/tranutil.c **** 
1369:src/tranutil.c **** 	 PackTxnSlip(FALSE,FALSE, 1);
1370:src/tranutil.c ****      PrintBuf(MSG_BUF.sb_content, MSG_BUF.d_len, FALSE, FALSE);
1371:src/tranutil.c ****       DispClrBelowMW(MW_LINE9);
1372:src/tranutil.c ****   }
1373:src/tranutil.c ****   }
1374:src/tranutil.c ****   #endif                    // PRINTER_SUPPORT
1375:src/tranutil.c ****   DispRspText(aShowCard);
1376:src/tranutil.c ****   APM_GetTermData(&term_data);
1377:src/tranutil.c ****   if ((term_data.b_ecr_port & ECR_RAW_MODE) == 0)
1378:src/tranutil.c ****     EcrResp();
1379:src/tranutil.c ****   APM_ClearKeyin();  // flush key to avoid display refresh caused by key event
1380:src/tranutil.c ****   MsgBufSetup();
1381:src/tranutil.c ****   PackMsgBufLen();
1382:src/tranutil.c ****   fCommitAllMW();
1383:src/tranutil.c ****   #if (T800)
1384:src/tranutil.c ****   os_disp_bl_control(10);  // off disp after 10 seconds
1385:src/tranutil.c ****   #endif
1386:src/tranutil.c ****   if ((term_data.b_ecr_port & ECR_RAW_MODE) == 0)
1387:src/tranutil.c ****     RefreshDispAfter(30);
1388:src/tranutil.c ****   else
1389:src/tranutil.c ****     RefreshDispAfter(1);
1390:src/tranutil.c **** }
1391:src/tranutil.c **** //*****************************************************************************
1392:src/tranutil.c **** //  Function        : DispAmount
1393:src/tranutil.c **** //  Description     : Display the formated amount line_nbr. (right justify)
1394:src/tranutil.c **** //  Input           : aAmount;    // DDWORD amount
1395:src/tranutil.c **** //                    aLineNo;    // aLineNo & 0xF0 is the line number
1396:src/tranutil.c **** //                                // to be displayed.
1397:src/tranutil.c **** //                                // Bit 0 : 1 - minus sign needed
1398:src/tranutil.c **** //                                // Bit 1 : 1 - OVERWRITE
1399:src/tranutil.c **** //  Return          : N/A
1400:src/tranutil.c **** //  Note            : N/A
ARM GAS  C:\Users\AHMED~1.ELE\AppData\Local\Temp\cc98zNMh.s 			page 26


1401:src/tranutil.c **** //  Globals Changed : N/A
1402:src/tranutil.c **** //*****************************************************************************
1403:src/tranutil.c **** void DispAmount(DDWORD aAmount, DWORD aLineNo, DWORD aFont)
1404:src/tranutil.c **** {
1405:src/tranutil.c ****   struct DISP_AMT disp_amt;
1406:src/tranutil.c ****   BOOLEAN minus   = aLineNo & 0x0001;
1407:src/tranutil.c ****   BOOLEAN clr_eol = aLineNo & 0x0002;
1408:src/tranutil.c ****   BYTE tmpbuf[MW_MAX_LINESIZE+1], *ptr;
1409:src/tranutil.c **** 
1410:src/tranutil.c ****   aLineNo &= ~0x0003;  // remove ctrl flag.
1411:src/tranutil.c **** 
1412:src/tranutil.c ****   ConvAmount(aAmount, &disp_amt, STIS_TERM_CFG.b_decimal_pos, STIS_TERM_CFG.b_currency);
1413:src/tranutil.c **** 
1414:src/tranutil.c ****   memset(tmpbuf, 0, sizeof(tmpbuf));
1415:src/tranutil.c ****   ptr = tmpbuf;
1416:src/tranutil.c ****   if (minus)  *ptr++ = '-';
1417:src/tranutil.c ****   memcpy(ptr, disp_amt.content, disp_amt.len);
1418:src/tranutil.c ****   if (clr_eol) aFont |= MW_CLREOL;
1419:src/tranutil.c ****   DispLineMW(tmpbuf, aLineNo, MW_RIGHT|aFont);
1420:src/tranutil.c **** }
1421:src/tranutil.c **** 
1422:src/tranutil.c **** //*****************************************************************************
1423:src/tranutil.c **** //  Function        : SubTotal
1424:src/tranutil.c **** //  Description     : Sub RECORD_BUF.dd_amount & count to global voided_totals.
1425:src/tranutil.c **** //  Input           : N/A
1426:src/tranutil.c **** //  Return          : N/A
1427:src/tranutil.c **** //  Note            : N/A
1428:src/tranutil.c **** //  Globals Changed : N/A
1429:src/tranutil.c **** //*****************************************************************************
1430:src/tranutil.c **** static void SubTotal(struct TOTAL *aTot, DDWORD aAmount)
1431:src/tranutil.c **** {
1432:src/tranutil.c ****   aTot->dd_amount -= aAmount;
1433:src/tranutil.c ****   aTot->w_count++;
1434:src/tranutil.c **** }
1435:src/tranutil.c **** //*****************************************************************************
1436:src/tranutil.c **** //  Function        : AddVoidedTotals
1437:src/tranutil.c **** //  Description     : Add RECORD_BUF.dd_amount & count to global voided_totals.
1438:src/tranutil.c **** //  Input           : N/A
1439:src/tranutil.c **** //  Return          : N/A
1440:src/tranutil.c **** //  Note            : N/A
1441:src/tranutil.c **** //  Globals Changed : N/A
1442:src/tranutil.c **** //*****************************************************************************
1443:src/tranutil.c **** static void AddTotal(struct TOTAL *aTot, DDWORD aAmount)
1444:src/tranutil.c **** {
  26              		.loc 1 1444 0
  27              		.cfi_startproc
  28              		@ args = 0, pretend = 0, frame = 0
  29              		@ frame_needed = 0, uses_anonymous_args = 0
  30              	.LVL0:
  31 0000 30B5     		push	{r4, r5, lr}
  32              		.cfi_def_cfa_offset 12
  33              		.cfi_offset 4, -12
  34              		.cfi_offset 5, -8
  35              		.cfi_offset 14, -4
1445:src/tranutil.c ****   aTot->dd_amount += aAmount;
  36              		.loc 1 1445 0
  37 0002 D0E90245 		ldrd	r4, [r0, #8]
ARM GAS  C:\Users\AHMED~1.ELE\AppData\Local\Temp\cc98zNMh.s 			page 27


  38 0006 1219     		adds	r2, r2, r4
  39              	.LVL1:
  40 0008 6B41     		adcs	r3, r3, r5
  41 000a C0E90223 		strd	r2, [r0, #8]
1446:src/tranutil.c ****   aTot->w_count++;
  42              		.loc 1 1446 0
  43 000e 0388     		ldrh	r3, [r0]
  44 0010 0133     		adds	r3, r3, #1
  45 0012 0380     		strh	r3, [r0]	@ movhi
  46 0014 30BD     		pop	{r4, r5, pc}
  47              		.cfi_endproc
  48              	.LFE26:
  49              		.size	AddTotal, .-AddTotal
  50              		.section	.text.PackContents,"ax",%progbits
  51              		.align	1
  52              		.thumb
  53              		.thumb_func
  54              		.type	PackContents, %function
  55              	PackContents:
  56              	.LFB5:
 481:src/tranutil.c ****     
  57              		.loc 1 481 0
  58              		.cfi_startproc
  59              		@ args = 0, pretend = 0, frame = 96
  60              		@ frame_needed = 0, uses_anonymous_args = 0
  61              	.LVL2:
  62 0000 70B5     		push	{r4, r5, r6, lr}
  63              		.cfi_def_cfa_offset 16
  64              		.cfi_offset 4, -16
  65              		.cfi_offset 5, -12
  66              		.cfi_offset 6, -8
  67              		.cfi_offset 14, -4
 503:src/tranutil.c ****   pack_lf();
  68              		.loc 1 503 0
  69 0002 964C     		ldr	r4, .L29
 481:src/tranutil.c ****     
  70              		.loc 1 481 0
  71 0004 9AB0     		sub	sp, sp, #104
  72              		.cfi_def_cfa_offset 120
 502:src/tranutil.c ****   pack_mem(STIS_TERM_CFG.sb_dflt_name, 23);
  73              		.loc 1 502 0
  74 0006 2020     		movs	r0, #32
  75              	.LVL3:
  76 0008 0321     		movs	r1, #3
  77 000a FFF7FEFF 		bl	pack_nbyte
  78              	.LVL4:
 503:src/tranutil.c ****   pack_lf();
  79              		.loc 1 503 0
  80 000e 2068     		ldr	r0, [r4]
  81 0010 1721     		movs	r1, #23
  82 0012 4B30     		adds	r0, r0, #75
  83 0014 FFF7FEFF 		bl	pack_mem
  84              	.LVL5:
 539:src/tranutil.c **** 	 
  85              		.loc 1 539 0
  86 0018 914D     		ldr	r5, .L29+4
 504:src/tranutil.c ****   pack_nbyte(' ', ((MAX_CHAR_LINE_NORMAL-23)/2));
ARM GAS  C:\Users\AHMED~1.ELE\AppData\Local\Temp\cc98zNMh.s 			page 28


  87              		.loc 1 504 0
  88 001a FFF7FEFF 		bl	pack_lf
  89              	.LVL6:
 505:src/tranutil.c ****   pack_mem(STIS_TERM_CFG.sb_name_loc, 23); /* line 2 */
  90              		.loc 1 505 0
  91 001e 2020     		movs	r0, #32
  92 0020 0321     		movs	r1, #3
  93 0022 FFF7FEFF 		bl	pack_nbyte
  94              	.LVL7:
 506:src/tranutil.c ****   pack_lf();
  95              		.loc 1 506 0
  96 0026 2068     		ldr	r0, [r4]
  97 0028 1721     		movs	r1, #23
  98 002a 1D30     		adds	r0, r0, #29
  99 002c FFF7FEFF 		bl	pack_mem
 100              	.LVL8:
 507:src/tranutil.c ****   pack_nbyte(' ', ((MAX_CHAR_LINE_NORMAL-23)/2));
 101              		.loc 1 507 0
 102 0030 FFF7FEFF 		bl	pack_lf
 103              	.LVL9:
 508:src/tranutil.c ****   pack_mem(&STIS_TERM_CFG.sb_name_loc[23], 23); /* line 3 */
 104              		.loc 1 508 0
 105 0034 2020     		movs	r0, #32
 106 0036 0321     		movs	r1, #3
 107 0038 FFF7FEFF 		bl	pack_nbyte
 108              	.LVL10:
 509:src/tranutil.c ****   pack_lf();
 109              		.loc 1 509 0
 110 003c 2068     		ldr	r0, [r4]
 111 003e 1721     		movs	r1, #23
 112 0040 3430     		adds	r0, r0, #52
 113 0042 FFF7FEFF 		bl	pack_mem
 114              	.LVL11:
 510:src/tranutil.c ****   //   pack_mem("\x1B""B1", 3);  
 115              		.loc 1 510 0
 116 0046 FFF7FEFF 		bl	pack_lf
 117              	.LVL12:
 512:src/tranutil.c ****   pack_mem(STIS_ACQ_TBL(0).sb_term_id, 8);
 118              		.loc 1 512 0
 119 004a 8648     		ldr	r0, .L29+8
 120 004c 0821     		movs	r1, #8
 121 004e FFF7FEFF 		bl	pack_mem
 122              	.LVL13:
 513:src/tranutil.c ****  //    pack_mem("\x1B""B0", 3);  
 123              		.loc 1 513 0
 124 0052 2068     		ldr	r0, [r4]
 125 0054 0821     		movs	r1, #8
 126 0056 00F56770 		add	r0, r0, #924
 127 005a FFF7FEFF 		bl	pack_mem
 128              	.LVL14:
 515:src/tranutil.c ****   memset(tmp,0, sizeof(tmp));
 129              		.loc 1 515 0
 130 005e FFF7FEFF 		bl	pack_lf
 131              	.LVL15:
 516:src/tranutil.c ****   pack_mem("\x1B""W1", 3);
 132              		.loc 1 516 0
 133 0062 2022     		movs	r2, #32
ARM GAS  C:\Users\AHMED~1.ELE\AppData\Local\Temp\cc98zNMh.s 			page 29


 134 0064 0021     		movs	r1, #0
 135 0066 02A8     		add	r0, sp, #8
 136 0068 FFF7FEFF 		bl	memset
 137              	.LVL16:
 517:src/tranutil.c ****   // pack_mem("\x1B""B1", 3);  
 138              		.loc 1 517 0
 139 006c 0321     		movs	r1, #3
 140 006e 7E48     		ldr	r0, .L29+12
 141 0070 FFF7FEFF 		bl	pack_mem
 142              	.LVL17:
 519:src/tranutil.c ****      // Trans Name & Expiry date
 143              		.loc 1 519 0
 144 0074 0120     		movs	r0, #1
 145 0076 FFF7FEFF 		bl	pack_space
 146              	.LVL18:
 521:src/tranutil.c ****     memcpy(tmp, GetConstMsg(KTransHeader[trans]),16);
 147              		.loc 1 521 0
 148 007a 2368     		ldr	r3, [r4]
 149 007c 93F8C12A 		ldrb	r2, [r3, #2753]	@ zero_extendqisi2
 150 0080 D206     		lsls	r2, r2, #27
 151 0082 4CBF     		ite	mi
 152 0084 0A23     		movmi	r3, #10
 153 0086 93F8C03A 		ldrbpl	r3, [r3, #2752]	@ zero_extendqisi2
 154              	.LVL19:
 522:src/tranutil.c ****     // locate start pos of English transaction name
 155              		.loc 1 522 0
 156 008a 784A     		ldr	r2, .L29+16
 157 008c D05C     		ldrb	r0, [r2, r3]	@ zero_extendqisi2
 158 008e FFF7FEFF 		bl	GetConstMsg
 159              	.LVL20:
 160 0092 1022     		movs	r2, #16
 161 0094 0146     		mov	r1, r0
 162 0096 02A8     		add	r0, sp, #8
 163 0098 FFF7FEFF 		bl	memcpy
 164              	.LVL21:
 525:src/tranutil.c ****  //   pack_mem("\x1B""B0", 3);  
 165              		.loc 1 525 0
 166 009c 02A8     		add	r0, sp, #8
 167 009e 1021     		movs	r1, #16
 168 00a0 FFF7FEFF 		bl	pack_mem
 169              	.LVL22:
 527:src/tranutil.c **** 	pack_lf();
 170              		.loc 1 527 0
 171 00a4 7248     		ldr	r0, .L29+20
 172 00a6 0321     		movs	r1, #3
 173 00a8 FFF7FEFF 		bl	pack_mem
 174              	.LVL23:
 528:src/tranutil.c ****   // pack_mem("\x1B""B1", 3);  
 175              		.loc 1 528 0
 176 00ac FFF7FEFF 		bl	pack_lf
 177              	.LVL24:
 530:src/tranutil.c ****   pack_mem(STIS_ACQ_TBL(0).sb_acceptor_id, 15);
 178              		.loc 1 530 0
 179 00b0 7048     		ldr	r0, .L29+24
 180 00b2 0521     		movs	r1, #5
 181 00b4 FFF7FEFF 		bl	pack_mem
 182              	.LVL25:
ARM GAS  C:\Users\AHMED~1.ELE\AppData\Local\Temp\cc98zNMh.s 			page 30


 531:src/tranutil.c ****  //    pack_mem("\x1B""B0", 3);  
 183              		.loc 1 531 0
 184 00b8 2068     		ldr	r0, [r4]
 185 00ba 0F21     		movs	r1, #15
 186 00bc 00F56970 		add	r0, r0, #932
 187 00c0 FFF7FEFF 		bl	pack_mem
 188              	.LVL26:
 533:src/tranutil.c **** 
 189              		.loc 1 533 0
 190 00c4 FFF7FEFF 		bl	pack_lf
 191              	.LVL27:
 536:src/tranutil.c ****     split_data(STIS_ACQ_TBL(0).sb_curr_batch_no, 3);
 192              		.loc 1 536 0
 193 00c8 6B48     		ldr	r0, .L29+28
 194 00ca 0A21     		movs	r1, #10
 195 00cc FFF7FEFF 		bl	pack_mem
 196              	.LVL28:
 537:src/tranutil.c **** 	 pack_lf();
 197              		.loc 1 537 0
 198 00d0 2068     		ldr	r0, [r4]
 199 00d2 0321     		movs	r1, #3
 200 00d4 00F56D70 		add	r0, r0, #948
 201 00d8 FFF7FEFF 		bl	split_data
 202              	.LVL29:
 538:src/tranutil.c **** 	 if(INPUT.b_trans == VOID){
 203              		.loc 1 538 0
 204 00dc FFF7FEFF 		bl	pack_lf
 205              	.LVL30:
 539:src/tranutil.c **** 	 
 206              		.loc 1 539 0
 207 00e0 2B78     		ldrb	r3, [r5]	@ zero_extendqisi2
 208 00e2 0A2B     		cmp	r3, #10
 209 00e4 09D0     		beq	.L4
 542:src/tranutil.c ****     split_data(INPUT.sb_trace_no, 3);
 210              		.loc 1 542 0
 211 00e6 6548     		ldr	r0, .L29+32
 212 00e8 0721     		movs	r1, #7
 213 00ea FFF7FEFF 		bl	pack_mem
 214              	.LVL31:
 543:src/tranutil.c ****     pack_lf(); 
 215              		.loc 1 543 0
 216 00ee A81C     		adds	r0, r5, #2
 217 00f0 0321     		movs	r1, #3
 218 00f2 FFF7FEFF 		bl	split_data
 219              	.LVL32:
 544:src/tranutil.c **** 	 }
 220              		.loc 1 544 0
 221 00f6 FFF7FEFF 		bl	pack_lf
 222              	.LVL33:
 223              	.L4:
 547:src/tranutil.c ****   
 224              		.loc 1 547 0
 225 00fa 0620     		movs	r0, #6
 226 00fc FFF7FEFF 		bl	pack_space
 227              	.LVL34:
 549:src/tranutil.c **** 	  memset(buf,0, sizeof(buf));
 228              		.loc 1 549 0
ARM GAS  C:\Users\AHMED~1.ELE\AppData\Local\Temp\cc98zNMh.s 			page 31


 229 0100 0021     		movs	r1, #0
 230 0102 2022     		movs	r2, #32
 231 0104 02A8     		add	r0, sp, #8
 232 0106 FFF7FEFF 		bl	memset
 233              	.LVL35:
 550:src/tranutil.c ****     // PAN
 234              		.loc 1 550 0
 235 010a 0021     		movs	r1, #0
 236 010c 4022     		movs	r2, #64
 237 010e 0AA8     		add	r0, sp, #40
 238 0110 FFF7FEFF 		bl	memset
 239              	.LVL36:
 552:src/tranutil.c ****    // if (MaskCardNo())
 240              		.loc 1 552 0
 241 0114 2168     		ldr	r1, [r4]
 242 0116 02A8     		add	r0, sp, #8
 243 0118 01F6C921 		addw	r1, r1, #2761
 244 011c 0822     		movs	r2, #8
 245 011e FFF7FEFF 		bl	split
 246              	.LVL37:
 555:src/tranutil.c **** 	sprintf(buf, "\x1bH1\x1bB1%.4s %.4s %.4s %.4s\x1bB0\x1bH0", tmp, &tmp[4],&tmp[8],&tmp[12]);
 247              		.loc 1 555 0
 248 0122 2A21     		movs	r1, #42
 249 0124 0622     		movs	r2, #6
 250 0126 0DF10E00 		add	r0, sp, #14
 251 012a FFF7FEFF 		bl	memset
 252              	.LVL38:
 556:src/tranutil.c ****     pack_str(buf);
 253              		.loc 1 556 0
 254 012e 04AB     		add	r3, sp, #16
 255 0130 02AA     		add	r2, sp, #8
 256 0132 0093     		str	r3, [sp]
 257 0134 05AB     		add	r3, sp, #20
 258 0136 5249     		ldr	r1, .L29+36
 259 0138 0193     		str	r3, [sp, #4]
 260 013a 0AA8     		add	r0, sp, #40
 261 013c 131D     		adds	r3, r2, #4
 262 013e FFF7FEFF 		bl	sprintf
 263              	.LVL39:
 557:src/tranutil.c ****   }else{
 264              		.loc 1 557 0
 265 0142 0AA8     		add	r0, sp, #40
 266 0144 FFF7FEFF 		bl	pack_str
 267              	.LVL40:
 567:src/tranutil.c **** if ((P_DATA.b_entry_mode == ICC) || (P_DATA.b_entry_mode == CONTACTLESS)) {
 268              		.loc 1 567 0
 269 0148 FFF7FEFF 		bl	pack_lf
 270              	.LVL41:
 568:src/tranutil.c ****     pack_mem(P_DATA.s_icc_data.sb_label, 4);
 271              		.loc 1 568 0
 272 014c 2068     		ldr	r0, [r4]
 273 014e 90F8F43A 		ldrb	r3, [r0, #2804]	@ zero_extendqisi2
 274 0152 492B     		cmp	r3, #73
 275 0154 01D0     		beq	.L5
 568:src/tranutil.c ****     pack_mem(P_DATA.s_icc_data.sb_label, 4);
 276              		.loc 1 568 0 is_stmt 0 discriminator 1
 277 0156 542B     		cmp	r3, #84
ARM GAS  C:\Users\AHMED~1.ELE\AppData\Local\Temp\cc98zNMh.s 			page 32


 278 0158 0FD1     		bne	.L6
 279              	.L5:
 569:src/tranutil.c ****     pack_byte('(');
 280              		.loc 1 569 0 is_stmt 1
 281 015a 0421     		movs	r1, #4
 282 015c 00F64430 		addw	r0, r0, #2884
 283 0160 FFF7FEFF 		bl	pack_mem
 284              	.LVL42:
 570:src/tranutil.c ****     pack_byte(P_DATA.b_entry_mode);
 285              		.loc 1 570 0
 286 0164 2820     		movs	r0, #40
 287 0166 FFF7FEFF 		bl	pack_byte
 288              	.LVL43:
 571:src/tranutil.c ****     pack_byte(')');
 289              		.loc 1 571 0
 290 016a 2368     		ldr	r3, [r4]
 291 016c 93F8F40A 		ldrb	r0, [r3, #2804]	@ zero_extendqisi2
 292 0170 FFF7FEFF 		bl	pack_byte
 293              	.LVL44:
 572:src/tranutil.c **** }
 294              		.loc 1 572 0
 295 0174 2920     		movs	r0, #41
 296 0176 FFF7FEFF 		bl	pack_byte
 297              	.LVL45:
 298              	.L6:
 574:src/tranutil.c **** 	
 299              		.loc 1 574 0
 300 017a FFF7FEFF 		bl	pack_lf
 301              	.LVL46:
 576:src/tranutil.c **** 		 sprintf(buf, "%s", STIS_ISS_TBL(0).sb_card_name);
 302              		.loc 1 576 0
 303 017e 4022     		movs	r2, #64
 304 0180 2021     		movs	r1, #32
 305 0182 0AA8     		add	r0, sp, #40
 306 0184 FFF7FEFF 		bl	memset
 307              	.LVL47:
 577:src/tranutil.c ****         pack_mem(buf, 10);
 308              		.loc 1 577 0
 309 0188 2168     		ldr	r1, [r4]
 310 018a 0AA8     		add	r0, sp, #40
 311 018c 01F2A141 		addw	r1, r1, #1185
 312 0190 FFF7FEFF 		bl	strcpy
 313              	.LVL48:
 578:src/tranutil.c ****         pack_space((BYTE)(MAX_CHAR_LINE_NORMAL-10-9+2));
 314              		.loc 1 578 0
 315 0194 0A21     		movs	r1, #10
 316 0196 0AA8     		add	r0, sp, #40
 317 0198 FFF7FEFF 		bl	pack_mem
 318              	.LVL49:
 579:src/tranutil.c **** 		if (P_DATA.sb_exp_date[0] != 0) {
 319              		.loc 1 579 0
 320 019c 0D20     		movs	r0, #13
 321 019e FFF7FEFF 		bl	pack_space
 322              	.LVL50:
 580:src/tranutil.c ****         pack_mem("Exp:", 4);
 323              		.loc 1 580 0
 324 01a2 2368     		ldr	r3, [r4]
ARM GAS  C:\Users\AHMED~1.ELE\AppData\Local\Temp\cc98zNMh.s 			page 33


 577:src/tranutil.c ****         pack_mem(buf, 10);
 325              		.loc 1 577 0
 326 01a4 2D4E     		ldr	r6, .L29
 580:src/tranutil.c ****         pack_mem("Exp:", 4);
 327              		.loc 1 580 0
 328 01a6 93F8D33A 		ldrb	r3, [r3, #2771]	@ zero_extendqisi2
 581:src/tranutil.c ****         split_data((BYTE *)&P_DATA.sb_exp_date[1], 1);
 329              		.loc 1 581 0
 330 01aa 3648     		ldr	r0, .L29+40
 331 01ac 0421     		movs	r1, #4
 580:src/tranutil.c ****         pack_mem("Exp:", 4);
 332              		.loc 1 580 0
 333 01ae 8BB1     		cbz	r3, .L7
 581:src/tranutil.c ****         split_data((BYTE *)&P_DATA.sb_exp_date[1], 1);
 334              		.loc 1 581 0
 335 01b0 FFF7FEFF 		bl	pack_mem
 336              	.LVL51:
 582:src/tranutil.c ****         pack_byte('/');
 337              		.loc 1 582 0
 338 01b4 3068     		ldr	r0, [r6]
 339 01b6 0121     		movs	r1, #1
 340 01b8 00F6D420 		addw	r0, r0, #2772
 341 01bc FFF7FEFF 		bl	split_data
 342              	.LVL52:
 583:src/tranutil.c ****         split_data((BYTE *)&P_DATA.sb_exp_date[0], 1);
 343              		.loc 1 583 0
 344 01c0 2F20     		movs	r0, #47
 345 01c2 FFF7FEFF 		bl	pack_byte
 346              	.LVL53:
 584:src/tranutil.c **** 		}else{
 347              		.loc 1 584 0
 348 01c6 3068     		ldr	r0, [r6]
 349 01c8 0121     		movs	r1, #1
 350 01ca 00F6D320 		addw	r0, r0, #2771
 351 01ce FFF7FEFF 		bl	split_data
 352              	.LVL54:
 353 01d2 0CE0     		b	.L8
 354              	.L7:
 586:src/tranutil.c ****         pack_mem("XX", 2);
 355              		.loc 1 586 0
 356 01d4 FFF7FEFF 		bl	pack_mem
 357              	.LVL55:
 587:src/tranutil.c ****         pack_byte('/');
 358              		.loc 1 587 0
 359 01d8 0221     		movs	r1, #2
 360 01da 2B48     		ldr	r0, .L29+44
 361 01dc FFF7FEFF 		bl	pack_mem
 362              	.LVL56:
 588:src/tranutil.c ****         pack_mem("XX", 2);
 363              		.loc 1 588 0
 364 01e0 2F20     		movs	r0, #47
 365 01e2 FFF7FEFF 		bl	pack_byte
 366              	.LVL57:
 589:src/tranutil.c **** 		}
 367              		.loc 1 589 0
 368 01e6 2848     		ldr	r0, .L29+44
 369 01e8 0221     		movs	r1, #2
ARM GAS  C:\Users\AHMED~1.ELE\AppData\Local\Temp\cc98zNMh.s 			page 34


 370 01ea FFF7FEFF 		bl	pack_mem
 371              	.LVL58:
 372              	.L8:
 591:src/tranutil.c **** 
 373              		.loc 1 591 0
 374 01ee FFF7FEFF 		bl	pack_lf
 375              	.LVL59:
 593:src/tranutil.c ****         pack_mem("APPLICATION NAME: ", 18);
 376              		.loc 1 593 0
 377 01f2 2368     		ldr	r3, [r4]
 378 01f4 93F8F43A 		ldrb	r3, [r3, #2804]	@ zero_extendqisi2
 379 01f8 492B     		cmp	r3, #73
 380 01fa 01D0     		beq	.L9
 593:src/tranutil.c ****         pack_mem("APPLICATION NAME: ", 18);
 381              		.loc 1 593 0 is_stmt 0 discriminator 1
 382 01fc 542B     		cmp	r3, #84
 383 01fe 18D1     		bne	.L10
 384              	.L9:
 594:src/tranutil.c ****         pack_mem(P_DATA.s_icc_data.sb_label, 14);
 385              		.loc 1 594 0 is_stmt 1
 386 0200 2248     		ldr	r0, .L29+48
 387 0202 1221     		movs	r1, #18
 388 0204 FFF7FEFF 		bl	pack_mem
 389              	.LVL60:
 595:src/tranutil.c ****         pack_lf();
 390              		.loc 1 595 0
 391 0208 2068     		ldr	r0, [r4]
 392 020a 0E21     		movs	r1, #14
 393 020c 00F64430 		addw	r0, r0, #2884
 394 0210 FFF7FEFF 		bl	pack_mem
 395              	.LVL61:
 596:src/tranutil.c ****         pack_mem("AID    : ", 9);
 396              		.loc 1 596 0
 397 0214 FFF7FEFF 		bl	pack_lf
 398              	.LVL62:
 597:src/tranutil.c ****         split_data(P_DATA.s_icc_data.sb_aid, P_DATA.s_icc_data.b_aid_len); // !2009-01-15
 399              		.loc 1 597 0
 400 0218 1D48     		ldr	r0, .L29+52
 401 021a 0921     		movs	r1, #9
 402 021c FFF7FEFF 		bl	pack_mem
 403              	.LVL63:
 598:src/tranutil.c ****         pack_lf();
 404              		.loc 1 598 0
 405 0220 2368     		ldr	r3, [r4]
 406 0222 03F65530 		addw	r0, r3, #2901
 407 0226 93F8541B 		ldrb	r1, [r3, #2900]	@ zero_extendqisi2
 408 022a FFF7FEFF 		bl	split_data
 409              	.LVL64:
 599:src/tranutil.c ****         //20-10-15 JC ++
 410              		.loc 1 599 0
 411 022e FFF7FEFF 		bl	pack_lf
 412              	.LVL65:
 413              	.L10:
 603:src/tranutil.c **** pack_mem("PIN ENTERED", 11);
 414              		.loc 1 603 0
 415 0232 2B78     		ldrb	r3, [r5]	@ zero_extendqisi2
 416 0234 0F2B     		cmp	r3, #15
ARM GAS  C:\Users\AHMED~1.ELE\AppData\Local\Temp\cc98zNMh.s 			page 35


 417 0236 02D1     		bne	.L11
 604:src/tranutil.c **** pack_lf();
 418              		.loc 1 604 0
 419 0238 1648     		ldr	r0, .L29+56
 420 023a 0B21     		movs	r1, #11
 421 023c 08E0     		b	.L27
 422              	.L11:
 606:src/tranutil.c **** 		pack_mem("MAGNETIC             OFFLINE PIN", 32);
 423              		.loc 1 606 0
 424 023e 112B     		cmp	r3, #17
 425 0240 04D0     		beq	.L13
 606:src/tranutil.c **** 		pack_mem("MAGNETIC             OFFLINE PIN", 32);
 426              		.loc 1 606 0 is_stmt 0 discriminator 1
 427 0242 9A1F     		subs	r2, r3, #6
 428 0244 012A     		cmp	r2, #1
 429 0246 01D9     		bls	.L13
 606:src/tranutil.c **** 		pack_mem("MAGNETIC             OFFLINE PIN", 32);
 430              		.loc 1 606 0 discriminator 3
 431 0248 0A2B     		cmp	r3, #10
 432 024a 05D1     		bne	.L2
 433              	.L13:
 607:src/tranutil.c **** 		pack_lf();
 434              		.loc 1 607 0 is_stmt 1
 435 024c 1248     		ldr	r0, .L29+60
 436 024e 2021     		movs	r1, #32
 437              	.L27:
 438 0250 FFF7FEFF 		bl	pack_mem
 439              	.LVL66:
 608:src/tranutil.c **** }
 440              		.loc 1 608 0
 441 0254 FFF7FEFF 		bl	pack_lf
 442              	.LVL67:
 443              	.L2:
 611:src/tranutil.c **** //*****************************************************************************
 444              		.loc 1 611 0
 445 0258 1AB0     		add	sp, sp, #104
 446              		.cfi_def_cfa_offset 16
 447              		@ sp needed
 448 025a 70BD     		pop	{r4, r5, r6, pc}
 449              	.L30:
 450              		.align	2
 451              	.L29:
 452 025c 00000000 		.word	gGDS
 453 0260 00000000 		.word	gGTS
 454 0264 00000000 		.word	.LC0
 455 0268 09000000 		.word	.LC1
 456 026c 00000000 		.word	KTransHeader
 457 0270 0D000000 		.word	.LC2
 458 0274 11000000 		.word	.LC3
 459 0278 17000000 		.word	.LC4
 460 027c 22000000 		.word	.LC5
 461 0280 2A000000 		.word	.LC6
 462 0284 46000000 		.word	.LC7
 463 0288 4B000000 		.word	.LC8
 464 028c 4E000000 		.word	.LC9
 465 0290 61000000 		.word	.LC10
 466 0294 6B000000 		.word	.LC11
ARM GAS  C:\Users\AHMED~1.ELE\AppData\Local\Temp\cc98zNMh.s 			page 36


 467 0298 77000000 		.word	.LC12
 468              		.cfi_endproc
 469              	.LFE5:
 470              		.size	PackContents, .-PackContents
 471              		.section	.text.PackContent,"ax",%progbits
 472              		.align	1
 473              		.thumb
 474              		.thumb_func
 475              		.type	PackContent, %function
 476              	PackContent:
 477              	.LFB6:
 621:src/tranutil.c ****   DDWORD no_tips = -1;
 478              		.loc 1 621 0
 479              		.cfi_startproc
 480              		@ args = 0, pretend = 0, frame = 88
 481              		@ frame_needed = 0, uses_anonymous_args = 0
 482              	.LVL68:
 483 0000 70B5     		push	{r4, r5, r6, lr}
 484              		.cfi_def_cfa_offset 16
 485              		.cfi_offset 4, -16
 486              		.cfi_offset 5, -12
 487              		.cfi_offset 6, -8
 488              		.cfi_offset 14, -4
 631:src/tranutil.c ****   }else{
 489              		.loc 1 631 0
 490 0002 0646     		mov	r6, r0
 621:src/tranutil.c ****   DDWORD no_tips = -1;
 491              		.loc 1 621 0
 492 0004 98B0     		sub	sp, sp, #96
 493              		.cfi_def_cfa_offset 112
 631:src/tranutil.c ****   }else{
 494              		.loc 1 631 0
 495 0006 08B1     		cbz	r0, .L32
 633:src/tranutil.c ****   }
 496              		.loc 1 633 0
 497 0008 FFF7FEFF 		bl	PackContents
 498              	.LVL69:
 499              	.L32:
 637:src/tranutil.c ****   pack_space(MAX_CHAR_LINE_NORMAL-30);
 500              		.loc 1 637 0
 501 000c 0721     		movs	r1, #7
 502 000e 7D48     		ldr	r0, .L49
 639:src/tranutil.c ****   //  pack_mem(STIS_TERM_CFG.sb_currency_name, 3);
 503              		.loc 1 639 0
 504 0010 7D4C     		ldr	r4, .L49+4
 637:src/tranutil.c ****   pack_space(MAX_CHAR_LINE_NORMAL-30);
 505              		.loc 1 637 0
 506 0012 FFF7FEFF 		bl	pack_mem
 507              	.LVL70:
 638:src/tranutil.c ****   if ((P_DATA.dd_tip == 0) && ((P_DATA.b_trans_status&VOIDED) == 0)) {
 508              		.loc 1 638 0
 509 0016 0020     		movs	r0, #0
 510 0018 FFF7FEFF 		bl	pack_space
 511              	.LVL71:
 639:src/tranutil.c ****   //  pack_mem(STIS_TERM_CFG.sb_currency_name, 3);
 512              		.loc 1 639 0
 513 001c 2268     		ldr	r2, [r4]
ARM GAS  C:\Users\AHMED~1.ELE\AppData\Local\Temp\cc98zNMh.s 			page 37


 514 001e 7B4D     		ldr	r5, .L49+8
 515 0020 02F52E63 		add	r3, r2, #2784
 516 0024 D3E90001 		ldrd	r0, [r3]
 517 0028 50EA0103 		orrs	r3, r0, r1
 518 002c 09D1     		bne	.L33
 639:src/tranutil.c ****   //  pack_mem(STIS_TERM_CFG.sb_currency_name, 3);
 519              		.loc 1 639 0 is_stmt 0 discriminator 1
 520 002e 92F8C13A 		ldrb	r3, [r2, #2753]	@ zero_extendqisi2
 521 0032 DB06     		lsls	r3, r3, #27
 522 0034 05D4     		bmi	.L33
 641:src/tranutil.c ****   }
 523              		.loc 1 641 0 is_stmt 1
 524 0036 92F8D50A 		ldrb	r0, [r2, #2773]	@ zero_extendqisi2
 525 003a 0321     		movs	r1, #3
 526 003c 05EBC000 		add	r0, r5, r0, lsl #3
 527 0040 1EE0     		b	.L46
 528              	.L33:
 644:src/tranutil.c ****     pack_space((BYTE)(22 - disp_amt.len));
 529              		.loc 1 644 0
 530 0042 92F86430 		ldrb	r3, [r2, #100]	@ zero_extendqisi2
 531 0046 02F6D821 		addw	r1, r2, #2776
 532 004a 92F86220 		ldrb	r2, [r2, #98]	@ zero_extendqisi2
 533 004e 0092     		str	r2, [sp]
 534 0050 02AA     		add	r2, sp, #8
 535 0052 D1E90001 		ldrd	r0, [r1]
 536 0056 FFF7FEFF 		bl	ConvAmount
 537              	.LVL72:
 645:src/tranutil.c ****    // pack_mem(STIS_TERM_CFG.sb_currency_name, 3);
 538              		.loc 1 645 0
 539 005a 9DF80800 		ldrb	r0, [sp, #8]	@ zero_extendqisi2
 540 005e C0F11600 		rsb	r0, r0, #22
 541 0062 C0B2     		uxtb	r0, r0
 542 0064 FFF7FEFF 		bl	pack_space
 543              	.LVL73:
 647:src/tranutil.c ****     pack_mem(disp_amt.content, disp_amt.len);
 544              		.loc 1 647 0
 545 0068 2368     		ldr	r3, [r4]
 546 006a 0321     		movs	r1, #3
 547 006c 93F8D50A 		ldrb	r0, [r3, #2773]	@ zero_extendqisi2
 548 0070 05EBC000 		add	r0, r5, r0, lsl #3
 549 0074 FFF7FEFF 		bl	pack_mem
 550              	.LVL74:
 648:src/tranutil.c ****   }
 551              		.loc 1 648 0
 552 0078 0DF10900 		add	r0, sp, #9
 553 007c 9DF80810 		ldrb	r1, [sp, #8]	@ zero_extendqisi2
 554              	.L46:
 555 0080 FFF7FEFF 		bl	pack_mem
 556              	.LVL75:
 652:src/tranutil.c ****     
 557              		.loc 1 652 0
 558 0084 FFF7FEFF 		bl	pack_lf
 559              	.LVL76:
 658:src/tranutil.c **** 	memset(buf,0, sizeof(buf));
 560              		.loc 1 658 0
 561 0088 6148     		ldr	r0, .L49+12
 562 008a 1221     		movs	r1, #18
ARM GAS  C:\Users\AHMED~1.ELE\AppData\Local\Temp\cc98zNMh.s 			page 38


 563 008c FFF7FEFF 		bl	pack_mem
 564              	.LVL77:
 659:src/tranutil.c **** 	sprintf(buf, "\x1bW1\x1bU1%.6s\x1bW0\x1bU0", P_DATA.sb_auth_code);
 565              		.loc 1 659 0
 566 0090 0021     		movs	r1, #0
 567 0092 4022     		movs	r2, #64
 568 0094 08A8     		add	r0, sp, #32
 569 0096 FFF7FEFF 		bl	memset
 570              	.LVL78:
 660:src/tranutil.c ****     pack_str(buf);
 571              		.loc 1 660 0
 572 009a 2268     		ldr	r2, [r4]
 573 009c 5D49     		ldr	r1, .L49+16
 574 009e 02F61F32 		addw	r2, r2, #2847
 575 00a2 08A8     		add	r0, sp, #32
 576 00a4 FFF7FEFF 		bl	sprintf
 577              	.LVL79:
 661:src/tranutil.c ****      pack_lf();
 578              		.loc 1 661 0
 579 00a8 08A8     		add	r0, sp, #32
 580 00aa FFF7FEFF 		bl	pack_str
 581              	.LVL80:
 662:src/tranutil.c ****       // Batch & Trace
 582              		.loc 1 662 0
 583 00ae FFF7FEFF 		bl	pack_lf
 584              	.LVL81:
 664:src/tranutil.c ****      split_data(STIS_ACQ_TBL(0).sb_curr_batch_no, 3);
 585              		.loc 1 664 0
 586 00b2 5948     		ldr	r0, .L49+20
 587 00b4 0621     		movs	r1, #6
 588 00b6 FFF7FEFF 		bl	pack_mem
 589              	.LVL82:
 665:src/tranutil.c ****     pack_lf();
 590              		.loc 1 665 0
 591 00ba 2068     		ldr	r0, [r4]
 592 00bc 0321     		movs	r1, #3
 593 00be 00F56D70 		add	r0, r0, #948
 594 00c2 FFF7FEFF 		bl	split_data
 595              	.LVL83:
 666:src/tranutil.c **** 	//if (aCustCopy == 0) {
 596              		.loc 1 666 0
 597 00c6 FFF7FEFF 		bl	pack_lf
 598              	.LVL84:
 668:src/tranutil.c ****  pack_lf();
 599              		.loc 1 668 0
 600 00ca 5448     		ldr	r0, .L49+24
 601 00cc 2021     		movs	r1, #32
 602 00ce FFF7FEFF 		bl	pack_mem
 603              	.LVL85:
 669:src/tranutil.c ****  pack_lf();
 604              		.loc 1 669 0
 605 00d2 FFF7FEFF 		bl	pack_lf
 606              	.LVL86:
 670:src/tranutil.c ****  pack_mem("  X_______________________", 26);
 607              		.loc 1 670 0
 608 00d6 FFF7FEFF 		bl	pack_lf
 609              	.LVL87:
ARM GAS  C:\Users\AHMED~1.ELE\AppData\Local\Temp\cc98zNMh.s 			page 39


 671:src/tranutil.c ****  pack_lf();
 610              		.loc 1 671 0
 611 00da 5148     		ldr	r0, .L49+28
 612 00dc 1A21     		movs	r1, #26
 613 00de FFF7FEFF 		bl	pack_mem
 614              	.LVL88:
 672:src/tranutil.c ****  // }else{
 615              		.loc 1 672 0
 616 00e2 FFF7FEFF 		bl	pack_lf
 617              	.LVL89:
 678:src/tranutil.c **** 	 
 618              		.loc 1 678 0
 619 00e6 2368     		ldr	r3, [r4]
 620 00e8 93F8F43A 		ldrb	r3, [r3, #2804]	@ zero_extendqisi2
 621 00ec 492B     		cmp	r3, #73
 622 00ee 01D0     		beq	.L35
 678:src/tranutil.c **** 	 
 623              		.loc 1 678 0 is_stmt 0 discriminator 1
 624 00f0 542B     		cmp	r3, #84
 625 00f2 06D1     		bne	.L36
 626              	.L35:
 680:src/tranutil.c **** 	   pack_mem("Reject",6);
 627              		.loc 1 680 0 is_stmt 1
 628 00f4 4B4B     		ldr	r3, .L49+32
 629 00f6 93F80037 		ldrb	r3, [r3, #1792]	@ zero_extendqisi2
 630 00fa 13B9     		cbnz	r3, .L36
 681:src/tranutil.c **** 	  }else{
 631              		.loc 1 681 0
 632 00fc 4A48     		ldr	r0, .L49+36
 633 00fe 0621     		movs	r1, #6
 634 0100 01E0     		b	.L47
 635              	.L36:
 683:src/tranutil.c **** 	  }
 636              		.loc 1 683 0
 637 0102 4A48     		ldr	r0, .L49+40
 638 0104 2021     		movs	r1, #32
 639              	.L47:
 640 0106 FFF7FEFF 		bl	pack_mem
 641              	.LVL90:
 691:src/tranutil.c ****         pack_mem("\x1bH0\x1bW0\x1b""F0",9);
 642              		.loc 1 691 0
 643 010a FFF7FEFF 		bl	pack_lf
 644              	.LVL91:
 692:src/tranutil.c **** 		pack_lf();
 645              		.loc 1 692 0
 646 010e 4848     		ldr	r0, .L49+44
 647 0110 0921     		movs	r1, #9
 648 0112 FFF7FEFF 		bl	pack_mem
 649              	.LVL92:
 693:src/tranutil.c **** 	 os_rtc_get(buf);
 650              		.loc 1 693 0
 651 0116 FFF7FEFF 		bl	pack_lf
 652              	.LVL93:
 694:src/tranutil.c ****     pack_mem(buf, 4);
 653              		.loc 1 694 0
 654 011a 08A9     		add	r1, sp, #32
 655 011c 1220     		movs	r0, #18
ARM GAS  C:\Users\AHMED~1.ELE\AppData\Local\Temp\cc98zNMh.s 			page 40


 656 011e FFF7FEFF 		bl	sys_func1
 657              	.LVL94:
 695:src/tranutil.c ****     pack_mem("/", 1);
 658              		.loc 1 695 0
 659 0122 08A8     		add	r0, sp, #32
 660 0124 0421     		movs	r1, #4
 661 0126 FFF7FEFF 		bl	pack_mem
 662              	.LVL95:
 696:src/tranutil.c ****     pack_mem(&buf[4], 2);
 663              		.loc 1 696 0
 664 012a 4248     		ldr	r0, .L49+48
 665 012c 0121     		movs	r1, #1
 666 012e FFF7FEFF 		bl	pack_mem
 667              	.LVL96:
 697:src/tranutil.c ****     pack_mem("/", 1);
 668              		.loc 1 697 0
 669 0132 09A8     		add	r0, sp, #36
 670 0134 0221     		movs	r1, #2
 671 0136 FFF7FEFF 		bl	pack_mem
 672              	.LVL97:
 698:src/tranutil.c ****     pack_mem(&buf[6], 2);
 673              		.loc 1 698 0
 674 013a 3E48     		ldr	r0, .L49+48
 675 013c 0121     		movs	r1, #1
 676 013e FFF7FEFF 		bl	pack_mem
 677              	.LVL98:
 699:src/tranutil.c ****     //pack_space(4);
 678              		.loc 1 699 0
 679 0142 0221     		movs	r1, #2
 680 0144 0DF12600 		add	r0, sp, #38
 681 0148 FFF7FEFF 		bl	pack_mem
 682              	.LVL99:
 701:src/tranutil.c ****     
 683              		.loc 1 701 0
 684 014c 0E20     		movs	r0, #14
 685 014e FFF7FEFF 		bl	pack_space
 686              	.LVL100:
 703:src/tranutil.c **** 	pack_mem(":", 1);
 687              		.loc 1 703 0
 688 0152 0AA8     		add	r0, sp, #40
 689 0154 0221     		movs	r1, #2
 690 0156 FFF7FEFF 		bl	pack_mem
 691              	.LVL101:
 704:src/tranutil.c ****     pack_mem(&buf[10], 2);
 692              		.loc 1 704 0
 693 015a 3748     		ldr	r0, .L49+52
 694 015c 0121     		movs	r1, #1
 695 015e FFF7FEFF 		bl	pack_mem
 696              	.LVL102:
 705:src/tranutil.c ****     pack_mem(":", 1);
 697              		.loc 1 705 0
 698 0162 0DF12A00 		add	r0, sp, #42
 699 0166 0221     		movs	r1, #2
 700 0168 FFF7FEFF 		bl	pack_mem
 701              	.LVL103:
 706:src/tranutil.c ****     pack_mem(&buf[12], 2);//ss
 702              		.loc 1 706 0
ARM GAS  C:\Users\AHMED~1.ELE\AppData\Local\Temp\cc98zNMh.s 			page 41


 703 016c 3248     		ldr	r0, .L49+52
 704 016e 0121     		movs	r1, #1
 705 0170 FFF7FEFF 		bl	pack_mem
 706              	.LVL104:
 707:src/tranutil.c **** 	 pack_lf();
 707              		.loc 1 707 0
 708 0174 0BA8     		add	r0, sp, #44
 709 0176 0221     		movs	r1, #2
 710 0178 FFF7FEFF 		bl	pack_mem
 711              	.LVL105:
 708:src/tranutil.c ****   pack_mem("PlEASE DEBIT THE ABOVE FROM     ", 32);
 712              		.loc 1 708 0
 713 017c FFF7FEFF 		bl	pack_lf
 714              	.LVL106:
 709:src/tranutil.c ****   	   pack_lf();
 715              		.loc 1 709 0
 716 0180 2E48     		ldr	r0, .L49+56
 717 0182 2021     		movs	r1, #32
 718 0184 FFF7FEFF 		bl	pack_mem
 719              	.LVL107:
 710:src/tranutil.c ****   pack_mem("MY ACCOUNT                      ", 32);
 720              		.loc 1 710 0
 721 0188 FFF7FEFF 		bl	pack_lf
 722              	.LVL108:
 711:src/tranutil.c ****   	   pack_lf();
 723              		.loc 1 711 0
 724 018c 2C48     		ldr	r0, .L49+60
 725 018e 2021     		movs	r1, #32
 726 0190 FFF7FEFF 		bl	pack_mem
 727              	.LVL109:
 712:src/tranutil.c ****  pack_mem(P_DATA.sb_holder_name, 26);
 728              		.loc 1 712 0
 729 0194 FFF7FEFF 		bl	pack_lf
 730              	.LVL110:
 713:src/tranutil.c ****      pack_lf();
 731              		.loc 1 713 0
 732 0198 2068     		ldr	r0, [r4]
 733 019a 1A21     		movs	r1, #26
 734 019c 00F6F520 		addw	r0, r0, #2805
 735 01a0 FFF7FEFF 		bl	pack_mem
 736              	.LVL111:
 714:src/tranutil.c ****   pack_mem("I  AUTHORIZE TO DEBIT THE ABOVE ", 32);
 737              		.loc 1 714 0
 738 01a4 FFF7FEFF 		bl	pack_lf
 739              	.LVL112:
 715:src/tranutil.c ****   	   pack_lf();
 740              		.loc 1 715 0
 741 01a8 2648     		ldr	r0, .L49+64
 742 01aa 2021     		movs	r1, #32
 743 01ac FFF7FEFF 		bl	pack_mem
 744              	.LVL113:
 716:src/tranutil.c ****   pack_mem("FROM  MY  ACCOUNT.I   CONFIRM   ", 32);
 745              		.loc 1 716 0
 746 01b0 FFF7FEFF 		bl	pack_lf
 747              	.LVL114:
 717:src/tranutil.c ****   	   pack_lf();
 748              		.loc 1 717 0
ARM GAS  C:\Users\AHMED~1.ELE\AppData\Local\Temp\cc98zNMh.s 			page 42


 749 01b4 2448     		ldr	r0, .L49+68
 750 01b6 2021     		movs	r1, #32
 751 01b8 FFF7FEFF 		bl	pack_mem
 752              	.LVL115:
 718:src/tranutil.c ****   pack_mem("RECEIPT OF MERCHANDIS INSIDE THE", 32);
 753              		.loc 1 718 0
 754 01bc FFF7FEFF 		bl	pack_lf
 755              	.LVL116:
 719:src/tranutil.c ****   	   pack_lf();
 756              		.loc 1 719 0
 757 01c0 2248     		ldr	r0, .L49+72
 758 01c2 2021     		movs	r1, #32
 759 01c4 FFF7FEFF 		bl	pack_mem
 760              	.LVL117:
 720:src/tranutil.c ****   pack_mem("SHOP  AND  IN  A GOOD CONDITION ", 32);
 761              		.loc 1 720 0
 762 01c8 FFF7FEFF 		bl	pack_lf
 763              	.LVL118:
 721:src/tranutil.c ****     	   pack_lf();
 764              		.loc 1 721 0
 765 01cc 2048     		ldr	r0, .L49+76
 766 01ce 2021     		movs	r1, #32
 767 01d0 FFF7FEFF 		bl	pack_mem
 768              	.LVL119:
 722:src/tranutil.c ****   pack_mem("     * ALL   SALES   FINAL *    ", 32);
 769              		.loc 1 722 0
 770 01d4 FFF7FEFF 		bl	pack_lf
 771              	.LVL120:
 723:src/tranutil.c ****     	   pack_lf();
 772              		.loc 1 723 0
 773 01d8 1E48     		ldr	r0, .L49+80
 774 01da 2021     		movs	r1, #32
 775 01dc FFF7FEFF 		bl	pack_mem
 776              	.LVL121:
 724:src/tranutil.c **** 		   if(aCustCopy == 0) {
 777              		.loc 1 724 0
 778 01e0 FFF7FEFF 		bl	pack_lf
 779              	.LVL122:
 725:src/tranutil.c **** 		      pack_mem(" ******* CLIENT COPY *********  ", 32);
 780              		.loc 1 725 0
 781 01e4 0EB9     		cbnz	r6, .L38
 726:src/tranutil.c **** 			 pack_lf();
 782              		.loc 1 726 0
 783 01e6 1C48     		ldr	r0, .L49+84
 784 01e8 00E0     		b	.L48
 785              	.L38:
 729:src/tranutil.c **** 		   
 786              		.loc 1 729 0
 787 01ea 1C48     		ldr	r0, .L49+88
 788              	.L48:
 789 01ec 2021     		movs	r1, #32
 790 01ee FFF7FEFF 		bl	pack_mem
 791              	.LVL123:
 731:src/tranutil.c **** 		   
 792              		.loc 1 731 0
 793 01f2 FFF7FEFF 		bl	pack_lf
 794              	.LVL124:
ARM GAS  C:\Users\AHMED~1.ELE\AppData\Local\Temp\cc98zNMh.s 			page 43


 736:src/tranutil.c ****  // pack_lf();
 795              		.loc 1 736 0
 796 01f6 1A48     		ldr	r0, .L49+92
 797 01f8 2021     		movs	r1, #32
 798 01fa FFF7FEFF 		bl	pack_mem
 799              	.LVL125:
 859:src/tranutil.c **** 
 800              		.loc 1 859 0
 801 01fe 18B0     		add	sp, sp, #96
 802              		.cfi_def_cfa_offset 16
 803              		@ sp needed
 804 0200 70BD     		pop	{r4, r5, r6, pc}
 805              	.L50:
 806 0202 00BF     		.align	2
 807              	.L49:
 808 0204 98000000 		.word	.LC13
 809 0208 00000000 		.word	gGDS
 810 020c 00000000 		.word	gCurInfo
 811 0210 A0000000 		.word	.LC14
 812 0214 B3000000 		.word	.LC15
 813 0218 C4000000 		.word	.LC16
 814 021c CB000000 		.word	.LC17
 815 0220 EC000000 		.word	.LC18
 816 0224 00000000 		.word	gGTS
 817 0228 07010000 		.word	.LC19
 818 022c 0E010000 		.word	.LC20
 819 0230 2F010000 		.word	.LC21
 820 0234 39010000 		.word	.LC22
 821 0238 3B010000 		.word	.LC23
 822 023c 3D010000 		.word	.LC24
 823 0240 5E010000 		.word	.LC25
 824 0244 7F010000 		.word	.LC26
 825 0248 A0010000 		.word	.LC27
 826 024c C1010000 		.word	.LC28
 827 0250 E2010000 		.word	.LC29
 828 0254 03020000 		.word	.LC30
 829 0258 24020000 		.word	.LC31
 830 025c 45020000 		.word	.LC32
 831 0260 66020000 		.word	.LC33
 832              		.cfi_endproc
 833              	.LFE6:
 834              		.size	PackContent, .-PackContent
 835              		.section	.text.PackTelNo,"ax",%progbits
 836              		.align	1
 837              		.thumb
 838              		.thumb_func
 839              		.type	PackTelNo, %function
 840              	PackTelNo:
 841              	.LFB42:
1447:src/tranutil.c **** }
1448:src/tranutil.c **** //*****************************************************************************
1449:src/tranutil.c **** //  Function        : AddTotals
1450:src/tranutil.c **** //  Description     : Add RECORD_BUF amount to term_tot.
1451:src/tranutil.c **** //  Input           : N/A
1452:src/tranutil.c **** //  Return          : N/A
1453:src/tranutil.c **** //  Note            : N/A
1454:src/tranutil.c **** //  Globals Changed : N/A
ARM GAS  C:\Users\AHMED~1.ELE\AppData\Local\Temp\cc98zNMh.s 			page 44


1455:src/tranutil.c **** //*****************************************************************************
1456:src/tranutil.c **** void AddToTotals(void)
1457:src/tranutil.c **** {
1458:src/tranutil.c **** 	if (RECORD_BUF.b_trans_status & ADJUSTED){
1459:src/tranutil.c ****     TERM_TOT.d_adjust_count++;
1460:src/tranutil.c **** 	TTERM_TOT.d_adjust_count++;
1461:src/tranutil.c **** 	}
1462:src/tranutil.c **** 
1463:src/tranutil.c ****     if (SaleType(RECORD_BUF.b_trans)) {
1464:src/tranutil.c ****     AddTotal(&TERM_TOT.s_ALL, RECORD_BUF.dd_amount);
1465:src/tranutil.c ****     AddTotal(&TERM_TOT.s_sale_tot, RECORD_BUF.dd_amount);
1466:src/tranutil.c **** 	AddTotal(&TTERM_TOT.s_ALL, RECORD_BUF.dd_amount);
1467:src/tranutil.c ****     AddTotal(&TTERM_TOT.s_sale_tot, RECORD_BUF.dd_amount);
1468:src/tranutil.c ****     if (RECORD_BUF.dd_tip!=0)
1469:src/tranutil.c ****       AddTotal(&TERM_TOT.s_tips_tot, RECORD_BUF.dd_tip);
1470:src/tranutil.c ****   }
1471:src/tranutil.c **** 	else{
1472:src/tranutil.c **** 	AddTotal(&TERM_TOT.s_ALL, RECORD_BUF.dd_amount);
1473:src/tranutil.c ****     AddTotal(&TERM_TOT.s_refund_tot, RECORD_BUF.dd_amount);
1474:src/tranutil.c **** 	AddTotal(&TTERM_TOT.s_ALL, RECORD_BUF.dd_amount);
1475:src/tranutil.c ****     AddTotal(&TTERM_TOT.s_refund_tot, RECORD_BUF.dd_amount);
1476:src/tranutil.c ****     }
1477:src/tranutil.c **** 
1478:src/tranutil.c **** 
1479:src/tranutil.c ****   if (RECORD_BUF.b_trans_status & VOIDED) {
1480:src/tranutil.c **** 	  if (SaleType(RECORD_BUF.b_trans)){
1481:src/tranutil.c **** 	  SubTotal(&TERM_TOT.s_ALL, RECORD_BUF.dd_amount);
1482:src/tranutil.c ****       AddTotal(&TERM_TOT.s_void_sale, RECORD_BUF.dd_amount);
1483:src/tranutil.c **** 	  SubTotal(&TTERM_TOT.s_ALL, RECORD_BUF.dd_amount);
1484:src/tranutil.c ****       AddTotal(&TTERM_TOT.s_void_sale, RECORD_BUF.dd_amount);
1485:src/tranutil.c **** 	  }else{
1486:src/tranutil.c **** 	  SubTotal(&TERM_TOT.s_ALL, RECORD_BUF.dd_amount);
1487:src/tranutil.c ****       AddTotal(&TERM_TOT.s_void_refund, RECORD_BUF.dd_amount);
1488:src/tranutil.c **** 	  SubTotal(&TTERM_TOT.s_ALL, RECORD_BUF.dd_amount);
1489:src/tranutil.c ****       AddTotal(&TTERM_TOT.s_void_refund, RECORD_BUF.dd_amount);
1490:src/tranutil.c **** 	  }
1491:src/tranutil.c ****  //   return;
1492:src/tranutil.c ****   }
1493:src/tranutil.c **** 
1494:src/tranutil.c **** 
1495:src/tranutil.c **** }
1496:src/tranutil.c **** //*****************************************************************************
1497:src/tranutil.c **** //  Function        : CalTotals
1498:src/tranutil.c **** //  Description     : Calculate to transaction totals.
1499:src/tranutil.c **** //  Input           : all;      // TRUE : total for all transaction.
1500:src/tranutil.c **** //                              // FALSE: acquirer[0] ONLY.
1501:src/tranutil.c **** //  Return          : N/A
1502:src/tranutil.c **** //  Note            : N/A
1503:src/tranutil.c **** //  Globals Changed : ...
1504:src/tranutil.c **** //*****************************************************************************
1505:src/tranutil.c **** void CalTotals(BOOLEAN aAll)
1506:src/tranutil.c **** {
1507:src/tranutil.c ****   DWORD i = 0;
1508:src/tranutil.c **** 
1509:src/tranutil.c ****   memset(&TERM_TOT, 0, sizeof(struct TOTAL_STRUCT));
1510:src/tranutil.c ****   while (TRUE) {
1511:src/tranutil.c ****     if (!APM_GetBatchRec(i, (BYTE *)&RECORD_BUF, sizeof(RECORD_BUF)))
ARM GAS  C:\Users\AHMED~1.ELE\AppData\Local\Temp\cc98zNMh.s 			page 45


1512:src/tranutil.c ****       break;
1513:src/tranutil.c ****     i++;
1514:src/tranutil.c ****     if (aAll || (RECORD_BUF.w_host_idx == INPUT.w_host_idx))
1515:src/tranutil.c ****       AddToTotals();
1516:src/tranutil.c ****   }
1517:src/tranutil.c **** }
1518:src/tranutil.c **** //*****************************************************************************
1519:src/tranutil.c **** //  Function        : CalIssuerSum
1520:src/tranutil.c **** //  Description     : Calculate transaction totals by issuer.
1521:src/tranutil.c **** //  Input           : aIssuerIdx;   // issuer index.
1522:src/tranutil.c **** //  Return          : N/A
1523:src/tranutil.c **** //  Note            : N/A
1524:src/tranutil.c **** //  Globals Changed : TERM_TOT;
1525:src/tranutil.c **** //*****************************************************************************
1526:src/tranutil.c **** static void CalIssuerSum(WORD aIssuerIdx)
1527:src/tranutil.c **** {
1528:src/tranutil.c ****   DWORD i = 0;
1529:src/tranutil.c **** 
1530:src/tranutil.c ****   while (TRUE) {
1531:src/tranutil.c ****     if ((!APM_GetBatchRec(i, (BYTE *)&RECORD_BUF, sizeof(RECORD_BUF))))
1532:src/tranutil.c ****       break;
1533:src/tranutil.c ****     i++;
1534:src/tranutil.c ****     if (RECORD_BUF.w_issuer_idx == aIssuerIdx)
1535:src/tranutil.c ****       AddToTotals();
1536:src/tranutil.c ****   }
1537:src/tranutil.c **** }
1538:src/tranutil.c **** //*****************************************************************************
1539:src/tranutil.c **** //  Function        : ValidAcquirer
1540:src/tranutil.c **** //  Description     : Validate whether the Acquirer is Support.
1541:src/tranutil.c **** //  Input           : aAcqID;
1542:src/tranutil.c **** //  Return          : TRUE/FALSE;
1543:src/tranutil.c **** //  Note            : N/A
1544:src/tranutil.c **** //  Globals Changed : N/A
1545:src/tranutil.c **** //*****************************************************************************
1546:src/tranutil.c **** static BOOLEAN ValidAcquirer(BYTE aAcqID)
1547:src/tranutil.c **** {
1548:src/tranutil.c ****   BYTE i;
1549:src/tranutil.c ****   WORD max_acq = APM_GetAcqCount();
1550:src/tranutil.c **** 
1551:src/tranutil.c ****   for (i = 0; i < max_acq; i++) {
1552:src/tranutil.c ****     if (!APM_GetAcqTbl(i, &STIS_ACQ_TBL(1)))
1553:src/tranutil.c ****       continue;
1554:src/tranutil.c ****     if (STIS_ACQ_TBL(1).b_status == NOT_LOADED)
1555:src/tranutil.c ****       return (FALSE);
1556:src/tranutil.c ****     if (aAcqID == STIS_ACQ_TBL(1).b_id)
1557:src/tranutil.c ****       return (CorrectHost(GetHostType(1)));
1558:src/tranutil.c ****   }
1559:src/tranutil.c ****   return(FALSE);
1560:src/tranutil.c **** }
1561:src/tranutil.c **** //*****************************************************************************
1562:src/tranutil.c **** //  Function        : PackIssuerTotals
1563:src/tranutil.c **** //  Description     : Pack total information by issuer.
1564:src/tranutil.c **** //  Input           : aIssuerIdx;   // issuer index.
1565:src/tranutil.c **** //  Return          : N/A
1566:src/tranutil.c **** //  Note            : N/A
1567:src/tranutil.c **** //  Globals Changed : N/A
1568:src/tranutil.c **** //*****************************************************************************
ARM GAS  C:\Users\AHMED~1.ELE\AppData\Local\Temp\cc98zNMh.s 			page 46


1569:src/tranutil.c **** static void PackIssuerTotals(WORD aIssuerIdx,BOOLEAN go)
1570:src/tranutil.c **** {
1571:src/tranutil.c ****   CalIssuerSum(aIssuerIdx);
1572:src/tranutil.c ****   if(go){
1573:src/tranutil.c ****   pack_nbyte(' ', ((MAX_CHAR_LINE_NORMAL-10)/2));
1574:src/tranutil.c ****   pack_mem(STIS_ISS_TBL(1).sb_card_name, 10);
1575:src/tranutil.c ****   pack_lf();
1576:src/tranutil.c ****   PackTotals(&TERM_TOT);
1577:src/tranutil.c ****   }
1578:src/tranutil.c **** }
1579:src/tranutil.c **** //*****************************************************************************
1580:src/tranutil.c **** //  Function        : PackVoidTotals
1581:src/tranutil.c **** //  Description     : Pack void transaction totals by ISSUER.
1582:src/tranutil.c **** //  Input           : N/A
1583:src/tranutil.c **** //  Return          : N/A
1584:src/tranutil.c **** //  Note            : N/A
1585:src/tranutil.c **** //  Globals Changed : N/A
1586:src/tranutil.c **** //*****************************************************************************
1587:src/tranutil.c **** static void PackVoidTotals(void)
1588:src/tranutil.c **** {
1589:src/tranutil.c **** 	static const BYTE c_sales[]        = {"OFFLINE SALE "};
1590:src/tranutil.c ****   static const BYTE c_voided_sales[]   = {"VOIDED SALES "};
1591:src/tranutil.c ****   static const BYTE c_voided_refund[]  = {"VOIDED REFUND"};
1592:src/tranutil.c ****   static const BYTE KTotal[]           = {"TOTAL        "};
1593:src/tranutil.c ****   
1594:src/tranutil.c ****   pack_mem((BYTE *)c_sales, 13);
1595:src/tranutil.c ****   pack_space(2);
1596:src/tranutil.c **** 
1597:src/tranutil.c ****   if(TTERM_TOT.s_sale_tot.w_count<10){
1598:src/tranutil.c ****   bindec_data(TTERM_TOT.s_sale_tot.w_count, 1);
1599:src/tranutil.c ****   PackAmt(TTERM_TOT.s_sale_tot.dd_amount, 16);
1600:src/tranutil.c ****   }else if(TTERM_TOT.s_sale_tot.w_count >= 10){
1601:src/tranutil.c ****   bindec_data(TTERM_TOT.s_sale_tot.w_count, 2);
1602:src/tranutil.c ****   PackAmt(TTERM_TOT.s_sale_tot.dd_amount, 15);
1603:src/tranutil.c ****   }else{
1604:src/tranutil.c ****     bindec_data(TTERM_TOT.s_sale_tot.w_count, 3);
1605:src/tranutil.c ****   PackAmt(TTERM_TOT.s_sale_tot.dd_amount, 14);
1606:src/tranutil.c ****   }
1607:src/tranutil.c **** 
1608:src/tranutil.c **** 
1609:src/tranutil.c ****   pack_lf();
1610:src/tranutil.c ****  
1611:src/tranutil.c ****   pack_mem((BYTE *)c_voided_sales, 13);
1612:src/tranutil.c ****   pack_space(2);
1613:src/tranutil.c **** 
1614:src/tranutil.c **** if(TTERM_TOT.s_void_sale.w_count<10){
1615:src/tranutil.c ****  bindec_data(TTERM_TOT.s_void_sale.w_count, 1);
1616:src/tranutil.c ****   PackAmt(TTERM_TOT.s_void_sale.dd_amount, 16);
1617:src/tranutil.c ****   }else if(TTERM_TOT.s_void_sale.w_count >= 10){
1618:src/tranutil.c ****  bindec_data(TTERM_TOT.s_void_sale.w_count, 2);
1619:src/tranutil.c ****   PackAmt(TTERM_TOT.s_void_sale.dd_amount, 15);
1620:src/tranutil.c ****   }else{
1621:src/tranutil.c ****  bindec_data(TTERM_TOT.s_void_sale.w_count, 3);
1622:src/tranutil.c ****   PackAmt(TTERM_TOT.s_void_sale.dd_amount, 14);
1623:src/tranutil.c ****   }
1624:src/tranutil.c **** 
1625:src/tranutil.c ****  
ARM GAS  C:\Users\AHMED~1.ELE\AppData\Local\Temp\cc98zNMh.s 			page 47


1626:src/tranutil.c ****   pack_lf();
1627:src/tranutil.c ****   pack_mem((BYTE *)c_voided_refund, 13);
1628:src/tranutil.c ****   pack_space(2);
1629:src/tranutil.c **** 
1630:src/tranutil.c **** if(TTERM_TOT.s_void_refund.w_count<10){
1631:src/tranutil.c ****  bindec_data(TTERM_TOT.s_void_refund.w_count, 1);
1632:src/tranutil.c ****   PackAmt(TTERM_TOT.s_void_refund.dd_amount, 16);
1633:src/tranutil.c ****   }else if(TTERM_TOT.s_void_refund.w_count >= 10){
1634:src/tranutil.c ****  bindec_data(TTERM_TOT.s_void_refund.w_count, 2);
1635:src/tranutil.c ****   PackAmt(TTERM_TOT.s_void_refund.dd_amount, 15);
1636:src/tranutil.c ****   }else{
1637:src/tranutil.c ****  bindec_data(TTERM_TOT.s_void_refund.w_count, 3);
1638:src/tranutil.c ****   PackAmt(TTERM_TOT.s_void_refund.dd_amount, 14);
1639:src/tranutil.c ****   }
1640:src/tranutil.c **** 
1641:src/tranutil.c ****   pack_lf();
1642:src/tranutil.c **** 
1643:src/tranutil.c ****   PackSeperator('-');
1644:src/tranutil.c **** 
1645:src/tranutil.c ****   pack_mem((BYTE *)KTotal, 13);
1646:src/tranutil.c ****    pack_space(2);
1647:src/tranutil.c **** 
1648:src/tranutil.c ****    if(TTERM_TOT.s_ALL.w_count<10){
1649:src/tranutil.c ****  bindec_data(TTERM_TOT.s_ALL.w_count, 1);
1650:src/tranutil.c ****   PackAmt(TTERM_TOT.s_ALL.dd_amount, 16);
1651:src/tranutil.c ****   }else if(TTERM_TOT.s_ALL.w_count >= 10){
1652:src/tranutil.c ****  bindec_data(TTERM_TOT.s_ALL.w_count, 2);
1653:src/tranutil.c ****   PackAmt(TTERM_TOT.s_ALL.dd_amount, 15);
1654:src/tranutil.c ****   }else{
1655:src/tranutil.c ****  bindec_data(TTERM_TOT.s_ALL.w_count, 3);
1656:src/tranutil.c ****   PackAmt(TTERM_TOT.s_ALL.dd_amount, 14);
1657:src/tranutil.c ****   }
1658:src/tranutil.c **** 
1659:src/tranutil.c **** }
1660:src/tranutil.c **** 
1661:src/tranutil.c **** //*****************************************************************************
1662:src/tranutil.c **** //  Function        : PackVoidTotalsT
1663:src/tranutil.c **** //  Description     : Pack void transaction totals by ISSUER for no print record.
1664:src/tranutil.c **** //  Input           : N/A
1665:src/tranutil.c **** //  Return          : N/A
1666:src/tranutil.c **** //  Note            : N/A
1667:src/tranutil.c **** //  Globals Changed : N/A
1668:src/tranutil.c **** //*****************************************************************************
1669:src/tranutil.c **** static void PackVoidTotalsT(void)
1670:src/tranutil.c **** {
1671:src/tranutil.c **** 	static const BYTE c_sales[]        = {"OFFLINE SALE  "};
1672:src/tranutil.c **** 		static const BYTE c_refund[]   = {"OFFLINE REFUND"};
1673:src/tranutil.c ****   static const BYTE c_voided_sales[]   = {"VOIDED SALES  "};
1674:src/tranutil.c ****   static const BYTE c_voided_refund[]  = {"VOIDED REFUND "};
1675:src/tranutil.c ****   static const BYTE KTotal[]           = {"TOTAL         "};
1676:src/tranutil.c **** 
1677:src/tranutil.c ****   pack_mem((BYTE *)c_sales, 14);
1678:src/tranutil.c ****   pack_space(2);
1679:src/tranutil.c ****   if(TTERM_TOT.s_sale_tot.w_count<10){
1680:src/tranutil.c ****  bindec_data(TTERM_TOT.s_sale_tot.w_count, 1);
1681:src/tranutil.c ****   PackAmt(TTERM_TOT.s_sale_tot.dd_amount, 15);
1682:src/tranutil.c ****   }else if(TTERM_TOT.s_sale_tot.w_count >= 10){
ARM GAS  C:\Users\AHMED~1.ELE\AppData\Local\Temp\cc98zNMh.s 			page 48


1683:src/tranutil.c ****  bindec_data(TTERM_TOT.s_sale_tot.w_count, 2);
1684:src/tranutil.c ****   PackAmt(TTERM_TOT.s_sale_tot.dd_amount, 14);
1685:src/tranutil.c ****   }else{
1686:src/tranutil.c ****  bindec_data(TTERM_TOT.s_sale_tot.w_count, 3);
1687:src/tranutil.c ****   PackAmt(TTERM_TOT.s_sale_tot.dd_amount, 13);
1688:src/tranutil.c ****   }
1689:src/tranutil.c ****   pack_lf();
1690:src/tranutil.c ****  
1691:src/tranutil.c ****   pack_mem((BYTE *)c_voided_sales, 14);
1692:src/tranutil.c ****   pack_space(2);
1693:src/tranutil.c ****         if(TTERM_TOT.s_void_sale.w_count<10){
1694:src/tranutil.c ****  bindec_data(TTERM_TOT.s_void_sale.w_count, 1);
1695:src/tranutil.c ****   PackAmt(TTERM_TOT.s_void_sale.dd_amount, 15);
1696:src/tranutil.c ****   }else if(TTERM_TOT.s_void_sale.w_count >= 10){
1697:src/tranutil.c ****  bindec_data(TTERM_TOT.s_void_sale.w_count, 2);
1698:src/tranutil.c ****   PackAmt(TTERM_TOT.s_void_sale.dd_amount, 14);
1699:src/tranutil.c ****   }else{
1700:src/tranutil.c ****  bindec_data(TTERM_TOT.s_void_sale.w_count, 3);
1701:src/tranutil.c ****   PackAmt(TTERM_TOT.s_void_sale.dd_amount, 13);
1702:src/tranutil.c ****   }
1703:src/tranutil.c ****  
1704:src/tranutil.c ****   pack_lf();
1705:src/tranutil.c ****    pack_mem((BYTE *)c_refund, 14);
1706:src/tranutil.c ****   pack_space(2);
1707:src/tranutil.c ****          if(TTERM_TOT.s_refund_tot.w_count<10){
1708:src/tranutil.c ****  bindec_data(TTERM_TOT.s_refund_tot.w_count, 1);
1709:src/tranutil.c ****   PackAmt(TTERM_TOT.s_refund_tot.dd_amount, 15);
1710:src/tranutil.c ****   }else if(TTERM_TOT.s_refund_tot.w_count >= 10){
1711:src/tranutil.c ****  bindec_data(TTERM_TOT.s_refund_tot.w_count, 2);
1712:src/tranutil.c ****   PackAmt(TTERM_TOT.s_refund_tot.dd_amount, 14);
1713:src/tranutil.c ****   }else{
1714:src/tranutil.c ****  bindec_data(TTERM_TOT.s_refund_tot.w_count, 3);
1715:src/tranutil.c ****   PackAmt(TTERM_TOT.s_refund_tot.dd_amount, 13);
1716:src/tranutil.c ****   }
1717:src/tranutil.c ****  
1718:src/tranutil.c ****   pack_lf();
1719:src/tranutil.c ****   pack_mem((BYTE *)c_voided_refund, 14);
1720:src/tranutil.c ****   pack_space(2);
1721:src/tranutil.c ****  if(TTERM_TOT.s_void_refund.w_count<10){
1722:src/tranutil.c ****  bindec_data(TTERM_TOT.s_void_refund.w_count, 1);
1723:src/tranutil.c ****   PackAmt(TTERM_TOT.s_void_refund.dd_amount, 15);
1724:src/tranutil.c ****   }else if(TTERM_TOT.s_void_refund.w_count >= 10){
1725:src/tranutil.c ****  bindec_data(TTERM_TOT.s_void_refund.w_count, 2);
1726:src/tranutil.c ****   PackAmt(TTERM_TOT.s_void_refund.dd_amount, 14);
1727:src/tranutil.c ****   }else{
1728:src/tranutil.c ****  bindec_data(TTERM_TOT.s_void_refund.w_count, 3);
1729:src/tranutil.c ****   PackAmt(TTERM_TOT.s_void_refund.dd_amount, 13);
1730:src/tranutil.c ****   }
1731:src/tranutil.c ****   pack_lf();
1732:src/tranutil.c **** 
1733:src/tranutil.c ****   PackSeperator('-');
1734:src/tranutil.c **** 
1735:src/tranutil.c ****   pack_mem((BYTE *)KTotal, 14);
1736:src/tranutil.c ****    pack_space(2);
1737:src/tranutil.c ****   if(TTERM_TOT.s_ALL.w_count<10){
1738:src/tranutil.c ****  bindec_data(TTERM_TOT.s_ALL.w_count, 1);
1739:src/tranutil.c ****   PackAmt(TTERM_TOT.s_ALL.dd_amount, 15);
ARM GAS  C:\Users\AHMED~1.ELE\AppData\Local\Temp\cc98zNMh.s 			page 49


1740:src/tranutil.c ****   }else if(TTERM_TOT.s_ALL.w_count >= 10){
1741:src/tranutil.c ****  bindec_data(TTERM_TOT.s_ALL.w_count, 2);
1742:src/tranutil.c ****   PackAmt(TTERM_TOT.s_ALL.dd_amount, 14);
1743:src/tranutil.c ****   }else{
1744:src/tranutil.c ****  bindec_data(TTERM_TOT.s_ALL.w_count, 3);
1745:src/tranutil.c ****   PackAmt(TTERM_TOT.s_ALL.dd_amount, 13);
1746:src/tranutil.c ****   }
1747:src/tranutil.c **** }
1748:src/tranutil.c **** //*****************************************************************************
1749:src/tranutil.c **** //  Function        : PackIssuerSum
1750:src/tranutil.c **** //  Description     : Pack ISSUER transaction sum.
1751:src/tranutil.c **** //  Input           : all;        // TRUE :- pack for all issuers.
1752:src/tranutil.c **** //                                // FALSE:- ONLY pack for STIS_ISS_TBL(0).
1753:src/tranutil.c **** //  Return          : N/A
1754:src/tranutil.c **** //  Note            : vico
1755:src/tranutil.c **** //  Globals Changed : N/A
1756:src/tranutil.c **** //*****************************************************************************
1757:src/tranutil.c **** void PackIssuerSum(BOOLEAN aAll)
1758:src/tranutil.c **** {
1759:src/tranutil.c ****   WORD issuer_idx, card_idx;
1760:src/tranutil.c ****   WORD card_idx_temp;
1761:src/tranutil.c ****   WORD max_card   = APM_GetCardCount();
1762:src/tranutil.c ****   WORD  acq_idx;
1763:src/tranutil.c **** 
1764:src/tranutil.c ****  // PackSeperator('-');
1765:src/tranutil.c ****   
1766:src/tranutil.c **** 
1767:src/tranutil.c **** 
1768:src/tranutil.c **** 
1769:src/tranutil.c ****   acq_idx = APM_SelectAcquirer(FALSE);
1770:src/tranutil.c ****   if (acq_idx == -1)
1771:src/tranutil.c ****     return;
1772:src/tranutil.c **** 
1773:src/tranutil.c ****   APM_GetAcqTbl(acq_idx, &STIS_ACQ_TBL(0));
1774:src/tranutil.c **** 
1775:src/tranutil.c ****   pack_str("POS/Terminal ID: ");
1776:src/tranutil.c ****   pack_mem(STIS_TERM_DATA.sb_term_id, 8);
1777:src/tranutil.c ****   pack_lf();
1778:src/tranutil.c ****   pack_str("MERCHANT ID/MID: ");
1779:src/tranutil.c ****   pack_mem(STIS_ACQ_TBL(0).sb_acceptor_id, 15);
1780:src/tranutil.c ****   pack_lf();
1781:src/tranutil.c ****   pack_str("BATCH: ");
1782:src/tranutil.c ****   split_data(STIS_ACQ_TBL(0).sb_curr_batch_no, 3);
1783:src/tranutil.c ****   pack_lf();
1784:src/tranutil.c ****   pack_str("LE/EGP BATCH");
1785:src/tranutil.c ****   pack_lf();
1786:src/tranutil.c ****   PackCurrentDate();
1787:src/tranutil.c ****   pack_lfs(1);
1788:src/tranutil.c ****  
1789:src/tranutil.c ****   pack_str("\x1bW1 SUMMARY REPORT \x1bW0");
1790:src/tranutil.c ****   pack_lf();
1791:src/tranutil.c ****   PackSeperator('=');
1792:src/tranutil.c ****   
1793:src/tranutil.c ****   
1794:src/tranutil.c ****   memset(&TERM_TOT, 0, sizeof(struct TOTAL_STRUCT));
1795:src/tranutil.c **** memset(&TTERM_TOT, 0, sizeof(struct TOTAL_STRUCT));
1796:src/tranutil.c **** 
ARM GAS  C:\Users\AHMED~1.ELE\AppData\Local\Temp\cc98zNMh.s 			page 50


1797:src/tranutil.c ****     for (card_idx = 0; card_idx < max_card; card_idx++) {
1798:src/tranutil.c ****       if (!APM_GetCardTbl(card_idx, &STIS_CARD_TBL(0)))
1799:src/tranutil.c ****         continue;
1800:src/tranutil.c ****       if (!ValidAcquirer(STIS_CARD_TBL(0).b_acquirer_id))
1801:src/tranutil.c ****         continue;
1802:src/tranutil.c ****       if ((STIS_CARD_TBL(0).b_acquirer_id == acq_idx)) {
1803:src/tranutil.c ****         if (!APM_GetIssuer(STIS_CARD_TBL(0).b_issuer_id, &STIS_ISS_TBL(1)))
1804:src/tranutil.c ****         continue;
1805:src/tranutil.c ****         PackIssuerTotals(STIS_CARD_TBL(0).b_issuer_id,true);  
1806:src/tranutil.c **** 		pack_lf();
1807:src/tranutil.c **** 		memset(&TERM_TOT, 0, sizeof(struct TOTAL_STRUCT));
1808:src/tranutil.c ****       }
1809:src/tranutil.c ****     }
1810:src/tranutil.c ****     // clear total except voided sum
1811:src/tranutil.c ****  // pack_lf();
1812:src/tranutil.c ****  //   pack_lfs(1);
1813:src/tranutil.c ****  pack_space((BYTE)(MAX_CHAR_LINE_NORMAL-12)/2);
1814:src/tranutil.c ****   pack_str("GENERAL TOTAL");
1815:src/tranutil.c ****   pack_lf();
1816:src/tranutil.c ****   PackVoidTotals();
1817:src/tranutil.c ****   //PackSeperator('-');
1818:src/tranutil.c ****   memset(&TERM_TOT, 0, sizeof(struct TOTAL_STRUCT));
1819:src/tranutil.c ****   memset(&TTERM_TOT, 0, sizeof(struct TOTAL_STRUCT));
1820:src/tranutil.c ****   pack_lf();
1821:src/tranutil.c ****   PackSeperator('*');
1822:src/tranutil.c ****  // PackEndOfRep();
1823:src/tranutil.c **** }
1824:src/tranutil.c **** 
1825:src/tranutil.c **** 
1826:src/tranutil.c **** //*****************************************************************************
1827:src/tranutil.c **** //  Function        : PackIssuerSumT
1828:src/tranutil.c **** //  Description     : Pack total sum.
1829:src/tranutil.c **** //  Input           : all;        // TRUE :- pack for all issuers.
1830:src/tranutil.c **** //                                // FALSE:- ONLY pack for STIS_ISS_TBL(0).
1831:src/tranutil.c **** //  Return          : N/A
1832:src/tranutil.c **** //  Note            : vico
1833:src/tranutil.c **** //  Globals Changed : N/A
1834:src/tranutil.c **** //*****************************************************************************
1835:src/tranutil.c **** void PackIssuerSumT(WORD acq_idx)
1836:src/tranutil.c **** {
1837:src/tranutil.c ****   WORD issuer_idx, card_idx;
1838:src/tranutil.c ****   WORD card_idx_temp;
1839:src/tranutil.c ****   WORD max_card   = APM_GetCardCount();
1840:src/tranutil.c **** 
1841:src/tranutil.c ****  // PackSeperator('-');
1842:src/tranutil.c **** 
1843:src/tranutil.c **** 
1844:src/tranutil.c ****   APM_GetAcqTbl(acq_idx, &STIS_ACQ_TBL(0));
1845:src/tranutil.c **** 
1846:src/tranutil.c ****    memset(&TERM_TOT, 0, sizeof(struct TOTAL_STRUCT));
1847:src/tranutil.c ****    memset(&TTERM_TOT, 0, sizeof(struct TOTAL_STRUCT));
1848:src/tranutil.c **** 
1849:src/tranutil.c ****     for (card_idx = 0; card_idx < max_card; card_idx++) {
1850:src/tranutil.c ****       if (!APM_GetCardTbl(card_idx, &STIS_CARD_TBL(0)))
1851:src/tranutil.c ****         continue;
1852:src/tranutil.c ****       if (!ValidAcquirer(STIS_CARD_TBL(0).b_acquirer_id))
1853:src/tranutil.c ****         continue;
ARM GAS  C:\Users\AHMED~1.ELE\AppData\Local\Temp\cc98zNMh.s 			page 51


1854:src/tranutil.c ****       if ((STIS_CARD_TBL(0).b_acquirer_id == acq_idx)) {
1855:src/tranutil.c ****         if (!APM_GetIssuer(STIS_CARD_TBL(0).b_issuer_id, &STIS_ISS_TBL(1)))
1856:src/tranutil.c ****         continue;
1857:src/tranutil.c ****         PackIssuerTotals(STIS_CARD_TBL(0).b_issuer_id,false);  
1858:src/tranutil.c **** 	//	pack_lf();
1859:src/tranutil.c **** 		memset(&TERM_TOT, 0, sizeof(struct TOTAL_STRUCT));
1860:src/tranutil.c ****       }
1861:src/tranutil.c ****     }
1862:src/tranutil.c ****     // clear total except voided sum
1863:src/tranutil.c ****   pack_lf();
1864:src/tranutil.c ****   pack_space((BYTE)(MAX_CHAR_LINE_NORMAL-12)/2);
1865:src/tranutil.c ****   pack_str("GENERAL TOTAL");
1866:src/tranutil.c ****   pack_lf();
1867:src/tranutil.c ****   PackVoidTotalsT();
1868:src/tranutil.c ****   //PackSeperator('-');
1869:src/tranutil.c ****   memset(&TERM_TOT, 0, sizeof(struct TOTAL_STRUCT));
1870:src/tranutil.c ****   memset(&TTERM_TOT, 0, sizeof(struct TOTAL_STRUCT));
1871:src/tranutil.c ****   pack_lf();
1872:src/tranutil.c ****   PackSeperator('*');
1873:src/tranutil.c ****  // PackEndOfRep();
1874:src/tranutil.c **** }
1875:src/tranutil.c **** //*****************************************************************************
1876:src/tranutil.c **** //  Function        : FormatHolderName
1877:src/tranutil.c **** //  Description     : Format the card holder name as per AMEX request.
1878:src/tranutil.c **** //  Input           : aDest;        // pointer to output buffer.
1879:src/tranutil.c **** //                    aName;        // pointer to name buffer from CARD.
1880:src/tranutil.c **** //                    len;          // len of name buffer.
1881:src/tranutil.c **** //  Return          : N/A
1882:src/tranutil.c **** //  Note            : N/A
1883:src/tranutil.c **** //  Globals Changed : input.sb_holder_name;
1884:src/tranutil.c **** //*****************************************************************************
1885:src/tranutil.c **** void FormatHolderName(BYTE *aDest, BYTE *aName, BYTE aLen)
1886:src/tranutil.c **** {
1887:src/tranutil.c ****   BYTE i, tIdx, mIdx;
1888:src/tranutil.c **** 
1889:src/tranutil.c ****   memset(aDest, ' ', sizeof(INPUT.sb_holder_name));
1890:src/tranutil.c ****   tIdx = aLen;
1891:src/tranutil.c ****   mIdx = aLen;
1892:src/tranutil.c ****   // locate title
1893:src/tranutil.c ****   for (i=0; i < aLen; i++) {
1894:src/tranutil.c ****     if (aName[i]== '.') {
1895:src/tranutil.c ****       tIdx = i;
1896:src/tranutil.c ****       break;
1897:src/tranutil.c ****     }
1898:src/tranutil.c ****     if (aName[i] == '/')
1899:src/tranutil.c ****       mIdx = i;
1900:src/tranutil.c ****   }
1901:src/tranutil.c ****   // Exception case handle for only exist title or title come first than middle
1902:src/tranutil.c ****   if (tIdx < mIdx)
1903:src/tranutil.c ****     tIdx = aLen;
1904:src/tranutil.c ****   if (aLen > tIdx) {  // title exist
1905:src/tranutil.c ****     memcpy(aDest, &aName[tIdx+1], aLen - tIdx-1);
1906:src/tranutil.c ****     aDest+= (aLen-tIdx);
1907:src/tranutil.c ****   }
1908:src/tranutil.c ****   if (tIdx > mIdx) {  // Middle name exist
1909:src/tranutil.c ****     memcpy(aDest, &aName[mIdx+1], tIdx - mIdx - 1);
1910:src/tranutil.c ****     aDest += (tIdx - mIdx - 1);
ARM GAS  C:\Users\AHMED~1.ELE\AppData\Local\Temp\cc98zNMh.s 			page 52


1911:src/tranutil.c ****   }
1912:src/tranutil.c ****   memcpy(aDest, aName, mIdx);
1913:src/tranutil.c **** }
1914:src/tranutil.c **** //*****************************************************************************
1915:src/tranutil.c **** //  Function        : IncTraceNoEND
1916:src/tranutil.c **** //  Description     : End Increment the system trace no & save to input & tx_data.
1917:src/tranutil.c **** //  Input           : N/A
1918:src/tranutil.c **** //  Return          : N/A
1919:src/tranutil.c **** //  Note            : N/A
1920:src/tranutil.c **** //  Globals Changed : N/A
1921:src/tranutil.c **** //*****************************************************************************
1922:src/tranutil.c **** void IncTraceNoEND(void)
1923:src/tranutil.c **** {
1924:src/tranutil.c ****   memcpy(INPUT.sb_trace_no, STIS_TERM_DATA.sb_trace_no, 3);
1925:src/tranutil.c ****   memcpy(INPUT.sb_roc_no, INPUT.sb_trace_no, 3);
1926:src/tranutil.c ****   IncAPMTraceNo();
1927:src/tranutil.c **** }
1928:src/tranutil.c **** //*****************************************************************************
1929:src/tranutil.c **** //  Function        : IncTraceNo
1930:src/tranutil.c **** //  Description     : Increment the system trace no & save to input & tx_data.
1931:src/tranutil.c **** //  Input           : N/A
1932:src/tranutil.c **** //  Return          : N/A
1933:src/tranutil.c **** //  Note            : N/A
1934:src/tranutil.c **** //  Globals Changed : N/A
1935:src/tranutil.c **** //*****************************************************************************
1936:src/tranutil.c **** void IncTraceNo(void)
1937:src/tranutil.c **** {
1938:src/tranutil.c ****   memcpy(INPUT.sb_trace_no, STIS_TERM_DATA.sb_trace_no, 3);
1939:src/tranutil.c ****   memcpy(INPUT.sb_roc_no, INPUT.sb_trace_no, 3);
1940:src/tranutil.c **** }
1941:src/tranutil.c **** //*****************************************************************************
1942:src/tranutil.c **** //  Function        : ClearRspData
1943:src/tranutil.c **** //  Description     : Clear RSP_DATA.
1944:src/tranutil.c **** //  Input           : N/A
1945:src/tranutil.c **** //  Return          : N/A
1946:src/tranutil.c **** //  Note            : N/A
1947:src/tranutil.c **** //  Globals         : RSP_DATA;
1948:src/tranutil.c **** //*****************************************************************************
1949:src/tranutil.c **** void ClearRspData(void)
1950:src/tranutil.c **** {
1951:src/tranutil.c ****   RSP_DATA.b_response = TRANS_FAIL;
1952:src/tranutil.c ****   RSP_DATA.w_rspcode  = 'C'*256+'N';
1953:src/tranutil.c ****   RSP_DATA.text[0] = 0;
1954:src/tranutil.c ****   memset(&RSP_DATA.text[1], ' ', 69);
1955:src/tranutil.c ****   memset(RSP_DATA.sb_rrn, ' ', 12);
1956:src/tranutil.c ****   memset(RSP_DATA.sb_auth_code, ' ', 6);
1957:src/tranutil.c **** }
1958:src/tranutil.c **** //*****************************************************************************
1959:src/tranutil.c **** //  Function        : ResetTerm
1960:src/tranutil.c **** //  Description     : Reset terminal globals & hardware.
1961:src/tranutil.c **** //  Input           : N/A
1962:src/tranutil.c **** //  Return          : N/A
1963:src/tranutil.c **** //  Note            : N/A
1964:src/tranutil.c **** //  Globals         : gRspData;
1965:src/tranutil.c **** //                    gInput.
1966:src/tranutil.c **** //*****************************************************************************
1967:src/tranutil.c **** void ResetTerm(void)
ARM GAS  C:\Users\AHMED~1.ELE\AppData\Local\Temp\cc98zNMh.s 			page 53


1968:src/tranutil.c **** {
1969:src/tranutil.c ****   IOCtlMW(gMsrHandle, IO_MSR_RESET, NULL);
1970:src/tranutil.c ****   gGDS->b_disp_chgd = TRUE;
1971:src/tranutil.c ****   MSG_BUF.d_len = 0;
1972:src/tranutil.c ****   ClearRspData();
1973:src/tranutil.c ****   if (RSP_DATA.w_rspcode != 'C'*256+'3')
1974:src/tranutil.c ****     memset(&INPUT, 0, sizeof(INPUT));
1975:src/tranutil.c ****   #if (T800)
1976:src/tranutil.c ****   os_disp_bl_control(0x10);
1977:src/tranutil.c ****   #endif
1978:src/tranutil.c ****   APM_ClearKeyin();
1979:src/tranutil.c ****   gIdleCnt = FreeRunMark();         //25-07-17 JC ++
1980:src/tranutil.c **** }
1981:src/tranutil.c **** //******************************************************************************
1982:src/tranutil.c **** //  Function        : ConvB2Comma
1983:src/tranutil.c **** //  Description     : Convert the special character in buffer.
1984:src/tranutil.c **** //  Input           : aPtr;    // pointer to buffer need to be convert.
1985:src/tranutil.c **** //  Return          : N/A
1986:src/tranutil.c **** //  Note            : 'B' => ','
1987:src/tranutil.c **** //                    'D' => '*'
1988:src/tranutil.c **** //                    'E' => '#'
1989:src/tranutil.c **** //  Globals Changed : N/A
1990:src/tranutil.c **** //******************************************************************************
1991:src/tranutil.c **** static void ConvB2Comma(BYTE *aPtr)
1992:src/tranutil.c **** {
1993:src/tranutil.c ****   while (*aPtr) {
1994:src/tranutil.c ****     if (*aPtr == 'B') *aPtr = ',';
1995:src/tranutil.c ****     else if (*aPtr == 'D') *aPtr = '*';
1996:src/tranutil.c ****     else if (*aPtr == 'E') *aPtr = '#';
1997:src/tranutil.c ****     aPtr++;
1998:src/tranutil.c ****   }
1999:src/tranutil.c **** }
2000:src/tranutil.c **** //******************************************************************************
2001:src/tranutil.c **** //  Function        : PackTelNo
2002:src/tranutil.c **** //  Description     : Pack telephone number together AT cmd & pabx.
2003:src/tranutil.c **** //  Input           : aTermData
2004:src/tranutil.c **** //                    aTelBuf;       // pointer to result buffer.
2005:src/tranutil.c **** //                    aTel;          // pointer to tel num with 'F' packed.
2006:src/tranutil.c **** //  Return          : length of packed buffer.
2007:src/tranutil.c **** //  Note            : N/A
2008:src/tranutil.c **** //  Globals Changed : N/A
2009:src/tranutil.c **** //******************************************************************************
2010:src/tranutil.c **** static BYTE PackTelNo(struct TERM_DATA aTermData, BYTE *aTelBuf, BYTE *aTel)
2011:src/tranutil.c **** {
 842              		.loc 1 2011 0
 843              		.cfi_startproc
 844              		@ args = 376, pretend = 16, frame = 0
 845              		@ frame_needed = 0, uses_anonymous_args = 0
 846              	.LVL126:
 847 0000 84B0     		sub	sp, sp, #16
 848              		.cfi_def_cfa_offset 16
 849 0002 38B5     		push	{r3, r4, r5, lr}
 850              		.cfi_def_cfa_offset 32
 851              		.cfi_offset 3, -32
 852              		.cfi_offset 4, -28
 853              		.cfi_offset 5, -24
 854              		.cfi_offset 14, -20
ARM GAS  C:\Users\AHMED~1.ELE\AppData\Local\Temp\cc98zNMh.s 			page 54


 855              		.loc 1 2011 0
 856 0004 04AC     		add	r4, sp, #16
 857 0006 84E80F00 		stmia	r4, {r0, r1, r2, r3}
 858 000a 609C     		ldr	r4, [sp, #384]
2012:src/tranutil.c ****   BYTE count;
2013:src/tranutil.c **** 
2014:src/tranutil.c ****   memset(aTelBuf,0,34);
 859              		.loc 1 2014 0
 860 000c 0021     		movs	r1, #0
 861 000e 2046     		mov	r0, r4
 862 0010 2222     		movs	r2, #34
 863 0012 FFF7FEFF 		bl	memset
 864              	.LVL127:
2015:src/tranutil.c ****   count = 0;
2016:src/tranutil.c ****   aTelBuf[count++] = aTermData.b_dial_mode == 0 ? 'T' : 'P';
 865              		.loc 1 2016 0
 866 0016 9DF83930 		ldrb	r3, [sp, #57]	@ zero_extendqisi2
 867 001a 2046     		mov	r0, r4
 868 001c 002B     		cmp	r3, #0
 869 001e 0CBF     		ite	eq
 870 0020 5423     		moveq	r3, #84
 871 0022 5023     		movne	r3, #80
2017:src/tranutil.c ****   split(&aTelBuf[count], aTermData.sb_pabx, 4);
 872              		.loc 1 2017 0
 873 0024 0DF13A01 		add	r1, sp, #58
2016:src/tranutil.c ****   split(&aTelBuf[count], aTermData.sb_pabx, 4);
 874              		.loc 1 2016 0
 875 0028 00F8013B 		strb	r3, [r0], #1
 876              		.loc 1 2017 0
 877 002c 0422     		movs	r2, #4
 878 002e FFF7FEFF 		bl	split
 879              	.LVL128:
2018:src/tranutil.c ****   count = (BYTE)fndb(aTelBuf,'F', 9);
 880              		.loc 1 2018 0
 881 0032 2046     		mov	r0, r4
 882 0034 4621     		movs	r1, #70
 883 0036 0922     		movs	r2, #9
 884 0038 FFF7FEFF 		bl	fndb
 885              	.LVL129:
2019:src/tranutil.c ****   split(&aTelBuf[count],aTel,12);
 886              		.loc 1 2019 0
 887 003c 6199     		ldr	r1, [sp, #388]
 888 003e 0C22     		movs	r2, #12
2018:src/tranutil.c ****   count = (BYTE)fndb(aTelBuf,'F', 9);
 889              		.loc 1 2018 0
 890 0040 0546     		mov	r5, r0
 891              	.LVL130:
 892              		.loc 1 2019 0
 893 0042 54FA80F0 		uxtab	r0, r4, r0
 894              	.LVL131:
 895 0046 FFF7FEFF 		bl	split
 896              	.LVL132:
2020:src/tranutil.c ****   count = (BYTE) fndb(aTelBuf, 'F', (BYTE)(count+24));
 897              		.loc 1 2020 0
 898 004a 05F11802 		add	r2, r5, #24
 899 004e 2046     		mov	r0, r4
 900 0050 4621     		movs	r1, #70
ARM GAS  C:\Users\AHMED~1.ELE\AppData\Local\Temp\cc98zNMh.s 			page 55


 901 0052 D2B2     		uxtb	r2, r2
 902 0054 FFF7FEFF 		bl	fndb
 903              	.LVL133:
2021:src/tranutil.c ****   aTelBuf[count] = 0;
 904              		.loc 1 2021 0
 905 0058 0023     		movs	r3, #0
2020:src/tranutil.c ****   count = (BYTE) fndb(aTelBuf, 'F', (BYTE)(count+24));
 906              		.loc 1 2020 0
 907 005a C0B2     		uxtb	r0, r0
 908              	.LVL134:
 909              		.loc 1 2021 0
 910 005c 2354     		strb	r3, [r4, r0]
 911              	.LVL135:
 912 005e 013C     		subs	r4, r4, #1
 913              	.LVL136:
 914              	.L53:
 915              	.LBB4:
 916              	.LBB5:
1993:src/tranutil.c ****     if (*aPtr == 'B') *aPtr = ',';
 917              		.loc 1 1993 0
 918 0060 14F8013F 		ldrb	r3, [r4, #1]!	@ zero_extendqisi2
 919              	.LVL137:
 920 0064 63B1     		cbz	r3, .L60
1994:src/tranutil.c ****     else if (*aPtr == 'D') *aPtr = '*';
 921              		.loc 1 1994 0
 922 0066 422B     		cmp	r3, #66
 923 0068 01D1     		bne	.L54
 924 006a 2C23     		movs	r3, #44
 925 006c 06E0     		b	.L59
 926              	.L54:
1995:src/tranutil.c ****     else if (*aPtr == 'E') *aPtr = '#';
 927              		.loc 1 1995 0
 928 006e 442B     		cmp	r3, #68
 929 0070 01D1     		bne	.L56
 930 0072 2A23     		movs	r3, #42
 931 0074 02E0     		b	.L59
 932              	.L56:
1996:src/tranutil.c ****     aPtr++;
 933              		.loc 1 1996 0
 934 0076 452B     		cmp	r3, #69
 935 0078 F2D1     		bne	.L53
 936 007a 2323     		movs	r3, #35
 937              	.L59:
 938 007c 2370     		strb	r3, [r4]
 939              	.LVL138:
 940 007e EFE7     		b	.L53
 941              	.LVL139:
 942              	.L60:
 943              	.LBE5:
 944              	.LBE4:
2022:src/tranutil.c ****   ConvB2Comma(aTelBuf);
2023:src/tranutil.c **** 
2024:src/tranutil.c ****   return(count);
2025:src/tranutil.c **** }
 945              		.loc 1 2025 0
 946 0080 BDE83840 		pop	{r3, r4, r5, lr}
 947              		.cfi_restore 14
ARM GAS  C:\Users\AHMED~1.ELE\AppData\Local\Temp\cc98zNMh.s 			page 56


 948              		.cfi_restore 5
 949              		.cfi_restore 4
 950              		.cfi_restore 3
 951              		.cfi_def_cfa_offset 16
 952              	.LVL140:
 953 0084 04B0     		add	sp, sp, #16
 954              		.cfi_def_cfa_offset 0
 955 0086 7047     		bx	lr
 956              		.cfi_endproc
 957              	.LFE42:
 958              		.size	PackTelNo, .-PackTelNo
 959              		.section	.text.PackTxnSlip.part.0,"ax",%progbits
 960              		.align	1
 961              		.thumb
 962              		.thumb_func
 963              		.type	PackTxnSlip.part.0, %function
 964              	PackTxnSlip.part.0:
 965              	.LFB44:
 912:src/tranutil.c **** {
 966              		.loc 1 912 0
 967              		.cfi_startproc
 968              		@ args = 0, pretend = 0, frame = 0
 969              		@ frame_needed = 0, uses_anonymous_args = 0
 970              		@ link register save eliminated.
 971              	.LVL141:
 931:src/tranutil.c **** }
 972              		.loc 1 931 0
 973 0000 034B     		ldr	r3, .L62
 974 0002 1B68     		ldr	r3, [r3]
 975 0004 03F69C50 		addw	r0, r3, #3484
 976 0008 B3F8981D 		ldrh	r1, [r3, #3480]
 977 000c FFF7FEBF 		b	SaveLastRcpt
 978              	.LVL142:
 979              	.L63:
 980              		.align	2
 981              	.L62:
 982 0010 00000000 		.word	gGDS
 983              		.cfi_endproc
 984              	.LFE44:
 985              		.size	PackTxnSlip.part.0, .-PackTxnSlip.part.0
 986              		.section	.text.ValidAcquirer,"ax",%progbits
 987              		.align	1
 988              		.thumb
 989              		.thumb_func
 990              		.type	ValidAcquirer, %function
 991              	ValidAcquirer:
 992              	.LFB30:
1547:src/tranutil.c ****   BYTE i;
 993              		.loc 1 1547 0
 994              		.cfi_startproc
 995              		@ args = 0, pretend = 0, frame = 0
 996              		@ frame_needed = 0, uses_anonymous_args = 0
 997              	.LVL143:
 998 0000 F7B5     		push	{r0, r1, r2, r4, r5, r6, r7, lr}
 999              		.cfi_def_cfa_offset 32
 1000              		.cfi_offset 4, -20
 1001              		.cfi_offset 5, -16
ARM GAS  C:\Users\AHMED~1.ELE\AppData\Local\Temp\cc98zNMh.s 			page 57


 1002              		.cfi_offset 6, -12
 1003              		.cfi_offset 7, -8
 1004              		.cfi_offset 14, -4
1549:src/tranutil.c **** 
 1005              		.loc 1 1549 0
 1006 0002 0024     		movs	r4, #0
1547:src/tranutil.c ****   BYTE i;
 1007              		.loc 1 1547 0
 1008 0004 0746     		mov	r7, r0
1549:src/tranutil.c **** 
 1009              		.loc 1 1549 0
 1010 0006 0094     		str	r4, [sp]
 1011 0008 1020     		movs	r0, #16
 1012              	.LVL144:
 1013 000a 1421     		movs	r1, #20
 1014 000c 2246     		mov	r2, r4
 1015 000e 2346     		mov	r3, r4
 1016 0010 FFF7FEFF 		bl	lib_app_call
 1017              	.LVL145:
 1018 0014 86B2     		uxth	r6, r0
 1019              	.LVL146:
 1020              	.L65:
1551:src/tranutil.c ****     if (!APM_GetAcqTbl(i, &STIS_ACQ_TBL(1)))
 1021              		.loc 1 1551 0 discriminator 1
 1022 0016 B442     		cmp	r4, r6
 1023 0018 21D2     		bcs	.L68
1552:src/tranutil.c ****       continue;
 1024              		.loc 1 1552 0
 1025 001a 124D     		ldr	r5, .L74
 1026 001c 0022     		movs	r2, #0
 1027 001e 2B68     		ldr	r3, [r5]
 1028 0020 0092     		str	r2, [sp]
 1029 0022 1020     		movs	r0, #16
 1030 0024 1521     		movs	r1, #21
 1031 0026 2246     		mov	r2, r4
 1032 0028 03F57D73 		add	r3, r3, #1012
 1033 002c FFF7FEFF 		bl	lib_app_call
 1034              	.LVL147:
 1035 0030 10F0FF0F 		tst	r0, #255
 1036 0034 10D0     		beq	.L66
1554:src/tranutil.c ****       return (FALSE);
 1037              		.loc 1 1554 0
 1038 0036 2B68     		ldr	r3, [r5]
 1039 0038 93F89C24 		ldrb	r2, [r3, #1180]	@ zero_extendqisi2
 1040 003c FF2A     		cmp	r2, #255
 1041 003e 0ED0     		beq	.L68
1556:src/tranutil.c ****       return (CorrectHost(GetHostType(1)));
 1042              		.loc 1 1556 0
 1043 0040 93F8F433 		ldrb	r3, [r3, #1012]	@ zero_extendqisi2
 1044 0044 BB42     		cmp	r3, r7
 1045 0046 07D1     		bne	.L66
 1046              	.LVL148:
 1047              	.LBB8:
 1048              	.LBB9:
1557:src/tranutil.c ****   }
 1049              		.loc 1 1557 0
 1050 0048 0120     		movs	r0, #1
ARM GAS  C:\Users\AHMED~1.ELE\AppData\Local\Temp\cc98zNMh.s 			page 58


 1051 004a FFF7FEFF 		bl	GetHostType
 1052              	.LVL149:
 1053              	.LBE9:
 1054              	.LBE8:
1560:src/tranutil.c **** //*****************************************************************************
 1055              		.loc 1 1560 0
 1056 004e 03B0     		add	sp, sp, #12
 1057              		.cfi_remember_state
 1058              		.cfi_def_cfa_offset 20
 1059              		@ sp needed
 1060 0050 BDE8F040 		pop	{r4, r5, r6, r7, lr}
 1061              		.cfi_restore 14
 1062              		.cfi_restore 7
 1063              		.cfi_restore 6
 1064              		.cfi_restore 5
 1065              		.cfi_restore 4
 1066              		.cfi_def_cfa_offset 0
 1067              	.LVL150:
 1068              	.LBB11:
 1069              	.LBB10:
1557:src/tranutil.c ****   }
 1070              		.loc 1 1557 0
 1071 0054 FFF7FEBF 		b	CorrectHost
 1072              	.LVL151:
 1073              	.L66:
 1074              		.cfi_restore_state
 1075              	.LBE10:
 1076              	.LBE11:
1551:src/tranutil.c ****     if (!APM_GetAcqTbl(i, &STIS_ACQ_TBL(1)))
 1077              		.loc 1 1551 0 discriminator 2
 1078 0058 0134     		adds	r4, r4, #1
 1079              	.LVL152:
 1080 005a E4B2     		uxtb	r4, r4
 1081              	.LVL153:
 1082 005c DBE7     		b	.L65
 1083              	.L68:
1560:src/tranutil.c **** //*****************************************************************************
 1084              		.loc 1 1560 0
 1085 005e 0020     		movs	r0, #0
 1086 0060 03B0     		add	sp, sp, #12
 1087              		.cfi_def_cfa_offset 20
 1088              		@ sp needed
 1089 0062 F0BD     		pop	{r4, r5, r6, r7, pc}
 1090              	.LVL154:
 1091              	.L75:
 1092              		.align	2
 1093              	.L74:
 1094 0064 00000000 		.word	gGDS
 1095              		.cfi_endproc
 1096              	.LFE30:
 1097              		.size	ValidAcquirer, .-ValidAcquirer
 1098              		.global	__aeabi_uldivmod
 1099              		.section	.text.OverMargin,"ax",%progbits
 1100              		.align	1
 1101              		.global	OverMargin
 1102              		.thumb
 1103              		.thumb_func
ARM GAS  C:\Users\AHMED~1.ELE\AppData\Local\Temp\cc98zNMh.s 			page 59


 1104              		.type	OverMargin, %function
 1105              	OverMargin:
 1106              	.LFB0:
 134:src/tranutil.c ****   DDWORD amount;
 1107              		.loc 1 134 0
 1108              		.cfi_startproc
 1109              		@ args = 0, pretend = 0, frame = 0
 1110              		@ frame_needed = 0, uses_anonymous_args = 0
 137:src/tranutil.c ****     return(FALSE);
 1111              		.loc 1 137 0
 1112 0000 0E4B     		ldr	r3, .L81
 134:src/tranutil.c ****   DDWORD amount;
 1113              		.loc 1 134 0
 1114 0002 70B5     		push	{r4, r5, r6, lr}
 1115              		.cfi_def_cfa_offset 16
 1116              		.cfi_offset 4, -16
 1117              		.cfi_offset 5, -12
 1118              		.cfi_offset 6, -8
 1119              		.cfi_offset 14, -4
 137:src/tranutil.c ****     return(FALSE);
 1120              		.loc 1 137 0
 1121 0004 1B68     		ldr	r3, [r3]
 1122 0006 93F8D403 		ldrb	r0, [r3, #980]	@ zero_extendqisi2
 1123 000a B0B1     		cbz	r0, .L77
 140:src/tranutil.c ****   amount /= 100;
 1124              		.loc 1 140 0
 1125 000c 0C4D     		ldr	r5, .L81+4
 1126 000e AC69     		ldr	r4, [r5, #24]
 1127 0010 EE69     		ldr	r6, [r5, #28]
 1128 0012 FFF7FEFF 		bl	bcd2val
 1129              	.LVL155:
 1130 0016 A0FB0423 		umull	r2, r3, r0, r4
 1131 001a 00FB0633 		mla	r3, r0, r6, r3
 1132              	.LVL156:
 141:src/tranutil.c ****   return (INPUT.dd_tip > amount);
 1133              		.loc 1 141 0
 1134 001e 1046     		mov	r0, r2
 1135 0020 1946     		mov	r1, r3
 1136 0022 6422     		movs	r2, #100
 1137              	.LVL157:
 1138 0024 0023     		movs	r3, #0
 1139 0026 FFF7FEFF 		bl	__aeabi_uldivmod
 1140              	.LVL158:
 142:src/tranutil.c **** }
 1141              		.loc 1 142 0
 1142 002a D5E90823 		ldrd	r2, [r5, #32]
 1143 002e 9942     		cmp	r1, r3
 1144 0030 08BF     		it	eq
 1145 0032 9042     		cmpeq	r0, r2
 1146 0034 34BF     		ite	cc
 1147 0036 0120     		movcc	r0, #1
 1148 0038 0020     		movcs	r0, #0
 1149              	.L77:
 143:src/tranutil.c **** //*****************************************************************************
 1150              		.loc 1 143 0
 1151 003a 70BD     		pop	{r4, r5, r6, pc}
 1152              	.L82:
ARM GAS  C:\Users\AHMED~1.ELE\AppData\Local\Temp\cc98zNMh.s 			page 60


 1153              		.align	2
 1154              	.L81:
 1155 003c 00000000 		.word	gGDS
 1156 0040 00000000 		.word	gGTS
 1157              		.cfi_endproc
 1158              	.LFE0:
 1159              		.size	OverMargin, .-OverMargin
 1160              		.section	.text.PackDTGAA,"ax",%progbits
 1161              		.align	1
 1162              		.global	PackDTGAA
 1163              		.thumb
 1164              		.thumb_func
 1165              		.type	PackDTGAA, %function
 1166              	PackDTGAA:
 1167              	.LFB1:
 153:src/tranutil.c ****   ReadRTC(&RSP_DATA.s_dtg);
 1168              		.loc 1 153 0
 1169              		.cfi_startproc
 1170              		@ args = 0, pretend = 0, frame = 0
 1171              		@ frame_needed = 0, uses_anonymous_args = 0
 1172 0000 08B5     		push	{r3, lr}
 1173              		.cfi_def_cfa_offset 8
 1174              		.cfi_offset 3, -8
 1175              		.cfi_offset 14, -4
 154:src/tranutil.c ****   RSP_DATA.w_rspcode = 'A'*256+'P';
 1176              		.loc 1 154 0
 1177 0002 0748     		ldr	r0, .L84
 1178 0004 FFF7FEFF 		bl	ReadRTC
 1179              	.LVL159:
 155:src/tranutil.c ****   memset(RSP_DATA.sb_rrn, ' ', 12);
 1180              		.loc 1 155 0
 1181 0008 44F25012 		movw	r2, #16720
 1182 000c 054B     		ldr	r3, .L84+4
 156:src/tranutil.c **** }
 1183              		.loc 1 156 0
 1184 000e 0648     		ldr	r0, .L84+8
 155:src/tranutil.c ****   memset(RSP_DATA.sb_rrn, ' ', 12);
 1185              		.loc 1 155 0
 1186 0010 A3F86E25 		strh	r2, [r3, #1390]	@ movhi
 157:src/tranutil.c **** //*****************************************************************************
 1187              		.loc 1 157 0
 1188 0014 BDE80840 		pop	{r3, lr}
 1189              		.cfi_restore 14
 1190              		.cfi_restore 3
 1191              		.cfi_def_cfa_offset 0
 156:src/tranutil.c **** }
 1192              		.loc 1 156 0
 1193 0018 2021     		movs	r1, #32
 1194 001a 0C22     		movs	r2, #12
 1195 001c FFF7FEBF 		b	memset
 1196              	.LVL160:
 1197              	.L85:
 1198              		.align	2
 1199              	.L84:
 1200 0020 84050000 		.word	gGTS+1412
 1201 0024 00000000 		.word	gGTS
 1202 0028 71050000 		.word	gGTS+1393
ARM GAS  C:\Users\AHMED~1.ELE\AppData\Local\Temp\cc98zNMh.s 			page 61


 1203              		.cfi_endproc
 1204              	.LFE1:
 1205              		.size	PackDTGAA, .-PackDTGAA
 1206              		.section	.text.PackDateTime,"ax",%progbits
 1207              		.align	1
 1208              		.global	PackDateTime
 1209              		.thumb
 1210              		.thumb_func
 1211              		.type	PackDateTime, %function
 1212              	PackDateTime:
 1213              	.LFB2:
 167:src/tranutil.c ****   BYTE tmp[32];
 1214              		.loc 1 167 0
 1215              		.cfi_startproc
 1216              		@ args = 0, pretend = 0, frame = 32
 1217              		@ frame_needed = 0, uses_anonymous_args = 0
 1218              	.LVL161:
 1219 0000 00B5     		push	{lr}
 1220              		.cfi_def_cfa_offset 4
 1221              		.cfi_offset 14, -4
 1222 0002 89B0     		sub	sp, sp, #36
 1223              		.cfi_def_cfa_offset 40
 170:src/tranutil.c ****   pack_mem("Date/Time:", 10);
 1224              		.loc 1 170 0
 1225 0004 0122     		movs	r2, #1
 167:src/tranutil.c ****   BYTE tmp[32];
 1226              		.loc 1 167 0
 1227 0006 0146     		mov	r1, r0
 170:src/tranutil.c ****   pack_mem("Date/Time:", 10);
 1228              		.loc 1 170 0
 1229 0008 6846     		mov	r0, sp
 1230              	.LVL162:
 1231 000a FFF7FEFF 		bl	ConvDateTime
 1232              	.LVL163:
 171:src/tranutil.c ****   pack_space(1);
 1233              		.loc 1 171 0
 1234 000e 0A21     		movs	r1, #10
 1235 0010 0C48     		ldr	r0, .L91
 1236 0012 FFF7FEFF 		bl	pack_mem
 1237              	.LVL164:
 172:src/tranutil.c ****   pack_mem(tmp, 12);
 1238              		.loc 1 172 0
 1239 0016 0120     		movs	r0, #1
 1240 0018 FFF7FEFF 		bl	pack_space
 1241              	.LVL165:
 173:src/tranutil.c ****   pack_space(1);
 1242              		.loc 1 173 0
 1243 001c 6846     		mov	r0, sp
 1244 001e 0C21     		movs	r1, #12
 1245 0020 FFF7FEFF 		bl	pack_mem
 1246              	.LVL166:
 174:src/tranutil.c ****   if (PrintTimeReqd())
 1247              		.loc 1 174 0
 1248 0024 0120     		movs	r0, #1
 1249 0026 FFF7FEFF 		bl	pack_space
 1250              	.LVL167:
 175:src/tranutil.c ****     pack_mem(&tmp[12], 6);
ARM GAS  C:\Users\AHMED~1.ELE\AppData\Local\Temp\cc98zNMh.s 			page 62


 1251              		.loc 1 175 0
 1252 002a FFF7FEFF 		bl	PrintTimeReqd
 1253              	.LVL168:
 1254 002e 18B1     		cbz	r0, .L87
 176:src/tranutil.c ****   pack_lf();
 1255              		.loc 1 176 0
 1256 0030 03A8     		add	r0, sp, #12
 1257 0032 0621     		movs	r1, #6
 1258 0034 FFF7FEFF 		bl	pack_mem
 1259              	.LVL169:
 1260              	.L87:
 177:src/tranutil.c **** }
 1261              		.loc 1 177 0
 1262 0038 FFF7FEFF 		bl	pack_lf
 1263              	.LVL170:
 178:src/tranutil.c **** 
 1264              		.loc 1 178 0
 1265 003c 09B0     		add	sp, sp, #36
 1266              		.cfi_def_cfa_offset 4
 1267              		@ sp needed
 1268 003e 5DF804FB 		ldr	pc, [sp], #4
 1269              	.L92:
 1270 0042 00BF     		.align	2
 1271              	.L91:
 1272 0044 87020000 		.word	.LC34
 1273              		.cfi_endproc
 1274              	.LFE2:
 1275              		.size	PackDateTime, .-PackDateTime
 1276              		.section	.text.Packprintissuer,"ax",%progbits
 1277              		.align	1
 1278              		.global	Packprintissuer
 1279              		.thumb
 1280              		.thumb_func
 1281              		.type	Packprintissuer, %function
 1282              	Packprintissuer:
 1283              	.LFB10:
 945:src/tranutil.c **** 	PackTxnissuer();
 1284              		.loc 1 945 0
 1285              		.cfi_startproc
 1286              		@ args = 0, pretend = 0, frame = 0
 1287              		@ frame_needed = 0, uses_anonymous_args = 0
 1288 0000 13B5     		push	{r0, r1, r4, lr}
 1289              		.cfi_def_cfa_offset 16
 1290              		.cfi_offset 4, -8
 1291              		.cfi_offset 14, -4
 1292              	.LBB16:
 1293              	.LBB17:
 1294              	.LBB18:
 1295              	.LBB19:
 197:src/tranutil.c ****   pack_lf();
 1296              		.loc 1 197 0
 1297 0002 6C4C     		ldr	r4, .L94
 1298              	.LBE19:
 1299              	.LBE18:
 897:src/tranutil.c ****   Packissuer();
 1300              		.loc 1 897 0
 1301 0004 FFF7FEFF 		bl	MsgBufSetup
ARM GAS  C:\Users\AHMED~1.ELE\AppData\Local\Temp\cc98zNMh.s 			page 63


 1302              	.LVL171:
 1303              	.LBB21:
 1304              	.LBB20:
 190:src/tranutil.c ****   pack_lf();
 1305              		.loc 1 190 0
 1306 0008 6B48     		ldr	r0, .L94+4
 1307 000a 2121     		movs	r1, #33
 1308 000c FFF7FEFF 		bl	pack_mem
 1309              	.LVL172:
 191:src/tranutil.c ****   pack_mem("\x1bW1         ISSURES        \x1bW0", 30);
 1310              		.loc 1 191 0
 1311 0010 FFF7FEFF 		bl	pack_lf
 1312              	.LVL173:
 192:src/tranutil.c ****   pack_lf();
 1313              		.loc 1 192 0
 1314 0014 6948     		ldr	r0, .L94+8
 1315 0016 1E21     		movs	r1, #30
 1316 0018 FFF7FEFF 		bl	pack_mem
 1317              	.LVL174:
 193:src/tranutil.c ****   pack_mem("\x1bW1------------------------\x1bW0", 30);
 1318              		.loc 1 193 0
 1319 001c FFF7FEFF 		bl	pack_lf
 1320              	.LVL175:
 194:src/tranutil.c ****   pack_lf();
 1321              		.loc 1 194 0
 1322 0020 6748     		ldr	r0, .L94+12
 1323 0022 1E21     		movs	r1, #30
 1324 0024 FFF7FEFF 		bl	pack_mem
 1325              	.LVL176:
 195:src/tranutil.c ****   pack_mem("CARD NAME                     : ", 32);
 1326              		.loc 1 195 0
 1327 0028 FFF7FEFF 		bl	pack_lf
 1328              	.LVL177:
 196:src/tranutil.c ****   pack_mem("()              ", 16);
 1329              		.loc 1 196 0
 1330 002c 6548     		ldr	r0, .L94+16
 1331 002e 2021     		movs	r1, #32
 1332 0030 FFF7FEFF 		bl	pack_mem
 1333              	.LVL178:
 197:src/tranutil.c ****   pack_lf();
 1334              		.loc 1 197 0
 1335 0034 2046     		mov	r0, r4
 1336 0036 1021     		movs	r1, #16
 1337 0038 FFF7FEFF 		bl	pack_mem
 1338              	.LVL179:
 198:src/tranutil.c ****   pack_mem("ISSUER #                      : ", 32);
 1339              		.loc 1 198 0
 1340 003c FFF7FEFF 		bl	pack_lf
 1341              	.LVL180:
 199:src/tranutil.c ****   pack_mem("()              ", 16);
 1342              		.loc 1 199 0
 1343 0040 6148     		ldr	r0, .L94+20
 1344 0042 2021     		movs	r1, #32
 1345 0044 FFF7FEFF 		bl	pack_mem
 1346              	.LVL181:
 200:src/tranutil.c ****   pack_lf();
 1347              		.loc 1 200 0
ARM GAS  C:\Users\AHMED~1.ELE\AppData\Local\Temp\cc98zNMh.s 			page 64


 1348 0048 2046     		mov	r0, r4
 1349 004a 1021     		movs	r1, #16
 1350 004c FFF7FEFF 		bl	pack_mem
 1351              	.LVL182:
 201:src/tranutil.c ****   pack_mem("ID                            : ", 32);
 1352              		.loc 1 201 0
 1353 0050 FFF7FEFF 		bl	pack_lf
 1354              	.LVL183:
 202:src/tranutil.c ****   pack_mem("()              ", 16);
 1355              		.loc 1 202 0
 1356 0054 5D48     		ldr	r0, .L94+24
 1357 0056 2021     		movs	r1, #32
 1358 0058 FFF7FEFF 		bl	pack_mem
 1359              	.LVL184:
 203:src/tranutil.c ****   pack_lf();
 1360              		.loc 1 203 0
 1361 005c 2046     		mov	r0, r4
 1362 005e 1021     		movs	r1, #16
 1363 0060 FFF7FEFF 		bl	pack_mem
 1364              	.LVL185:
 204:src/tranutil.c ****   pack_mem("DEBIT TRANSACTION             : ", 32);
 1365              		.loc 1 204 0
 1366 0064 FFF7FEFF 		bl	pack_lf
 1367              	.LVL186:
 205:src/tranutil.c ****   pack_mem("()              ", 16);
 1368              		.loc 1 205 0
 1369 0068 5948     		ldr	r0, .L94+28
 1370 006a 2021     		movs	r1, #32
 1371 006c FFF7FEFF 		bl	pack_mem
 1372              	.LVL187:
 206:src/tranutil.c ****   pack_lf();
 1373              		.loc 1 206 0
 1374 0070 2046     		mov	r0, r4
 1375 0072 1021     		movs	r1, #16
 1376 0074 FFF7FEFF 		bl	pack_mem
 1377              	.LVL188:
 207:src/tranutil.c ****   pack_mem("VERFY LAST 4 OF PAN           : ", 32);
 1378              		.loc 1 207 0
 1379 0078 FFF7FEFF 		bl	pack_lf
 1380              	.LVL189:
 208:src/tranutil.c ****   pack_mem("()              ", 16);
 1381              		.loc 1 208 0
 1382 007c 5548     		ldr	r0, .L94+32
 1383 007e 2021     		movs	r1, #32
 1384 0080 FFF7FEFF 		bl	pack_mem
 1385              	.LVL190:
 209:src/tranutil.c ****   pack_lf();
 1386              		.loc 1 209 0
 1387 0084 2046     		mov	r0, r4
 1388 0086 1021     		movs	r1, #16
 1389 0088 FFF7FEFF 		bl	pack_mem
 1390              	.LVL191:
 210:src/tranutil.c ****   pack_mem("MANUAL KEY ENTRY              : ", 32);
 1391              		.loc 1 210 0
 1392 008c FFF7FEFF 		bl	pack_lf
 1393              	.LVL192:
 211:src/tranutil.c ****   pack_mem("()              ", 16);
ARM GAS  C:\Users\AHMED~1.ELE\AppData\Local\Temp\cc98zNMh.s 			page 65


 1394              		.loc 1 211 0
 1395 0090 5148     		ldr	r0, .L94+36
 1396 0092 2021     		movs	r1, #32
 1397 0094 FFF7FEFF 		bl	pack_mem
 1398              	.LVL193:
 212:src/tranutil.c ****   pack_lf();
 1399              		.loc 1 212 0
 1400 0098 2046     		mov	r0, r4
 1401 009a 1021     		movs	r1, #16
 1402 009c FFF7FEFF 		bl	pack_mem
 1403              	.LVL194:
 213:src/tranutil.c ****   pack_mem("CVV2 PROCESSING               : ", 32);
 1404              		.loc 1 213 0
 1405 00a0 FFF7FEFF 		bl	pack_lf
 1406              	.LVL195:
 214:src/tranutil.c ****   pack_mem("()              ", 16);
 1407              		.loc 1 214 0
 1408 00a4 4D48     		ldr	r0, .L94+40
 1409 00a6 2021     		movs	r1, #32
 1410 00a8 FFF7FEFF 		bl	pack_mem
 1411              	.LVL196:
 215:src/tranutil.c ****   pack_lf();
 1412              		.loc 1 215 0
 1413 00ac 2046     		mov	r0, r4
 1414 00ae 1021     		movs	r1, #16
 1415 00b0 FFF7FEFF 		bl	pack_mem
 1416              	.LVL197:
 216:src/tranutil.c ****   pack_mem("MASK PAN                      : ", 32);
 1417              		.loc 1 216 0
 1418 00b4 FFF7FEFF 		bl	pack_lf
 1419              	.LVL198:
 217:src/tranutil.c ****   pack_mem("()              ", 16);
 1420              		.loc 1 217 0
 1421 00b8 4948     		ldr	r0, .L94+44
 1422 00ba 2021     		movs	r1, #32
 1423 00bc FFF7FEFF 		bl	pack_mem
 1424              	.LVL199:
 218:src/tranutil.c ****   pack_lf();
 1425              		.loc 1 218 0
 1426 00c0 2046     		mov	r0, r4
 1427 00c2 1021     		movs	r1, #16
 1428 00c4 FFF7FEFF 		bl	pack_mem
 1429              	.LVL200:
 219:src/tranutil.c ****   pack_mem("OFFLINE ALLOWED               : ", 32);
 1430              		.loc 1 219 0
 1431 00c8 FFF7FEFF 		bl	pack_lf
 1432              	.LVL201:
 220:src/tranutil.c ****   pack_mem("()              ", 16);
 1433              		.loc 1 220 0
 1434 00cc 4548     		ldr	r0, .L94+48
 1435 00ce 2021     		movs	r1, #32
 1436 00d0 FFF7FEFF 		bl	pack_mem
 1437              	.LVL202:
 221:src/tranutil.c ****   pack_lf();
 1438              		.loc 1 221 0
 1439 00d4 2046     		mov	r0, r4
 1440 00d6 1021     		movs	r1, #16
ARM GAS  C:\Users\AHMED~1.ELE\AppData\Local\Temp\cc98zNMh.s 			page 66


 1441 00d8 FFF7FEFF 		bl	pack_mem
 1442              	.LVL203:
 222:src/tranutil.c ****   pack_mem("VOID NOT ALLOWED              : ", 32);
 1443              		.loc 1 222 0
 1444 00dc FFF7FEFF 		bl	pack_lf
 1445              	.LVL204:
 223:src/tranutil.c ****   pack_mem("()              ", 16);
 1446              		.loc 1 223 0
 1447 00e0 4148     		ldr	r0, .L94+52
 1448 00e2 2021     		movs	r1, #32
 1449 00e4 FFF7FEFF 		bl	pack_mem
 1450              	.LVL205:
 224:src/tranutil.c ****   pack_lf();
 1451              		.loc 1 224 0
 1452 00e8 2046     		mov	r0, r4
 1453 00ea 1021     		movs	r1, #16
 1454 00ec FFF7FEFF 		bl	pack_mem
 1455              	.LVL206:
 225:src/tranutil.c ****   pack_mem("REFUND NOT ALLOWED            : ", 32);
 1456              		.loc 1 225 0
 1457 00f0 FFF7FEFF 		bl	pack_lf
 1458              	.LVL207:
 226:src/tranutil.c ****   pack_mem("()              ", 16);
 1459              		.loc 1 226 0
 1460 00f4 3D48     		ldr	r0, .L94+56
 1461 00f6 2021     		movs	r1, #32
 1462 00f8 FFF7FEFF 		bl	pack_mem
 1463              	.LVL208:
 227:src/tranutil.c ****   pack_lf();
 1464              		.loc 1 227 0
 1465 00fc 2046     		mov	r0, r4
 1466 00fe 1021     		movs	r1, #16
 1467 0100 FFF7FEFF 		bl	pack_mem
 1468              	.LVL209:
 228:src/tranutil.c ****   pack_mem("PRE-AUTH NOT ALLOWED          : ", 32);
 1469              		.loc 1 228 0
 1470 0104 FFF7FEFF 		bl	pack_lf
 1471              	.LVL210:
 229:src/tranutil.c ****   pack_mem("()              ", 16);
 1472              		.loc 1 229 0
 1473 0108 3948     		ldr	r0, .L94+60
 1474 010a 2021     		movs	r1, #32
 1475 010c FFF7FEFF 		bl	pack_mem
 1476              	.LVL211:
 230:src/tranutil.c ****   pack_lf();
 1477              		.loc 1 230 0
 1478 0110 2046     		mov	r0, r4
 1479 0112 1021     		movs	r1, #16
 1480 0114 FFF7FEFF 		bl	pack_mem
 1481              	.LVL212:
 231:src/tranutil.c ****   pack_mem("DCC ALLOWED                   : ", 32);
 1482              		.loc 1 231 0
 1483 0118 FFF7FEFF 		bl	pack_lf
 1484              	.LVL213:
 232:src/tranutil.c ****   pack_mem("()              ", 16);
 1485              		.loc 1 232 0
 1486 011c 3548     		ldr	r0, .L94+64
ARM GAS  C:\Users\AHMED~1.ELE\AppData\Local\Temp\cc98zNMh.s 			page 67


 1487 011e 2021     		movs	r1, #32
 1488 0120 FFF7FEFF 		bl	pack_mem
 1489              	.LVL214:
 233:src/tranutil.c ****   pack_lf();
 1490              		.loc 1 233 0
 1491 0124 2046     		mov	r0, r4
 1492 0126 1021     		movs	r1, #16
 1493 0128 FFF7FEFF 		bl	pack_mem
 1494              	.LVL215:
 234:src/tranutil.c ****   pack_mem("INSTALLMENT                   : ", 32);
 1495              		.loc 1 234 0
 1496 012c FFF7FEFF 		bl	pack_lf
 1497              	.LVL216:
 235:src/tranutil.c ****   pack_mem("()              ", 16);
 1498              		.loc 1 235 0
 1499 0130 3148     		ldr	r0, .L94+68
 1500 0132 2021     		movs	r1, #32
 1501 0134 FFF7FEFF 		bl	pack_mem
 1502              	.LVL217:
 236:src/tranutil.c ****   pack_lf();
 1503              		.loc 1 236 0
 1504 0138 2046     		mov	r0, r4
 238:src/tranutil.c ****   pack_lf();
 1505              		.loc 1 238 0
 1506 013a 304C     		ldr	r4, .L94+72
 236:src/tranutil.c ****   pack_lf();
 1507              		.loc 1 236 0
 1508 013c 1021     		movs	r1, #16
 1509 013e FFF7FEFF 		bl	pack_mem
 1510              	.LVL218:
 237:src/tranutil.c ****   pack_mem("\x1bW1************************\x1bW0", 30);
 1511              		.loc 1 237 0
 1512 0142 FFF7FEFF 		bl	pack_lf
 1513              	.LVL219:
 238:src/tranutil.c ****   pack_lf();
 1514              		.loc 1 238 0
 1515 0146 2046     		mov	r0, r4
 1516 0148 1E21     		movs	r1, #30
 1517 014a FFF7FEFF 		bl	pack_mem
 1518              	.LVL220:
 239:src/tranutil.c ****   pack_mem("TOATL ISSUER : 1                                ", 48);
 1519              		.loc 1 239 0
 1520 014e FFF7FEFF 		bl	pack_lf
 1521              	.LVL221:
 240:src/tranutil.c ****   pack_lf();
 1522              		.loc 1 240 0
 1523 0152 2B48     		ldr	r0, .L94+76
 1524 0154 3021     		movs	r1, #48
 1525 0156 FFF7FEFF 		bl	pack_mem
 1526              	.LVL222:
 241:src/tranutil.c ****   pack_lf();
 1527              		.loc 1 241 0
 1528 015a FFF7FEFF 		bl	pack_lf
 1529              	.LVL223:
 242:src/tranutil.c ****   pack_lf();
 1530              		.loc 1 242 0
 1531 015e FFF7FEFF 		bl	pack_lf
ARM GAS  C:\Users\AHMED~1.ELE\AppData\Local\Temp\cc98zNMh.s 			page 68


 1532              	.LVL224:
 243:src/tranutil.c ****   pack_mem("\x1bW1    PLEASE SIGN BELOW   \x1bW0", 30);
 1533              		.loc 1 243 0
 1534 0162 FFF7FEFF 		bl	pack_lf
 1535              	.LVL225:
 244:src/tranutil.c ****   pack_lf();
 1536              		.loc 1 244 0
 1537 0166 2748     		ldr	r0, .L94+80
 1538 0168 1E21     		movs	r1, #30
 1539 016a FFF7FEFF 		bl	pack_mem
 1540              	.LVL226:
 245:src/tranutil.c ****   pack_mem("\x1bW1************************\x1bW0", 30);
 1541              		.loc 1 245 0
 1542 016e FFF7FEFF 		bl	pack_lf
 1543              	.LVL227:
 246:src/tranutil.c ****   pack_mem("\x1bW1*******THANK YOU********\x1bW0", 30);
 1544              		.loc 1 246 0
 1545 0172 2046     		mov	r0, r4
 1546 0174 1E21     		movs	r1, #30
 1547 0176 FFF7FEFF 		bl	pack_mem
 1548              	.LVL228:
 247:src/tranutil.c **** 
 1549              		.loc 1 247 0
 1550 017a 2348     		ldr	r0, .L94+84
 1551 017c 1E21     		movs	r1, #30
 1552 017e FFF7FEFF 		bl	pack_mem
 1553              	.LVL229:
 1554              	.LBE20:
 1555              	.LBE21:
 899:src/tranutil.c ****   PackMsgBufLen();
 1556              		.loc 1 899 0
 1557 0182 FFF7FEFF 		bl	PackFF
 1558              	.LVL230:
 900:src/tranutil.c **** }
 1559              		.loc 1 900 0
 1560 0186 FFF7FEFF 		bl	PackMsgBufLen
 1561              	.LVL231:
 1562              	.LBE17:
 1563              	.LBE16:
 947:src/tranutil.c ****   DispClrBelowMW(MW_LINE9);
 1564              		.loc 1 947 0
 1565 018a 204B     		ldr	r3, .L94+88
 1566 018c 0022     		movs	r2, #0
 1567 018e 1B68     		ldr	r3, [r3]
 1568 0190 D3F8981D 		ldr	r1, [r3, #3480]
 1569 0194 03F69C50 		addw	r0, r3, #3484
 1570 0198 0123     		movs	r3, #1
 1571 019a FFF7FEFF 		bl	PrintBuf
 1572              	.LVL232:
 948:src/tranutil.c **** }
 1573              		.loc 1 948 0
 1574 019e 0023     		movs	r3, #0
 1575 01a0 2321     		movs	r1, #35
 1576 01a2 0093     		str	r3, [sp]
 1577 01a4 4FF41062 		mov	r2, #2304
 1578 01a8 0F20     		movs	r0, #15
 1579 01aa FFF7FEFF 		bl	lib_app_call
ARM GAS  C:\Users\AHMED~1.ELE\AppData\Local\Temp\cc98zNMh.s 			page 69


 1580              	.LVL233:
 949:src/tranutil.c **** 
 1581              		.loc 1 949 0
 1582 01ae 02B0     		add	sp, sp, #8
 1583              		.cfi_def_cfa_offset 8
 1584              		@ sp needed
 1585 01b0 10BD     		pop	{r4, pc}
 1586              	.L95:
 1587 01b2 00BF     		.align	2
 1588              	.L94:
 1589 01b4 13030000 		.word	.LC39
 1590 01b8 92020000 		.word	.LC35
 1591 01bc B4020000 		.word	.LC36
 1592 01c0 D3020000 		.word	.LC37
 1593 01c4 F2020000 		.word	.LC38
 1594 01c8 24030000 		.word	.LC40
 1595 01cc 45030000 		.word	.LC41
 1596 01d0 66030000 		.word	.LC42
 1597 01d4 87030000 		.word	.LC43
 1598 01d8 A8030000 		.word	.LC44
 1599 01dc C9030000 		.word	.LC45
 1600 01e0 EA030000 		.word	.LC46
 1601 01e4 0B040000 		.word	.LC47
 1602 01e8 2C040000 		.word	.LC48
 1603 01ec 4D040000 		.word	.LC49
 1604 01f0 6E040000 		.word	.LC50
 1605 01f4 8F040000 		.word	.LC51
 1606 01f8 B0040000 		.word	.LC52
 1607 01fc D1040000 		.word	.LC53
 1608 0200 F0040000 		.word	.LC54
 1609 0204 21050000 		.word	.LC55
 1610 0208 40050000 		.word	.LC56
 1611 020c 00000000 		.word	gGDS
 1612              		.cfi_endproc
 1613              	.LFE10:
 1614              		.size	Packprintissuer, .-Packprintissuer
 1615              		.section	.text.Packprintconfig,"ax",%progbits
 1616              		.align	1
 1617              		.global	Packprintconfig
 1618              		.thumb
 1619              		.thumb_func
 1620              		.type	Packprintconfig, %function
 1621              	Packprintconfig:
 1622              	.LFB11:
 961:src/tranutil.c **** 	PackTxnconfig();
 1623              		.loc 1 961 0
 1624              		.cfi_startproc
 1625              		@ args = 0, pretend = 0, frame = 112
 1626              		@ frame_needed = 0, uses_anonymous_args = 0
 1627 0000 30B5     		push	{r4, r5, lr}
 1628              		.cfi_def_cfa_offset 12
 1629              		.cfi_offset 4, -12
 1630              		.cfi_offset 5, -8
 1631              		.cfi_offset 14, -4
 1632              	.LBB27:
 1633              	.LBB28:
 1634              	.LBB29:
ARM GAS  C:\Users\AHMED~1.ELE\AppData\Local\Temp\cc98zNMh.s 			page 70


 872:src/tranutil.c ****     Disp2x16Msg(GetConstMsg(EDC_EMV_PROCESSING),MW_LINE5, MW_BIGFONT);
 1635              		.loc 1 872 0
 1636 0002 3C20     		movs	r0, #60
 1637              	.LBE29:
 1638              	.LBE28:
 1639              	.LBE27:
 961:src/tranutil.c **** 	PackTxnconfig();
 1640              		.loc 1 961 0
 1641 0004 9FB0     		sub	sp, sp, #124
 1642              		.cfi_def_cfa_offset 136
 1643              	.LBB36:
 1644              	.LBB35:
 1645              	.LBB30:
 872:src/tranutil.c ****     Disp2x16Msg(GetConstMsg(EDC_EMV_PROCESSING),MW_LINE5, MW_BIGFONT);
 1646              		.loc 1 872 0
 1647 0006 FFF7FEFF 		bl	GetConstMsg
 1648              	.LVL234:
 1649 000a FFF7FEFF 		bl	strlen
 1650              	.LVL235:
 1651 000e 0546     		mov	r5, r0
 1652              	.LVL236:
 1653 0010 691C     		adds	r1, r5, #1
 1654 0012 9220     		movs	r0, #146
 1655              	.LVL237:
 1656 0014 FFF7FEFF 		bl	sys_func1
 1657              	.LVL238:
 1658 0018 0446     		mov	r4, r0
 1659 001a B8B1     		cbz	r0, .L97
 1660 001c 3C20     		movs	r0, #60
 1661              	.LVL239:
 1662 001e FFF7FEFF 		bl	GetConstMsg
 1663              	.LVL240:
 1664 0022 2A46     		mov	r2, r5
 1665 0024 0146     		mov	r1, r0
 1666 0026 2046     		mov	r0, r4
 1667 0028 FFF7FEFF 		bl	memcpy
 1668              	.LVL241:
 1669 002c 0023     		movs	r3, #0
 1670 002e 2521     		movs	r1, #37
 1671 0030 6355     		strb	r3, [r4, r5]
 1672 0032 41F29203 		movw	r3, #4242
 1673 0036 0F20     		movs	r0, #15
 1674 0038 0093     		str	r3, [sp]
 1675 003a 2246     		mov	r2, r4
 1676 003c 4FF48073 		mov	r3, #256
 1677 0040 FFF7FEFF 		bl	lib_app_call
 1678              	.LVL242:
 1679 0044 9420     		movs	r0, #148
 1680 0046 2146     		mov	r1, r4
 1681 0048 FFF7FEFF 		bl	sys_func1
 1682              	.LVL243:
 1683              	.L97:
 1684              	.LBE30:
 1685              	.LBB31:
 1686              	.LBB32:
 268:src/tranutil.c ****   pack_lf();
 1687              		.loc 1 268 0
ARM GAS  C:\Users\AHMED~1.ELE\AppData\Local\Temp\cc98zNMh.s 			page 71


 1688 004c D64C     		ldr	r4, .L107
 1689              	.LVL244:
 1690              	.LBE32:
 1691              	.LBE31:
 873:src/tranutil.c **** 
 1692              		.loc 1 873 0
 1693 004e 8820     		movs	r0, #136
 1694 0050 FFF7FEFF 		bl	GetConstMsg
 1695              	.LVL245:
 1696 0054 4FF48052 		mov	r2, #4096
 1697 0058 4FF4A061 		mov	r1, #1280
 1698 005c FFF7FEFF 		bl	Disp2x16Msg
 1699              	.LVL246:
 878:src/tranutil.c ****   Packconfig();
 1700              		.loc 1 878 0
 1701 0060 FFF7FEFF 		bl	MsgBufSetup
 1702              	.LVL247:
 1703              	.LBB34:
 1704              	.LBB33:
 268:src/tranutil.c ****   pack_lf();
 1705              		.loc 1 268 0
 1706 0064 2068     		ldr	r0, [r4]
 1707 0066 1721     		movs	r1, #23
 1708 0068 4B30     		adds	r0, r0, #75
 1709 006a FFF7FEFF 		bl	pack_mem
 1710              	.LVL248:
 269:src/tranutil.c ****   pack_mem(STIS_TERM_CFG.sb_name_loc, 23); /* location  */
 1711              		.loc 1 269 0
 1712 006e FFF7FEFF 		bl	pack_lf
 1713              	.LVL249:
 270:src/tranutil.c ****   pack_lf();
 1714              		.loc 1 270 0
 1715 0072 2068     		ldr	r0, [r4]
 1716 0074 1721     		movs	r1, #23
 1717 0076 1D30     		adds	r0, r0, #29
 1718 0078 FFF7FEFF 		bl	pack_mem
 1719              	.LVL250:
 271:src/tranutil.c ****   pack_mem(&STIS_TERM_CFG.sb_name_loc[23], 23); /* location 2 */
 1720              		.loc 1 271 0
 1721 007c FFF7FEFF 		bl	pack_lf
 1722              	.LVL251:
 272:src/tranutil.c ****   pack_lf();
 1723              		.loc 1 272 0
 1724 0080 2068     		ldr	r0, [r4]
 1725 0082 1721     		movs	r1, #23
 1726 0084 3430     		adds	r0, r0, #52
 1727 0086 FFF7FEFF 		bl	pack_mem
 1728              	.LVL252:
 273:src/tranutil.c ****   pack_mem("\x1b""F1POS ID :", 11);
 1729              		.loc 1 273 0
 1730 008a FFF7FEFF 		bl	pack_lf
 1731              	.LVL253:
 274:src/tranutil.c ****   pack_mem(STIS_ACQ_TBL(0).sb_term_id, 8);
 1732              		.loc 1 274 0
 1733 008e C748     		ldr	r0, .L107+4
 1734 0090 0B21     		movs	r1, #11
 1735 0092 FFF7FEFF 		bl	pack_mem
ARM GAS  C:\Users\AHMED~1.ELE\AppData\Local\Temp\cc98zNMh.s 			page 72


 1736              	.LVL254:
 275:src/tranutil.c ****   pack_lf();
 1737              		.loc 1 275 0
 1738 0096 2068     		ldr	r0, [r4]
 1739 0098 0821     		movs	r1, #8
 1740 009a 00F56770 		add	r0, r0, #924
 1741 009e FFF7FEFF 		bl	pack_mem
 1742              	.LVL255:
 276:src/tranutil.c ****   pack_mem("MID :", 5);
 1743              		.loc 1 276 0
 1744 00a2 FFF7FEFF 		bl	pack_lf
 1745              	.LVL256:
 277:src/tranutil.c ****   pack_mem(STIS_ACQ_TBL(0).sb_acceptor_id, 15);
 1746              		.loc 1 277 0
 1747 00a6 C248     		ldr	r0, .L107+8
 1748 00a8 0521     		movs	r1, #5
 1749 00aa FFF7FEFF 		bl	pack_mem
 1750              	.LVL257:
 278:src/tranutil.c ****   pack_lf();
 1751              		.loc 1 278 0
 1752 00ae 2068     		ldr	r0, [r4]
 1753 00b0 0F21     		movs	r1, #15
 1754 00b2 00F56970 		add	r0, r0, #932
 1755 00b6 FFF7FEFF 		bl	pack_mem
 1756              	.LVL258:
 279:src/tranutil.c ****   os_rtc_get(buf);/* date and time */
 1757              		.loc 1 279 0
 1758 00ba FFF7FEFF 		bl	pack_lf
 1759              	.LVL259:
 280:src/tranutil.c ****   pack_mem(buf, 4);
 1760              		.loc 1 280 0
 1761 00be 0EA9     		add	r1, sp, #56
 1762 00c0 1220     		movs	r0, #18
 1763 00c2 FFF7FEFF 		bl	sys_func1
 1764              	.LVL260:
 281:src/tranutil.c ****   pack_space(1);
 1765              		.loc 1 281 0
 1766 00c6 0EA8     		add	r0, sp, #56
 1767 00c8 0421     		movs	r1, #4
 1768 00ca FFF7FEFF 		bl	pack_mem
 1769              	.LVL261:
 282:src/tranutil.c ****   pack_mem(&buf[4], 2);
 1770              		.loc 1 282 0
 1771 00ce 0120     		movs	r0, #1
 1772 00d0 FFF7FEFF 		bl	pack_space
 1773              	.LVL262:
 283:src/tranutil.c ****   pack_space(1);
 1774              		.loc 1 283 0
 1775 00d4 0FA8     		add	r0, sp, #60
 1776 00d6 0221     		movs	r1, #2
 1777 00d8 FFF7FEFF 		bl	pack_mem
 1778              	.LVL263:
 284:src/tranutil.c ****   pack_mem(&buf[6], 2);
 1779              		.loc 1 284 0
 1780 00dc 0120     		movs	r0, #1
 1781 00de FFF7FEFF 		bl	pack_space
 1782              	.LVL264:
ARM GAS  C:\Users\AHMED~1.ELE\AppData\Local\Temp\cc98zNMh.s 			page 73


 285:src/tranutil.c ****   pack_space(4);
 1783              		.loc 1 285 0
 1784 00e2 0DF13E00 		add	r0, sp, #62
 1785 00e6 0221     		movs	r1, #2
 1786 00e8 FFF7FEFF 		bl	pack_mem
 1787              	.LVL265:
 286:src/tranutil.c ****   pack_mem("                          ", 26); 
 1788              		.loc 1 286 0
 1789 00ec 0420     		movs	r0, #4
 1790 00ee FFF7FEFF 		bl	pack_space
 1791              	.LVL266:
 287:src/tranutil.c ****   pack_mem(&buf[8], 2);
 1792              		.loc 1 287 0
 1793 00f2 B048     		ldr	r0, .L107+12
 1794 00f4 1A21     		movs	r1, #26
 1795 00f6 FFF7FEFF 		bl	pack_mem
 1796              	.LVL267:
 288:src/tranutil.c ****   pack_space(1);
 1797              		.loc 1 288 0
 1798 00fa 10A8     		add	r0, sp, #64
 1799 00fc 0221     		movs	r1, #2
 1800 00fe FFF7FEFF 		bl	pack_mem
 1801              	.LVL268:
 289:src/tranutil.c ****   pack_mem(&buf[10], 2);
 1802              		.loc 1 289 0
 1803 0102 0120     		movs	r0, #1
 1804 0104 FFF7FEFF 		bl	pack_space
 1805              	.LVL269:
 290:src/tranutil.c ****   pack_space(1);
 1806              		.loc 1 290 0
 1807 0108 0DF14200 		add	r0, sp, #66
 1808 010c 0221     		movs	r1, #2
 1809 010e FFF7FEFF 		bl	pack_mem
 1810              	.LVL270:
 291:src/tranutil.c ****   pack_mem(&buf[12], 2);//ss
 1811              		.loc 1 291 0
 1812 0112 0120     		movs	r0, #1
 1813 0114 FFF7FEFF 		bl	pack_space
 1814              	.LVL271:
 292:src/tranutil.c ****   pack_lf();
 1815              		.loc 1 292 0
 1816 0118 11A8     		add	r0, sp, #68
 1817 011a 0221     		movs	r1, #2
 1818 011c FFF7FEFF 		bl	pack_mem
 1819              	.LVL272:
 293:src/tranutil.c ****   pack_mem("\x1bW1************************\x1bW0", 30);
 1820              		.loc 1 293 0
 1821 0120 FFF7FEFF 		bl	pack_lf
 1822              	.LVL273:
 294:src/tranutil.c ****   pack_lf();
 1823              		.loc 1 294 0
 1824 0124 A448     		ldr	r0, .L107+16
 1825 0126 1E21     		movs	r1, #30
 1826 0128 FFF7FEFF 		bl	pack_mem
 1827              	.LVL274:
 295:src/tranutil.c ****   pack_mem("\x1bW1   CONFIGRATION REPORT  \x1bW0", 30);
 1828              		.loc 1 295 0
ARM GAS  C:\Users\AHMED~1.ELE\AppData\Local\Temp\cc98zNMh.s 			page 74


 1829 012c FFF7FEFF 		bl	pack_lf
 1830              	.LVL275:
 296:src/tranutil.c ****   pack_lf();
 1831              		.loc 1 296 0
 1832 0130 A248     		ldr	r0, .L107+20
 1833 0132 1E21     		movs	r1, #30
 1834 0134 FFF7FEFF 		bl	pack_mem
 1835              	.LVL276:
 297:src/tranutil.c ****   pack_mem("\x1bW1************************\x1bW0", 30);
 1836              		.loc 1 297 0
 1837 0138 FFF7FEFF 		bl	pack_lf
 1838              	.LVL277:
 298:src/tranutil.c ****   pack_lf();
 1839              		.loc 1 298 0
 1840 013c 9E48     		ldr	r0, .L107+16
 1841 013e 1E21     		movs	r1, #30
 1842 0140 FFF7FEFF 		bl	pack_mem
 1843              	.LVL278:
 299:src/tranutil.c ****   pack_mem("TERMINAL TYPE                 : ", 32);
 1844              		.loc 1 299 0
 1845 0144 FFF7FEFF 		bl	pack_lf
 1846              	.LVL279:
 300:src/tranutil.c ****   pack_mem("()              ", 16);
 1847              		.loc 1 300 0
 1848 0148 9D48     		ldr	r0, .L107+24
 1849 014a 2021     		movs	r1, #32
 1850 014c FFF7FEFF 		bl	pack_mem
 1851              	.LVL280:
 301:src/tranutil.c ****   pack_lf();
 1852              		.loc 1 301 0
 1853 0150 9C48     		ldr	r0, .L107+28
 1854 0152 1021     		movs	r1, #16
 1855 0154 FFF7FEFF 		bl	pack_mem
 1856              	.LVL281:
 302:src/tranutil.c ****   pack_mem("SERIAL NUMBER                 : ", 32);
 1857              		.loc 1 302 0
 1858 0158 FFF7FEFF 		bl	pack_lf
 1859              	.LVL282:
 303:src/tranutil.c ****  memset(serial_number, 0, sizeof(serial_number));
 1860              		.loc 1 303 0
 1861 015c 9A48     		ldr	r0, .L107+32
 1862 015e 2021     		movs	r1, #32
 1863 0160 FFF7FEFF 		bl	pack_mem
 1864              	.LVL283:
 304:src/tranutil.c ****   GetSysCfgMW(K_CF_SerialNo, serial_number);
 1865              		.loc 1 304 0
 1866 0164 03A8     		add	r0, sp, #12
 1867 0166 0021     		movs	r1, #0
 1868 0168 0922     		movs	r2, #9
 1869 016a FFF7FEFF 		bl	memset
 1870              	.LVL284:
 305:src/tranutil.c ****   serial_number [8] = 0x00;
 1871              		.loc 1 305 0
 1872 016e 03AA     		add	r2, sp, #12
 1873 0170 0221     		movs	r1, #2
 1874 0172 B920     		movs	r0, #185
 1875 0174 FFF7FEFF 		bl	sys_func2
ARM GAS  C:\Users\AHMED~1.ELE\AppData\Local\Temp\cc98zNMh.s 			page 75


 1876              	.LVL285:
 306:src/tranutil.c ****   pack_mem(serial_number, 8);
 1877              		.loc 1 306 0
 1878 0178 0023     		movs	r3, #0
 307:src/tranutil.c ****   pack_lf();
 1879              		.loc 1 307 0
 1880 017a 03A8     		add	r0, sp, #12
 1881 017c 0821     		movs	r1, #8
 306:src/tranutil.c ****   pack_mem(serial_number, 8);
 1882              		.loc 1 306 0
 1883 017e 8DF81430 		strb	r3, [sp, #20]
 307:src/tranutil.c ****   pack_lf();
 1884              		.loc 1 307 0
 1885 0182 FFF7FEFF 		bl	pack_mem
 1886              	.LVL286:
 308:src/tranutil.c ****   pack_mem("DoWNLOAD DATE                 : ", 32);
 1887              		.loc 1 308 0
 1888 0186 FFF7FEFF 		bl	pack_lf
 1889              	.LVL287:
 309:src/tranutil.c ****   pack_mem("()              ", 16);
 1890              		.loc 1 309 0
 1891 018a 9048     		ldr	r0, .L107+36
 1892 018c 2021     		movs	r1, #32
 1893 018e FFF7FEFF 		bl	pack_mem
 1894              	.LVL288:
 310:src/tranutil.c ****   pack_lf();
 1895              		.loc 1 310 0
 1896 0192 8C48     		ldr	r0, .L107+28
 1897 0194 1021     		movs	r1, #16
 1898 0196 FFF7FEFF 		bl	pack_mem
 1899              	.LVL289:
 311:src/tranutil.c ****   pack_mem("DOWNLOAD TIME                 : ", 32);
 1900              		.loc 1 311 0
 1901 019a FFF7FEFF 		bl	pack_lf
 1902              	.LVL290:
 312:src/tranutil.c ****   pack_mem("()              ", 16);
 1903              		.loc 1 312 0
 1904 019e 8C48     		ldr	r0, .L107+40
 1905 01a0 2021     		movs	r1, #32
 1906 01a2 FFF7FEFF 		bl	pack_mem
 1907              	.LVL291:
 313:src/tranutil.c ****   pack_lf();
 1908              		.loc 1 313 0
 1909 01a6 8748     		ldr	r0, .L107+28
 1910 01a8 1021     		movs	r1, #16
 1911 01aa FFF7FEFF 		bl	pack_mem
 1912              	.LVL292:
 314:src/tranutil.c ****   pack_mem("APP VERSION                   : ", 32);
 1913              		.loc 1 314 0
 1914 01ae FFF7FEFF 		bl	pack_lf
 1915              	.LVL293:
 315:src/tranutil.c ****   pack_mem("()              ", 16);
 1916              		.loc 1 315 0
 1917 01b2 8848     		ldr	r0, .L107+44
 1918 01b4 2021     		movs	r1, #32
 1919 01b6 FFF7FEFF 		bl	pack_mem
 1920              	.LVL294:
ARM GAS  C:\Users\AHMED~1.ELE\AppData\Local\Temp\cc98zNMh.s 			page 76


 316:src/tranutil.c ****   pack_lf();
 1921              		.loc 1 316 0
 1922 01ba 8248     		ldr	r0, .L107+28
 1923 01bc 1021     		movs	r1, #16
 1924 01be FFF7FEFF 		bl	pack_mem
 1925              	.LVL295:
 317:src/tranutil.c ****   pack_mem("ZMK KCV                       : ", 32);
 1926              		.loc 1 317 0
 1927 01c2 FFF7FEFF 		bl	pack_lf
 1928              	.LVL296:
 318:src/tranutil.c ****   pack_mem("()              ", 16);
 1929              		.loc 1 318 0
 1930 01c6 8448     		ldr	r0, .L107+48
 1931 01c8 2021     		movs	r1, #32
 1932 01ca FFF7FEFF 		bl	pack_mem
 1933              	.LVL297:
 319:src/tranutil.c ****   pack_lf();
 1934              		.loc 1 319 0
 1935 01ce 7D48     		ldr	r0, .L107+28
 1936 01d0 1021     		movs	r1, #16
 1937 01d2 FFF7FEFF 		bl	pack_mem
 1938              	.LVL298:
 320:src/tranutil.c ****   pack_mem("TMK KCV                       : ", 32);
 1939              		.loc 1 320 0
 1940 01d6 FFF7FEFF 		bl	pack_lf
 1941              	.LVL299:
 321:src/tranutil.c ****   pack_mem("()              ", 16);
 1942              		.loc 1 321 0
 1943 01da 8048     		ldr	r0, .L107+52
 1944 01dc 2021     		movs	r1, #32
 1945 01de FFF7FEFF 		bl	pack_mem
 1946              	.LVL300:
 322:src/tranutil.c ****   pack_lf();
 1947              		.loc 1 322 0
 1948 01e2 7848     		ldr	r0, .L107+28
 1949 01e4 1021     		movs	r1, #16
 1950 01e6 FFF7FEFF 		bl	pack_mem
 1951              	.LVL301:
 323:src/tranutil.c ****   
 1952              		.loc 1 323 0
 1953 01ea FFF7FEFF 		bl	pack_lf
 1954              	.LVL302:
 325:src/tranutil.c ****   pack_lf();
 1955              		.loc 1 325 0
 1956 01ee 7C48     		ldr	r0, .L107+56
 1957 01f0 1E21     		movs	r1, #30
 1958 01f2 FFF7FEFF 		bl	pack_mem
 1959              	.LVL303:
 326:src/tranutil.c ****   pack_mem("\x1bW1------------------------\x1bW0", 30);
 1960              		.loc 1 326 0
 1961 01f6 FFF7FEFF 		bl	pack_lf
 1962              	.LVL304:
 327:src/tranutil.c ****   pack_lf();
 1963              		.loc 1 327 0
 1964 01fa 7A48     		ldr	r0, .L107+60
 1965 01fc 1E21     		movs	r1, #30
 1966 01fe FFF7FEFF 		bl	pack_mem
ARM GAS  C:\Users\AHMED~1.ELE\AppData\Local\Temp\cc98zNMh.s 			page 77


 1967              	.LVL305:
 328:src/tranutil.c ****   pack_mem("CURRENCY SYMBOL               : ", 32);
 1968              		.loc 1 328 0
 1969 0202 FFF7FEFF 		bl	pack_lf
 1970              	.LVL306:
 329:src/tranutil.c ****   pack_mem("()              ", 16);
 1971              		.loc 1 329 0
 1972 0206 7848     		ldr	r0, .L107+64
 1973 0208 2021     		movs	r1, #32
 1974 020a FFF7FEFF 		bl	pack_mem
 1975              	.LVL307:
 330:src/tranutil.c ****   pack_lf();
 1976              		.loc 1 330 0
 1977 020e 6D48     		ldr	r0, .L107+28
 1978 0210 1021     		movs	r1, #16
 1979 0212 FFF7FEFF 		bl	pack_mem
 1980              	.LVL308:
 331:src/tranutil.c ****   pack_mem("CURRENCY CODE                 : ", 32);
 1981              		.loc 1 331 0
 1982 0216 FFF7FEFF 		bl	pack_lf
 1983              	.LVL309:
 332:src/tranutil.c ****   pack_mem("()              ", 16);
 1984              		.loc 1 332 0
 1985 021a 7448     		ldr	r0, .L107+68
 1986 021c 2021     		movs	r1, #32
 1987 021e FFF7FEFF 		bl	pack_mem
 1988              	.LVL310:
 333:src/tranutil.c ****   pack_lf();
 1989              		.loc 1 333 0
 1990 0222 6848     		ldr	r0, .L107+28
 1991 0224 1021     		movs	r1, #16
 1992 0226 FFF7FEFF 		bl	pack_mem
 1993              	.LVL311:
 334:src/tranutil.c ****   pack_mem("MINIMUM AMONT                 : ", 32);
 1994              		.loc 1 334 0
 1995 022a FFF7FEFF 		bl	pack_lf
 1996              	.LVL312:
 335:src/tranutil.c ****   pack_mem("()              ", 16);
 1997              		.loc 1 335 0
 1998 022e 7048     		ldr	r0, .L107+72
 1999 0230 2021     		movs	r1, #32
 2000 0232 FFF7FEFF 		bl	pack_mem
 2001              	.LVL313:
 336:src/tranutil.c ****   pack_lf();
 2002              		.loc 1 336 0
 2003 0236 6348     		ldr	r0, .L107+28
 2004 0238 1021     		movs	r1, #16
 2005 023a FFF7FEFF 		bl	pack_mem
 2006              	.LVL314:
 337:src/tranutil.c ****   pack_mem("MINIMUM ONLINE                : ", 32);
 2007              		.loc 1 337 0
 2008 023e FFF7FEFF 		bl	pack_lf
 2009              	.LVL315:
 338:src/tranutil.c ****   pack_mem("()              ", 16);
 2010              		.loc 1 338 0
 2011 0242 6C48     		ldr	r0, .L107+76
 2012 0244 2021     		movs	r1, #32
ARM GAS  C:\Users\AHMED~1.ELE\AppData\Local\Temp\cc98zNMh.s 			page 78


 2013 0246 FFF7FEFF 		bl	pack_mem
 2014              	.LVL316:
 339:src/tranutil.c ****   pack_lf();
 2015              		.loc 1 339 0
 2016 024a 5E48     		ldr	r0, .L107+28
 2017 024c 1021     		movs	r1, #16
 2018 024e FFF7FEFF 		bl	pack_mem
 2019              	.LVL317:
 340:src/tranutil.c ****   pack_mem("MAXIMUM OFFLINE               : ", 32);
 2020              		.loc 1 340 0
 2021 0252 FFF7FEFF 		bl	pack_lf
 2022              	.LVL318:
 341:src/tranutil.c ****   pack_mem("()              ", 16);
 2023              		.loc 1 341 0
 2024 0256 6848     		ldr	r0, .L107+80
 2025 0258 2021     		movs	r1, #32
 2026 025a FFF7FEFF 		bl	pack_mem
 2027              	.LVL319:
 342:src/tranutil.c ****   pack_lf();
 2028              		.loc 1 342 0
 2029 025e 5948     		ldr	r0, .L107+28
 2030 0260 1021     		movs	r1, #16
 2031 0262 FFF7FEFF 		bl	pack_mem
 2032              	.LVL320:
 343:src/tranutil.c ****   pack_mem("\x1bW1   TRANSACTION OPTIONS  \x1bW0", 30);
 2033              		.loc 1 343 0
 2034 0266 FFF7FEFF 		bl	pack_lf
 2035              	.LVL321:
 344:src/tranutil.c ****   pack_lf();
 2036              		.loc 1 344 0
 2037 026a 6448     		ldr	r0, .L107+84
 2038 026c 1E21     		movs	r1, #30
 2039 026e FFF7FEFF 		bl	pack_mem
 2040              	.LVL322:
 345:src/tranutil.c ****   pack_mem("\x1bW1------------------------\x1bW0", 30);
 2041              		.loc 1 345 0
 2042 0272 FFF7FEFF 		bl	pack_lf
 2043              	.LVL323:
 346:src/tranutil.c ****   pack_lf();
 2044              		.loc 1 346 0
 2045 0276 5B48     		ldr	r0, .L107+60
 2046 0278 1E21     		movs	r1, #30
 2047 027a FFF7FEFF 		bl	pack_mem
 2048              	.LVL324:
 347:src/tranutil.c ****   pack_mem("sale                          : ", 32);
 2049              		.loc 1 347 0
 2050 027e FFF7FEFF 		bl	pack_lf
 2051              	.LVL325:
 348:src/tranutil.c ****   pack_mem("[+]             ", 16);
 2052              		.loc 1 348 0
 2053 0282 5F48     		ldr	r0, .L107+88
 2054 0284 2021     		movs	r1, #32
 2055 0286 FFF7FEFF 		bl	pack_mem
 2056              	.LVL326:
 349:src/tranutil.c ****   pack_lf();
 2057              		.loc 1 349 0
 2058 028a 5E48     		ldr	r0, .L107+92
ARM GAS  C:\Users\AHMED~1.ELE\AppData\Local\Temp\cc98zNMh.s 			page 79


 2059 028c 1021     		movs	r1, #16
 2060 028e FFF7FEFF 		bl	pack_mem
 2061              	.LVL327:
 350:src/tranutil.c ****   pack_mem("PRE-AUTH                      : ", 32);
 2062              		.loc 1 350 0
 2063 0292 FFF7FEFF 		bl	pack_lf
 2064              	.LVL328:
 351:src/tranutil.c ****   pack_mem("[-]             ", 16);
 2065              		.loc 1 351 0
 2066 0296 5C48     		ldr	r0, .L107+96
 2067 0298 2021     		movs	r1, #32
 2068 029a FFF7FEFF 		bl	pack_mem
 2069              	.LVL329:
 352:src/tranutil.c ****   pack_lf();
 2070              		.loc 1 352 0
 2071 029e 5B48     		ldr	r0, .L107+100
 2072 02a0 1021     		movs	r1, #16
 2073 02a2 FFF7FEFF 		bl	pack_mem
 2074              	.LVL330:
 353:src/tranutil.c ****   pack_mem("OFFLINE                       : ", 32);
 2075              		.loc 1 353 0
 2076 02a6 FFF7FEFF 		bl	pack_lf
 2077              	.LVL331:
 354:src/tranutil.c ****   pack_mem("[-]             ", 16);
 2078              		.loc 1 354 0
 2079 02aa 5948     		ldr	r0, .L107+104
 2080 02ac 2021     		movs	r1, #32
 2081 02ae FFF7FEFF 		bl	pack_mem
 2082              	.LVL332:
 355:src/tranutil.c ****   pack_lf();
 2083              		.loc 1 355 0
 2084 02b2 5648     		ldr	r0, .L107+100
 2085 02b4 1021     		movs	r1, #16
 2086 02b6 FFF7FEFF 		bl	pack_mem
 2087              	.LVL333:
 356:src/tranutil.c ****   pack_mem("REFUND                        : ", 32);
 2088              		.loc 1 356 0
 2089 02ba FFF7FEFF 		bl	pack_lf
 2090              	.LVL334:
 357:src/tranutil.c ****   pack_mem("[+]             ", 16);
 2091              		.loc 1 357 0
 2092 02be 5548     		ldr	r0, .L107+108
 2093 02c0 2021     		movs	r1, #32
 2094 02c2 FFF7FEFF 		bl	pack_mem
 2095              	.LVL335:
 358:src/tranutil.c ****   pack_lf();
 2096              		.loc 1 358 0
 2097 02c6 4F48     		ldr	r0, .L107+92
 2098 02c8 1021     		movs	r1, #16
 2099 02ca FFF7FEFF 		bl	pack_mem
 2100              	.LVL336:
 359:src/tranutil.c ****   pack_mem("VOIDS                         : ", 32);
 2101              		.loc 1 359 0
 2102 02ce FFF7FEFF 		bl	pack_lf
 2103              	.LVL337:
 360:src/tranutil.c ****   pack_mem("[+]             ", 16);
 2104              		.loc 1 360 0
ARM GAS  C:\Users\AHMED~1.ELE\AppData\Local\Temp\cc98zNMh.s 			page 80


 2105 02d2 5148     		ldr	r0, .L107+112
 2106 02d4 2021     		movs	r1, #32
 2107 02d6 FFF7FEFF 		bl	pack_mem
 2108              	.LVL338:
 361:src/tranutil.c ****   pack_lf();
 2109              		.loc 1 361 0
 2110 02da 4A48     		ldr	r0, .L107+92
 2111 02dc 1021     		movs	r1, #16
 2112 02de FFF7FEFF 		bl	pack_mem
 2113              	.LVL339:
 362:src/tranutil.c ****   pack_mem("\x1bW1    PASSWORD OPTIONS    \x1bW0", 30);
 2114              		.loc 1 362 0
 2115 02e2 FFF7FEFF 		bl	pack_lf
 2116              	.LVL340:
 363:src/tranutil.c ****   pack_lf();
 2117              		.loc 1 363 0
 2118 02e6 4D48     		ldr	r0, .L107+116
 2119 02e8 1E21     		movs	r1, #30
 2120 02ea FFF7FEFF 		bl	pack_mem
 2121              	.LVL341:
 364:src/tranutil.c ****   pack_mem("\x1bW1------------------------\x1bW0", 30);
 2122              		.loc 1 364 0
 2123 02ee FFF7FEFF 		bl	pack_lf
 2124              	.LVL342:
 365:src/tranutil.c ****   pack_lf();
 2125              		.loc 1 365 0
 2126 02f2 3C48     		ldr	r0, .L107+60
 2127 02f4 1E21     		movs	r1, #30
 2128 02f6 FFF7FEFF 		bl	pack_mem
 2129              	.LVL343:
 366:src/tranutil.c ****   pack_mem("SUPERVISOR MENU               : ", 32);
 2130              		.loc 1 366 0
 2131 02fa FFF7FEFF 		bl	pack_lf
 2132              	.LVL344:
 367:src/tranutil.c ****   pack_mem("            <00>", 16);
 2133              		.loc 1 367 0
 2134 02fe 4848     		ldr	r0, .L107+120
 2135 0300 2021     		movs	r1, #32
 2136 0302 FFF7FEFF 		bl	pack_mem
 2137              	.LVL345:
 368:src/tranutil.c ****   pack_lf();
 2138              		.loc 1 368 0
 2139 0306 4748     		ldr	r0, .L107+124
 2140 0308 1021     		movs	r1, #16
 2141 030a FFF7FEFF 		bl	pack_mem
 2142              	.LVL346:
 369:src/tranutil.c ****   pack_mem("VOID                          : ", 32);
 2143              		.loc 1 369 0
 2144 030e FFF7FEFF 		bl	pack_lf
 2145              	.LVL347:
 370:src/tranutil.c ****   pack_mem("[-]       <1111>", 16);
 2146              		.loc 1 370 0
 2147 0312 4548     		ldr	r0, .L107+128
 2148 0314 2021     		movs	r1, #32
 2149 0316 FFF7FEFF 		bl	pack_mem
 2150              	.LVL348:
 371:src/tranutil.c ****   pack_lf();
ARM GAS  C:\Users\AHMED~1.ELE\AppData\Local\Temp\cc98zNMh.s 			page 81


 2151              		.loc 1 371 0
 2152 031a 4448     		ldr	r0, .L107+132
 2153 031c 1021     		movs	r1, #16
 2154 031e FFF7FEFF 		bl	pack_mem
 2155              	.LVL349:
 372:src/tranutil.c ****   pack_mem("OFFLINE                       : ", 32);
 2156              		.loc 1 372 0
 2157 0322 FFF7FEFF 		bl	pack_lf
 2158              	.LVL350:
 373:src/tranutil.c ****   pack_mem("[-]       <1111>", 16);
 2159              		.loc 1 373 0
 2160 0326 3A48     		ldr	r0, .L107+104
 2161 0328 2021     		movs	r1, #32
 2162 032a FFF7FEFF 		bl	pack_mem
 2163              	.LVL351:
 374:src/tranutil.c ****   pack_lf();
 2164              		.loc 1 374 0
 2165 032e 3F48     		ldr	r0, .L107+132
 2166 0330 1021     		movs	r1, #16
 2167 0332 FFF7FEFF 		bl	pack_mem
 2168              	.LVL352:
 375:src/tranutil.c ****   pack_mem("REFUND                        : ", 32);
 2169              		.loc 1 375 0
 2170 0336 FFF7FEFF 		bl	pack_lf
 2171              	.LVL353:
 376:src/tranutil.c ****   pack_mem("[-]       <0000>", 16);
 2172              		.loc 1 376 0
 2173 033a 3648     		ldr	r0, .L107+108
 2174 033c 2021     		movs	r1, #32
 2175 033e FFF7FEFF 		bl	pack_mem
 2176              	.LVL354:
 377:src/tranutil.c ****   pack_lf();
 2177              		.loc 1 377 0
 2178 0342 3B48     		ldr	r0, .L107+136
 2179 0344 1021     		movs	r1, #16
 2180 0346 FFF7FEFF 		bl	pack_mem
 2181              	.LVL355:
 378:src/tranutil.c ****   pack_mem("PRE-AUTH                      : ", 32);
 2182              		.loc 1 378 0
 2183 034a FFF7FEFF 		bl	pack_lf
 2184              	.LVL356:
 379:src/tranutil.c ****   pack_mem("[-]       <0000>", 16);
 2185              		.loc 1 379 0
 2186 034e 2E48     		ldr	r0, .L107+96
 2187 0350 2021     		movs	r1, #32
 2188 0352 FFF7FEFF 		bl	pack_mem
 2189              	.LVL357:
 380:src/tranutil.c ****   pack_lf();
 2190              		.loc 1 380 0
 2191 0356 3648     		ldr	r0, .L107+136
 2192 0358 1021     		movs	r1, #16
 2193 035a FFF7FEFF 		bl	pack_mem
 2194              	.LVL358:
 381:src/tranutil.c ****   pack_mem("SETTLE                        : ", 32);
 2195              		.loc 1 381 0
 2196 035e FFF7FEFF 		bl	pack_lf
 2197              	.LVL359:
ARM GAS  C:\Users\AHMED~1.ELE\AppData\Local\Temp\cc98zNMh.s 			page 82


 382:src/tranutil.c ****   pack_mem("[-]       <1111>", 16);
 2198              		.loc 1 382 0
 2199 0362 3448     		ldr	r0, .L107+140
 2200 0364 2021     		movs	r1, #32
 2201 0366 FFF7FEFF 		bl	pack_mem
 2202              	.LVL360:
 383:src/tranutil.c ****   pack_lf();
 2203              		.loc 1 383 0
 2204 036a 3048     		ldr	r0, .L107+132
 2205 036c 1021     		movs	r1, #16
 2206 036e FFF7FEFF 		bl	pack_mem
 2207              	.LVL361:
 384:src/tranutil.c ****   pack_mem("REPORTS                       : ", 32);
 2208              		.loc 1 384 0
 2209 0372 FFF7FEFF 		bl	pack_lf
 2210              	.LVL362:
 385:src/tranutil.c ****   pack_mem("[+]       <0000>", 16);
 2211              		.loc 1 385 0
 2212 0376 3048     		ldr	r0, .L107+144
 2213 0378 2021     		movs	r1, #32
 2214 037a FFF7FEFF 		bl	pack_mem
 2215              	.LVL363:
 386:src/tranutil.c ****   pack_lf();
 2216              		.loc 1 386 0
 2217 037e 2F48     		ldr	r0, .L107+148
 2218 0380 1021     		movs	r1, #16
 2219 0382 FFF7FEFF 		bl	pack_mem
 2220              	.LVL364:
 387:src/tranutil.c ****   pack_mem("DUPLICATE                     : ", 32);
 2221              		.loc 1 387 0
 2222 0386 FFF7FEFF 		bl	pack_lf
 2223              	.LVL365:
 388:src/tranutil.c ****   pack_mem("[+]       <1111>", 16);
 2224              		.loc 1 388 0
 2225 038a 2D48     		ldr	r0, .L107+152
 2226 038c 2021     		movs	r1, #32
 2227 038e FFF7FEFF 		bl	pack_mem
 2228              	.LVL366:
 389:src/tranutil.c ****   pack_lf();
 2229              		.loc 1 389 0
 2230 0392 2C48     		ldr	r0, .L107+156
 2231 0394 1021     		movs	r1, #16
 2232 0396 FFF7FEFF 		bl	pack_mem
 2233              	.LVL367:
 390:src/tranutil.c ****   pack_mem("KEY ENTRY                     : ", 32);
 2234              		.loc 1 390 0
 2235 039a FFF7FEFF 		bl	pack_lf
 2236              	.LVL368:
 391:src/tranutil.c ****   pack_mem("[+]       <0000>", 16);
 2237              		.loc 1 391 0
 2238 039e 2A48     		ldr	r0, .L107+160
 2239 03a0 2021     		movs	r1, #32
 2240 03a2 FFF7FEFF 		bl	pack_mem
 2241              	.LVL369:
 2242 03a6 51E0     		b	.L108
 2243              	.L109:
 2244              		.align	2
ARM GAS  C:\Users\AHMED~1.ELE\AppData\Local\Temp\cc98zNMh.s 			page 83


 2245              	.L107:
 2246 03a8 00000000 		.word	gGDS
 2247 03ac 5F050000 		.word	.LC57
 2248 03b0 6B050000 		.word	.LC58
 2249 03b4 71050000 		.word	.LC59
 2250 03b8 D1040000 		.word	.LC53
 2251 03bc 8C050000 		.word	.LC60
 2252 03c0 AB050000 		.word	.LC61
 2253 03c4 13030000 		.word	.LC39
 2254 03c8 CC050000 		.word	.LC62
 2255 03cc ED050000 		.word	.LC63
 2256 03d0 0E060000 		.word	.LC64
 2257 03d4 2F060000 		.word	.LC65
 2258 03d8 50060000 		.word	.LC66
 2259 03dc 71060000 		.word	.LC67
 2260 03e0 92060000 		.word	.LC68
 2261 03e4 D3020000 		.word	.LC37
 2262 03e8 B1060000 		.word	.LC69
 2263 03ec D2060000 		.word	.LC70
 2264 03f0 F3060000 		.word	.LC71
 2265 03f4 14070000 		.word	.LC72
 2266 03f8 35070000 		.word	.LC73
 2267 03fc 56070000 		.word	.LC74
 2268 0400 75070000 		.word	.LC75
 2269 0404 96070000 		.word	.LC76
 2270 0408 A7070000 		.word	.LC77
 2271 040c C8070000 		.word	.LC78
 2272 0410 D9070000 		.word	.LC79
 2273 0414 FA070000 		.word	.LC80
 2274 0418 1B080000 		.word	.LC81
 2275 041c 3C080000 		.word	.LC82
 2276 0420 5B080000 		.word	.LC83
 2277 0424 7C080000 		.word	.LC84
 2278 0428 8D080000 		.word	.LC85
 2279 042c AE080000 		.word	.LC86
 2280 0430 BF080000 		.word	.LC87
 2281 0434 D0080000 		.word	.LC88
 2282 0438 F1080000 		.word	.LC89
 2283 043c 12090000 		.word	.LC90
 2284 0440 23090000 		.word	.LC91
 2285 0444 44090000 		.word	.LC92
 2286 0448 55090000 		.word	.LC93
 2287              	.L108:
 392:src/tranutil.c ****   pack_lf();
 2288              		.loc 1 392 0
 2289 044c 7F48     		ldr	r0, .L110
 2290 044e 1021     		movs	r1, #16
 2291 0450 FFF7FEFF 		bl	pack_mem
 2292              	.LVL370:
 393:src/tranutil.c ****   pack_mem("\x1bW1    TERMINAL OPTIONS    \x1bW0", 30);
 2293              		.loc 1 393 0
 2294 0454 FFF7FEFF 		bl	pack_lf
 2295              	.LVL371:
 394:src/tranutil.c ****   pack_lf();
 2296              		.loc 1 394 0
 2297 0458 7D48     		ldr	r0, .L110+4
 2298 045a 1E21     		movs	r1, #30
ARM GAS  C:\Users\AHMED~1.ELE\AppData\Local\Temp\cc98zNMh.s 			page 84


 2299 045c FFF7FEFF 		bl	pack_mem
 2300              	.LVL372:
 395:src/tranutil.c ****   pack_mem("\x1bW1------------------------\x1bW0", 30);
 2301              		.loc 1 395 0
 2302 0460 FFF7FEFF 		bl	pack_lf
 2303              	.LVL373:
 396:src/tranutil.c ****   pack_lf();
 2304              		.loc 1 396 0
 2305 0464 7B48     		ldr	r0, .L110+8
 2306 0466 1E21     		movs	r1, #30
 2307 0468 FFF7FEFF 		bl	pack_mem
 2308              	.LVL374:
 397:src/tranutil.c ****   pack_mem("MASK PAN REPORTS              : ", 32);
 2309              		.loc 1 397 0
 2310 046c FFF7FEFF 		bl	pack_lf
 2311              	.LVL375:
 398:src/tranutil.c ****   pack_mem("[+]             ", 16);
 2312              		.loc 1 398 0
 2313 0470 7948     		ldr	r0, .L110+12
 2314 0472 2021     		movs	r1, #32
 2315 0474 FFF7FEFF 		bl	pack_mem
 2316              	.LVL376:
 399:src/tranutil.c ****   pack_lf();
 2317              		.loc 1 399 0
 2318 0478 7848     		ldr	r0, .L110+16
 2319 047a 1021     		movs	r1, #16
 2320 047c FFF7FEFF 		bl	pack_mem
 2321              	.LVL377:
 400:src/tranutil.c ****   pack_mem("KEY ENTRY ALLOWED             : ", 32);
 2322              		.loc 1 400 0
 2323 0480 FFF7FEFF 		bl	pack_lf
 2324              	.LVL378:
 401:src/tranutil.c ****   pack_mem("[-]             ", 16);
 2325              		.loc 1 401 0
 2326 0484 7648     		ldr	r0, .L110+20
 2327 0486 2021     		movs	r1, #32
 2328 0488 FFF7FEFF 		bl	pack_mem
 2329              	.LVL379:
 402:src/tranutil.c ****   pack_lf();
 2330              		.loc 1 402 0
 2331 048c 7548     		ldr	r0, .L110+24
 2332 048e 1021     		movs	r1, #16
 2333 0490 FFF7FEFF 		bl	pack_mem
 2334              	.LVL380:
 403:src/tranutil.c ****   pack_mem("CONSECUTIVE NOT ALLOWED       : ", 32);
 2335              		.loc 1 403 0
 2336 0494 FFF7FEFF 		bl	pack_lf
 2337              	.LVL381:
 404:src/tranutil.c ****   pack_mem("[-]             ", 16);
 2338              		.loc 1 404 0
 2339 0498 7348     		ldr	r0, .L110+28
 2340 049a 2021     		movs	r1, #32
 2341 049c FFF7FEFF 		bl	pack_mem
 2342              	.LVL382:
 405:src/tranutil.c ****   pack_lf();
 2343              		.loc 1 405 0
 2344 04a0 7048     		ldr	r0, .L110+24
ARM GAS  C:\Users\AHMED~1.ELE\AppData\Local\Temp\cc98zNMh.s 			page 85


 2345 04a2 1021     		movs	r1, #16
 2346 04a4 FFF7FEFF 		bl	pack_mem
 2347              	.LVL383:
 406:src/tranutil.c ****   pack_mem("FALLBACK ALLOWED              : ", 32);
 2348              		.loc 1 406 0
 2349 04a8 FFF7FEFF 		bl	pack_lf
 2350              	.LVL384:
 407:src/tranutil.c ****   pack_mem("[-] <01>        ", 16);
 2351              		.loc 1 407 0
 2352 04ac 6F48     		ldr	r0, .L110+32
 2353 04ae 2021     		movs	r1, #32
 2354 04b0 FFF7FEFF 		bl	pack_mem
 2355              	.LVL385:
 408:src/tranutil.c ****   pack_lf();
 2356              		.loc 1 408 0
 2357 04b4 6E48     		ldr	r0, .L110+36
 2358 04b6 1021     		movs	r1, #16
 2359 04b8 FFF7FEFF 		bl	pack_mem
 2360              	.LVL386:
 409:src/tranutil.c ****   pack_mem("ARABIC APPROVED & DECLINE     : ", 32);
 2361              		.loc 1 409 0
 2362 04bc FFF7FEFF 		bl	pack_lf
 2363              	.LVL387:
 410:src/tranutil.c ****   pack_mem("[+]             ", 16);
 2364              		.loc 1 410 0
 2365 04c0 6C48     		ldr	r0, .L110+40
 2366 04c2 2021     		movs	r1, #32
 2367 04c4 FFF7FEFF 		bl	pack_mem
 2368              	.LVL388:
 411:src/tranutil.c ****   pack_lf();
 2369              		.loc 1 411 0
 2370 04c8 6448     		ldr	r0, .L110+16
 2371 04ca 1021     		movs	r1, #16
 2372 04cc FFF7FEFF 		bl	pack_mem
 2373              	.LVL389:
 412:src/tranutil.c ****   pack_mem("FORCED DETAILED REPORT        : ", 32);
 2374              		.loc 1 412 0
 2375 04d0 FFF7FEFF 		bl	pack_lf
 2376              	.LVL390:
 413:src/tranutil.c ****   pack_mem("[+]             ", 16);
 2377              		.loc 1 413 0
 2378 04d4 6848     		ldr	r0, .L110+44
 2379 04d6 2021     		movs	r1, #32
 2380 04d8 FFF7FEFF 		bl	pack_mem
 2381              	.LVL391:
 414:src/tranutil.c ****   pack_lf();
 2382              		.loc 1 414 0
 2383 04dc 5F48     		ldr	r0, .L110+16
 2384 04de 1021     		movs	r1, #16
 2385 04e0 FFF7FEFF 		bl	pack_mem
 2386              	.LVL392:
 415:src/tranutil.c ****   pack_mem("BLOCK DOMESTIC BINS           : ", 32);
 2387              		.loc 1 415 0
 2388 04e4 FFF7FEFF 		bl	pack_lf
 2389              	.LVL393:
 416:src/tranutil.c ****   pack_mem("[-]             ", 16);
 2390              		.loc 1 416 0
ARM GAS  C:\Users\AHMED~1.ELE\AppData\Local\Temp\cc98zNMh.s 			page 86


 2391 04e8 6448     		ldr	r0, .L110+48
 2392 04ea 2021     		movs	r1, #32
 2393 04ec FFF7FEFF 		bl	pack_mem
 2394              	.LVL394:
 417:src/tranutil.c ****   pack_lf();
 2395              		.loc 1 417 0
 2396 04f0 5C48     		ldr	r0, .L110+24
 2397 04f2 1021     		movs	r1, #16
 2398 04f4 FFF7FEFF 		bl	pack_mem
 2399              	.LVL395:
 418:src/tranutil.c ****   pack_mem("INSTALLMENT ALLOWED           : ", 32);
 2400              		.loc 1 418 0
 2401 04f8 FFF7FEFF 		bl	pack_lf
 2402              	.LVL396:
 419:src/tranutil.c ****   pack_mem("[-]             ", 16);
 2403              		.loc 1 419 0
 2404 04fc 6048     		ldr	r0, .L110+52
 2405 04fe 2021     		movs	r1, #32
 2406 0500 FFF7FEFF 		bl	pack_mem
 2407              	.LVL397:
 420:src/tranutil.c ****   pack_lf();
 2408              		.loc 1 420 0
 2409 0504 5748     		ldr	r0, .L110+24
 2410 0506 1021     		movs	r1, #16
 2411 0508 FFF7FEFF 		bl	pack_mem
 2412              	.LVL398:
 421:src/tranutil.c ****   pack_mem("DCC ALLOWED                   : ", 32);
 2413              		.loc 1 421 0
 2414 050c FFF7FEFF 		bl	pack_lf
 2415              	.LVL399:
 422:src/tranutil.c ****   pack_mem("[+]             ", 16);
 2416              		.loc 1 422 0
 2417 0510 5C48     		ldr	r0, .L110+56
 2418 0512 2021     		movs	r1, #32
 2419 0514 FFF7FEFF 		bl	pack_mem
 2420              	.LVL400:
 423:src/tranutil.c ****   pack_lf();
 2421              		.loc 1 423 0
 2422 0518 5048     		ldr	r0, .L110+16
 2423 051a 1021     		movs	r1, #16
 2424 051c FFF7FEFF 		bl	pack_mem
 2425              	.LVL401:
 424:src/tranutil.c ****   pack_mem("\x1bW1      HOST OPTIONS      \x1bW0", 30);
 2426              		.loc 1 424 0
 2427 0520 FFF7FEFF 		bl	pack_lf
 2428              	.LVL402:
 425:src/tranutil.c ****   pack_lf();
 2429              		.loc 1 425 0
 2430 0524 5848     		ldr	r0, .L110+60
 2431 0526 1E21     		movs	r1, #30
 2432 0528 FFF7FEFF 		bl	pack_mem
 2433              	.LVL403:
 426:src/tranutil.c ****   pack_mem("\x1bW1------------------------\x1bW0", 30);
 2434              		.loc 1 426 0
 2435 052c FFF7FEFF 		bl	pack_lf
 2436              	.LVL404:
 427:src/tranutil.c ****   pack_lf();
ARM GAS  C:\Users\AHMED~1.ELE\AppData\Local\Temp\cc98zNMh.s 			page 87


 2437              		.loc 1 427 0
 2438 0530 4848     		ldr	r0, .L110+8
 2439 0532 1E21     		movs	r1, #30
 2440 0534 FFF7FEFF 		bl	pack_mem
 2441              	.LVL405:
 428:src/tranutil.c ****   pack_mem("Terminal ID                   : ", 32);
 2442              		.loc 1 428 0
 2443 0538 FFF7FEFF 		bl	pack_lf
 2444              	.LVL406:
 429:src/tranutil.c ****   pack_mem("()              ", 16);
 2445              		.loc 1 429 0
 2446 053c 5348     		ldr	r0, .L110+64
 2447 053e 2021     		movs	r1, #32
 2448 0540 FFF7FEFF 		bl	pack_mem
 2449              	.LVL407:
 430:src/tranutil.c ****   pack_lf();
 2450              		.loc 1 430 0
 2451 0544 5248     		ldr	r0, .L110+68
 2452 0546 1021     		movs	r1, #16
 2453 0548 FFF7FEFF 		bl	pack_mem
 2454              	.LVL408:
 431:src/tranutil.c ****   pack_mem("Merchant ID                   : ", 32);
 2455              		.loc 1 431 0
 2456 054c FFF7FEFF 		bl	pack_lf
 2457              	.LVL409:
 432:src/tranutil.c ****   pack_mem("()              ", 16);
 2458              		.loc 1 432 0
 2459 0550 5048     		ldr	r0, .L110+72
 2460 0552 2021     		movs	r1, #32
 2461 0554 FFF7FEFF 		bl	pack_mem
 2462              	.LVL410:
 433:src/tranutil.c ****   pack_lf();
 2463              		.loc 1 433 0
 2464 0558 4D48     		ldr	r0, .L110+68
 2465 055a 1021     		movs	r1, #16
 2466 055c FFF7FEFF 		bl	pack_mem
 2467              	.LVL411:
 434:src/tranutil.c ****   pack_mem("AMEX MID                      : ", 32);
 2468              		.loc 1 434 0
 2469 0560 FFF7FEFF 		bl	pack_lf
 2470              	.LVL412:
 435:src/tranutil.c ****   pack_mem("()              ", 16);
 2471              		.loc 1 435 0
 2472 0564 4C48     		ldr	r0, .L110+76
 2473 0566 2021     		movs	r1, #32
 2474 0568 FFF7FEFF 		bl	pack_mem
 2475              	.LVL413:
 436:src/tranutil.c ****   pack_lf();
 2476              		.loc 1 436 0
 2477 056c 4848     		ldr	r0, .L110+68
 2478 056e 1021     		movs	r1, #16
 2479 0570 FFF7FEFF 		bl	pack_mem
 2480              	.LVL414:
 437:src/tranutil.c ****   pack_mem("Premium MID                   : ", 32);
 2481              		.loc 1 437 0
 2482 0574 FFF7FEFF 		bl	pack_lf
 2483              	.LVL415:
ARM GAS  C:\Users\AHMED~1.ELE\AppData\Local\Temp\cc98zNMh.s 			page 88


 438:src/tranutil.c ****   pack_mem("()              ", 16);
 2484              		.loc 1 438 0
 2485 0578 4848     		ldr	r0, .L110+80
 2486 057a 2021     		movs	r1, #32
 2487 057c FFF7FEFF 		bl	pack_mem
 2488              	.LVL416:
 439:src/tranutil.c ****   pack_lf();
 2489              		.loc 1 439 0
 2490 0580 4348     		ldr	r0, .L110+68
 2491 0582 1021     		movs	r1, #16
 2492 0584 FFF7FEFF 		bl	pack_mem
 2493              	.LVL417:
 440:src/tranutil.c ****   pack_mem("MCC                           : ", 32);
 2494              		.loc 1 440 0
 2495 0588 FFF7FEFF 		bl	pack_lf
 2496              	.LVL418:
 441:src/tranutil.c ****   pack_mem("()              ", 16);
 2497              		.loc 1 441 0
 2498 058c 4448     		ldr	r0, .L110+84
 2499 058e 2021     		movs	r1, #32
 2500 0590 FFF7FEFF 		bl	pack_mem
 2501              	.LVL419:
 442:src/tranutil.c ****   pack_lf();
 2502              		.loc 1 442 0
 2503 0594 3E48     		ldr	r0, .L110+68
 2504 0596 1021     		movs	r1, #16
 2505 0598 FFF7FEFF 		bl	pack_mem
 2506              	.LVL420:
 443:src/tranutil.c ****   pack_mem("\x1bW1     COMMUNICATION      \x1bW0", 30);
 2507              		.loc 1 443 0
 2508 059c FFF7FEFF 		bl	pack_lf
 2509              	.LVL421:
 444:src/tranutil.c ****   pack_lf();
 2510              		.loc 1 444 0
 2511 05a0 4048     		ldr	r0, .L110+88
 2512 05a2 1E21     		movs	r1, #30
 2513 05a4 FFF7FEFF 		bl	pack_mem
 2514              	.LVL422:
 445:src/tranutil.c ****   pack_mem("\x1bW1------------------------\x1bW0", 30);
 2515              		.loc 1 445 0
 2516 05a8 FFF7FEFF 		bl	pack_lf
 2517              	.LVL423:
 446:src/tranutil.c ****   pack_lf();
 2518              		.loc 1 446 0
 2519 05ac 2948     		ldr	r0, .L110+8
 2520 05ae 1E21     		movs	r1, #30
 2521 05b0 FFF7FEFF 		bl	pack_mem
 2522              	.LVL424:
 447:src/tranutil.c ****   pack_mem("              SIGNAL SIM TERMINAL               ", 48);
 2523              		.loc 1 447 0
 2524 05b4 FFF7FEFF 		bl	pack_lf
 2525              	.LVL425:
 448:src/tranutil.c ****   pack_lf();
 2526              		.loc 1 448 0
 2527 05b8 3B48     		ldr	r0, .L110+92
 2528 05ba 3021     		movs	r1, #48
 2529 05bc FFF7FEFF 		bl	pack_mem
ARM GAS  C:\Users\AHMED~1.ELE\AppData\Local\Temp\cc98zNMh.s 			page 89


 2530              	.LVL426:
 449:src/tranutil.c ****   pack_mem("OPERATOR NAME                 : ", 32);
 2531              		.loc 1 449 0
 2532 05c0 FFF7FEFF 		bl	pack_lf
 2533              	.LVL427:
 450:src/tranutil.c ****   memset(buf, 0x20, sizeof(buf));
 2534              		.loc 1 450 0
 2535 05c4 3948     		ldr	r0, .L110+96
 2536 05c6 2021     		movs	r1, #32
 2537 05c8 FFF7FEFF 		bl	pack_mem
 2538              	.LVL428:
 451:src/tranutil.c ****  if(GetOptrName(buf, OPTR_NAME_SIZE) == TRUE) {
 2539              		.loc 1 451 0
 2540 05cc 4022     		movs	r2, #64
 2541 05ce 0EA8     		add	r0, sp, #56
 2542 05d0 2021     		movs	r1, #32
 2543 05d2 FFF7FEFF 		bl	memset
 2544              	.LVL429:
 452:src/tranutil.c ****      pack_mem(&buf[0], 16);
 2545              		.loc 1 452 0
 2546 05d6 0EA8     		add	r0, sp, #56
 2547 05d8 1421     		movs	r1, #20
 2548 05da FFF7FEFF 		bl	GetOptrName
 2549              	.LVL430:
 456:src/tranutil.c ****   }
 2550              		.loc 1 456 0
 2551 05de 1021     		movs	r1, #16
 452:src/tranutil.c ****      pack_mem(&buf[0], 16);
 2552              		.loc 1 452 0
 2553 05e0 0128     		cmp	r0, #1
 453:src/tranutil.c ****   }
 2554              		.loc 1 453 0
 2555 05e2 0CBF     		ite	eq
 2556 05e4 0EA8     		addeq	r0, sp, #56
 456:src/tranutil.c ****   }
 2557              		.loc 1 456 0
 2558 05e6 2A48     		ldrne	r0, .L110+68
 2559 05e8 FFF7FEFF 		bl	pack_mem
 2560              	.LVL431:
 458:src/tranutil.c ****   pack_mem("SIM ID                        : ", 32);
 2561              		.loc 1 458 0
 2562 05ec FFF7FEFF 		bl	pack_lf
 2563              	.LVL432:
 459:src/tranutil.c ****     memset(sn, 0, sizeof(sn));
 2564              		.loc 1 459 0
 2565 05f0 2F48     		ldr	r0, .L110+100
 2566 05f2 2021     		movs	r1, #32
 2567 05f4 FFF7FEFF 		bl	pack_mem
 2568              	.LVL433:
 460:src/tranutil.c ****   if (GetSimCCID(sn) == TRUE) {
 2569              		.loc 1 460 0
 2570 05f8 2022     		movs	r2, #32
 2571 05fa 0021     		movs	r1, #0
 2572 05fc 06A8     		add	r0, sp, #24
 2573 05fe FFF7FEFF 		bl	memset
 2574              	.LVL434:
 461:src/tranutil.c ****     pack_mem(&sn[1], 16);
ARM GAS  C:\Users\AHMED~1.ELE\AppData\Local\Temp\cc98zNMh.s 			page 90


 2575              		.loc 1 461 0
 2576 0602 06A8     		add	r0, sp, #24
 2577 0604 FFF7FEFF 		bl	GetSimCCID
 2578              	.LVL435:
 465:src/tranutil.c ****   }
 2579              		.loc 1 465 0
 2580 0608 1021     		movs	r1, #16
 461:src/tranutil.c ****     pack_mem(&sn[1], 16);
 2581              		.loc 1 461 0
 2582 060a 0128     		cmp	r0, #1
 462:src/tranutil.c ****   }
 2583              		.loc 1 462 0
 2584 060c 0CBF     		ite	eq
 2585 060e 0DF11900 		addeq	r0, sp, #25
 465:src/tranutil.c ****   }
 2586              		.loc 1 465 0
 2587 0612 1F48     		ldrne	r0, .L110+68
 2588 0614 FFF7FEFF 		bl	pack_mem
 2589              	.LVL436:
 467:src/tranutil.c ****   pack_lf();
 2590              		.loc 1 467 0
 2591 0618 FFF7FEFF 		bl	pack_lf
 2592              	.LVL437:
 468:src/tranutil.c **** 
 2593              		.loc 1 468 0
 2594 061c FFF7FEFF 		bl	pack_lf
 2595              	.LVL438:
 2596              	.LBE33:
 2597              	.LBE34:
 880:src/tranutil.c **** }
 2598              		.loc 1 880 0
 2599 0620 FFF7FEFF 		bl	PackMsgBufLen
 2600              	.LVL439:
 2601              	.LBE35:
 2602              	.LBE36:
 963:src/tranutil.c ****   DispClrBelowMW(MW_LINE9);
 2603              		.loc 1 963 0
 2604 0624 2368     		ldr	r3, [r4]
 2605 0626 0022     		movs	r2, #0
 2606 0628 D3F8981D 		ldr	r1, [r3, #3480]
 2607 062c 03F69C50 		addw	r0, r3, #3484
 2608 0630 1346     		mov	r3, r2
 2609 0632 FFF7FEFF 		bl	PrintBuf
 2610              	.LVL440:
 964:src/tranutil.c **** }
 2611              		.loc 1 964 0
 2612 0636 0023     		movs	r3, #0
 2613 0638 2321     		movs	r1, #35
 2614 063a 0093     		str	r3, [sp]
 2615 063c 4FF41062 		mov	r2, #2304
 2616 0640 0F20     		movs	r0, #15
 2617 0642 FFF7FEFF 		bl	lib_app_call
 2618              	.LVL441:
 965:src/tranutil.c **** 
 2619              		.loc 1 965 0
 2620 0646 1FB0     		add	sp, sp, #124
 2621              		.cfi_def_cfa_offset 12
ARM GAS  C:\Users\AHMED~1.ELE\AppData\Local\Temp\cc98zNMh.s 			page 91


 2622              		@ sp needed
 2623 0648 30BD     		pop	{r4, r5, pc}
 2624              	.LVL442:
 2625              	.L111:
 2626 064a 00BF     		.align	2
 2627              	.L110:
 2628 064c 12090000 		.word	.LC90
 2629 0650 76090000 		.word	.LC94
 2630 0654 D3020000 		.word	.LC37
 2631 0658 95090000 		.word	.LC95
 2632 065c 96070000 		.word	.LC76
 2633 0660 B6090000 		.word	.LC96
 2634 0664 C8070000 		.word	.LC78
 2635 0668 D7090000 		.word	.LC97
 2636 066c F8090000 		.word	.LC98
 2637 0670 190A0000 		.word	.LC99
 2638 0674 2A0A0000 		.word	.LC100
 2639 0678 4B0A0000 		.word	.LC101
 2640 067c 6C0A0000 		.word	.LC102
 2641 0680 8D0A0000 		.word	.LC103
 2642 0684 8F040000 		.word	.LC51
 2643 0688 AE0A0000 		.word	.LC104
 2644 068c CD0A0000 		.word	.LC105
 2645 0690 13030000 		.word	.LC39
 2646 0694 EE0A0000 		.word	.LC106
 2647 0698 0F0B0000 		.word	.LC107
 2648 069c 300B0000 		.word	.LC108
 2649 06a0 510B0000 		.word	.LC109
 2650 06a4 720B0000 		.word	.LC110
 2651 06a8 910B0000 		.word	.LC111
 2652 06ac C20B0000 		.word	.LC112
 2653 06b0 E30B0000 		.word	.LC113
 2654              		.cfi_endproc
 2655              	.LFE11:
 2656              		.size	Packprintconfig, .-Packprintconfig
 2657              		.section	.text.PackHeader,"ax",%progbits
 2658              		.align	1
 2659              		.global	PackHeader
 2660              		.thumb
 2661              		.thumb_func
 2662              		.type	PackHeader, %function
 2663              	PackHeader:
 2664              	.LFB12:
 976:src/tranutil.c **** 
 2665              		.loc 1 976 0
 2666              		.cfi_startproc
 2667              		@ args = 0, pretend = 0, frame = 0
 2668              		@ frame_needed = 0, uses_anonymous_args = 0
 2669              	.LVL443:
 2670 0000 37B5     		push	{r0, r1, r2, r4, r5, lr}
 2671              		.cfi_def_cfa_offset 24
 2672              		.cfi_offset 4, -12
 2673              		.cfi_offset 5, -8
 2674              		.cfi_offset 14, -4
 980:src/tranutil.c ****   ByteCopy((BYTE *)&P_DATA.s_icc_data, (BYTE *)&INPUT.s_icc_data, sizeof(struct ICC_DATA));
 2675              		.loc 1 980 0
 2676 0002 1A4C     		ldr	r4, .L113
ARM GAS  C:\Users\AHMED~1.ELE\AppData\Local\Temp\cc98zNMh.s 			page 92


 2677 0004 1A4D     		ldr	r5, .L113+4
 2678 0006 2068     		ldr	r0, [r4]
 2679 0008 2946     		mov	r1, r5
 2680 000a 00F52C60 		add	r0, r0, #2752
 2681 000e 4FF4FC72 		mov	r2, #504
 2682 0012 FFF7FEFF 		bl	ByteCopy
 2683              	.LVL444:
 981:src/tranutil.c ****   ByteCopy((BYTE *)&P_DATA.s_dtg, (BYTE *)&RSP_DATA.s_dtg, sizeof(struct DATETIME));
 2684              		.loc 1 981 0
 2685 0016 2068     		ldr	r0, [r4]
 2686 0018 05F18401 		add	r1, r5, #132
 2687 001c 00F64430 		addw	r0, r0, #2884
 2688 0020 4FF4BA72 		mov	r2, #372
 2689 0024 FFF7FEFF 		bl	ByteCopy
 2690              	.LVL445:
 982:src/tranutil.c **** 
 2691              		.loc 1 982 0
 2692 0028 2068     		ldr	r0, [r4]
 2693 002a 1249     		ldr	r1, .L113+8
 2694 002c 0822     		movs	r2, #8
 2695 002e 00F63C30 		addw	r0, r0, #2876
 2696 0032 FFF7FEFF 		bl	ByteCopy
 2697              	.LVL446:
 2698              	.LBB39:
 2699              	.LBB40:
 917:src/tranutil.c ****   if(header)
 2700              		.loc 1 917 0
 2701 0036 FFF7FEFF 		bl	MsgBufSetup
 2702              	.LVL447:
 919:src/tranutil.c ****   else{
 2703              		.loc 1 919 0
 2704 003a 0020     		movs	r0, #0
 2705 003c FFF7FEFF 		bl	PackContents
 2706              	.LVL448:
 929:src/tranutil.c ****   if (aReprint == FALSE && header==FALSE)
 2707              		.loc 1 929 0
 2708 0040 FFF7FEFF 		bl	PackMsgBufLen
 2709              	.LVL449:
 2710              	.LBE40:
 2711              	.LBE39:
 985:src/tranutil.c ****   DispClrBelowMW(MW_LINE9);
 2712              		.loc 1 985 0
 2713 0044 2368     		ldr	r3, [r4]
 2714 0046 0022     		movs	r2, #0
 2715 0048 D3F8981D 		ldr	r1, [r3, #3480]
 2716 004c 03F69C50 		addw	r0, r3, #3484
 2717 0050 1346     		mov	r3, r2
 2718 0052 FFF7FEFF 		bl	PrintBuf
 2719              	.LVL450:
 986:src/tranutil.c **** }
 2720              		.loc 1 986 0
 2721 0056 0023     		movs	r3, #0
 2722 0058 2321     		movs	r1, #35
 2723 005a 0093     		str	r3, [sp]
 2724 005c 4FF41062 		mov	r2, #2304
 2725 0060 0F20     		movs	r0, #15
 2726 0062 FFF7FEFF 		bl	lib_app_call
ARM GAS  C:\Users\AHMED~1.ELE\AppData\Local\Temp\cc98zNMh.s 			page 93


 2727              	.LVL451:
 987:src/tranutil.c **** 
 2728              		.loc 1 987 0
 2729 0066 03B0     		add	sp, sp, #12
 2730              		.cfi_def_cfa_offset 12
 2731              		@ sp needed
 2732 0068 30BD     		pop	{r4, r5, pc}
 2733              	.L114:
 2734 006a 00BF     		.align	2
 2735              	.L113:
 2736 006c 00000000 		.word	gGDS
 2737 0070 00000000 		.word	gGTS
 2738 0074 84050000 		.word	gGTS+1412
 2739              		.cfi_endproc
 2740              	.LFE12:
 2741              		.size	PackHeader, .-PackHeader
 2742              		.section	.text.PackRecordP,"ax",%progbits
 2743              		.align	1
 2744              		.global	PackRecordP
 2745              		.thumb
 2746              		.thumb_func
 2747              		.type	PackRecordP, %function
 2748              	PackRecordP:
 2749              	.LFB13:
 999:src/tranutil.c ****   DDWORD no_tips = -1;
 2750              		.loc 1 999 0
 2751              		.cfi_startproc
 2752              		@ args = 0, pretend = 0, frame = 0
 2753              		@ frame_needed = 0, uses_anonymous_args = 0
 2754              	.LVL452:
 2755 0000 F8B5     		push	{r3, r4, r5, r6, r7, lr}
 2756              		.cfi_def_cfa_offset 24
 2757              		.cfi_offset 3, -24
 2758              		.cfi_offset 4, -20
 2759              		.cfi_offset 5, -16
 2760              		.cfi_offset 6, -12
 2761              		.cfi_offset 7, -8
 2762              		.cfi_offset 14, -4
1002:src/tranutil.c ****   ByteCopy((BYTE *)&P_DATA.s_icc_data, (BYTE *)&RECORD_BUF.s_icc_data, sizeof(struct ICC_DATA));
 2763              		.loc 1 1002 0
 2764 0002 2F4C     		ldr	r4, .L126
 2765 0004 4FF4FC72 		mov	r2, #504
 2766 0008 2168     		ldr	r1, [r4]
1005:src/tranutil.c ****   // !2007-05-23++
 2767              		.loc 1 1005 0
 2768 000a 2E4D     		ldr	r5, .L126+4
1002:src/tranutil.c ****   ByteCopy((BYTE *)&P_DATA.s_icc_data, (BYTE *)&RECORD_BUF.s_icc_data, sizeof(struct ICC_DATA));
 2769              		.loc 1 1002 0
 2770 000c 01F52C60 		add	r0, r1, #2752
 2771              	.LVL453:
 2772 0010 01F5D961 		add	r1, r1, #1736
 2773 0014 FFF7FEFF 		bl	ByteCopy
 2774              	.LVL454:
1003:src/tranutil.c ****   P_DATA.dd_base_amount=P_DATA.dd_amount;
 2775              		.loc 1 1003 0
 2776 0018 2168     		ldr	r1, [r4]
 2777 001a 4FF4BA72 		mov	r2, #372
ARM GAS  C:\Users\AHMED~1.ELE\AppData\Local\Temp\cc98zNMh.s 			page 94


 2778 001e 01F64430 		addw	r0, r1, #2884
 2779 0022 01F24C71 		addw	r1, r1, #1868
 2780 0026 FFF7FEFF 		bl	ByteCopy
 2781              	.LVL455:
1004:src/tranutil.c ****   RSP_DATA.w_rspcode = 'A'*256+'P';
 2782              		.loc 1 1004 0
 2783 002a 2368     		ldr	r3, [r4]
 2784 002c 2646     		mov	r6, r4
 2785 002e 03F6D821 		addw	r1, r3, #2776
 2786 0032 03F54C62 		add	r2, r3, #3264
 2787 0036 D1E90001 		ldrd	r0, [r1]
 2788 003a C2E90001 		strd	r0, [r2]
1005:src/tranutil.c ****   // !2007-05-23++
 2789              		.loc 1 1005 0
 2790 003e 44F25012 		movw	r2, #16720
 2791 0042 A5F86E25 		strh	r2, [r5, #1390]	@ movhi
1007:src/tranutil.c ****   P_DATA.b_PinVerified = RECORD_BUF.b_PinVerified;
 2792              		.loc 1 1007 0
 2793 0046 B3F82E27 		ldrh	r2, [r3, #1838]
 2794 004a A3F8262B 		strh	r2, [r3, #2854]	@ movhi
1008:src/tranutil.c ****   // !2007-05-23--
 2795              		.loc 1 1008 0
 2796 004e 93F83027 		ldrb	r2, [r3, #1840]	@ zero_extendqisi2
 2797 0052 83F8282B 		strb	r2, [r3, #2856]
1011:src/tranutil.c ****     P_DATA.dd_base_amount -= P_DATA.dd_tip;
 2798              		.loc 1 1011 0
 2799 0056 FFF7FEFF 		bl	TIPsReqd
 2800              	.LVL456:
 2801 005a A0B1     		cbz	r0, .L116
1011:src/tranutil.c ****     P_DATA.dd_base_amount -= P_DATA.dd_tip;
 2802              		.loc 1 1011 0 is_stmt 0 discriminator 1
 2803 005c 2368     		ldr	r3, [r4]
 2804 005e 93F8C806 		ldrb	r0, [r3, #1736]	@ zero_extendqisi2
 2805 0062 FFF7FEFF 		bl	SaleType
 2806              	.LVL457:
 2807 0066 70B1     		cbz	r0, .L116
1012:src/tranutil.c ****   else
 2808              		.loc 1 1012 0 is_stmt 1
 2809 0068 2368     		ldr	r3, [r4]
 2810 006a 03F54C62 		add	r2, r3, #3264
 2811 006e 03F52E63 		add	r3, r3, #2784
 2812 0072 D2E90001 		ldrd	r0, [r2]
 2813 0076 D3E90067 		ldrd	r6, [r3]
 2814 007a 801B     		subs	r0, r0, r6
 2815 007c 61EB0701 		sbc	r1, r1, r7
 2816 0080 C2E90001 		strd	r0, [r2]
 2817 0084 08E0     		b	.L117
 2818              	.L116:
1014:src/tranutil.c **** 
 2819              		.loc 1 1014 0
 2820 0086 3368     		ldr	r3, [r6]
 2821 0088 4FF0FF30 		mov	r0, #-1
 2822 008c 03F52E63 		add	r3, r3, #2784
 2823 0090 4FF0FF31 		mov	r1, #-1
 2824 0094 C3E90001 		strd	r0, [r3]
 2825              	.L117:
1016:src/tranutil.c **** 	 PackTxnSlip(FALSE,FALSE, 1);
ARM GAS  C:\Users\AHMED~1.ELE\AppData\Local\Temp\cc98zNMh.s 			page 95


 2826              		.loc 1 1016 0
 2827 0098 2B78     		ldrb	r3, [r5]	@ zero_extendqisi2
 2828 009a 0A2B     		cmp	r3, #10
 2829 009c 03D1     		bne	.L118
 2830              	.LVL458:
 2831              	.LBB45:
 2832              	.LBB46:
 917:src/tranutil.c ****   if(header)
 2833              		.loc 1 917 0
 2834 009e FFF7FEFF 		bl	MsgBufSetup
 2835              	.LVL459:
 921:src/tranutil.c ****   PackFF();
 2836              		.loc 1 921 0
 2837 00a2 0120     		movs	r0, #1
 2838 00a4 02E0     		b	.L125
 2839              	.LVL460:
 2840              	.L118:
 2841              	.LBE46:
 2842              	.LBE45:
 2843              	.LBB47:
 2844              	.LBB48:
 917:src/tranutil.c ****   if(header)
 2845              		.loc 1 917 0
 2846 00a6 FFF7FEFF 		bl	MsgBufSetup
 2847              	.LVL461:
 921:src/tranutil.c ****   PackFF();
 2848              		.loc 1 921 0
 2849 00aa 0020     		movs	r0, #0
 2850              	.LVL462:
 2851              	.L125:
 2852 00ac FFF7FEFF 		bl	PackContent
 2853              	.LVL463:
 922:src/tranutil.c ****   }
 2854              		.loc 1 922 0
 2855 00b0 FFF7FEFF 		bl	PackFF
 2856              	.LVL464:
 929:src/tranutil.c ****   if (aReprint == FALSE && header==FALSE)
 2857              		.loc 1 929 0
 2858 00b4 FFF7FEFF 		bl	PackMsgBufLen
 2859              	.LVL465:
 2860              	.LBE48:
 2861              	.LBE47:
1021:src/tranutil.c **** //*****************************************************************************
 2862              		.loc 1 1021 0
 2863 00b8 BDE8F840 		pop	{r3, r4, r5, r6, r7, lr}
 2864              		.cfi_restore 14
 2865              		.cfi_restore 7
 2866              		.cfi_restore 6
 2867              		.cfi_restore 5
 2868              		.cfi_restore 4
 2869              		.cfi_restore 3
 2870              		.cfi_def_cfa_offset 0
 2871              	.LBB50:
 2872              	.LBB49:
 2873 00bc FFF7FEBF 		b	PackTxnSlip.part.0
 2874              	.LVL466:
 2875              	.L127:
ARM GAS  C:\Users\AHMED~1.ELE\AppData\Local\Temp\cc98zNMh.s 			page 96


 2876              		.align	2
 2877              	.L126:
 2878 00c0 00000000 		.word	gGDS
 2879 00c4 00000000 		.word	gGTS
 2880              	.LBE49:
 2881              	.LBE50:
 2882              		.cfi_endproc
 2883              	.LFE13:
 2884              		.size	PackRecordP, .-PackRecordP
 2885              		.section	.text.PackInputP,"ax",%progbits
 2886              		.align	1
 2887              		.global	PackInputP
 2888              		.thumb
 2889              		.thumb_func
 2890              		.type	PackInputP, %function
 2891              	PackInputP:
