ARM GAS  C:\Users\AHMED~1.ELE\AppData\Local\Temp\cc39RHrk.s 			page 1


   1              		.syntax unified
   2              		.cpu cortex-a5
   3              		.fpu softvfp
   4              		.eabi_attribute 20, 1
   5              		.eabi_attribute 21, 1
   6              		.eabi_attribute 23, 3
   7              		.eabi_attribute 24, 1
   8              		.eabi_attribute 25, 1
   9              		.eabi_attribute 26, 1
  10              		.eabi_attribute 30, 4
  11              		.eabi_attribute 34, 0
  12              		.eabi_attribute 18, 4
  13              		.thumb
  14              		.file	"Void.c"
  15              		.text
  16              	.Ltext0:
  17              		.cfi_sections	.debug_frame
  18              		.section	.text.VoidTrans,"ax",%progbits
  19              		.align	1
  20              		.global	VoidTrans
  21              		.thumb
  22              		.thumb_func
  23              		.type	VoidTrans, %function
  24              	VoidTrans:
  25              	.LFB0:
  26              		.file 1 "src/Void.c"
   1:src/Void.c    **** //-----------------------------------------------------------------------------
   2:src/Void.c    **** //  File          : Void.c
   3:src/Void.c    **** //  Module        :
   4:src/Void.c    **** //  Description   : Include routines for Void transaction.
   5:src/Void.c    **** //  Author        : Lewis
   6:src/Void.c    **** //  Notes         :
   7:src/Void.c    **** //
   8:src/Void.c    **** // ============================================================================
   9:src/Void.c    **** // | Naming conventions                                                       |
  10:src/Void.c    **** // | ~~~~~~~~~~~~~~~~~~                                                       |
  11:src/Void.c    **** // |        Struct define : Leading T                                         |
  12:src/Void.c    **** // |         Struct/Array : Leading s                                         |
  13:src/Void.c    **** // |             Constant : Leading K                                         |
  14:src/Void.c    **** // |      Global Variable : Leading g  (variable use outside one C file)      |
  15:src/Void.c    **** // |                                                                          |
  16:src/Void.c    **** // |   BYTE( 8 Bits) size : Leading b                                         |
  17:src/Void.c    **** // |   CHAR( 8 Bits) size : Leading c                                         |
  18:src/Void.c    **** // |   WORD(16 Bits) size : Leading w                                         |
  19:src/Void.c    **** // |  DWORD(32 Bits) size : Leading d                                         |
  20:src/Void.c    **** // |    int(32 Bits) size : Leading i                                         |
  21:src/Void.c    **** // | DDWORD(64 Bits) size : Leading dd                                        |
  22:src/Void.c    **** // |              Pointer : Leading p                                         |
  23:src/Void.c    **** // |                                                                          |
  24:src/Void.c    **** // |    Function argument : Leading a                                         |
  25:src/Void.c    **** // |       Local Variable : All lower case                                    |
  26:src/Void.c    **** // |                                                                          |
  27:src/Void.c    **** // | Examples:                                                                |
  28:src/Void.c    **** // |                Array : Leading s, (sb = arrary of byte, etc)             |
  29:src/Void.c    **** // |              Pointer : Leading p, (pb = pointer of byte, etc)            |
  30:src/Void.c    **** // ============================================================================
  31:src/Void.c    **** //
ARM GAS  C:\Users\AHMED~1.ELE\AppData\Local\Temp\cc39RHrk.s 			page 2


  32:src/Void.c    **** //  Date          Who         Action
  33:src/Void.c    **** //  ------------  ----------- -------------------------------------------------
  34:src/Void.c    **** //  29 Sept 2008  Lewis       Initial Version.
  35:src/Void.c    **** //-----------------------------------------------------------------------------
  36:src/Void.c    **** #include <string.h>
  37:src/Void.c    **** #include "util.h"
  38:src/Void.c    **** #include "sysutil.h"
  39:src/Void.c    **** //#include "key2dll.h"
  40:src/Void.c    **** #include "message.h"
  41:src/Void.c    **** #include "constant.h"
  42:src/Void.c    **** #include "corevar.h"
  43:src/Void.c    **** #include "chkoptn.h"
  44:src/Void.c    **** #include "input.h"
  45:src/Void.c    **** #include "print.h"
  46:src/Void.c    **** #include "tranutil.h"
  47:src/Void.c    **** #include "hostmsg.h"
  48:src/Void.c    **** #include "reversal.h"
  49:src/Void.c    **** #include "offline.h"
  50:src/Void.c    **** #include "emvtrans.h"
  51:src/Void.c    **** //#include "emvutil.h"
  52:src/Void.c    **** #include "record.h"
  53:src/Void.c    **** #include "input.h"
  54:src/Void.c    **** 
  55:src/Void.c    **** //*****************************************************************************
  56:src/Void.c    **** //  Function        : VoidTrans
  57:src/Void.c    **** //  Description     : Do a Void transaction.
  58:src/Void.c    **** //  Input           : aRecIdx;          // record index
  59:src/Void.c    **** //  Return          : N/A
  60:src/Void.c    **** //  Note            : N/A
  61:src/Void.c    **** //  Globals Changed : N/A
  62:src/Void.c    **** //*****************************************************************************
  63:src/Void.c    **** void VoidTrans(DWORD aRecIdx)
  64:src/Void.c    **** {
  27              		.loc 1 64 0
  28              		.cfi_startproc
  29              		@ args = 0, pretend = 0, frame = 512
  30              		@ frame_needed = 0, uses_anonymous_args = 0
  31              	.LVL0:
  32 0000 2DE9F043 		push	{r4, r5, r6, r7, r8, r9, lr}
  33              		.cfi_def_cfa_offset 28
  34              		.cfi_offset 4, -28
  35              		.cfi_offset 5, -24
  36              		.cfi_offset 6, -20
  37              		.cfi_offset 7, -16
  38              		.cfi_offset 8, -12
  39              		.cfi_offset 9, -8
  40              		.cfi_offset 14, -4
  65:src/Void.c    ****   struct TXN_RECORD org_rec;
  66:src/Void.c    **** 
  67:src/Void.c    ****   INPUT.b_trans = VOID;
  41              		.loc 1 67 0
  42 0004 0A23     		movs	r3, #10
  43 0006 B54D     		ldr	r5, .L34
  68:src/Void.c    **** 
  69:src/Void.c    ****   if (STIS_TERM_DATA.b_stis_mode < TRANS_MODE) {
  44              		.loc 1 69 0
  45 0008 B54C     		ldr	r4, .L34+4
ARM GAS  C:\Users\AHMED~1.ELE\AppData\Local\Temp\cc39RHrk.s 			page 3


  67:src/Void.c    **** 
  46              		.loc 1 67 0
  47 000a 2B70     		strb	r3, [r5]
  48              		.loc 1 69 0
  49 000c 2368     		ldr	r3, [r4]
  64:src/Void.c    ****   struct TXN_RECORD org_rec;
  50              		.loc 1 64 0
  51 000e ADF5037D 		sub	sp, sp, #524
  52              		.cfi_def_cfa_offset 552
  53              		.loc 1 69 0
  54 0012 93F85835 		ldrb	r3, [r3, #1368]	@ zero_extendqisi2
  64:src/Void.c    ****   struct TXN_RECORD org_rec;
  55              		.loc 1 64 0
  56 0016 8046     		mov	r8, r0
  57              		.loc 1 69 0
  58 0018 012B     		cmp	r3, #1
  59 001a 4CD9     		bls	.L7
  70:src/Void.c    ****     DispErrorMsg(GetConstMsg(EDC_VD_NOT_ALLOW));
  71:src/Void.c    ****     return;
  72:src/Void.c    ****   }
  73:src/Void.c    **** 
  74:src/Void.c    ****   if (aRecIdx == -1) {
  60              		.loc 1 74 0
  61 001c B0F1FF3F 		cmp	r0, #-1
  62 0020 0AD1     		bne	.L4
  75:src/Void.c    ****     DispHeader(NULL);
  63              		.loc 1 75 0
  64 0022 0020     		movs	r0, #0
  65              	.LVL1:
  66 0024 FFF7FEFF 		bl	DispHeader
  67              	.LVL2:
  76:src/Void.c    ****     aRecIdx = SearchRecord(FALSE);
  68              		.loc 1 76 0
  69 0028 0020     		movs	r0, #0
  70 002a FFF7FEFF 		bl	SearchRecord
  71              	.LVL3:
  77:src/Void.c    ****     if (aRecIdx == -1)
  72              		.loc 1 77 0
  73 002e B0F1FF3F 		cmp	r0, #-1
  76:src/Void.c    ****     aRecIdx = SearchRecord(FALSE);
  74              		.loc 1 76 0
  75 0032 8046     		mov	r8, r0
  76              	.LVL4:
  77              		.loc 1 77 0
  78 0034 00F04E81 		beq	.L1
  79              	.L4:
  78:src/Void.c    ****       return;
  79:src/Void.c    ****   }
  80:src/Void.c    ****  // IncTraceNo();
  81:src/Void.c    ****   DispHeader(NULL);
  80              		.loc 1 81 0
  81 0038 0020     		movs	r0, #0
  82              	.LVL5:
  83 003a FFF7FEFF 		bl	DispHeader
  84              	.LVL6:
  82:src/Void.c    **** //  PackHeader();
  83:src/Void.c    **** 
ARM GAS  C:\Users\AHMED~1.ELE\AppData\Local\Temp\cc39RHrk.s 			page 4


  84:src/Void.c    ****   APM_GetBatchRec(aRecIdx, (BYTE *)&org_rec, sizeof(org_rec));
  85              		.loc 1 84 0
  86 003e 4FF40073 		mov	r3, #512
  87 0042 1020     		movs	r0, #16
  88 0044 0093     		str	r3, [sp]
  89 0046 2A21     		movs	r1, #42
  90 0048 02AB     		add	r3, sp, #8
  91 004a 4246     		mov	r2, r8
  92 004c FFF7FEFF 		bl	lib_app_call
  93              	.LVL7:
  85:src/Void.c    ****   if (org_rec.b_trans_status & VOIDED) {
  94              		.loc 1 85 0
  95 0050 9DF80A30 		ldrb	r3, [sp, #10]	@ zero_extendqisi2
  96 0054 03F01003 		and	r3, r3, #16
  97 0058 03F0FF06 		and	r6, r3, #255
  98 005c 0BB1     		cbz	r3, .L6
  86:src/Void.c    ****     DispErrorMsg(GetConstMsg(EDC_AJ_TXN_VOIDED));
  99              		.loc 1 86 0
 100 005e 2D20     		movs	r0, #45
 101 0060 36E0     		b	.L32
 102              	.L6:
  87:src/Void.c    ****     return;
  88:src/Void.c    ****   }
  89:src/Void.c    **** 
  90:src/Void.c    ****   APM_GetTermCfg(&STIS_TERM_CFG);
 103              		.loc 1 90 0
 104 0062 0F21     		movs	r1, #15
 105 0064 2268     		ldr	r2, [r4]
 106 0066 3346     		mov	r3, r6
 107 0068 0096     		str	r6, [sp]
 108 006a 1020     		movs	r0, #16
 109 006c FFF7FEFF 		bl	lib_app_call
 110              	.LVL8:
  91:src/Void.c    ****   APM_GetAcqTbl(org_rec.w_host_idx, &STIS_ACQ_TBL(0));
 111              		.loc 1 91 0
 112 0070 2368     		ldr	r3, [r4]
 113 0072 BDF87E20 		ldrh	r2, [sp, #126]
 114 0076 1521     		movs	r1, #21
 115 0078 03F55273 		add	r3, r3, #840
 116 007c 0096     		str	r6, [sp]
 117 007e 1020     		movs	r0, #16
 118 0080 FFF7FEFF 		bl	lib_app_call
 119              	.LVL9:
  92:src/Void.c    ****   APM_GetIssuer(org_rec.w_issuer_idx, &STIS_ISS_TBL(0));
 120              		.loc 1 92 0
 121 0084 2368     		ldr	r3, [r4]
 122 0086 BDF88020 		ldrh	r2, [sp, #128]
 123 008a 03F59463 		add	r3, r3, #1184
 124 008e 0096     		str	r6, [sp]
 125 0090 1020     		movs	r0, #16
 126 0092 1321     		movs	r1, #19
 127 0094 FFF7FEFF 		bl	lib_app_call
 128              	.LVL10:
  93:src/Void.c    ****   INPUT.w_host_idx   = org_rec.w_host_idx;
 129              		.loc 1 93 0
 130 0098 BDF87E30 		ldrh	r3, [sp, #126]
 131 009c A5F87630 		strh	r3, [r5, #118]	@ movhi
ARM GAS  C:\Users\AHMED~1.ELE\AppData\Local\Temp\cc39RHrk.s 			page 5


  94:src/Void.c    ****   INPUT.w_issuer_idx = org_rec.w_issuer_idx;
 132              		.loc 1 94 0
 133 00a0 BDF88030 		ldrh	r3, [sp, #128]
 134 00a4 A5F87830 		strh	r3, [r5, #120]	@ movhi
  95:src/Void.c    **** 
  96:src/Void.c    ****   if (VoidBlocked() || (org_rec.b_trans < SALE_SWIPE)) {
 135              		.loc 1 96 0
 136 00a8 FFF7FEFF 		bl	VoidBlocked
 137              	.LVL11:
 138 00ac 18B9     		cbnz	r0, .L7
 139              		.loc 1 96 0 is_stmt 0 discriminator 1
 140 00ae 9DF80830 		ldrb	r3, [sp, #8]	@ zero_extendqisi2
 141 00b2 012B     		cmp	r3, #1
 142 00b4 01D8     		bhi	.L8
 143              	.L7:
  97:src/Void.c    ****     DispErrorMsg(GetConstMsg(EDC_VD_NOT_ALLOW));
 144              		.loc 1 97 0 is_stmt 1
 145 00b6 3120     		movs	r0, #49
 146 00b8 0AE0     		b	.L32
 147              	.L8:
  98:src/Void.c    ****     return;
  99:src/Void.c    ****   }
 100:src/Void.c    **** 
 101:src/Void.c    ****   if (org_rec.b_trans_status & VOIDED) {
 148              		.loc 1 101 0
 149 00ba 9DF80A30 		ldrb	r3, [sp, #10]	@ zero_extendqisi2
 150 00be DB06     		lsls	r3, r3, #27
 151 00c0 01D5     		bpl	.L9
 102:src/Void.c    ****     DispErrorMsg(GetConstMsg(EDC_VD_VOIDED));
 152              		.loc 1 102 0
 153 00c2 3020     		movs	r0, #48
 154 00c4 04E0     		b	.L32
 155              	.L9:
 103:src/Void.c    ****     return;
 104:src/Void.c    ****   }
 105:src/Void.c    **** 
 106:src/Void.c    ****   if (HostSettlePending()) {
 156              		.loc 1 106 0
 157 00c6 FFF7FEFF 		bl	HostSettlePending
 158              	.LVL12:
 159 00ca 8146     		mov	r9, r0
 160 00cc 28B1     		cbz	r0, .L10
 107:src/Void.c    ****     DispErrorMsg(GetConstMsg(EDC_AJ_CLOSE_BATCH));
 161              		.loc 1 107 0
 162 00ce 2E20     		movs	r0, #46
 163              	.L32:
 164 00d0 FFF7FEFF 		bl	GetConstMsg
 165              	.LVL13:
 166 00d4 FFF7FEFF 		bl	DispErrorMsg
 167              	.LVL14:
 108:src/Void.c    ****     return;
 168              		.loc 1 108 0
 169 00d8 FCE0     		b	.L1
 170              	.L10:
 171              	.LBB2:
 109:src/Void.c    ****   }
 110:src/Void.c    **** 
ARM GAS  C:\Users\AHMED~1.ELE\AppData\Local\Temp\cc39RHrk.s 			page 6


 111:src/Void.c    ****   DispLineMW(GetConstMsg(EDC_AJ_TOTAL_PROMPT), MW_LINE1, MW_CLRDISP|MW_REVERSE|MW_CENTER|MW_BIGFONT
 172              		.loc 1 111 0
 173 00da 2620     		movs	r0, #38
 174 00dc FFF7FEFF 		bl	GetConstMsg
 175              	.LVL15:
 176 00e0 FFF7FEFF 		bl	strlen
 177              	.LVL16:
 178 00e4 0746     		mov	r7, r0
 179              	.LVL17:
 180 00e6 791C     		adds	r1, r7, #1
 181 00e8 9220     		movs	r0, #146
 182              	.LVL18:
 183 00ea FFF7FEFF 		bl	sys_func1
 184              	.LVL19:
 185 00ee 0646     		mov	r6, r0
 186 00f0 B8B1     		cbz	r0, .L11
 187              		.loc 1 111 0 is_stmt 0 discriminator 1
 188 00f2 2620     		movs	r0, #38
 189              	.LVL20:
 190 00f4 FFF7FEFF 		bl	GetConstMsg
 191              	.LVL21:
 192 00f8 3A46     		mov	r2, r7
 193 00fa 0146     		mov	r1, r0
 194 00fc 3046     		mov	r0, r6
 195 00fe FFF7FEFF 		bl	memcpy
 196              	.LVL22:
 197 0102 41F29203 		movw	r3, #4242
 198 0106 06F80790 		strb	r9, [r6, r7]
 199 010a 2521     		movs	r1, #37
 200 010c 0093     		str	r3, [sp]
 201 010e 0F20     		movs	r0, #15
 202 0110 3246     		mov	r2, r6
 203 0112 4FF48073 		mov	r3, #256
 204 0116 FFF7FEFF 		bl	lib_app_call
 205              	.LVL23:
 206 011a 9420     		movs	r0, #148
 207 011c 3146     		mov	r1, r6
 208 011e FFF7FEFF 		bl	sys_func1
 209              	.LVL24:
 210              	.L11:
 211              	.LBE2:
 112:src/Void.c    ****   DispAmount(org_rec.dd_amount,((SaleType(org_rec.b_trans)) ? MW_LINE3 : MW_LINE3+0x01), MW_BIGFONT
 212              		.loc 1 112 0 is_stmt 1
 213 0122 9DF80800 		ldrb	r0, [sp, #8]	@ zero_extendqisi2
 214 0126 DDE90867 		ldrd	r6, [sp, #32]
 215              	.LVL25:
 216 012a FFF7FEFF 		bl	SaleType
 217              	.LVL26:
 218 012e 40F20132 		movw	r2, #769
 219 0132 3946     		mov	r1, r7
 220 0134 0028     		cmp	r0, #0
 221 0136 18BF     		it	ne
 222 0138 4FF44072 		movne	r2, #768
 223 013c 4FF48053 		mov	r3, #4096
 224 0140 3046     		mov	r0, r6
 225 0142 FFF7FEFF 		bl	DispAmount
 226              	.LVL27:
ARM GAS  C:\Users\AHMED~1.ELE\AppData\Local\Temp\cc39RHrk.s 			page 7


 113:src/Void.c    ****   if (PromptYesNo() != 2)
 227              		.loc 1 113 0
 228 0146 FFF7FEFF 		bl	PromptYesNo
 229              	.LVL28:
 230 014a 0228     		cmp	r0, #2
 231 014c 40F0C280 		bne	.L1
 114:src/Void.c    ****     return;
 115:src/Void.c    **** 
 116:src/Void.c    ****   DispHeader(STIS_ISS_TBL(0).sb_card_name);
 232              		.loc 1 116 0
 233 0150 2068     		ldr	r0, [r4]
 234 0152 00F2A140 		addw	r0, r0, #1185
 235 0156 FFF7FEFF 		bl	DispHeader
 236              	.LVL29:
 117:src/Void.c    ****   P_DATA.b_type = CUS_SLIP;
 237              		.loc 1 117 0
 238 015a 2368     		ldr	r3, [r4]
 239 015c 0022     		movs	r2, #0
 240 015e 83F8B82C 		strb	r2, [r3, #3256]
 118:src/Void.c    ****   if (((org_rec.b_trans_status & OFFLINE) != 0) || VoidOffline()) {
 241              		.loc 1 118 0
 242 0162 9DF90A30 		ldrsb	r3, [sp, #10]
 243 0166 9342     		cmp	r3, r2
 244 0168 23DA     		bge	.L13
 245              	.LVL30:
 246              	.L14:
 119:src/Void.c    ****     org_rec.b_trans_status |= (VOIDED | ADJUSTED_OFF);
 247              		.loc 1 119 0
 248 016a 9DF80A30 		ldrb	r3, [sp, #10]	@ zero_extendqisi2
 120:src/Void.c    ****     RSP_DATA.b_response = TRANS_ACP;
 249              		.loc 1 120 0
 250 016e 0026     		movs	r6, #0
 119:src/Void.c    ****     org_rec.b_trans_status |= (VOIDED | ADJUSTED_OFF);
 251              		.loc 1 119 0
 252 0170 43F05003 		orr	r3, r3, #80
 121:src/Void.c    ****     RSP_DATA.w_rspcode = '0'*256+'0';
 122:src/Void.c    ****     ReadRTC(&org_rec.s_dtg);
 253              		.loc 1 122 0
 254 0174 21A8     		add	r0, sp, #132
 119:src/Void.c    ****     RSP_DATA.b_response = TRANS_ACP;
 255              		.loc 1 119 0
 256 0176 8DF80A30 		strb	r3, [sp, #10]
 121:src/Void.c    ****     RSP_DATA.w_rspcode = '0'*256+'0';
 257              		.loc 1 121 0
 258 017a 43F23003 		movw	r3, #12336
 120:src/Void.c    ****     RSP_DATA.b_response = TRANS_ACP;
 259              		.loc 1 120 0
 260 017e 85F8A868 		strb	r6, [r5, #2216]
 121:src/Void.c    ****     RSP_DATA.w_rspcode = '0'*256+'0';
 261              		.loc 1 121 0
 262 0182 A5F81637 		strh	r3, [r5, #1814]	@ movhi
 263              		.loc 1 122 0
 264 0186 FFF7FEFF 		bl	ReadRTC
 265              	.LVL31:
 123:src/Void.c    ****     IncTraceNoEND();
 266              		.loc 1 123 0
 267 018a FFF7FEFF 		bl	IncTraceNoEND
ARM GAS  C:\Users\AHMED~1.ELE\AppData\Local\Temp\cc39RHrk.s 			page 8


 268              	.LVL32:
 124:src/Void.c    ****     memcpy(&RECORD_BUF, &org_rec, sizeof(struct TXN_RECORD));
 269              		.loc 1 124 0
 270 018e 2068     		ldr	r0, [r4]
 271 0190 02A9     		add	r1, sp, #8
 272 0192 4FF40072 		mov	r2, #512
 273 0196 00F5D960 		add	r0, r0, #1736
 274 019a FFF7FEFF 		bl	memcpy
 275              	.LVL33:
 125:src/Void.c    ****     UpdateRecord(aRecIdx);
 276              		.loc 1 125 0
 277 019e 4046     		mov	r0, r8
 278 01a0 FFF7FEFF 		bl	UpdateRecord
 279              	.LVL34:
 126:src/Void.c    ****     PackRecordP(FALSE);
 280              		.loc 1 126 0
 281 01a4 3046     		mov	r0, r6
 282 01a6 FFF7FEFF 		bl	PackRecordP
 283              	.LVL35:
 127:src/Void.c    ****     TransEnd(TRUE);
 284              		.loc 1 127 0
 285 01aa 0120     		movs	r0, #1
 286 01ac FFF7FEFF 		bl	TransEnd
 287              	.LVL36:
 128:src/Void.c    ****     return;
 288              		.loc 1 128 0
 289 01b0 90E0     		b	.L1
 290              	.LVL37:
 291              	.L13:
 118:src/Void.c    ****     org_rec.b_trans_status |= (VOIDED | ADJUSTED_OFF);
 292              		.loc 1 118 0 discriminator 1
 293 01b2 FFF7FEFF 		bl	VoidOffline
 294              	.LVL38:
 295 01b6 0746     		mov	r7, r0
 296              	.LVL39:
 297 01b8 0028     		cmp	r0, #0
 298 01ba D6D1     		bne	.L14
 129:src/Void.c    ****   }
 130:src/Void.c    ****   ClearResponse();
 299              		.loc 1 130 0
 300 01bc FFF7FEFF 		bl	ClearResponse
 301              	.LVL40:
 131:src/Void.c    ****   PackComm(INPUT.w_host_idx, FALSE);
 302              		.loc 1 131 0
 303 01c0 B5F87600 		ldrh	r0, [r5, #118]
 304 01c4 3946     		mov	r1, r7
 305 01c6 FFF7FEFF 		bl	PackComm
 306              	.LVL41:
 132:src/Void.c    ****   if ((RSP_DATA.w_rspcode = APM_ConnectOK(FALSE)) == COMM_OK)
 307              		.loc 1 132 0
 308 01ca 3B46     		mov	r3, r7
 309 01cc 0097     		str	r7, [sp]
 310 01ce 1020     		movs	r0, #16
 311 01d0 0A21     		movs	r1, #10
 312 01d2 3A46     		mov	r2, r7
 313 01d4 FFF7FEFF 		bl	lib_app_call
 314              	.LVL42:
ARM GAS  C:\Users\AHMED~1.ELE\AppData\Local\Temp\cc39RHrk.s 			page 9


 315 01d8 43F23003 		movw	r3, #12336
 131:src/Void.c    ****   PackComm(INPUT.w_host_idx, FALSE);
 316              		.loc 1 131 0
 317 01dc 3F4E     		ldr	r6, .L34
 318              		.loc 1 132 0
 319 01de 1FFA80F9 		uxth	r9, r0
 320 01e2 9945     		cmp	r9, r3
 321 01e4 A5F81697 		strh	r9, [r5, #1814]	@ movhi
 322 01e8 6ED1     		bne	.L16
 133:src/Void.c    ****     if (ReversalOK()) {
 323              		.loc 1 133 0
 324 01ea FFF7FEFF 		bl	ReversalOK
 325              	.LVL43:
 326 01ee 0028     		cmp	r0, #0
 327 01f0 6AD0     		beq	.L16
 134:src/Void.c    ****       OfflineSent(0);
 328              		.loc 1 134 0
 329 01f2 3846     		mov	r0, r7
 330 01f4 FFF7FEFF 		bl	OfflineSent
 331              	.LVL44:
 135:src/Void.c    ****       //APM_GetBatchRec(aRecIdx, (BYTE *)&RECORD_BUF);
 136:src/Void.c    ****       ByteCopy((BYTE *)&TX_DATA, (BYTE *)&org_rec, TX_DATA.sb_pin-(BYTE *)&TX_DATA);
 332              		.loc 1 136 0
 333 01f8 06F59560 		add	r0, r6, #1192
 334 01fc 02A9     		add	r1, sp, #8
 335 01fe 4FF4FC72 		mov	r2, #504
 336 0202 FFF7FEFF 		bl	ByteCopy
 337              	.LVL45:
 137:src/Void.c    ****       TX_DATA.dd_amount = TX_DATA.dd_org_amount;
 338              		.loc 1 137 0
 339 0206 06F59A63 		add	r3, r6, #1232
 340 020a 06F59861 		add	r1, r6, #1216
 341 020e D3E90023 		ldrd	r2, [r3]
 138:src/Void.c    ****       TX_DATA.b_trans  = VOID;
 139:src/Void.c    ****       PackProcCode(org_rec.b_trans, TX_DATA.b_acc_ind);
 342              		.loc 1 139 0
 343 0212 9DF80800 		ldrb	r0, [sp, #8]	@ zero_extendqisi2
 137:src/Void.c    ****       TX_DATA.dd_amount = TX_DATA.dd_org_amount;
 344              		.loc 1 137 0
 345 0216 C1E90023 		strd	r2, [r1]
 138:src/Void.c    ****       TX_DATA.b_trans  = VOID;
 346              		.loc 1 138 0
 347 021a 0A23     		movs	r3, #10
 348              		.loc 1 139 0
 349 021c 96F8AE14 		ldrb	r1, [r6, #1198]	@ zero_extendqisi2
 138:src/Void.c    ****       TX_DATA.b_trans  = VOID;
 350              		.loc 1 138 0
 351 0220 86F8A834 		strb	r3, [r6, #1192]
 352              		.loc 1 139 0
 353 0224 FFF7FEFF 		bl	PackProcCode
 354              	.LVL46:
 140:src/Void.c    ****       TX_DATA.sb_proc_code[0] = TX_DATA.sb_proc_code[0] | 0x02;
 355              		.loc 1 140 0
 356 0228 96F8A836 		ldrb	r3, [r6, #1704]	@ zero_extendqisi2
 357 022c 43F00203 		orr	r3, r3, #2
 358 0230 86F8A836 		strb	r3, [r6, #1704]
 141:src/Void.c    ****       IncTraceNo();
ARM GAS  C:\Users\AHMED~1.ELE\AppData\Local\Temp\cc39RHrk.s 			page 10


 359              		.loc 1 141 0
 360 0234 FFF7FEFF 		bl	IncTraceNo
 361              	.LVL47:
 142:src/Void.c    ****       PackHostMsg();
 362              		.loc 1 142 0
 363 0238 FFF7FEFF 		bl	PackHostMsg
 364              	.LVL48:
 143:src/Void.c    ****       UpdateHostStatus(REV_PENDING);
 365              		.loc 1 143 0
 366 023c 0120     		movs	r0, #1
 367 023e FFF7FEFF 		bl	UpdateHostStatus
 368              	.LVL49:
 144:src/Void.c    **** 
 145:src/Void.c    ****       ClearResponse();
 369              		.loc 1 145 0
 370 0242 FFF7FEFF 		bl	ClearResponse
 371              	.LVL50:
 146:src/Void.c    ****       if ((RSP_DATA.w_rspcode=APM_SendRcvd(&TX_BUF, &RX_BUF))==COMM_OK) {
 372              		.loc 1 146 0
 373 0246 264B     		ldr	r3, .L34+4
 374 0248 1020     		movs	r0, #16
 375 024a 1B68     		ldr	r3, [r3]
 376 024c 0B21     		movs	r1, #11
 377 024e 03F5CC52 		add	r2, r3, #6528
 378 0252 03F51653 		add	r3, r3, #9600
 379 0256 0097     		str	r7, [sp]
 380 0258 1C32     		adds	r2, r2, #28
 381 025a 2033     		adds	r3, r3, #32
 382 025c FFF7FEFF 		bl	lib_app_call
 383              	.LVL51:
 384 0260 80B2     		uxth	r0, r0
 385 0262 4845     		cmp	r0, r9
 386 0264 A6F81607 		strh	r0, [r6, #1814]	@ movhi
 387 0268 08D1     		bne	.L19
 147:src/Void.c    ****         RSP_DATA.b_response = CheckHostRsp();
 388              		.loc 1 147 0
 389 026a FFF7FEFF 		bl	CheckHostRsp
 390              	.LVL52:
 148:src/Void.c    ****         if (RSP_DATA.b_response <= TRANS_REJ)
 391              		.loc 1 148 0
 392 026e 0128     		cmp	r0, #1
 147:src/Void.c    ****         RSP_DATA.b_response = CheckHostRsp();
 393              		.loc 1 147 0
 394 0270 86F8A808 		strb	r0, [r6, #2216]
 395              		.loc 1 148 0
 396 0274 02D8     		bhi	.L19
 149:src/Void.c    ****           UpdateHostStatus(NO_PENDING);
 397              		.loc 1 149 0
 398 0276 3846     		mov	r0, r7
 399 0278 FFF7FEFF 		bl	UpdateHostStatus
 400              	.LVL53:
 401              	.L19:
 150:src/Void.c    ****       }
 151:src/Void.c    ****       if (RSP_DATA.b_response == TRANS_ACP) {
 402              		.loc 1 151 0
 403 027c 95F8A858 		ldrb	r5, [r5, #2216]	@ zero_extendqisi2
 404 0280 15BB     		cbnz	r5, .L16
ARM GAS  C:\Users\AHMED~1.ELE\AppData\Local\Temp\cc39RHrk.s 			page 11


 152:src/Void.c    ****         org_rec.b_trans_status |= VOIDED;
 405              		.loc 1 152 0
 406 0282 9DF80A30 		ldrb	r3, [sp, #10]	@ zero_extendqisi2
 153:src/Void.c    ****         memcpy(org_rec.sb_trace_no, TX_DATA.sb_trace_no, sizeof(org_rec.sb_trace_no));
 407              		.loc 1 153 0
 408 0286 1749     		ldr	r1, .L34+8
 152:src/Void.c    ****         org_rec.b_trans_status |= VOIDED;
 409              		.loc 1 152 0
 410 0288 43F01003 		orr	r3, r3, #16
 411              		.loc 1 153 0
 412 028c 0322     		movs	r2, #3
 413 028e 0DF10B00 		add	r0, sp, #11
 152:src/Void.c    ****         org_rec.b_trans_status |= VOIDED;
 414              		.loc 1 152 0
 415 0292 8DF80A30 		strb	r3, [sp, #10]
 416              		.loc 1 153 0
 417 0296 FFF7FEFF 		bl	memcpy
 418              	.LVL54:
 154:src/Void.c    ****         memcpy(org_rec.sb_auth_code, RSP_DATA.sb_auth_code, sizeof(org_rec.sb_auth_code));
 419              		.loc 1 154 0
 420 029a 1349     		ldr	r1, .L34+12
 421 029c 0622     		movs	r2, #6
 422 029e 0DF16700 		add	r0, sp, #103
 423 02a2 FFF7FEFF 		bl	memcpy
 424              	.LVL55:
 155:src/Void.c    ****         ReadRTC(&org_rec.s_dtg);
 425              		.loc 1 155 0
 426 02a6 21A8     		add	r0, sp, #132
 427 02a8 FFF7FEFF 		bl	ReadRTC
 428              	.LVL56:
 156:src/Void.c    ****         memcpy(&RECORD_BUF, &org_rec, sizeof(struct TXN_RECORD));
 429              		.loc 1 156 0
 430 02ac 2068     		ldr	r0, [r4]
 431 02ae 02A9     		add	r1, sp, #8
 432 02b0 4FF40072 		mov	r2, #512
 433 02b4 00F5D960 		add	r0, r0, #1736
 434 02b8 FFF7FEFF 		bl	memcpy
 435              	.LVL57:
 157:src/Void.c    ****         UpdateRecord(aRecIdx);
 436              		.loc 1 157 0
 437 02bc 4046     		mov	r0, r8
 438 02be FFF7FEFF 		bl	UpdateRecord
 439              	.LVL58:
 158:src/Void.c    ****         PackRecordP(FALSE);
 440              		.loc 1 158 0
 441 02c2 2846     		mov	r0, r5
 442 02c4 FFF7FEFF 		bl	PackRecordP
 443              	.LVL59:
 444              	.L16:
 159:src/Void.c    ****       }
 160:src/Void.c    ****     }
 161:src/Void.c    ****   TransEnd(TRUE);
 445              		.loc 1 161 0
 446 02c8 0120     		movs	r0, #1
 447 02ca FFF7FEFF 		bl	TransEnd
 448              	.LVL60:
 162:src/Void.c    ****   Delay10ms(50);
ARM GAS  C:\Users\AHMED~1.ELE\AppData\Local\Temp\cc39RHrk.s 			page 12


 449              		.loc 1 162 0
 450 02ce 3220     		movs	r0, #50
 451 02d0 FFF7FEFF 		bl	Delay10ms
 452              	.LVL61:
 453              	.L1:
 163:src/Void.c    **** }
 454              		.loc 1 163 0
 455 02d4 0DF5037D 		add	sp, sp, #524
 456              		.cfi_def_cfa_offset 28
 457              		@ sp needed
 458 02d8 BDE8F083 		pop	{r4, r5, r6, r7, r8, r9, pc}
 459              	.LVL62:
 460              	.L35:
 461              		.align	2
 462              	.L34:
 463 02dc 00000000 		.word	gGTS
 464 02e0 00000000 		.word	gGDS
 465 02e4 AB040000 		.word	gGTS+1195
 466 02e8 0F070000 		.word	gGTS+1807
 467              		.cfi_endproc
 468              	.LFE0:
 469              		.size	VoidTrans, .-VoidTrans
 470              		.text
 471              	.Letext0:
 472              		.file 2 "c:\\devtools\\gcc_v49_2014q4\\lib\\gcc\\arm-none-eabi\\4.9.3\\include\\stddef.h"
 473              		.file 3 "../LibA5T1000/common.h"
 474              		.file 4 "src/sysutil.h"
 475              		.file 5 "src/message.h"
 476              		.file 6 "src/constant.h"
 477              		.file 7 "../LibA5T1000/emv2dll.h"
 478              		.file 8 "../LibA5T1000/emvcl2dll.h"
 479              		.file 9 "../LibA5T1000/ecrdll.h"
 480              		.file 10 "../LibA5T1000/midware.h"
 481              		.file 11 "../LibA5T1000/apm.h"
 482              		.file 12 "src/corevar.h"
 483              		.file 13 "src/tranutil.h"
 484              		.file 14 "c:\\devtools\\gcc_v49_2014q4\\arm-none-eabi\\include\\string.h"
 485              		.file 15 "../LibA5T1000/system.h"
 486              		.file 16 "src/chkoptn.h"
 487              		.file 17 "src/input.h"
 488              		.file 18 "src/record.h"
 489              		.file 19 "src/reversal.h"
 490              		.file 20 "src/offline.h"
 491              		.file 21 "src/hostmsg.h"