ARM GAS  C:\Users\AHMED~1.ELE\AppData\Local\Temp\ccAQ67OG.s 			page 1


   1              		.syntax unified
   2              		.cpu cortex-a5
   3              		.fpu softvfp
   4              		.eabi_attribute 20, 1
   5              		.eabi_attribute 21, 1
   6              		.eabi_attribute 23, 3
   7              		.eabi_attribute 24, 1
   8              		.eabi_attribute 25, 1
   9              		.eabi_attribute 26, 1
  10              		.eabi_attribute 30, 4
  11              		.eabi_attribute 34, 0
  12              		.eabi_attribute 18, 4
  13              		.thumb
  14              		.file	"wavecom.c"
  15              		.text
  16              	.Ltext0:
  17              		.cfi_sections	.debug_frame
  18              		.section	.text.ClearCmdBuf,"ax",%progbits
  19              		.align	1
  20              		.thumb
  21              		.thumb_func
  22              		.type	ClearCmdBuf, %function
  23              	ClearCmdBuf:
  24              	.LFB1:
  25              		.file 1 "src/wavecom.c"
   1:src/wavecom.c **** //-----------------------------------------------------------------------------
   2:src/wavecom.c **** //  File          : WAVECOM.c
   3:src/wavecom.c **** //  Module        :
   4:src/wavecom.c **** //  Description   : Include API for WAVECOM Module (WMP100)
   5:src/wavecom.c **** //  Author        : Lewis
   6:src/wavecom.c **** //  Notes         : N/A
   7:src/wavecom.c **** //
   8:src/wavecom.c **** // ============================================================================
   9:src/wavecom.c **** // | Naming conventions                                                       |
  10:src/wavecom.c **** // | ~~~~~~~~~~~~~~~~~~                                                       |
  11:src/wavecom.c **** // |         Struct/Array : Leading s                                         |
  12:src/wavecom.c **** // |             Constant : Leading K                                         |
  13:src/wavecom.c **** // |      Global Variable : Leading g  (variable use outside one C file)      |
  14:src/wavecom.c **** // |                                                                          |
  15:src/wavecom.c **** // |   BYTE( 8 Bits) size : Leading b                                         |
  16:src/wavecom.c **** // |   CHAR( 8 Bits) size : Leading c                                         |
  17:src/wavecom.c **** // |   WORD(16 Bits) size : Leading w                                         |
  18:src/wavecom.c **** // |  DWORD(32 Bits) size : Leading d                                         |
  19:src/wavecom.c **** // |    int(32 Bits) size : Leading i                                         |
  20:src/wavecom.c **** // | DDWORD(64 Bits) size : Leading dd                                        |
  21:src/wavecom.c **** // |              Pointer : Leading p                                         |
  22:src/wavecom.c **** // |                                                                          |
  23:src/wavecom.c **** // |    Function argument : Leading a                                         |
  24:src/wavecom.c **** // |       Local Variable : All lower case                                    |
  25:src/wavecom.c **** // |                                                                          |
  26:src/wavecom.c **** // | Examples:                                                                |
  27:src/wavecom.c **** // |                Array : Leading s, (sb = arrary of byte, etc)             |
  28:src/wavecom.c **** // |              Pointer : Leading p, (pb = pointer of byte, etc)            |
  29:src/wavecom.c **** // ============================================================================
  30:src/wavecom.c **** //
  31:src/wavecom.c **** //  Date          Who         Action
  32:src/wavecom.c **** //  ------------  ----------- -------------------------------------------------
ARM GAS  C:\Users\AHMED~1.ELE\AppData\Local\Temp\ccAQ67OG.s 			page 2


  33:src/wavecom.c **** //  01 Apr  2009  Lewis       - Port from Creon (Lastest copy from John)
  34:src/wavecom.c **** //                            - Apply new naming covention.
  35:src/wavecom.c **** //-----------------------------------------------------------------------------
  36:src/wavecom.c **** #include <stdio.h>
  37:src/wavecom.c **** #include <string.h>
  38:src/wavecom.c **** #include "System.h"
  39:src/wavecom.c **** #include "util.h"
  40:src/wavecom.c **** #include "apm.h"
  41:src/wavecom.c **** #include "sysutil.h"
  42:src/wavecom.c **** #include "hardware.h"
  43:src/wavecom.c **** #include "wavecom.h"
  44:src/wavecom.c **** 
  45:src/wavecom.c **** #if (T300|T810|A5T1000|T1000|T800|TIRO)
  46:src/wavecom.c **** //----------------------------------------------------------------------
  47:src/wavecom.c **** //      Defines
  48:src/wavecom.c **** //----------------------------------------------------------------------
  49:src/wavecom.c **** #define ATCMD_TIMEOUT   600*2  // 6 secs timeout
  50:src/wavecom.c **** 
  51:src/wavecom.c **** #if (T800)
  52:src/wavecom.c **** #define SMS_PDU_MODE           K_WPduMode
  53:src/wavecom.c **** #define SMS_TXT_MODE           K_WTextMode
  54:src/wavecom.c **** #define SMS_TP_MTI_SMS_SUBMIT  K_SmsSubmit
  55:src/wavecom.c **** #else
  56:src/wavecom.c **** #define SMS_PDU_MODE           0
  57:src/wavecom.c **** #define SMS_TXT_MODE           1
  58:src/wavecom.c **** #define SMS_TP_MTI_SMS_SUBMIT  K_GPRS_SMS_TP_MTI_SMS_SUBMIT
  59:src/wavecom.c **** #endif
  60:src/wavecom.c **** 
  61:src/wavecom.c **** //----------------------------------------------------------------------
  62:src/wavecom.c **** //       Command Code
  63:src/wavecom.c **** //----------------------------------------------------------------------
  64:src/wavecom.c **** #define NO_WAIT           0   // not wait any response
  65:src/wavecom.c **** #define WAIT_RSP          1   // wait until response comes
  66:src/wavecom.c **** #define WAIT_OK           2   // wait until "OK"/"ERROR"
  67:src/wavecom.c **** 
  68:src/wavecom.c **** //----------------------------------------------------------------------
  69:src/wavecom.c **** //      Constant
  70:src/wavecom.c **** //----------------------------------------------------------------------
  71:src/wavecom.c **** static const char *KBookID[] = { "SM", "MC", "LD", "RC"};   // Phone Book
  72:src/wavecom.c **** //static const char *KListType[] = {"REC UNREAD","REC READ","STO UNSENT","STO SENT","ALL"};  // SMS
  73:src/wavecom.c **** 
  74:src/wavecom.c **** //----------------------------------------------------------------------
  75:src/wavecom.c **** //       Global variables
  76:src/wavecom.c **** //----------------------------------------------------------------------
  77:src/wavecom.c **** #define MAX_BUF_SIZE     1500  // max buffer according to boot system
  78:src/wavecom.c **** static char gAtCmdIn[MAX_BUF_SIZE+1];
  79:src/wavecom.c **** static char gAtCmdOut[MAX_BUF_SIZE+1];
  80:src/wavecom.c **** 
  81:src/wavecom.c **** struct GSM_DATA gGSMData;   // Use By Phone Book
  82:src/wavecom.c **** //#if (T800)
  83:src/wavecom.c **** //static T_SMS_PDU gSmsPdu;
  84:src/wavecom.c **** //#endif
  85:src/wavecom.c **** //#if (TIRO)
  86:src/wavecom.c **** //static T_GPRS_SMS_PDU gSmsPdu;
  87:src/wavecom.c **** //#endif
  88:src/wavecom.c **** 
  89:src/wavecom.c **** //*****************************************************************************
ARM GAS  C:\Users\AHMED~1.ELE\AppData\Local\Temp\ccAQ67OG.s 			page 3


  90:src/wavecom.c **** //  Function        : SendWaitRsp
  91:src/wavecom.c **** //  Description     : Send & wait response.
  92:src/wavecom.c **** //  Input           : aCmdStr;  // Wavecom AT command string.
  93:src/wavecom.c **** //                    aWaitRsp; // NO_WAIT/WAIT_RSP/WAIT_OK
  94:src/wavecom.c **** //  Return          : TRUE;     // valid AT response received
  95:src/wavecom.c **** //                    FALSE;    // error in sending/receiving AT response
  96:src/wavecom.c **** //  Note            : N/A
  97:src/wavecom.c **** //  Globals Changed : N/A
  98:src/wavecom.c **** //*****************************************************************************
  99:src/wavecom.c **** static BOOLEAN SendWaitRsp(void *aCmdStr, BYTE aWaitRsp)
 100:src/wavecom.c **** {
 101:src/wavecom.c ****   struct GPRSATCMD  at_cmd;
 102:src/wavecom.c ****   struct GPRSATRESP at_resp;
 103:src/wavecom.c ****   DWORD last_tick, curr_tick;
 104:src/wavecom.c ****   DWORD rx_len;
 105:src/wavecom.c ****   char  *ptr;
 106:src/wavecom.c **** 
 107:src/wavecom.c ****   last_tick = FreeRunMW();
 108:src/wavecom.c ****   while (1) {
 109:src/wavecom.c ****     curr_tick = FreeRunMW();
 110:src/wavecom.c ****     if ((curr_tick - last_tick) > ATCMD_TIMEOUT)
 111:src/wavecom.c ****       break;
 112:src/wavecom.c ****     if (StatMW(gGprsHandle, MW_GSTS_ATCMDRDY, NULL)&MW_GSTS_ATCMDRDY)
 113:src/wavecom.c ****       break;
 114:src/wavecom.c ****   }
 115:src/wavecom.c ****   if (!(StatMW(gGprsHandle, MW_GSTS_ATCMDRDY, NULL)&MW_GSTS_ATCMDRDY))
 116:src/wavecom.c ****     return FALSE;
 117:src/wavecom.c **** 
 118:src/wavecom.c ****   at_cmd.d_timeout = ATCMD_TIMEOUT;
 119:src/wavecom.c ****   strcpy(at_cmd.sb_content, aCmdStr);
 120:src/wavecom.c ****   if (!IOCtlMW(gGprsHandle, IO_GPRS_CMDSEND, &at_cmd))
 121:src/wavecom.c ****     return FALSE;
 122:src/wavecom.c **** 
 123:src/wavecom.c ****   if (aWaitRsp == NO_WAIT)
 124:src/wavecom.c ****     return TRUE;
 125:src/wavecom.c **** 
 126:src/wavecom.c ****   memset(gAtCmdOut, 0, sizeof(gAtCmdOut));
 127:src/wavecom.c ****   ptr = gAtCmdOut;
 128:src/wavecom.c ****   last_tick = FreeRunMW();
 129:src/wavecom.c ****   rx_len = 0;
 130:src/wavecom.c ****   while (1) {
 131:src/wavecom.c ****     curr_tick = FreeRunMW();
 132:src/wavecom.c ****     if ((curr_tick>last_tick) && ((curr_tick-last_tick) >= ATCMD_TIMEOUT))
 133:src/wavecom.c ****       break;
 134:src/wavecom.c ****     if ((curr_tick<last_tick) && (((DWORD)-1-last_tick+curr_tick) >= ATCMD_TIMEOUT))
 135:src/wavecom.c ****       break;
 136:src/wavecom.c ****     if (StatMW(gGprsHandle, MW_GSTS_ATRESPRDY, NULL)&MW_GSTS_ATRESPRDY) {
 137:src/wavecom.c ****       at_resp.d_maxlen = MAX_BUF_SIZE-strlen(gAtCmdOut);
 138:src/wavecom.c ****       rx_len = IOCtlMW(gGprsHandle, IO_GPRS_CMDRESP, &at_resp);
 139:src/wavecom.c ****       memcpy(ptr, at_resp.sb_content, rx_len);
 140:src/wavecom.c ****       if (aWaitRsp == WAIT_OK) {
 141:src/wavecom.c ****         if (strstr((char const *)ptr, "OK") != NULL)
 142:src/wavecom.c ****           return TRUE;
 143:src/wavecom.c ****         if (strstr((char const *)ptr, "ERROR") != NULL)
 144:src/wavecom.c ****           return TRUE;
 145:src/wavecom.c ****       }
 146:src/wavecom.c ****       if (strlen(gAtCmdOut) == MAX_BUF_SIZE)
ARM GAS  C:\Users\AHMED~1.ELE\AppData\Local\Temp\ccAQ67OG.s 			page 4


 147:src/wavecom.c ****         break;
 148:src/wavecom.c ****       ptr += rx_len;
 149:src/wavecom.c ****     }
 150:src/wavecom.c ****     else
 151:src/wavecom.c ****       if ((aWaitRsp==WAIT_RSP)&&strlen(gAtCmdOut))
 152:src/wavecom.c ****         return TRUE;
 153:src/wavecom.c ****     SleepMW();
 154:src/wavecom.c ****   }
 155:src/wavecom.c ****   if ((aWaitRsp==WAIT_RSP)&&strlen(gAtCmdOut))
 156:src/wavecom.c ****     return TRUE;
 157:src/wavecom.c **** 
 158:src/wavecom.c ****   return FALSE;
 159:src/wavecom.c **** }
 160:src/wavecom.c **** #if (T800)
 161:src/wavecom.c **** //*****************************************************************************
 162:src/wavecom.c **** //  Function        : WaitRsp
 163:src/wavecom.c **** //  Description     : Wait response from Wavecom module
 164:src/wavecom.c **** //  Input           : aType;   // WAIT_RSP/WAIT_OK
 165:src/wavecom.c **** //  Return          : TRUE;    // valid AT response received
 166:src/wavecom.c **** //                    FALSE;   // error in sending/receiving AT response
 167:src/wavecom.c **** //  Note            : N/A
 168:src/wavecom.c **** //  Globals Changed : N/A
 169:src/wavecom.c **** //*****************************************************************************
 170:src/wavecom.c **** static BOOLEAN WaitRsp(DWORD aType)
 171:src/wavecom.c **** {
 172:src/wavecom.c ****   struct GPRSATRESP  at_resp;
 173:src/wavecom.c **** 
 174:src/wavecom.c ****   DWORD last_tick, curr_tick;
 175:src/wavecom.c ****   DWORD rx_len;
 176:src/wavecom.c ****   char  *ptr;
 177:src/wavecom.c **** 
 178:src/wavecom.c ****   memset(gAtCmdOut, 0, sizeof(gAtCmdOut));
 179:src/wavecom.c ****   ptr = gAtCmdOut;
 180:src/wavecom.c ****   last_tick = FreeRunMW();
 181:src/wavecom.c ****   rx_len = 0;
 182:src/wavecom.c ****   while (1) {
 183:src/wavecom.c ****     curr_tick = FreeRunMW();
 184:src/wavecom.c ****     if ((curr_tick - last_tick) > ATCMD_TIMEOUT)
 185:src/wavecom.c ****       break;
 186:src/wavecom.c ****     if (StatMW(gGprsHandle, MW_GSTS_ATRESPRDY, NULL)&MW_GSTS_ATRESPRDY) {
 187:src/wavecom.c ****       at_resp.d_maxlen = MAX_BUF_SIZE-strlen(gAtCmdOut);
 188:src/wavecom.c ****       rx_len = IOCtlMW(gGprsHandle, IO_GPRS_CMDRESP, &at_resp);
 189:src/wavecom.c ****       strcpy(ptr, at_resp.sb_content);
 190:src/wavecom.c ****       if (aType == WAIT_OK) {
 191:src/wavecom.c ****         if (strstr((char const *)ptr, "OK") != NULL)
 192:src/wavecom.c ****           return TRUE;
 193:src/wavecom.c ****         if (strstr((char const *)ptr, "ERROR") != NULL)
 194:src/wavecom.c ****           return TRUE;
 195:src/wavecom.c ****       }
 196:src/wavecom.c ****       if (strlen(gAtCmdOut) == MAX_BUF_SIZE)
 197:src/wavecom.c ****         break;
 198:src/wavecom.c ****       ptr += rx_len;
 199:src/wavecom.c ****     }
 200:src/wavecom.c ****     else
 201:src/wavecom.c ****       if ((aType==WAIT_RSP)&&strlen(gAtCmdOut))
 202:src/wavecom.c ****         return TRUE;
 203:src/wavecom.c ****     SleepMW();
ARM GAS  C:\Users\AHMED~1.ELE\AppData\Local\Temp\ccAQ67OG.s 			page 5


 204:src/wavecom.c ****   }
 205:src/wavecom.c ****   if ((aType==WAIT_RSP)&&strlen(gAtCmdOut))
 206:src/wavecom.c ****     return TRUE;
 207:src/wavecom.c ****   return FALSE;
 208:src/wavecom.c **** }
 209:src/wavecom.c **** #endif
 210:src/wavecom.c **** //*****************************************************************************
 211:src/wavecom.c **** //  Function        : ClearCmdBuf
 212:src/wavecom.c **** //  Description     : Clead Response buffer from WAVE module.
 213:src/wavecom.c **** //  Input           : N/A
 214:src/wavecom.c **** //  Return          : N/A
 215:src/wavecom.c **** //  Note            : N/A
 216:src/wavecom.c **** //  Globals Changed : N/A
 217:src/wavecom.c **** //*****************************************************************************
 218:src/wavecom.c **** static void ClearCmdBuf(void)
 219:src/wavecom.c **** {
  26              		.loc 1 219 0
  27              		.cfi_startproc
  28              		@ args = 0, pretend = 0, frame = 1512
  29              		@ frame_needed = 0, uses_anonymous_args = 0
  30 0000 10B5     		push	{r4, lr}
  31              		.cfi_def_cfa_offset 8
  32              		.cfi_offset 4, -8
  33              		.cfi_offset 14, -4
  34 0002 ADF5BE6D 		sub	sp, sp, #1520
  35              		.cfi_def_cfa_offset 1528
  36              	.L2:
 220:src/wavecom.c ****   struct GPRSATRESP  at_resp;
 221:src/wavecom.c ****   // clear AT response
 222:src/wavecom.c ****   do {
 223:src/wavecom.c ****     at_resp.d_maxlen = sizeof(at_resp.sb_content);
  37              		.loc 1 223 0 discriminator 1
  38 0006 03AB     		add	r3, sp, #12
  39 0008 40F2DD52 		movw	r2, #1501
 224:src/wavecom.c ****     IOCtlMW(gGprsHandle, IO_GPRS_CMDRESP, &at_resp);
  40              		.loc 1 224 0 discriminator 1
  41 000c 0D4C     		ldr	r4, .L5
  42 000e 0721     		movs	r1, #7
 223:src/wavecom.c ****     IOCtlMW(gGprsHandle, IO_GPRS_CMDRESP, &at_resp);
  43              		.loc 1 223 0 discriminator 1
  44 0010 0392     		str	r2, [sp, #12]
  45              		.loc 1 224 0 discriminator 1
  46 0012 0093     		str	r3, [sp]
  47 0014 2268     		ldr	r2, [r4]
  48 0016 0323     		movs	r3, #3
  49 0018 0F20     		movs	r0, #15
  50 001a FFF7FEFF 		bl	lib_app_call
  51              	.LVL0:
 225:src/wavecom.c ****     SleepMW();
  52              		.loc 1 225 0 discriminator 1
  53 001e 4FF4CE70 		mov	r0, #412
  54 0022 FFF7FEFF 		bl	sys_func0
  55              	.LVL1:
 226:src/wavecom.c ****   } while (StatMW(gGprsHandle, MW_GSTS_ATRESPRDY, NULL)&MW_GSTS_ATRESPRDY);
  56              		.loc 1 226 0 discriminator 1
  57 0026 0023     		movs	r3, #0
  58 0028 0F20     		movs	r0, #15
ARM GAS  C:\Users\AHMED~1.ELE\AppData\Local\Temp\ccAQ67OG.s 			page 6


  59 002a 0093     		str	r3, [sp]
  60 002c 0821     		movs	r1, #8
  61 002e 4FF08063 		mov	r3, #67108864
  62 0032 2268     		ldr	r2, [r4]
  63 0034 FFF7FEFF 		bl	lib_app_call
  64              	.LVL2:
  65 0038 4301     		lsls	r3, r0, #5
  66 003a E4D4     		bmi	.L2
 227:src/wavecom.c **** }
  67              		.loc 1 227 0
  68 003c 0DF5BE6D 		add	sp, sp, #1520
  69              		.cfi_def_cfa_offset 8
  70              		@ sp needed
  71 0040 10BD     		pop	{r4, pc}
  72              	.L6:
  73 0042 00BF     		.align	2
  74              	.L5:
  75 0044 00000000 		.word	gGprsHandle
  76              		.cfi_endproc
  77              	.LFE1:
  78              		.size	ClearCmdBuf, .-ClearCmdBuf
  79              		.section	.text.SendWaitRsp.part.0,"ax",%progbits
  80              		.align	1
  81              		.thumb
  82              		.thumb_func
  83              		.type	SendWaitRsp.part.0, %function
  84              	SendWaitRsp.part.0:
  85              	.LFB43:
  99:src/wavecom.c **** {
  86              		.loc 1 99 0
  87              		.cfi_startproc
  88              		@ args = 0, pretend = 0, frame = 3016
  89              		@ frame_needed = 0, uses_anonymous_args = 0
  90              	.LVL3:
  91 0000 2DE9F043 		push	{r4, r5, r6, r7, r8, r9, lr}
  92              		.cfi_def_cfa_offset 28
  93              		.cfi_offset 4, -28
  94              		.cfi_offset 5, -24
  95              		.cfi_offset 6, -20
  96              		.cfi_offset 7, -16
  97              		.cfi_offset 8, -12
  98              		.cfi_offset 9, -8
  99              		.cfi_offset 14, -4
 100 0004 ADF6D43D 		subw	sp, sp, #3028
 101              		.cfi_def_cfa_offset 3056
 118:src/wavecom.c ****   strcpy(at_cmd.sb_content, aCmdStr);
 102              		.loc 1 118 0
 103 0008 02AC     		add	r4, sp, #8
  99:src/wavecom.c **** {
 104              		.loc 1 99 0
 105 000a 0346     		mov	r3, r0
 118:src/wavecom.c ****   strcpy(at_cmd.sb_content, aCmdStr);
 106              		.loc 1 118 0
 107 000c 4FF49662 		mov	r2, #1200
 108 0010 2046     		mov	r0, r4
 109              	.LVL4:
  99:src/wavecom.c **** {
ARM GAS  C:\Users\AHMED~1.ELE\AppData\Local\Temp\ccAQ67OG.s 			page 7


 110              		.loc 1 99 0
 111 0012 0D46     		mov	r5, r1
 118:src/wavecom.c ****   strcpy(at_cmd.sb_content, aCmdStr);
 112              		.loc 1 118 0
 113 0014 40F8042B 		str	r2, [r0], #4
 119:src/wavecom.c ****   if (!IOCtlMW(gGprsHandle, IO_GPRS_CMDSEND, &at_cmd))
 114              		.loc 1 119 0
 115 0018 1946     		mov	r1, r3
 116              	.LVL5:
 120:src/wavecom.c ****     return FALSE;
 117              		.loc 1 120 0
 118 001a 3F4F     		ldr	r7, .L20
 119:src/wavecom.c ****   if (!IOCtlMW(gGprsHandle, IO_GPRS_CMDSEND, &at_cmd))
 119              		.loc 1 119 0
 120 001c FFF7FEFF 		bl	strcpy
 121              	.LVL6:
 120:src/wavecom.c ****     return FALSE;
 122              		.loc 1 120 0
 123 0020 0094     		str	r4, [sp]
 124 0022 0F20     		movs	r0, #15
 125 0024 0721     		movs	r1, #7
 126 0026 3A68     		ldr	r2, [r7]
 127 0028 0223     		movs	r3, #2
 128 002a FFF7FEFF 		bl	lib_app_call
 129              	.LVL7:
 130 002e 0028     		cmp	r0, #0
 131 0030 6DD0     		beq	.L8
 123:src/wavecom.c ****     return TRUE;
 132              		.loc 1 123 0
 133 0032 0DB9     		cbnz	r5, .L9
 134              	.L15:
 124:src/wavecom.c **** 
 135              		.loc 1 124 0
 136 0034 0120     		movs	r0, #1
 137 0036 6AE0     		b	.L8
 138              	.L9:
 126:src/wavecom.c ****   ptr = gAtCmdOut;
 139              		.loc 1 126 0
 140 0038 0021     		movs	r1, #0
 141 003a 40F2DD52 		movw	r2, #1501
 142 003e 3748     		ldr	r0, .L20+4
 143 0040 FFF7FEFF 		bl	memset
 144              	.LVL8:
 128:src/wavecom.c ****   rx_len = 0;
 145              		.loc 1 128 0
 146 0044 40F29F10 		movw	r0, #415
 147 0048 FFF7FEFF 		bl	sys_func0
 148              	.LVL9:
 127:src/wavecom.c ****   last_tick = FreeRunMW();
 149              		.loc 1 127 0
 150 004c 334C     		ldr	r4, .L20+4
 151 004e A046     		mov	r8, r4
 128:src/wavecom.c ****   rx_len = 0;
 152              		.loc 1 128 0
 153 0050 0646     		mov	r6, r0
 154              	.LVL10:
 155              	.L17:
ARM GAS  C:\Users\AHMED~1.ELE\AppData\Local\Temp\ccAQ67OG.s 			page 8


 131:src/wavecom.c ****     if ((curr_tick>last_tick) && ((curr_tick-last_tick) >= ATCMD_TIMEOUT))
 156              		.loc 1 131 0
 157 0052 40F29F10 		movw	r0, #415
 158 0056 FFF7FEFF 		bl	sys_func0
 159              	.LVL11:
 132:src/wavecom.c ****       break;
 160              		.loc 1 132 0
 161 005a B042     		cmp	r0, r6
 162 005c 03D9     		bls	.L10
 163 005e 831B     		subs	r3, r0, r6
 164 0060 B3F5966F 		cmp	r3, #1200
 165 0064 4CD2     		bcs	.L11
 166              	.L10:
 134:src/wavecom.c ****       break;
 167              		.loc 1 134 0
 168 0066 B042     		cmp	r0, r6
 169 0068 04D2     		bcs	.L12
 170 006a F343     		mvns	r3, r6
 171 006c 1844     		add	r0, r0, r3
 172              	.LVL12:
 173 006e B0F5966F 		cmp	r0, #1200
 174 0072 45D2     		bcs	.L11
 175              	.L12:
 136:src/wavecom.c ****       at_resp.d_maxlen = MAX_BUF_SIZE-strlen(gAtCmdOut);
 176              		.loc 1 136 0
 177 0074 0023     		movs	r3, #0
 178 0076 0F20     		movs	r0, #15
 179 0078 0093     		str	r3, [sp]
 180 007a 0821     		movs	r1, #8
 181 007c 4FF08063 		mov	r3, #67108864
 182 0080 3A68     		ldr	r2, [r7]
 183 0082 FFF7FEFF 		bl	lib_app_call
 184              	.LVL13:
 185 0086 4301     		lsls	r3, r0, #5
 186 0088 2FD5     		bpl	.L13
 137:src/wavecom.c ****       rx_len = IOCtlMW(gGprsHandle, IO_GPRS_CMDRESP, &at_resp);
 187              		.loc 1 137 0
 188 008a 2448     		ldr	r0, .L20+4
 189 008c FFF7FEFF 		bl	strlen
 190              	.LVL14:
 191 0090 0DF2EC53 		addw	r3, sp, #1516
 138:src/wavecom.c ****       memcpy(ptr, at_resp.sb_content, rx_len);
 192              		.loc 1 138 0
 193 0094 0721     		movs	r1, #7
 194 0096 0093     		str	r3, [sp]
 137:src/wavecom.c ****       rx_len = IOCtlMW(gGprsHandle, IO_GPRS_CMDRESP, &at_resp);
 195              		.loc 1 137 0
 196 0098 C0F5BB60 		rsb	r0, r0, #1496
 197 009c 0430     		adds	r0, r0, #4
 138:src/wavecom.c ****       memcpy(ptr, at_resp.sb_content, rx_len);
 198              		.loc 1 138 0
 199 009e 1E4B     		ldr	r3, .L20
 137:src/wavecom.c ****       rx_len = IOCtlMW(gGprsHandle, IO_GPRS_CMDRESP, &at_resp);
 200              		.loc 1 137 0
 201 00a0 CDF8EC05 		str	r0, [sp, #1516]
 138:src/wavecom.c ****       memcpy(ptr, at_resp.sb_content, rx_len);
 202              		.loc 1 138 0
ARM GAS  C:\Users\AHMED~1.ELE\AppData\Local\Temp\ccAQ67OG.s 			page 9


 203 00a4 1A68     		ldr	r2, [r3]
 204 00a6 0F20     		movs	r0, #15
 205 00a8 0323     		movs	r3, #3
 206 00aa FFF7FEFF 		bl	lib_app_call
 207              	.LVL15:
 139:src/wavecom.c ****       if (aWaitRsp == WAIT_OK) {
 208              		.loc 1 139 0
 209 00ae 0DF5BE61 		add	r1, sp, #1520
 138:src/wavecom.c ****       memcpy(ptr, at_resp.sb_content, rx_len);
 210              		.loc 1 138 0
 211 00b2 8146     		mov	r9, r0
 212              	.LVL16:
 139:src/wavecom.c ****       if (aWaitRsp == WAIT_OK) {
 213              		.loc 1 139 0
 214 00b4 4A46     		mov	r2, r9
 215 00b6 2046     		mov	r0, r4
 216              	.LVL17:
 217 00b8 FFF7FEFF 		bl	memcpy
 218              	.LVL18:
 140:src/wavecom.c ****         if (strstr((char const *)ptr, "OK") != NULL)
 219              		.loc 1 140 0
 220 00bc 022D     		cmp	r5, #2
 221 00be 0BD1     		bne	.L14
 141:src/wavecom.c ****           return TRUE;
 222              		.loc 1 141 0
 223 00c0 2046     		mov	r0, r4
 224 00c2 1749     		ldr	r1, .L20+8
 225 00c4 FFF7FEFF 		bl	strstr
 226              	.LVL19:
 227 00c8 0028     		cmp	r0, #0
 228 00ca B3D1     		bne	.L15
 143:src/wavecom.c ****           return TRUE;
 229              		.loc 1 143 0
 230 00cc 2046     		mov	r0, r4
 231 00ce 1549     		ldr	r1, .L20+12
 232 00d0 FFF7FEFF 		bl	strstr
 233              	.LVL20:
 234 00d4 0028     		cmp	r0, #0
 235 00d6 ADD1     		bne	.L15
 236              	.L14:
 146:src/wavecom.c ****         break;
 237              		.loc 1 146 0
 238 00d8 1048     		ldr	r0, .L20+4
 239 00da FFF7FEFF 		bl	strlen
 240              	.LVL21:
 241 00de 40F2DC53 		movw	r3, #1500
 242 00e2 9842     		cmp	r0, r3
 243 00e4 0CD0     		beq	.L11
 148:src/wavecom.c ****     }
 244              		.loc 1 148 0
 245 00e6 4C44     		add	r4, r4, r9
 246              	.LVL22:
 247 00e8 05E0     		b	.L16
 248              	.LVL23:
 249              	.L13:
 151:src/wavecom.c ****         return TRUE;
 250              		.loc 1 151 0
ARM GAS  C:\Users\AHMED~1.ELE\AppData\Local\Temp\ccAQ67OG.s 			page 10


 251 00ea 012D     		cmp	r5, #1
 252 00ec 03D1     		bne	.L16
 253 00ee 98F90030 		ldrsb	r3, [r8]
 254 00f2 002B     		cmp	r3, #0
 255 00f4 9ED1     		bne	.L15
 256              	.L16:
 153:src/wavecom.c ****   }
 257              		.loc 1 153 0
 258 00f6 4FF4CE70 		mov	r0, #412
 259 00fa FFF7FEFF 		bl	sys_func0
 260              	.LVL24:
 261 00fe A8E7     		b	.L17
 262              	.L11:
 155:src/wavecom.c ****     return TRUE;
 263              		.loc 1 155 0
 264 0100 012D     		cmp	r5, #1
 265 0102 03D1     		bne	.L19
 266 0104 98F90000 		ldrsb	r0, [r8]
 267 0108 08B1     		cbz	r0, .L8
 268 010a 93E7     		b	.L15
 269              	.L19:
 158:src/wavecom.c **** }
 270              		.loc 1 158 0
 271 010c 0020     		movs	r0, #0
 272              	.LVL25:
 273              	.L8:
 159:src/wavecom.c **** #if (T800)
 274              		.loc 1 159 0
 275 010e 0DF6D43D 		addw	sp, sp, #3028
 276              		.cfi_def_cfa_offset 28
 277              		@ sp needed
 278 0112 BDE8F083 		pop	{r4, r5, r6, r7, r8, r9, pc}
 279              	.L21:
 280 0116 00BF     		.align	2
 281              	.L20:
 282 0118 00000000 		.word	gGprsHandle
 283 011c 00000000 		.word	.LANCHOR0
 284 0120 00000000 		.word	.LC1
 285 0124 03000000 		.word	.LC2
 286              		.cfi_endproc
 287              	.LFE43:
 288              		.size	SendWaitRsp.part.0, .-SendWaitRsp.part.0
 289              		.section	.text.SendWaitRsp,"ax",%progbits
 290              		.align	1
 291              		.thumb
 292              		.thumb_func
 293              		.type	SendWaitRsp, %function
 294              	SendWaitRsp:
 295              	.LFB0:
 100:src/wavecom.c ****   struct GPRSATCMD  at_cmd;
 296              		.loc 1 100 0
 297              		.cfi_startproc
 298              		@ args = 0, pretend = 0, frame = 0
 299              		@ frame_needed = 0, uses_anonymous_args = 0
 300              	.LVL26:
 301 0000 F7B5     		push	{r0, r1, r2, r4, r5, r6, r7, lr}
 302              		.cfi_def_cfa_offset 32
ARM GAS  C:\Users\AHMED~1.ELE\AppData\Local\Temp\ccAQ67OG.s 			page 11


 303              		.cfi_offset 4, -20
 304              		.cfi_offset 5, -16
 305              		.cfi_offset 6, -12
 306              		.cfi_offset 7, -8
 307              		.cfi_offset 14, -4
 100:src/wavecom.c ****   struct GPRSATCMD  at_cmd;
 308              		.loc 1 100 0
 309 0002 0646     		mov	r6, r0
 107:src/wavecom.c ****   while (1) {
 310              		.loc 1 107 0
 311 0004 40F29F10 		movw	r0, #415
 312              	.LVL27:
 100:src/wavecom.c ****   struct GPRSATCMD  at_cmd;
 313              		.loc 1 100 0
 314 0008 0D46     		mov	r5, r1
 107:src/wavecom.c ****   while (1) {
 315              		.loc 1 107 0
 316 000a FFF7FEFF 		bl	sys_func0
 317              	.LVL28:
 318 000e 0746     		mov	r7, r0
 319              	.LVL29:
 320              	.L27:
 109:src/wavecom.c ****     if ((curr_tick - last_tick) > ATCMD_TIMEOUT)
 321              		.loc 1 109 0
 322 0010 40F29F10 		movw	r0, #415
 323 0014 FFF7FEFF 		bl	sys_func0
 324              	.LVL30:
 325 0018 124C     		ldr	r4, .L29
 110:src/wavecom.c ****       break;
 326              		.loc 1 110 0
 327 001a C01B     		subs	r0, r0, r7
 328              	.LVL31:
 329 001c B0F5966F 		cmp	r0, #1200
 330 0020 12D9     		bls	.L23
 331              	.L26:
 115:src/wavecom.c ****     return FALSE;
 332              		.loc 1 115 0
 333 0022 0023     		movs	r3, #0
 334 0024 0F20     		movs	r0, #15
 335 0026 0093     		str	r3, [sp]
 336 0028 0821     		movs	r1, #8
 337 002a 2268     		ldr	r2, [r4]
 338 002c 4FF08073 		mov	r3, #16777216
 339 0030 FFF7FEFF 		bl	lib_app_call
 340              	.LVL32:
 341 0034 10F08070 		ands	r0, r0, #16777216
 342 0038 12D0     		beq	.L24
 343 003a 3046     		mov	r0, r6
 344 003c 2946     		mov	r1, r5
 159:src/wavecom.c **** #if (T800)
 345              		.loc 1 159 0
 346 003e 03B0     		add	sp, sp, #12
 347              		.cfi_remember_state
 348              		.cfi_def_cfa_offset 20
 349              		@ sp needed
 350 0040 BDE8F040 		pop	{r4, r5, r6, r7, lr}
 351              		.cfi_restore 14
ARM GAS  C:\Users\AHMED~1.ELE\AppData\Local\Temp\ccAQ67OG.s 			page 12


 352              		.cfi_restore 7
 353              		.cfi_restore 6
 354              		.cfi_restore 5
 355              		.cfi_restore 4
 356              		.cfi_def_cfa_offset 0
 357              	.LVL33:
 358 0044 FFF7FEBF 		b	SendWaitRsp.part.0
 359              	.LVL34:
 360              	.L23:
 361              		.cfi_restore_state
 112:src/wavecom.c ****       break;
 362              		.loc 1 112 0
 363 0048 0023     		movs	r3, #0
 364 004a 0F20     		movs	r0, #15
 365 004c 0093     		str	r3, [sp]
 366 004e 0821     		movs	r1, #8
 367 0050 4FF08073 		mov	r3, #16777216
 368 0054 2268     		ldr	r2, [r4]
 369 0056 FFF7FEFF 		bl	lib_app_call
 370              	.LVL35:
 371 005a C301     		lsls	r3, r0, #7
 372 005c D8D5     		bpl	.L27
 373 005e E0E7     		b	.L26
 374              	.L24:
 159:src/wavecom.c **** #if (T800)
 375              		.loc 1 159 0
 376 0060 03B0     		add	sp, sp, #12
 377              		.cfi_def_cfa_offset 20
 378              		@ sp needed
 379 0062 F0BD     		pop	{r4, r5, r6, r7, pc}
 380              	.LVL36:
 381              	.L30:
 382              		.align	2
 383              	.L29:
 384 0064 00000000 		.word	gGprsHandle
 385              		.cfi_endproc
 386              	.LFE0:
 387              		.size	SendWaitRsp, .-SendWaitRsp
 388              		.section	.text.SetSmsMode.part.1,"ax",%progbits
 389              		.align	1
 390              		.thumb
 391              		.thumb_func
 392              		.type	SetSmsMode.part.1, %function
 393              	SetSmsMode.part.1:
 394              	.LFB44:
 228:src/wavecom.c **** //*****************************************************************************
 229:src/wavecom.c **** //  Function        : WaitModuReady
 230:src/wavecom.c **** //  Description     : Wait for module ready to accept command.
 231:src/wavecom.c **** //  Input           : aTimeout;      // timeout in 10ms
 232:src/wavecom.c **** //  Return          : TRUE/FALSE;   // Ready/not Ready
 233:src/wavecom.c **** //  Note            : N/A
 234:src/wavecom.c **** //  Globals Changed : N/A
 235:src/wavecom.c **** //*****************************************************************************
 236:src/wavecom.c **** BOOLEAN WaitModuReady(DWORD aTimeout)
 237:src/wavecom.c **** {
 238:src/wavecom.c ****   DWORD status;
 239:src/wavecom.c ****   DWORD last_tick, curr_tick;
ARM GAS  C:\Users\AHMED~1.ELE\AppData\Local\Temp\ccAQ67OG.s 			page 13


 240:src/wavecom.c **** 
 241:src/wavecom.c ****   last_tick = FreeRunMW();
 242:src/wavecom.c ****   do {
 243:src/wavecom.c ****     curr_tick = FreeRunMW();
 244:src/wavecom.c ****     if ((curr_tick - last_tick) > aTimeout)
 245:src/wavecom.c ****       break;
 246:src/wavecom.c ****     status = StatMW(gGprsHandle, MW_GSTS_ATREADY1|MW_GSTS_ATREADY2, NULL);
 247:src/wavecom.c ****     if (status&(MW_GSTS_ATREADY1|MW_GSTS_ATREADY2))
 248:src/wavecom.c ****       return TRUE;
 249:src/wavecom.c ****     SleepMW();
 250:src/wavecom.c ****   } while (1);
 251:src/wavecom.c **** 
 252:src/wavecom.c ****   return FALSE;
 253:src/wavecom.c **** }
 254:src/wavecom.c **** //*****************************************************************************
 255:src/wavecom.c **** //  Function        : SimDetect
 256:src/wavecom.c **** //  Description     : Detect whether sim card Really inserted.
 257:src/wavecom.c **** //  Input           : N/A
 258:src/wavecom.c **** //  Return          : TRUE/FALSE;
 259:src/wavecom.c **** //  Note            : N/A
 260:src/wavecom.c **** //  Globals Changed : N/A
 261:src/wavecom.c **** //*****************************************************************************
 262:src/wavecom.c **** BOOLEAN SimDetect(void)
 263:src/wavecom.c **** {
 264:src/wavecom.c ****   BOOLEAN detected;
 265:src/wavecom.c **** 
 266:src/wavecom.c ****   detected = FALSE;
 267:src/wavecom.c ****   ClearCmdBuf();
 268:src/wavecom.c ****   if (SendWaitRsp("AT+CPIN?\r\n", WAIT_RSP)) {
 269:src/wavecom.c ****     if (strstr(gAtCmdOut, "CPIN"))
 270:src/wavecom.c ****       detected = TRUE;
 271:src/wavecom.c ****   }
 272:src/wavecom.c ****   ClearCmdBuf();
 273:src/wavecom.c **** 
 274:src/wavecom.c ****   return detected;
 275:src/wavecom.c **** }
 276:src/wavecom.c **** //*****************************************************************************
 277:src/wavecom.c **** //  Function        : RegisterNetwork
 278:src/wavecom.c **** //  Description     : Check network registration.
 279:src/wavecom.c **** //  Input           : 0:            // GSM
 280:src/wavecom.c **** //                    1;            // GPRS
 281:src/wavecom.c **** //  Return          : TRUE/FALSE;
 282:src/wavecom.c **** //  Note            : 0             // done no reg.
 283:src/wavecom.c **** //                    1             // registered home network
 284:src/wavecom.c **** //                    2             // processing
 285:src/wavecom.c **** //                    3             // denied
 286:src/wavecom.c **** //                    4             // unknow err
 287:src/wavecom.c **** //                    5             // registered roaming
 288:src/wavecom.c **** //  Globals Changed : N/A
 289:src/wavecom.c **** //*****************************************************************************
 290:src/wavecom.c **** BYTE RegisterNetwork(BYTE aGPRS)
 291:src/wavecom.c **** {
 292:src/wavecom.c ****   const char cmd[2][6] = { "CREG", "CGREG" };
 293:src/wavecom.c ****   char *ptr;
 294:src/wavecom.c **** 
 295:src/wavecom.c ****   ClearCmdBuf();
 296:src/wavecom.c ****   sprintf(gAtCmdIn, "AT+%s=1\r\n", cmd[aGPRS]);
ARM GAS  C:\Users\AHMED~1.ELE\AppData\Local\Temp\ccAQ67OG.s 			page 14


 297:src/wavecom.c **** 
 298:src/wavecom.c ****   if (!SendWaitRsp(gAtCmdIn, WAIT_OK))
 299:src/wavecom.c ****     return 4;
 300:src/wavecom.c **** 
 301:src/wavecom.c ****   ClearCmdBuf();
 302:src/wavecom.c ****   sprintf(gAtCmdIn, "AT+%s?\r\n", cmd[aGPRS]);
 303:src/wavecom.c ****   if (SendWaitRsp(gAtCmdIn, WAIT_RSP)) {
 304:src/wavecom.c ****     ptr = strstr(gAtCmdOut, cmd[aGPRS]);
 305:src/wavecom.c ****     if (ptr!=NULL) {
 306:src/wavecom.c ****       return ptr[strlen(cmd[aGPRS])+2];
 307:src/wavecom.c ****     }
 308:src/wavecom.c ****   }
 309:src/wavecom.c ****   ClearCmdBuf();
 310:src/wavecom.c ****   return '4';
 311:src/wavecom.c **** }
 312:src/wavecom.c **** //*****************************************************************************
 313:src/wavecom.c **** //  Function        : AttachGPRS
 314:src/wavecom.c **** //  Description     : Attach GPRS
 315:src/wavecom.c **** //  Input           : N/A
 316:src/wavecom.c **** //  Return          : TRUE/FALSE;
 317:src/wavecom.c **** //  Note            : N/A
 318:src/wavecom.c **** //  Globals Changed : N/A
 319:src/wavecom.c **** //*****************************************************************************
 320:src/wavecom.c **** BYTE AttachGPRS(void)
 321:src/wavecom.c **** {
 322:src/wavecom.c ****   ClearCmdBuf();
 323:src/wavecom.c ****   if (SendWaitRsp("AT+CGATT=1\r\n", WAIT_OK)) {
 324:src/wavecom.c ****     if (strstr(gAtCmdOut, "OK"))
 325:src/wavecom.c ****       return TRUE;
 326:src/wavecom.c ****   }
 327:src/wavecom.c ****   ClearCmdBuf();
 328:src/wavecom.c ****   return FALSE;
 329:src/wavecom.c **** }
 330:src/wavecom.c **** //*****************************************************************************
 331:src/wavecom.c **** //  Function        : Asc2DWVAL
 332:src/wavecom.c **** //  Description     : Convert ASCII to number.
 333:src/wavecom.c **** //  Input           : *aPtr;    // Buffer start
 334:src/wavecom.c **** //                  : aMaxLen;  // max length of string
 335:src/wavecom.c **** //  Return          : value;
 336:src/wavecom.c **** //  Note            : N/A
 337:src/wavecom.c **** //  Globals Changed : N/A
 338:src/wavecom.c **** //*****************************************************************************
 339:src/wavecom.c **** static DWORD Asc2DWVAL(BYTE *aPtr, BYTE aMaxLen)
 340:src/wavecom.c **** {
 341:src/wavecom.c ****   BYTE temp;
 342:src/wavecom.c ****   DWORD val;
 343:src/wavecom.c **** 
 344:src/wavecom.c ****   val = 0;
 345:src/wavecom.c ****   while (aMaxLen--) {
 346:src/wavecom.c ****     temp = *aPtr - '0';
 347:src/wavecom.c ****     if (temp <= 9) {
 348:src/wavecom.c ****       val = val*10 + temp;
 349:src/wavecom.c ****       aPtr++;
 350:src/wavecom.c ****     }
 351:src/wavecom.c ****     else
 352:src/wavecom.c ****       break;
 353:src/wavecom.c ****   }
ARM GAS  C:\Users\AHMED~1.ELE\AppData\Local\Temp\ccAQ67OG.s 			page 15


 354:src/wavecom.c ****   return val;
 355:src/wavecom.c **** }
 356:src/wavecom.c **** //*****************************************************************************
 357:src/wavecom.c **** //  Function        : GetPHBConfig
 358:src/wavecom.c **** //  Description     : Get Phone num size & name size for phone book
 359:src/wavecom.c **** //  Input           : aTelSize;     // pointer to storage
 360:src/wavecom.c **** //                    aNameSize;    // pointer to storage
 361:src/wavecom.c **** //  Return          : TRUE/FALSE;
 362:src/wavecom.c **** //  Note            : N/A
 363:src/wavecom.c **** //  Globals Changed : N/A
 364:src/wavecom.c **** //*****************************************************************************
 365:src/wavecom.c **** static BOOLEAN GetPHBConfig(DWORD *aTelSize, DWORD *aNameSize)
 366:src/wavecom.c **** {
 367:src/wavecom.c ****   BYTE *ptr;
 368:src/wavecom.c ****   DWORD idx1, idx2, idx3, r_len;
 369:src/wavecom.c **** 
 370:src/wavecom.c ****   // GSM
 371:src/wavecom.c ****   // get current phonebook status (entries used and available)
 372:src/wavecom.c ****   if (!SendWaitRsp("AT+CPBF=?\r\n", WAIT_OK))
 373:src/wavecom.c ****     return FALSE;
 374:src/wavecom.c **** 
 375:src/wavecom.c ****   // Expected "+CPBF: 60,14"
 376:src/wavecom.c ****   ptr = (BYTE *)strstr((char const *)gAtCmdOut, "+CPBF:");
 377:src/wavecom.c ****   if (ptr == NULL)
 378:src/wavecom.c ****     return FALSE;
 379:src/wavecom.c **** 
 380:src/wavecom.c ****   r_len = strlen(gAtCmdOut) - (ptr - (BYTE *)gAtCmdOut);
 381:src/wavecom.c **** 
 382:src/wavecom.c **** 
 383:src/wavecom.c ****   idx1 = fndb(ptr, ' ', r_len);             // find space
 384:src/wavecom.c ****   if (idx1 == r_len)
 385:src/wavecom.c ****     return FALSE;
 386:src/wavecom.c **** 
 387:src/wavecom.c ****   r_len = r_len - idx1;
 388:src/wavecom.c ****   idx2 = fndb(ptr+idx1+1, ',', r_len);      // find 1st comma
 389:src/wavecom.c ****   if (idx2 == r_len)
 390:src/wavecom.c ****     return FALSE;
 391:src/wavecom.c **** 
 392:src/wavecom.c ****   r_len = r_len - idx2;
 393:src/wavecom.c ****   idx3 = fndb(ptr+idx1+idx2+1, '\r', r_len);     // find '\r'
 394:src/wavecom.c ****   if (idx3 == r_len)
 395:src/wavecom.c ****     return FALSE;
 396:src/wavecom.c **** 
 397:src/wavecom.c ****   idx2 = idx1 + idx2 + 1;
 398:src/wavecom.c **** 
 399:src/wavecom.c ****   *aTelSize =  (WORD)Asc2DWVAL(ptr+idx1+1, 3);
 400:src/wavecom.c ****   *aNameSize= (WORD)Asc2DWVAL(ptr+idx2+1, 3);
 401:src/wavecom.c ****   return TRUE;
 402:src/wavecom.c **** }
 403:src/wavecom.c **** //*****************************************************************************
 404:src/wavecom.c **** //  Function        : GetPHBCapcity
 405:src/wavecom.c **** //  Description     : Get SIM card phone book capacity
 406:src/wavecom.c **** //  Input           : aUsed;     // pointer to storage
 407:src/wavecom.c **** //                    aTotal;    // pointer to storage
 408:src/wavecom.c **** //  Return          : TRUE/FALSE;
 409:src/wavecom.c **** //  Note            : N/A
 410:src/wavecom.c **** //  Globals Changed : N/A
ARM GAS  C:\Users\AHMED~1.ELE\AppData\Local\Temp\ccAQ67OG.s 			page 16


 411:src/wavecom.c **** //*****************************************************************************
 412:src/wavecom.c **** BOOLEAN GetPHBCapcity(DWORD *aUsed, DWORD *aTotal)
 413:src/wavecom.c **** {
 414:src/wavecom.c ****   BYTE *ptr;
 415:src/wavecom.c ****   DWORD idx1, idx2, idx3, r_len;
 416:src/wavecom.c **** 
 417:src/wavecom.c ****   // get current phonebook status (entries used and available)
 418:src/wavecom.c ****   if (!SendWaitRsp("AT+CPBS?\r\n", WAIT_OK))
 419:src/wavecom.c ****     return FALSE;
 420:src/wavecom.c **** 
 421:src/wavecom.c ****   ptr = (BYTE *)strstr((char const *)gAtCmdOut, "+CPBS:");
 422:src/wavecom.c ****   if (ptr == NULL)
 423:src/wavecom.c ****     return FALSE;
 424:src/wavecom.c **** 
 425:src/wavecom.c ****   r_len = strlen(gAtCmdOut) - (ptr - (BYTE *)gAtCmdOut);
 426:src/wavecom.c **** 
 427:src/wavecom.c ****   idx1 = fndb(ptr, ',', r_len);             // find first comma
 428:src/wavecom.c ****   if (idx1 == r_len)
 429:src/wavecom.c ****     return FALSE;
 430:src/wavecom.c **** 
 431:src/wavecom.c ****   r_len = r_len - idx1;
 432:src/wavecom.c ****   idx2 = fndb(ptr+idx1+1, ',', r_len);      // find second comma
 433:src/wavecom.c ****   if (idx2 == r_len)
 434:src/wavecom.c ****     return FALSE;
 435:src/wavecom.c **** 
 436:src/wavecom.c ****   r_len = r_len - idx2;
 437:src/wavecom.c ****   idx3 = fndb(ptr+idx1+idx2+1, '\r', r_len);     // find '\r'
 438:src/wavecom.c ****   if (idx3 == r_len)
 439:src/wavecom.c ****     return FALSE;
 440:src/wavecom.c **** 
 441:src/wavecom.c ****   idx2 = idx1 + idx2 + 1;
 442:src/wavecom.c ****   idx3 = idx2 + idx3 + 1;
 443:src/wavecom.c **** 
 444:src/wavecom.c ****   *aUsed =  (WORD)Asc2DWVAL(ptr+idx1+1, 3);
 445:src/wavecom.c ****   *aTotal = (WORD)Asc2DWVAL(ptr+idx2+1, 3);
 446:src/wavecom.c **** 
 447:src/wavecom.c ****   *aUsed  = *aUsed > MAX_PHBOOK_REC ? MAX_PHBOOK_REC: *aUsed;
 448:src/wavecom.c ****   *aTotal = gGSMData.d_total_count > MAX_PHBOOK_REC ? MAX_PHBOOK_REC: *aTotal;
 449:src/wavecom.c **** 
 450:src/wavecom.c ****   return TRUE;
 451:src/wavecom.c **** }
 452:src/wavecom.c **** //*****************************************************************************
 453:src/wavecom.c **** //  Function        : GetContactInfo
 454:src/wavecom.c **** //  Description     : Get tel number and name
 455:src/wavecom.c **** //  Input           : *tel;     // ptr to tel number buffer
 456:src/wavecom.c **** //                  : *name;    // ptr to name buffer
 457:src/wavecom.c **** //                  : *aStr;   // starting ptr to search
 458:src/wavecom.c **** //                  : len;      // length of string to search
 459:src/wavecom.c **** //  Return          : 0;        // Not found
 460:src/wavecom.c **** //                    1;        // TEL READY
 461:src/wavecom.c **** //                    2;        // TEL & NAME ready
 462:src/wavecom.c **** //  Note            : N/A
 463:src/wavecom.c **** //  Globals Changed : N/A;
 464:src/wavecom.c **** //*****************************************************************************
 465:src/wavecom.c **** static BYTE GetContactInfo(struct PHONE_LIST *aContact, BYTE *aStr, DWORD aLen)
 466:src/wavecom.c **** {
 467:src/wavecom.c ****   BYTE tel_len, name_len;
ARM GAS  C:\Users\AHMED~1.ELE\AppData\Local\Temp\ccAQ67OG.s 			page 17


 468:src/wavecom.c ****   BYTE *ptr;
 469:src/wavecom.c ****   BYTE state;
 470:src/wavecom.c **** 
 471:src/wavecom.c ****   tel_len = name_len = 0;
 472:src/wavecom.c ****   state = 0;
 473:src/wavecom.c ****   ptr = aStr;
 474:src/wavecom.c ****   while ((DWORD)(ptr - aStr) < aLen) {
 475:src/wavecom.c ****     if (*ptr == '\"') {
 476:src/wavecom.c ****       state++;
 477:src/wavecom.c ****       ptr++;
 478:src/wavecom.c ****       continue;
 479:src/wavecom.c ****     }
 480:src/wavecom.c ****     switch (state) {
 481:src/wavecom.c ****       case 1:
 482:src/wavecom.c ****         if (tel_len < MAX_PHNUM_SIZE)
 483:src/wavecom.c ****           aContact->sb_tel[tel_len++] = *ptr;
 484:src/wavecom.c ****         break;
 485:src/wavecom.c ****       case 3:
 486:src/wavecom.c ****         if (name_len < MAX_NAME_SIZE)
 487:src/wavecom.c ****           aContact->sb_name[name_len++] = *ptr;
 488:src/wavecom.c ****         break;
 489:src/wavecom.c ****       default:
 490:src/wavecom.c ****         break;
 491:src/wavecom.c ****     }
 492:src/wavecom.c ****     ptr++;
 493:src/wavecom.c ****   }
 494:src/wavecom.c ****   // no tel. no. found
 495:src/wavecom.c ****   if (!tel_len)
 496:src/wavecom.c ****     return 0;
 497:src/wavecom.c **** 
 498:src/wavecom.c ****   // only tel. no. found
 499:src/wavecom.c ****   if (!name_len)
 500:src/wavecom.c ****     return 1;
 501:src/wavecom.c **** 
 502:src/wavecom.c ****   // tel. no. & name found
 503:src/wavecom.c ****   return 2;
 504:src/wavecom.c **** }
 505:src/wavecom.c **** //*****************************************************************************
 506:src/wavecom.c **** //  Function        : GetContact
 507:src/wavecom.c **** //  Description     : Get 1 record from phone book
 508:src/wavecom.c **** //  Input           : aRec;         // pointer to phone book rec.
 509:src/wavecom.c **** //                    aRecIdx;      // record to read
 510:src/wavecom.c **** //  Return          : TRUE/FALSE;
 511:src/wavecom.c **** //  Note            : N/A
 512:src/wavecom.c **** //  Globals Changed : N/A
 513:src/wavecom.c **** //*****************************************************************************
 514:src/wavecom.c **** BOOLEAN GetContact(struct PHONE_LIST *aRec, DWORD aRecIdx)
 515:src/wavecom.c **** {
 516:src/wavecom.c ****   BYTE *ptr;
 517:src/wavecom.c ****   BYTE buf[16];
 518:src/wavecom.c ****   DWORD rlen;
 519:src/wavecom.c **** 
 520:src/wavecom.c ****   memset(buf, 0, sizeof(buf));
 521:src/wavecom.c ****   sprintf((char *)buf, "AT+CPBR=%d\r\n", aRecIdx);
 522:src/wavecom.c ****   if (!SendWaitRsp(buf, WAIT_RSP))
 523:src/wavecom.c ****     return FALSE;
 524:src/wavecom.c **** 
ARM GAS  C:\Users\AHMED~1.ELE\AppData\Local\Temp\ccAQ67OG.s 			page 18


 525:src/wavecom.c ****   ptr = (BYTE *)strstr((char const *)gAtCmdOut, "+CPBR:");
 526:src/wavecom.c ****   if (ptr == NULL)
 527:src/wavecom.c ****     return FALSE;
 528:src/wavecom.c **** 
 529:src/wavecom.c ****   rlen = strlen(gAtCmdOut) - (ptr - (BYTE *)gAtCmdOut);
 530:src/wavecom.c ****   memset(aRec, 0, sizeof(struct PHONE_LIST));
 531:src/wavecom.c ****   if (GetContactInfo(aRec, ptr, rlen) == 0)
 532:src/wavecom.c ****     return FALSE;
 533:src/wavecom.c **** 
 534:src/wavecom.c ****   aRec->d_idx = aRecIdx;
 535:src/wavecom.c ****   return TRUE;
 536:src/wavecom.c **** }
 537:src/wavecom.c **** //*****************************************************************************
 538:src/wavecom.c **** //  Function        : LoadPhoneBook
 539:src/wavecom.c **** //  Description     : Load selected phone book into internal menory.
 540:src/wavecom.c **** //  Input           : N/A
 541:src/wavecom.c **** //  Return          : N/A
 542:src/wavecom.c **** //  Note            : N/A
 543:src/wavecom.c **** //  Globals Changed : N/A
 544:src/wavecom.c **** //*****************************************************************************
 545:src/wavecom.c **** void LoadPhoneBook(void)
 546:src/wavecom.c **** {
 547:src/wavecom.c ****   DWORD i, rec_idx, max_rec;
 548:src/wavecom.c **** 
 549:src/wavecom.c ****   rec_idx = 0;
 550:src/wavecom.c ****   max_rec = gGSMData.d_total_count > MAX_PHBOOK_REC ? MAX_PHBOOK_REC: gGSMData.d_total_count;
 551:src/wavecom.c ****   for (i=0; i< gGSMData.d_total_count; i++) {
 552:src/wavecom.c ****     if (rec_idx == max_rec)  // full
 553:src/wavecom.c ****       break;
 554:src/wavecom.c ****     if (rec_idx == gGSMData.d_used_count)  // got enough
 555:src/wavecom.c ****       break;
 556:src/wavecom.c ****     if (!GetContact(&gGSMData.s_PHBook[rec_idx], i+1))
 557:src/wavecom.c ****       continue;
 558:src/wavecom.c ****     rec_idx++;
 559:src/wavecom.c ****   }
 560:src/wavecom.c **** }
 561:src/wavecom.c **** //*****************************************************************************
 562:src/wavecom.c **** //  Function        : SortPhoneBook
 563:src/wavecom.c **** //  Description     : Sort the Phone List by name.
 564:src/wavecom.c **** //  Input           : N/A
 565:src/wavecom.c **** //  Return          : N/A
 566:src/wavecom.c **** //  Note            : N/A
 567:src/wavecom.c **** //  Globals Changed : N/A
 568:src/wavecom.c **** //*****************************************************************************
 569:src/wavecom.c **** void SortPhoneBook(void)
 570:src/wavecom.c **** {
 571:src/wavecom.c ****   WORD i, j;
 572:src/wavecom.c ****   WORD len1, len2;
 573:src/wavecom.c **** 
 574:src/wavecom.c ****   if (gGSMData.d_used_count < 2)
 575:src/wavecom.c ****     return;
 576:src/wavecom.c **** 
 577:src/wavecom.c ****   // Sort Record
 578:src/wavecom.c ****   for (i=0; i<gGSMData.d_used_count-1; i++) {
 579:src/wavecom.c ****     for (j=i+1; j<gGSMData.d_used_count; j++) {
 580:src/wavecom.c ****       len1 = strlen(gGSMData.s_PHBook[i].sb_name);
 581:src/wavecom.c ****       len2 = strlen(gGSMData.s_PHBook[j].sb_name);
ARM GAS  C:\Users\AHMED~1.ELE\AppData\Local\Temp\ccAQ67OG.s 			page 19


 582:src/wavecom.c ****       len1 = len1>len2?len2:len1;
 583:src/wavecom.c ****       if (memcmp(gGSMData.s_PHBook[i].sb_name, gGSMData.s_PHBook[j].sb_name, len1)<0)
 584:src/wavecom.c ****         continue;
 585:src/wavecom.c ****       memcpy((BYTE *) &gGSMData.s_CurrPHB,   (BYTE *) &gGSMData.s_PHBook[j], sizeof(struct PHONE_LI
 586:src/wavecom.c ****       memcpy((BYTE *) &gGSMData.s_PHBook[j], (BYTE *) &gGSMData.s_PHBook[i], sizeof(struct PHONE_LI
 587:src/wavecom.c ****       memcpy((BYTE *) &gGSMData.s_PHBook[i], (BYTE *) &gGSMData.s_CurrPHB,   sizeof(struct PHONE_LI
 588:src/wavecom.c ****     }
 589:src/wavecom.c ****   }
 590:src/wavecom.c **** }
 591:src/wavecom.c **** //*****************************************************************************
 592:src/wavecom.c **** //  Function        : SelectPHBook
 593:src/wavecom.c **** //  Description     : Read the Selected Phone book record.
 594:src/wavecom.c **** //  Input           : id;       // Phone BOOK id.
 595:src/wavecom.c **** //  Return          : TRUE/FALSE;
 596:src/wavecom.c **** //  Note            : N/A
 597:src/wavecom.c **** //  Globals Changed : N/A
 598:src/wavecom.c **** //*****************************************************************************
 599:src/wavecom.c **** BOOLEAN SelectPHBook(DWORD aID)
 600:src/wavecom.c **** {
 601:src/wavecom.c ****   if (gGSMData.d_used_count != 0)
 602:src/wavecom.c ****     return TRUE;
 603:src/wavecom.c **** 
 604:src/wavecom.c ****   ClearCmdBuf();
 605:src/wavecom.c ****   sprintf(gAtCmdIn, "AT+CPBS=\"%s\"\r\n", KBookID[aID]);
 606:src/wavecom.c **** 
 607:src/wavecom.c ****   if (!SendWaitRsp(gAtCmdIn, WAIT_OK))
 608:src/wavecom.c ****     return FALSE;
 609:src/wavecom.c **** 
 610:src/wavecom.c ****   if (strstr(gAtCmdOut, "OK")==NULL)
 611:src/wavecom.c ****     return FALSE;
 612:src/wavecom.c **** 
 613:src/wavecom.c ****   if (!GetPHBConfig(&gGSMData.d_max_phone_len, &gGSMData.d_max_name_size))
 614:src/wavecom.c ****     return FALSE;
 615:src/wavecom.c **** 
 616:src/wavecom.c ****   gGSMData.d_max_phone_len = gGSMData.d_max_phone_len > MAX_PHNUM_SIZE ? MAX_PHNUM_SIZE: gGSMData.d
 617:src/wavecom.c ****   gGSMData.d_max_name_size = gGSMData.d_max_name_size > MAX_NAME_SIZE ? MAX_PHNUM_SIZE: gGSMData.d_
 618:src/wavecom.c **** 
 619:src/wavecom.c ****   if (!GetPHBCapcity(&gGSMData.d_used_count, &gGSMData.d_total_count))
 620:src/wavecom.c ****     return FALSE;
 621:src/wavecom.c **** 
 622:src/wavecom.c ****   LoadPhoneBook();
 623:src/wavecom.c ****   SortPhoneBook();
 624:src/wavecom.c **** 
 625:src/wavecom.c ****   return TRUE;
 626:src/wavecom.c **** }
 627:src/wavecom.c **** //*****************************************************************************
 628:src/wavecom.c **** //  Function        : WriteContact
 629:src/wavecom.c **** //  Description     : Add/Update Phone record depend on record index.
 630:src/wavecom.c **** //  Input           : aRec;     // P
 631:src/wavecom.c **** //  Return          : TRUE;    // valid AT response received
 632:src/wavecom.c **** //                    FALSE;   // error in sending/receiving AT response
 633:src/wavecom.c **** //  Note            : N/A
 634:src/wavecom.c **** //  Globals Changed : N/A
 635:src/wavecom.c **** //*****************************************************************************
 636:src/wavecom.c **** BOOLEAN WriteContact(struct PHONE_LIST *aRec, DWORD aCurrRec)
 637:src/wavecom.c **** {
 638:src/wavecom.c ****   if (aRec->d_idx) {
ARM GAS  C:\Users\AHMED~1.ELE\AppData\Local\Temp\ccAQ67OG.s 			page 20


 639:src/wavecom.c ****     sprintf((char *)gAtCmdIn, "AT+CPBW=%d,\"", aRec->d_idx);
 640:src/wavecom.c ****     memcpy((BYTE *)&gGSMData.s_PHBook[aCurrRec], (BYTE *)&gGSMData.s_CurrPHB,
 641:src/wavecom.c ****            sizeof(struct PHONE_LIST));
 642:src/wavecom.c ****   }
 643:src/wavecom.c ****   else {
 644:src/wavecom.c ****     strcpy(gAtCmdIn, "AT+CPBW=,\"");
 645:src/wavecom.c ****     memcpy((BYTE *)&gGSMData.s_PHBook[aCurrRec], (BYTE *)&gGSMData.s_CurrPHB,
 646:src/wavecom.c ****            sizeof(struct PHONE_LIST));
 647:src/wavecom.c ****   }
 648:src/wavecom.c **** 
 649:src/wavecom.c ****   strcat(gAtCmdIn, aRec->sb_tel);
 650:src/wavecom.c ****   strcat(gAtCmdIn, "\",129,\"");
 651:src/wavecom.c ****   strcat(gAtCmdIn, aRec->sb_name);
 652:src/wavecom.c ****   strcat(gAtCmdIn, "\"\r\n");
 653:src/wavecom.c **** 
 654:src/wavecom.c ****   if (!SendWaitRsp(gAtCmdIn, WAIT_OK))
 655:src/wavecom.c ****     return FALSE;
 656:src/wavecom.c **** 
 657:src/wavecom.c ****   if (aRec->d_idx==0) {
 658:src/wavecom.c ****     gGSMData.d_used_count++;
 659:src/wavecom.c ****     gGSMData.d_total_count++;
 660:src/wavecom.c ****     LoadPhoneBook();
 661:src/wavecom.c ****   }
 662:src/wavecom.c ****   SortPhoneBook();
 663:src/wavecom.c ****   return TRUE;
 664:src/wavecom.c **** }
 665:src/wavecom.c **** //*****************************************************************************
 666:src/wavecom.c **** //  Function        : DelContact
 667:src/wavecom.c **** //  Description     : Delete Phone book entry.
 668:src/wavecom.c **** //  Input           : aRecIdx;      // Phone book record index
 669:src/wavecom.c **** //  Return          : TRUE;    // valid AT response received
 670:src/wavecom.c **** //                    FALSE;   // error in sending/receiving AT response
 671:src/wavecom.c **** //  Note            : N/A
 672:src/wavecom.c **** //  Globals Changed : N/A
 673:src/wavecom.c **** //*****************************************************************************
 674:src/wavecom.c **** BOOLEAN DelContact(DWORD aRecIdx, DWORD aCurrRec)
 675:src/wavecom.c **** {
 676:src/wavecom.c ****   DWORD i;
 677:src/wavecom.c ****   sprintf((char *)gAtCmdIn, "AT+CPBW=%d\r\n", aRecIdx);
 678:src/wavecom.c ****   if (!SendWaitRsp(gAtCmdIn, WAIT_OK))
 679:src/wavecom.c ****     return FALSE;
 680:src/wavecom.c **** 
 681:src/wavecom.c ****   // move record
 682:src/wavecom.c ****   for (i=aCurrRec; i<gGSMData.d_used_count; i++) {
 683:src/wavecom.c ****     memcpy((BYTE *)&gGSMData.s_PHBook[i], (BYTE *)&gGSMData.s_PHBook[i+1],
 684:src/wavecom.c ****            sizeof(struct PHONE_LIST));
 685:src/wavecom.c ****   }
 686:src/wavecom.c ****   gGSMData.d_used_count--;
 687:src/wavecom.c ****   gGSMData.d_total_count--;
 688:src/wavecom.c ****   SortPhoneBook();
 689:src/wavecom.c ****   return TRUE;
 690:src/wavecom.c **** }
 691:src/wavecom.c **** //*****************************************************************************
 692:src/wavecom.c **** //  Function        : AllCallForward
 693:src/wavecom.c **** //  Description     : Set/Cancel All Call Forward.
 694:src/wavecom.c **** //  Input           : pTel;     // pointer to forward phone num.
 695:src/wavecom.c **** //                    cancel;   // TRUE => cancel all call forward.
ARM GAS  C:\Users\AHMED~1.ELE\AppData\Local\Temp\ccAQ67OG.s 			page 21


 696:src/wavecom.c **** //  Return          : None;
 697:src/wavecom.c **** //  Note            : N/A
 698:src/wavecom.c **** //  Globals Changed : N/A
 699:src/wavecom.c **** //*****************************************************************************
 700:src/wavecom.c **** BOOLEAN AllCallForward(char *pTel, BOOLEAN cancel)
 701:src/wavecom.c **** {
 702:src/wavecom.c ****   ClearCmdBuf();
 703:src/wavecom.c ****   if (cancel)
 704:src/wavecom.c ****     strcpy(gAtCmdIn, "AT+CCFC=0,4\r\n");
 705:src/wavecom.c ****   else   // divert to a telephone number
 706:src/wavecom.c **** #if (TIRO)      
 707:src/wavecom.c ****     sprintf(gAtCmdIn, "AT+CCFC=0,3,\"%s\",129\r\n", pTel);
 708:src/wavecom.c **** #else  
 709:src/wavecom.c ****     sprintf(gAtCmdIn, "AT+CCFC=0,3,\"%s\"\r\n", pTel);
 710:src/wavecom.c **** #endif    
 711:src/wavecom.c ****   if (!SendWaitRsp(gAtCmdIn, WAIT_OK))
 712:src/wavecom.c ****     return FALSE;
 713:src/wavecom.c **** 
 714:src/wavecom.c ****   if (strstr(gAtCmdOut, "OK"))
 715:src/wavecom.c ****     return TRUE;
 716:src/wavecom.c ****   return FALSE;
 717:src/wavecom.c **** }
 718:src/wavecom.c **** //*****************************************************************************
 719:src/wavecom.c **** //  Function        : MakeCall
 720:src/wavecom.c **** //  Description     : Make a voice Call.
 721:src/wavecom.c **** //  Input           : pPhoneNum;        // Phone num string.
 722:src/wavecom.c **** //  Return          : TRUE/FALSE;
 723:src/wavecom.c **** //  Note            : N/A
 724:src/wavecom.c **** //  Globals Changed : N/A
 725:src/wavecom.c **** //*****************************************************************************
 726:src/wavecom.c **** BOOLEAN MakeCall(char *pPhoneNum)
 727:src/wavecom.c **** {
 728:src/wavecom.c ****   strcpy(gAtCmdIn, "ATD");
 729:src/wavecom.c ****   strcat(gAtCmdIn, pPhoneNum);
 730:src/wavecom.c ****   strcat(gAtCmdIn, ";\r\n");
 731:src/wavecom.c **** 
 732:src/wavecom.c ****   ClearCmdBuf();
 733:src/wavecom.c **** #if (TIRO)  
 734:src/wavecom.c ****   if (SendWaitRsp(gAtCmdIn, WAIT_OK))
 735:src/wavecom.c **** #else      
 736:src/wavecom.c ****   if (SendWaitRsp(gAtCmdIn, NO_WAIT))
 737:src/wavecom.c **** #endif      
 738:src/wavecom.c ****     return TRUE;
 739:src/wavecom.c **** 
 740:src/wavecom.c ****   return FALSE;
 741:src/wavecom.c **** }
 742:src/wavecom.c **** //*****************************************************************************
 743:src/wavecom.c **** //  Function        : MakeReqCall
 744:src/wavecom.c **** //  Description     : Make a Request Call
 745:src/wavecom.c **** //  Input           : pPhoneNum;        // Phone num string.
 746:src/wavecom.c **** //  Return          : TRUE/FALSE;
 747:src/wavecom.c **** //  Note            : N/A
 748:src/wavecom.c **** //  Globals Changed : N/A
 749:src/wavecom.c **** //*****************************************************************************
 750:src/wavecom.c **** BOOLEAN MakeReqCall(char *pPhoneNum)
 751:src/wavecom.c **** {
 752:src/wavecom.c ****   strcpy(gAtCmdIn, "ATD");
ARM GAS  C:\Users\AHMED~1.ELE\AppData\Local\Temp\ccAQ67OG.s 			page 22


 753:src/wavecom.c ****   strcat(gAtCmdIn, pPhoneNum);
 754:src/wavecom.c ****   strcat(gAtCmdIn, "\r\n");
 755:src/wavecom.c **** 
 756:src/wavecom.c ****   if (SendWaitRsp(gAtCmdIn, WAIT_OK)) {
 757:src/wavecom.c ****     if (strstr(gAtCmdOut, "OK"))
 758:src/wavecom.c ****       return TRUE;
 759:src/wavecom.c ****   }
 760:src/wavecom.c **** 
 761:src/wavecom.c ****   return FALSE;
 762:src/wavecom.c **** }
 763:src/wavecom.c **** //*****************************************************************************
 764:src/wavecom.c **** //  Function        : CheckCallStatus
 765:src/wavecom.c **** //  Description     : Check Call Status
 766:src/wavecom.c **** //  Input           : N/A
 767:src/wavecom.c **** //  Return          : status;
 768:src/wavecom.c **** //  Note            : N/A
 769:src/wavecom.c **** //  Globals Changed : N/A
 770:src/wavecom.c **** //*****************************************************************************
 771:src/wavecom.c **** DWORD CheckCallStatus(void)
 772:src/wavecom.c **** {
 773:src/wavecom.c **** #if (T800)
 774:src/wavecom.c ****   if (!WaitRsp(WAIT_RSP))
 775:src/wavecom.c ****     return NOT_READY;
 776:src/wavecom.c **** 
 777:src/wavecom.c ****   if (strstr((char const *)gAtCmdOut, "NO CARRIER") != NULL) {
 778:src/wavecom.c ****     return NO_CARRIER;
 779:src/wavecom.c ****   }
 780:src/wavecom.c ****   else
 781:src/wavecom.c ****     if (strstr((char const *)gAtCmdOut, "NO ANSWER") != NULL) {
 782:src/wavecom.c ****       return NO_ANSWER;
 783:src/wavecom.c ****     }
 784:src/wavecom.c ****     else
 785:src/wavecom.c ****       if (strstr((char const *)gAtCmdOut, "BUSY") != NULL) {
 786:src/wavecom.c ****         return BUSY;
 787:src/wavecom.c ****       }
 788:src/wavecom.c ****       else
 789:src/wavecom.c ****         if (strstr((char const *)gAtCmdOut, "OK") != NULL) {
 790:src/wavecom.c ****           return CONNECTED;
 791:src/wavecom.c ****         }
 792:src/wavecom.c **** 
 793:src/wavecom.c ****   return NOT_READY;
 794:src/wavecom.c **** #endif
 795:src/wavecom.c **** #if (T300|T810|A5T1000|T1000|TIRO)  
 796:src/wavecom.c ****   DWORD state, status;
 797:src/wavecom.c ****   BYTE  tmpbuf[MW_MAX_LINESIZE+1];
 798:src/wavecom.c **** 
 799:src/wavecom.c ****   status = StatMW(gGprsHandle, -1, NULL);
 800:src/wavecom.c ****   sprintf(tmpbuf, "Status:%04X", status);
 801:src/wavecom.c ****   DispLineMW(tmpbuf, MW_MAX_LINE, MW_CENTER|MW_SPFONT);
 802:src/wavecom.c ****   switch (status & 0x3F) {
 803:src/wavecom.c ****     case 4:
 804:src/wavecom.c ****       state = CONNECTING;
 805:src/wavecom.c ****       break;
 806:src/wavecom.c ****     case 5:
 807:src/wavecom.c ****       state = CONNECTED;
 808:src/wavecom.c ****       break;
 809:src/wavecom.c ****     case 20:        // Disconnect network
ARM GAS  C:\Users\AHMED~1.ELE\AppData\Local\Temp\ccAQ67OG.s 			page 23


 810:src/wavecom.c ****     case 21:        // Disconnect user
 811:src/wavecom.c ****     case 22:        // Reject user
 812:src/wavecom.c ****       state = NO_CARRIER;
 813:src/wavecom.c ****       break;
 814:src/wavecom.c ****     case 0:
 815:src/wavecom.c ****     default:
 816:src/wavecom.c ****       state = NOT_READY;
 817:src/wavecom.c ****       break;
 818:src/wavecom.c ****   }
 819:src/wavecom.c ****   return state;
 820:src/wavecom.c **** #endif  
 821:src/wavecom.c **** }
 822:src/wavecom.c **** //*****************************************************************************
 823:src/wavecom.c **** //  Function        : AnswerCall
 824:src/wavecom.c **** //  Description     : Answer Call.
 825:src/wavecom.c **** //  Input           : N/A
 826:src/wavecom.c **** //  Return          : N/A
 827:src/wavecom.c **** //  Note            : N/A
 828:src/wavecom.c **** //  Globals Changed : N/A
 829:src/wavecom.c **** //*****************************************************************************
 830:src/wavecom.c **** BOOLEAN AnswerCall(void)
 831:src/wavecom.c **** {
 832:src/wavecom.c ****   strcpy(gAtCmdIn, "ATA\r\n");
 833:src/wavecom.c ****   ClearCmdBuf();
 834:src/wavecom.c ****   if (SendWaitRsp(gAtCmdIn, WAIT_OK))
 835:src/wavecom.c ****     return TRUE;
 836:src/wavecom.c ****   return FALSE;
 837:src/wavecom.c **** }
 838:src/wavecom.c **** //*****************************************************************************
 839:src/wavecom.c **** //  Function        : SendKeyPress
 840:src/wavecom.c **** //  Description     : Send Key Press data.
 841:src/wavecom.c **** //  Input           : N/A
 842:src/wavecom.c **** //  Return          : N/A
 843:src/wavecom.c **** //  Note            : N/A
 844:src/wavecom.c **** //  Globals Changed : N/A
 845:src/wavecom.c **** //*****************************************************************************
 846:src/wavecom.c **** BOOLEAN SendKeyPress(char aChar)
 847:src/wavecom.c **** {
 848:src/wavecom.c **** #if (TIRO)
 849:src/wavecom.c ****   sprintf(gAtCmdIn, "AT+VTS=\"%c\"\r\n", aChar);
 850:src/wavecom.c **** #endif
 851:src/wavecom.c **** #if (T800)  
 852:src/wavecom.c ****   sprintf(gAtCmdIn, "AT+VTS=%c\r\n", aChar);
 853:src/wavecom.c **** #endif  
 854:src/wavecom.c ****   ClearCmdBuf();
 855:src/wavecom.c ****   if (SendWaitRsp(gAtCmdIn, WAIT_OK))
 856:src/wavecom.c ****     return TRUE;
 857:src/wavecom.c ****   return FALSE;
 858:src/wavecom.c **** }
 859:src/wavecom.c **** //*****************************************************************************
 860:src/wavecom.c **** //  Function        : HangUp
 861:src/wavecom.c **** //  Description     : Disconnect Calls.
 862:src/wavecom.c **** //  Input           : N/A
 863:src/wavecom.c **** //  Return          : TRUE/FALSE;
 864:src/wavecom.c **** //  Note            : N/A
 865:src/wavecom.c **** //  Globals Changed : N/A
 866:src/wavecom.c **** //*****************************************************************************
ARM GAS  C:\Users\AHMED~1.ELE\AppData\Local\Temp\ccAQ67OG.s 			page 24


 867:src/wavecom.c **** BOOLEAN HangUp(void)
 868:src/wavecom.c **** {
 869:src/wavecom.c ****   strcpy(gAtCmdIn, "ATH\r\n");
 870:src/wavecom.c ****   ClearCmdBuf();
 871:src/wavecom.c ****   if (SendWaitRsp(gAtCmdIn, WAIT_OK))
 872:src/wavecom.c ****     return TRUE;
 873:src/wavecom.c ****   return FALSE;
 874:src/wavecom.c **** }
 875:src/wavecom.c **** //*****************************************************************************
 876:src/wavecom.c **** //  Function        : CheckCallEnd
 877:src/wavecom.c **** //  Description     : Check call disconnected remotely.
 878:src/wavecom.c **** //  Input           : N/A
 879:src/wavecom.c **** //  Return          : TRUE/FALSE;
 880:src/wavecom.c **** //  Note            : N/A
 881:src/wavecom.c **** //  Globals Changed : N/A
 882:src/wavecom.c **** //*****************************************************************************
 883:src/wavecom.c **** BOOLEAN CheckCallEnd(void)
 884:src/wavecom.c **** {
 885:src/wavecom.c ****   struct GPRSATRESP  at_resp;
 886:src/wavecom.c ****   BYTE *ptr;
 887:src/wavecom.c **** 
 888:src/wavecom.c ****   if (!(StatMW(gGprsHandle, MW_GSTS_ATRESPRDY, NULL)&MW_GSTS_ATRESPRDY)) 
 889:src/wavecom.c ****     return FALSE;
 890:src/wavecom.c **** 
 891:src/wavecom.c ****   at_resp.d_maxlen = sizeof(at_resp.sb_content);
 892:src/wavecom.c ****   if (IOCtlMW(gGprsHandle, IO_GPRS_CMDRESP, &at_resp)) {
 893:src/wavecom.c ****     ptr = (BYTE *)strstr((char const *)at_resp.sb_content, "NO CARRIER");
 894:src/wavecom.c ****     if (ptr == NULL)
 895:src/wavecom.c ****       return FALSE;
 896:src/wavecom.c ****     return TRUE;
 897:src/wavecom.c ****   }
 898:src/wavecom.c ****   return FALSE;
 899:src/wavecom.c **** }
 900:src/wavecom.c **** //*****************************************************************************
 901:src/wavecom.c **** //  Function        : GetCallerID
 902:src/wavecom.c **** //  Description     : Get callerl ID from the module
 903:src/wavecom.c **** //  Input           : None;
 904:src/wavecom.c **** //  Return          : TRUE;    // valid access code entered
 905:src/wavecom.c **** //                    FALSE;   // user cancel or invalid access code.
 906:src/wavecom.c **** //  Note            : N/A
 907:src/wavecom.c **** //  Globals Changed : N/A
 908:src/wavecom.c **** //*****************************************************************************
 909:src/wavecom.c **** BOOLEAN GetCallerID(void)
 910:src/wavecom.c **** {
 911:src/wavecom.c **** #if (T800)
 912:src/wavecom.c ****   BYTE *ptr;
 913:src/wavecom.c **** 
 914:src/wavecom.c ****   if (!WaitRsp(WAIT_RSP))
 915:src/wavecom.c ****     return FALSE;
 916:src/wavecom.c **** 
 917:src/wavecom.c ****   // search for << +CLIP: "tel_num",129,1,,"caller_name" >> for GSM
 918:src/wavecom.c ****   // search for << +CLIP:"tel_num",129" >> for CDMA
 919:src/wavecom.c ****   ptr = (BYTE *)strstr((char const *)gAtCmdOut, "+CLIP:");
 920:src/wavecom.c ****   if (ptr == NULL)
 921:src/wavecom.c ****     return FALSE;
 922:src/wavecom.c **** 
 923:src/wavecom.c ****   memset(&gGSMData.s_CurrPHB, 0, sizeof(struct PHONE_LIST));
ARM GAS  C:\Users\AHMED~1.ELE\AppData\Local\Temp\ccAQ67OG.s 			page 25


 924:src/wavecom.c ****   return GetContactInfo(&gGSMData.s_CurrPHB, (BYTE *)gAtCmdOut, strlen(gAtCmdOut));
 925:src/wavecom.c **** #endif  
 926:src/wavecom.c **** #if (T300|T810|A5T1000|T1000|TIRO)   
 927:src/wavecom.c ****   struct GPRSATRESP  at_resp;
 928:src/wavecom.c **** 
 929:src/wavecom.c ****   if (StatMW(gGprsHandle, MW_GSTS_CID, NULL)==0)
 930:src/wavecom.c ****     return FALSE;
 931:src/wavecom.c ****   memset(&gGSMData.s_CurrPHB, 0, sizeof(struct PHONE_LIST));
 932:src/wavecom.c ****   at_resp.d_maxlen = sizeof(gGSMData.s_CurrPHB.sb_name);
 933:src/wavecom.c ****   at_resp.d_maxlen = IOCtlMW(gGprsHandle, IO_GPRS_GET_CID, &at_resp);
 934:src/wavecom.c ****   memcpy(gGSMData.s_CurrPHB.sb_name, at_resp.sb_content, at_resp.d_maxlen);
 935:src/wavecom.c **** 
 936:src/wavecom.c ****   return TRUE;
 937:src/wavecom.c **** #endif  
 938:src/wavecom.c **** }
 939:src/wavecom.c **** //*****************************************************************************
 940:src/wavecom.c **** //  Function        : ReadGain
 941:src/wavecom.c **** //  Description     : Read GAIN
 942:src/wavecom.c **** //  Input           : None;
 943:src/wavecom.c **** //  Return          : TRUE;    // valid AT response received
 944:src/wavecom.c **** //                    FALSE;   // error in sending/receiving AT response
 945:src/wavecom.c **** //  Note            : N/A
 946:src/wavecom.c **** //  Globals Changed : N/A
 947:src/wavecom.c **** //*****************************************************************************
 948:src/wavecom.c **** DWORD ReadGain(DWORD aType)
 949:src/wavecom.c **** {
 950:src/wavecom.c ****   BYTE cmd[16];
 951:src/wavecom.c **** #if (T800|TIRO)
 952:src/wavecom.c ****   DWORD val=0;
 953:src/wavecom.c **** #endif
 954:src/wavecom.c ****   BYTE idx=8;
 955:src/wavecom.c **** 
 956:src/wavecom.c ****   sprintf((char *)cmd, "AT+VG%c?\r\n", aType);
 957:src/wavecom.c **** 
 958:src/wavecom.c ****   if (!SendWaitRsp(cmd, WAIT_OK))
 959:src/wavecom.c ****     return FALSE;
 960:src/wavecom.c ****   cmd[0] = '\r';
 961:src/wavecom.c ****   cmd[1] = '\n';
 962:src/wavecom.c ****   cmd[6] = ':';
 963:src/wavecom.c ****   cmd[7] = ' ';
 964:src/wavecom.c ****   if (memcmp(gAtCmdOut, cmd, idx) == 0) {
 965:src/wavecom.c **** #if (T800|TIRO)
 966:src/wavecom.c ****     val = Asc2DWVAL((BYTE *)&gAtCmdOut[8], 3);
 967:src/wavecom.c **** #endif
 968:src/wavecom.c **** #if (T800)
 969:src/wavecom.c ****     if (gAtCmdOut[5] == SPK)
 970:src/wavecom.c ****       return 8 - val / 32;      // speaker gain scale 1 - 8
 971:src/wavecom.c ****     else
 972:src/wavecom.c ****       return val / 32 + 1;      // mic gain scale 1 - 8
 973:src/wavecom.c **** #endif
 974:src/wavecom.c **** #if (TIRO)
 975:src/wavecom.c ****     val = gAtCmdOut[8]-'0';
 976:src/wavecom.c **** 	return val;
 977:src/wavecom.c **** #endif
 978:src/wavecom.c ****   }
 979:src/wavecom.c ****   return 0;
 980:src/wavecom.c **** }
ARM GAS  C:\Users\AHMED~1.ELE\AppData\Local\Temp\ccAQ67OG.s 			page 26


 981:src/wavecom.c **** //*****************************************************************************
 982:src/wavecom.c **** //  Function        : WriteGain
 983:src/wavecom.c **** //  Description     : display AT command response if in debug mode
 984:src/wavecom.c **** //  Input           : None;
 985:src/wavecom.c **** //  Return          : TRUE;    // valid AT response received
 986:src/wavecom.c **** //                    FALSE;   // error in sending/receiving AT response
 987:src/wavecom.c **** //  Note            : N/A
 988:src/wavecom.c **** //  Globals Changed : N/A
 989:src/wavecom.c **** //*****************************************************************************
 990:src/wavecom.c **** BOOLEAN WriteGain(DWORD aType, DWORD aVal)
 991:src/wavecom.c **** {
 992:src/wavecom.c ****   BYTE *ptr;
 993:src/wavecom.c **** 
 994:src/wavecom.c **** #if (T800)
 995:src/wavecom.c ****   if (aType == SPK)
 996:src/wavecom.c ****     aVal = (8 - aVal) * 32;       // scale from 1 - 8
 997:src/wavecom.c ****   else
 998:src/wavecom.c ****     aVal = (aVal - 1) * 32;
 999:src/wavecom.c **** #endif
1000:src/wavecom.c **** 
1001:src/wavecom.c ****   sprintf((char *)gAtCmdIn, "AT+VG%c=%d\r\n", aType, aVal);
1002:src/wavecom.c ****   ClearCmdBuf();
1003:src/wavecom.c ****   if (!SendWaitRsp(gAtCmdIn, WAIT_OK))
1004:src/wavecom.c ****     return FALSE;
1005:src/wavecom.c **** 
1006:src/wavecom.c ****   ptr = (BYTE *)strstr((char const *)gAtCmdOut, "OK");
1007:src/wavecom.c ****   if (ptr != NULL) {
1008:src/wavecom.c ****     return TRUE;
1009:src/wavecom.c ****   }
1010:src/wavecom.c **** 
1011:src/wavecom.c ****   return FALSE;
1012:src/wavecom.c **** }
1013:src/wavecom.c **** //*****************************************************************************
1014:src/wavecom.c **** //  Function        : GetOptrName
1015:src/wavecom.c **** //  Description     : Get the short form operator name
1016:src/wavecom.c **** //  Input           : aName;        // Pointer to name buffer
1017:src/wavecom.c **** //                    aMaxLen;      // Max Output size
1018:src/wavecom.c **** //  Return          : None;
1019:src/wavecom.c **** //  Note            : N/A
1020:src/wavecom.c **** //  Globals Changed : N/A
1021:src/wavecom.c **** //*****************************************************************************
1022:src/wavecom.c **** BOOLEAN GetOptrName(char *aName, DWORD aMaxLen)
1023:src/wavecom.c **** {
1024:src/wavecom.c ****   char *ptr;
1025:src/wavecom.c ****   DWORD len;
1026:src/wavecom.c **** 
1027:src/wavecom.c ****   // GSM
1028:src/wavecom.c ****   *aName = 0x00;
1029:src/wavecom.c ****   //ClearCmdBuf();
1030:src/wavecom.c ****   //if (!SendWaitRsp("AT+COPS=3,0\r\n", WAIT_OK)) // long alpha format
1031:src/wavecom.c ****   //  return FALSE;
1032:src/wavecom.c **** 
1033:src/wavecom.c ****   ClearCmdBuf();
1034:src/wavecom.c ****   if (!SendWaitRsp("AT+COPS?\r\n", WAIT_OK))
1035:src/wavecom.c ****     return FALSE;
1036:src/wavecom.c **** 
1037:src/wavecom.c ****   ptr = strstr((char const *)gAtCmdOut, "+COPS:");
ARM GAS  C:\Users\AHMED~1.ELE\AppData\Local\Temp\ccAQ67OG.s 			page 27


1038:src/wavecom.c ****   if (ptr == NULL)
1039:src/wavecom.c ****     return FALSE;
1040:src/wavecom.c ****   ptr = strstr((char const *)gAtCmdOut, "\"");
1041:src/wavecom.c ****   if (ptr == NULL)
1042:src/wavecom.c ****     return FALSE;
1043:src/wavecom.c ****   ptr++;
1044:src/wavecom.c ****   while (*ptr!='"'&& aMaxLen--) {
1045:src/wavecom.c ****     *aName++ = *ptr++;
1046:src/wavecom.c ****   }
1047:src/wavecom.c ****   *aName = 0x00;
1048:src/wavecom.c **** 
1049:src/wavecom.c ****   //Skip trailing blank
1050:src/wavecom.c ****   len = strlen(aName);
1051:src/wavecom.c ****   while (aName[len-1] == ' ') {
1052:src/wavecom.c ****     aName[len-1] = 0x00;
1053:src/wavecom.c ****     len--;
1054:src/wavecom.c ****   }
1055:src/wavecom.c **** 
1056:src/wavecom.c ****   return TRUE;
1057:src/wavecom.c **** }
1058:src/wavecom.c **** //*****************************************************************************
1059:src/wavecom.c **** //  Function        : FacilityEnable
1060:src/wavecom.c **** //  Description     : Enable/Disable PIN
1061:src/wavecom.c **** //  Input           : aEnable;              // TRUE => Enable PIN
1062:src/wavecom.c **** //                    aPin;                 // Current PIN value
1063:src/wavecom.c **** //  Return          : 0: Fail
1064:src/wavecom.c **** //                    1: Success
1065:src/wavecom.c **** //                    2: Sim Busy
1066:src/wavecom.c **** //  Note            : N/A
1067:src/wavecom.c **** //  Globals Changed : N/A
1068:src/wavecom.c **** //*****************************************************************************
1069:src/wavecom.c **** DWORD FacilityEnable(BOOLEAN aEnable, char *aPin)
1070:src/wavecom.c **** {
1071:src/wavecom.c ****   DWORD ret;
1072:src/wavecom.c **** 
1073:src/wavecom.c ****   ret = 0;
1074:src/wavecom.c ****   ClearCmdBuf();
1075:src/wavecom.c ****   SendWaitRsp("AT+CMEE=1", WAIT_OK);
1076:src/wavecom.c ****   ClearCmdBuf();
1077:src/wavecom.c **** 
1078:src/wavecom.c ****   if (aEnable)
1079:src/wavecom.c ****     sprintf(gAtCmdIn, "AT+CLCK=\"%s\",%s,%s\r\a", "SC", "1", aPin);
1080:src/wavecom.c ****   else
1081:src/wavecom.c ****     sprintf(gAtCmdIn, "AT+CLCK=\"%s\",%s,%s\r\a", "SC", "0", aPin);
1082:src/wavecom.c **** 
1083:src/wavecom.c ****   ClearCmdBuf();
1084:src/wavecom.c ****   if (SendWaitRsp(gAtCmdIn, WAIT_OK)) {
1085:src/wavecom.c ****     if (strstr(gAtCmdOut, "OK"))
1086:src/wavecom.c ****       ret = 1;
1087:src/wavecom.c ****     else
1088:src/wavecom.c ****       if (strstr(gAtCmdOut, "515"))
1089:src/wavecom.c ****         ret = 2;
1090:src/wavecom.c ****   }
1091:src/wavecom.c ****   ClearCmdBuf();
1092:src/wavecom.c ****   SendWaitRsp("AT+CMEE=0", WAIT_OK);
1093:src/wavecom.c ****   ClearCmdBuf();
1094:src/wavecom.c ****   return ret;
ARM GAS  C:\Users\AHMED~1.ELE\AppData\Local\Temp\ccAQ67OG.s 			page 28


1095:src/wavecom.c **** }
1096:src/wavecom.c **** //*****************************************************************************
1097:src/wavecom.c **** //  Function        : CheckPinState
1098:src/wavecom.c **** //  Description     : Check Pin Requirement.
1099:src/wavecom.c **** //  Input           : N/A
1100:src/wavecom.c **** //  Return          : status;
1101:src/wavecom.c **** //  Note            : N/A
1102:src/wavecom.c **** //  Globals Changed : N/A
1103:src/wavecom.c **** //*****************************************************************************
1104:src/wavecom.c **** DWORD CheckPinState(void)
1105:src/wavecom.c **** {
1106:src/wavecom.c ****   DWORD req_pin;
1107:src/wavecom.c ****   req_pin = PIN_ERROR;
1108:src/wavecom.c ****   ClearCmdBuf();
1109:src/wavecom.c ****   if (SendWaitRsp("AT+CPIN?\r", WAIT_RSP)) {
1110:src/wavecom.c ****     if (strstr(gAtCmdOut, "READY"))
1111:src/wavecom.c ****       req_pin = REQ_READY;
1112:src/wavecom.c ****     else if (strstr(gAtCmdOut, "PUK2"))
1113:src/wavecom.c ****       req_pin = REQ_PUK2;
1114:src/wavecom.c ****     else if (strstr(gAtCmdOut, "PUK"))
1115:src/wavecom.c ****       req_pin = REQ_PUK1;
1116:src/wavecom.c ****     else if (strstr(gAtCmdOut, "PIN2"))
1117:src/wavecom.c ****       req_pin = REQ_PIN2;
1118:src/wavecom.c ****     else if (strstr(gAtCmdOut, "PIN"))
1119:src/wavecom.c ****       req_pin = REQ_PIN1;
1120:src/wavecom.c ****   }
1121:src/wavecom.c ****   ClearCmdBuf();
1122:src/wavecom.c ****   return req_pin;
1123:src/wavecom.c **** }
1124:src/wavecom.c **** //*****************************************************************************
1125:src/wavecom.c **** //  Function        : EnterPin
1126:src/wavecom.c **** //  Description     : Enter PIN
1127:src/wavecom.c **** //  Input           : aId;              // Pin Input Option;
1128:src/wavecom.c **** //                    aPin;             // Pointer to Pin Data string;
1129:src/wavecom.c **** //  Return          : TRUE/FALSE;
1130:src/wavecom.c **** //  Note            : N/A
1131:src/wavecom.c **** //  Globals Changed : N/A
1132:src/wavecom.c **** //*****************************************************************************
1133:src/wavecom.c **** BOOLEAN EnterPin(DWORD aId, char *aPin)
1134:src/wavecom.c **** {
1135:src/wavecom.c ****   BOOLEAN ret;
1136:src/wavecom.c **** 
1137:src/wavecom.c ****   ret = FALSE;
1138:src/wavecom.c ****   if (aId == REQ_PIN1)
1139:src/wavecom.c ****     sprintf(gAtCmdIn, "AT+CPIN=\"%s\"\r\n", aPin);
1140:src/wavecom.c ****   else
1141:src/wavecom.c ****     sprintf(gAtCmdIn, "AT+CPIN2=\"%s\"\r\n", aPin);
1142:src/wavecom.c **** 
1143:src/wavecom.c ****   if (SendWaitRsp(gAtCmdIn, WAIT_RSP)) {
1144:src/wavecom.c ****     if (strstr(gAtCmdOut, "OK"))
1145:src/wavecom.c ****       ret = TRUE;
1146:src/wavecom.c ****   }
1147:src/wavecom.c ****   ClearCmdBuf();
1148:src/wavecom.c ****   return ret;
1149:src/wavecom.c **** }
1150:src/wavecom.c **** //*****************************************************************************
1151:src/wavecom.c **** //  Function        : ChangePin
ARM GAS  C:\Users\AHMED~1.ELE\AppData\Local\Temp\ccAQ67OG.s 			page 29


1152:src/wavecom.c **** //  Description     : Change PIN value.
1153:src/wavecom.c **** //  Input           : aId;              // PIN/PIN2
1154:src/wavecom.c **** //                    aOldPin;          // Pointer to Org. Pin Data string;
1155:src/wavecom.c **** //                    aNewPin;          // Pointer to New Pin Data string;
1156:src/wavecom.c **** //  Return          : 0: Fail
1157:src/wavecom.c **** //                    1: Success
1158:src/wavecom.c **** //                    2: Sim Busy
1159:src/wavecom.c **** //  Note            : N/A
1160:src/wavecom.c **** //  Globals Changed : N/A
1161:src/wavecom.c **** //*****************************************************************************
1162:src/wavecom.c **** DWORD ChangePin(DWORD aId, char *aOldPin, char *aNewPin)
1163:src/wavecom.c **** {
1164:src/wavecom.c ****   DWORD ret;
1165:src/wavecom.c **** 
1166:src/wavecom.c ****   ret = 0;
1167:src/wavecom.c ****   ClearCmdBuf();
1168:src/wavecom.c ****   SendWaitRsp("AT+CMEE=1", WAIT_OK);
1169:src/wavecom.c ****   ClearCmdBuf();
1170:src/wavecom.c **** 
1171:src/wavecom.c ****   if (aId == REQ_PIN1)
1172:src/wavecom.c ****     sprintf(gAtCmdIn, "AT+CPWD=\"%s\",%s,%s\r", "SC", aOldPin, aNewPin);
1173:src/wavecom.c ****   else
1174:src/wavecom.c ****     sprintf(gAtCmdIn, "AT+CPWD=\"%s\",%s,%s\r", "P2", aOldPin, aNewPin);
1175:src/wavecom.c **** 
1176:src/wavecom.c ****   if (SendWaitRsp(gAtCmdIn, WAIT_OK)) {
1177:src/wavecom.c ****     if (strstr(gAtCmdOut, "OK"))
1178:src/wavecom.c ****       ret = 1;
1179:src/wavecom.c ****     else
1180:src/wavecom.c ****       if (strstr(gAtCmdOut, "515"))
1181:src/wavecom.c ****         ret = 2;
1182:src/wavecom.c ****   }
1183:src/wavecom.c ****   ClearCmdBuf();
1184:src/wavecom.c ****   SendWaitRsp("AT+CMEE=0", WAIT_OK);
1185:src/wavecom.c ****   ClearCmdBuf();
1186:src/wavecom.c ****   return ret;
1187:src/wavecom.c **** }
1188:src/wavecom.c **** //*****************************************************************************
1189:src/wavecom.c **** //  Function        : SetNewMsgInd
1190:src/wavecom.c **** //  Description     : Enable/Disable SMS new message indicator.
1191:src/wavecom.c **** //  Input           : aEnable;      // TRUE/FALSE
1192:src/wavecom.c **** //  Return          : None;
1193:src/wavecom.c **** //  Note            : N/A
1194:src/wavecom.c **** //  Globals Changed : N/A
1195:src/wavecom.c **** //*****************************************************************************
1196:src/wavecom.c **** BOOLEAN SetNewMsgInd(BOOLEAN aEnable)
1197:src/wavecom.c **** {
1198:src/wavecom.c ****   if (aEnable) {
1199:src/wavecom.c ****     if (!SendWaitRsp("AT+CNMI=0,1,1,1,0\r\n", WAIT_OK))
1200:src/wavecom.c ****       return FALSE;
1201:src/wavecom.c ****   }
1202:src/wavecom.c ****   else
1203:src/wavecom.c ****     if (!SendWaitRsp("AT+CNMI=0,0,0,0,0\r\n", WAIT_OK))
1204:src/wavecom.c ****       return FALSE;
1205:src/wavecom.c ****   return TRUE;
1206:src/wavecom.c **** }
1207:src/wavecom.c **** //*****************************************************************************
1208:src/wavecom.c **** //  Function        : GetSmsMode
ARM GAS  C:\Users\AHMED~1.ELE\AppData\Local\Temp\ccAQ67OG.s 			page 30


1209:src/wavecom.c **** //  Description     : Get the current SMS mode
1210:src/wavecom.c **** //  Input           : None
1211:src/wavecom.c **** //  Return          : Either PDU or text mode will be returned
1212:src/wavecom.c **** //                    0xFF - error
1213:src/wavecom.c **** //  Note            : ++ Jason ++ 22-01-09
1214:src/wavecom.c **** //  Globals Changed : N/A
1215:src/wavecom.c **** //*****************************************************************************
1216:src/wavecom.c **** DWORD GetSmsMode(void)
1217:src/wavecom.c **** {
1218:src/wavecom.c ****   strcpy(gAtCmdIn, "AT+CMGF?\r\n");
1219:src/wavecom.c ****   if (!SendWaitRsp(gAtCmdIn, WAIT_OK))
1220:src/wavecom.c ****     return 0xFF;
1221:src/wavecom.c **** 
1222:src/wavecom.c ****   if (strstr(gAtCmdOut, "+CMGF: 0"))
1223:src/wavecom.c ****     return SMS_PDU_MODE;
1224:src/wavecom.c ****   else if (strstr(gAtCmdOut, "+CMGF: 1"))
1225:src/wavecom.c ****     return SMS_TXT_MODE;
1226:src/wavecom.c **** 
1227:src/wavecom.c ****   return 0xFF;
1228:src/wavecom.c **** }
1229:src/wavecom.c **** //*****************************************************************************
1230:src/wavecom.c **** //  Function        : SetSmsMode
1231:src/wavecom.c **** //  Description     : Set SMS mode
1232:src/wavecom.c **** //  Input           : aMode;
1233:src/wavecom.c **** //  Return          : None;
1234:src/wavecom.c **** //  Note            : //08-12-06 JC++
1235:src/wavecom.c **** //  Globals Changed : N/A
1236:src/wavecom.c **** //*****************************************************************************
1237:src/wavecom.c **** static BOOLEAN SetSmsMode(BYTE aMode)
 395              		.loc 1 1237 0
 396              		.cfi_startproc
 397              		@ args = 0, pretend = 0, frame = 0
 398              		@ frame_needed = 0, uses_anonymous_args = 0
 399              	.LVL37:
1238:src/wavecom.c **** {
1239:src/wavecom.c ****   if (aMode > SMS_TXT_MODE)
1240:src/wavecom.c ****     return FALSE;
1241:src/wavecom.c **** 
1242:src/wavecom.c **** 
1243:src/wavecom.c ****   gGSMData.b_sms_mode = aMode;
 400              		.loc 1 1243 0
 401 0000 0A4B     		ldr	r3, .L32
1237:src/wavecom.c **** {
 402              		.loc 1 1237 0
 403 0002 10B5     		push	{r4, lr}
 404              		.cfi_def_cfa_offset 8
 405              		.cfi_offset 4, -8
 406              		.cfi_offset 14, -4
1244:src/wavecom.c ****   strcpy(gAtCmdIn, "AT+CMGF=0\r\n");
 407              		.loc 1 1244 0
 408 0004 0A49     		ldr	r1, .L32+4
1243:src/wavecom.c ****   strcpy(gAtCmdIn, "AT+CMGF=0\r\n");
 409              		.loc 1 1243 0
 410 0006 83F82C00 		strb	r0, [r3, #44]
 411              		.loc 1 1244 0
 412 000a 0A4B     		ldr	r3, .L32+8
1237:src/wavecom.c **** {
ARM GAS  C:\Users\AHMED~1.ELE\AppData\Local\Temp\ccAQ67OG.s 			page 31


 413              		.loc 1 1237 0
 414 000c 0446     		mov	r4, r0
 415              		.loc 1 1244 0
 416 000e 1846     		mov	r0, r3
 417              	.LVL38:
 418 0010 FFF7FEFF 		bl	strcpy
 419              	.LVL39:
1245:src/wavecom.c ****   gAtCmdIn[8] = '0' + aMode;
 420              		.loc 1 1245 0
 421 0014 3034     		adds	r4, r4, #48
 422 0016 084A     		ldr	r2, .L32+12
1246:src/wavecom.c ****   if (!SendWaitRsp(gAtCmdIn, WAIT_OK))
 423              		.loc 1 1246 0
 424 0018 0221     		movs	r1, #2
1245:src/wavecom.c ****   gAtCmdIn[8] = '0' + aMode;
 425              		.loc 1 1245 0
 426 001a 82F8E545 		strb	r4, [r2, #1509]
 427              		.loc 1 1246 0
 428 001e FFF7FEFF 		bl	SendWaitRsp
 429              	.LVL40:
1247:src/wavecom.c ****     return FALSE;
1248:src/wavecom.c **** 
1249:src/wavecom.c ****   return TRUE;
1250:src/wavecom.c **** }
 430              		.loc 1 1250 0
 431 0022 0030     		adds	r0, r0, #0
 432 0024 18BF     		it	ne
 433 0026 0120     		movne	r0, #1
 434 0028 10BD     		pop	{r4, pc}
 435              	.L33:
 436 002a 00BF     		.align	2
 437              	.L32:
 438 002c 00000000 		.word	gGSMData
 439 0030 09000000 		.word	.LC3
 440 0034 DD050000 		.word	.LANCHOR0+1501
 441 0038 00000000 		.word	.LANCHOR0
 442              		.cfi_endproc
 443              	.LFE44:
 444              		.size	SetSmsMode.part.1, .-SetSmsMode.part.1
 445              		.section	.text.Asc2DWVAL.constprop.7,"ax",%progbits
 446              		.align	1
 447              		.thumb
 448              		.thumb_func
 449              		.type	Asc2DWVAL.constprop.7, %function
 450              	Asc2DWVAL.constprop.7:
 451              	.LFB49:
 339:src/wavecom.c **** {
 452              		.loc 1 339 0
 453              		.cfi_startproc
 454              		@ args = 0, pretend = 0, frame = 0
 455              		@ frame_needed = 0, uses_anonymous_args = 0
 456              	.LVL41:
 457 0000 411E     		subs	r1, r0, #1
 458 0002 10B5     		push	{r4, lr}
 459              		.cfi_def_cfa_offset 8
 460              		.cfi_offset 4, -8
 461              		.cfi_offset 14, -4
ARM GAS  C:\Users\AHMED~1.ELE\AppData\Local\Temp\ccAQ67OG.s 			page 32


 462 0004 821C     		adds	r2, r0, #2
 344:src/wavecom.c ****   while (aMaxLen--) {
 463              		.loc 1 344 0
 464 0006 0020     		movs	r0, #0
 465              	.LVL42:
 466              	.L35:
 345:src/wavecom.c ****     temp = *aPtr - '0';
 467              		.loc 1 345 0
 468 0008 9142     		cmp	r1, r2
 469 000a 09D0     		beq	.L39
 346:src/wavecom.c ****     if (temp <= 9) {
 470              		.loc 1 346 0
 471 000c 11F8013F 		ldrb	r3, [r1, #1]!	@ zero_extendqisi2
 472              	.LVL43:
 473 0010 303B     		subs	r3, r3, #48
 474 0012 DBB2     		uxtb	r3, r3
 475              	.LVL44:
 347:src/wavecom.c ****       val = val*10 + temp;
 476              		.loc 1 347 0
 477 0014 092B     		cmp	r3, #9
 478 0016 03D8     		bhi	.L39
 348:src/wavecom.c ****       aPtr++;
 479              		.loc 1 348 0
 480 0018 0A24     		movs	r4, #10
 481 001a 04FB0030 		mla	r0, r4, r0, r3
 482              	.LVL45:
 483 001e F3E7     		b	.L35
 484              	.LVL46:
 485              	.L39:
 355:src/wavecom.c **** //*****************************************************************************
 486              		.loc 1 355 0
 487 0020 10BD     		pop	{r4, pc}
 488              		.cfi_endproc
 489              	.LFE49:
 490              		.size	Asc2DWVAL.constprop.7, .-Asc2DWVAL.constprop.7
 491              		.section	.text.WaitModuReady,"ax",%progbits
 492              		.align	1
 493              		.global	WaitModuReady
 494              		.thumb
 495              		.thumb_func
 496              		.type	WaitModuReady, %function
 497              	WaitModuReady:
 498              	.LFB2:
 237:src/wavecom.c ****   DWORD status;
 499              		.loc 1 237 0
 500              		.cfi_startproc
 501              		@ args = 0, pretend = 0, frame = 0
 502              		@ frame_needed = 0, uses_anonymous_args = 0
 503              	.LVL47:
 504 0000 37B5     		push	{r0, r1, r2, r4, r5, lr}
 505              		.cfi_def_cfa_offset 24
 506              		.cfi_offset 4, -12
 507              		.cfi_offset 5, -8
 508              		.cfi_offset 14, -4
 237:src/wavecom.c ****   DWORD status;
 509              		.loc 1 237 0
 510 0002 0546     		mov	r5, r0
ARM GAS  C:\Users\AHMED~1.ELE\AppData\Local\Temp\ccAQ67OG.s 			page 33


 241:src/wavecom.c ****   do {
 511              		.loc 1 241 0
 512 0004 40F29F10 		movw	r0, #415
 513              	.LVL48:
 514 0008 FFF7FEFF 		bl	sys_func0
 515              	.LVL49:
 516 000c 0446     		mov	r4, r0
 517              	.LVL50:
 518              	.L42:
 243:src/wavecom.c ****     if ((curr_tick - last_tick) > aTimeout)
 519              		.loc 1 243 0
 520 000e 40F29F10 		movw	r0, #415
 521 0012 FFF7FEFF 		bl	sys_func0
 522              	.LVL51:
 244:src/wavecom.c ****       break;
 523              		.loc 1 244 0
 524 0016 001B     		subs	r0, r0, r4
 525              	.LVL52:
 526 0018 A842     		cmp	r0, r5
 527 001a 4FF00000 		mov	r0, #0
 528 001e 11D8     		bhi	.L41
 246:src/wavecom.c ****     if (status&(MW_GSTS_ATREADY1|MW_GSTS_ATREADY2))
 529              		.loc 1 246 0
 530 0020 094B     		ldr	r3, .L45
 531 0022 0090     		str	r0, [sp]
 532 0024 0821     		movs	r1, #8
 533 0026 1A68     		ldr	r2, [r3]
 534 0028 0F20     		movs	r0, #15
 535 002a 4FF49053 		mov	r3, #4608
 536 002e FFF7FEFF 		bl	lib_app_call
 537              	.LVL53:
 247:src/wavecom.c ****       return TRUE;
 538              		.loc 1 247 0
 539 0032 10F4905F 		tst	r0, #4608
 540 0036 04D1     		bne	.L44
 249:src/wavecom.c ****   } while (1);
 541              		.loc 1 249 0
 542 0038 4FF4CE70 		mov	r0, #412
 543              	.LVL54:
 544 003c FFF7FEFF 		bl	sys_func0
 545              	.LVL55:
 250:src/wavecom.c **** 
 546              		.loc 1 250 0
 547 0040 E5E7     		b	.L42
 548              	.LVL56:
 549              	.L44:
 248:src/wavecom.c ****     SleepMW();
 550              		.loc 1 248 0
 551 0042 0120     		movs	r0, #1
 552              	.LVL57:
 553              	.L41:
 253:src/wavecom.c **** //*****************************************************************************
 554              		.loc 1 253 0
 555 0044 03B0     		add	sp, sp, #12
 556              		.cfi_def_cfa_offset 12
 557              		@ sp needed
 558 0046 30BD     		pop	{r4, r5, pc}
ARM GAS  C:\Users\AHMED~1.ELE\AppData\Local\Temp\ccAQ67OG.s 			page 34


 559              	.LVL58:
 560              	.L46:
 561              		.align	2
 562              	.L45:
 563 0048 00000000 		.word	gGprsHandle
 564              		.cfi_endproc
 565              	.LFE2:
 566              		.size	WaitModuReady, .-WaitModuReady
 567              		.section	.text.SimDetect,"ax",%progbits
 568              		.align	1
 569              		.global	SimDetect
 570              		.thumb
 571              		.thumb_func
 572              		.type	SimDetect, %function
 573              	SimDetect:
 574              	.LFB3:
 263:src/wavecom.c ****   BOOLEAN detected;
 575              		.loc 1 263 0
 576              		.cfi_startproc
 577              		@ args = 0, pretend = 0, frame = 0
 578              		@ frame_needed = 0, uses_anonymous_args = 0
 579              	.LVL59:
 580 0000 10B5     		push	{r4, lr}
 581              		.cfi_def_cfa_offset 8
 582              		.cfi_offset 4, -8
 583              		.cfi_offset 14, -4
 267:src/wavecom.c ****   if (SendWaitRsp("AT+CPIN?\r\n", WAIT_RSP)) {
 584              		.loc 1 267 0
 585 0002 FFF7FEFF 		bl	ClearCmdBuf
 586              	.LVL60:
 268:src/wavecom.c ****     if (strstr(gAtCmdOut, "CPIN"))
 587              		.loc 1 268 0
 588 0006 0948     		ldr	r0, .L50
 589 0008 0121     		movs	r1, #1
 590 000a FFF7FEFF 		bl	SendWaitRsp
 591              	.LVL61:
 592 000e 38B1     		cbz	r0, .L49
 269:src/wavecom.c ****       detected = TRUE;
 593              		.loc 1 269 0
 594 0010 0748     		ldr	r0, .L50+4
 595 0012 0849     		ldr	r1, .L50+8
 596 0014 FFF7FEFF 		bl	strstr
 597              	.LVL62:
 266:src/wavecom.c ****   ClearCmdBuf();
 598              		.loc 1 266 0
 599 0018 041C     		adds	r4, r0, #0
 600 001a 18BF     		it	ne
 601 001c 0124     		movne	r4, #1
 602 001e 00E0     		b	.L48
 603              	.L49:
 604 0020 0446     		mov	r4, r0
 605              	.L48:
 606              	.LVL63:
 272:src/wavecom.c **** 
 607              		.loc 1 272 0
 608 0022 FFF7FEFF 		bl	ClearCmdBuf
 609              	.LVL64:
ARM GAS  C:\Users\AHMED~1.ELE\AppData\Local\Temp\ccAQ67OG.s 			page 35


 275:src/wavecom.c **** //*****************************************************************************
 610              		.loc 1 275 0
 611 0026 2046     		mov	r0, r4
 612 0028 10BD     		pop	{r4, pc}
 613              	.LVL65:
 614              	.L51:
 615 002a 00BF     		.align	2
 616              	.L50:
 617 002c 15000000 		.word	.LC4
 618 0030 00000000 		.word	.LANCHOR0
 619 0034 20000000 		.word	.LC5
 620              		.cfi_endproc
 621              	.LFE3:
 622              		.size	SimDetect, .-SimDetect
 623              		.section	.text.RegisterNetwork,"ax",%progbits
 624              		.align	1
 625              		.global	RegisterNetwork
 626              		.thumb
 627              		.thumb_func
 628              		.type	RegisterNetwork, %function
 629              	RegisterNetwork:
 630              	.LFB4:
 291:src/wavecom.c ****   const char cmd[2][6] = { "CREG", "CGREG" };
 631              		.loc 1 291 0
 632              		.cfi_startproc
 633              		@ args = 0, pretend = 0, frame = 16
 634              		@ frame_needed = 0, uses_anonymous_args = 0
 635              	.LVL66:
 636 0000 30B5     		push	{r4, r5, lr}
 637              		.cfi_def_cfa_offset 12
 638              		.cfi_offset 4, -12
 639              		.cfi_offset 5, -8
 640              		.cfi_offset 14, -4
 641 0002 85B0     		sub	sp, sp, #20
 642              		.cfi_def_cfa_offset 32
 292:src/wavecom.c ****   char *ptr;
 643              		.loc 1 292 0
 644 0004 1A49     		ldr	r1, .L62
 645 0006 0C22     		movs	r2, #12
 291:src/wavecom.c ****   const char cmd[2][6] = { "CREG", "CGREG" };
 646              		.loc 1 291 0
 647 0008 0446     		mov	r4, r0
 292:src/wavecom.c ****   char *ptr;
 648              		.loc 1 292 0
 649 000a 01A8     		add	r0, sp, #4
 650              	.LVL67:
 651 000c FFF7FEFF 		bl	memcpy
 652              	.LVL68:
 295:src/wavecom.c ****   sprintf(gAtCmdIn, "AT+%s=1\r\n", cmd[aGPRS]);
 653              		.loc 1 295 0
 654 0010 FFF7FEFF 		bl	ClearCmdBuf
 655              	.LVL69:
 296:src/wavecom.c **** 
 656              		.loc 1 296 0
 657 0014 0623     		movs	r3, #6
 658 0016 01AA     		add	r2, sp, #4
 659 0018 1649     		ldr	r1, .L62+4
ARM GAS  C:\Users\AHMED~1.ELE\AppData\Local\Temp\ccAQ67OG.s 			page 36


 660 001a 03FB0424 		mla	r4, r3, r4, r2
 661 001e 1648     		ldr	r0, .L62+8
 662 0020 2246     		mov	r2, r4
 663 0022 FFF7FEFF 		bl	sprintf
 664              	.LVL70:
 298:src/wavecom.c ****     return 4;
 665              		.loc 1 298 0
 666 0026 1448     		ldr	r0, .L62+8
 667 0028 0221     		movs	r1, #2
 668 002a FFF7FEFF 		bl	SendWaitRsp
 669              	.LVL71:
 670 002e D8B1     		cbz	r0, .L55
 301:src/wavecom.c ****   sprintf(gAtCmdIn, "AT+%s?\r\n", cmd[aGPRS]);
 671              		.loc 1 301 0
 672 0030 FFF7FEFF 		bl	ClearCmdBuf
 673              	.LVL72:
 302:src/wavecom.c ****   if (SendWaitRsp(gAtCmdIn, WAIT_RSP)) {
 674              		.loc 1 302 0
 675 0034 1149     		ldr	r1, .L62+12
 676 0036 1048     		ldr	r0, .L62+8
 677 0038 2246     		mov	r2, r4
 678 003a FFF7FEFF 		bl	sprintf
 679              	.LVL73:
 303:src/wavecom.c ****     ptr = strstr(gAtCmdOut, cmd[aGPRS]);
 680              		.loc 1 303 0
 681 003e 0E48     		ldr	r0, .L62+8
 682 0040 0121     		movs	r1, #1
 683 0042 FFF7FEFF 		bl	SendWaitRsp
 684              	.LVL74:
 685 0046 58B1     		cbz	r0, .L54
 304:src/wavecom.c ****     if (ptr!=NULL) {
 686              		.loc 1 304 0
 687 0048 0D48     		ldr	r0, .L62+16
 688 004a 2146     		mov	r1, r4
 689 004c FFF7FEFF 		bl	strstr
 690              	.LVL75:
 305:src/wavecom.c ****       return ptr[strlen(cmd[aGPRS])+2];
 691              		.loc 1 305 0
 692 0050 0546     		mov	r5, r0
 693 0052 28B1     		cbz	r0, .L54
 306:src/wavecom.c ****     }
 694              		.loc 1 306 0
 695 0054 2046     		mov	r0, r4
 696              	.LVL76:
 697 0056 FFF7FEFF 		bl	strlen
 698              	.LVL77:
 699 005a 2844     		add	r0, r0, r5
 700 005c 8078     		ldrb	r0, [r0, #2]	@ zero_extendqisi2
 701 005e 04E0     		b	.L53
 702              	.LVL78:
 703              	.L54:
 309:src/wavecom.c ****   return '4';
 704              		.loc 1 309 0
 705 0060 FFF7FEFF 		bl	ClearCmdBuf
 706              	.LVL79:
 310:src/wavecom.c **** }
 707              		.loc 1 310 0
ARM GAS  C:\Users\AHMED~1.ELE\AppData\Local\Temp\ccAQ67OG.s 			page 37


 708 0064 3420     		movs	r0, #52
 709 0066 00E0     		b	.L53
 710              	.L55:
 299:src/wavecom.c **** 
 711              		.loc 1 299 0
 712 0068 0420     		movs	r0, #4
 713              	.L53:
 311:src/wavecom.c **** //*****************************************************************************
 714              		.loc 1 311 0
 715 006a 05B0     		add	sp, sp, #20
 716              		.cfi_def_cfa_offset 12
 717              		@ sp needed
 718 006c 30BD     		pop	{r4, r5, pc}
 719              	.L63:
 720 006e 00BF     		.align	2
 721              	.L62:
 722 0070 00000000 		.word	.LANCHOR1
 723 0074 25000000 		.word	.LC6
 724 0078 DD050000 		.word	.LANCHOR0+1501
 725 007c 2F000000 		.word	.LC7
 726 0080 00000000 		.word	.LANCHOR0
 727              		.cfi_endproc
 728              	.LFE4:
 729              		.size	RegisterNetwork, .-RegisterNetwork
 730              		.section	.text.AttachGPRS,"ax",%progbits
 731              		.align	1
 732              		.global	AttachGPRS
 733              		.thumb
 734              		.thumb_func
 735              		.type	AttachGPRS, %function
 736              	AttachGPRS:
 737              	.LFB5:
 321:src/wavecom.c ****   ClearCmdBuf();
 738              		.loc 1 321 0
 739              		.cfi_startproc
 740              		@ args = 0, pretend = 0, frame = 0
 741              		@ frame_needed = 0, uses_anonymous_args = 0
 742 0000 08B5     		push	{r3, lr}
 743              		.cfi_def_cfa_offset 8
 744              		.cfi_offset 3, -8
 745              		.cfi_offset 14, -4
 322:src/wavecom.c ****   if (SendWaitRsp("AT+CGATT=1\r\n", WAIT_OK)) {
 746              		.loc 1 322 0
 747 0002 FFF7FEFF 		bl	ClearCmdBuf
 748              	.LVL80:
 323:src/wavecom.c ****     if (strstr(gAtCmdOut, "OK"))
 749              		.loc 1 323 0
 750 0006 0848     		ldr	r0, .L71
 751 0008 0221     		movs	r1, #2
 752 000a FFF7FEFF 		bl	SendWaitRsp
 753              	.LVL81:
 754 000e 20B1     		cbz	r0, .L65
 324:src/wavecom.c ****       return TRUE;
 755              		.loc 1 324 0
 756 0010 0648     		ldr	r0, .L71+4
 757 0012 0749     		ldr	r1, .L71+8
 758 0014 FFF7FEFF 		bl	strstr
ARM GAS  C:\Users\AHMED~1.ELE\AppData\Local\Temp\ccAQ67OG.s 			page 38


 759              	.LVL82:
 760 0018 18B9     		cbnz	r0, .L67
 761              	.L65:
 327:src/wavecom.c ****   return FALSE;
 762              		.loc 1 327 0
 763 001a FFF7FEFF 		bl	ClearCmdBuf
 764              	.LVL83:
 328:src/wavecom.c **** }
 765              		.loc 1 328 0
 766 001e 0020     		movs	r0, #0
 767 0020 08BD     		pop	{r3, pc}
 768              	.L67:
 325:src/wavecom.c ****   }
 769              		.loc 1 325 0
 770 0022 0120     		movs	r0, #1
 329:src/wavecom.c **** //*****************************************************************************
 771              		.loc 1 329 0
 772 0024 08BD     		pop	{r3, pc}
 773              	.L72:
 774 0026 00BF     		.align	2
 775              	.L71:
 776 0028 38000000 		.word	.LC8
 777 002c 00000000 		.word	.LANCHOR0
 778 0030 00000000 		.word	.LC1
 779              		.cfi_endproc
 780              	.LFE5:
 781              		.size	AttachGPRS, .-AttachGPRS
 782              		.section	.text.GetPHBCapcity,"ax",%progbits
 783              		.align	1
 784              		.global	GetPHBCapcity
 785              		.thumb
 786              		.thumb_func
 787              		.type	GetPHBCapcity, %function
 788              	GetPHBCapcity:
 789              	.LFB8:
 413:src/wavecom.c ****   BYTE *ptr;
 790              		.loc 1 413 0
 791              		.cfi_startproc
 792              		@ args = 0, pretend = 0, frame = 0
 793              		@ frame_needed = 0, uses_anonymous_args = 0
 794              	.LVL84:
 795 0000 2DE9F843 		push	{r3, r4, r5, r6, r7, r8, r9, lr}
 796              		.cfi_def_cfa_offset 32
 797              		.cfi_offset 3, -32
 798              		.cfi_offset 4, -28
 799              		.cfi_offset 5, -24
 800              		.cfi_offset 6, -20
 801              		.cfi_offset 7, -16
 802              		.cfi_offset 8, -12
 803              		.cfi_offset 9, -8
 804              		.cfi_offset 14, -4
 413:src/wavecom.c ****   BYTE *ptr;
 805              		.loc 1 413 0
 806 0004 0746     		mov	r7, r0
 807 0006 0E46     		mov	r6, r1
 418:src/wavecom.c ****     return FALSE;
 808              		.loc 1 418 0
ARM GAS  C:\Users\AHMED~1.ELE\AppData\Local\Temp\ccAQ67OG.s 			page 39


 809 0008 2848     		ldr	r0, .L82
 810              	.LVL85:
 811 000a 0221     		movs	r1, #2
 812              	.LVL86:
 813 000c FFF7FEFF 		bl	SendWaitRsp
 814              	.LVL87:
 815 0010 10B9     		cbnz	r0, .L74
 816              	.L76:
 419:src/wavecom.c **** 
 817              		.loc 1 419 0
 818 0012 0020     		movs	r0, #0
 819 0014 BDE8F883 		pop	{r3, r4, r5, r6, r7, r8, r9, pc}
 820              	.LVL88:
 821              	.L74:
 822              	.LBB4:
 823              	.LBB5:
 421:src/wavecom.c ****   if (ptr == NULL)
 824              		.loc 1 421 0
 825 0018 254C     		ldr	r4, .L82+4
 826 001a 2649     		ldr	r1, .L82+8
 827 001c 2046     		mov	r0, r4
 828 001e FFF7FEFF 		bl	strstr
 829              	.LVL89:
 422:src/wavecom.c ****     return FALSE;
 830              		.loc 1 422 0
 831 0022 0546     		mov	r5, r0
 832 0024 0028     		cmp	r0, #0
 833 0026 F4D0     		beq	.L76
 425:src/wavecom.c **** 
 834              		.loc 1 425 0
 835 0028 2046     		mov	r0, r4
 836              	.LVL90:
 837 002a FFF7FEFF 		bl	strlen
 838              	.LVL91:
 839 002e 641B     		subs	r4, r4, r5
 427:src/wavecom.c ****   if (idx1 == r_len)
 840              		.loc 1 427 0
 841 0030 2C21     		movs	r1, #44
 425:src/wavecom.c **** 
 842              		.loc 1 425 0
 843 0032 0444     		add	r4, r4, r0
 844              	.LVL92:
 427:src/wavecom.c ****   if (idx1 == r_len)
 845              		.loc 1 427 0
 846 0034 2246     		mov	r2, r4
 847 0036 2846     		mov	r0, r5
 848 0038 FFF7FEFF 		bl	fndb
 849              	.LVL93:
 428:src/wavecom.c ****     return FALSE;
 850              		.loc 1 428 0
 851 003c A042     		cmp	r0, r4
 427:src/wavecom.c ****   if (idx1 == r_len)
 852              		.loc 1 427 0
 853 003e 8046     		mov	r8, r0
 854              	.LVL94:
 428:src/wavecom.c ****     return FALSE;
 855              		.loc 1 428 0
ARM GAS  C:\Users\AHMED~1.ELE\AppData\Local\Temp\ccAQ67OG.s 			page 40


 856 0040 E7D0     		beq	.L76
 432:src/wavecom.c ****   if (idx2 == r_len)
 857              		.loc 1 432 0
 858 0042 00F10109 		add	r9, r0, #1
 431:src/wavecom.c ****   idx2 = fndb(ptr+idx1+1, ',', r_len);      // find second comma
 859              		.loc 1 431 0
 860 0046 241A     		subs	r4, r4, r0
 861              	.LVL95:
 432:src/wavecom.c ****   if (idx2 == r_len)
 862              		.loc 1 432 0
 863 0048 A944     		add	r9, r9, r5
 864 004a 4846     		mov	r0, r9
 865              	.LVL96:
 866 004c 2C21     		movs	r1, #44
 867 004e 2246     		mov	r2, r4
 868 0050 FFF7FEFF 		bl	fndb
 869              	.LVL97:
 433:src/wavecom.c ****     return FALSE;
 870              		.loc 1 433 0
 871 0054 A042     		cmp	r0, r4
 872 0056 DCD0     		beq	.L76
 437:src/wavecom.c ****   if (idx3 == r_len)
 873              		.loc 1 437 0
 874 0058 8044     		add	r8, r8, r0
 875              	.LVL98:
 436:src/wavecom.c ****   idx3 = fndb(ptr+idx1+idx2+1, '\r', r_len);     // find '\r'
 876              		.loc 1 436 0
 877 005a 241A     		subs	r4, r4, r0
 878              	.LVL99:
 437:src/wavecom.c ****   if (idx3 == r_len)
 879              		.loc 1 437 0
 880 005c 08F10100 		add	r0, r8, #1
 881              	.LVL100:
 882 0060 2844     		add	r0, r0, r5
 883 0062 0D21     		movs	r1, #13
 884 0064 2246     		mov	r2, r4
 885 0066 FFF7FEFF 		bl	fndb
 886              	.LVL101:
 438:src/wavecom.c ****     return FALSE;
 887              		.loc 1 438 0
 888 006a A042     		cmp	r0, r4
 889 006c D1D0     		beq	.L76
 890              	.LVL102:
 444:src/wavecom.c ****   *aTotal = (WORD)Asc2DWVAL(ptr+idx2+1, 3);
 891              		.loc 1 444 0
 892 006e 4846     		mov	r0, r9
 893              	.LVL103:
 894 0070 FFF7FEFF 		bl	Asc2DWVAL.constprop.7
 895              	.LVL104:
 896 0074 80B2     		uxth	r0, r0
 897 0076 3860     		str	r0, [r7]
 445:src/wavecom.c **** 
 898              		.loc 1 445 0
 899 0078 08F10200 		add	r0, r8, #2
 900 007c 2844     		add	r0, r0, r5
 901 007e FFF7FEFF 		bl	Asc2DWVAL.constprop.7
 902              	.LVL105:
ARM GAS  C:\Users\AHMED~1.ELE\AppData\Local\Temp\ccAQ67OG.s 			page 41


 903 0082 80B2     		uxth	r0, r0
 904 0084 3060     		str	r0, [r6]
 447:src/wavecom.c ****   *aTotal = gGSMData.d_total_count > MAX_PHBOOK_REC ? MAX_PHBOOK_REC: *aTotal;
 905              		.loc 1 447 0
 906 0086 3B68     		ldr	r3, [r7]
 450:src/wavecom.c **** }
 907              		.loc 1 450 0
 908 0088 0120     		movs	r0, #1
 447:src/wavecom.c ****   *aTotal = gGSMData.d_total_count > MAX_PHBOOK_REC ? MAX_PHBOOK_REC: *aTotal;
 909              		.loc 1 447 0
 910 008a B3F5807F 		cmp	r3, #256
 911 008e 28BF     		it	cs
 912 0090 4FF48073 		movcs	r3, #256
 913 0094 3B60     		str	r3, [r7]
 448:src/wavecom.c **** 
 914              		.loc 1 448 0
 915 0096 084B     		ldr	r3, .L82+12
 916 0098 5B6A     		ldr	r3, [r3, #36]
 917 009a B3F5807F 		cmp	r3, #256
 918 009e 8CBF     		ite	hi
 919 00a0 4FF48073 		movhi	r3, #256
 920 00a4 3368     		ldrls	r3, [r6]
 921 00a6 3360     		str	r3, [r6]
 922              	.LBE5:
 923              	.LBE4:
 451:src/wavecom.c **** //*****************************************************************************
 924              		.loc 1 451 0
 925 00a8 BDE8F883 		pop	{r3, r4, r5, r6, r7, r8, r9, pc}
 926              	.LVL106:
 927              	.L83:
 928              		.align	2
 929              	.L82:
 930 00ac 45000000 		.word	.LC9
 931 00b0 00000000 		.word	.LANCHOR0
 932 00b4 50000000 		.word	.LC10
 933 00b8 00000000 		.word	gGSMData
 934              		.cfi_endproc
 935              	.LFE8:
 936              		.size	GetPHBCapcity, .-GetPHBCapcity
 937              		.section	.text.GetContact,"ax",%progbits
 938              		.align	1
 939              		.global	GetContact
 940              		.thumb
 941              		.thumb_func
 942              		.type	GetContact, %function
 943              	GetContact:
 944              	.LFB10:
 515:src/wavecom.c ****   BYTE *ptr;
 945              		.loc 1 515 0
 946              		.cfi_startproc
 947              		@ args = 0, pretend = 0, frame = 16
 948              		@ frame_needed = 0, uses_anonymous_args = 0
 949              	.LVL107:
 950 0000 F0B5     		push	{r4, r5, r6, r7, lr}
 951              		.cfi_def_cfa_offset 20
 952              		.cfi_offset 4, -20
 953              		.cfi_offset 5, -16
ARM GAS  C:\Users\AHMED~1.ELE\AppData\Local\Temp\ccAQ67OG.s 			page 42


 954              		.cfi_offset 6, -12
 955              		.cfi_offset 7, -8
 956              		.cfi_offset 14, -4
 957 0002 85B0     		sub	sp, sp, #20
 958              		.cfi_def_cfa_offset 40
 515:src/wavecom.c ****   BYTE *ptr;
 959              		.loc 1 515 0
 960 0004 0E46     		mov	r6, r1
 520:src/wavecom.c ****   sprintf((char *)buf, "AT+CPBR=%d\r\n", aRecIdx);
 961              		.loc 1 520 0
 962 0006 1022     		movs	r2, #16
 963 0008 0021     		movs	r1, #0
 964              	.LVL108:
 515:src/wavecom.c ****   BYTE *ptr;
 965              		.loc 1 515 0
 966 000a 0546     		mov	r5, r0
 520:src/wavecom.c ****   sprintf((char *)buf, "AT+CPBR=%d\r\n", aRecIdx);
 967              		.loc 1 520 0
 968 000c 6846     		mov	r0, sp
 969              	.LVL109:
 970 000e FFF7FEFF 		bl	memset
 971              	.LVL110:
 521:src/wavecom.c ****   if (!SendWaitRsp(buf, WAIT_RSP))
 972              		.loc 1 521 0
 973 0012 2549     		ldr	r1, .L104
 974 0014 6846     		mov	r0, sp
 975 0016 3246     		mov	r2, r6
 976 0018 FFF7FEFF 		bl	sprintf
 977              	.LVL111:
 522:src/wavecom.c ****     return FALSE;
 978              		.loc 1 522 0
 979 001c 6846     		mov	r0, sp
 980 001e 0121     		movs	r1, #1
 981 0020 FFF7FEFF 		bl	SendWaitRsp
 982              	.LVL112:
 983 0024 08B9     		cbnz	r0, .L85
 984              	.L87:
 523:src/wavecom.c **** 
 985              		.loc 1 523 0
 986 0026 0020     		movs	r0, #0
 987 0028 3CE0     		b	.L102
 988              	.L85:
 989              	.LVL113:
 990              	.LBB10:
 991              	.LBB11:
 525:src/wavecom.c ****   if (ptr == NULL)
 992              		.loc 1 525 0
 993 002a 204C     		ldr	r4, .L104+4
 994 002c 2049     		ldr	r1, .L104+8
 995 002e 2046     		mov	r0, r4
 996 0030 FFF7FEFF 		bl	strstr
 997              	.LVL114:
 526:src/wavecom.c ****     return FALSE;
 998              		.loc 1 526 0
 999 0034 0746     		mov	r7, r0
 1000 0036 0028     		cmp	r0, #0
 1001 0038 F5D0     		beq	.L87
ARM GAS  C:\Users\AHMED~1.ELE\AppData\Local\Temp\ccAQ67OG.s 			page 43


 529:src/wavecom.c ****   memset(aRec, 0, sizeof(struct PHONE_LIST));
 1002              		.loc 1 529 0
 1003 003a 2046     		mov	r0, r4
 1004              	.LVL115:
 1005 003c FFF7FEFF 		bl	strlen
 1006              	.LVL116:
 1007 0040 E41B     		subs	r4, r4, r7
 530:src/wavecom.c ****   if (GetContactInfo(aRec, ptr, rlen) == 0)
 1008              		.loc 1 530 0
 1009 0042 0021     		movs	r1, #0
 1010 0044 4422     		movs	r2, #68
 529:src/wavecom.c ****   memset(aRec, 0, sizeof(struct PHONE_LIST));
 1011              		.loc 1 529 0
 1012 0046 0444     		add	r4, r4, r0
 1013              	.LVL117:
 530:src/wavecom.c ****   if (GetContactInfo(aRec, ptr, rlen) == 0)
 1014              		.loc 1 530 0
 1015 0048 2846     		mov	r0, r5
 1016 004a FFF7FEFF 		bl	memset
 1017              	.LVL118:
 1018              	.LBB12:
 1019              	.LBB13:
 472:src/wavecom.c ****   ptr = aStr;
 1020              		.loc 1 472 0
 1021 004e 0023     		movs	r3, #0
 1022              	.LBE13:
 1023              	.LBE12:
 530:src/wavecom.c ****   if (GetContactInfo(aRec, ptr, rlen) == 0)
 1024              		.loc 1 530 0
 1025 0050 3846     		mov	r0, r7
 1026              	.LBB15:
 1027              	.LBB14:
 471:src/wavecom.c ****   state = 0;
 1028              		.loc 1 471 0
 1029 0052 1946     		mov	r1, r3
 1030 0054 1A46     		mov	r2, r3
 1031              	.LVL119:
 1032              	.L88:
 474:src/wavecom.c ****     if (*ptr == '\"') {
 1033              		.loc 1 474 0
 1034 0056 C7EB000E 		rsb	lr, r7, r0
 1035 005a A645     		cmp	lr, r4
 1036 005c 1ED2     		bcs	.L103
 475:src/wavecom.c ****       state++;
 1037              		.loc 1 475 0
 1038 005e 10F801EB 		ldrb	lr, [r0], #1	@ zero_extendqisi2
 1039              	.LVL120:
 1040 0062 BEF1220F 		cmp	lr, #34
 1041 0066 02D1     		bne	.L89
 476:src/wavecom.c ****       ptr++;
 1042              		.loc 1 476 0
 1043 0068 0133     		adds	r3, r3, #1
 1044              	.LVL121:
 1045 006a DBB2     		uxtb	r3, r3
 1046              	.LVL122:
 1047 006c F3E7     		b	.L88
 1048              	.LVL123:
ARM GAS  C:\Users\AHMED~1.ELE\AppData\Local\Temp\ccAQ67OG.s 			page 44


 1049              	.L89:
 480:src/wavecom.c ****       case 1:
 1050              		.loc 1 480 0
 1051 006e 012B     		cmp	r3, #1
 1052 0070 0AD0     		beq	.L92
 1053 0072 032B     		cmp	r3, #3
 1054 0074 EFD1     		bne	.L88
 486:src/wavecom.c ****           aContact->sb_name[name_len++] = *ptr;
 1055              		.loc 1 486 0
 1056 0076 1E29     		cmp	r1, #30
 487:src/wavecom.c ****         break;
 1057              		.loc 1 487 0
 1058 0078 9EBF     		ittt	ls
 1059 007a 01F1010C 		addls	ip, r1, #1
 1060              	.LVL124:
 1061 007e 05F801E0 		strbls	lr, [r5, r1]
 1062 0082 5FFA8CF1 		uxtbls	r1, ip
 1063              	.LVL125:
 1064 0086 E6E7     		b	.L88
 1065              	.LVL126:
 1066              	.L92:
 482:src/wavecom.c ****           aContact->sb_tel[tel_len++] = *ptr;
 1067              		.loc 1 482 0
 1068 0088 1E2A     		cmp	r2, #30
 1069 008a E4D8     		bhi	.L88
 483:src/wavecom.c ****         break;
 1070              		.loc 1 483 0
 1071 008c 02F1010C 		add	ip, r2, #1
 1072              	.LVL127:
 1073 0090 2A44     		add	r2, r2, r5
 1074 0092 82F820E0 		strb	lr, [r2, #32]
 1075 0096 5FFA8CF2 		uxtb	r2, ip
 1076 009a DCE7     		b	.L88
 1077              	.LVL128:
 1078              	.L103:
 495:src/wavecom.c ****     return 0;
 1079              		.loc 1 495 0
 1080 009c 002A     		cmp	r2, #0
 1081 009e C2D0     		beq	.L87
 1082              	.LBE14:
 1083              	.LBE15:
 535:src/wavecom.c **** }
 1084              		.loc 1 535 0
 1085 00a0 0120     		movs	r0, #1
 1086              	.LVL129:
 534:src/wavecom.c ****   return TRUE;
 1087              		.loc 1 534 0
 1088 00a2 2E64     		str	r6, [r5, #64]
 1089              	.LVL130:
 1090              	.L102:
 1091              	.LBE11:
 1092              	.LBE10:
 536:src/wavecom.c **** //*****************************************************************************
 1093              		.loc 1 536 0
 1094 00a4 05B0     		add	sp, sp, #20
 1095              		.cfi_def_cfa_offset 20
 1096              		@ sp needed
ARM GAS  C:\Users\AHMED~1.ELE\AppData\Local\Temp\ccAQ67OG.s 			page 45


 1097 00a6 F0BD     		pop	{r4, r5, r6, r7, pc}
 1098              	.LVL131:
 1099              	.L105:
 1100              		.align	2
 1101              	.L104:
 1102 00a8 57000000 		.word	.LC11
 1103 00ac 00000000 		.word	.LANCHOR0
 1104 00b0 64000000 		.word	.LC12
 1105              		.cfi_endproc
 1106              	.LFE10:
 1107              		.size	GetContact, .-GetContact
 1108              		.section	.text.LoadPhoneBook,"ax",%progbits
 1109              		.align	1
 1110              		.global	LoadPhoneBook
 1111              		.thumb
 1112              		.thumb_func
 1113              		.type	LoadPhoneBook, %function
 1114              	LoadPhoneBook:
 1115              	.LFB11:
 546:src/wavecom.c ****   DWORD i, rec_idx, max_rec;
 1116              		.loc 1 546 0
 1117              		.cfi_startproc
 1118              		@ args = 0, pretend = 0, frame = 0
 1119              		@ frame_needed = 0, uses_anonymous_args = 0
 1120              	.LVL132:
 1121 0000 F8B5     		push	{r3, r4, r5, r6, r7, lr}
 1122              		.cfi_def_cfa_offset 24
 1123              		.cfi_offset 3, -24
 1124              		.cfi_offset 4, -20
 1125              		.cfi_offset 5, -16
 1126              		.cfi_offset 6, -12
 1127              		.cfi_offset 7, -8
 1128              		.cfi_offset 14, -4
 550:src/wavecom.c ****   for (i=0; i< gGSMData.d_total_count; i++) {
 1129              		.loc 1 550 0
 1130 0002 104B     		ldr	r3, .L114
 549:src/wavecom.c ****   max_rec = gGSMData.d_total_count > MAX_PHBOOK_REC ? MAX_PHBOOK_REC: gGSMData.d_total_count;
 1131              		.loc 1 549 0
 1132 0004 0024     		movs	r4, #0
 550:src/wavecom.c ****   for (i=0; i< gGSMData.d_total_count; i++) {
 1133              		.loc 1 550 0
 1134 0006 5A6A     		ldr	r2, [r3, #36]
 551:src/wavecom.c ****     if (rec_idx == max_rec)  // full
 1135              		.loc 1 551 0
 1136 0008 2546     		mov	r5, r4
 550:src/wavecom.c ****   for (i=0; i< gGSMData.d_total_count; i++) {
 1137              		.loc 1 550 0
 1138 000a B2F5807F 		cmp	r2, #256
 1139 000e 28BF     		it	cs
 1140 0010 4FF48072 		movcs	r2, #256
 1141 0014 1746     		mov	r7, r2
 1142              	.LVL133:
 1143 0016 1E46     		mov	r6, r3
 1144              	.LVL134:
 1145              	.L107:
 551:src/wavecom.c ****     if (rec_idx == max_rec)  // full
 1146              		.loc 1 551 0 discriminator 1
ARM GAS  C:\Users\AHMED~1.ELE\AppData\Local\Temp\ccAQ67OG.s 			page 46


 1147 0018 736A     		ldr	r3, [r6, #36]
 1148 001a 0A48     		ldr	r0, .L114
 1149 001c 9D42     		cmp	r5, r3
 1150 001e 10D2     		bcs	.L106
 552:src/wavecom.c ****       break;
 1151              		.loc 1 552 0
 1152 0020 BC42     		cmp	r4, r7
 1153 0022 0ED0     		beq	.L106
 554:src/wavecom.c ****       break;
 1154              		.loc 1 554 0
 1155 0024 836A     		ldr	r3, [r0, #40]
 1156 0026 9C42     		cmp	r4, r3
 1157 0028 0BD0     		beq	.L106
 556:src/wavecom.c ****       continue;
 1158              		.loc 1 556 0
 1159 002a 4423     		movs	r3, #68
 1160 002c 0135     		adds	r5, r5, #1
 1161              	.LVL135:
 1162 002e 03FB0400 		mla	r0, r3, r4, r0
 1163 0032 2946     		mov	r1, r5
 1164 0034 3C30     		adds	r0, r0, #60
 1165 0036 FFF7FEFF 		bl	GetContact
 1166              	.LVL136:
 1167 003a 0028     		cmp	r0, #0
 1168 003c ECD0     		beq	.L107
 558:src/wavecom.c ****   }
 1169              		.loc 1 558 0
 1170 003e 0134     		adds	r4, r4, #1
 1171              	.LVL137:
 1172 0040 EAE7     		b	.L107
 1173              	.LVL138:
 1174              	.L106:
 1175 0042 F8BD     		pop	{r3, r4, r5, r6, r7, pc}
 1176              	.LVL139:
 1177              	.L115:
 1178              		.align	2
 1179              	.L114:
 1180 0044 00000000 		.word	gGSMData
 1181              		.cfi_endproc
 1182              	.LFE11:
 1183              		.size	LoadPhoneBook, .-LoadPhoneBook
 1184              		.section	.text.SortPhoneBook,"ax",%progbits
 1185              		.align	1
 1186              		.global	SortPhoneBook
 1187              		.thumb
 1188              		.thumb_func
 1189              		.type	SortPhoneBook, %function
 1190              	SortPhoneBook:
 1191              	.LFB12:
 570:src/wavecom.c ****   WORD i, j;
 1192              		.loc 1 570 0
 1193              		.cfi_startproc
 1194              		@ args = 0, pretend = 0, frame = 16
 1195              		@ frame_needed = 0, uses_anonymous_args = 0
 1196 0000 2DE9F04F 		push	{r4, r5, r6, r7, r8, r9, r10, fp, lr}
 1197              		.cfi_def_cfa_offset 36
 1198              		.cfi_offset 4, -36
ARM GAS  C:\Users\AHMED~1.ELE\AppData\Local\Temp\ccAQ67OG.s 			page 47


 1199              		.cfi_offset 5, -32
 1200              		.cfi_offset 6, -28
 1201              		.cfi_offset 7, -24
 1202              		.cfi_offset 8, -20
 1203              		.cfi_offset 9, -16
 1204              		.cfi_offset 10, -12
 1205              		.cfi_offset 11, -8
 1206              		.cfi_offset 14, -4
 574:src/wavecom.c ****     return;
 1207              		.loc 1 574 0
 1208 0004 2A4F     		ldr	r7, .L125
 570:src/wavecom.c ****   WORD i, j;
 1209              		.loc 1 570 0
 1210 0006 85B0     		sub	sp, sp, #20
 1211              		.cfi_def_cfa_offset 56
 574:src/wavecom.c ****     return;
 1212              		.loc 1 574 0
 1213 0008 D7F828A0 		ldr	r10, [r7, #40]
 1214 000c BAF1010F 		cmp	r10, #1
 1215 0010 4BD9     		bls	.L116
 1216 0012 4FF0000B 		mov	fp, #0
 1217              	.L117:
 1218              	.LVL140:
 578:src/wavecom.c ****     for (j=i+1; j<gGSMData.d_used_count; j++) {
 1219              		.loc 1 578 0 discriminator 1
 1220 0016 0AF1FF32 		add	r2, r10, #-1
 1221 001a 9345     		cmp	fp, r2
 1222 001c 45D2     		bcs	.L116
 579:src/wavecom.c ****       len1 = strlen(gGSMData.s_PHBook[i].sb_name);
 1223              		.loc 1 579 0
 1224 001e 0BF10109 		add	r9, fp, #1
 1225 0022 1FFA89F9 		uxth	r9, r9
 1226              	.LVL141:
 1227 0026 4E46     		mov	r6, r9
 1228              	.LVL142:
 1229              	.L118:
 579:src/wavecom.c ****       len1 = strlen(gGSMData.s_PHBook[i].sb_name);
 1230              		.loc 1 579 0 is_stmt 0 discriminator 1
 1231 0028 5645     		cmp	r6, r10
 1232 002a 3CD2     		bcs	.L124
 580:src/wavecom.c ****       len2 = strlen(gGSMData.s_PHBook[j].sb_name);
 1233              		.loc 1 580 0 is_stmt 1
 1234 002c 4FF04408 		mov	r8, #68
 1235 0030 08FB0BF4 		mul	r4, r8, fp
 581:src/wavecom.c ****       len1 = len1>len2?len2:len1;
 1236              		.loc 1 581 0
 1237 0034 08FB06F5 		mul	r5, r8, r6
 580:src/wavecom.c ****       len2 = strlen(gGSMData.s_PHBook[j].sb_name);
 1238              		.loc 1 580 0
 1239 0038 07EB040C 		add	ip, r7, r4
 1240 003c 0CF13C0C 		add	ip, ip, #60
 1241 0040 6046     		mov	r0, ip
 1242 0042 CDF80CC0 		str	ip, [sp, #12]
 1243 0046 FFF7FEFF 		bl	strlen
 1244              	.LVL143:
 581:src/wavecom.c ****       len1 = len1>len2?len2:len1;
 1245              		.loc 1 581 0
ARM GAS  C:\Users\AHMED~1.ELE\AppData\Local\Temp\ccAQ67OG.s 			page 48


 1246 004a 7919     		adds	r1, r7, r5
 1247 004c 3C31     		adds	r1, r1, #60
 580:src/wavecom.c ****       len2 = strlen(gGSMData.s_PHBook[j].sb_name);
 1248              		.loc 1 580 0
 1249 004e 82B2     		uxth	r2, r0
 581:src/wavecom.c ****       len1 = len1>len2?len2:len1;
 1250              		.loc 1 581 0
 1251 0050 0846     		mov	r0, r1
 580:src/wavecom.c ****       len2 = strlen(gGSMData.s_PHBook[j].sb_name);
 1252              		.loc 1 580 0
 1253 0052 0292     		str	r2, [sp, #8]
 1254              	.LVL144:
 581:src/wavecom.c ****       len1 = len1>len2?len2:len1;
 1255              		.loc 1 581 0
 1256 0054 0191     		str	r1, [sp, #4]
 1257 0056 FFF7FEFF 		bl	strlen
 1258              	.LVL145:
 583:src/wavecom.c ****         continue;
 1259              		.loc 1 583 0
 1260 005a 029A     		ldr	r2, [sp, #8]
 1261 005c DDF80CC0 		ldr	ip, [sp, #12]
 582:src/wavecom.c ****       if (memcmp(gGSMData.s_PHBook[i].sb_name, gGSMData.s_PHBook[j].sb_name, len1)<0)
 1262              		.loc 1 582 0
 1263 0060 1FFA80FE 		uxth	lr, r0
 583:src/wavecom.c ****         continue;
 1264              		.loc 1 583 0
 1265 0064 7245     		cmp	r2, lr
 1266 0066 28BF     		it	cs
 1267 0068 7246     		movcs	r2, lr
 1268 006a 6046     		mov	r0, ip
 1269              	.LVL146:
 1270 006c 0199     		ldr	r1, [sp, #4]
 1271 006e FFF7FEFF 		bl	memcmp
 1272              	.LVL147:
 1273 0072 0028     		cmp	r0, #0
 1274 0074 14DB     		blt	.L119
 585:src/wavecom.c ****       memcpy((BYTE *) &gGSMData.s_PHBook[j], (BYTE *) &gGSMData.s_PHBook[i], sizeof(struct PHONE_LI
 1275              		.loc 1 585 0
 1276 0076 0E4B     		ldr	r3, .L125
 1277 0078 4246     		mov	r2, r8
 1278 007a 1D44     		add	r5, r5, r3
 1279 007c 3C35     		adds	r5, r5, #60
 1280 007e 2946     		mov	r1, r5
 1281 0080 0C48     		ldr	r0, .L125+4
 1282 0082 FFF7FEFF 		bl	memcpy
 1283              	.LVL148:
 586:src/wavecom.c ****       memcpy((BYTE *) &gGSMData.s_PHBook[i], (BYTE *) &gGSMData.s_CurrPHB,   sizeof(struct PHONE_LI
 1284              		.loc 1 586 0
 1285 0086 0A4B     		ldr	r3, .L125
 1286 0088 4246     		mov	r2, r8
 1287 008a 1C44     		add	r4, r4, r3
 1288 008c 3C34     		adds	r4, r4, #60
 1289 008e 2146     		mov	r1, r4
 1290 0090 2846     		mov	r0, r5
 1291 0092 FFF7FEFF 		bl	memcpy
 1292              	.LVL149:
 587:src/wavecom.c ****     }
ARM GAS  C:\Users\AHMED~1.ELE\AppData\Local\Temp\ccAQ67OG.s 			page 49


 1293              		.loc 1 587 0
 1294 0096 2046     		mov	r0, r4
 1295 0098 0649     		ldr	r1, .L125+4
 1296 009a 4246     		mov	r2, r8
 1297 009c FFF7FEFF 		bl	memcpy
 1298              	.LVL150:
 1299              	.L119:
 579:src/wavecom.c ****       len1 = strlen(gGSMData.s_PHBook[i].sb_name);
 1300              		.loc 1 579 0 discriminator 2
 1301 00a0 0136     		adds	r6, r6, #1
 1302              	.LVL151:
 1303 00a2 B6B2     		uxth	r6, r6
 1304              	.LVL152:
 1305 00a4 C0E7     		b	.L118
 1306              	.L124:
 578:src/wavecom.c ****     for (j=i+1; j<gGSMData.d_used_count; j++) {
 1307              		.loc 1 578 0
 1308 00a6 CB46     		mov	fp, r9
 1309              	.LVL153:
 1310 00a8 B5E7     		b	.L117
 1311              	.LVL154:
 1312              	.L116:
 590:src/wavecom.c **** //*****************************************************************************
 1313              		.loc 1 590 0
 1314 00aa 05B0     		add	sp, sp, #20
 1315              		.cfi_def_cfa_offset 36
 1316              		@ sp needed
 1317 00ac BDE8F08F 		pop	{r4, r5, r6, r7, r8, r9, r10, fp, pc}
 1318              	.L126:
 1319              		.align	2
 1320              	.L125:
 1321 00b0 00000000 		.word	gGSMData
 1322 00b4 3C440000 		.word	gGSMData+17468
 1323              		.cfi_endproc
 1324              	.LFE12:
 1325              		.size	SortPhoneBook, .-SortPhoneBook
 1326              		.section	.text.SelectPHBook,"ax",%progbits
 1327              		.align	1
 1328              		.global	SelectPHBook
 1329              		.thumb
 1330              		.thumb_func
 1331              		.type	SelectPHBook, %function
 1332              	SelectPHBook:
 1333              	.LFB13:
 600:src/wavecom.c ****   if (gGSMData.d_used_count != 0)
 1334              		.loc 1 600 0
 1335              		.cfi_startproc
 1336              		@ args = 0, pretend = 0, frame = 0
 1337              		@ frame_needed = 0, uses_anonymous_args = 0
 1338              	.LVL155:
 1339 0000 2DE9F041 		push	{r4, r5, r6, r7, r8, lr}
 1340              		.cfi_def_cfa_offset 24
 1341              		.cfi_offset 4, -24
 1342              		.cfi_offset 5, -20
 1343              		.cfi_offset 6, -16
 1344              		.cfi_offset 7, -12
 1345              		.cfi_offset 8, -8
ARM GAS  C:\Users\AHMED~1.ELE\AppData\Local\Temp\ccAQ67OG.s 			page 50


 1346              		.cfi_offset 14, -4
 601:src/wavecom.c ****     return TRUE;
 1347              		.loc 1 601 0
 1348 0004 364E     		ldr	r6, .L146
 600:src/wavecom.c ****   if (gGSMData.d_used_count != 0)
 1349              		.loc 1 600 0
 1350 0006 0546     		mov	r5, r0
 601:src/wavecom.c ****     return TRUE;
 1351              		.loc 1 601 0
 1352 0008 B36A     		ldr	r3, [r6, #40]
 1353 000a 002B     		cmp	r3, #0
 1354 000c 62D1     		bne	.L132
 604:src/wavecom.c ****   sprintf(gAtCmdIn, "AT+CPBS=\"%s\"\r\n", KBookID[aID]);
 1355              		.loc 1 604 0
 1356 000e FFF7FEFF 		bl	ClearCmdBuf
 1357              	.LVL156:
 605:src/wavecom.c **** 
 1358              		.loc 1 605 0
 1359 0012 344B     		ldr	r3, .L146+4
 1360 0014 3449     		ldr	r1, .L146+8
 1361 0016 03EB8503 		add	r3, r3, r5, lsl #2
 1362 001a 3448     		ldr	r0, .L146+12
 1363 001c DA68     		ldr	r2, [r3, #12]
 1364 001e FFF7FEFF 		bl	sprintf
 1365              	.LVL157:
 607:src/wavecom.c ****     return FALSE;
 1366              		.loc 1 607 0
 1367 0022 3248     		ldr	r0, .L146+12
 1368 0024 0221     		movs	r1, #2
 605:src/wavecom.c **** 
 1369              		.loc 1 605 0
 1370 0026 324C     		ldr	r4, .L146+16
 607:src/wavecom.c ****     return FALSE;
 1371              		.loc 1 607 0
 1372 0028 FFF7FEFF 		bl	SendWaitRsp
 1373              	.LVL158:
 1374 002c 0028     		cmp	r0, #0
 1375 002e 54D0     		beq	.L131
 610:src/wavecom.c ****     return FALSE;
 1376              		.loc 1 610 0
 1377 0030 2046     		mov	r0, r4
 1378 0032 3049     		ldr	r1, .L146+20
 1379 0034 FFF7FEFF 		bl	strstr
 1380              	.LVL159:
 1381 0038 0028     		cmp	r0, #0
 1382 003a 4ED0     		beq	.L131
 1383              	.LVL160:
 1384              	.LBB18:
 1385              	.LBB19:
 372:src/wavecom.c ****     return FALSE;
 1386              		.loc 1 372 0
 1387 003c 2E48     		ldr	r0, .L146+24
 1388 003e 0221     		movs	r1, #2
 1389 0040 FFF7FEFF 		bl	SendWaitRsp
 1390              	.LVL161:
 1391 0044 0028     		cmp	r0, #0
 1392 0046 48D0     		beq	.L131
ARM GAS  C:\Users\AHMED~1.ELE\AppData\Local\Temp\ccAQ67OG.s 			page 51


 376:src/wavecom.c ****   if (ptr == NULL)
 1393              		.loc 1 376 0
 1394 0048 2046     		mov	r0, r4
 1395 004a 2C49     		ldr	r1, .L146+28
 1396 004c FFF7FEFF 		bl	strstr
 1397              	.LVL162:
 377:src/wavecom.c ****     return FALSE;
 1398              		.loc 1 377 0
 1399 0050 0746     		mov	r7, r0
 1400 0052 0028     		cmp	r0, #0
 1401 0054 41D0     		beq	.L131
 380:src/wavecom.c **** 
 1402              		.loc 1 380 0
 1403 0056 2046     		mov	r0, r4
 1404              	.LVL163:
 1405 0058 FFF7FEFF 		bl	strlen
 1406              	.LVL164:
 1407 005c E41B     		subs	r4, r4, r7
 383:src/wavecom.c ****   if (idx1 == r_len)
 1408              		.loc 1 383 0
 1409 005e 2021     		movs	r1, #32
 380:src/wavecom.c **** 
 1410              		.loc 1 380 0
 1411 0060 0444     		add	r4, r4, r0
 1412              	.LVL165:
 383:src/wavecom.c ****   if (idx1 == r_len)
 1413              		.loc 1 383 0
 1414 0062 2246     		mov	r2, r4
 1415 0064 3846     		mov	r0, r7
 1416 0066 FFF7FEFF 		bl	fndb
 1417              	.LVL166:
 384:src/wavecom.c ****     return FALSE;
 1418              		.loc 1 384 0
 1419 006a A042     		cmp	r0, r4
 383:src/wavecom.c ****   if (idx1 == r_len)
 1420              		.loc 1 383 0
 1421 006c 0546     		mov	r5, r0
 1422              	.LVL167:
 384:src/wavecom.c ****     return FALSE;
 1423              		.loc 1 384 0
 1424 006e 34D0     		beq	.L131
 388:src/wavecom.c ****   if (idx2 == r_len)
 1425              		.loc 1 388 0
 1426 0070 00F10108 		add	r8, r0, #1
 387:src/wavecom.c ****   idx2 = fndb(ptr+idx1+1, ',', r_len);      // find 1st comma
 1427              		.loc 1 387 0
 1428 0074 241A     		subs	r4, r4, r0
 1429              	.LVL168:
 388:src/wavecom.c ****   if (idx2 == r_len)
 1430              		.loc 1 388 0
 1431 0076 B844     		add	r8, r8, r7
 1432 0078 4046     		mov	r0, r8
 1433              	.LVL169:
 1434 007a 2C21     		movs	r1, #44
 1435 007c 2246     		mov	r2, r4
 1436 007e FFF7FEFF 		bl	fndb
 1437              	.LVL170:
ARM GAS  C:\Users\AHMED~1.ELE\AppData\Local\Temp\ccAQ67OG.s 			page 52


 389:src/wavecom.c ****     return FALSE;
 1438              		.loc 1 389 0
 1439 0082 A042     		cmp	r0, r4
 1440 0084 29D0     		beq	.L131
 393:src/wavecom.c ****   if (idx3 == r_len)
 1441              		.loc 1 393 0
 1442 0086 0544     		add	r5, r5, r0
 1443              	.LVL171:
 392:src/wavecom.c ****   idx3 = fndb(ptr+idx1+idx2+1, '\r', r_len);     // find '\r'
 1444              		.loc 1 392 0
 1445 0088 241A     		subs	r4, r4, r0
 1446              	.LVL172:
 393:src/wavecom.c ****   if (idx3 == r_len)
 1447              		.loc 1 393 0
 1448 008a 681C     		adds	r0, r5, #1
 1449              	.LVL173:
 1450 008c 3844     		add	r0, r0, r7
 1451 008e 0D21     		movs	r1, #13
 1452 0090 2246     		mov	r2, r4
 1453 0092 FFF7FEFF 		bl	fndb
 1454              	.LVL174:
 394:src/wavecom.c ****     return FALSE;
 1455              		.loc 1 394 0
 1456 0096 A042     		cmp	r0, r4
 1457 0098 1FD0     		beq	.L131
 1458              	.LVL175:
 399:src/wavecom.c ****   *aNameSize= (WORD)Asc2DWVAL(ptr+idx2+1, 3);
 1459              		.loc 1 399 0
 1460 009a 4046     		mov	r0, r8
 1461              	.LVL176:
 1462 009c FFF7FEFF 		bl	Asc2DWVAL.constprop.7
 1463              	.LVL177:
 1464 00a0 84B2     		uxth	r4, r0
 1465              	.LVL178:
 400:src/wavecom.c ****   return TRUE;
 1466              		.loc 1 400 0
 1467 00a2 A81C     		adds	r0, r5, #2
 399:src/wavecom.c ****   *aNameSize= (WORD)Asc2DWVAL(ptr+idx2+1, 3);
 1468              		.loc 1 399 0
 1469 00a4 F461     		str	r4, [r6, #28]
 400:src/wavecom.c ****   return TRUE;
 1470              		.loc 1 400 0
 1471 00a6 3844     		add	r0, r0, r7
 1472 00a8 FFF7FEFF 		bl	Asc2DWVAL.constprop.7
 1473              	.LVL179:
 1474              	.LBE19:
 1475              	.LBE18:
 616:src/wavecom.c ****   gGSMData.d_max_name_size = gGSMData.d_max_name_size > MAX_NAME_SIZE ? MAX_PHNUM_SIZE: gGSMData.d_
 1476              		.loc 1 616 0
 1477 00ac 1F2C     		cmp	r4, #31
 1478 00ae 28BF     		it	cs
 1479 00b0 1F24     		movcs	r4, #31
 619:src/wavecom.c ****     return FALSE;
 1480              		.loc 1 619 0
 1481 00b2 06F12401 		add	r1, r6, #36
 1482              	.LBB21:
 1483              	.LBB20:
ARM GAS  C:\Users\AHMED~1.ELE\AppData\Local\Temp\ccAQ67OG.s 			page 53


 400:src/wavecom.c ****   return TRUE;
 1484              		.loc 1 400 0
 1485 00b6 80B2     		uxth	r0, r0
 1486              	.LBE20:
 1487              	.LBE21:
 617:src/wavecom.c **** 
 1488              		.loc 1 617 0
 1489 00b8 1F28     		cmp	r0, #31
 1490 00ba 28BF     		it	cs
 1491 00bc 1F20     		movcs	r0, #31
 616:src/wavecom.c ****   gGSMData.d_max_name_size = gGSMData.d_max_name_size > MAX_NAME_SIZE ? MAX_PHNUM_SIZE: gGSMData.d_
 1492              		.loc 1 616 0
 1493 00be F461     		str	r4, [r6, #28]
 617:src/wavecom.c **** 
 1494              		.loc 1 617 0
 1495 00c0 3062     		str	r0, [r6, #32]
 619:src/wavecom.c ****     return FALSE;
 1496              		.loc 1 619 0
 1497 00c2 06F12800 		add	r0, r6, #40
 1498 00c6 FFF7FEFF 		bl	GetPHBCapcity
 1499              	.LVL180:
 1500 00ca 30B1     		cbz	r0, .L131
 622:src/wavecom.c ****   SortPhoneBook();
 1501              		.loc 1 622 0
 1502 00cc FFF7FEFF 		bl	LoadPhoneBook
 1503              	.LVL181:
 623:src/wavecom.c **** 
 1504              		.loc 1 623 0
 1505 00d0 FFF7FEFF 		bl	SortPhoneBook
 1506              	.LVL182:
 1507              	.L132:
 602:src/wavecom.c **** 
 1508              		.loc 1 602 0
 1509 00d4 0120     		movs	r0, #1
 1510 00d6 BDE8F081 		pop	{r4, r5, r6, r7, r8, pc}
 1511              	.L131:
 614:src/wavecom.c **** 
 1512              		.loc 1 614 0
 1513 00da 0020     		movs	r0, #0
 626:src/wavecom.c **** //*****************************************************************************
 1514              		.loc 1 626 0
 1515 00dc BDE8F081 		pop	{r4, r5, r6, r7, r8, pc}
 1516              	.L147:
 1517              		.align	2
 1518              	.L146:
 1519 00e0 00000000 		.word	gGSMData
 1520 00e4 00000000 		.word	.LANCHOR1
 1521 00e8 6B000000 		.word	.LC13
 1522 00ec DD050000 		.word	.LANCHOR0+1501
 1523 00f0 00000000 		.word	.LANCHOR0
 1524 00f4 00000000 		.word	.LC1
 1525 00f8 7A000000 		.word	.LC14
 1526 00fc 86000000 		.word	.LC15
 1527              		.cfi_endproc
 1528              	.LFE13:
 1529              		.size	SelectPHBook, .-SelectPHBook
 1530              		.section	.text.WriteContact,"ax",%progbits
ARM GAS  C:\Users\AHMED~1.ELE\AppData\Local\Temp\ccAQ67OG.s 			page 54


 1531              		.align	1
 1532              		.global	WriteContact
 1533              		.thumb
 1534              		.thumb_func
 1535              		.type	WriteContact, %function
 1536              	WriteContact:
 1537              	.LFB14:
 637:src/wavecom.c ****   if (aRec->d_idx) {
 1538              		.loc 1 637 0
 1539              		.cfi_startproc
 1540              		@ args = 0, pretend = 0, frame = 0
 1541              		@ frame_needed = 0, uses_anonymous_args = 0
 1542              	.LVL183:
 638:src/wavecom.c ****     sprintf((char *)gAtCmdIn, "AT+CPBW=%d,\"", aRec->d_idx);
 1543              		.loc 1 638 0
 1544 0000 026C     		ldr	r2, [r0, #64]
 637:src/wavecom.c ****   if (aRec->d_idx) {
 1545              		.loc 1 637 0
 1546 0002 70B5     		push	{r4, r5, r6, lr}
 1547              		.cfi_def_cfa_offset 16
 1548              		.cfi_offset 4, -16
 1549              		.cfi_offset 5, -12
 1550              		.cfi_offset 6, -8
 1551              		.cfi_offset 14, -4
 637:src/wavecom.c ****   if (aRec->d_idx) {
 1552              		.loc 1 637 0
 1553 0004 0646     		mov	r6, r0
 1554 0006 0D46     		mov	r5, r1
 1555 0008 1A4C     		ldr	r4, .L157
 639:src/wavecom.c ****     memcpy((BYTE *)&gGSMData.s_PHBook[aCurrRec], (BYTE *)&gGSMData.s_CurrPHB,
 1556              		.loc 1 639 0
 1557 000a 1B48     		ldr	r0, .L157+4
 1558              	.LVL184:
 638:src/wavecom.c ****     sprintf((char *)gAtCmdIn, "AT+CPBW=%d,\"", aRec->d_idx);
 1559              		.loc 1 638 0
 1560 000c 1AB1     		cbz	r2, .L149
 639:src/wavecom.c ****     memcpy((BYTE *)&gGSMData.s_PHBook[aCurrRec], (BYTE *)&gGSMData.s_CurrPHB,
 1561              		.loc 1 639 0
 1562 000e 1B49     		ldr	r1, .L157+8
 1563              	.LVL185:
 1564 0010 FFF7FEFF 		bl	sprintf
 1565              	.LVL186:
 1566 0014 02E0     		b	.L156
 1567              	.LVL187:
 1568              	.L149:
 644:src/wavecom.c ****     memcpy((BYTE *)&gGSMData.s_PHBook[aCurrRec], (BYTE *)&gGSMData.s_CurrPHB,
 1569              		.loc 1 644 0
 1570 0016 1A49     		ldr	r1, .L157+12
 1571              	.LVL188:
 1572 0018 FFF7FEFF 		bl	strcpy
 1573              	.LVL189:
 1574              	.L156:
 645:src/wavecom.c ****            sizeof(struct PHONE_LIST));
 1575              		.loc 1 645 0
 1576 001c 4422     		movs	r2, #68
 1577 001e 1949     		ldr	r1, .L157+16
 1578 0020 02FB0540 		mla	r0, r2, r5, r4
ARM GAS  C:\Users\AHMED~1.ELE\AppData\Local\Temp\ccAQ67OG.s 			page 55


 1579 0024 3C30     		adds	r0, r0, #60
 1580 0026 FFF7FEFF 		bl	memcpy
 1581              	.LVL190:
 649:src/wavecom.c ****   strcat(gAtCmdIn, "\",129,\"");
 1582              		.loc 1 649 0
 1583 002a 06F12001 		add	r1, r6, #32
 1584 002e 1248     		ldr	r0, .L157+4
 1585 0030 FFF7FEFF 		bl	strcat
 1586              	.LVL191:
 650:src/wavecom.c ****   strcat(gAtCmdIn, aRec->sb_name);
 1587              		.loc 1 650 0
 1588 0034 1449     		ldr	r1, .L157+20
 1589 0036 1048     		ldr	r0, .L157+4
 1590 0038 FFF7FEFF 		bl	strcat
 1591              	.LVL192:
 651:src/wavecom.c ****   strcat(gAtCmdIn, "\"\r\n");
 1592              		.loc 1 651 0
 1593 003c 3146     		mov	r1, r6
 1594 003e 0E48     		ldr	r0, .L157+4
 1595 0040 FFF7FEFF 		bl	strcat
 1596              	.LVL193:
 652:src/wavecom.c **** 
 1597              		.loc 1 652 0
 1598 0044 1149     		ldr	r1, .L157+24
 1599 0046 0C48     		ldr	r0, .L157+4
 1600 0048 FFF7FEFF 		bl	strcat
 1601              	.LVL194:
 654:src/wavecom.c ****     return FALSE;
 1602              		.loc 1 654 0
 1603 004c 0A48     		ldr	r0, .L157+4
 1604 004e 0221     		movs	r1, #2
 1605 0050 FFF7FEFF 		bl	SendWaitRsp
 1606              	.LVL195:
 1607 0054 60B1     		cbz	r0, .L151
 657:src/wavecom.c ****     gGSMData.d_used_count++;
 1608              		.loc 1 657 0
 1609 0056 336C     		ldr	r3, [r6, #64]
 1610 0058 3BB9     		cbnz	r3, .L152
 658:src/wavecom.c ****     gGSMData.d_total_count++;
 1611              		.loc 1 658 0
 1612 005a A36A     		ldr	r3, [r4, #40]
 1613 005c 0133     		adds	r3, r3, #1
 1614 005e A362     		str	r3, [r4, #40]
 659:src/wavecom.c ****     LoadPhoneBook();
 1615              		.loc 1 659 0
 1616 0060 636A     		ldr	r3, [r4, #36]
 1617 0062 0133     		adds	r3, r3, #1
 1618 0064 6362     		str	r3, [r4, #36]
 660:src/wavecom.c ****   }
 1619              		.loc 1 660 0
 1620 0066 FFF7FEFF 		bl	LoadPhoneBook
 1621              	.LVL196:
 1622              	.L152:
 662:src/wavecom.c ****   return TRUE;
 1623              		.loc 1 662 0
 1624 006a FFF7FEFF 		bl	SortPhoneBook
 1625              	.LVL197:
ARM GAS  C:\Users\AHMED~1.ELE\AppData\Local\Temp\ccAQ67OG.s 			page 56


 663:src/wavecom.c **** }
 1626              		.loc 1 663 0
 1627 006e 0120     		movs	r0, #1
 1628              	.L151:
 664:src/wavecom.c **** //*****************************************************************************
 1629              		.loc 1 664 0
 1630 0070 70BD     		pop	{r4, r5, r6, pc}
 1631              	.LVL198:
 1632              	.L158:
 1633 0072 00BF     		.align	2
 1634              	.L157:
 1635 0074 00000000 		.word	gGSMData
 1636 0078 DD050000 		.word	.LANCHOR0+1501
 1637 007c 8D000000 		.word	.LC16
 1638 0080 9A000000 		.word	.LC17
 1639 0084 3C440000 		.word	gGSMData+17468
 1640 0088 A5000000 		.word	.LC18
 1641 008c AD000000 		.word	.LC19
 1642              		.cfi_endproc
 1643              	.LFE14:
 1644              		.size	WriteContact, .-WriteContact
 1645              		.section	.text.DelContact,"ax",%progbits
 1646              		.align	1
 1647              		.global	DelContact
 1648              		.thumb
 1649              		.thumb_func
 1650              		.type	DelContact, %function
 1651              	DelContact:
 1652              	.LFB15:
 675:src/wavecom.c ****   DWORD i;
 1653              		.loc 1 675 0
 1654              		.cfi_startproc
 1655              		@ args = 0, pretend = 0, frame = 0
 1656              		@ frame_needed = 0, uses_anonymous_args = 0
 1657              	.LVL199:
 1658 0000 70B5     		push	{r4, r5, r6, lr}
 1659              		.cfi_def_cfa_offset 16
 1660              		.cfi_offset 4, -16
 1661              		.cfi_offset 5, -12
 1662              		.cfi_offset 6, -8
 1663              		.cfi_offset 14, -4
 675:src/wavecom.c ****   DWORD i;
 1664              		.loc 1 675 0
 1665 0002 0246     		mov	r2, r0
 1666 0004 0C46     		mov	r4, r1
 677:src/wavecom.c ****   if (!SendWaitRsp(gAtCmdIn, WAIT_OK))
 1667              		.loc 1 677 0
 1668 0006 1248     		ldr	r0, .L167
 1669              	.LVL200:
 1670 0008 1249     		ldr	r1, .L167+4
 1671              	.LVL201:
 1672 000a FFF7FEFF 		bl	sprintf
 1673              	.LVL202:
 678:src/wavecom.c ****     return FALSE;
 1674              		.loc 1 678 0
 1675 000e 1048     		ldr	r0, .L167
 1676 0010 0221     		movs	r1, #2
ARM GAS  C:\Users\AHMED~1.ELE\AppData\Local\Temp\ccAQ67OG.s 			page 57


 1677 0012 FFF7FEFF 		bl	SendWaitRsp
 1678              	.LVL203:
 1679 0016 C8B1     		cbz	r0, .L160
 1680 0018 4426     		movs	r6, #68
 1681 001a 0025     		movs	r5, #0
 1682 001c 6643     		muls	r6, r4, r6
 1683              	.LVL204:
 1684              	.L161:
 682:src/wavecom.c ****     memcpy((BYTE *)&gGSMData.s_PHBook[i], (BYTE *)&gGSMData.s_PHBook[i+1],
 1685              		.loc 1 682 0 discriminator 1
 1686 001e 0E4B     		ldr	r3, .L167+8
 1687 0020 4435     		adds	r5, r5, #68
 1688 0022 9A6A     		ldr	r2, [r3, #40]
 1689 0024 9442     		cmp	r4, r2
 1690 0026 09D2     		bcs	.L166
 1691 0028 A919     		adds	r1, r5, r6
 1692 002a 1944     		add	r1, r1, r3
 683:src/wavecom.c ****            sizeof(struct PHONE_LIST));
 1693              		.loc 1 683 0 discriminator 3
 1694 002c A1F10800 		sub	r0, r1, #8
 1695 0030 4422     		movs	r2, #68
 1696 0032 3C31     		adds	r1, r1, #60
 1697 0034 0134     		adds	r4, r4, #1
 1698              	.LVL205:
 1699 0036 FFF7FEFF 		bl	memcpy
 1700              	.LVL206:
 1701 003a F0E7     		b	.L161
 1702              	.L166:
 686:src/wavecom.c ****   gGSMData.d_total_count--;
 1703              		.loc 1 686 0
 1704 003c 013A     		subs	r2, r2, #1
 1705 003e 9A62     		str	r2, [r3, #40]
 687:src/wavecom.c ****   SortPhoneBook();
 1706              		.loc 1 687 0
 1707 0040 5A6A     		ldr	r2, [r3, #36]
 1708 0042 013A     		subs	r2, r2, #1
 1709 0044 5A62     		str	r2, [r3, #36]
 688:src/wavecom.c ****   return TRUE;
 1710              		.loc 1 688 0
 1711 0046 FFF7FEFF 		bl	SortPhoneBook
 1712              	.LVL207:
 689:src/wavecom.c **** }
 1713              		.loc 1 689 0
 1714 004a 0120     		movs	r0, #1
 1715              	.LVL208:
 1716              	.L160:
 690:src/wavecom.c **** //*****************************************************************************
 1717              		.loc 1 690 0
 1718 004c 70BD     		pop	{r4, r5, r6, pc}
 1719              	.L168:
 1720 004e 00BF     		.align	2
 1721              	.L167:
 1722 0050 DD050000 		.word	.LANCHOR0+1501
 1723 0054 B1000000 		.word	.LC20
 1724 0058 00000000 		.word	gGSMData
 1725              		.cfi_endproc
 1726              	.LFE15:
ARM GAS  C:\Users\AHMED~1.ELE\AppData\Local\Temp\ccAQ67OG.s 			page 58


 1727              		.size	DelContact, .-DelContact
 1728              		.section	.text.AllCallForward,"ax",%progbits
 1729              		.align	1
 1730              		.global	AllCallForward
 1731              		.thumb
 1732              		.thumb_func
 1733              		.type	AllCallForward, %function
 1734              	AllCallForward:
 1735              	.LFB16:
 701:src/wavecom.c ****   ClearCmdBuf();
 1736              		.loc 1 701 0
 1737              		.cfi_startproc
 1738              		@ args = 0, pretend = 0, frame = 0
 1739              		@ frame_needed = 0, uses_anonymous_args = 0
 1740              	.LVL209:
 1741 0000 38B5     		push	{r3, r4, r5, lr}
 1742              		.cfi_def_cfa_offset 16
 1743              		.cfi_offset 3, -16
 1744              		.cfi_offset 4, -12
 1745              		.cfi_offset 5, -8
 1746              		.cfi_offset 14, -4
 701:src/wavecom.c ****   ClearCmdBuf();
 1747              		.loc 1 701 0
 1748 0002 0D46     		mov	r5, r1
 1749 0004 0446     		mov	r4, r0
 702:src/wavecom.c ****   if (cancel)
 1750              		.loc 1 702 0
 1751 0006 FFF7FEFF 		bl	ClearCmdBuf
 1752              	.LVL210:
 704:src/wavecom.c ****   else   // divert to a telephone number
 1753              		.loc 1 704 0
 1754 000a 0B48     		ldr	r0, .L176
 703:src/wavecom.c ****     strcpy(gAtCmdIn, "AT+CCFC=0,4\r\n");
 1755              		.loc 1 703 0
 1756 000c 1DB1     		cbz	r5, .L170
 704:src/wavecom.c ****   else   // divert to a telephone number
 1757              		.loc 1 704 0
 1758 000e 0B49     		ldr	r1, .L176+4
 1759 0010 FFF7FEFF 		bl	strcpy
 1760              	.LVL211:
 1761 0014 03E0     		b	.L171
 1762              	.L170:
 709:src/wavecom.c **** #endif    
 1763              		.loc 1 709 0
 1764 0016 0A49     		ldr	r1, .L176+8
 1765 0018 2246     		mov	r2, r4
 1766 001a FFF7FEFF 		bl	sprintf
 1767              	.LVL212:
 1768              	.L171:
 711:src/wavecom.c ****     return FALSE;
 1769              		.loc 1 711 0
 1770 001e 0648     		ldr	r0, .L176
 1771 0020 0221     		movs	r1, #2
 1772 0022 FFF7FEFF 		bl	SendWaitRsp
 1773              	.LVL213:
 1774 0026 30B1     		cbz	r0, .L172
 714:src/wavecom.c ****     return TRUE;
ARM GAS  C:\Users\AHMED~1.ELE\AppData\Local\Temp\ccAQ67OG.s 			page 59


 1775              		.loc 1 714 0
 1776 0028 0648     		ldr	r0, .L176+12
 1777 002a 0749     		ldr	r1, .L176+16
 1778 002c FFF7FEFF 		bl	strstr
 1779              	.LVL214:
 712:src/wavecom.c **** 
 1780              		.loc 1 712 0
 1781 0030 0030     		adds	r0, r0, #0
 1782 0032 18BF     		it	ne
 1783 0034 0120     		movne	r0, #1
 1784              	.L172:
 717:src/wavecom.c **** //*****************************************************************************
 1785              		.loc 1 717 0
 1786 0036 38BD     		pop	{r3, r4, r5, pc}
 1787              	.LVL215:
 1788              	.L177:
 1789              		.align	2
 1790              	.L176:
 1791 0038 DD050000 		.word	.LANCHOR0+1501
 1792 003c BE000000 		.word	.LC21
 1793 0040 CC000000 		.word	.LC22
 1794 0044 00000000 		.word	.LANCHOR0
 1795 0048 00000000 		.word	.LC1
 1796              		.cfi_endproc
 1797              	.LFE16:
 1798              		.size	AllCallForward, .-AllCallForward
 1799              		.section	.text.MakeCall,"ax",%progbits
 1800              		.align	1
 1801              		.global	MakeCall
 1802              		.thumb
 1803              		.thumb_func
 1804              		.type	MakeCall, %function
 1805              	MakeCall:
 1806              	.LFB17:
 727:src/wavecom.c ****   strcpy(gAtCmdIn, "ATD");
 1807              		.loc 1 727 0
 1808              		.cfi_startproc
 1809              		@ args = 0, pretend = 0, frame = 0
 1810              		@ frame_needed = 0, uses_anonymous_args = 0
 1811              	.LVL216:
 1812 0000 38B5     		push	{r3, r4, r5, lr}
 1813              		.cfi_def_cfa_offset 16
 1814              		.cfi_offset 3, -16
 1815              		.cfi_offset 4, -12
 1816              		.cfi_offset 5, -8
 1817              		.cfi_offset 14, -4
 728:src/wavecom.c ****   strcat(gAtCmdIn, pPhoneNum);
 1818              		.loc 1 728 0
 1819 0002 0C4C     		ldr	r4, .L179
 727:src/wavecom.c ****   strcpy(gAtCmdIn, "ATD");
 1820              		.loc 1 727 0
 1821 0004 0546     		mov	r5, r0
 728:src/wavecom.c ****   strcat(gAtCmdIn, pPhoneNum);
 1822              		.loc 1 728 0
 1823 0006 0C49     		ldr	r1, .L179+4
 1824 0008 2046     		mov	r0, r4
 1825              	.LVL217:
ARM GAS  C:\Users\AHMED~1.ELE\AppData\Local\Temp\ccAQ67OG.s 			page 60


 1826 000a FFF7FEFF 		bl	strcpy
 1827              	.LVL218:
 729:src/wavecom.c ****   strcat(gAtCmdIn, ";\r\n");
 1828              		.loc 1 729 0
 1829 000e 2946     		mov	r1, r5
 1830 0010 2046     		mov	r0, r4
 1831 0012 FFF7FEFF 		bl	strcat
 1832              	.LVL219:
 730:src/wavecom.c **** 
 1833              		.loc 1 730 0
 1834 0016 0949     		ldr	r1, .L179+8
 1835 0018 2046     		mov	r0, r4
 1836 001a FFF7FEFF 		bl	strcat
 1837              	.LVL220:
 732:src/wavecom.c **** #if (TIRO)  
 1838              		.loc 1 732 0
 1839 001e FFF7FEFF 		bl	ClearCmdBuf
 1840              	.LVL221:
 736:src/wavecom.c **** #endif      
 1841              		.loc 1 736 0
 1842 0022 2046     		mov	r0, r4
 1843 0024 0021     		movs	r1, #0
 1844 0026 FFF7FEFF 		bl	SendWaitRsp
 1845              	.LVL222:
 741:src/wavecom.c **** //*****************************************************************************
 1846              		.loc 1 741 0
 1847 002a 0030     		adds	r0, r0, #0
 1848 002c 18BF     		it	ne
 1849 002e 0120     		movne	r0, #1
 1850 0030 38BD     		pop	{r3, r4, r5, pc}
 1851              	.LVL223:
 1852              	.L180:
 1853 0032 00BF     		.align	2
 1854              	.L179:
 1855 0034 DD050000 		.word	.LANCHOR0+1501
 1856 0038 DF000000 		.word	.LC23
 1857 003c E3000000 		.word	.LC24
 1858              		.cfi_endproc
 1859              	.LFE17:
 1860              		.size	MakeCall, .-MakeCall
 1861              		.section	.text.MakeReqCall,"ax",%progbits
 1862              		.align	1
 1863              		.global	MakeReqCall
 1864              		.thumb
 1865              		.thumb_func
 1866              		.type	MakeReqCall, %function
 1867              	MakeReqCall:
 1868              	.LFB18:
 751:src/wavecom.c ****   strcpy(gAtCmdIn, "ATD");
 1869              		.loc 1 751 0
 1870              		.cfi_startproc
 1871              		@ args = 0, pretend = 0, frame = 0
 1872              		@ frame_needed = 0, uses_anonymous_args = 0
 1873              	.LVL224:
 1874 0000 10B5     		push	{r4, lr}
 1875              		.cfi_def_cfa_offset 8
 1876              		.cfi_offset 4, -8
ARM GAS  C:\Users\AHMED~1.ELE\AppData\Local\Temp\ccAQ67OG.s 			page 61


 1877              		.cfi_offset 14, -4
 752:src/wavecom.c ****   strcat(gAtCmdIn, pPhoneNum);
 1878              		.loc 1 752 0
 1879 0002 0D49     		ldr	r1, .L186
 751:src/wavecom.c ****   strcpy(gAtCmdIn, "ATD");
 1880              		.loc 1 751 0
 1881 0004 0446     		mov	r4, r0
 752:src/wavecom.c ****   strcat(gAtCmdIn, pPhoneNum);
 1882              		.loc 1 752 0
 1883 0006 0D48     		ldr	r0, .L186+4
 1884              	.LVL225:
 1885 0008 FFF7FEFF 		bl	strcpy
 1886              	.LVL226:
 753:src/wavecom.c ****   strcat(gAtCmdIn, "\r\n");
 1887              		.loc 1 753 0
 1888 000c 2146     		mov	r1, r4
 1889 000e 0B48     		ldr	r0, .L186+4
 1890 0010 FFF7FEFF 		bl	strcat
 1891              	.LVL227:
 754:src/wavecom.c **** 
 1892              		.loc 1 754 0
 1893 0014 0A49     		ldr	r1, .L186+8
 1894 0016 0948     		ldr	r0, .L186+4
 1895 0018 FFF7FEFF 		bl	strcat
 1896              	.LVL228:
 756:src/wavecom.c ****     if (strstr(gAtCmdOut, "OK"))
 1897              		.loc 1 756 0
 1898 001c 0748     		ldr	r0, .L186+4
 1899 001e 0221     		movs	r1, #2
 1900 0020 FFF7FEFF 		bl	SendWaitRsp
 1901              	.LVL229:
 1902 0024 30B1     		cbz	r0, .L182
 757:src/wavecom.c ****       return TRUE;
 1903              		.loc 1 757 0
 1904 0026 0748     		ldr	r0, .L186+12
 1905 0028 0749     		ldr	r1, .L186+16
 1906 002a FFF7FEFF 		bl	strstr
 1907              	.LVL230:
 758:src/wavecom.c ****   }
 1908              		.loc 1 758 0
 1909 002e 0030     		adds	r0, r0, #0
 1910 0030 18BF     		it	ne
 1911 0032 0120     		movne	r0, #1
 1912              	.L182:
 762:src/wavecom.c **** //*****************************************************************************
 1913              		.loc 1 762 0
 1914 0034 10BD     		pop	{r4, pc}
 1915              	.LVL231:
 1916              	.L187:
 1917 0036 00BF     		.align	2
 1918              	.L186:
 1919 0038 DF000000 		.word	.LC23
 1920 003c DD050000 		.word	.LANCHOR0+1501
 1921 0040 E7000000 		.word	.LC25
 1922 0044 00000000 		.word	.LANCHOR0
 1923 0048 00000000 		.word	.LC1
 1924              		.cfi_endproc
ARM GAS  C:\Users\AHMED~1.ELE\AppData\Local\Temp\ccAQ67OG.s 			page 62


 1925              	.LFE18:
 1926              		.size	MakeReqCall, .-MakeReqCall
 1927              		.section	.text.CheckCallStatus,"ax",%progbits
 1928              		.align	1
 1929              		.global	CheckCallStatus
 1930              		.thumb
 1931              		.thumb_func
 1932              		.type	CheckCallStatus, %function
 1933              	CheckCallStatus:
 1934              	.LFB19:
 772:src/wavecom.c **** #if (T800)
 1935              		.loc 1 772 0
 1936              		.cfi_startproc
 1937              		@ args = 0, pretend = 0, frame = 32
 1938              		@ frame_needed = 0, uses_anonymous_args = 0
 1939 0000 F0B5     		push	{r4, r5, r6, r7, lr}
 1940              		.cfi_def_cfa_offset 20
 1941              		.cfi_offset 4, -20
 1942              		.cfi_offset 5, -16
 1943              		.cfi_offset 6, -12
 1944              		.cfi_offset 7, -8
 1945              		.cfi_offset 14, -4
 799:src/wavecom.c ****   sprintf(tmpbuf, "Status:%04X", status);
 1946              		.loc 1 799 0
 1947 0002 1C4B     		ldr	r3, .L195
 772:src/wavecom.c **** #if (T800)
 1948              		.loc 1 772 0
 1949 0004 8BB0     		sub	sp, sp, #44
 1950              		.cfi_def_cfa_offset 64
 799:src/wavecom.c ****   sprintf(tmpbuf, "Status:%04X", status);
 1951              		.loc 1 799 0
 1952 0006 0027     		movs	r7, #0
 1953 0008 0821     		movs	r1, #8
 1954 000a 0097     		str	r7, [sp]
 1955 000c 0F20     		movs	r0, #15
 1956 000e 1A68     		ldr	r2, [r3]
 1957 0010 4FF0FF33 		mov	r3, #-1
 1958 0014 FFF7FEFF 		bl	lib_app_call
 1959              	.LVL232:
 800:src/wavecom.c ****   DispLineMW(tmpbuf, MW_MAX_LINE, MW_CENTER|MW_SPFONT);
 1960              		.loc 1 800 0
 1961 0018 1749     		ldr	r1, .L195+4
 799:src/wavecom.c ****   sprintf(tmpbuf, "Status:%04X", status);
 1962              		.loc 1 799 0
 1963 001a 0446     		mov	r4, r0
 1964              	.LVL233:
 800:src/wavecom.c ****   DispLineMW(tmpbuf, MW_MAX_LINE, MW_CENTER|MW_SPFONT);
 1965              		.loc 1 800 0
 1966 001c 2246     		mov	r2, r4
 1967 001e 03A8     		add	r0, sp, #12
 1968              	.LVL234:
 1969 0020 FFF7FEFF 		bl	sprintf
 1970              	.LVL235:
 1971              	.LBB22:
 801:src/wavecom.c ****   switch (status & 0x3F) {
 1972              		.loc 1 801 0
 1973 0024 03A8     		add	r0, sp, #12
ARM GAS  C:\Users\AHMED~1.ELE\AppData\Local\Temp\ccAQ67OG.s 			page 63


 1974 0026 FFF7FEFF 		bl	strlen
 1975              	.LVL236:
 1976 002a 0646     		mov	r6, r0
 1977              	.LVL237:
 1978 002c 711C     		adds	r1, r6, #1
 1979 002e 9220     		movs	r0, #146
 1980              	.LVL238:
 1981 0030 FFF7FEFF 		bl	sys_func1
 1982              	.LVL239:
 1983 0034 0546     		mov	r5, r0
 1984 0036 90B1     		cbz	r0, .L189
 801:src/wavecom.c ****   switch (status & 0x3F) {
 1985              		.loc 1 801 0 is_stmt 0 discriminator 1
 1986 0038 03A9     		add	r1, sp, #12
 1987 003a 3246     		mov	r2, r6
 1988 003c FFF7FEFF 		bl	memcpy
 1989              	.LVL240:
 1990 0040 42F20203 		movw	r3, #8194
 1991 0044 AF55     		strb	r7, [r5, r6]
 1992 0046 2521     		movs	r1, #37
 1993 0048 0093     		str	r3, [sp]
 1994 004a 0F20     		movs	r0, #15
 1995 004c 2A46     		mov	r2, r5
 1996 004e 4FF41063 		mov	r3, #2304
 1997 0052 FFF7FEFF 		bl	lib_app_call
 1998              	.LVL241:
 1999 0056 9420     		movs	r0, #148
 2000 0058 2946     		mov	r1, r5
 2001 005a FFF7FEFF 		bl	sys_func1
 2002              	.LVL242:
 2003              	.L189:
 2004              	.LBE22:
 802:src/wavecom.c ****     case 4:
 2005              		.loc 1 802 0 is_stmt 1
 2006 005e 04F03F04 		and	r4, r4, #63
 2007              	.LVL243:
 2008 0062 043C     		subs	r4, r4, #4
 2009 0064 122C     		cmp	r4, #18
 2010 0066 8FBF     		iteee	hi
 2011 0068 0020     		movhi	r0, #0
 2012 006a 044B     		ldrls	r3, .L195+8
 2013 006c E418     		addls	r4, r4, r3
 2014 006e 207F     		ldrbls	r0, [r4, #28]	@ zero_extendqisi2
 2015              	.LVL244:
 821:src/wavecom.c **** //*****************************************************************************
 2016              		.loc 1 821 0
 2017 0070 0BB0     		add	sp, sp, #44
 2018              		.cfi_def_cfa_offset 20
 2019              		@ sp needed
 2020 0072 F0BD     		pop	{r4, r5, r6, r7, pc}
 2021              	.LVL245:
 2022              	.L196:
 2023              		.align	2
 2024              	.L195:
 2025 0074 00000000 		.word	gGprsHandle
 2026 0078 EA000000 		.word	.LC26
 2027 007c 00000000 		.word	.LANCHOR1
ARM GAS  C:\Users\AHMED~1.ELE\AppData\Local\Temp\ccAQ67OG.s 			page 64


 2028              		.cfi_endproc
 2029              	.LFE19:
 2030              		.size	CheckCallStatus, .-CheckCallStatus
 2031              		.section	.text.AnswerCall,"ax",%progbits
 2032              		.align	1
 2033              		.global	AnswerCall
 2034              		.thumb
 2035              		.thumb_func
 2036              		.type	AnswerCall, %function
 2037              	AnswerCall:
 2038              	.LFB20:
 831:src/wavecom.c ****   strcpy(gAtCmdIn, "ATA\r\n");
 2039              		.loc 1 831 0
 2040              		.cfi_startproc
 2041              		@ args = 0, pretend = 0, frame = 0
 2042              		@ frame_needed = 0, uses_anonymous_args = 0
 2043 0000 10B5     		push	{r4, lr}
 2044              		.cfi_def_cfa_offset 8
 2045              		.cfi_offset 4, -8
 2046              		.cfi_offset 14, -4
 832:src/wavecom.c ****   ClearCmdBuf();
 2047              		.loc 1 832 0
 2048 0002 074C     		ldr	r4, .L198
 2049 0004 0749     		ldr	r1, .L198+4
 2050 0006 2046     		mov	r0, r4
 2051 0008 FFF7FEFF 		bl	strcpy
 2052              	.LVL246:
 833:src/wavecom.c ****   if (SendWaitRsp(gAtCmdIn, WAIT_OK))
 2053              		.loc 1 833 0
 2054 000c FFF7FEFF 		bl	ClearCmdBuf
 2055              	.LVL247:
 834:src/wavecom.c ****     return TRUE;
 2056              		.loc 1 834 0
 2057 0010 2046     		mov	r0, r4
 2058 0012 0221     		movs	r1, #2
 2059 0014 FFF7FEFF 		bl	SendWaitRsp
 2060              	.LVL248:
 837:src/wavecom.c **** //*****************************************************************************
 2061              		.loc 1 837 0
 2062 0018 0030     		adds	r0, r0, #0
 2063 001a 18BF     		it	ne
 2064 001c 0120     		movne	r0, #1
 2065 001e 10BD     		pop	{r4, pc}
 2066              	.L199:
 2067              		.align	2
 2068              	.L198:
 2069 0020 DD050000 		.word	.LANCHOR0+1501
 2070 0024 F6000000 		.word	.LC27
 2071              		.cfi_endproc
 2072              	.LFE20:
 2073              		.size	AnswerCall, .-AnswerCall
 2074              		.section	.text.SendKeyPress,"ax",%progbits
 2075              		.align	1
 2076              		.global	SendKeyPress
 2077              		.thumb
 2078              		.thumb_func
 2079              		.type	SendKeyPress, %function
ARM GAS  C:\Users\AHMED~1.ELE\AppData\Local\Temp\ccAQ67OG.s 			page 65


 2080              	SendKeyPress:
 2081              	.LFB21:
 847:src/wavecom.c **** #if (TIRO)
 2082              		.loc 1 847 0
 2083              		.cfi_startproc
 2084              		@ args = 0, pretend = 0, frame = 0
 2085              		@ frame_needed = 0, uses_anonymous_args = 0
 2086              	.LVL249:
 2087 0000 08B5     		push	{r3, lr}
 2088              		.cfi_def_cfa_offset 8
 2089              		.cfi_offset 3, -8
 2090              		.cfi_offset 14, -4
 854:src/wavecom.c ****   if (SendWaitRsp(gAtCmdIn, WAIT_OK))
 2091              		.loc 1 854 0
 2092 0002 FFF7FEFF 		bl	ClearCmdBuf
 2093              	.LVL250:
 855:src/wavecom.c ****     return TRUE;
 2094              		.loc 1 855 0
 2095 0006 0221     		movs	r1, #2
 2096 0008 0348     		ldr	r0, .L201
 2097 000a FFF7FEFF 		bl	SendWaitRsp
 2098              	.LVL251:
 858:src/wavecom.c **** //*****************************************************************************
 2099              		.loc 1 858 0
 2100 000e 0030     		adds	r0, r0, #0
 2101 0010 18BF     		it	ne
 2102 0012 0120     		movne	r0, #1
 2103 0014 08BD     		pop	{r3, pc}
 2104              	.L202:
 2105 0016 00BF     		.align	2
 2106              	.L201:
 2107 0018 DD050000 		.word	.LANCHOR0+1501
 2108              		.cfi_endproc
 2109              	.LFE21:
 2110              		.size	SendKeyPress, .-SendKeyPress
 2111              		.section	.text.HangUp,"ax",%progbits
 2112              		.align	1
 2113              		.global	HangUp
 2114              		.thumb
 2115              		.thumb_func
 2116              		.type	HangUp, %function
 2117              	HangUp:
 2118              	.LFB22:
 868:src/wavecom.c ****   strcpy(gAtCmdIn, "ATH\r\n");
 2119              		.loc 1 868 0
 2120              		.cfi_startproc
 2121              		@ args = 0, pretend = 0, frame = 0
 2122              		@ frame_needed = 0, uses_anonymous_args = 0
 2123 0000 10B5     		push	{r4, lr}
 2124              		.cfi_def_cfa_offset 8
 2125              		.cfi_offset 4, -8
 2126              		.cfi_offset 14, -4
 869:src/wavecom.c ****   ClearCmdBuf();
 2127              		.loc 1 869 0
 2128 0002 074C     		ldr	r4, .L204
 2129 0004 0749     		ldr	r1, .L204+4
 2130 0006 2046     		mov	r0, r4
ARM GAS  C:\Users\AHMED~1.ELE\AppData\Local\Temp\ccAQ67OG.s 			page 66


 2131 0008 FFF7FEFF 		bl	strcpy
 2132              	.LVL252:
 870:src/wavecom.c ****   if (SendWaitRsp(gAtCmdIn, WAIT_OK))
 2133              		.loc 1 870 0
 2134 000c FFF7FEFF 		bl	ClearCmdBuf
 2135              	.LVL253:
 871:src/wavecom.c ****     return TRUE;
 2136              		.loc 1 871 0
 2137 0010 2046     		mov	r0, r4
 2138 0012 0221     		movs	r1, #2
 2139 0014 FFF7FEFF 		bl	SendWaitRsp
 2140              	.LVL254:
 874:src/wavecom.c **** //*****************************************************************************
 2141              		.loc 1 874 0
 2142 0018 0030     		adds	r0, r0, #0
 2143 001a 18BF     		it	ne
 2144 001c 0120     		movne	r0, #1
 2145 001e 10BD     		pop	{r4, pc}
 2146              	.L205:
 2147              		.align	2
 2148              	.L204:
 2149 0020 DD050000 		.word	.LANCHOR0+1501
 2150 0024 FC000000 		.word	.LC28
 2151              		.cfi_endproc
 2152              	.LFE22:
 2153              		.size	HangUp, .-HangUp
 2154              		.section	.text.CheckCallEnd,"ax",%progbits
 2155              		.align	1
 2156              		.global	CheckCallEnd
 2157              		.thumb
 2158              		.thumb_func
 2159              		.type	CheckCallEnd, %function
 2160              	CheckCallEnd:
 2161              	.LFB23:
 884:src/wavecom.c ****   struct GPRSATRESP  at_resp;
 2162              		.loc 1 884 0
 2163              		.cfi_startproc
 2164              		@ args = 0, pretend = 0, frame = 1512
 2165              		@ frame_needed = 0, uses_anonymous_args = 0
 2166 0000 10B5     		push	{r4, lr}
 2167              		.cfi_def_cfa_offset 8
 2168              		.cfi_offset 4, -8
 2169              		.cfi_offset 14, -4
 888:src/wavecom.c ****     return FALSE;
 2170              		.loc 1 888 0
 2171 0002 0023     		movs	r3, #0
 884:src/wavecom.c ****   struct GPRSATRESP  at_resp;
 2172              		.loc 1 884 0
 2173 0004 ADF5BE6D 		sub	sp, sp, #1520
 2174              		.cfi_def_cfa_offset 1528
 888:src/wavecom.c ****     return FALSE;
 2175              		.loc 1 888 0
 2176 0008 114C     		ldr	r4, .L213
 2177 000a 0093     		str	r3, [sp]
 2178 000c 0F20     		movs	r0, #15
 2179 000e 4FF08063 		mov	r3, #67108864
 2180 0012 0821     		movs	r1, #8
ARM GAS  C:\Users\AHMED~1.ELE\AppData\Local\Temp\ccAQ67OG.s 			page 67


 2181 0014 2268     		ldr	r2, [r4]
 2182 0016 FFF7FEFF 		bl	lib_app_call
 2183              	.LVL255:
 2184 001a 4301     		lsls	r3, r0, #5
 2185 001c 01D4     		bmi	.L207
 2186              	.L209:
 889:src/wavecom.c **** 
 2187              		.loc 1 889 0
 2188 001e 0020     		movs	r0, #0
 2189 0020 13E0     		b	.L208
 2190              	.L207:
 891:src/wavecom.c ****   if (IOCtlMW(gGprsHandle, IO_GPRS_CMDRESP, &at_resp)) {
 2191              		.loc 1 891 0
 2192 0022 03AB     		add	r3, sp, #12
 2193 0024 40F2DD52 		movw	r2, #1501
 892:src/wavecom.c ****     ptr = (BYTE *)strstr((char const *)at_resp.sb_content, "NO CARRIER");
 2194              		.loc 1 892 0
 2195 0028 0093     		str	r3, [sp]
 891:src/wavecom.c ****   if (IOCtlMW(gGprsHandle, IO_GPRS_CMDRESP, &at_resp)) {
 2196              		.loc 1 891 0
 2197 002a 0392     		str	r2, [sp, #12]
 892:src/wavecom.c ****     ptr = (BYTE *)strstr((char const *)at_resp.sb_content, "NO CARRIER");
 2198              		.loc 1 892 0
 2199 002c 0F20     		movs	r0, #15
 2200 002e 0721     		movs	r1, #7
 2201 0030 2268     		ldr	r2, [r4]
 2202 0032 0323     		movs	r3, #3
 2203 0034 FFF7FEFF 		bl	lib_app_call
 2204              	.LVL256:
 2205 0038 0028     		cmp	r0, #0
 2206 003a F0D0     		beq	.L209
 893:src/wavecom.c ****     if (ptr == NULL)
 2207              		.loc 1 893 0
 2208 003c 04A8     		add	r0, sp, #16
 2209 003e 0549     		ldr	r1, .L213+4
 2210 0040 FFF7FEFF 		bl	strstr
 2211              	.LVL257:
 889:src/wavecom.c **** 
 2212              		.loc 1 889 0
 2213 0044 0030     		adds	r0, r0, #0
 2214 0046 18BF     		it	ne
 2215 0048 0120     		movne	r0, #1
 2216              	.LVL258:
 2217              	.L208:
 899:src/wavecom.c **** //*****************************************************************************
 2218              		.loc 1 899 0
 2219 004a 0DF5BE6D 		add	sp, sp, #1520
 2220              		.cfi_def_cfa_offset 8
 2221              		@ sp needed
 2222 004e 10BD     		pop	{r4, pc}
 2223              	.L214:
 2224              		.align	2
 2225              	.L213:
 2226 0050 00000000 		.word	gGprsHandle
 2227 0054 02010000 		.word	.LC29
 2228              		.cfi_endproc
 2229              	.LFE23:
ARM GAS  C:\Users\AHMED~1.ELE\AppData\Local\Temp\ccAQ67OG.s 			page 68


 2230              		.size	CheckCallEnd, .-CheckCallEnd
 2231              		.section	.text.GetCallerID,"ax",%progbits
 2232              		.align	1
 2233              		.global	GetCallerID
 2234              		.thumb
 2235              		.thumb_func
 2236              		.type	GetCallerID, %function
 2237              	GetCallerID:
 2238              	.LFB24:
 910:src/wavecom.c **** #if (T800)
 2239              		.loc 1 910 0
 2240              		.cfi_startproc
 2241              		@ args = 0, pretend = 0, frame = 1512
 2242              		@ frame_needed = 0, uses_anonymous_args = 0
 2243 0000 30B5     		push	{r4, r5, lr}
 2244              		.cfi_def_cfa_offset 12
 2245              		.cfi_offset 4, -12
 2246              		.cfi_offset 5, -8
 2247              		.cfi_offset 14, -4
 929:src/wavecom.c ****     return FALSE;
 2248              		.loc 1 929 0
 2249 0002 0024     		movs	r4, #0
 910:src/wavecom.c **** #if (T800)
 2250              		.loc 1 910 0
 2251 0004 ADF2F45D 		subw	sp, sp, #1524
 2252              		.cfi_def_cfa_offset 1536
 929:src/wavecom.c ****     return FALSE;
 2253              		.loc 1 929 0
 2254 0008 104D     		ldr	r5, .L218
 2255 000a 0094     		str	r4, [sp]
 2256 000c 0F20     		movs	r0, #15
 2257 000e 0821     		movs	r1, #8
 2258 0010 2A68     		ldr	r2, [r5]
 2259 0012 2346     		mov	r3, r4
 2260 0014 FFF7FEFF 		bl	lib_app_call
 2261              	.LVL259:
 2262 0018 A0B1     		cbz	r0, .L216
 931:src/wavecom.c ****   at_resp.d_maxlen = sizeof(gGSMData.s_CurrPHB.sb_name);
 2263              		.loc 1 931 0
 2264 001a 2146     		mov	r1, r4
 2265 001c 4422     		movs	r2, #68
 2266 001e 0C48     		ldr	r0, .L218+4
 2267 0020 FFF7FEFF 		bl	memset
 2268              	.LVL260:
 932:src/wavecom.c ****   at_resp.d_maxlen = IOCtlMW(gGprsHandle, IO_GPRS_GET_CID, &at_resp);
 2269              		.loc 1 932 0
 2270 0024 03AB     		add	r3, sp, #12
 2271 0026 2022     		movs	r2, #32
 933:src/wavecom.c ****   memcpy(gGSMData.s_CurrPHB.sb_name, at_resp.sb_content, at_resp.d_maxlen);
 2272              		.loc 1 933 0
 2273 0028 0093     		str	r3, [sp]
 932:src/wavecom.c ****   at_resp.d_maxlen = IOCtlMW(gGprsHandle, IO_GPRS_GET_CID, &at_resp);
 2274              		.loc 1 932 0
 2275 002a 0392     		str	r2, [sp, #12]
 933:src/wavecom.c ****   memcpy(gGSMData.s_CurrPHB.sb_name, at_resp.sb_content, at_resp.d_maxlen);
 2276              		.loc 1 933 0
 2277 002c 0721     		movs	r1, #7
ARM GAS  C:\Users\AHMED~1.ELE\AppData\Local\Temp\ccAQ67OG.s 			page 69


 2278 002e 2A68     		ldr	r2, [r5]
 2279 0030 0C23     		movs	r3, #12
 2280 0032 0F20     		movs	r0, #15
 2281 0034 FFF7FEFF 		bl	lib_app_call
 2282              	.LVL261:
 934:src/wavecom.c **** 
 2283              		.loc 1 934 0
 2284 0038 04A9     		add	r1, sp, #16
 933:src/wavecom.c ****   memcpy(gGSMData.s_CurrPHB.sb_name, at_resp.sb_content, at_resp.d_maxlen);
 2285              		.loc 1 933 0
 2286 003a 0246     		mov	r2, r0
 934:src/wavecom.c **** 
 2287              		.loc 1 934 0
 2288 003c 0448     		ldr	r0, .L218+4
 2289 003e FFF7FEFF 		bl	memcpy
 2290              	.LVL262:
 936:src/wavecom.c **** #endif  
 2291              		.loc 1 936 0
 2292 0042 0120     		movs	r0, #1
 2293              	.L216:
 938:src/wavecom.c **** //*****************************************************************************
 2294              		.loc 1 938 0
 2295 0044 0DF2F45D 		addw	sp, sp, #1524
 2296              		.cfi_def_cfa_offset 12
 2297              		@ sp needed
 2298 0048 30BD     		pop	{r4, r5, pc}
 2299              	.L219:
 2300 004a 00BF     		.align	2
 2301              	.L218:
 2302 004c 00000000 		.word	gGprsHandle
 2303 0050 3C440000 		.word	gGSMData+17468
 2304              		.cfi_endproc
 2305              	.LFE24:
 2306              		.size	GetCallerID, .-GetCallerID
 2307              		.section	.text.ReadGain,"ax",%progbits
 2308              		.align	1
 2309              		.global	ReadGain
 2310              		.thumb
 2311              		.thumb_func
 2312              		.type	ReadGain, %function
 2313              	ReadGain:
 2314              	.LFB25:
 949:src/wavecom.c ****   BYTE cmd[16];
 2315              		.loc 1 949 0
 2316              		.cfi_startproc
 2317              		@ args = 0, pretend = 0, frame = 16
 2318              		@ frame_needed = 0, uses_anonymous_args = 0
 2319              	.LVL263:
 2320 0000 1FB5     		push	{r0, r1, r2, r3, r4, lr}
 2321              		.cfi_def_cfa_offset 24
 2322              		.cfi_offset 14, -4
 949:src/wavecom.c ****   BYTE cmd[16];
 2323              		.loc 1 949 0
 2324 0002 0246     		mov	r2, r0
 956:src/wavecom.c **** 
 2325              		.loc 1 956 0
 2326 0004 0549     		ldr	r1, .L221
ARM GAS  C:\Users\AHMED~1.ELE\AppData\Local\Temp\ccAQ67OG.s 			page 70


 2327 0006 6846     		mov	r0, sp
 2328              	.LVL264:
 2329 0008 FFF7FEFF 		bl	sprintf
 2330              	.LVL265:
 958:src/wavecom.c ****     return FALSE;
 2331              		.loc 1 958 0
 2332 000c 6846     		mov	r0, sp
 2333 000e 0221     		movs	r1, #2
 2334 0010 FFF7FEFF 		bl	SendWaitRsp
 2335              	.LVL266:
 980:src/wavecom.c **** //*****************************************************************************
 2336              		.loc 1 980 0
 2337 0014 0020     		movs	r0, #0
 2338 0016 05B0     		add	sp, sp, #20
 2339              		.cfi_def_cfa_offset 4
 2340              		@ sp needed
 2341 0018 5DF804FB 		ldr	pc, [sp], #4
 2342              	.L222:
 2343              		.align	2
 2344              	.L221:
 2345 001c 0D010000 		.word	.LC30
 2346              		.cfi_endproc
 2347              	.LFE25:
 2348              		.size	ReadGain, .-ReadGain
 2349              		.section	.text.WriteGain,"ax",%progbits
 2350              		.align	1
 2351              		.global	WriteGain
 2352              		.thumb
 2353              		.thumb_func
 2354              		.type	WriteGain, %function
 2355              	WriteGain:
 2356              	.LFB26:
 991:src/wavecom.c ****   BYTE *ptr;
 2357              		.loc 1 991 0
 2358              		.cfi_startproc
 2359              		@ args = 0, pretend = 0, frame = 0
 2360              		@ frame_needed = 0, uses_anonymous_args = 0
 2361              	.LVL267:
 2362 0000 08B5     		push	{r3, lr}
 2363              		.cfi_def_cfa_offset 8
 2364              		.cfi_offset 3, -8
 2365              		.cfi_offset 14, -4
 991:src/wavecom.c ****   BYTE *ptr;
 2366              		.loc 1 991 0
 2367 0002 0246     		mov	r2, r0
 2368 0004 0B46     		mov	r3, r1
1001:src/wavecom.c ****   ClearCmdBuf();
 2369              		.loc 1 1001 0
 2370 0006 0948     		ldr	r0, .L228
 2371              	.LVL268:
 2372 0008 0949     		ldr	r1, .L228+4
 2373              	.LVL269:
 2374 000a FFF7FEFF 		bl	sprintf
 2375              	.LVL270:
1002:src/wavecom.c ****   if (!SendWaitRsp(gAtCmdIn, WAIT_OK))
 2376              		.loc 1 1002 0
 2377 000e FFF7FEFF 		bl	ClearCmdBuf
ARM GAS  C:\Users\AHMED~1.ELE\AppData\Local\Temp\ccAQ67OG.s 			page 71


 2378              	.LVL271:
1003:src/wavecom.c ****     return FALSE;
 2379              		.loc 1 1003 0
 2380 0012 0648     		ldr	r0, .L228
 2381 0014 0221     		movs	r1, #2
 2382 0016 FFF7FEFF 		bl	SendWaitRsp
 2383              	.LVL272:
 2384 001a 30B1     		cbz	r0, .L224
1006:src/wavecom.c ****   if (ptr != NULL) {
 2385              		.loc 1 1006 0
 2386 001c 0548     		ldr	r0, .L228+8
 2387 001e 0649     		ldr	r1, .L228+12
 2388 0020 FFF7FEFF 		bl	strstr
 2389              	.LVL273:
1004:src/wavecom.c **** 
 2390              		.loc 1 1004 0
 2391 0024 0030     		adds	r0, r0, #0
 2392 0026 18BF     		it	ne
 2393 0028 0120     		movne	r0, #1
 2394              	.LVL274:
 2395              	.L224:
1012:src/wavecom.c **** //*****************************************************************************
 2396              		.loc 1 1012 0
 2397 002a 08BD     		pop	{r3, pc}
 2398              	.L229:
 2399              		.align	2
 2400              	.L228:
 2401 002c DD050000 		.word	.LANCHOR0+1501
 2402 0030 18010000 		.word	.LC31
 2403 0034 00000000 		.word	.LANCHOR0
 2404 0038 00000000 		.word	.LC1
 2405              		.cfi_endproc
 2406              	.LFE26:
 2407              		.size	WriteGain, .-WriteGain
 2408              		.section	.text.GetOptrName,"ax",%progbits
 2409              		.align	1
 2410              		.global	GetOptrName
 2411              		.thumb
 2412              		.thumb_func
 2413              		.type	GetOptrName, %function
 2414              	GetOptrName:
 2415              	.LFB27:
1023:src/wavecom.c ****   char *ptr;
 2416              		.loc 1 1023 0
 2417              		.cfi_startproc
 2418              		@ args = 0, pretend = 0, frame = 0
 2419              		@ frame_needed = 0, uses_anonymous_args = 0
 2420              	.LVL275:
 2421 0000 38B5     		push	{r3, r4, r5, lr}
 2422              		.cfi_def_cfa_offset 16
 2423              		.cfi_offset 3, -16
 2424              		.cfi_offset 4, -12
 2425              		.cfi_offset 5, -8
 2426              		.cfi_offset 14, -4
1028:src/wavecom.c ****   //ClearCmdBuf();
 2427              		.loc 1 1028 0
 2428 0002 0023     		movs	r3, #0
ARM GAS  C:\Users\AHMED~1.ELE\AppData\Local\Temp\ccAQ67OG.s 			page 72


1023:src/wavecom.c ****   char *ptr;
 2429              		.loc 1 1023 0
 2430 0004 0446     		mov	r4, r0
1028:src/wavecom.c ****   //ClearCmdBuf();
 2431              		.loc 1 1028 0
 2432 0006 0370     		strb	r3, [r0]
1023:src/wavecom.c ****   char *ptr;
 2433              		.loc 1 1023 0
 2434 0008 0D46     		mov	r5, r1
1033:src/wavecom.c ****   if (!SendWaitRsp("AT+COPS?\r\n", WAIT_OK))
 2435              		.loc 1 1033 0
 2436 000a FFF7FEFF 		bl	ClearCmdBuf
 2437              	.LVL276:
1034:src/wavecom.c ****     return FALSE;
 2438              		.loc 1 1034 0
 2439 000e 1448     		ldr	r0, .L244
 2440 0010 0221     		movs	r1, #2
 2441 0012 FFF7FEFF 		bl	SendWaitRsp
 2442              	.LVL277:
 2443 0016 10B3     		cbz	r0, .L231
1037:src/wavecom.c ****   if (ptr == NULL)
 2444              		.loc 1 1037 0
 2445 0018 1248     		ldr	r0, .L244+4
 2446 001a 1349     		ldr	r1, .L244+8
 2447 001c FFF7FEFF 		bl	strstr
 2448              	.LVL278:
1038:src/wavecom.c ****     return FALSE;
 2449              		.loc 1 1038 0
 2450 0020 E8B1     		cbz	r0, .L231
 2451              	.LVL279:
 2452              	.LBB25:
 2453              	.LBB26:
1040:src/wavecom.c ****   if (ptr == NULL)
 2454              		.loc 1 1040 0
 2455 0022 1048     		ldr	r0, .L244+4
 2456              	.LVL280:
 2457 0024 2221     		movs	r1, #34
 2458 0026 FFF7FEFF 		bl	strchr
 2459              	.LVL281:
1041:src/wavecom.c ****     return FALSE;
 2460              		.loc 1 1041 0
 2461 002a C0B1     		cbz	r0, .L231
 2462              	.LVL282:
 2463 002c 2544     		add	r5, r5, r4
 2464              	.LVL283:
 2465              	.L232:
1044:src/wavecom.c ****     *aName++ = *ptr++;
 2466              		.loc 1 1044 0
 2467 002e 10F8013F 		ldrb	r3, [r0, #1]!	@ zero_extendqisi2
 2468 0032 222B     		cmp	r3, #34
 2469 0034 06D1     		bne	.L233
 2470              	.LVL284:
 2471              	.L236:
1047:src/wavecom.c **** 
 2472              		.loc 1 1047 0
 2473 0036 0023     		movs	r3, #0
1050:src/wavecom.c ****   while (aName[len-1] == ' ') {
ARM GAS  C:\Users\AHMED~1.ELE\AppData\Local\Temp\ccAQ67OG.s 			page 73


 2474              		.loc 1 1050 0
 2475 0038 2046     		mov	r0, r4
1047:src/wavecom.c **** 
 2476              		.loc 1 1047 0
 2477 003a 2370     		strb	r3, [r4]
1050:src/wavecom.c ****   while (aName[len-1] == ' ') {
 2478              		.loc 1 1050 0
 2479 003c FFF7FEFF 		bl	strlen
 2480              	.LVL285:
 2481 0040 2044     		add	r0, r0, r4
 2482              	.LVL286:
 2483 0042 04E0     		b	.L234
 2484              	.LVL287:
 2485              	.L233:
1044:src/wavecom.c ****     *aName++ = *ptr++;
 2486              		.loc 1 1044 0
 2487 0044 AC42     		cmp	r4, r5
 2488 0046 F6D0     		beq	.L236
 2489              	.LVL288:
1045:src/wavecom.c ****   }
 2490              		.loc 1 1045 0
 2491 0048 04F8013B 		strb	r3, [r4], #1
 2492              	.LVL289:
 2493 004c EFE7     		b	.L232
 2494              	.LVL290:
 2495              	.L234:
1051:src/wavecom.c ****     aName[len-1] = 0x00;
 2496              		.loc 1 1051 0
 2497 004e 10F9013D 		ldrsb	r3, [r0, #-1]!
 2498              	.LVL291:
 2499 0052 202B     		cmp	r3, #32
 2500 0054 02D1     		bne	.L243
1052:src/wavecom.c ****     len--;
 2501              		.loc 1 1052 0
 2502 0056 0023     		movs	r3, #0
 2503 0058 0370     		strb	r3, [r0]
 2504              	.LVL292:
 2505 005a F8E7     		b	.L234
 2506              	.LVL293:
 2507              	.L243:
1056:src/wavecom.c **** }
 2508              		.loc 1 1056 0
 2509 005c 0120     		movs	r0, #1
 2510              	.LVL294:
 2511              	.L231:
 2512              	.LBE26:
 2513              	.LBE25:
1057:src/wavecom.c **** //*****************************************************************************
 2514              		.loc 1 1057 0
 2515 005e 38BD     		pop	{r3, r4, r5, pc}
 2516              	.L245:
 2517              		.align	2
 2518              	.L244:
 2519 0060 25010000 		.word	.LC32
 2520 0064 00000000 		.word	.LANCHOR0
 2521 0068 30010000 		.word	.LC33
 2522              		.cfi_endproc
ARM GAS  C:\Users\AHMED~1.ELE\AppData\Local\Temp\ccAQ67OG.s 			page 74


 2523              	.LFE27:
 2524              		.size	GetOptrName, .-GetOptrName
 2525              		.section	.text.FacilityEnable,"ax",%progbits
 2526              		.align	1
 2527              		.global	FacilityEnable
 2528              		.thumb
 2529              		.thumb_func
 2530              		.type	FacilityEnable, %function
 2531              	FacilityEnable:
 2532              	.LFB28:
1070:src/wavecom.c ****   DWORD ret;
 2533              		.loc 1 1070 0
 2534              		.cfi_startproc
 2535              		@ args = 0, pretend = 0, frame = 0
 2536              		@ frame_needed = 0, uses_anonymous_args = 0
 2537              	.LVL295:
 2538 0000 37B5     		push	{r0, r1, r2, r4, r5, lr}
 2539              		.cfi_def_cfa_offset 24
 2540              		.cfi_offset 4, -12
 2541              		.cfi_offset 5, -8
 2542              		.cfi_offset 14, -4
1070:src/wavecom.c ****   DWORD ret;
 2543              		.loc 1 1070 0
 2544 0002 0C46     		mov	r4, r1
 2545 0004 0546     		mov	r5, r0
1074:src/wavecom.c ****   SendWaitRsp("AT+CMEE=1", WAIT_OK);
 2546              		.loc 1 1074 0
 2547 0006 FFF7FEFF 		bl	ClearCmdBuf
 2548              	.LVL296:
1075:src/wavecom.c ****   ClearCmdBuf();
 2549              		.loc 1 1075 0
 2550 000a 0221     		movs	r1, #2
 2551 000c 1848     		ldr	r0, .L254
 2552 000e FFF7FEFF 		bl	SendWaitRsp
 2553              	.LVL297:
1076:src/wavecom.c **** 
 2554              		.loc 1 1076 0
 2555 0012 FFF7FEFF 		bl	ClearCmdBuf
 2556              	.LVL298:
1079:src/wavecom.c ****   else
 2557              		.loc 1 1079 0
 2558 0016 0094     		str	r4, [sp]
 2559 0018 1648     		ldr	r0, .L254+4
 2560 001a 1749     		ldr	r1, .L254+8
 2561 001c 174A     		ldr	r2, .L254+12
1078:src/wavecom.c ****     sprintf(gAtCmdIn, "AT+CLCK=\"%s\",%s,%s\r\a", "SC", "1", aPin);
 2562              		.loc 1 1078 0
 2563 001e 0DB1     		cbz	r5, .L247
1079:src/wavecom.c ****   else
 2564              		.loc 1 1079 0
 2565 0020 174B     		ldr	r3, .L254+16
 2566 0022 00E0     		b	.L253
 2567              	.L247:
1081:src/wavecom.c **** 
 2568              		.loc 1 1081 0
 2569 0024 174B     		ldr	r3, .L254+20
 2570              	.L253:
ARM GAS  C:\Users\AHMED~1.ELE\AppData\Local\Temp\ccAQ67OG.s 			page 75


 2571 0026 FFF7FEFF 		bl	sprintf
 2572              	.LVL299:
1083:src/wavecom.c ****   if (SendWaitRsp(gAtCmdIn, WAIT_OK)) {
 2573              		.loc 1 1083 0
 2574 002a FFF7FEFF 		bl	ClearCmdBuf
 2575              	.LVL300:
1084:src/wavecom.c ****     if (strstr(gAtCmdOut, "OK"))
 2576              		.loc 1 1084 0
 2577 002e 1148     		ldr	r0, .L254+4
 2578 0030 0221     		movs	r1, #2
 2579 0032 FFF7FEFF 		bl	SendWaitRsp
 2580              	.LVL301:
 2581 0036 68B1     		cbz	r0, .L250
1085:src/wavecom.c ****       ret = 1;
 2582              		.loc 1 1085 0
 2583 0038 1348     		ldr	r0, .L254+24
 2584 003a 1449     		ldr	r1, .L254+28
 2585 003c FFF7FEFF 		bl	strstr
 2586              	.LVL302:
 2587 0040 50B9     		cbnz	r0, .L251
1088:src/wavecom.c ****         ret = 2;
 2588              		.loc 1 1088 0
 2589 0042 1148     		ldr	r0, .L254+24
 2590 0044 1249     		ldr	r1, .L254+32
 2591 0046 FFF7FEFF 		bl	strstr
 2592              	.LVL303:
1089:src/wavecom.c ****   }
 2593              		.loc 1 1089 0
 2594 004a 0028     		cmp	r0, #0
 2595 004c 14BF     		ite	ne
 2596 004e 0224     		movne	r4, #2
 2597 0050 0024     		moveq	r4, #0
 2598              	.LVL304:
 2599 0052 02E0     		b	.L249
 2600              	.LVL305:
 2601              	.L250:
1073:src/wavecom.c ****   ClearCmdBuf();
 2602              		.loc 1 1073 0
 2603 0054 0446     		mov	r4, r0
 2604              	.LVL306:
 2605 0056 00E0     		b	.L249
 2606              	.LVL307:
 2607              	.L251:
1086:src/wavecom.c ****     else
 2608              		.loc 1 1086 0
 2609 0058 0124     		movs	r4, #1
 2610              	.LVL308:
 2611              	.L249:
1091:src/wavecom.c ****   SendWaitRsp("AT+CMEE=0", WAIT_OK);
 2612              		.loc 1 1091 0
 2613 005a FFF7FEFF 		bl	ClearCmdBuf
 2614              	.LVL309:
1092:src/wavecom.c ****   ClearCmdBuf();
 2615              		.loc 1 1092 0
 2616 005e 0221     		movs	r1, #2
 2617 0060 0C48     		ldr	r0, .L254+36
 2618 0062 FFF7FEFF 		bl	SendWaitRsp
ARM GAS  C:\Users\AHMED~1.ELE\AppData\Local\Temp\ccAQ67OG.s 			page 76


 2619              	.LVL310:
1093:src/wavecom.c ****   return ret;
 2620              		.loc 1 1093 0
 2621 0066 FFF7FEFF 		bl	ClearCmdBuf
 2622              	.LVL311:
1095:src/wavecom.c **** //*****************************************************************************
 2623              		.loc 1 1095 0
 2624 006a 2046     		mov	r0, r4
 2625 006c 03B0     		add	sp, sp, #12
 2626              		.cfi_def_cfa_offset 12
 2627              		@ sp needed
 2628 006e 30BD     		pop	{r4, r5, pc}
 2629              	.LVL312:
 2630              	.L255:
 2631              		.align	2
 2632              	.L254:
 2633 0070 37010000 		.word	.LC34
 2634 0074 DD050000 		.word	.LANCHOR0+1501
 2635 0078 41010000 		.word	.LC35
 2636 007c 56010000 		.word	.LC36
 2637 0080 59010000 		.word	.LC37
 2638 0084 5B010000 		.word	.LC38
 2639 0088 00000000 		.word	.LANCHOR0
 2640 008c 00000000 		.word	.LC1
 2641 0090 5D010000 		.word	.LC39
 2642 0094 61010000 		.word	.LC40
 2643              		.cfi_endproc
 2644              	.LFE28:
 2645              		.size	FacilityEnable, .-FacilityEnable
 2646              		.section	.text.CheckPinState,"ax",%progbits
 2647              		.align	1
 2648              		.global	CheckPinState
 2649              		.thumb
 2650              		.thumb_func
 2651              		.type	CheckPinState, %function
 2652              	CheckPinState:
 2653              	.LFB29:
1105:src/wavecom.c ****   DWORD req_pin;
 2654              		.loc 1 1105 0
 2655              		.cfi_startproc
 2656              		@ args = 0, pretend = 0, frame = 0
 2657              		@ frame_needed = 0, uses_anonymous_args = 0
 2658              	.LVL313:
 2659 0000 10B5     		push	{r4, lr}
 2660              		.cfi_def_cfa_offset 8
 2661              		.cfi_offset 4, -8
 2662              		.cfi_offset 14, -4
1108:src/wavecom.c ****   if (SendWaitRsp("AT+CPIN?\r", WAIT_RSP)) {
 2663              		.loc 1 1108 0
 2664 0002 FFF7FEFF 		bl	ClearCmdBuf
 2665              	.LVL314:
1109:src/wavecom.c ****     if (strstr(gAtCmdOut, "READY"))
 2666              		.loc 1 1109 0
 2667 0006 1748     		ldr	r0, .L264
 2668 0008 0121     		movs	r1, #1
 2669 000a FFF7FEFF 		bl	SendWaitRsp
 2670              	.LVL315:
ARM GAS  C:\Users\AHMED~1.ELE\AppData\Local\Temp\ccAQ67OG.s 			page 77


 2671 000e E0B1     		cbz	r0, .L258
1110:src/wavecom.c ****       req_pin = REQ_READY;
 2672              		.loc 1 1110 0
 2673 0010 1548     		ldr	r0, .L264+4
 2674 0012 1649     		ldr	r1, .L264+8
 2675 0014 FFF7FEFF 		bl	strstr
 2676              	.LVL316:
 2677 0018 C8B9     		cbnz	r0, .L259
1112:src/wavecom.c ****       req_pin = REQ_PUK2;
 2678              		.loc 1 1112 0
 2679 001a 1348     		ldr	r0, .L264+4
 2680 001c 1449     		ldr	r1, .L264+12
 2681 001e FFF7FEFF 		bl	strstr
 2682              	.LVL317:
 2683 0022 B0B9     		cbnz	r0, .L260
1114:src/wavecom.c ****       req_pin = REQ_PUK1;
 2684              		.loc 1 1114 0
 2685 0024 1048     		ldr	r0, .L264+4
 2686 0026 1349     		ldr	r1, .L264+16
 2687 0028 FFF7FEFF 		bl	strstr
 2688              	.LVL318:
 2689 002c 98B9     		cbnz	r0, .L261
1116:src/wavecom.c ****       req_pin = REQ_PIN2;
 2690              		.loc 1 1116 0
 2691 002e 0E48     		ldr	r0, .L264+4
 2692 0030 1149     		ldr	r1, .L264+20
 2693 0032 FFF7FEFF 		bl	strstr
 2694              	.LVL319:
 2695 0036 80B9     		cbnz	r0, .L262
1118:src/wavecom.c ****       req_pin = REQ_PIN1;
 2696              		.loc 1 1118 0
 2697 0038 0B48     		ldr	r0, .L264+4
 2698 003a 1049     		ldr	r1, .L264+24
 2699 003c FFF7FEFF 		bl	strstr
 2700              	.LVL320:
1119:src/wavecom.c ****   }
 2701              		.loc 1 1119 0
 2702 0040 0028     		cmp	r0, #0
 2703 0042 0CBF     		ite	eq
 2704 0044 FF24     		moveq	r4, #255
 2705 0046 0124     		movne	r4, #1
 2706 0048 08E0     		b	.L257
 2707              	.L258:
1107:src/wavecom.c ****   ClearCmdBuf();
 2708              		.loc 1 1107 0
 2709 004a FF24     		movs	r4, #255
 2710 004c 06E0     		b	.L257
 2711              	.L259:
1111:src/wavecom.c ****     else if (strstr(gAtCmdOut, "PUK2"))
 2712              		.loc 1 1111 0
 2713 004e 0024     		movs	r4, #0
 2714 0050 04E0     		b	.L257
 2715              	.L260:
1113:src/wavecom.c ****     else if (strstr(gAtCmdOut, "PUK"))
 2716              		.loc 1 1113 0
 2717 0052 0424     		movs	r4, #4
 2718 0054 02E0     		b	.L257
ARM GAS  C:\Users\AHMED~1.ELE\AppData\Local\Temp\ccAQ67OG.s 			page 78


 2719              	.L261:
1115:src/wavecom.c ****     else if (strstr(gAtCmdOut, "PIN2"))
 2720              		.loc 1 1115 0
 2721 0056 0224     		movs	r4, #2
 2722 0058 00E0     		b	.L257
 2723              	.L262:
1117:src/wavecom.c ****     else if (strstr(gAtCmdOut, "PIN"))
 2724              		.loc 1 1117 0
 2725 005a 0324     		movs	r4, #3
 2726              	.L257:
 2727              	.LVL321:
1121:src/wavecom.c ****   return req_pin;
 2728              		.loc 1 1121 0
 2729 005c FFF7FEFF 		bl	ClearCmdBuf
 2730              	.LVL322:
1123:src/wavecom.c **** //*****************************************************************************
 2731              		.loc 1 1123 0
 2732 0060 2046     		mov	r0, r4
 2733 0062 10BD     		pop	{r4, pc}
 2734              	.LVL323:
 2735              	.L265:
 2736              		.align	2
 2737              	.L264:
 2738 0064 6B010000 		.word	.LC41
 2739 0068 00000000 		.word	.LANCHOR0
 2740 006c 75010000 		.word	.LC42
 2741 0070 7B010000 		.word	.LC43
 2742 0074 80010000 		.word	.LC44
 2743 0078 84010000 		.word	.LC45
 2744 007c 89010000 		.word	.LC46
 2745              		.cfi_endproc
 2746              	.LFE29:
 2747              		.size	CheckPinState, .-CheckPinState
 2748              		.section	.text.EnterPin,"ax",%progbits
 2749              		.align	1
 2750              		.global	EnterPin
 2751              		.thumb
 2752              		.thumb_func
 2753              		.type	EnterPin, %function
 2754              	EnterPin:
 2755              	.LFB30:
1134:src/wavecom.c ****   BOOLEAN ret;
 2756              		.loc 1 1134 0
 2757              		.cfi_startproc
 2758              		@ args = 0, pretend = 0, frame = 0
 2759              		@ frame_needed = 0, uses_anonymous_args = 0
 2760              	.LVL324:
1138:src/wavecom.c ****     sprintf(gAtCmdIn, "AT+CPIN=\"%s\"\r\n", aPin);
 2761              		.loc 1 1138 0
 2762 0000 0128     		cmp	r0, #1
1134:src/wavecom.c ****   BOOLEAN ret;
 2763              		.loc 1 1134 0
 2764 0002 10B5     		push	{r4, lr}
 2765              		.cfi_def_cfa_offset 8
 2766              		.cfi_offset 4, -8
 2767              		.cfi_offset 14, -4
1134:src/wavecom.c ****   BOOLEAN ret;
ARM GAS  C:\Users\AHMED~1.ELE\AppData\Local\Temp\ccAQ67OG.s 			page 79


 2768              		.loc 1 1134 0
 2769 0004 0A46     		mov	r2, r1
1139:src/wavecom.c ****   else
 2770              		.loc 1 1139 0
 2771 0006 0C48     		ldr	r0, .L272
 2772              	.LVL325:
 2773 0008 0CBF     		ite	eq
 2774 000a 0C49     		ldreq	r1, .L272+4
 2775              	.LVL326:
1141:src/wavecom.c **** 
 2776              		.loc 1 1141 0
 2777 000c 0C49     		ldrne	r1, .L272+8
 2778 000e FFF7FEFF 		bl	sprintf
 2779              	.LVL327:
1143:src/wavecom.c ****     if (strstr(gAtCmdOut, "OK"))
 2780              		.loc 1 1143 0
 2781 0012 0948     		ldr	r0, .L272
 2782 0014 0121     		movs	r1, #1
 2783 0016 FFF7FEFF 		bl	SendWaitRsp
 2784              	.LVL328:
 2785 001a 38B1     		cbz	r0, .L270
1144:src/wavecom.c ****       ret = TRUE;
 2786              		.loc 1 1144 0
 2787 001c 0948     		ldr	r0, .L272+12
 2788 001e 0A49     		ldr	r1, .L272+16
 2789 0020 FFF7FEFF 		bl	strstr
 2790              	.LVL329:
1137:src/wavecom.c ****   if (aId == REQ_PIN1)
 2791              		.loc 1 1137 0
 2792 0024 041C     		adds	r4, r0, #0
 2793 0026 18BF     		it	ne
 2794 0028 0124     		movne	r4, #1
 2795 002a 00E0     		b	.L269
 2796              	.L270:
 2797 002c 0446     		mov	r4, r0
 2798              	.L269:
 2799              	.LVL330:
1147:src/wavecom.c ****   return ret;
 2800              		.loc 1 1147 0
 2801 002e FFF7FEFF 		bl	ClearCmdBuf
 2802              	.LVL331:
1149:src/wavecom.c **** //*****************************************************************************
 2803              		.loc 1 1149 0
 2804 0032 2046     		mov	r0, r4
 2805 0034 10BD     		pop	{r4, pc}
 2806              	.LVL332:
 2807              	.L273:
 2808 0036 00BF     		.align	2
 2809              	.L272:
 2810 0038 DD050000 		.word	.LANCHOR0+1501
 2811 003c 8D010000 		.word	.LC47
 2812 0040 9C010000 		.word	.LC48
 2813 0044 00000000 		.word	.LANCHOR0
 2814 0048 00000000 		.word	.LC1
 2815              		.cfi_endproc
 2816              	.LFE30:
 2817              		.size	EnterPin, .-EnterPin
ARM GAS  C:\Users\AHMED~1.ELE\AppData\Local\Temp\ccAQ67OG.s 			page 80


 2818              		.section	.text.ChangePin,"ax",%progbits
 2819              		.align	1
 2820              		.global	ChangePin
 2821              		.thumb
 2822              		.thumb_func
 2823              		.type	ChangePin, %function
 2824              	ChangePin:
 2825              	.LFB31:
1163:src/wavecom.c ****   DWORD ret;
 2826              		.loc 1 1163 0
 2827              		.cfi_startproc
 2828              		@ args = 0, pretend = 0, frame = 0
 2829              		@ frame_needed = 0, uses_anonymous_args = 0
 2830              	.LVL333:
 2831 0000 73B5     		push	{r0, r1, r4, r5, r6, lr}
 2832              		.cfi_def_cfa_offset 24
 2833              		.cfi_offset 4, -16
 2834              		.cfi_offset 5, -12
 2835              		.cfi_offset 6, -8
 2836              		.cfi_offset 14, -4
1163:src/wavecom.c ****   DWORD ret;
 2837              		.loc 1 1163 0
 2838 0002 1546     		mov	r5, r2
 2839 0004 0646     		mov	r6, r0
 2840 0006 0C46     		mov	r4, r1
1167:src/wavecom.c ****   SendWaitRsp("AT+CMEE=1", WAIT_OK);
 2841              		.loc 1 1167 0
 2842 0008 FFF7FEFF 		bl	ClearCmdBuf
 2843              	.LVL334:
1168:src/wavecom.c ****   ClearCmdBuf();
 2844              		.loc 1 1168 0
 2845 000c 0221     		movs	r1, #2
 2846 000e 1848     		ldr	r0, .L282
 2847 0010 FFF7FEFF 		bl	SendWaitRsp
 2848              	.LVL335:
1169:src/wavecom.c **** 
 2849              		.loc 1 1169 0
 2850 0014 FFF7FEFF 		bl	ClearCmdBuf
 2851              	.LVL336:
1171:src/wavecom.c ****     sprintf(gAtCmdIn, "AT+CPWD=\"%s\",%s,%s\r", "SC", aOldPin, aNewPin);
 2852              		.loc 1 1171 0
 2853 0018 012E     		cmp	r6, #1
1172:src/wavecom.c ****   else
 2854              		.loc 1 1172 0
 2855 001a 1649     		ldr	r1, .L282+4
 2856 001c 0CBF     		ite	eq
 2857 001e 164A     		ldreq	r2, .L282+8
1174:src/wavecom.c **** 
 2858              		.loc 1 1174 0
 2859 0020 164A     		ldrne	r2, .L282+12
1172:src/wavecom.c ****   else
 2860              		.loc 1 1172 0
 2861 0022 0095     		str	r5, [sp]
 2862 0024 1648     		ldr	r0, .L282+16
1174:src/wavecom.c **** 
 2863              		.loc 1 1174 0
 2864 0026 2346     		mov	r3, r4
ARM GAS  C:\Users\AHMED~1.ELE\AppData\Local\Temp\ccAQ67OG.s 			page 81


 2865 0028 FFF7FEFF 		bl	sprintf
 2866              	.LVL337:
1176:src/wavecom.c ****     if (strstr(gAtCmdOut, "OK"))
 2867              		.loc 1 1176 0
 2868 002c 1448     		ldr	r0, .L282+16
 2869 002e 0221     		movs	r1, #2
 2870 0030 FFF7FEFF 		bl	SendWaitRsp
 2871              	.LVL338:
 2872 0034 68B1     		cbz	r0, .L278
1177:src/wavecom.c ****       ret = 1;
 2873              		.loc 1 1177 0
 2874 0036 1348     		ldr	r0, .L282+20
 2875 0038 1349     		ldr	r1, .L282+24
 2876 003a FFF7FEFF 		bl	strstr
 2877              	.LVL339:
 2878 003e 50B9     		cbnz	r0, .L279
1180:src/wavecom.c ****         ret = 2;
 2879              		.loc 1 1180 0
 2880 0040 1048     		ldr	r0, .L282+20
 2881 0042 1249     		ldr	r1, .L282+28
 2882 0044 FFF7FEFF 		bl	strstr
 2883              	.LVL340:
1181:src/wavecom.c ****   }
 2884              		.loc 1 1181 0
 2885 0048 0028     		cmp	r0, #0
 2886 004a 14BF     		ite	ne
 2887 004c 0224     		movne	r4, #2
 2888 004e 0024     		moveq	r4, #0
 2889              	.LVL341:
 2890 0050 02E0     		b	.L277
 2891              	.LVL342:
 2892              	.L278:
1166:src/wavecom.c ****   ClearCmdBuf();
 2893              		.loc 1 1166 0
 2894 0052 0446     		mov	r4, r0
 2895              	.LVL343:
 2896 0054 00E0     		b	.L277
 2897              	.LVL344:
 2898              	.L279:
1178:src/wavecom.c ****     else
 2899              		.loc 1 1178 0
 2900 0056 0124     		movs	r4, #1
 2901              	.LVL345:
 2902              	.L277:
1183:src/wavecom.c ****   SendWaitRsp("AT+CMEE=0", WAIT_OK);
 2903              		.loc 1 1183 0
 2904 0058 FFF7FEFF 		bl	ClearCmdBuf
 2905              	.LVL346:
1184:src/wavecom.c ****   ClearCmdBuf();
 2906              		.loc 1 1184 0
 2907 005c 0221     		movs	r1, #2
 2908 005e 0C48     		ldr	r0, .L282+32
 2909 0060 FFF7FEFF 		bl	SendWaitRsp
 2910              	.LVL347:
1185:src/wavecom.c ****   return ret;
 2911              		.loc 1 1185 0
 2912 0064 FFF7FEFF 		bl	ClearCmdBuf
ARM GAS  C:\Users\AHMED~1.ELE\AppData\Local\Temp\ccAQ67OG.s 			page 82


 2913              	.LVL348:
1187:src/wavecom.c **** //*****************************************************************************
 2914              		.loc 1 1187 0
 2915 0068 2046     		mov	r0, r4
 2916 006a 02B0     		add	sp, sp, #8
 2917              		.cfi_def_cfa_offset 16
 2918              		@ sp needed
 2919 006c 70BD     		pop	{r4, r5, r6, pc}
 2920              	.LVL349:
 2921              	.L283:
 2922 006e 00BF     		.align	2
 2923              	.L282:
 2924 0070 37010000 		.word	.LC34
 2925 0074 AC010000 		.word	.LC49
 2926 0078 56010000 		.word	.LC36
 2927 007c C0010000 		.word	.LC50
 2928 0080 DD050000 		.word	.LANCHOR0+1501
 2929 0084 00000000 		.word	.LANCHOR0
 2930 0088 00000000 		.word	.LC1
 2931 008c 5D010000 		.word	.LC39
 2932 0090 61010000 		.word	.LC40
 2933              		.cfi_endproc
 2934              	.LFE31:
 2935              		.size	ChangePin, .-ChangePin
 2936              		.section	.text.SetNewMsgInd,"ax",%progbits
 2937              		.align	1
 2938              		.global	SetNewMsgInd
 2939              		.thumb
 2940              		.thumb_func
 2941              		.type	SetNewMsgInd, %function
 2942              	SetNewMsgInd:
 2943              	.LFB32:
1197:src/wavecom.c ****   if (aEnable) {
 2944              		.loc 1 1197 0
 2945              		.cfi_startproc
 2946              		@ args = 0, pretend = 0, frame = 0
 2947              		@ frame_needed = 0, uses_anonymous_args = 0
 2948              	.LVL350:
 2949 0000 08B5     		push	{r3, lr}
 2950              		.cfi_def_cfa_offset 8
 2951              		.cfi_offset 3, -8
 2952              		.cfi_offset 14, -4
1198:src/wavecom.c ****     if (!SendWaitRsp("AT+CNMI=0,1,1,1,0\r\n", WAIT_OK))
 2953              		.loc 1 1198 0
 2954 0002 08B1     		cbz	r0, .L285
1199:src/wavecom.c ****       return FALSE;
 2955              		.loc 1 1199 0
 2956 0004 0448     		ldr	r0, .L288
 2957              	.LVL351:
 2958 0006 00E0     		b	.L287
 2959              	.LVL352:
 2960              	.L285:
1203:src/wavecom.c ****       return FALSE;
 2961              		.loc 1 1203 0
 2962 0008 0448     		ldr	r0, .L288+4
 2963              	.LVL353:
 2964              	.L287:
ARM GAS  C:\Users\AHMED~1.ELE\AppData\Local\Temp\ccAQ67OG.s 			page 83


 2965 000a 0221     		movs	r1, #2
 2966 000c FFF7FEFF 		bl	SendWaitRsp
 2967              	.LVL354:
1200:src/wavecom.c ****   }
 2968              		.loc 1 1200 0
 2969 0010 0030     		adds	r0, r0, #0
 2970 0012 18BF     		it	ne
 2971 0014 0120     		movne	r0, #1
1206:src/wavecom.c **** //*****************************************************************************
 2972              		.loc 1 1206 0
 2973 0016 08BD     		pop	{r3, pc}
 2974              	.L289:
 2975              		.align	2
 2976              	.L288:
 2977 0018 C3010000 		.word	.LC51
 2978 001c D7010000 		.word	.LC52
 2979              		.cfi_endproc
 2980              	.LFE32:
 2981              		.size	SetNewMsgInd, .-SetNewMsgInd
 2982              		.section	.text.GetSmsMode,"ax",%progbits
 2983              		.align	1
 2984              		.global	GetSmsMode
 2985              		.thumb
 2986              		.thumb_func
 2987              		.type	GetSmsMode, %function
 2988              	GetSmsMode:
 2989              	.LFB33:
1217:src/wavecom.c ****   strcpy(gAtCmdIn, "AT+CMGF?\r\n");
 2990              		.loc 1 1217 0
 2991              		.cfi_startproc
 2992              		@ args = 0, pretend = 0, frame = 0
 2993              		@ frame_needed = 0, uses_anonymous_args = 0
 2994 0000 08B5     		push	{r3, lr}
 2995              		.cfi_def_cfa_offset 8
 2996              		.cfi_offset 3, -8
 2997              		.cfi_offset 14, -4
1218:src/wavecom.c ****   if (!SendWaitRsp(gAtCmdIn, WAIT_OK))
 2998              		.loc 1 1218 0
 2999 0002 0D49     		ldr	r1, .L295
 3000 0004 0D48     		ldr	r0, .L295+4
 3001 0006 FFF7FEFF 		bl	strcpy
 3002              	.LVL355:
1219:src/wavecom.c ****     return 0xFF;
 3003              		.loc 1 1219 0
 3004 000a 0C48     		ldr	r0, .L295+4
 3005 000c 0221     		movs	r1, #2
 3006 000e FFF7FEFF 		bl	SendWaitRsp
 3007              	.LVL356:
 3008 0012 68B1     		cbz	r0, .L292
1222:src/wavecom.c ****     return SMS_PDU_MODE;
 3009              		.loc 1 1222 0
 3010 0014 0A48     		ldr	r0, .L295+8
 3011 0016 0B49     		ldr	r1, .L295+12
 3012 0018 FFF7FEFF 		bl	strstr
 3013              	.LVL357:
 3014 001c 50B9     		cbnz	r0, .L293
1224:src/wavecom.c ****     return SMS_TXT_MODE;
ARM GAS  C:\Users\AHMED~1.ELE\AppData\Local\Temp\ccAQ67OG.s 			page 84


 3015              		.loc 1 1224 0
 3016 001e 0A49     		ldr	r1, .L295+16
 3017 0020 0748     		ldr	r0, .L295+8
 3018 0022 FFF7FEFF 		bl	strstr
 3019              	.LVL358:
1227:src/wavecom.c **** }
 3020              		.loc 1 1227 0
 3021 0026 0028     		cmp	r0, #0
 3022 0028 14BF     		ite	ne
 3023 002a 0120     		movne	r0, #1
 3024 002c FF20     		moveq	r0, #255
 3025 002e 08BD     		pop	{r3, pc}
 3026              	.L292:
1220:src/wavecom.c **** 
 3027              		.loc 1 1220 0
 3028 0030 FF20     		movs	r0, #255
 3029 0032 08BD     		pop	{r3, pc}
 3030              	.L293:
1223:src/wavecom.c ****   else if (strstr(gAtCmdOut, "+CMGF: 1"))
 3031              		.loc 1 1223 0
 3032 0034 0020     		movs	r0, #0
1228:src/wavecom.c **** //*****************************************************************************
 3033              		.loc 1 1228 0
 3034 0036 08BD     		pop	{r3, pc}
 3035              	.L296:
 3036              		.align	2
 3037              	.L295:
 3038 0038 EB010000 		.word	.LC53
 3039 003c DD050000 		.word	.LANCHOR0+1501
 3040 0040 00000000 		.word	.LANCHOR0
 3041 0044 F6010000 		.word	.LC54
 3042 0048 FF010000 		.word	.LC55
 3043              		.cfi_endproc
 3044              	.LFE33:
 3045              		.size	GetSmsMode, .-GetSmsMode
 3046              		.section	.text.GetSmsTotal,"ax",%progbits
 3047              		.align	1
 3048              		.global	GetSmsTotal
 3049              		.thumb
 3050              		.thumb_func
 3051              		.type	GetSmsTotal, %function
 3052              	GetSmsTotal:
 3053              	.LFB35:
1251:src/wavecom.c **** #if (T800)
1252:src/wavecom.c **** //*****************************************************************************
1253:src/wavecom.c **** //  Function        : KeepSmsStatus
1254:src/wavecom.c **** //  Description     : Enable/Disable SMS status change after read.
1255:src/wavecom.c **** //  Input           : TRUE: keep status, FALSE: update status
1256:src/wavecom.c **** //  Return          : None;
1257:src/wavecom.c **** //  Note            : //08-12-06 JC++
1258:src/wavecom.c **** //  Globals Changed : N/A
1259:src/wavecom.c **** //*****************************************************************************
1260:src/wavecom.c **** static BOOLEAN KeepSmsStatus(BOOLEAN aKeep)
1261:src/wavecom.c **** {
1262:src/wavecom.c ****   sprintf(gAtCmdIn, "AT+WUSS=%d\r\n", aKeep);
1263:src/wavecom.c ****   if (!SendWaitRsp(gAtCmdIn, WAIT_OK))
1264:src/wavecom.c ****     return FALSE;
ARM GAS  C:\Users\AHMED~1.ELE\AppData\Local\Temp\ccAQ67OG.s 			page 85


1265:src/wavecom.c **** 
1266:src/wavecom.c ****   return TRUE;
1267:src/wavecom.c **** }
1268:src/wavecom.c **** #endif
1269:src/wavecom.c **** //*****************************************************************************
1270:src/wavecom.c **** //  Function        : GetSmsTotal
1271:src/wavecom.c **** //  Description     : Get the short form operator name
1272:src/wavecom.c **** //  Input           : aUsed : used count
1273:src/wavecom.c **** //                    aTotal: available count
1274:src/wavecom.c **** //  Return          : None;
1275:src/wavecom.c **** //  Note            : //08-12-06 JC++
1276:src/wavecom.c **** //  Globals Changed : N/A
1277:src/wavecom.c **** //*****************************************************************************
1278:src/wavecom.c **** BOOLEAN GetSmsTotal(DWORD *aUsed, DWORD *aTotal)
1279:src/wavecom.c **** {
 3054              		.loc 1 1279 0
 3055              		.cfi_startproc
 3056              		@ args = 0, pretend = 0, frame = 0
 3057              		@ frame_needed = 0, uses_anonymous_args = 0
 3058              	.LVL359:
 3059 0000 2DE9F047 		push	{r4, r5, r6, r7, r8, r9, r10, lr}
 3060              		.cfi_def_cfa_offset 32
 3061              		.cfi_offset 4, -32
 3062              		.cfi_offset 5, -28
 3063              		.cfi_offset 6, -24
 3064              		.cfi_offset 7, -20
 3065              		.cfi_offset 8, -16
 3066              		.cfi_offset 9, -12
 3067              		.cfi_offset 10, -8
 3068              		.cfi_offset 14, -4
 3069              		.loc 1 1279 0
 3070 0004 8046     		mov	r8, r0
 3071 0006 0F46     		mov	r7, r1
1280:src/wavecom.c ****   BYTE *ptr;
1281:src/wavecom.c ****   DWORD idx1, idx2, r_len;
1282:src/wavecom.c **** 
1283:src/wavecom.c ****   ClearCmdBuf();
 3072              		.loc 1 1283 0
 3073 0008 FFF7FEFF 		bl	ClearCmdBuf
 3074              	.LVL360:
1284:src/wavecom.c ****   strcpy(gAtCmdIn, "AT+CPMS?\r\n");
 3075              		.loc 1 1284 0
 3076 000c 2049     		ldr	r1, .L304
 3077 000e 2148     		ldr	r0, .L304+4
 3078 0010 FFF7FEFF 		bl	strcpy
 3079              	.LVL361:
1285:src/wavecom.c ****   if (!SendWaitRsp(gAtCmdIn, WAIT_OK))
 3080              		.loc 1 1285 0
 3081 0014 1F48     		ldr	r0, .L304+4
 3082 0016 0221     		movs	r1, #2
1284:src/wavecom.c ****   strcpy(gAtCmdIn, "AT+CPMS?\r\n");
 3083              		.loc 1 1284 0
 3084 0018 1F4C     		ldr	r4, .L304+8
 3085              		.loc 1 1285 0
 3086 001a FFF7FEFF 		bl	SendWaitRsp
 3087              	.LVL362:
 3088 001e 10B9     		cbnz	r0, .L298
ARM GAS  C:\Users\AHMED~1.ELE\AppData\Local\Temp\ccAQ67OG.s 			page 86


 3089              	.L300:
1286:src/wavecom.c ****     return FALSE;
 3090              		.loc 1 1286 0
 3091 0020 0020     		movs	r0, #0
 3092 0022 BDE8F087 		pop	{r4, r5, r6, r7, r8, r9, r10, pc}
 3093              	.LVL363:
 3094              	.L298:
 3095              	.LBB29:
 3096              	.LBB30:
1287:src/wavecom.c **** 
1288:src/wavecom.c ****   ptr = (BYTE *)strstr((char const *)gAtCmdOut, "+CPMS:");
 3097              		.loc 1 1288 0
 3098 0026 2046     		mov	r0, r4
 3099 0028 1C49     		ldr	r1, .L304+12
 3100 002a FFF7FEFF 		bl	strstr
 3101              	.LVL364:
1289:src/wavecom.c ****   if (ptr == NULL)
 3102              		.loc 1 1289 0
 3103 002e 0646     		mov	r6, r0
 3104 0030 0028     		cmp	r0, #0
 3105 0032 F5D0     		beq	.L300
1290:src/wavecom.c ****     return FALSE;
1291:src/wavecom.c **** 
1292:src/wavecom.c ****   r_len = strlen(gAtCmdOut) - (ptr - (BYTE *)gAtCmdOut);
 3106              		.loc 1 1292 0
 3107 0034 2046     		mov	r0, r4
 3108              	.LVL365:
 3109 0036 FFF7FEFF 		bl	strlen
 3110              	.LVL366:
 3111 003a A41B     		subs	r4, r4, r6
1293:src/wavecom.c **** 
1294:src/wavecom.c ****   idx1 = fndb(ptr, ',', r_len);             // find first comma
 3112              		.loc 1 1294 0
 3113 003c 2C21     		movs	r1, #44
1292:src/wavecom.c **** 
 3114              		.loc 1 1292 0
 3115 003e 0444     		add	r4, r4, r0
 3116              	.LVL367:
 3117              		.loc 1 1294 0
 3118 0040 2246     		mov	r2, r4
 3119 0042 3046     		mov	r0, r6
 3120 0044 FFF7FEFF 		bl	fndb
 3121              	.LVL368:
1295:src/wavecom.c ****   if (idx1 == r_len)
 3122              		.loc 1 1295 0
 3123 0048 A042     		cmp	r0, r4
1294:src/wavecom.c ****   if (idx1 == r_len)
 3124              		.loc 1 1294 0
 3125 004a 0546     		mov	r5, r0
 3126              	.LVL369:
 3127              		.loc 1 1295 0
 3128 004c E8D0     		beq	.L300
1296:src/wavecom.c ****     return FALSE;
1297:src/wavecom.c **** 
1298:src/wavecom.c ****   r_len = r_len - idx1;
1299:src/wavecom.c ****   idx2 = fndb(ptr+idx1+1, ',', r_len);      // find second comma
 3129              		.loc 1 1299 0
ARM GAS  C:\Users\AHMED~1.ELE\AppData\Local\Temp\ccAQ67OG.s 			page 87


 3130 004e 00F1010A 		add	r10, r0, #1
1298:src/wavecom.c ****   idx2 = fndb(ptr+idx1+1, ',', r_len);      // find second comma
 3131              		.loc 1 1298 0
 3132 0052 241A     		subs	r4, r4, r0
 3133              	.LVL370:
 3134              		.loc 1 1299 0
 3135 0054 B244     		add	r10, r10, r6
 3136 0056 5046     		mov	r0, r10
 3137              	.LVL371:
 3138 0058 2C21     		movs	r1, #44
 3139 005a 2246     		mov	r2, r4
 3140 005c FFF7FEFF 		bl	fndb
 3141              	.LVL372:
1300:src/wavecom.c ****   if (idx2 == r_len)
 3142              		.loc 1 1300 0
 3143 0060 A042     		cmp	r0, r4
1299:src/wavecom.c ****   if (idx2 == r_len)
 3144              		.loc 1 1299 0
 3145 0062 8146     		mov	r9, r0
 3146              	.LVL373:
 3147              		.loc 1 1300 0
 3148 0064 DCD0     		beq	.L300
 3149              	.LVL374:
1301:src/wavecom.c ****     return FALSE;
1302:src/wavecom.c **** 
1303:src/wavecom.c ****   idx2 = idx1 + idx2 + 1;
1304:src/wavecom.c **** 
1305:src/wavecom.c ****   *aUsed =  (WORD)Asc2DWVAL(ptr+idx1+1, 3);
 3150              		.loc 1 1305 0
 3151 0066 5046     		mov	r0, r10
 3152              	.LVL375:
 3153 0068 FFF7FEFF 		bl	Asc2DWVAL.constprop.7
 3154              	.LVL376:
 3155 006c 0235     		adds	r5, r5, #2
 3156              	.LVL377:
 3157 006e 80B2     		uxth	r0, r0
 3158 0070 C8F80000 		str	r0, [r8]
1306:src/wavecom.c ****   *aTotal = (WORD)Asc2DWVAL(ptr+idx2+1, 3);
 3159              		.loc 1 1306 0
 3160 0074 05EB0900 		add	r0, r5, r9
 3161 0078 3044     		add	r0, r0, r6
 3162 007a FFF7FEFF 		bl	Asc2DWVAL.constprop.7
 3163              	.LVL378:
 3164 007e 80B2     		uxth	r0, r0
1307:src/wavecom.c **** 
1308:src/wavecom.c ****   *aTotal = *aTotal > MAX_SMS_REC ? MAX_SMS_REC: *aTotal;
 3165              		.loc 1 1308 0
 3166 0080 6428     		cmp	r0, #100
 3167 0082 28BF     		it	cs
 3168 0084 6420     		movcs	r0, #100
 3169 0086 3860     		str	r0, [r7]
1309:src/wavecom.c **** 
1310:src/wavecom.c ****   return TRUE;
 3170              		.loc 1 1310 0
 3171 0088 0120     		movs	r0, #1
 3172              	.LBE30:
 3173              	.LBE29:
ARM GAS  C:\Users\AHMED~1.ELE\AppData\Local\Temp\ccAQ67OG.s 			page 88


1311:src/wavecom.c **** }
 3174              		.loc 1 1311 0
 3175 008a BDE8F087 		pop	{r4, r5, r6, r7, r8, r9, r10, pc}
 3176              	.LVL379:
 3177              	.L305:
 3178 008e 00BF     		.align	2
 3179              	.L304:
 3180 0090 08020000 		.word	.LC56
 3181 0094 DD050000 		.word	.LANCHOR0+1501
 3182 0098 00000000 		.word	.LANCHOR0
 3183 009c 13020000 		.word	.LC57
 3184              		.cfi_endproc
 3185              	.LFE35:
 3186              		.size	GetSmsTotal, .-GetSmsTotal
 3187              		.section	.text.LoadSmsInbox,"ax",%progbits
 3188              		.align	1
 3189              		.global	LoadSmsInbox
 3190              		.thumb
 3191              		.thumb_func
 3192              		.type	LoadSmsInbox, %function
 3193              	LoadSmsInbox:
 3194              	.LFB38:
1312:src/wavecom.c **** //*****************************************************************************
1313:src/wavecom.c **** //  Function        : GetSmsInfo
1314:src/wavecom.c **** //  Description     : Get tel number and name
1315:src/wavecom.c **** //  Input           : *tel;     // ptr to tel number buffer
1316:src/wavecom.c **** //                  : *name;    // ptr to name buffer
1317:src/wavecom.c **** //                  : *s_ptr;   // starting ptr to search
1318:src/wavecom.c **** //                  : len;      // length of string to search
1319:src/wavecom.c **** //  Return          : 0;        // Not found
1320:src/wavecom.c **** //                    1;        // TEL READY
1321:src/wavecom.c **** //                    2;        // TEL & NAME ready
1322:src/wavecom.c **** //  Note            : N/A
1323:src/wavecom.c **** //  Globals Changed : N/A;
1324:src/wavecom.c **** //*****************************************************************************
1325:src/wavecom.c **** static BOOLEAN GetSmsInfo(struct SMS_LIST *msg, BYTE *s_ptr, DWORD len)
1326:src/wavecom.c **** {
1327:src/wavecom.c **** #if (T300|T810|A5T1000|T1000|TIRO|T800)
1328:src/wavecom.c ****   BYTE sts_buf[12];
1329:src/wavecom.c ****   BYTE sts_len, tel_len, dtime_len;
1330:src/wavecom.c ****   BYTE *ptr;
1331:src/wavecom.c ****   BYTE state;
1332:src/wavecom.c **** 
1333:src/wavecom.c ****   sts_len = tel_len = dtime_len = 0;
1334:src/wavecom.c ****   state = 0;
1335:src/wavecom.c ****   ptr = strstr(s_ptr, "+CMGR:");
1336:src/wavecom.c ****   while ((DWORD)(ptr - s_ptr) < len) {
1337:src/wavecom.c ****     if (*ptr == '\"') {
1338:src/wavecom.c ****       // break if end of capture date/time
1339:src/wavecom.c ****       if (state >= 7)
1340:src/wavecom.c ****         break;
1341:src/wavecom.c ****       state++;
1342:src/wavecom.c ****       ptr++;
1343:src/wavecom.c ****       continue;
1344:src/wavecom.c ****     }
1345:src/wavecom.c ****     switch (state) {
1346:src/wavecom.c ****       case 1:     // message status
ARM GAS  C:\Users\AHMED~1.ELE\AppData\Local\Temp\ccAQ67OG.s 			page 89


1347:src/wavecom.c ****         sts_buf[sts_len++] = *ptr;
1348:src/wavecom.c ****         break;
1349:src/wavecom.c ****       case 3:     // telephone number
1350:src/wavecom.c ****         if (tel_len < MAX_PHNUM_SIZE)
1351:src/wavecom.c ****           msg->sb_tel[tel_len++] = *ptr;
1352:src/wavecom.c ****         break;
1353:src/wavecom.c ****       case 7:     // date / time
1354:src/wavecom.c ****         if (dtime_len < sizeof(msg->sb_date_time))
1355:src/wavecom.c ****           msg->sb_date_time[dtime_len++] = *ptr;
1356:src/wavecom.c ****         break;
1357:src/wavecom.c ****       default:
1358:src/wavecom.c ****         break;
1359:src/wavecom.c ****     }
1360:src/wavecom.c ****     ptr++;
1361:src/wavecom.c ****   }
1362:src/wavecom.c ****   // decode message status
1363:src/wavecom.c ****   if (!memcmp(sts_buf, "REC UNREAD", 10))
1364:src/wavecom.c ****     msg->b_status = REC_UNREAD;
1365:src/wavecom.c ****   else if (!memcmp(sts_buf, "REC READ", 8))
1366:src/wavecom.c ****     msg->b_status = REC_READ;
1367:src/wavecom.c ****   else if (!memcmp(sts_buf, "STO UNSENT", 10))
1368:src/wavecom.c ****     msg->b_status = STO_UNSENT;
1369:src/wavecom.c ****   else if (!memcmp(sts_buf, "STO SENT", 8))
1370:src/wavecom.c ****     msg->b_status = STO_SENT;
1371:src/wavecom.c ****   else
1372:src/wavecom.c ****     return FALSE;
1373:src/wavecom.c **** 
1374:src/wavecom.c ****   // no tel. or date/time found
1375:src/wavecom.c ****   if (!tel_len || !dtime_len)
1376:src/wavecom.c ****     return FALSE;
1377:src/wavecom.c **** 
1378:src/wavecom.c ****   return TRUE;
1379:src/wavecom.c **** #endif
1380:src/wavecom.c **** }
1381:src/wavecom.c **** //*****************************************************************************
1382:src/wavecom.c **** //  Function        : SortSmsList
1383:src/wavecom.c **** //  Description     : Sort the SMS List by time.
1384:src/wavecom.c **** //  Input           : N/A
1385:src/wavecom.c **** //  Return          : N/A
1386:src/wavecom.c **** //  Note            : N/A
1387:src/wavecom.c **** //  Globals Changed : N/A
1388:src/wavecom.c **** //*****************************************************************************
1389:src/wavecom.c **** static void SortSmsList(void)
1390:src/wavecom.c **** {
1391:src/wavecom.c ****   WORD i, j;
1392:src/wavecom.c **** 
1393:src/wavecom.c ****   // Sort Record
1394:src/wavecom.c ****   for (i=0; i<gGSMData.d_sms_used-1; i++) {
1395:src/wavecom.c ****     for (j=i+1; j<gGSMData.d_sms_used; j++) {
1396:src/wavecom.c ****       if (memcmp(gGSMData.s_SMSList[i].sb_date_time, gGSMData.s_SMSList[j].sb_date_time, SMS_DATE_L
1397:src/wavecom.c ****         continue;
1398:src/wavecom.c ****       memcpy((BYTE *)&gGSMData.s_CurrSMS, (BYTE *)&gGSMData.s_SMSList[j], sizeof(struct SMS_LIST));
1399:src/wavecom.c ****       memcpy((BYTE *)&gGSMData.s_SMSList[j], (BYTE *)&gGSMData.s_SMSList[i], sizeof(struct SMS_LIST
1400:src/wavecom.c ****       memcpy((BYTE *)&gGSMData.s_SMSList[i], (BYTE *)&gGSMData.s_CurrSMS, sizeof(struct SMS_LIST));
1401:src/wavecom.c ****     }
1402:src/wavecom.c ****   }
1403:src/wavecom.c **** }
ARM GAS  C:\Users\AHMED~1.ELE\AppData\Local\Temp\ccAQ67OG.s 			page 90


1404:src/wavecom.c **** //*****************************************************************************
1405:src/wavecom.c **** //  Function        : LoadSmsInbox
1406:src/wavecom.c **** //  Description     : Load SMS messages
1407:src/wavecom.c **** //  Input           : N/A
1408:src/wavecom.c **** //  Return          : None;
1409:src/wavecom.c **** //  Note            : //08-12-06 JC++
1410:src/wavecom.c **** //  Globals Changed : N/A
1411:src/wavecom.c **** //*****************************************************************************
1412:src/wavecom.c **** void LoadSmsInbox(void)
1413:src/wavecom.c **** {
 3195              		.loc 1 1413 0
 3196              		.cfi_startproc
 3197              		@ args = 0, pretend = 0, frame = 24
 3198              		@ frame_needed = 0, uses_anonymous_args = 0
 3199 0000 2DE9F04F 		push	{r4, r5, r6, r7, r8, r9, r10, fp, lr}
 3200              		.cfi_def_cfa_offset 36
 3201              		.cfi_offset 4, -36
 3202              		.cfi_offset 5, -32
 3203              		.cfi_offset 6, -28
 3204              		.cfi_offset 7, -24
 3205              		.cfi_offset 8, -20
 3206              		.cfi_offset 9, -16
 3207              		.cfi_offset 10, -12
 3208              		.cfi_offset 11, -8
 3209              		.cfi_offset 14, -4
 3210 0004 87B0     		sub	sp, sp, #28
 3211              		.cfi_def_cfa_offset 64
1414:src/wavecom.c ****   char *ptr;
1415:src/wavecom.c ****   BYTE i;
1416:src/wavecom.c ****   WORD count;
1417:src/wavecom.c **** 
1418:src/wavecom.c ****   ClearCmdBuf();
 3212              		.loc 1 1418 0
 3213 0006 FFF7FEFF 		bl	ClearCmdBuf
 3214              	.LVL380:
1419:src/wavecom.c ****   GetSmsTotal(&gGSMData.d_sms_used, &gGSMData.d_sms_total);
 3215              		.loc 1 1419 0
 3216 000a 9848     		ldr	r0, .L355
1420:src/wavecom.c **** #if (T800)
1421:src/wavecom.c ****   KeepSmsStatus(TRUE);        // keep message status after LIST command
1422:src/wavecom.c **** #endif
1423:src/wavecom.c ****   if (gGSMData.b_sms_mode == SMS_PDU_MODE)
 3217              		.loc 1 1423 0
 3218 000c 984C     		ldr	r4, .L355+4
1419:src/wavecom.c ****   GetSmsTotal(&gGSMData.d_sms_used, &gGSMData.d_sms_total);
 3219              		.loc 1 1419 0
 3220 000e 011F     		subs	r1, r0, #4
 3221 0010 FFF7FEFF 		bl	GetSmsTotal
 3222              	.LVL381:
 3223              		.loc 1 1423 0
 3224 0014 94F82C30 		ldrb	r3, [r4, #44]	@ zero_extendqisi2
 3225 0018 13B9     		cbnz	r3, .L307
 3226              	.LVL382:
 3227              	.LBB39:
 3228              	.LBB40:
 3229 001a 0120     		movs	r0, #1
 3230 001c FFF7FEFF 		bl	SetSmsMode.part.1
ARM GAS  C:\Users\AHMED~1.ELE\AppData\Local\Temp\ccAQ67OG.s 			page 91


 3231              	.LVL383:
 3232              	.L307:
 3233              	.LBE40:
 3234              	.LBE39:
1424:src/wavecom.c ****     SetSmsMode(SMS_TXT_MODE);    // set TEXT mode for getting date/time info
1425:src/wavecom.c **** 
1426:src/wavecom.c ****   memset(gGSMData.s_SMSList, 0, sizeof(gGSMData.s_SMSList));
1427:src/wavecom.c ****   gGSMData.d_sms_recv = count = 0;
 3235              		.loc 1 1427 0
 3236 0020 0026     		movs	r6, #0
1428:src/wavecom.c **** 
1429:src/wavecom.c ****   for (i=1; i<=gGSMData.d_sms_total; i++) {
 3237              		.loc 1 1429 0
 3238 0022 0127     		movs	r7, #1
1426:src/wavecom.c ****   gGSMData.d_sms_recv = count = 0;
 3239              		.loc 1 1426 0
 3240 0024 9348     		ldr	r0, .L355+8
 3241 0026 0021     		movs	r1, #0
 3242 0028 41F27072 		movw	r2, #6000
 3243 002c FFF7FEFF 		bl	memset
 3244              	.LVL384:
1427:src/wavecom.c **** 
 3245              		.loc 1 1427 0
 3246 0030 A663     		str	r6, [r4, #56]
 3247              	.LVL385:
 3248              	.L308:
 3249              		.loc 1 1429 0 discriminator 1
 3250 0032 236B     		ldr	r3, [r4, #48]
 3251 0034 9F42     		cmp	r7, r3
 3252 0036 00F2B080 		bhi	.L331
1430:src/wavecom.c ****     // send READ command to read every message
1431:src/wavecom.c ****     sprintf(gAtCmdIn, "AT+CMGR=%d\r\n", i);
 3253              		.loc 1 1431 0
 3254 003a 8F49     		ldr	r1, .L355+12
 3255 003c 8F48     		ldr	r0, .L355+16
 3256 003e 3A46     		mov	r2, r7
 3257 0040 FFF7FEFF 		bl	sprintf
 3258              	.LVL386:
1432:src/wavecom.c ****     if (!SendWaitRsp(gAtCmdIn, WAIT_OK))
 3259              		.loc 1 1432 0
 3260 0044 8D48     		ldr	r0, .L355+16
 3261 0046 0221     		movs	r1, #2
 3262 0048 FFF7FEFF 		bl	SendWaitRsp
 3263              	.LVL387:
 3264 004c 0028     		cmp	r0, #0
 3265 004e 00F0AC80 		beq	.L309
1433:src/wavecom.c ****       continue;
1434:src/wavecom.c ****     // find status info from each message
1435:src/wavecom.c ****     ptr = strstr((char const *)gAtCmdOut, "+CMGR:");
 3266              		.loc 1 1435 0
 3267 0052 8B48     		ldr	r0, .L355+20
 3268 0054 8B49     		ldr	r1, .L355+24
 3269 0056 FFF7FEFF 		bl	strstr
 3270              	.LVL388:
1436:src/wavecom.c ****     if (ptr == NULL)
 3271              		.loc 1 1436 0
 3272 005a 8246     		mov	r10, r0
ARM GAS  C:\Users\AHMED~1.ELE\AppData\Local\Temp\ccAQ67OG.s 			page 92


 3273 005c 0028     		cmp	r0, #0
 3274 005e 00F0A480 		beq	.L309
1437:src/wavecom.c ****       continue;
1438:src/wavecom.c ****     count++;
1439:src/wavecom.c ****     // get SMS info (date/time & tel no)
1440:src/wavecom.c ****     if (GetSmsInfo(&gGSMData.s_SMSList[gGSMData.d_sms_recv], ptr, strlen(ptr))==FALSE)
 3275              		.loc 1 1440 0
 3276 0062 834B     		ldr	r3, .L355+4
1438:src/wavecom.c ****     // get SMS info (date/time & tel no)
 3277              		.loc 1 1438 0
 3278 0064 0136     		adds	r6, r6, #1
 3279              	.LVL389:
 3280              		.loc 1 1440 0
 3281 0066 9D6B     		ldr	r5, [r3, #56]
 3282 0068 FFF7FEFF 		bl	strlen
 3283              	.LVL390:
 3284              	.LBB41:
 3285              	.LBB42:
1335:src/wavecom.c ****   while ((DWORD)(ptr - s_ptr) < len) {
 3286              		.loc 1 1335 0
 3287 006c 8549     		ldr	r1, .L355+24
 3288              	.LBE42:
 3289              	.LBE41:
1438:src/wavecom.c ****     // get SMS info (date/time & tel no)
 3290              		.loc 1 1438 0
 3291 006e B6B2     		uxth	r6, r6
 3292              	.LVL391:
 3293              		.loc 1 1440 0
 3294 0070 0190     		str	r0, [sp, #4]
 3295              	.LVL392:
 3296              	.LBB44:
 3297              	.LBB43:
1335:src/wavecom.c ****   while ((DWORD)(ptr - s_ptr) < len) {
 3298              		.loc 1 1335 0
 3299 0072 5046     		mov	r0, r10
 3300              	.LVL393:
 3301 0074 FFF7FEFF 		bl	strstr
 3302              	.LVL394:
1334:src/wavecom.c ****   ptr = strstr(s_ptr, "+CMGR:");
 3303              		.loc 1 1334 0
 3304 0078 0023     		movs	r3, #0
1333:src/wavecom.c ****   state = 0;
 3305              		.loc 1 1333 0
 3306 007a 9846     		mov	r8, r3
 3307 007c 9946     		mov	r9, r3
 3308 007e 1946     		mov	r1, r3
 3309              	.LVL395:
 3310              	.L310:
1336:src/wavecom.c ****     if (*ptr == '\"') {
 3311              		.loc 1 1336 0
 3312 0080 019A     		ldr	r2, [sp, #4]
 3313 0082 CAEB000E 		rsb	lr, r10, r0
 3314 0086 9645     		cmp	lr, r2
 3315 0088 06D2     		bcs	.L321
1337:src/wavecom.c ****       // break if end of capture date/time
 3316              		.loc 1 1337 0
 3317 008a 10F801EB 		ldrb	lr, [r0], #1	@ zero_extendqisi2
ARM GAS  C:\Users\AHMED~1.ELE\AppData\Local\Temp\ccAQ67OG.s 			page 93


 3318              	.LVL396:
 3319 008e BEF1220F 		cmp	lr, #34
 3320 0092 12D1     		bne	.L311
1339:src/wavecom.c ****         break;
 3321              		.loc 1 1339 0
 3322 0094 062B     		cmp	r3, #6
 3323 0096 0DD9     		bls	.L312
 3324              	.LVL397:
 3325              	.L321:
1363:src/wavecom.c ****     msg->b_status = REC_UNREAD;
 3326              		.loc 1 1363 0
 3327 0098 03A8     		add	r0, sp, #12
 3328 009a 7B49     		ldr	r1, .L355+28
 3329              	.LVL398:
 3330 009c 0A22     		movs	r2, #10
 3331 009e FFF7FEFF 		bl	memcmp
 3332              	.LVL399:
 3333 00a2 E0BB     		cbnz	r0, .L352
1364:src/wavecom.c ****   else if (!memcmp(sts_buf, "REC READ", 8))
 3334              		.loc 1 1364 0
 3335 00a4 3C23     		movs	r3, #60
 3336 00a6 03FB0543 		mla	r3, r3, r5, r4
 3337 00aa 03F58943 		add	r3, r3, #17536
 3338 00ae 83F83A00 		strb	r0, [r3, #58]
 3339 00b2 5CE0     		b	.L322
 3340              	.LVL400:
 3341              	.L312:
1341:src/wavecom.c ****       ptr++;
 3342              		.loc 1 1341 0
 3343 00b4 0133     		adds	r3, r3, #1
 3344              	.LVL401:
 3345 00b6 DBB2     		uxtb	r3, r3
 3346              	.LVL402:
 3347 00b8 E2E7     		b	.L310
 3348              	.LVL403:
 3349              	.L311:
1345:src/wavecom.c ****       case 1:     // message status
 3350              		.loc 1 1345 0
 3351 00ba 032B     		cmp	r3, #3
 3352 00bc 0BD0     		beq	.L317
 3353 00be 072B     		cmp	r3, #7
 3354 00c0 1BD0     		beq	.L318
 3355 00c2 012B     		cmp	r3, #1
 3356 00c4 DCD1     		bne	.L310
1347:src/wavecom.c ****         break;
 3357              		.loc 1 1347 0
 3358 00c6 0DF1180C 		add	ip, sp, #24
 3359 00ca 4A1C     		adds	r2, r1, #1
 3360              	.LVL404:
 3361 00cc 6144     		add	r1, r1, ip
 3362 00ce 01F80CEC 		strb	lr, [r1, #-12]
 3363 00d2 D1B2     		uxtb	r1, r2
 3364 00d4 D4E7     		b	.L310
 3365              	.LVL405:
 3366              	.L317:
1350:src/wavecom.c ****           msg->sb_tel[tel_len++] = *ptr;
 3367              		.loc 1 1350 0
ARM GAS  C:\Users\AHMED~1.ELE\AppData\Local\Temp\ccAQ67OG.s 			page 94


 3368 00d6 B9F11E0F 		cmp	r9, #30
 3369 00da D1D8     		bhi	.L310
1351:src/wavecom.c ****         break;
 3370              		.loc 1 1351 0
 3371 00dc 3C22     		movs	r2, #60
 3372 00de DFF890B1 		ldr	fp, .L355+4
 3373 00e2 09F1010C 		add	ip, r9, #1
 3374              	.LVL406:
 3375 00e6 02FB05B2 		mla	r2, r2, r5, fp
 3376 00ea 9144     		add	r9, r9, r2
 3377 00ec 09F58949 		add	r9, r9, #17536
 3378 00f0 89F81AE0 		strb	lr, [r9, #26]
 3379 00f4 5FFA8CF9 		uxtb	r9, ip
 3380 00f8 C2E7     		b	.L310
 3381              	.LVL407:
 3382              	.L318:
1354:src/wavecom.c ****           msg->sb_date_time[dtime_len++] = *ptr;
 3383              		.loc 1 1354 0
 3384 00fa B8F1150F 		cmp	r8, #21
 3385 00fe BFD8     		bhi	.L310
1355:src/wavecom.c ****         break;
 3386              		.loc 1 1355 0
 3387 0100 3C22     		movs	r2, #60
 3388 0102 DFF86CB1 		ldr	fp, .L355+4
 3389 0106 08F1010C 		add	ip, r8, #1
 3390              	.LVL408:
 3391 010a 02FB05B2 		mla	r2, r2, r5, fp
 3392 010e 9044     		add	r8, r8, r2
 3393 0110 08F58948 		add	r8, r8, #17536
 3394 0114 88F804E0 		strb	lr, [r8, #4]
 3395 0118 5FFA8CF8 		uxtb	r8, ip
 3396              	.LVL409:
 3397 011c B0E7     		b	.L310
 3398              	.LVL410:
 3399              	.L352:
1365:src/wavecom.c ****     msg->b_status = REC_READ;
 3400              		.loc 1 1365 0
 3401 011e 03A8     		add	r0, sp, #12
 3402 0120 5A49     		ldr	r1, .L355+32
 3403 0122 0822     		movs	r2, #8
 3404 0124 FFF7FEFF 		bl	memcmp
 3405              	.LVL411:
 3406 0128 30B9     		cbnz	r0, .L323
1366:src/wavecom.c ****   else if (!memcmp(sts_buf, "STO UNSENT", 10))
 3407              		.loc 1 1366 0
 3408 012a 3C23     		movs	r3, #60
 3409 012c 0122     		movs	r2, #1
 3410 012e 03FB0543 		mla	r3, r3, r5, r4
 3411 0132 03F58943 		add	r3, r3, #17536
 3412 0136 18E0     		b	.L351
 3413              	.L323:
1367:src/wavecom.c ****     msg->b_status = STO_UNSENT;
 3414              		.loc 1 1367 0
 3415 0138 03A8     		add	r0, sp, #12
 3416 013a 5549     		ldr	r1, .L355+36
 3417 013c 0A22     		movs	r2, #10
 3418 013e FFF7FEFF 		bl	memcmp
ARM GAS  C:\Users\AHMED~1.ELE\AppData\Local\Temp\ccAQ67OG.s 			page 95


 3419              	.LVL412:
 3420 0142 30B9     		cbnz	r0, .L324
1368:src/wavecom.c ****   else if (!memcmp(sts_buf, "STO SENT", 8))
 3421              		.loc 1 1368 0
 3422 0144 3C23     		movs	r3, #60
 3423 0146 0222     		movs	r2, #2
 3424 0148 03FB0543 		mla	r3, r3, r5, r4
 3425 014c 03F58943 		add	r3, r3, #17536
 3426 0150 0BE0     		b	.L351
 3427              	.L324:
1369:src/wavecom.c ****     msg->b_status = STO_SENT;
 3428              		.loc 1 1369 0
 3429 0152 03A8     		add	r0, sp, #12
 3430 0154 4F49     		ldr	r1, .L355+40
 3431 0156 0822     		movs	r2, #8
 3432 0158 FFF7FEFF 		bl	memcmp
 3433              	.LVL413:
 3434 015c 28BB     		cbnz	r0, .L309
1370:src/wavecom.c ****   else
 3435              		.loc 1 1370 0
 3436 015e 3C23     		movs	r3, #60
 3437 0160 0322     		movs	r2, #3
 3438 0162 03FB0543 		mla	r3, r3, r5, r4
 3439 0166 03F58943 		add	r3, r3, #17536
 3440              	.L351:
 3441 016a 83F83A20 		strb	r2, [r3, #58]
 3442              	.L322:
1375:src/wavecom.c ****     return FALSE;
 3443              		.loc 1 1375 0
 3444 016e B9F1000F 		cmp	r9, #0
 3445 0172 1AD0     		beq	.L309
 3446              	.LBE43:
 3447              	.LBE44:
 3448              		.loc 1 1440 0
 3449 0174 B8F1000F 		cmp	r8, #0
 3450 0178 17D0     		beq	.L309
1441:src/wavecom.c ****       continue;
1442:src/wavecom.c ****     // update list for READ/UNREAD messages only
1443:src/wavecom.c ****     if ((gGSMData.s_SMSList[gGSMData.d_sms_recv].b_status != REC_UNREAD) &&
 3451              		.loc 1 1443 0
 3452 017a 3C23     		movs	r3, #60
 3453 017c 3C4A     		ldr	r2, .L355+4
 3454 017e 03FB0543 		mla	r3, r3, r5, r4
 3455 0182 03F58943 		add	r3, r3, #17536
 3456 0186 93F83A10 		ldrb	r1, [r3, #58]	@ zero_extendqisi2
 3457 018a 0129     		cmp	r1, #1
 3458 018c 0DD8     		bhi	.L309
1444:src/wavecom.c ****         (gGSMData.s_SMSList[gGSMData.d_sms_recv].b_status != REC_READ))
1445:src/wavecom.c ****       continue;
1446:src/wavecom.c **** 
1447:src/wavecom.c ****     gGSMData.s_SMSList[gGSMData.d_sms_recv].d_idx = i;
 3459              		.loc 1 1447 0
 3460 018e 1F60     		str	r7, [r3]
1448:src/wavecom.c ****     gGSMData.d_sms_recv++;
1449:src/wavecom.c **** 
1450:src/wavecom.c ****     if (count >= gGSMData.d_sms_used)
 3461              		.loc 1 1450 0
ARM GAS  C:\Users\AHMED~1.ELE\AppData\Local\Temp\ccAQ67OG.s 			page 96


 3462 0190 536B     		ldr	r3, [r2, #52]
1448:src/wavecom.c ****     gGSMData.d_sms_recv++;
 3463              		.loc 1 1448 0
 3464 0192 0135     		adds	r5, r5, #1
 3465              	.LVL414:
 3466              		.loc 1 1450 0
 3467 0194 9E42     		cmp	r6, r3
1448:src/wavecom.c ****     gGSMData.d_sms_recv++;
 3468              		.loc 1 1448 0
 3469 0196 9563     		str	r5, [r2, #56]
 3470              		.loc 1 1450 0
 3471 0198 05D3     		bcc	.L328
 3472              	.LVL415:
 3473              	.L331:
1451:src/wavecom.c ****       break;
1452:src/wavecom.c **** 
1453:src/wavecom.c ****     if (gGSMData.d_sms_recv >= MAX_SMS_REC)
1454:src/wavecom.c ****       break;
1455:src/wavecom.c ****   }
1456:src/wavecom.c **** 
1457:src/wavecom.c ****   if (gGSMData.b_sms_mode == SMS_PDU_MODE)
 3474              		.loc 1 1457 0
 3475 019a 94F82C00 		ldrb	r0, [r4, #44]	@ zero_extendqisi2
 3476 019e 38B9     		cbnz	r0, .L330
 3477              	.LVL416:
 3478              	.LBB45:
 3479              	.LBB46:
 3480 01a0 FFF7FEFF 		bl	SetSmsMode.part.1
 3481              	.LVL417:
 3482 01a4 04E0     		b	.L330
 3483              	.LVL418:
 3484              	.L328:
 3485              	.LBE46:
 3486              	.LBE45:
1453:src/wavecom.c ****       break;
 3487              		.loc 1 1453 0
 3488 01a6 632D     		cmp	r5, #99
 3489 01a8 F7D8     		bhi	.L331
 3490              	.LVL419:
 3491              	.L309:
1429:src/wavecom.c ****     // send READ command to read every message
 3492              		.loc 1 1429 0 discriminator 2
 3493 01aa 0137     		adds	r7, r7, #1
 3494              	.LVL420:
 3495 01ac FFB2     		uxtb	r7, r7
 3496              	.LVL421:
 3497 01ae 40E7     		b	.L308
 3498              	.L330:
 3499              	.LBB47:
 3500              	.LBB48:
1395:src/wavecom.c ****       if (memcmp(gGSMData.s_SMSList[i].sb_date_time, gGSMData.s_SMSList[j].sb_date_time, SMS_DATE_L
 3501              		.loc 1 1395 0
 3502 01b0 0027     		movs	r7, #0
 3503              	.LVL422:
 3504              	.L336:
1394:src/wavecom.c ****     for (j=i+1; j<gGSMData.d_sms_used; j++) {
 3505              		.loc 1 1394 0
ARM GAS  C:\Users\AHMED~1.ELE\AppData\Local\Temp\ccAQ67OG.s 			page 97


 3506 01b2 2F4B     		ldr	r3, .L355+4
 3507 01b4 D3F83490 		ldr	r9, [r3, #52]
 3508 01b8 09F1FF33 		add	r3, r9, #-1
 3509 01bc 9F42     		cmp	r7, r3
 3510 01be 51D2     		bcs	.L353
1395:src/wavecom.c ****       if (memcmp(gGSMData.s_SMSList[i].sb_date_time, gGSMData.s_SMSList[j].sb_date_time, SMS_DATE_L
 3511              		.loc 1 1395 0
 3512 01c0 07F10108 		add	r8, r7, #1
 3513 01c4 1FFA88F8 		uxth	r8, r8
 3514              	.LVL423:
 3515 01c8 4646     		mov	r6, r8
 3516              	.LVL424:
 3517              	.L333:
 3518 01ca 4E45     		cmp	r6, r9
 3519 01cc 48D2     		bcs	.L354
1396:src/wavecom.c ****         continue;
 3520              		.loc 1 1396 0
 3521 01ce 3C25     		movs	r5, #60
 3522 01d0 DFF89CA0 		ldr	r10, .L355+4
 3523 01d4 05FB07F4 		mul	r4, r5, r7
 3524 01d8 7543     		muls	r5, r6, r5
 3525 01da 04F58940 		add	r0, r4, #17536
 3526 01de 05F58941 		add	r1, r5, #17536
 3527 01e2 5044     		add	r0, r0, r10
 3528 01e4 5144     		add	r1, r1, r10
 3529 01e6 0430     		adds	r0, r0, #4
 3530 01e8 0431     		adds	r1, r1, #4
 3531 01ea 1122     		movs	r2, #17
 3532 01ec FFF7FEFF 		bl	memcmp
 3533              	.LVL425:
 3534 01f0 0028     		cmp	r0, #0
 3535 01f2 32DA     		bge	.L334
1398:src/wavecom.c ****       memcpy((BYTE *)&gGSMData.s_SMSList[j], (BYTE *)&gGSMData.s_SMSList[i], sizeof(struct SMS_LIST
 3536              		.loc 1 1398 0
 3537 01f4 5544     		add	r5, r5, r10
 3538 01f6 DFF8A0E0 		ldr	lr, .L355+44
 3539 01fa 05F58945 		add	r5, r5, #17536
 3540 01fe AC46     		mov	ip, r5
 3541 0200 BCE80F00 		ldmia	ip!, {r0, r1, r2, r3}
 3542 0204 AEE80F00 		stmia	lr!, {r0, r1, r2, r3}
 3543 0208 BCE80F00 		ldmia	ip!, {r0, r1, r2, r3}
 3544 020c AEE80F00 		stmia	lr!, {r0, r1, r2, r3}
 3545 0210 BCE80F00 		ldmia	ip!, {r0, r1, r2, r3}
 3546 0214 AEE80F00 		stmia	lr!, {r0, r1, r2, r3}
 3547 0218 9CE80700 		ldmia	ip, {r0, r1, r2}
1399:src/wavecom.c ****       memcpy((BYTE *)&gGSMData.s_SMSList[i], (BYTE *)&gGSMData.s_CurrSMS, sizeof(struct SMS_LIST));
 3548              		.loc 1 1399 0
 3549 021c 5444     		add	r4, r4, r10
 3550 021e 04F58944 		add	r4, r4, #17536
 3551 0222 A246     		mov	r10, r4
1398:src/wavecom.c ****       memcpy((BYTE *)&gGSMData.s_SMSList[j], (BYTE *)&gGSMData.s_SMSList[i], sizeof(struct SMS_LIST
 3552              		.loc 1 1398 0
 3553 0224 8EE80700 		stmia	lr, {r0, r1, r2}
1399:src/wavecom.c ****       memcpy((BYTE *)&gGSMData.s_SMSList[i], (BYTE *)&gGSMData.s_CurrSMS, sizeof(struct SMS_LIST));
 3554              		.loc 1 1399 0
 3555 0228 BAE80F00 		ldmia	r10!, {r0, r1, r2, r3}
 3556 022c 0FC5     		stmia	r5!, {r0, r1, r2, r3}
ARM GAS  C:\Users\AHMED~1.ELE\AppData\Local\Temp\ccAQ67OG.s 			page 98


 3557 022e BAE80F00 		ldmia	r10!, {r0, r1, r2, r3}
 3558 0232 0FC5     		stmia	r5!, {r0, r1, r2, r3}
 3559 0234 BAE80F00 		ldmia	r10!, {r0, r1, r2, r3}
 3560 0238 0FC5     		stmia	r5!, {r0, r1, r2, r3}
 3561 023a 9AE80700 		ldmia	r10, {r0, r1, r2}
1400:src/wavecom.c ****     }
 3562              		.loc 1 1400 0
 3563 023e AEF13005 		sub	r5, lr, #48
1399:src/wavecom.c ****       memcpy((BYTE *)&gGSMData.s_SMSList[i], (BYTE *)&gGSMData.s_CurrSMS, sizeof(struct SMS_LIST));
 3564              		.loc 1 1399 0
 3565 0242 8CE80700 		stmia	ip, {r0, r1, r2}
1400:src/wavecom.c ****     }
 3566              		.loc 1 1400 0
 3567 0246 0FCD     		ldmia	r5!, {r0, r1, r2, r3}
 3568 0248 0FC4     		stmia	r4!, {r0, r1, r2, r3}
 3569 024a 0FCD     		ldmia	r5!, {r0, r1, r2, r3}
 3570 024c 0FC4     		stmia	r4!, {r0, r1, r2, r3}
 3571 024e 0FCD     		ldmia	r5!, {r0, r1, r2, r3}
 3572 0250 0FC4     		stmia	r4!, {r0, r1, r2, r3}
 3573 0252 9EE80700 		ldmia	lr, {r0, r1, r2}
 3574 0256 8AE80700 		stmia	r10, {r0, r1, r2}
 3575              	.L334:
1395:src/wavecom.c ****       if (memcmp(gGSMData.s_SMSList[i].sb_date_time, gGSMData.s_SMSList[j].sb_date_time, SMS_DATE_L
 3576              		.loc 1 1395 0
 3577 025a 0136     		adds	r6, r6, #1
 3578              	.LVL426:
 3579 025c B6B2     		uxth	r6, r6
 3580              	.LVL427:
 3581 025e B4E7     		b	.L333
 3582              	.L354:
1394:src/wavecom.c ****     for (j=i+1; j<gGSMData.d_sms_used; j++) {
 3583              		.loc 1 1394 0
 3584 0260 4746     		mov	r7, r8
 3585              	.LVL428:
 3586 0262 A6E7     		b	.L336
 3587              	.LVL429:
 3588              	.L353:
 3589              	.LBE48:
 3590              	.LBE47:
1458:src/wavecom.c ****     SetSmsMode(SMS_PDU_MODE);
1459:src/wavecom.c **** #if (T800)  
1460:src/wavecom.c ****   KeepSmsStatus(FALSE);
1461:src/wavecom.c **** #endif  
1462:src/wavecom.c ****   SortSmsList();  // Sort by time
1463:src/wavecom.c **** }
 3591              		.loc 1 1463 0
 3592 0264 07B0     		add	sp, sp, #28
 3593              		.cfi_def_cfa_offset 36
 3594              		@ sp needed
 3595 0266 BDE8F08F 		pop	{r4, r5, r6, r7, r8, r9, r10, fp, pc}
 3596              	.LVL430:
 3597              	.L356:
 3598 026a 00BF     		.align	2
 3599              	.L355:
 3600 026c 34000000 		.word	gGSMData+52
 3601 0270 00000000 		.word	gGSMData
 3602 0274 80440000 		.word	gGSMData+17536
ARM GAS  C:\Users\AHMED~1.ELE\AppData\Local\Temp\ccAQ67OG.s 			page 99


 3603 0278 1A020000 		.word	.LC58
 3604 027c DD050000 		.word	.LANCHOR0+1501
 3605 0280 00000000 		.word	.LANCHOR0
 3606 0284 27020000 		.word	.LC59
 3607 0288 2E020000 		.word	.LC60
 3608 028c 39020000 		.word	.LC61
 3609 0290 42020000 		.word	.LC62
 3610 0294 4D020000 		.word	.LC63
 3611 0298 F05B0000 		.word	gGSMData+23536
 3612              		.cfi_endproc
 3613              	.LFE38:
 3614              		.size	LoadSmsInbox, .-LoadSmsInbox
 3615              		.section	.text.ReadSms,"ax",%progbits
 3616              		.align	1
 3617              		.global	ReadSms
 3618              		.thumb
 3619              		.thumb_func
 3620              		.type	ReadSms, %function
 3621              	ReadSms:
 3622              	.LFB39:
1464:src/wavecom.c **** //*****************************************************************************
1465:src/wavecom.c **** //  Function        : ReadSms
1466:src/wavecom.c **** //  Description     : Read SMS from memory
1467:src/wavecom.c **** //  Input           : aMsg;     // pointer to sturct SMS_MSG
1468:src/wavecom.c **** //                    aListId;  // List Idx
1469:src/wavecom.c **** //  Return          : None;
1470:src/wavecom.c **** //  Note            : //08-12-06 JC++
1471:src/wavecom.c **** //  Globals Changed : N/A
1472:src/wavecom.c **** //*****************************************************************************
1473:src/wavecom.c **** BOOLEAN ReadSms(struct SMS_MSG *aMsg, DWORD aListId)
1474:src/wavecom.c **** {
 3623              		.loc 1 1474 0
 3624              		.cfi_startproc
 3625              		@ args = 0, pretend = 0, frame = 512
 3626              		@ frame_needed = 0, uses_anonymous_args = 0
 3627              	.LVL431:
 3628 0000 2DE9F04F 		push	{r4, r5, r6, r7, r8, r9, r10, fp, lr}
 3629              		.cfi_def_cfa_offset 36
 3630              		.cfi_offset 4, -36
 3631              		.cfi_offset 5, -32
 3632              		.cfi_offset 6, -28
 3633              		.cfi_offset 7, -24
 3634              		.cfi_offset 8, -20
 3635              		.cfi_offset 9, -16
 3636              		.cfi_offset 10, -12
 3637              		.cfi_offset 11, -8
 3638              		.cfi_offset 14, -4
 3639 0004 ADF5037D 		sub	sp, sp, #524
 3640              		.cfi_def_cfa_offset 560
1475:src/wavecom.c ****   struct SMS_PDU sms_pdu;
1476:src/wavecom.c ****   BYTE tmpstr[256];
1477:src/wavecom.c ****   DWORD len;
1478:src/wavecom.c ****   struct GPRSSMSDATA sms_data;
1479:src/wavecom.c ****   BYTE *ptr, *mptr;
1480:src/wavecom.c **** 
1481:src/wavecom.c ****   sms_data.s_pdu = &sms_pdu;
 3641              		.loc 1 1481 0
ARM GAS  C:\Users\AHMED~1.ELE\AppData\Local\Temp\ccAQ67OG.s 			page 100


 3642 0008 03AE     		add	r6, sp, #12
1482:src/wavecom.c ****   sms_data.s_str = tmpstr;
 3643              		.loc 1 1482 0
 3644 000a 42AB     		add	r3, sp, #264
1481:src/wavecom.c ****   sms_data.s_str = tmpstr;
 3645              		.loc 1 1481 0
 3646 000c 0DF12409 		add	r9, sp, #36
1483:src/wavecom.c ****   sms_data.d_len = &len;  
 3647              		.loc 1 1483 0
 3648 0010 0DF1080A 		add	r10, sp, #8
1484:src/wavecom.c **** 
1485:src/wavecom.c ****   ClearCmdBuf();
1486:src/wavecom.c ****   if (gGSMData.b_sms_mode == SMS_TXT_MODE)
 3649              		.loc 1 1486 0
 3650 0014 374D     		ldr	r5, .L373
1482:src/wavecom.c ****   sms_data.d_len = &len;  
 3651              		.loc 1 1482 0
 3652 0016 7360     		str	r3, [r6, #4]
1474:src/wavecom.c ****   struct SMS_PDU sms_pdu;
 3653              		.loc 1 1474 0
 3654 0018 0746     		mov	r7, r0
 3655 001a 8846     		mov	r8, r1
1481:src/wavecom.c ****   sms_data.s_str = tmpstr;
 3656              		.loc 1 1481 0
 3657 001c C6F80090 		str	r9, [r6]
1483:src/wavecom.c **** 
 3658              		.loc 1 1483 0
 3659 0020 C6F808A0 		str	r10, [r6, #8]
1485:src/wavecom.c ****   if (gGSMData.b_sms_mode == SMS_TXT_MODE)
 3660              		.loc 1 1485 0
 3661 0024 FFF7FEFF 		bl	ClearCmdBuf
 3662              	.LVL432:
 3663              		.loc 1 1486 0
 3664 0028 95F82C30 		ldrb	r3, [r5, #44]	@ zero_extendqisi2
 3665 002c 012B     		cmp	r3, #1
 3666 002e 02D1     		bne	.L358
 3667              	.LVL433:
 3668              	.LBB53:
 3669              	.LBB54:
 3670 0030 0020     		movs	r0, #0
 3671 0032 FFF7FEFF 		bl	SetSmsMode.part.1
 3672              	.LVL434:
 3673              	.L358:
 3674              	.LBE54:
 3675              	.LBE53:
1487:src/wavecom.c ****     SetSmsMode(SMS_PDU_MODE);    // set PDU mode for reading/decoding SMS
1488:src/wavecom.c **** 
1489:src/wavecom.c ****   // send READ command to read every message
1490:src/wavecom.c ****   sprintf(gAtCmdIn, "AT+CMGR=%d\r\n", gGSMData.s_SMSList[aListId].d_idx);
 3676              		.loc 1 1490 0
 3677 0036 3C24     		movs	r4, #60
 3678 0038 2F49     		ldr	r1, .L373+4
 3679 003a 04FB0854 		mla	r4, r4, r8, r5
 3680 003e 2F48     		ldr	r0, .L373+8
 3681 0040 04F58944 		add	r4, r4, #17536
 3682 0044 2268     		ldr	r2, [r4]
 3683 0046 FFF7FEFF 		bl	sprintf
ARM GAS  C:\Users\AHMED~1.ELE\AppData\Local\Temp\ccAQ67OG.s 			page 101


 3684              	.LVL435:
1491:src/wavecom.c ****   if (!SendWaitRsp(gAtCmdIn, WAIT_OK))
 3685              		.loc 1 1491 0
 3686 004a 2C48     		ldr	r0, .L373+8
 3687 004c 0221     		movs	r1, #2
 3688 004e FFF7FEFF 		bl	SendWaitRsp
 3689              	.LVL436:
 3690 0052 08B9     		cbnz	r0, .L359
 3691              	.L361:
1492:src/wavecom.c ****     return FALSE;
 3692              		.loc 1 1492 0
 3693 0054 0024     		movs	r4, #0
 3694 0056 48E0     		b	.L360
 3695              	.L359:
1493:src/wavecom.c **** 
1494:src/wavecom.c ****   // find status info from each message
1495:src/wavecom.c ****   ptr = strstr((char const *)gAtCmdOut, "+CMGR:");
 3696              		.loc 1 1495 0
 3697 0058 2948     		ldr	r0, .L373+12
 3698 005a 2A49     		ldr	r1, .L373+16
 3699 005c FFF7FEFF 		bl	strstr
 3700              	.LVL437:
1496:src/wavecom.c ****   if (ptr == NULL)
 3701              		.loc 1 1496 0
 3702 0060 8346     		mov	fp, r0
 3703 0062 0028     		cmp	r0, #0
 3704 0064 F6D0     		beq	.L361
1497:src/wavecom.c ****     return FALSE;
1498:src/wavecom.c **** 
1499:src/wavecom.c ****   // change status from UNREAD to READ
1500:src/wavecom.c ****   if (gGSMData.s_SMSList[aListId].b_status == REC_UNREAD)
 3705              		.loc 1 1500 0
 3706 0066 94F83A30 		ldrb	r3, [r4, #58]	@ zero_extendqisi2
 3707 006a 3834     		adds	r4, r4, #56
 3708 006c 0BB9     		cbnz	r3, .L362
1501:src/wavecom.c ****     gGSMData.s_SMSList[aListId].b_status = REC_READ;
 3709              		.loc 1 1501 0
 3710 006e 0123     		movs	r3, #1
 3711 0070 A370     		strb	r3, [r4, #2]
 3712              	.L362:
1502:src/wavecom.c **** 
1503:src/wavecom.c ****   mptr = strchr(ptr, '\n');
 3713              		.loc 1 1503 0
 3714 0072 5846     		mov	r0, fp
 3715              	.LVL438:
 3716 0074 0A21     		movs	r1, #10
 3717 0076 FFF7FEFF 		bl	strchr
 3718              	.LVL439:
1504:src/wavecom.c ****   if (mptr == NULL)
 3719              		.loc 1 1504 0
