ARM GAS  C:\Users\AHMED~1.ELE\AppData\Local\Temp\ccAQ67OG.s 			page 1


   1              		.syntax unified
   2              		.cpu cortex-a5
   3              		.fpu softvfp
   4              		.eabi_attribute 20, 1
   5              		.eabi_attribute 21, 1
   6              		.eabi_attribute 23, 3
   7              		.eabi_attribute 24, 1
   8              		.eabi_attribute 25, 1
   9              		.eabi_attribute 26, 1
  10              		.eabi_attribute 30, 4
  11              		.eabi_attribute 34, 0
  12              		.eabi_attribute 18, 4
  13              		.thumb
  14              		.file	"wavecom.c"
  15              		.text
  16              	.Ltext0:
  17              		.cfi_sections	.debug_frame
  18              		.section	.text.ClearCmdBuf,"ax",%progbits
  19              		.align	1
  20              		.thumb
  21              		.thumb_func
  22              		.type	ClearCmdBuf, %function
  23              	ClearCmdBuf:
  24              	.LFB1:
  25              		.file 1 "src/wavecom.c"
   1:src/wavecom.c **** //-----------------------------------------------------------------------------
   2:src/wavecom.c **** //  File          : WAVECOM.c
   3:src/wavecom.c **** //  Module        :
   4:src/wavecom.c **** //  Description   : Include API for WAVECOM Module (WMP100)
   5:src/wavecom.c **** //  Author        : Lewis
   6:src/wavecom.c **** //  Notes         : N/A
   7:src/wavecom.c **** //
   8:src/wavecom.c **** // ============================================================================
   9:src/wavecom.c **** // | Naming conventions                                                       |
  10:src/wavecom.c **** // | ~~~~~~~~~~~~~~~~~~                                                       |
  11:src/wavecom.c **** // |         Struct/Array : Leading s                                         |
  12:src/wavecom.c **** // |             Constant : Leading K                                         |
  13:src/wavecom.c **** // |      Global Variable : Leading g  (variable use outside one C file)      |
  14:src/wavecom.c **** // |                                                                          |
  15:src/wavecom.c **** // |   BYTE( 8 Bits) size : Leading b                                         |
  16:src/wavecom.c **** // |   CHAR( 8 Bits) size : Leading c                                         |
  17:src/wavecom.c **** // |   WORD(16 Bits) size : Leading w                                         |
  18:src/wavecom.c **** // |  DWORD(32 Bits) size : Leading d                                         |
  19:src/wavecom.c **** // |    int(32 Bits) size : Leading i                                         |
  20:src/wavecom.c **** // | DDWORD(64 Bits) size : Leading dd                                        |
  21:src/wavecom.c **** // |              Pointer : Leading p                                         |
  22:src/wavecom.c **** // |                                                                          |
  23:src/wavecom.c **** // |    Function argument : Leading a                                         |
  24:src/wavecom.c **** // |       Local Variable : All lower case                                    |
  25:src/wavecom.c **** // |                                                                          |
  26:src/wavecom.c **** // | Examples:                                                                |
  27:src/wavecom.c **** // |                Array : Leading s, (sb = arrary of byte, etc)             |
  28:src/wavecom.c **** // |              Pointer : Leading p, (pb = pointer of byte, etc)            |
  29:src/wavecom.c **** // ============================================================================
  30:src/wavecom.c **** //
  31:src/wavecom.c **** //  Date          Who         Action
  32:src/wavecom.c **** //  ------------  ----------- -------------------------------------------------
ARM GAS  C:\Users\AHMED~1.ELE\AppData\Local\Temp\ccAQ67OG.s 			page 2


  33:src/wavecom.c **** //  01 Apr  2009  Lewis       - Port from Creon (Lastest copy from John)
  34:src/wavecom.c **** //                            - Apply new naming covention.
  35:src/wavecom.c **** //-----------------------------------------------------------------------------
  36:src/wavecom.c **** #include <stdio.h>
  37:src/wavecom.c **** #include <string.h>
  38:src/wavecom.c **** #include "System.h"
  39:src/wavecom.c **** #include "util.h"
  40:src/wavecom.c **** #include "apm.h"
  41:src/wavecom.c **** #include "sysutil.h"
  42:src/wavecom.c **** #include "hardware.h"
  43:src/wavecom.c **** #include "wavecom.h"
  44:src/wavecom.c **** 
  45:src/wavecom.c **** #if (T300|T810|A5T1000|T1000|T800|TIRO)
  46:src/wavecom.c **** //----------------------------------------------------------------------
  47:src/wavecom.c **** //      Defines
  48:src/wavecom.c **** //----------------------------------------------------------------------
  49:src/wavecom.c **** #define ATCMD_TIMEOUT   600*2  // 6 secs timeout
  50:src/wavecom.c **** 
  51:src/wavecom.c **** #if (T800)
  52:src/wavecom.c **** #define SMS_PDU_MODE           K_WPduMode
  53:src/wavecom.c **** #define SMS_TXT_MODE           K_WTextMode
  54:src/wavecom.c **** #define SMS_TP_MTI_SMS_SUBMIT  K_SmsSubmit
  55:src/wavecom.c **** #else
  56:src/wavecom.c **** #define SMS_PDU_MODE           0
  57:src/wavecom.c **** #define SMS_TXT_MODE           1
  58:src/wavecom.c **** #define SMS_TP_MTI_SMS_SUBMIT  K_GPRS_SMS_TP_MTI_SMS_SUBMIT
  59:src/wavecom.c **** #endif
  60:src/wavecom.c **** 
  61:src/wavecom.c **** //----------------------------------------------------------------------
  62:src/wavecom.c **** //       Command Code
  63:src/wavecom.c **** //----------------------------------------------------------------------
  64:src/wavecom.c **** #define NO_WAIT           0   // not wait any response
  65:src/wavecom.c **** #define WAIT_RSP          1   // wait until response comes
  66:src/wavecom.c **** #define WAIT_OK           2   // wait until "OK"/"ERROR"
  67:src/wavecom.c **** 
  68:src/wavecom.c **** //----------------------------------------------------------------------
  69:src/wavecom.c **** //      Constant
  70:src/wavecom.c **** //----------------------------------------------------------------------
  71:src/wavecom.c **** static const char *KBookID[] = { "SM", "MC", "LD", "RC"};   // Phone Book
  72:src/wavecom.c **** //static const char *KListType[] = {"REC UNREAD","REC READ","STO UNSENT","STO SENT","ALL"};  // SMS
  73:src/wavecom.c **** 
  74:src/wavecom.c **** //----------------------------------------------------------------------
  75:src/wavecom.c **** //       Global variables
  76:src/wavecom.c **** //----------------------------------------------------------------------
  77:src/wavecom.c **** #define MAX_BUF_SIZE     1500  // max buffer according to boot system
  78:src/wavecom.c **** static char gAtCmdIn[MAX_BUF_SIZE+1];
  79:src/wavecom.c **** static char gAtCmdOut[MAX_BUF_SIZE+1];
  80:src/wavecom.c **** 
  81:src/wavecom.c **** struct GSM_DATA gGSMData;   // Use By Phone Book
  82:src/wavecom.c **** //#if (T800)
  83:src/wavecom.c **** //static T_SMS_PDU gSmsPdu;
  84:src/wavecom.c **** //#endif
  85:src/wavecom.c **** //#if (TIRO)
  86:src/wavecom.c **** //static T_GPRS_SMS_PDU gSmsPdu;
  87:src/wavecom.c **** //#endif
  88:src/wavecom.c **** 
  89:src/wavecom.c **** //*****************************************************************************
ARM GAS  C:\Users\AHMED~1.ELE\AppData\Local\Temp\ccAQ67OG.s 			page 3


  90:src/wavecom.c **** //  Function        : SendWaitRsp
  91:src/wavecom.c **** //  Description     : Send & wait response.
  92:src/wavecom.c **** //  Input           : aCmdStr;  // Wavecom AT command string.
  93:src/wavecom.c **** //                    aWaitRsp; // NO_WAIT/WAIT_RSP/WAIT_OK
  94:src/wavecom.c **** //  Return          : TRUE;     // valid AT response received
  95:src/wavecom.c **** //                    FALSE;    // error in sending/receiving AT response
  96:src/wavecom.c **** //  Note            : N/A
  97:src/wavecom.c **** //  Globals Changed : N/A
  98:src/wavecom.c **** //*****************************************************************************
  99:src/wavecom.c **** static BOOLEAN SendWaitRsp(void *aCmdStr, BYTE aWaitRsp)
 100:src/wavecom.c **** {
 101:src/wavecom.c ****   struct GPRSATCMD  at_cmd;
 102:src/wavecom.c ****   struct GPRSATRESP at_resp;
 103:src/wavecom.c ****   DWORD last_tick, curr_tick;
 104:src/wavecom.c ****   DWORD rx_len;
 105:src/wavecom.c ****   char  *ptr;
 106:src/wavecom.c **** 
 107:src/wavecom.c ****   last_tick = FreeRunMW();
 108:src/wavecom.c ****   while (1) {
 109:src/wavecom.c ****     curr_tick = FreeRunMW();
 110:src/wavecom.c ****     if ((curr_tick - last_tick) > ATCMD_TIMEOUT)
 111:src/wavecom.c ****       break;
 112:src/wavecom.c ****     if (StatMW(gGprsHandle, MW_GSTS_ATCMDRDY, NULL)&MW_GSTS_ATCMDRDY)
 113:src/wavecom.c ****       break;
 114:src/wavecom.c ****   }
 115:src/wavecom.c ****   if (!(StatMW(gGprsHandle, MW_GSTS_ATCMDRDY, NULL)&MW_GSTS_ATCMDRDY))
 116:src/wavecom.c ****     return FALSE;
 117:src/wavecom.c **** 
 118:src/wavecom.c ****   at_cmd.d_timeout = ATCMD_TIMEOUT;
 119:src/wavecom.c ****   strcpy(at_cmd.sb_content, aCmdStr);
 120:src/wavecom.c ****   if (!IOCtlMW(gGprsHandle, IO_GPRS_CMDSEND, &at_cmd))
 121:src/wavecom.c ****     return FALSE;
 122:src/wavecom.c **** 
 123:src/wavecom.c ****   if (aWaitRsp == NO_WAIT)
 124:src/wavecom.c ****     return TRUE;
 125:src/wavecom.c **** 
 126:src/wavecom.c ****   memset(gAtCmdOut, 0, sizeof(gAtCmdOut));
 127:src/wavecom.c ****   ptr = gAtCmdOut;
 128:src/wavecom.c ****   last_tick = FreeRunMW();
 129:src/wavecom.c ****   rx_len = 0;
 130:src/wavecom.c ****   while (1) {
 131:src/wavecom.c ****     curr_tick = FreeRunMW();
 132:src/wavecom.c ****     if ((curr_tick>last_tick) && ((curr_tick-last_tick) >= ATCMD_TIMEOUT))
 133:src/wavecom.c ****       break;
 134:src/wavecom.c ****     if ((curr_tick<last_tick) && (((DWORD)-1-last_tick+curr_tick) >= ATCMD_TIMEOUT))
 135:src/wavecom.c ****       break;
 136:src/wavecom.c ****     if (StatMW(gGprsHandle, MW_GSTS_ATRESPRDY, NULL)&MW_GSTS_ATRESPRDY) {
 137:src/wavecom.c ****       at_resp.d_maxlen = MAX_BUF_SIZE-strlen(gAtCmdOut);
 138:src/wavecom.c ****       rx_len = IOCtlMW(gGprsHandle, IO_GPRS_CMDRESP, &at_resp);
 139:src/wavecom.c ****       memcpy(ptr, at_resp.sb_content, rx_len);
 140:src/wavecom.c ****       if (aWaitRsp == WAIT_OK) {
 141:src/wavecom.c ****         if (strstr((char const *)ptr, "OK") != NULL)
 142:src/wavecom.c ****           return TRUE;
 143:src/wavecom.c ****         if (strstr((char const *)ptr, "ERROR") != NULL)
 144:src/wavecom.c ****           return TRUE;
 145:src/wavecom.c ****       }
 146:src/wavecom.c ****       if (strlen(gAtCmdOut) == MAX_BUF_SIZE)
ARM GAS  C:\Users\AHMED~1.ELE\AppData\Local\Temp\ccAQ67OG.s 			page 4


 147:src/wavecom.c ****         break;
 148:src/wavecom.c ****       ptr += rx_len;
 149:src/wavecom.c ****     }
 150:src/wavecom.c ****     else
 151:src/wavecom.c ****       if ((aWaitRsp==WAIT_RSP)&&strlen(gAtCmdOut))
 152:src/wavecom.c ****         return TRUE;
 153:src/wavecom.c ****     SleepMW();
 154:src/wavecom.c ****   }
 155:src/wavecom.c ****   if ((aWaitRsp==WAIT_RSP)&&strlen(gAtCmdOut))
 156:src/wavecom.c ****     return TRUE;
 157:src/wavecom.c **** 
 158:src/wavecom.c ****   return FALSE;
 159:src/wavecom.c **** }
 160:src/wavecom.c **** #if (T800)
 161:src/wavecom.c **** //*****************************************************************************
 162:src/wavecom.c **** //  Function        : WaitRsp
 163:src/wavecom.c **** //  Description     : Wait response from Wavecom module
 164:src/wavecom.c **** //  Input           : aType;   // WAIT_RSP/WAIT_OK
 165:src/wavecom.c **** //  Return          : TRUE;    // valid AT response received
 166:src/wavecom.c **** //                    FALSE;   // error in sending/receiving AT response
 167:src/wavecom.c **** //  Note            : N/A
 168:src/wavecom.c **** //  Globals Changed : N/A
 169:src/wavecom.c **** //*****************************************************************************
 170:src/wavecom.c **** static BOOLEAN WaitRsp(DWORD aType)
 171:src/wavecom.c **** {
 172:src/wavecom.c ****   struct GPRSATRESP  at_resp;
 173:src/wavecom.c **** 
 174:src/wavecom.c ****   DWORD last_tick, curr_tick;
 175:src/wavecom.c ****   DWORD rx_len;
 176:src/wavecom.c ****   char  *ptr;
 177:src/wavecom.c **** 
 178:src/wavecom.c ****   memset(gAtCmdOut, 0, sizeof(gAtCmdOut));
 179:src/wavecom.c ****   ptr = gAtCmdOut;
 180:src/wavecom.c ****   last_tick = FreeRunMW();
 181:src/wavecom.c ****   rx_len = 0;
 182:src/wavecom.c ****   while (1) {
 183:src/wavecom.c ****     curr_tick = FreeRunMW();
 184:src/wavecom.c ****     if ((curr_tick - last_tick) > ATCMD_TIMEOUT)
 185:src/wavecom.c ****       break;
 186:src/wavecom.c ****     if (StatMW(gGprsHandle, MW_GSTS_ATRESPRDY, NULL)&MW_GSTS_ATRESPRDY) {
 187:src/wavecom.c ****       at_resp.d_maxlen = MAX_BUF_SIZE-strlen(gAtCmdOut);
 188:src/wavecom.c ****       rx_len = IOCtlMW(gGprsHandle, IO_GPRS_CMDRESP, &at_resp);
 189:src/wavecom.c ****       strcpy(ptr, at_resp.sb_content);
 190:src/wavecom.c ****       if (aType == WAIT_OK) {
 191:src/wavecom.c ****         if (strstr((char const *)ptr, "OK") != NULL)
 192:src/wavecom.c ****           return TRUE;
 193:src/wavecom.c ****         if (strstr((char const *)ptr, "ERROR") != NULL)
 194:src/wavecom.c ****           return TRUE;
 195:src/wavecom.c ****       }
 196:src/wavecom.c ****       if (strlen(gAtCmdOut) == MAX_BUF_SIZE)
 197:src/wavecom.c ****         break;
 198:src/wavecom.c ****       ptr += rx_len;
 199:src/wavecom.c ****     }
 200:src/wavecom.c ****     else
 201:src/wavecom.c ****       if ((aType==WAIT_RSP)&&strlen(gAtCmdOut))
 202:src/wavecom.c ****         return TRUE;
 203:src/wavecom.c ****     SleepMW();
ARM GAS  C:\Users\AHMED~1.ELE\AppData\Local\Temp\ccAQ67OG.s 			page 5


 204:src/wavecom.c ****   }
 205:src/wavecom.c ****   if ((aType==WAIT_RSP)&&strlen(gAtCmdOut))
 206:src/wavecom.c ****     return TRUE;
 207:src/wavecom.c ****   return FALSE;
 208:src/wavecom.c **** }
 209:src/wavecom.c **** #endif
 210:src/wavecom.c **** //*****************************************************************************
 211:src/wavecom.c **** //  Function        : ClearCmdBuf
 212:src/wavecom.c **** //  Description     : Clead Response buffer from WAVE module.
 213:src/wavecom.c **** //  Input           : N/A
 214:src/wavecom.c **** //  Return          : N/A
 215:src/wavecom.c **** //  Note            : N/A
 216:src/wavecom.c **** //  Globals Changed : N/A
 217:src/wavecom.c **** //*****************************************************************************
 218:src/wavecom.c **** static void ClearCmdBuf(void)
 219:src/wavecom.c **** {
  26              		.loc 1 219 0
  27              		.cfi_startproc
  28              		@ args = 0, pretend = 0, frame = 1512
  29              		@ frame_needed = 0, uses_anonymous_args = 0
  30 0000 10B5     		push	{r4, lr}
  31              		.cfi_def_cfa_offset 8
  32              		.cfi_offset 4, -8
  33              		.cfi_offset 14, -4
  34 0002 ADF5BE6D 		sub	sp, sp, #1520
  35              		.cfi_def_cfa_offset 1528
  36              	.L2:
 220:src/wavecom.c ****   struct GPRSATRESP  at_resp;
 221:src/wavecom.c ****   // clear AT response
 222:src/wavecom.c ****   do {
 223:src/wavecom.c ****     at_resp.d_maxlen = sizeof(at_resp.sb_content);
  37              		.loc 1 223 0 discriminator 1
  38 0006 03AB     		add	r3, sp, #12
  39 0008 40F2DD52 		movw	r2, #1501
 224:src/wavecom.c ****     IOCtlMW(gGprsHandle, IO_GPRS_CMDRESP, &at_resp);
  40              		.loc 1 224 0 discriminator 1
  41 000c 0D4C     		ldr	r4, .L5
  42 000e 0721     		movs	r1, #7
 223:src/wavecom.c ****     IOCtlMW(gGprsHandle, IO_GPRS_CMDRESP, &at_resp);
  43              		.loc 1 223 0 discriminator 1
  44 0010 0392     		str	r2, [sp, #12]
  45              		.loc 1 224 0 discriminator 1
  46 0012 0093     		str	r3, [sp]
  47 0014 2268     		ldr	r2, [r4]
  48 0016 0323     		movs	r3, #3
  49 0018 0F20     		movs	r0, #15
  50 001a FFF7FEFF 		bl	lib_app_call
  51              	.LVL0:
 225:src/wavecom.c ****     SleepMW();
  52              		.loc 1 225 0 discriminator 1
  53 001e 4FF4CE70 		mov	r0, #412
  54 0022 FFF7FEFF 		bl	sys_func0
  55              	.LVL1:
 226:src/wavecom.c ****   } while (StatMW(gGprsHandle, MW_GSTS_ATRESPRDY, NULL)&MW_GSTS_ATRESPRDY);
  56              		.loc 1 226 0 discriminator 1
  57 0026 0023     		movs	r3, #0
  58 0028 0F20     		movs	r0, #15
ARM GAS  C:\Users\AHMED~1.ELE\AppData\Local\Temp\ccAQ67OG.s 			page 6


  59 002a 0093     		str	r3, [sp]
  60 002c 0821     		movs	r1, #8
  61 002e 4FF08063 		mov	r3, #67108864
  62 0032 2268     		ldr	r2, [r4]
  63 0034 FFF7FEFF 		bl	lib_app_call
  64              	.LVL2:
  65 0038 4301     		lsls	r3, r0, #5
  66 003a E4D4     		bmi	.L2
 227:src/wavecom.c **** }
  67              		.loc 1 227 0
  68 003c 0DF5BE6D 		add	sp, sp, #1520
  69              		.cfi_def_cfa_offset 8
  70              		@ sp needed
  71 0040 10BD     		pop	{r4, pc}
  72              	.L6:
  73 0042 00BF     		.align	2
  74              	.L5:
  75 0044 00000000 		.word	gGprsHandle
  76              		.cfi_endproc
  77              	.LFE1:
  78              		.size	ClearCmdBuf, .-ClearCmdBuf
  79              		.section	.text.SendWaitRsp.part.0,"ax",%progbits
  80              		.align	1
  81              		.thumb
  82              		.thumb_func
  83              		.type	SendWaitRsp.part.0, %function
  84              	SendWaitRsp.part.0:
  85              	.LFB43:
  99:src/wavecom.c **** {
  86              		.loc 1 99 0
  87              		.cfi_startproc
  88              		@ args = 0, pretend = 0, frame = 3016
  89              		@ frame_needed = 0, uses_anonymous_args = 0
  90              	.LVL3:
  91 0000 2DE9F043 		push	{r4, r5, r6, r7, r8, r9, lr}
  92              		.cfi_def_cfa_offset 28
  93              		.cfi_offset 4, -28
  94              		.cfi_offset 5, -24
  95              		.cfi_offset 6, -20
  96              		.cfi_offset 7, -16
  97              		.cfi_offset 8, -12
  98              		.cfi_offset 9, -8
  99              		.cfi_offset 14, -4
 100 0004 ADF6D43D 		subw	sp, sp, #3028
 101              		.cfi_def_cfa_offset 3056
 118:src/wavecom.c ****   strcpy(at_cmd.sb_content, aCmdStr);
 102              		.loc 1 118 0
 103 0008 02AC     		add	r4, sp, #8
  99:src/wavecom.c **** {
 104              		.loc 1 99 0
 105 000a 0346     		mov	r3, r0
 118:src/wavecom.c ****   strcpy(at_cmd.sb_content, aCmdStr);
 106              		.loc 1 118 0
 107 000c 4FF49662 		mov	r2, #1200
 108 0010 2046     		mov	r0, r4
 109              	.LVL4:
  99:src/wavecom.c **** {
ARM GAS  C:\Users\AHMED~1.ELE\AppData\Local\Temp\ccAQ67OG.s 			page 7


 110              		.loc 1 99 0
 111 0012 0D46     		mov	r5, r1
 118:src/wavecom.c ****   strcpy(at_cmd.sb_content, aCmdStr);
 112              		.loc 1 118 0
 113 0014 40F8042B 		str	r2, [r0], #4
 119:src/wavecom.c ****   if (!IOCtlMW(gGprsHandle, IO_GPRS_CMDSEND, &at_cmd))
 114              		.loc 1 119 0
 115 0018 1946     		mov	r1, r3
 116              	.LVL5:
 120:src/wavecom.c ****     return FALSE;
 117              		.loc 1 120 0
 118 001a 3F4F     		ldr	r7, .L20
 119:src/wavecom.c ****   if (!IOCtlMW(gGprsHandle, IO_GPRS_CMDSEND, &at_cmd))
 119              		.loc 1 119 0
 120 001c FFF7FEFF 		bl	strcpy
 121              	.LVL6:
 120:src/wavecom.c ****     return FALSE;
 122              		.loc 1 120 0
 123 0020 0094     		str	r4, [sp]
 124 0022 0F20     		movs	r0, #15
 125 0024 0721     		movs	r1, #7
 126 0026 3A68     		ldr	r2, [r7]
 127 0028 0223     		movs	r3, #2
 128 002a FFF7FEFF 		bl	lib_app_call
 129              	.LVL7:
 130 002e 0028     		cmp	r0, #0
 131 0030 6DD0     		beq	.L8
 123:src/wavecom.c ****     return TRUE;
 132              		.loc 1 123 0
 133 0032 0DB9     		cbnz	r5, .L9
 134              	.L15:
 124:src/wavecom.c **** 
 135              		.loc 1 124 0
 136 0034 0120     		movs	r0, #1
 137 0036 6AE0     		b	.L8
 138              	.L9:
 126:src/wavecom.c ****   ptr = gAtCmdOut;
 139              		.loc 1 126 0
 140 0038 0021     		movs	r1, #0
 141 003a 40F2DD52 		movw	r2, #1501
 142 003e 3748     		ldr	r0, .L20+4
 143 0040 FFF7FEFF 		bl	memset
 144              	.LVL8:
 128:src/wavecom.c ****   rx_len = 0;
 145              		.loc 1 128 0
 146 0044 40F29F10 		movw	r0, #415
 147 0048 FFF7FEFF 		bl	sys_func0
 148              	.LVL9:
 127:src/wavecom.c ****   last_tick = FreeRunMW();
 149              		.loc 1 127 0
 150 004c 334C     		ldr	r4, .L20+4
 151 004e A046     		mov	r8, r4
 128:src/wavecom.c ****   rx_len = 0;
 152              		.loc 1 128 0
 153 0050 0646     		mov	r6, r0
 154              	.LVL10:
 155              	.L17:
ARM GAS  C:\Users\AHMED~1.ELE\AppData\Local\Temp\ccAQ67OG.s 			page 8


 131:src/wavecom.c ****     if ((curr_tick>last_tick) && ((curr_tick-last_tick) >= ATCMD_TIMEOUT))
 156              		.loc 1 131 0
 157 0052 40F29F10 		movw	r0, #415
 158 0056 FFF7FEFF 		bl	sys_func0
 159              	.LVL11:
 132:src/wavecom.c ****       break;
 160              		.loc 1 132 0
 161 005a B042     		cmp	r0, r6
 162 005c 03D9     		bls	.L10
 163 005e 831B     		subs	r3, r0, r6
 164 0060 B3F5966F 		cmp	r3, #1200
 165 0064 4CD2     		bcs	.L11
 166              	.L10:
 134:src/wavecom.c ****       break;
 167              		.loc 1 134 0
 168 0066 B042     		cmp	r0, r6
 169 0068 04D2     		bcs	.L12
 170 006a F343     		mvns	r3, r6
 171 006c 1844     		add	r0, r0, r3
 172              	.LVL12:
 173 006e B0F5966F 		cmp	r0, #1200
 174 0072 45D2     		bcs	.L11
 175              	.L12:
 136:src/wavecom.c ****       at_resp.d_maxlen = MAX_BUF_SIZE-strlen(gAtCmdOut);
 176              		.loc 1 136 0
 177 0074 0023     		movs	r3, #0
 178 0076 0F20     		movs	r0, #15
 179 0078 0093     		str	r3, [sp]
 180 007a 0821     		movs	r1, #8
 181 007c 4FF08063 		mov	r3, #67108864
 182 0080 3A68     		ldr	r2, [r7]
 183 0082 FFF7FEFF 		bl	lib_app_call
 184              	.LVL13:
 185 0086 4301     		lsls	r3, r0, #5
 186 0088 2FD5     		bpl	.L13
 137:src/wavecom.c ****       rx_len = IOCtlMW(gGprsHandle, IO_GPRS_CMDRESP, &at_resp);
 187              		.loc 1 137 0
 188 008a 2448     		ldr	r0, .L20+4
 189 008c FFF7FEFF 		bl	strlen
 190              	.LVL14:
 191 0090 0DF2EC53 		addw	r3, sp, #1516
 138:src/wavecom.c ****       memcpy(ptr, at_resp.sb_content, rx_len);
 192              		.loc 1 138 0
 193 0094 0721     		movs	r1, #7
 194 0096 0093     		str	r3, [sp]
 137:src/wavecom.c ****       rx_len = IOCtlMW(gGprsHandle, IO_GPRS_CMDRESP, &at_resp);
 195              		.loc 1 137 0
 196 0098 C0F5BB60 		rsb	r0, r0, #1496
 197 009c 0430     		adds	r0, r0, #4
 138:src/wavecom.c ****       memcpy(ptr, at_resp.sb_content, rx_len);
 198              		.loc 1 138 0
 199 009e 1E4B     		ldr	r3, .L20
 137:src/wavecom.c ****       rx_len = IOCtlMW(gGprsHandle, IO_GPRS_CMDRESP, &at_resp);
 200              		.loc 1 137 0
 201 00a0 CDF8EC05 		str	r0, [sp, #1516]
 138:src/wavecom.c ****       memcpy(ptr, at_resp.sb_content, rx_len);
 202              		.loc 1 138 0
ARM GAS  C:\Users\AHMED~1.ELE\AppData\Local\Temp\ccAQ67OG.s 			page 9


 203 00a4 1A68     		ldr	r2, [r3]
 204 00a6 0F20     		movs	r0, #15
 205 00a8 0323     		movs	r3, #3
 206 00aa FFF7FEFF 		bl	lib_app_call
 207              	.LVL15:
 139:src/wavecom.c ****       if (aWaitRsp == WAIT_OK) {
 208              		.loc 1 139 0
 209 00ae 0DF5BE61 		add	r1, sp, #1520
 138:src/wavecom.c ****       memcpy(ptr, at_resp.sb_content, rx_len);
 210              		.loc 1 138 0
 211 00b2 8146     		mov	r9, r0
 212              	.LVL16:
 139:src/wavecom.c ****       if (aWaitRsp == WAIT_OK) {
 213              		.loc 1 139 0
 214 00b4 4A46     		mov	r2, r9
 215 00b6 2046     		mov	r0, r4
 216              	.LVL17:
 217 00b8 FFF7FEFF 		bl	memcpy
 218              	.LVL18:
 140:src/wavecom.c ****         if (strstr((char const *)ptr, "OK") != NULL)
 219              		.loc 1 140 0
 220 00bc 022D     		cmp	r5, #2
 221 00be 0BD1     		bne	.L14
 141:src/wavecom.c ****           return TRUE;
 222              		.loc 1 141 0
 223 00c0 2046     		mov	r0, r4
 224 00c2 1749     		ldr	r1, .L20+8
 225 00c4 FFF7FEFF 		bl	strstr
 226              	.LVL19:
 227 00c8 0028     		cmp	r0, #0
 228 00ca B3D1     		bne	.L15
 143:src/wavecom.c ****           return TRUE;
 229              		.loc 1 143 0
 230 00cc 2046     		mov	r0, r4
 231 00ce 1549     		ldr	r1, .L20+12
 232 00d0 FFF7FEFF 		bl	strstr
 233              	.LVL20:
 234 00d4 0028     		cmp	r0, #0
 235 00d6 ADD1     		bne	.L15
 236              	.L14:
 146:src/wavecom.c ****         break;
 237              		.loc 1 146 0
 238 00d8 1048     		ldr	r0, .L20+4
 239 00da FFF7FEFF 		bl	strlen
 240              	.LVL21:
 241 00de 40F2DC53 		movw	r3, #1500
 242 00e2 9842     		cmp	r0, r3
 243 00e4 0CD0     		beq	.L11
 148:src/wavecom.c ****     }
 244              		.loc 1 148 0
 245 00e6 4C44     		add	r4, r4, r9
 246              	.LVL22:
 247 00e8 05E0     		b	.L16
 248              	.LVL23:
 249              	.L13:
 151:src/wavecom.c ****         return TRUE;
 250              		.loc 1 151 0
ARM GAS  C:\Users\AHMED~1.ELE\AppData\Local\Temp\ccAQ67OG.s 			page 10


 251 00ea 012D     		cmp	r5, #1
 252 00ec 03D1     		bne	.L16
 253 00ee 98F90030 		ldrsb	r3, [r8]
 254 00f2 002B     		cmp	r3, #0
 255 00f4 9ED1     		bne	.L15
 256              	.L16:
 153:src/wavecom.c ****   }
 257              		.loc 1 153 0
 258 00f6 4FF4CE70 		mov	r0, #412
 259 00fa FFF7FEFF 		bl	sys_func0
 260              	.LVL24:
 261 00fe A8E7     		b	.L17
 262              	.L11:
 155:src/wavecom.c ****     return TRUE;
 263              		.loc 1 155 0
 264 0100 012D     		cmp	r5, #1
 265 0102 03D1     		bne	.L19
 266 0104 98F90000 		ldrsb	r0, [r8]
 267 0108 08B1     		cbz	r0, .L8
 268 010a 93E7     		b	.L15
 269              	.L19:
 158:src/wavecom.c **** }
 270              		.loc 1 158 0
 271 010c 0020     		movs	r0, #0
 272              	.LVL25:
 273              	.L8:
 159:src/wavecom.c **** #if (T800)
 274              		.loc 1 159 0
 275 010e 0DF6D43D 		addw	sp, sp, #3028
 276              		.cfi_def_cfa_offset 28
 277              		@ sp needed
 278 0112 BDE8F083 		pop	{r4, r5, r6, r7, r8, r9, pc}
 279              	.L21:
 280 0116 00BF     		.align	2
 281              	.L20:
 282 0118 00000000 		.word	gGprsHandle
 283 011c 00000000 		.word	.LANCHOR0
 284 0120 00000000 		.word	.LC1
 285 0124 03000000 		.word	.LC2
 286              		.cfi_endproc
 287              	.LFE43:
 288              		.size	SendWaitRsp.part.0, .-SendWaitRsp.part.0
 289              		.section	.text.SendWaitRsp,"ax",%progbits
 290              		.align	1
 291              		.thumb
 292              		.thumb_func
 293              		.type	SendWaitRsp, %function
 294              	SendWaitRsp:
 295              	.LFB0:
 100:src/wavecom.c ****   struct GPRSATCMD  at_cmd;
 296              		.loc 1 100 0
 297              		.cfi_startproc
 298              		@ args = 0, pretend = 0, frame = 0
 299              		@ frame_needed = 0, uses_anonymous_args = 0
 300              	.LVL26:
 301 0000 F7B5     		push	{r0, r1, r2, r4, r5, r6, r7, lr}
 302              		.cfi_def_cfa_offset 32
ARM GAS  C:\Users\AHMED~1.ELE\AppData\Local\Temp\ccAQ67OG.s 			page 11


 303              		.cfi_offset 4, -20
 304              		.cfi_offset 5, -16
 305              		.cfi_offset 6, -12
 306              		.cfi_offset 7, -8
 307              		.cfi_offset 14, -4
 100:src/wavecom.c ****   struct GPRSATCMD  at_cmd;
 308              		.loc 1 100 0
 309 0002 0646     		mov	r6, r0
 107:src/wavecom.c ****   while (1) {
 310              		.loc 1 107 0
 311 0004 40F29F10 		movw	r0, #415
 312              	.LVL27:
 100:src/wavecom.c ****   struct GPRSATCMD  at_cmd;
 313              		.loc 1 100 0
 314 0008 0D46     		mov	r5, r1
 107:src/wavecom.c ****   while (1) {
 315              		.loc 1 107 0
 316 000a FFF7FEFF 		bl	sys_func0
 317              	.LVL28:
 318 000e 0746     		mov	r7, r0
 319              	.LVL29:
 320              	.L27:
 109:src/wavecom.c ****     if ((curr_tick - last_tick) > ATCMD_TIMEOUT)
 321              		.loc 1 109 0
 322 0010 40F29F10 		movw	r0, #415
 323 0014 FFF7FEFF 		bl	sys_func0
 324              	.LVL30:
 325 0018 124C     		ldr	r4, .L29
 110:src/wavecom.c ****       break;
 326              		.loc 1 110 0
 327 001a C01B     		subs	r0, r0, r7
 328              	.LVL31:
 329 001c B0F5966F 		cmp	r0, #1200
 330 0020 12D9     		bls	.L23
 331              	.L26:
 115:src/wavecom.c ****     return FALSE;
 332              		.loc 1 115 0
 333 0022 0023     		movs	r3, #0
 334 0024 0F20     		movs	r0, #15
 335 0026 0093     		str	r3, [sp]
 336 0028 0821     		movs	r1, #8
 337 002a 2268     		ldr	r2, [r4]
 338 002c 4FF08073 		mov	r3, #16777216
 339 0030 FFF7FEFF 		bl	lib_app_call
 340              	.LVL32:
 341 0034 10F08070 		ands	r0, r0, #16777216
 342 0038 12D0     		beq	.L24
 343 003a 3046     		mov	r0, r6
 344 003c 2946     		mov	r1, r5
 159:src/wavecom.c **** #if (T800)
 345              		.loc 1 159 0
 346 003e 03B0     		add	sp, sp, #12
 347              		.cfi_remember_state
 348              		.cfi_def_cfa_offset 20
 349              		@ sp needed
 350 0040 BDE8F040 		pop	{r4, r5, r6, r7, lr}
 351              		.cfi_restore 14
ARM GAS  C:\Users\AHMED~1.ELE\AppData\Local\Temp\ccAQ67OG.s 			page 12


 352              		.cfi_restore 7
 353              		.cfi_restore 6
 354              		.cfi_restore 5
 355              		.cfi_restore 4
 356              		.cfi_def_cfa_offset 0
 357              	.LVL33:
 358 0044 FFF7FEBF 		b	SendWaitRsp.part.0
 359              	.LVL34:
 360              	.L23:
 361              		.cfi_restore_state
 112:src/wavecom.c ****       break;
 362              		.loc 1 112 0
 363 0048 0023     		movs	r3, #0
 364 004a 0F20     		movs	r0, #15
 365 004c 0093     		str	r3, [sp]
 366 004e 0821     		movs	r1, #8
 367 0050 4FF08073 		mov	r3, #16777216
 368 0054 2268     		ldr	r2, [r4]
 369 0056 FFF7FEFF 		bl	lib_app_call
 370              	.LVL35:
 371 005a C301     		lsls	r3, r0, #7
 372 005c D8D5     		bpl	.L27
 373 005e E0E7     		b	.L26
 374              	.L24:
 159:src/wavecom.c **** #if (T800)
 375              		.loc 1 159 0
 376 0060 03B0     		add	sp, sp, #12
 377              		.cfi_def_cfa_offset 20
 378              		@ sp needed
 379 0062 F0BD     		pop	{r4, r5, r6, r7, pc}
 380              	.LVL36:
 381              	.L30:
 382              		.align	2
 383              	.L29:
 384 0064 00000000 		.word	gGprsHandle
 385              		.cfi_endproc
 386              	.LFE0:
 387              		.size	SendWaitRsp, .-SendWaitRsp
 388              		.section	.text.SetSmsMode.part.1,"ax",%progbits
 389              		.align	1
 390              		.thumb
 391              		.thumb_func
 392              		.type	SetSmsMode.part.1, %function
 393              	SetSmsMode.part.1:
 394              	.LFB44:
 228:src/wavecom.c **** //*****************************************************************************
 229:src/wavecom.c **** //  Function        : WaitModuReady
 230:src/wavecom.c **** //  Description     : Wait for module ready to accept command.
 231:src/wavecom.c **** //  Input           : aTimeout;      // timeout in 10ms
 232:src/wavecom.c **** //  Return          : TRUE/FALSE;   // Ready/not Ready
 233:src/wavecom.c **** //  Note            : N/A
 234:src/wavecom.c **** //  Globals Changed : N/A
 235:src/wavecom.c **** //*****************************************************************************
 236:src/wavecom.c **** BOOLEAN WaitModuReady(DWORD aTimeout)
 237:src/wavecom.c **** {
 238:src/wavecom.c ****   DWORD status;
 239:src/wavecom.c ****   DWORD last_tick, curr_tick;
ARM GAS  C:\Users\AHMED~1.ELE\AppData\Local\Temp\ccAQ67OG.s 			page 13


 240:src/wavecom.c **** 
 241:src/wavecom.c ****   last_tick = FreeRunMW();
 242:src/wavecom.c ****   do {
 243:src/wavecom.c ****     curr_tick = FreeRunMW();
 244:src/wavecom.c ****     if ((curr_tick - last_tick) > aTimeout)
 245:src/wavecom.c ****       break;
 246:src/wavecom.c ****     status = StatMW(gGprsHandle, MW_GSTS_ATREADY1|MW_GSTS_ATREADY2, NULL);
 247:src/wavecom.c ****     if (status&(MW_GSTS_ATREADY1|MW_GSTS_ATREADY2))
 248:src/wavecom.c ****       return TRUE;
 249:src/wavecom.c ****     SleepMW();
 250:src/wavecom.c ****   } while (1);
 251:src/wavecom.c **** 
 252:src/wavecom.c ****   return FALSE;
 253:src/wavecom.c **** }
 254:src/wavecom.c **** //*****************************************************************************
 255:src/wavecom.c **** //  Function        : SimDetect
 256:src/wavecom.c **** //  Description     : Detect whether sim card Really inserted.
 257:src/wavecom.c **** //  Input           : N/A
 258:src/wavecom.c **** //  Return          : TRUE/FALSE;
 259:src/wavecom.c **** //  Note            : N/A
 260:src/wavecom.c **** //  Globals Changed : N/A
 261:src/wavecom.c **** //*****************************************************************************
 262:src/wavecom.c **** BOOLEAN SimDetect(void)
 263:src/wavecom.c **** {
 264:src/wavecom.c ****   BOOLEAN detected;
 265:src/wavecom.c **** 
 266:src/wavecom.c ****   detected = FALSE;
 267:src/wavecom.c ****   ClearCmdBuf();
 268:src/wavecom.c ****   if (SendWaitRsp("AT+CPIN?\r\n", WAIT_RSP)) {
 269:src/wavecom.c ****     if (strstr(gAtCmdOut, "CPIN"))
 270:src/wavecom.c ****       detected = TRUE;
 271:src/wavecom.c ****   }
 272:src/wavecom.c ****   ClearCmdBuf();
 273:src/wavecom.c **** 
 274:src/wavecom.c ****   return detected;
 275:src/wavecom.c **** }
 276:src/wavecom.c **** //*****************************************************************************
 277:src/wavecom.c **** //  Function        : RegisterNetwork
 278:src/wavecom.c **** //  Description     : Check network registration.
 279:src/wavecom.c **** //  Input           : 0:            // GSM
 280:src/wavecom.c **** //                    1;            // GPRS
 281:src/wavecom.c **** //  Return          : TRUE/FALSE;
 282:src/wavecom.c **** //  Note            : 0             // done no reg.
 283:src/wavecom.c **** //                    1             // registered home network
 284:src/wavecom.c **** //                    2             // processing
 285:src/wavecom.c **** //                    3             // denied
 286:src/wavecom.c **** //                    4             // unknow err
 287:src/wavecom.c **** //                    5             // registered roaming
 288:src/wavecom.c **** //  Globals Changed : N/A
 289:src/wavecom.c **** //*****************************************************************************
 290:src/wavecom.c **** BYTE RegisterNetwork(BYTE aGPRS)
 291:src/wavecom.c **** {
 292:src/wavecom.c ****   const char cmd[2][6] = { "CREG", "CGREG" };
 293:src/wavecom.c ****   char *ptr;
 294:src/wavecom.c **** 
 295:src/wavecom.c ****   ClearCmdBuf();
 296:src/wavecom.c ****   sprintf(gAtCmdIn, "AT+%s=1\r\n", cmd[aGPRS]);
ARM GAS  C:\Users\AHMED~1.ELE\AppData\Local\Temp\ccAQ67OG.s 			page 14


 297:src/wavecom.c **** 
 298:src/wavecom.c ****   if (!SendWaitRsp(gAtCmdIn, WAIT_OK))
 299:src/wavecom.c ****     return 4;
 300:src/wavecom.c **** 
 301:src/wavecom.c ****   ClearCmdBuf();
 302:src/wavecom.c ****   sprintf(gAtCmdIn, "AT+%s?\r\n", cmd[aGPRS]);
 303:src/wavecom.c ****   if (SendWaitRsp(gAtCmdIn, WAIT_RSP)) {
 304:src/wavecom.c ****     ptr = strstr(gAtCmdOut, cmd[aGPRS]);
 305:src/wavecom.c ****     if (ptr!=NULL) {
 306:src/wavecom.c ****       return ptr[strlen(cmd[aGPRS])+2];
 307:src/wavecom.c ****     }
 308:src/wavecom.c ****   }
 309:src/wavecom.c ****   ClearCmdBuf();
 310:src/wavecom.c ****   return '4';
 311:src/wavecom.c **** }
 312:src/wavecom.c **** //*****************************************************************************
 313:src/wavecom.c **** //  Function        : AttachGPRS
 314:src/wavecom.c **** //  Description     : Attach GPRS
 315:src/wavecom.c **** //  Input           : N/A
 316:src/wavecom.c **** //  Return          : TRUE/FALSE;
 317:src/wavecom.c **** //  Note            : N/A
 318:src/wavecom.c **** //  Globals Changed : N/A
 319:src/wavecom.c **** //*****************************************************************************
 320:src/wavecom.c **** BYTE AttachGPRS(void)
 321:src/wavecom.c **** {
 322:src/wavecom.c ****   ClearCmdBuf();
 323:src/wavecom.c ****   if (SendWaitRsp("AT+CGATT=1\r\n", WAIT_OK)) {
 324:src/wavecom.c ****     if (strstr(gAtCmdOut, "OK"))
 325:src/wavecom.c ****       return TRUE;
 326:src/wavecom.c ****   }
 327:src/wavecom.c ****   ClearCmdBuf();
 328:src/wavecom.c ****   return FALSE;
 329:src/wavecom.c **** }
 330:src/wavecom.c **** //*****************************************************************************
 331:src/wavecom.c **** //  Function        : Asc2DWVAL
 332:src/wavecom.c **** //  Description     : Convert ASCII to number.
 333:src/wavecom.c **** //  Input           : *aPtr;    // Buffer start
 334:src/wavecom.c **** //                  : aMaxLen;  // max length of string
 335:src/wavecom.c **** //  Return          : value;
 336:src/wavecom.c **** //  Note            : N/A
 337:src/wavecom.c **** //  Globals Changed : N/A
 338:src/wavecom.c **** //*****************************************************************************
 339:src/wavecom.c **** static DWORD Asc2DWVAL(BYTE *aPtr, BYTE aMaxLen)
 340:src/wavecom.c **** {
 341:src/wavecom.c ****   BYTE temp;
 342:src/wavecom.c ****   DWORD val;
 343:src/wavecom.c **** 
 344:src/wavecom.c ****   val = 0;
 345:src/wavecom.c ****   while (aMaxLen--) {
 346:src/wavecom.c ****     temp = *aPtr - '0';
 347:src/wavecom.c ****     if (temp <= 9) {
 348:src/wavecom.c ****       val = val*10 + temp;
 349:src/wavecom.c ****       aPtr++;
 350:src/wavecom.c ****     }
 351:src/wavecom.c ****     else
 352:src/wavecom.c ****       break;
 353:src/wavecom.c ****   }
ARM GAS  C:\Users\AHMED~1.ELE\AppData\Local\Temp\ccAQ67OG.s 			page 15


 354:src/wavecom.c ****   return val;
 355:src/wavecom.c **** }
 356:src/wavecom.c **** //*****************************************************************************
 357:src/wavecom.c **** //  Function        : GetPHBConfig
 358:src/wavecom.c **** //  Description     : Get Phone num size & name size for phone book
 359:src/wavecom.c **** //  Input           : aTelSize;     // pointer to storage
 360:src/wavecom.c **** //                    aNameSize;    // pointer to storage
 361:src/wavecom.c **** //  Return          : TRUE/FALSE;
 362:src/wavecom.c **** //  Note            : N/A
 363:src/wavecom.c **** //  Globals Changed : N/A
 364:src/wavecom.c **** //*****************************************************************************
 365:src/wavecom.c **** static BOOLEAN GetPHBConfig(DWORD *aTelSize, DWORD *aNameSize)
 366:src/wavecom.c **** {
 367:src/wavecom.c ****   BYTE *ptr;
 368:src/wavecom.c ****   DWORD idx1, idx2, idx3, r_len;
 369:src/wavecom.c **** 
 370:src/wavecom.c ****   // GSM
 371:src/wavecom.c ****   // get current phonebook status (entries used and available)
 372:src/wavecom.c ****   if (!SendWaitRsp("AT+CPBF=?\r\n", WAIT_OK))
 373:src/wavecom.c ****     return FALSE;
 374:src/wavecom.c **** 
 375:src/wavecom.c ****   // Expected "+CPBF: 60,14"
 376:src/wavecom.c ****   ptr = (BYTE *)strstr((char const *)gAtCmdOut, "+CPBF:");
 377:src/wavecom.c ****   if (ptr == NULL)
 378:src/wavecom.c ****     return FALSE;
 379:src/wavecom.c **** 
 380:src/wavecom.c ****   r_len = strlen(gAtCmdOut) - (ptr - (BYTE *)gAtCmdOut);
 381:src/wavecom.c **** 
 382:src/wavecom.c **** 
 383:src/wavecom.c ****   idx1 = fndb(ptr, ' ', r_len);             // find space
 384:src/wavecom.c ****   if (idx1 == r_len)
 385:src/wavecom.c ****     return FALSE;
 386:src/wavecom.c **** 
 387:src/wavecom.c ****   r_len = r_len - idx1;
 388:src/wavecom.c ****   idx2 = fndb(ptr+idx1+1, ',', r_len);      // find 1st comma
 389:src/wavecom.c ****   if (idx2 == r_len)
 390:src/wavecom.c ****     return FALSE;
 391:src/wavecom.c **** 
 392:src/wavecom.c ****   r_len = r_len - idx2;
 393:src/wavecom.c ****   idx3 = fndb(ptr+idx1+idx2+1, '\r', r_len);     // find '\r'
 394:src/wavecom.c ****   if (idx3 == r_len)
 395:src/wavecom.c ****     return FALSE;
 396:src/wavecom.c **** 
 397:src/wavecom.c ****   idx2 = idx1 + idx2 + 1;
 398:src/wavecom.c **** 
 399:src/wavecom.c ****   *aTelSize =  (WORD)Asc2DWVAL(ptr+idx1+1, 3);
 400:src/wavecom.c ****   *aNameSize= (WORD)Asc2DWVAL(ptr+idx2+1, 3);
 401:src/wavecom.c ****   return TRUE;
 402:src/wavecom.c **** }
 403:src/wavecom.c **** //*****************************************************************************
 404:src/wavecom.c **** //  Function        : GetPHBCapcity
 405:src/wavecom.c **** //  Description     : Get SIM card phone book capacity
 406:src/wavecom.c **** //  Input           : aUsed;     // pointer to storage
 407:src/wavecom.c **** //                    aTotal;    // pointer to storage
 408:src/wavecom.c **** //  Return          : TRUE/FALSE;
 409:src/wavecom.c **** //  Note            : N/A
 410:src/wavecom.c **** //  Globals Changed : N/A
ARM GAS  C:\Users\AHMED~1.ELE\AppData\Local\Temp\ccAQ67OG.s 			page 16


 411:src/wavecom.c **** //*****************************************************************************
 412:src/wavecom.c **** BOOLEAN GetPHBCapcity(DWORD *aUsed, DWORD *aTotal)
 413:src/wavecom.c **** {
 414:src/wavecom.c ****   BYTE *ptr;
 415:src/wavecom.c ****   DWORD idx1, idx2, idx3, r_len;
 416:src/wavecom.c **** 
 417:src/wavecom.c ****   // get current phonebook status (entries used and available)
 418:src/wavecom.c ****   if (!SendWaitRsp("AT+CPBS?\r\n", WAIT_OK))
 419:src/wavecom.c ****     return FALSE;
 420:src/wavecom.c **** 
 421:src/wavecom.c ****   ptr = (BYTE *)strstr((char const *)gAtCmdOut, "+CPBS:");
 422:src/wavecom.c ****   if (ptr == NULL)
 423:src/wavecom.c ****     return FALSE;
 424:src/wavecom.c **** 
 425:src/wavecom.c ****   r_len = strlen(gAtCmdOut) - (ptr - (BYTE *)gAtCmdOut);
 426:src/wavecom.c **** 
 427:src/wavecom.c ****   idx1 = fndb(ptr, ',', r_len);             // find first comma
 428:src/wavecom.c ****   if (idx1 == r_len)
 429:src/wavecom.c ****     return FALSE;
 430:src/wavecom.c **** 
 431:src/wavecom.c ****   r_len = r_len - idx1;
 432:src/wavecom.c ****   idx2 = fndb(ptr+idx1+1, ',', r_len);      // find second comma
 433:src/wavecom.c ****   if (idx2 == r_len)
 434:src/wavecom.c ****     return FALSE;
 435:src/wavecom.c **** 
 436:src/wavecom.c ****   r_len = r_len - idx2;
 437:src/wavecom.c ****   idx3 = fndb(ptr+idx1+idx2+1, '\r', r_len);     // find '\r'
 438:src/wavecom.c ****   if (idx3 == r_len)
 439:src/wavecom.c ****     return FALSE;
 440:src/wavecom.c **** 
 441:src/wavecom.c ****   idx2 = idx1 + idx2 + 1;
 442:src/wavecom.c ****   idx3 = idx2 + idx3 + 1;
 443:src/wavecom.c **** 
 444:src/wavecom.c ****   *aUsed =  (WORD)Asc2DWVAL(ptr+idx1+1, 3);
 445:src/wavecom.c ****   *aTotal = (WORD)Asc2DWVAL(ptr+idx2+1, 3);
 446:src/wavecom.c **** 
 447:src/wavecom.c ****   *aUsed  = *aUsed > MAX_PHBOOK_REC ? MAX_PHBOOK_REC: *aUsed;
 448:src/wavecom.c ****   *aTotal = gGSMData.d_total_count > MAX_PHBOOK_REC ? MAX_PHBOOK_REC: *aTotal;
 449:src/wavecom.c **** 
 450:src/wavecom.c ****   return TRUE;
 451:src/wavecom.c **** }
 452:src/wavecom.c **** //*****************************************************************************
 453:src/wavecom.c **** //  Function        : GetContactInfo
 454:src/wavecom.c **** //  Description     : Get tel number and name
 455:src/wavecom.c **** //  Input           : *tel;     // ptr to tel number buffer
 456:src/wavecom.c **** //                  : *name;    // ptr to name buffer
 457:src/wavecom.c **** //                  : *aStr;   // starting ptr to search
 458:src/wavecom.c **** //                  : len;      // length of string to search
 459:src/wavecom.c **** //  Return          : 0;        // Not found
 460:src/wavecom.c **** //                    1;        // TEL READY
 461:src/wavecom.c **** //                    2;        // TEL & NAME ready
 462:src/wavecom.c **** //  Note            : N/A
 463:src/wavecom.c **** //  Globals Changed : N/A;
 464:src/wavecom.c **** //*****************************************************************************
 465:src/wavecom.c **** static BYTE GetContactInfo(struct PHONE_LIST *aContact, BYTE *aStr, DWORD aLen)
 466:src/wavecom.c **** {
 467:src/wavecom.c ****   BYTE tel_len, name_len;
ARM GAS  C:\Users\AHMED~1.ELE\AppData\Local\Temp\ccAQ67OG.s 			page 17


 468:src/wavecom.c ****   BYTE *ptr;
 469:src/wavecom.c ****   BYTE state;
 470:src/wavecom.c **** 
 471:src/wavecom.c ****   tel_len = name_len = 0;
 472:src/wavecom.c ****   state = 0;
 473:src/wavecom.c ****   ptr = aStr;
 474:src/wavecom.c ****   while ((DWORD)(ptr - aStr) < aLen) {
 475:src/wavecom.c ****     if (*ptr == '\"') {
 476:src/wavecom.c ****       state++;
 477:src/wavecom.c ****       ptr++;
 478:src/wavecom.c ****       continue;
 479:src/wavecom.c ****     }
 480:src/wavecom.c ****     switch (state) {
 481:src/wavecom.c ****       case 1:
 482:src/wavecom.c ****         if (tel_len < MAX_PHNUM_SIZE)
 483:src/wavecom.c ****           aContact->sb_tel[tel_len++] = *ptr;
 484:src/wavecom.c ****         break;
 485:src/wavecom.c ****       case 3:
 486:src/wavecom.c ****         if (name_len < MAX_NAME_SIZE)
 487:src/wavecom.c ****           aContact->sb_name[name_len++] = *ptr;
 488:src/wavecom.c ****         break;
 489:src/wavecom.c ****       default:
 490:src/wavecom.c ****         break;
 491:src/wavecom.c ****     }
 492:src/wavecom.c ****     ptr++;
 493:src/wavecom.c ****   }
 494:src/wavecom.c ****   // no tel. no. found
 495:src/wavecom.c ****   if (!tel_len)
 496:src/wavecom.c ****     return 0;
 497:src/wavecom.c **** 
 498:src/wavecom.c ****   // only tel. no. found
 499:src/wavecom.c ****   if (!name_len)
 500:src/wavecom.c ****     return 1;
 501:src/wavecom.c **** 
 502:src/wavecom.c ****   // tel. no. & name found
 503:src/wavecom.c ****   return 2;
 504:src/wavecom.c **** }
 505:src/wavecom.c **** //*****************************************************************************
 506:src/wavecom.c **** //  Function        : GetContact
 507:src/wavecom.c **** //  Description     : Get 1 record from phone book
 508:src/wavecom.c **** //  Input           : aRec;         // pointer to phone book rec.
 509:src/wavecom.c **** //                    aRecIdx;      // record to read
 510:src/wavecom.c **** //  Return          : TRUE/FALSE;
 511:src/wavecom.c **** //  Note            : N/A
 512:src/wavecom.c **** //  Globals Changed : N/A
 513:src/wavecom.c **** //*****************************************************************************
 514:src/wavecom.c **** BOOLEAN GetContact(struct PHONE_LIST *aRec, DWORD aRecIdx)
 515:src/wavecom.c **** {
 516:src/wavecom.c ****   BYTE *ptr;
 517:src/wavecom.c ****   BYTE buf[16];
 518:src/wavecom.c ****   DWORD rlen;
 519:src/wavecom.c **** 
 520:src/wavecom.c ****   memset(buf, 0, sizeof(buf));
 521:src/wavecom.c ****   sprintf((char *)buf, "AT+CPBR=%d\r\n", aRecIdx);
 522:src/wavecom.c ****   if (!SendWaitRsp(buf, WAIT_RSP))
 523:src/wavecom.c ****     return FALSE;
 524:src/wavecom.c **** 
ARM GAS  C:\Users\AHMED~1.ELE\AppData\Local\Temp\ccAQ67OG.s 			page 18


 525:src/wavecom.c ****   ptr = (BYTE *)strstr((char const *)gAtCmdOut, "+CPBR:");
 526:src/wavecom.c ****   if (ptr == NULL)
 527:src/wavecom.c ****     return FALSE;
 528:src/wavecom.c **** 
 529:src/wavecom.c ****   rlen = strlen(gAtCmdOut) - (ptr - (BYTE *)gAtCmdOut);
 530:src/wavecom.c ****   memset(aRec, 0, sizeof(struct PHONE_LIST));
 531:src/wavecom.c ****   if (GetContactInfo(aRec, ptr, rlen) == 0)
 532:src/wavecom.c ****     return FALSE;
 533:src/wavecom.c **** 
 534:src/wavecom.c ****   aRec->d_idx = aRecIdx;
 535:src/wavecom.c ****   return TRUE;
 536:src/wavecom.c **** }
 537:src/wavecom.c **** //*****************************************************************************
 538:src/wavecom.c **** //  Function        : LoadPhoneBook
 539:src/wavecom.c **** //  Description     : Load selected phone book into internal menory.
 540:src/wavecom.c **** //  Input           : N/A
 541:src/wavecom.c **** //  Return          : N/A
 542:src/wavecom.c **** //  Note            : N/A
 543:src/wavecom.c **** //  Globals Changed : N/A
 544:src/wavecom.c **** //*****************************************************************************
 545:src/wavecom.c **** void LoadPhoneBook(void)
 546:src/wavecom.c **** {
 547:src/wavecom.c ****   DWORD i, rec_idx, max_rec;
 548:src/wavecom.c **** 
 549:src/wavecom.c ****   rec_idx = 0;
 550:src/wavecom.c ****   max_rec = gGSMData.d_total_count > MAX_PHBOOK_REC ? MAX_PHBOOK_REC: gGSMData.d_total_count;
 551:src/wavecom.c ****   for (i=0; i< gGSMData.d_total_count; i++) {
 552:src/wavecom.c ****     if (rec_idx == max_rec)  // full
 553:src/wavecom.c ****       break;
 554:src/wavecom.c ****     if (rec_idx == gGSMData.d_used_count)  // got enough
 555:src/wavecom.c ****       break;
 556:src/wavecom.c ****     if (!GetContact(&gGSMData.s_PHBook[rec_idx], i+1))
 557:src/wavecom.c ****       continue;
 558:src/wavecom.c ****     rec_idx++;
 559:src/wavecom.c ****   }
 560:src/wavecom.c **** }
 561:src/wavecom.c **** //*****************************************************************************
 562:src/wavecom.c **** //  Function        : SortPhoneBook
 563:src/wavecom.c **** //  Description     : Sort the Phone List by name.
 564:src/wavecom.c **** //  Input           : N/A
 565:src/wavecom.c **** //  Return          : N/A
 566:src/wavecom.c **** //  Note            : N/A
 567:src/wavecom.c **** //  Globals Changed : N/A
 568:src/wavecom.c **** //*****************************************************************************
 569:src/wavecom.c **** void SortPhoneBook(void)
 570:src/wavecom.c **** {
 571:src/wavecom.c ****   WORD i, j;
 572:src/wavecom.c ****   WORD len1, len2;
 573:src/wavecom.c **** 
 574:src/wavecom.c ****   if (gGSMData.d_used_count < 2)
 575:src/wavecom.c ****     return;
 576:src/wavecom.c **** 
 577:src/wavecom.c ****   // Sort Record
 578:src/wavecom.c ****   for (i=0; i<gGSMData.d_used_count-1; i++) {
 579:src/wavecom.c ****     for (j=i+1; j<gGSMData.d_used_count; j++) {
 580:src/wavecom.c ****       len1 = strlen(gGSMData.s_PHBook[i].sb_name);
 581:src/wavecom.c ****       len2 = strlen(gGSMData.s_PHBook[j].sb_name);
ARM GAS  C:\Users\AHMED~1.ELE\AppData\Local\Temp\ccAQ67OG.s 			page 19


 582:src/wavecom.c ****       len1 = len1>len2?len2:len1;
 583:src/wavecom.c ****       if (memcmp(gGSMData.s_PHBook[i].sb_name, gGSMData.s_PHBook[j].sb_name, len1)<0)
 584:src/wavecom.c ****         continue;
 585:src/wavecom.c ****       memcpy((BYTE *) &gGSMData.s_CurrPHB,   (BYTE *) &gGSMData.s_PHBook[j], sizeof(struct PHONE_LI
 586:src/wavecom.c ****       memcpy((BYTE *) &gGSMData.s_PHBook[j], (BYTE *) &gGSMData.s_PHBook[i], sizeof(struct PHONE_LI
 587:src/wavecom.c ****       memcpy((BYTE *) &gGSMData.s_PHBook[i], (BYTE *) &gGSMData.s_CurrPHB,   sizeof(struct PHONE_LI
 588:src/wavecom.c ****     }
 589:src/wavecom.c ****   }
 590:src/wavecom.c **** }
 591:src/wavecom.c **** //*****************************************************************************
 592:src/wavecom.c **** //  Function        : SelectPHBook
 593:src/wavecom.c **** //  Description     : Read the Selected Phone book record.
 594:src/wavecom.c **** //  Input           : id;       // Phone BOOK id.
 595:src/wavecom.c **** //  Return          : TRUE/FALSE;
 596:src/wavecom.c **** //  Note            : N/A
 597:src/wavecom.c **** //  Globals Changed : N/A
 598:src/wavecom.c **** //*****************************************************************************
 599:src/wavecom.c **** BOOLEAN SelectPHBook(DWORD aID)
 600:src/wavecom.c **** {
 601:src/wavecom.c ****   if (gGSMData.d_used_count != 0)
 602:src/wavecom.c ****     return TRUE;
 603:src/wavecom.c **** 
 604:src/wavecom.c ****   ClearCmdBuf();
 605:src/wavecom.c ****   sprintf(gAtCmdIn, "AT+CPBS=\"%s\"\r\n", KBookID[aID]);
 606:src/wavecom.c **** 
 607:src/wavecom.c ****   if (!SendWaitRsp(gAtCmdIn, WAIT_OK))
 608:src/wavecom.c ****     return FALSE;
 609:src/wavecom.c **** 
 610:src/wavecom.c ****   if (strstr(gAtCmdOut, "OK")==NULL)
 611:src/wavecom.c ****     return FALSE;
 612:src/wavecom.c **** 
 613:src/wavecom.c ****   if (!GetPHBConfig(&gGSMData.d_max_phone_len, &gGSMData.d_max_name_size))
 614:src/wavecom.c ****     return FALSE;
 615:src/wavecom.c **** 
 616:src/wavecom.c ****   gGSMData.d_max_phone_len = gGSMData.d_max_phone_len > MAX_PHNUM_SIZE ? MAX_PHNUM_SIZE: gGSMData.d
 617:src/wavecom.c ****   gGSMData.d_max_name_size = gGSMData.d_max_name_size > MAX_NAME_SIZE ? MAX_PHNUM_SIZE: gGSMData.d_
 618:src/wavecom.c **** 
 619:src/wavecom.c ****   if (!GetPHBCapcity(&gGSMData.d_used_count, &gGSMData.d_total_count))
 620:src/wavecom.c ****     return FALSE;
 621:src/wavecom.c **** 
 622:src/wavecom.c ****   LoadPhoneBook();
 623:src/wavecom.c ****   SortPhoneBook();
 624:src/wavecom.c **** 
 625:src/wavecom.c ****   return TRUE;
 626:src/wavecom.c **** }
 627:src/wavecom.c **** //*****************************************************************************
 628:src/wavecom.c **** //  Function        : WriteContact
 629:src/wavecom.c **** //  Description     : Add/Update Phone record depend on record index.
 630:src/wavecom.c **** //  Input           : aRec;     // P
 631:src/wavecom.c **** //  Return          : TRUE;    // valid AT response received
 632:src/wavecom.c **** //                    FALSE;   // error in sending/receiving AT response
 633:src/wavecom.c **** //  Note            : N/A
 634:src/wavecom.c **** //  Globals Changed : N/A
 635:src/wavecom.c **** //*****************************************************************************
 636:src/wavecom.c **** BOOLEAN WriteContact(struct PHONE_LIST *aRec, DWORD aCurrRec)
 637:src/wavecom.c **** {
 638:src/wavecom.c ****   if (aRec->d_idx) {
ARM GAS  C:\Users\AHMED~1.ELE\AppData\Local\Temp\ccAQ67OG.s 			page 20


 639:src/wavecom.c ****     sprintf((char *)gAtCmdIn, "AT+CPBW=%d,\"", aRec->d_idx);
 640:src/wavecom.c ****     memcpy((BYTE *)&gGSMData.s_PHBook[aCurrRec], (BYTE *)&gGSMData.s_CurrPHB,
 641:src/wavecom.c ****            sizeof(struct PHONE_LIST));
 642:src/wavecom.c ****   }
 643:src/wavecom.c ****   else {
 644:src/wavecom.c ****     strcpy(gAtCmdIn, "AT+CPBW=,\"");
 645:src/wavecom.c ****     memcpy((BYTE *)&gGSMData.s_PHBook[aCurrRec], (BYTE *)&gGSMData.s_CurrPHB,
 646:src/wavecom.c ****            sizeof(struct PHONE_LIST));
 647:src/wavecom.c ****   }
 648:src/wavecom.c **** 
 649:src/wavecom.c ****   strcat(gAtCmdIn, aRec->sb_tel);
 650:src/wavecom.c ****   strcat(gAtCmdIn, "\",129,\"");
 651:src/wavecom.c ****   strcat(gAtCmdIn, aRec->sb_name);
 652:src/wavecom.c ****   strcat(gAtCmdIn, "\"\r\n");
 653:src/wavecom.c **** 
 654:src/wavecom.c ****   if (!SendWaitRsp(gAtCmdIn, WAIT_OK))
 655:src/wavecom.c ****     return FALSE;
 656:src/wavecom.c **** 
 657:src/wavecom.c ****   if (aRec->d_idx==0) {
 658:src/wavecom.c ****     gGSMData.d_used_count++;
 659:src/wavecom.c ****     gGSMData.d_total_count++;
 660:src/wavecom.c ****     LoadPhoneBook();
 661:src/wavecom.c ****   }
 662:src/wavecom.c ****   SortPhoneBook();
 663:src/wavecom.c ****   return TRUE;
 664:src/wavecom.c **** }
 665:src/wavecom.c **** //*****************************************************************************
 666:src/wavecom.c **** //  Function        : DelContact
 667:src/wavecom.c **** //  Description     : Delete Phone book entry.
 668:src/wavecom.c **** //  Input           : aRecIdx;      // Phone book record index
 669:src/wavecom.c **** //  Return          : TRUE;    // valid AT response received
 670:src/wavecom.c **** //                    FALSE;   // error in sending/receiving AT response
 671:src/wavecom.c **** //  Note            : N/A
 672:src/wavecom.c **** //  Globals Changed : N/A
 673:src/wavecom.c **** //*****************************************************************************
 674:src/wavecom.c **** BOOLEAN DelContact(DWORD aRecIdx, DWORD aCurrRec)
 675:src/wavecom.c **** {
 676:src/wavecom.c ****   DWORD i;
 677:src/wavecom.c ****   sprintf((char *)gAtCmdIn, "AT+CPBW=%d\r\n", aRecIdx);
 678:src/wavecom.c ****   if (!SendWaitRsp(gAtCmdIn, WAIT_OK))
 679:src/wavecom.c ****     return FALSE;
 680:src/wavecom.c **** 
 681:src/wavecom.c ****   // move record
 682:src/wavecom.c ****   for (i=aCurrRec; i<gGSMData.d_used_count; i++) {
 683:src/wavecom.c ****     memcpy((BYTE *)&gGSMData.s_PHBook[i], (BYTE *)&gGSMData.s_PHBook[i+1],
 684:src/wavecom.c ****            sizeof(struct PHONE_LIST));
 685:src/wavecom.c ****   }
 686:src/wavecom.c ****   gGSMData.d_used_count--;
 687:src/wavecom.c ****   gGSMData.d_total_count--;
 688:src/wavecom.c ****   SortPhoneBook();
 689:src/wavecom.c ****   return TRUE;
 690:src/wavecom.c **** }
 691:src/wavecom.c **** //*****************************************************************************
 692:src/wavecom.c **** //  Function        : AllCallForward
 693:src/wavecom.c **** //  Description     : Set/Cancel All Call Forward.
 694:src/wavecom.c **** //  Input           : pTel;     // pointer to forward phone num.
 695:src/wavecom.c **** //                    cancel;   // TRUE => cancel all call forward.
ARM GAS  C:\Users\AHMED~1.ELE\AppData\Local\Temp\ccAQ67OG.s 			page 21


 696:src/wavecom.c **** //  Return          : None;
 697:src/wavecom.c **** //  Note            : N/A
 698:src/wavecom.c **** //  Globals Changed : N/A
 699:src/wavecom.c **** //*****************************************************************************
 700:src/wavecom.c **** BOOLEAN AllCallForward(char *pTel, BOOLEAN cancel)
 701:src/wavecom.c **** {
 702:src/wavecom.c ****   ClearCmdBuf();
 703:src/wavecom.c ****   if (cancel)
 704:src/wavecom.c ****     strcpy(gAtCmdIn, "AT+CCFC=0,4\r\n");
 705:src/wavecom.c ****   else   // divert to a telephone number
 706:src/wavecom.c **** #if (TIRO)      
 707:src/wavecom.c ****     sprintf(gAtCmdIn, "AT+CCFC=0,3,\"%s\",129\r\n", pTel);
 708:src/wavecom.c **** #else  
 709:src/wavecom.c ****     sprintf(gAtCmdIn, "AT+CCFC=0,3,\"%s\"\r\n", pTel);
 710:src/wavecom.c **** #endif    
 711:src/wavecom.c ****   if (!SendWaitRsp(gAtCmdIn, WAIT_OK))
 712:src/wavecom.c ****     return FALSE;
 713:src/wavecom.c **** 
 714:src/wavecom.c ****   if (strstr(gAtCmdOut, "OK"))
 715:src/wavecom.c ****     return TRUE;
 716:src/wavecom.c ****   return FALSE;
 717:src/wavecom.c **** }
 718:src/wavecom.c **** //*****************************************************************************
 719:src/wavecom.c **** //  Function        : MakeCall
 720:src/wavecom.c **** //  Description     : Make a voice Call.
 721:src/wavecom.c **** //  Input           : pPhoneNum;        // Phone num string.
 722:src/wavecom.c **** //  Return          : TRUE/FALSE;
 723:src/wavecom.c **** //  Note            : N/A
 724:src/wavecom.c **** //  Globals Changed : N/A
 725:src/wavecom.c **** //*****************************************************************************
 726:src/wavecom.c **** BOOLEAN MakeCall(char *pPhoneNum)
 727:src/wavecom.c **** {
 728:src/wavecom.c ****   strcpy(gAtCmdIn, "ATD");
 729:src/wavecom.c ****   strcat(gAtCmdIn, pPhoneNum);
 730:src/wavecom.c ****   strcat(gAtCmdIn, ";\r\n");
 731:src/wavecom.c **** 
 732:src/wavecom.c ****   ClearCmdBuf();
 733:src/wavecom.c **** #if (TIRO)  
 734:src/wavecom.c ****   if (SendWaitRsp(gAtCmdIn, WAIT_OK))
 735:src/wavecom.c **** #else      
 736:src/wavecom.c ****   if (SendWaitRsp(gAtCmdIn, NO_WAIT))
 737:src/wavecom.c **** #endif      
 738:src/wavecom.c ****     return TRUE;
 739:src/wavecom.c **** 
 740:src/wavecom.c ****   return FALSE;
 741:src/wavecom.c **** }
 742:src/wavecom.c **** //*****************************************************************************
 743:src/wavecom.c **** //  Function        : MakeReqCall
 744:src/wavecom.c **** //  Description     : Make a Request Call
 745:src/wavecom.c **** //  Input           : pPhoneNum;        // Phone num string.
 746:src/wavecom.c **** //  Return          : TRUE/FALSE;
 747:src/wavecom.c **** //  Note            : N/A
 748:src/wavecom.c **** //  Globals Changed : N/A
 749:src/wavecom.c **** //*****************************************************************************
 750:src/wavecom.c **** BOOLEAN MakeReqCall(char *pPhoneNum)
 751:src/wavecom.c **** {
 752:src/wavecom.c ****   strcpy(gAtCmdIn, "ATD");
ARM GAS  C:\Users\AHMED~1.ELE\AppData\Local\Temp\ccAQ67OG.s 			page 22


 753:src/wavecom.c ****   strcat(gAtCmdIn, pPhoneNum);
 754:src/wavecom.c ****   strcat(gAtCmdIn, "\r\n");
 755:src/wavecom.c **** 
 756:src/wavecom.c ****   if (SendWaitRsp(gAtCmdIn, WAIT_OK)) {
 757:src/wavecom.c ****     if (strstr(gAtCmdOut, "OK"))
 758:src/wavecom.c ****       return TRUE;
 759:src/wavecom.c ****   }
 760:src/wavecom.c **** 
 761:src/wavecom.c ****   return FALSE;
 762:src/wavecom.c **** }
 763:src/wavecom.c **** //*****************************************************************************
 764:src/wavecom.c **** //  Function        : CheckCallStatus
 765:src/wavecom.c **** //  Description     : Check Call Status
 766:src/wavecom.c **** //  Input           : N/A
 767:src/wavecom.c **** //  Return          : status;
 768:src/wavecom.c **** //  Note            : N/A
 769:src/wavecom.c **** //  Globals Changed : N/A
 770:src/wavecom.c **** //*****************************************************************************
 771:src/wavecom.c **** DWORD CheckCallStatus(void)
 772:src/wavecom.c **** {
 773:src/wavecom.c **** #if (T800)
 774:src/wavecom.c ****   if (!WaitRsp(WAIT_RSP))
 775:src/wavecom.c ****     return NOT_READY;
 776:src/wavecom.c **** 
 777:src/wavecom.c ****   if (strstr((char const *)gAtCmdOut, "NO CARRIER") != NULL) {
 778:src/wavecom.c ****     return NO_CARRIER;
 779:src/wavecom.c ****   }
 780:src/wavecom.c ****   else
 781:src/wavecom.c ****     if (strstr((char const *)gAtCmdOut, "NO ANSWER") != NULL) {
 782:src/wavecom.c ****       return NO_ANSWER;
 783:src/wavecom.c ****     }
 784:src/wavecom.c ****     else
 785:src/wavecom.c ****       if (strstr((char const *)gAtCmdOut, "BUSY") != NULL) {
 786:src/wavecom.c ****         return BUSY;
 787:src/wavecom.c ****       }
 788:src/wavecom.c ****       else
 789:src/wavecom.c ****         if (strstr((char const *)gAtCmdOut, "OK") != NULL) {
 790:src/wavecom.c ****           return CONNECTED;
 791:src/wavecom.c ****         }
 792:src/wavecom.c **** 
 793:src/wavecom.c ****   return NOT_READY;
 794:src/wavecom.c **** #endif
 795:src/wavecom.c **** #if (T300|T810|A5T1000|T1000|TIRO)  
 796:src/wavecom.c ****   DWORD state, status;
 797:src/wavecom.c ****   BYTE  tmpbuf[MW_MAX_LINESIZE+1];
 798:src/wavecom.c **** 
 799:src/wavecom.c ****   status = StatMW(gGprsHandle, -1, NULL);
 800:src/wavecom.c ****   sprintf(tmpbuf, "Status:%04X", status);
 801:src/wavecom.c ****   DispLineMW(tmpbuf, MW_MAX_LINE, MW_CENTER|MW_SPFONT);
 802:src/wavecom.c ****   switch (status & 0x3F) {
 803:src/wavecom.c ****     case 4:
 804:src/wavecom.c ****       state = CONNECTING;
 805:src/wavecom.c ****       break;
 806:src/wavecom.c ****     case 5:
 807:src/wavecom.c ****       state = CONNECTED;
 808:src/wavecom.c ****       break;
 809:src/wavecom.c ****     case 20:        // Disconnect network
ARM GAS  C:\Users\AHMED~1.ELE\AppData\Local\Temp\ccAQ67OG.s 			page 23


 810:src/wavecom.c ****     case 21:        // Disconnect user
 811:src/wavecom.c ****     case 22:        // Reject user
 812:src/wavecom.c ****       state = NO_CARRIER;
 813:src/wavecom.c ****       break;
 814:src/wavecom.c ****     case 0:
 815:src/wavecom.c ****     default:
 816:src/wavecom.c ****       state = NOT_READY;
 817:src/wavecom.c ****       break;
 818:src/wavecom.c ****   }
 819:src/wavecom.c ****   return state;
 820:src/wavecom.c **** #endif  
 821:src/wavecom.c **** }
 822:src/wavecom.c **** //*****************************************************************************
 823:src/wavecom.c **** //  Function        : AnswerCall
 824:src/wavecom.c **** //  Description     : Answer Call.
 825:src/wavecom.c **** //  Input           : N/A
 826:src/wavecom.c **** //  Return          : N/A
 827:src/wavecom.c **** //  Note            : N/A
 828:src/wavecom.c **** //  Globals Changed : N/A
 829:src/wavecom.c **** //*****************************************************************************
 830:src/wavecom.c **** BOOLEAN AnswerCall(void)
 831:src/wavecom.c **** {
 832:src/wavecom.c ****   strcpy(gAtCmdIn, "ATA\r\n");
 833:src/wavecom.c ****   ClearCmdBuf();
 834:src/wavecom.c ****   if (SendWaitRsp(gAtCmdIn, WAIT_OK))
 835:src/wavecom.c ****     return TRUE;
 836:src/wavecom.c ****   return FALSE;
 837:src/wavecom.c **** }
 838:src/wavecom.c **** //*****************************************************************************
 839:src/wavecom.c **** //  Function        : SendKeyPress
 840:src/wavecom.c **** //  Description     : Send Key Press data.
 841:src/wavecom.c **** //  Input           : N/A
 842:src/wavecom.c **** //  Return          : N/A
 843:src/wavecom.c **** //  Note            : N/A
 844:src/wavecom.c **** //  Globals Changed : N/A
 845:src/wavecom.c **** //*****************************************************************************
 846:src/wavecom.c **** BOOLEAN SendKeyPress(char aChar)
 847:src/wavecom.c **** {
 848:src/wavecom.c **** #if (TIRO)
 849:src/wavecom.c ****   sprintf(gAtCmdIn, "AT+VTS=\"%c\"\r\n", aChar);
 850:src/wavecom.c **** #endif
 851:src/wavecom.c **** #if (T800)  
 852:src/wavecom.c ****   sprintf(gAtCmdIn, "AT+VTS=%c\r\n", aChar);
 853:src/wavecom.c **** #endif  
 854:src/wavecom.c ****   ClearCmdBuf();
 855:src/wavecom.c ****   if (SendWaitRsp(gAtCmdIn, WAIT_OK))
 856:src/wavecom.c ****     return TRUE;
 857:src/wavecom.c ****   return FALSE;
 858:src/wavecom.c **** }
 859:src/wavecom.c **** //*****************************************************************************
 860:src/wavecom.c **** //  Function        : HangUp
 861:src/wavecom.c **** //  Description     : Disconnect Calls.
 862:src/wavecom.c **** //  Input           : N/A
 863:src/wavecom.c **** //  Return          : TRUE/FALSE;
 864:src/wavecom.c **** //  Note            : N/A
 865:src/wavecom.c **** //  Globals Changed : N/A
 866:src/wavecom.c **** //*****************************************************************************
ARM GAS  C:\Users\AHMED~1.ELE\AppData\Local\Temp\ccAQ67OG.s 			page 24


 867:src/wavecom.c **** BOOLEAN HangUp(void)
 868:src/wavecom.c **** {
 869:src/wavecom.c ****   strcpy(gAtCmdIn, "ATH\r\n");
 870:src/wavecom.c ****   ClearCmdBuf();
 871:src/wavecom.c ****   if (SendWaitRsp(gAtCmdIn, WAIT_OK))
 872:src/wavecom.c ****     return TRUE;
 873:src/wavecom.c ****   return FALSE;
 874:src/wavecom.c **** }
 875:src/wavecom.c **** //*****************************************************************************
 876:src/wavecom.c **** //  Function        : CheckCallEnd
 877:src/wavecom.c **** //  Description     : Check call disconnected remotely.
 878:src/wavecom.c **** //  Input           : N/A
 879:src/wavecom.c **** //  Return          : TRUE/FALSE;
 880:src/wavecom.c **** //  Note            : N/A
 881:src/wavecom.c **** //  Globals Changed : N/A
 882:src/wavecom.c **** //*****************************************************************************
 883:src/wavecom.c **** BOOLEAN CheckCallEnd(void)
 884:src/wavecom.c **** {
 885:src/wavecom.c ****   struct GPRSATRESP  at_resp;
 886:src/wavecom.c ****   BYTE *ptr;
 887:src/wavecom.c **** 
 888:src/wavecom.c ****   if (!(StatMW(gGprsHandle, MW_GSTS_ATRESPRDY, NULL)&MW_GSTS_ATRESPRDY)) 
 889:src/wavecom.c ****     return FALSE;
 890:src/wavecom.c **** 
 891:src/wavecom.c ****   at_resp.d_maxlen = sizeof(at_resp.sb_content);
 892:src/wavecom.c ****   if (IOCtlMW(gGprsHandle, IO_GPRS_CMDRESP, &at_resp)) {
 893:src/wavecom.c ****     ptr = (BYTE *)strstr((char const *)at_resp.sb_content, "NO CARRIER");
 894:src/wavecom.c ****     if (ptr == NULL)
 895:src/wavecom.c ****       return FALSE;
 896:src/wavecom.c ****     return TRUE;
 897:src/wavecom.c ****   }
 898:src/wavecom.c ****   return FALSE;
 899:src/wavecom.c **** }
 900:src/wavecom.c **** //*****************************************************************************
 901:src/wavecom.c **** //  Function        : GetCallerID
 902:src/wavecom.c **** //  Description     : Get callerl ID from the module
 903:src/wavecom.c **** //  Input           : None;
 904:src/wavecom.c **** //  Return          : TRUE;    // valid access code entered
 905:src/wavecom.c **** //                    FALSE;   // user cancel or invalid access code.
 906:src/wavecom.c **** //  Note            : N/A
 907:src/wavecom.c **** //  Globals Changed : N/A
 908:src/wavecom.c **** //*****************************************************************************
 909:src/wavecom.c **** BOOLEAN GetCallerID(void)
 910:src/wavecom.c **** {
 911:src/wavecom.c **** #if (T800)
 912:src/wavecom.c ****   BYTE *ptr;
 913:src/wavecom.c **** 
 914:src/wavecom.c ****   if (!WaitRsp(WAIT_RSP))
 915:src/wavecom.c ****     return FALSE;
 916:src/wavecom.c **** 
 917:src/wavecom.c ****   // search for << +CLIP: "tel_num",129,1,,"caller_name" >> for GSM
 918:src/wavecom.c ****   // search for << +CLIP:"tel_num",129" >> for CDMA
 919:src/wavecom.c ****   ptr = (BYTE *)strstr((char const *)gAtCmdOut, "+CLIP:");
 920:src/wavecom.c ****   if (ptr == NULL)
 921:src/wavecom.c ****     return FALSE;
 922:src/wavecom.c **** 
 923:src/wavecom.c ****   memset(&gGSMData.s_CurrPHB, 0, sizeof(struct PHONE_LIST));
ARM GAS  C:\Users\AHMED~1.ELE\AppData\Local\Temp\ccAQ67OG.s 			page 25


 924:src/wavecom.c ****   return GetContactInfo(&gGSMData.s_CurrPHB, (BYTE *)gAtCmdOut, strlen(gAtCmdOut));
 925:src/wavecom.c **** #endif  
 926:src/wavecom.c **** #if (T300|T810|A5T1000|T1000|TIRO)   
 927:src/wavecom.c ****   struct GPRSATRESP  at_resp;
 928:src/wavecom.c **** 
 929:src/wavecom.c ****   if (StatMW(gGprsHandle, MW_GSTS_CID, NULL)==0)
 930:src/wavecom.c ****     return FALSE;
 931:src/wavecom.c ****   memset(&gGSMData.s_CurrPHB, 0, sizeof(struct PHONE_LIST));
 932:src/wavecom.c ****   at_resp.d_maxlen = sizeof(gGSMData.s_CurrPHB.sb_name);
 933:src/wavecom.c ****   at_resp.d_maxlen = IOCtlMW(gGprsHandle, IO_GPRS_GET_CID, &at_resp);
 934:src/wavecom.c ****   memcpy(gGSMData.s_CurrPHB.sb_name, at_resp.sb_content, at_resp.d_maxlen);
 935:src/wavecom.c **** 
 936:src/wavecom.c ****   return TRUE;
 937:src/wavecom.c **** #endif  
 938:src/wavecom.c **** }
 939:src/wavecom.c **** //*****************************************************************************
 940:src/wavecom.c **** //  Function        : ReadGain
 941:src/wavecom.c **** //  Description     : Read GAIN
 942:src/wavecom.c **** //  Input           : None;
 943:src/wavecom.c **** //  Return          : TRUE;    // valid AT response received
 944:src/wavecom.c **** //                    FALSE;   // error in sending/receiving AT response
 945:src/wavecom.c **** //  Note            : N/A
 946:src/wavecom.c **** //  Globals Changed : N/A
 947:src/wavecom.c **** //*****************************************************************************
 948:src/wavecom.c **** DWORD ReadGain(DWORD aType)
 949:src/wavecom.c **** {
 950:src/wavecom.c ****   BYTE cmd[16];
 951:src/wavecom.c **** #if (T800|TIRO)
 952:src/wavecom.c ****   DWORD val=0;
 953:src/wavecom.c **** #endif
 954:src/wavecom.c ****   BYTE idx=8;
 955:src/wavecom.c **** 
 956:src/wavecom.c ****   sprintf((char *)cmd, "AT+VG%c?\r\n", aType);
 957:src/wavecom.c **** 
 958:src/wavecom.c ****   if (!SendWaitRsp(cmd, WAIT_OK))
 959:src/wavecom.c ****     return FALSE;
 960:src/wavecom.c ****   cmd[0] = '\r';
 961:src/wavecom.c ****   cmd[1] = '\n';
 962:src/wavecom.c ****   cmd[6] = ':';
 963:src/wavecom.c ****   cmd[7] = ' ';
 964:src/wavecom.c ****   if (memcmp(gAtCmdOut, cmd, idx) == 0) {
 965:src/wavecom.c **** #if (T800|TIRO)
 966:src/wavecom.c ****     val = Asc2DWVAL((BYTE *)&gAtCmdOut[8], 3);
 967:src/wavecom.c **** #endif
 968:src/wavecom.c **** #if (T800)
 969:src/wavecom.c ****     if (gAtCmdOut[5] == SPK)
 970:src/wavecom.c ****       return 8 - val / 32;      // speaker gain scale 1 - 8
 971:src/wavecom.c ****     else
 972:src/wavecom.c ****       return val / 32 + 1;      // mic gain scale 1 - 8
 973:src/wavecom.c **** #endif
 974:src/wavecom.c **** #if (TIRO)
 975:src/wavecom.c ****     val = gAtCmdOut[8]-'0';
 976:src/wavecom.c **** 	return val;
 977:src/wavecom.c **** #endif
 978:src/wavecom.c ****   }
 979:src/wavecom.c ****   return 0;
 980:src/wavecom.c **** }
ARM GAS  C:\Users\AHMED~1.ELE\AppData\Local\Temp\ccAQ67OG.s 			page 26


 981:src/wavecom.c **** //*****************************************************************************
 982:src/wavecom.c **** //  Function        : WriteGain
 983:src/wavecom.c **** //  Description     : display AT command response if in debug mode
 984:src/wavecom.c **** //  Input           : None;
 985:src/wavecom.c **** //  Return          : TRUE;    // valid AT response received
 986:src/wavecom.c **** //                    FALSE;   // error in sending/receiving AT response
 987:src/wavecom.c **** //  Note            : N/A
 988:src/wavecom.c **** //  Globals Changed : N/A
 989:src/wavecom.c **** //*****************************************************************************
 990:src/wavecom.c **** BOOLEAN WriteGain(DWORD aType, DWORD aVal)
 991:src/wavecom.c **** {
 992:src/wavecom.c ****   BYTE *ptr;
 993:src/wavecom.c **** 
 994:src/wavecom.c **** #if (T800)
 995:src/wavecom.c ****   if (aType == SPK)
 996:src/wavecom.c ****     aVal = (8 - aVal) * 32;       // scale from 1 - 8
 997:src/wavecom.c ****   else
 998:src/wavecom.c ****     aVal = (aVal - 1) * 32;
 999:src/wavecom.c **** #endif
1000:src/wavecom.c **** 
1001:src/wavecom.c ****   sprintf((char *)gAtCmdIn, "AT+VG%c=%d\r\n", aType, aVal);
1002:src/wavecom.c ****   ClearCmdBuf();
1003:src/wavecom.c ****   if (!SendWaitRsp(gAtCmdIn, WAIT_OK))
1004:src/wavecom.c ****     return FALSE;
1005:src/wavecom.c **** 
1006:src/wavecom.c ****   ptr = (BYTE *)strstr((char const *)gAtCmdOut, "OK");
1007:src/wavecom.c ****   if (ptr != NULL) {
1008:src/wavecom.c ****     return TRUE;
1009:src/wavecom.c ****   }
1010:src/wavecom.c **** 
1011:src/wavecom.c ****   return FALSE;
1012:src/wavecom.c **** }
1013:src/wavecom.c **** //*****************************************************************************
1014:src/wavecom.c **** //  Function        : GetOptrName
1015:src/wavecom.c **** //  Description     : Get the short form operator name
1016:src/wavecom.c **** //  Input           : aName;        // Pointer to name buffer
1017:src/wavecom.c **** //                    aMaxLen;      // Max Output size
1018:src/wavecom.c **** //  Return          : None;
1019:src/wavecom.c **** //  Note            : N/A
1020:src/wavecom.c **** //  Globals Changed : N/A
1021:src/wavecom.c **** //*****************************************************************************
1022:src/wavecom.c **** BOOLEAN GetOptrName(char *aName, DWORD aMaxLen)
1023:src/wavecom.c **** {
1024:src/wavecom.c ****   char *ptr;
1025:src/wavecom.c ****   DWORD len;
1026:src/wavecom.c **** 
1027:src/wavecom.c ****   // GSM
1028:src/wavecom.c ****   *aName = 0x00;
1029:src/wavecom.c ****   //ClearCmdBuf();
1030:src/wavecom.c ****   //if (!SendWaitRsp("AT+COPS=3,0\r\n", WAIT_OK)) // long alpha format
1031:src/wavecom.c ****   //  return FALSE;
1032:src/wavecom.c **** 
1033:src/wavecom.c ****   ClearCmdBuf();
1034:src/wavecom.c ****   if (!SendWaitRsp("AT+COPS?\r\n", WAIT_OK))
1035:src/wavecom.c ****     return FALSE;
1036:src/wavecom.c **** 
1037:src/wavecom.c ****   ptr = strstr((char const *)gAtCmdOut, "+COPS:");
ARM GAS  C:\Users\AHMED~1.ELE\AppData\Local\Temp\ccAQ67OG.s 			page 27


1038:src/wavecom.c ****   if (ptr == NULL)
1039:src/wavecom.c ****     return FALSE;
1040:src/wavecom.c ****   ptr = strstr((char const *)gAtCmdOut, "\"");
1041:src/wavecom.c ****   if (ptr == NULL)
1042:src/wavecom.c ****     return FALSE;
1043:src/wavecom.c ****   ptr++;
1044:src/wavecom.c ****   while (*ptr!='"'&& aMaxLen--) {
1045:src/wavecom.c ****     *aName++ = *ptr++;
1046:src/wavecom.c ****   }
1047:src/wavecom.c ****   *aName = 0x00;
1048:src/wavecom.c **** 
1049:src/wavecom.c ****   //Skip trailing blank
1050:src/wavecom.c ****   len = strlen(aName);
1051:src/wavecom.c ****   while (aName[len-1] == ' ') {
1052:src/wavecom.c ****     aName[len-1] = 0x00;
1053:src/wavecom.c ****     len--;
1054:src/wavecom.c ****   }
1055:src/wavecom.c **** 
1056:src/wavecom.c ****   return TRUE;
1057:src/wavecom.c **** }
1058:src/wavecom.c **** //*****************************************************************************
1059:src/wavecom.c **** //  Function        : FacilityEnable
1060:src/wavecom.c **** //  Description     : Enable/Disable PIN
1061:src/wavecom.c **** //  Input           : aEnable;              // TRUE => Enable PIN
1062:src/wavecom.c **** //                    aPin;                 // Current PIN value
1063:src/wavecom.c **** //  Return          : 0: Fail
1064:src/wavecom.c **** //                    1: Success
1065:src/wavecom.c **** //                    2: Sim Busy
1066:src/wavecom.c **** //  Note            : N/A
1067:src/wavecom.c **** //  Globals Changed : N/A
1068:src/wavecom.c **** //*****************************************************************************
1069:src/wavecom.c **** DWORD FacilityEnable(BOOLEAN aEnable, char *aPin)
1070:src/wavecom.c **** {
1071:src/wavecom.c ****   DWORD ret;
1072:src/wavecom.c **** 
1073:src/wavecom.c ****   ret = 0;
1074:src/wavecom.c ****   ClearCmdBuf();
1075:src/wavecom.c ****   SendWaitRsp("AT+CMEE=1", WAIT_OK);
1076:src/wavecom.c ****   ClearCmdBuf();
1077:src/wavecom.c **** 
1078:src/wavecom.c ****   if (aEnable)
1079:src/wavecom.c ****     sprintf(gAtCmdIn, "AT+CLCK=\"%s\",%s,%s\r\a", "SC", "1", aPin);
1080:src/wavecom.c ****   else
1081:src/wavecom.c ****     sprintf(gAtCmdIn, "AT+CLCK=\"%s\",%s,%s\r\a", "SC", "0", aPin);
1082:src/wavecom.c **** 
1083:src/wavecom.c ****   ClearCmdBuf();
1084:src/wavecom.c ****   if (SendWaitRsp(gAtCmdIn, WAIT_OK)) {
1085:src/wavecom.c ****     if (strstr(gAtCmdOut, "OK"))
1086:src/wavecom.c ****       ret = 1;
1087:src/wavecom.c ****     else
1088:src/wavecom.c ****       if (strstr(gAtCmdOut, "515"))
1089:src/wavecom.c ****         ret = 2;
1090:src/wavecom.c ****   }
1091:src/wavecom.c ****   ClearCmdBuf();
1092:src/wavecom.c ****   SendWaitRsp("AT+CMEE=0", WAIT_OK);
1093:src/wavecom.c ****   ClearCmdBuf();
1094:src/wavecom.c ****   return ret;
ARM GAS  C:\Users\AHMED~1.ELE\AppData\Local\Temp\ccAQ67OG.s 			page 28


1095:src/wavecom.c **** }
1096:src/wavecom.c **** //*****************************************************************************
1097:src/wavecom.c **** //  Function        : CheckPinState
1098:src/wavecom.c **** //  Description     : Check Pin Requirement.
1099:src/wavecom.c **** //  Input           : N/A
1100:src/wavecom.c **** //  Return          : status;
1101:src/wavecom.c **** //  Note            : N/A
1102:src/wavecom.c **** //  Globals Changed : N/A
1103:src/wavecom.c **** //*****************************************************************************
1104:src/wavecom.c **** DWORD CheckPinState(void)
1105:src/wavecom.c **** {
1106:src/wavecom.c ****   DWORD req_pin;
1107:src/wavecom.c ****   req_pin = PIN_ERROR;
1108:src/wavecom.c ****   ClearCmdBuf();
1109:src/wavecom.c ****   if (SendWaitRsp("AT+CPIN?\r", WAIT_RSP)) {
1110:src/wavecom.c ****     if (strstr(gAtCmdOut, "READY"))
1111:src/wavecom.c ****       req_pin = REQ_READY;
1112:src/wavecom.c ****     else if (strstr(gAtCmdOut, "PUK2"))
1113:src/wavecom.c ****       req_pin = REQ_PUK2;
1114:src/wavecom.c ****     else if (strstr(gAtCmdOut, "PUK"))
1115:src/wavecom.c ****       req_pin = REQ_PUK1;
1116:src/wavecom.c ****     else if (strstr(gAtCmdOut, "PIN2"))
1117:src/wavecom.c ****       req_pin = REQ_PIN2;
1118:src/wavecom.c ****     else if (strstr(gAtCmdOut, "PIN"))
1119:src/wavecom.c ****       req_pin = REQ_PIN1;
1120:src/wavecom.c ****   }
1121:src/wavecom.c ****   ClearCmdBuf();
1122:src/wavecom.c ****   return req_pin;
1123:src/wavecom.c **** }
1124:src/wavecom.c **** //*****************************************************************************
1125:src/wavecom.c **** //  Function        : EnterPin
1126:src/wavecom.c **** //  Description     : Enter PIN
1127:src/wavecom.c **** //  Input           : aId;              // Pin Input Option;
1128:src/wavecom.c **** //                    aPin;             // Pointer to Pin Data string;
1129:src/wavecom.c **** //  Return          : TRUE/FALSE;
1130:src/wavecom.c **** //  Note            : N/A
1131:src/wavecom.c **** //  Globals Changed : N/A
1132:src/wavecom.c **** //*****************************************************************************
1133:src/wavecom.c **** BOOLEAN EnterPin(DWORD aId, char *aPin)
1134:src/wavecom.c **** {
1135:src/wavecom.c ****   BOOLEAN ret;
1136:src/wavecom.c **** 
1137:src/wavecom.c ****   ret = FALSE;
1138:src/wavecom.c ****   if (aId == REQ_PIN1)
1139:src/wavecom.c ****     sprintf(gAtCmdIn, "AT+CPIN=\"%s\"\r\n", aPin);
1140:src/wavecom.c ****   else
1141:src/wavecom.c ****     sprintf(gAtCmdIn, "AT+CPIN2=\"%s\"\r\n", aPin);
1142:src/wavecom.c **** 
1143:src/wavecom.c ****   if (SendWaitRsp(gAtCmdIn, WAIT_RSP)) {
1144:src/wavecom.c ****     if (strstr(gAtCmdOut, "OK"))
1145:src/wavecom.c ****       ret = TRUE;
1146:src/wavecom.c ****   }
1147:src/wavecom.c ****   ClearCmdBuf();
1148:src/wavecom.c ****   return ret;
1149:src/wavecom.c **** }
1150:src/wavecom.c **** //*****************************************************************************
1151:src/wavecom.c **** //  Function        : ChangePin
ARM GAS  C:\Users\AHMED~1.ELE\AppData\Local\Temp\ccAQ67OG.s 			page 29


1152:src/wavecom.c **** //  Description     : Change PIN value.
1153:src/wavecom.c **** //  Input           : aId;              // PIN/PIN2
1154:src/wavecom.c **** //                    aOldPin;          // Pointer to Org. Pin Data string;
1155:src/wavecom.c **** //                    aNewPin;          // Pointer to New Pin Data string;
1156:src/wavecom.c **** //  Return          : 0: Fail
1157:src/wavecom.c **** //                    1: Success
1158:src/wavecom.c **** //                    2: Sim Busy
1159:src/wavecom.c **** //  Note            : N/A
1160:src/wavecom.c **** //  Globals Changed : N/A
1161:src/wavecom.c **** //*****************************************************************************
1162:src/wavecom.c **** DWORD ChangePin(DWORD aId, char *aOldPin, char *aNewPin)
1163:src/wavecom.c **** {
1164:src/wavecom.c ****   DWORD ret;
1165:src/wavecom.c **** 
1166:src/wavecom.c ****   ret = 0;
1167:src/wavecom.c ****   ClearCmdBuf();
1168:src/wavecom.c ****   SendWaitRsp("AT+CMEE=1", WAIT_OK);
1169:src/wavecom.c ****   ClearCmdBuf();
1170:src/wavecom.c **** 
1171:src/wavecom.c ****   if (aId == REQ_PIN1)
1172:src/wavecom.c ****     sprintf(gAtCmdIn, "AT+CPWD=\"%s\",%s,%s\r", "SC", aOldPin, aNewPin);
1173:src/wavecom.c ****   else
1174:src/wavecom.c ****     sprintf(gAtCmdIn, "AT+CPWD=\"%s\",%s,%s\r", "P2", aOldPin, aNewPin);
1175:src/wavecom.c **** 
1176:src/wavecom.c ****   if (SendWaitRsp(gAtCmdIn, WAIT_OK)) {
1177:src/wavecom.c ****     if (strstr(gAtCmdOut, "OK"))
1178:src/wavecom.c ****       ret = 1;
1179:src/wavecom.c ****     else
1180:src/wavecom.c ****       if (strstr(gAtCmdOut, "515"))
1181:src/wavecom.c ****         ret = 2;
1182:src/wavecom.c ****   }
1183:src/wavecom.c ****   ClearCmdBuf();
1184:src/wavecom.c ****   SendWaitRsp("AT+CMEE=0", WAIT_OK);
1185:src/wavecom.c ****   ClearCmdBuf();
1186:src/wavecom.c ****   return ret;
1187:src/wavecom.c **** }
1188:src/wavecom.c **** //*****************************************************************************
1189:src/wavecom.c **** //  Function        : SetNewMsgInd
1190:src/wavecom.c **** //  Description     : Enable/Disable SMS new message indicator.
1191:src/wavecom.c **** //  Input           : aEnable;      // TRUE/FALSE
1192:src/wavecom.c **** //  Return          : None;
1193:src/wavecom.c **** //  Note            : N/A
1194:src/wavecom.c **** //  Globals Changed : N/A
1195:src/wavecom.c **** //*****************************************************************************
1196:src/wavecom.c **** BOOLEAN SetNewMsgInd(BOOLEAN aEnable)
1197:src/wavecom.c **** {
1198:src/wavecom.c ****   if (aEnable) {
1199:src/wavecom.c ****     if (!SendWaitRsp("AT+CNMI=0,1,1,1,0\r\n", WAIT_OK))
1200:src/wavecom.c ****       return FALSE;
1201:src/wavecom.c ****   }
1202:src/wavecom.c ****   else
1203:src/wavecom.c ****     if (!SendWaitRsp("AT+CNMI=0,0,0,0,0\r\n", WAIT_OK))
1204:src/wavecom.c ****       return FALSE;
1205:src/wavecom.c ****   return TRUE;
1206:src/wavecom.c **** }
1207:src/wavecom.c **** //*****************************************************************************
1208:src/wavecom.c **** //  Function        : GetSmsMode
ARM GAS  C:\Users\AHMED~1.ELE\AppData\Local\Temp\ccAQ67OG.s 			page 30


1209:src/wavecom.c **** //  Description     : Get the current SMS mode
1210:src/wavecom.c **** //  Input           : None
1211:src/wavecom.c **** //  Return          : Either PDU or text mode will be returned
1212:src/wavecom.c **** //                    0xFF - error
1213:src/wavecom.c **** //  Note            : ++ Jason ++ 22-01-09
1214:src/wavecom.c **** //  Globals Changed : N/A
1215:src/wavecom.c **** //*****************************************************************************
1216:src/wavecom.c **** DWORD GetSmsMode(void)
1217:src/wavecom.c **** {
1218:src/wavecom.c ****   strcpy(gAtCmdIn, "AT+CMGF?\r\n");
1219:src/wavecom.c ****   if (!SendWaitRsp(gAtCmdIn, WAIT_OK))
1220:src/wavecom.c ****     return 0xFF;
1221:src/wavecom.c **** 
1222:src/wavecom.c ****   if (strstr(gAtCmdOut, "+CMGF: 0"))
1223:src/wavecom.c ****     return SMS_PDU_MODE;
1224:src/wavecom.c ****   else if (strstr(gAtCmdOut, "+CMGF: 1"))
1225:src/wavecom.c ****     return SMS_TXT_MODE;
1226:src/wavecom.c **** 
1227:src/wavecom.c ****   return 0xFF;
1228:src/wavecom.c **** }
1229:src/wavecom.c **** //*****************************************************************************
1230:src/wavecom.c **** //  Function        : SetSmsMode
1231:src/wavecom.c **** //  Description     : Set SMS mode
1232:src/wavecom.c **** //  Input           : aMode;
1233:src/wavecom.c **** //  Return          : None;
1234:src/wavecom.c **** //  Note            : //08-12-06 JC++
1235:src/wavecom.c **** //  Globals Changed : N/A
1236:src/wavecom.c **** //*****************************************************************************
1237:src/wavecom.c **** static BOOLEAN SetSmsMode(BYTE aMode)
 395              		.loc 1 1237 0
 396              		.cfi_startproc
 397              		@ args = 0, pretend = 0, frame = 0
 398              		@ frame_needed = 0, uses_anonymous_args = 0
 399              	.LVL37:
1238:src/wavecom.c **** {
1239:src/wavecom.c ****   if (aMode > SMS_TXT_MODE)
1240:src/wavecom.c ****     return FALSE;
1241:src/wavecom.c **** 
1242:src/wavecom.c **** 
1243:src/wavecom.c ****   gGSMData.b_sms_mode = aMode;
 400              		.loc 1 1243 0
 401 0000 0A4B     		ldr	r3, .L32
1237:src/wavecom.c **** {
 402              		.loc 1 1237 0
 403 0002 10B5     		push	{r4, lr}
 404              		.cfi_def_cfa_offset 8
 405              		.cfi_offset 4, -8
 406              		.cfi_offset 14, -4
1244:src/wavecom.c ****   strcpy(gAtCmdIn, "AT+CMGF=0\r\n");
 407              		.loc 1 1244 0
 408 0004 0A49     		ldr	r1, .L32+4
1243:src/wavecom.c ****   strcpy(gAtCmdIn, "AT+CMGF=0\r\n");
 409              		.loc 1 1243 0
 410 0006 83F82C00 		strb	r0, [r3, #44]
 411              		.loc 1 1244 0
 412 000a 0A4B     		ldr	r3, .L32+8
1237:src/wavecom.c **** {
ARM GAS  C:\Users\AHMED~1.ELE\AppData\Local\Temp\ccAQ67OG.s 			page 31


 413              		.loc 1 1237 0
 414 000c 0446     		mov	r4, r0
 415              		.loc 1 1244 0
 416 000e 1846     		mov	r0, r3
 417              	.LVL38:
 418 0010 FFF7FEFF 		bl	strcpy
 419              	.LVL39:
1245:src/wavecom.c ****   gAtCmdIn[8] = '0' + aMode;
 420              		.loc 1 1245 0
 421 0014 3034     		adds	r4, r4, #48
 422 0016 084A     		ldr	r2, .L32+12
1246:src/wavecom.c ****   if (!SendWaitRsp(gAtCmdIn, WAIT_OK))
 423              		.loc 1 1246 0
 424 0018 0221     		movs	r1, #2
1245:src/wavecom.c ****   gAtCmdIn[8] = '0' + aMode;
 425              		.loc 1 1245 0
 426 001a 82F8E545 		strb	r4, [r2, #1509]
 427              		.loc 1 1246 0
 428 001e FFF7FEFF 		bl	SendWaitRsp
 429              	.LVL40:
1247:src/wavecom.c ****     return FALSE;
1248:src/wavecom.c **** 
1249:src/wavecom.c ****   return TRUE;
1250:src/wavecom.c **** }
 430              		.loc 1 1250 0
 431 0022 0030     		adds	r0, r0, #0
 432 0024 18BF     		it	ne
 433 0026 0120     		movne	r0, #1
 434 0028 10BD     		pop	{r4, pc}
 435              	.L33:
 436 002a 00BF     		.align	2
 437              	.L32:
 438 002c 00000000 		.word	gGSMData
 439 0030 09000000 		.word	.LC3
 440 0034 DD050000 		.word	.LANCHOR0+1501
 441 0038 00000000 		.word	.LANCHOR0
 442              		.cfi_endproc
 443              	.LFE44:
 444              		.size	SetSmsMode.part.1, .-SetSmsMode.part.1
 445              		.section	.text.Asc2DWVAL.constprop.7,"ax",%progbits
 446              		.align	1
 447              		.thumb
 448              		.thumb_func
 449              		.type	Asc2DWVAL.constprop.7, %function
 450              	Asc2DWVAL.constprop.7:
 451              	.LFB49:
 339:src/wavecom.c **** {
 452              		.loc 1 339 0
 453              		.cfi_startproc
 454              		@ args = 0, pretend = 0, frame = 0
 455              		@ frame_needed = 0, uses_anonymous_args = 0
 456              	.LVL41:
 457 0000 411E     		subs	r1, r0, #1
 458 0002 10B5     		push	{r4, lr}
 459              		.cfi_def_cfa_offset 8
 460              		.cfi_offset 4, -8
 461              		.cfi_offset 14, -4
ARM GAS  C:\Users\AHMED~1.ELE\AppData\Local\Temp\ccAQ67OG.s 			page 32


 462 0004 821C     		adds	r2, r0, #2
 344:src/wavecom.c ****   while (aMaxLen--) {
 463              		.loc 1 344 0
 464 0006 0020     		movs	r0, #0
 465              	.LVL42:
 466              	.L35:
 345:src/wavecom.c ****     temp = *aPtr - '0';
 467              		.loc 1 345 0
 468 0008 9142     		cmp	r1, r2
 469 000a 09D0     		beq	.L39
 346:src/wavecom.c ****     if (temp <= 9) {
 470              		.loc 1 346 0
 471 000c 11F8013F 		ldrb	r3, [r1, #1]!	@ zero_extendqisi2
 472              	.LVL43:
 473 0010 303B     		subs	r3, r3, #48
 474 0012 DBB2     		uxtb	r3, r3
 475              	.LVL44:
 347:src/wavecom.c ****       val = val*10 + temp;
 476              		.loc 1 347 0
 477 0014 092B     		cmp	r3, #9
 478 0016 03D8     		bhi	.L39
 348:src/wavecom.c ****       aPtr++;
 479              		.loc 1 348 0
 480 0018 0A24     		movs	r4, #10
 481 001a 04FB0030 		mla	r0, r4, r0, r3
 482              	.LVL45:
 483 001e F3E7     		b	.L35
 484              	.LVL46:
 485              	.L39:
 355:src/wavecom.c **** //*****************************************************************************
 486              		.loc 1 355 0
 487 0020 10BD     		pop	{r4, pc}
 488              		.cfi_endproc
 489              	.LFE49:
 490              		.size	Asc2DWVAL.constprop.7, .-Asc2DWVAL.constprop.7
 491              		.section	.text.WaitModuReady,"ax",%progbits
 492              		.align	1
 493              		.global	WaitModuReady
 494              		.thumb
 495              		.thumb_func
 496              		.type	WaitModuReady, %function
 497              	WaitModuReady:
 498              	.LFB2:
 237:src/wavecom.c ****   DWORD status;
 499              		.loc 1 237 0
 500              		.cfi_startproc
 501              		@ args = 0, pretend = 0, frame = 0
 502              		@ frame_needed = 0, uses_anonymous_args = 0
 503              	.LVL47:
 504 0000 37B5     		push	{r0, r1, r2, r4, r5, lr}
 505              		.cfi_def_cfa_offset 24
 506              		.cfi_offset 4, -12
 507              		.cfi_offset 5, -8
 508              		.cfi_offset 14, -4
 237:src/wavecom.c ****   DWORD status;
 509              		.loc 1 237 0
 510 0002 0546     		mov	r5, r0
ARM GAS  C:\Users\AHMED~1.ELE\AppData\Local\Temp\ccAQ67OG.s 			page 33


 241:src/wavecom.c ****   do {
 511              		.loc 1 241 0
 512 0004 40F29F10 		movw	r0, #415
 513              	.LVL48:
 514 0008 FFF7FEFF 		bl	sys_func0
 515              	.LVL49:
 516 000c 0446     		mov	r4, r0
 517              	.LVL50:
 518              	.L42:
 243:src/wavecom.c ****     if ((curr_tick - last_tick) > aTimeout)
 519              		.loc 1 243 0
 520 000e 40F29F10 		movw	r0, #415
 521 0012 FFF7FEFF 		bl	sys_func0
 522              	.LVL51:
 244:src/wavecom.c ****       break;
 523              		.loc 1 244 0
 524 0016 001B     		subs	r0, r0, r4
 525              	.LVL52:
 526 0018 A842     		cmp	r0, r5
 527 001a 4FF00000 		mov	r0, #0
 528 001e 11D8     		bhi	.L41
 246:src/wavecom.c ****     if (status&(MW_GSTS_ATREADY1|MW_GSTS_ATREADY2))
 529              		.loc 1 246 0
 530 0020 094B     		ldr	r3, .L45
 531 0022 0090     		str	r0, [sp]
 532 0024 0821     		movs	r1, #8
 533 0026 1A68     		ldr	r2, [r3]
 534 0028 0F20     		movs	r0, #15
 535 002a 4FF49053 		mov	r3, #4608
 536 002e FFF7FEFF 		bl	lib_app_call
 537              	.LVL53:
 247:src/wavecom.c ****       return TRUE;
 538              		.loc 1 247 0
 539 0032 10F4905F 		tst	r0, #4608
 540 0036 04D1     		bne	.L44
 249:src/wavecom.c ****   } while (1);
 541              		.loc 1 249 0
 542 0038 4FF4CE70 		mov	r0, #412
 543              	.LVL54:
 544 003c FFF7FEFF 		bl	sys_func0
 545              	.LVL55:
 250:src/wavecom.c **** 
 546              		.loc 1 250 0
 547 0040 E5E7     		b	.L42
 548              	.LVL56:
 549              	.L44:
 248:src/wavecom.c ****     SleepMW();
 550              		.loc 1 248 0
 551 0042 0120     		movs	r0, #1
 552              	.LVL57:
 553              	.L41:
 253:src/wavecom.c **** //*****************************************************************************
 554              		.loc 1 253 0
 555 0044 03B0     		add	sp, sp, #12
 556              		.cfi_def_cfa_offset 12
 557              		@ sp needed
 558 0046 30BD     		pop	{r4, r5, pc}
ARM GAS  C:\Users\AHMED~1.ELE\AppData\Local\Temp\ccAQ67OG.s 			page 34


 559              	.LVL58:
 560              	.L46:
 561              		.align	2
 562              	.L45:
 563 0048 00000000 		.word	gGprsHandle
 564              		.cfi_endproc
 565              	.LFE2:
 566              		.size	WaitModuReady, .-WaitModuReady
 567              		.section	.text.SimDetect,"ax",%progbits
 568              		.align	1
 569              		.global	SimDetect
 570              		.thumb
 571              		.thumb_func
 572              		.type	SimDetect, %function
 573              	SimDetect:
 574              	.LFB3:
 263:src/wavecom.c ****   BOOLEAN detected;
 575              		.loc 1 263 0
 576              		.cfi_startproc
 577              		@ args = 0, pretend = 0, frame = 0
 578              		@ frame_needed = 0, uses_anonymous_args = 0
 579              	.LVL59:
 580 0000 10B5     		push	{r4, lr}
 581              		.cfi_def_cfa_offset 8
 582              		.cfi_offset 4, -8
 583              		.cfi_offset 14, -4
 267:src/wavecom.c ****   if (SendWaitRsp("AT+CPIN?\r\n", WAIT_RSP)) {
 584              		.loc 1 267 0
 585 0002 FFF7FEFF 		bl	ClearCmdBuf
 586              	.LVL60:
 268:src/wavecom.c ****     if (strstr(gAtCmdOut, "CPIN"))
 587              		.loc 1 268 0
 588 0006 0948     		ldr	r0, .L50
 589 0008 0121     		movs	r1, #1
 590 000a FFF7FEFF 		bl	SendWaitRsp
 591              	.LVL61:
 592 000e 38B1     		cbz	r0, .L49
 269:src/wavecom.c ****       detected = TRUE;
 593              		.loc 1 269 0
 594 0010 0748     		ldr	r0, .L50+4
 595 0012 0849     		ldr	r1, .L50+8
 596 0014 FFF7FEFF 		bl	strstr
 597              	.LVL62:
 266:src/wavecom.c ****   ClearCmdBuf();
 598              		.loc 1 266 0
 599 0018 041C     		adds	r4, r0, #0
 600 001a 18BF     		it	ne
 601 001c 0124     		movne	r4, #1
 602 001e 00E0     		b	.L48
 603              	.L49:
 604 0020 0446     		mov	r4, r0
 605              	.L48:
 606              	.LVL63:
 272:src/wavecom.c **** 
 607              		.loc 1 272 0
 608 0022 FFF7FEFF 		bl	ClearCmdBuf
 609              	.LVL64:
ARM GAS  C:\Users\AHMED~1.ELE\AppData\Local\Temp\ccAQ67OG.s 			page 35


 275:src/wavecom.c **** //*****************************************************************************
 610              		.loc 1 275 0
 611 0026 2046     		mov	r0, r4
 612 0028 10BD     		pop	{r4, pc}
 613              	.LVL65:
 614              	.L51:
 615 002a 00BF     		.align	2
 616              	.L50:
 617 002c 15000000 		.word	.LC4
 618 0030 00000000 		.word	.LANCHOR0
 619 0034 20000000 		.word	.LC5
 620              		.cfi_endproc
 621              	.LFE3:
 622              		.size	SimDetect, .-SimDetect
 623              		.section	.text.RegisterNetwork,"ax",%progbits
 624              		.align	1
 625              		.global	RegisterNetwork
 626              		.thumb
 627              		.thumb_func
 628              		.type	RegisterNetwork, %function
 629              	RegisterNetwork:
 630              	.LFB4:
 291:src/wavecom.c ****   const char cmd[2][6] = { "CREG", "CGREG" };
 631              		.loc 1 291 0
 632              		.cfi_startproc
 633              		@ args = 0, pretend = 0, frame = 16
 634              		@ frame_needed = 0, uses_anonymous_args = 0
 635              	.LVL66:
 636 0000 30B5     		push	{r4, r5, lr}
 637              		.cfi_def_cfa_offset 12
 638              		.cfi_offset 4, -12
 639              		.cfi_offset 5, -8
 640              		.cfi_offset 14, -4
 641 0002 85B0     		sub	sp, sp, #20
 642              		.cfi_def_cfa_offset 32
 292:src/wavecom.c ****   char *ptr;
 643              		.loc 1 292 0
 644 0004 1A49     		ldr	r1, .L62
 645 0006 0C22     		movs	r2, #12
 291:src/wavecom.c ****   const char cmd[2][6] = { "CREG", "CGREG" };
 646              		.loc 1 291 0
 647 0008 0446     		mov	r4, r0
 292:src/wavecom.c ****   char *ptr;
 648              		.loc 1 292 0
 649 000a 01A8     		add	r0, sp, #4
 650              	.LVL67:
 651 000c FFF7FEFF 		bl	memcpy
 652              	.LVL68:
 295:src/wavecom.c ****   sprintf(gAtCmdIn, "AT+%s=1\r\n", cmd[aGPRS]);
 653              		.loc 1 295 0
 654 0010 FFF7FEFF 		bl	ClearCmdBuf
 655              	.LVL69:
 296:src/wavecom.c **** 
 656              		.loc 1 296 0
 657 0014 0623     		movs	r3, #6
 658 0016 01AA     		add	r2, sp, #4
 659 0018 1649     		ldr	r1, .L62+4
ARM GAS  C:\Users\AHMED~1.ELE\AppData\Local\Temp\ccAQ67OG.s 			page 36


 660 001a 03FB0424 		mla	r4, r3, r4, r2
 661 001e 1648     		ldr	r0, .L62+8
 662 0020 2246     		mov	r2, r4
 663 0022 FFF7FEFF 		bl	sprintf
 664              	.LVL70:
 298:src/wavecom.c ****     return 4;
 665              		.loc 1 298 0
 666 0026 1448     		ldr	r0, .L62+8
 667 0028 0221     		movs	r1, #2
 668 002a FFF7FEFF 		bl	SendWaitRsp
 669              	.LVL71:
 670 002e D8B1     		cbz	r0, .L55
 301:src/wavecom.c ****   sprintf(gAtCmdIn, "AT+%s?\r\n", cmd[aGPRS]);
 671              		.loc 1 301 0
 672 0030 FFF7FEFF 		bl	ClearCmdBuf
 673              	.LVL72:
 302:src/wavecom.c ****   if (SendWaitRsp(gAtCmdIn, WAIT_RSP)) {
 674              		.loc 1 302 0
 675 0034 1149     		ldr	r1, .L62+12
 676 0036 1048     		ldr	r0, .L62+8
 677 0038 2246     		mov	r2, r4
 678 003a FFF7FEFF 		bl	sprintf
 679              	.LVL73:
 303:src/wavecom.c ****     ptr = strstr(gAtCmdOut, cmd[aGPRS]);
 680              		.loc 1 303 0
 681 003e 0E48     		ldr	r0, .L62+8
 682 0040 0121     		movs	r1, #1
 683 0042 FFF7FEFF 		bl	SendWaitRsp
 684              	.LVL74:
 685 0046 58B1     		cbz	r0, .L54
 304:src/wavecom.c ****     if (ptr!=NULL) {
 686              		.loc 1 304 0
 687 0048 0D48     		ldr	r0, .L62+16
 688 004a 2146     		mov	r1, r4
 689 004c FFF7FEFF 		bl	strstr
 690              	.LVL75:
 305:src/wavecom.c ****       return ptr[strlen(cmd[aGPRS])+2];
 691              		.loc 1 305 0
 692 0050 0546     		mov	r5, r0
 693 0052 28B1     		cbz	r0, .L54
 306:src/wavecom.c ****     }
 694              		.loc 1 306 0
 695 0054 2046     		mov	r0, r4
 696              	.LVL76:
 697 0056 FFF7FEFF 		bl	strlen
 698              	.LVL77:
 699 005a 2844     		add	r0, r0, r5
 700 005c 8078     		ldrb	r0, [r0, #2]	@ zero_extendqisi2
 701 005e 04E0     		b	.L53
 702              	.LVL78:
 703              	.L54:
 309:src/wavecom.c ****   return '4';
 704              		.loc 1 309 0
 705 0060 FFF7FEFF 		bl	ClearCmdBuf
 706              	.LVL79:
 310:src/wavecom.c **** }
 707              		.loc 1 310 0
ARM GAS  C:\Users\AHMED~1.ELE\AppData\Local\Temp\ccAQ67OG.s 			page 37


 708 0064 3420     		movs	r0, #52
 709 0066 00E0     		b	.L53
 710              	.L55:
 299:src/wavecom.c **** 
 711              		.loc 1 299 0
 712 0068 0420     		movs	r0, #4
 713              	.L53:
 311:src/wavecom.c **** //*****************************************************************************
 714              		.loc 1 311 0
 715 006a 05B0     		add	sp, sp, #20
 716              		.cfi_def_cfa_offset 12
 717              		@ sp needed
 718 006c 30BD     		pop	{r4, r5, pc}
 719              	.L63:
 720 006e 00BF     		.align	2
 721              	.L62:
 722 0070 00000000 		.word	.LANCHOR1
 723 0074 25000000 		.word	.LC6
 724 0078 DD050000 		.word	.LANCHOR0+1501
 725 007c 2F000000 		.word	.LC7
 726 0080 00000000 		.word	.LANCHOR0
 727              		.cfi_endproc
 728              	.LFE4:
 729              		.size	RegisterNetwork, .-RegisterNetwork
 730              		.section	.text.AttachGPRS,"ax",%progbits
 731              		.align	1
 732              		.global	AttachGPRS
 733              		.thumb
 734              		.thumb_func
 735              		.type	AttachGPRS, %function
 736              	AttachGPRS:
 737              	.LFB5:
 321:src/wavecom.c ****   ClearCmdBuf();
 738              		.loc 1 321 0
 739              		.cfi_startproc
 740              		@ args = 0, pretend = 0, frame = 0
 741              		@ frame_needed = 0, uses_anonymous_args = 0
 742 0000 08B5     		push	{r3, lr}
 743              		.cfi_def_cfa_offset 8
 744              		.cfi_offset 3, -8
 745              		.cfi_offset 14, -4
 322:src/wavecom.c ****   if (SendWaitRsp("AT+CGATT=1\r\n", WAIT_OK)) {
 746              		.loc 1 322 0
 747 0002 FFF7FEFF 		bl	ClearCmdBuf
 748              	.LVL80:
 323:src/wavecom.c ****     if (strstr(gAtCmdOut, "OK"))
 749              		.loc 1 323 0
 750 0006 0848     		ldr	r0, .L71
 751 0008 0221     		movs	r1, #2
 752 000a FFF7FEFF 		bl	SendWaitRsp
 753              	.LVL81:
 754 000e 20B1     		cbz	r0, .L65
 324:src/wavecom.c ****       return TRUE;
 755              		.loc 1 324 0
 756 0010 0648     		ldr	r0, .L71+4
 757 0012 0749     		ldr	r1, .L71+8
 758 0014 FFF7FEFF 		bl	strstr
ARM GAS  C:\Users\AHMED~1.ELE\AppData\Local\Temp\ccAQ67OG.s 			page 38


 759              	.LVL82:
 760 0018 18B9     		cbnz	r0, .L67
 761              	.L65:
 327:src/wavecom.c ****   return FALSE;
 762              		.loc 1 327 0
 763 001a FFF7FEFF 		bl	ClearCmdBuf
 764              	.LVL83:
 328:src/wavecom.c **** }
 765              		.loc 1 328 0
 766 001e 0020     		movs	r0, #0
 767 0020 08BD     		pop	{r3, pc}
 768              	.L67:
 325:src/wavecom.c ****   }
 769              		.loc 1 325 0
 770 0022 0120     		movs	r0, #1
 329:src/wavecom.c **** //*****************************************************************************
 771              		.loc 1 329 0
 772 0024 08BD     		pop	{r3, pc}
 773              	.L72:
 774 0026 00BF     		.align	2
 775              	.L71:
 776 0028 38000000 		.word	.LC8
 777 002c 00000000 		.word	.LANCHOR0
 778 0030 00000000 		.word	.LC1
 779              		.cfi_endproc
 780              	.LFE5:
 781              		.size	AttachGPRS, .-AttachGPRS
 782              		.section	.text.GetPHBCapcity,"ax",%progbits
 783              		.align	1
 784              		.global	GetPHBCapcity
 785              		.thumb
 786              		.thumb_func
 787              		.type	GetPHBCapcity, %function
 788              	GetPHBCapcity:
 789              	.LFB8:
 413:src/wavecom.c ****   BYTE *ptr;
 790              		.loc 1 413 0
 791              		.cfi_startproc
 792              		@ args = 0, pretend = 0, frame = 0
 793              		@ frame_needed = 0, uses_anonymous_args = 0
 794              	.LVL84:
 795 0000 2DE9F843 		push	{r3, r4, r5, r6, r7, r8, r9, lr}
 796              		.cfi_def_cfa_offset 32
 797              		.cfi_offset 3, -32
 798              		.cfi_offset 4, -28
 799              		.cfi_offset 5, -24
 800              		.cfi_offset 6, -20
 801              		.cfi_offset 7, -16
 802              		.cfi_offset 8, -12
 803              		.cfi_offset 9, -8
 804              		.cfi_offset 14, -4
 413:src/wavecom.c ****   BYTE *ptr;
 805              		.loc 1 413 0
 806 0004 0746     		mov	r7, r0
 807 0006 0E46     		mov	r6, r1
 418:src/wavecom.c ****     return FALSE;
 808              		.loc 1 418 0
ARM GAS  C:\Users\AHMED~1.ELE\AppData\Local\Temp\ccAQ67OG.s 			page 39


 809 0008 2848     		ldr	r0, .L82
 810              	.LVL85:
 811 000a 0221     		movs	r1, #2
 812              	.LVL86:
 813 000c FFF7FEFF 		bl	SendWaitRsp
 814              	.LVL87:
 815 0010 10B9     		cbnz	r0, .L74
 816              	.L76:
 419:src/wavecom.c **** 
 817              		.loc 1 419 0
 818 0012 0020     		movs	r0, #0
 819 0014 BDE8F883 		pop	{r3, r4, r5, r6, r7, r8, r9, pc}
 820              	.LVL88:
 821              	.L74:
 822              	.LBB4:
 823              	.LBB5:
 421:src/wavecom.c ****   if (ptr == NULL)
 824              		.loc 1 421 0
 825 0018 254C     		ldr	r4, .L82+4
 826 001a 2649     		ldr	r1, .L82+8
 827 001c 2046     		mov	r0, r4
 828 001e FFF7FEFF 		bl	strstr
 829              	.LVL89:
 422:src/wavecom.c ****     return FALSE;
 830              		.loc 1 422 0
 831 0022 0546     		mov	r5, r0
 832 0024 0028     		cmp	r0, #0
 833 0026 F4D0     		beq	.L76
 425:src/wavecom.c **** 
 834              		.loc 1 425 0
 835 0028 2046     		mov	r0, r4
 836              	.LVL90:
 837 002a FFF7FEFF 		bl	strlen
 838              	.LVL91:
 839 002e 641B     		subs	r4, r4, r5
 427:src/wavecom.c ****   if (idx1 == r_len)
 840              		.loc 1 427 0
 841 0030 2C21     		movs	r1, #44
 425:src/wavecom.c **** 
 842              		.loc 1 425 0
 843 0032 0444     		add	r4, r4, r0
 844              	.LVL92:
 427:src/wavecom.c ****   if (idx1 == r_len)
 845              		.loc 1 427 0
 846 0034 2246     		mov	r2, r4
 847 0036 2846     		mov	r0, r5
 848 0038 FFF7FEFF 		bl	fndb
 849              	.LVL93:
 428:src/wavecom.c ****     return FALSE;
 850              		.loc 1 428 0
 851 003c A042     		cmp	r0, r4
 427:src/wavecom.c ****   if (idx1 == r_len)
 852              		.loc 1 427 0
 853 003e 8046     		mov	r8, r0
 854              	.LVL94:
 428:src/wavecom.c ****     return FALSE;
 855              		.loc 1 428 0
ARM GAS  C:\Users\AHMED~1.ELE\AppData\Local\Temp\ccAQ67OG.s 			page 40


 856 0040 E7D0     		beq	.L76
 432:src/wavecom.c ****   if (idx2 == r_len)
 857              		.loc 1 432 0
 858 0042 00F10109 		add	r9, r0, #1
 431:src/wavecom.c ****   idx2 = fndb(ptr+idx1+1, ',', r_len);      // find second comma
 859              		.loc 1 431 0
 860 0046 241A     		subs	r4, r4, r0
 861              	.LVL95:
 432:src/wavecom.c ****   if (idx2 == r_len)
 862              		.loc 1 432 0
 863 0048 A944     		add	r9, r9, r5
 864 004a 4846     		mov	r0, r9
 865              	.LVL96:
 866 004c 2C21     		movs	r1, #44
 867 004e 2246     		mov	r2, r4
 868 0050 FFF7FEFF 		bl	fndb
 869              	.LVL97:
 433:src/wavecom.c ****     return FALSE;
 870              		.loc 1 433 0
 871 0054 A042     		cmp	r0, r4
 872 0056 DCD0     		beq	.L76
 437:src/wavecom.c ****   if (idx3 == r_len)
 873              		.loc 1 437 0
 874 0058 8044     		add	r8, r8, r0
 875              	.LVL98:
 436:src/wavecom.c ****   idx3 = fndb(ptr+idx1+idx2+1, '\r', r_len);     // find '\r'
 876              		.loc 1 436 0
 877 005a 241A     		subs	r4, r4, r0
 878              	.LVL99:
 437:src/wavecom.c ****   if (idx3 == r_len)
 879              		.loc 1 437 0
 880 005c 08F10100 		add	r0, r8, #1
 881              	.LVL100:
 882 0060 2844     		add	r0, r0, r5
 883 0062 0D21     		movs	r1, #13
 884 0064 2246     		mov	r2, r4
 885 0066 FFF7FEFF 		bl	fndb
 886              	.LVL101:
 438:src/wavecom.c ****     return FALSE;
 887              		.loc 1 438 0
 888 006a A042     		cmp	r0, r4
 889 006c D1D0     		beq	.L76
 890              	.LVL102:
 444:src/wavecom.c ****   *aTotal = (WORD)Asc2DWVAL(ptr+idx2+1, 3);
 891              		.loc 1 444 0
 892 006e 4846     		mov	r0, r9
 893              	.LVL103:
 894 0070 FFF7FEFF 		bl	Asc2DWVAL.constprop.7
 895              	.LVL104:
 896 0074 80B2     		uxth	r0, r0
 897 0076 3860     		str	r0, [r7]
 445:src/wavecom.c **** 
 898              		.loc 1 445 0
 899 0078 08F10200 		add	r0, r8, #2
 900 007c 2844     		add	r0, r0, r5
 901 007e FFF7FEFF 		bl	Asc2DWVAL.constprop.7
 902              	.LVL105:
ARM GAS  C:\Users\AHMED~1.ELE\AppData\Local\Temp\ccAQ67OG.s 			page 41


 903 0082 80B2     		uxth	r0, r0
 904 0084 3060     		str	r0, [r6]
 447:src/wavecom.c ****   *aTotal = gGSMData.d_total_count > MAX_PHBOOK_REC ? MAX_PHBOOK_REC: *aTotal;
 905              		.loc 1 447 0
 906 0086 3B68     		ldr	r3, [r7]
 450:src/wavecom.c **** }
 907              		.loc 1 450 0
 908 0088 0120     		movs	r0, #1
 447:src/wavecom.c ****   *aTotal = gGSMData.d_total_count > MAX_PHBOOK_REC ? MAX_PHBOOK_REC: *aTotal;
 909              		.loc 1 447 0
 910 008a B3F5807F 		cmp	r3, #256
 911 008e 28BF     		it	cs
 912 0090 4FF48073 		movcs	r3, #256
 913 0094 3B60     		str	r3, [r7]
 448:src/wavecom.c **** 
 914              		.loc 1 448 0
 915 0096 084B     		ldr	r3, .L82+12
 916 0098 5B6A     		ldr	r3, [r3, #36]
 917 009a B3F5807F 		cmp	r3, #256
 918 009e 8CBF     		ite	hi
 919 00a0 4FF48073 		movhi	r3, #256
 920 00a4 3368     		ldrls	r3, [r6]
 921 00a6 3360     		str	r3, [r6]
 922              	.LBE5:
 923              	.LBE4:
 451:src/wavecom.c **** //*****************************************************************************
 924              		.loc 1 451 0
 925 00a8 BDE8F883 		pop	{r3, r4, r5, r6, r7, r8, r9, pc}
 926              	.LVL106:
 927              	.L83:
 928              		.align	2
 929              	.L82:
 930 00ac 45000000 		.word	.LC9
 931 00b0 00000000 		.word	.LANCHOR0
 932 00b4 50000000 		.word	.LC10
 933 00b8 00000000 		.word	gGSMData
 934              		.cfi_endproc
 935              	.LFE8:
 936              		.size	GetPHBCapcity, .-GetPHBCapcity
 937              		.section	.text.GetContact,"ax",%progbits
 938              		.align	1
 939              		.global	GetContact
 940              		.thumb
 941              		.thumb_func
 942              		.type	GetContact, %function
 943              	GetContact:
 944              	.LFB10:
 515:src/wavecom.c ****   BYTE *ptr;
 945              		.loc 1 515 0
 946              		.cfi_startproc
 947              		@ args = 0, pretend = 0, frame = 16
 948              		@ frame_needed = 0, uses_anonymous_args = 0
 949              	.LVL107:
 950 0000 F0B5     		push	{r4, r5, r6, r7, lr}
 951              		.cfi_def_cfa_offset 20
 952              		.cfi_offset 4, -20
 953              		.cfi_offset 5, -16
ARM GAS  C:\Users\AHMED~1.ELE\AppData\Local\Temp\ccAQ67OG.s 			page 42


 954              		.cfi_offset 6, -12
 955              		.cfi_offset 7, -8
 956              		.cfi_offset 14, -4
 957 0002 85B0     		sub	sp, sp, #20
 958              		.cfi_def_cfa_offset 40
 515:src/wavecom.c ****   BYTE *ptr;
 959              		.loc 1 515 0
 960 0004 0E46     		mov	r6, r1
 520:src/wavecom.c ****   sprintf((char *)buf, "AT+CPBR=%d\r\n", aRecIdx);
 961              		.loc 1 520 0
 962 0006 1022     		movs	r2, #16
 963 0008 0021     		movs	r1, #0
 964              	.LVL108:
 515:src/wavecom.c ****   BYTE *ptr;
 965              		.loc 1 515 0
 966 000a 0546     		mov	r5, r0
 520:src/wavecom.c ****   sprintf((char *)buf, "AT+CPBR=%d\r\n", aRecIdx);
 967              		.loc 1 520 0
 968 000c 6846     		mov	r0, sp
 969              	.LVL109:
 970 000e FFF7FEFF 		bl	memset
 971              	.LVL110:
 521:src/wavecom.c ****   if (!SendWaitRsp(buf, WAIT_RSP))
 972              		.loc 1 521 0
 973 0012 2549     		ldr	r1, .L104
 974 0014 6846     		mov	r0, sp
 975 0016 3246     		mov	r2, r6
 976 0018 FFF7FEFF 		bl	sprintf
 977              	.LVL111:
 522:src/wavecom.c ****     return FALSE;
 978              		.loc 1 522 0
 979 001c 6846     		mov	r0, sp
 980 001e 0121     		movs	r1, #1
 981 0020 FFF7FEFF 		bl	SendWaitRsp
 982              	.LVL112:
 983 0024 08B9     		cbnz	r0, .L85
 984              	.L87:
 523:src/wavecom.c **** 
 985              		.loc 1 523 0
 986 0026 0020     		movs	r0, #0
 987 0028 3CE0     		b	.L102
 988              	.L85:
 989              	.LVL113:
 990              	.LBB10:
 991              	.LBB11:
 525:src/wavecom.c ****   if (ptr == NULL)
 992              		.loc 1 525 0
 993 002a 204C     		ldr	r4, .L104+4
 994 002c 2049     		ldr	r1, .L104+8
 995 002e 2046     		mov	r0, r4
 996 0030 FFF7FEFF 		bl	strstr
 997              	.LVL114:
 526:src/wavecom.c ****     return FALSE;
 998              		.loc 1 526 0
 999 0034 0746     		mov	r7, r0
 1000 0036 0028     		cmp	r0, #0
 1001 0038 F5D0     		beq	.L87
ARM GAS  C:\Users\AHMED~1.ELE\AppData\Local\Temp\ccAQ67OG.s 			page 43


 529:src/wavecom.c ****   memset(aRec, 0, sizeof(struct PHONE_LIST));
 1002              		.loc 1 529 0
 1003 003a 2046     		mov	r0, r4
 1004              	.LVL115:
 1005 003c FFF7FEFF 		bl	strlen
 1006              	.LVL116:
 1007 0040 E41B     		subs	r4, r4, r7
 530:src/wavecom.c ****   if (GetContactInfo(aRec, ptr, rlen) == 0)
 1008              		.loc 1 530 0
 1009 0042 0021     		movs	r1, #0
 1010 0044 4422     		movs	r2, #68
 529:src/wavecom.c ****   memset(aRec, 0, sizeof(struct PHONE_LIST));
 1011              		.loc 1 529 0
 1012 0046 0444     		add	r4, r4, r0
 1013              	.LVL117:
 530:src/wavecom.c ****   if (GetContactInfo(aRec, ptr, rlen) == 0)
 1014              		.loc 1 530 0
 1015 0048 2846     		mov	r0, r5
 1016 004a FFF7FEFF 		bl	memset
 1017              	.LVL118:
 1018              	.LBB12:
 1019              	.LBB13:
 472:src/wavecom.c ****   ptr = aStr;
 1020              		.loc 1 472 0
 1021 004e 0023     		movs	r3, #0
 1022              	.LBE13:
 1023              	.LBE12:
 530:src/wavecom.c ****   if (GetContactInfo(aRec, ptr, rlen) == 0)
 1024              		.loc 1 530 0
 1025 0050 3846     		mov	r0, r7
 1026              	.LBB15:
 1027              	.LBB14:
 471:src/wavecom.c ****   state = 0;
 1028              		.loc 1 471 0
 1029 0052 1946     		mov	r1, r3
 1030 0054 1A46     		mov	r2, r3
 1031              	.LVL119:
 1032              	.L88:
 474:src/wavecom.c ****     if (*ptr == '\"') {
 1033              		.loc 1 474 0
 1034 0056 C7EB000E 		rsb	lr, r7, r0
 1035 005a A645     		cmp	lr, r4
 1036 005c 1ED2     		bcs	.L103
 475:src/wavecom.c ****       state++;
 1037              		.loc 1 475 0
 1038 005e 10F801EB 		ldrb	lr, [r0], #1	@ zero_extendqisi2
 1039              	.LVL120:
 1040 0062 BEF1220F 		cmp	lr, #34
 1041 0066 02D1     		bne	.L89
 476:src/wavecom.c ****       ptr++;
 1042              		.loc 1 476 0
 1043 0068 0133     		adds	r3, r3, #1
 1044              	.LVL121:
 1045 006a DBB2     		uxtb	r3, r3
 1046              	.LVL122:
 1047 006c F3E7     		b	.L88
 1048              	.LVL123:
ARM GAS  C:\Users\AHMED~1.ELE\AppData\Local\Temp\ccAQ67OG.s 			page 44


 1049              	.L89:
 480:src/wavecom.c ****       case 1:
 1050              		.loc 1 480 0
 1051 006e 012B     		cmp	r3, #1
 1052 0070 0AD0     		beq	.L92
 1053 0072 032B     		cmp	r3, #3
 1054 0074 EFD1     		bne	.L88
 486:src/wavecom.c ****           aContact->sb_name[name_len++] = *ptr;
 1055              		.loc 1 486 0
 1056 0076 1E29     		cmp	r1, #30
 487:src/wavecom.c ****         break;
 1057              		.loc 1 487 0
 1058 0078 9EBF     		ittt	ls
 1059 007a 01F1010C 		addls	ip, r1, #1
 1060              	.LVL124:
 1061 007e 05F801E0 		strbls	lr, [r5, r1]
 1062 0082 5FFA8CF1 		uxtbls	r1, ip
 1063              	.LVL125:
 1064 0086 E6E7     		b	.L88
 1065              	.LVL126:
 1066              	.L92:
 482:src/wavecom.c ****           aContact->sb_tel[tel_len++] = *ptr;
 1067              		.loc 1 482 0
 1068 0088 1E2A     		cmp	r2, #30
 1069 008a E4D8     		bhi	.L88
 483:src/wavecom.c ****         break;
 1070              		.loc 1 483 0
 1071 008c 02F1010C 		add	ip, r2, #1
 1072              	.LVL127:
 1073 0090 2A44     		add	r2, r2, r5
 1074 0092 82F820E0 		strb	lr, [r2, #32]
 1075 0096 5FFA8CF2 		uxtb	r2, ip
 1076 009a DCE7     		b	.L88
 1077              	.LVL128:
 1078              	.L103:
 495:src/wavecom.c ****     return 0;
 1079              		.loc 1 495 0
 1080 009c 002A     		cmp	r2, #0
 1081 009e C2D0     		beq	.L87
 1082              	.LBE14:
 1083              	.LBE15:
 535:src/wavecom.c **** }
 1084              		.loc 1 535 0
 1085 00a0 0120     		movs	r0, #1
 1086              	.LVL129:
 534:src/wavecom.c ****   return TRUE;
 1087              		.loc 1 534 0
 1088 00a2 2E64     		str	r6, [r5, #64]
 1089              	.LVL130:
 1090              	.L102:
 1091              	.LBE11:
 1092              	.LBE10:
 536:src/wavecom.c **** //*****************************************************************************
 1093              		.loc 1 536 0
 1094 00a4 05B0     		add	sp, sp, #20
 1095              		.cfi_def_cfa_offset 20
 1096              		@ sp needed
ARM GAS  C:\Users\AHMED~1.ELE\AppData\Local\Temp\ccAQ67OG.s 			page 45


 1097 00a6 F0BD     		pop	{r4, r5, r6, r7, pc}
 1098              	.LVL131:
 1099              	.L105:
 1100              		.align	2
 1101              	.L104:
 1102 00a8 57000000 		.word	.LC11
 1103 00ac 00000000 		.word	.LANCHOR0
 1104 00b0 64000000 		.word	.LC12
 1105              		.cfi_endproc
 1106              	.LFE10:
 1107              		.size	GetContact, .-GetContact
 1108              		.section	.text.LoadPhoneBook,"ax",%progbits
 1109              		.align	1
 1110              		.global	LoadPhoneBook
 1111              		.thumb
 1112              		.thumb_func
 1113              		.type	LoadPhoneBook, %function
 1114              	LoadPhoneBook:
 1115              	.LFB11:
 546:src/wavecom.c ****   DWORD i, rec_idx, max_rec;
 1116              		.loc 1 546 0
 1117              		.cfi_startproc
 1118              		@ args = 0, pretend = 0, frame = 0
 1119              		@ frame_needed = 0, uses_anonymous_args = 0
 1120              	.LVL132:
 1121 0000 F8B5     		push	{r3, r4, r5, r6, r7, lr}
 1122              		.cfi_def_cfa_offset 24
 1123              		.cfi_offset 3, -24
 1124              		.cfi_offset 4, -20
 1125              		.cfi_offset 5, -16
 1126              		.cfi_offset 6, -12
 1127              		.cfi_offset 7, -8
 1128              		.cfi_offset 14, -4
 550:src/wavecom.c ****   for (i=0; i< gGSMData.d_total_count; i++) {
 1129              		.loc 1 550 0
 1130 0002 104B     		ldr	r3, .L114
 549:src/wavecom.c ****   max_rec = gGSMData.d_total_count > MAX_PHBOOK_REC ? MAX_PHBOOK_REC: gGSMData.d_total_count;
 1131              		.loc 1 549 0
 1132 0004 0024     		movs	r4, #0
 550:src/wavecom.c ****   for (i=0; i< gGSMData.d_total_count; i++) {
 1133              		.loc 1 550 0
 1134 0006 5A6A     		ldr	r2, [r3, #36]
 551:src/wavecom.c ****     if (rec_idx == max_rec)  // full
 1135              		.loc 1 551 0
 1136 0008 2546     		mov	r5, r4
 550:src/wavecom.c ****   for (i=0; i< gGSMData.d_total_count; i++) {
 1137              		.loc 1 550 0
 1138 000a B2F5807F 		cmp	r2, #256
 1139 000e 28BF     		it	cs
 1140 0010 4FF48072 		movcs	r2, #256
 1141 0014 1746     		mov	r7, r2
 1142              	.LVL133:
 1143 0016 1E46     		mov	r6, r3
 1144              	.LVL134:
 1145              	.L107:
 551:src/wavecom.c ****     if (rec_idx == max_rec)  // full
 1146              		.loc 1 551 0 discriminator 1
ARM GAS  C:\Users\AHMED~1.ELE\AppData\Local\Temp\ccAQ67OG.s 			page 46


 1147 0018 736A     		ldr	r3, [r6, #36]
 1148 001a 0A48     		ldr	r0, .L114
 1149 001c 9D42     		cmp	r5, r3
 1150 001e 10D2     		bcs	.L106
 552:src/wavecom.c ****       break;
 1151              		.loc 1 552 0
 1152 0020 BC42     		cmp	r4, r7
 1153 0022 0ED0     		beq	.L106
 554:src/wavecom.c ****       break;
 1154              		.loc 1 554 0
 1155 0024 836A     		ldr	r3, [r0, #40]
 1156 0026 9C42     		cmp	r4, r3
 1157 0028 0BD0     		beq	.L106
 556:src/wavecom.c ****       continue;
 1158              		.loc 1 556 0
 1159 002a 4423     		movs	r3, #68
 1160 002c 0135     		adds	r5, r5, #1
 1161              	.LVL135:
 1162 002e 03FB0400 		mla	r0, r3, r4, r0
 1163 0032 2946     		mov	r1, r5
 1164 0034 3C30     		adds	r0, r0, #60
 1165 0036 FFF7FEFF 		bl	GetContact
 1166              	.LVL136:
 1167 003a 0028     		cmp	r0, #0
 1168 003c ECD0     		beq	.L107
 558:src/wavecom.c ****   }
 1169              		.loc 1 558 0
 1170 003e 0134     		adds	r4, r4, #1
 1171              	.LVL137:
 1172 0040 EAE7     		b	.L107
 1173              	.LVL138:
 1174              	.L106:
 1175 0042 F8BD     		pop	{r3, r4, r5, r6, r7, pc}
 1176              	.LVL139:
 1177              	.L115:
 1178              		.align	2
 1179              	.L114:
 1180 0044 00000000 		.word	gGSMData
 1181              		.cfi_endproc
 1182              	.LFE11:
 1183              		.size	LoadPhoneBook, .-LoadPhoneBook
 1184              		.section	.text.SortPhoneBook,"ax",%progbits
 1185              		.align	1
 1186              		.global	SortPhoneBook
 1187              		.thumb
 1188              		.thumb_func
 1189              		.type	SortPhoneBook, %function
 1190              	SortPhoneBook:
 1191              	.LFB12:
 570:src/wavecom.c ****   WORD i, j;
 1192              		.loc 1 570 0
 1193              		.cfi_startproc
 1194              		@ args = 0, pretend = 0, frame = 16
 1195              		@ frame_needed = 0, uses_anonymous_args = 0
 1196 0000 2DE9F04F 		push	{r4, r5, r6, r7, r8, r9, r10, fp, lr}
 1197              		.cfi_def_cfa_offset 36
 1198              		.cfi_offset 4, -36
ARM GAS  C:\Users\AHMED~1.ELE\AppData\Local\Temp\ccAQ67OG.s 			page 47


 1199              		.cfi_offset 5, -32
 1200              		.cfi_offset 6, -28
 1201              		.cfi_offset 7, -24
 1202              		.cfi_offset 8, -20
 1203              		.cfi_offset 9, -16
 1204              		.cfi_offset 10, -12
 1205              		.cfi_offset 11, -8
 1206              		.cfi_offset 14, -4
 574:src/wavecom.c ****     return;
 1207              		.loc 1 574 0
 1208 0004 2A4F     		ldr	r7, .L125
 570:src/wavecom.c ****   WORD i, j;
 1209              		.loc 1 570 0
 1210 0006 85B0     		sub	sp, sp, #20
 1211              		.cfi_def_cfa_offset 56
 574:src/wavecom.c ****     return;
 1212              		.loc 1 574 0
 1213 0008 D7F828A0 		ldr	r10, [r7, #40]
 1214 000c BAF1010F 		cmp	r10, #1
 1215 0010 4BD9     		bls	.L116
 1216 0012 4FF0000B 		mov	fp, #0
 1217              	.L117:
 1218              	.LVL140:
 578:src/wavecom.c ****     for (j=i+1; j<gGSMData.d_used_count; j++) {
 1219              		.loc 1 578 0 discriminator 1
 1220 0016 0AF1FF32 		add	r2, r10, #-1
 1221 001a 9345     		cmp	fp, r2
 1222 001c 45D2     		bcs	.L116
 579:src/wavecom.c ****       len1 = strlen(gGSMData.s_PHBook[i].sb_name);
 1223              		.loc 1 579 0
 1224 001e 0BF10109 		add	r9, fp, #1
 1225 0022 1FFA89F9 		uxth	r9, r9
 1226              	.LVL141:
 1227 0026 4E46     		mov	r6, r9
 1228              	.LVL142:
 1229              	.L118:
 579:src/wavecom.c ****       len1 = strlen(gGSMData.s_PHBook[i].sb_name);
 1230              		.loc 1 579 0 is_stmt 0 discriminator 1
 1231 0028 5645     		cmp	r6, r10
 1232 002a 3CD2     		bcs	.L124
 580:src/wavecom.c ****       len2 = strlen(gGSMData.s_PHBook[j].sb_name);
 1233              		.loc 1 580 0 is_stmt 1
 1234 002c 4FF04408 		mov	r8, #68
 1235 0030 08FB0BF4 		mul	r4, r8, fp
 581:src/wavecom.c ****       len1 = len1>len2?len2:len1;
 1236              		.loc 1 581 0
 1237 0034 08FB06F5 		mul	r5, r8, r6
 580:src/wavecom.c ****       len2 = strlen(gGSMData.s_PHBook[j].sb_name);
 1238              		.loc 1 580 0
 1239 0038 07EB040C 		add	ip, r7, r4
 1240 003c 0CF13C0C 		add	ip, ip, #60
 1241 0040 6046     		mov	r0, ip
 1242 0042 CDF80CC0 		str	ip, [sp, #12]
 1243 0046 FFF7FEFF 		bl	strlen
 1244              	.LVL143:
 581:src/wavecom.c ****       len1 = len1>len2?len2:len1;
 1245              		.loc 1 581 0
ARM GAS  C:\Users\AHMED~1.ELE\AppData\Local\Temp\ccAQ67OG.s 			page 48


 1246 004a 7919     		adds	r1, r7, r5
 1247 004c 3C31     		adds	r1, r1, #60
 580:src/wavecom.c ****       len2 = strlen(gGSMData.s_PHBook[j].sb_name);
 1248              		.loc 1 580 0
 1249 004e 82B2     		uxth	r2, r0
 581:src/wavecom.c ****       len1 = len1>len2?len2:len1;
 1250              		.loc 1 581 0
 1251 0050 0846     		mov	r0, r1
 580:src/wavecom.c ****       len2 = strlen(gGSMData.s_PHBook[j].sb_name);
 1252              		.loc 1 580 0
 1253 0052 0292     		str	r2, [sp, #8]
 1254              	.LVL144:
 581:src/wavecom.c ****       len1 = len1>len2?len2:len1;
 1255              		.loc 1 581 0
 1256 0054 0191     		str	r1, [sp, #4]
 1257 0056 FFF7FEFF 		bl	strlen
 1258              	.LVL145:
 583:src/wavecom.c ****         continue;
 1259              		.loc 1 583 0
 1260 005a 029A     		ldr	r2, [sp, #8]
 1261 005c DDF80CC0 		ldr	ip, [sp, #12]
 582:src/wavecom.c ****       if (memcmp(gGSMData.s_PHBook[i].sb_name, gGSMData.s_PHBook[j].sb_name, len1)<0)
 1262              		.loc 1 582 0
 1263 0060 1FFA80FE 		uxth	lr, r0
 583:src/wavecom.c ****         continue;
 1264              		.loc 1 583 0
 1265 0064 7245     		cmp	r2, lr
 1266 0066 28BF     		it	cs
 1267 0068 7246     		movcs	r2, lr
 1268 006a 6046     		mov	r0, ip
 1269              	.LVL146:
 1270 006c 0199     		ldr	r1, [sp, #4]
 1271 006e FFF7FEFF 		bl	memcmp
 1272              	.LVL147:
 1273 0072 0028     		cmp	r0, #0
 1274 0074 14DB     		blt	.L119
 585:src/wavecom.c ****       memcpy((BYTE *) &gGSMData.s_PHBook[j], (BYTE *) &gGSMData.s_PHBook[i], sizeof(struct PHONE_LI
 1275              		.loc 1 585 0
 1276 0076 0E4B     		ldr	r3, .L125
 1277 0078 4246     		mov	r2, r8
 1278 007a 1D44     		add	r5, r5, r3
 1279 007c 3C35     		adds	r5, r5, #60
 1280 007e 2946     		mov	r1, r5
 1281 0080 0C48     		ldr	r0, .L125+4
 1282 0082 FFF7FEFF 		bl	memcpy
 1283              	.LVL148:
 586:src/wavecom.c ****       memcpy((BYTE *) &gGSMData.s_PHBook[i], (BYTE *) &gGSMData.s_CurrPHB,   sizeof(struct PHONE_LI
 1284              		.loc 1 586 0
 1285 0086 0A4B     		ldr	r3, .L125
 1286 0088 4246     		mov	r2, r8
 1287 008a 1C44     		add	r4, r4, r3
 1288 008c 3C34     		adds	r4, r4, #60
 1289 008e 2146     		mov	r1, r4
 1290 0090 2846     		mov	r0, r5
 1291 0092 FFF7FEFF 		bl	memcpy
 1292              	.LVL149:
 587:src/wavecom.c ****     }
ARM GAS  C:\Users\AHMED~1.ELE\AppData\Local\Temp\ccAQ67OG.s 			page 49


 1293              		.loc 1 587 0
 1294 0096 2046     		mov	r0, r4
 1295 0098 0649     		ldr	r1, .L125+4
 1296 009a 4246     		mov	r2, r8
 1297 009c FFF7FEFF 		bl	memcpy
 1298              	.LVL150:
 1299              	.L119:
 579:src/wavecom.c ****       len1 = strlen(gGSMData.s_PHBook[i].sb_name);
 1300              		.loc 1 579 0 discriminator 2
 1301 00a0 0136     		adds	r6, r6, #1
 1302              	.LVL151:
 1303 00a2 B6B2     		uxth	r6, r6
 1304              	.LVL152:
 1305 00a4 C0E7     		b	.L118
 1306              	.L124:
 578:src/wavecom.c ****     for (j=i+1; j<gGSMData.d_used_count; j++) {
 1307              		.loc 1 578 0
 1308 00a6 CB46     		mov	fp, r9
 1309              	.LVL153:
 1310 00a8 B5E7     		b	.L117
 1311              	.LVL154:
 1312              	.L116:
 590:src/wavecom.c **** //*****************************************************************************
 1313              		.loc 1 590 0
 1314 00aa 05B0     		add	sp, sp, #20
 1315              		.cfi_def_cfa_offset 36
 1316              		@ sp needed
 1317 00ac BDE8F08F 		pop	{r4, r5, r6, r7, r8, r9, r10, fp, pc}
 1318              	.L126:
 1319              		.align	2
 1320              	.L125:
 1321 00b0 00000000 		.word	gGSMData
 1322 00b4 3C440000 		.word	gGSMData+17468
 1323              		.cfi_endproc
 1324              	.LFE12:
 1325              		.size	SortPhoneBook, .-SortPhoneBook
 1326              		.section	.text.SelectPHBook,"ax",%progbits
 1327              		.align	1
 1328              		.global	SelectPHBook
 1329              		.thumb
 1330              		.thumb_func
 1331              		.type	SelectPHBook, %function
 1332              	SelectPHBook:
 1333              	.LFB13:
 600:src/wavecom.c ****   if (gGSMData.d_used_count != 0)
 1334              		.loc 1 600 0
 1335              		.cfi_startproc
 1336              		@ args = 0, pretend = 0, frame = 0
 1337              		@ frame_needed = 0, uses_anonymous_args = 0
 1338              	.LVL155:
 1339 0000 2DE9F041 		push	{r4, r5, r6, r7, r8, lr}
 1340              		.cfi_def_cfa_offset 24
 1341              		.cfi_offset 4, -24
 1342              		.cfi_offset 5, -20
 1343              		.cfi_offset 6, -16
 1344              		.cfi_offset 7, -12
 1345              		.cfi_offset 8, -8
ARM GAS  C:\Users\AHMED~1.ELE\AppData\Local\Temp\ccAQ67OG.s 			page 50


 1346              		.cfi_offset 14, -4
 601:src/wavecom.c ****     return TRUE;
 1347              		.loc 1 601 0
 1348 0004 364E     		ldr	r6, .L146
 600:src/wavecom.c ****   if (gGSMData.d_used_count != 0)
 1349              		.loc 1 600 0
 1350 0006 0546     		mov	r5, r0
 601:src/wavecom.c ****     return TRUE;
 1351              		.loc 1 601 0
 1352 0008 B36A     		ldr	r3, [r6, #40]
 1353 000a 002B     		cmp	r3, #0
 1354 000c 62D1     		bne	.L132
 604:src/wavecom.c ****   sprintf(gAtCmdIn, "AT+CPBS=\"%s\"\r\n", KBookID[aID]);
 1355              		.loc 1 604 0
 1356 000e FFF7FEFF 		bl	ClearCmdBuf
 1357              	.LVL156:
 605:src/wavecom.c **** 
 1358              		.loc 1 605 0
 1359 0012 344B     		ldr	r3, .L146+4
 1360 0014 3449     		ldr	r1, .L146+8
 1361 0016 03EB8503 		add	r3, r3, r5, lsl #2
 1362 001a 3448     		ldr	r0, .L146+12
 1363 001c DA68     		ldr	r2, [r3, #12]
 1364 001e FFF7FEFF 		bl	sprintf
 1365              	.LVL157:
 607:src/wavecom.c ****     return FALSE;
 1366              		.loc 1 607 0
 1367 0022 3248     		ldr	r0, .L146+12
 1368 0024 0221     		movs	r1, #2
 605:src/wavecom.c **** 
 1369              		.loc 1 605 0
 1370 0026 324C     		ldr	r4, .L146+16
 607:src/wavecom.c ****     return FALSE;
 1371              		.loc 1 607 0
 1372 0028 FFF7FEFF 		bl	SendWaitRsp
 1373              	.LVL158:
 1374 002c 0028     		cmp	r0, #0
 1375 002e 54D0     		beq	.L131
 610:src/wavecom.c ****     return FALSE;
 1376              		.loc 1 610 0
 1377 0030 2046     		mov	r0, r4
 1378 0032 3049     		ldr	r1, .L146+20
 1379 0034 FFF7FEFF 		bl	strstr
 1380              	.LVL159:
 1381 0038 0028     		cmp	r0, #0
 1382 003a 4ED0     		beq	.L131
 1383              	.LVL160:
 1384              	.LBB18:
 1385              	.LBB19:
 372:src/wavecom.c ****     return FALSE;
 1386              		.loc 1 372 0
 1387 003c 2E48     		ldr	r0, .L146+24
 1388 003e 0221     		movs	r1, #2
 1389 0040 FFF7FEFF 		bl	SendWaitRsp
 1390              	.LVL161:
 1391 0044 0028     		cmp	r0, #0
 1392 0046 48D0     		beq	.L131
ARM GAS  C:\Users\AHMED~1.ELE\AppData\Local\Temp\ccAQ67OG.s 			page 51


 376:src/wavecom.c ****   if (ptr == NULL)
 1393              		.loc 1 376 0
 1394 0048 2046     		mov	r0, r4
 1395 004a 2C49     		ldr	r1, .L146+28
 1396 004c FFF7FEFF 		bl	strstr
 1397              	.LVL162:
 377:src/wavecom.c ****     return FALSE;
 1398              		.loc 1 377 0
 1399 0050 0746     		mov	r7, r0
 1400 0052 0028     		cmp	r0, #0
 1401 0054 41D0     		beq	.L131
 380:src/wavecom.c **** 
 1402              		.loc 1 380 0
 1403 0056 2046     		mov	r0, r4
 1404              	.LVL163:
 1405 0058 FFF7FEFF 		bl	strlen
 1406              	.LVL164:
 1407 005c E41B     		subs	r4, r4, r7
 383:src/wavecom.c ****   if (idx1 == r_len)
 1408              		.loc 1 383 0
 1409 005e 2021     		movs	r1, #32
 380:src/wavecom.c **** 
 1410              		.loc 1 380 0
 1411 0060 0444     		add	r4, r4, r0
 1412              	.LVL165:
 383:src/wavecom.c ****   if (idx1 == r_len)
 1413              		.loc 1 383 0
 1414 0062 2246     		mov	r2, r4
 1415 0064 3846     		mov	r0, r7
 1416 0066 FFF7FEFF 		bl	fndb
 1417              	.LVL166:
 384:src/wavecom.c ****     return FALSE;
 1418              		.loc 1 384 0
 1419 006a A042     		cmp	r0, r4
 383:src/wavecom.c ****   if (idx1 == r_len)
 1420              		.loc 1 383 0
 1421 006c 0546     		mov	r5, r0
 1422              	.LVL167:
 384:src/wavecom.c ****     return FALSE;
 1423              		.loc 1 384 0
 1424 006e 34D0     		beq	.L131
 388:src/wavecom.c ****   if (idx2 == r_len)
 1425              		.loc 1 388 0
 1426 0070 00F10108 		add	r8, r0, #1
 387:src/wavecom.c ****   idx2 = fndb(ptr+idx1+1, ',', r_len);      // find 1st comma
 1427              		.loc 1 387 0
 1428 0074 241A     		subs	r4, r4, r0
 1429              	.LVL168:
 388:src/wavecom.c ****   if (idx2 == r_len)
 1430              		.loc 1 388 0
 1431 0076 B844     		add	r8, r8, r7
 1432 0078 4046     		mov	r0, r8
 1433              	.LVL169:
 1434 007a 2C21     		movs	r1, #44
 1435 007c 2246     		mov	r2, r4
 1436 007e FFF7FEFF 		bl	fndb
 1437              	.LVL170:
ARM GAS  C:\Users\AHMED~1.ELE\AppData\Local\Temp\ccAQ67OG.s 			page 52


 389:src/wavecom.c ****     return FALSE;
 1438              		.loc 1 389 0
 1439 0082 A042     		cmp	r0, r4
 1440 0084 29D0     		beq	.L131
 393:src/wavecom.c ****   if (idx3 == r_len)
 1441              		.loc 1 393 0
 1442 0086 0544     		add	r5, r5, r0
 1443              	.LVL171:
 392:src/wavecom.c ****   idx3 = fndb(ptr+idx1+idx2+1, '\r', r_len);     // find '\r'
 1444              		.loc 1 392 0
 1445 0088 241A     		subs	r4, r4, r0
 1446              	.LVL172:
 393:src/wavecom.c ****   if (idx3 == r_len)
 1447              		.loc 1 393 0
 1448 008a 681C     		adds	r0, r5, #1
 1449              	.LVL173:
 1450 008c 3844     		add	r0, r0, r7
 1451 008e 0D21     		movs	r1, #13
 1452 0090 2246     		mov	r2, r4
 1453 0092 FFF7FEFF 		bl	fndb
 1454              	.LVL174:
 394:src/wavecom.c ****     return FALSE;
 1455              		.loc 1 394 0
 1456 0096 A042     		cmp	r0, r4
 1457 0098 1FD0     		beq	.L131
 1458              	.LVL175:
 399:src/wavecom.c ****   *aNameSize= (WORD)Asc2DWVAL(ptr+idx2+1, 3);
 1459              		.loc 1 399 0
 1460 009a 4046     		mov	r0, r8
 1461              	.LVL176:
 1462 009c FFF7FEFF 		bl	Asc2DWVAL.constprop.7
 1463              	.LVL177:
 1464 00a0 84B2     		uxth	r4, r0
 1465              	.LVL178:
 400:src/wavecom.c ****   return TRUE;
 1466              		.loc 1 400 0
 1467 00a2 A81C     		adds	r0, r5, #2
 399:src/wavecom.c ****   *aNameSize= (WORD)Asc2DWVAL(ptr+idx2+1, 3);
 1468              		.loc 1 399 0
 1469 00a4 F461     		str	r4, [r6, #28]
 400:src/wavecom.c ****   return TRUE;
 1470              		.loc 1 400 0
 1471 00a6 3844     		add	r0, r0, r7
 1472 00a8 FFF7FEFF 		bl	Asc2DWVAL.constprop.7
 1473              	.LVL179:
 1474              	.LBE19:
 1475              	.LBE18:
 616:src/wavecom.c ****   gGSMData.d_max_name_size = gGSMData.d_max_name_size > MAX_NAME_SIZE ? MAX_PHNUM_SIZE: gGSMData.d_
 1476              		.loc 1 616 0
 1477 00ac 1F2C     		cmp	r4, #31
 1478 00ae 28BF     		it	cs
 1479 00b0 1F24     		movcs	r4, #31
 619:src/wavecom.c ****     return FALSE;
 1480              		.loc 1 619 0
 1481 00b2 06F12401 		add	r1, r6, #36
 1482              	.LBB21:
 1483              	.LBB20:
ARM GAS  C:\Users\AHMED~1.ELE\AppData\Local\Temp\ccAQ67OG.s 			page 53


 400:src/wavecom.c ****   return TRUE;
 1484              		.loc 1 400 0
 1485 00b6 80B2     		uxth	r0, r0
 1486              	.LBE20:
 1487              	.LBE21:
 617:src/wavecom.c **** 
 1488              		.loc 1 617 0
 1489 00b8 1F28     		cmp	r0, #31
 1490 00ba 28BF     		it	cs
 1491 00bc 1F20     		movcs	r0, #31
 616:src/wavecom.c ****   gGSMData.d_max_name_size = gGSMData.d_max_name_size > MAX_NAME_SIZE ? MAX_PHNUM_SIZE: gGSMData.d_
 1492              		.loc 1 616 0
 1493 00be F461     		str	r4, [r6, #28]
 617:src/wavecom.c **** 
 1494              		.loc 1 617 0
 1495 00c0 3062     		str	r0, [r6, #32]
 619:src/wavecom.c ****     return FALSE;
 1496              		.loc 1 619 0
 1497 00c2 06F12800 		add	r0, r6, #40
 1498 00c6 FFF7FEFF 		bl	GetPHBCapcity
 1499              	.LVL180:
 1500 00ca 30B1     		cbz	r0, .L131
 622:src/wavecom.c ****   SortPhoneBook();
 1501              		.loc 1 622 0
 1502 00cc FFF7FEFF 		bl	LoadPhoneBook
 1503              	.LVL181:
 623:src/wavecom.c **** 
 1504              		.loc 1 623 0
 1505 00d0 FFF7FEFF 		bl	SortPhoneBook
 1506              	.LVL182:
 1507              	.L132:
 602:src/wavecom.c **** 
 1508              		.loc 1 602 0
 1509 00d4 0120     		movs	r0, #1
 1510 00d6 BDE8F081 		pop	{r4, r5, r6, r7, r8, pc}
 1511              	.L131:
 614:src/wavecom.c **** 
 1512              		.loc 1 614 0
 1513 00da 0020     		movs	r0, #0
 626:src/wavecom.c **** //*****************************************************************************
 1514              		.loc 1 626 0
 1515 00dc BDE8F081 		pop	{r4, r5, r6, r7, r8, pc}
 1516              	.L147:
 1517              		.align	2
 1518              	.L146:
 1519 00e0 00000000 		.word	gGSMData
 1520 00e4 00000000 		.word	.LANCHOR1
 1521 00e8 6B000000 		.word	.LC13
 1522 00ec DD050000 		.word	.LANCHOR0+1501
 1523 00f0 00000000 		.word	.LANCHOR0
 1524 00f4 00000000 		.word	.LC1
 1525 00f8 7A000000 		.word	.LC14
 1526 00fc 86000000 		.word	.LC15
 1527              		.cfi_endproc
 1528              	.LFE13:
 1529              		.size	SelectPHBook, .-SelectPHBook
 1530              		.section	.text.WriteContact,"ax",%progbits
ARM GAS  C:\Users\AHMED~1.ELE\AppData\Local\Temp\ccAQ67OG.s 			page 54


 1531              		.align	1
 1532              		.global	WriteContact
 1533              		.thumb
 1534              		.thumb_func
 1535              		.type	WriteContact, %function
 1536              	WriteContact:
 1537              	.LFB14:
 637:src/wavecom.c ****   if (aRec->d_idx) {
 1538              		.loc 1 637 0
 1539              		.cfi_startproc
 1540              		@ args = 0, pretend = 0, frame = 0
 1541              		@ frame_needed = 0, uses_anonymous_args = 0
 1542              	.LVL183:
 638:src/wavecom.c ****     sprintf((char *)gAtCmdIn, "AT+CPBW=%d,\"", aRec->d_idx);
 1543              		.loc 1 638 0
 1544 0000 026C     		ldr	r2, [r0, #64]
 637:src/wavecom.c ****   if (aRec->d_idx) {
 1545              		.loc 1 637 0
 1546 0002 70B5     		push	{r4, r5, r6, lr}
 1547              		.cfi_def_cfa_offset 16
 1548              		.cfi_offset 4, -16
 1549              		.cfi_offset 5, -12
 1550              		.cfi_offset 6, -8
 1551              		.cfi_offset 14, -4
 637:src/wavecom.c ****   if (aRec->d_idx) {
 1552              		.loc 1 637 0
 1553 0004 0646     		mov	r6, r0
 1554 0006 0D46     		mov	r5, r1
 1555 0008 1A4C     		ldr	r4, .L157
 639:src/wavecom.c ****     memcpy((BYTE *)&gGSMData.s_PHBook[aCurrRec], (BYTE *)&gGSMData.s_CurrPHB,
 1556              		.loc 1 639 0
 1557 000a 1B48     		ldr	r0, .L157+4
 1558              	.LVL184:
 638:src/wavecom.c ****     sprintf((char *)gAtCmdIn, "AT+CPBW=%d,\"", aRec->d_idx);
 1559              		.loc 1 638 0
 1560 000c 1AB1     		cbz	r2, .L149
 639:src/wavecom.c ****     memcpy((BYTE *)&gGSMData.s_PHBook[aCurrRec], (BYTE *)&gGSMData.s_CurrPHB,
 1561              		.loc 1 639 0
 1562 000e 1B49     		ldr	r1, .L157+8
 1563              	.LVL185:
 1564 0010 FFF7FEFF 		bl	sprintf
 1565              	.LVL186:
 1566 0014 02E0     		b	.L156
 1567              	.LVL187:
 1568              	.L149:
 644:src/wavecom.c ****     memcpy((BYTE *)&gGSMData.s_PHBook[aCurrRec], (BYTE *)&gGSMData.s_CurrPHB,
 1569              		.loc 1 644 0
 1570 0016 1A49     		ldr	r1, .L157+12
 1571              	.LVL188:
 1572 0018 FFF7FEFF 		bl	strcpy
 1573              	.LVL189:
 1574              	.L156:
 645:src/wavecom.c ****            sizeof(struct PHONE_LIST));
 1575              		.loc 1 645 0
 1576 001c 4422     		movs	r2, #68
 1577 001e 1949     		ldr	r1, .L157+16
 1578 0020 02FB0540 		mla	r0, r2, r5, r4
ARM GAS  C:\Users\AHMED~1.ELE\AppData\Local\Temp\ccAQ67OG.s 			page 55


 1579 0024 3C30     		adds	r0, r0, #60
 1580 0026 FFF7FEFF 		bl	memcpy
 1581              	.LVL190:
 649:src/wavecom.c ****   strcat(gAtCmdIn, "\",129,\"");
 1582              		.loc 1 649 0
 1583 002a 06F12001 		add	r1, r6, #32
 1584 002e 1248     		ldr	r0, .L157+4
 1585 0030 FFF7FEFF 		bl	strcat
 1586              	.LVL191:
 650:src/wavecom.c ****   strcat(gAtCmdIn, aRec->sb_name);
 1587              		.loc 1 650 0
 1588 0034 1449     		ldr	r1, .L157+20
 1589 0036 1048     		ldr	r0, .L157+4
 1590 0038 FFF7FEFF 		bl	strcat
 1591              	.LVL192:
 651:src/wavecom.c ****   strcat(gAtCmdIn, "\"\r\n");
 1592              		.loc 1 651 0
 1593 003c 3146     		mov	r1, r6
 1594 003e 0E48     		ldr	r0, .L157+4
 1595 0040 FFF7FEFF 		bl	strcat
 1596              	.LVL193:
 652:src/wavecom.c **** 
 1597              		.loc 1 652 0
 1598 0044 1149     		ldr	r1, .L157+24
 1599 0046 0C48     		ldr	r0, .L157+4
 1600 0048 FFF7FEFF 		bl	strcat
 1601              	.LVL194:
 654:src/wavecom.c ****     return FALSE;
 1602              		.loc 1 654 0
 1603 004c 0A48     		ldr	r0, .L157+4
 1604 004e 0221     		movs	r1, #2
 1605 0050 FFF7FEFF 		bl	SendWaitRsp
 1606              	.LVL195:
 1607 0054 60B1     		cbz	r0, .L151
 657:src/wavecom.c ****     gGSMData.d_used_count++;
 1608              		.loc 1 657 0
 1609 0056 336C     		ldr	r3, [r6, #64]
 1610 0058 3BB9     		cbnz	r3, .L152
 658:src/wavecom.c ****     gGSMData.d_total_count++;
 1611              		.loc 1 658 0
 1612 005a A36A     		ldr	r3, [r4, #40]
 1613 005c 0133     		adds	r3, r3, #1
 1614 005e A362     		str	r3, [r4, #40]
 659:src/wavecom.c ****     LoadPhoneBook();
 1615              		.loc 1 659 0
 1616 0060 636A     		ldr	r3, [r4, #36]
 1617 0062 0133     		adds	r3, r3, #1
 1618 0064 6362     		str	r3, [r4, #36]
 660:src/wavecom.c ****   }
 1619              		.loc 1 660 0
 1620 0066 FFF7FEFF 		bl	LoadPhoneBook
 1621              	.LVL196:
 1622              	.L152:
 662:src/wavecom.c ****   return TRUE;
 1623              		.loc 1 662 0
 1624 006a FFF7FEFF 		bl	SortPhoneBook
 1625              	.LVL197:
ARM GAS  C:\Users\AHMED~1.ELE\AppData\Local\Temp\ccAQ67OG.s 			page 56


 663:src/wavecom.c **** }
 1626              		.loc 1 663 0
 1627 006e 0120     		movs	r0, #1
 1628              	.L151:
 664:src/wavecom.c **** //*****************************************************************************
 1629              		.loc 1 664 0
 1630 0070 70BD     		pop	{r4, r5, r6, pc}
 1631              	.LVL198:
 1632              	.L158:
 1633 0072 00BF     		.align	2
 1634              	.L157:
 1635 0074 00000000 		.word	gGSMData
 1636 0078 DD050000 		.word	.LANCHOR0+1501
 1637 007c 8D000000 		.word	.LC16
 1638 0080 9A000000 		.word	.LC17
 1639 0084 3C440000 		.word	gGSMData+17468
 1640 0088 A5000000 		.word	.LC18
 1641 008c AD000000 		.word	.LC19
 1642              		.cfi_endproc
 1643              	.LFE14:
 1644              		.size	WriteContact, .-WriteContact
 1645              		.section	.text.DelContact,"ax",%progbits
 1646              		.align	1
 1647              		.global	DelContact
 1648              		.thumb
 1649              		.thumb_func
 1650              		.type	DelContact, %function
 1651              	DelContact:
 1652              	.LFB15:
 675:src/wavecom.c ****   DWORD i;
 1653              		.loc 1 675 0
 1654              		.cfi_startproc
 1655              		@ args = 0, pretend = 0, frame = 0
 1656              		@ frame_needed = 0, uses_anonymous_args = 0
 1657              	.LVL199:
 1658 0000 70B5     		push	{r4, r5, r6, lr}
 1659              		.cfi_def_cfa_offset 16
 1660              		.cfi_offset 4, -16
 1661              		.cfi_offset 5, -12
 1662              		.cfi_offset 6, -8
 1663              		.cfi_offset 14, -4
 675:src/wavecom.c ****   DWORD i;
 1664              		.loc 1 675 0
 1665 0002 0246     		mov	r2, r0
 1666 0004 0C46     		mov	r4, r1
 677:src/wavecom.c ****   if (!SendWaitRsp(gAtCmdIn, WAIT_OK))
 1667              		.loc 1 677 0
 1668 0006 1248     		ldr	r0, .L167
 1669              	.LVL200:
 1670 0008 1249     		ldr	r1, .L167+4
 1671              	.LVL201:
 1672 000a FFF7FEFF 		bl	sprintf
 1673              	.LVL202:
 678:src/wavecom.c ****     return FALSE;
 1674              		.loc 1 678 0
 1675 000e 1048     		ldr	r0, .L167
 1676 0010 0221     		movs	r1, #2
ARM GAS  C:\Users\AHMED~1.ELE\AppData\Local\Temp\ccAQ67OG.s 			page 57


 1677 0012 FFF7FEFF 		bl	SendWaitRsp
 1678              	.LVL203:
 1679 0016 C8B1     		cbz	r0, .L160
 1680 0018 4426     		movs	r6, #68
 1681 001a 0025     		movs	r5, #0
 1682 001c 6643     		muls	r6, r4, r6
 1683              	.LVL204:
 1684              	.L161:
 682:src/wavecom.c ****     memcpy((BYTE *)&gGSMData.s_PHBook[i], (BYTE *)&gGSMData.s_PHBook[i+1],
 1685              		.loc 1 682 0 discriminator 1
 1686 001e 0E4B     		ldr	r3, .L167+8
 1687 0020 4435     		adds	r5, r5, #68
 1688 0022 9A6A     		ldr	r2, [r3, #40]
 1689 0024 9442     		cmp	r4, r2
 1690 0026 09D2     		bcs	.L166
 1691 0028 A919     		adds	r1, r5, r6
 1692 002a 1944     		add	r1, r1, r3
 683:src/wavecom.c ****            sizeof(struct PHONE_LIST));
 1693              		.loc 1 683 0 discriminator 3
 1694 002c A1F10800 		sub	r0, r1, #8
 1695 0030 4422     		movs	r2, #68
 1696 0032 3C31     		adds	r1, r1, #60
 1697 0034 0134     		adds	r4, r4, #1
 1698              	.LVL205:
 1699 0036 FFF7FEFF 		bl	memcpy
 1700              	.LVL206:
 1701 003a F0E7     		b	.L161
 1702              	.L166:
 686:src/wavecom.c ****   gGSMData.d_total_count--;
 1703              		.loc 1 686 0
 1704 003c 013A     		subs	r2, r2, #1
 1705 003e 9A62     		str	r2, [r3, #40]
 687:src/wavecom.c ****   SortPhoneBook();
 1706              		.loc 1 687 0
 1707 0040 5A6A     		ldr	r2, [r3, #36]
 1708 0042 013A     		subs	r2, r2, #1
 1709 0044 5A62     		str	r2, [r3, #36]
 688:src/wavecom.c ****   return TRUE;
 1710              		.loc 1 688 0
 1711 0046 FFF7FEFF 		bl	SortPhoneBook
 1712              	.LVL207:
 689:src/wavecom.c **** }
 1713              		.loc 1 689 0
 1714 004a 0120     		movs	r0, #1
 1715              	.LVL208:
 1716              	.L160:
 690:src/wavecom.c **** //*****************************************************************************
 1717              		.loc 1 690 0
 1718 004c 70BD     		pop	{r4, r5, r6, pc}
 1719              	.L168:
 1720 004e 00BF     		.align	2
 1721              	.L167:
 1722 0050 DD050000 		.word	.LANCHOR0+1501
 1723 0054 B1000000 		.word	.LC20
 1724 0058 00000000 		.word	gGSMData
 1725              		.cfi_endproc
 1726              	.LFE15:
ARM GAS  C:\Users\AHMED~1.ELE\AppData\Local\Temp\ccAQ67OG.s 			page 58


 1727              		.size	DelContact, .-DelContact
 1728              		.section	.text.AllCallForward,"ax",%progbits
 1729              		.align	1
 1730              		.global	AllCallForward
 1731              		.thumb
 1732              		.thumb_func
 1733              		.type	AllCallForward, %function
 1734              	AllCallForward:
 1735              	.LFB16:
 701:src/wavecom.c ****   ClearCmdBuf();
 1736              		.loc 1 701 0
 1737              		.cfi_startproc
 1738              		@ args = 0, pretend = 0, frame = 0
 1739              		@ frame_needed = 0, uses_anonymous_args = 0
 1740              	.LVL209:
 1741 0000 38B5     		push	{r3, r4, r5, lr}
 1742              		.cfi_def_cfa_offset 16
 1743              		.cfi_offset 3, -16
 1744              		.cfi_offset 4, -12
 1745              		.cfi_offset 5, -8
 1746              		.cfi_offset 14, -4
 701:src/wavecom.c ****   ClearCmdBuf();
 1747              		.loc 1 701 0
 1748 0002 0D46     		mov	r5, r1
 1749 0004 0446     		mov	r4, r0
 702:src/wavecom.c ****   if (cancel)
 1750              		.loc 1 702 0
 1751 0006 FFF7FEFF 		bl	ClearCmdBuf
 1752              	.LVL210:
 704:src/wavecom.c ****   else   // divert to a telephone number
 1753              		.loc 1 704 0
 1754 000a 0B48     		ldr	r0, .L176
 703:src/wavecom.c ****     strcpy(gAtCmdIn, "AT+CCFC=0,4\r\n");
 1755              		.loc 1 703 0
 1756 000c 1DB1     		cbz	r5, .L170
 704:src/wavecom.c ****   else   // divert to a telephone number
 1757              		.loc 1 704 0
 1758 000e 0B49     		ldr	r1, .L176+4
 1759 0010 FFF7FEFF 		bl	strcpy
 1760              	.LVL211:
 1761 0014 03E0     		b	.L171
 1762              	.L170:
 709:src/wavecom.c **** #endif    
 1763              		.loc 1 709 0
 1764 0016 0A49     		ldr	r1, .L176+8
 1765 0018 2246     		mov	r2, r4
 1766 001a FFF7FEFF 		bl	sprintf
 1767              	.LVL212:
 1768              	.L171:
 711:src/wavecom.c ****     return FALSE;
 1769              		.loc 1 711 0
 1770 001e 0648     		ldr	r0, .L176
 1771 0020 0221     		movs	r1, #2
 1772 0022 FFF7FEFF 		bl	SendWaitRsp
 1773              	.LVL213:
 1774 0026 30B1     		cbz	r0, .L172
 714:src/wavecom.c ****     return TRUE;
ARM GAS  C:\Users\AHMED~1.ELE\AppData\Local\Temp\ccAQ67OG.s 			page 59


 1775              		.loc 1 714 0
 1776 0028 0648     		ldr	r0, .L176+12
 1777 002a 0749     		ldr	r1, .L176+16
 1778 002c FFF7FEFF 		bl	strstr
 1779              	.LVL214:
 712:src/wavecom.c **** 
 1780              		.loc 1 712 0
 1781 0030 0030     		adds	r0, r0, #0
 1782 0032 18BF     		it	ne
 1783 0034 0120     		movne	r0, #1
 1784              	.L172:
 717:src/wavecom.c **** //*****************************************************************************
 1785              		.loc 1 717 0
 1786 0036 38BD     		pop	{r3, r4, r5, pc}
 1787              	.LVL215:
 1788              	.L177:
 1789              		.align	2
 1790              	.L176:
 1791 0038 DD050000 		.word	.LANCHOR0+1501
 1792 003c BE000000 		.word	.LC21
 1793 0040 CC000000 		.word	.LC22
 1794 0044 00000000 		.word	.LANCHOR0
 1795 0048 00000000 		.word	.LC1
 1796              		.cfi_endproc
 1797              	.LFE16:
 1798              		.size	AllCallForward, .-AllCallForward
 1799              		.section	.text.MakeCall,"ax",%progbits
 1800              		.align	1
 1801              		.global	MakeCall
 1802              		.thumb
 1803              		.thumb_func
 1804              		.type	MakeCall, %function
 1805              	MakeCall:
 1806              	.LFB17:
 727:src/wavecom.c ****   strcpy(gAtCmdIn, "ATD");
 1807              		.loc 1 727 0
 1808              		.cfi_startproc
 1809              		@ args = 0, pretend = 0, frame = 0
 1810              		@ frame_needed = 0, uses_anonymous_args = 0
 1811              	.LVL216:
 1812 0000 38B5     		push	{r3, r4, r5, lr}
 1813              		.cfi_def_cfa_offset 16
 1814              		.cfi_offset 3, -16
 1815              		.cfi_offset 4, -12
 1816              		.cfi_offset 5, -8
 1817              		.cfi_offset 14, -4
 728:src/wavecom.c ****   strcat(gAtCmdIn, pPhoneNum);
 1818              		.loc 1 728 0
 1819 0002 0C4C     		ldr	r4, .L179
 727:src/wavecom.c ****   strcpy(gAtCmdIn, "ATD");
 1820              		.loc 1 727 0
 1821 0004 0546     		mov	r5, r0
 728:src/wavecom.c ****   strcat(gAtCmdIn, pPhoneNum);
 1822              		.loc 1 728 0
 1823 0006 0C49     		ldr	r1, .L179+4
 1824 0008 2046     		mov	r0, r4
 1825              	.LVL217:
ARM GAS  C:\Users\AHMED~1.ELE\AppData\Local\Temp\ccAQ67OG.s 			page 60


 1826 000a FFF7FEFF 		bl	strcpy
 1827              	.LVL218:
 729:src/wavecom.c ****   strcat(gAtCmdIn, ";\r\n");
 1828              		.loc 1 729 0
 1829 000e 2946     		mov	r1, r5
 1830 0010 2046     		mov	r0, r4
 1831 0012 FFF7FEFF 		bl	strcat
 1832              	.LVL219:
 730:src/wavecom.c **** 
 1833              		.loc 1 730 0
 1834 0016 0949     		ldr	r1, .L179+8
 1835 0018 2046     		mov	r0, r4
 1836 001a FFF7FEFF 		bl	strcat
 1837              	.LVL220:
 732:src/wavecom.c **** #if (TIRO)  
 1838              		.loc 1 732 0
 1839 001e FFF7FEFF 		bl	ClearCmdBuf
 1840              	.LVL221:
 736:src/wavecom.c **** #endif      
 1841              		.loc 1 736 0
 1842 0022 2046     		mov	r0, r4
 1843 0024 0021     		movs	r1, #0
 1844 0026 FFF7FEFF 		bl	SendWaitRsp
 1845              	.LVL222:
 741:src/wavecom.c **** //*****************************************************************************
 1846              		.loc 1 741 0
 1847 002a 0030     		adds	r0, r0, #0
 1848 002c 18BF     		it	ne
 1849 002e 0120     		movne	r0, #1
 1850 0030 38BD     		pop	{r3, r4, r5, pc}
 1851              	.LVL223:
 1852              	.L180:
 1853 0032 00BF     		.align	2
 1854              	.L179:
 1855 0034 DD050000 		.word	.LANCHOR0+1501
 1856 0038 DF000000 		.word	.LC23
 1857 003c E3000000 		.word	.LC24
 1858              		.cfi_endproc
 1859              	.LFE17:
 1860              		.size	MakeCall, .-MakeCall
 1861              		.section	.text.MakeReqCall,"ax",%progbits
 1862              		.align	1
 1863              		.global	MakeReqCall
 1864              		.thumb
 1865              		.thumb_func
 1866              		.type	MakeReqCall, %function
 1867              	MakeReqCall:
 1868              	.LFB18:
 751:src/wavecom.c ****   strcpy(gAtCmdIn, "ATD");
 1869              		.loc 1 751 0
 1870              		.cfi_startproc
 1871              		@ args = 0, pretend = 0, frame = 0
 1872              		@ frame_needed = 0, uses_anonymous_args = 0
 1873              	.LVL224:
 1874 0000 10B5     		push	{r4, lr}
 1875              		.cfi_def_cfa_offset 8
 1876              		.cfi_offset 4, -8
ARM GAS  C:\Users\AHMED~1.ELE\AppData\Local\Temp\ccAQ67OG.s 			page 61


 1877              		.cfi_offset 14, -4
 752:src/wavecom.c ****   strcat(gAtCmdIn, pPhoneNum);
 1878              		.loc 1 752 0
 1879 0002 0D49     		ldr	r1, .L186
 751:src/wavecom.c ****   strcpy(gAtCmdIn, "ATD");
 1880              		.loc 1 751 0
 1881 0004 0446     		mov	r4, r0
 752:src/wavecom.c ****   strcat(gAtCmdIn, pPhoneNum);
 1882              		.loc 1 752 0
 1883 0006 0D48     		ldr	r0, .L186+4
 1884              	.LVL225:
 1885 0008 FFF7FEFF 		bl	strcpy
 1886              	.LVL226:
 753:src/wavecom.c ****   strcat(gAtCmdIn, "\r\n");
 1887              		.loc 1 753 0
 1888 000c 2146     		mov	r1, r4
 1889 000e 0B48     		ldr	r0, .L186+4
 1890 0010 FFF7FEFF 		bl	strcat
 1891              	.LVL227:
 754:src/wavecom.c **** 
 1892              		.loc 1 754 0
 1893 0014 0A49     		ldr	r1, .L186+8
 1894 0016 0948     		ldr	r0, .L186+4
 1895 0018 FFF7FEFF 		bl	strcat
 1896              	.LVL228:
 756:src/wavecom.c ****     if (strstr(gAtCmdOut, "OK"))
 1897              		.loc 1 756 0
 1898 001c 0748     		ldr	r0, .L186+4
 1899 001e 0221     		movs	r1, #2
 1900 0020 FFF7FEFF 		bl	SendWaitRsp
 1901              	.LVL229:
 1902 0024 30B1     		cbz	r0, .L182
 757:src/wavecom.c ****       return TRUE;
 1903              		.loc 1 757 0
 1904 0026 0748     		ldr	r0, .L186+12
 1905 0028 0749     		ldr	r1, .L186+16
 1906 002a FFF7FEFF 		bl	strstr
 1907              	.LVL230:
 758:src/wavecom.c ****   }
 1908              		.loc 1 758 0
 1909 002e 0030     		adds	r0, r0, #0
 1910 0030 18BF     		it	ne
 1911 0032 0120     		movne	r0, #1
 1912              	.L182:
 762:src/wavecom.c **** //*****************************************************************************
 1913              		.loc 1 762 0
 1914 0034 10BD     		pop	{r4, pc}
 1915              	.LVL231:
 1916              	.L187:
 1917 0036 00BF     		.align	2
 1918              	.L186:
 1919 0038 DF000000 		.word	.LC23
 1920 003c DD050000 		.word	.LANCHOR0+1501
 1921 0040 E7000000 		.word	.LC25
 1922 0044 00000000 		.word	.LANCHOR0
 1923 0048 00000000 		.word	.LC1
 1924              		.cfi_endproc
ARM GAS  C:\Users\AHMED~1.ELE\AppData\Local\Temp\ccAQ67OG.s 			page 62


 1925              	.LFE18:
 1926              		.size	MakeReqCall, .-MakeReqCall
 1927              		.section	.text.CheckCallStatus,"ax",%progbits
 1928              		.align	1
 1929              		.global	CheckCallStatus
 1930              		.thumb
 1931              		.thumb_func
 1932              		.type	CheckCallStatus, %function
 1933              	CheckCallStatus:
 1934              	.LFB19:
 772:src/wavecom.c **** #if (T800)
 1935              		.loc 1 772 0
 1936              		.cfi_startproc
 1937              		@ args = 0, pretend = 0, frame = 32
 1938              		@ frame_needed = 0, uses_anonymous_args = 0
 1939 0000 F0B5     		push	{r4, r5, r6, r7, lr}
 1940              		.cfi_def_cfa_offset 20
 1941              		.cfi_offset 4, -20
 1942              		.cfi_offset 5, -16
 1943              		.cfi_offset 6, -12
 1944              		.cfi_offset 7, -8
 1945              		.cfi_offset 14, -4
 799:src/wavecom.c ****   sprintf(tmpbuf, "Status:%04X", status);
 1946              		.loc 1 799 0
 1947 0002 1C4B     		ldr	r3, .L195
 772:src/wavecom.c **** #if (T800)
 1948              		.loc 1 772 0
 1949 0004 8BB0     		sub	sp, sp, #44
 1950              		.cfi_def_cfa_offset 64
 799:src/wavecom.c ****   sprintf(tmpbuf, "Status:%04X", status);
 1951              		.loc 1 799 0
 1952 0006 0027     		movs	r7, #0
 1953 0008 0821     		movs	r1, #8
 1954 000a 0097     		str	r7, [sp]
 1955 000c 0F20     		movs	r0, #15
 1956 000e 1A68     		ldr	r2, [r3]
 1957 0010 4FF0FF33 		mov	r3, #-1
 1958 0014 FFF7FEFF 		bl	lib_app_call
 1959              	.LVL232:
 800:src/wavecom.c ****   DispLineMW(tmpbuf, MW_MAX_LINE, MW_CENTER|MW_SPFONT);
 1960              		.loc 1 800 0
 1961 0018 1749     		ldr	r1, .L195+4
 799:src/wavecom.c ****   sprintf(tmpbuf, "Status:%04X", status);
 1962              		.loc 1 799 0
 1963 001a 0446     		mov	r4, r0
 1964              	.LVL233:
 800:src/wavecom.c ****   DispLineMW(tmpbuf, MW_MAX_LINE, MW_CENTER|MW_SPFONT);
 1965              		.loc 1 800 0
 1966 001c 2246     		mov	r2, r4
 1967 001e 03A8     		add	r0, sp, #12
 1968              	.LVL234:
 1969 0020 FFF7FEFF 		bl	sprintf
 1970              	.LVL235:
 1971              	.LBB22:
 801:src/wavecom.c ****   switch (status & 0x3F) {
 1972              		.loc 1 801 0
 1973 0024 03A8     		add	r0, sp, #12
ARM GAS  C:\Users\AHMED~1.ELE\AppData\Local\Temp\ccAQ67OG.s 			page 63


 1974 0026 FFF7FEFF 		bl	strlen
 1975              	.LVL236:
 1976 002a 0646     		mov	r6, r0
 1977              	.LVL237:
 1978 002c 711C     		adds	r1, r6, #1
 1979 002e 9220     		movs	r0, #146
 1980              	.LVL238:
 1981 0030 FFF7FEFF 		bl	sys_func1
 1982              	.LVL239:
 1983 0034 0546     		mov	r5, r0
 1984 0036 90B1     		cbz	r0, .L189
 801:src/wavecom.c ****   switch (status & 0x3F) {
 1985              		.loc 1 801 0 is_stmt 0 discriminator 1
 1986 0038 03A9     		add	r1, sp, #12
 1987 003a 3246     		mov	r2, r6
 1988 003c FFF7FEFF 		bl	memcpy
 1989              	.LVL240:
 1990 0040 42F20203 		movw	r3, #8194
 1991 0044 AF55     		strb	r7, [r5, r6]
 1992 0046 2521     		movs	r1, #37
 1993 0048 0093     		str	r3, [sp]
 1994 004a 0F20     		movs	r0, #15
 1995 004c 2A46     		mov	r2, r5
 1996 004e 4FF41063 		mov	r3, #2304
 1997 0052 FFF7FEFF 		bl	lib_app_call
 1998              	.LVL241:
 1999 0056 9420     		movs	r0, #148
 2000 0058 2946     		mov	r1, r5
 2001 005a FFF7FEFF 		bl	sys_func1
 2002              	.LVL242:
 2003              	.L189:
 2004              	.LBE22:
 802:src/wavecom.c ****     case 4:
 2005              		.loc 1 802 0 is_stmt 1
 2006 005e 04F03F04 		and	r4, r4, #63
 2007              	.LVL243:
 2008 0062 043C     		subs	r4, r4, #4
 2009 0064 122C     		cmp	r4, #18
 2010 0066 8FBF     		iteee	hi
 2011 0068 0020     		movhi	r0, #0
 2012 006a 044B     		ldrls	r3, .L195+8
 2013 006c E418     		addls	r4, r4, r3
 2014 006e 207F     		ldrbls	r0, [r4, #28]	@ zero_extendqisi2
 2015              	.LVL244:
 821:src/wavecom.c **** //*****************************************************************************
 2016              		.loc 1 821 0
 2017 0070 0BB0     		add	sp, sp, #44
 2018              		.cfi_def_cfa_offset 20
 2019              		@ sp needed
 2020 0072 F0BD     		pop	{r4, r5, r6, r7, pc}
 2021              	.LVL245:
 2022              	.L196:
 2023              		.align	2
 2024              	.L195:
 2025 0074 00000000 		.word	gGprsHandle
 2026 0078 EA000000 		.word	.LC26
 2027 007c 00000000 		.word	.LANCHOR1
ARM GAS  C:\Users\AHMED~1.ELE\AppData\Local\Temp\ccAQ67OG.s 			page 64


 2028              		.cfi_endproc
 2029              	.LFE19:
 2030              		.size	CheckCallStatus, .-CheckCallStatus
 2031              		.section	.text.AnswerCall,"ax",%progbits
 2032              		.align	1
 2033              		.global	AnswerCall
 2034              		.thumb
 2035              		.thumb_func
 2036              		.type	AnswerCall, %function
 2037              	AnswerCall:
 2038              	.LFB20:
 831:src/wavecom.c ****   strcpy(gAtCmdIn, "ATA\r\n");
 2039              		.loc 1 831 0
 2040              		.cfi_startproc
 2041              		@ args = 0, pretend = 0, frame = 0
 2042              		@ frame_needed = 0, uses_anonymous_args = 0
 2043 0000 10B5     		push	{r4, lr}
 2044              		.cfi_def_cfa_offset 8
 2045              		.cfi_offset 4, -8
 2046              		.cfi_offset 14, -4
 832:src/wavecom.c ****   ClearCmdBuf();
 2047              		.loc 1 832 0
 2048 0002 074C     		ldr	r4, .L198
 2049 0004 0749     		ldr	r1, .L198+4
 2050 0006 2046     		mov	r0, r4
 2051 0008 FFF7FEFF 		bl	strcpy
 2052              	.LVL246:
 833:src/wavecom.c ****   if (SendWaitRsp(gAtCmdIn, WAIT_OK))
 2053              		.loc 1 833 0
 2054 000c FFF7FEFF 		bl	ClearCmdBuf
 2055              	.LVL247:
 834:src/wavecom.c ****     return TRUE;
 2056              		.loc 1 834 0
 2057 0010 2046     		mov	r0, r4
 2058 0012 0221     		movs	r1, #2
 2059 0014 FFF7FEFF 		bl	SendWaitRsp
 2060              	.LVL248:
 837:src/wavecom.c **** //*****************************************************************************
 2061              		.loc 1 837 0
 2062 0018 0030     		adds	r0, r0, #0
 2063 001a 18BF     		it	ne
 2064 001c 0120     		movne	r0, #1
 2065 001e 10BD     		pop	{r4, pc}
 2066              	.L199:
 2067              		.align	2
 2068              	.L198:
 2069 0020 DD050000 		.word	.LANCHOR0+1501
 2070 0024 F6000000 		.word	.LC27
 2071              		.cfi_endproc
 2072              	.LFE20:
 2073              		.size	AnswerCall, .-AnswerCall
 2074              		.section	.text.SendKeyPress,"ax",%progbits
 2075              		.align	1
 2076              		.global	SendKeyPress
 2077              		.thumb
 2078              		.thumb_func
 2079              		.type	SendKeyPress, %function
ARM GAS  C:\Users\AHMED~1.ELE\AppData\Local\Temp\ccAQ67OG.s 			page 65


 2080              	SendKeyPress:
 2081              	.LFB21:
 847:src/wavecom.c **** #if (TIRO)
 2082              		.loc 1 847 0
 2083              		.cfi_startproc
 2084              		@ args = 0, pretend = 0, frame = 0
 2085              		@ frame_needed = 0, uses_anonymous_args = 0
 2086              	.LVL249:
 2087 0000 08B5     		push	{r3, lr}
 2088              		.cfi_def_cfa_offset 8
 2089              		.cfi_offset 3, -8
 2090              		.cfi_offset 14, -4
 854:src/wavecom.c ****   if (SendWaitRsp(gAtCmdIn, WAIT_OK))
 2091              		.loc 1 854 0
 2092 0002 FFF7FEFF 		bl	ClearCmdBuf
 2093              	.LVL250:
 855:src/wavecom.c ****     return TRUE;
 2094              		.loc 1 855 0
 2095 0006 0221     		movs	r1, #2
 2096 0008 0348     		ldr	r0, .L201
 2097 000a FFF7FEFF 		bl	SendWaitRsp
 2098              	.LVL251:
 858:src/wavecom.c **** //*****************************************************************************
 2099              		.loc 1 858 0
 2100 000e 0030     		adds	r0, r0, #0
 2101 0010 18BF     		it	ne
 2102 0012 0120     		movne	r0, #1
 2103 0014 08BD     		pop	{r3, pc}
 2104              	.L202:
 2105 0016 00BF     		.align	2
 2106              	.L201:
 2107 0018 DD050000 		.word	.LANCHOR0+1501
 2108              		.cfi_endproc
 2109              	.LFE21:
 2110              		.size	SendKeyPress, .-SendKeyPress
 2111              		.section	.text.HangUp,"ax",%progbits
 2112              		.align	1
 2113              		.global	HangUp
 2114              		.thumb
 2115              		.thumb_func
 2116              		.type	HangUp, %function
 2117              	HangUp:
 2118              	.LFB22:
 868:src/wavecom.c ****   strcpy(gAtCmdIn, "ATH\r\n");
 2119              		.loc 1 868 0
 2120              		.cfi_startproc
 2121              		@ args = 0, pretend = 0, frame = 0
 2122              		@ frame_needed = 0, uses_anonymous_args = 0
 2123 0000 10B5     		push	{r4, lr}
 2124              		.cfi_def_cfa_offset 8
 2125              		.cfi_offset 4, -8
 2126              		.cfi_offset 14, -4
 869:src/wavecom.c ****   ClearCmdBuf();
 2127              		.loc 1 869 0
 2128 0002 074C     		ldr	r4, .L204
 2129 0004 0749     		ldr	r1, .L204+4
 2130 0006 2046     		mov	r0, r4
ARM GAS  C:\Users\AHMED~1.ELE\AppData\Local\Temp\ccAQ67OG.s 			page 66


 2131 0008 FFF7FEFF 		bl	strcpy
 2132              	.LVL252:
 870:src/wavecom.c ****   if (SendWaitRsp(gAtCmdIn, WAIT_OK))
 2133              		.loc 1 870 0
 2134 000c FFF7FEFF 		bl	ClearCmdBuf
 2135              	.LVL253:
 871:src/wavecom.c ****     return TRUE;
 2136              		.loc 1 871 0
 2137 0010 2046     		mov	r0, r4
 2138 0012 0221     		movs	r1, #2
 2139 0014 FFF7FEFF 		bl	SendWaitRsp
 2140              	.LVL254:
 874:src/wavecom.c **** //*****************************************************************************
 2141              		.loc 1 874 0
 2142 0018 0030     		adds	r0, r0, #0
 2143 001a 18BF     		it	ne
 2144 001c 0120     		movne	r0, #1
 2145 001e 10BD     		pop	{r4, pc}
 2146              	.L205:
 2147              		.align	2
 2148              	.L204:
 2149 0020 DD050000 		.word	.LANCHOR0+1501
 2150 0024 FC000000 		.word	.LC28
 2151              		.cfi_endproc
 2152              	.LFE22:
 2153              		.size	HangUp, .-HangUp
 2154              		.section	.text.CheckCallEnd,"ax",%progbits
 2155              		.align	1
 2156              		.global	CheckCallEnd
 2157              		.thumb
 2158              		.thumb_func
 2159              		.type	CheckCallEnd, %function
 2160              	CheckCallEnd:
 2161              	.LFB23:
 884:src/wavecom.c ****   struct GPRSATRESP  at_resp;
 2162              		.loc 1 884 0
 2163              		.cfi_startproc
 2164              		@ args = 0, pretend = 0, frame = 1512
 2165              		@ frame_needed = 0, uses_anonymous_args = 0
 2166 0000 10B5     		push	{r4, lr}
 2167              		.cfi_def_cfa_offset 8
 2168              		.cfi_offset 4, -8
 2169              		.cfi_offset 14, -4
 888:src/wavecom.c ****     return FALSE;
 2170              		.loc 1 888 0
 2171 0002 0023     		movs	r3, #0
 884:src/wavecom.c ****   struct GPRSATRESP  at_resp;
 2172              		.loc 1 884 0
 2173 0004 ADF5BE6D 		sub	sp, sp, #1520
 2174              		.cfi_def_cfa_offset 1528
 888:src/wavecom.c ****     return FALSE;
 2175              		.loc 1 888 0
 2176 0008 114C     		ldr	r4, .L213
 2177 000a 0093     		str	r3, [sp]
 2178 000c 0F20     		movs	r0, #15
 2179 000e 4FF08063 		mov	r3, #67108864
 2180 0012 0821     		movs	r1, #8
ARM GAS  C:\Users\AHMED~1.ELE\AppData\Local\Temp\ccAQ67OG.s 			page 67


 2181 0014 2268     		ldr	r2, [r4]
 2182 0016 FFF7FEFF 		bl	lib_app_call
 2183              	.LVL255:
 2184 001a 4301     		lsls	r3, r0, #5
 2185 001c 01D4     		bmi	.L207
 2186              	.L209:
 889:src/wavecom.c **** 
 2187              		.loc 1 889 0
 2188 001e 0020     		movs	r0, #0
 2189 0020 13E0     		b	.L208
 2190              	.L207:
 891:src/wavecom.c ****   if (IOCtlMW(gGprsHandle, IO_GPRS_CMDRESP, &at_resp)) {
 2191              		.loc 1 891 0
 2192 0022 03AB     		add	r3, sp, #12
 2193 0024 40F2DD52 		movw	r2, #1501
 892:src/wavecom.c ****     ptr = (BYTE *)strstr((char const *)at_resp.sb_content, "NO CARRIER");
 2194              		.loc 1 892 0
 2195 0028 0093     		str	r3, [sp]
 891:src/wavecom.c ****   if (IOCtlMW(gGprsHandle, IO_GPRS_CMDRESP, &at_resp)) {
 2196              		.loc 1 891 0
 2197 002a 0392     		str	r2, [sp, #12]
 892:src/wavecom.c ****     ptr = (BYTE *)strstr((char const *)at_resp.sb_content, "NO CARRIER");
 2198              		.loc 1 892 0
 2199 002c 0F20     		movs	r0, #15
 2200 002e 0721     		movs	r1, #7
 2201 0030 2268     		ldr	r2, [r4]
 2202 0032 0323     		movs	r3, #3
 2203 0034 FFF7FEFF 		bl	lib_app_call
 2204              	.LVL256:
 2205 0038 0028     		cmp	r0, #0
 2206 003a F0D0     		beq	.L209
 893:src/wavecom.c ****     if (ptr == NULL)
 2207              		.loc 1 893 0
 2208 003c 04A8     		add	r0, sp, #16
 2209 003e 0549     		ldr	r1, .L213+4
 2210 0040 FFF7FEFF 		bl	strstr
 2211              	.LVL257:
 889:src/wavecom.c **** 
 2212              		.loc 1 889 0
 2213 0044 0030     		adds	r0, r0, #0
 2214 0046 18BF     		it	ne
 2215 0048 0120     		movne	r0, #1
 2216              	.LVL258:
 2217              	.L208:
 899:src/wavecom.c **** //*****************************************************************************
 2218              		.loc 1 899 0
 2219 004a 0DF5BE6D 		add	sp, sp, #1520
 2220              		.cfi_def_cfa_offset 8
 2221              		@ sp needed
 2222 004e 10BD     		pop	{r4, pc}
 2223              	.L214:
 2224              		.align	2
 2225              	.L213:
 2226 0050 00000000 		.word	gGprsHandle
 2227 0054 02010000 		.word	.LC29
 2228              		.cfi_endproc
 2229              	.LFE23:
ARM GAS  C:\Users\AHMED~1.ELE\AppData\Local\Temp\ccAQ67OG.s 			page 68


 2230              		.size	CheckCallEnd, .-CheckCallEnd
 2231              		.section	.text.GetCallerID,"ax",%progbits
 2232              		.align	1
 2233              		.global	GetCallerID
 2234              		.thumb
 2235              		.thumb_func
 2236              		.type	GetCallerID, %function
 2237              	GetCallerID:
 2238              	.LFB24:
 910:src/wavecom.c **** #if (T800)
 2239              		.loc 1 910 0
 2240              		.cfi_startproc
 2241              		@ args = 0, pretend = 0, frame = 1512
 2242              		@ frame_needed = 0, uses_anonymous_args = 0
 2243 0000 30B5     		push	{r4, r5, lr}
 2244              		.cfi_def_cfa_offset 12
 2245              		.cfi_offset 4, -12
 2246              		.cfi_offset 5, -8
 2247              		.cfi_offset 14, -4
 929:src/wavecom.c ****     return FALSE;
 2248              		.loc 1 929 0
 2249 0002 0024     		movs	r4, #0
 910:src/wavecom.c **** #if (T800)
 2250              		.loc 1 910 0
 2251 0004 ADF2F45D 		subw	sp, sp, #1524
 2252              		.cfi_def_cfa_offset 1536
 929:src/wavecom.c ****     return FALSE;
 2253              		.loc 1 929 0
 2254 0008 104D     		ldr	r5, .L218
 2255 000a 0094     		str	r4, [sp]
 2256 000c 0F20     		movs	r0, #15
 2257 000e 0821     		movs	r1, #8
 2258 0010 2A68     		ldr	r2, [r5]
 2259 0012 2346     		mov	r3, r4
 2260 0014 FFF7FEFF 		bl	lib_app_call
 2261              	.LVL259:
 2262 0018 A0B1     		cbz	r0, .L216
 931:src/wavecom.c ****   at_resp.d_maxlen = sizeof(gGSMData.s_CurrPHB.sb_name);
 2263              		.loc 1 931 0
 2264 001a 2146     		mov	r1, r4
 2265 001c 4422     		movs	r2, #68
 2266 001e 0C48     		ldr	r0, .L218+4
 2267 0020 FFF7FEFF 		bl	memset
 2268              	.LVL260:
 932:src/wavecom.c ****   at_resp.d_maxlen = IOCtlMW(gGprsHandle, IO_GPRS_GET_CID, &at_resp);
 2269              		.loc 1 932 0
 2270 0024 03AB     		add	r3, sp, #12
 2271 0026 2022     		movs	r2, #32
 933:src/wavecom.c ****   memcpy(gGSMData.s_CurrPHB.sb_name, at_resp.sb_content, at_resp.d_maxlen);
 2272              		.loc 1 933 0
 2273 0028 0093     		str	r3, [sp]
 932:src/wavecom.c ****   at_resp.d_maxlen = IOCtlMW(gGprsHandle, IO_GPRS_GET_CID, &at_resp);
 2274              		.loc 1 932 0
 2275 002a 0392     		str	r2, [sp, #12]
 933:src/wavecom.c ****   memcpy(gGSMData.s_CurrPHB.sb_name, at_resp.sb_content, at_resp.d_maxlen);
 2276              		.loc 1 933 0
 2277 002c 0721     		movs	r1, #7
ARM GAS  C:\Users\AHMED~1.ELE\AppData\Local\Temp\ccAQ67OG.s 			page 69


 2278 002e 2A68     		ldr	r2, [r5]
 2279 0030 0C23     		movs	r3, #12
 2280 0032 0F20     		movs	r0, #15
 2281 0034 FFF7FEFF 		bl	lib_app_call
 2282              	.LVL261:
 934:src/wavecom.c **** 
 2283              		.loc 1 934 0
 2284 0038 04A9     		add	r1, sp, #16
 933:src/wavecom.c ****   memcpy(gGSMData.s_CurrPHB.sb_name, at_resp.sb_content, at_resp.d_maxlen);
 2285              		.loc 1 933 0
 2286 003a 0246     		mov	r2, r0
 934:src/wavecom.c **** 
 2287              		.loc 1 934 0
 2288 003c 0448     		ldr	r0, .L218+4
 2289 003e FFF7FEFF 		bl	memcpy
 2290              	.LVL262:
 936:src/wavecom.c **** #endif  
 2291              		.loc 1 936 0
 2292 0042 0120     		movs	r0, #1
 2293              	.L216:
 938:src/wavecom.c **** //*****************************************************************************
 2294              		.loc 1 938 0
 2295 0044 0DF2F45D 		addw	sp, sp, #1524
 2296              		.cfi_def_cfa_offset 12
 2297              		@ sp needed
 2298 0048 30BD     		pop	{r4, r5, pc}
 2299              	.L219:
 2300 004a 00BF     		.align	2
 2301              	.L218:
 2302 004c 00000000 		.word	gGprsHandle
 2303 0050 3C440000 		.word	gGSMData+17468
 2304              		.cfi_endproc
 2305              	.LFE24:
 2306              		.size	GetCallerID, .-GetCallerID
 2307              		.section	.text.ReadGain,"ax",%progbits
 2308              		.align	1
 2309              		.global	ReadGain
 2310              		.thumb
 2311              		.thumb_func
 2312              		.type	ReadGain, %function
 2313              	ReadGain:
 2314              	.LFB25:
 949:src/wavecom.c ****   BYTE cmd[16];
 2315              		.loc 1 949 0
 2316              		.cfi_startproc
 2317              		@ args = 0, pretend = 0, frame = 16
 2318              		@ frame_needed = 0, uses_anonymous_args = 0
 2319              	.LVL263:
 2320 0000 1FB5     		push	{r0, r1, r2, r3, r4, lr}
 2321              		.cfi_def_cfa_offset 24
 2322              		.cfi_offset 14, -4
 949:src/wavecom.c ****   BYTE cmd[16];
 2323              		.loc 1 949 0
 2324 0002 0246     		mov	r2, r0
 956:src/wavecom.c **** 
 2325              		.loc 1 956 0
 2326 0004 0549     		ldr	r1, .L221
ARM GAS  C:\Users\AHMED~1.ELE\AppData\Local\Temp\ccAQ67OG.s 			page 70


 2327 0006 6846     		mov	r0, sp
 2328              	.LVL264:
 2329 0008 FFF7FEFF 		bl	sprintf
 2330              	.LVL265:
 958:src/wavecom.c ****     return FALSE;
 2331              		.loc 1 958 0
 2332 000c 6846     		mov	r0, sp
 2333 000e 0221     		movs	r1, #2
 2334 0010 FFF7FEFF 		bl	SendWaitRsp
 2335              	.LVL266:
 980:src/wavecom.c **** //*****************************************************************************
 2336              		.loc 1 980 0
 2337 0014 0020     		movs	r0, #0
 2338 0016 05B0     		add	sp, sp, #20
 2339              		.cfi_def_cfa_offset 4
 2340              		@ sp needed
 2341 0018 5DF804FB 		ldr	pc, [sp], #4
 2342              	.L222:
 2343              		.align	2
 2344              	.L221:
 2345 001c 0D010000 		.word	.LC30
 2346              		.cfi_endproc
 2347              	.LFE25:
 2348              		.size	ReadGain, .-ReadGain
 2349              		.section	.text.WriteGain,"ax",%progbits
 2350              		.align	1
 2351              		.global	WriteGain
 2352              		.thumb
 2353              		.thumb_func
 2354              		.type	WriteGain, %function
 2355              	WriteGain:
 2356              	.LFB26:
 991:src/wavecom.c ****   BYTE *ptr;
 2357              		.loc 1 991 0
 2358              		.cfi_startproc
 2359              		@ args = 0, pretend = 0, frame = 0
 2360              		@ frame_needed = 0, uses_anonymous_args = 0
 2361              	.LVL267:
 2362 0000 08B5     		push	{r3, lr}
 2363              		.cfi_def_cfa_offset 8
 2364              		.cfi_offset 3, -8
 2365              		.cfi_offset 14, -4
 991:src/wavecom.c ****   BYTE *ptr;
 2366              		.loc 1 991 0
 2367 0002 0246     		mov	r2, r0
 2368 0004 0B46     		mov	r3, r1
1001:src/wavecom.c ****   ClearCmdBuf();
 2369              		.loc 1 1001 0
 2370 0006 0948     		ldr	r0, .L228
 2371              	.LVL268:
 2372 0008 0949     		ldr	r1, .L228+4
 2373              	.LVL269:
 2374 000a FFF7FEFF 		bl	sprintf
 2375              	.LVL270:
1002:src/wavecom.c ****   if (!SendWaitRsp(gAtCmdIn, WAIT_OK))
 2376              		.loc 1 1002 0
 2377 000e FFF7FEFF 		bl	ClearCmdBuf
ARM GAS  C:\Users\AHMED~1.ELE\AppData\Local\Temp\ccAQ67OG.s 			page 71


 2378              	.LVL271:
1003:src/wavecom.c ****     return FALSE;
 2379              		.loc 1 1003 0
 2380 0012 0648     		ldr	r0, .L228
 2381 0014 0221     		movs	r1, #2
 2382 0016 FFF7FEFF 		bl	SendWaitRsp
 2383              	.LVL272:
 2384 001a 30B1     		cbz	r0, .L224
1006:src/wavecom.c ****   if (ptr != NULL) {
 2385              		.loc 1 1006 0
 2386 001c 0548     		ldr	r0, .L228+8
 2387 001e 0649     		ldr	r1, .L228+12
 2388 0020 FFF7FEFF 		bl	strstr
 2389              	.LVL273:
1004:src/wavecom.c **** 
 2390              		.loc 1 1004 0
 2391 0024 0030     		adds	r0, r0, #0
 2392 0026 18BF     		it	ne
 2393 0028 0120     		movne	r0, #1
 2394              	.LVL274:
 2395              	.L224:
1012:src/wavecom.c **** //*****************************************************************************
 2396              		.loc 1 1012 0
 2397 002a 08BD     		pop	{r3, pc}
 2398              	.L229:
 2399              		.align	2
 2400              	.L228:
 2401 002c DD050000 		.word	.LANCHOR0+1501
 2402 0030 18010000 		.word	.LC31
 2403 0034 00000000 		.word	.LANCHOR0
 2404 0038 00000000 		.word	.LC1
 2405              		.cfi_endproc
 2406              	.LFE26:
 2407              		.size	WriteGain, .-WriteGain
 2408              		.section	.text.GetOptrName,"ax",%progbits
 2409              		.align	1
 2410              		.global	GetOptrName
 2411              		.thumb
 2412              		.thumb_func
 2413              		.type	GetOptrName, %function
 2414              	GetOptrName:
 2415              	.LFB27:
1023:src/wavecom.c ****   char *ptr;
 2416              		.loc 1 1023 0
 2417              		.cfi_startproc
 2418              		@ args = 0, pretend = 0, frame = 0
 2419              		@ frame_needed = 0, uses_anonymous_args = 0
 2420              	.LVL275:
 2421 0000 38B5     		push	{r3, r4, r5, lr}
 2422              		.cfi_def_cfa_offset 16
 2423              		.cfi_offset 3, -16
 2424              		.cfi_offset 4, -12
 2425              		.cfi_offset 5, -8
 2426              		.cfi_offset 14, -4
1028:src/wavecom.c ****   //ClearCmdBuf();
 2427              		.loc 1 1028 0
 2428 0002 0023     		movs	r3, #0
ARM GAS  C:\Users\AHMED~1.ELE\AppData\Local\Temp\ccAQ67OG.s 			page 72


1023:src/wavecom.c ****   char *ptr;
 2429              		.loc 1 1023 0
 2430 0004 0446     		mov	r4, r0
1028:src/wavecom.c ****   //ClearCmdBuf();
 2431              		.loc 1 1028 0
 2432 0006 0370     		strb	r3, [r0]
1023:src/wavecom.c ****   char *ptr;
 2433              		.loc 1 1023 0
 2434 0008 0D46     		mov	r5, r1
1033:src/wavecom.c ****   if (!SendWaitRsp("AT+COPS?\r\n", WAIT_OK))
 2435              		.loc 1 1033 0
 2436 000a FFF7FEFF 		bl	ClearCmdBuf
 2437              	.LVL276:
1034:src/wavecom.c ****     return FALSE;
 2438              		.loc 1 1034 0
 2439 000e 1448     		ldr	r0, .L244
 2440 0010 0221     		movs	r1, #2
 2441 0012 FFF7FEFF 		bl	SendWaitRsp
 2442              	.LVL277:
 2443 0016 10B3     		cbz	r0, .L231
1037:src/wavecom.c ****   if (ptr == NULL)
 2444              		.loc 1 1037 0
 2445 0018 1248     		ldr	r0, .L244+4
 2446 001a 1349     		ldr	r1, .L244+8
 2447 001c FFF7FEFF 		bl	strstr
 2448              	.LVL278:
1038:src/wavecom.c ****     return FALSE;
 2449              		.loc 1 1038 0
 2450 0020 E8B1     		cbz	r0, .L231
 2451              	.LVL279:
 2452              	.LBB25:
 2453              	.LBB26:
1040:src/wavecom.c ****   if (ptr == NULL)
 2454              		.loc 1 1040 0
 2455 0022 1048     		ldr	r0, .L244+4
 2456              	.LVL280:
 2457 0024 2221     		movs	r1, #34
 2458 0026 FFF7FEFF 		bl	strchr
 2459              	.LVL281:
1041:src/wavecom.c ****     return FALSE;
 2460              		.loc 1 1041 0
 2461 002a C0B1     		cbz	r0, .L231
 2462              	.LVL282:
 2463 002c 2544     		add	r5, r5, r4
 2464              	.LVL283:
 2465              	.L232:
1044:src/wavecom.c ****     *aName++ = *ptr++;
 2466              		.loc 1 1044 0
 2467 002e 10F8013F 		ldrb	r3, [r0, #1]!	@ zero_extendqisi2
 2468 0032 222B     		cmp	r3, #34
 2469 0034 06D1     		bne	.L233
 2470              	.LVL284:
 2471              	.L236:
1047:src/wavecom.c **** 
 2472              		.loc 1 1047 0
 2473 0036 0023     		movs	r3, #0
1050:src/wavecom.c ****   while (aName[len-1] == ' ') {
ARM GAS  C:\Users\AHMED~1.ELE\AppData\Local\Temp\ccAQ67OG.s 			page 73


 2474              		.loc 1 1050 0
 2475 0038 2046     		mov	r0, r4
1047:src/wavecom.c **** 
 2476              		.loc 1 1047 0
 2477 003a 2370     		strb	r3, [r4]
1050:src/wavecom.c ****   while (aName[len-1] == ' ') {
 2478              		.loc 1 1050 0
 2479 003c FFF7FEFF 		bl	strlen
 2480              	.LVL285:
 2481 0040 2044     		add	r0, r0, r4
 2482              	.LVL286:
 2483 0042 04E0     		b	.L234
 2484              	.LVL287:
 2485              	.L233:
1044:src/wavecom.c ****     *aName++ = *ptr++;
 2486              		.loc 1 1044 0
 2487 0044 AC42     		cmp	r4, r5
 2488 0046 F6D0     		beq	.L236
 2489              	.LVL288:
1045:src/wavecom.c ****   }
 2490              		.loc 1 1045 0
 2491 0048 04F8013B 		strb	r3, [r4], #1
 2492              	.LVL289:
 2493 004c EFE7     		b	.L232
 2494              	.LVL290:
 2495              	.L234:
1051:src/wavecom.c ****     aName[len-1] = 0x00;
 2496              		.loc 1 1051 0
 2497 004e 10F9013D 		ldrsb	r3, [r0, #-1]!
 2498              	.LVL291:
 2499 0052 202B     		cmp	r3, #32
 2500 0054 02D1     		bne	.L243
1052:src/wavecom.c ****     len--;
 2501              		.loc 1 1052 0
 2502 0056 0023     		movs	r3, #0
 2503 0058 0370     		strb	r3, [r0]
 2504              	.LVL292:
 2505 005a F8E7     		b	.L234
 2506              	.LVL293:
 2507              	.L243:
1056:src/wavecom.c **** }
 2508              		.loc 1 1056 0
 2509 005c 0120     		movs	r0, #1
 2510              	.LVL294:
 2511              	.L231:
 2512              	.LBE26:
 2513              	.LBE25:
1057:src/wavecom.c **** //*****************************************************************************
 2514              		.loc 1 1057 0
 2515 005e 38BD     		pop	{r3, r4, r5, pc}
 2516              	.L245:
 2517              		.align	2
 2518              	.L244:
 2519 0060 25010000 		.word	.LC32
 2520 0064 00000000 		.word	.LANCHOR0
 2521 0068 30010000 		.word	.LC33
 2522              		.cfi_endproc
ARM GAS  C:\Users\AHMED~1.ELE\AppData\Local\Temp\ccAQ67OG.s 			page 74


 2523              	.LFE27:
 2524              		.size	GetOptrName, .-GetOptrName
 2525              		.section	.text.FacilityEnable,"ax",%progbits
 2526              		.align	1
 2527              		.global	FacilityEnable
 2528              		.thumb
 2529              		.thumb_func
 2530              		.type	FacilityEnable, %function
 2531              	FacilityEnable:
 2532              	.LFB28:
1070:src/wavecom.c ****   DWORD ret;
 2533              		.loc 1 1070 0
 2534              		.cfi_startproc
 2535              		@ args = 0, pretend = 0, frame = 0
 2536              		@ frame_needed = 0, uses_anonymous_args = 0
 2537              	.LVL295:
 2538 0000 37B5     		push	{r0, r1, r2, r4, r5, lr}
 2539              		.cfi_def_cfa_offset 24
 2540              		.cfi_offset 4, -12
 2541              		.cfi_offset 5, -8
 2542              		.cfi_offset 14, -4
1070:src/wavecom.c ****   DWORD ret;
 2543              		.loc 1 1070 0
 2544 0002 0C46     		mov	r4, r1
 2545 0004 0546     		mov	r5, r0
1074:src/wavecom.c ****   SendWaitRsp("AT+CMEE=1", WAIT_OK);
 2546              		.loc 1 1074 0
 2547 0006 FFF7FEFF 		bl	ClearCmdBuf
 2548              	.LVL296:
1075:src/wavecom.c ****   ClearCmdBuf();
 2549              		.loc 1 1075 0
 2550 000a 0221     		movs	r1, #2
 2551 000c 1848     		ldr	r0, .L254
 2552 000e FFF7FEFF 		bl	SendWaitRsp
 2553              	.LVL297:
1076:src/wavecom.c **** 
 2554              		.loc 1 1076 0
 2555 0012 FFF7FEFF 		bl	ClearCmdBuf
 2556              	.LVL298:
1079:src/wavecom.c ****   else
 2557              		.loc 1 1079 0
 2558 0016 0094     		str	r4, [sp]
 2559 0018 1648     		ldr	r0, .L254+4
 2560 001a 1749     		ldr	r1, .L254+8
 2561 001c 174A     		ldr	r2, .L254+12
1078:src/wavecom.c ****     sprintf(gAtCmdIn, "AT+CLCK=\"%s\",%s,%s\r\a", "SC", "1", aPin);
 2562              		.loc 1 1078 0
 2563 001e 0DB1     		cbz	r5, .L247
1079:src/wavecom.c ****   else
 2564              		.loc 1 1079 0
 2565 0020 174B     		ldr	r3, .L254+16
 2566 0022 00E0     		b	.L253
 2567              	.L247:
1081:src/wavecom.c **** 
 2568              		.loc 1 1081 0
 2569 0024 174B     		ldr	r3, .L254+20
 2570              	.L253:
ARM GAS  C:\Users\AHMED~1.ELE\AppData\Local\Temp\ccAQ67OG.s 			page 75


 2571 0026 FFF7FEFF 		bl	sprintf
 2572              	.LVL299:
1083:src/wavecom.c ****   if (SendWaitRsp(gAtCmdIn, WAIT_OK)) {
 2573              		.loc 1 1083 0
 2574 002a FFF7FEFF 		bl	ClearCmdBuf
 2575              	.LVL300:
1084:src/wavecom.c ****     if (strstr(gAtCmdOut, "OK"))
 2576              		.loc 1 1084 0
 2577 002e 1148     		ldr	r0, .L254+4
 2578 0030 0221     		movs	r1, #2
 2579 0032 FFF7FEFF 		bl	SendWaitRsp
 2580              	.LVL301:
 2581 0036 68B1     		cbz	r0, .L250
1085:src/wavecom.c ****       ret = 1;
 2582              		.loc 1 1085 0
 2583 0038 1348     		ldr	r0, .L254+24
 2584 003a 1449     		ldr	r1, .L254+28
 2585 003c FFF7FEFF 		bl	strstr
 2586              	.LVL302:
 2587 0040 50B9     		cbnz	r0, .L251
1088:src/wavecom.c ****         ret = 2;
 2588              		.loc 1 1088 0
 2589 0042 1148     		ldr	r0, .L254+24
 2590 0044 1249     		ldr	r1, .L254+32
 2591 0046 FFF7FEFF 		bl	strstr
 2592              	.LVL303:
1089:src/wavecom.c ****   }
 2593              		.loc 1 1089 0
 2594 004a 0028     		cmp	r0, #0
 2595 004c 14BF     		ite	ne
 2596 004e 0224     		movne	r4, #2
 2597 0050 0024     		moveq	r4, #0
 2598              	.LVL304:
 2599 0052 02E0     		b	.L249
 2600              	.LVL305:
 2601              	.L250:
1073:src/wavecom.c ****   ClearCmdBuf();
 2602              		.loc 1 1073 0
 2603 0054 0446     		mov	r4, r0
 2604              	.LVL306:
 2605 0056 00E0     		b	.L249
 2606              	.LVL307:
 2607              	.L251:
1086:src/wavecom.c ****     else
 2608              		.loc 1 1086 0
 2609 0058 0124     		movs	r4, #1
 2610              	.LVL308:
 2611              	.L249:
1091:src/wavecom.c ****   SendWaitRsp("AT+CMEE=0", WAIT_OK);
 2612              		.loc 1 1091 0
 2613 005a FFF7FEFF 		bl	ClearCmdBuf
 2614              	.LVL309:
1092:src/wavecom.c ****   ClearCmdBuf();
 2615              		.loc 1 1092 0
 2616 005e 0221     		movs	r1, #2
 2617 0060 0C48     		ldr	r0, .L254+36
 2618 0062 FFF7FEFF 		bl	SendWaitRsp
ARM GAS  C:\Users\AHMED~1.ELE\AppData\Local\Temp\ccAQ67OG.s 			page 76


 2619              	.LVL310:
1093:src/wavecom.c ****   return ret;
 2620              		.loc 1 1093 0
 2621 0066 FFF7FEFF 		bl	ClearCmdBuf
 2622              	.LVL311:
1095:src/wavecom.c **** //*****************************************************************************
 2623              		.loc 1 1095 0
 2624 006a 2046     		mov	r0, r4
 2625 006c 03B0     		add	sp, sp, #12
 2626              		.cfi_def_cfa_offset 12
 2627              		@ sp needed
 2628 006e 30BD     		pop	{r4, r5, pc}
 2629              	.LVL312:
 2630              	.L255:
 2631              		.align	2
 2632              	.L254:
 2633 0070 37010000 		.word	.LC34
 2634 0074 DD050000 		.word	.LANCHOR0+1501
 2635 0078 41010000 		.word	.LC35
 2636 007c 56010000 		.word	.LC36
 2637 0080 59010000 		.word	.LC37
 2638 0084 5B010000 		.word	.LC38
 2639 0088 00000000 		.word	.LANCHOR0
 2640 008c 00000000 		.word	.LC1
 2641 0090 5D010000 		.word	.LC39
 2642 0094 61010000 		.word	.LC40
 2643              		.cfi_endproc
 2644              	.LFE28:
 2645              		.size	FacilityEnable, .-FacilityEnable
 2646              		.section	.text.CheckPinState,"ax",%progbits
 2647              		.align	1
 2648              		.global	CheckPinState
 2649              		.thumb
 2650              		.thumb_func
 2651              		.type	CheckPinState, %function
 2652              	CheckPinState:
 2653              	.LFB29:
1105:src/wavecom.c ****   DWORD req_pin;
 2654              		.loc 1 1105 0
 2655              		.cfi_startproc
 2656              		@ args = 0, pretend = 0, frame = 0
 2657              		@ frame_needed = 0, uses_anonymous_args = 0
 2658              	.LVL313:
 2659 0000 10B5     		push	{r4, lr}
 2660              		.cfi_def_cfa_offset 8
 2661              		.cfi_offset 4, -8
 2662              		.cfi_offset 14, -4
1108:src/wavecom.c ****   if (SendWaitRsp("AT+CPIN?\r", WAIT_RSP)) {
 2663              		.loc 1 1108 0
 2664 0002 FFF7FEFF 		bl	ClearCmdBuf
 2665              	.LVL314:
1109:src/wavecom.c ****     if (strstr(gAtCmdOut, "READY"))
 2666              		.loc 1 1109 0
 2667 0006 1748     		ldr	r0, .L264
 2668 0008 0121     		movs	r1, #1
 2669 000a FFF7FEFF 		bl	SendWaitRsp
 2670              	.LVL315:
ARM GAS  C:\Users\AHMED~1.ELE\AppData\Local\Temp\ccAQ67OG.s 			page 77


 2671 000e E0B1     		cbz	r0, .L258
1110:src/wavecom.c ****       req_pin = REQ_READY;
 2672              		.loc 1 1110 0
 2673 0010 1548     		ldr	r0, .L264+4
 2674 0012 1649     		ldr	r1, .L264+8
 2675 0014 FFF7FEFF 		bl	strstr
 2676              	.LVL316:
 2677 0018 C8B9     		cbnz	r0, .L259
1112:src/wavecom.c ****       req_pin = REQ_PUK2;
 2678              		.loc 1 1112 0
 2679 001a 1348     		ldr	r0, .L264+4
 2680 001c 1449     		ldr	r1, .L264+12
 2681 001e FFF7FEFF 		bl	strstr
 2682              	.LVL317:
 2683 0022 B0B9     		cbnz	r0, .L260
1114:src/wavecom.c ****       req_pin = REQ_PUK1;
 2684              		.loc 1 1114 0
 2685 0024 1048     		ldr	r0, .L264+4
 2686 0026 1349     		ldr	r1, .L264+16
 2687 0028 FFF7FEFF 		bl	strstr
 2688              	.LVL318:
 2689 002c 98B9     		cbnz	r0, .L261
1116:src/wavecom.c ****       req_pin = REQ_PIN2;
 2690              		.loc 1 1116 0
 2691 002e 0E48     		ldr	r0, .L264+4
 2692 0030 1149     		ldr	r1, .L264+20
 2693 0032 FFF7FEFF 		bl	strstr
 2694              	.LVL319:
 2695 0036 80B9     		cbnz	r0, .L262
1118:src/wavecom.c ****       req_pin = REQ_PIN1;
 2696              		.loc 1 1118 0
 2697 0038 0B48     		ldr	r0, .L264+4
 2698 003a 1049     		ldr	r1, .L264+24
 2699 003c FFF7FEFF 		bl	strstr
 2700              	.LVL320:
1119:src/wavecom.c ****   }
 2701              		.loc 1 1119 0
 2702 0040 0028     		cmp	r0, #0
 2703 0042 0CBF     		ite	eq
 2704 0044 FF24     		moveq	r4, #255
 2705 0046 0124     		movne	r4, #1
 2706 0048 08E0     		b	.L257
 2707              	.L258:
1107:src/wavecom.c ****   ClearCmdBuf();
 2708              		.loc 1 1107 0
 2709 004a FF24     		movs	r4, #255
 2710 004c 06E0     		b	.L257
 2711              	.L259:
1111:src/wavecom.c ****     else if (strstr(gAtCmdOut, "PUK2"))
 2712              		.loc 1 1111 0
 2713 004e 0024     		movs	r4, #0
 2714 0050 04E0     		b	.L257
 2715              	.L260:
1113:src/wavecom.c ****     else if (strstr(gAtCmdOut, "PUK"))
 2716              		.loc 1 1113 0
 2717 0052 0424     		movs	r4, #4
 2718 0054 02E0     		b	.L257
ARM GAS  C:\Users\AHMED~1.ELE\AppData\Local\Temp\ccAQ67OG.s 			page 78


 2719              	.L261:
1115:src/wavecom.c ****     else if (strstr(gAtCmdOut, "PIN2"))
 2720              		.loc 1 1115 0
 2721 0056 0224     		movs	r4, #2
 2722 0058 00E0     		b	.L257
 2723              	.L262:
1117:src/wavecom.c ****     else if (strstr(gAtCmdOut, "PIN"))
 2724              		.loc 1 1117 0
 2725 005a 0324     		movs	r4, #3
 2726              	.L257:
 2727              	.LVL321:
1121:src/wavecom.c ****   return req_pin;
 2728              		.loc 1 1121 0
 2729 005c FFF7FEFF 		bl	ClearCmdBuf
 2730              	.LVL322:
1123:src/wavecom.c **** //*****************************************************************************
 2731              		.loc 1 1123 0
 2732 0060 2046     		mov	r0, r4
 2733 0062 10BD     		pop	{r4, pc}
 2734              	.LVL323:
 2735              	.L265:
 2736              		.align	2
 2737              	.L264:
 2738 0064 6B010000 		.word	.LC41
 2739 0068 00000000 		.word	.LANCHOR0
 2740 006c 75010000 		.word	.LC42
 2741 0070 7B010000 		.word	.LC43
 2742 0074 80010000 		.word	.LC44
 2743 0078 84010000 		.word	.LC45
 2744 007c 89010000 		.word	.LC46
 2745              		.cfi_endproc
 2746              	.LFE29:
 2747              		.size	CheckPinState, .-CheckPinState
 2748              		.section	.text.EnterPin,"ax",%progbits
 2749              		.align	1
 2750              		.global	EnterPin
 2751              		.thumb
 2752              		.thumb_func
 2753              		.type	EnterPin, %function
 2754              	EnterPin:
 2755              	.LFB30:
1134:src/wavecom.c ****   BOOLEAN ret;
 2756              		.loc 1 1134 0
 2757              		.cfi_startproc
 2758              		@ args = 0, pretend = 0, frame = 0
 2759              		@ frame_needed = 0, uses_anonymous_args = 0
 2760              	.LVL324:
1138:src/wavecom.c ****     sprintf(gAtCmdIn, "AT+CPIN=\"%s\"\r\n", aPin);
 2761              		.loc 1 1138 0
 2762 0000 0128     		cmp	r0, #1
1134:src/wavecom.c ****   BOOLEAN ret;
 2763              		.loc 1 1134 0
 2764 0002 10B5     		push	{r4, lr}
 2765              		.cfi_def_cfa_offset 8
 2766              		.cfi_offset 4, -8
 2767              		.cfi_offset 14, -4
1134:src/wavecom.c ****   BOOLEAN ret;
ARM GAS  C:\Users\AHMED~1.ELE\AppData\Local\Temp\ccAQ67OG.s 			page 79


 2768              		.loc 1 1134 0
 2769 0004 0A46     		mov	r2, r1
1139:src/wavecom.c ****   else
 2770              		.loc 1 1139 0
 2771 0006 0C48     		ldr	r0, .L272
 2772              	.LVL325:
 2773 0008 0CBF     		ite	eq
 2774 000a 0C49     		ldreq	r1, .L272+4
 2775              	.LVL326:
1141:src/wavecom.c **** 
 2776              		.loc 1 1141 0
 2777 000c 0C49     		ldrne	r1, .L272+8
 2778 000e FFF7FEFF 		bl	sprintf
 2779              	.LVL327:
1143:src/wavecom.c ****     if (strstr(gAtCmdOut, "OK"))
 2780              		.loc 1 1143 0
 2781 0012 0948     		ldr	r0, .L272
 2782 0014 0121     		movs	r1, #1
 2783 0016 FFF7FEFF 		bl	SendWaitRsp
 2784              	.LVL328:
 2785 001a 38B1     		cbz	r0, .L270
1144:src/wavecom.c ****       ret = TRUE;
 2786              		.loc 1 1144 0
 2787 001c 0948     		ldr	r0, .L272+12
 2788 001e 0A49     		ldr	r1, .L272+16
 2789 0020 FFF7FEFF 		bl	strstr
 2790              	.LVL329:
1137:src/wavecom.c ****   if (aId == REQ_PIN1)
 2791              		.loc 1 1137 0
 2792 0024 041C     		adds	r4, r0, #0
 2793 0026 18BF     		it	ne
 2794 0028 0124     		movne	r4, #1
 2795 002a 00E0     		b	.L269
 2796              	.L270:
 2797 002c 0446     		mov	r4, r0
 2798              	.L269:
 2799              	.LVL330:
1147:src/wavecom.c ****   return ret;
 2800              		.loc 1 1147 0
 2801 002e FFF7FEFF 		bl	ClearCmdBuf
 2802              	.LVL331:
1149:src/wavecom.c **** //*****************************************************************************
 2803              		.loc 1 1149 0
 2804 0032 2046     		mov	r0, r4
 2805 0034 10BD     		pop	{r4, pc}
 2806              	.LVL332:
 2807              	.L273:
 2808 0036 00BF     		.align	2
 2809              	.L272:
 2810 0038 DD050000 		.word	.LANCHOR0+1501
 2811 003c 8D010000 		.word	.LC47
 2812 0040 9C010000 		.word	.LC48
 2813 0044 00000000 		.word	.LANCHOR0
 2814 0048 00000000 		.word	.LC1
 2815              		.cfi_endproc
 2816              	.LFE30:
 2817              		.size	EnterPin, .-EnterPin
ARM GAS  C:\Users\AHMED~1.ELE\AppData\Local\Temp\ccAQ67OG.s 			page 80


 2818              		.section	.text.ChangePin,"ax",%progbits
 2819              		.align	1
 2820              		.global	ChangePin
 2821              		.thumb
 2822              		.thumb_func
 2823              		.type	ChangePin, %function
 2824              	ChangePin:
 2825              	.LFB31:
1163:src/wavecom.c ****   DWORD ret;
 2826              		.loc 1 1163 0
 2827              		.cfi_startproc
 2828              		@ args = 0, pretend = 0, frame = 0
 2829              		@ frame_needed = 0, uses_anonymous_args = 0
 2830              	.LVL333:
 2831 0000 73B5     		push	{r0, r1, r4, r5, r6, lr}
 2832              		.cfi_def_cfa_offset 24
 2833              		.cfi_offset 4, -16
 2834              		.cfi_offset 5, -12
 2835              		.cfi_offset 6, -8
 2836              		.cfi_offset 14, -4
1163:src/wavecom.c ****   DWORD ret;
 2837              		.loc 1 1163 0
 2838 0002 1546     		mov	r5, r2
 2839 0004 0646     		mov	r6, r0
 2840 0006 0C46     		mov	r4, r1
1167:src/wavecom.c ****   SendWaitRsp("AT+CMEE=1", WAIT_OK);
 2841              		.loc 1 1167 0
 2842 0008 FFF7FEFF 		bl	ClearCmdBuf
 2843              	.LVL334:
1168:src/wavecom.c ****   ClearCmdBuf();
 2844              		.loc 1 1168 0
 2845 000c 0221     		movs	r1, #2
 2846 000e 1848     		ldr	r0, .L282
 2847 0010 FFF7FEFF 		bl	SendWaitRsp
 2848              	.LVL335:
1169:src/wavecom.c **** 
 2849              		.loc 1 1169 0
 2850 0014 FFF7FEFF 		bl	ClearCmdBuf
 2851              	.LVL336:
1171:src/wavecom.c ****     sprintf(gAtCmdIn, "AT+CPWD=\"%s\",%s,%s\r", "SC", aOldPin, aNewPin);
 2852              		.loc 1 1171 0
 2853 0018 012E     		cmp	r6, #1
1172:src/wavecom.c ****   else
 2854              		.loc 1 1172 0
 2855 001a 1649     		ldr	r1, .L282+4
 2856 001c 0CBF     		ite	eq
 2857 001e 164A     		ldreq	r2, .L282+8
1174:src/wavecom.c **** 
 2858              		.loc 1 1174 0
 2859 0020 164A     		ldrne	r2, .L282+12
1172:src/wavecom.c ****   else
 2860              		.loc 1 1172 0
 2861 0022 0095     		str	r5, [sp]
 2862 0024 1648     		ldr	r0, .L282+16
1174:src/wavecom.c **** 
 2863              		.loc 1 1174 0
 2864 0026 2346     		mov	r3, r4
ARM GAS  C:\Users\AHMED~1.ELE\AppData\Local\Temp\ccAQ67OG.s 			page 81


 2865 0028 FFF7FEFF 		bl	sprintf
 2866              	.LVL337:
1176:src/wavecom.c ****     if (strstr(gAtCmdOut, "OK"))
 2867              		.loc 1 1176 0
 2868 002c 1448     		ldr	r0, .L282+16
 2869 002e 0221     		movs	r1, #2
 2870 0030 FFF7FEFF 		bl	SendWaitRsp
 2871              	.LVL338:
 2872 0034 68B1     		cbz	r0, .L278
1177:src/wavecom.c ****       ret = 1;
 2873              		.loc 1 1177 0
 2874 0036 1348     		ldr	r0, .L282+20
 2875 0038 1349     		ldr	r1, .L282+24
 2876 003a FFF7FEFF 		bl	strstr
 2877              	.LVL339:
 2878 003e 50B9     		cbnz	r0, .L279
1180:src/wavecom.c ****         ret = 2;
 2879              		.loc 1 1180 0
 2880 0040 1048     		ldr	r0, .L282+20
 2881 0042 1249     		ldr	r1, .L282+28
 2882 0044 FFF7FEFF 		bl	strstr
 2883              	.LVL340:
1181:src/wavecom.c ****   }
 2884              		.loc 1 1181 0
 2885 0048 0028     		cmp	r0, #0
 2886 004a 14BF     		ite	ne
 2887 004c 0224     		movne	r4, #2
 2888 004e 0024     		moveq	r4, #0
 2889              	.LVL341:
 2890 0050 02E0     		b	.L277
 2891              	.LVL342:
 2892              	.L278:
1166:src/wavecom.c ****   ClearCmdBuf();
 2893              		.loc 1 1166 0
 2894 0052 0446     		mov	r4, r0
 2895              	.LVL343:
 2896 0054 00E0     		b	.L277
 2897              	.LVL344:
 2898              	.L279:
1178:src/wavecom.c ****     else
 2899              		.loc 1 1178 0
 2900 0056 0124     		movs	r4, #1
 2901              	.LVL345:
 2902              	.L277:
1183:src/wavecom.c ****   SendWaitRsp("AT+CMEE=0", WAIT_OK);
 2903              		.loc 1 1183 0
 2904 0058 FFF7FEFF 		bl	ClearCmdBuf
 2905              	.LVL346:
1184:src/wavecom.c ****   ClearCmdBuf();
 2906              		.loc 1 1184 0
 2907 005c 0221     		movs	r1, #2
 2908 005e 0C48     		ldr	r0, .L282+32
 2909 0060 FFF7FEFF 		bl	SendWaitRsp
 2910              	.LVL347:
1185:src/wavecom.c ****   return ret;
 2911              		.loc 1 1185 0
 2912 0064 FFF7FEFF 		bl	ClearCmdBuf
ARM GAS  C:\Users\AHMED~1.ELE\AppData\Local\Temp\ccAQ67OG.s 			page 82


 2913              	.LVL348:
1187:src/wavecom.c **** //*****************************************************************************
 2914              		.loc 1 1187 0
 2915 0068 2046     		mov	r0, r4
 2916 006a 02B0     		add	sp, sp, #8
 2917              		.cfi_def_cfa_offset 16
 2918              		@ sp needed
 2919 006c 70BD     		pop	{r4, r5, r6, pc}
 2920              	.LVL349:
 2921              	.L283:
 2922 006e 00BF     		.align	2
 2923              	.L282:
 2924 0070 37010000 		.word	.LC34
 2925 0074 AC010000 		.word	.LC49
 2926 0078 56010000 		.word	.LC36
 2927 007c C0010000 		.word	.LC50
 2928 0080 DD050000 		.word	.LANCHOR0+1501
 2929 0084 00000000 		.word	.LANCHOR0
 2930 0088 00000000 		.word	.LC1
 2931 008c 5D010000 		.word	.LC39
 2932 0090 61010000 		.word	.LC40
 2933              		.cfi_endproc
 2934              	.LFE31:
 2935              		.size	ChangePin, .-ChangePin
 2936              		.section	.text.SetNewMsgInd,"ax",%progbits
 2937              		.align	1
 2938              		.global	SetNewMsgInd
 2939              		.thumb
 2940              		.thumb_func
 2941              		.type	SetNewMsgInd, %function
 2942              	SetNewMsgInd:
 2943              	.LFB32:
1197:src/wavecom.c ****   if (aEnable) {
 2944              		.loc 1 1197 0
 2945              		.cfi_startproc
 2946              		@ args = 0, pretend = 0, frame = 0
 2947              		@ frame_needed = 0, uses_anonymous_args = 0
 2948              	.LVL350:
 2949 0000 08B5     		push	{r3, lr}
 2950              		.cfi_def_cfa_offset 8
 2951              		.cfi_offset 3, -8
 2952              		.cfi_offset 14, -4
1198:src/wavecom.c ****     if (!SendWaitRsp("AT+CNMI=0,1,1,1,0\r\n", WAIT_OK))
 2953              		.loc 1 1198 0
 2954 0002 08B1     		cbz	r0, .L285
1199:src/wavecom.c ****       return FALSE;
 2955              		.loc 1 1199 0
 2956 0004 0448     		ldr	r0, .L288
 2957              	.LVL351:
 2958 0006 00E0     		b	.L287
 2959              	.LVL352:
 2960              	.L285:
1203:src/wavecom.c ****       return FALSE;
 2961              		.loc 1 1203 0
 2962 0008 0448     		ldr	r0, .L288+4
 2963              	.LVL353:
 2964              	.L287:
ARM GAS  C:\Users\AHMED~1.ELE\AppData\Local\Temp\ccAQ67OG.s 			page 83


 2965 000a 0221     		movs	r1, #2
 2966 000c FFF7FEFF 		bl	SendWaitRsp
 2967              	.LVL354:
1200:src/wavecom.c ****   }
 2968              		.loc 1 1200 0
 2969 0010 0030     		adds	r0, r0, #0
 2970 0012 18BF     		it	ne
 2971 0014 0120     		movne	r0, #1
1206:src/wavecom.c **** //*****************************************************************************
 2972              		.loc 1 1206 0
 2973 0016 08BD     		pop	{r3, pc}
 2974              	.L289:
 2975              		.align	2
 2976              	.L288:
 2977 0018 C3010000 		.word	.LC51
 2978 001c D7010000 		.word	.LC52
 2979              		.cfi_endproc
 2980              	.LFE32:
 2981              		.size	SetNewMsgInd, .-SetNewMsgInd
 2982              		.section	.text.GetSmsMode,"ax",%progbits
 2983              		.align	1
 2984              		.global	GetSmsMode
 2985              		.thumb
 2986              		.thumb_func
 2987              		.type	GetSmsMode, %function
 2988              	GetSmsMode:
 2989              	.LFB33:
1217:src/wavecom.c ****   strcpy(gAtCmdIn, "AT+CMGF?\r\n");
 2990              		.loc 1 1217 0
 2991              		.cfi_startproc
 2992              		@ args = 0, pretend = 0, frame = 0
 2993              		@ frame_needed = 0, uses_anonymous_args = 0
 2994 0000 08B5     		push	{r3, lr}
 2995              		.cfi_def_cfa_offset 8
 2996              		.cfi_offset 3, -8
 2997              		.cfi_offset 14, -4
1218:src/wavecom.c ****   if (!SendWaitRsp(gAtCmdIn, WAIT_OK))
 2998              		.loc 1 1218 0
 2999 0002 0D49     		ldr	r1, .L295
 3000 0004 0D48     		ldr	r0, .L295+4
 3001 0006 FFF7FEFF 		bl	strcpy
 3002              	.LVL355:
1219:src/wavecom.c ****     return 0xFF;
 3003              		.loc 1 1219 0
 3004 000a 0C48     		ldr	r0, .L295+4
 3005 000c 0221     		movs	r1, #2
 3006 000e FFF7FEFF 		bl	SendWaitRsp
 3007              	.LVL356:
 3008 0012 68B1     		cbz	r0, .L292
1222:src/wavecom.c ****     return SMS_PDU_MODE;
 3009              		.loc 1 1222 0
 3010 0014 0A48     		ldr	r0, .L295+8
 3011 0016 0B49     		ldr	r1, .L295+12
 3012 0018 FFF7FEFF 		bl	strstr
 3013              	.LVL357:
 3014 001c 50B9     		cbnz	r0, .L293
1224:src/wavecom.c ****     return SMS_TXT_MODE;
ARM GAS  C:\Users\AHMED~1.ELE\AppData\Local\Temp\ccAQ67OG.s 			page 84


 3015              		.loc 1 1224 0
 3016 001e 0A49     		ldr	r1, .L295+16
 3017 0020 0748     		ldr	r0, .L295+8
 3018 0022 FFF7FEFF 		bl	strstr
 3019              	.LVL358:
1227:src/wavecom.c **** }
 3020              		.loc 1 1227 0
 3021 0026 0028     		cmp	r0, #0
 3022 0028 14BF     		ite	ne
 3023 002a 0120     		movne	r0, #1
 3024 002c FF20     		moveq	r0, #255
 3025 002e 08BD     		pop	{r3, pc}
 3026              	.L292:
1220:src/wavecom.c **** 
 3027              		.loc 1 1220 0
 3028 0030 FF20     		movs	r0, #255
 3029 0032 08BD     		pop	{r3, pc}
 3030              	.L293:
1223:src/wavecom.c ****   else if (strstr(gAtCmdOut, "+CMGF: 1"))
 3031              		.loc 1 1223 0
 3032 0034 0020     		movs	r0, #0
1228:src/wavecom.c **** //*****************************************************************************
 3033              		.loc 1 1228 0
 3034 0036 08BD     		pop	{r3, pc}
 3035              	.L296:
 3036              		.align	2
 3037              	.L295:
 3038 0038 EB010000 		.word	.LC53
 3039 003c DD050000 		.word	.LANCHOR0+1501
 3040 0040 00000000 		.word	.LANCHOR0
 3041 0044 F6010000 		.word	.LC54
 3042 0048 FF010000 		.word	.LC55
 3043              		.cfi_endproc
 3044              	.LFE33:
 3045              		.size	GetSmsMode, .-GetSmsMode
 3046              		.section	.text.GetSmsTotal,"ax",%progbits
 3047              		.align	1
 3048              		.global	GetSmsTotal
 3049              		.thumb
 3050              		.thumb_func
 3051              		.type	GetSmsTotal, %function
 3052              	GetSmsTotal:
 3053              	.LFB35:
1251:src/wavecom.c **** #if (T800)
1252:src/wavecom.c **** //*****************************************************************************
1253:src/wavecom.c **** //  Function        : KeepSmsStatus
1254:src/wavecom.c **** //  Description     : Enable/Disable SMS status change after read.
1255:src/wavecom.c **** //  Input           : TRUE: keep status, FALSE: update status
1256:src/wavecom.c **** //  Return          : None;
1257:src/wavecom.c **** //  Note            : //08-12-06 JC++
1258:src/wavecom.c **** //  Globals Changed : N/A
1259:src/wavecom.c **** //*****************************************************************************
1260:src/wavecom.c **** static BOOLEAN KeepSmsStatus(BOOLEAN aKeep)
1261:src/wavecom.c **** {
1262:src/wavecom.c ****   sprintf(gAtCmdIn, "AT+WUSS=%d\r\n", aKeep);
1263:src/wavecom.c ****   if (!SendWaitRsp(gAtCmdIn, WAIT_OK))
1264:src/wavecom.c ****     return FALSE;
ARM GAS  C:\Users\AHMED~1.ELE\AppData\Local\Temp\ccAQ67OG.s 			page 85


1265:src/wavecom.c **** 
1266:src/wavecom.c ****   return TRUE;
1267:src/wavecom.c **** }
1268:src/wavecom.c **** #endif
1269:src/wavecom.c **** //*****************************************************************************
1270:src/wavecom.c **** //  Function        : GetSmsTotal
1271:src/wavecom.c **** //  Description     : Get the short form operator name
1272:src/wavecom.c **** //  Input           : aUsed : used count
1273:src/wavecom.c **** //                    aTotal: available count
1274:src/wavecom.c **** //  Return          : None;
1275:src/wavecom.c **** //  Note            : //08-12-06 JC++
1276:src/wavecom.c **** //  Globals Changed : N/A
1277:src/wavecom.c **** //*****************************************************************************
1278:src/wavecom.c **** BOOLEAN GetSmsTotal(DWORD *aUsed, DWORD *aTotal)
1279:src/wavecom.c **** {
 3054              		.loc 1 1279 0
 3055              		.cfi_startproc
 3056              		@ args = 0, pretend = 0, frame = 0
 3057              		@ frame_needed = 0, uses_anonymous_args = 0
 3058              	.LVL359:
 3059 0000 2DE9F047 		push	{r4, r5, r6, r7, r8, r9, r10, lr}
 3060              		.cfi_def_cfa_offset 32
 3061              		.cfi_offset 4, -32
 3062              		.cfi_offset 5, -28
 3063              		.cfi_offset 6, -24
 3064              		.cfi_offset 7, -20
 3065              		.cfi_offset 8, -16
 3066              		.cfi_offset 9, -12
 3067              		.cfi_offset 10, -8
 3068              		.cfi_offset 14, -4
 3069              		.loc 1 1279 0
 3070 0004 8046     		mov	r8, r0
 3071 0006 0F46     		mov	r7, r1
1280:src/wavecom.c ****   BYTE *ptr;
1281:src/wavecom.c ****   DWORD idx1, idx2, r_len;
1282:src/wavecom.c **** 
1283:src/wavecom.c ****   ClearCmdBuf();
 3072              		.loc 1 1283 0
 3073 0008 FFF7FEFF 		bl	ClearCmdBuf
 3074              	.LVL360:
1284:src/wavecom.c ****   strcpy(gAtCmdIn, "AT+CPMS?\r\n");
 3075              		.loc 1 1284 0
 3076 000c 2049     		ldr	r1, .L304
 3077 000e 2148     		ldr	r0, .L304+4
 3078 0010 FFF7FEFF 		bl	strcpy
 3079              	.LVL361:
1285:src/wavecom.c ****   if (!SendWaitRsp(gAtCmdIn, WAIT_OK))
 3080              		.loc 1 1285 0
 3081 0014 1F48     		ldr	r0, .L304+4
 3082 0016 0221     		movs	r1, #2
1284:src/wavecom.c ****   strcpy(gAtCmdIn, "AT+CPMS?\r\n");
 3083              		.loc 1 1284 0
 3084 0018 1F4C     		ldr	r4, .L304+8
 3085              		.loc 1 1285 0
 3086 001a FFF7FEFF 		bl	SendWaitRsp
 3087              	.LVL362:
 3088 001e 10B9     		cbnz	r0, .L298
ARM GAS  C:\Users\AHMED~1.ELE\AppData\Local\Temp\ccAQ67OG.s 			page 86


 3089              	.L300:
1286:src/wavecom.c ****     return FALSE;
 3090              		.loc 1 1286 0
 3091 0020 0020     		movs	r0, #0
 3092 0022 BDE8F087 		pop	{r4, r5, r6, r7, r8, r9, r10, pc}
 3093              	.LVL363:
 3094              	.L298:
 3095              	.LBB29:
 3096              	.LBB30:
1287:src/wavecom.c **** 
1288:src/wavecom.c ****   ptr = (BYTE *)strstr((char const *)gAtCmdOut, "+CPMS:");
 3097              		.loc 1 1288 0
 3098 0026 2046     		mov	r0, r4
 3099 0028 1C49     		ldr	r1, .L304+12
 3100 002a FFF7FEFF 		bl	strstr
 3101              	.LVL364:
1289:src/wavecom.c ****   if (ptr == NULL)
 3102              		.loc 1 1289 0
 3103 002e 0646     		mov	r6, r0
 3104 0030 0028     		cmp	r0, #0
 3105 0032 F5D0     		beq	.L300
1290:src/wavecom.c ****     return FALSE;
1291:src/wavecom.c **** 
1292:src/wavecom.c ****   r_len = strlen(gAtCmdOut) - (ptr - (BYTE *)gAtCmdOut);
 3106              		.loc 1 1292 0
 3107 0034 2046     		mov	r0, r4
 3108              	.LVL365:
 3109 0036 FFF7FEFF 		bl	strlen
 3110              	.LVL366:
 3111 003a A41B     		subs	r4, r4, r6
1293:src/wavecom.c **** 
1294:src/wavecom.c ****   idx1 = fndb(ptr, ',', r_len);             // find first comma
 3112              		.loc 1 1294 0
 3113 003c 2C21     		movs	r1, #44
1292:src/wavecom.c **** 
 3114              		.loc 1 1292 0
 3115 003e 0444     		add	r4, r4, r0
 3116              	.LVL367:
 3117              		.loc 1 1294 0
 3118 0040 2246     		mov	r2, r4
 3119 0042 3046     		mov	r0, r6
 3120 0044 FFF7FEFF 		bl	fndb
 3121              	.LVL368:
1295:src/wavecom.c ****   if (idx1 == r_len)
 3122              		.loc 1 1295 0
 3123 0048 A042     		cmp	r0, r4
1294:src/wavecom.c ****   if (idx1 == r_len)
 3124              		.loc 1 1294 0
 3125 004a 0546     		mov	r5, r0
 3126              	.LVL369:
 3127              		.loc 1 1295 0
 3128 004c E8D0     		beq	.L300
1296:src/wavecom.c ****     return FALSE;
1297:src/wavecom.c **** 
1298:src/wavecom.c ****   r_len = r_len - idx1;
1299:src/wavecom.c ****   idx2 = fndb(ptr+idx1+1, ',', r_len);      // find second comma
 3129              		.loc 1 1299 0
ARM GAS  C:\Users\AHMED~1.ELE\AppData\Local\Temp\ccAQ67OG.s 			page 87


 3130 004e 00F1010A 		add	r10, r0, #1
1298:src/wavecom.c ****   idx2 = fndb(ptr+idx1+1, ',', r_len);      // find second comma
 3131              		.loc 1 1298 0
 3132 0052 241A     		subs	r4, r4, r0
 3133              	.LVL370:
 3134              		.loc 1 1299 0
 3135 0054 B244     		add	r10, r10, r6
 3136 0056 5046     		mov	r0, r10
 3137              	.LVL371:
 3138 0058 2C21     		movs	r1, #44
 3139 005a 2246     		mov	r2, r4
 3140 005c FFF7FEFF 		bl	fndb
 3141              	.LVL372:
1300:src/wavecom.c ****   if (idx2 == r_len)
 3142              		.loc 1 1300 0
 3143 0060 A042     		cmp	r0, r4
1299:src/wavecom.c ****   if (idx2 == r_len)
 3144              		.loc 1 1299 0
 3145 0062 8146     		mov	r9, r0
 3146              	.LVL373:
 3147              		.loc 1 1300 0
 3148 0064 DCD0     		beq	.L300
 3149              	.LVL374:
1301:src/wavecom.c ****     return FALSE;
1302:src/wavecom.c **** 
1303:src/wavecom.c ****   idx2 = idx1 + idx2 + 1;
1304:src/wavecom.c **** 
1305:src/wavecom.c ****   *aUsed =  (WORD)Asc2DWVAL(ptr+idx1+1, 3);
 3150              		.loc 1 1305 0
 3151 0066 5046     		mov	r0, r10
 3152              	.LVL375:
 3153 0068 FFF7FEFF 		bl	Asc2DWVAL.constprop.7
 3154              	.LVL376:
 3155 006c 0235     		adds	r5, r5, #2
 3156              	.LVL377:
 3157 006e 80B2     		uxth	r0, r0
 3158 0070 C8F80000 		str	r0, [r8]
1306:src/wavecom.c ****   *aTotal = (WORD)Asc2DWVAL(ptr+idx2+1, 3);
 3159              		.loc 1 1306 0
 3160 0074 05EB0900 		add	r0, r5, r9
 3161 0078 3044     		add	r0, r0, r6
 3162 007a FFF7FEFF 		bl	Asc2DWVAL.constprop.7
 3163              	.LVL378:
 3164 007e 80B2     		uxth	r0, r0
1307:src/wavecom.c **** 
1308:src/wavecom.c ****   *aTotal = *aTotal > MAX_SMS_REC ? MAX_SMS_REC: *aTotal;
 3165              		.loc 1 1308 0
 3166 0080 6428     		cmp	r0, #100
 3167 0082 28BF     		it	cs
 3168 0084 6420     		movcs	r0, #100
 3169 0086 3860     		str	r0, [r7]
1309:src/wavecom.c **** 
1310:src/wavecom.c ****   return TRUE;
 3170              		.loc 1 1310 0
 3171 0088 0120     		movs	r0, #1
 3172              	.LBE30:
 3173              	.LBE29:
ARM GAS  C:\Users\AHMED~1.ELE\AppData\Local\Temp\ccAQ67OG.s 			page 88


1311:src/wavecom.c **** }
 3174              		.loc 1 1311 0
 3175 008a BDE8F087 		pop	{r4, r5, r6, r7, r8, r9, r10, pc}
 3176              	.LVL379:
 3177              	.L305:
 3178 008e 00BF     		.align	2
 3179              	.L304:
 3180 0090 08020000 		.word	.LC56
 3181 0094 DD050000 		.word	.LANCHOR0+1501
 3182 0098 00000000 		.word	.LANCHOR0
 3183 009c 13020000 		.word	.LC57
 3184              		.cfi_endproc
 3185              	.LFE35:
 3186              		.size	GetSmsTotal, .-GetSmsTotal
 3187              		.section	.text.LoadSmsInbox,"ax",%progbits
 3188              		.align	1
 3189              		.global	LoadSmsInbox
 3190              		.thumb
 3191              		.thumb_func
 3192              		.type	LoadSmsInbox, %function
 3193              	LoadSmsInbox:
 3194              	.LFB38:
1312:src/wavecom.c **** //*****************************************************************************
1313:src/wavecom.c **** //  Function        : GetSmsInfo
1314:src/wavecom.c **** //  Description     : Get tel number and name
1315:src/wavecom.c **** //  Input           : *tel;     // ptr to tel number buffer
1316:src/wavecom.c **** //                  : *name;    // ptr to name buffer
1317:src/wavecom.c **** //                  : *s_ptr;   // starting ptr to search
1318:src/wavecom.c **** //                  : len;      // length of string to search
1319:src/wavecom.c **** //  Return          : 0;        // Not found
1320:src/wavecom.c **** //                    1;        // TEL READY
1321:src/wavecom.c **** //                    2;        // TEL & NAME ready
1322:src/wavecom.c **** //  Note            : N/A
1323:src/wavecom.c **** //  Globals Changed : N/A;
1324:src/wavecom.c **** //*****************************************************************************
1325:src/wavecom.c **** static BOOLEAN GetSmsInfo(struct SMS_LIST *msg, BYTE *s_ptr, DWORD len)
1326:src/wavecom.c **** {
1327:src/wavecom.c **** #if (T300|T810|A5T1000|T1000|TIRO|T800)
1328:src/wavecom.c ****   BYTE sts_buf[12];
1329:src/wavecom.c ****   BYTE sts_len, tel_len, dtime_len;
1330:src/wavecom.c ****   BYTE *ptr;
1331:src/wavecom.c ****   BYTE state;
1332:src/wavecom.c **** 
1333:src/wavecom.c ****   sts_len = tel_len = dtime_len = 0;
1334:src/wavecom.c ****   state = 0;
1335:src/wavecom.c ****   ptr = strstr(s_ptr, "+CMGR:");
1336:src/wavecom.c ****   while ((DWORD)(ptr - s_ptr) < len) {
1337:src/wavecom.c ****     if (*ptr == '\"') {
1338:src/wavecom.c ****       // break if end of capture date/time
1339:src/wavecom.c ****       if (state >= 7)
1340:src/wavecom.c ****         break;
1341:src/wavecom.c ****       state++;
1342:src/wavecom.c ****       ptr++;
1343:src/wavecom.c ****       continue;
1344:src/wavecom.c ****     }
1345:src/wavecom.c ****     switch (state) {
1346:src/wavecom.c ****       case 1:     // message status
ARM GAS  C:\Users\AHMED~1.ELE\AppData\Local\Temp\ccAQ67OG.s 			page 89


1347:src/wavecom.c ****         sts_buf[sts_len++] = *ptr;
1348:src/wavecom.c ****         break;
1349:src/wavecom.c ****       case 3:     // telephone number
1350:src/wavecom.c ****         if (tel_len < MAX_PHNUM_SIZE)
1351:src/wavecom.c ****           msg->sb_tel[tel_len++] = *ptr;
1352:src/wavecom.c ****         break;
1353:src/wavecom.c ****       case 7:     // date / time
1354:src/wavecom.c ****         if (dtime_len < sizeof(msg->sb_date_time))
1355:src/wavecom.c ****           msg->sb_date_time[dtime_len++] = *ptr;
1356:src/wavecom.c ****         break;
1357:src/wavecom.c ****       default:
1358:src/wavecom.c ****         break;
1359:src/wavecom.c ****     }
1360:src/wavecom.c ****     ptr++;
1361:src/wavecom.c ****   }
1362:src/wavecom.c ****   // decode message status
1363:src/wavecom.c ****   if (!memcmp(sts_buf, "REC UNREAD", 10))
1364:src/wavecom.c ****     msg->b_status = REC_UNREAD;
1365:src/wavecom.c ****   else if (!memcmp(sts_buf, "REC READ", 8))
1366:src/wavecom.c ****     msg->b_status = REC_READ;
1367:src/wavecom.c ****   else if (!memcmp(sts_buf, "STO UNSENT", 10))
1368:src/wavecom.c ****     msg->b_status = STO_UNSENT;
1369:src/wavecom.c ****   else if (!memcmp(sts_buf, "STO SENT", 8))
1370:src/wavecom.c ****     msg->b_status = STO_SENT;
1371:src/wavecom.c ****   else
1372:src/wavecom.c ****     return FALSE;
1373:src/wavecom.c **** 
1374:src/wavecom.c ****   // no tel. or date/time found
1375:src/wavecom.c ****   if (!tel_len || !dtime_len)
1376:src/wavecom.c ****     return FALSE;
1377:src/wavecom.c **** 
1378:src/wavecom.c ****   return TRUE;
1379:src/wavecom.c **** #endif
1380:src/wavecom.c **** }
1381:src/wavecom.c **** //*****************************************************************************
1382:src/wavecom.c **** //  Function        : SortSmsList
1383:src/wavecom.c **** //  Description     : Sort the SMS List by time.
1384:src/wavecom.c **** //  Input           : N/A
1385:src/wavecom.c **** //  Return          : N/A
1386:src/wavecom.c **** //  Note            : N/A
1387:src/wavecom.c **** //  Globals Changed : N/A
1388:src/wavecom.c **** //*****************************************************************************
1389:src/wavecom.c **** static void SortSmsList(void)
1390:src/wavecom.c **** {
1391:src/wavecom.c ****   WORD i, j;
1392:src/wavecom.c **** 
1393:src/wavecom.c ****   // Sort Record
1394:src/wavecom.c ****   for (i=0; i<gGSMData.d_sms_used-1; i++) {
1395:src/wavecom.c ****     for (j=i+1; j<gGSMData.d_sms_used; j++) {
1396:src/wavecom.c ****       if (memcmp(gGSMData.s_SMSList[i].sb_date_time, gGSMData.s_SMSList[j].sb_date_time, SMS_DATE_L
1397:src/wavecom.c ****         continue;
1398:src/wavecom.c ****       memcpy((BYTE *)&gGSMData.s_CurrSMS, (BYTE *)&gGSMData.s_SMSList[j], sizeof(struct SMS_LIST));
1399:src/wavecom.c ****       memcpy((BYTE *)&gGSMData.s_SMSList[j], (BYTE *)&gGSMData.s_SMSList[i], sizeof(struct SMS_LIST
1400:src/wavecom.c ****       memcpy((BYTE *)&gGSMData.s_SMSList[i], (BYTE *)&gGSMData.s_CurrSMS, sizeof(struct SMS_LIST));
1401:src/wavecom.c ****     }
1402:src/wavecom.c ****   }
1403:src/wavecom.c **** }
ARM GAS  C:\Users\AHMED~1.ELE\AppData\Local\Temp\ccAQ67OG.s 			page 90


1404:src/wavecom.c **** //*****************************************************************************
1405:src/wavecom.c **** //  Function        : LoadSmsInbox
1406:src/wavecom.c **** //  Description     : Load SMS messages
1407:src/wavecom.c **** //  Input           : N/A
1408:src/wavecom.c **** //  Return          : None;
1409:src/wavecom.c **** //  Note            : //08-12-06 JC++
1410:src/wavecom.c **** //  Globals Changed : N/A
1411:src/wavecom.c **** //*****************************************************************************
1412:src/wavecom.c **** void LoadSmsInbox(void)
1413:src/wavecom.c **** {
 3195              		.loc 1 1413 0
 3196              		.cfi_startproc
 3197              		@ args = 0, pretend = 0, frame = 24
 3198              		@ frame_needed = 0, uses_anonymous_args = 0
 3199 0000 2DE9F04F 		push	{r4, r5, r6, r7, r8, r9, r10, fp, lr}
 3200              		.cfi_def_cfa_offset 36
 3201              		.cfi_offset 4, -36
 3202              		.cfi_offset 5, -32
 3203              		.cfi_offset 6, -28
 3204              		.cfi_offset 7, -24
 3205              		.cfi_offset 8, -20
 3206              		.cfi_offset 9, -16
 3207              		.cfi_offset 10, -12
 3208              		.cfi_offset 11, -8
 3209              		.cfi_offset 14, -4
 3210 0004 87B0     		sub	sp, sp, #28
 3211              		.cfi_def_cfa_offset 64
1414:src/wavecom.c ****   char *ptr;
1415:src/wavecom.c ****   BYTE i;
1416:src/wavecom.c ****   WORD count;
1417:src/wavecom.c **** 
1418:src/wavecom.c ****   ClearCmdBuf();
 3212              		.loc 1 1418 0
 3213 0006 FFF7FEFF 		bl	ClearCmdBuf
 3214              	.LVL380:
1419:src/wavecom.c ****   GetSmsTotal(&gGSMData.d_sms_used, &gGSMData.d_sms_total);
 3215              		.loc 1 1419 0
 3216 000a 9848     		ldr	r0, .L355
1420:src/wavecom.c **** #if (T800)
1421:src/wavecom.c ****   KeepSmsStatus(TRUE);        // keep message status after LIST command
1422:src/wavecom.c **** #endif
1423:src/wavecom.c ****   if (gGSMData.b_sms_mode == SMS_PDU_MODE)
 3217              		.loc 1 1423 0
 3218 000c 984C     		ldr	r4, .L355+4
1419:src/wavecom.c ****   GetSmsTotal(&gGSMData.d_sms_used, &gGSMData.d_sms_total);
 3219              		.loc 1 1419 0
 3220 000e 011F     		subs	r1, r0, #4
 3221 0010 FFF7FEFF 		bl	GetSmsTotal
 3222              	.LVL381:
 3223              		.loc 1 1423 0
 3224 0014 94F82C30 		ldrb	r3, [r4, #44]	@ zero_extendqisi2
 3225 0018 13B9     		cbnz	r3, .L307
 3226              	.LVL382:
 3227              	.LBB39:
 3228              	.LBB40:
 3229 001a 0120     		movs	r0, #1
 3230 001c FFF7FEFF 		bl	SetSmsMode.part.1
ARM GAS  C:\Users\AHMED~1.ELE\AppData\Local\Temp\ccAQ67OG.s 			page 91


 3231              	.LVL383:
 3232              	.L307:
 3233              	.LBE40:
 3234              	.LBE39:
1424:src/wavecom.c ****     SetSmsMode(SMS_TXT_MODE);    // set TEXT mode for getting date/time info
1425:src/wavecom.c **** 
1426:src/wavecom.c ****   memset(gGSMData.s_SMSList, 0, sizeof(gGSMData.s_SMSList));
1427:src/wavecom.c ****   gGSMData.d_sms_recv = count = 0;
 3235              		.loc 1 1427 0
 3236 0020 0026     		movs	r6, #0
1428:src/wavecom.c **** 
1429:src/wavecom.c ****   for (i=1; i<=gGSMData.d_sms_total; i++) {
 3237              		.loc 1 1429 0
 3238 0022 0127     		movs	r7, #1
1426:src/wavecom.c ****   gGSMData.d_sms_recv = count = 0;
 3239              		.loc 1 1426 0
 3240 0024 9348     		ldr	r0, .L355+8
 3241 0026 0021     		movs	r1, #0
 3242 0028 41F27072 		movw	r2, #6000
 3243 002c FFF7FEFF 		bl	memset
 3244              	.LVL384:
1427:src/wavecom.c **** 
 3245              		.loc 1 1427 0
 3246 0030 A663     		str	r6, [r4, #56]
 3247              	.LVL385:
 3248              	.L308:
 3249              		.loc 1 1429 0 discriminator 1
 3250 0032 236B     		ldr	r3, [r4, #48]
 3251 0034 9F42     		cmp	r7, r3
 3252 0036 00F2B080 		bhi	.L331
1430:src/wavecom.c ****     // send READ command to read every message
1431:src/wavecom.c ****     sprintf(gAtCmdIn, "AT+CMGR=%d\r\n", i);
 3253              		.loc 1 1431 0
 3254 003a 8F49     		ldr	r1, .L355+12
 3255 003c 8F48     		ldr	r0, .L355+16
 3256 003e 3A46     		mov	r2, r7
 3257 0040 FFF7FEFF 		bl	sprintf
 3258              	.LVL386:
1432:src/wavecom.c ****     if (!SendWaitRsp(gAtCmdIn, WAIT_OK))
 3259              		.loc 1 1432 0
 3260 0044 8D48     		ldr	r0, .L355+16
 3261 0046 0221     		movs	r1, #2
 3262 0048 FFF7FEFF 		bl	SendWaitRsp
 3263              	.LVL387:
 3264 004c 0028     		cmp	r0, #0
 3265 004e 00F0AC80 		beq	.L309
1433:src/wavecom.c ****       continue;
1434:src/wavecom.c ****     // find status info from each message
1435:src/wavecom.c ****     ptr = strstr((char const *)gAtCmdOut, "+CMGR:");
 3266              		.loc 1 1435 0
 3267 0052 8B48     		ldr	r0, .L355+20
 3268 0054 8B49     		ldr	r1, .L355+24
 3269 0056 FFF7FEFF 		bl	strstr
 3270              	.LVL388:
1436:src/wavecom.c ****     if (ptr == NULL)
 3271              		.loc 1 1436 0
 3272 005a 8246     		mov	r10, r0
ARM GAS  C:\Users\AHMED~1.ELE\AppData\Local\Temp\ccAQ67OG.s 			page 92


 3273 005c 0028     		cmp	r0, #0
 3274 005e 00F0A480 		beq	.L309
1437:src/wavecom.c ****       continue;
1438:src/wavecom.c ****     count++;
1439:src/wavecom.c ****     // get SMS info (date/time & tel no)
1440:src/wavecom.c ****     if (GetSmsInfo(&gGSMData.s_SMSList[gGSMData.d_sms_recv], ptr, strlen(ptr))==FALSE)
 3275              		.loc 1 1440 0
 3276 0062 834B     		ldr	r3, .L355+4
1438:src/wavecom.c ****     // get SMS info (date/time & tel no)
 3277              		.loc 1 1438 0
 3278 0064 0136     		adds	r6, r6, #1
 3279              	.LVL389:
 3280              		.loc 1 1440 0
 3281 0066 9D6B     		ldr	r5, [r3, #56]
 3282 0068 FFF7FEFF 		bl	strlen
 3283              	.LVL390:
 3284              	.LBB41:
 3285              	.LBB42:
1335:src/wavecom.c ****   while ((DWORD)(ptr - s_ptr) < len) {
 3286              		.loc 1 1335 0
 3287 006c 8549     		ldr	r1, .L355+24
 3288              	.LBE42:
 3289              	.LBE41:
1438:src/wavecom.c ****     // get SMS info (date/time & tel no)
 3290              		.loc 1 1438 0
 3291 006e B6B2     		uxth	r6, r6
 3292              	.LVL391:
 3293              		.loc 1 1440 0
 3294 0070 0190     		str	r0, [sp, #4]
 3295              	.LVL392:
 3296              	.LBB44:
 3297              	.LBB43:
1335:src/wavecom.c ****   while ((DWORD)(ptr - s_ptr) < len) {
 3298              		.loc 1 1335 0
 3299 0072 5046     		mov	r0, r10
 3300              	.LVL393:
 3301 0074 FFF7FEFF 		bl	strstr
 3302              	.LVL394:
1334:src/wavecom.c ****   ptr = strstr(s_ptr, "+CMGR:");
 3303              		.loc 1 1334 0
 3304 0078 0023     		movs	r3, #0
1333:src/wavecom.c ****   state = 0;
 3305              		.loc 1 1333 0
 3306 007a 9846     		mov	r8, r3
 3307 007c 9946     		mov	r9, r3
 3308 007e 1946     		mov	r1, r3
 3309              	.LVL395:
 3310              	.L310:
1336:src/wavecom.c ****     if (*ptr == '\"') {
 3311              		.loc 1 1336 0
 3312 0080 019A     		ldr	r2, [sp, #4]
 3313 0082 CAEB000E 		rsb	lr, r10, r0
 3314 0086 9645     		cmp	lr, r2
 3315 0088 06D2     		bcs	.L321
1337:src/wavecom.c ****       // break if end of capture date/time
 3316              		.loc 1 1337 0
 3317 008a 10F801EB 		ldrb	lr, [r0], #1	@ zero_extendqisi2
ARM GAS  C:\Users\AHMED~1.ELE\AppData\Local\Temp\ccAQ67OG.s 			page 93


 3318              	.LVL396:
 3319 008e BEF1220F 		cmp	lr, #34
 3320 0092 12D1     		bne	.L311
1339:src/wavecom.c ****         break;
 3321              		.loc 1 1339 0
 3322 0094 062B     		cmp	r3, #6
 3323 0096 0DD9     		bls	.L312
 3324              	.LVL397:
 3325              	.L321:
1363:src/wavecom.c ****     msg->b_status = REC_UNREAD;
 3326              		.loc 1 1363 0
 3327 0098 03A8     		add	r0, sp, #12
 3328 009a 7B49     		ldr	r1, .L355+28
 3329              	.LVL398:
 3330 009c 0A22     		movs	r2, #10
 3331 009e FFF7FEFF 		bl	memcmp
 3332              	.LVL399:
 3333 00a2 E0BB     		cbnz	r0, .L352
1364:src/wavecom.c ****   else if (!memcmp(sts_buf, "REC READ", 8))
 3334              		.loc 1 1364 0
 3335 00a4 3C23     		movs	r3, #60
 3336 00a6 03FB0543 		mla	r3, r3, r5, r4
 3337 00aa 03F58943 		add	r3, r3, #17536
 3338 00ae 83F83A00 		strb	r0, [r3, #58]
 3339 00b2 5CE0     		b	.L322
 3340              	.LVL400:
 3341              	.L312:
1341:src/wavecom.c ****       ptr++;
 3342              		.loc 1 1341 0
 3343 00b4 0133     		adds	r3, r3, #1
 3344              	.LVL401:
 3345 00b6 DBB2     		uxtb	r3, r3
 3346              	.LVL402:
 3347 00b8 E2E7     		b	.L310
 3348              	.LVL403:
 3349              	.L311:
1345:src/wavecom.c ****       case 1:     // message status
 3350              		.loc 1 1345 0
 3351 00ba 032B     		cmp	r3, #3
 3352 00bc 0BD0     		beq	.L317
 3353 00be 072B     		cmp	r3, #7
 3354 00c0 1BD0     		beq	.L318
 3355 00c2 012B     		cmp	r3, #1
 3356 00c4 DCD1     		bne	.L310
1347:src/wavecom.c ****         break;
 3357              		.loc 1 1347 0
 3358 00c6 0DF1180C 		add	ip, sp, #24
 3359 00ca 4A1C     		adds	r2, r1, #1
 3360              	.LVL404:
 3361 00cc 6144     		add	r1, r1, ip
 3362 00ce 01F80CEC 		strb	lr, [r1, #-12]
 3363 00d2 D1B2     		uxtb	r1, r2
 3364 00d4 D4E7     		b	.L310
 3365              	.LVL405:
 3366              	.L317:
1350:src/wavecom.c ****           msg->sb_tel[tel_len++] = *ptr;
 3367              		.loc 1 1350 0
ARM GAS  C:\Users\AHMED~1.ELE\AppData\Local\Temp\ccAQ67OG.s 			page 94


 3368 00d6 B9F11E0F 		cmp	r9, #30
 3369 00da D1D8     		bhi	.L310
1351:src/wavecom.c ****         break;
 3370              		.loc 1 1351 0
 3371 00dc 3C22     		movs	r2, #60
 3372 00de DFF890B1 		ldr	fp, .L355+4
 3373 00e2 09F1010C 		add	ip, r9, #1
 3374              	.LVL406:
 3375 00e6 02FB05B2 		mla	r2, r2, r5, fp
 3376 00ea 9144     		add	r9, r9, r2
 3377 00ec 09F58949 		add	r9, r9, #17536
 3378 00f0 89F81AE0 		strb	lr, [r9, #26]
 3379 00f4 5FFA8CF9 		uxtb	r9, ip
 3380 00f8 C2E7     		b	.L310
 3381              	.LVL407:
 3382              	.L318:
1354:src/wavecom.c ****           msg->sb_date_time[dtime_len++] = *ptr;
 3383              		.loc 1 1354 0
 3384 00fa B8F1150F 		cmp	r8, #21
 3385 00fe BFD8     		bhi	.L310
1355:src/wavecom.c ****         break;
 3386              		.loc 1 1355 0
 3387 0100 3C22     		movs	r2, #60
 3388 0102 DFF86CB1 		ldr	fp, .L355+4
 3389 0106 08F1010C 		add	ip, r8, #1
 3390              	.LVL408:
 3391 010a 02FB05B2 		mla	r2, r2, r5, fp
 3392 010e 9044     		add	r8, r8, r2
 3393 0110 08F58948 		add	r8, r8, #17536
 3394 0114 88F804E0 		strb	lr, [r8, #4]
 3395 0118 5FFA8CF8 		uxtb	r8, ip
 3396              	.LVL409:
 3397 011c B0E7     		b	.L310
 3398              	.LVL410:
 3399              	.L352:
1365:src/wavecom.c ****     msg->b_status = REC_READ;
 3400              		.loc 1 1365 0
 3401 011e 03A8     		add	r0, sp, #12
 3402 0120 5A49     		ldr	r1, .L355+32
 3403 0122 0822     		movs	r2, #8
 3404 0124 FFF7FEFF 		bl	memcmp
 3405              	.LVL411:
 3406 0128 30B9     		cbnz	r0, .L323
1366:src/wavecom.c ****   else if (!memcmp(sts_buf, "STO UNSENT", 10))
 3407              		.loc 1 1366 0
 3408 012a 3C23     		movs	r3, #60
 3409 012c 0122     		movs	r2, #1
 3410 012e 03FB0543 		mla	r3, r3, r5, r4
 3411 0132 03F58943 		add	r3, r3, #17536
 3412 0136 18E0     		b	.L351
 3413              	.L323:
1367:src/wavecom.c ****     msg->b_status = STO_UNSENT;
 3414              		.loc 1 1367 0
 3415 0138 03A8     		add	r0, sp, #12
 3416 013a 5549     		ldr	r1, .L355+36
 3417 013c 0A22     		movs	r2, #10
 3418 013e FFF7FEFF 		bl	memcmp
ARM GAS  C:\Users\AHMED~1.ELE\AppData\Local\Temp\ccAQ67OG.s 			page 95


 3419              	.LVL412:
 3420 0142 30B9     		cbnz	r0, .L324
1368:src/wavecom.c ****   else if (!memcmp(sts_buf, "STO SENT", 8))
 3421              		.loc 1 1368 0
 3422 0144 3C23     		movs	r3, #60
 3423 0146 0222     		movs	r2, #2
 3424 0148 03FB0543 		mla	r3, r3, r5, r4
 3425 014c 03F58943 		add	r3, r3, #17536
 3426 0150 0BE0     		b	.L351
 3427              	.L324:
1369:src/wavecom.c ****     msg->b_status = STO_SENT;
 3428              		.loc 1 1369 0
 3429 0152 03A8     		add	r0, sp, #12
 3430 0154 4F49     		ldr	r1, .L355+40
 3431 0156 0822     		movs	r2, #8
 3432 0158 FFF7FEFF 		bl	memcmp
 3433              	.LVL413:
 3434 015c 28BB     		cbnz	r0, .L309
1370:src/wavecom.c ****   else
 3435              		.loc 1 1370 0
 3436 015e 3C23     		movs	r3, #60
 3437 0160 0322     		movs	r2, #3
 3438 0162 03FB0543 		mla	r3, r3, r5, r4
 3439 0166 03F58943 		add	r3, r3, #17536
 3440              	.L351:
 3441 016a 83F83A20 		strb	r2, [r3, #58]
 3442              	.L322:
1375:src/wavecom.c ****     return FALSE;
 3443              		.loc 1 1375 0
 3444 016e B9F1000F 		cmp	r9, #0
 3445 0172 1AD0     		beq	.L309
 3446              	.LBE43:
 3447              	.LBE44:
 3448              		.loc 1 1440 0
 3449 0174 B8F1000F 		cmp	r8, #0
 3450 0178 17D0     		beq	.L309
1441:src/wavecom.c ****       continue;
1442:src/wavecom.c ****     // update list for READ/UNREAD messages only
1443:src/wavecom.c ****     if ((gGSMData.s_SMSList[gGSMData.d_sms_recv].b_status != REC_UNREAD) &&
 3451              		.loc 1 1443 0
 3452 017a 3C23     		movs	r3, #60
 3453 017c 3C4A     		ldr	r2, .L355+4
 3454 017e 03FB0543 		mla	r3, r3, r5, r4
 3455 0182 03F58943 		add	r3, r3, #17536
 3456 0186 93F83A10 		ldrb	r1, [r3, #58]	@ zero_extendqisi2
 3457 018a 0129     		cmp	r1, #1
 3458 018c 0DD8     		bhi	.L309
1444:src/wavecom.c ****         (gGSMData.s_SMSList[gGSMData.d_sms_recv].b_status != REC_READ))
1445:src/wavecom.c ****       continue;
1446:src/wavecom.c **** 
1447:src/wavecom.c ****     gGSMData.s_SMSList[gGSMData.d_sms_recv].d_idx = i;
 3459              		.loc 1 1447 0
 3460 018e 1F60     		str	r7, [r3]
1448:src/wavecom.c ****     gGSMData.d_sms_recv++;
1449:src/wavecom.c **** 
1450:src/wavecom.c ****     if (count >= gGSMData.d_sms_used)
 3461              		.loc 1 1450 0
ARM GAS  C:\Users\AHMED~1.ELE\AppData\Local\Temp\ccAQ67OG.s 			page 96


 3462 0190 536B     		ldr	r3, [r2, #52]
1448:src/wavecom.c ****     gGSMData.d_sms_recv++;
 3463              		.loc 1 1448 0
 3464 0192 0135     		adds	r5, r5, #1
 3465              	.LVL414:
 3466              		.loc 1 1450 0
 3467 0194 9E42     		cmp	r6, r3
1448:src/wavecom.c ****     gGSMData.d_sms_recv++;
 3468              		.loc 1 1448 0
 3469 0196 9563     		str	r5, [r2, #56]
 3470              		.loc 1 1450 0
 3471 0198 05D3     		bcc	.L328
 3472              	.LVL415:
 3473              	.L331:
1451:src/wavecom.c ****       break;
1452:src/wavecom.c **** 
1453:src/wavecom.c ****     if (gGSMData.d_sms_recv >= MAX_SMS_REC)
1454:src/wavecom.c ****       break;
1455:src/wavecom.c ****   }
1456:src/wavecom.c **** 
1457:src/wavecom.c ****   if (gGSMData.b_sms_mode == SMS_PDU_MODE)
 3474              		.loc 1 1457 0
 3475 019a 94F82C00 		ldrb	r0, [r4, #44]	@ zero_extendqisi2
 3476 019e 38B9     		cbnz	r0, .L330
 3477              	.LVL416:
 3478              	.LBB45:
 3479              	.LBB46:
 3480 01a0 FFF7FEFF 		bl	SetSmsMode.part.1
 3481              	.LVL417:
 3482 01a4 04E0     		b	.L330
 3483              	.LVL418:
 3484              	.L328:
 3485              	.LBE46:
 3486              	.LBE45:
1453:src/wavecom.c ****       break;
 3487              		.loc 1 1453 0
 3488 01a6 632D     		cmp	r5, #99
 3489 01a8 F7D8     		bhi	.L331
 3490              	.LVL419:
 3491              	.L309:
1429:src/wavecom.c ****     // send READ command to read every message
 3492              		.loc 1 1429 0 discriminator 2
 3493 01aa 0137     		adds	r7, r7, #1
 3494              	.LVL420:
 3495 01ac FFB2     		uxtb	r7, r7
 3496              	.LVL421:
 3497 01ae 40E7     		b	.L308
 3498              	.L330:
 3499              	.LBB47:
 3500              	.LBB48:
1395:src/wavecom.c ****       if (memcmp(gGSMData.s_SMSList[i].sb_date_time, gGSMData.s_SMSList[j].sb_date_time, SMS_DATE_L
 3501              		.loc 1 1395 0
 3502 01b0 0027     		movs	r7, #0
 3503              	.LVL422:
 3504              	.L336:
1394:src/wavecom.c ****     for (j=i+1; j<gGSMData.d_sms_used; j++) {
 3505              		.loc 1 1394 0
ARM GAS  C:\Users\AHMED~1.ELE\AppData\Local\Temp\ccAQ67OG.s 			page 97


 3506 01b2 2F4B     		ldr	r3, .L355+4
 3507 01b4 D3F83490 		ldr	r9, [r3, #52]
 3508 01b8 09F1FF33 		add	r3, r9, #-1
 3509 01bc 9F42     		cmp	r7, r3
 3510 01be 51D2     		bcs	.L353
1395:src/wavecom.c ****       if (memcmp(gGSMData.s_SMSList[i].sb_date_time, gGSMData.s_SMSList[j].sb_date_time, SMS_DATE_L
 3511              		.loc 1 1395 0
 3512 01c0 07F10108 		add	r8, r7, #1
 3513 01c4 1FFA88F8 		uxth	r8, r8
 3514              	.LVL423:
 3515 01c8 4646     		mov	r6, r8
 3516              	.LVL424:
 3517              	.L333:
 3518 01ca 4E45     		cmp	r6, r9
 3519 01cc 48D2     		bcs	.L354
1396:src/wavecom.c ****         continue;
 3520              		.loc 1 1396 0
 3521 01ce 3C25     		movs	r5, #60
 3522 01d0 DFF89CA0 		ldr	r10, .L355+4
 3523 01d4 05FB07F4 		mul	r4, r5, r7
 3524 01d8 7543     		muls	r5, r6, r5
 3525 01da 04F58940 		add	r0, r4, #17536
 3526 01de 05F58941 		add	r1, r5, #17536
 3527 01e2 5044     		add	r0, r0, r10
 3528 01e4 5144     		add	r1, r1, r10
 3529 01e6 0430     		adds	r0, r0, #4
 3530 01e8 0431     		adds	r1, r1, #4
 3531 01ea 1122     		movs	r2, #17
 3532 01ec FFF7FEFF 		bl	memcmp
 3533              	.LVL425:
 3534 01f0 0028     		cmp	r0, #0
 3535 01f2 32DA     		bge	.L334
1398:src/wavecom.c ****       memcpy((BYTE *)&gGSMData.s_SMSList[j], (BYTE *)&gGSMData.s_SMSList[i], sizeof(struct SMS_LIST
 3536              		.loc 1 1398 0
 3537 01f4 5544     		add	r5, r5, r10
 3538 01f6 DFF8A0E0 		ldr	lr, .L355+44
 3539 01fa 05F58945 		add	r5, r5, #17536
 3540 01fe AC46     		mov	ip, r5
 3541 0200 BCE80F00 		ldmia	ip!, {r0, r1, r2, r3}
 3542 0204 AEE80F00 		stmia	lr!, {r0, r1, r2, r3}
 3543 0208 BCE80F00 		ldmia	ip!, {r0, r1, r2, r3}
 3544 020c AEE80F00 		stmia	lr!, {r0, r1, r2, r3}
 3545 0210 BCE80F00 		ldmia	ip!, {r0, r1, r2, r3}
 3546 0214 AEE80F00 		stmia	lr!, {r0, r1, r2, r3}
 3547 0218 9CE80700 		ldmia	ip, {r0, r1, r2}
1399:src/wavecom.c ****       memcpy((BYTE *)&gGSMData.s_SMSList[i], (BYTE *)&gGSMData.s_CurrSMS, sizeof(struct SMS_LIST));
 3548              		.loc 1 1399 0
 3549 021c 5444     		add	r4, r4, r10
 3550 021e 04F58944 		add	r4, r4, #17536
 3551 0222 A246     		mov	r10, r4
1398:src/wavecom.c ****       memcpy((BYTE *)&gGSMData.s_SMSList[j], (BYTE *)&gGSMData.s_SMSList[i], sizeof(struct SMS_LIST
 3552              		.loc 1 1398 0
 3553 0224 8EE80700 		stmia	lr, {r0, r1, r2}
1399:src/wavecom.c ****       memcpy((BYTE *)&gGSMData.s_SMSList[i], (BYTE *)&gGSMData.s_CurrSMS, sizeof(struct SMS_LIST));
 3554              		.loc 1 1399 0
 3555 0228 BAE80F00 		ldmia	r10!, {r0, r1, r2, r3}
 3556 022c 0FC5     		stmia	r5!, {r0, r1, r2, r3}
ARM GAS  C:\Users\AHMED~1.ELE\AppData\Local\Temp\ccAQ67OG.s 			page 98


 3557 022e BAE80F00 		ldmia	r10!, {r0, r1, r2, r3}
 3558 0232 0FC5     		stmia	r5!, {r0, r1, r2, r3}
 3559 0234 BAE80F00 		ldmia	r10!, {r0, r1, r2, r3}
 3560 0238 0FC5     		stmia	r5!, {r0, r1, r2, r3}
 3561 023a 9AE80700 		ldmia	r10, {r0, r1, r2}
1400:src/wavecom.c ****     }
 3562              		.loc 1 1400 0
 3563 023e AEF13005 		sub	r5, lr, #48
1399:src/wavecom.c ****       memcpy((BYTE *)&gGSMData.s_SMSList[i], (BYTE *)&gGSMData.s_CurrSMS, sizeof(struct SMS_LIST));
 3564              		.loc 1 1399 0
 3565 0242 8CE80700 		stmia	ip, {r0, r1, r2}
1400:src/wavecom.c ****     }
 3566              		.loc 1 1400 0
 3567 0246 0FCD     		ldmia	r5!, {r0, r1, r2, r3}
 3568 0248 0FC4     		stmia	r4!, {r0, r1, r2, r3}
 3569 024a 0FCD     		ldmia	r5!, {r0, r1, r2, r3}
 3570 024c 0FC4     		stmia	r4!, {r0, r1, r2, r3}
 3571 024e 0FCD     		ldmia	r5!, {r0, r1, r2, r3}
 3572 0250 0FC4     		stmia	r4!, {r0, r1, r2, r3}
 3573 0252 9EE80700 		ldmia	lr, {r0, r1, r2}
 3574 0256 8AE80700 		stmia	r10, {r0, r1, r2}
 3575              	.L334:
1395:src/wavecom.c ****       if (memcmp(gGSMData.s_SMSList[i].sb_date_time, gGSMData.s_SMSList[j].sb_date_time, SMS_DATE_L
 3576              		.loc 1 1395 0
 3577 025a 0136     		adds	r6, r6, #1
 3578              	.LVL426:
 3579 025c B6B2     		uxth	r6, r6
 3580              	.LVL427:
 3581 025e B4E7     		b	.L333
 3582              	.L354:
1394:src/wavecom.c ****     for (j=i+1; j<gGSMData.d_sms_used; j++) {
 3583              		.loc 1 1394 0
 3584 0260 4746     		mov	r7, r8
 3585              	.LVL428:
 3586 0262 A6E7     		b	.L336
 3587              	.LVL429:
 3588              	.L353:
 3589              	.LBE48:
 3590              	.LBE47:
1458:src/wavecom.c ****     SetSmsMode(SMS_PDU_MODE);
1459:src/wavecom.c **** #if (T800)  
1460:src/wavecom.c ****   KeepSmsStatus(FALSE);
1461:src/wavecom.c **** #endif  
1462:src/wavecom.c ****   SortSmsList();  // Sort by time
1463:src/wavecom.c **** }
 3591              		.loc 1 1463 0
 3592 0264 07B0     		add	sp, sp, #28
 3593              		.cfi_def_cfa_offset 36
 3594              		@ sp needed
 3595 0266 BDE8F08F 		pop	{r4, r5, r6, r7, r8, r9, r10, fp, pc}
 3596              	.LVL430:
 3597              	.L356:
 3598 026a 00BF     		.align	2
 3599              	.L355:
 3600 026c 34000000 		.word	gGSMData+52
 3601 0270 00000000 		.word	gGSMData
 3602 0274 80440000 		.word	gGSMData+17536
ARM GAS  C:\Users\AHMED~1.ELE\AppData\Local\Temp\ccAQ67OG.s 			page 99


 3603 0278 1A020000 		.word	.LC58
 3604 027c DD050000 		.word	.LANCHOR0+1501
 3605 0280 00000000 		.word	.LANCHOR0
 3606 0284 27020000 		.word	.LC59
 3607 0288 2E020000 		.word	.LC60
 3608 028c 39020000 		.word	.LC61
 3609 0290 42020000 		.word	.LC62
 3610 0294 4D020000 		.word	.LC63
 3611 0298 F05B0000 		.word	gGSMData+23536
 3612              		.cfi_endproc
 3613              	.LFE38:
 3614              		.size	LoadSmsInbox, .-LoadSmsInbox
 3615              		.section	.text.ReadSms,"ax",%progbits
 3616              		.align	1
 3617              		.global	ReadSms
 3618              		.thumb
 3619              		.thumb_func
 3620              		.type	ReadSms, %function
 3621              	ReadSms:
 3622              	.LFB39:
1464:src/wavecom.c **** //*****************************************************************************
1465:src/wavecom.c **** //  Function        : ReadSms
1466:src/wavecom.c **** //  Description     : Read SMS from memory
1467:src/wavecom.c **** //  Input           : aMsg;     // pointer to sturct SMS_MSG
1468:src/wavecom.c **** //                    aListId;  // List Idx
1469:src/wavecom.c **** //  Return          : None;
1470:src/wavecom.c **** //  Note            : //08-12-06 JC++
1471:src/wavecom.c **** //  Globals Changed : N/A
1472:src/wavecom.c **** //*****************************************************************************
1473:src/wavecom.c **** BOOLEAN ReadSms(struct SMS_MSG *aMsg, DWORD aListId)
1474:src/wavecom.c **** {
 3623              		.loc 1 1474 0
 3624              		.cfi_startproc
 3625              		@ args = 0, pretend = 0, frame = 512
 3626              		@ frame_needed = 0, uses_anonymous_args = 0
 3627              	.LVL431:
 3628 0000 2DE9F04F 		push	{r4, r5, r6, r7, r8, r9, r10, fp, lr}
 3629              		.cfi_def_cfa_offset 36
 3630              		.cfi_offset 4, -36
 3631              		.cfi_offset 5, -32
 3632              		.cfi_offset 6, -28
 3633              		.cfi_offset 7, -24
 3634              		.cfi_offset 8, -20
 3635              		.cfi_offset 9, -16
 3636              		.cfi_offset 10, -12
 3637              		.cfi_offset 11, -8
 3638              		.cfi_offset 14, -4
 3639 0004 ADF5037D 		sub	sp, sp, #524
 3640              		.cfi_def_cfa_offset 560
1475:src/wavecom.c ****   struct SMS_PDU sms_pdu;
1476:src/wavecom.c ****   BYTE tmpstr[256];
1477:src/wavecom.c ****   DWORD len;
1478:src/wavecom.c ****   struct GPRSSMSDATA sms_data;
1479:src/wavecom.c ****   BYTE *ptr, *mptr;
1480:src/wavecom.c **** 
1481:src/wavecom.c ****   sms_data.s_pdu = &sms_pdu;
 3641              		.loc 1 1481 0
ARM GAS  C:\Users\AHMED~1.ELE\AppData\Local\Temp\ccAQ67OG.s 			page 100


 3642 0008 03AE     		add	r6, sp, #12
1482:src/wavecom.c ****   sms_data.s_str = tmpstr;
 3643              		.loc 1 1482 0
 3644 000a 42AB     		add	r3, sp, #264
1481:src/wavecom.c ****   sms_data.s_str = tmpstr;
 3645              		.loc 1 1481 0
 3646 000c 0DF12409 		add	r9, sp, #36
1483:src/wavecom.c ****   sms_data.d_len = &len;  
 3647              		.loc 1 1483 0
 3648 0010 0DF1080A 		add	r10, sp, #8
1484:src/wavecom.c **** 
1485:src/wavecom.c ****   ClearCmdBuf();
1486:src/wavecom.c ****   if (gGSMData.b_sms_mode == SMS_TXT_MODE)
 3649              		.loc 1 1486 0
 3650 0014 374D     		ldr	r5, .L373
1482:src/wavecom.c ****   sms_data.d_len = &len;  
 3651              		.loc 1 1482 0
 3652 0016 7360     		str	r3, [r6, #4]
1474:src/wavecom.c ****   struct SMS_PDU sms_pdu;
 3653              		.loc 1 1474 0
 3654 0018 0746     		mov	r7, r0
 3655 001a 8846     		mov	r8, r1
1481:src/wavecom.c ****   sms_data.s_str = tmpstr;
 3656              		.loc 1 1481 0
 3657 001c C6F80090 		str	r9, [r6]
1483:src/wavecom.c **** 
 3658              		.loc 1 1483 0
 3659 0020 C6F808A0 		str	r10, [r6, #8]
1485:src/wavecom.c ****   if (gGSMData.b_sms_mode == SMS_TXT_MODE)
 3660              		.loc 1 1485 0
 3661 0024 FFF7FEFF 		bl	ClearCmdBuf
 3662              	.LVL432:
 3663              		.loc 1 1486 0
 3664 0028 95F82C30 		ldrb	r3, [r5, #44]	@ zero_extendqisi2
 3665 002c 012B     		cmp	r3, #1
 3666 002e 02D1     		bne	.L358
 3667              	.LVL433:
 3668              	.LBB53:
 3669              	.LBB54:
 3670 0030 0020     		movs	r0, #0
 3671 0032 FFF7FEFF 		bl	SetSmsMode.part.1
 3672              	.LVL434:
 3673              	.L358:
 3674              	.LBE54:
 3675              	.LBE53:
1487:src/wavecom.c ****     SetSmsMode(SMS_PDU_MODE);    // set PDU mode for reading/decoding SMS
1488:src/wavecom.c **** 
1489:src/wavecom.c ****   // send READ command to read every message
1490:src/wavecom.c ****   sprintf(gAtCmdIn, "AT+CMGR=%d\r\n", gGSMData.s_SMSList[aListId].d_idx);
 3676              		.loc 1 1490 0
 3677 0036 3C24     		movs	r4, #60
 3678 0038 2F49     		ldr	r1, .L373+4
 3679 003a 04FB0854 		mla	r4, r4, r8, r5
 3680 003e 2F48     		ldr	r0, .L373+8
 3681 0040 04F58944 		add	r4, r4, #17536
 3682 0044 2268     		ldr	r2, [r4]
 3683 0046 FFF7FEFF 		bl	sprintf
ARM GAS  C:\Users\AHMED~1.ELE\AppData\Local\Temp\ccAQ67OG.s 			page 101


 3684              	.LVL435:
1491:src/wavecom.c ****   if (!SendWaitRsp(gAtCmdIn, WAIT_OK))
 3685              		.loc 1 1491 0
 3686 004a 2C48     		ldr	r0, .L373+8
 3687 004c 0221     		movs	r1, #2
 3688 004e FFF7FEFF 		bl	SendWaitRsp
 3689              	.LVL436:
 3690 0052 08B9     		cbnz	r0, .L359
 3691              	.L361:
1492:src/wavecom.c ****     return FALSE;
 3692              		.loc 1 1492 0
 3693 0054 0024     		movs	r4, #0
 3694 0056 48E0     		b	.L360
 3695              	.L359:
1493:src/wavecom.c **** 
1494:src/wavecom.c ****   // find status info from each message
1495:src/wavecom.c ****   ptr = strstr((char const *)gAtCmdOut, "+CMGR:");
 3696              		.loc 1 1495 0
 3697 0058 2948     		ldr	r0, .L373+12
 3698 005a 2A49     		ldr	r1, .L373+16
 3699 005c FFF7FEFF 		bl	strstr
 3700              	.LVL437:
1496:src/wavecom.c ****   if (ptr == NULL)
 3701              		.loc 1 1496 0
 3702 0060 8346     		mov	fp, r0
 3703 0062 0028     		cmp	r0, #0
 3704 0064 F6D0     		beq	.L361
1497:src/wavecom.c ****     return FALSE;
1498:src/wavecom.c **** 
1499:src/wavecom.c ****   // change status from UNREAD to READ
1500:src/wavecom.c ****   if (gGSMData.s_SMSList[aListId].b_status == REC_UNREAD)
 3705              		.loc 1 1500 0
 3706 0066 94F83A30 		ldrb	r3, [r4, #58]	@ zero_extendqisi2
 3707 006a 3834     		adds	r4, r4, #56
 3708 006c 0BB9     		cbnz	r3, .L362
1501:src/wavecom.c ****     gGSMData.s_SMSList[aListId].b_status = REC_READ;
 3709              		.loc 1 1501 0
 3710 006e 0123     		movs	r3, #1
 3711 0070 A370     		strb	r3, [r4, #2]
 3712              	.L362:
1502:src/wavecom.c **** 
1503:src/wavecom.c ****   mptr = strchr(ptr, '\n');
 3713              		.loc 1 1503 0
 3714 0072 5846     		mov	r0, fp
 3715              	.LVL438:
 3716 0074 0A21     		movs	r1, #10
 3717 0076 FFF7FEFF 		bl	strchr
 3718              	.LVL439:
1504:src/wavecom.c ****   if (mptr == NULL)
 3719              		.loc 1 1504 0
 3720 007a 0028     		cmp	r0, #0
 3721 007c EAD0     		beq	.L361
1505:src/wavecom.c ****     return FALSE;
1506:src/wavecom.c **** 
1507:src/wavecom.c ****   mptr++;
 3722              		.loc 1 1507 0
 3723 007e 441C     		adds	r4, r0, #1
ARM GAS  C:\Users\AHMED~1.ELE\AppData\Local\Temp\ccAQ67OG.s 			page 102


 3724              	.LVL440:
1508:src/wavecom.c ****   len = strlen(gAtCmdOut) - (mptr - ptr);
 3725              		.loc 1 1508 0
 3726 0080 1F48     		ldr	r0, .L373+12
 3727 0082 FFF7FEFF 		bl	strlen
 3728              	.LVL441:
 3729 0086 C4EB0B0B 		rsb	fp, r4, fp
 3730              	.LVL442:
1509:src/wavecom.c ****   strcpy(sms_data.s_str, mptr);
 3731              		.loc 1 1509 0
 3732 008a 2146     		mov	r1, r4
1508:src/wavecom.c ****   len = strlen(gAtCmdOut) - (mptr - ptr);
 3733              		.loc 1 1508 0
 3734 008c 5844     		add	r0, r0, fp
 3735 008e CAF80000 		str	r0, [r10]
 3736              		.loc 1 1509 0
 3737 0092 7068     		ldr	r0, [r6, #4]
 3738 0094 FFF7FEFF 		bl	strcpy
 3739              	.LVL443:
1510:src/wavecom.c ****   if (IOCtlMW(gGprsHandle, IO_GPRS_SMS_DECODE, &sms_data)) {
 3740              		.loc 1 1510 0
 3741 0098 1B4B     		ldr	r3, .L373+20
 3742 009a 0096     		str	r6, [sp]
 3743 009c 0F20     		movs	r0, #15
 3744 009e 1A68     		ldr	r2, [r3]
 3745 00a0 0721     		movs	r1, #7
 3746 00a2 0523     		movs	r3, #5
 3747 00a4 FFF7FEFF 		bl	lib_app_call
 3748              	.LVL444:
 3749 00a8 0028     		cmp	r0, #0
 3750 00aa D3D0     		beq	.L361
1511:src/wavecom.c ****     aMsg->sb_content[0] = sms_pdu.b_tp_udl;
 3751              		.loc 1 1511 0
 3752 00ac 99F84320 		ldrb	r2, [r9, #67]	@ zero_extendqisi2
1512:src/wavecom.c ****     memcpy(&aMsg->sb_content[1], sms_pdu.sb_tp_ud, sms_pdu.b_tp_udl);
 3753              		.loc 1 1512 0
 3754 00b0 1AA9     		add	r1, sp, #104
1511:src/wavecom.c ****     aMsg->sb_content[0] = sms_pdu.b_tp_udl;
 3755              		.loc 1 1511 0
 3756 00b2 87F83B20 		strb	r2, [r7, #59]
 3757              		.loc 1 1512 0
 3758 00b6 07F13C00 		add	r0, r7, #60
 3759 00ba FFF7FEFF 		bl	memcpy
 3760              	.LVL445:
1513:src/wavecom.c ****   }
1514:src/wavecom.c ****   else
1515:src/wavecom.c ****     return FALSE;
1516:src/wavecom.c **** 
1517:src/wavecom.c ****   memcpy(&aMsg->d_idx, &gGSMData.s_SMSList[aListId].d_idx, (BYTE *)&aMsg->b_info-(BYTE *)aMsg);
 3761              		.loc 1 1517 0
 3762 00be 3C21     		movs	r1, #60
 3763 00c0 3846     		mov	r0, r7
 3764 00c2 01FB0851 		mla	r1, r1, r8, r5
 3765 00c6 3A22     		movs	r2, #58
 3766 00c8 01F58941 		add	r1, r1, #17536
 3767 00cc FFF7FEFF 		bl	memcpy
 3768              	.LVL446:
ARM GAS  C:\Users\AHMED~1.ELE\AppData\Local\Temp\ccAQ67OG.s 			page 103


1518:src/wavecom.c ****   aMsg->b_info = sms_pdu.b_tp_dcs;
1519:src/wavecom.c **** 
1520:src/wavecom.c ****   if (gGSMData.b_sms_mode == SMS_TXT_MODE)
 3769              		.loc 1 1520 0
 3770 00d0 95F82C40 		ldrb	r4, [r5, #44]	@ zero_extendqisi2
 3771              	.LVL447:
1518:src/wavecom.c ****   aMsg->b_info = sms_pdu.b_tp_dcs;
 3772              		.loc 1 1518 0
 3773 00d4 99F83430 		ldrb	r3, [r9, #52]	@ zero_extendqisi2
 3774              		.loc 1 1520 0
 3775 00d8 012C     		cmp	r4, #1
1518:src/wavecom.c ****   aMsg->b_info = sms_pdu.b_tp_dcs;
 3776              		.loc 1 1518 0
 3777 00da 87F83A30 		strb	r3, [r7, #58]
 3778              		.loc 1 1520 0
 3779 00de 03D1     		bne	.L363
 3780              	.LVL448:
 3781              	.LBB55:
 3782              	.LBB56:
 3783 00e0 2046     		mov	r0, r4
 3784 00e2 FFF7FEFF 		bl	SetSmsMode.part.1
 3785              	.LVL449:
 3786 00e6 00E0     		b	.L360
 3787              	.LVL450:
 3788              	.L363:
 3789              	.LBE56:
 3790              	.LBE55:
1521:src/wavecom.c ****     SetSmsMode(SMS_TXT_MODE);
1522:src/wavecom.c **** 
1523:src/wavecom.c ****   return TRUE;
 3791              		.loc 1 1523 0
 3792 00e8 0124     		movs	r4, #1
 3793              	.L360:
1524:src/wavecom.c **** }
 3794              		.loc 1 1524 0
 3795 00ea 2046     		mov	r0, r4
 3796 00ec 0DF5037D 		add	sp, sp, #524
 3797              		.cfi_def_cfa_offset 36
 3798              		@ sp needed
 3799 00f0 BDE8F08F 		pop	{r4, r5, r6, r7, r8, r9, r10, fp, pc}
 3800              	.LVL451:
 3801              	.L374:
 3802              		.align	2
 3803              	.L373:
 3804 00f4 00000000 		.word	gGSMData
 3805 00f8 1A020000 		.word	.LC58
 3806 00fc DD050000 		.word	.LANCHOR0+1501
 3807 0100 00000000 		.word	.LANCHOR0
 3808 0104 27020000 		.word	.LC59
 3809 0108 00000000 		.word	gGprsHandle
 3810              		.cfi_endproc
 3811              	.LFE39:
 3812              		.size	ReadSms, .-ReadSms
 3813              		.section	.text.DelSms,"ax",%progbits
 3814              		.align	1
 3815              		.global	DelSms
 3816              		.thumb
ARM GAS  C:\Users\AHMED~1.ELE\AppData\Local\Temp\ccAQ67OG.s 			page 104


 3817              		.thumb_func
 3818              		.type	DelSms, %function
 3819              	DelSms:
 3820              	.LFB40:
1525:src/wavecom.c **** //*****************************************************************************
1526:src/wavecom.c **** //  Function        : DelSms
1527:src/wavecom.c **** //  Description     : Delete SMS from memory
1528:src/wavecom.c **** //  Input           : aIdx:         // SMS index in memory
1529:src/wavecom.c **** //                                  // -1 => Delete All
1530:src/wavecom.c **** //  Return          : None;
1531:src/wavecom.c **** //  Note            : //08-12-06 JC++
1532:src/wavecom.c **** //  Globals Changed : N/A
1533:src/wavecom.c **** //*****************************************************************************
1534:src/wavecom.c **** BOOLEAN DelSms(DWORD aIdx)
1535:src/wavecom.c **** {
 3821              		.loc 1 1535 0
 3822              		.cfi_startproc
 3823              		@ args = 0, pretend = 0, frame = 0
 3824              		@ frame_needed = 0, uses_anonymous_args = 0
 3825              	.LVL452:
 3826 0000 37B5     		push	{r0, r1, r2, r4, r5, lr}
 3827              		.cfi_def_cfa_offset 24
 3828              		.cfi_offset 4, -12
 3829              		.cfi_offset 5, -8
 3830              		.cfi_offset 14, -4
 3831              		.loc 1 1535 0
 3832 0002 0246     		mov	r2, r0
1536:src/wavecom.c ****   if (aIdx != (DWORD) -1)
 3833              		.loc 1 1536 0
 3834 0004 531C     		adds	r3, r2, #1
1537:src/wavecom.c ****     sprintf(gAtCmdIn, "AT+CMGD=%d\r\n", aIdx);
 3835              		.loc 1 1537 0
 3836 0006 1B48     		ldr	r0, .L384
 3837              	.LVL453:
1536:src/wavecom.c ****   if (aIdx != (DWORD) -1)
 3838              		.loc 1 1536 0
 3839 0008 03D0     		beq	.L376
 3840              		.loc 1 1537 0
 3841 000a 1B49     		ldr	r1, .L384+4
 3842 000c FFF7FEFF 		bl	sprintf
 3843              	.LVL454:
 3844 0010 02E0     		b	.L377
 3845              	.LVL455:
 3846              	.L376:
1538:src/wavecom.c ****   else
1539:src/wavecom.c **** #if (T800)      
1540:src/wavecom.c ****     sprintf(gAtCmdIn, "AT+CMGD=1,4\r\n", aIdx);
1541:src/wavecom.c **** #else  
1542:src/wavecom.c ****     sprintf(gAtCmdIn, "AT+CMGD=0,4\r\n");
 3847              		.loc 1 1542 0
 3848 0012 1A49     		ldr	r1, .L384+8
 3849 0014 FFF7FEFF 		bl	strcpy
 3850              	.LVL456:
 3851              	.L377:
1543:src/wavecom.c **** #endif    
1544:src/wavecom.c **** 
1545:src/wavecom.c ****   ClearCmdBuf();
ARM GAS  C:\Users\AHMED~1.ELE\AppData\Local\Temp\ccAQ67OG.s 			page 105


 3852              		.loc 1 1545 0
 3853 0018 FFF7FEFF 		bl	ClearCmdBuf
 3854              	.LVL457:
1546:src/wavecom.c ****   if (!SendWaitRsp(gAtCmdIn, WAIT_OK)) {
 3855              		.loc 1 1546 0
 3856 001c 1548     		ldr	r0, .L384
 3857 001e 0221     		movs	r1, #2
 3858 0020 FFF7FEFF 		bl	SendWaitRsp
 3859              	.LVL458:
 3860 0024 0446     		mov	r4, r0
 3861 0026 08BB     		cbnz	r0, .L380
 3862              	.LVL459:
 3863              	.LBB57:
1547:src/wavecom.c ****     DispLineMW("Del ERR!", MW_LINE8, MW_SPFONT);
 3864              		.loc 1 1547 0
 3865 0028 9220     		movs	r0, #146
 3866 002a 0921     		movs	r1, #9
 3867 002c FFF7FEFF 		bl	sys_func1
 3868              	.LVL460:
 3869 0030 0546     		mov	r5, r0
 3870 0032 90B1     		cbz	r0, .L379
 3871              		.loc 1 1547 0 is_stmt 0 discriminator 1
 3872 0034 1249     		ldr	r1, .L384+12
 3873 0036 0822     		movs	r2, #8
 3874 0038 FFF7FEFF 		bl	memcpy
 3875              	.LVL461:
 3876 003c 4FF40053 		mov	r3, #8192
 3877 0040 2C72     		strb	r4, [r5, #8]
 3878 0042 2521     		movs	r1, #37
 3879 0044 0093     		str	r3, [sp]
 3880 0046 0F20     		movs	r0, #15
 3881 0048 2A46     		mov	r2, r5
 3882 004a 4FF40063 		mov	r3, #2048
 3883 004e FFF7FEFF 		bl	lib_app_call
 3884              	.LVL462:
 3885 0052 9420     		movs	r0, #148
 3886 0054 2946     		mov	r1, r5
 3887 0056 FFF7FEFF 		bl	sys_func1
 3888              	.LVL463:
 3889              	.L379:
 3890              	.LBE57:
1548:src/wavecom.c ****     APM_WaitKey(KBD_TIMEOUT, 0);
 3891              		.loc 1 1548 0 is_stmt 1
 3892 005a 0023     		movs	r3, #0
 3893 005c 0321     		movs	r1, #3
 3894 005e 0093     		str	r3, [sp]
 3895 0060 42F22832 		movw	r2, #9000
 3896 0064 1020     		movs	r0, #16
 3897 0066 FFF7FEFF 		bl	lib_app_call
 3898              	.LVL464:
1549:src/wavecom.c ****     return FALSE;
 3899              		.loc 1 1549 0
 3900 006a 00E0     		b	.L378
 3901              	.LVL465:
 3902              	.L380:
1550:src/wavecom.c ****   }
1551:src/wavecom.c **** 
ARM GAS  C:\Users\AHMED~1.ELE\AppData\Local\Temp\ccAQ67OG.s 			page 106


1552:src/wavecom.c ****   return TRUE;
 3903              		.loc 1 1552 0
 3904 006c 0124     		movs	r4, #1
 3905              	.L378:
1553:src/wavecom.c **** }
 3906              		.loc 1 1553 0
 3907 006e 2046     		mov	r0, r4
 3908 0070 03B0     		add	sp, sp, #12
 3909              		.cfi_def_cfa_offset 12
 3910              		@ sp needed
 3911 0072 30BD     		pop	{r4, r5, pc}
 3912              	.L385:
 3913              		.align	2
 3914              	.L384:
 3915 0074 DD050000 		.word	.LANCHOR0+1501
 3916 0078 56020000 		.word	.LC64
 3917 007c 63020000 		.word	.LC65
 3918 0080 71020000 		.word	.LC66
 3919              		.cfi_endproc
 3920              	.LFE40:
 3921              		.size	DelSms, .-DelSms
 3922              		.section	.text.SmsSend,"ax",%progbits
 3923              		.align	1
 3924              		.global	SmsSend
 3925              		.thumb
 3926              		.thumb_func
 3927              		.type	SmsSend, %function
 3928              	SmsSend:
 3929              	.LFB41:
1554:src/wavecom.c **** //*****************************************************************************
1555:src/wavecom.c **** //  Function        : SmsSend
1556:src/wavecom.c **** //  Description     : Send out the SMS message.
1557:src/wavecom.c **** //  Input           : aTel;       // pointer to telephone string.
1558:src/wavecom.c **** //                    aMsg;       // pointer SMS message buf
1559:src/wavecom.c **** //                    aLen;       // SMS message buffer len;
1560:src/wavecom.c **** //  Return          : TRUE/FALSE;
1561:src/wavecom.c **** //  Note            : N/A
1562:src/wavecom.c **** //  Globals Changed : N/A
1563:src/wavecom.c **** //*****************************************************************************
1564:src/wavecom.c **** BOOLEAN SmsSend(BYTE *aTel, BYTE *aMsg, DWORD aLen)
1565:src/wavecom.c **** {
 3930              		.loc 1 1565 0
 3931              		.cfi_startproc
 3932              		@ args = 0, pretend = 0, frame = 512
 3933              		@ frame_needed = 0, uses_anonymous_args = 0
 3934              	.LVL466:
 3935 0000 2DE9F043 		push	{r4, r5, r6, r7, r8, r9, lr}
 3936              		.cfi_def_cfa_offset 28
 3937              		.cfi_offset 4, -28
 3938              		.cfi_offset 5, -24
 3939              		.cfi_offset 6, -20
 3940              		.cfi_offset 7, -16
 3941              		.cfi_offset 8, -12
 3942              		.cfi_offset 9, -8
 3943              		.cfi_offset 14, -4
 3944 0004 ADF5037D 		sub	sp, sp, #524
 3945              		.cfi_def_cfa_offset 552
ARM GAS  C:\Users\AHMED~1.ELE\AppData\Local\Temp\ccAQ67OG.s 			page 107


1566:src/wavecom.c ****   struct SMS_PDU sms_pdu;
1567:src/wavecom.c ****   BYTE tmpstr[256];
1568:src/wavecom.c ****   DWORD len;
1569:src/wavecom.c ****   struct GPRSSMSDATA sms_data;
1570:src/wavecom.c **** 
1571:src/wavecom.c ****   sms_data.s_pdu = &sms_pdu;
 3946              		.loc 1 1571 0
 3947 0008 03AE     		add	r6, sp, #12
1572:src/wavecom.c ****   sms_data.s_str = tmpstr;
 3948              		.loc 1 1572 0
 3949 000a 42AB     		add	r3, sp, #264
1571:src/wavecom.c ****   sms_data.s_str = tmpstr;
 3950              		.loc 1 1571 0
 3951 000c 09AC     		add	r4, sp, #36
 3952              		.loc 1 1572 0
 3953 000e 7360     		str	r3, [r6, #4]
1573:src/wavecom.c ****   sms_data.d_len = &len;  
 3954              		.loc 1 1573 0
 3955 0010 02AB     		add	r3, sp, #8
1574:src/wavecom.c ****   sms_data.d_dest = MW_SMS_DEST;
1575:src/wavecom.c ****   sms_data.d_text_mode = SMS_PDU_MODE;
 3956              		.loc 1 1575 0
 3957 0012 0025     		movs	r5, #0
1573:src/wavecom.c ****   sms_data.d_len = &len;  
 3958              		.loc 1 1573 0
 3959 0014 B360     		str	r3, [r6, #8]
1574:src/wavecom.c ****   sms_data.d_dest = MW_SMS_DEST;
 3960              		.loc 1 1574 0
 3961 0016 5323     		movs	r3, #83
1565:src/wavecom.c ****   struct SMS_PDU sms_pdu;
 3962              		.loc 1 1565 0
 3963 0018 8146     		mov	r9, r0
 3964 001a 8846     		mov	r8, r1
 3965 001c 1746     		mov	r7, r2
1571:src/wavecom.c ****   sms_data.s_str = tmpstr;
 3966              		.loc 1 1571 0
 3967 001e 3460     		str	r4, [r6]
1574:src/wavecom.c ****   sms_data.d_dest = MW_SMS_DEST;
 3968              		.loc 1 1574 0
 3969 0020 7361     		str	r3, [r6, #20]
 3970              		.loc 1 1575 0
 3971 0022 3561     		str	r5, [r6, #16]
1576:src/wavecom.c **** 
1577:src/wavecom.c ****   if ((strlen(aTel) > sizeof(sms_pdu.s_tp_a.sb_addr)) 
 3972              		.loc 1 1577 0
 3973 0024 FFF7FEFF 		bl	strlen
 3974              	.LVL467:
 3975 0028 1428     		cmp	r0, #20
 3976 002a 3AD8     		bhi	.L393
1578:src/wavecom.c ****       || (aLen > sizeof(sms_pdu.sb_tp_ud))) { // tel no or msg too long
 3977              		.loc 1 1578 0
 3978 002c A02F     		cmp	r7, #160
 3979 002e 38D8     		bhi	.L393
1579:src/wavecom.c ****     return FALSE;
1580:src/wavecom.c ****   }
1581:src/wavecom.c ****   sms_pdu.s_smsc.b_len = 0;
1582:src/wavecom.c ****   if (gGSMData.b_sms_mode == SMS_PDU_MODE) {
ARM GAS  C:\Users\AHMED~1.ELE\AppData\Local\Temp\ccAQ67OG.s 			page 108


 3980              		.loc 1 1582 0
 3981 0030 1E4B     		ldr	r3, .L396
1581:src/wavecom.c ****   if (gGSMData.b_sms_mode == SMS_PDU_MODE) {
 3982              		.loc 1 1581 0
 3983 0032 2570     		strb	r5, [r4]
 3984              		.loc 1 1582 0
 3985 0034 93F82C30 		ldrb	r3, [r3, #44]	@ zero_extendqisi2
 3986 0038 99F80050 		ldrb	r5, [r9]	@ zero_extendqisi2
 3987 003c 53B9     		cbnz	r3, .L388
1583:src/wavecom.c ****     sms_pdu.b_tp_flags    = SMS_TP_MTI_SMS_SUBMIT;
 3988              		.loc 1 1583 0
 3989 003e 0122     		movs	r2, #1
1584:src/wavecom.c ****     sms_pdu.b_tp_pid      = 0;               // Short Message
 3990              		.loc 1 1584 0
 3991 0040 84F83230 		strb	r3, [r4, #50]
1585:src/wavecom.c ****     //sms_pdu.b_tp_dcs      = 0x04;            // 8 bit coding
1586:src/wavecom.c ****     sms_pdu.b_tp_dcs      = 0;               // 7 bit coding
 3992              		.loc 1 1586 0
 3993 0044 84F83430 		strb	r3, [r4, #52]
1587:src/wavecom.c ****     sms_pdu.s_tp_a.b_type = (aTel[0]=='+')? 0x91:0x81;     // international or unknown mode
 3994              		.loc 1 1587 0
 3995 0048 2B2D     		cmp	r5, #43
 3996 004a 0CBF     		ite	eq
 3997 004c 9123     		moveq	r3, #145
 3998 004e 8123     		movne	r3, #129
1583:src/wavecom.c ****     sms_pdu.b_tp_pid      = 0;               // Short Message
 3999              		.loc 1 1583 0
 4000 0050 E275     		strb	r2, [r4, #23]
 4001              		.loc 1 1587 0
 4002 0052 6376     		strb	r3, [r4, #25]
 4003              	.L388:
1588:src/wavecom.c ****   }
1589:src/wavecom.c ****   sms_pdu.s_tp_a.b_len = strlen(aTel);
 4004              		.loc 1 1589 0
 4005 0054 4846     		mov	r0, r9
 4006 0056 FFF7FEFF 		bl	strlen
 4007              	.LVL468:
1590:src/wavecom.c ****   if (aTel[0] == '+') {
 4008              		.loc 1 1590 0
 4009 005a 2B2D     		cmp	r5, #43
1591:src/wavecom.c ****     sms_pdu.s_tp_a.b_len -= 1;
1592:src/wavecom.c ****     memcpy(sms_pdu.s_tp_a.sb_addr, &aTel[1], sms_pdu.s_tp_a.b_len);
 4010              		.loc 1 1592 0
 4011 005c 0CBF     		ite	eq
 4012 005e 09F10101 		addeq	r1, r9, #1
1593:src/wavecom.c ****   }
1594:src/wavecom.c ****   else
1595:src/wavecom.c ****     memcpy(sms_pdu.s_tp_a.sb_addr, aTel, sms_pdu.s_tp_a.b_len);
 4013              		.loc 1 1595 0
 4014 0062 4946     		movne	r1, r9
1589:src/wavecom.c ****   if (aTel[0] == '+') {
 4015              		.loc 1 1589 0
 4016 0064 C2B2     		uxtb	r2, r0
1592:src/wavecom.c ****   }
 4017              		.loc 1 1592 0
 4018 0066 08BF     		it	eq
 4019 0068 0DF13E00 		addeq	r0, sp, #62
ARM GAS  C:\Users\AHMED~1.ELE\AppData\Local\Temp\ccAQ67OG.s 			page 109


1589:src/wavecom.c ****   if (aTel[0] == '+') {
 4020              		.loc 1 1589 0
 4021 006c 2276     		strb	r2, [r4, #24]
1591:src/wavecom.c ****     memcpy(sms_pdu.s_tp_a.sb_addr, &aTel[1], sms_pdu.s_tp_a.b_len);
 4022              		.loc 1 1591 0
 4023 006e 09BF     		itett	eq
 4024 0070 02F1FF32 		addeq	r2, r2, #-1
 4025              		.loc 1 1595 0
 4026 0074 0DF13E00 		addne	r0, sp, #62
1591:src/wavecom.c ****     memcpy(sms_pdu.s_tp_a.sb_addr, &aTel[1], sms_pdu.s_tp_a.b_len);
 4027              		.loc 1 1591 0
 4028 0078 D2B2     		uxtbeq	r2, r2
 4029 007a 2276     		strbeq	r2, [r4, #24]
 4030              		.loc 1 1595 0
 4031 007c FFF7FEFF 		bl	memcpy
 4032              	.LVL469:
1596:src/wavecom.c **** 
1597:src/wavecom.c **** 
1598:src/wavecom.c ****   sms_pdu.b_tp_udl = (BYTE) aLen;
1599:src/wavecom.c ****   memcpy(sms_pdu.sb_tp_ud, aMsg, sms_pdu.b_tp_udl);
 4033              		.loc 1 1599 0
 4034 0080 4146     		mov	r1, r8
 4035 0082 3A46     		mov	r2, r7
 4036 0084 1AA8     		add	r0, sp, #104
1598:src/wavecom.c ****   memcpy(sms_pdu.sb_tp_ud, aMsg, sms_pdu.b_tp_udl);
 4037              		.loc 1 1598 0
 4038 0086 84F84370 		strb	r7, [r4, #67]
 4039              		.loc 1 1599 0
 4040 008a FFF7FEFF 		bl	memcpy
 4041              	.LVL470:
1600:src/wavecom.c ****   return IOCtlMW(gGprsHandle, IO_GPRS_SMS_SEND, &sms_data);
 4042              		.loc 1 1600 0
 4043 008e 084B     		ldr	r3, .L396+4
 4044 0090 0721     		movs	r1, #7
 4045 0092 0096     		str	r6, [sp]
 4046 0094 0F20     		movs	r0, #15
 4047 0096 1A68     		ldr	r2, [r3]
 4048 0098 0B46     		mov	r3, r1
 4049 009a FFF7FEFF 		bl	lib_app_call
 4050              	.LVL471:
 4051 009e C0B2     		uxtb	r0, r0
 4052 00a0 00E0     		b	.L387
 4053              	.L393:
1579:src/wavecom.c ****   }
 4054              		.loc 1 1579 0
 4055 00a2 2846     		mov	r0, r5
 4056              	.L387:
1601:src/wavecom.c **** //#if (T800)
1602:src/wavecom.c **** //  return os_gprs_sms_send(gGSMData.b_sms_mode, &gSmsPdu, K_SmsDestination);
1603:src/wavecom.c **** //#else
1604:src/wavecom.c **** //  return os_gprs_sms_send(&sms_pdu, (gGSMData.b_sms_mode << 4));
1605:src/wavecom.c **** //#endif  
1606:src/wavecom.c **** }
 4057              		.loc 1 1606 0
 4058 00a4 0DF5037D 		add	sp, sp, #524
 4059              		.cfi_def_cfa_offset 28
 4060              		@ sp needed
ARM GAS  C:\Users\AHMED~1.ELE\AppData\Local\Temp\ccAQ67OG.s 			page 110


 4061 00a8 BDE8F083 		pop	{r4, r5, r6, r7, r8, r9, pc}
 4062              	.LVL472:
 4063              	.L397:
 4064              		.align	2
 4065              	.L396:
 4066 00ac 00000000 		.word	gGSMData
 4067 00b0 00000000 		.word	gGprsHandle
 4068              		.cfi_endproc
 4069              	.LFE41:
 4070              		.size	SmsSend, .-SmsSend
 4071              		.section	.text.ModuleInit,"ax",%progbits
 4072              		.align	1
 4073              		.global	ModuleInit
 4074              		.thumb
 4075              		.thumb_func
 4076              		.type	ModuleInit, %function
 4077              	ModuleInit:
 4078              	.LFB42:
1607:src/wavecom.c **** //*****************************************************************************
1608:src/wavecom.c **** //  Function        : ModuleInit
1609:src/wavecom.c **** //  Description     : Initialize of the Module
1610:src/wavecom.c **** //  Input           : None;
1611:src/wavecom.c **** //  Return          : TRUE/FALSE;
1612:src/wavecom.c **** //  Note            : - Caller ID Enable = TRUE;
1613:src/wavecom.c **** //                    - SMS in PDU Mode
1614:src/wavecom.c **** //                    - SMS new indication = FALSE;
1615:src/wavecom.c **** //  Globals Changed : N/A
1616:src/wavecom.c **** //*****************************************************************************
1617:src/wavecom.c **** BOOLEAN ModuleInit(void)
1618:src/wavecom.c **** {
 4079              		.loc 1 1618 0
 4080              		.cfi_startproc
 4081              		@ args = 0, pretend = 0, frame = 0
 4082              		@ frame_needed = 0, uses_anonymous_args = 0
 4083 0000 13B5     		push	{r0, r1, r4, lr}
 4084              		.cfi_def_cfa_offset 16
 4085              		.cfi_offset 4, -8
 4086              		.cfi_offset 14, -4
1619:src/wavecom.c ****   // SMS enable
1620:src/wavecom.c ****   IOCtlMW(gGprsHandle, IO_GPRS_SMS_ENB, FALSE);
 4087              		.loc 1 1620 0
 4088 0002 0B4B     		ldr	r3, .L399
 4089 0004 0024     		movs	r4, #0
 4090 0006 0721     		movs	r1, #7
 4091 0008 0094     		str	r4, [sp]
 4092 000a 0F20     		movs	r0, #15
 4093 000c 1A68     		ldr	r2, [r3]
 4094 000e 0A23     		movs	r3, #10
 4095 0010 FFF7FEFF 		bl	lib_app_call
 4096              	.LVL473:
1621:src/wavecom.c ****   
1622:src/wavecom.c ****   // Get Operator Name
1623:src/wavecom.c ****   gGSMData.sb_optr_name[0]=0;
 4097              		.loc 1 1623 0
 4098 0014 0748     		ldr	r0, .L399+4
1624:src/wavecom.c ****   GetOptrName(gGSMData.sb_optr_name, OPTR_NAME_SIZE);
 4099              		.loc 1 1624 0
ARM GAS  C:\Users\AHMED~1.ELE\AppData\Local\Temp\ccAQ67OG.s 			page 111


 4100 0016 1421     		movs	r1, #20
1623:src/wavecom.c ****   GetOptrName(gGSMData.sb_optr_name, OPTR_NAME_SIZE);
 4101              		.loc 1 1623 0
 4102 0018 00F8044F 		strb	r4, [r0, #4]!
 4103              		.loc 1 1624 0
 4104 001c FFF7FEFF 		bl	GetOptrName
 4105              	.LVL474:
 4106              	.LBB60:
 4107              	.LBB61:
 4108 0020 2046     		mov	r0, r4
 4109 0022 FFF7FEFF 		bl	SetSmsMode.part.1
 4110              	.LVL475:
 4111              	.LBE61:
 4112              	.LBE60:
1625:src/wavecom.c ****   // Set PDU mode as default, 22-01-09 ++ Jason ++
1626:src/wavecom.c ****   if (!SetSmsMode(SMS_PDU_MODE))
1627:src/wavecom.c ****     return FALSE;
1628:src/wavecom.c **** 
1629:src/wavecom.c ****   return TRUE;
1630:src/wavecom.c **** }
 4113              		.loc 1 1630 0
 4114 0026 001B     		subs	r0, r0, r4
 4115 0028 18BF     		it	ne
 4116 002a 0120     		movne	r0, #1
 4117 002c 02B0     		add	sp, sp, #8
 4118              		.cfi_def_cfa_offset 8
 4119              		@ sp needed
 4120 002e 10BD     		pop	{r4, pc}
 4121              	.L400:
 4122              		.align	2
 4123              	.L399:
 4124 0030 00000000 		.word	gGprsHandle
 4125 0034 00000000 		.word	gGSMData
 4126              		.cfi_endproc
 4127              	.LFE42:
 4128              		.size	ModuleInit, .-ModuleInit
 4129              		.comm	gGSMData,23756,4
 4130              		.section	.rodata
 4131              		.align	2
 4132              		.set	.LANCHOR1,. + 0
 4133              	.LC0:
 4134 0000 43524547 		.ascii	"CREG\000"
 4134      00
 4135 0005 00       		.space	1
 4136 0006 43475245 		.ascii	"CGREG\000"
 4136      4700
 4137              		.type	KBookID, %object
 4138              		.size	KBookID, 16
 4139              	KBookID:
 4140 000c 7A020000 		.word	.LC67
 4141 0010 7D020000 		.word	.LC68
 4142 0014 80020000 		.word	.LC69
 4143 0018 83020000 		.word	.LC70
 4144              		.type	CSWTCH.85, %object
 4145              		.size	CSWTCH.85, 19
 4146              	CSWTCH.85:
 4147 001c 05       		.byte	5
ARM GAS  C:\Users\AHMED~1.ELE\AppData\Local\Temp\ccAQ67OG.s 			page 112


 4148 001d 02       		.byte	2
 4149 001e 00       		.byte	0
 4150 001f 00       		.byte	0
 4151 0020 00       		.byte	0
 4152 0021 00       		.byte	0
 4153 0022 00       		.byte	0
 4154 0023 00       		.byte	0
 4155 0024 00       		.byte	0
 4156 0025 00       		.byte	0
 4157 0026 00       		.byte	0
 4158 0027 00       		.byte	0
 4159 0028 00       		.byte	0
 4160 0029 00       		.byte	0
 4161 002a 00       		.byte	0
 4162 002b 00       		.byte	0
 4163 002c 03       		.byte	3
 4164 002d 03       		.byte	3
 4165 002e 03       		.byte	3
 4166 002f 00       		.section	.rodata.str1.1,"aMS",%progbits,1
 4167              	.LC1:
 4168 0000 4F4B00   		.ascii	"OK\000"
 4169              	.LC2:
 4170 0003 4552524F 		.ascii	"ERROR\000"
 4170      5200
 4171              	.LC3:
 4172 0009 41542B43 		.ascii	"AT+CMGF=0\015\012\000"
 4172      4D47463D 
 4172      300D0A00 
 4173              	.LC4:
 4174 0015 41542B43 		.ascii	"AT+CPIN?\015\012\000"
 4174      50494E3F 
 4174      0D0A00
 4175              	.LC5:
 4176 0020 4350494E 		.ascii	"CPIN\000"
 4176      00
 4177              	.LC6:
 4178 0025 41542B25 		.ascii	"AT+%s=1\015\012\000"
 4178      733D310D 
 4178      0A00
 4179              	.LC7:
 4180 002f 41542B25 		.ascii	"AT+%s?\015\012\000"
 4180      733F0D0A 
 4180      00
 4181              	.LC8:
 4182 0038 41542B43 		.ascii	"AT+CGATT=1\015\012\000"
 4182      47415454 
 4182      3D310D0A 
 4182      00
 4183              	.LC9:
 4184 0045 41542B43 		.ascii	"AT+CPBS?\015\012\000"
 4184      5042533F 
 4184      0D0A00
 4185              	.LC10:
 4186 0050 2B435042 		.ascii	"+CPBS:\000"
 4186      533A00
 4187              	.LC11:
 4188 0057 41542B43 		.ascii	"AT+CPBR=%d\015\012\000"
ARM GAS  C:\Users\AHMED~1.ELE\AppData\Local\Temp\ccAQ67OG.s 			page 113


 4188      5042523D 
 4188      25640D0A 
 4188      00
 4189              	.LC12:
 4190 0064 2B435042 		.ascii	"+CPBR:\000"
 4190      523A00
 4191              	.LC13:
 4192 006b 41542B43 		.ascii	"AT+CPBS=\"%s\"\015\012\000"
 4192      5042533D 
 4192      22257322 
 4192      0D0A00
 4193              	.LC14:
 4194 007a 41542B43 		.ascii	"AT+CPBF=?\015\012\000"
 4194      5042463D 
 4194      3F0D0A00 
 4195              	.LC15:
 4196 0086 2B435042 		.ascii	"+CPBF:\000"
 4196      463A00
 4197              	.LC16:
 4198 008d 41542B43 		.ascii	"AT+CPBW=%d,\"\000"
 4198      5042573D 
 4198      25642C22 
 4198      00
 4199              	.LC17:
 4200 009a 41542B43 		.ascii	"AT+CPBW=,\"\000"
 4200      5042573D 
 4200      2C2200
 4201              	.LC18:
 4202 00a5 222C3132 		.ascii	"\",129,\"\000"
 4202      392C2200 
 4203              	.LC19:
 4204 00ad 220D0A00 		.ascii	"\"\015\012\000"
 4205              	.LC20:
 4206 00b1 41542B43 		.ascii	"AT+CPBW=%d\015\012\000"
 4206      5042573D 
 4206      25640D0A 
 4206      00
 4207              	.LC21:
 4208 00be 41542B43 		.ascii	"AT+CCFC=0,4\015\012\000"
 4208      4346433D 
 4208      302C340D 
 4208      0A00
 4209              	.LC22:
 4210 00cc 41542B43 		.ascii	"AT+CCFC=0,3,\"%s\"\015\012\000"
 4210      4346433D 
 4210      302C332C 
 4210      22257322 
 4210      0D0A00
 4211              	.LC23:
 4212 00df 41544400 		.ascii	"ATD\000"
 4213              	.LC24:
 4214 00e3 3B0D0A00 		.ascii	";\015\012\000"
 4215              	.LC25:
 4216 00e7 0D0A00   		.ascii	"\015\012\000"
 4217              	.LC26:
 4218 00ea 53746174 		.ascii	"Status:%04X\000"
 4218      75733A25 
ARM GAS  C:\Users\AHMED~1.ELE\AppData\Local\Temp\ccAQ67OG.s 			page 114


 4218      30345800 
 4219              	.LC27:
 4220 00f6 4154410D 		.ascii	"ATA\015\012\000"
 4220      0A00
 4221              	.LC28:
 4222 00fc 4154480D 		.ascii	"ATH\015\012\000"
 4222      0A00
 4223              	.LC29:
 4224 0102 4E4F2043 		.ascii	"NO CARRIER\000"
 4224      41525249 
 4224      455200
 4225              	.LC30:
 4226 010d 41542B56 		.ascii	"AT+VG%c?\015\012\000"
 4226      4725633F 
 4226      0D0A00
 4227              	.LC31:
 4228 0118 41542B56 		.ascii	"AT+VG%c=%d\015\012\000"
 4228      4725633D 
 4228      25640D0A 
 4228      00
 4229              	.LC32:
 4230 0125 41542B43 		.ascii	"AT+COPS?\015\012\000"
 4230      4F50533F 
 4230      0D0A00
 4231              	.LC33:
 4232 0130 2B434F50 		.ascii	"+COPS:\000"
 4232      533A00
 4233              	.LC34:
 4234 0137 41542B43 		.ascii	"AT+CMEE=1\000"
 4234      4D45453D 
 4234      3100
 4235              	.LC35:
 4236 0141 41542B43 		.ascii	"AT+CLCK=\"%s\",%s,%s\015\007\000"
 4236      4C434B3D 
 4236      22257322 
 4236      2C25732C 
 4236      25730D07 
 4237              	.LC36:
 4238 0156 534300   		.ascii	"SC\000"
 4239              	.LC37:
 4240 0159 3100     		.ascii	"1\000"
 4241              	.LC38:
 4242 015b 3000     		.ascii	"0\000"
 4243              	.LC39:
 4244 015d 35313500 		.ascii	"515\000"
 4245              	.LC40:
 4246 0161 41542B43 		.ascii	"AT+CMEE=0\000"
 4246      4D45453D 
 4246      3000
 4247              	.LC41:
 4248 016b 41542B43 		.ascii	"AT+CPIN?\015\000"
 4248      50494E3F 
 4248      0D00
 4249              	.LC42:
 4250 0175 52454144 		.ascii	"READY\000"
 4250      5900
 4251              	.LC43:
ARM GAS  C:\Users\AHMED~1.ELE\AppData\Local\Temp\ccAQ67OG.s 			page 115


 4252 017b 50554B32 		.ascii	"PUK2\000"
 4252      00
 4253              	.LC44:
 4254 0180 50554B00 		.ascii	"PUK\000"
 4255              	.LC45:
 4256 0184 50494E32 		.ascii	"PIN2\000"
 4256      00
 4257              	.LC46:
 4258 0189 50494E00 		.ascii	"PIN\000"
 4259              	.LC47:
 4260 018d 41542B43 		.ascii	"AT+CPIN=\"%s\"\015\012\000"
 4260      50494E3D 
 4260      22257322 
 4260      0D0A00
 4261              	.LC48:
 4262 019c 41542B43 		.ascii	"AT+CPIN2=\"%s\"\015\012\000"
 4262      50494E32 
 4262      3D222573 
 4262      220D0A00 
 4263              	.LC49:
 4264 01ac 41542B43 		.ascii	"AT+CPWD=\"%s\",%s,%s\015\000"
 4264      5057443D 
 4264      22257322 
 4264      2C25732C 
 4264      25730D00 
 4265              	.LC50:
 4266 01c0 503200   		.ascii	"P2\000"
 4267              	.LC51:
 4268 01c3 41542B43 		.ascii	"AT+CNMI=0,1,1,1,0\015\012\000"
 4268      4E4D493D 
 4268      302C312C 
 4268      312C312C 
 4268      300D0A00 
 4269              	.LC52:
 4270 01d7 41542B43 		.ascii	"AT+CNMI=0,0,0,0,0\015\012\000"
 4270      4E4D493D 
 4270      302C302C 
 4270      302C302C 
 4270      300D0A00 
 4271              	.LC53:
 4272 01eb 41542B43 		.ascii	"AT+CMGF?\015\012\000"
 4272      4D47463F 
 4272      0D0A00
 4273              	.LC54:
 4274 01f6 2B434D47 		.ascii	"+CMGF: 0\000"
 4274      463A2030 
 4274      00
 4275              	.LC55:
 4276 01ff 2B434D47 		.ascii	"+CMGF: 1\000"
 4276      463A2031 
 4276      00
 4277              	.LC56:
 4278 0208 41542B43 		.ascii	"AT+CPMS?\015\012\000"
 4278      504D533F 
 4278      0D0A00
 4279              	.LC57:
 4280 0213 2B43504D 		.ascii	"+CPMS:\000"
ARM GAS  C:\Users\AHMED~1.ELE\AppData\Local\Temp\ccAQ67OG.s 			page 116


 4280      533A00
 4281              	.LC58:
 4282 021a 41542B43 		.ascii	"AT+CMGR=%d\015\012\000"
 4282      4D47523D 
 4282      25640D0A 
 4282      00
 4283              	.LC59:
 4284 0227 2B434D47 		.ascii	"+CMGR:\000"
 4284      523A00
 4285              	.LC60:
 4286 022e 52454320 		.ascii	"REC UNREAD\000"
 4286      554E5245 
 4286      414400
 4287              	.LC61:
 4288 0239 52454320 		.ascii	"REC READ\000"
 4288      52454144 
 4288      00
 4289              	.LC62:
 4290 0242 53544F20 		.ascii	"STO UNSENT\000"
 4290      554E5345 
 4290      4E5400
 4291              	.LC63:
 4292 024d 53544F20 		.ascii	"STO SENT\000"
 4292      53454E54 
 4292      00
 4293              	.LC64:
 4294 0256 41542B43 		.ascii	"AT+CMGD=%d\015\012\000"
 4294      4D47443D 
 4294      25640D0A 
 4294      00
 4295              	.LC65:
 4296 0263 41542B43 		.ascii	"AT+CMGD=0,4\015\012\000"
 4296      4D47443D 
 4296      302C340D 
 4296      0A00
 4297              	.LC66:
 4298 0271 44656C20 		.ascii	"Del ERR!\000"
 4298      45525221 
 4298      00
 4299              	.LC67:
 4300 027a 534D00   		.ascii	"SM\000"
 4301              	.LC68:
 4302 027d 4D4300   		.ascii	"MC\000"
 4303              	.LC69:
 4304 0280 4C4400   		.ascii	"LD\000"
 4305              	.LC70:
 4306 0283 524300   		.ascii	"RC\000"
 4307              		.bss
 4308              		.set	.LANCHOR0,. + 0
 4309              		.type	gAtCmdOut, %object
 4310              		.size	gAtCmdOut, 1501
 4311              	gAtCmdOut:
 4312 0000 00000000 		.space	1501
 4312      00000000 
 4312      00000000 
 4312      00000000 
 4312      00000000 
ARM GAS  C:\Users\AHMED~1.ELE\AppData\Local\Temp\ccAQ67OG.s 			page 117


 4313              		.type	gAtCmdIn, %object
 4314              		.size	gAtCmdIn, 1501
 4315              	gAtCmdIn:
 4316 05dd 00000000 		.space	1501
 4316      00000000 
 4316      00000000 
 4316      00000000 
 4316      00000000 
 4317              		.text
 4318              	.Letext0:
 4319              		.file 2 "c:\\devtools\\gcc_v49_2014q4\\lib\\gcc\\arm-none-eabi\\4.9.3\\include\\stddef.h"
 4320              		.file 3 "../LibA5T1000/common.h"
 4321              		.file 4 "../LibA5T1000/System.h"
 4322              		.file 5 "../LibA5T1000/midware.h"
 4323              		.file 6 "../LibA5T1000/apm.h"
 4324              		.file 7 "src/wavecom.h"
 4325              		.file 8 "src/hardware.h"
 4326              		.file 9 "c:\\devtools\\gcc_v49_2014q4\\arm-none-eabi\\include\\string.h"
 4327              		.file 10 "c:\\devtools\\gcc_v49_2014q4\\arm-none-eabi\\include\\stdio.h"
 4328              		.file 11 "../LibA5T1000/util.h"
 4329              		.file 12 "<built-in>"
 4330              		.section	.debug_info,"",%progbits
 4331              	.Ldebug_info0:
 4332 0000 E13F0000 		.4byte	0x3fe1
 4333 0004 0400     		.2byte	0x4
 4334 0006 00000000 		.4byte	.Ldebug_abbrev0
 4335 000a 04       		.byte	0x4
 4336 000b 01       		.uleb128 0x1
 4337 000c 78160000 		.4byte	.LASF821
 4338 0010 01       		.byte	0x1
 4339 0011 EA0F0000 		.4byte	.LASF822
 4340 0015 AC320000 		.4byte	.LASF823
 4341 0019 48000000 		.4byte	.Ldebug_ranges0+0x48
 4342 001d 00000000 		.4byte	0
 4343 0021 00000000 		.4byte	.Ldebug_line0
 4344 0025 02       		.uleb128 0x2
 4345 0026 01       		.byte	0x1
 4346 0027 06       		.byte	0x6
 4347 0028 6B2D0000 		.4byte	.LASF0
 4348 002c 02       		.uleb128 0x2
 4349 002d 01       		.byte	0x1
 4350 002e 08       		.byte	0x8
 4351 002f 24210000 		.4byte	.LASF1
 4352 0033 02       		.uleb128 0x2
 4353 0034 02       		.byte	0x2
 4354 0035 05       		.byte	0x5
 4355 0036 982A0000 		.4byte	.LASF2
 4356 003a 02       		.uleb128 0x2
 4357 003b 02       		.byte	0x2
 4358 003c 07       		.byte	0x7
 4359 003d DC300000 		.4byte	.LASF3
 4360 0041 02       		.uleb128 0x2
 4361 0042 04       		.byte	0x4
 4362 0043 05       		.byte	0x5
 4363 0044 4A080000 		.4byte	.LASF4
 4364 0048 02       		.uleb128 0x2
 4365 0049 04       		.byte	0x4
ARM GAS  C:\Users\AHMED~1.ELE\AppData\Local\Temp\ccAQ67OG.s 			page 118


 4366 004a 07       		.byte	0x7
 4367 004b 66150000 		.4byte	.LASF5
 4368 004f 02       		.uleb128 0x2
 4369 0050 08       		.byte	0x8
 4370 0051 05       		.byte	0x5
 4371 0052 0A1A0000 		.4byte	.LASF6
 4372 0056 02       		.uleb128 0x2
 4373 0057 08       		.byte	0x8
 4374 0058 07       		.byte	0x7
 4375 0059 D6240000 		.4byte	.LASF7
 4376 005d 03       		.uleb128 0x3
 4377 005e 04       		.byte	0x4
 4378 005f 05       		.byte	0x5
 4379 0060 696E7400 		.ascii	"int\000"
 4380 0064 02       		.uleb128 0x2
 4381 0065 04       		.byte	0x4
 4382 0066 07       		.byte	0x7
 4383 0067 831D0000 		.4byte	.LASF8
 4384 006b 04       		.uleb128 0x4
 4385 006c CA000000 		.4byte	.LASF11
 4386 0070 02       		.byte	0x2
 4387 0071 D4       		.byte	0xd4
 4388 0072 64000000 		.4byte	0x64
 4389 0076 05       		.uleb128 0x5
 4390 0077 04       		.byte	0x4
 4391 0078 02       		.uleb128 0x2
 4392 0079 04       		.byte	0x4
 4393 007a 07       		.byte	0x7
 4394 007b E1000000 		.4byte	.LASF9
 4395 007f 06       		.uleb128 0x6
 4396 0080 04       		.byte	0x4
 4397 0081 85000000 		.4byte	0x85
 4398 0085 02       		.uleb128 0x2
 4399 0086 01       		.byte	0x1
 4400 0087 06       		.byte	0x6
 4401 0088 2B000000 		.4byte	.LASF10
 4402 008c 06       		.uleb128 0x6
 4403 008d 04       		.byte	0x4
 4404 008e 92000000 		.4byte	0x92
 4405 0092 07       		.uleb128 0x7
 4406 0093 85000000 		.4byte	0x85
 4407 0097 04       		.uleb128 0x4
 4408 0098 DB0F0000 		.4byte	.LASF12
 4409 009c 03       		.byte	0x3
 4410 009d 0D       		.byte	0xd
 4411 009e 2C000000 		.4byte	0x2c
 4412 00a2 04       		.uleb128 0x4
 4413 00a3 D0060000 		.4byte	.LASF13
 4414 00a7 03       		.byte	0x3
 4415 00a8 0E       		.byte	0xe
 4416 00a9 2C000000 		.4byte	0x2c
 4417 00ad 04       		.uleb128 0x4
 4418 00ae CB200000 		.4byte	.LASF14
 4419 00b2 03       		.byte	0x3
 4420 00b3 0F       		.byte	0xf
 4421 00b4 3A000000 		.4byte	0x3a
 4422 00b8 04       		.uleb128 0x4
ARM GAS  C:\Users\AHMED~1.ELE\AppData\Local\Temp\ccAQ67OG.s 			page 119


 4423 00b9 35300000 		.4byte	.LASF15
 4424 00bd 03       		.byte	0x3
 4425 00be 10       		.byte	0x10
 4426 00bf 64000000 		.4byte	0x64
 4427 00c3 06       		.uleb128 0x6
 4428 00c4 04       		.byte	0x4
 4429 00c5 A2000000 		.4byte	0xa2
 4430 00c9 08       		.uleb128 0x8
 4431 00ca A2000000 		.4byte	0xa2
 4432 00ce D9000000 		.4byte	0xd9
 4433 00d2 09       		.uleb128 0x9
 4434 00d3 78000000 		.4byte	0x78
 4435 00d7 FF       		.byte	0xff
 4436 00d8 00       		.byte	0
 4437 00d9 08       		.uleb128 0x8
 4438 00da A2000000 		.4byte	0xa2
 4439 00de E9000000 		.4byte	0xe9
 4440 00e2 09       		.uleb128 0x9
 4441 00e3 78000000 		.4byte	0x78
 4442 00e7 1F       		.byte	0x1f
 4443 00e8 00       		.byte	0
 4444 00e9 08       		.uleb128 0x8
 4445 00ea A2000000 		.4byte	0xa2
 4446 00ee F9000000 		.4byte	0xf9
 4447 00f2 09       		.uleb128 0x9
 4448 00f3 78000000 		.4byte	0x78
 4449 00f7 0F       		.byte	0xf
 4450 00f8 00       		.byte	0
 4451 00f9 0A       		.uleb128 0xa
 4452 00fa D1130000 		.4byte	.LASF489
 4453 00fe 02       		.byte	0x2
 4454 00ff 04       		.byte	0x4
 4455 0100 9A04     		.2byte	0x49a
 4456 0102 B60D0000 		.4byte	0xdb6
 4457 0106 0B       		.uleb128 0xb
 4458 0107 CF320000 		.4byte	.LASF16
 4459 010b 00       		.sleb128 0
 4460 010c 0B       		.uleb128 0xb
 4461 010d DF150000 		.4byte	.LASF17
 4462 0111 01       		.sleb128 1
 4463 0112 0B       		.uleb128 0xb
 4464 0113 9F190000 		.4byte	.LASF18
 4465 0117 02       		.sleb128 2
 4466 0118 0B       		.uleb128 0xb
 4467 0119 210C0000 		.4byte	.LASF19
 4468 011d 03       		.sleb128 3
 4469 011e 0B       		.uleb128 0xb
 4470 011f FB0B0000 		.4byte	.LASF20
 4471 0123 04       		.sleb128 4
 4472 0124 0B       		.uleb128 0xb
 4473 0125 20220000 		.4byte	.LASF21
 4474 0129 05       		.sleb128 5
 4475 012a 0B       		.uleb128 0xb
 4476 012b 370F0000 		.4byte	.LASF22
 4477 012f 06       		.sleb128 6
 4478 0130 0B       		.uleb128 0xb
 4479 0131 61240000 		.4byte	.LASF23
ARM GAS  C:\Users\AHMED~1.ELE\AppData\Local\Temp\ccAQ67OG.s 			page 120


 4480 0135 07       		.sleb128 7
 4481 0136 0B       		.uleb128 0xb
 4482 0137 E5170000 		.4byte	.LASF24
 4483 013b 08       		.sleb128 8
 4484 013c 0B       		.uleb128 0xb
 4485 013d 371B0000 		.4byte	.LASF25
 4486 0141 09       		.sleb128 9
 4487 0142 0B       		.uleb128 0xb
 4488 0143 A22F0000 		.4byte	.LASF26
 4489 0147 0A       		.sleb128 10
 4490 0148 0B       		.uleb128 0xb
 4491 0149 90270000 		.4byte	.LASF27
 4492 014d 0B       		.sleb128 11
 4493 014e 0B       		.uleb128 0xb
 4494 014f 7C030000 		.4byte	.LASF28
 4495 0153 0C       		.sleb128 12
 4496 0154 0B       		.uleb128 0xb
 4497 0155 3A220000 		.4byte	.LASF29
 4498 0159 0D       		.sleb128 13
 4499 015a 0B       		.uleb128 0xb
 4500 015b BA0D0000 		.4byte	.LASF30
 4501 015f 0E       		.sleb128 14
 4502 0160 0B       		.uleb128 0xb
 4503 0161 32330000 		.4byte	.LASF31
 4504 0165 0F       		.sleb128 15
 4505 0166 0B       		.uleb128 0xb
 4506 0167 46190000 		.4byte	.LASF32
 4507 016b 10       		.sleb128 16
 4508 016c 0B       		.uleb128 0xb
 4509 016d 2B280000 		.4byte	.LASF33
 4510 0171 11       		.sleb128 17
 4511 0172 0B       		.uleb128 0xb
 4512 0173 35110000 		.4byte	.LASF34
 4513 0177 12       		.sleb128 18
 4514 0178 0B       		.uleb128 0xb
 4515 0179 62280000 		.4byte	.LASF35
 4516 017d 13       		.sleb128 19
 4517 017e 0B       		.uleb128 0xb
 4518 017f 140A0000 		.4byte	.LASF36
 4519 0183 14       		.sleb128 20
 4520 0184 0B       		.uleb128 0xb
 4521 0185 2C1A0000 		.4byte	.LASF37
 4522 0189 15       		.sleb128 21
 4523 018a 0B       		.uleb128 0xb
 4524 018b 240A0000 		.4byte	.LASF38
 4525 018f 16       		.sleb128 22
 4526 0190 0B       		.uleb128 0xb
 4527 0191 EC0A0000 		.4byte	.LASF39
 4528 0195 17       		.sleb128 23
 4529 0196 0B       		.uleb128 0xb
 4530 0197 940A0000 		.4byte	.LASF40
 4531 019b 18       		.sleb128 24
 4532 019c 0B       		.uleb128 0xb
 4533 019d 80210000 		.4byte	.LASF41
 4534 01a1 19       		.sleb128 25
 4535 01a2 0B       		.uleb128 0xb
 4536 01a3 480A0000 		.4byte	.LASF42
ARM GAS  C:\Users\AHMED~1.ELE\AppData\Local\Temp\ccAQ67OG.s 			page 121


 4537 01a7 1A       		.sleb128 26
 4538 01a8 0B       		.uleb128 0xb
 4539 01a9 BF0A0000 		.4byte	.LASF43
 4540 01ad 1B       		.sleb128 27
 4541 01ae 0B       		.uleb128 0xb
 4542 01af E2210000 		.4byte	.LASF44
 4543 01b3 1C       		.sleb128 28
 4544 01b4 0B       		.uleb128 0xb
 4545 01b5 471D0000 		.4byte	.LASF45
 4546 01b9 1D       		.sleb128 29
 4547 01ba 0B       		.uleb128 0xb
 4548 01bb 64330000 		.4byte	.LASF46
 4549 01bf 1E       		.sleb128 30
 4550 01c0 0B       		.uleb128 0xb
 4551 01c1 60090000 		.4byte	.LASF47
 4552 01c5 1F       		.sleb128 31
 4553 01c6 0B       		.uleb128 0xb
 4554 01c7 78150000 		.4byte	.LASF48
 4555 01cb 20       		.sleb128 32
 4556 01cc 0B       		.uleb128 0xb
 4557 01cd 42040000 		.4byte	.LASF49
 4558 01d1 21       		.sleb128 33
 4559 01d2 0B       		.uleb128 0xb
 4560 01d3 B5200000 		.4byte	.LASF50
 4561 01d7 22       		.sleb128 34
 4562 01d8 0B       		.uleb128 0xb
 4563 01d9 681B0000 		.4byte	.LASF51
 4564 01dd 23       		.sleb128 35
 4565 01de 0B       		.uleb128 0xb
 4566 01df 720C0000 		.4byte	.LASF52
 4567 01e3 24       		.sleb128 36
 4568 01e4 0B       		.uleb128 0xb
 4569 01e5 21120000 		.4byte	.LASF53
 4570 01e9 25       		.sleb128 37
 4571 01ea 0B       		.uleb128 0xb
 4572 01eb 3B2D0000 		.4byte	.LASF54
 4573 01ef 26       		.sleb128 38
 4574 01f0 0B       		.uleb128 0xb
 4575 01f1 C81B0000 		.4byte	.LASF55
 4576 01f5 27       		.sleb128 39
 4577 01f6 0B       		.uleb128 0xb
 4578 01f7 DE020000 		.4byte	.LASF56
 4579 01fb 28       		.sleb128 40
 4580 01fc 0B       		.uleb128 0xb
 4581 01fd 23240000 		.4byte	.LASF57
 4582 0201 29       		.sleb128 41
 4583 0202 0B       		.uleb128 0xb
 4584 0203 201C0000 		.4byte	.LASF58
 4585 0207 2A       		.sleb128 42
 4586 0208 0B       		.uleb128 0xb
 4587 0209 861C0000 		.4byte	.LASF59
 4588 020d 2B       		.sleb128 43
 4589 020e 0B       		.uleb128 0xb
 4590 020f 53100000 		.4byte	.LASF60
 4591 0213 2C       		.sleb128 44
 4592 0214 0B       		.uleb128 0xb
 4593 0215 460D0000 		.4byte	.LASF61
ARM GAS  C:\Users\AHMED~1.ELE\AppData\Local\Temp\ccAQ67OG.s 			page 122


 4594 0219 2D       		.sleb128 45
 4595 021a 0B       		.uleb128 0xb
 4596 021b C22D0000 		.4byte	.LASF62
 4597 021f 2E       		.sleb128 46
 4598 0220 0B       		.uleb128 0xb
 4599 0221 3D310000 		.4byte	.LASF63
 4600 0225 2F       		.sleb128 47
 4601 0226 0B       		.uleb128 0xb
 4602 0227 FD2A0000 		.4byte	.LASF64
 4603 022b 30       		.sleb128 48
 4604 022c 0B       		.uleb128 0xb
 4605 022d E62F0000 		.4byte	.LASF65
 4606 0231 31       		.sleb128 49
 4607 0232 0B       		.uleb128 0xb
 4608 0233 B6260000 		.4byte	.LASF66
 4609 0237 32       		.sleb128 50
 4610 0238 0B       		.uleb128 0xb
 4611 0239 C62F0000 		.4byte	.LASF67
 4612 023d 33       		.sleb128 51
 4613 023e 0B       		.uleb128 0xb
 4614 023f BE270000 		.4byte	.LASF68
 4615 0243 34       		.sleb128 52
 4616 0244 0B       		.uleb128 0xb
 4617 0245 AA0D0000 		.4byte	.LASF69
 4618 0249 35       		.sleb128 53
 4619 024a 0B       		.uleb128 0xb
 4620 024b FB050000 		.4byte	.LASF70
 4621 024f 36       		.sleb128 54
 4622 0250 0B       		.uleb128 0xb
 4623 0251 A61A0000 		.4byte	.LASF71
 4624 0255 37       		.sleb128 55
 4625 0256 0B       		.uleb128 0xb
 4626 0257 9C330000 		.4byte	.LASF72
 4627 025b 38       		.sleb128 56
 4628 025c 0B       		.uleb128 0xb
 4629 025d 84300000 		.4byte	.LASF73
 4630 0261 39       		.sleb128 57
 4631 0262 0B       		.uleb128 0xb
 4632 0263 29260000 		.4byte	.LASF74
 4633 0267 3A       		.sleb128 58
 4634 0268 0B       		.uleb128 0xb
 4635 0269 23050000 		.4byte	.LASF75
 4636 026d 3B       		.sleb128 59
 4637 026e 0B       		.uleb128 0xb
 4638 026f CF310000 		.4byte	.LASF76
 4639 0273 3C       		.sleb128 60
 4640 0274 0B       		.uleb128 0xb
 4641 0275 4A220000 		.4byte	.LASF77
 4642 0279 3D       		.sleb128 61
 4643 027a 0B       		.uleb128 0xb
 4644 027b 002E0000 		.4byte	.LASF78
 4645 027f 3E       		.sleb128 62
 4646 0280 0B       		.uleb128 0xb
 4647 0281 1B2A0000 		.4byte	.LASF79
 4648 0285 3F       		.sleb128 63
 4649 0286 0B       		.uleb128 0xb
 4650 0287 752A0000 		.4byte	.LASF80
ARM GAS  C:\Users\AHMED~1.ELE\AppData\Local\Temp\ccAQ67OG.s 			page 123


 4651 028b C000     		.sleb128 64
 4652 028d 0B       		.uleb128 0xb
 4653 028e 00020000 		.4byte	.LASF81
 4654 0292 C100     		.sleb128 65
 4655 0294 0B       		.uleb128 0xb
 4656 0295 81320000 		.4byte	.LASF82
 4657 0299 C200     		.sleb128 66
 4658 029b 0B       		.uleb128 0xb
 4659 029c 131C0000 		.4byte	.LASF83
 4660 02a0 C300     		.sleb128 67
 4661 02a2 0B       		.uleb128 0xb
 4662 02a3 E2230000 		.4byte	.LASF84
 4663 02a7 C400     		.sleb128 68
 4664 02a9 0B       		.uleb128 0xb
 4665 02aa F80F0000 		.4byte	.LASF85
 4666 02ae C500     		.sleb128 69
 4667 02b0 0B       		.uleb128 0xb
 4668 02b1 88140000 		.4byte	.LASF86
 4669 02b5 C600     		.sleb128 70
 4670 02b7 0B       		.uleb128 0xb
 4671 02b8 0A260000 		.4byte	.LASF87
 4672 02bc C700     		.sleb128 71
 4673 02be 0B       		.uleb128 0xb
 4674 02bf 1D0B0000 		.4byte	.LASF88
 4675 02c3 C800     		.sleb128 72
 4676 02c5 0B       		.uleb128 0xb
 4677 02c6 0C1F0000 		.4byte	.LASF89
 4678 02ca C900     		.sleb128 73
 4679 02cc 0B       		.uleb128 0xb
 4680 02cd BF300000 		.4byte	.LASF90
 4681 02d1 CA00     		.sleb128 74
 4682 02d3 0B       		.uleb128 0xb
 4683 02d4 85310000 		.4byte	.LASF91
 4684 02d8 CB00     		.sleb128 75
 4685 02da 0B       		.uleb128 0xb
 4686 02db FE060000 		.4byte	.LASF92
 4687 02df CC00     		.sleb128 76
 4688 02e1 0B       		.uleb128 0xb
 4689 02e2 E51E0000 		.4byte	.LASF93
 4690 02e6 CD00     		.sleb128 77
 4691 02e8 0B       		.uleb128 0xb
 4692 02e9 85050000 		.4byte	.LASF94
 4693 02ed CE00     		.sleb128 78
 4694 02ef 0B       		.uleb128 0xb
 4695 02f0 AA060000 		.4byte	.LASF95
 4696 02f4 CF00     		.sleb128 79
 4697 02f6 0B       		.uleb128 0xb
 4698 02f7 972F0000 		.4byte	.LASF96
 4699 02fb D000     		.sleb128 80
 4700 02fd 0B       		.uleb128 0xb
 4701 02fe FA280000 		.4byte	.LASF97
 4702 0302 D100     		.sleb128 81
 4703 0304 0B       		.uleb128 0xb
 4704 0305 431C0000 		.4byte	.LASF98
 4705 0309 D200     		.sleb128 82
 4706 030b 0B       		.uleb128 0xb
 4707 030c E6120000 		.4byte	.LASF99
ARM GAS  C:\Users\AHMED~1.ELE\AppData\Local\Temp\ccAQ67OG.s 			page 124


 4708 0310 D300     		.sleb128 83
 4709 0312 0B       		.uleb128 0xb
 4710 0313 55330000 		.4byte	.LASF100
 4711 0317 D400     		.sleb128 84
 4712 0319 0B       		.uleb128 0xb
 4713 031a B5230000 		.4byte	.LASF101
 4714 031e D500     		.sleb128 85
 4715 0320 0B       		.uleb128 0xb
 4716 0321 2A060000 		.4byte	.LASF102
 4717 0325 D600     		.sleb128 86
 4718 0327 0B       		.uleb128 0xb
 4719 0328 4E310000 		.4byte	.LASF103
 4720 032c D700     		.sleb128 87
 4721 032e 0B       		.uleb128 0xb
 4722 032f 46140000 		.4byte	.LASF104
 4723 0333 D800     		.sleb128 88
 4724 0335 0B       		.uleb128 0xb
 4725 0336 A22A0000 		.4byte	.LASF105
 4726 033a D900     		.sleb128 89
 4727 033c 0B       		.uleb128 0xb
 4728 033d 18260000 		.4byte	.LASF106
 4729 0341 DA00     		.sleb128 90
 4730 0343 0B       		.uleb128 0xb
 4731 0344 48230000 		.4byte	.LASF107
 4732 0348 DB00     		.sleb128 91
 4733 034a 0B       		.uleb128 0xb
 4734 034b 10090000 		.4byte	.LASF108
 4735 034f DC00     		.sleb128 92
 4736 0351 0B       		.uleb128 0xb
 4737 0352 0B050000 		.4byte	.LASF109
 4738 0356 DD00     		.sleb128 93
 4739 0358 0B       		.uleb128 0xb
 4740 0359 7E060000 		.4byte	.LASF110
 4741 035d DE00     		.sleb128 94
 4742 035f 0B       		.uleb128 0xb
 4743 0360 9D080000 		.4byte	.LASF111
 4744 0364 DF00     		.sleb128 95
 4745 0366 0B       		.uleb128 0xb
 4746 0367 F31F0000 		.4byte	.LASF112
 4747 036b E000     		.sleb128 96
 4748 036d 0B       		.uleb128 0xb
 4749 036e 2A2C0000 		.4byte	.LASF113
 4750 0372 E100     		.sleb128 97
 4751 0374 0B       		.uleb128 0xb
 4752 0375 BE2B0000 		.4byte	.LASF114
 4753 0379 E200     		.sleb128 98
 4754 037b 0B       		.uleb128 0xb
 4755 037c D0210000 		.4byte	.LASF115
 4756 0380 E300     		.sleb128 99
 4757 0382 0B       		.uleb128 0xb
 4758 0383 292D0000 		.4byte	.LASF116
 4759 0387 E400     		.sleb128 100
 4760 0389 0B       		.uleb128 0xb
 4761 038a 39200000 		.4byte	.LASF117
 4762 038e E500     		.sleb128 101
 4763 0390 0B       		.uleb128 0xb
 4764 0391 3C020000 		.4byte	.LASF118
ARM GAS  C:\Users\AHMED~1.ELE\AppData\Local\Temp\ccAQ67OG.s 			page 125


 4765 0395 E600     		.sleb128 102
 4766 0397 0B       		.uleb128 0xb
 4767 0398 EF060000 		.4byte	.LASF119
 4768 039c E700     		.sleb128 103
 4769 039e 0B       		.uleb128 0xb
 4770 039f 82190000 		.4byte	.LASF120
 4771 03a3 E800     		.sleb128 104
 4772 03a5 0B       		.uleb128 0xb
 4773 03a6 C2060000 		.4byte	.LASF121
 4774 03aa E900     		.sleb128 105
 4775 03ac 0B       		.uleb128 0xb
 4776 03ad 6A140000 		.4byte	.LASF122
 4777 03b1 EA00     		.sleb128 106
 4778 03b3 0B       		.uleb128 0xb
 4779 03b4 FB2B0000 		.4byte	.LASF123
 4780 03b8 EB00     		.sleb128 107
 4781 03ba 0B       		.uleb128 0xb
 4782 03bb 392A0000 		.4byte	.LASF124
 4783 03bf EC00     		.sleb128 108
 4784 03c1 0B       		.uleb128 0xb
 4785 03c2 BA1C0000 		.4byte	.LASF125
 4786 03c6 ED00     		.sleb128 109
 4787 03c8 0B       		.uleb128 0xb
 4788 03c9 3D0C0000 		.4byte	.LASF126
 4789 03cd EE00     		.sleb128 110
 4790 03cf 0B       		.uleb128 0xb
 4791 03d0 D31E0000 		.4byte	.LASF127
 4792 03d4 EF00     		.sleb128 111
 4793 03d6 0B       		.uleb128 0xb
 4794 03d7 EE180000 		.4byte	.LASF128
 4795 03db F000     		.sleb128 112
 4796 03dd 0B       		.uleb128 0xb
 4797 03de 8C030000 		.4byte	.LASF129
 4798 03e2 F100     		.sleb128 113
 4799 03e4 0B       		.uleb128 0xb
 4800 03e5 AA1F0000 		.4byte	.LASF130
 4801 03e9 F200     		.sleb128 114
 4802 03eb 0B       		.uleb128 0xb
 4803 03ec F3250000 		.4byte	.LASF131
 4804 03f0 F300     		.sleb128 115
 4805 03f2 0B       		.uleb128 0xb
 4806 03f3 700A0000 		.4byte	.LASF132
 4807 03f7 F400     		.sleb128 116
 4808 03f9 0B       		.uleb128 0xb
 4809 03fa ED2C0000 		.4byte	.LASF133
 4810 03fe F500     		.sleb128 117
 4811 0400 0B       		.uleb128 0xb
 4812 0401 E82D0000 		.4byte	.LASF134
 4813 0405 F600     		.sleb128 118
 4814 0407 0B       		.uleb128 0xb
 4815 0408 560D0000 		.4byte	.LASF135
 4816 040c F700     		.sleb128 119
 4817 040e 0B       		.uleb128 0xb
 4818 040f BF0C0000 		.4byte	.LASF136
 4819 0413 F800     		.sleb128 120
 4820 0415 0B       		.uleb128 0xb
 4821 0416 760E0000 		.4byte	.LASF137
ARM GAS  C:\Users\AHMED~1.ELE\AppData\Local\Temp\ccAQ67OG.s 			page 126


 4822 041a F900     		.sleb128 121
 4823 041c 0B       		.uleb128 0xb
 4824 041d 181A0000 		.4byte	.LASF138
 4825 0421 FA00     		.sleb128 122
 4826 0423 0B       		.uleb128 0xb
 4827 0424 582E0000 		.4byte	.LASF139
 4828 0428 FB00     		.sleb128 123
 4829 042a 0B       		.uleb128 0xb
 4830 042b 8E180000 		.4byte	.LASF140
 4831 042f FC00     		.sleb128 124
 4832 0431 0B       		.uleb128 0xb
 4833 0432 512A0000 		.4byte	.LASF141
 4834 0436 FD00     		.sleb128 125
 4835 0438 0B       		.uleb128 0xb
 4836 0439 AC0B0000 		.4byte	.LASF142
 4837 043d FE00     		.sleb128 126
 4838 043f 0B       		.uleb128 0xb
 4839 0440 66130000 		.4byte	.LASF143
 4840 0444 FF00     		.sleb128 127
 4841 0446 0B       		.uleb128 0xb
 4842 0447 22290000 		.4byte	.LASF144
 4843 044b 8001     		.sleb128 128
 4844 044d 0B       		.uleb128 0xb
 4845 044e 67080000 		.4byte	.LASF145
 4846 0452 8101     		.sleb128 129
 4847 0454 0B       		.uleb128 0xb
 4848 0455 B6030000 		.4byte	.LASF146
 4849 0459 8201     		.sleb128 130
 4850 045b 0B       		.uleb128 0xb
 4851 045c 07230000 		.4byte	.LASF147
 4852 0460 8301     		.sleb128 131
 4853 0462 0B       		.uleb128 0xb
 4854 0463 A2270000 		.4byte	.LASF148
 4855 0467 8401     		.sleb128 132
 4856 0469 0B       		.uleb128 0xb
 4857 046a 26110000 		.4byte	.LASF149
 4858 046e 8501     		.sleb128 133
 4859 0470 0B       		.uleb128 0xb
 4860 0471 700B0000 		.4byte	.LASF150
 4861 0475 8601     		.sleb128 134
 4862 0477 0B       		.uleb128 0xb
 4863 0478 990D0000 		.4byte	.LASF151
 4864 047c 8701     		.sleb128 135
 4865 047e 0B       		.uleb128 0xb
 4866 047f 2E070000 		.4byte	.LASF152
 4867 0483 8801     		.sleb128 136
 4868 0485 0B       		.uleb128 0xb
 4869 0486 6F110000 		.4byte	.LASF153
 4870 048a 8901     		.sleb128 137
 4871 048c 0B       		.uleb128 0xb
 4872 048d 630B0000 		.4byte	.LASF154
 4873 0491 8A01     		.sleb128 138
 4874 0493 0B       		.uleb128 0xb
 4875 0494 C5280000 		.4byte	.LASF155
 4876 0498 8B01     		.sleb128 139
 4877 049a 0B       		.uleb128 0xb
 4878 049b 732F0000 		.4byte	.LASF156
ARM GAS  C:\Users\AHMED~1.ELE\AppData\Local\Temp\ccAQ67OG.s 			page 127


 4879 049f 8C01     		.sleb128 140
 4880 04a1 0B       		.uleb128 0xb
 4881 04a2 A21B0000 		.4byte	.LASF157
 4882 04a6 8D01     		.sleb128 141
 4883 04a8 0B       		.uleb128 0xb
 4884 04a9 9F230000 		.4byte	.LASF158
 4885 04ad 8E01     		.sleb128 142
 4886 04af 0B       		.uleb128 0xb
 4887 04b0 8D100000 		.4byte	.LASF159
 4888 04b4 8F01     		.sleb128 143
 4889 04b6 0B       		.uleb128 0xb
 4890 04b7 A7150000 		.4byte	.LASF160
 4891 04bb 9001     		.sleb128 144
 4892 04bd 0B       		.uleb128 0xb
 4893 04be 8B2E0000 		.4byte	.LASF161
 4894 04c2 9101     		.sleb128 145
 4895 04c4 0B       		.uleb128 0xb
 4896 04c5 89220000 		.4byte	.LASF162
 4897 04c9 9201     		.sleb128 146
 4898 04cb 0B       		.uleb128 0xb
 4899 04cc 582C0000 		.4byte	.LASF163
 4900 04d0 9301     		.sleb128 147
 4901 04d2 0B       		.uleb128 0xb
 4902 04d3 CC190000 		.4byte	.LASF164
 4903 04d7 9401     		.sleb128 148
 4904 04d9 0B       		.uleb128 0xb
 4905 04da 55190000 		.4byte	.LASF165
 4906 04de 9501     		.sleb128 149
 4907 04e0 0B       		.uleb128 0xb
 4908 04e1 8C0B0000 		.4byte	.LASF166
 4909 04e5 9601     		.sleb128 150
 4910 04e7 0B       		.uleb128 0xb
 4911 04e8 49120000 		.4byte	.LASF167
 4912 04ec 9701     		.sleb128 151
 4913 04ee 0B       		.uleb128 0xb
 4914 04ef BB190000 		.4byte	.LASF168
 4915 04f3 9801     		.sleb128 152
 4916 04f5 0B       		.uleb128 0xb
 4917 04f6 11020000 		.4byte	.LASF169
 4918 04fa 9901     		.sleb128 153
 4919 04fc 0B       		.uleb128 0xb
 4920 04fd 971C0000 		.4byte	.LASF170
 4921 0501 9A01     		.sleb128 154
 4922 0503 0B       		.uleb128 0xb
 4923 0504 F5220000 		.4byte	.LASF171
 4924 0508 9B01     		.sleb128 155
 4925 050a 0B       		.uleb128 0xb
 4926 050b 42330000 		.4byte	.LASF172
 4927 050f 9C01     		.sleb128 156
 4928 0511 0B       		.uleb128 0xb
 4929 0512 D1000000 		.4byte	.LASF173
 4930 0516 9D01     		.sleb128 157
 4931 0518 0B       		.uleb128 0xb
 4932 0519 56130000 		.4byte	.LASF174
 4933 051d 9E01     		.sleb128 158
 4934 051f 0B       		.uleb128 0xb
 4935 0520 D10C0000 		.4byte	.LASF175
ARM GAS  C:\Users\AHMED~1.ELE\AppData\Local\Temp\ccAQ67OG.s 			page 128


 4936 0524 9F01     		.sleb128 159
 4937 0526 0B       		.uleb128 0xb
 4938 0527 9C0B0000 		.4byte	.LASF176
 4939 052b A001     		.sleb128 160
 4940 052d 0B       		.uleb128 0xb
 4941 052e 161E0000 		.4byte	.LASF177
 4942 0532 A101     		.sleb128 161
 4943 0534 0B       		.uleb128 0xb
 4944 0535 5B220000 		.4byte	.LASF178
 4945 0539 A201     		.sleb128 162
 4946 053b 0B       		.uleb128 0xb
 4947 053c 9D050000 		.4byte	.LASF179
 4948 0540 A301     		.sleb128 163
 4949 0542 0B       		.uleb128 0xb
 4950 0543 12250000 		.4byte	.LASF180
 4951 0547 A401     		.sleb128 164
 4952 0549 0B       		.uleb128 0xb
 4953 054a AF090000 		.4byte	.LASF181
 4954 054e A501     		.sleb128 165
 4955 0550 0B       		.uleb128 0xb
 4956 0551 52030000 		.4byte	.LASF182
 4957 0555 A601     		.sleb128 166
 4958 0557 0B       		.uleb128 0xb
 4959 0558 1A1F0000 		.4byte	.LASF183
 4960 055c A701     		.sleb128 167
 4961 055e 0B       		.uleb128 0xb
 4962 055f 331D0000 		.4byte	.LASF184
 4963 0563 A801     		.sleb128 168
 4964 0565 0B       		.uleb128 0xb
 4965 0566 64060000 		.4byte	.LASF185
 4966 056a A901     		.sleb128 169
 4967 056c 0B       		.uleb128 0xb
 4968 056d 1B180000 		.4byte	.LASF186
 4969 0571 AA01     		.sleb128 170
 4970 0573 0B       		.uleb128 0xb
 4971 0574 05220000 		.4byte	.LASF187
 4972 0578 AB01     		.sleb128 171
 4973 057a 0B       		.uleb128 0xb
 4974 057b 6C2E0000 		.4byte	.LASF188
 4975 057f AC01     		.sleb128 172
 4976 0581 0B       		.uleb128 0xb
 4977 0582 A7040000 		.4byte	.LASF189
 4978 0586 AD01     		.sleb128 173
 4979 0588 0B       		.uleb128 0xb
 4980 0589 FD180000 		.4byte	.LASF190
 4981 058d AE01     		.sleb128 174
 4982 058f 0B       		.uleb128 0xb
 4983 0590 89290000 		.4byte	.LASF191
 4984 0594 AF01     		.sleb128 175
 4985 0596 0B       		.uleb128 0xb
 4986 0597 F11C0000 		.4byte	.LASF192
 4987 059b B001     		.sleb128 176
 4988 059d 0B       		.uleb128 0xb
 4989 059e 9E000000 		.4byte	.LASF193
 4990 05a2 B101     		.sleb128 177
 4991 05a4 0B       		.uleb128 0xb
 4992 05a5 33190000 		.4byte	.LASF194
ARM GAS  C:\Users\AHMED~1.ELE\AppData\Local\Temp\ccAQ67OG.s 			page 129


 4993 05a9 B201     		.sleb128 178
 4994 05ab 0B       		.uleb128 0xb
 4995 05ac 622F0000 		.4byte	.LASF195
 4996 05b0 B301     		.sleb128 179
 4997 05b2 0B       		.uleb128 0xb
 4998 05b3 1D070000 		.4byte	.LASF196
 4999 05b7 B401     		.sleb128 180
 5000 05b9 0B       		.uleb128 0xb
 5001 05ba 5E310000 		.4byte	.LASF197
 5002 05be B501     		.sleb128 181
 5003 05c0 0B       		.uleb128 0xb
 5004 05c1 AA070000 		.4byte	.LASF198
 5005 05c5 B601     		.sleb128 182
 5006 05c7 0B       		.uleb128 0xb
 5007 05c8 01250000 		.4byte	.LASF199
 5008 05cc B701     		.sleb128 183
 5009 05ce 0B       		.uleb128 0xb
 5010 05cf 870C0000 		.4byte	.LASF200
 5011 05d3 B801     		.sleb128 184
 5012 05d5 0B       		.uleb128 0xb
 5013 05d6 FC0A0000 		.4byte	.LASF201
 5014 05da B901     		.sleb128 185
 5015 05dc 0B       		.uleb128 0xb
 5016 05dd E2330000 		.4byte	.LASF202
 5017 05e1 BA01     		.sleb128 186
 5018 05e3 0B       		.uleb128 0xb
 5019 05e4 36290000 		.4byte	.LASF203
 5020 05e8 BB01     		.sleb128 187
 5021 05ea 0B       		.uleb128 0xb
 5022 05eb 0B060000 		.4byte	.LASF204
 5023 05ef BC01     		.sleb128 188
 5024 05f1 0B       		.uleb128 0xb
 5025 05f2 78140000 		.4byte	.LASF205
 5026 05f6 BD01     		.sleb128 189
 5027 05f8 0B       		.uleb128 0xb
 5028 05f9 C3050000 		.4byte	.LASF206
 5029 05fd BE01     		.sleb128 190
 5030 05ff 0B       		.uleb128 0xb
 5031 0600 B42A0000 		.4byte	.LASF207
 5032 0604 BF01     		.sleb128 191
 5033 0606 0B       		.uleb128 0xb
 5034 0607 AD100000 		.4byte	.LASF208
 5035 060b C001     		.sleb128 192
 5036 060d 0B       		.uleb128 0xb
 5037 060e CE2B0000 		.4byte	.LASF209
 5038 0612 C101     		.sleb128 193
 5039 0614 0B       		.uleb128 0xb
 5040 0615 12190000 		.4byte	.LASF210
 5041 0619 C201     		.sleb128 194
 5042 061b 0B       		.uleb128 0xb
 5043 061c 221D0000 		.4byte	.LASF211
 5044 0620 C301     		.sleb128 195
 5045 0622 0B       		.uleb128 0xb
 5046 0623 B6290000 		.4byte	.LASF212
 5047 0627 C401     		.sleb128 196
 5048 0629 0B       		.uleb128 0xb
 5049 062a EE1B0000 		.4byte	.LASF213
ARM GAS  C:\Users\AHMED~1.ELE\AppData\Local\Temp\ccAQ67OG.s 			page 130


 5050 062e C501     		.sleb128 197
 5051 0630 0B       		.uleb128 0xb
 5052 0631 B32F0000 		.4byte	.LASF214
 5053 0635 C601     		.sleb128 198
 5054 0637 0B       		.uleb128 0xb
 5055 0638 0D030000 		.4byte	.LASF215
 5056 063c C701     		.sleb128 199
 5057 063e 0B       		.uleb128 0xb
 5058 063f 59200000 		.4byte	.LASF216
 5059 0643 C801     		.sleb128 200
 5060 0645 0B       		.uleb128 0xb
 5061 0646 D9280000 		.4byte	.LASF217
 5062 064a C901     		.sleb128 201
 5063 064c 0B       		.uleb128 0xb
 5064 064d BC210000 		.4byte	.LASF218
 5065 0651 CA01     		.sleb128 202
 5066 0653 0B       		.uleb128 0xb
 5067 0654 A1300000 		.4byte	.LASF219
 5068 0658 CB01     		.sleb128 203
 5069 065a 0B       		.uleb128 0xb
 5070 065b BE0E0000 		.4byte	.LASF220
 5071 065f CC01     		.sleb128 204
 5072 0661 0B       		.uleb128 0xb
 5073 0662 D2260000 		.4byte	.LASF221
 5074 0666 CD01     		.sleb128 205
 5075 0668 0B       		.uleb128 0xb
 5076 0669 33040000 		.4byte	.LASF222
 5077 066d CE01     		.sleb128 206
 5078 066f 0B       		.uleb128 0xb
 5079 0670 63100000 		.4byte	.LASF223
 5080 0674 CF01     		.sleb128 207
 5081 0676 0B       		.uleb128 0xb
 5082 0677 19200000 		.4byte	.LASF224
 5083 067b D001     		.sleb128 208
 5084 067d 0B       		.uleb128 0xb
 5085 067e EC130000 		.4byte	.LASF225
 5086 0682 D101     		.sleb128 209
 5087 0684 0B       		.uleb128 0xb
 5088 0685 ED0D0000 		.4byte	.LASF226
 5089 0689 D201     		.sleb128 210
 5090 068b 0B       		.uleb128 0xb
 5091 068c 872F0000 		.4byte	.LASF227
 5092 0690 D301     		.sleb128 211
 5093 0692 0B       		.uleb128 0xb
 5094 0693 52280000 		.4byte	.LASF228
 5095 0697 D401     		.sleb128 212
 5096 0699 0B       		.uleb128 0xb
 5097 069a 660E0000 		.4byte	.LASF229
 5098 069e D501     		.sleb128 213
 5099 06a0 0B       		.uleb128 0xb
 5100 06a1 27160000 		.4byte	.LASF230
 5101 06a5 D601     		.sleb128 214
 5102 06a7 0B       		.uleb128 0xb
 5103 06a8 79120000 		.4byte	.LASF231
 5104 06ac D701     		.sleb128 215
 5105 06ae 0B       		.uleb128 0xb
 5106 06af 73100000 		.4byte	.LASF232
ARM GAS  C:\Users\AHMED~1.ELE\AppData\Local\Temp\ccAQ67OG.s 			page 131


 5107 06b3 D801     		.sleb128 216
 5108 06b5 0B       		.uleb128 0xb
 5109 06b6 3B300000 		.4byte	.LASF233
 5110 06ba D901     		.sleb128 217
 5111 06bc 0B       		.uleb128 0xb
 5112 06bd EA150000 		.4byte	.LASF234
 5113 06c1 DA01     		.sleb128 218
 5114 06c3 0B       		.uleb128 0xb
 5115 06c4 62050000 		.4byte	.LASF235
 5116 06c8 DB01     		.sleb128 219
 5117 06ca 0B       		.uleb128 0xb
 5118 06cb F3070000 		.4byte	.LASF236
 5119 06cf DC01     		.sleb128 220
 5120 06d1 0B       		.uleb128 0xb
 5121 06d2 DB2E0000 		.4byte	.LASF237
 5122 06d6 DD01     		.sleb128 221
 5123 06d8 0B       		.uleb128 0xb
 5124 06d9 F0140000 		.4byte	.LASF238
 5125 06dd DE01     		.sleb128 222
 5126 06df 0B       		.uleb128 0xb
 5127 06e0 5B120000 		.4byte	.LASF239
 5128 06e4 DF01     		.sleb128 223
 5129 06e6 0B       		.uleb128 0xb
 5130 06e7 23140000 		.4byte	.LASF240
 5131 06eb E001     		.sleb128 224
 5132 06ed 0B       		.uleb128 0xb
 5133 06ee 6A120000 		.4byte	.LASF241
 5134 06f2 E101     		.sleb128 225
 5135 06f4 0B       		.uleb128 0xb
 5136 06f5 C7170000 		.4byte	.LASF242
 5137 06f9 E201     		.sleb128 226
 5138 06fb 0B       		.uleb128 0xb
 5139 06fc 481B0000 		.4byte	.LASF243
 5140 0700 E301     		.sleb128 227
 5141 0702 0B       		.uleb128 0xb
 5142 0703 35130000 		.4byte	.LASF244
 5143 0707 E401     		.sleb128 228
 5144 0709 0B       		.uleb128 0xb
 5145 070a D3100000 		.4byte	.LASF245
 5146 070e E501     		.sleb128 229
 5147 0710 0B       		.uleb128 0xb
 5148 0711 311C0000 		.4byte	.LASF246
 5149 0715 E601     		.sleb128 230
 5150 0717 0B       		.uleb128 0xb
 5151 0718 42150000 		.4byte	.LASF247
 5152 071c E701     		.sleb128 231
 5153 071e 0B       		.uleb128 0xb
 5154 071f 1F190000 		.4byte	.LASF248
 5155 0723 E801     		.sleb128 232
 5156 0725 0B       		.uleb128 0xb
 5157 0726 03320000 		.4byte	.LASF249
 5158 072a E901     		.sleb128 233
 5159 072c 0B       		.uleb128 0xb
 5160 072d 962B0000 		.4byte	.LASF250
 5161 0731 EA01     		.sleb128 234
 5162 0733 0B       		.uleb128 0xb
 5163 0734 C01F0000 		.4byte	.LASF251
ARM GAS  C:\Users\AHMED~1.ELE\AppData\Local\Temp\ccAQ67OG.s 			page 132


 5164 0738 EB01     		.sleb128 235
 5165 073a 0B       		.uleb128 0xb
 5166 073b 3D2C0000 		.4byte	.LASF252
 5167 073f EC01     		.sleb128 236
 5168 0741 0B       		.uleb128 0xb
 5169 0742 2E010000 		.4byte	.LASF253
 5170 0746 ED01     		.sleb128 237
 5171 0748 0B       		.uleb128 0xb
 5172 0749 10070000 		.4byte	.LASF254
 5173 074d EE01     		.sleb128 238
 5174 074f 0B       		.uleb128 0xb
 5175 0750 111B0000 		.4byte	.LASF255
 5176 0754 EF01     		.sleb128 239
 5177 0756 0B       		.uleb128 0xb
 5178 0757 75300000 		.4byte	.LASF256
 5179 075b F001     		.sleb128 240
 5180 075d 0B       		.uleb128 0xb
 5181 075e 401F0000 		.4byte	.LASF257
 5182 0762 F101     		.sleb128 241
 5183 0764 0B       		.uleb128 0xb
 5184 0765 70200000 		.4byte	.LASF258
 5185 0769 F201     		.sleb128 242
 5186 076b 0B       		.uleb128 0xb
 5187 076c 241B0000 		.4byte	.LASF259
 5188 0770 F301     		.sleb128 243
 5189 0772 0B       		.uleb128 0xb
 5190 0773 4B090000 		.4byte	.LASF260
 5191 0777 F401     		.sleb128 244
 5192 0779 0B       		.uleb128 0xb
 5193 077a E2190000 		.4byte	.LASF261
 5194 077e F501     		.sleb128 245
 5195 0780 0B       		.uleb128 0xb
 5196 0781 A3260000 		.4byte	.LASF262
 5197 0785 F601     		.sleb128 246
 5198 0787 0B       		.uleb128 0xb
 5199 0788 34240000 		.4byte	.LASF263
 5200 078c F701     		.sleb128 247
 5201 078e 0B       		.uleb128 0xb
 5202 078f 511F0000 		.4byte	.LASF264
 5203 0793 F801     		.sleb128 248
 5204 0795 0B       		.uleb128 0xb
 5205 0796 DD140000 		.4byte	.LASF265
 5206 079a F901     		.sleb128 249
 5207 079c 0B       		.uleb128 0xb
 5208 079d 781A0000 		.4byte	.LASF266
 5209 07a1 FA01     		.sleb128 250
 5210 07a3 0B       		.uleb128 0xb
 5211 07a4 551C0000 		.4byte	.LASF267
 5212 07a8 FB01     		.sleb128 251
 5213 07aa 0B       		.uleb128 0xb
 5214 07ab FE320000 		.4byte	.LASF268
 5215 07af FC01     		.sleb128 252
 5216 07b1 0B       		.uleb128 0xb
 5217 07b2 F9100000 		.4byte	.LASF269
 5218 07b6 FD01     		.sleb128 253
 5219 07b8 0B       		.uleb128 0xb
 5220 07b9 B0300000 		.4byte	.LASF270
ARM GAS  C:\Users\AHMED~1.ELE\AppData\Local\Temp\ccAQ67OG.s 			page 133


 5221 07bd FE01     		.sleb128 254
 5222 07bf 0B       		.uleb128 0xb
 5223 07c0 04140000 		.4byte	.LASF271
 5224 07c4 FF01     		.sleb128 255
 5225 07c6 0B       		.uleb128 0xb
 5226 07c7 03300000 		.4byte	.LASF272
 5227 07cb 8002     		.sleb128 256
 5228 07cd 0B       		.uleb128 0xb
 5229 07ce 70170000 		.4byte	.LASF273
 5230 07d2 8102     		.sleb128 257
 5231 07d4 0B       		.uleb128 0xb
 5232 07d5 5C230000 		.4byte	.LASF274
 5233 07d9 8202     		.sleb128 258
 5234 07db 0B       		.uleb128 0xb
 5235 07dc CF270000 		.4byte	.LASF275
 5236 07e0 8302     		.sleb128 259
 5237 07e2 0B       		.uleb128 0xb
 5238 07e3 060F0000 		.4byte	.LASF276
 5239 07e7 8402     		.sleb128 260
 5240 07e9 0B       		.uleb128 0xb
 5241 07ea 12140000 		.4byte	.LASF277
 5242 07ee 8502     		.sleb128 261
 5243 07f0 0B       		.uleb128 0xb
 5244 07f1 1C040000 		.4byte	.LASF278
 5245 07f5 8602     		.sleb128 262
 5246 07f7 0B       		.uleb128 0xb
 5247 07f8 DD180000 		.4byte	.LASF279
 5248 07fc 8702     		.sleb128 263
 5249 07fe 0B       		.uleb128 0xb
 5250 07ff 6C070000 		.4byte	.LASF280
 5251 0803 8802     		.sleb128 264
 5252 0805 0B       		.uleb128 0xb
 5253 0806 0F120000 		.4byte	.LASF281
 5254 080a 8902     		.sleb128 265
 5255 080c 0B       		.uleb128 0xb
 5256 080d 272B0000 		.4byte	.LASF282
 5257 0811 8A02     		.sleb128 266
 5258 0813 0B       		.uleb128 0xb
 5259 0814 BA100000 		.4byte	.LASF283
 5260 0818 8B02     		.sleb128 267
 5261 081a 0B       		.uleb128 0xb
 5262 081b 200E0000 		.4byte	.LASF284
 5263 081f 8C02     		.sleb128 268
 5264 0821 0B       		.uleb128 0xb
 5265 0822 44270000 		.4byte	.LASF285
 5266 0826 8D02     		.sleb128 269
 5267 0828 0B       		.uleb128 0xb
 5268 0829 970E0000 		.4byte	.LASF286
 5269 082d 8E02     		.sleb128 270
 5270 082f 0B       		.uleb128 0xb
 5271 0830 BB120000 		.4byte	.LASF287
 5272 0834 8F02     		.sleb128 271
 5273 0836 0B       		.uleb128 0xb
 5274 0837 37090000 		.4byte	.LASF288
 5275 083b 9002     		.sleb128 272
 5276 083d 0B       		.uleb128 0xb
 5277 083e F8020000 		.4byte	.LASF289
ARM GAS  C:\Users\AHMED~1.ELE\AppData\Local\Temp\ccAQ67OG.s 			page 134


 5278 0842 9102     		.sleb128 273
 5279 0844 0B       		.uleb128 0xb
 5280 0845 EC320000 		.4byte	.LASF290
 5281 0849 9202     		.sleb128 274
 5282 084b 0B       		.uleb128 0xb
 5283 084c 842B0000 		.4byte	.LASF291
 5284 0850 9302     		.sleb128 275
 5285 0852 0B       		.uleb128 0xb
 5286 0853 4F320000 		.4byte	.LASF292
 5287 0857 9402     		.sleb128 276
 5288 0859 0B       		.uleb128 0xb
 5289 085a EB1A0000 		.4byte	.LASF293
 5290 085e 9502     		.sleb128 277
 5291 0860 0B       		.uleb128 0xb
 5292 0861 C8030000 		.4byte	.LASF294
 5293 0865 9602     		.sleb128 278
 5294 0867 0B       		.uleb128 0xb
 5295 0868 3C050000 		.4byte	.LASF295
 5296 086c 9702     		.sleb128 279
 5297 086e 0B       		.uleb128 0xb
 5298 086f 7A040000 		.4byte	.LASF296
 5299 0873 9802     		.sleb128 280
 5300 0875 0B       		.uleb128 0xb
 5301 0876 DA1A0000 		.4byte	.LASF297
 5302 087a 9902     		.sleb128 281
 5303 087c 0B       		.uleb128 0xb
 5304 087d 691E0000 		.4byte	.LASF298
 5305 0881 9A02     		.sleb128 282
 5306 0883 0B       		.uleb128 0xb
 5307 0884 7D020000 		.4byte	.LASF299
 5308 0888 9B02     		.sleb128 283
 5309 088a 0B       		.uleb128 0xb
 5310 088b 88080000 		.4byte	.LASF300
 5311 088f 9C02     		.sleb128 284
 5312 0891 0B       		.uleb128 0xb
 5313 0892 C7180000 		.4byte	.LASF301
 5314 0896 9D02     		.sleb128 285
 5315 0898 0B       		.uleb128 0xb
 5316 0899 CC150000 		.4byte	.LASF302
 5317 089d 9E02     		.sleb128 286
 5318 089f 0B       		.uleb128 0xb
 5319 08a0 1A010000 		.4byte	.LASF303
 5320 08a4 9F02     		.sleb128 287
 5321 08a6 0B       		.uleb128 0xb
 5322 08a7 3B280000 		.4byte	.LASF304
 5323 08ab A002     		.sleb128 288
 5324 08ad 0B       		.uleb128 0xb
 5325 08ae 58040000 		.4byte	.LASF305
 5326 08b2 A102     		.sleb128 289
 5327 08b4 0B       		.uleb128 0xb
 5328 08b5 D01F0000 		.4byte	.LASF306
 5329 08b9 A202     		.sleb128 290
 5330 08bb 0B       		.uleb128 0xb
 5331 08bc 872A0000 		.4byte	.LASF307
 5332 08c0 A302     		.sleb128 291
 5333 08c2 0B       		.uleb128 0xb
 5334 08c3 B9240000 		.4byte	.LASF308
ARM GAS  C:\Users\AHMED~1.ELE\AppData\Local\Temp\ccAQ67OG.s 			page 135


 5335 08c7 A402     		.sleb128 292
 5336 08c9 0B       		.uleb128 0xb
 5337 08ca F7120000 		.4byte	.LASF309
 5338 08ce A502     		.sleb128 293
 5339 08d0 0B       		.uleb128 0xb
 5340 08d1 5B2D0000 		.4byte	.LASF310
 5341 08d5 A602     		.sleb128 294
 5342 08d7 0B       		.uleb128 0xb
 5343 08d8 DB250000 		.4byte	.LASF311
 5344 08dc A702     		.sleb128 295
 5345 08de 0B       		.uleb128 0xb
 5346 08df 1C230000 		.4byte	.LASF312
 5347 08e3 A802     		.sleb128 296
 5348 08e5 0B       		.uleb128 0xb
 5349 08e6 DB1B0000 		.4byte	.LASF313
 5350 08ea A902     		.sleb128 297
 5351 08ec 0B       		.uleb128 0xb
 5352 08ed CA010000 		.4byte	.LASF314
 5353 08f1 AA02     		.sleb128 298
 5354 08f3 0B       		.uleb128 0xb
 5355 08f4 30000000 		.4byte	.LASF315
 5356 08f8 AB02     		.sleb128 299
 5357 08fa 0B       		.uleb128 0xb
 5358 08fb 8A200000 		.4byte	.LASF316
 5359 08ff AC02     		.sleb128 300
 5360 0901 0B       		.uleb128 0xb
 5361 0902 FA110000 		.4byte	.LASF317
 5362 0906 AD02     		.sleb128 301
 5363 0908 0B       		.uleb128 0xb
 5364 0909 DB0A0000 		.4byte	.LASF318
 5365 090d AE02     		.sleb128 302
 5366 090f 0B       		.uleb128 0xb
 5367 0910 8E090000 		.4byte	.LASF319
 5368 0914 AF02     		.sleb128 303
 5369 0916 0B       		.uleb128 0xb
 5370 0917 39180000 		.4byte	.LASF320
 5371 091b B002     		.sleb128 304
 5372 091d 0B       		.uleb128 0xb
 5373 091e 8B330000 		.4byte	.LASF321
 5374 0922 B102     		.sleb128 305
 5375 0924 0B       		.uleb128 0xb
 5376 0925 4A300000 		.4byte	.LASF322
 5377 0929 B202     		.sleb128 306
 5378 092b 0B       		.uleb128 0xb
 5379 092c 99130000 		.4byte	.LASF323
 5380 0930 B302     		.sleb128 307
 5381 0932 0B       		.uleb128 0xb
 5382 0933 C61D0000 		.4byte	.LASF324
 5383 0937 B402     		.sleb128 308
 5384 0939 0B       		.uleb128 0xb
 5385 093a 67160000 		.4byte	.LASF325
 5386 093e B502     		.sleb128 309
 5387 0940 0B       		.uleb128 0xb
 5388 0941 340A0000 		.4byte	.LASF326
 5389 0945 B602     		.sleb128 310
 5390 0947 0B       		.uleb128 0xb
 5391 0948 00000000 		.4byte	.LASF327
ARM GAS  C:\Users\AHMED~1.ELE\AppData\Local\Temp\ccAQ67OG.s 			page 136


 5392 094c B702     		.sleb128 311
 5393 094e 0B       		.uleb128 0xb
 5394 094f C90D0000 		.4byte	.LASF328
 5395 0953 B802     		.sleb128 312
 5396 0955 0B       		.uleb128 0xb
 5397 0956 E62A0000 		.4byte	.LASF329
 5398 095a B902     		.sleb128 313
 5399 095c 0B       		.uleb128 0xb
 5400 095d 43210000 		.4byte	.LASF330
 5401 0961 BA02     		.sleb128 314
 5402 0963 0B       		.uleb128 0xb
 5403 0964 6C230000 		.4byte	.LASF331
 5404 0968 BB02     		.sleb128 315
 5405 096a 0B       		.uleb128 0xb
 5406 096b 78010000 		.4byte	.LASF332
 5407 096f BC02     		.sleb128 316
 5408 0971 0B       		.uleb128 0xb
 5409 0972 C6330000 		.4byte	.LASF333
 5410 0976 BD02     		.sleb128 317
 5411 0978 0B       		.uleb128 0xb
 5412 0979 F5330000 		.4byte	.LASF334
 5413 097d BE02     		.sleb128 318
 5414 097f 0B       		.uleb128 0xb
 5415 0980 72240000 		.4byte	.LASF335
 5416 0984 BF02     		.sleb128 319
 5417 0986 0B       		.uleb128 0xb
 5418 0987 78280000 		.4byte	.LASF336
 5419 098b C002     		.sleb128 320
 5420 098d 0B       		.uleb128 0xb
 5421 098e 8F310000 		.4byte	.LASF337
 5422 0992 C102     		.sleb128 321
 5423 0994 0B       		.uleb128 0xb
 5424 0995 4C050000 		.4byte	.LASF338
 5425 0999 C202     		.sleb128 322
 5426 099b 0B       		.uleb128 0xb
 5427 099c 8B010000 		.4byte	.LASF339
 5428 09a0 C302     		.sleb128 323
 5429 09a2 0B       		.uleb128 0xb
 5430 09a3 15000000 		.4byte	.LASF340
 5431 09a7 C402     		.sleb128 324
 5432 09a9 0B       		.uleb128 0xb
 5433 09aa 1D130000 		.4byte	.LASF341
 5434 09ae C502     		.sleb128 325
 5435 09b0 0B       		.uleb128 0xb
 5436 09b1 7D070000 		.4byte	.LASF342
 5437 09b5 C602     		.sleb128 326
 5438 09b7 0B       		.uleb128 0xb
 5439 09b8 31100000 		.4byte	.LASF343
 5440 09bc C702     		.sleb128 327
 5441 09be 0B       		.uleb128 0xb
 5442 09bf C5080000 		.4byte	.LASF344
 5443 09c3 C802     		.sleb128 328
 5444 09c5 0B       		.uleb128 0xb
 5445 09c6 C5290000 		.4byte	.LASF345
 5446 09ca C902     		.sleb128 329
 5447 09cc 0B       		.uleb128 0xb
 5448 09cd B2280000 		.4byte	.LASF346
ARM GAS  C:\Users\AHMED~1.ELE\AppData\Local\Temp\ccAQ67OG.s 			page 137


 5449 09d1 CA02     		.sleb128 330
 5450 09d3 0B       		.uleb128 0xb
 5451 09d4 0E2B0000 		.4byte	.LASF347
 5452 09d8 CB02     		.sleb128 331
 5453 09da 0B       		.uleb128 0xb
 5454 09db 0A0D0000 		.4byte	.LASF348
 5455 09df CC02     		.sleb128 332
 5456 09e1 0B       		.uleb128 0xb
 5457 09e2 B61B0000 		.4byte	.LASF349
 5458 09e6 CD02     		.sleb128 333
 5459 09e8 0B       		.uleb128 0xb
 5460 09e9 F91E0000 		.4byte	.LASF350
 5461 09ed CE02     		.sleb128 334
 5462 09ef 0B       		.uleb128 0xb
 5463 09f0 BA310000 		.4byte	.LASF351
 5464 09f4 CF02     		.sleb128 335
 5465 09f6 0B       		.uleb128 0xb
 5466 09f7 D81C0000 		.4byte	.LASF352
 5467 09fb D002     		.sleb128 336
 5468 09fd 0B       		.uleb128 0xb
 5469 09fe 780D0000 		.4byte	.LASF353
 5470 0a02 D102     		.sleb128 337
 5471 0a04 0B       		.uleb128 0xb
 5472 0a05 A1110000 		.4byte	.LASF354
 5473 0a09 D202     		.sleb128 338
 5474 0a0b 0B       		.uleb128 0xb
 5475 0a0c A0180000 		.4byte	.LASF355
 5476 0a10 D302     		.sleb128 339
 5477 0a12 0B       		.uleb128 0xb
 5478 0a13 25080000 		.4byte	.LASF356
 5479 0a17 D402     		.sleb128 340
 5480 0a19 0B       		.uleb128 0xb
 5481 0a1a DA200000 		.4byte	.LASF357
 5482 0a1e D502     		.sleb128 341
 5483 0a20 0B       		.uleb128 0xb
 5484 0a21 14310000 		.4byte	.LASF358
 5485 0a25 D602     		.sleb128 342
 5486 0a27 0B       		.uleb128 0xb
 5487 0a28 FE1B0000 		.4byte	.LASF359
 5488 0a2c D702     		.sleb128 343
 5489 0a2e 0B       		.uleb128 0xb
 5490 0a2f 931A0000 		.4byte	.LASF360
 5491 0a33 D802     		.sleb128 344
 5492 0a35 0B       		.uleb128 0xb
 5493 0a36 CF230000 		.4byte	.LASF361
 5494 0a3a D902     		.sleb128 345
 5495 0a3c 0B       		.uleb128 0xb
 5496 0a3d 5F260000 		.4byte	.LASF362
 5497 0a41 DA02     		.sleb128 346
 5498 0a43 0B       		.uleb128 0xb
 5499 0a44 F2210000 		.4byte	.LASF363
 5500 0a48 DB02     		.sleb128 347
 5501 0a4a 0B       		.uleb128 0xb
 5502 0a4b 6A180000 		.4byte	.LASF364
 5503 0a4f DC02     		.sleb128 348
 5504 0a51 0B       		.uleb128 0xb
 5505 0a52 EC010000 		.4byte	.LASF365
ARM GAS  C:\Users\AHMED~1.ELE\AppData\Local\Temp\ccAQ67OG.s 			page 138


 5506 0a56 DD02     		.sleb128 349
 5507 0a58 0B       		.uleb128 0xb
 5508 0a59 301F0000 		.4byte	.LASF366
 5509 0a5d DE02     		.sleb128 350
 5510 0a5f 0B       		.uleb128 0xb
 5511 0a60 032A0000 		.4byte	.LASF367
 5512 0a64 DF02     		.sleb128 351
 5513 0a66 0B       		.uleb128 0xb
 5514 0a67 90020000 		.4byte	.LASF368
 5515 0a6b E002     		.sleb128 352
 5516 0a6d 0B       		.uleb128 0xb
 5517 0a6e F5260000 		.4byte	.LASF369
 5518 0a72 E102     		.sleb128 353
 5519 0a74 0B       		.uleb128 0xb
 5520 0a75 652A0000 		.4byte	.LASF370
 5521 0a79 E202     		.sleb128 354
 5522 0a7b 0B       		.uleb128 0xb
 5523 0a7c 55150000 		.4byte	.LASF371
 5524 0a80 E302     		.sleb128 355
 5525 0a82 0B       		.uleb128 0xb
 5526 0a83 BD140000 		.4byte	.LASF372
 5527 0a87 E402     		.sleb128 356
 5528 0a89 0B       		.uleb128 0xb
 5529 0a8a AA0E0000 		.4byte	.LASF373
 5530 0a8e E502     		.sleb128 357
 5531 0a90 0B       		.uleb128 0xb
 5532 0a91 88120000 		.4byte	.LASF374
 5533 0a95 E602     		.sleb128 358
 5534 0a97 0B       		.uleb128 0xb
 5535 0a98 AD330000 		.4byte	.LASF375
 5536 0a9c E702     		.sleb128 359
 5537 0a9e 0B       		.uleb128 0xb
 5538 0a9f 822C0000 		.4byte	.LASF376
 5539 0aa3 E802     		.sleb128 360
 5540 0aa5 0B       		.uleb128 0xb
 5541 0aa6 3D1A0000 		.4byte	.LASF377
 5542 0aaa E902     		.sleb128 361
 5543 0aac 0B       		.uleb128 0xb
 5544 0aad A3290000 		.4byte	.LASF378
 5545 0ab1 EA02     		.sleb128 362
 5546 0ab3 0B       		.uleb128 0xb
 5547 0ab4 BB0F0000 		.4byte	.LASF379
 5548 0ab8 EB02     		.sleb128 363
 5549 0aba 0B       		.uleb128 0xb
 5550 0abb CB0F0000 		.4byte	.LASF380
 5551 0abf EC02     		.sleb128 364
 5552 0ac1 0B       		.uleb128 0xb
 5553 0ac2 2E2F0000 		.4byte	.LASF381
 5554 0ac6 ED02     		.sleb128 365
 5555 0ac8 0B       		.uleb128 0xb
 5556 0ac9 F52E0000 		.4byte	.LASF382
 5557 0acd EE02     		.sleb128 366
 5558 0acf 0B       		.uleb128 0xb
 5559 0ad0 3B060000 		.4byte	.LASF383
 5560 0ad4 EF02     		.sleb128 367
 5561 0ad6 0B       		.uleb128 0xb
 5562 0ad7 DF0D0000 		.4byte	.LASF384
ARM GAS  C:\Users\AHMED~1.ELE\AppData\Local\Temp\ccAQ67OG.s 			page 139


 5563 0adb F002     		.sleb128 368
 5564 0add 0B       		.uleb128 0xb
 5565 0ade FC270000 		.4byte	.LASF385
 5566 0ae2 F102     		.sleb128 369
 5567 0ae4 0B       		.uleb128 0xb
 5568 0ae5 D3070000 		.4byte	.LASF386
 5569 0ae9 F202     		.sleb128 370
 5570 0aeb 0B       		.uleb128 0xb
 5571 0aec 96120000 		.4byte	.LASF387
 5572 0af0 F302     		.sleb128 371
 5573 0af2 0B       		.uleb128 0xb
 5574 0af3 9C1F0000 		.4byte	.LASF388
 5575 0af7 F402     		.sleb128 372
 5576 0af9 0B       		.uleb128 0xb
 5577 0afa 250F0000 		.4byte	.LASF389
 5578 0afe F502     		.sleb128 373
 5579 0b00 0B       		.uleb128 0xb
 5580 0b01 4A2E0000 		.4byte	.LASF390
 5581 0b05 F602     		.sleb128 374
 5582 0b07 0B       		.uleb128 0xb
 5583 0b08 12080000 		.4byte	.LASF391
 5584 0b0c F702     		.sleb128 375
 5585 0b0e 0B       		.uleb128 0xb
 5586 0b0f E0310000 		.4byte	.LASF392
 5587 0b13 F802     		.sleb128 376
 5588 0b15 0B       		.uleb128 0xb
 5589 0b16 01150000 		.4byte	.LASF393
 5590 0b1a F902     		.sleb128 377
 5591 0b1c 0B       		.uleb128 0xb
 5592 0b1d FD1A0000 		.4byte	.LASF394
 5593 0b21 FA02     		.sleb128 378
 5594 0b23 0B       		.uleb128 0xb
 5595 0b24 0E280000 		.4byte	.LASF395
 5596 0b28 FB02     		.sleb128 379
 5597 0b2a 0B       		.uleb128 0xb
 5598 0b2b CB020000 		.4byte	.LASF396
 5599 0b2f FC02     		.sleb128 380
 5600 0b31 0B       		.uleb128 0xb
 5601 0b32 261E0000 		.4byte	.LASF397
 5602 0b36 FD02     		.sleb128 381
 5603 0b38 0B       		.uleb128 0xb
 5604 0b39 E8270000 		.4byte	.LASF398
 5605 0b3d FE02     		.sleb128 382
 5606 0b3f 0B       		.uleb128 0xb
 5607 0b40 E6050000 		.4byte	.LASF399
 5608 0b44 FF02     		.sleb128 383
 5609 0b46 0B       		.uleb128 0xb
 5610 0b47 DF220000 		.4byte	.LASF400
 5611 0b4b 8003     		.sleb128 384
 5612 0b4d 0B       		.uleb128 0xb
 5613 0b4e 5C110000 		.4byte	.LASF401
 5614 0b52 8103     		.sleb128 385
 5615 0b54 0B       		.uleb128 0xb
 5616 0b55 8B2D0000 		.4byte	.LASF402
 5617 0b59 8203     		.sleb128 386
 5618 0b5b 0B       		.uleb128 0xb
 5619 0b5c 0E160000 		.4byte	.LASF403
ARM GAS  C:\Users\AHMED~1.ELE\AppData\Local\Temp\ccAQ67OG.s 			page 140


 5620 0b60 8303     		.sleb128 387
 5621 0b62 0B       		.uleb128 0xb
 5622 0b63 D2090000 		.4byte	.LASF404
 5623 0b67 8403     		.sleb128 388
 5624 0b69 0B       		.uleb128 0xb
 5625 0b6a 1C300000 		.4byte	.LASF405
 5626 0b6e 8503     		.sleb128 389
 5627 0b70 0B       		.uleb128 0xb
 5628 0b71 D5060000 		.4byte	.LASF406
 5629 0b75 8603     		.sleb128 390
 5630 0b77 0B       		.uleb128 0xb
 5631 0b78 390B0000 		.4byte	.LASF407
 5632 0b7c 8703     		.sleb128 391
 5633 0b7e 0B       		.uleb128 0xb
 5634 0b7f 62210000 		.4byte	.LASF408
 5635 0b83 8803     		.sleb128 392
 5636 0b85 0B       		.uleb128 0xb
 5637 0b86 EB0C0000 		.4byte	.LASF409
 5638 0b8a 8903     		.sleb128 393
 5639 0b8c 0B       		.uleb128 0xb
 5640 0b8d E41D0000 		.4byte	.LASF410
 5641 0b91 8A03     		.sleb128 394
 5642 0b93 0B       		.uleb128 0xb
 5643 0b94 2D250000 		.4byte	.LASF411
 5644 0b98 8B03     		.sleb128 395
 5645 0b9a 0B       		.uleb128 0xb
 5646 0b9b 4A290000 		.4byte	.LASF412
 5647 0b9f 8C03     		.sleb128 396
 5648 0ba1 0B       		.uleb128 0xb
 5649 0ba2 AB2C0000 		.4byte	.LASF413
 5650 0ba6 8D03     		.sleb128 397
 5651 0ba8 0B       		.uleb128 0xb
 5652 0ba9 EA000000 		.4byte	.LASF414
 5653 0bad 8E03     		.sleb128 398
 5654 0baf 0B       		.uleb128 0xb
 5655 0bb0 6B1F0000 		.4byte	.LASF415
 5656 0bb4 8F03     		.sleb128 399
 5657 0bb6 0B       		.uleb128 0xb
 5658 0bb7 E8110000 		.4byte	.LASF416
 5659 0bbb 9003     		.sleb128 400
 5660 0bbd 0B       		.uleb128 0xb
 5661 0bbe ED2B0000 		.4byte	.LASF417
 5662 0bc2 9103     		.sleb128 401
 5663 0bc4 0B       		.uleb128 0xb
 5664 0bc5 E6100000 		.4byte	.LASF418
 5665 0bc9 9203     		.sleb128 402
 5666 0bcb 0B       		.uleb128 0xb
 5667 0bcc 8D1E0000 		.4byte	.LASF419
 5668 0bd0 9303     		.sleb128 403
 5669 0bd2 0B       		.uleb128 0xb
 5670 0bd3 C6220000 		.4byte	.LASF420
 5671 0bd7 9403     		.sleb128 404
 5672 0bd9 0B       		.uleb128 0xb
 5673 0bda 49060000 		.4byte	.LASF421
 5674 0bde 9503     		.sleb128 405
 5675 0be0 0B       		.uleb128 0xb
 5676 0be1 E5260000 		.4byte	.LASF422
ARM GAS  C:\Users\AHMED~1.ELE\AppData\Local\Temp\ccAQ67OG.s 			page 141


 5677 0be5 9603     		.sleb128 406
 5678 0be7 0B       		.uleb128 0xb
 5679 0be8 D4050000 		.4byte	.LASF423
 5680 0bec 9703     		.sleb128 407
 5681 0bee 0B       		.uleb128 0xb
 5682 0bef BC150000 		.4byte	.LASF424
 5683 0bf3 9803     		.sleb128 408
 5684 0bf5 0B       		.uleb128 0xb
 5685 0bf6 28200000 		.4byte	.LASF425
 5686 0bfa 9903     		.sleb128 409
 5687 0bfc 0B       		.uleb128 0xb
 5688 0bfd 4C2F0000 		.4byte	.LASF426
 5689 0c01 9A03     		.sleb128 410
 5690 0c03 0B       		.uleb128 0xb
 5691 0c04 4E000000 		.4byte	.LASF427
 5692 0c08 9B03     		.sleb128 411
 5693 0c0a 0B       		.uleb128 0xb
 5694 0c0b 89170000 		.4byte	.LASF428
 5695 0c0f 9C03     		.sleb128 412
 5696 0c11 0B       		.uleb128 0xb
 5697 0c12 37120000 		.4byte	.LASF429
 5698 0c16 9D03     		.sleb128 413
 5699 0c18 0B       		.uleb128 0xb
 5700 0c19 3A320000 		.4byte	.LASF430
 5701 0c1d 9E03     		.sleb128 414
 5702 0c1f 0B       		.uleb128 0xb
 5703 0c20 6B2B0000 		.4byte	.LASF431
 5704 0c24 9F03     		.sleb128 415
 5705 0c26 0B       		.uleb128 0xb
 5706 0c27 310E0000 		.4byte	.LASF432
 5707 0c2b A003     		.sleb128 416
 5708 0c2d 0B       		.uleb128 0xb
 5709 0c2e 47130000 		.4byte	.LASF433
 5710 0c32 A103     		.sleb128 417
 5711 0c34 0B       		.uleb128 0xb
 5712 0c35 CF0A0000 		.4byte	.LASF434
 5713 0c39 A203     		.sleb128 418
 5714 0c3b 0B       		.uleb128 0xb
 5715 0c3c E80B0000 		.4byte	.LASF435
 5716 0c40 A303     		.sleb128 419
 5717 0c42 0B       		.uleb128 0xb
 5718 0c43 69030000 		.4byte	.LASF436
 5719 0c47 A403     		.sleb128 420
 5720 0c49 0B       		.uleb128 0xb
 5721 0c4a F41D0000 		.4byte	.LASF437
 5722 0c4e A503     		.sleb128 421
 5723 0c50 0B       		.uleb128 0xb
 5724 0c51 D72F0000 		.4byte	.LASF438
 5725 0c55 A603     		.sleb128 422
 5726 0c57 0B       		.uleb128 0xb
 5727 0c58 F9040000 		.4byte	.LASF439
 5728 0c5c A703     		.sleb128 423
 5729 0c5e 0B       		.uleb128 0xb
 5730 0c5f 6D190000 		.4byte	.LASF440
 5731 0c63 A803     		.sleb128 424
 5732 0c65 0B       		.uleb128 0xb
 5733 0c66 B4020000 		.4byte	.LASF441
ARM GAS  C:\Users\AHMED~1.ELE\AppData\Local\Temp\ccAQ67OG.s 			page 142


 5734 0c6a A903     		.sleb128 425
 5735 0c6c 0B       		.uleb128 0xb
 5736 0c6d 49070000 		.4byte	.LASF442
 5737 0c71 AA03     		.sleb128 426
 5738 0c73 0B       		.uleb128 0xb
 5739 0c74 1A330000 		.4byte	.LASF443
 5740 0c78 AB03     		.sleb128 427
 5741 0c7a 0B       		.uleb128 0xb
 5742 0c7b A4220000 		.4byte	.LASF444
 5743 0c7f AC03     		.sleb128 428
 5744 0c81 0B       		.uleb128 0xb
 5745 0c82 89110000 		.4byte	.LASF445
 5746 0c86 AD03     		.sleb128 429
 5747 0c88 0B       		.uleb128 0xb
 5748 0c89 A41D0000 		.4byte	.LASF446
 5749 0c8d AE03     		.sleb128 430
 5750 0c8f 0B       		.uleb128 0xb
 5751 0c90 17320000 		.4byte	.LASF447
 5752 0c94 AF03     		.sleb128 431
 5753 0c96 0B       		.uleb128 0xb
 5754 0c97 0C0E0000 		.4byte	.LASF448
 5755 0c9b B003     		.sleb128 432
 5756 0c9d 0B       		.uleb128 0xb
 5757 0c9e BA070000 		.4byte	.LASF449
 5758 0ca2 B103     		.sleb128 433
 5759 0ca4 0B       		.uleb128 0xb
 5760 0ca5 A91C0000 		.4byte	.LASF450
 5761 0ca9 B203     		.sleb128 434
 5762 0cab 0B       		.uleb128 0xb
 5763 0cac D2120000 		.4byte	.LASF451
 5764 0cb0 B303     		.sleb128 435
 5765 0cb2 0B       		.uleb128 0xb
 5766 0cb3 6F1D0000 		.4byte	.LASF452
 5767 0cb7 B403     		.sleb128 436
 5768 0cb9 0B       		.uleb128 0xb
 5769 0cba 96070000 		.4byte	.LASF453
 5770 0cbe B503     		.sleb128 437
 5771 0cc0 0B       		.uleb128 0xb
 5772 0cc1 EB0E0000 		.4byte	.LASF454
 5773 0cc5 B603     		.sleb128 438
 5774 0cc7 0B       		.uleb128 0xb
 5775 0cc8 52180000 		.4byte	.LASF455
 5776 0ccc B703     		.sleb128 439
 5777 0cce 0B       		.uleb128 0xb
 5778 0ccf 6C0F0000 		.4byte	.LASF456
 5779 0cd3 B803     		.sleb128 440
 5780 0cd5 0B       		.uleb128 0xb
 5781 0cd6 AB010000 		.4byte	.LASF457
 5782 0cda B903     		.sleb128 441
 5783 0cdc 0B       		.uleb128 0xb
 5784 0cdd 10270000 		.4byte	.LASF458
 5785 0ce1 BA03     		.sleb128 442
 5786 0ce3 0B       		.uleb128 0xb
 5787 0ce4 E9290000 		.4byte	.LASF459
 5788 0ce8 BB03     		.sleb128 443
 5789 0cea 0B       		.uleb128 0xb
 5790 0ceb AF080000 		.4byte	.LASF460
ARM GAS  C:\Users\AHMED~1.ELE\AppData\Local\Temp\ccAQ67OG.s 			page 143


 5791 0cef BC03     		.sleb128 444
 5792 0cf1 0B       		.uleb128 0xb
 5793 0cf2 EC200000 		.4byte	.LASF461
 5794 0cf6 BD03     		.sleb128 445
 5795 0cf8 0B       		.uleb128 0xb
 5796 0cf9 47170000 		.4byte	.LASF462
 5797 0cfd BE03     		.sleb128 446
 5798 0cff 0B       		.uleb128 0xb
 5799 0d00 9E030000 		.4byte	.LASF463
 5800 0d04 BF03     		.sleb128 447
 5801 0d06 0B       		.uleb128 0xb
 5802 0d07 520F0000 		.4byte	.LASF464
 5803 0d0b C003     		.sleb128 448
 5804 0d0d 0B       		.uleb128 0xb
 5805 0d0e 78250000 		.4byte	.LASF465
 5806 0d12 C103     		.sleb128 449
 5807 0d14 0B       		.uleb128 0xb
 5808 0d15 662C0000 		.4byte	.LASF466
 5809 0d19 C203     		.sleb128 450
 5810 0d1b 0B       		.uleb128 0xb
 5811 0d1c C62C0000 		.4byte	.LASF467
 5812 0d20 C303     		.sleb128 451
 5813 0d22 0B       		.uleb128 0xb
 5814 0d23 DE040000 		.4byte	.LASF468
 5815 0d27 C403     		.sleb128 452
 5816 0d29 0B       		.uleb128 0xb
 5817 0d2a 230D0000 		.4byte	.LASF469
 5818 0d2e C503     		.sleb128 453
 5819 0d30 0B       		.uleb128 0xb
 5820 0d31 0C2D0000 		.4byte	.LASF470
 5821 0d35 C603     		.sleb128 454
 5822 0d37 0B       		.uleb128 0xb
 5823 0d38 1C150000 		.4byte	.LASF471
 5824 0d3c C703     		.sleb128 455
 5825 0d3e 0B       		.uleb128 0xb
 5826 0d3f 27310000 		.4byte	.LASF472
 5827 0d43 C803     		.sleb128 456
 5828 0d45 0B       		.uleb128 0xb
 5829 0d46 A40A0000 		.4byte	.LASF473
 5830 0d4a C903     		.sleb128 457
 5831 0d4c 0B       		.uleb128 0xb
 5832 0d4d 451E0000 		.4byte	.LASF474
 5833 0d51 CA03     		.sleb128 458
 5834 0d53 0B       		.uleb128 0xb
 5835 0d54 EC230000 		.4byte	.LASF475
 5836 0d58 CB03     		.sleb128 459
 5837 0d5a 0B       		.uleb128 0xb
 5838 0d5b 07180000 		.4byte	.LASF476
 5839 0d5f CC03     		.sleb128 460
 5840 0d61 0B       		.uleb128 0xb
 5841 0d62 00040000 		.4byte	.LASF477
 5842 0d66 CD03     		.sleb128 461
 5843 0d68 0B       		.uleb128 0xb
 5844 0d69 A42B0000 		.4byte	.LASF478
 5845 0d6d CE03     		.sleb128 462
 5846 0d6f 0B       		.uleb128 0xb
 5847 0d70 22020000 		.4byte	.LASF479
ARM GAS  C:\Users\AHMED~1.ELE\AppData\Local\Temp\ccAQ67OG.s 			page 144


 5848 0d74 CF03     		.sleb128 463
 5849 0d76 0B       		.uleb128 0xb
 5850 0d77 43110000 		.4byte	.LASF480
 5851 0d7b D003     		.sleb128 464
 5852 0d7d 0B       		.uleb128 0xb
 5853 0d7e 952C0000 		.4byte	.LASF481
 5854 0d82 D103     		.sleb128 465
 5855 0d84 0B       		.uleb128 0xb
 5856 0d85 102E0000 		.4byte	.LASF482
 5857 0d89 D203     		.sleb128 466
 5858 0d8b 0B       		.uleb128 0xb
 5859 0d8c 23270000 		.4byte	.LASF483
 5860 0d90 D303     		.sleb128 467
 5861 0d92 0B       		.uleb128 0xb
 5862 0d93 29030000 		.4byte	.LASF484
 5863 0d97 D403     		.sleb128 468
 5864 0d99 0B       		.uleb128 0xb
 5865 0d9a 25090000 		.4byte	.LASF485
 5866 0d9e D503     		.sleb128 469
 5867 0da0 0B       		.uleb128 0xb
 5868 0da1 9B200000 		.4byte	.LASF486
 5869 0da5 D603     		.sleb128 470
 5870 0da7 0B       		.uleb128 0xb
 5871 0da8 5E020000 		.4byte	.LASF487
 5872 0dac D703     		.sleb128 471
 5873 0dae 0B       		.uleb128 0xb
 5874 0daf 6D220000 		.4byte	.LASF488
 5875 0db3 D803     		.sleb128 472
 5876 0db5 00       		.byte	0
 5877 0db6 08       		.uleb128 0x8
 5878 0db7 A2000000 		.4byte	0xa2
 5879 0dbb C60D0000 		.4byte	0xdc6
 5880 0dbf 09       		.uleb128 0x9
 5881 0dc0 78000000 		.4byte	0x78
 5882 0dc4 06       		.byte	0x6
 5883 0dc5 00       		.byte	0
 5884 0dc6 0A       		.uleb128 0xa
 5885 0dc7 AA120000 		.4byte	.LASF490
 5886 0dcb 04       		.byte	0x4
 5887 0dcc 04       		.byte	0x4
 5888 0dcd 5911     		.2byte	0x1159
 5889 0dcf 9C0E0000 		.4byte	0xe9c
 5890 0dd3 0B       		.uleb128 0xb
 5891 0dd4 10100000 		.4byte	.LASF491
 5892 0dd8 3F       		.sleb128 63
 5893 0dd9 0B       		.uleb128 0xb
 5894 0dda 36160000 		.4byte	.LASF492
 5895 0dde 8002     		.sleb128 256
 5896 0de0 0B       		.uleb128 0xb
 5897 0de1 772D0000 		.4byte	.LASF493
 5898 0de5 8004     		.sleb128 512
 5899 0de7 0B       		.uleb128 0xb
 5900 0de8 5C1A0000 		.4byte	.LASF494
 5901 0dec 8008     		.sleb128 1024
 5902 0dee 0B       		.uleb128 0xb
 5903 0def 08110000 		.4byte	.LASF495
 5904 0df3 8010     		.sleb128 2048
ARM GAS  C:\Users\AHMED~1.ELE\AppData\Local\Temp\ccAQ67OG.s 			page 145


 5905 0df5 0B       		.uleb128 0xb
 5906 0df6 580A0000 		.4byte	.LASF496
 5907 0dfa 8020     		.sleb128 4096
 5908 0dfc 0B       		.uleb128 0xb
 5909 0dfd 60250000 		.4byte	.LASF497
 5910 0e01 80C000   		.sleb128 8192
 5911 0e04 0B       		.uleb128 0xb
 5912 0e05 54160000 		.4byte	.LASF498
 5913 0e09 808001   		.sleb128 16384
 5914 0e0c 0B       		.uleb128 0xb
 5915 0e0d 9A320000 		.4byte	.LASF499
 5916 0e11 808002   		.sleb128 32768
 5917 0e14 0B       		.uleb128 0xb
 5918 0e15 5C0C0000 		.4byte	.LASF500
 5919 0e19 808004   		.sleb128 65536
 5920 0e1c 0B       		.uleb128 0xb
 5921 0e1d 3D030000 		.4byte	.LASF501
 5922 0e21 808008   		.sleb128 131072
 5923 0e24 0B       		.uleb128 0xb
 5924 0e25 13210000 		.4byte	.LASF502
 5925 0e29 808010   		.sleb128 262144
 5926 0e2c 0B       		.uleb128 0xb
 5927 0e2d 9E140000 		.4byte	.LASF503
 5928 0e31 808020   		.sleb128 524288
 5929 0e34 0B       		.uleb128 0xb
 5930 0e35 7E1B0000 		.4byte	.LASF504
 5931 0e39 8080C000 		.sleb128 1048576
 5932 0e3d 0B       		.uleb128 0xb
 5933 0e3e 9A210000 		.4byte	.LASF505
 5934 0e42 80808001 		.sleb128 2097152
 5935 0e46 0B       		.uleb128 0xb
 5936 0e47 B41E0000 		.4byte	.LASF506
 5937 0e4b 80808002 		.sleb128 4194304
 5938 0e4f 0B       		.uleb128 0xb
 5939 0e50 AC050000 		.4byte	.LASF507
 5940 0e54 80808004 		.sleb128 8388608
 5941 0e58 0B       		.uleb128 0xb
 5942 0e59 5B170000 		.4byte	.LASF508
 5943 0e5d 80808008 		.sleb128 16777216
 5944 0e61 0B       		.uleb128 0xb
 5945 0e62 4A260000 		.4byte	.LASF509
 5946 0e66 80808010 		.sleb128 33554432
 5947 0e6a 0B       		.uleb128 0xb
 5948 0e6b 9A2E0000 		.4byte	.LASF510
 5949 0e6f 80808020 		.sleb128 67108864
 5950 0e73 0B       		.uleb128 0xb
 5951 0e74 AF2E0000 		.4byte	.LASF511
 5952 0e78 808080C0 		.sleb128 134217728
 5952      00
 5953 0e7d 0B       		.uleb128 0xb
 5954 0e7e ED240000 		.4byte	.LASF512
 5955 0e82 80808080 		.sleb128 805306368
 5955      03
 5956 0e87 0B       		.uleb128 0xb
 5957 0e88 AB130000 		.4byte	.LASF513
 5958 0e8c 80808080 		.sleb128 1073741824
 5958      04
ARM GAS  C:\Users\AHMED~1.ELE\AppData\Local\Temp\ccAQ67OG.s 			page 146


 5959 0e91 0B       		.uleb128 0xb
 5960 0e92 11240000 		.4byte	.LASF514
 5961 0e96 FFFFFFFF 		.sleb128 4294967295
 5961      0F
 5962 0e9b 00       		.byte	0
 5963 0e9c 0A       		.uleb128 0xa
 5964 0e9d 5F000000 		.4byte	.LASF515
 5965 0ea1 01       		.byte	0x1
 5966 0ea2 04       		.byte	0x4
 5967 0ea3 F511     		.2byte	0x11f5
 5968 0ea5 CE0E0000 		.4byte	0xece
 5969 0ea9 0B       		.uleb128 0xb
 5970 0eaa 89150000 		.4byte	.LASF516
 5971 0eae 00       		.sleb128 0
 5972 0eaf 0B       		.uleb128 0xb
 5973 0eb0 960F0000 		.4byte	.LASF517
 5974 0eb4 00       		.sleb128 0
 5975 0eb5 0B       		.uleb128 0xb
 5976 0eb6 82230000 		.4byte	.LASF518
 5977 0eba 01       		.sleb128 1
 5978 0ebb 0B       		.uleb128 0xb
 5979 0ebc 372B0000 		.4byte	.LASF519
 5980 0ec0 01       		.sleb128 1
 5981 0ec1 0B       		.uleb128 0xb
 5982 0ec2 DD080000 		.4byte	.LASF520
 5983 0ec6 02       		.sleb128 2
 5984 0ec7 0B       		.uleb128 0xb
 5985 0ec8 AE250000 		.4byte	.LASF521
 5986 0ecc 02       		.sleb128 2
 5987 0ecd 00       		.byte	0
 5988 0ece 08       		.uleb128 0x8
 5989 0ecf A2000000 		.4byte	0xa2
 5990 0ed3 DE0E0000 		.4byte	0xede
 5991 0ed7 09       		.uleb128 0x9
 5992 0ed8 78000000 		.4byte	0x78
 5993 0edc 9F       		.byte	0x9f
 5994 0edd 00       		.byte	0
 5995 0ede 06       		.uleb128 0x6
 5996 0edf 04       		.byte	0x4
 5997 0ee0 E40E0000 		.4byte	0xee4
 5998 0ee4 0C       		.uleb128 0xc
 5999 0ee5 08       		.uleb128 0x8
 6000 0ee6 85000000 		.4byte	0x85
 6001 0eea F50E0000 		.4byte	0xef5
 6002 0eee 09       		.uleb128 0x9
 6003 0eef 78000000 		.4byte	0x78
 6004 0ef3 1F       		.byte	0x1f
 6005 0ef4 00       		.byte	0
 6006 0ef5 0D       		.uleb128 0xd
 6007 0ef6 02       		.byte	0x2
 6008 0ef7 04       		.byte	0x4
 6009 0ef8 DD18     		.2byte	0x18dd
 6010 0efa 1E0F0000 		.4byte	0xf1e
 6011 0efe 0B       		.uleb128 0xb
 6012 0eff CD110000 		.4byte	.LASF522
 6013 0f03 00       		.sleb128 0
 6014 0f04 0B       		.uleb128 0xb
ARM GAS  C:\Users\AHMED~1.ELE\AppData\Local\Temp\ccAQ67OG.s 			page 147


 6015 0f05 C72A0000 		.4byte	.LASF523
 6016 0f09 01       		.sleb128 1
 6017 0f0a 0B       		.uleb128 0xb
 6018 0f0b F4300000 		.4byte	.LASF524
 6019 0f0f 02       		.sleb128 2
 6020 0f10 0B       		.uleb128 0xb
 6021 0f11 8A040000 		.4byte	.LASF525
 6022 0f15 03       		.sleb128 3
 6023 0f16 0B       		.uleb128 0xb
 6024 0f17 FB090000 		.4byte	.LASF526
 6025 0f1b 8002     		.sleb128 256
 6026 0f1d 00       		.byte	0
 6027 0f1e 0E       		.uleb128 0xe
 6028 0f1f BE170000 		.4byte	.LASF530
 6029 0f23 16       		.byte	0x16
 6030 0f24 05       		.byte	0x5
 6031 0f25 7006     		.2byte	0x670
 6032 0f27 530F0000 		.4byte	0xf53
 6033 0f2b 0F       		.uleb128 0xf
 6034 0f2c B81A0000 		.4byte	.LASF527
 6035 0f30 05       		.byte	0x5
 6036 0f31 7206     		.2byte	0x672
 6037 0f33 A2000000 		.4byte	0xa2
 6038 0f37 00       		.byte	0
 6039 0f38 0F       		.uleb128 0xf
 6040 0f39 5F010000 		.4byte	.LASF528
 6041 0f3d 05       		.byte	0x5
 6042 0f3e 7306     		.2byte	0x673
 6043 0f40 A2000000 		.4byte	0xa2
 6044 0f44 01       		.byte	0x1
 6045 0f45 0F       		.uleb128 0xf
 6046 0f46 14300000 		.4byte	.LASF529
 6047 0f4a 05       		.byte	0x5
 6048 0f4b 7406     		.2byte	0x674
 6049 0f4d 530F0000 		.4byte	0xf53
 6050 0f51 02       		.byte	0x2
 6051 0f52 00       		.byte	0
 6052 0f53 08       		.uleb128 0x8
 6053 0f54 85000000 		.4byte	0x85
 6054 0f58 630F0000 		.4byte	0xf63
 6055 0f5c 09       		.uleb128 0x9
 6056 0f5d 78000000 		.4byte	0x78
 6057 0f61 13       		.byte	0x13
 6058 0f62 00       		.byte	0
 6059 0f63 0E       		.uleb128 0xe
 6060 0f64 D50B0000 		.4byte	.LASF531
 6061 0f68 E4       		.byte	0xe4
 6062 0f69 05       		.byte	0x5
 6063 0f6a 7B06     		.2byte	0x67b
 6064 0f6c 34100000 		.4byte	0x1034
 6065 0f70 0F       		.uleb128 0xf
 6066 0f71 CE0E0000 		.4byte	.LASF532
 6067 0f75 05       		.byte	0x5
 6068 0f76 7D06     		.2byte	0x67d
 6069 0f78 1E0F0000 		.4byte	0xf1e
 6070 0f7c 00       		.byte	0
 6071 0f7d 0F       		.uleb128 0xf
ARM GAS  C:\Users\AHMED~1.ELE\AppData\Local\Temp\ccAQ67OG.s 			page 148


 6072 0f7e 7F290000 		.4byte	.LASF533
 6073 0f82 05       		.byte	0x5
 6074 0f83 7E06     		.2byte	0x67e
 6075 0f85 A2000000 		.4byte	0xa2
 6076 0f89 16       		.byte	0x16
 6077 0f8a 0F       		.uleb128 0xf
 6078 0f8b C51A0000 		.4byte	.LASF534
 6079 0f8f 05       		.byte	0x5
 6080 0f90 7F06     		.2byte	0x67f
 6081 0f92 A2000000 		.4byte	0xa2
 6082 0f96 17       		.byte	0x17
 6083 0f97 0F       		.uleb128 0xf
 6084 0f98 54270000 		.4byte	.LASF535
 6085 0f9c 05       		.byte	0x5
 6086 0f9d 8006     		.2byte	0x680
 6087 0f9f 1E0F0000 		.4byte	0xf1e
 6088 0fa3 18       		.byte	0x18
 6089 0fa4 0F       		.uleb128 0xf
 6090 0fa5 71090000 		.4byte	.LASF536
 6091 0fa9 05       		.byte	0x5
 6092 0faa 8106     		.2byte	0x681
 6093 0fac A2000000 		.4byte	0xa2
 6094 0fb0 2E       		.byte	0x2e
 6095 0fb1 0F       		.uleb128 0xf
 6096 0fb2 77130000 		.4byte	.LASF537
 6097 0fb6 05       		.byte	0x5
 6098 0fb7 8206     		.2byte	0x682
 6099 0fb9 A2000000 		.4byte	0xa2
 6100 0fbd 2F       		.byte	0x2f
 6101 0fbe 0F       		.uleb128 0xf
 6102 0fbf 09080000 		.4byte	.LASF538
 6103 0fc3 05       		.byte	0x5
 6104 0fc4 8306     		.2byte	0x683
 6105 0fc6 A2000000 		.4byte	0xa2
 6106 0fca 30       		.byte	0x30
 6107 0fcb 0F       		.uleb128 0xf
 6108 0fcc 941F0000 		.4byte	.LASF539
 6109 0fd0 05       		.byte	0x5
 6110 0fd1 8406     		.2byte	0x684
 6111 0fd3 A2000000 		.4byte	0xa2
 6112 0fd7 31       		.byte	0x31
 6113 0fd8 0F       		.uleb128 0xf
 6114 0fd9 C4110000 		.4byte	.LASF540
 6115 0fdd 05       		.byte	0x5
 6116 0fde 8506     		.2byte	0x685
 6117 0fe0 A2000000 		.4byte	0xa2
 6118 0fe4 32       		.byte	0x32
 6119 0fe5 0F       		.uleb128 0xf
 6120 0fe6 502C0000 		.4byte	.LASF541
 6121 0fea 05       		.byte	0x5
 6122 0feb 8606     		.2byte	0x686
 6123 0fed A2000000 		.4byte	0xa2
 6124 0ff1 33       		.byte	0x33
 6125 0ff2 0F       		.uleb128 0xf
 6126 0ff3 7B270000 		.4byte	.LASF542
 6127 0ff7 05       		.byte	0x5
 6128 0ff8 8706     		.2byte	0x687
ARM GAS  C:\Users\AHMED~1.ELE\AppData\Local\Temp\ccAQ67OG.s 			page 149


 6129 0ffa A2000000 		.4byte	0xa2
 6130 0ffe 34       		.byte	0x34
 6131 0fff 0F       		.uleb128 0xf
 6132 1000 D4220000 		.4byte	.LASF543
 6133 1004 05       		.byte	0x5
 6134 1005 8806     		.2byte	0x688
 6135 1007 B60D0000 		.4byte	0xdb6
 6136 100b 35       		.byte	0x35
 6137 100c 0F       		.uleb128 0xf
 6138 100d 032D0000 		.4byte	.LASF544
 6139 1011 05       		.byte	0x5
 6140 1012 8906     		.2byte	0x689
 6141 1014 B60D0000 		.4byte	0xdb6
 6142 1018 3C       		.byte	0x3c
 6143 1019 0F       		.uleb128 0xf
 6144 101a 0E0B0000 		.4byte	.LASF545
 6145 101e 05       		.byte	0x5
 6146 101f 8A06     		.2byte	0x68a
 6147 1021 A2000000 		.4byte	0xa2
 6148 1025 43       		.byte	0x43
 6149 1026 0F       		.uleb128 0xf
 6150 1027 95250000 		.4byte	.LASF546
 6151 102b 05       		.byte	0x5
 6152 102c 8B06     		.2byte	0x68b
 6153 102e CE0E0000 		.4byte	0xece
 6154 1032 44       		.byte	0x44
 6155 1033 00       		.byte	0
 6156 1034 10       		.uleb128 0x10
 6157 1035 7A2B0000 		.4byte	.LASF547
 6158 1039 E405     		.2byte	0x5e4
 6159 103b 05       		.byte	0x5
 6160 103c 9506     		.2byte	0x695
 6161 103e 5D100000 		.4byte	0x105d
 6162 1042 0F       		.uleb128 0xf
 6163 1043 021E0000 		.4byte	.LASF548
 6164 1047 05       		.byte	0x5
 6165 1048 9606     		.2byte	0x696
 6166 104a B8000000 		.4byte	0xb8
 6167 104e 00       		.byte	0
 6168 104f 0F       		.uleb128 0xf
 6169 1050 1A060000 		.4byte	.LASF549
 6170 1054 05       		.byte	0x5
 6171 1055 9706     		.2byte	0x697
 6172 1057 5D100000 		.4byte	0x105d
 6173 105b 04       		.byte	0x4
 6174 105c 00       		.byte	0
 6175 105d 08       		.uleb128 0x8
 6176 105e A2000000 		.4byte	0xa2
 6177 1062 6E100000 		.4byte	0x106e
 6178 1066 11       		.uleb128 0x11
 6179 1067 78000000 		.4byte	0x78
 6180 106b DC05     		.2byte	0x5dc
 6181 106d 00       		.byte	0
 6182 106e 10       		.uleb128 0x10
 6183 106f 15220000 		.4byte	.LASF550
 6184 1073 E405     		.2byte	0x5e4
 6185 1075 05       		.byte	0x5
ARM GAS  C:\Users\AHMED~1.ELE\AppData\Local\Temp\ccAQ67OG.s 			page 150


 6186 1076 9B06     		.2byte	0x69b
 6187 1078 97100000 		.4byte	0x1097
 6188 107c 0F       		.uleb128 0xf
 6189 107d 96220000 		.4byte	.LASF551
 6190 1081 05       		.byte	0x5
 6191 1082 9C06     		.2byte	0x69c
 6192 1084 B8000000 		.4byte	0xb8
 6193 1088 00       		.byte	0
 6194 1089 0F       		.uleb128 0xf
 6195 108a 1A060000 		.4byte	.LASF549
 6196 108e 05       		.byte	0x5
 6197 108f 9D06     		.2byte	0x69d
 6198 1091 5D100000 		.4byte	0x105d
 6199 1095 04       		.byte	0x4
 6200 1096 00       		.byte	0
 6201 1097 0E       		.uleb128 0xe
 6202 1098 B1140000 		.4byte	.LASF552
 6203 109c 18       		.byte	0x18
 6204 109d 05       		.byte	0x5
 6205 109e AA06     		.2byte	0x6aa
 6206 10a0 F3100000 		.4byte	0x10f3
 6207 10a4 0F       		.uleb128 0xf
 6208 10a5 67270000 		.4byte	.LASF553
 6209 10a9 05       		.byte	0x5
 6210 10aa AB06     		.2byte	0x6ab
 6211 10ac F3100000 		.4byte	0x10f3
 6212 10b0 00       		.byte	0
 6213 10b1 0F       		.uleb128 0xf
 6214 10b2 72050000 		.4byte	.LASF554
 6215 10b6 05       		.byte	0x5
 6216 10b7 AC06     		.2byte	0x6ac
 6217 10b9 C3000000 		.4byte	0xc3
 6218 10bd 04       		.byte	0x4
 6219 10be 0F       		.uleb128 0xf
 6220 10bf 170B0000 		.4byte	.LASF555
 6221 10c3 05       		.byte	0x5
 6222 10c4 AD06     		.2byte	0x6ad
 6223 10c6 F9100000 		.4byte	0x10f9
 6224 10ca 08       		.byte	0x8
 6225 10cb 0F       		.uleb128 0xf
 6226 10cc 7F130000 		.4byte	.LASF556
 6227 10d0 05       		.byte	0x5
 6228 10d1 AE06     		.2byte	0x6ae
 6229 10d3 B8000000 		.4byte	0xb8
 6230 10d7 0C       		.byte	0xc
 6231 10d8 0F       		.uleb128 0xf
 6232 10d9 46250000 		.4byte	.LASF557
 6233 10dd 05       		.byte	0x5
 6234 10de AF06     		.2byte	0x6af
 6235 10e0 B8000000 		.4byte	0xb8
 6236 10e4 10       		.byte	0x10
 6237 10e5 0F       		.uleb128 0xf
 6238 10e6 3F0D0000 		.4byte	.LASF558
 6239 10ea 05       		.byte	0x5
 6240 10eb B006     		.2byte	0x6b0
 6241 10ed B8000000 		.4byte	0xb8
 6242 10f1 14       		.byte	0x14
ARM GAS  C:\Users\AHMED~1.ELE\AppData\Local\Temp\ccAQ67OG.s 			page 151


 6243 10f2 00       		.byte	0
 6244 10f3 06       		.uleb128 0x6
 6245 10f4 04       		.byte	0x4
 6246 10f5 630F0000 		.4byte	0xf63
 6247 10f9 06       		.uleb128 0x6
 6248 10fa 04       		.byte	0x4
 6249 10fb B8000000 		.4byte	0xb8
 6250 10ff 0D       		.uleb128 0xd
 6251 1100 01       		.byte	0x1
 6252 1101 05       		.byte	0x5
 6253 1102 DC07     		.2byte	0x7dc
 6254 1104 4D120000 		.4byte	0x124d
 6255 1108 0B       		.uleb128 0xb
 6256 1109 4A160000 		.4byte	.LASF559
 6257 110d 00       		.sleb128 0
 6258 110e 0B       		.uleb128 0xb
 6259 110f 20280000 		.4byte	.LASF560
 6260 1113 01       		.sleb128 1
 6261 1114 0B       		.uleb128 0xb
 6262 1115 02080000 		.4byte	.LASF561
 6263 1119 02       		.sleb128 2
 6264 111a 0B       		.uleb128 0xb
 6265 111b A2060000 		.4byte	.LASF562
 6266 111f 03       		.sleb128 3
 6267 1120 0B       		.uleb128 0xb
 6268 1121 2B330000 		.4byte	.LASF563
 6269 1125 04       		.sleb128 4
 6270 1126 0B       		.uleb128 0xb
 6271 1127 CD0B0000 		.4byte	.LASF564
 6272 112b 05       		.sleb128 5
 6273 112c 0B       		.uleb128 0xb
 6274 112d 731C0000 		.4byte	.LASF565
 6275 1131 06       		.sleb128 6
 6276 1132 0B       		.uleb128 0xb
 6277 1133 15130000 		.4byte	.LASF566
 6278 1137 07       		.sleb128 7
 6279 1138 0B       		.uleb128 0xb
 6280 1139 1A0C0000 		.4byte	.LASF567
 6281 113d 08       		.sleb128 8
 6282 113e 0B       		.uleb128 0xb
 6283 113f E6070000 		.4byte	.LASF568
 6284 1143 09       		.sleb128 9
 6285 1144 0B       		.uleb128 0xb
 6286 1145 0A130000 		.4byte	.LASF569
 6287 1149 0A       		.sleb128 10
 6288 114a 0B       		.uleb128 0xb
 6289 114b 8A0A0000 		.4byte	.LASF570
 6290 114f 0B       		.sleb128 11
 6291 1150 0B       		.uleb128 0xb
 6292 1151 D01A0000 		.4byte	.LASF571
 6293 1155 0C       		.sleb128 12
 6294 1156 0B       		.uleb128 0xb
 6295 1157 A3010000 		.4byte	.LASF572
 6296 115b 0D       		.sleb128 13
 6297 115c 0B       		.uleb128 0xb
 6298 115d CA070000 		.4byte	.LASF573
 6299 1161 0E       		.sleb128 14
ARM GAS  C:\Users\AHMED~1.ELE\AppData\Local\Temp\ccAQ67OG.s 			page 152


 6300 1162 0B       		.uleb128 0xb
 6301 1163 2F180000 		.4byte	.LASF574
 6302 1167 0F       		.sleb128 15
 6303 1168 0B       		.uleb128 0xb
 6304 1169 6D300000 		.4byte	.LASF575
 6305 116d 10       		.sleb128 16
 6306 116e 0B       		.uleb128 0xb
 6307 116f B32D0000 		.4byte	.LASF576
 6308 1173 11       		.sleb128 17
 6309 1174 0B       		.uleb128 0xb
 6310 1175 AB0C0000 		.4byte	.LASF577
 6311 1179 12       		.sleb128 18
 6312 117a 0B       		.uleb128 0xb
 6313 117b 3C070000 		.4byte	.LASF578
 6314 117f 13       		.sleb128 19
 6315 1180 0B       		.uleb128 0xb
 6316 1181 46320000 		.4byte	.LASF579
 6317 1185 14       		.sleb128 20
 6318 1186 0B       		.uleb128 0xb
 6319 1187 B40C0000 		.4byte	.LASF580
 6320 118b 15       		.sleb128 21
 6321 118c 0B       		.uleb128 0xb
 6322 118d 95190000 		.4byte	.LASF581
 6323 1191 16       		.sleb128 22
 6324 1192 0B       		.uleb128 0xb
 6325 1193 A2100000 		.4byte	.LASF582
 6326 1197 17       		.sleb128 23
 6327 1198 0B       		.uleb128 0xb
 6328 1199 8A1A0000 		.4byte	.LASF583
 6329 119d 18       		.sleb128 24
 6330 119e 0B       		.uleb128 0xb
 6331 119f 08160000 		.4byte	.LASF584
 6332 11a3 19       		.sleb128 25
 6333 11a4 0B       		.uleb128 0xb
 6334 11a5 41230000 		.4byte	.LASF585
 6335 11a9 1A       		.sleb128 26
 6336 11aa 0B       		.uleb128 0xb
 6337 11ab DD0B0000 		.4byte	.LASF586
 6338 11af 1B       		.sleb128 27
 6339 11b0 0B       		.uleb128 0xb
 6340 11b1 6C040000 		.4byte	.LASF587
 6341 11b5 1C       		.sleb128 28
 6342 11b6 0B       		.uleb128 0xb
 6343 11b7 F62F0000 		.4byte	.LASF588
 6344 11bb 1D       		.sleb128 29
 6345 11bc 0B       		.uleb128 0xb
 6346 11bd FC0C0000 		.4byte	.LASF589
 6347 11c1 1E       		.sleb128 30
 6348 11c2 0B       		.uleb128 0xb
 6349 11c3 90130000 		.4byte	.LASF590
 6350 11c7 1F       		.sleb128 31
 6351 11c8 0B       		.uleb128 0xb
 6352 11c9 99280000 		.4byte	.LASF591
 6353 11cd 20       		.sleb128 32
 6354 11ce 0B       		.uleb128 0xb
 6355 11cf 0E330000 		.4byte	.LASF592
 6356 11d3 21       		.sleb128 33
ARM GAS  C:\Users\AHMED~1.ELE\AppData\Local\Temp\ccAQ67OG.s 			page 153


 6357 11d4 0B       		.uleb128 0xb
 6358 11d5 F5190000 		.4byte	.LASF593
 6359 11d9 22       		.sleb128 34
 6360 11da 0B       		.uleb128 0xb
 6361 11db FC0D0000 		.4byte	.LASF594
 6362 11df 23       		.sleb128 35
 6363 11e0 0B       		.uleb128 0xb
 6364 11e1 95300000 		.4byte	.LASF595
 6365 11e5 24       		.sleb128 36
 6366 11e6 0B       		.uleb128 0xb
 6367 11e7 800B0000 		.4byte	.LASF596
 6368 11eb 25       		.sleb128 37
 6369 11ec 0B       		.uleb128 0xb
 6370 11ed BE010000 		.4byte	.LASF597
 6371 11f1 26       		.sleb128 38
 6372 11f2 0B       		.uleb128 0xb
 6373 11f3 E12C0000 		.4byte	.LASF598
 6374 11f7 27       		.sleb128 39
 6375 11f8 0B       		.uleb128 0xb
 6376 11f9 391E0000 		.4byte	.LASF599
 6377 11fd 28       		.sleb128 40
 6378 11fe 0B       		.uleb128 0xb
 6379 11ff CC250000 		.4byte	.LASF600
 6380 1203 29       		.sleb128 41
 6381 1204 0B       		.uleb128 0xb
 6382 1205 601F0000 		.4byte	.LASF601
 6383 1209 2A       		.sleb128 42
 6384 120a 0B       		.uleb128 0xb
 6385 120b 6D0D0000 		.4byte	.LASF602
 6386 120f 2B       		.sleb128 43
 6387 1210 0B       		.uleb128 0xb
 6388 1211 E00E0000 		.4byte	.LASF603
 6389 1215 2C       		.sleb128 44
 6390 1216 0B       		.uleb128 0xb
 6391 1217 F1090000 		.4byte	.LASF604
 6392 121b 2D       		.sleb128 45
 6393 121c 0B       		.uleb128 0xb
 6394 121d E2010000 		.4byte	.LASF605
 6395 1221 2E       		.sleb128 46
 6396 1222 0B       		.uleb128 0xb
 6397 1223 A9170000 		.4byte	.LASF606
 6398 1227 2F       		.sleb128 47
 6399 1228 0B       		.uleb128 0xb
 6400 1229 5E1D0000 		.4byte	.LASF607
 6401 122d 30       		.sleb128 48
 6402 122e 0B       		.uleb128 0xb
 6403 122f E2130000 		.4byte	.LASF608
 6404 1233 31       		.sleb128 49
 6405 1234 0B       		.uleb128 0xb
 6406 1235 04270000 		.4byte	.LASF609
 6407 1239 32       		.sleb128 50
 6408 123a 0B       		.uleb128 0xb
 6409 123b DB030000 		.4byte	.LASF610
 6410 123f 33       		.sleb128 51
 6411 1240 0B       		.uleb128 0xb
 6412 1241 202F0000 		.4byte	.LASF611
 6413 1245 34       		.sleb128 52
ARM GAS  C:\Users\AHMED~1.ELE\AppData\Local\Temp\ccAQ67OG.s 			page 154


 6414 1246 0B       		.uleb128 0xb
 6415 1247 52250000 		.4byte	.LASF612
 6416 124b 35       		.sleb128 53
 6417 124c 00       		.byte	0
 6418 124d 12       		.uleb128 0x12
 6419 124e 01       		.byte	0x1
 6420 124f 06       		.byte	0x6
 6421 1250 40       		.byte	0x40
 6422 1251 A0130000 		.4byte	0x13a0
 6423 1255 0B       		.uleb128 0xb
 6424 1256 860F0000 		.4byte	.LASF613
 6425 125a 00       		.sleb128 0
 6426 125b 0B       		.uleb128 0xb
 6427 125c 74000000 		.4byte	.LASF614
 6428 1260 01       		.sleb128 1
 6429 1261 0B       		.uleb128 0xb
 6430 1262 EA2E0000 		.4byte	.LASF615
 6431 1266 02       		.sleb128 2
 6432 1267 0B       		.uleb128 0xb
 6433 1268 5B270000 		.4byte	.LASF616
 6434 126c 03       		.sleb128 3
 6435 126d 0B       		.uleb128 0xb
 6436 126e D12E0000 		.4byte	.LASF617
 6437 1272 04       		.sleb128 4
 6438 1273 0B       		.uleb128 0xb
 6439 1274 17290000 		.4byte	.LASF618
 6440 1278 05       		.sleb128 5
 6441 1279 0B       		.uleb128 0xb
 6442 127a 2C0B0000 		.4byte	.LASF619
 6443 127e 06       		.sleb128 6
 6444 127f 0B       		.uleb128 0xb
 6445 1280 A1240000 		.4byte	.LASF620
 6446 1284 07       		.sleb128 7
 6447 1285 0B       		.uleb128 0xb
 6448 1286 79090000 		.4byte	.LASF621
 6449 128a 08       		.sleb128 8
 6450 128b 0B       		.uleb128 0xb
 6451 128c 92240000 		.4byte	.LASF622
 6452 1290 09       		.sleb128 9
 6453 1291 0B       		.uleb128 0xb
 6454 1292 890E0000 		.4byte	.LASF623
 6455 1296 0A       		.sleb128 10
 6456 1297 0B       		.uleb128 0xb
 6457 1298 C42E0000 		.4byte	.LASF624
 6458 129c 0B       		.sleb128 11
 6459 129d 0B       		.uleb128 0xb
 6460 129e 3C080000 		.4byte	.LASF625
 6461 12a2 0C       		.sleb128 12
 6462 12a3 0B       		.uleb128 0xb
 6463 12a4 71260000 		.4byte	.LASF626
 6464 12a8 0D       		.sleb128 13
 6465 12a9 0B       		.uleb128 0xb
 6466 12aa 5D300000 		.4byte	.LASF627
 6467 12ae 0E       		.sleb128 14
 6468 12af 0B       		.uleb128 0xb
 6469 12b0 3D2F0000 		.4byte	.LASF628
 6470 12b4 0F       		.sleb128 15
ARM GAS  C:\Users\AHMED~1.ELE\AppData\Local\Temp\ccAQ67OG.s 			page 155


 6471 12b5 0B       		.uleb128 0xb
 6472 12b6 0F2F0000 		.4byte	.LASF629
 6473 12ba 10       		.sleb128 16
 6474 12bb 0B       		.uleb128 0xb
 6475 12bc 50010000 		.4byte	.LASF630
 6476 12c0 11       		.sleb128 17
 6477 12c1 0B       		.uleb128 0xb
 6478 12c2 F4170000 		.4byte	.LASF631
 6479 12c6 12       		.sleb128 18
 6480 12c7 0B       		.uleb128 0xb
 6481 12c8 6D270000 		.4byte	.LASF632
 6482 12cc 13       		.sleb128 19
 6483 12cd 0B       		.uleb128 0xb
 6484 12ce C1040000 		.4byte	.LASF633
 6485 12d2 14       		.sleb128 20
 6486 12d3 0B       		.uleb128 0xb
 6487 12d4 061D0000 		.4byte	.LASF634
 6488 12d8 15       		.sleb128 21
 6489 12d9 0B       		.uleb128 0xb
 6490 12da 7D180000 		.4byte	.LASF635
 6491 12de 16       		.sleb128 22
 6492 12df 0B       		.uleb128 0xb
 6493 12e0 591B0000 		.4byte	.LASF636
 6494 12e4 17       		.sleb128 23
 6495 12e5 0B       		.uleb128 0xb
 6496 12e6 48240000 		.4byte	.LASF637
 6497 12ea 18       		.sleb128 24
 6498 12eb 0B       		.uleb128 0xb
 6499 12ec 8F000000 		.4byte	.LASF638
 6500 12f0 19       		.sleb128 25
 6501 12f1 0B       		.uleb128 0xb
 6502 12f2 4F0B0000 		.4byte	.LASF639
 6503 12f6 1A       		.sleb128 26
 6504 12f7 0B       		.uleb128 0xb
 6505 12f8 0B0C0000 		.4byte	.LASF640
 6506 12fc 1B       		.sleb128 27
 6507 12fd 0B       		.uleb128 0xb
 6508 12fe A51E0000 		.4byte	.LASF641
 6509 1302 1C       		.sleb128 28
 6510 1303 0B       		.uleb128 0xb
 6511 1304 41010000 		.4byte	.LASF642
 6512 1308 1D       		.sleb128 29
 6513 1309 0B       		.uleb128 0xb
 6514 130a B1110000 		.4byte	.LASF643
 6515 130e 1E       		.sleb128 30
 6516 130f 0B       		.uleb128 0xb
 6517 1310 61320000 		.4byte	.LASF644
 6518 1314 1F       		.sleb128 31
 6519 1315 0B       		.uleb128 0xb
 6520 1316 5B2B0000 		.4byte	.LASF645
 6521 131a 20       		.sleb128 32
 6522 131b 0B       		.uleb128 0xb
 6523 131c 470F0000 		.4byte	.LASF646
 6524 1320 21       		.sleb128 33
 6525 1321 0B       		.uleb128 0xb
 6526 1322 96260000 		.4byte	.LASF647
 6527 1326 22       		.sleb128 34
ARM GAS  C:\Users\AHMED~1.ELE\AppData\Local\Temp\ccAQ67OG.s 			page 156


 6528 1327 0B       		.uleb128 0xb
 6529 1328 53080000 		.4byte	.LASF648
 6530 132c 23       		.sleb128 35
 6531 132d 0B       		.uleb128 0xb
 6532 132e 4E020000 		.4byte	.LASF649
 6533 1332 24       		.sleb128 36
 6534 1333 0B       		.uleb128 0xb
 6535 1334 C0130000 		.4byte	.LASF650
 6536 1338 25       		.sleb128 37
 6537 1339 0B       		.uleb128 0xb
 6538 133a 5B070000 		.4byte	.LASF651
 6539 133e 26       		.sleb128 38
 6540 133f 0B       		.uleb128 0xb
 6541 1340 C2090000 		.4byte	.LASF652
 6542 1344 27       		.sleb128 39
 6543 1345 0B       		.uleb128 0xb
 6544 1346 1B2C0000 		.4byte	.LASF653
 6545 134a 28       		.sleb128 40
 6546 134b 0B       		.uleb128 0xb
 6547 134c 66010000 		.4byte	.LASF654
 6548 1350 29       		.sleb128 41
 6549 1351 0B       		.uleb128 0xb
 6550 1352 01210000 		.4byte	.LASF655
 6551 1356 2A       		.sleb128 42
 6552 1357 0B       		.uleb128 0xb
 6553 1358 7F000000 		.4byte	.LASF656
 6554 135c 2B       		.sleb128 43
 6555 135d 0B       		.uleb128 0xb
 6556 135e A32D0000 		.4byte	.LASF657
 6557 1362 2C       		.sleb128 44
 6558 1363 0B       		.uleb128 0xb
 6559 1364 32210000 		.4byte	.LASF658
 6560 1368 2D       		.sleb128 45
 6561 1369 0B       		.uleb128 0xb
 6562 136a 31230000 		.4byte	.LASF659
 6563 136e 2E       		.sleb128 46
 6564 136f 0B       		.uleb128 0xb
 6565 1370 6C290000 		.4byte	.LASF660
 6566 1374 2F       		.sleb128 47
 6567 1375 0B       		.uleb128 0xb
 6568 1376 CC140000 		.4byte	.LASF661
 6569 137a 30       		.sleb128 48
 6570 137b 0B       		.uleb128 0xb
 6571 137c 312E0000 		.4byte	.LASF662
 6572 1380 31       		.sleb128 49
 6573 1381 0B       		.uleb128 0xb
 6574 1382 A5280000 		.4byte	.LASF663
 6575 1386 32       		.sleb128 50
 6576 1387 0B       		.uleb128 0xb
 6577 1388 D42D0000 		.4byte	.LASF664
 6578 138c 33       		.sleb128 51
 6579 138d 0B       		.uleb128 0xb
 6580 138e A1090000 		.4byte	.LASF665
 6581 1392 34       		.sleb128 52
 6582 1393 0B       		.uleb128 0xb
 6583 1394 180F0000 		.4byte	.LASF666
 6584 1398 35       		.sleb128 53
ARM GAS  C:\Users\AHMED~1.ELE\AppData\Local\Temp\ccAQ67OG.s 			page 157


 6585 1399 0B       		.uleb128 0xb
 6586 139a 5D290000 		.4byte	.LASF667
 6587 139e 36       		.sleb128 54
 6588 139f 00       		.byte	0
 6589 13a0 08       		.uleb128 0x8
 6590 13a1 A2000000 		.4byte	0xa2
 6591 13a5 B0130000 		.4byte	0x13b0
 6592 13a9 09       		.uleb128 0x9
 6593 13aa 78000000 		.4byte	0x78
 6594 13ae 0B       		.byte	0xb
 6595 13af 00       		.byte	0
 6596 13b0 12       		.uleb128 0x12
 6597 13b1 01       		.byte	0x1
 6598 13b2 07       		.byte	0x7
 6599 13b3 3C       		.byte	0x3c
 6600 13b4 DD130000 		.4byte	0x13dd
 6601 13b8 0B       		.uleb128 0xb
 6602 13b9 90210000 		.4byte	.LASF668
 6603 13bd 00       		.sleb128 0
 6604 13be 0B       		.uleb128 0xb
 6605 13bf AB310000 		.4byte	.LASF669
 6606 13c3 01       		.sleb128 1
 6607 13c4 0B       		.uleb128 0xb
 6608 13c5 7F260000 		.4byte	.LASF670
 6609 13c9 02       		.sleb128 2
 6610 13ca 0B       		.uleb128 0xb
 6611 13cb D7190000 		.4byte	.LASF671
 6612 13cf 03       		.sleb128 3
 6613 13d0 0B       		.uleb128 0xb
 6614 13d1 3C010000 		.4byte	.LASF672
 6615 13d5 04       		.sleb128 4
 6616 13d6 0B       		.uleb128 0xb
 6617 13d7 EF030000 		.4byte	.LASF673
 6618 13db 05       		.sleb128 5
 6619 13dc 00       		.byte	0
 6620 13dd 13       		.uleb128 0x13
 6621 13de 57210000 		.4byte	.LASF674
 6622 13e2 44       		.byte	0x44
 6623 13e3 07       		.byte	0x7
 6624 13e4 70       		.byte	0x70
 6625 13e5 0E140000 		.4byte	0x140e
 6626 13e9 14       		.uleb128 0x14
 6627 13ea 33140000 		.4byte	.LASF675
 6628 13ee 07       		.byte	0x7
 6629 13ef 71       		.byte	0x71
 6630 13f0 E50E0000 		.4byte	0xee5
 6631 13f4 00       		.byte	0
 6632 13f5 14       		.uleb128 0x14
 6633 13f6 A2170000 		.4byte	.LASF676
 6634 13fa 07       		.byte	0x7
 6635 13fb 72       		.byte	0x72
 6636 13fc E50E0000 		.4byte	0xee5
 6637 1400 20       		.byte	0x20
 6638 1401 14       		.uleb128 0x14
 6639 1402 DE1D0000 		.4byte	.LASF677
 6640 1406 07       		.byte	0x7
 6641 1407 73       		.byte	0x73
ARM GAS  C:\Users\AHMED~1.ELE\AppData\Local\Temp\ccAQ67OG.s 			page 158


 6642 1408 B8000000 		.4byte	0xb8
 6643 140c 40       		.byte	0x40
 6644 140d 00       		.byte	0
 6645 140e 13       		.uleb128 0x13
 6646 140f 99060000 		.4byte	.LASF678
 6647 1413 3C       		.byte	0x3c
 6648 1414 07       		.byte	0x7
 6649 1415 76       		.byte	0x76
 6650 1416 4B140000 		.4byte	0x144b
 6651 141a 14       		.uleb128 0x14
 6652 141b DE1D0000 		.4byte	.LASF677
 6653 141f 07       		.byte	0x7
 6654 1420 77       		.byte	0x77
 6655 1421 B8000000 		.4byte	0xb8
 6656 1425 00       		.byte	0
 6657 1426 14       		.uleb128 0x14
 6658 1427 95170000 		.4byte	.LASF679
 6659 142b 07       		.byte	0x7
 6660 142c 78       		.byte	0x78
 6661 142d 4B140000 		.4byte	0x144b
 6662 1431 04       		.byte	0x4
 6663 1432 14       		.uleb128 0x14
 6664 1433 A2170000 		.4byte	.LASF676
 6665 1437 07       		.byte	0x7
 6666 1438 79       		.byte	0x79
 6667 1439 D9000000 		.4byte	0xd9
 6668 143d 1A       		.byte	0x1a
 6669 143e 14       		.uleb128 0x14
 6670 143f C1000000 		.4byte	.LASF680
 6671 1443 07       		.byte	0x7
 6672 1444 7A       		.byte	0x7a
 6673 1445 A2000000 		.4byte	0xa2
 6674 1449 3A       		.byte	0x3a
 6675 144a 00       		.byte	0
 6676 144b 08       		.uleb128 0x8
 6677 144c A2000000 		.4byte	0xa2
 6678 1450 5B140000 		.4byte	0x145b
 6679 1454 09       		.uleb128 0x9
 6680 1455 78000000 		.4byte	0x78
 6681 1459 15       		.byte	0x15
 6682 145a 00       		.byte	0
 6683 145b 13       		.uleb128 0x13
 6684 145c 7D050000 		.4byte	.LASF681
 6685 1460 DC       		.byte	0xdc
 6686 1461 07       		.byte	0x7
 6687 1462 7D       		.byte	0x7d
 6688 1463 A4140000 		.4byte	0x14a4
 6689 1467 14       		.uleb128 0x14
 6690 1468 DE1D0000 		.4byte	.LASF677
 6691 146c 07       		.byte	0x7
 6692 146d 7E       		.byte	0x7e
 6693 146e B8000000 		.4byte	0xb8
 6694 1472 00       		.byte	0
 6695 1473 14       		.uleb128 0x14
 6696 1474 95170000 		.4byte	.LASF679
 6697 1478 07       		.byte	0x7
 6698 1479 7F       		.byte	0x7f
ARM GAS  C:\Users\AHMED~1.ELE\AppData\Local\Temp\ccAQ67OG.s 			page 159


 6699 147a 4B140000 		.4byte	0x144b
 6700 147e 04       		.byte	0x4
 6701 147f 14       		.uleb128 0x14
 6702 1480 A2170000 		.4byte	.LASF676
 6703 1484 07       		.byte	0x7
 6704 1485 80       		.byte	0x80
 6705 1486 D9000000 		.4byte	0xd9
 6706 148a 1A       		.byte	0x1a
 6707 148b 14       		.uleb128 0x14
 6708 148c D5300000 		.4byte	.LASF682
 6709 1490 07       		.byte	0x7
 6710 1491 81       		.byte	0x81
 6711 1492 A2000000 		.4byte	0xa2
 6712 1496 3A       		.byte	0x3a
 6713 1497 14       		.uleb128 0x14
 6714 1498 1A060000 		.4byte	.LASF549
 6715 149c 07       		.byte	0x7
 6716 149d 82       		.byte	0x82
 6717 149e A4140000 		.4byte	0x14a4
 6718 14a2 3B       		.byte	0x3b
 6719 14a3 00       		.byte	0
 6720 14a4 08       		.uleb128 0x8
 6721 14a5 A2000000 		.4byte	0xa2
 6722 14a9 B4140000 		.4byte	0x14b4
 6723 14ad 09       		.uleb128 0x9
 6724 14ae 78000000 		.4byte	0x78
 6725 14b2 A0       		.byte	0xa0
 6726 14b3 00       		.byte	0
 6727 14b4 15       		.uleb128 0x15
 6728 14b5 DF2D0000 		.4byte	.LASF683
 6729 14b9 CC5C     		.2byte	0x5ccc
 6730 14bb 07       		.byte	0x7
 6731 14bc 85       		.byte	0x85
 6732 14bd 6D150000 		.4byte	0x156d
 6733 14c1 14       		.uleb128 0x14
 6734 14c2 141D0000 		.4byte	.LASF684
 6735 14c6 07       		.byte	0x7
 6736 14c7 86       		.byte	0x86
 6737 14c8 6D150000 		.4byte	0x156d
 6738 14cc 00       		.byte	0
 6739 14cd 14       		.uleb128 0x14
 6740 14ce 89260000 		.4byte	.LASF685
 6741 14d2 07       		.byte	0x7
 6742 14d3 87       		.byte	0x87
 6743 14d4 72150000 		.4byte	0x1572
 6744 14d8 04       		.byte	0x4
 6745 14d9 14       		.uleb128 0x14
 6746 14da F3310000 		.4byte	.LASF686
 6747 14de 07       		.byte	0x7
 6748 14df 88       		.byte	0x88
 6749 14e0 B8000000 		.4byte	0xb8
 6750 14e4 1C       		.byte	0x1c
 6751 14e5 14       		.uleb128 0x14
 6752 14e6 9B0C0000 		.4byte	.LASF687
 6753 14ea 07       		.byte	0x7
 6754 14eb 89       		.byte	0x89
 6755 14ec B8000000 		.4byte	0xb8
ARM GAS  C:\Users\AHMED~1.ELE\AppData\Local\Temp\ccAQ67OG.s 			page 160


 6756 14f0 20       		.byte	0x20
 6757 14f1 14       		.uleb128 0x14
 6758 14f2 2B2A0000 		.4byte	.LASF688
 6759 14f6 07       		.byte	0x7
 6760 14f7 8A       		.byte	0x8a
 6761 14f8 B8000000 		.4byte	0xb8
 6762 14fc 24       		.byte	0x24
 6763 14fd 14       		.uleb128 0x14
 6764 14fe D1040000 		.4byte	.LASF689
 6765 1502 07       		.byte	0x7
 6766 1503 8B       		.byte	0x8b
 6767 1504 B8000000 		.4byte	0xb8
 6768 1508 28       		.byte	0x28
 6769 1509 14       		.uleb128 0x14
 6770 150a D50E0000 		.4byte	.LASF690
 6771 150e 07       		.byte	0x7
 6772 150f 8C       		.byte	0x8c
 6773 1510 A2000000 		.4byte	0xa2
 6774 1514 2C       		.byte	0x2c
 6775 1515 14       		.uleb128 0x14
 6776 1516 58060000 		.4byte	.LASF691
 6777 151a 07       		.byte	0x7
 6778 151b 8D       		.byte	0x8d
 6779 151c B8000000 		.4byte	0xb8
 6780 1520 30       		.byte	0x30
 6781 1521 14       		.uleb128 0x14
 6782 1522 DE290000 		.4byte	.LASF692
 6783 1526 07       		.byte	0x7
 6784 1527 8E       		.byte	0x8e
 6785 1528 B8000000 		.4byte	0xb8
 6786 152c 34       		.byte	0x34
 6787 152d 14       		.uleb128 0x14
 6788 152e 802E0000 		.4byte	.LASF693
 6789 1532 07       		.byte	0x7
 6790 1533 8F       		.byte	0x8f
 6791 1534 B8000000 		.4byte	0xb8
 6792 1538 38       		.byte	0x38
 6793 1539 14       		.uleb128 0x14
 6794 153a 28100000 		.4byte	.LASF694
 6795 153e 07       		.byte	0x7
 6796 153f 90       		.byte	0x90
 6797 1540 82150000 		.4byte	0x1582
 6798 1544 3C       		.byte	0x3c
 6799 1545 16       		.uleb128 0x16
 6800 1546 981B0000 		.4byte	.LASF695
 6801 154a 07       		.byte	0x7
 6802 154b 91       		.byte	0x91
 6803 154c DD130000 		.4byte	0x13dd
 6804 1550 3C44     		.2byte	0x443c
 6805 1552 16       		.uleb128 0x16
 6806 1553 BC1D0000 		.4byte	.LASF696
 6807 1557 07       		.byte	0x7
 6808 1558 92       		.byte	0x92
 6809 1559 92150000 		.4byte	0x1592
 6810 155d 8044     		.2byte	0x4480
 6811 155f 16       		.uleb128 0x16
 6812 1560 6E320000 		.4byte	.LASF697
ARM GAS  C:\Users\AHMED~1.ELE\AppData\Local\Temp\ccAQ67OG.s 			page 161


 6813 1564 07       		.byte	0x7
 6814 1565 93       		.byte	0x93
 6815 1566 5B140000 		.4byte	0x145b
 6816 156a F05B     		.2byte	0x5bf0
 6817 156c 00       		.byte	0
 6818 156d 17       		.uleb128 0x17
 6819 156e B8000000 		.4byte	0xb8
 6820 1572 08       		.uleb128 0x8
 6821 1573 85000000 		.4byte	0x85
 6822 1577 82150000 		.4byte	0x1582
 6823 157b 09       		.uleb128 0x9
 6824 157c 78000000 		.4byte	0x78
 6825 1580 14       		.byte	0x14
 6826 1581 00       		.byte	0
 6827 1582 08       		.uleb128 0x8
 6828 1583 DD130000 		.4byte	0x13dd
 6829 1587 92150000 		.4byte	0x1592
 6830 158b 09       		.uleb128 0x9
 6831 158c 78000000 		.4byte	0x78
 6832 1590 FF       		.byte	0xff
 6833 1591 00       		.byte	0
 6834 1592 08       		.uleb128 0x8
 6835 1593 0E140000 		.4byte	0x140e
 6836 1597 A2150000 		.4byte	0x15a2
 6837 159b 09       		.uleb128 0x9
 6838 159c 78000000 		.4byte	0x78
 6839 15a0 63       		.byte	0x63
 6840 15a1 00       		.byte	0
 6841 15a2 18       		.uleb128 0x18
 6842 15a3 8D280000 		.4byte	.LASF705
 6843 15a7 01       		.byte	0x1
 6844 15a8 63       		.byte	0x63
 6845 15a9 97000000 		.4byte	0x97
 6846 15ad 01       		.byte	0x1
 6847 15ae 0B160000 		.4byte	0x160b
 6848 15b2 19       		.uleb128 0x19
 6849 15b3 410E0000 		.4byte	.LASF698
 6850 15b7 01       		.byte	0x1
 6851 15b8 63       		.byte	0x63
 6852 15b9 76000000 		.4byte	0x76
 6853 15bd 19       		.uleb128 0x19
 6854 15be CA100000 		.4byte	.LASF699
 6855 15c2 01       		.byte	0x1
 6856 15c3 63       		.byte	0x63
 6857 15c4 A2000000 		.4byte	0xa2
 6858 15c8 1A       		.uleb128 0x1a
 6859 15c9 F3280000 		.4byte	.LASF700
 6860 15cd 01       		.byte	0x1
 6861 15ce 65       		.byte	0x65
 6862 15cf 34100000 		.4byte	0x1034
 6863 15d3 1A       		.uleb128 0x1a
 6864 15d4 C7230000 		.4byte	.LASF701
 6865 15d8 01       		.byte	0x1
 6866 15d9 66       		.byte	0x66
 6867 15da 6E100000 		.4byte	0x106e
 6868 15de 1A       		.uleb128 0x1a
 6869 15df 0C1E0000 		.4byte	.LASF702
ARM GAS  C:\Users\AHMED~1.ELE\AppData\Local\Temp\ccAQ67OG.s 			page 162


 6870 15e3 01       		.byte	0x1
 6871 15e4 67       		.byte	0x67
 6872 15e5 B8000000 		.4byte	0xb8
 6873 15e9 1A       		.uleb128 0x1a
 6874 15ea 7F110000 		.4byte	.LASF703
 6875 15ee 01       		.byte	0x1
 6876 15ef 67       		.byte	0x67
 6877 15f0 B8000000 		.4byte	0xb8
 6878 15f4 1A       		.uleb128 0x1a
 6879 15f5 DB010000 		.4byte	.LASF704
 6880 15f9 01       		.byte	0x1
 6881 15fa 68       		.byte	0x68
 6882 15fb B8000000 		.4byte	0xb8
 6883 15ff 1B       		.uleb128 0x1b
 6884 1600 70747200 		.ascii	"ptr\000"
 6885 1604 01       		.byte	0x1
 6886 1605 69       		.byte	0x69
 6887 1606 7F000000 		.4byte	0x7f
 6888 160a 00       		.byte	0
 6889 160b 1C       		.uleb128 0x1c
 6890 160c C0020000 		.4byte	.LASF706
 6891 1610 01       		.byte	0x1
 6892 1611 D504     		.2byte	0x4d5
 6893 1613 97000000 		.4byte	0x97
 6894 1617 01       		.byte	0x1
 6895 1618 29160000 		.4byte	0x1629
 6896 161c 1D       		.uleb128 0x1d
 6897 161d 90070000 		.4byte	.LASF707
 6898 1621 01       		.byte	0x1
 6899 1622 D504     		.2byte	0x4d5
 6900 1624 A2000000 		.4byte	0xa2
 6901 1628 00       		.byte	0
 6902 1629 1E       		.uleb128 0x1e
 6903 162a 7A080000 		.4byte	.LASF714
 6904 162e 01       		.byte	0x1
 6905 162f 9C01     		.2byte	0x19c
 6906 1631 97000000 		.4byte	0x97
 6907 1635 01       		.byte	0x1
 6908 1636 8F160000 		.4byte	0x168f
 6909 163a 1D       		.uleb128 0x1d
 6910 163b 14010000 		.4byte	.LASF708
 6911 163f 01       		.byte	0x1
 6912 1640 9C01     		.2byte	0x19c
 6913 1642 F9100000 		.4byte	0x10f9
 6914 1646 1D       		.uleb128 0x1d
 6915 1647 EC280000 		.4byte	.LASF709
 6916 164b 01       		.byte	0x1
 6917 164c 9C01     		.2byte	0x19c
 6918 164e F9100000 		.4byte	0x10f9
 6919 1652 1F       		.uleb128 0x1f
 6920 1653 70747200 		.ascii	"ptr\000"
 6921 1657 01       		.byte	0x1
 6922 1658 9E01     		.2byte	0x19e
 6923 165a C3000000 		.4byte	0xc3
 6924 165e 20       		.uleb128 0x20
 6925 165f BE0B0000 		.4byte	.LASF710
 6926 1663 01       		.byte	0x1
ARM GAS  C:\Users\AHMED~1.ELE\AppData\Local\Temp\ccAQ67OG.s 			page 163


 6927 1664 9F01     		.2byte	0x19f
 6928 1666 B8000000 		.4byte	0xb8
 6929 166a 20       		.uleb128 0x20
 6930 166b C30B0000 		.4byte	.LASF711
 6931 166f 01       		.byte	0x1
 6932 1670 9F01     		.2byte	0x19f
 6933 1672 B8000000 		.4byte	0xb8
 6934 1676 20       		.uleb128 0x20
 6935 1677 C80B0000 		.4byte	.LASF712
 6936 167b 01       		.byte	0x1
 6937 167c 9F01     		.2byte	0x19f
 6938 167e B8000000 		.4byte	0xb8
 6939 1682 20       		.uleb128 0x20
 6940 1683 BE110000 		.4byte	.LASF713
 6941 1687 01       		.byte	0x1
 6942 1688 9F01     		.2byte	0x19f
 6943 168a B8000000 		.4byte	0xb8
 6944 168e 00       		.byte	0
 6945 168f 1E       		.uleb128 0x1e
 6946 1690 05200000 		.4byte	.LASF715
 6947 1694 01       		.byte	0x1
 6948 1695 0202     		.2byte	0x202
 6949 1697 97000000 		.4byte	0x97
 6950 169b 01       		.byte	0x1
 6951 169c DD160000 		.4byte	0x16dd
 6952 16a0 1D       		.uleb128 0x1d
 6953 16a1 B5310000 		.4byte	.LASF716
 6954 16a5 01       		.byte	0x1
 6955 16a6 0202     		.2byte	0x202
 6956 16a8 DD160000 		.4byte	0x16dd
 6957 16ac 1D       		.uleb128 0x1d
 6958 16ad BE2C0000 		.4byte	.LASF717
 6959 16b1 01       		.byte	0x1
 6960 16b2 0202     		.2byte	0x202
 6961 16b4 B8000000 		.4byte	0xb8
 6962 16b8 1F       		.uleb128 0x1f
 6963 16b9 70747200 		.ascii	"ptr\000"
 6964 16bd 01       		.byte	0x1
 6965 16be 0402     		.2byte	0x204
 6966 16c0 C3000000 		.4byte	0xc3
 6967 16c4 1F       		.uleb128 0x1f
 6968 16c5 62756600 		.ascii	"buf\000"
 6969 16c9 01       		.byte	0x1
 6970 16ca 0502     		.2byte	0x205
 6971 16cc E9000000 		.4byte	0xe9
 6972 16d0 20       		.uleb128 0x20
 6973 16d1 78050000 		.4byte	.LASF718
 6974 16d5 01       		.byte	0x1
 6975 16d6 0602     		.2byte	0x206
 6976 16d8 B8000000 		.4byte	0xb8
 6977 16dc 00       		.byte	0
 6978 16dd 06       		.uleb128 0x6
 6979 16de 04       		.byte	0x4
 6980 16df DD130000 		.4byte	0x13dd
 6981 16e3 1E       		.uleb128 0x1e
 6982 16e4 E71F0000 		.4byte	.LASF719
 6983 16e8 01       		.byte	0x1
ARM GAS  C:\Users\AHMED~1.ELE\AppData\Local\Temp\ccAQ67OG.s 			page 164


 6984 16e9 FE03     		.2byte	0x3fe
 6985 16eb 97000000 		.4byte	0x97
 6986 16ef 01       		.byte	0x1
 6987 16f0 25170000 		.4byte	0x1725
 6988 16f4 1D       		.uleb128 0x1d
 6989 16f5 78060000 		.4byte	.LASF720
 6990 16f9 01       		.byte	0x1
 6991 16fa FE03     		.2byte	0x3fe
 6992 16fc 7F000000 		.4byte	0x7f
 6993 1700 1D       		.uleb128 0x1d
 6994 1701 BE330000 		.4byte	.LASF721
 6995 1705 01       		.byte	0x1
 6996 1706 FE03     		.2byte	0x3fe
 6997 1708 B8000000 		.4byte	0xb8
 6998 170c 1F       		.uleb128 0x1f
 6999 170d 70747200 		.ascii	"ptr\000"
 7000 1711 01       		.byte	0x1
 7001 1712 0004     		.2byte	0x400
 7002 1714 7F000000 		.4byte	0x7f
 7003 1718 1F       		.uleb128 0x1f
 7004 1719 6C656E00 		.ascii	"len\000"
 7005 171d 01       		.byte	0x1
 7006 171e 0104     		.2byte	0x401
 7007 1720 B8000000 		.4byte	0xb8
 7008 1724 00       		.byte	0
 7009 1725 1E       		.uleb128 0x1e
 7010 1726 B5000000 		.4byte	.LASF722
 7011 172a 01       		.byte	0x1
 7012 172b FE04     		.2byte	0x4fe
 7013 172d 97000000 		.4byte	0x97
 7014 1731 01       		.byte	0x1
 7015 1732 7F170000 		.4byte	0x177f
 7016 1736 1D       		.uleb128 0x1d
 7017 1737 14010000 		.4byte	.LASF708
 7018 173b 01       		.byte	0x1
 7019 173c FE04     		.2byte	0x4fe
 7020 173e F9100000 		.4byte	0x10f9
 7021 1742 1D       		.uleb128 0x1d
 7022 1743 EC280000 		.4byte	.LASF709
 7023 1747 01       		.byte	0x1
 7024 1748 FE04     		.2byte	0x4fe
 7025 174a F9100000 		.4byte	0x10f9
 7026 174e 1F       		.uleb128 0x1f
 7027 174f 70747200 		.ascii	"ptr\000"
 7028 1753 01       		.byte	0x1
 7029 1754 0005     		.2byte	0x500
 7030 1756 C3000000 		.4byte	0xc3
 7031 175a 20       		.uleb128 0x20
 7032 175b BE0B0000 		.4byte	.LASF710
 7033 175f 01       		.byte	0x1
 7034 1760 0105     		.2byte	0x501
 7035 1762 B8000000 		.4byte	0xb8
 7036 1766 20       		.uleb128 0x20
 7037 1767 C30B0000 		.4byte	.LASF711
 7038 176b 01       		.byte	0x1
 7039 176c 0105     		.2byte	0x501
 7040 176e B8000000 		.4byte	0xb8
ARM GAS  C:\Users\AHMED~1.ELE\AppData\Local\Temp\ccAQ67OG.s 			page 165


 7041 1772 20       		.uleb128 0x20
 7042 1773 BE110000 		.4byte	.LASF713
 7043 1777 01       		.byte	0x1
 7044 1778 0105     		.2byte	0x501
 7045 177a B8000000 		.4byte	0xb8
 7046 177e 00       		.byte	0
 7047 177f 1C       		.uleb128 0x1c
 7048 1780 7F220000 		.4byte	.LASF723
 7049 1784 01       		.byte	0x1
 7050 1785 5301     		.2byte	0x153
 7051 1787 B8000000 		.4byte	0xb8
 7052 178b 01       		.byte	0x1
 7053 178c C1170000 		.4byte	0x17c1
 7054 1790 1D       		.uleb128 0x1d
 7055 1791 78020000 		.4byte	.LASF724
 7056 1795 01       		.byte	0x1
 7057 1796 5301     		.2byte	0x153
 7058 1798 C3000000 		.4byte	0xc3
 7059 179c 1D       		.uleb128 0x1d
 7060 179d BE330000 		.4byte	.LASF721
 7061 17a1 01       		.byte	0x1
 7062 17a2 5301     		.2byte	0x153
 7063 17a4 A2000000 		.4byte	0xa2
 7064 17a8 20       		.uleb128 0x20
 7065 17a9 35320000 		.4byte	.LASF725
 7066 17ad 01       		.byte	0x1
 7067 17ae 5501     		.2byte	0x155
 7068 17b0 A2000000 		.4byte	0xa2
 7069 17b4 1F       		.uleb128 0x1f
 7070 17b5 76616C00 		.ascii	"val\000"
 7071 17b9 01       		.byte	0x1
 7072 17ba 5601     		.2byte	0x156
 7073 17bc B8000000 		.4byte	0xb8
 7074 17c0 00       		.byte	0
 7075 17c1 1C       		.uleb128 0x1c
 7076 17c2 7E330000 		.4byte	.LASF726
 7077 17c6 01       		.byte	0x1
 7078 17c7 6D01     		.2byte	0x16d
 7079 17c9 97000000 		.4byte	0x97
 7080 17cd 01       		.byte	0x1
 7081 17ce 27180000 		.4byte	0x1827
 7082 17d2 1D       		.uleb128 0x1d
 7083 17d3 24250000 		.4byte	.LASF727
 7084 17d7 01       		.byte	0x1
 7085 17d8 6D01     		.2byte	0x16d
 7086 17da F9100000 		.4byte	0x10f9
 7087 17de 1D       		.uleb128 0x1d
 7088 17df AA020000 		.4byte	.LASF728
 7089 17e3 01       		.byte	0x1
 7090 17e4 6D01     		.2byte	0x16d
 7091 17e6 F9100000 		.4byte	0x10f9
 7092 17ea 1F       		.uleb128 0x1f
 7093 17eb 70747200 		.ascii	"ptr\000"
 7094 17ef 01       		.byte	0x1
 7095 17f0 6F01     		.2byte	0x16f
 7096 17f2 C3000000 		.4byte	0xc3
 7097 17f6 20       		.uleb128 0x20
ARM GAS  C:\Users\AHMED~1.ELE\AppData\Local\Temp\ccAQ67OG.s 			page 166


 7098 17f7 BE0B0000 		.4byte	.LASF710
 7099 17fb 01       		.byte	0x1
 7100 17fc 7001     		.2byte	0x170
 7101 17fe B8000000 		.4byte	0xb8
 7102 1802 20       		.uleb128 0x20
 7103 1803 C30B0000 		.4byte	.LASF711
 7104 1807 01       		.byte	0x1
 7105 1808 7001     		.2byte	0x170
 7106 180a B8000000 		.4byte	0xb8
 7107 180e 20       		.uleb128 0x20
 7108 180f C80B0000 		.4byte	.LASF712
 7109 1813 01       		.byte	0x1
 7110 1814 7001     		.2byte	0x170
 7111 1816 B8000000 		.4byte	0xb8
 7112 181a 20       		.uleb128 0x20
 7113 181b BE110000 		.4byte	.LASF713
 7114 181f 01       		.byte	0x1
 7115 1820 7001     		.2byte	0x170
 7116 1822 B8000000 		.4byte	0xb8
 7117 1826 00       		.byte	0
 7118 1827 21       		.uleb128 0x21
 7119 1828 42000000 		.4byte	.LASF824
 7120 182c 01       		.byte	0x1
 7121 182d DA       		.byte	0xda
 7122 182e 00000000 		.4byte	.LFB1
 7123 1832 48000000 		.4byte	.LFE1-.LFB1
 7124 1836 01       		.uleb128 0x1
 7125 1837 9C       		.byte	0x9c
 7126 1838 A7180000 		.4byte	0x18a7
 7127 183c 22       		.uleb128 0x22
 7128 183d C7230000 		.4byte	.LASF701
 7129 1841 01       		.byte	0x1
 7130 1842 DC       		.byte	0xdc
 7131 1843 6E100000 		.4byte	0x106e
 7132 1847 03       		.uleb128 0x3
 7133 1848 91       		.byte	0x91
 7134 1849 9474     		.sleb128 -1516
 7135 184b 23       		.uleb128 0x23
 7136 184c 1E000000 		.4byte	.LVL0
 7137 1850 443E0000 		.4byte	0x3e44
 7138 1854 70180000 		.4byte	0x1870
 7139 1858 24       		.uleb128 0x24
 7140 1859 01       		.uleb128 0x1
 7141 185a 53       		.byte	0x53
 7142 185b 01       		.uleb128 0x1
 7143 185c 33       		.byte	0x33
 7144 185d 24       		.uleb128 0x24
 7145 185e 01       		.uleb128 0x1
 7146 185f 51       		.byte	0x51
 7147 1860 01       		.uleb128 0x1
 7148 1861 37       		.byte	0x37
 7149 1862 24       		.uleb128 0x24
 7150 1863 01       		.uleb128 0x1
 7151 1864 50       		.byte	0x50
 7152 1865 01       		.uleb128 0x1
 7153 1866 3F       		.byte	0x3f
 7154 1867 24       		.uleb128 0x24
ARM GAS  C:\Users\AHMED~1.ELE\AppData\Local\Temp\ccAQ67OG.s 			page 167


 7155 1868 02       		.uleb128 0x2
 7156 1869 7D       		.byte	0x7d
 7157 186a 00       		.sleb128 0
 7158 186b 03       		.uleb128 0x3
 7159 186c 91       		.byte	0x91
 7160 186d 9474     		.sleb128 -1516
 7161 186f 00       		.byte	0
 7162 1870 23       		.uleb128 0x23
 7163 1871 26000000 		.4byte	.LVL1
 7164 1875 6D3E0000 		.4byte	0x3e6d
 7165 1879 85180000 		.4byte	0x1885
 7166 187d 24       		.uleb128 0x24
 7167 187e 01       		.uleb128 0x1
 7168 187f 50       		.byte	0x50
 7169 1880 03       		.uleb128 0x3
 7170 1881 0A       		.byte	0xa
 7171 1882 9C01     		.2byte	0x19c
 7172 1884 00       		.byte	0
 7173 1885 25       		.uleb128 0x25
 7174 1886 38000000 		.4byte	.LVL2
 7175 188a 443E0000 		.4byte	0x3e44
 7176 188e 24       		.uleb128 0x24
 7177 188f 01       		.uleb128 0x1
 7178 1890 53       		.byte	0x53
 7179 1891 03       		.uleb128 0x3
 7180 1892 40       		.byte	0x40
 7181 1893 46       		.byte	0x46
 7182 1894 24       		.byte	0x24
 7183 1895 24       		.uleb128 0x24
 7184 1896 01       		.uleb128 0x1
 7185 1897 51       		.byte	0x51
 7186 1898 01       		.uleb128 0x1
 7187 1899 38       		.byte	0x38
 7188 189a 24       		.uleb128 0x24
 7189 189b 01       		.uleb128 0x1
 7190 189c 50       		.byte	0x50
 7191 189d 01       		.uleb128 0x1
 7192 189e 3F       		.byte	0x3f
 7193 189f 24       		.uleb128 0x24
 7194 18a0 02       		.uleb128 0x2
 7195 18a1 7D       		.byte	0x7d
 7196 18a2 00       		.sleb128 0
 7197 18a3 01       		.uleb128 0x1
 7198 18a4 30       		.byte	0x30
 7199 18a5 00       		.byte	0
 7200 18a6 00       		.byte	0
 7201 18a7 26       		.uleb128 0x26
 7202 18a8 A2150000 		.4byte	0x15a2
 7203 18ac 00000000 		.4byte	.LFB43
 7204 18b0 28010000 		.4byte	.LFE43-.LFB43
 7205 18b4 01       		.uleb128 0x1
 7206 18b5 9C       		.byte	0x9c
 7207 18b6 6D1A0000 		.4byte	0x1a6d
 7208 18ba 27       		.uleb128 0x27
 7209 18bb B2150000 		.4byte	0x15b2
 7210 18bf 00000000 		.4byte	.LLST0
 7211 18c3 27       		.uleb128 0x27
ARM GAS  C:\Users\AHMED~1.ELE\AppData\Local\Temp\ccAQ67OG.s 			page 168


 7212 18c4 BD150000 		.4byte	0x15bd
 7213 18c8 2C000000 		.4byte	.LLST1
 7214 18cc 28       		.uleb128 0x28
 7215 18cd C8150000 		.4byte	0x15c8
 7216 18d1 03       		.uleb128 0x3
 7217 18d2 91       		.byte	0x91
 7218 18d3 9868     		.sleb128 -3048
 7219 18d5 28       		.uleb128 0x28
 7220 18d6 D3150000 		.4byte	0x15d3
 7221 18da 03       		.uleb128 0x3
 7222 18db 91       		.byte	0x91
 7223 18dc FC73     		.sleb128 -1540
 7224 18de 29       		.uleb128 0x29
 7225 18df DE150000 		.4byte	0x15de
 7226 18e3 4D000000 		.4byte	.LLST2
 7227 18e7 29       		.uleb128 0x29
 7228 18e8 E9150000 		.4byte	0x15e9
 7229 18ec 60000000 		.4byte	.LLST3
 7230 18f0 29       		.uleb128 0x29
 7231 18f1 F4150000 		.4byte	0x15f4
 7232 18f5 73000000 		.4byte	.LLST4
 7233 18f9 29       		.uleb128 0x29
 7234 18fa FF150000 		.4byte	0x15ff
 7235 18fe 9C000000 		.4byte	.LLST5
 7236 1902 23       		.uleb128 0x23
 7237 1903 20000000 		.4byte	.LVL6
 7238 1907 823E0000 		.4byte	0x3e82
 7239 190b 1D190000 		.4byte	0x191d
 7240 190f 24       		.uleb128 0x24
 7241 1910 01       		.uleb128 0x1
 7242 1911 51       		.byte	0x51
 7243 1912 03       		.uleb128 0x3
 7244 1913 F3       		.byte	0xf3
 7245 1914 01       		.uleb128 0x1
 7246 1915 50       		.byte	0x50
 7247 1916 24       		.uleb128 0x24
 7248 1917 01       		.uleb128 0x1
 7249 1918 50       		.byte	0x50
 7250 1919 02       		.uleb128 0x2
 7251 191a 74       		.byte	0x74
 7252 191b 04       		.sleb128 4
 7253 191c 00       		.byte	0
 7254 191d 23       		.uleb128 0x23
 7255 191e 2E000000 		.4byte	.LVL7
 7256 1922 443E0000 		.4byte	0x3e44
 7257 1926 41190000 		.4byte	0x1941
 7258 192a 24       		.uleb128 0x24
 7259 192b 01       		.uleb128 0x1
 7260 192c 53       		.byte	0x53
 7261 192d 01       		.uleb128 0x1
 7262 192e 32       		.byte	0x32
 7263 192f 24       		.uleb128 0x24
 7264 1930 01       		.uleb128 0x1
 7265 1931 51       		.byte	0x51
 7266 1932 01       		.uleb128 0x1
 7267 1933 37       		.byte	0x37
 7268 1934 24       		.uleb128 0x24
ARM GAS  C:\Users\AHMED~1.ELE\AppData\Local\Temp\ccAQ67OG.s 			page 169


 7269 1935 01       		.uleb128 0x1
 7270 1936 50       		.byte	0x50
 7271 1937 01       		.uleb128 0x1
 7272 1938 3F       		.byte	0x3f
 7273 1939 24       		.uleb128 0x24
 7274 193a 02       		.uleb128 0x2
 7275 193b 7D       		.byte	0x7d
 7276 193c 00       		.sleb128 0
 7277 193d 02       		.uleb128 0x2
 7278 193e 74       		.byte	0x74
 7279 193f 00       		.sleb128 0
 7280 1940 00       		.byte	0
 7281 1941 23       		.uleb128 0x23
 7282 1942 44000000 		.4byte	.LVL8
 7283 1946 9C3E0000 		.4byte	0x3e9c
 7284 194a 64190000 		.4byte	0x1964
 7285 194e 24       		.uleb128 0x24
 7286 194f 01       		.uleb128 0x1
 7287 1950 52       		.byte	0x52
 7288 1951 03       		.uleb128 0x3
 7289 1952 0A       		.byte	0xa
 7290 1953 DD05     		.2byte	0x5dd
 7291 1955 24       		.uleb128 0x24
 7292 1956 01       		.uleb128 0x1
 7293 1957 51       		.byte	0x51
 7294 1958 01       		.uleb128 0x1
 7295 1959 30       		.byte	0x30
 7296 195a 24       		.uleb128 0x24
 7297 195b 01       		.uleb128 0x1
 7298 195c 50       		.byte	0x50
 7299 195d 05       		.uleb128 0x5
 7300 195e 03       		.byte	0x3
 7301 195f 00000000 		.4byte	.LANCHOR0
 7302 1963 00       		.byte	0
 7303 1964 23       		.uleb128 0x23
 7304 1965 4C000000 		.4byte	.LVL9
 7305 1969 6D3E0000 		.4byte	0x3e6d
 7306 196d 79190000 		.4byte	0x1979
 7307 1971 24       		.uleb128 0x24
 7308 1972 01       		.uleb128 0x1
 7309 1973 50       		.byte	0x50
 7310 1974 03       		.uleb128 0x3
 7311 1975 0A       		.byte	0xa
 7312 1976 9F01     		.2byte	0x19f
 7313 1978 00       		.byte	0
 7314 1979 23       		.uleb128 0x23
 7315 197a 5A000000 		.4byte	.LVL11
 7316 197e 6D3E0000 		.4byte	0x3e6d
 7317 1982 8E190000 		.4byte	0x198e
 7318 1986 24       		.uleb128 0x24
 7319 1987 01       		.uleb128 0x1
 7320 1988 50       		.byte	0x50
 7321 1989 03       		.uleb128 0x3
 7322 198a 0A       		.byte	0xa
 7323 198b 9F01     		.2byte	0x19f
 7324 198d 00       		.byte	0
 7325 198e 23       		.uleb128 0x23
ARM GAS  C:\Users\AHMED~1.ELE\AppData\Local\Temp\ccAQ67OG.s 			page 170


 7326 198f 86000000 		.4byte	.LVL13
 7327 1993 443E0000 		.4byte	0x3e44
 7328 1997 B3190000 		.4byte	0x19b3
 7329 199b 24       		.uleb128 0x24
 7330 199c 01       		.uleb128 0x1
 7331 199d 53       		.byte	0x53
 7332 199e 03       		.uleb128 0x3
 7333 199f 40       		.byte	0x40
 7334 19a0 46       		.byte	0x46
 7335 19a1 24       		.byte	0x24
 7336 19a2 24       		.uleb128 0x24
 7337 19a3 01       		.uleb128 0x1
 7338 19a4 51       		.byte	0x51
 7339 19a5 01       		.uleb128 0x1
 7340 19a6 38       		.byte	0x38
 7341 19a7 24       		.uleb128 0x24
 7342 19a8 01       		.uleb128 0x1
 7343 19a9 50       		.byte	0x50
 7344 19aa 01       		.uleb128 0x1
 7345 19ab 3F       		.byte	0x3f
 7346 19ac 24       		.uleb128 0x24
 7347 19ad 02       		.uleb128 0x2
 7348 19ae 7D       		.byte	0x7d
 7349 19af 00       		.sleb128 0
 7350 19b0 01       		.uleb128 0x1
 7351 19b1 30       		.byte	0x30
 7352 19b2 00       		.byte	0
 7353 19b3 23       		.uleb128 0x23
 7354 19b4 90000000 		.4byte	.LVL14
 7355 19b8 B93E0000 		.4byte	0x3eb9
 7356 19bc C7190000 		.4byte	0x19c7
 7357 19c0 24       		.uleb128 0x24
 7358 19c1 01       		.uleb128 0x1
 7359 19c2 50       		.byte	0x50
 7360 19c3 02       		.uleb128 0x2
 7361 19c4 78       		.byte	0x78
 7362 19c5 00       		.sleb128 0
 7363 19c6 00       		.byte	0
 7364 19c7 23       		.uleb128 0x23
 7365 19c8 AE000000 		.4byte	.LVL15
 7366 19cc 443E0000 		.4byte	0x3e44
 7367 19d0 EC190000 		.4byte	0x19ec
 7368 19d4 24       		.uleb128 0x24
 7369 19d5 01       		.uleb128 0x1
 7370 19d6 53       		.byte	0x53
 7371 19d7 01       		.uleb128 0x1
 7372 19d8 33       		.byte	0x33
 7373 19d9 24       		.uleb128 0x24
 7374 19da 01       		.uleb128 0x1
 7375 19db 51       		.byte	0x51
 7376 19dc 01       		.uleb128 0x1
 7377 19dd 37       		.byte	0x37
 7378 19de 24       		.uleb128 0x24
 7379 19df 01       		.uleb128 0x1
 7380 19e0 50       		.byte	0x50
 7381 19e1 01       		.uleb128 0x1
 7382 19e2 3F       		.byte	0x3f
ARM GAS  C:\Users\AHMED~1.ELE\AppData\Local\Temp\ccAQ67OG.s 			page 171


 7383 19e3 24       		.uleb128 0x24
 7384 19e4 02       		.uleb128 0x2
 7385 19e5 7D       		.byte	0x7d
 7386 19e6 00       		.sleb128 0
 7387 19e7 03       		.uleb128 0x3
 7388 19e8 91       		.byte	0x91
 7389 19e9 FC73     		.sleb128 -1540
 7390 19eb 00       		.byte	0
 7391 19ec 23       		.uleb128 0x23
 7392 19ed BC000000 		.4byte	.LVL18
 7393 19f1 CE3E0000 		.4byte	0x3ece
 7394 19f5 0D1A0000 		.4byte	0x1a0d
 7395 19f9 24       		.uleb128 0x24
 7396 19fa 01       		.uleb128 0x1
 7397 19fb 52       		.byte	0x52
 7398 19fc 02       		.uleb128 0x2
 7399 19fd 79       		.byte	0x79
 7400 19fe 00       		.sleb128 0
 7401 19ff 24       		.uleb128 0x24
 7402 1a00 01       		.uleb128 0x1
 7403 1a01 51       		.byte	0x51
 7404 1a02 03       		.uleb128 0x3
 7405 1a03 91       		.byte	0x91
 7406 1a04 8074     		.sleb128 -1536
 7407 1a06 24       		.uleb128 0x24
 7408 1a07 01       		.uleb128 0x1
 7409 1a08 50       		.byte	0x50
 7410 1a09 02       		.uleb128 0x2
 7411 1a0a 74       		.byte	0x74
 7412 1a0b 00       		.sleb128 0
 7413 1a0c 00       		.byte	0
 7414 1a0d 23       		.uleb128 0x23
 7415 1a0e C8000000 		.4byte	.LVL19
 7416 1a12 EB3E0000 		.4byte	0x3eeb
 7417 1a16 2A1A0000 		.4byte	0x1a2a
 7418 1a1a 24       		.uleb128 0x24
 7419 1a1b 01       		.uleb128 0x1
 7420 1a1c 51       		.byte	0x51
 7421 1a1d 05       		.uleb128 0x5
 7422 1a1e 03       		.byte	0x3
 7423 1a1f 00000000 		.4byte	.LC1
 7424 1a23 24       		.uleb128 0x24
 7425 1a24 01       		.uleb128 0x1
 7426 1a25 50       		.byte	0x50
 7427 1a26 02       		.uleb128 0x2
 7428 1a27 74       		.byte	0x74
 7429 1a28 00       		.sleb128 0
 7430 1a29 00       		.byte	0
 7431 1a2a 23       		.uleb128 0x23
 7432 1a2b D4000000 		.4byte	.LVL20
 7433 1a2f EB3E0000 		.4byte	0x3eeb
 7434 1a33 471A0000 		.4byte	0x1a47
 7435 1a37 24       		.uleb128 0x24
 7436 1a38 01       		.uleb128 0x1
 7437 1a39 51       		.byte	0x51
 7438 1a3a 05       		.uleb128 0x5
 7439 1a3b 03       		.byte	0x3
ARM GAS  C:\Users\AHMED~1.ELE\AppData\Local\Temp\ccAQ67OG.s 			page 172


 7440 1a3c 03000000 		.4byte	.LC2
 7441 1a40 24       		.uleb128 0x24
 7442 1a41 01       		.uleb128 0x1
 7443 1a42 50       		.byte	0x50
 7444 1a43 02       		.uleb128 0x2
 7445 1a44 74       		.byte	0x74
 7446 1a45 00       		.sleb128 0
 7447 1a46 00       		.byte	0
 7448 1a47 23       		.uleb128 0x23
 7449 1a48 DE000000 		.4byte	.LVL21
 7450 1a4c B93E0000 		.4byte	0x3eb9
 7451 1a50 5B1A0000 		.4byte	0x1a5b
 7452 1a54 24       		.uleb128 0x24
 7453 1a55 01       		.uleb128 0x1
 7454 1a56 50       		.byte	0x50
 7455 1a57 02       		.uleb128 0x2
 7456 1a58 78       		.byte	0x78
 7457 1a59 00       		.sleb128 0
 7458 1a5a 00       		.byte	0
 7459 1a5b 25       		.uleb128 0x25
 7460 1a5c FE000000 		.4byte	.LVL24
 7461 1a60 6D3E0000 		.4byte	0x3e6d
 7462 1a64 24       		.uleb128 0x24
 7463 1a65 01       		.uleb128 0x1
 7464 1a66 50       		.byte	0x50
 7465 1a67 03       		.uleb128 0x3
 7466 1a68 0A       		.byte	0xa
 7467 1a69 9C01     		.2byte	0x19c
 7468 1a6b 00       		.byte	0
 7469 1a6c 00       		.byte	0
 7470 1a6d 26       		.uleb128 0x26
 7471 1a6e A2150000 		.4byte	0x15a2
 7472 1a72 00000000 		.4byte	.LFB0
 7473 1a76 68000000 		.4byte	.LFE0-.LFB0
 7474 1a7a 01       		.uleb128 0x1
 7475 1a7b 9C       		.byte	0x9c
 7476 1a7c 3E1B0000 		.4byte	0x1b3e
 7477 1a80 27       		.uleb128 0x27
 7478 1a81 B2150000 		.4byte	0x15b2
 7479 1a85 BF000000 		.4byte	.LLST6
 7480 1a89 27       		.uleb128 0x27
 7481 1a8a BD150000 		.4byte	0x15bd
 7482 1a8e 0F010000 		.4byte	.LLST7
 7483 1a92 2A       		.uleb128 0x2a
 7484 1a93 C8150000 		.4byte	0x15c8
 7485 1a97 2A       		.uleb128 0x2a
 7486 1a98 D3150000 		.4byte	0x15d3
 7487 1a9c 29       		.uleb128 0x29
 7488 1a9d DE150000 		.4byte	0x15de
 7489 1aa1 30010000 		.4byte	.LLST8
 7490 1aa5 29       		.uleb128 0x29
 7491 1aa6 E9150000 		.4byte	0x15e9
 7492 1aaa 4E010000 		.4byte	.LLST9
 7493 1aae 2A       		.uleb128 0x2a
 7494 1aaf F4150000 		.4byte	0x15f4
 7495 1ab3 2A       		.uleb128 0x2a
 7496 1ab4 FF150000 		.4byte	0x15ff
ARM GAS  C:\Users\AHMED~1.ELE\AppData\Local\Temp\ccAQ67OG.s 			page 173


 7497 1ab8 23       		.uleb128 0x23
 7498 1ab9 0E000000 		.4byte	.LVL28
 7499 1abd 6D3E0000 		.4byte	0x3e6d
 7500 1ac1 CD1A0000 		.4byte	0x1acd
 7501 1ac5 24       		.uleb128 0x24
 7502 1ac6 01       		.uleb128 0x1
 7503 1ac7 50       		.byte	0x50
 7504 1ac8 03       		.uleb128 0x3
 7505 1ac9 0A       		.byte	0xa
 7506 1aca 9F01     		.2byte	0x19f
 7507 1acc 00       		.byte	0
 7508 1acd 23       		.uleb128 0x23
 7509 1ace 18000000 		.4byte	.LVL30
 7510 1ad2 6D3E0000 		.4byte	0x3e6d
 7511 1ad6 E21A0000 		.4byte	0x1ae2
 7512 1ada 24       		.uleb128 0x24
 7513 1adb 01       		.uleb128 0x1
 7514 1adc 50       		.byte	0x50
 7515 1add 03       		.uleb128 0x3
 7516 1ade 0A       		.byte	0xa
 7517 1adf 9F01     		.2byte	0x19f
 7518 1ae1 00       		.byte	0
 7519 1ae2 23       		.uleb128 0x23
 7520 1ae3 34000000 		.4byte	.LVL32
 7521 1ae7 443E0000 		.4byte	0x3e44
 7522 1aeb 071B0000 		.4byte	0x1b07
 7523 1aef 24       		.uleb128 0x24
 7524 1af0 01       		.uleb128 0x1
 7525 1af1 53       		.byte	0x53
 7526 1af2 03       		.uleb128 0x3
 7527 1af3 40       		.byte	0x40
 7528 1af4 44       		.byte	0x44
 7529 1af5 24       		.byte	0x24
 7530 1af6 24       		.uleb128 0x24
 7531 1af7 01       		.uleb128 0x1
 7532 1af8 51       		.byte	0x51
 7533 1af9 01       		.uleb128 0x1
 7534 1afa 38       		.byte	0x38
 7535 1afb 24       		.uleb128 0x24
 7536 1afc 01       		.uleb128 0x1
 7537 1afd 50       		.byte	0x50
 7538 1afe 01       		.uleb128 0x1
 7539 1aff 3F       		.byte	0x3f
 7540 1b00 24       		.uleb128 0x24
 7541 1b01 02       		.uleb128 0x2
 7542 1b02 7D       		.byte	0x7d
 7543 1b03 00       		.sleb128 0
 7544 1b04 01       		.uleb128 0x1
 7545 1b05 30       		.byte	0x30
 7546 1b06 00       		.byte	0
 7547 1b07 2B       		.uleb128 0x2b
 7548 1b08 48000000 		.4byte	.LVL34
 7549 1b0c A7180000 		.4byte	0x18a7
 7550 1b10 1C1B0000 		.4byte	0x1b1c
 7551 1b14 24       		.uleb128 0x24
 7552 1b15 01       		.uleb128 0x1
 7553 1b16 50       		.byte	0x50
ARM GAS  C:\Users\AHMED~1.ELE\AppData\Local\Temp\ccAQ67OG.s 			page 174


 7554 1b17 03       		.uleb128 0x3
 7555 1b18 F3       		.byte	0xf3
 7556 1b19 01       		.uleb128 0x1
 7557 1b1a 50       		.byte	0x50
 7558 1b1b 00       		.byte	0
 7559 1b1c 25       		.uleb128 0x25
 7560 1b1d 5A000000 		.4byte	.LVL35
 7561 1b21 443E0000 		.4byte	0x3e44
 7562 1b25 24       		.uleb128 0x24
 7563 1b26 01       		.uleb128 0x1
 7564 1b27 53       		.byte	0x53
 7565 1b28 03       		.uleb128 0x3
 7566 1b29 40       		.byte	0x40
 7567 1b2a 44       		.byte	0x44
 7568 1b2b 24       		.byte	0x24
 7569 1b2c 24       		.uleb128 0x24
 7570 1b2d 01       		.uleb128 0x1
 7571 1b2e 51       		.byte	0x51
 7572 1b2f 01       		.uleb128 0x1
 7573 1b30 38       		.byte	0x38
 7574 1b31 24       		.uleb128 0x24
 7575 1b32 01       		.uleb128 0x1
 7576 1b33 50       		.byte	0x50
 7577 1b34 01       		.uleb128 0x1
 7578 1b35 3F       		.byte	0x3f
 7579 1b36 24       		.uleb128 0x24
 7580 1b37 02       		.uleb128 0x2
 7581 1b38 7D       		.byte	0x7d
 7582 1b39 00       		.sleb128 0
 7583 1b3a 01       		.uleb128 0x1
 7584 1b3b 30       		.byte	0x30
 7585 1b3c 00       		.byte	0
 7586 1b3d 00       		.byte	0
 7587 1b3e 26       		.uleb128 0x26
 7588 1b3f 0B160000 		.4byte	0x160b
 7589 1b43 00000000 		.4byte	.LFB44
 7590 1b47 3C000000 		.4byte	.LFE44-.LFB44
 7591 1b4b 01       		.uleb128 0x1
 7592 1b4c 9C       		.byte	0x9c
 7593 1b4d 8A1B0000 		.4byte	0x1b8a
 7594 1b51 27       		.uleb128 0x27
 7595 1b52 1C160000 		.4byte	0x161c
 7596 1b56 61010000 		.4byte	.LLST10
 7597 1b5a 23       		.uleb128 0x23
 7598 1b5b 14000000 		.4byte	.LVL39
 7599 1b5f 823E0000 		.4byte	0x3e82
 7600 1b63 7A1B0000 		.4byte	0x1b7a
 7601 1b67 24       		.uleb128 0x24
 7602 1b68 01       		.uleb128 0x1
 7603 1b69 51       		.byte	0x51
 7604 1b6a 05       		.uleb128 0x5
 7605 1b6b 03       		.byte	0x3
 7606 1b6c 09000000 		.4byte	.LC3
 7607 1b70 24       		.uleb128 0x24
 7608 1b71 01       		.uleb128 0x1
 7609 1b72 50       		.byte	0x50
 7610 1b73 05       		.uleb128 0x5
ARM GAS  C:\Users\AHMED~1.ELE\AppData\Local\Temp\ccAQ67OG.s 			page 175


 7611 1b74 03       		.byte	0x3
 7612 1b75 DD050000 		.4byte	.LANCHOR0+1501
 7613 1b79 00       		.byte	0
 7614 1b7a 25       		.uleb128 0x25
 7615 1b7b 22000000 		.4byte	.LVL40
 7616 1b7f A2150000 		.4byte	0x15a2
 7617 1b83 24       		.uleb128 0x24
 7618 1b84 01       		.uleb128 0x1
 7619 1b85 51       		.byte	0x51
 7620 1b86 01       		.uleb128 0x1
 7621 1b87 32       		.byte	0x32
 7622 1b88 00       		.byte	0
 7623 1b89 00       		.byte	0
 7624 1b8a 26       		.uleb128 0x26
 7625 1b8b 7F170000 		.4byte	0x177f
 7626 1b8f 00000000 		.4byte	.LFB49
 7627 1b93 22000000 		.4byte	.LFE49-.LFB49
 7628 1b97 01       		.uleb128 0x1
 7629 1b98 9C       		.byte	0x9c
 7630 1b99 C01B0000 		.4byte	0x1bc0
 7631 1b9d 27       		.uleb128 0x27
 7632 1b9e 90170000 		.4byte	0x1790
 7633 1ba2 91010000 		.4byte	.LLST11
 7634 1ba6 29       		.uleb128 0x29
 7635 1ba7 A8170000 		.4byte	0x17a8
 7636 1bab C9010000 		.4byte	.LLST12
 7637 1baf 28       		.uleb128 0x28
 7638 1bb0 B4170000 		.4byte	0x17b4
 7639 1bb4 01       		.uleb128 0x1
 7640 1bb5 50       		.byte	0x50
 7641 1bb6 27       		.uleb128 0x27
 7642 1bb7 9C170000 		.4byte	0x179c
 7643 1bbb DC010000 		.4byte	.LLST13
 7644 1bbf 00       		.byte	0
 7645 1bc0 2C       		.uleb128 0x2c
 7646 1bc1 4B200000 		.4byte	.LASF730
 7647 1bc5 01       		.byte	0x1
 7648 1bc6 EC       		.byte	0xec
 7649 1bc7 97000000 		.4byte	0x97
 7650 1bcb 00000000 		.4byte	.LFB2
 7651 1bcf 4C000000 		.4byte	.LFE2-.LFB2
 7652 1bd3 01       		.uleb128 0x1
 7653 1bd4 9C       		.byte	0x9c
 7654 1bd5 761C0000 		.4byte	0x1c76
 7655 1bd9 2D       		.uleb128 0x2d
 7656 1bda BE180000 		.4byte	.LASF734
 7657 1bde 01       		.byte	0x1
 7658 1bdf EC       		.byte	0xec
 7659 1be0 B8000000 		.4byte	0xb8
 7660 1be4 02020000 		.4byte	.LLST14
 7661 1be8 2E       		.uleb128 0x2e
 7662 1be9 01160000 		.4byte	.LASF729
 7663 1bed 01       		.byte	0x1
 7664 1bee EE       		.byte	0xee
 7665 1bef B8000000 		.4byte	0xb8
 7666 1bf3 2E020000 		.4byte	.LLST15
 7667 1bf7 2E       		.uleb128 0x2e
ARM GAS  C:\Users\AHMED~1.ELE\AppData\Local\Temp\ccAQ67OG.s 			page 176


 7668 1bf8 0C1E0000 		.4byte	.LASF702
 7669 1bfc 01       		.byte	0x1
 7670 1bfd EF       		.byte	0xef
 7671 1bfe B8000000 		.4byte	0xb8
 7672 1c02 4C020000 		.4byte	.LLST16
 7673 1c06 2E       		.uleb128 0x2e
 7674 1c07 7F110000 		.4byte	.LASF703
 7675 1c0b 01       		.byte	0x1
 7676 1c0c EF       		.byte	0xef
 7677 1c0d B8000000 		.4byte	0xb8
 7678 1c11 5F020000 		.4byte	.LLST17
 7679 1c15 23       		.uleb128 0x23
 7680 1c16 0C000000 		.4byte	.LVL49
 7681 1c1a 6D3E0000 		.4byte	0x3e6d
 7682 1c1e 2A1C0000 		.4byte	0x1c2a
 7683 1c22 24       		.uleb128 0x24
 7684 1c23 01       		.uleb128 0x1
 7685 1c24 50       		.byte	0x50
 7686 1c25 03       		.uleb128 0x3
 7687 1c26 0A       		.byte	0xa
 7688 1c27 9F01     		.2byte	0x19f
 7689 1c29 00       		.byte	0
 7690 1c2a 23       		.uleb128 0x23
 7691 1c2b 16000000 		.4byte	.LVL51
 7692 1c2f 6D3E0000 		.4byte	0x3e6d
 7693 1c33 3F1C0000 		.4byte	0x1c3f
 7694 1c37 24       		.uleb128 0x24
 7695 1c38 01       		.uleb128 0x1
 7696 1c39 50       		.byte	0x50
 7697 1c3a 03       		.uleb128 0x3
 7698 1c3b 0A       		.byte	0xa
 7699 1c3c 9F01     		.2byte	0x19f
 7700 1c3e 00       		.byte	0
 7701 1c3f 23       		.uleb128 0x23
 7702 1c40 32000000 		.4byte	.LVL53
 7703 1c44 443E0000 		.4byte	0x3e44
 7704 1c48 641C0000 		.4byte	0x1c64
 7705 1c4c 24       		.uleb128 0x24
 7706 1c4d 01       		.uleb128 0x1
 7707 1c4e 53       		.byte	0x53
 7708 1c4f 03       		.uleb128 0x3
 7709 1c50 0A       		.byte	0xa
 7710 1c51 0012     		.2byte	0x1200
 7711 1c53 24       		.uleb128 0x24
 7712 1c54 01       		.uleb128 0x1
 7713 1c55 51       		.byte	0x51
 7714 1c56 01       		.uleb128 0x1
 7715 1c57 38       		.byte	0x38
 7716 1c58 24       		.uleb128 0x24
 7717 1c59 01       		.uleb128 0x1
 7718 1c5a 50       		.byte	0x50
 7719 1c5b 01       		.uleb128 0x1
 7720 1c5c 3F       		.byte	0x3f
 7721 1c5d 24       		.uleb128 0x24
 7722 1c5e 02       		.uleb128 0x2
 7723 1c5f 7D       		.byte	0x7d
 7724 1c60 00       		.sleb128 0
ARM GAS  C:\Users\AHMED~1.ELE\AppData\Local\Temp\ccAQ67OG.s 			page 177


 7725 1c61 01       		.uleb128 0x1
 7726 1c62 30       		.byte	0x30
 7727 1c63 00       		.byte	0
 7728 1c64 25       		.uleb128 0x25
 7729 1c65 40000000 		.4byte	.LVL55
 7730 1c69 6D3E0000 		.4byte	0x3e6d
 7731 1c6d 24       		.uleb128 0x24
 7732 1c6e 01       		.uleb128 0x1
 7733 1c6f 50       		.byte	0x50
 7734 1c70 03       		.uleb128 0x3
 7735 1c71 0A       		.byte	0xa
 7736 1c72 9C01     		.2byte	0x19c
 7737 1c74 00       		.byte	0
 7738 1c75 00       		.byte	0
 7739 1c76 2F       		.uleb128 0x2f
 7740 1c77 CC240000 		.4byte	.LASF731
 7741 1c7b 01       		.byte	0x1
 7742 1c7c 0601     		.2byte	0x106
 7743 1c7e 97000000 		.4byte	0x97
 7744 1c82 00000000 		.4byte	.LFB3
 7745 1c86 38000000 		.4byte	.LFE3-.LFB3
 7746 1c8a 01       		.uleb128 0x1
 7747 1c8b 9C       		.byte	0x9c
 7748 1c8c EF1C0000 		.4byte	0x1cef
 7749 1c90 30       		.uleb128 0x30
 7750 1c91 84100000 		.4byte	.LASF732
 7751 1c95 01       		.byte	0x1
 7752 1c96 0801     		.2byte	0x108
 7753 1c98 97000000 		.4byte	0x97
 7754 1c9c 72020000 		.4byte	.LLST18
 7755 1ca0 31       		.uleb128 0x31
 7756 1ca1 06000000 		.4byte	.LVL60
 7757 1ca5 27180000 		.4byte	0x1827
 7758 1ca9 23       		.uleb128 0x23
 7759 1caa 0E000000 		.4byte	.LVL61
 7760 1cae A2150000 		.4byte	0x15a2
 7761 1cb2 C51C0000 		.4byte	0x1cc5
 7762 1cb6 24       		.uleb128 0x24
 7763 1cb7 01       		.uleb128 0x1
 7764 1cb8 51       		.byte	0x51
 7765 1cb9 01       		.uleb128 0x1
 7766 1cba 31       		.byte	0x31
 7767 1cbb 24       		.uleb128 0x24
 7768 1cbc 01       		.uleb128 0x1
 7769 1cbd 50       		.byte	0x50
 7770 1cbe 05       		.uleb128 0x5
 7771 1cbf 03       		.byte	0x3
 7772 1cc0 15000000 		.4byte	.LC4
 7773 1cc4 00       		.byte	0
 7774 1cc5 23       		.uleb128 0x23
 7775 1cc6 18000000 		.4byte	.LVL62
 7776 1cca EB3E0000 		.4byte	0x3eeb
 7777 1cce E51C0000 		.4byte	0x1ce5
 7778 1cd2 24       		.uleb128 0x24
 7779 1cd3 01       		.uleb128 0x1
 7780 1cd4 51       		.byte	0x51
 7781 1cd5 05       		.uleb128 0x5
ARM GAS  C:\Users\AHMED~1.ELE\AppData\Local\Temp\ccAQ67OG.s 			page 178


 7782 1cd6 03       		.byte	0x3
 7783 1cd7 20000000 		.4byte	.LC5
 7784 1cdb 24       		.uleb128 0x24
 7785 1cdc 01       		.uleb128 0x1
 7786 1cdd 50       		.byte	0x50
 7787 1cde 05       		.uleb128 0x5
 7788 1cdf 03       		.byte	0x3
 7789 1ce0 00000000 		.4byte	.LANCHOR0
 7790 1ce4 00       		.byte	0
 7791 1ce5 31       		.uleb128 0x31
 7792 1ce6 26000000 		.4byte	.LVL64
 7793 1cea 27180000 		.4byte	0x1827
 7794 1cee 00       		.byte	0
 7795 1cef 2F       		.uleb128 0x2f
 7796 1cf0 0B2C0000 		.4byte	.LASF733
 7797 1cf4 01       		.byte	0x1
 7798 1cf5 2201     		.2byte	0x122
 7799 1cf7 A2000000 		.4byte	0xa2
 7800 1cfb 00000000 		.4byte	.LFB4
 7801 1cff 84000000 		.4byte	.LFE4-.LFB4
 7802 1d03 01       		.uleb128 0x1
 7803 1d04 9C       		.byte	0x9c
 7804 1d05 2B1E0000 		.4byte	0x1e2b
 7805 1d09 32       		.uleb128 0x32
 7806 1d0a 930D0000 		.4byte	.LASF735
 7807 1d0e 01       		.byte	0x1
 7808 1d0f 2201     		.2byte	0x122
 7809 1d11 A2000000 		.4byte	0xa2
 7810 1d15 91020000 		.4byte	.LLST19
 7811 1d19 33       		.uleb128 0x33
 7812 1d1a 636D6400 		.ascii	"cmd\000"
 7813 1d1e 01       		.byte	0x1
 7814 1d1f 2401     		.2byte	0x124
 7815 1d21 411E0000 		.4byte	0x1e41
 7816 1d25 02       		.uleb128 0x2
 7817 1d26 91       		.byte	0x91
 7818 1d27 64       		.sleb128 -28
 7819 1d28 34       		.uleb128 0x34
 7820 1d29 70747200 		.ascii	"ptr\000"
 7821 1d2d 01       		.byte	0x1
 7822 1d2e 2501     		.2byte	0x125
 7823 1d30 7F000000 		.4byte	0x7f
 7824 1d34 B2020000 		.4byte	.LLST20
 7825 1d38 23       		.uleb128 0x23
 7826 1d39 10000000 		.4byte	.LVL68
 7827 1d3d CE3E0000 		.4byte	0x3ece
 7828 1d41 5A1D0000 		.4byte	0x1d5a
 7829 1d45 24       		.uleb128 0x24
 7830 1d46 01       		.uleb128 0x1
 7831 1d47 52       		.byte	0x52
 7832 1d48 01       		.uleb128 0x1
 7833 1d49 3C       		.byte	0x3c
 7834 1d4a 24       		.uleb128 0x24
 7835 1d4b 01       		.uleb128 0x1
 7836 1d4c 51       		.byte	0x51
 7837 1d4d 05       		.uleb128 0x5
 7838 1d4e 03       		.byte	0x3
ARM GAS  C:\Users\AHMED~1.ELE\AppData\Local\Temp\ccAQ67OG.s 			page 179


 7839 1d4f 00000000 		.4byte	.LANCHOR1
 7840 1d53 24       		.uleb128 0x24
 7841 1d54 01       		.uleb128 0x1
 7842 1d55 50       		.byte	0x50
 7843 1d56 02       		.uleb128 0x2
 7844 1d57 91       		.byte	0x91
 7845 1d58 64       		.sleb128 -28
 7846 1d59 00       		.byte	0
 7847 1d5a 31       		.uleb128 0x31
 7848 1d5b 14000000 		.4byte	.LVL69
 7849 1d5f 27180000 		.4byte	0x1827
 7850 1d63 23       		.uleb128 0x23
 7851 1d64 26000000 		.4byte	.LVL70
 7852 1d68 053F0000 		.4byte	0x3f05
 7853 1d6c 891D0000 		.4byte	0x1d89
 7854 1d70 24       		.uleb128 0x24
 7855 1d71 01       		.uleb128 0x1
 7856 1d72 52       		.byte	0x52
 7857 1d73 02       		.uleb128 0x2
 7858 1d74 74       		.byte	0x74
 7859 1d75 00       		.sleb128 0
 7860 1d76 24       		.uleb128 0x24
 7861 1d77 01       		.uleb128 0x1
 7862 1d78 51       		.byte	0x51
 7863 1d79 05       		.uleb128 0x5
 7864 1d7a 03       		.byte	0x3
 7865 1d7b 25000000 		.4byte	.LC6
 7866 1d7f 24       		.uleb128 0x24
 7867 1d80 01       		.uleb128 0x1
 7868 1d81 50       		.byte	0x50
 7869 1d82 05       		.uleb128 0x5
 7870 1d83 03       		.byte	0x3
 7871 1d84 DD050000 		.4byte	.LANCHOR0+1501
 7872 1d88 00       		.byte	0
 7873 1d89 23       		.uleb128 0x23
 7874 1d8a 2E000000 		.4byte	.LVL71
 7875 1d8e A2150000 		.4byte	0x15a2
 7876 1d92 A51D0000 		.4byte	0x1da5
 7877 1d96 24       		.uleb128 0x24
 7878 1d97 01       		.uleb128 0x1
 7879 1d98 51       		.byte	0x51
 7880 1d99 01       		.uleb128 0x1
 7881 1d9a 32       		.byte	0x32
 7882 1d9b 24       		.uleb128 0x24
 7883 1d9c 01       		.uleb128 0x1
 7884 1d9d 50       		.byte	0x50
 7885 1d9e 05       		.uleb128 0x5
 7886 1d9f 03       		.byte	0x3
 7887 1da0 DD050000 		.4byte	.LANCHOR0+1501
 7888 1da4 00       		.byte	0
 7889 1da5 31       		.uleb128 0x31
 7890 1da6 34000000 		.4byte	.LVL72
 7891 1daa 27180000 		.4byte	0x1827
 7892 1dae 23       		.uleb128 0x23
 7893 1daf 3E000000 		.4byte	.LVL73
 7894 1db3 053F0000 		.4byte	0x3f05
 7895 1db7 D41D0000 		.4byte	0x1dd4
ARM GAS  C:\Users\AHMED~1.ELE\AppData\Local\Temp\ccAQ67OG.s 			page 180


 7896 1dbb 24       		.uleb128 0x24
 7897 1dbc 01       		.uleb128 0x1
 7898 1dbd 52       		.byte	0x52
 7899 1dbe 02       		.uleb128 0x2
 7900 1dbf 74       		.byte	0x74
 7901 1dc0 00       		.sleb128 0
 7902 1dc1 24       		.uleb128 0x24
 7903 1dc2 01       		.uleb128 0x1
 7904 1dc3 51       		.byte	0x51
 7905 1dc4 05       		.uleb128 0x5
 7906 1dc5 03       		.byte	0x3
 7907 1dc6 2F000000 		.4byte	.LC7
 7908 1dca 24       		.uleb128 0x24
 7909 1dcb 01       		.uleb128 0x1
 7910 1dcc 50       		.byte	0x50
 7911 1dcd 05       		.uleb128 0x5
 7912 1dce 03       		.byte	0x3
 7913 1dcf DD050000 		.4byte	.LANCHOR0+1501
 7914 1dd3 00       		.byte	0
 7915 1dd4 23       		.uleb128 0x23
 7916 1dd5 46000000 		.4byte	.LVL74
 7917 1dd9 A2150000 		.4byte	0x15a2
 7918 1ddd F01D0000 		.4byte	0x1df0
 7919 1de1 24       		.uleb128 0x24
 7920 1de2 01       		.uleb128 0x1
 7921 1de3 51       		.byte	0x51
 7922 1de4 01       		.uleb128 0x1
 7923 1de5 31       		.byte	0x31
 7924 1de6 24       		.uleb128 0x24
 7925 1de7 01       		.uleb128 0x1
 7926 1de8 50       		.byte	0x50
 7927 1de9 05       		.uleb128 0x5
 7928 1dea 03       		.byte	0x3
 7929 1deb DD050000 		.4byte	.LANCHOR0+1501
 7930 1def 00       		.byte	0
 7931 1df0 23       		.uleb128 0x23
 7932 1df1 50000000 		.4byte	.LVL75
 7933 1df5 EB3E0000 		.4byte	0x3eeb
 7934 1df9 0D1E0000 		.4byte	0x1e0d
 7935 1dfd 24       		.uleb128 0x24
 7936 1dfe 01       		.uleb128 0x1
 7937 1dff 51       		.byte	0x51
 7938 1e00 02       		.uleb128 0x2
 7939 1e01 74       		.byte	0x74
 7940 1e02 00       		.sleb128 0
 7941 1e03 24       		.uleb128 0x24
 7942 1e04 01       		.uleb128 0x1
 7943 1e05 50       		.byte	0x50
 7944 1e06 05       		.uleb128 0x5
 7945 1e07 03       		.byte	0x3
 7946 1e08 00000000 		.4byte	.LANCHOR0
 7947 1e0c 00       		.byte	0
 7948 1e0d 23       		.uleb128 0x23
 7949 1e0e 5A000000 		.4byte	.LVL77
 7950 1e12 B93E0000 		.4byte	0x3eb9
 7951 1e16 211E0000 		.4byte	0x1e21
 7952 1e1a 24       		.uleb128 0x24
ARM GAS  C:\Users\AHMED~1.ELE\AppData\Local\Temp\ccAQ67OG.s 			page 181


 7953 1e1b 01       		.uleb128 0x1
 7954 1e1c 50       		.byte	0x50
 7955 1e1d 02       		.uleb128 0x2
 7956 1e1e 74       		.byte	0x74
 7957 1e1f 00       		.sleb128 0
 7958 1e20 00       		.byte	0
 7959 1e21 31       		.uleb128 0x31
 7960 1e22 64000000 		.4byte	.LVL79
 7961 1e26 27180000 		.4byte	0x1827
 7962 1e2a 00       		.byte	0
 7963 1e2b 08       		.uleb128 0x8
 7964 1e2c 85000000 		.4byte	0x85
 7965 1e30 411E0000 		.4byte	0x1e41
 7966 1e34 09       		.uleb128 0x9
 7967 1e35 78000000 		.4byte	0x78
 7968 1e39 01       		.byte	0x1
 7969 1e3a 09       		.uleb128 0x9
 7970 1e3b 78000000 		.4byte	0x78
 7971 1e3f 05       		.byte	0x5
 7972 1e40 00       		.byte	0
 7973 1e41 07       		.uleb128 0x7
 7974 1e42 2B1E0000 		.4byte	0x1e2b
 7975 1e46 2F       		.uleb128 0x2f
 7976 1e47 E1320000 		.4byte	.LASF736
 7977 1e4b 01       		.byte	0x1
 7978 1e4c 4001     		.2byte	0x140
 7979 1e4e A2000000 		.4byte	0xa2
 7980 1e52 00000000 		.4byte	.LFB5
 7981 1e56 34000000 		.4byte	.LFE5-.LFB5
 7982 1e5a 01       		.uleb128 0x1
 7983 1e5b 9C       		.byte	0x9c
 7984 1e5c AF1E0000 		.4byte	0x1eaf
 7985 1e60 31       		.uleb128 0x31
 7986 1e61 06000000 		.4byte	.LVL80
 7987 1e65 27180000 		.4byte	0x1827
 7988 1e69 23       		.uleb128 0x23
 7989 1e6a 0E000000 		.4byte	.LVL81
 7990 1e6e A2150000 		.4byte	0x15a2
 7991 1e72 851E0000 		.4byte	0x1e85
 7992 1e76 24       		.uleb128 0x24
 7993 1e77 01       		.uleb128 0x1
 7994 1e78 51       		.byte	0x51
 7995 1e79 01       		.uleb128 0x1
 7996 1e7a 32       		.byte	0x32
 7997 1e7b 24       		.uleb128 0x24
 7998 1e7c 01       		.uleb128 0x1
 7999 1e7d 50       		.byte	0x50
 8000 1e7e 05       		.uleb128 0x5
 8001 1e7f 03       		.byte	0x3
 8002 1e80 38000000 		.4byte	.LC8
 8003 1e84 00       		.byte	0
 8004 1e85 23       		.uleb128 0x23
 8005 1e86 18000000 		.4byte	.LVL82
 8006 1e8a EB3E0000 		.4byte	0x3eeb
 8007 1e8e A51E0000 		.4byte	0x1ea5
 8008 1e92 24       		.uleb128 0x24
 8009 1e93 01       		.uleb128 0x1
ARM GAS  C:\Users\AHMED~1.ELE\AppData\Local\Temp\ccAQ67OG.s 			page 182


 8010 1e94 51       		.byte	0x51
 8011 1e95 05       		.uleb128 0x5
 8012 1e96 03       		.byte	0x3
 8013 1e97 00000000 		.4byte	.LC1
 8014 1e9b 24       		.uleb128 0x24
 8015 1e9c 01       		.uleb128 0x1
 8016 1e9d 50       		.byte	0x50
 8017 1e9e 05       		.uleb128 0x5
 8018 1e9f 03       		.byte	0x3
 8019 1ea0 00000000 		.4byte	.LANCHOR0
 8020 1ea4 00       		.byte	0
 8021 1ea5 31       		.uleb128 0x31
 8022 1ea6 1E000000 		.4byte	.LVL83
 8023 1eaa 27180000 		.4byte	0x1827
 8024 1eae 00       		.byte	0
 8025 1eaf 26       		.uleb128 0x26
 8026 1eb0 29160000 		.4byte	0x1629
 8027 1eb4 00000000 		.4byte	.LFB8
 8028 1eb8 BC000000 		.4byte	.LFE8-.LFB8
 8029 1ebc 01       		.uleb128 0x1
 8030 1ebd 9C       		.byte	0x9c
 8031 1ebe 1B200000 		.4byte	0x201b
 8032 1ec2 27       		.uleb128 0x27
 8033 1ec3 3A160000 		.4byte	0x163a
 8034 1ec7 D0020000 		.4byte	.LLST21
 8035 1ecb 27       		.uleb128 0x27
 8036 1ecc 46160000 		.4byte	0x1646
 8037 1ed0 FC020000 		.4byte	.LLST22
 8038 1ed4 2A       		.uleb128 0x2a
 8039 1ed5 52160000 		.4byte	0x1652
 8040 1ed9 2A       		.uleb128 0x2a
 8041 1eda 5E160000 		.4byte	0x165e
 8042 1ede 2A       		.uleb128 0x2a
 8043 1edf 6A160000 		.4byte	0x166a
 8044 1ee3 2A       		.uleb128 0x2a
 8045 1ee4 76160000 		.4byte	0x1676
 8046 1ee8 2A       		.uleb128 0x2a
 8047 1ee9 82160000 		.4byte	0x1682
 8048 1eed 35       		.uleb128 0x35
 8049 1eee 18000000 		.4byte	.LBB4
 8050 1ef2 90000000 		.4byte	.LBE4-.LBB4
 8051 1ef6 02200000 		.4byte	0x2002
 8052 1efa 27       		.uleb128 0x27
 8053 1efb 46160000 		.4byte	0x1646
 8054 1eff 28030000 		.4byte	.LLST23
 8055 1f03 27       		.uleb128 0x27
 8056 1f04 3A160000 		.4byte	0x163a
 8057 1f08 49030000 		.4byte	.LLST24
 8058 1f0c 36       		.uleb128 0x36
 8059 1f0d 18000000 		.4byte	.LBB5
 8060 1f11 90000000 		.4byte	.LBE5-.LBB5
 8061 1f15 29       		.uleb128 0x29
 8062 1f16 52160000 		.4byte	0x1652
 8063 1f1a 6A030000 		.4byte	.LLST25
 8064 1f1e 29       		.uleb128 0x29
 8065 1f1f 5E160000 		.4byte	0x165e
 8066 1f23 88030000 		.4byte	.LLST26
ARM GAS  C:\Users\AHMED~1.ELE\AppData\Local\Temp\ccAQ67OG.s 			page 183


 8067 1f27 29       		.uleb128 0x29
 8068 1f28 6A160000 		.4byte	0x166a
 8069 1f2c A6030000 		.4byte	.LLST27
 8070 1f30 29       		.uleb128 0x29
 8071 1f31 76160000 		.4byte	0x1676
 8072 1f35 C6030000 		.4byte	.LLST28
 8073 1f39 29       		.uleb128 0x29
 8074 1f3a 82160000 		.4byte	0x1682
 8075 1f3e EB030000 		.4byte	.LLST29
 8076 1f42 23       		.uleb128 0x23
 8077 1f43 22000000 		.4byte	.LVL89
 8078 1f47 EB3E0000 		.4byte	0x3eeb
 8079 1f4b 5F1F0000 		.4byte	0x1f5f
 8080 1f4f 24       		.uleb128 0x24
 8081 1f50 01       		.uleb128 0x1
 8082 1f51 51       		.byte	0x51
 8083 1f52 05       		.uleb128 0x5
 8084 1f53 03       		.byte	0x3
 8085 1f54 50000000 		.4byte	.LC10
 8086 1f58 24       		.uleb128 0x24
 8087 1f59 01       		.uleb128 0x1
 8088 1f5a 50       		.byte	0x50
 8089 1f5b 02       		.uleb128 0x2
 8090 1f5c 74       		.byte	0x74
 8091 1f5d 00       		.sleb128 0
 8092 1f5e 00       		.byte	0
 8093 1f5f 23       		.uleb128 0x23
 8094 1f60 2E000000 		.4byte	.LVL91
 8095 1f64 B93E0000 		.4byte	0x3eb9
 8096 1f68 731F0000 		.4byte	0x1f73
 8097 1f6c 24       		.uleb128 0x24
 8098 1f6d 01       		.uleb128 0x1
 8099 1f6e 50       		.byte	0x50
 8100 1f6f 02       		.uleb128 0x2
 8101 1f70 74       		.byte	0x74
 8102 1f71 00       		.sleb128 0
 8103 1f72 00       		.byte	0
 8104 1f73 23       		.uleb128 0x23
 8105 1f74 3C000000 		.4byte	.LVL93
 8106 1f78 203F0000 		.4byte	0x3f20
 8107 1f7c 931F0000 		.4byte	0x1f93
 8108 1f80 24       		.uleb128 0x24
 8109 1f81 01       		.uleb128 0x1
 8110 1f82 52       		.byte	0x52
 8111 1f83 02       		.uleb128 0x2
 8112 1f84 74       		.byte	0x74
 8113 1f85 00       		.sleb128 0
 8114 1f86 24       		.uleb128 0x24
 8115 1f87 01       		.uleb128 0x1
 8116 1f88 51       		.byte	0x51
 8117 1f89 02       		.uleb128 0x2
 8118 1f8a 08       		.byte	0x8
 8119 1f8b 2C       		.byte	0x2c
 8120 1f8c 24       		.uleb128 0x24
 8121 1f8d 01       		.uleb128 0x1
 8122 1f8e 50       		.byte	0x50
 8123 1f8f 02       		.uleb128 0x2
ARM GAS  C:\Users\AHMED~1.ELE\AppData\Local\Temp\ccAQ67OG.s 			page 184


 8124 1f90 75       		.byte	0x75
 8125 1f91 00       		.sleb128 0
 8126 1f92 00       		.byte	0
 8127 1f93 23       		.uleb128 0x23
 8128 1f94 54000000 		.4byte	.LVL97
 8129 1f98 203F0000 		.4byte	0x3f20
 8130 1f9c B31F0000 		.4byte	0x1fb3
 8131 1fa0 24       		.uleb128 0x24
 8132 1fa1 01       		.uleb128 0x1
 8133 1fa2 52       		.byte	0x52
 8134 1fa3 02       		.uleb128 0x2
 8135 1fa4 74       		.byte	0x74
 8136 1fa5 00       		.sleb128 0
 8137 1fa6 24       		.uleb128 0x24
 8138 1fa7 01       		.uleb128 0x1
 8139 1fa8 51       		.byte	0x51
 8140 1fa9 02       		.uleb128 0x2
 8141 1faa 08       		.byte	0x8
 8142 1fab 2C       		.byte	0x2c
 8143 1fac 24       		.uleb128 0x24
 8144 1fad 01       		.uleb128 0x1
 8145 1fae 50       		.byte	0x50
 8146 1faf 02       		.uleb128 0x2
 8147 1fb0 79       		.byte	0x79
 8148 1fb1 00       		.sleb128 0
 8149 1fb2 00       		.byte	0
 8150 1fb3 23       		.uleb128 0x23
 8151 1fb4 6A000000 		.4byte	.LVL101
 8152 1fb8 203F0000 		.4byte	0x3f20
 8153 1fbc D71F0000 		.4byte	0x1fd7
 8154 1fc0 24       		.uleb128 0x24
 8155 1fc1 01       		.uleb128 0x1
 8156 1fc2 52       		.byte	0x52
 8157 1fc3 02       		.uleb128 0x2
 8158 1fc4 74       		.byte	0x74
 8159 1fc5 00       		.sleb128 0
 8160 1fc6 24       		.uleb128 0x24
 8161 1fc7 01       		.uleb128 0x1
 8162 1fc8 51       		.byte	0x51
 8163 1fc9 01       		.uleb128 0x1
 8164 1fca 3D       		.byte	0x3d
 8165 1fcb 24       		.uleb128 0x24
 8166 1fcc 01       		.uleb128 0x1
 8167 1fcd 50       		.byte	0x50
 8168 1fce 07       		.uleb128 0x7
 8169 1fcf 75       		.byte	0x75
 8170 1fd0 00       		.sleb128 0
 8171 1fd1 78       		.byte	0x78
 8172 1fd2 00       		.sleb128 0
 8173 1fd3 22       		.byte	0x22
 8174 1fd4 23       		.byte	0x23
 8175 1fd5 01       		.uleb128 0x1
 8176 1fd6 00       		.byte	0
 8177 1fd7 23       		.uleb128 0x23
 8178 1fd8 74000000 		.4byte	.LVL104
 8179 1fdc 8A1B0000 		.4byte	0x1b8a
 8180 1fe0 EB1F0000 		.4byte	0x1feb
ARM GAS  C:\Users\AHMED~1.ELE\AppData\Local\Temp\ccAQ67OG.s 			page 185


 8181 1fe4 24       		.uleb128 0x24
 8182 1fe5 01       		.uleb128 0x1
 8183 1fe6 50       		.byte	0x50
 8184 1fe7 02       		.uleb128 0x2
 8185 1fe8 79       		.byte	0x79
 8186 1fe9 00       		.sleb128 0
 8187 1fea 00       		.byte	0
 8188 1feb 25       		.uleb128 0x25
 8189 1fec 82000000 		.4byte	.LVL105
 8190 1ff0 8A1B0000 		.4byte	0x1b8a
 8191 1ff4 24       		.uleb128 0x24
 8192 1ff5 01       		.uleb128 0x1
 8193 1ff6 50       		.byte	0x50
 8194 1ff7 07       		.uleb128 0x7
 8195 1ff8 75       		.byte	0x75
 8196 1ff9 00       		.sleb128 0
 8197 1ffa 78       		.byte	0x78
 8198 1ffb 00       		.sleb128 0
 8199 1ffc 22       		.byte	0x22
 8200 1ffd 23       		.byte	0x23
 8201 1ffe 02       		.uleb128 0x2
 8202 1fff 00       		.byte	0
 8203 2000 00       		.byte	0
 8204 2001 00       		.byte	0
 8205 2002 25       		.uleb128 0x25
 8206 2003 10000000 		.4byte	.LVL87
 8207 2007 A2150000 		.4byte	0x15a2
 8208 200b 24       		.uleb128 0x24
 8209 200c 01       		.uleb128 0x1
 8210 200d 51       		.byte	0x51
 8211 200e 01       		.uleb128 0x1
 8212 200f 32       		.byte	0x32
 8213 2010 24       		.uleb128 0x24
 8214 2011 01       		.uleb128 0x1
 8215 2012 50       		.byte	0x50
 8216 2013 05       		.uleb128 0x5
 8217 2014 03       		.byte	0x3
 8218 2015 45000000 		.4byte	.LC9
 8219 2019 00       		.byte	0
 8220 201a 00       		.byte	0
 8221 201b 1C       		.uleb128 0x1c
 8222 201c 01090000 		.4byte	.LASF737
 8223 2020 01       		.byte	0x1
 8224 2021 D101     		.2byte	0x1d1
 8225 2023 A2000000 		.4byte	0xa2
 8226 2027 01       		.byte	0x1
 8227 2028 81200000 		.4byte	0x2081
 8228 202c 1D       		.uleb128 0x1d
 8229 202d BD220000 		.4byte	.LASF738
 8230 2031 01       		.byte	0x1
 8231 2032 D101     		.2byte	0x1d1
 8232 2034 DD160000 		.4byte	0x16dd
 8233 2038 1D       		.uleb128 0x1d
 8234 2039 9F220000 		.4byte	.LASF739
 8235 203d 01       		.byte	0x1
 8236 203e D101     		.2byte	0x1d1
 8237 2040 C3000000 		.4byte	0xc3
ARM GAS  C:\Users\AHMED~1.ELE\AppData\Local\Temp\ccAQ67OG.s 			page 186


 8238 2044 1D       		.uleb128 0x1d
 8239 2045 8B270000 		.4byte	.LASF740
 8240 2049 01       		.byte	0x1
 8241 204a D101     		.2byte	0x1d1
 8242 204c B8000000 		.4byte	0xb8
 8243 2050 20       		.uleb128 0x20
 8244 2051 B6270000 		.4byte	.LASF741
 8245 2055 01       		.byte	0x1
 8246 2056 D301     		.2byte	0x1d3
 8247 2058 A2000000 		.4byte	0xa2
 8248 205c 20       		.uleb128 0x20
 8249 205d F20B0000 		.4byte	.LASF742
 8250 2061 01       		.byte	0x1
 8251 2062 D301     		.2byte	0x1d3
 8252 2064 A2000000 		.4byte	0xa2
 8253 2068 1F       		.uleb128 0x1f
 8254 2069 70747200 		.ascii	"ptr\000"
 8255 206d 01       		.byte	0x1
 8256 206e D401     		.2byte	0x1d4
 8257 2070 C3000000 		.4byte	0xc3
 8258 2074 20       		.uleb128 0x20
 8259 2075 FA030000 		.4byte	.LASF743
 8260 2079 01       		.byte	0x1
 8261 207a D501     		.2byte	0x1d5
 8262 207c A2000000 		.4byte	0xa2
 8263 2080 00       		.byte	0
 8264 2081 26       		.uleb128 0x26
 8265 2082 8F160000 		.4byte	0x168f
 8266 2086 00000000 		.4byte	.LFB10
 8267 208a B4000000 		.4byte	.LFE10-.LFB10
 8268 208e 01       		.uleb128 0x1
 8269 208f 9C       		.byte	0x9c
 8270 2090 F6210000 		.4byte	0x21f6
 8271 2094 27       		.uleb128 0x27
 8272 2095 A0160000 		.4byte	0x16a0
 8273 2099 FE030000 		.4byte	.LLST30
 8274 209d 27       		.uleb128 0x27
 8275 209e AC160000 		.4byte	0x16ac
 8276 20a2 2A040000 		.4byte	.LLST31
 8277 20a6 2A       		.uleb128 0x2a
 8278 20a7 B8160000 		.4byte	0x16b8
 8279 20ab 28       		.uleb128 0x28
 8280 20ac C4160000 		.4byte	0x16c4
 8281 20b0 02       		.uleb128 0x2
 8282 20b1 91       		.byte	0x91
 8283 20b2 58       		.sleb128 -40
 8284 20b3 2A       		.uleb128 0x2a
 8285 20b4 D0160000 		.4byte	0x16d0
 8286 20b8 35       		.uleb128 0x35
 8287 20b9 2A000000 		.4byte	.LBB10
 8288 20bd 7A000000 		.4byte	.LBE10-.LBB10
 8289 20c1 9F210000 		.4byte	0x219f
 8290 20c5 27       		.uleb128 0x27
 8291 20c6 AC160000 		.4byte	0x16ac
 8292 20ca 56040000 		.4byte	.LLST32
 8293 20ce 27       		.uleb128 0x27
 8294 20cf A0160000 		.4byte	0x16a0
ARM GAS  C:\Users\AHMED~1.ELE\AppData\Local\Temp\ccAQ67OG.s 			page 187


 8295 20d3 69040000 		.4byte	.LLST33
 8296 20d7 36       		.uleb128 0x36
 8297 20d8 2A000000 		.4byte	.LBB11
 8298 20dc 7A000000 		.4byte	.LBE11-.LBB11
 8299 20e0 29       		.uleb128 0x29
 8300 20e1 B8160000 		.4byte	0x16b8
 8301 20e5 7C040000 		.4byte	.LLST34
 8302 20e9 2A       		.uleb128 0x2a
 8303 20ea C4160000 		.4byte	0x16c4
 8304 20ee 29       		.uleb128 0x29
 8305 20ef D0160000 		.4byte	0x16d0
 8306 20f3 9A040000 		.4byte	.LLST35
 8307 20f7 37       		.uleb128 0x37
 8308 20f8 1B200000 		.4byte	0x201b
 8309 20fc 4E000000 		.4byte	.LBB12
 8310 2100 00000000 		.4byte	.Ldebug_ranges0+0
 8311 2104 01       		.byte	0x1
 8312 2105 1302     		.2byte	0x213
 8313 2107 51210000 		.4byte	0x2151
 8314 210b 27       		.uleb128 0x27
 8315 210c 44200000 		.4byte	0x2044
 8316 2110 AD040000 		.4byte	.LLST36
 8317 2114 27       		.uleb128 0x27
 8318 2115 38200000 		.4byte	0x2038
 8319 2119 C0040000 		.4byte	.LLST37
 8320 211d 27       		.uleb128 0x27
 8321 211e 2C200000 		.4byte	0x202c
 8322 2122 D3040000 		.4byte	.LLST38
 8323 2126 38       		.uleb128 0x38
 8324 2127 00000000 		.4byte	.Ldebug_ranges0+0
 8325 212b 29       		.uleb128 0x29
 8326 212c 50200000 		.4byte	0x2050
 8327 2130 E6040000 		.4byte	.LLST39
 8328 2134 29       		.uleb128 0x29
 8329 2135 5C200000 		.4byte	0x205c
 8330 2139 1B050000 		.4byte	.LLST40
 8331 213d 29       		.uleb128 0x29
 8332 213e 68200000 		.4byte	0x2068
 8333 2142 50050000 		.4byte	.LLST41
 8334 2146 29       		.uleb128 0x29
 8335 2147 74200000 		.4byte	0x2074
 8336 214b B6050000 		.4byte	.LLST42
 8337 214f 00       		.byte	0
 8338 2150 00       		.byte	0
 8339 2151 23       		.uleb128 0x23
 8340 2152 34000000 		.4byte	.LVL114
 8341 2156 EB3E0000 		.4byte	0x3eeb
 8342 215a 6E210000 		.4byte	0x216e
 8343 215e 24       		.uleb128 0x24
 8344 215f 01       		.uleb128 0x1
 8345 2160 51       		.byte	0x51
 8346 2161 05       		.uleb128 0x5
 8347 2162 03       		.byte	0x3
 8348 2163 64000000 		.4byte	.LC12
 8349 2167 24       		.uleb128 0x24
 8350 2168 01       		.uleb128 0x1
 8351 2169 50       		.byte	0x50
ARM GAS  C:\Users\AHMED~1.ELE\AppData\Local\Temp\ccAQ67OG.s 			page 188


 8352 216a 02       		.uleb128 0x2
 8353 216b 74       		.byte	0x74
 8354 216c 00       		.sleb128 0
 8355 216d 00       		.byte	0
 8356 216e 23       		.uleb128 0x23
 8357 216f 40000000 		.4byte	.LVL116
 8358 2173 B93E0000 		.4byte	0x3eb9
 8359 2177 82210000 		.4byte	0x2182
 8360 217b 24       		.uleb128 0x24
 8361 217c 01       		.uleb128 0x1
 8362 217d 50       		.byte	0x50
 8363 217e 02       		.uleb128 0x2
 8364 217f 74       		.byte	0x74
 8365 2180 00       		.sleb128 0
 8366 2181 00       		.byte	0
 8367 2182 25       		.uleb128 0x25
 8368 2183 4E000000 		.4byte	.LVL118
 8369 2187 9C3E0000 		.4byte	0x3e9c
 8370 218b 24       		.uleb128 0x24
 8371 218c 01       		.uleb128 0x1
 8372 218d 52       		.byte	0x52
 8373 218e 02       		.uleb128 0x2
 8374 218f 08       		.byte	0x8
 8375 2190 44       		.byte	0x44
 8376 2191 24       		.uleb128 0x24
 8377 2192 01       		.uleb128 0x1
 8378 2193 51       		.byte	0x51
 8379 2194 01       		.uleb128 0x1
 8380 2195 30       		.byte	0x30
 8381 2196 24       		.uleb128 0x24
 8382 2197 01       		.uleb128 0x1
 8383 2198 50       		.byte	0x50
 8384 2199 02       		.uleb128 0x2
 8385 219a 75       		.byte	0x75
 8386 219b 00       		.sleb128 0
 8387 219c 00       		.byte	0
 8388 219d 00       		.byte	0
 8389 219e 00       		.byte	0
 8390 219f 23       		.uleb128 0x23
 8391 21a0 12000000 		.4byte	.LVL110
 8392 21a4 9C3E0000 		.4byte	0x3e9c
 8393 21a8 BD210000 		.4byte	0x21bd
 8394 21ac 24       		.uleb128 0x24
 8395 21ad 01       		.uleb128 0x1
 8396 21ae 52       		.byte	0x52
 8397 21af 01       		.uleb128 0x1
 8398 21b0 40       		.byte	0x40
 8399 21b1 24       		.uleb128 0x24
 8400 21b2 01       		.uleb128 0x1
 8401 21b3 51       		.byte	0x51
 8402 21b4 01       		.uleb128 0x1
 8403 21b5 30       		.byte	0x30
 8404 21b6 24       		.uleb128 0x24
 8405 21b7 01       		.uleb128 0x1
 8406 21b8 50       		.byte	0x50
 8407 21b9 02       		.uleb128 0x2
 8408 21ba 7D       		.byte	0x7d
ARM GAS  C:\Users\AHMED~1.ELE\AppData\Local\Temp\ccAQ67OG.s 			page 189


 8409 21bb 00       		.sleb128 0
 8410 21bc 00       		.byte	0
 8411 21bd 23       		.uleb128 0x23
 8412 21be 1C000000 		.4byte	.LVL111
 8413 21c2 053F0000 		.4byte	0x3f05
 8414 21c6 E0210000 		.4byte	0x21e0
 8415 21ca 24       		.uleb128 0x24
 8416 21cb 01       		.uleb128 0x1
 8417 21cc 52       		.byte	0x52
 8418 21cd 02       		.uleb128 0x2
 8419 21ce 76       		.byte	0x76
 8420 21cf 00       		.sleb128 0
 8421 21d0 24       		.uleb128 0x24
 8422 21d1 01       		.uleb128 0x1
 8423 21d2 51       		.byte	0x51
 8424 21d3 05       		.uleb128 0x5
 8425 21d4 03       		.byte	0x3
 8426 21d5 57000000 		.4byte	.LC11
 8427 21d9 24       		.uleb128 0x24
 8428 21da 01       		.uleb128 0x1
 8429 21db 50       		.byte	0x50
 8430 21dc 02       		.uleb128 0x2
 8431 21dd 7D       		.byte	0x7d
 8432 21de 00       		.sleb128 0
 8433 21df 00       		.byte	0
 8434 21e0 25       		.uleb128 0x25
 8435 21e1 24000000 		.4byte	.LVL112
 8436 21e5 A2150000 		.4byte	0x15a2
 8437 21e9 24       		.uleb128 0x24
 8438 21ea 01       		.uleb128 0x1
 8439 21eb 51       		.byte	0x51
 8440 21ec 01       		.uleb128 0x1
 8441 21ed 31       		.byte	0x31
 8442 21ee 24       		.uleb128 0x24
 8443 21ef 01       		.uleb128 0x1
 8444 21f0 50       		.byte	0x50
 8445 21f1 02       		.uleb128 0x2
 8446 21f2 7D       		.byte	0x7d
 8447 21f3 00       		.sleb128 0
 8448 21f4 00       		.byte	0
 8449 21f5 00       		.byte	0
 8450 21f6 39       		.uleb128 0x39
 8451 21f7 D7170000 		.4byte	.LASF746
 8452 21fb 01       		.byte	0x1
 8453 21fc 2102     		.2byte	0x221
 8454 21fe 00000000 		.4byte	.LFB11
 8455 2202 48000000 		.4byte	.LFE11-.LFB11
 8456 2206 01       		.uleb128 0x1
 8457 2207 9C       		.byte	0x9c
 8458 2208 59220000 		.4byte	0x2259
 8459 220c 34       		.uleb128 0x34
 8460 220d 6900     		.ascii	"i\000"
 8461 220f 01       		.byte	0x1
 8462 2210 2302     		.2byte	0x223
 8463 2212 B8000000 		.4byte	0xb8
 8464 2216 E0050000 		.4byte	.LLST43
 8465 221a 30       		.uleb128 0x30
ARM GAS  C:\Users\AHMED~1.ELE\AppData\Local\Temp\ccAQ67OG.s 			page 190


 8466 221b 14150000 		.4byte	.LASF744
 8467 221f 01       		.byte	0x1
 8468 2220 2302     		.2byte	0x223
 8469 2222 B8000000 		.4byte	0xb8
 8470 2226 17060000 		.4byte	.LLST44
 8471 222a 30       		.uleb128 0x30
 8472 222b DA210000 		.4byte	.LASF745
 8473 222f 01       		.byte	0x1
 8474 2230 2302     		.2byte	0x223
 8475 2232 B8000000 		.4byte	0xb8
 8476 2236 36060000 		.4byte	.LLST45
 8477 223a 25       		.uleb128 0x25
 8478 223b 3A000000 		.4byte	.LVL136
 8479 223f 8F160000 		.4byte	0x168f
 8480 2243 24       		.uleb128 0x24
 8481 2244 01       		.uleb128 0x1
 8482 2245 51       		.byte	0x51
 8483 2246 02       		.uleb128 0x2
 8484 2247 75       		.byte	0x75
 8485 2248 00       		.sleb128 0
 8486 2249 24       		.uleb128 0x24
 8487 224a 01       		.uleb128 0x1
 8488 224b 50       		.byte	0x50
 8489 224c 0A       		.uleb128 0xa
 8490 224d 74       		.byte	0x74
 8491 224e 00       		.sleb128 0
 8492 224f 08       		.byte	0x8
 8493 2250 44       		.byte	0x44
 8494 2251 1E       		.byte	0x1e
 8495 2252 76       		.byte	0x76
 8496 2253 00       		.sleb128 0
 8497 2254 22       		.byte	0x22
 8498 2255 23       		.byte	0x23
 8499 2256 3C       		.uleb128 0x3c
 8500 2257 00       		.byte	0
 8501 2258 00       		.byte	0
 8502 2259 39       		.uleb128 0x39
 8503 225a 4E1A0000 		.4byte	.LASF747
 8504 225e 01       		.byte	0x1
 8505 225f 3902     		.2byte	0x239
 8506 2261 00000000 		.4byte	.LFB12
 8507 2265 B8000000 		.4byte	.LFE12-.LFB12
 8508 2269 01       		.uleb128 0x1
 8509 226a 9C       		.byte	0x9c
 8510 226b 54230000 		.4byte	0x2354
 8511 226f 34       		.uleb128 0x34
 8512 2270 6900     		.ascii	"i\000"
 8513 2272 01       		.byte	0x1
 8514 2273 3B02     		.2byte	0x23b
 8515 2275 AD000000 		.4byte	0xad
 8516 2279 54060000 		.4byte	.LLST46
 8517 227d 34       		.uleb128 0x34
 8518 227e 6A00     		.ascii	"j\000"
 8519 2280 01       		.byte	0x1
 8520 2281 3B02     		.2byte	0x23b
 8521 2283 AD000000 		.4byte	0xad
 8522 2287 67060000 		.4byte	.LLST47
ARM GAS  C:\Users\AHMED~1.ELE\AppData\Local\Temp\ccAQ67OG.s 			page 191


 8523 228b 30       		.uleb128 0x30
 8524 228c 85200000 		.4byte	.LASF748
 8525 2290 01       		.byte	0x1
 8526 2291 3C02     		.2byte	0x23c
 8527 2293 AD000000 		.4byte	0xad
 8528 2297 90060000 		.4byte	.LLST48
 8529 229b 30       		.uleb128 0x30
 8530 229c 6B200000 		.4byte	.LASF749
 8531 22a0 01       		.byte	0x1
 8532 22a1 3C02     		.2byte	0x23c
 8533 22a3 AD000000 		.4byte	0xad
 8534 22a7 E8060000 		.4byte	.LLST49
 8535 22ab 23       		.uleb128 0x23
 8536 22ac 4A000000 		.4byte	.LVL143
 8537 22b0 B93E0000 		.4byte	0x3eb9
 8538 22b4 C0220000 		.4byte	0x22c0
 8539 22b8 24       		.uleb128 0x24
 8540 22b9 01       		.uleb128 0x1
 8541 22ba 50       		.byte	0x50
 8542 22bb 03       		.uleb128 0x3
 8543 22bc 91       		.byte	0x91
 8544 22bd 54       		.sleb128 -44
 8545 22be 06       		.byte	0x6
 8546 22bf 00       		.byte	0
 8547 22c0 23       		.uleb128 0x23
 8548 22c1 5A000000 		.4byte	.LVL145
 8549 22c5 B93E0000 		.4byte	0x3eb9
 8550 22c9 D5220000 		.4byte	0x22d5
 8551 22cd 24       		.uleb128 0x24
 8552 22ce 01       		.uleb128 0x1
 8553 22cf 50       		.byte	0x50
 8554 22d0 03       		.uleb128 0x3
 8555 22d1 91       		.byte	0x91
 8556 22d2 4C       		.sleb128 -52
 8557 22d3 06       		.byte	0x6
 8558 22d4 00       		.byte	0
 8559 22d5 23       		.uleb128 0x23
 8560 22d6 72000000 		.4byte	.LVL147
 8561 22da 3F3F0000 		.4byte	0x3f3f
 8562 22de F1220000 		.4byte	0x22f1
 8563 22e2 24       		.uleb128 0x24
 8564 22e3 01       		.uleb128 0x1
 8565 22e4 51       		.byte	0x51
 8566 22e5 03       		.uleb128 0x3
 8567 22e6 91       		.byte	0x91
 8568 22e7 4C       		.sleb128 -52
 8569 22e8 06       		.byte	0x6
 8570 22e9 24       		.uleb128 0x24
 8571 22ea 01       		.uleb128 0x1
 8572 22eb 50       		.byte	0x50
 8573 22ec 03       		.uleb128 0x3
 8574 22ed 91       		.byte	0x91
 8575 22ee 54       		.sleb128 -44
 8576 22ef 06       		.byte	0x6
 8577 22f0 00       		.byte	0
 8578 22f1 23       		.uleb128 0x23
 8579 22f2 86000000 		.4byte	.LVL148
ARM GAS  C:\Users\AHMED~1.ELE\AppData\Local\Temp\ccAQ67OG.s 			page 192


 8580 22f6 CE3E0000 		.4byte	0x3ece
 8581 22fa 14230000 		.4byte	0x2314
 8582 22fe 24       		.uleb128 0x24
 8583 22ff 01       		.uleb128 0x1
 8584 2300 52       		.byte	0x52
 8585 2301 02       		.uleb128 0x2
 8586 2302 78       		.byte	0x78
 8587 2303 00       		.sleb128 0
 8588 2304 24       		.uleb128 0x24
 8589 2305 01       		.uleb128 0x1
 8590 2306 51       		.byte	0x51
 8591 2307 02       		.uleb128 0x2
 8592 2308 75       		.byte	0x75
 8593 2309 00       		.sleb128 0
 8594 230a 24       		.uleb128 0x24
 8595 230b 01       		.uleb128 0x1
 8596 230c 50       		.byte	0x50
 8597 230d 05       		.uleb128 0x5
 8598 230e 03       		.byte	0x3
 8599 230f 3C440000 		.4byte	gGSMData+17468
 8600 2313 00       		.byte	0
 8601 2314 23       		.uleb128 0x23
 8602 2315 96000000 		.4byte	.LVL149
 8603 2319 CE3E0000 		.4byte	0x3ece
 8604 231d 34230000 		.4byte	0x2334
 8605 2321 24       		.uleb128 0x24
 8606 2322 01       		.uleb128 0x1
 8607 2323 52       		.byte	0x52
 8608 2324 02       		.uleb128 0x2
 8609 2325 78       		.byte	0x78
 8610 2326 00       		.sleb128 0
 8611 2327 24       		.uleb128 0x24
 8612 2328 01       		.uleb128 0x1
 8613 2329 51       		.byte	0x51
 8614 232a 02       		.uleb128 0x2
 8615 232b 74       		.byte	0x74
 8616 232c 00       		.sleb128 0
 8617 232d 24       		.uleb128 0x24
 8618 232e 01       		.uleb128 0x1
 8619 232f 50       		.byte	0x50
 8620 2330 02       		.uleb128 0x2
 8621 2331 75       		.byte	0x75
 8622 2332 00       		.sleb128 0
 8623 2333 00       		.byte	0
 8624 2334 25       		.uleb128 0x25
 8625 2335 A0000000 		.4byte	.LVL150
 8626 2339 CE3E0000 		.4byte	0x3ece
 8627 233d 24       		.uleb128 0x24
 8628 233e 01       		.uleb128 0x1
 8629 233f 52       		.byte	0x52
 8630 2340 02       		.uleb128 0x2
 8631 2341 78       		.byte	0x78
 8632 2342 00       		.sleb128 0
 8633 2343 24       		.uleb128 0x24
 8634 2344 01       		.uleb128 0x1
 8635 2345 51       		.byte	0x51
 8636 2346 05       		.uleb128 0x5
ARM GAS  C:\Users\AHMED~1.ELE\AppData\Local\Temp\ccAQ67OG.s 			page 193


 8637 2347 03       		.byte	0x3
 8638 2348 3C440000 		.4byte	gGSMData+17468
 8639 234c 24       		.uleb128 0x24
 8640 234d 01       		.uleb128 0x1
 8641 234e 50       		.byte	0x50
 8642 234f 02       		.uleb128 0x2
 8643 2350 74       		.byte	0x74
 8644 2351 00       		.sleb128 0
 8645 2352 00       		.byte	0
 8646 2353 00       		.byte	0
 8647 2354 2F       		.uleb128 0x2f
 8648 2355 1C030000 		.4byte	.LASF750
 8649 2359 01       		.byte	0x1
 8650 235a 5702     		.2byte	0x257
 8651 235c 97000000 		.4byte	0x97
 8652 2360 00000000 		.4byte	.LFB13
 8653 2364 00010000 		.4byte	.LFE13-.LFB13
 8654 2368 01       		.uleb128 0x1
 8655 2369 9C       		.byte	0x9c
 8656 236a 50250000 		.4byte	0x2550
 8657 236e 3A       		.uleb128 0x3a
 8658 236f 61494400 		.ascii	"aID\000"
 8659 2373 01       		.byte	0x1
 8660 2374 5702     		.2byte	0x257
 8661 2376 B8000000 		.4byte	0xb8
 8662 237a 06070000 		.4byte	.LLST50
 8663 237e 37       		.uleb128 0x37
 8664 237f C1170000 		.4byte	0x17c1
 8665 2383 3C000000 		.4byte	.LBB18
 8666 2387 18000000 		.4byte	.Ldebug_ranges0+0x18
 8667 238b 01       		.byte	0x1
 8668 238c 6502     		.2byte	0x265
 8669 238e B2240000 		.4byte	0x24b2
 8670 2392 27       		.uleb128 0x27
 8671 2393 D2170000 		.4byte	0x17d2
 8672 2397 32070000 		.4byte	.LLST51
 8673 239b 27       		.uleb128 0x27
 8674 239c DE170000 		.4byte	0x17de
 8675 23a0 4A070000 		.4byte	.LLST52
 8676 23a4 38       		.uleb128 0x38
 8677 23a5 18000000 		.4byte	.Ldebug_ranges0+0x18
 8678 23a9 29       		.uleb128 0x29
 8679 23aa EA170000 		.4byte	0x17ea
 8680 23ae 62070000 		.4byte	.LLST53
 8681 23b2 29       		.uleb128 0x29
 8682 23b3 F6170000 		.4byte	0x17f6
 8683 23b7 80070000 		.4byte	.LLST54
 8684 23bb 29       		.uleb128 0x29
 8685 23bc 02180000 		.4byte	0x1802
 8686 23c0 9E070000 		.4byte	.LLST55
 8687 23c4 29       		.uleb128 0x29
 8688 23c5 0E180000 		.4byte	0x180e
 8689 23c9 BE070000 		.4byte	.LLST56
 8690 23cd 29       		.uleb128 0x29
 8691 23ce 1A180000 		.4byte	0x181a
 8692 23d2 D1070000 		.4byte	.LLST57
 8693 23d6 23       		.uleb128 0x23
ARM GAS  C:\Users\AHMED~1.ELE\AppData\Local\Temp\ccAQ67OG.s 			page 194


 8694 23d7 44000000 		.4byte	.LVL161
 8695 23db A2150000 		.4byte	0x15a2
 8696 23df F2230000 		.4byte	0x23f2
 8697 23e3 24       		.uleb128 0x24
 8698 23e4 01       		.uleb128 0x1
 8699 23e5 51       		.byte	0x51
 8700 23e6 01       		.uleb128 0x1
 8701 23e7 32       		.byte	0x32
 8702 23e8 24       		.uleb128 0x24
 8703 23e9 01       		.uleb128 0x1
 8704 23ea 50       		.byte	0x50
 8705 23eb 05       		.uleb128 0x5
 8706 23ec 03       		.byte	0x3
 8707 23ed 7A000000 		.4byte	.LC14
 8708 23f1 00       		.byte	0
 8709 23f2 23       		.uleb128 0x23
 8710 23f3 50000000 		.4byte	.LVL162
 8711 23f7 EB3E0000 		.4byte	0x3eeb
 8712 23fb 0F240000 		.4byte	0x240f
 8713 23ff 24       		.uleb128 0x24
 8714 2400 01       		.uleb128 0x1
 8715 2401 51       		.byte	0x51
 8716 2402 05       		.uleb128 0x5
 8717 2403 03       		.byte	0x3
 8718 2404 86000000 		.4byte	.LC15
 8719 2408 24       		.uleb128 0x24
 8720 2409 01       		.uleb128 0x1
 8721 240a 50       		.byte	0x50
 8722 240b 02       		.uleb128 0x2
 8723 240c 74       		.byte	0x74
 8724 240d 00       		.sleb128 0
 8725 240e 00       		.byte	0
 8726 240f 23       		.uleb128 0x23
 8727 2410 5C000000 		.4byte	.LVL164
 8728 2414 B93E0000 		.4byte	0x3eb9
 8729 2418 23240000 		.4byte	0x2423
 8730 241c 24       		.uleb128 0x24
 8731 241d 01       		.uleb128 0x1
 8732 241e 50       		.byte	0x50
 8733 241f 02       		.uleb128 0x2
 8734 2420 74       		.byte	0x74
 8735 2421 00       		.sleb128 0
 8736 2422 00       		.byte	0
 8737 2423 23       		.uleb128 0x23
 8738 2424 6A000000 		.4byte	.LVL166
 8739 2428 203F0000 		.4byte	0x3f20
 8740 242c 43240000 		.4byte	0x2443
 8741 2430 24       		.uleb128 0x24
 8742 2431 01       		.uleb128 0x1
 8743 2432 52       		.byte	0x52
 8744 2433 02       		.uleb128 0x2
 8745 2434 74       		.byte	0x74
 8746 2435 00       		.sleb128 0
 8747 2436 24       		.uleb128 0x24
 8748 2437 01       		.uleb128 0x1
 8749 2438 51       		.byte	0x51
 8750 2439 02       		.uleb128 0x2
ARM GAS  C:\Users\AHMED~1.ELE\AppData\Local\Temp\ccAQ67OG.s 			page 195


 8751 243a 08       		.byte	0x8
 8752 243b 20       		.byte	0x20
 8753 243c 24       		.uleb128 0x24
 8754 243d 01       		.uleb128 0x1
 8755 243e 50       		.byte	0x50
 8756 243f 02       		.uleb128 0x2
 8757 2440 77       		.byte	0x77
 8758 2441 00       		.sleb128 0
 8759 2442 00       		.byte	0
 8760 2443 23       		.uleb128 0x23
 8761 2444 82000000 		.4byte	.LVL170
 8762 2448 203F0000 		.4byte	0x3f20
 8763 244c 63240000 		.4byte	0x2463
 8764 2450 24       		.uleb128 0x24
 8765 2451 01       		.uleb128 0x1
 8766 2452 52       		.byte	0x52
 8767 2453 02       		.uleb128 0x2
 8768 2454 74       		.byte	0x74
 8769 2455 00       		.sleb128 0
 8770 2456 24       		.uleb128 0x24
 8771 2457 01       		.uleb128 0x1
 8772 2458 51       		.byte	0x51
 8773 2459 02       		.uleb128 0x2
 8774 245a 08       		.byte	0x8
 8775 245b 2C       		.byte	0x2c
 8776 245c 24       		.uleb128 0x24
 8777 245d 01       		.uleb128 0x1
 8778 245e 50       		.byte	0x50
 8779 245f 02       		.uleb128 0x2
 8780 2460 78       		.byte	0x78
 8781 2461 00       		.sleb128 0
 8782 2462 00       		.byte	0
 8783 2463 23       		.uleb128 0x23
 8784 2464 96000000 		.4byte	.LVL174
 8785 2468 203F0000 		.4byte	0x3f20
 8786 246c 87240000 		.4byte	0x2487
 8787 2470 24       		.uleb128 0x24
 8788 2471 01       		.uleb128 0x1
 8789 2472 52       		.byte	0x52
 8790 2473 02       		.uleb128 0x2
 8791 2474 74       		.byte	0x74
 8792 2475 00       		.sleb128 0
 8793 2476 24       		.uleb128 0x24
 8794 2477 01       		.uleb128 0x1
 8795 2478 51       		.byte	0x51
 8796 2479 01       		.uleb128 0x1
 8797 247a 3D       		.byte	0x3d
 8798 247b 24       		.uleb128 0x24
 8799 247c 01       		.uleb128 0x1
 8800 247d 50       		.byte	0x50
 8801 247e 07       		.uleb128 0x7
 8802 247f 77       		.byte	0x77
 8803 2480 00       		.sleb128 0
 8804 2481 75       		.byte	0x75
 8805 2482 00       		.sleb128 0
 8806 2483 22       		.byte	0x22
 8807 2484 23       		.byte	0x23
ARM GAS  C:\Users\AHMED~1.ELE\AppData\Local\Temp\ccAQ67OG.s 			page 196


 8808 2485 01       		.uleb128 0x1
 8809 2486 00       		.byte	0
 8810 2487 23       		.uleb128 0x23
 8811 2488 A0000000 		.4byte	.LVL177
 8812 248c 8A1B0000 		.4byte	0x1b8a
 8813 2490 9B240000 		.4byte	0x249b
 8814 2494 24       		.uleb128 0x24
 8815 2495 01       		.uleb128 0x1
 8816 2496 50       		.byte	0x50
 8817 2497 02       		.uleb128 0x2
 8818 2498 78       		.byte	0x78
 8819 2499 00       		.sleb128 0
 8820 249a 00       		.byte	0
 8821 249b 25       		.uleb128 0x25
 8822 249c AC000000 		.4byte	.LVL179
 8823 24a0 8A1B0000 		.4byte	0x1b8a
 8824 24a4 24       		.uleb128 0x24
 8825 24a5 01       		.uleb128 0x1
 8826 24a6 50       		.byte	0x50
 8827 24a7 07       		.uleb128 0x7
 8828 24a8 77       		.byte	0x77
 8829 24a9 00       		.sleb128 0
 8830 24aa 75       		.byte	0x75
 8831 24ab 00       		.sleb128 0
 8832 24ac 22       		.byte	0x22
 8833 24ad 23       		.byte	0x23
 8834 24ae 02       		.uleb128 0x2
 8835 24af 00       		.byte	0
 8836 24b0 00       		.byte	0
 8837 24b1 00       		.byte	0
 8838 24b2 31       		.uleb128 0x31
 8839 24b3 12000000 		.4byte	.LVL156
 8840 24b7 27180000 		.4byte	0x1827
 8841 24bb 23       		.uleb128 0x23
 8842 24bc 22000000 		.4byte	.LVL157
 8843 24c0 053F0000 		.4byte	0x3f05
 8844 24c4 EA240000 		.4byte	0x24ea
 8845 24c8 24       		.uleb128 0x24
 8846 24c9 01       		.uleb128 0x1
 8847 24ca 52       		.byte	0x52
 8848 24cb 0B       		.uleb128 0xb
 8849 24cc 75       		.byte	0x75
 8850 24cd 00       		.sleb128 0
 8851 24ce 32       		.byte	0x32
 8852 24cf 24       		.byte	0x24
 8853 24d0 03       		.byte	0x3
 8854 24d1 0C000000 		.4byte	.LANCHOR1+12
 8855 24d5 22       		.byte	0x22
 8856 24d6 06       		.byte	0x6
 8857 24d7 24       		.uleb128 0x24
 8858 24d8 01       		.uleb128 0x1
 8859 24d9 51       		.byte	0x51
 8860 24da 05       		.uleb128 0x5
 8861 24db 03       		.byte	0x3
 8862 24dc 6B000000 		.4byte	.LC13
 8863 24e0 24       		.uleb128 0x24
 8864 24e1 01       		.uleb128 0x1
ARM GAS  C:\Users\AHMED~1.ELE\AppData\Local\Temp\ccAQ67OG.s 			page 197


 8865 24e2 50       		.byte	0x50
 8866 24e3 05       		.uleb128 0x5
 8867 24e4 03       		.byte	0x3
 8868 24e5 DD050000 		.4byte	.LANCHOR0+1501
 8869 24e9 00       		.byte	0
 8870 24ea 23       		.uleb128 0x23
 8871 24eb 2C000000 		.4byte	.LVL158
 8872 24ef A2150000 		.4byte	0x15a2
 8873 24f3 06250000 		.4byte	0x2506
 8874 24f7 24       		.uleb128 0x24
 8875 24f8 01       		.uleb128 0x1
 8876 24f9 51       		.byte	0x51
 8877 24fa 01       		.uleb128 0x1
 8878 24fb 32       		.byte	0x32
 8879 24fc 24       		.uleb128 0x24
 8880 24fd 01       		.uleb128 0x1
 8881 24fe 50       		.byte	0x50
 8882 24ff 05       		.uleb128 0x5
 8883 2500 03       		.byte	0x3
 8884 2501 DD050000 		.4byte	.LANCHOR0+1501
 8885 2505 00       		.byte	0
 8886 2506 23       		.uleb128 0x23
 8887 2507 38000000 		.4byte	.LVL159
 8888 250b EB3E0000 		.4byte	0x3eeb
 8889 250f 23250000 		.4byte	0x2523
 8890 2513 24       		.uleb128 0x24
 8891 2514 01       		.uleb128 0x1
 8892 2515 51       		.byte	0x51
 8893 2516 05       		.uleb128 0x5
 8894 2517 03       		.byte	0x3
 8895 2518 00000000 		.4byte	.LC1
 8896 251c 24       		.uleb128 0x24
 8897 251d 01       		.uleb128 0x1
 8898 251e 50       		.byte	0x50
 8899 251f 02       		.uleb128 0x2
 8900 2520 74       		.byte	0x74
 8901 2521 00       		.sleb128 0
 8902 2522 00       		.byte	0
 8903 2523 23       		.uleb128 0x23
 8904 2524 CA000000 		.4byte	.LVL180
 8905 2528 29160000 		.4byte	0x1629
 8906 252c 3D250000 		.4byte	0x253d
 8907 2530 24       		.uleb128 0x24
 8908 2531 01       		.uleb128 0x1
 8909 2532 51       		.byte	0x51
 8910 2533 02       		.uleb128 0x2
 8911 2534 76       		.byte	0x76
 8912 2535 24       		.sleb128 36
 8913 2536 24       		.uleb128 0x24
 8914 2537 01       		.uleb128 0x1
 8915 2538 50       		.byte	0x50
 8916 2539 02       		.uleb128 0x2
 8917 253a 76       		.byte	0x76
 8918 253b 28       		.sleb128 40
 8919 253c 00       		.byte	0
 8920 253d 31       		.uleb128 0x31
 8921 253e D0000000 		.4byte	.LVL181
ARM GAS  C:\Users\AHMED~1.ELE\AppData\Local\Temp\ccAQ67OG.s 			page 198


 8922 2542 F6210000 		.4byte	0x21f6
 8923 2546 31       		.uleb128 0x31
 8924 2547 D4000000 		.4byte	.LVL182
 8925 254b 59220000 		.4byte	0x2259
 8926 254f 00       		.byte	0
 8927 2550 2F       		.uleb128 0x2f
 8928 2551 03100000 		.4byte	.LASF751
 8929 2555 01       		.byte	0x1
 8930 2556 7C02     		.2byte	0x27c
 8931 2558 97000000 		.4byte	0x97
 8932 255c 00000000 		.4byte	.LFB14
 8933 2560 90000000 		.4byte	.LFE14-.LFB14
 8934 2564 01       		.uleb128 0x1
 8935 2565 9C       		.byte	0x9c
 8936 2566 95260000 		.4byte	0x2695
 8937 256a 32       		.uleb128 0x32
 8938 256b B5310000 		.4byte	.LASF716
 8939 256f 01       		.byte	0x1
 8940 2570 7C02     		.2byte	0x27c
 8941 2572 DD160000 		.4byte	0x16dd
 8942 2576 E4070000 		.4byte	.LLST58
 8943 257a 32       		.uleb128 0x32
 8944 257b 61140000 		.4byte	.LASF752
 8945 257f 01       		.byte	0x1
 8946 2580 7C02     		.2byte	0x27c
 8947 2582 B8000000 		.4byte	0xb8
 8948 2586 10080000 		.4byte	.LLST59
 8949 258a 23       		.uleb128 0x23
 8950 258b 14000000 		.4byte	.LVL186
 8951 258f 053F0000 		.4byte	0x3f05
 8952 2593 AA250000 		.4byte	0x25aa
 8953 2597 24       		.uleb128 0x24
 8954 2598 01       		.uleb128 0x1
 8955 2599 51       		.byte	0x51
 8956 259a 05       		.uleb128 0x5
 8957 259b 03       		.byte	0x3
 8958 259c 8D000000 		.4byte	.LC16
 8959 25a0 24       		.uleb128 0x24
 8960 25a1 01       		.uleb128 0x1
 8961 25a2 50       		.byte	0x50
 8962 25a3 05       		.uleb128 0x5
 8963 25a4 03       		.byte	0x3
 8964 25a5 DD050000 		.4byte	.LANCHOR0+1501
 8965 25a9 00       		.byte	0
 8966 25aa 23       		.uleb128 0x23
 8967 25ab 1C000000 		.4byte	.LVL189
 8968 25af 823E0000 		.4byte	0x3e82
 8969 25b3 C1250000 		.4byte	0x25c1
 8970 25b7 24       		.uleb128 0x24
 8971 25b8 01       		.uleb128 0x1
 8972 25b9 51       		.byte	0x51
 8973 25ba 05       		.uleb128 0x5
 8974 25bb 03       		.byte	0x3
 8975 25bc 9A000000 		.4byte	.LC17
 8976 25c0 00       		.byte	0
 8977 25c1 23       		.uleb128 0x23
 8978 25c2 2A000000 		.4byte	.LVL190
ARM GAS  C:\Users\AHMED~1.ELE\AppData\Local\Temp\ccAQ67OG.s 			page 199


 8979 25c6 CE3E0000 		.4byte	0x3ece
 8980 25ca EC250000 		.4byte	0x25ec
 8981 25ce 24       		.uleb128 0x24
 8982 25cf 01       		.uleb128 0x1
 8983 25d0 52       		.byte	0x52
 8984 25d1 02       		.uleb128 0x2
 8985 25d2 08       		.byte	0x8
 8986 25d3 44       		.byte	0x44
 8987 25d4 24       		.uleb128 0x24
 8988 25d5 01       		.uleb128 0x1
 8989 25d6 51       		.byte	0x51
 8990 25d7 05       		.uleb128 0x5
 8991 25d8 03       		.byte	0x3
 8992 25d9 3C440000 		.4byte	gGSMData+17468
 8993 25dd 24       		.uleb128 0x24
 8994 25de 01       		.uleb128 0x1
 8995 25df 50       		.byte	0x50
 8996 25e0 0A       		.uleb128 0xa
 8997 25e1 75       		.byte	0x75
 8998 25e2 00       		.sleb128 0
 8999 25e3 08       		.byte	0x8
 9000 25e4 44       		.byte	0x44
 9001 25e5 1E       		.byte	0x1e
 9002 25e6 74       		.byte	0x74
 9003 25e7 00       		.sleb128 0
 9004 25e8 22       		.byte	0x22
 9005 25e9 23       		.byte	0x23
 9006 25ea 3C       		.uleb128 0x3c
 9007 25eb 00       		.byte	0
 9008 25ec 23       		.uleb128 0x23
 9009 25ed 34000000 		.4byte	.LVL191
 9010 25f1 5E3F0000 		.4byte	0x3f5e
 9011 25f5 09260000 		.4byte	0x2609
 9012 25f9 24       		.uleb128 0x24
 9013 25fa 01       		.uleb128 0x1
 9014 25fb 51       		.byte	0x51
 9015 25fc 02       		.uleb128 0x2
 9016 25fd 76       		.byte	0x76
 9017 25fe 20       		.sleb128 32
 9018 25ff 24       		.uleb128 0x24
 9019 2600 01       		.uleb128 0x1
 9020 2601 50       		.byte	0x50
 9021 2602 05       		.uleb128 0x5
 9022 2603 03       		.byte	0x3
 9023 2604 DD050000 		.4byte	.LANCHOR0+1501
 9024 2608 00       		.byte	0
 9025 2609 23       		.uleb128 0x23
 9026 260a 3C000000 		.4byte	.LVL192
 9027 260e 5E3F0000 		.4byte	0x3f5e
 9028 2612 29260000 		.4byte	0x2629
 9029 2616 24       		.uleb128 0x24
 9030 2617 01       		.uleb128 0x1
 9031 2618 51       		.byte	0x51
 9032 2619 05       		.uleb128 0x5
 9033 261a 03       		.byte	0x3
 9034 261b A5000000 		.4byte	.LC18
 9035 261f 24       		.uleb128 0x24
ARM GAS  C:\Users\AHMED~1.ELE\AppData\Local\Temp\ccAQ67OG.s 			page 200


 9036 2620 01       		.uleb128 0x1
 9037 2621 50       		.byte	0x50
 9038 2622 05       		.uleb128 0x5
 9039 2623 03       		.byte	0x3
 9040 2624 DD050000 		.4byte	.LANCHOR0+1501
 9041 2628 00       		.byte	0
 9042 2629 23       		.uleb128 0x23
 9043 262a 44000000 		.4byte	.LVL193
 9044 262e 5E3F0000 		.4byte	0x3f5e
 9045 2632 46260000 		.4byte	0x2646
 9046 2636 24       		.uleb128 0x24
 9047 2637 01       		.uleb128 0x1
 9048 2638 51       		.byte	0x51
 9049 2639 02       		.uleb128 0x2
 9050 263a 76       		.byte	0x76
 9051 263b 00       		.sleb128 0
 9052 263c 24       		.uleb128 0x24
 9053 263d 01       		.uleb128 0x1
 9054 263e 50       		.byte	0x50
 9055 263f 05       		.uleb128 0x5
 9056 2640 03       		.byte	0x3
 9057 2641 DD050000 		.4byte	.LANCHOR0+1501
 9058 2645 00       		.byte	0
 9059 2646 23       		.uleb128 0x23
 9060 2647 4C000000 		.4byte	.LVL194
 9061 264b 5E3F0000 		.4byte	0x3f5e
 9062 264f 66260000 		.4byte	0x2666
 9063 2653 24       		.uleb128 0x24
 9064 2654 01       		.uleb128 0x1
 9065 2655 51       		.byte	0x51
 9066 2656 05       		.uleb128 0x5
 9067 2657 03       		.byte	0x3
 9068 2658 AD000000 		.4byte	.LC19
 9069 265c 24       		.uleb128 0x24
 9070 265d 01       		.uleb128 0x1
 9071 265e 50       		.byte	0x50
 9072 265f 05       		.uleb128 0x5
 9073 2660 03       		.byte	0x3
 9074 2661 DD050000 		.4byte	.LANCHOR0+1501
 9075 2665 00       		.byte	0
 9076 2666 23       		.uleb128 0x23
 9077 2667 54000000 		.4byte	.LVL195
 9078 266b A2150000 		.4byte	0x15a2
 9079 266f 82260000 		.4byte	0x2682
 9080 2673 24       		.uleb128 0x24
 9081 2674 01       		.uleb128 0x1
 9082 2675 51       		.byte	0x51
 9083 2676 01       		.uleb128 0x1
 9084 2677 32       		.byte	0x32
 9085 2678 24       		.uleb128 0x24
 9086 2679 01       		.uleb128 0x1
 9087 267a 50       		.byte	0x50
 9088 267b 05       		.uleb128 0x5
 9089 267c 03       		.byte	0x3
 9090 267d DD050000 		.4byte	.LANCHOR0+1501
 9091 2681 00       		.byte	0
 9092 2682 31       		.uleb128 0x31
ARM GAS  C:\Users\AHMED~1.ELE\AppData\Local\Temp\ccAQ67OG.s 			page 201


 9093 2683 6A000000 		.4byte	.LVL196
 9094 2687 F6210000 		.4byte	0x21f6
 9095 268b 31       		.uleb128 0x31
 9096 268c 6E000000 		.4byte	.LVL197
 9097 2690 59220000 		.4byte	0x2259
 9098 2694 00       		.byte	0
 9099 2695 2F       		.uleb128 0x2f
 9100 2696 C7260000 		.4byte	.LASF753
 9101 269a 01       		.byte	0x1
 9102 269b A202     		.2byte	0x2a2
 9103 269d 97000000 		.4byte	0x97
 9104 26a1 00000000 		.4byte	.LFB15
 9105 26a5 5C000000 		.4byte	.LFE15-.LFB15
 9106 26a9 01       		.uleb128 0x1
 9107 26aa 9C       		.byte	0x9c
 9108 26ab 5C270000 		.4byte	0x275c
 9109 26af 32       		.uleb128 0x32
 9110 26b0 BE2C0000 		.4byte	.LASF717
 9111 26b4 01       		.byte	0x1
 9112 26b5 A202     		.2byte	0x2a2
 9113 26b7 B8000000 		.4byte	0xb8
 9114 26bb 52080000 		.4byte	.LLST60
 9115 26bf 32       		.uleb128 0x32
 9116 26c0 61140000 		.4byte	.LASF752
 9117 26c4 01       		.byte	0x1
 9118 26c5 A202     		.2byte	0x2a2
 9119 26c7 B8000000 		.4byte	0xb8
 9120 26cb 7E080000 		.4byte	.LLST61
 9121 26cf 34       		.uleb128 0x34
 9122 26d0 6900     		.ascii	"i\000"
 9123 26d2 01       		.byte	0x1
 9124 26d3 A402     		.2byte	0x2a4
 9125 26d5 B8000000 		.4byte	0xb8
 9126 26d9 AA080000 		.4byte	.LLST62
 9127 26dd 23       		.uleb128 0x23
 9128 26de 0E000000 		.4byte	.LVL202
 9129 26e2 053F0000 		.4byte	0x3f05
 9130 26e6 04270000 		.4byte	0x2704
 9131 26ea 24       		.uleb128 0x24
 9132 26eb 01       		.uleb128 0x1
 9133 26ec 52       		.byte	0x52
 9134 26ed 03       		.uleb128 0x3
 9135 26ee F3       		.byte	0xf3
 9136 26ef 01       		.uleb128 0x1
 9137 26f0 50       		.byte	0x50
 9138 26f1 24       		.uleb128 0x24
 9139 26f2 01       		.uleb128 0x1
 9140 26f3 51       		.byte	0x51
 9141 26f4 05       		.uleb128 0x5
 9142 26f5 03       		.byte	0x3
 9143 26f6 B1000000 		.4byte	.LC20
 9144 26fa 24       		.uleb128 0x24
 9145 26fb 01       		.uleb128 0x1
 9146 26fc 50       		.byte	0x50
 9147 26fd 05       		.uleb128 0x5
 9148 26fe 03       		.byte	0x3
 9149 26ff DD050000 		.4byte	.LANCHOR0+1501
ARM GAS  C:\Users\AHMED~1.ELE\AppData\Local\Temp\ccAQ67OG.s 			page 202


 9150 2703 00       		.byte	0
 9151 2704 23       		.uleb128 0x23
 9152 2705 16000000 		.4byte	.LVL203
 9153 2709 A2150000 		.4byte	0x15a2
 9154 270d 20270000 		.4byte	0x2720
 9155 2711 24       		.uleb128 0x24
 9156 2712 01       		.uleb128 0x1
 9157 2713 51       		.byte	0x51
 9158 2714 01       		.uleb128 0x1
 9159 2715 32       		.byte	0x32
 9160 2716 24       		.uleb128 0x24
 9161 2717 01       		.uleb128 0x1
 9162 2718 50       		.byte	0x50
 9163 2719 05       		.uleb128 0x5
 9164 271a 03       		.byte	0x3
 9165 271b DD050000 		.4byte	.LANCHOR0+1501
 9166 271f 00       		.byte	0
 9167 2720 23       		.uleb128 0x23
 9168 2721 3A000000 		.4byte	.LVL206
 9169 2725 CE3E0000 		.4byte	0x3ece
 9170 2729 52270000 		.4byte	0x2752
 9171 272d 24       		.uleb128 0x24
 9172 272e 01       		.uleb128 0x1
 9173 272f 52       		.byte	0x52
 9174 2730 02       		.uleb128 0x2
 9175 2731 08       		.byte	0x8
 9176 2732 44       		.byte	0x44
 9177 2733 24       		.uleb128 0x24
 9178 2734 01       		.uleb128 0x1
 9179 2735 51       		.byte	0x51
 9180 2736 0B       		.uleb128 0xb
 9181 2737 75       		.byte	0x75
 9182 2738 00       		.sleb128 0
 9183 2739 76       		.byte	0x76
 9184 273a 00       		.sleb128 0
 9185 273b 22       		.byte	0x22
 9186 273c 03       		.byte	0x3
 9187 273d 3C000000 		.4byte	gGSMData+60
 9188 2741 22       		.byte	0x22
 9189 2742 24       		.uleb128 0x24
 9190 2743 01       		.uleb128 0x1
 9191 2744 50       		.byte	0x50
 9192 2745 0B       		.uleb128 0xb
 9193 2746 75       		.byte	0x75
 9194 2747 00       		.sleb128 0
 9195 2748 76       		.byte	0x76
 9196 2749 00       		.sleb128 0
 9197 274a 22       		.byte	0x22
 9198 274b 03       		.byte	0x3
 9199 274c F8FFFFFF 		.4byte	gGSMData-8
 9200 2750 22       		.byte	0x22
 9201 2751 00       		.byte	0
 9202 2752 31       		.uleb128 0x31
 9203 2753 4A000000 		.4byte	.LVL207
 9204 2757 59220000 		.4byte	0x2259
 9205 275b 00       		.byte	0
 9206 275c 2F       		.uleb128 0x2f
ARM GAS  C:\Users\AHMED~1.ELE\AppData\Local\Temp\ccAQ67OG.s 			page 203


 9207 275d 76310000 		.4byte	.LASF754
 9208 2761 01       		.byte	0x1
 9209 2762 BC02     		.2byte	0x2bc
 9210 2764 97000000 		.4byte	0x97
 9211 2768 00000000 		.4byte	.LFB16
 9212 276c 4C000000 		.4byte	.LFE16-.LFB16
 9213 2770 01       		.uleb128 0x1
 9214 2771 9C       		.byte	0x9c
 9215 2772 15280000 		.4byte	0x2815
 9216 2776 32       		.uleb128 0x32
 9217 2777 EF300000 		.4byte	.LASF755
 9218 277b 01       		.byte	0x1
 9219 277c BC02     		.2byte	0x2bc
 9220 277e 7F000000 		.4byte	0x7f
 9221 2782 D5080000 		.4byte	.LLST63
 9222 2786 32       		.uleb128 0x32
 9223 2787 BE1A0000 		.4byte	.LASF756
 9224 278b 01       		.byte	0x1
 9225 278c BC02     		.2byte	0x2bc
 9226 278e 97000000 		.4byte	0x97
 9227 2792 01090000 		.4byte	.LLST64
 9228 2796 31       		.uleb128 0x31
 9229 2797 0A000000 		.4byte	.LVL210
 9230 279b 27180000 		.4byte	0x1827
 9231 279f 23       		.uleb128 0x23
 9232 27a0 14000000 		.4byte	.LVL211
 9233 27a4 823E0000 		.4byte	0x3e82
 9234 27a8 BF270000 		.4byte	0x27bf
 9235 27ac 24       		.uleb128 0x24
 9236 27ad 01       		.uleb128 0x1
 9237 27ae 51       		.byte	0x51
 9238 27af 05       		.uleb128 0x5
 9239 27b0 03       		.byte	0x3
 9240 27b1 BE000000 		.4byte	.LC21
 9241 27b5 24       		.uleb128 0x24
 9242 27b6 01       		.uleb128 0x1
 9243 27b7 50       		.byte	0x50
 9244 27b8 05       		.uleb128 0x5
 9245 27b9 03       		.byte	0x3
 9246 27ba DD050000 		.4byte	.LANCHOR0+1501
 9247 27be 00       		.byte	0
 9248 27bf 23       		.uleb128 0x23
 9249 27c0 1E000000 		.4byte	.LVL212
 9250 27c4 053F0000 		.4byte	0x3f05
 9251 27c8 DC270000 		.4byte	0x27dc
 9252 27cc 24       		.uleb128 0x24
 9253 27cd 01       		.uleb128 0x1
 9254 27ce 52       		.byte	0x52
 9255 27cf 02       		.uleb128 0x2
 9256 27d0 74       		.byte	0x74
 9257 27d1 00       		.sleb128 0
 9258 27d2 24       		.uleb128 0x24
 9259 27d3 01       		.uleb128 0x1
 9260 27d4 51       		.byte	0x51
 9261 27d5 05       		.uleb128 0x5
 9262 27d6 03       		.byte	0x3
 9263 27d7 CC000000 		.4byte	.LC22
ARM GAS  C:\Users\AHMED~1.ELE\AppData\Local\Temp\ccAQ67OG.s 			page 204


 9264 27db 00       		.byte	0
 9265 27dc 23       		.uleb128 0x23
 9266 27dd 26000000 		.4byte	.LVL213
 9267 27e1 A2150000 		.4byte	0x15a2
 9268 27e5 F8270000 		.4byte	0x27f8
 9269 27e9 24       		.uleb128 0x24
 9270 27ea 01       		.uleb128 0x1
 9271 27eb 51       		.byte	0x51
 9272 27ec 01       		.uleb128 0x1
 9273 27ed 32       		.byte	0x32
 9274 27ee 24       		.uleb128 0x24
 9275 27ef 01       		.uleb128 0x1
 9276 27f0 50       		.byte	0x50
 9277 27f1 05       		.uleb128 0x5
 9278 27f2 03       		.byte	0x3
 9279 27f3 DD050000 		.4byte	.LANCHOR0+1501
 9280 27f7 00       		.byte	0
 9281 27f8 25       		.uleb128 0x25
 9282 27f9 30000000 		.4byte	.LVL214
 9283 27fd EB3E0000 		.4byte	0x3eeb
 9284 2801 24       		.uleb128 0x24
 9285 2802 01       		.uleb128 0x1
 9286 2803 51       		.byte	0x51
 9287 2804 05       		.uleb128 0x5
 9288 2805 03       		.byte	0x3
 9289 2806 00000000 		.4byte	.LC1
 9290 280a 24       		.uleb128 0x24
 9291 280b 01       		.uleb128 0x1
 9292 280c 50       		.byte	0x50
 9293 280d 05       		.uleb128 0x5
 9294 280e 03       		.byte	0x3
 9295 280f 00000000 		.4byte	.LANCHOR0
 9296 2813 00       		.byte	0
 9297 2814 00       		.byte	0
 9298 2815 2F       		.uleb128 0x2f
 9299 2816 E20C0000 		.4byte	.LASF757
 9300 281a 01       		.byte	0x1
 9301 281b D602     		.2byte	0x2d6
 9302 281d 97000000 		.4byte	0x97
 9303 2821 00000000 		.4byte	.LFB17
 9304 2825 40000000 		.4byte	.LFE17-.LFB17
 9305 2829 01       		.uleb128 0x1
 9306 282a 9C       		.byte	0x9c
 9307 282b B2280000 		.4byte	0x28b2
 9308 282f 32       		.uleb128 0x32
 9309 2830 30220000 		.4byte	.LASF758
 9310 2834 01       		.byte	0x1
 9311 2835 D602     		.2byte	0x2d6
 9312 2837 7F000000 		.4byte	0x7f
 9313 283b 22090000 		.4byte	.LLST65
 9314 283f 23       		.uleb128 0x23
 9315 2840 0E000000 		.4byte	.LVL218
 9316 2844 823E0000 		.4byte	0x3e82
 9317 2848 5C280000 		.4byte	0x285c
 9318 284c 24       		.uleb128 0x24
 9319 284d 01       		.uleb128 0x1
 9320 284e 51       		.byte	0x51
ARM GAS  C:\Users\AHMED~1.ELE\AppData\Local\Temp\ccAQ67OG.s 			page 205


 9321 284f 05       		.uleb128 0x5
 9322 2850 03       		.byte	0x3
 9323 2851 DF000000 		.4byte	.LC23
 9324 2855 24       		.uleb128 0x24
 9325 2856 01       		.uleb128 0x1
 9326 2857 50       		.byte	0x50
 9327 2858 02       		.uleb128 0x2
 9328 2859 74       		.byte	0x74
 9329 285a 00       		.sleb128 0
 9330 285b 00       		.byte	0
 9331 285c 23       		.uleb128 0x23
 9332 285d 16000000 		.4byte	.LVL219
 9333 2861 5E3F0000 		.4byte	0x3f5e
 9334 2865 76280000 		.4byte	0x2876
 9335 2869 24       		.uleb128 0x24
 9336 286a 01       		.uleb128 0x1
 9337 286b 51       		.byte	0x51
 9338 286c 02       		.uleb128 0x2
 9339 286d 75       		.byte	0x75
 9340 286e 00       		.sleb128 0
 9341 286f 24       		.uleb128 0x24
 9342 2870 01       		.uleb128 0x1
 9343 2871 50       		.byte	0x50
 9344 2872 02       		.uleb128 0x2
 9345 2873 74       		.byte	0x74
 9346 2874 00       		.sleb128 0
 9347 2875 00       		.byte	0
 9348 2876 23       		.uleb128 0x23
 9349 2877 1E000000 		.4byte	.LVL220
 9350 287b 5E3F0000 		.4byte	0x3f5e
 9351 287f 93280000 		.4byte	0x2893
 9352 2883 24       		.uleb128 0x24
 9353 2884 01       		.uleb128 0x1
 9354 2885 51       		.byte	0x51
 9355 2886 05       		.uleb128 0x5
 9356 2887 03       		.byte	0x3
 9357 2888 E3000000 		.4byte	.LC24
 9358 288c 24       		.uleb128 0x24
 9359 288d 01       		.uleb128 0x1
 9360 288e 50       		.byte	0x50
 9361 288f 02       		.uleb128 0x2
 9362 2890 74       		.byte	0x74
 9363 2891 00       		.sleb128 0
 9364 2892 00       		.byte	0
 9365 2893 31       		.uleb128 0x31
 9366 2894 22000000 		.4byte	.LVL221
 9367 2898 27180000 		.4byte	0x1827
 9368 289c 25       		.uleb128 0x25
 9369 289d 2A000000 		.4byte	.LVL222
 9370 28a1 A2150000 		.4byte	0x15a2
 9371 28a5 24       		.uleb128 0x24
 9372 28a6 01       		.uleb128 0x1
 9373 28a7 51       		.byte	0x51
 9374 28a8 01       		.uleb128 0x1
 9375 28a9 30       		.byte	0x30
 9376 28aa 24       		.uleb128 0x24
 9377 28ab 01       		.uleb128 0x1
ARM GAS  C:\Users\AHMED~1.ELE\AppData\Local\Temp\ccAQ67OG.s 			page 206


 9378 28ac 50       		.byte	0x50
 9379 28ad 02       		.uleb128 0x2
 9380 28ae 74       		.byte	0x74
 9381 28af 00       		.sleb128 0
 9382 28b0 00       		.byte	0
 9383 28b1 00       		.byte	0
 9384 28b2 2F       		.uleb128 0x2f
 9385 28b3 881F0000 		.4byte	.LASF759
 9386 28b7 01       		.byte	0x1
 9387 28b8 EE02     		.2byte	0x2ee
 9388 28ba 97000000 		.4byte	0x97
 9389 28be 00000000 		.4byte	.LFB18
 9390 28c2 4C000000 		.4byte	.LFE18-.LFB18
 9391 28c6 01       		.uleb128 0x1
 9392 28c7 9C       		.byte	0x9c
 9393 28c8 72290000 		.4byte	0x2972
 9394 28cc 32       		.uleb128 0x32
 9395 28cd 30220000 		.4byte	.LASF758
 9396 28d1 01       		.byte	0x1
 9397 28d2 EE02     		.2byte	0x2ee
 9398 28d4 7F000000 		.4byte	0x7f
 9399 28d8 4E090000 		.4byte	.LLST66
 9400 28dc 23       		.uleb128 0x23
 9401 28dd 0C000000 		.4byte	.LVL226
 9402 28e1 823E0000 		.4byte	0x3e82
 9403 28e5 FC280000 		.4byte	0x28fc
 9404 28e9 24       		.uleb128 0x24
 9405 28ea 01       		.uleb128 0x1
 9406 28eb 51       		.byte	0x51
 9407 28ec 05       		.uleb128 0x5
 9408 28ed 03       		.byte	0x3
 9409 28ee DF000000 		.4byte	.LC23
 9410 28f2 24       		.uleb128 0x24
 9411 28f3 01       		.uleb128 0x1
 9412 28f4 50       		.byte	0x50
 9413 28f5 05       		.uleb128 0x5
 9414 28f6 03       		.byte	0x3
 9415 28f7 DD050000 		.4byte	.LANCHOR0+1501
 9416 28fb 00       		.byte	0
 9417 28fc 23       		.uleb128 0x23
 9418 28fd 14000000 		.4byte	.LVL227
 9419 2901 5E3F0000 		.4byte	0x3f5e
 9420 2905 19290000 		.4byte	0x2919
 9421 2909 24       		.uleb128 0x24
 9422 290a 01       		.uleb128 0x1
 9423 290b 51       		.byte	0x51
 9424 290c 02       		.uleb128 0x2
 9425 290d 74       		.byte	0x74
 9426 290e 00       		.sleb128 0
 9427 290f 24       		.uleb128 0x24
 9428 2910 01       		.uleb128 0x1
 9429 2911 50       		.byte	0x50
 9430 2912 05       		.uleb128 0x5
 9431 2913 03       		.byte	0x3
 9432 2914 DD050000 		.4byte	.LANCHOR0+1501
 9433 2918 00       		.byte	0
 9434 2919 23       		.uleb128 0x23
ARM GAS  C:\Users\AHMED~1.ELE\AppData\Local\Temp\ccAQ67OG.s 			page 207


 9435 291a 1C000000 		.4byte	.LVL228
 9436 291e 5E3F0000 		.4byte	0x3f5e
 9437 2922 39290000 		.4byte	0x2939
 9438 2926 24       		.uleb128 0x24
 9439 2927 01       		.uleb128 0x1
 9440 2928 51       		.byte	0x51
 9441 2929 05       		.uleb128 0x5
 9442 292a 03       		.byte	0x3
 9443 292b E7000000 		.4byte	.LC25
 9444 292f 24       		.uleb128 0x24
 9445 2930 01       		.uleb128 0x1
 9446 2931 50       		.byte	0x50
 9447 2932 05       		.uleb128 0x5
 9448 2933 03       		.byte	0x3
 9449 2934 DD050000 		.4byte	.LANCHOR0+1501
 9450 2938 00       		.byte	0
 9451 2939 23       		.uleb128 0x23
 9452 293a 24000000 		.4byte	.LVL229
 9453 293e A2150000 		.4byte	0x15a2
 9454 2942 55290000 		.4byte	0x2955
 9455 2946 24       		.uleb128 0x24
 9456 2947 01       		.uleb128 0x1
 9457 2948 51       		.byte	0x51
 9458 2949 01       		.uleb128 0x1
 9459 294a 32       		.byte	0x32
 9460 294b 24       		.uleb128 0x24
 9461 294c 01       		.uleb128 0x1
 9462 294d 50       		.byte	0x50
 9463 294e 05       		.uleb128 0x5
 9464 294f 03       		.byte	0x3
 9465 2950 DD050000 		.4byte	.LANCHOR0+1501
 9466 2954 00       		.byte	0
 9467 2955 25       		.uleb128 0x25
 9468 2956 2E000000 		.4byte	.LVL230
 9469 295a EB3E0000 		.4byte	0x3eeb
 9470 295e 24       		.uleb128 0x24
 9471 295f 01       		.uleb128 0x1
 9472 2960 51       		.byte	0x51
 9473 2961 05       		.uleb128 0x5
 9474 2962 03       		.byte	0x3
 9475 2963 00000000 		.4byte	.LC1
 9476 2967 24       		.uleb128 0x24
 9477 2968 01       		.uleb128 0x1
 9478 2969 50       		.byte	0x50
 9479 296a 05       		.uleb128 0x5
 9480 296b 03       		.byte	0x3
 9481 296c 00000000 		.4byte	.LANCHOR0
 9482 2970 00       		.byte	0
 9483 2971 00       		.byte	0
 9484 2972 2F       		.uleb128 0x2f
 9485 2973 9E250000 		.4byte	.LASF760
 9486 2977 01       		.byte	0x1
 9487 2978 0303     		.2byte	0x303
 9488 297a B8000000 		.4byte	0xb8
 9489 297e 00000000 		.4byte	.LFB19
 9490 2982 80000000 		.4byte	.LFE19-.LFB19
 9491 2986 01       		.uleb128 0x1
ARM GAS  C:\Users\AHMED~1.ELE\AppData\Local\Temp\ccAQ67OG.s 			page 208


 9492 2987 9C       		.byte	0x9c
 9493 2988 BE2A0000 		.4byte	0x2abe
 9494 298c 3B       		.uleb128 0x3b
 9495 298d FA030000 		.4byte	.LASF743
 9496 2991 01       		.byte	0x1
 9497 2992 1C03     		.2byte	0x31c
 9498 2994 B8000000 		.4byte	0xb8
 9499 2998 01       		.uleb128 0x1
 9500 2999 50       		.byte	0x50
 9501 299a 30       		.uleb128 0x30
 9502 299b 01160000 		.4byte	.LASF729
 9503 299f 01       		.byte	0x1
 9504 29a0 1C03     		.2byte	0x31c
 9505 29a2 B8000000 		.4byte	0xb8
 9506 29a6 7A090000 		.4byte	.LLST67
 9507 29aa 3B       		.uleb128 0x3b
 9508 29ab E8030000 		.4byte	.LASF761
 9509 29af 01       		.byte	0x1
 9510 29b0 1D03     		.2byte	0x31d
 9511 29b2 BE2A0000 		.4byte	0x2abe
 9512 29b6 02       		.uleb128 0x2
 9513 29b7 91       		.byte	0x91
 9514 29b8 4C       		.sleb128 -52
 9515 29b9 35       		.uleb128 0x35
 9516 29ba 24000000 		.4byte	.LBB22
 9517 29be 3A000000 		.4byte	.LBE22-.LBB22
 9518 29c2 792A0000 		.4byte	0x2a79
 9519 29c6 34       		.uleb128 0x34
 9520 29c7 6C656E00 		.ascii	"len\000"
 9521 29cb 01       		.byte	0x1
 9522 29cc 2103     		.2byte	0x321
 9523 29ce B8000000 		.4byte	0xb8
 9524 29d2 A3090000 		.4byte	.LLST68
 9525 29d6 34       		.uleb128 0x34
 9526 29d7 70747200 		.ascii	"ptr\000"
 9527 29db 01       		.byte	0x1
 9528 29dc 2103     		.2byte	0x321
 9529 29de C3000000 		.4byte	0xc3
 9530 29e2 C1090000 		.4byte	.LLST69
 9531 29e6 23       		.uleb128 0x23
 9532 29e7 2A000000 		.4byte	.LVL236
 9533 29eb B93E0000 		.4byte	0x3eb9
 9534 29ef FA290000 		.4byte	0x29fa
 9535 29f3 24       		.uleb128 0x24
 9536 29f4 01       		.uleb128 0x1
 9537 29f5 50       		.byte	0x50
 9538 29f6 02       		.uleb128 0x2
 9539 29f7 91       		.byte	0x91
 9540 29f8 4C       		.sleb128 -52
 9541 29f9 00       		.byte	0
 9542 29fa 23       		.uleb128 0x23
 9543 29fb 34000000 		.4byte	.LVL239
 9544 29ff 783F0000 		.4byte	0x3f78
 9545 2a03 142A0000 		.4byte	0x2a14
 9546 2a07 24       		.uleb128 0x24
 9547 2a08 01       		.uleb128 0x1
 9548 2a09 51       		.byte	0x51
ARM GAS  C:\Users\AHMED~1.ELE\AppData\Local\Temp\ccAQ67OG.s 			page 209


 9549 2a0a 02       		.uleb128 0x2
 9550 2a0b 76       		.byte	0x76
 9551 2a0c 01       		.sleb128 1
 9552 2a0d 24       		.uleb128 0x24
 9553 2a0e 01       		.uleb128 0x1
 9554 2a0f 50       		.byte	0x50
 9555 2a10 02       		.uleb128 0x2
 9556 2a11 08       		.byte	0x8
 9557 2a12 92       		.byte	0x92
 9558 2a13 00       		.byte	0
 9559 2a14 23       		.uleb128 0x23
 9560 2a15 40000000 		.4byte	.LVL240
 9561 2a19 CE3E0000 		.4byte	0x3ece
 9562 2a1d 342A0000 		.4byte	0x2a34
 9563 2a21 24       		.uleb128 0x24
 9564 2a22 01       		.uleb128 0x1
 9565 2a23 52       		.byte	0x52
 9566 2a24 02       		.uleb128 0x2
 9567 2a25 76       		.byte	0x76
 9568 2a26 00       		.sleb128 0
 9569 2a27 24       		.uleb128 0x24
 9570 2a28 01       		.uleb128 0x1
 9571 2a29 51       		.byte	0x51
 9572 2a2a 02       		.uleb128 0x2
 9573 2a2b 91       		.byte	0x91
 9574 2a2c 4C       		.sleb128 -52
 9575 2a2d 24       		.uleb128 0x24
 9576 2a2e 01       		.uleb128 0x1
 9577 2a2f 50       		.byte	0x50
 9578 2a30 02       		.uleb128 0x2
 9579 2a31 75       		.byte	0x75
 9580 2a32 00       		.sleb128 0
 9581 2a33 00       		.byte	0
 9582 2a34 23       		.uleb128 0x23
 9583 2a35 56000000 		.4byte	.LVL241
 9584 2a39 443E0000 		.4byte	0x3e44
 9585 2a3d 622A0000 		.4byte	0x2a62
 9586 2a41 24       		.uleb128 0x24
 9587 2a42 01       		.uleb128 0x1
 9588 2a43 53       		.byte	0x53
 9589 2a44 03       		.uleb128 0x3
 9590 2a45 0A       		.byte	0xa
 9591 2a46 0009     		.2byte	0x900
 9592 2a48 24       		.uleb128 0x24
 9593 2a49 01       		.uleb128 0x1
 9594 2a4a 52       		.byte	0x52
 9595 2a4b 02       		.uleb128 0x2
 9596 2a4c 75       		.byte	0x75
 9597 2a4d 00       		.sleb128 0
 9598 2a4e 24       		.uleb128 0x24
 9599 2a4f 01       		.uleb128 0x1
 9600 2a50 51       		.byte	0x51
 9601 2a51 02       		.uleb128 0x2
 9602 2a52 08       		.byte	0x8
 9603 2a53 25       		.byte	0x25
 9604 2a54 24       		.uleb128 0x24
 9605 2a55 01       		.uleb128 0x1
ARM GAS  C:\Users\AHMED~1.ELE\AppData\Local\Temp\ccAQ67OG.s 			page 210


 9606 2a56 50       		.byte	0x50
 9607 2a57 01       		.uleb128 0x1
 9608 2a58 3F       		.byte	0x3f
 9609 2a59 24       		.uleb128 0x24
 9610 2a5a 02       		.uleb128 0x2
 9611 2a5b 7D       		.byte	0x7d
 9612 2a5c 00       		.sleb128 0
 9613 2a5d 03       		.uleb128 0x3
 9614 2a5e 0A       		.byte	0xa
 9615 2a5f 0220     		.2byte	0x2002
 9616 2a61 00       		.byte	0
 9617 2a62 25       		.uleb128 0x25
 9618 2a63 5E000000 		.4byte	.LVL242
 9619 2a67 783F0000 		.4byte	0x3f78
 9620 2a6b 24       		.uleb128 0x24
 9621 2a6c 01       		.uleb128 0x1
 9622 2a6d 51       		.byte	0x51
 9623 2a6e 02       		.uleb128 0x2
 9624 2a6f 75       		.byte	0x75
 9625 2a70 00       		.sleb128 0
 9626 2a71 24       		.uleb128 0x24
 9627 2a72 01       		.uleb128 0x1
 9628 2a73 50       		.byte	0x50
 9629 2a74 02       		.uleb128 0x2
 9630 2a75 08       		.byte	0x8
 9631 2a76 94       		.byte	0x94
 9632 2a77 00       		.byte	0
 9633 2a78 00       		.byte	0
 9634 2a79 23       		.uleb128 0x23
 9635 2a7a 18000000 		.4byte	.LVL232
 9636 2a7e 443E0000 		.4byte	0x3e44
 9637 2a82 9E2A0000 		.4byte	0x2a9e
 9638 2a86 24       		.uleb128 0x24
 9639 2a87 01       		.uleb128 0x1
 9640 2a88 53       		.byte	0x53
 9641 2a89 02       		.uleb128 0x2
 9642 2a8a 09       		.byte	0x9
 9643 2a8b FF       		.byte	0xff
 9644 2a8c 24       		.uleb128 0x24
 9645 2a8d 01       		.uleb128 0x1
 9646 2a8e 51       		.byte	0x51
 9647 2a8f 01       		.uleb128 0x1
 9648 2a90 38       		.byte	0x38
 9649 2a91 24       		.uleb128 0x24
 9650 2a92 01       		.uleb128 0x1
 9651 2a93 50       		.byte	0x50
 9652 2a94 01       		.uleb128 0x1
 9653 2a95 3F       		.byte	0x3f
 9654 2a96 24       		.uleb128 0x24
 9655 2a97 02       		.uleb128 0x2
 9656 2a98 7D       		.byte	0x7d
 9657 2a99 00       		.sleb128 0
 9658 2a9a 02       		.uleb128 0x2
 9659 2a9b 77       		.byte	0x77
 9660 2a9c 00       		.sleb128 0
 9661 2a9d 00       		.byte	0
 9662 2a9e 25       		.uleb128 0x25
ARM GAS  C:\Users\AHMED~1.ELE\AppData\Local\Temp\ccAQ67OG.s 			page 211


 9663 2a9f 24000000 		.4byte	.LVL235
 9664 2aa3 053F0000 		.4byte	0x3f05
 9665 2aa7 24       		.uleb128 0x24
 9666 2aa8 01       		.uleb128 0x1
 9667 2aa9 52       		.byte	0x52
 9668 2aaa 02       		.uleb128 0x2
 9669 2aab 74       		.byte	0x74
 9670 2aac 00       		.sleb128 0
 9671 2aad 24       		.uleb128 0x24
 9672 2aae 01       		.uleb128 0x1
 9673 2aaf 51       		.byte	0x51
 9674 2ab0 05       		.uleb128 0x5
 9675 2ab1 03       		.byte	0x3
 9676 2ab2 EA000000 		.4byte	.LC26
 9677 2ab6 24       		.uleb128 0x24
 9678 2ab7 01       		.uleb128 0x1
 9679 2ab8 50       		.byte	0x50
 9680 2ab9 02       		.uleb128 0x2
 9681 2aba 91       		.byte	0x91
 9682 2abb 4C       		.sleb128 -52
 9683 2abc 00       		.byte	0
 9684 2abd 00       		.byte	0
 9685 2abe 08       		.uleb128 0x8
 9686 2abf A2000000 		.4byte	0xa2
 9687 2ac3 CE2A0000 		.4byte	0x2ace
 9688 2ac7 09       		.uleb128 0x9
 9689 2ac8 78000000 		.4byte	0x78
 9690 2acc 1A       		.byte	0x1a
 9691 2acd 00       		.byte	0
 9692 2ace 2F       		.uleb128 0x2f
 9693 2acf 3B140000 		.4byte	.LASF762
 9694 2ad3 01       		.byte	0x1
 9695 2ad4 3E03     		.2byte	0x33e
 9696 2ad6 97000000 		.4byte	0x97
 9697 2ada 00000000 		.4byte	.LFB20
 9698 2ade 28000000 		.4byte	.LFE20-.LFB20
 9699 2ae2 01       		.uleb128 0x1
 9700 2ae3 9C       		.byte	0x9c
 9701 2ae4 242B0000 		.4byte	0x2b24
 9702 2ae8 23       		.uleb128 0x23
 9703 2ae9 0C000000 		.4byte	.LVL246
 9704 2aed 823E0000 		.4byte	0x3e82
 9705 2af1 052B0000 		.4byte	0x2b05
 9706 2af5 24       		.uleb128 0x24
 9707 2af6 01       		.uleb128 0x1
 9708 2af7 51       		.byte	0x51
 9709 2af8 05       		.uleb128 0x5
 9710 2af9 03       		.byte	0x3
 9711 2afa F6000000 		.4byte	.LC27
 9712 2afe 24       		.uleb128 0x24
 9713 2aff 01       		.uleb128 0x1
 9714 2b00 50       		.byte	0x50
 9715 2b01 02       		.uleb128 0x2
 9716 2b02 74       		.byte	0x74
 9717 2b03 00       		.sleb128 0
 9718 2b04 00       		.byte	0
 9719 2b05 31       		.uleb128 0x31
ARM GAS  C:\Users\AHMED~1.ELE\AppData\Local\Temp\ccAQ67OG.s 			page 212


 9720 2b06 10000000 		.4byte	.LVL247
 9721 2b0a 27180000 		.4byte	0x1827
 9722 2b0e 25       		.uleb128 0x25
 9723 2b0f 18000000 		.4byte	.LVL248
 9724 2b13 A2150000 		.4byte	0x15a2
 9725 2b17 24       		.uleb128 0x24
 9726 2b18 01       		.uleb128 0x1
 9727 2b19 51       		.byte	0x51
 9728 2b1a 01       		.uleb128 0x1
 9729 2b1b 32       		.byte	0x32
 9730 2b1c 24       		.uleb128 0x24
 9731 2b1d 01       		.uleb128 0x1
 9732 2b1e 50       		.byte	0x50
 9733 2b1f 02       		.uleb128 0x2
 9734 2b20 74       		.byte	0x74
 9735 2b21 00       		.sleb128 0
 9736 2b22 00       		.byte	0
 9737 2b23 00       		.byte	0
 9738 2b24 2F       		.uleb128 0x2f
 9739 2b25 E4090000 		.4byte	.LASF763
 9740 2b29 01       		.byte	0x1
 9741 2b2a 4E03     		.2byte	0x34e
 9742 2b2c 97000000 		.4byte	0x97
 9743 2b30 00000000 		.4byte	.LFB21
 9744 2b34 1C000000 		.4byte	.LFE21-.LFB21
 9745 2b38 01       		.uleb128 0x1
 9746 2b39 9C       		.byte	0x9c
 9747 2b3a 702B0000 		.4byte	0x2b70
 9748 2b3e 32       		.uleb128 0x32
 9749 2b3f 8A130000 		.4byte	.LASF764
 9750 2b43 01       		.byte	0x1
 9751 2b44 4E03     		.2byte	0x34e
 9752 2b46 85000000 		.4byte	0x85
 9753 2b4a DF090000 		.4byte	.LLST70
 9754 2b4e 31       		.uleb128 0x31
 9755 2b4f 06000000 		.4byte	.LVL250
 9756 2b53 27180000 		.4byte	0x1827
 9757 2b57 25       		.uleb128 0x25
 9758 2b58 0E000000 		.4byte	.LVL251
 9759 2b5c A2150000 		.4byte	0x15a2
 9760 2b60 24       		.uleb128 0x24
 9761 2b61 01       		.uleb128 0x1
 9762 2b62 51       		.byte	0x51
 9763 2b63 01       		.uleb128 0x1
 9764 2b64 32       		.byte	0x32
 9765 2b65 24       		.uleb128 0x24
 9766 2b66 01       		.uleb128 0x1
 9767 2b67 50       		.byte	0x50
 9768 2b68 05       		.uleb128 0x5
 9769 2b69 03       		.byte	0x3
 9770 2b6a DD050000 		.4byte	.LANCHOR0+1501
 9771 2b6e 00       		.byte	0
 9772 2b6f 00       		.byte	0
 9773 2b70 2F       		.uleb128 0x2f
 9774 2b71 E30F0000 		.4byte	.LASF765
 9775 2b75 01       		.byte	0x1
 9776 2b76 6303     		.2byte	0x363
ARM GAS  C:\Users\AHMED~1.ELE\AppData\Local\Temp\ccAQ67OG.s 			page 213


 9777 2b78 97000000 		.4byte	0x97
 9778 2b7c 00000000 		.4byte	.LFB22
 9779 2b80 28000000 		.4byte	.LFE22-.LFB22
 9780 2b84 01       		.uleb128 0x1
 9781 2b85 9C       		.byte	0x9c
 9782 2b86 C62B0000 		.4byte	0x2bc6
 9783 2b8a 23       		.uleb128 0x23
 9784 2b8b 0C000000 		.4byte	.LVL252
 9785 2b8f 823E0000 		.4byte	0x3e82
 9786 2b93 A72B0000 		.4byte	0x2ba7
 9787 2b97 24       		.uleb128 0x24
 9788 2b98 01       		.uleb128 0x1
 9789 2b99 51       		.byte	0x51
 9790 2b9a 05       		.uleb128 0x5
 9791 2b9b 03       		.byte	0x3
 9792 2b9c FC000000 		.4byte	.LC28
 9793 2ba0 24       		.uleb128 0x24
 9794 2ba1 01       		.uleb128 0x1
 9795 2ba2 50       		.byte	0x50
 9796 2ba3 02       		.uleb128 0x2
 9797 2ba4 74       		.byte	0x74
 9798 2ba5 00       		.sleb128 0
 9799 2ba6 00       		.byte	0
 9800 2ba7 31       		.uleb128 0x31
 9801 2ba8 10000000 		.4byte	.LVL253
 9802 2bac 27180000 		.4byte	0x1827
 9803 2bb0 25       		.uleb128 0x25
 9804 2bb1 18000000 		.4byte	.LVL254
 9805 2bb5 A2150000 		.4byte	0x15a2
 9806 2bb9 24       		.uleb128 0x24
 9807 2bba 01       		.uleb128 0x1
 9808 2bbb 51       		.byte	0x51
 9809 2bbc 01       		.uleb128 0x1
 9810 2bbd 32       		.byte	0x32
 9811 2bbe 24       		.uleb128 0x24
 9812 2bbf 01       		.uleb128 0x1
 9813 2bc0 50       		.byte	0x50
 9814 2bc1 02       		.uleb128 0x2
 9815 2bc2 74       		.byte	0x74
 9816 2bc3 00       		.sleb128 0
 9817 2bc4 00       		.byte	0
 9818 2bc5 00       		.byte	0
 9819 2bc6 2F       		.uleb128 0x2f
 9820 2bc7 510E0000 		.4byte	.LASF766
 9821 2bcb 01       		.byte	0x1
 9822 2bcc 7303     		.2byte	0x373
 9823 2bce 97000000 		.4byte	0x97
 9824 2bd2 00000000 		.4byte	.LFB23
 9825 2bd6 58000000 		.4byte	.LFE23-.LFB23
 9826 2bda 01       		.uleb128 0x1
 9827 2bdb 9C       		.byte	0x9c
 9828 2bdc 652C0000 		.4byte	0x2c65
 9829 2be0 3B       		.uleb128 0x3b
 9830 2be1 C7230000 		.4byte	.LASF701
 9831 2be5 01       		.byte	0x1
 9832 2be6 7503     		.2byte	0x375
 9833 2be8 6E100000 		.4byte	0x106e
ARM GAS  C:\Users\AHMED~1.ELE\AppData\Local\Temp\ccAQ67OG.s 			page 214


 9834 2bec 03       		.uleb128 0x3
 9835 2bed 91       		.byte	0x91
 9836 2bee 9474     		.sleb128 -1516
 9837 2bf0 34       		.uleb128 0x34
 9838 2bf1 70747200 		.ascii	"ptr\000"
 9839 2bf5 01       		.byte	0x1
 9840 2bf6 7603     		.2byte	0x376
 9841 2bf8 C3000000 		.4byte	0xc3
 9842 2bfc 000A0000 		.4byte	.LLST71
 9843 2c00 23       		.uleb128 0x23
 9844 2c01 1A000000 		.4byte	.LVL255
 9845 2c05 443E0000 		.4byte	0x3e44
 9846 2c09 252C0000 		.4byte	0x2c25
 9847 2c0d 24       		.uleb128 0x24
 9848 2c0e 01       		.uleb128 0x1
 9849 2c0f 53       		.byte	0x53
 9850 2c10 03       		.uleb128 0x3
 9851 2c11 40       		.byte	0x40
 9852 2c12 46       		.byte	0x46
 9853 2c13 24       		.byte	0x24
 9854 2c14 24       		.uleb128 0x24
 9855 2c15 01       		.uleb128 0x1
 9856 2c16 51       		.byte	0x51
 9857 2c17 01       		.uleb128 0x1
 9858 2c18 38       		.byte	0x38
 9859 2c19 24       		.uleb128 0x24
 9860 2c1a 01       		.uleb128 0x1
 9861 2c1b 50       		.byte	0x50
 9862 2c1c 01       		.uleb128 0x1
 9863 2c1d 3F       		.byte	0x3f
 9864 2c1e 24       		.uleb128 0x24
 9865 2c1f 02       		.uleb128 0x2
 9866 2c20 7D       		.byte	0x7d
 9867 2c21 00       		.sleb128 0
 9868 2c22 01       		.uleb128 0x1
 9869 2c23 30       		.byte	0x30
 9870 2c24 00       		.byte	0
 9871 2c25 23       		.uleb128 0x23
 9872 2c26 38000000 		.4byte	.LVL256
 9873 2c2a 443E0000 		.4byte	0x3e44
 9874 2c2e 4A2C0000 		.4byte	0x2c4a
 9875 2c32 24       		.uleb128 0x24
 9876 2c33 01       		.uleb128 0x1
 9877 2c34 53       		.byte	0x53
 9878 2c35 01       		.uleb128 0x1
 9879 2c36 33       		.byte	0x33
 9880 2c37 24       		.uleb128 0x24
 9881 2c38 01       		.uleb128 0x1
 9882 2c39 51       		.byte	0x51
 9883 2c3a 01       		.uleb128 0x1
 9884 2c3b 37       		.byte	0x37
 9885 2c3c 24       		.uleb128 0x24
 9886 2c3d 01       		.uleb128 0x1
 9887 2c3e 50       		.byte	0x50
 9888 2c3f 01       		.uleb128 0x1
 9889 2c40 3F       		.byte	0x3f
 9890 2c41 24       		.uleb128 0x24
ARM GAS  C:\Users\AHMED~1.ELE\AppData\Local\Temp\ccAQ67OG.s 			page 215


 9891 2c42 02       		.uleb128 0x2
 9892 2c43 7D       		.byte	0x7d
 9893 2c44 00       		.sleb128 0
 9894 2c45 03       		.uleb128 0x3
 9895 2c46 91       		.byte	0x91
 9896 2c47 9474     		.sleb128 -1516
 9897 2c49 00       		.byte	0
 9898 2c4a 25       		.uleb128 0x25
 9899 2c4b 44000000 		.4byte	.LVL257
 9900 2c4f EB3E0000 		.4byte	0x3eeb
 9901 2c53 24       		.uleb128 0x24
 9902 2c54 01       		.uleb128 0x1
 9903 2c55 51       		.byte	0x51
 9904 2c56 05       		.uleb128 0x5
 9905 2c57 03       		.byte	0x3
 9906 2c58 02010000 		.4byte	.LC29
 9907 2c5c 24       		.uleb128 0x24
 9908 2c5d 01       		.uleb128 0x1
 9909 2c5e 50       		.byte	0x50
 9910 2c5f 03       		.uleb128 0x3
 9911 2c60 91       		.byte	0x91
 9912 2c61 9874     		.sleb128 -1512
 9913 2c63 00       		.byte	0
 9914 2c64 00       		.byte	0
 9915 2c65 2F       		.uleb128 0x2f
 9916 2c66 47100000 		.4byte	.LASF767
 9917 2c6a 01       		.byte	0x1
 9918 2c6b 8D03     		.2byte	0x38d
 9919 2c6d 97000000 		.4byte	0x97
 9920 2c71 00000000 		.4byte	.LFB24
 9921 2c75 54000000 		.4byte	.LFE24-.LFB24
 9922 2c79 01       		.uleb128 0x1
 9923 2c7a 9C       		.byte	0x9c
 9924 2c7b 172D0000 		.4byte	0x2d17
 9925 2c7f 3B       		.uleb128 0x3b
 9926 2c80 C7230000 		.4byte	.LASF701
 9927 2c84 01       		.byte	0x1
 9928 2c85 9F03     		.2byte	0x39f
 9929 2c87 6E100000 		.4byte	0x106e
 9930 2c8b 03       		.uleb128 0x3
 9931 2c8c 91       		.byte	0x91
 9932 2c8d 8C74     		.sleb128 -1524
 9933 2c8f 23       		.uleb128 0x23
 9934 2c90 18000000 		.4byte	.LVL259
 9935 2c94 443E0000 		.4byte	0x3e44
 9936 2c98 B42C0000 		.4byte	0x2cb4
 9937 2c9c 24       		.uleb128 0x24
 9938 2c9d 01       		.uleb128 0x1
 9939 2c9e 53       		.byte	0x53
 9940 2c9f 02       		.uleb128 0x2
 9941 2ca0 74       		.byte	0x74
 9942 2ca1 00       		.sleb128 0
 9943 2ca2 24       		.uleb128 0x24
 9944 2ca3 01       		.uleb128 0x1
 9945 2ca4 51       		.byte	0x51
 9946 2ca5 01       		.uleb128 0x1
 9947 2ca6 38       		.byte	0x38
ARM GAS  C:\Users\AHMED~1.ELE\AppData\Local\Temp\ccAQ67OG.s 			page 216


 9948 2ca7 24       		.uleb128 0x24
 9949 2ca8 01       		.uleb128 0x1
 9950 2ca9 50       		.byte	0x50
 9951 2caa 01       		.uleb128 0x1
 9952 2cab 3F       		.byte	0x3f
 9953 2cac 24       		.uleb128 0x24
 9954 2cad 02       		.uleb128 0x2
 9955 2cae 7D       		.byte	0x7d
 9956 2caf 00       		.sleb128 0
 9957 2cb0 02       		.uleb128 0x2
 9958 2cb1 74       		.byte	0x74
 9959 2cb2 00       		.sleb128 0
 9960 2cb3 00       		.byte	0
 9961 2cb4 23       		.uleb128 0x23
 9962 2cb5 24000000 		.4byte	.LVL260
 9963 2cb9 9C3E0000 		.4byte	0x3e9c
 9964 2cbd D72C0000 		.4byte	0x2cd7
 9965 2cc1 24       		.uleb128 0x24
 9966 2cc2 01       		.uleb128 0x1
 9967 2cc3 52       		.byte	0x52
 9968 2cc4 02       		.uleb128 0x2
 9969 2cc5 08       		.byte	0x8
 9970 2cc6 44       		.byte	0x44
 9971 2cc7 24       		.uleb128 0x24
 9972 2cc8 01       		.uleb128 0x1
 9973 2cc9 51       		.byte	0x51
 9974 2cca 02       		.uleb128 0x2
 9975 2ccb 74       		.byte	0x74
 9976 2ccc 00       		.sleb128 0
 9977 2ccd 24       		.uleb128 0x24
 9978 2cce 01       		.uleb128 0x1
 9979 2ccf 50       		.byte	0x50
 9980 2cd0 05       		.uleb128 0x5
 9981 2cd1 03       		.byte	0x3
 9982 2cd2 3C440000 		.4byte	gGSMData+17468
 9983 2cd6 00       		.byte	0
 9984 2cd7 23       		.uleb128 0x23
 9985 2cd8 38000000 		.4byte	.LVL261
 9986 2cdc 443E0000 		.4byte	0x3e44
 9987 2ce0 FC2C0000 		.4byte	0x2cfc
 9988 2ce4 24       		.uleb128 0x24
 9989 2ce5 01       		.uleb128 0x1
 9990 2ce6 53       		.byte	0x53
 9991 2ce7 01       		.uleb128 0x1
 9992 2ce8 3C       		.byte	0x3c
 9993 2ce9 24       		.uleb128 0x24
 9994 2cea 01       		.uleb128 0x1
 9995 2ceb 51       		.byte	0x51
 9996 2cec 01       		.uleb128 0x1
 9997 2ced 37       		.byte	0x37
 9998 2cee 24       		.uleb128 0x24
 9999 2cef 01       		.uleb128 0x1
 10000 2cf0 50       		.byte	0x50
 10001 2cf1 01       		.uleb128 0x1
 10002 2cf2 3F       		.byte	0x3f
 10003 2cf3 24       		.uleb128 0x24
 10004 2cf4 02       		.uleb128 0x2
ARM GAS  C:\Users\AHMED~1.ELE\AppData\Local\Temp\ccAQ67OG.s 			page 217


 10005 2cf5 7D       		.byte	0x7d
 10006 2cf6 00       		.sleb128 0
 10007 2cf7 03       		.uleb128 0x3
 10008 2cf8 91       		.byte	0x91
 10009 2cf9 8C74     		.sleb128 -1524
 10010 2cfb 00       		.byte	0
 10011 2cfc 25       		.uleb128 0x25
 10012 2cfd 42000000 		.4byte	.LVL262
 10013 2d01 CE3E0000 		.4byte	0x3ece
 10014 2d05 24       		.uleb128 0x24
 10015 2d06 01       		.uleb128 0x1
 10016 2d07 51       		.byte	0x51
 10017 2d08 03       		.uleb128 0x3
 10018 2d09 91       		.byte	0x91
 10019 2d0a 9074     		.sleb128 -1520
 10020 2d0c 24       		.uleb128 0x24
 10021 2d0d 01       		.uleb128 0x1
 10022 2d0e 50       		.byte	0x50
 10023 2d0f 05       		.uleb128 0x5
 10024 2d10 03       		.byte	0x3
 10025 2d11 3C440000 		.4byte	gGSMData+17468
 10026 2d15 00       		.byte	0
 10027 2d16 00       		.byte	0
 10028 2d17 2F       		.uleb128 0x2f
 10029 2d18 7E2F0000 		.4byte	.LASF768
 10030 2d1c 01       		.byte	0x1
 10031 2d1d B403     		.2byte	0x3b4
 10032 2d1f B8000000 		.4byte	0xb8
 10033 2d23 00000000 		.4byte	.LFB25
 10034 2d27 20000000 		.4byte	.LFE25-.LFB25
 10035 2d2b 01       		.uleb128 0x1
 10036 2d2c 9C       		.byte	0x9c
 10037 2d2d 972D0000 		.4byte	0x2d97
 10038 2d31 32       		.uleb128 0x32
 10039 2d32 2D040000 		.4byte	.LASF769
 10040 2d36 01       		.byte	0x1
 10041 2d37 B403     		.2byte	0x3b4
 10042 2d39 B8000000 		.4byte	0xb8
 10043 2d3d 130A0000 		.4byte	.LLST72
 10044 2d41 33       		.uleb128 0x33
 10045 2d42 636D6400 		.ascii	"cmd\000"
 10046 2d46 01       		.byte	0x1
 10047 2d47 B603     		.2byte	0x3b6
 10048 2d49 E9000000 		.4byte	0xe9
 10049 2d4d 02       		.uleb128 0x2
 10050 2d4e 91       		.byte	0x91
 10051 2d4f 68       		.sleb128 -24
 10052 2d50 3C       		.uleb128 0x3c
 10053 2d51 69647800 		.ascii	"idx\000"
 10054 2d55 01       		.byte	0x1
 10055 2d56 BA03     		.2byte	0x3ba
 10056 2d58 A2000000 		.4byte	0xa2
 10057 2d5c 08       		.byte	0x8
 10058 2d5d 23       		.uleb128 0x23
 10059 2d5e 0C000000 		.4byte	.LVL265
 10060 2d62 053F0000 		.4byte	0x3f05
 10061 2d66 812D0000 		.4byte	0x2d81
ARM GAS  C:\Users\AHMED~1.ELE\AppData\Local\Temp\ccAQ67OG.s 			page 218


 10062 2d6a 24       		.uleb128 0x24
 10063 2d6b 01       		.uleb128 0x1
 10064 2d6c 52       		.byte	0x52
 10065 2d6d 03       		.uleb128 0x3
 10066 2d6e F3       		.byte	0xf3
 10067 2d6f 01       		.uleb128 0x1
 10068 2d70 50       		.byte	0x50
 10069 2d71 24       		.uleb128 0x24
 10070 2d72 01       		.uleb128 0x1
 10071 2d73 51       		.byte	0x51
 10072 2d74 05       		.uleb128 0x5
 10073 2d75 03       		.byte	0x3
 10074 2d76 0D010000 		.4byte	.LC30
 10075 2d7a 24       		.uleb128 0x24
 10076 2d7b 01       		.uleb128 0x1
 10077 2d7c 50       		.byte	0x50
 10078 2d7d 02       		.uleb128 0x2
 10079 2d7e 7D       		.byte	0x7d
 10080 2d7f 00       		.sleb128 0
 10081 2d80 00       		.byte	0
 10082 2d81 25       		.uleb128 0x25
 10083 2d82 14000000 		.4byte	.LVL266
 10084 2d86 A2150000 		.4byte	0x15a2
 10085 2d8a 24       		.uleb128 0x24
 10086 2d8b 01       		.uleb128 0x1
 10087 2d8c 51       		.byte	0x51
 10088 2d8d 01       		.uleb128 0x1
 10089 2d8e 32       		.byte	0x32
 10090 2d8f 24       		.uleb128 0x24
 10091 2d90 01       		.uleb128 0x1
 10092 2d91 50       		.byte	0x50
 10093 2d92 02       		.uleb128 0x2
 10094 2d93 7D       		.byte	0x7d
 10095 2d94 00       		.sleb128 0
 10096 2d95 00       		.byte	0
 10097 2d96 00       		.byte	0
 10098 2d97 2F       		.uleb128 0x2f
 10099 2d98 B1190000 		.4byte	.LASF770
 10100 2d9c 01       		.byte	0x1
 10101 2d9d DE03     		.2byte	0x3de
 10102 2d9f 97000000 		.4byte	0x97
 10103 2da3 00000000 		.4byte	.LFB26
 10104 2da7 3C000000 		.4byte	.LFE26-.LFB26
 10105 2dab 01       		.uleb128 0x1
 10106 2dac 9C       		.byte	0x9c
 10107 2dad 512E0000 		.4byte	0x2e51
 10108 2db1 32       		.uleb128 0x32
 10109 2db2 2D040000 		.4byte	.LASF769
 10110 2db6 01       		.byte	0x1
 10111 2db7 DE03     		.2byte	0x3de
 10112 2db9 B8000000 		.4byte	0xb8
 10113 2dbd 3F0A0000 		.4byte	.LLST73
 10114 2dc1 32       		.uleb128 0x32
 10115 2dc2 B7210000 		.4byte	.LASF771
 10116 2dc6 01       		.byte	0x1
 10117 2dc7 DE03     		.2byte	0x3de
 10118 2dc9 B8000000 		.4byte	0xb8
ARM GAS  C:\Users\AHMED~1.ELE\AppData\Local\Temp\ccAQ67OG.s 			page 219


 10119 2dcd 6B0A0000 		.4byte	.LLST74
 10120 2dd1 34       		.uleb128 0x34
 10121 2dd2 70747200 		.ascii	"ptr\000"
 10122 2dd6 01       		.byte	0x1
 10123 2dd7 E003     		.2byte	0x3e0
 10124 2dd9 C3000000 		.4byte	0xc3
 10125 2ddd 970A0000 		.4byte	.LLST75
 10126 2de1 23       		.uleb128 0x23
 10127 2de2 0E000000 		.4byte	.LVL270
 10128 2de6 053F0000 		.4byte	0x3f05
 10129 2dea 0F2E0000 		.4byte	0x2e0f
 10130 2dee 24       		.uleb128 0x24
 10131 2def 01       		.uleb128 0x1
 10132 2df0 53       		.byte	0x53
 10133 2df1 03       		.uleb128 0x3
 10134 2df2 F3       		.byte	0xf3
 10135 2df3 01       		.uleb128 0x1
 10136 2df4 51       		.byte	0x51
 10137 2df5 24       		.uleb128 0x24
 10138 2df6 01       		.uleb128 0x1
 10139 2df7 52       		.byte	0x52
 10140 2df8 03       		.uleb128 0x3
 10141 2df9 F3       		.byte	0xf3
 10142 2dfa 01       		.uleb128 0x1
 10143 2dfb 50       		.byte	0x50
 10144 2dfc 24       		.uleb128 0x24
 10145 2dfd 01       		.uleb128 0x1
 10146 2dfe 51       		.byte	0x51
 10147 2dff 05       		.uleb128 0x5
 10148 2e00 03       		.byte	0x3
 10149 2e01 18010000 		.4byte	.LC31
 10150 2e05 24       		.uleb128 0x24
 10151 2e06 01       		.uleb128 0x1
 10152 2e07 50       		.byte	0x50
 10153 2e08 05       		.uleb128 0x5
 10154 2e09 03       		.byte	0x3
 10155 2e0a DD050000 		.4byte	.LANCHOR0+1501
 10156 2e0e 00       		.byte	0
 10157 2e0f 31       		.uleb128 0x31
 10158 2e10 12000000 		.4byte	.LVL271
 10159 2e14 27180000 		.4byte	0x1827
 10160 2e18 23       		.uleb128 0x23
 10161 2e19 1A000000 		.4byte	.LVL272
 10162 2e1d A2150000 		.4byte	0x15a2
 10163 2e21 342E0000 		.4byte	0x2e34
 10164 2e25 24       		.uleb128 0x24
 10165 2e26 01       		.uleb128 0x1
 10166 2e27 51       		.byte	0x51
 10167 2e28 01       		.uleb128 0x1
 10168 2e29 32       		.byte	0x32
 10169 2e2a 24       		.uleb128 0x24
 10170 2e2b 01       		.uleb128 0x1
 10171 2e2c 50       		.byte	0x50
 10172 2e2d 05       		.uleb128 0x5
 10173 2e2e 03       		.byte	0x3
 10174 2e2f DD050000 		.4byte	.LANCHOR0+1501
 10175 2e33 00       		.byte	0
ARM GAS  C:\Users\AHMED~1.ELE\AppData\Local\Temp\ccAQ67OG.s 			page 220


 10176 2e34 25       		.uleb128 0x25
 10177 2e35 24000000 		.4byte	.LVL273
 10178 2e39 EB3E0000 		.4byte	0x3eeb
 10179 2e3d 24       		.uleb128 0x24
 10180 2e3e 01       		.uleb128 0x1
 10181 2e3f 51       		.byte	0x51
 10182 2e40 05       		.uleb128 0x5
 10183 2e41 03       		.byte	0x3
 10184 2e42 00000000 		.4byte	.LC1
 10185 2e46 24       		.uleb128 0x24
 10186 2e47 01       		.uleb128 0x1
 10187 2e48 50       		.byte	0x50
 10188 2e49 05       		.uleb128 0x5
 10189 2e4a 03       		.byte	0x3
 10190 2e4b 00000000 		.4byte	.LANCHOR0
 10191 2e4f 00       		.byte	0
 10192 2e50 00       		.byte	0
 10193 2e51 26       		.uleb128 0x26
 10194 2e52 E3160000 		.4byte	0x16e3
 10195 2e56 00000000 		.4byte	.LFB27
 10196 2e5a 6C000000 		.4byte	.LFE27-.LFB27
 10197 2e5e 01       		.uleb128 0x1
 10198 2e5f 9C       		.byte	0x9c
 10199 2e60 2F2F0000 		.4byte	0x2f2f
 10200 2e64 27       		.uleb128 0x27
 10201 2e65 F4160000 		.4byte	0x16f4
 10202 2e69 AA0A0000 		.4byte	.LLST76
 10203 2e6d 27       		.uleb128 0x27
 10204 2e6e 00170000 		.4byte	0x1700
 10205 2e72 D60A0000 		.4byte	.LLST77
 10206 2e76 29       		.uleb128 0x29
 10207 2e77 0C170000 		.4byte	0x170c
 10208 2e7b 020B0000 		.4byte	.LLST78
 10209 2e7f 2A       		.uleb128 0x2a
 10210 2e80 18170000 		.4byte	0x1718
 10211 2e84 35       		.uleb128 0x35
 10212 2e85 22000000 		.4byte	.LBB25
 10213 2e89 3C000000 		.4byte	.LBE25-.LBB25
 10214 2e8d ED2E0000 		.4byte	0x2eed
 10215 2e91 27       		.uleb128 0x27
 10216 2e92 00170000 		.4byte	0x1700
 10217 2e96 150B0000 		.4byte	.LLST79
 10218 2e9a 27       		.uleb128 0x27
 10219 2e9b F4160000 		.4byte	0x16f4
 10220 2e9f 4B0B0000 		.4byte	.LLST80
 10221 2ea3 36       		.uleb128 0x36
 10222 2ea4 22000000 		.4byte	.LBB26
 10223 2ea8 3C000000 		.4byte	.LBE26-.LBB26
 10224 2eac 29       		.uleb128 0x29
 10225 2ead 0C170000 		.4byte	0x170c
 10226 2eb1 760B0000 		.4byte	.LLST81
 10227 2eb5 29       		.uleb128 0x29
 10228 2eb6 18170000 		.4byte	0x1718
 10229 2eba 960B0000 		.4byte	.LLST82
 10230 2ebe 23       		.uleb128 0x23
 10231 2ebf 2A000000 		.4byte	.LVL281
 10232 2ec3 923F0000 		.4byte	0x3f92
ARM GAS  C:\Users\AHMED~1.ELE\AppData\Local\Temp\ccAQ67OG.s 			page 221


 10233 2ec7 DB2E0000 		.4byte	0x2edb
 10234 2ecb 24       		.uleb128 0x24
 10235 2ecc 01       		.uleb128 0x1
 10236 2ecd 51       		.byte	0x51
 10237 2ece 02       		.uleb128 0x2
 10238 2ecf 08       		.byte	0x8
 10239 2ed0 22       		.byte	0x22
 10240 2ed1 24       		.uleb128 0x24
 10241 2ed2 01       		.uleb128 0x1
 10242 2ed3 50       		.byte	0x50
 10243 2ed4 05       		.uleb128 0x5
 10244 2ed5 03       		.byte	0x3
 10245 2ed6 00000000 		.4byte	.LANCHOR0
 10246 2eda 00       		.byte	0
 10247 2edb 25       		.uleb128 0x25
 10248 2edc 40000000 		.4byte	.LVL285
 10249 2ee0 B93E0000 		.4byte	0x3eb9
 10250 2ee4 24       		.uleb128 0x24
 10251 2ee5 01       		.uleb128 0x1
 10252 2ee6 50       		.byte	0x50
 10253 2ee7 02       		.uleb128 0x2
 10254 2ee8 74       		.byte	0x74
 10255 2ee9 00       		.sleb128 0
 10256 2eea 00       		.byte	0
 10257 2eeb 00       		.byte	0
 10258 2eec 00       		.byte	0
 10259 2eed 31       		.uleb128 0x31
 10260 2eee 0E000000 		.4byte	.LVL276
 10261 2ef2 27180000 		.4byte	0x1827
 10262 2ef6 23       		.uleb128 0x23
 10263 2ef7 16000000 		.4byte	.LVL277
 10264 2efb A2150000 		.4byte	0x15a2
 10265 2eff 122F0000 		.4byte	0x2f12
 10266 2f03 24       		.uleb128 0x24
 10267 2f04 01       		.uleb128 0x1
 10268 2f05 51       		.byte	0x51
 10269 2f06 01       		.uleb128 0x1
 10270 2f07 32       		.byte	0x32
 10271 2f08 24       		.uleb128 0x24
 10272 2f09 01       		.uleb128 0x1
 10273 2f0a 50       		.byte	0x50
 10274 2f0b 05       		.uleb128 0x5
 10275 2f0c 03       		.byte	0x3
 10276 2f0d 25010000 		.4byte	.LC32
 10277 2f11 00       		.byte	0
 10278 2f12 25       		.uleb128 0x25
 10279 2f13 20000000 		.4byte	.LVL278
 10280 2f17 EB3E0000 		.4byte	0x3eeb
 10281 2f1b 24       		.uleb128 0x24
 10282 2f1c 01       		.uleb128 0x1
 10283 2f1d 51       		.byte	0x51
 10284 2f1e 05       		.uleb128 0x5
 10285 2f1f 03       		.byte	0x3
 10286 2f20 30010000 		.4byte	.LC33
 10287 2f24 24       		.uleb128 0x24
 10288 2f25 01       		.uleb128 0x1
 10289 2f26 50       		.byte	0x50
ARM GAS  C:\Users\AHMED~1.ELE\AppData\Local\Temp\ccAQ67OG.s 			page 222


 10290 2f27 05       		.uleb128 0x5
 10291 2f28 03       		.byte	0x3
 10292 2f29 00000000 		.4byte	.LANCHOR0
 10293 2f2d 00       		.byte	0
 10294 2f2e 00       		.byte	0
 10295 2f2f 2F       		.uleb128 0x2f
 10296 2f30 641C0000 		.4byte	.LASF772
 10297 2f34 01       		.byte	0x1
 10298 2f35 2D04     		.2byte	0x42d
 10299 2f37 B8000000 		.4byte	0xb8
 10300 2f3b 00000000 		.4byte	.LFB28
 10301 2f3f 98000000 		.4byte	.LFE28-.LFB28
 10302 2f43 01       		.uleb128 0x1
 10303 2f44 9C       		.byte	0x9c
 10304 2f45 44300000 		.4byte	0x3044
 10305 2f49 32       		.uleb128 0x32
 10306 2f4a B6170000 		.4byte	.LASF773
 10307 2f4e 01       		.byte	0x1
 10308 2f4f 2D04     		.2byte	0x42d
 10309 2f51 97000000 		.4byte	0x97
 10310 2f55 EE0B0000 		.4byte	.LLST83
 10311 2f59 32       		.uleb128 0x32
 10312 2f5a 8D240000 		.4byte	.LASF774
 10313 2f5e 01       		.byte	0x1
 10314 2f5f 2D04     		.2byte	0x42d
 10315 2f61 7F000000 		.4byte	0x7f
 10316 2f65 0F0C0000 		.4byte	.LLST84
 10317 2f69 34       		.uleb128 0x34
 10318 2f6a 72657400 		.ascii	"ret\000"
 10319 2f6e 01       		.byte	0x1
 10320 2f6f 2F04     		.2byte	0x42f
 10321 2f71 B8000000 		.4byte	0xb8
 10322 2f75 6D0C0000 		.4byte	.LLST85
 10323 2f79 31       		.uleb128 0x31
 10324 2f7a 0A000000 		.4byte	.LVL296
 10325 2f7e 27180000 		.4byte	0x1827
 10326 2f82 23       		.uleb128 0x23
 10327 2f83 12000000 		.4byte	.LVL297
 10328 2f87 A2150000 		.4byte	0x15a2
 10329 2f8b 9E2F0000 		.4byte	0x2f9e
 10330 2f8f 24       		.uleb128 0x24
 10331 2f90 01       		.uleb128 0x1
 10332 2f91 51       		.byte	0x51
 10333 2f92 01       		.uleb128 0x1
 10334 2f93 32       		.byte	0x32
 10335 2f94 24       		.uleb128 0x24
 10336 2f95 01       		.uleb128 0x1
 10337 2f96 50       		.byte	0x50
 10338 2f97 05       		.uleb128 0x5
 10339 2f98 03       		.byte	0x3
 10340 2f99 37010000 		.4byte	.LC34
 10341 2f9d 00       		.byte	0
 10342 2f9e 31       		.uleb128 0x31
 10343 2f9f 16000000 		.4byte	.LVL298
 10344 2fa3 27180000 		.4byte	0x1827
 10345 2fa7 31       		.uleb128 0x31
 10346 2fa8 2A000000 		.4byte	.LVL299
ARM GAS  C:\Users\AHMED~1.ELE\AppData\Local\Temp\ccAQ67OG.s 			page 223


 10347 2fac 053F0000 		.4byte	0x3f05
 10348 2fb0 31       		.uleb128 0x31
 10349 2fb1 2E000000 		.4byte	.LVL300
 10350 2fb5 27180000 		.4byte	0x1827
 10351 2fb9 23       		.uleb128 0x23
 10352 2fba 36000000 		.4byte	.LVL301
 10353 2fbe A2150000 		.4byte	0x15a2
 10354 2fc2 D52F0000 		.4byte	0x2fd5
 10355 2fc6 24       		.uleb128 0x24
 10356 2fc7 01       		.uleb128 0x1
 10357 2fc8 51       		.byte	0x51
 10358 2fc9 01       		.uleb128 0x1
 10359 2fca 32       		.byte	0x32
 10360 2fcb 24       		.uleb128 0x24
 10361 2fcc 01       		.uleb128 0x1
 10362 2fcd 50       		.byte	0x50
 10363 2fce 05       		.uleb128 0x5
 10364 2fcf 03       		.byte	0x3
 10365 2fd0 DD050000 		.4byte	.LANCHOR0+1501
 10366 2fd4 00       		.byte	0
 10367 2fd5 23       		.uleb128 0x23
 10368 2fd6 40000000 		.4byte	.LVL302
 10369 2fda EB3E0000 		.4byte	0x3eeb
 10370 2fde F52F0000 		.4byte	0x2ff5
 10371 2fe2 24       		.uleb128 0x24
 10372 2fe3 01       		.uleb128 0x1
 10373 2fe4 51       		.byte	0x51
 10374 2fe5 05       		.uleb128 0x5
 10375 2fe6 03       		.byte	0x3
 10376 2fe7 00000000 		.4byte	.LC1
 10377 2feb 24       		.uleb128 0x24
 10378 2fec 01       		.uleb128 0x1
 10379 2fed 50       		.byte	0x50
 10380 2fee 05       		.uleb128 0x5
 10381 2fef 03       		.byte	0x3
 10382 2ff0 00000000 		.4byte	.LANCHOR0
 10383 2ff4 00       		.byte	0
 10384 2ff5 23       		.uleb128 0x23
 10385 2ff6 4A000000 		.4byte	.LVL303
 10386 2ffa EB3E0000 		.4byte	0x3eeb
 10387 2ffe 15300000 		.4byte	0x3015
 10388 3002 24       		.uleb128 0x24
 10389 3003 01       		.uleb128 0x1
 10390 3004 51       		.byte	0x51
 10391 3005 05       		.uleb128 0x5
 10392 3006 03       		.byte	0x3
 10393 3007 5D010000 		.4byte	.LC39
 10394 300b 24       		.uleb128 0x24
 10395 300c 01       		.uleb128 0x1
 10396 300d 50       		.byte	0x50
 10397 300e 05       		.uleb128 0x5
 10398 300f 03       		.byte	0x3
 10399 3010 00000000 		.4byte	.LANCHOR0
 10400 3014 00       		.byte	0
 10401 3015 31       		.uleb128 0x31
 10402 3016 5E000000 		.4byte	.LVL309
 10403 301a 27180000 		.4byte	0x1827
ARM GAS  C:\Users\AHMED~1.ELE\AppData\Local\Temp\ccAQ67OG.s 			page 224


 10404 301e 23       		.uleb128 0x23
 10405 301f 66000000 		.4byte	.LVL310
 10406 3023 A2150000 		.4byte	0x15a2
 10407 3027 3A300000 		.4byte	0x303a
 10408 302b 24       		.uleb128 0x24
 10409 302c 01       		.uleb128 0x1
 10410 302d 51       		.byte	0x51
 10411 302e 01       		.uleb128 0x1
 10412 302f 32       		.byte	0x32
 10413 3030 24       		.uleb128 0x24
 10414 3031 01       		.uleb128 0x1
 10415 3032 50       		.byte	0x50
 10416 3033 05       		.uleb128 0x5
 10417 3034 03       		.byte	0x3
 10418 3035 61010000 		.4byte	.LC40
 10419 3039 00       		.byte	0
 10420 303a 31       		.uleb128 0x31
 10421 303b 6A000000 		.4byte	.LVL311
 10422 303f 27180000 		.4byte	0x1827
 10423 3043 00       		.byte	0
 10424 3044 2F       		.uleb128 0x2f
 10425 3045 03240000 		.4byte	.LASF775
 10426 3049 01       		.byte	0x1
 10427 304a 5004     		.2byte	0x450
 10428 304c B8000000 		.4byte	0xb8
 10429 3050 00000000 		.4byte	.LFB29
 10430 3054 80000000 		.4byte	.LFE29-.LFB29
 10431 3058 01       		.uleb128 0x1
 10432 3059 9C       		.byte	0x9c
 10433 305a 3D310000 		.4byte	0x313d
 10434 305e 30       		.uleb128 0x30
 10435 305f 490E0000 		.4byte	.LASF776
 10436 3063 01       		.byte	0x1
 10437 3064 5204     		.2byte	0x452
 10438 3066 B8000000 		.4byte	0xb8
 10439 306a 970C0000 		.4byte	.LLST86
 10440 306e 31       		.uleb128 0x31
 10441 306f 06000000 		.4byte	.LVL314
 10442 3073 27180000 		.4byte	0x1827
 10443 3077 23       		.uleb128 0x23
 10444 3078 0E000000 		.4byte	.LVL315
 10445 307c A2150000 		.4byte	0x15a2
 10446 3080 93300000 		.4byte	0x3093
 10447 3084 24       		.uleb128 0x24
 10448 3085 01       		.uleb128 0x1
 10449 3086 51       		.byte	0x51
 10450 3087 01       		.uleb128 0x1
 10451 3088 31       		.byte	0x31
 10452 3089 24       		.uleb128 0x24
 10453 308a 01       		.uleb128 0x1
 10454 308b 50       		.byte	0x50
 10455 308c 05       		.uleb128 0x5
 10456 308d 03       		.byte	0x3
 10457 308e 6B010000 		.4byte	.LC41
 10458 3092 00       		.byte	0
 10459 3093 23       		.uleb128 0x23
 10460 3094 18000000 		.4byte	.LVL316
ARM GAS  C:\Users\AHMED~1.ELE\AppData\Local\Temp\ccAQ67OG.s 			page 225


 10461 3098 EB3E0000 		.4byte	0x3eeb
 10462 309c B3300000 		.4byte	0x30b3
 10463 30a0 24       		.uleb128 0x24
 10464 30a1 01       		.uleb128 0x1
 10465 30a2 51       		.byte	0x51
 10466 30a3 05       		.uleb128 0x5
 10467 30a4 03       		.byte	0x3
 10468 30a5 75010000 		.4byte	.LC42
 10469 30a9 24       		.uleb128 0x24
 10470 30aa 01       		.uleb128 0x1
 10471 30ab 50       		.byte	0x50
 10472 30ac 05       		.uleb128 0x5
 10473 30ad 03       		.byte	0x3
 10474 30ae 00000000 		.4byte	.LANCHOR0
 10475 30b2 00       		.byte	0
 10476 30b3 23       		.uleb128 0x23
 10477 30b4 22000000 		.4byte	.LVL317
 10478 30b8 EB3E0000 		.4byte	0x3eeb
 10479 30bc D3300000 		.4byte	0x30d3
 10480 30c0 24       		.uleb128 0x24
 10481 30c1 01       		.uleb128 0x1
 10482 30c2 51       		.byte	0x51
 10483 30c3 05       		.uleb128 0x5
 10484 30c4 03       		.byte	0x3
 10485 30c5 7B010000 		.4byte	.LC43
 10486 30c9 24       		.uleb128 0x24
 10487 30ca 01       		.uleb128 0x1
 10488 30cb 50       		.byte	0x50
 10489 30cc 05       		.uleb128 0x5
 10490 30cd 03       		.byte	0x3
 10491 30ce 00000000 		.4byte	.LANCHOR0
 10492 30d2 00       		.byte	0
 10493 30d3 23       		.uleb128 0x23
 10494 30d4 2C000000 		.4byte	.LVL318
 10495 30d8 EB3E0000 		.4byte	0x3eeb
 10496 30dc F3300000 		.4byte	0x30f3
 10497 30e0 24       		.uleb128 0x24
 10498 30e1 01       		.uleb128 0x1
 10499 30e2 51       		.byte	0x51
 10500 30e3 05       		.uleb128 0x5
 10501 30e4 03       		.byte	0x3
 10502 30e5 80010000 		.4byte	.LC44
 10503 30e9 24       		.uleb128 0x24
 10504 30ea 01       		.uleb128 0x1
 10505 30eb 50       		.byte	0x50
 10506 30ec 05       		.uleb128 0x5
 10507 30ed 03       		.byte	0x3
 10508 30ee 00000000 		.4byte	.LANCHOR0
 10509 30f2 00       		.byte	0
 10510 30f3 23       		.uleb128 0x23
 10511 30f4 36000000 		.4byte	.LVL319
 10512 30f8 EB3E0000 		.4byte	0x3eeb
 10513 30fc 13310000 		.4byte	0x3113
 10514 3100 24       		.uleb128 0x24
 10515 3101 01       		.uleb128 0x1
 10516 3102 51       		.byte	0x51
 10517 3103 05       		.uleb128 0x5
ARM GAS  C:\Users\AHMED~1.ELE\AppData\Local\Temp\ccAQ67OG.s 			page 226


 10518 3104 03       		.byte	0x3
 10519 3105 84010000 		.4byte	.LC45
 10520 3109 24       		.uleb128 0x24
 10521 310a 01       		.uleb128 0x1
 10522 310b 50       		.byte	0x50
 10523 310c 05       		.uleb128 0x5
 10524 310d 03       		.byte	0x3
 10525 310e 00000000 		.4byte	.LANCHOR0
 10526 3112 00       		.byte	0
 10527 3113 23       		.uleb128 0x23
 10528 3114 40000000 		.4byte	.LVL320
 10529 3118 EB3E0000 		.4byte	0x3eeb
 10530 311c 33310000 		.4byte	0x3133
 10531 3120 24       		.uleb128 0x24
 10532 3121 01       		.uleb128 0x1
 10533 3122 51       		.byte	0x51
 10534 3123 05       		.uleb128 0x5
 10535 3124 03       		.byte	0x3
 10536 3125 89010000 		.4byte	.LC46
 10537 3129 24       		.uleb128 0x24
 10538 312a 01       		.uleb128 0x1
 10539 312b 50       		.byte	0x50
 10540 312c 05       		.uleb128 0x5
 10541 312d 03       		.byte	0x3
 10542 312e 00000000 		.4byte	.LANCHOR0
 10543 3132 00       		.byte	0
 10544 3133 31       		.uleb128 0x31
 10545 3134 60000000 		.4byte	.LVL322
 10546 3138 27180000 		.4byte	0x1827
 10547 313c 00       		.byte	0
 10548 313d 2F       		.uleb128 0x2f
 10549 313e 10200000 		.4byte	.LASF777
 10550 3142 01       		.byte	0x1
 10551 3143 6D04     		.2byte	0x46d
 10552 3145 97000000 		.4byte	0x97
 10553 3149 00000000 		.4byte	.LFB30
 10554 314d 4C000000 		.4byte	.LFE30-.LFB30
 10555 3151 01       		.uleb128 0x1
 10556 3152 9C       		.byte	0x9c
 10557 3153 10320000 		.4byte	0x3210
 10558 3157 3A       		.uleb128 0x3a
 10559 3158 61496400 		.ascii	"aId\000"
 10560 315c 01       		.byte	0x1
 10561 315d 6D04     		.2byte	0x46d
 10562 315f B8000000 		.4byte	0xb8
 10563 3163 C20C0000 		.4byte	.LLST87
 10564 3167 32       		.uleb128 0x32
 10565 3168 8D240000 		.4byte	.LASF774
 10566 316c 01       		.byte	0x1
 10567 316d 6D04     		.2byte	0x46d
 10568 316f 7F000000 		.4byte	0x7f
 10569 3173 E30C0000 		.4byte	.LLST88
 10570 3177 34       		.uleb128 0x34
 10571 3178 72657400 		.ascii	"ret\000"
 10572 317c 01       		.byte	0x1
 10573 317d 6F04     		.2byte	0x46f
 10574 317f 97000000 		.4byte	0x97
ARM GAS  C:\Users\AHMED~1.ELE\AppData\Local\Temp\ccAQ67OG.s 			page 227


 10575 3183 0F0D0000 		.4byte	.LLST89
 10576 3187 23       		.uleb128 0x23
 10577 3188 12000000 		.4byte	.LVL327
 10578 318c 053F0000 		.4byte	0x3f05
 10579 3190 CA310000 		.4byte	0x31ca
 10580 3194 24       		.uleb128 0x24
 10581 3195 01       		.uleb128 0x1
 10582 3196 52       		.byte	0x52
 10583 3197 03       		.uleb128 0x3
 10584 3198 F3       		.byte	0xf3
 10585 3199 01       		.uleb128 0x1
 10586 319a 51       		.byte	0x51
 10587 319b 24       		.uleb128 0x24
 10588 319c 01       		.uleb128 0x1
 10589 319d 51       		.byte	0x51
 10590 319e 21       		.uleb128 0x21
 10591 319f 03       		.byte	0x3
 10592 31a0 9C010000 		.4byte	.LC48
 10593 31a4 03       		.byte	0x3
 10594 31a5 8D010000 		.4byte	.LC47
 10595 31a9 F3       		.byte	0xf3
 10596 31aa 01       		.uleb128 0x1
 10597 31ab 51       		.byte	0x51
 10598 31ac F3       		.byte	0xf3
 10599 31ad 01       		.uleb128 0x1
 10600 31ae 50       		.byte	0x50
 10601 31af 31       		.byte	0x31
 10602 31b0 29       		.byte	0x29
 10603 31b1 28       		.byte	0x28
 10604 31b2 0100     		.2byte	0x1
 10605 31b4 16       		.byte	0x16
 10606 31b5 13       		.byte	0x13
 10607 31b6 F3       		.byte	0xf3
 10608 31b7 01       		.uleb128 0x1
 10609 31b8 50       		.byte	0x50
 10610 31b9 31       		.byte	0x31
 10611 31ba 2E       		.byte	0x2e
 10612 31bb 28       		.byte	0x28
 10613 31bc 0100     		.2byte	0x1
 10614 31be 16       		.byte	0x16
 10615 31bf 13       		.byte	0x13
 10616 31c0 24       		.uleb128 0x24
 10617 31c1 01       		.uleb128 0x1
 10618 31c2 50       		.byte	0x50
 10619 31c3 05       		.uleb128 0x5
 10620 31c4 03       		.byte	0x3
 10621 31c5 DD050000 		.4byte	.LANCHOR0+1501
 10622 31c9 00       		.byte	0
 10623 31ca 23       		.uleb128 0x23
 10624 31cb 1A000000 		.4byte	.LVL328
 10625 31cf A2150000 		.4byte	0x15a2
 10626 31d3 E6310000 		.4byte	0x31e6
 10627 31d7 24       		.uleb128 0x24
 10628 31d8 01       		.uleb128 0x1
 10629 31d9 51       		.byte	0x51
 10630 31da 01       		.uleb128 0x1
 10631 31db 31       		.byte	0x31
ARM GAS  C:\Users\AHMED~1.ELE\AppData\Local\Temp\ccAQ67OG.s 			page 228


 10632 31dc 24       		.uleb128 0x24
 10633 31dd 01       		.uleb128 0x1
 10634 31de 50       		.byte	0x50
 10635 31df 05       		.uleb128 0x5
 10636 31e0 03       		.byte	0x3
 10637 31e1 DD050000 		.4byte	.LANCHOR0+1501
 10638 31e5 00       		.byte	0
 10639 31e6 23       		.uleb128 0x23
 10640 31e7 24000000 		.4byte	.LVL329
 10641 31eb EB3E0000 		.4byte	0x3eeb
 10642 31ef 06320000 		.4byte	0x3206
 10643 31f3 24       		.uleb128 0x24
 10644 31f4 01       		.uleb128 0x1
 10645 31f5 51       		.byte	0x51
 10646 31f6 05       		.uleb128 0x5
 10647 31f7 03       		.byte	0x3
 10648 31f8 00000000 		.4byte	.LC1
 10649 31fc 24       		.uleb128 0x24
 10650 31fd 01       		.uleb128 0x1
 10651 31fe 50       		.byte	0x50
 10652 31ff 05       		.uleb128 0x5
 10653 3200 03       		.byte	0x3
 10654 3201 00000000 		.4byte	.LANCHOR0
 10655 3205 00       		.byte	0
 10656 3206 31       		.uleb128 0x31
 10657 3207 32000000 		.4byte	.LVL331
 10658 320b 27180000 		.4byte	0x1827
 10659 320f 00       		.byte	0
 10660 3210 2F       		.uleb128 0x2f
 10661 3211 EE020000 		.4byte	.LASF778
 10662 3215 01       		.byte	0x1
 10663 3216 8A04     		.2byte	0x48a
 10664 3218 B8000000 		.4byte	0xb8
 10665 321c 00000000 		.4byte	.LFB31
 10666 3220 94000000 		.4byte	.LFE31-.LFB31
 10667 3224 01       		.uleb128 0x1
 10668 3225 9C       		.byte	0x9c
 10669 3226 50330000 		.4byte	0x3350
 10670 322a 3A       		.uleb128 0x3a
 10671 322b 61496400 		.ascii	"aId\000"
 10672 322f 01       		.byte	0x1
 10673 3230 8A04     		.2byte	0x48a
 10674 3232 B8000000 		.4byte	0xb8
 10675 3236 2E0D0000 		.4byte	.LLST90
 10676 323a 32       		.uleb128 0x32
 10677 323b 59240000 		.4byte	.LASF779
 10678 323f 01       		.byte	0x1
 10679 3240 8A04     		.2byte	0x48a
 10680 3242 7F000000 		.4byte	0x7f
 10681 3246 5A0D0000 		.4byte	.LLST91
 10682 324a 32       		.uleb128 0x32
 10683 324b 86090000 		.4byte	.LASF780
 10684 324f 01       		.byte	0x1
 10685 3250 8A04     		.2byte	0x48a
 10686 3252 7F000000 		.4byte	0x7f
 10687 3256 B80D0000 		.4byte	.LLST92
 10688 325a 34       		.uleb128 0x34
ARM GAS  C:\Users\AHMED~1.ELE\AppData\Local\Temp\ccAQ67OG.s 			page 229


 10689 325b 72657400 		.ascii	"ret\000"
 10690 325f 01       		.byte	0x1
 10691 3260 8C04     		.2byte	0x48c
 10692 3262 B8000000 		.4byte	0xb8
 10693 3266 E40D0000 		.4byte	.LLST93
 10694 326a 31       		.uleb128 0x31
 10695 326b 0C000000 		.4byte	.LVL334
 10696 326f 27180000 		.4byte	0x1827
 10697 3273 23       		.uleb128 0x23
 10698 3274 14000000 		.4byte	.LVL335
 10699 3278 A2150000 		.4byte	0x15a2
 10700 327c 8F320000 		.4byte	0x328f
 10701 3280 24       		.uleb128 0x24
 10702 3281 01       		.uleb128 0x1
 10703 3282 51       		.byte	0x51
 10704 3283 01       		.uleb128 0x1
 10705 3284 32       		.byte	0x32
 10706 3285 24       		.uleb128 0x24
 10707 3286 01       		.uleb128 0x1
 10708 3287 50       		.byte	0x50
 10709 3288 05       		.uleb128 0x5
 10710 3289 03       		.byte	0x3
 10711 328a 37010000 		.4byte	.LC34
 10712 328e 00       		.byte	0
 10713 328f 31       		.uleb128 0x31
 10714 3290 18000000 		.4byte	.LVL336
 10715 3294 27180000 		.4byte	0x1827
 10716 3298 23       		.uleb128 0x23
 10717 3299 2C000000 		.4byte	.LVL337
 10718 329d 053F0000 		.4byte	0x3f05
 10719 32a1 C5320000 		.4byte	0x32c5
 10720 32a5 24       		.uleb128 0x24
 10721 32a6 01       		.uleb128 0x1
 10722 32a7 53       		.byte	0x53
 10723 32a8 02       		.uleb128 0x2
 10724 32a9 74       		.byte	0x74
 10725 32aa 00       		.sleb128 0
 10726 32ab 24       		.uleb128 0x24
 10727 32ac 01       		.uleb128 0x1
 10728 32ad 51       		.byte	0x51
 10729 32ae 05       		.uleb128 0x5
 10730 32af 03       		.byte	0x3
 10731 32b0 AC010000 		.4byte	.LC49
 10732 32b4 24       		.uleb128 0x24
 10733 32b5 01       		.uleb128 0x1
 10734 32b6 50       		.byte	0x50
 10735 32b7 05       		.uleb128 0x5
 10736 32b8 03       		.byte	0x3
 10737 32b9 DD050000 		.4byte	.LANCHOR0+1501
 10738 32bd 24       		.uleb128 0x24
 10739 32be 02       		.uleb128 0x2
 10740 32bf 7D       		.byte	0x7d
 10741 32c0 00       		.sleb128 0
 10742 32c1 02       		.uleb128 0x2
 10743 32c2 75       		.byte	0x75
 10744 32c3 00       		.sleb128 0
 10745 32c4 00       		.byte	0
ARM GAS  C:\Users\AHMED~1.ELE\AppData\Local\Temp\ccAQ67OG.s 			page 230


 10746 32c5 23       		.uleb128 0x23
 10747 32c6 34000000 		.4byte	.LVL338
 10748 32ca A2150000 		.4byte	0x15a2
 10749 32ce E1320000 		.4byte	0x32e1
 10750 32d2 24       		.uleb128 0x24
 10751 32d3 01       		.uleb128 0x1
 10752 32d4 51       		.byte	0x51
 10753 32d5 01       		.uleb128 0x1
 10754 32d6 32       		.byte	0x32
 10755 32d7 24       		.uleb128 0x24
 10756 32d8 01       		.uleb128 0x1
 10757 32d9 50       		.byte	0x50
 10758 32da 05       		.uleb128 0x5
 10759 32db 03       		.byte	0x3
 10760 32dc DD050000 		.4byte	.LANCHOR0+1501
 10761 32e0 00       		.byte	0
 10762 32e1 23       		.uleb128 0x23
 10763 32e2 3E000000 		.4byte	.LVL339
 10764 32e6 EB3E0000 		.4byte	0x3eeb
 10765 32ea 01330000 		.4byte	0x3301
 10766 32ee 24       		.uleb128 0x24
 10767 32ef 01       		.uleb128 0x1
 10768 32f0 51       		.byte	0x51
 10769 32f1 05       		.uleb128 0x5
 10770 32f2 03       		.byte	0x3
 10771 32f3 00000000 		.4byte	.LC1
 10772 32f7 24       		.uleb128 0x24
 10773 32f8 01       		.uleb128 0x1
 10774 32f9 50       		.byte	0x50
 10775 32fa 05       		.uleb128 0x5
 10776 32fb 03       		.byte	0x3
 10777 32fc 00000000 		.4byte	.LANCHOR0
 10778 3300 00       		.byte	0
 10779 3301 23       		.uleb128 0x23
 10780 3302 48000000 		.4byte	.LVL340
 10781 3306 EB3E0000 		.4byte	0x3eeb
 10782 330a 21330000 		.4byte	0x3321
 10783 330e 24       		.uleb128 0x24
 10784 330f 01       		.uleb128 0x1
 10785 3310 51       		.byte	0x51
 10786 3311 05       		.uleb128 0x5
 10787 3312 03       		.byte	0x3
 10788 3313 5D010000 		.4byte	.LC39
 10789 3317 24       		.uleb128 0x24
 10790 3318 01       		.uleb128 0x1
 10791 3319 50       		.byte	0x50
 10792 331a 05       		.uleb128 0x5
 10793 331b 03       		.byte	0x3
 10794 331c 00000000 		.4byte	.LANCHOR0
 10795 3320 00       		.byte	0
 10796 3321 31       		.uleb128 0x31
 10797 3322 5C000000 		.4byte	.LVL346
 10798 3326 27180000 		.4byte	0x1827
 10799 332a 23       		.uleb128 0x23
 10800 332b 64000000 		.4byte	.LVL347
 10801 332f A2150000 		.4byte	0x15a2
 10802 3333 46330000 		.4byte	0x3346
ARM GAS  C:\Users\AHMED~1.ELE\AppData\Local\Temp\ccAQ67OG.s 			page 231


 10803 3337 24       		.uleb128 0x24
 10804 3338 01       		.uleb128 0x1
 10805 3339 51       		.byte	0x51
 10806 333a 01       		.uleb128 0x1
 10807 333b 32       		.byte	0x32
 10808 333c 24       		.uleb128 0x24
 10809 333d 01       		.uleb128 0x1
 10810 333e 50       		.byte	0x50
 10811 333f 05       		.uleb128 0x5
 10812 3340 03       		.byte	0x3
 10813 3341 61010000 		.4byte	.LC40
 10814 3345 00       		.byte	0
 10815 3346 31       		.uleb128 0x31
 10816 3347 68000000 		.4byte	.LVL348
 10817 334b 27180000 		.4byte	0x1827
 10818 334f 00       		.byte	0
 10819 3350 2F       		.uleb128 0x2f
 10820 3351 35150000 		.4byte	.LASF781
 10821 3355 01       		.byte	0x1
 10822 3356 AC04     		.2byte	0x4ac
 10823 3358 97000000 		.4byte	0x97
 10824 335c 00000000 		.4byte	.LFB32
 10825 3360 20000000 		.4byte	.LFE32-.LFB32
 10826 3364 01       		.uleb128 0x1
 10827 3365 9C       		.byte	0x9c
 10828 3366 8A330000 		.4byte	0x338a
 10829 336a 32       		.uleb128 0x32
 10830 336b B6170000 		.4byte	.LASF773
 10831 336f 01       		.byte	0x1
 10832 3370 AC04     		.2byte	0x4ac
 10833 3372 97000000 		.4byte	0x97
 10834 3376 0E0E0000 		.4byte	.LLST94
 10835 337a 25       		.uleb128 0x25
 10836 337b 10000000 		.4byte	.LVL354
 10837 337f A2150000 		.4byte	0x15a2
 10838 3383 24       		.uleb128 0x24
 10839 3384 01       		.uleb128 0x1
 10840 3385 51       		.byte	0x51
 10841 3386 01       		.uleb128 0x1
 10842 3387 32       		.byte	0x32
 10843 3388 00       		.byte	0
 10844 3389 00       		.byte	0
 10845 338a 2F       		.uleb128 0x2f
 10846 338b 7B1C0000 		.4byte	.LASF782
 10847 338f 01       		.byte	0x1
 10848 3390 C004     		.2byte	0x4c0
 10849 3392 B8000000 		.4byte	0xb8
 10850 3396 00000000 		.4byte	.LFB33
 10851 339a 4C000000 		.4byte	.LFE33-.LFB33
 10852 339e 01       		.uleb128 0x1
 10853 339f 9C       		.byte	0x9c
 10854 33a0 1D340000 		.4byte	0x341d
 10855 33a4 23       		.uleb128 0x23
 10856 33a5 0A000000 		.4byte	.LVL355
 10857 33a9 823E0000 		.4byte	0x3e82
 10858 33ad C4330000 		.4byte	0x33c4
 10859 33b1 24       		.uleb128 0x24
ARM GAS  C:\Users\AHMED~1.ELE\AppData\Local\Temp\ccAQ67OG.s 			page 232


 10860 33b2 01       		.uleb128 0x1
 10861 33b3 51       		.byte	0x51
 10862 33b4 05       		.uleb128 0x5
 10863 33b5 03       		.byte	0x3
 10864 33b6 EB010000 		.4byte	.LC53
 10865 33ba 24       		.uleb128 0x24
 10866 33bb 01       		.uleb128 0x1
 10867 33bc 50       		.byte	0x50
 10868 33bd 05       		.uleb128 0x5
 10869 33be 03       		.byte	0x3
 10870 33bf DD050000 		.4byte	.LANCHOR0+1501
 10871 33c3 00       		.byte	0
 10872 33c4 23       		.uleb128 0x23
 10873 33c5 12000000 		.4byte	.LVL356
 10874 33c9 A2150000 		.4byte	0x15a2
 10875 33cd E0330000 		.4byte	0x33e0
 10876 33d1 24       		.uleb128 0x24
 10877 33d2 01       		.uleb128 0x1
 10878 33d3 51       		.byte	0x51
 10879 33d4 01       		.uleb128 0x1
 10880 33d5 32       		.byte	0x32
 10881 33d6 24       		.uleb128 0x24
 10882 33d7 01       		.uleb128 0x1
 10883 33d8 50       		.byte	0x50
 10884 33d9 05       		.uleb128 0x5
 10885 33da 03       		.byte	0x3
 10886 33db DD050000 		.4byte	.LANCHOR0+1501
 10887 33df 00       		.byte	0
 10888 33e0 23       		.uleb128 0x23
 10889 33e1 1C000000 		.4byte	.LVL357
 10890 33e5 EB3E0000 		.4byte	0x3eeb
 10891 33e9 00340000 		.4byte	0x3400
 10892 33ed 24       		.uleb128 0x24
 10893 33ee 01       		.uleb128 0x1
 10894 33ef 51       		.byte	0x51
 10895 33f0 05       		.uleb128 0x5
 10896 33f1 03       		.byte	0x3
 10897 33f2 F6010000 		.4byte	.LC54
 10898 33f6 24       		.uleb128 0x24
 10899 33f7 01       		.uleb128 0x1
 10900 33f8 50       		.byte	0x50
 10901 33f9 05       		.uleb128 0x5
 10902 33fa 03       		.byte	0x3
 10903 33fb 00000000 		.4byte	.LANCHOR0
 10904 33ff 00       		.byte	0
 10905 3400 25       		.uleb128 0x25
 10906 3401 26000000 		.4byte	.LVL358
 10907 3405 EB3E0000 		.4byte	0x3eeb
 10908 3409 24       		.uleb128 0x24
 10909 340a 01       		.uleb128 0x1
 10910 340b 51       		.byte	0x51
 10911 340c 05       		.uleb128 0x5
 10912 340d 03       		.byte	0x3
 10913 340e FF010000 		.4byte	.LC55
 10914 3412 24       		.uleb128 0x24
 10915 3413 01       		.uleb128 0x1
 10916 3414 50       		.byte	0x50
ARM GAS  C:\Users\AHMED~1.ELE\AppData\Local\Temp\ccAQ67OG.s 			page 233


 10917 3415 05       		.uleb128 0x5
 10918 3416 03       		.byte	0x3
 10919 3417 00000000 		.4byte	.LANCHOR0
 10920 341b 00       		.byte	0
 10921 341c 00       		.byte	0
 10922 341d 26       		.uleb128 0x26
 10923 341e 25170000 		.4byte	0x1725
 10924 3422 00000000 		.4byte	.LFB35
 10925 3426 A0000000 		.4byte	.LFE35-.LFB35
 10926 342a 01       		.uleb128 0x1
 10927 342b 9C       		.byte	0x9c
 10928 342c 81350000 		.4byte	0x3581
 10929 3430 27       		.uleb128 0x27
 10930 3431 36170000 		.4byte	0x1736
 10931 3435 480E0000 		.4byte	.LLST95
 10932 3439 27       		.uleb128 0x27
 10933 343a 42170000 		.4byte	0x1742
 10934 343e 740E0000 		.4byte	.LLST96
 10935 3442 2A       		.uleb128 0x2a
 10936 3443 4E170000 		.4byte	0x174e
 10937 3447 2A       		.uleb128 0x2a
 10938 3448 5A170000 		.4byte	0x175a
 10939 344c 2A       		.uleb128 0x2a
 10940 344d 66170000 		.4byte	0x1766
 10941 3451 2A       		.uleb128 0x2a
 10942 3452 72170000 		.4byte	0x1772
 10943 3456 35       		.uleb128 0x35
 10944 3457 26000000 		.4byte	.LBB29
 10945 345b 64000000 		.4byte	.LBE29-.LBB29
 10946 345f 3F350000 		.4byte	0x353f
 10947 3463 27       		.uleb128 0x27
 10948 3464 42170000 		.4byte	0x1742
 10949 3468 A00E0000 		.4byte	.LLST97
 10950 346c 27       		.uleb128 0x27
 10951 346d 36170000 		.4byte	0x1736
 10952 3471 C10E0000 		.4byte	.LLST98
 10953 3475 36       		.uleb128 0x36
 10954 3476 26000000 		.4byte	.LBB30
 10955 347a 64000000 		.4byte	.LBE30-.LBB30
 10956 347e 29       		.uleb128 0x29
 10957 347f 4E170000 		.4byte	0x174e
 10958 3483 E20E0000 		.4byte	.LLST99
 10959 3487 29       		.uleb128 0x29
 10960 3488 5A170000 		.4byte	0x175a
 10961 348c 000F0000 		.4byte	.LLST100
 10962 3490 29       		.uleb128 0x29
 10963 3491 66170000 		.4byte	0x1766
 10964 3495 2B0F0000 		.4byte	.LLST101
 10965 3499 29       		.uleb128 0x29
 10966 349a 72170000 		.4byte	0x1772
 10967 349e 740F0000 		.4byte	.LLST102
 10968 34a2 23       		.uleb128 0x23
 10969 34a3 2E000000 		.4byte	.LVL364
 10970 34a7 EB3E0000 		.4byte	0x3eeb
 10971 34ab BF340000 		.4byte	0x34bf
 10972 34af 24       		.uleb128 0x24
 10973 34b0 01       		.uleb128 0x1
ARM GAS  C:\Users\AHMED~1.ELE\AppData\Local\Temp\ccAQ67OG.s 			page 234


 10974 34b1 51       		.byte	0x51
 10975 34b2 05       		.uleb128 0x5
 10976 34b3 03       		.byte	0x3
 10977 34b4 13020000 		.4byte	.LC57
 10978 34b8 24       		.uleb128 0x24
 10979 34b9 01       		.uleb128 0x1
 10980 34ba 50       		.byte	0x50
 10981 34bb 02       		.uleb128 0x2
 10982 34bc 74       		.byte	0x74
 10983 34bd 00       		.sleb128 0
 10984 34be 00       		.byte	0
 10985 34bf 23       		.uleb128 0x23
 10986 34c0 3A000000 		.4byte	.LVL366
 10987 34c4 B93E0000 		.4byte	0x3eb9
 10988 34c8 D3340000 		.4byte	0x34d3
 10989 34cc 24       		.uleb128 0x24
 10990 34cd 01       		.uleb128 0x1
 10991 34ce 50       		.byte	0x50
 10992 34cf 02       		.uleb128 0x2
 10993 34d0 74       		.byte	0x74
 10994 34d1 00       		.sleb128 0
 10995 34d2 00       		.byte	0
 10996 34d3 23       		.uleb128 0x23
 10997 34d4 48000000 		.4byte	.LVL368
 10998 34d8 203F0000 		.4byte	0x3f20
 10999 34dc F3340000 		.4byte	0x34f3
 11000 34e0 24       		.uleb128 0x24
 11001 34e1 01       		.uleb128 0x1
 11002 34e2 52       		.byte	0x52
 11003 34e3 02       		.uleb128 0x2
 11004 34e4 74       		.byte	0x74
 11005 34e5 00       		.sleb128 0
 11006 34e6 24       		.uleb128 0x24
 11007 34e7 01       		.uleb128 0x1
 11008 34e8 51       		.byte	0x51
 11009 34e9 02       		.uleb128 0x2
 11010 34ea 08       		.byte	0x8
 11011 34eb 2C       		.byte	0x2c
 11012 34ec 24       		.uleb128 0x24
 11013 34ed 01       		.uleb128 0x1
 11014 34ee 50       		.byte	0x50
 11015 34ef 02       		.uleb128 0x2
 11016 34f0 76       		.byte	0x76
 11017 34f1 00       		.sleb128 0
 11018 34f2 00       		.byte	0
 11019 34f3 23       		.uleb128 0x23
 11020 34f4 60000000 		.4byte	.LVL372
 11021 34f8 203F0000 		.4byte	0x3f20
 11022 34fc 13350000 		.4byte	0x3513
 11023 3500 24       		.uleb128 0x24
 11024 3501 01       		.uleb128 0x1
 11025 3502 52       		.byte	0x52
 11026 3503 02       		.uleb128 0x2
 11027 3504 74       		.byte	0x74
 11028 3505 00       		.sleb128 0
 11029 3506 24       		.uleb128 0x24
 11030 3507 01       		.uleb128 0x1
ARM GAS  C:\Users\AHMED~1.ELE\AppData\Local\Temp\ccAQ67OG.s 			page 235


 11031 3508 51       		.byte	0x51
 11032 3509 02       		.uleb128 0x2
 11033 350a 08       		.byte	0x8
 11034 350b 2C       		.byte	0x2c
 11035 350c 24       		.uleb128 0x24
 11036 350d 01       		.uleb128 0x1
 11037 350e 50       		.byte	0x50
 11038 350f 02       		.uleb128 0x2
 11039 3510 7A       		.byte	0x7a
 11040 3511 00       		.sleb128 0
 11041 3512 00       		.byte	0
 11042 3513 23       		.uleb128 0x23
 11043 3514 6C000000 		.4byte	.LVL376
 11044 3518 8A1B0000 		.4byte	0x1b8a
 11045 351c 27350000 		.4byte	0x3527
 11046 3520 24       		.uleb128 0x24
 11047 3521 01       		.uleb128 0x1
 11048 3522 50       		.byte	0x50
 11049 3523 02       		.uleb128 0x2
 11050 3524 7A       		.byte	0x7a
 11051 3525 00       		.sleb128 0
 11052 3526 00       		.byte	0
 11053 3527 25       		.uleb128 0x25
 11054 3528 7E000000 		.4byte	.LVL378
 11055 352c 8A1B0000 		.4byte	0x1b8a
 11056 3530 24       		.uleb128 0x24
 11057 3531 01       		.uleb128 0x1
 11058 3532 50       		.byte	0x50
 11059 3533 08       		.uleb128 0x8
 11060 3534 76       		.byte	0x76
 11061 3535 00       		.sleb128 0
 11062 3536 75       		.byte	0x75
 11063 3537 00       		.sleb128 0
 11064 3538 22       		.byte	0x22
 11065 3539 79       		.byte	0x79
 11066 353a 00       		.sleb128 0
 11067 353b 22       		.byte	0x22
 11068 353c 00       		.byte	0
 11069 353d 00       		.byte	0
 11070 353e 00       		.byte	0
 11071 353f 31       		.uleb128 0x31
 11072 3540 0C000000 		.4byte	.LVL360
 11073 3544 27180000 		.4byte	0x1827
 11074 3548 23       		.uleb128 0x23
 11075 3549 14000000 		.4byte	.LVL361
 11076 354d 823E0000 		.4byte	0x3e82
 11077 3551 68350000 		.4byte	0x3568
 11078 3555 24       		.uleb128 0x24
 11079 3556 01       		.uleb128 0x1
 11080 3557 51       		.byte	0x51
 11081 3558 05       		.uleb128 0x5
 11082 3559 03       		.byte	0x3
 11083 355a 08020000 		.4byte	.LC56
 11084 355e 24       		.uleb128 0x24
 11085 355f 01       		.uleb128 0x1
 11086 3560 50       		.byte	0x50
 11087 3561 05       		.uleb128 0x5
ARM GAS  C:\Users\AHMED~1.ELE\AppData\Local\Temp\ccAQ67OG.s 			page 236


 11088 3562 03       		.byte	0x3
 11089 3563 DD050000 		.4byte	.LANCHOR0+1501
 11090 3567 00       		.byte	0
 11091 3568 25       		.uleb128 0x25
 11092 3569 1E000000 		.4byte	.LVL362
 11093 356d A2150000 		.4byte	0x15a2
 11094 3571 24       		.uleb128 0x24
 11095 3572 01       		.uleb128 0x1
 11096 3573 51       		.byte	0x51
 11097 3574 01       		.uleb128 0x1
 11098 3575 32       		.byte	0x32
 11099 3576 24       		.uleb128 0x24
 11100 3577 01       		.uleb128 0x1
 11101 3578 50       		.byte	0x50
 11102 3579 05       		.uleb128 0x5
 11103 357a 03       		.byte	0x3
 11104 357b DD050000 		.4byte	.LANCHOR0+1501
 11105 357f 00       		.byte	0
 11106 3580 00       		.byte	0
 11107 3581 1C       		.uleb128 0x1c
 11108 3582 F9130000 		.4byte	.LASF783
 11109 3586 01       		.byte	0x1
 11110 3587 2D05     		.2byte	0x52d
 11111 3589 97000000 		.4byte	0x97
 11112 358d 01       		.byte	0x1
 11113 358e FF350000 		.4byte	0x35ff
 11114 3592 3D       		.uleb128 0x3d
 11115 3593 6D736700 		.ascii	"msg\000"
 11116 3597 01       		.byte	0x1
 11117 3598 2D05     		.2byte	0x52d
 11118 359a FF350000 		.4byte	0x35ff
 11119 359e 1D       		.uleb128 0x1d
 11120 359f 041A0000 		.4byte	.LASF784
 11121 35a3 01       		.byte	0x1
 11122 35a4 2D05     		.2byte	0x52d
 11123 35a6 C3000000 		.4byte	0xc3
 11124 35aa 3D       		.uleb128 0x3d
 11125 35ab 6C656E00 		.ascii	"len\000"
 11126 35af 01       		.byte	0x1
 11127 35b0 2D05     		.2byte	0x52d
 11128 35b2 B8000000 		.4byte	0xb8
 11129 35b6 20       		.uleb128 0x20
 11130 35b7 92320000 		.4byte	.LASF785
 11131 35bb 01       		.byte	0x1
 11132 35bc 3005     		.2byte	0x530
 11133 35be A0130000 		.4byte	0x13a0
 11134 35c2 20       		.uleb128 0x20
 11135 35c3 AF180000 		.4byte	.LASF786
 11136 35c7 01       		.byte	0x1
 11137 35c8 3105     		.2byte	0x531
 11138 35ca A2000000 		.4byte	0xa2
 11139 35ce 20       		.uleb128 0x20
 11140 35cf B6270000 		.4byte	.LASF741
 11141 35d3 01       		.byte	0x1
 11142 35d4 3105     		.2byte	0x531
 11143 35d6 A2000000 		.4byte	0xa2
 11144 35da 20       		.uleb128 0x20
ARM GAS  C:\Users\AHMED~1.ELE\AppData\Local\Temp\ccAQ67OG.s 			page 237


 11145 35db 052F0000 		.4byte	.LASF787
 11146 35df 01       		.byte	0x1
 11147 35e0 3105     		.2byte	0x531
 11148 35e2 A2000000 		.4byte	0xa2
 11149 35e6 1F       		.uleb128 0x1f
 11150 35e7 70747200 		.ascii	"ptr\000"
 11151 35eb 01       		.byte	0x1
 11152 35ec 3205     		.2byte	0x532
 11153 35ee C3000000 		.4byte	0xc3
 11154 35f2 20       		.uleb128 0x20
 11155 35f3 FA030000 		.4byte	.LASF743
 11156 35f7 01       		.byte	0x1
 11157 35f8 3305     		.2byte	0x533
 11158 35fa A2000000 		.4byte	0xa2
 11159 35fe 00       		.byte	0
 11160 35ff 06       		.uleb128 0x6
 11161 3600 04       		.byte	0x4
 11162 3601 0E140000 		.4byte	0x140e
 11163 3605 3E       		.uleb128 0x3e
 11164 3606 39260000 		.4byte	.LASF825
 11165 360a 01       		.byte	0x1
 11166 360b 6D05     		.2byte	0x56d
 11167 360d 01       		.byte	0x1
 11168 360e 27360000 		.4byte	0x3627
 11169 3612 1F       		.uleb128 0x1f
 11170 3613 6900     		.ascii	"i\000"
 11171 3615 01       		.byte	0x1
 11172 3616 6F05     		.2byte	0x56f
 11173 3618 AD000000 		.4byte	0xad
 11174 361c 1F       		.uleb128 0x1f
 11175 361d 6A00     		.ascii	"j\000"
 11176 361f 01       		.byte	0x1
 11177 3620 6F05     		.2byte	0x56f
 11178 3622 AD000000 		.4byte	0xad
 11179 3626 00       		.byte	0
 11180 3627 39       		.uleb128 0x39
 11181 3628 300C0000 		.4byte	.LASF788
 11182 362c 01       		.byte	0x1
 11183 362d 8405     		.2byte	0x584
 11184 362f 00000000 		.4byte	.LFB38
 11185 3633 9C020000 		.4byte	.LFE38-.LFB38
 11186 3637 01       		.uleb128 0x1
 11187 3638 9C       		.byte	0x9c
 11188 3639 E5380000 		.4byte	0x38e5
 11189 363d 34       		.uleb128 0x34
 11190 363e 70747200 		.ascii	"ptr\000"
 11191 3642 01       		.byte	0x1
 11192 3643 8605     		.2byte	0x586
 11193 3645 7F000000 		.4byte	0x7f
 11194 3649 870F0000 		.4byte	.LLST103
 11195 364d 34       		.uleb128 0x34
 11196 364e 6900     		.ascii	"i\000"
 11197 3650 01       		.byte	0x1
 11198 3651 8705     		.2byte	0x587
 11199 3653 A2000000 		.4byte	0xa2
 11200 3657 B00F0000 		.4byte	.LLST104
 11201 365b 30       		.uleb128 0x30
ARM GAS  C:\Users\AHMED~1.ELE\AppData\Local\Temp\ccAQ67OG.s 			page 238


 11202 365c D21C0000 		.4byte	.LASF789
 11203 3660 01       		.byte	0x1
 11204 3661 8805     		.2byte	0x588
 11205 3663 AD000000 		.4byte	0xad
 11206 3667 CE0F0000 		.4byte	.LLST105
 11207 366b 3F       		.uleb128 0x3f
 11208 366c 0B160000 		.4byte	0x160b
 11209 3670 1A000000 		.4byte	.LBB39
 11210 3674 06000000 		.4byte	.LBE39-.LBB39
 11211 3678 01       		.byte	0x1
 11212 3679 9005     		.2byte	0x590
 11213 367b 98360000 		.4byte	0x3698
 11214 367f 27       		.uleb128 0x27
 11215 3680 1C160000 		.4byte	0x161c
 11216 3684 F80F0000 		.4byte	.LLST106
 11217 3688 25       		.uleb128 0x25
 11218 3689 20000000 		.4byte	.LVL383
 11219 368d 3E1B0000 		.4byte	0x1b3e
 11220 3691 24       		.uleb128 0x24
 11221 3692 01       		.uleb128 0x1
 11222 3693 50       		.byte	0x50
 11223 3694 01       		.uleb128 0x1
 11224 3695 31       		.byte	0x31
 11225 3696 00       		.byte	0
 11226 3697 00       		.byte	0
 11227 3698 37       		.uleb128 0x37
 11228 3699 81350000 		.4byte	0x3581
 11229 369d 6C000000 		.4byte	.LBB41
 11230 36a1 30000000 		.4byte	.Ldebug_ranges0+0x30
 11231 36a5 01       		.byte	0x1
 11232 36a6 A005     		.2byte	0x5a0
 11233 36a8 A4370000 		.4byte	0x37a4
 11234 36ac 27       		.uleb128 0x27
 11235 36ad AA350000 		.4byte	0x35aa
 11236 36b1 0C100000 		.4byte	.LLST107
 11237 36b5 27       		.uleb128 0x27
 11238 36b6 9E350000 		.4byte	0x359e
 11239 36ba 37100000 		.4byte	.LLST108
 11240 36be 27       		.uleb128 0x27
 11241 36bf 92350000 		.4byte	0x3592
 11242 36c3 55100000 		.4byte	.LLST109
 11243 36c7 38       		.uleb128 0x38
 11244 36c8 30000000 		.4byte	.Ldebug_ranges0+0x30
 11245 36cc 28       		.uleb128 0x28
 11246 36cd B6350000 		.4byte	0x35b6
 11247 36d1 02       		.uleb128 0x2
 11248 36d2 91       		.byte	0x91
 11249 36d3 4C       		.sleb128 -52
 11250 36d4 29       		.uleb128 0x29
 11251 36d5 C2350000 		.4byte	0x35c2
 11252 36d9 9F100000 		.4byte	.LLST110
 11253 36dd 29       		.uleb128 0x29
 11254 36de CE350000 		.4byte	0x35ce
 11255 36e2 DF100000 		.4byte	.LLST111
 11256 36e6 29       		.uleb128 0x29
 11257 36e7 DA350000 		.4byte	0x35da
 11258 36eb 1F110000 		.4byte	.LLST112
ARM GAS  C:\Users\AHMED~1.ELE\AppData\Local\Temp\ccAQ67OG.s 			page 239


 11259 36ef 29       		.uleb128 0x29
 11260 36f0 E6350000 		.4byte	0x35e6
 11261 36f4 5F110000 		.4byte	.LLST113
 11262 36f8 29       		.uleb128 0x29
 11263 36f9 F2350000 		.4byte	0x35f2
 11264 36fd AF110000 		.4byte	.LLST114
 11265 3701 23       		.uleb128 0x23
 11266 3702 78000000 		.4byte	.LVL394
 11267 3706 EB3E0000 		.4byte	0x3eeb
 11268 370a 1E370000 		.4byte	0x371e
 11269 370e 24       		.uleb128 0x24
 11270 370f 01       		.uleb128 0x1
 11271 3710 51       		.byte	0x51
 11272 3711 05       		.uleb128 0x5
 11273 3712 03       		.byte	0x3
 11274 3713 27020000 		.4byte	.LC59
 11275 3717 24       		.uleb128 0x24
 11276 3718 01       		.uleb128 0x1
 11277 3719 50       		.byte	0x50
 11278 371a 02       		.uleb128 0x2
 11279 371b 7A       		.byte	0x7a
 11280 371c 00       		.sleb128 0
 11281 371d 00       		.byte	0
 11282 371e 23       		.uleb128 0x23
 11283 371f A2000000 		.4byte	.LVL399
 11284 3723 3F3F0000 		.4byte	0x3f3f
 11285 3727 40370000 		.4byte	0x3740
 11286 372b 24       		.uleb128 0x24
 11287 372c 01       		.uleb128 0x1
 11288 372d 52       		.byte	0x52
 11289 372e 01       		.uleb128 0x1
 11290 372f 3A       		.byte	0x3a
 11291 3730 24       		.uleb128 0x24
 11292 3731 01       		.uleb128 0x1
 11293 3732 51       		.byte	0x51
 11294 3733 05       		.uleb128 0x5
 11295 3734 03       		.byte	0x3
 11296 3735 2E020000 		.4byte	.LC60
 11297 3739 24       		.uleb128 0x24
 11298 373a 01       		.uleb128 0x1
 11299 373b 50       		.byte	0x50
 11300 373c 02       		.uleb128 0x2
 11301 373d 91       		.byte	0x91
 11302 373e 4C       		.sleb128 -52
 11303 373f 00       		.byte	0
 11304 3740 23       		.uleb128 0x23
 11305 3741 28010000 		.4byte	.LVL411
 11306 3745 3F3F0000 		.4byte	0x3f3f
 11307 3749 62370000 		.4byte	0x3762
 11308 374d 24       		.uleb128 0x24
 11309 374e 01       		.uleb128 0x1
 11310 374f 52       		.byte	0x52
 11311 3750 01       		.uleb128 0x1
 11312 3751 38       		.byte	0x38
 11313 3752 24       		.uleb128 0x24
 11314 3753 01       		.uleb128 0x1
 11315 3754 51       		.byte	0x51
ARM GAS  C:\Users\AHMED~1.ELE\AppData\Local\Temp\ccAQ67OG.s 			page 240


 11316 3755 05       		.uleb128 0x5
 11317 3756 03       		.byte	0x3
 11318 3757 39020000 		.4byte	.LC61
 11319 375b 24       		.uleb128 0x24
 11320 375c 01       		.uleb128 0x1
 11321 375d 50       		.byte	0x50
 11322 375e 02       		.uleb128 0x2
 11323 375f 91       		.byte	0x91
 11324 3760 4C       		.sleb128 -52
 11325 3761 00       		.byte	0
 11326 3762 23       		.uleb128 0x23
 11327 3763 42010000 		.4byte	.LVL412
 11328 3767 3F3F0000 		.4byte	0x3f3f
 11329 376b 84370000 		.4byte	0x3784
 11330 376f 24       		.uleb128 0x24
 11331 3770 01       		.uleb128 0x1
 11332 3771 52       		.byte	0x52
 11333 3772 01       		.uleb128 0x1
 11334 3773 3A       		.byte	0x3a
 11335 3774 24       		.uleb128 0x24
 11336 3775 01       		.uleb128 0x1
 11337 3776 51       		.byte	0x51
 11338 3777 05       		.uleb128 0x5
 11339 3778 03       		.byte	0x3
 11340 3779 42020000 		.4byte	.LC62
 11341 377d 24       		.uleb128 0x24
 11342 377e 01       		.uleb128 0x1
 11343 377f 50       		.byte	0x50
 11344 3780 02       		.uleb128 0x2
 11345 3781 91       		.byte	0x91
 11346 3782 4C       		.sleb128 -52
 11347 3783 00       		.byte	0
 11348 3784 25       		.uleb128 0x25
 11349 3785 5C010000 		.4byte	.LVL413
 11350 3789 3F3F0000 		.4byte	0x3f3f
 11351 378d 24       		.uleb128 0x24
 11352 378e 01       		.uleb128 0x1
 11353 378f 52       		.byte	0x52
 11354 3790 01       		.uleb128 0x1
 11355 3791 38       		.byte	0x38
 11356 3792 24       		.uleb128 0x24
 11357 3793 01       		.uleb128 0x1
 11358 3794 51       		.byte	0x51
 11359 3795 05       		.uleb128 0x5
 11360 3796 03       		.byte	0x3
 11361 3797 4D020000 		.4byte	.LC63
 11362 379b 24       		.uleb128 0x24
 11363 379c 01       		.uleb128 0x1
 11364 379d 50       		.byte	0x50
 11365 379e 02       		.uleb128 0x2
 11366 379f 91       		.byte	0x91
 11367 37a0 4C       		.sleb128 -52
 11368 37a1 00       		.byte	0
 11369 37a2 00       		.byte	0
 11370 37a3 00       		.byte	0
 11371 37a4 3F       		.uleb128 0x3f
 11372 37a5 0B160000 		.4byte	0x160b
ARM GAS  C:\Users\AHMED~1.ELE\AppData\Local\Temp\ccAQ67OG.s 			page 241


 11373 37a9 A0010000 		.4byte	.LBB45
 11374 37ad 06000000 		.4byte	.LBE45-.LBB45
 11375 37b1 01       		.byte	0x1
 11376 37b2 B205     		.2byte	0x5b2
 11377 37b4 CB370000 		.4byte	0x37cb
 11378 37b8 27       		.uleb128 0x27
 11379 37b9 1C160000 		.4byte	0x161c
 11380 37bd E4110000 		.4byte	.LLST115
 11381 37c1 31       		.uleb128 0x31
 11382 37c2 A4010000 		.4byte	.LVL417
 11383 37c6 3E1B0000 		.4byte	0x1b3e
 11384 37ca 00       		.byte	0
 11385 37cb 3F       		.uleb128 0x3f
 11386 37cc 05360000 		.4byte	0x3605
 11387 37d0 B0010000 		.4byte	.LBB47
 11388 37d4 B4000000 		.4byte	.LBE47-.LBB47
 11389 37d8 01       		.byte	0x1
 11390 37d9 B605     		.2byte	0x5b6
 11391 37db 25380000 		.4byte	0x3825
 11392 37df 36       		.uleb128 0x36
 11393 37e0 B0010000 		.4byte	.LBB48
 11394 37e4 B4000000 		.4byte	.LBE48-.LBB48
 11395 37e8 29       		.uleb128 0x29
 11396 37e9 12360000 		.4byte	0x3612
 11397 37ed F8110000 		.4byte	.LLST116
 11398 37f1 29       		.uleb128 0x29
 11399 37f2 1C360000 		.4byte	0x361c
 11400 37f6 16120000 		.4byte	.LLST117
 11401 37fa 25       		.uleb128 0x25
 11402 37fb F0010000 		.4byte	.LVL425
 11403 37ff 3F3F0000 		.4byte	0x3f3f
 11404 3803 24       		.uleb128 0x24
 11405 3804 01       		.uleb128 0x1
 11406 3805 52       		.byte	0x52
 11407 3806 01       		.uleb128 0x1
 11408 3807 41       		.byte	0x41
 11409 3808 24       		.uleb128 0x24
 11410 3809 01       		.uleb128 0x1
 11411 380a 51       		.byte	0x51
 11412 380b 09       		.uleb128 0x9
 11413 380c 7A       		.byte	0x7a
 11414 380d 00       		.sleb128 0
 11415 380e 75       		.byte	0x75
 11416 380f 00       		.sleb128 0
 11417 3810 22       		.byte	0x22
 11418 3811 23       		.byte	0x23
 11419 3812 848901   		.uleb128 0x4484
 11420 3815 24       		.uleb128 0x24
 11421 3816 01       		.uleb128 0x1
 11422 3817 50       		.byte	0x50
 11423 3818 09       		.uleb128 0x9
 11424 3819 7A       		.byte	0x7a
 11425 381a 00       		.sleb128 0
 11426 381b 74       		.byte	0x74
 11427 381c 00       		.sleb128 0
 11428 381d 22       		.byte	0x22
 11429 381e 23       		.byte	0x23
ARM GAS  C:\Users\AHMED~1.ELE\AppData\Local\Temp\ccAQ67OG.s 			page 242


 11430 381f 848901   		.uleb128 0x4484
 11431 3822 00       		.byte	0
 11432 3823 00       		.byte	0
 11433 3824 00       		.byte	0
 11434 3825 31       		.uleb128 0x31
 11435 3826 0A000000 		.4byte	.LVL380
 11436 382a 27180000 		.4byte	0x1827
 11437 382e 23       		.uleb128 0x23
 11438 382f 14000000 		.4byte	.LVL381
 11439 3833 25170000 		.4byte	0x1725
 11440 3837 4E380000 		.4byte	0x384e
 11441 383b 24       		.uleb128 0x24
 11442 383c 01       		.uleb128 0x1
 11443 383d 51       		.byte	0x51
 11444 383e 05       		.uleb128 0x5
 11445 383f 03       		.byte	0x3
 11446 3840 30000000 		.4byte	gGSMData+48
 11447 3844 24       		.uleb128 0x24
 11448 3845 01       		.uleb128 0x1
 11449 3846 50       		.byte	0x50
 11450 3847 05       		.uleb128 0x5
 11451 3848 03       		.byte	0x3
 11452 3849 34000000 		.4byte	gGSMData+52
 11453 384d 00       		.byte	0
 11454 384e 23       		.uleb128 0x23
 11455 384f 30000000 		.4byte	.LVL384
 11456 3853 9C3E0000 		.4byte	0x3e9c
 11457 3857 72380000 		.4byte	0x3872
 11458 385b 24       		.uleb128 0x24
 11459 385c 01       		.uleb128 0x1
 11460 385d 52       		.byte	0x52
 11461 385e 03       		.uleb128 0x3
 11462 385f 0A       		.byte	0xa
 11463 3860 7017     		.2byte	0x1770
 11464 3862 24       		.uleb128 0x24
 11465 3863 01       		.uleb128 0x1
 11466 3864 51       		.byte	0x51
 11467 3865 02       		.uleb128 0x2
 11468 3866 76       		.byte	0x76
 11469 3867 00       		.sleb128 0
 11470 3868 24       		.uleb128 0x24
 11471 3869 01       		.uleb128 0x1
 11472 386a 50       		.byte	0x50
 11473 386b 05       		.uleb128 0x5
 11474 386c 03       		.byte	0x3
 11475 386d 80440000 		.4byte	gGSMData+17536
 11476 3871 00       		.byte	0
 11477 3872 23       		.uleb128 0x23
 11478 3873 44000000 		.4byte	.LVL386
 11479 3877 053F0000 		.4byte	0x3f05
 11480 387b 98380000 		.4byte	0x3898
 11481 387f 24       		.uleb128 0x24
 11482 3880 01       		.uleb128 0x1
 11483 3881 52       		.byte	0x52
 11484 3882 02       		.uleb128 0x2
 11485 3883 77       		.byte	0x77
 11486 3884 00       		.sleb128 0
ARM GAS  C:\Users\AHMED~1.ELE\AppData\Local\Temp\ccAQ67OG.s 			page 243


 11487 3885 24       		.uleb128 0x24
 11488 3886 01       		.uleb128 0x1
 11489 3887 51       		.byte	0x51
 11490 3888 05       		.uleb128 0x5
 11491 3889 03       		.byte	0x3
 11492 388a 1A020000 		.4byte	.LC58
 11493 388e 24       		.uleb128 0x24
 11494 388f 01       		.uleb128 0x1
 11495 3890 50       		.byte	0x50
 11496 3891 05       		.uleb128 0x5
 11497 3892 03       		.byte	0x3
 11498 3893 DD050000 		.4byte	.LANCHOR0+1501
 11499 3897 00       		.byte	0
 11500 3898 23       		.uleb128 0x23
 11501 3899 4C000000 		.4byte	.LVL387
 11502 389d A2150000 		.4byte	0x15a2
 11503 38a1 B4380000 		.4byte	0x38b4
 11504 38a5 24       		.uleb128 0x24
 11505 38a6 01       		.uleb128 0x1
 11506 38a7 51       		.byte	0x51
 11507 38a8 01       		.uleb128 0x1
 11508 38a9 32       		.byte	0x32
 11509 38aa 24       		.uleb128 0x24
 11510 38ab 01       		.uleb128 0x1
 11511 38ac 50       		.byte	0x50
 11512 38ad 05       		.uleb128 0x5
 11513 38ae 03       		.byte	0x3
 11514 38af DD050000 		.4byte	.LANCHOR0+1501
 11515 38b3 00       		.byte	0
 11516 38b4 23       		.uleb128 0x23
 11517 38b5 5A000000 		.4byte	.LVL388
 11518 38b9 EB3E0000 		.4byte	0x3eeb
 11519 38bd D4380000 		.4byte	0x38d4
 11520 38c1 24       		.uleb128 0x24
 11521 38c2 01       		.uleb128 0x1
 11522 38c3 51       		.byte	0x51
 11523 38c4 05       		.uleb128 0x5
 11524 38c5 03       		.byte	0x3
 11525 38c6 27020000 		.4byte	.LC59
 11526 38ca 24       		.uleb128 0x24
 11527 38cb 01       		.uleb128 0x1
 11528 38cc 50       		.byte	0x50
 11529 38cd 05       		.uleb128 0x5
 11530 38ce 03       		.byte	0x3
 11531 38cf 00000000 		.4byte	.LANCHOR0
 11532 38d3 00       		.byte	0
 11533 38d4 25       		.uleb128 0x25
 11534 38d5 6C000000 		.4byte	.LVL390
 11535 38d9 B93E0000 		.4byte	0x3eb9
 11536 38dd 24       		.uleb128 0x24
 11537 38de 01       		.uleb128 0x1
 11538 38df 50       		.byte	0x50
 11539 38e0 02       		.uleb128 0x2
 11540 38e1 7A       		.byte	0x7a
 11541 38e2 00       		.sleb128 0
 11542 38e3 00       		.byte	0
 11543 38e4 00       		.byte	0
ARM GAS  C:\Users\AHMED~1.ELE\AppData\Local\Temp\ccAQ67OG.s 			page 244


 11544 38e5 2F       		.uleb128 0x2f
 11545 38e6 5E0E0000 		.4byte	.LASF790
 11546 38ea 01       		.byte	0x1
 11547 38eb C105     		.2byte	0x5c1
 11548 38ed 97000000 		.4byte	0x97
 11549 38f1 00000000 		.4byte	.LFB39
 11550 38f5 0C010000 		.4byte	.LFE39-.LFB39
 11551 38f9 01       		.uleb128 0x1
 11552 38fa 9C       		.byte	0x9c
 11553 38fb E93A0000 		.4byte	0x3ae9
 11554 38ff 32       		.uleb128 0x32
 11555 3900 99140000 		.4byte	.LASF791
 11556 3904 01       		.byte	0x1
 11557 3905 C105     		.2byte	0x5c1
 11558 3907 E93A0000 		.4byte	0x3ae9
 11559 390b 3F120000 		.4byte	.LLST118
 11560 390f 32       		.uleb128 0x32
 11561 3910 E0270000 		.4byte	.LASF792
 11562 3914 01       		.byte	0x1
 11563 3915 C105     		.2byte	0x5c1
 11564 3917 B8000000 		.4byte	0xb8
 11565 391b 6B120000 		.4byte	.LLST119
 11566 391f 3B       		.uleb128 0x3b
 11567 3920 2D320000 		.4byte	.LASF793
 11568 3924 01       		.byte	0x1
 11569 3925 C305     		.2byte	0x5c3
 11570 3927 630F0000 		.4byte	0xf63
 11571 392b 03       		.uleb128 0x3
 11572 392c 91       		.byte	0x91
 11573 392d F47B     		.sleb128 -524
 11574 392f 3B       		.uleb128 0x3b
 11575 3930 B7180000 		.4byte	.LASF794
 11576 3934 01       		.byte	0x1
 11577 3935 C405     		.2byte	0x5c4
 11578 3937 C9000000 		.4byte	0xc9
 11579 393b 03       		.uleb128 0x3
 11580 393c 91       		.byte	0x91
 11581 393d D87D     		.sleb128 -296
 11582 393f 33       		.uleb128 0x33
 11583 3940 6C656E00 		.ascii	"len\000"
 11584 3944 01       		.byte	0x1
 11585 3945 C505     		.2byte	0x5c5
 11586 3947 B8000000 		.4byte	0xb8
 11587 394b 03       		.uleb128 0x3
 11588 394c 91       		.byte	0x91
 11589 394d D87B     		.sleb128 -552
 11590 394f 3B       		.uleb128 0x3b
 11591 3950 58140000 		.4byte	.LASF795
 11592 3954 01       		.byte	0x1
 11593 3955 C605     		.2byte	0x5c6
 11594 3957 97100000 		.4byte	0x1097
 11595 395b 03       		.uleb128 0x3
 11596 395c 91       		.byte	0x91
 11597 395d DC7B     		.sleb128 -548
 11598 395f 34       		.uleb128 0x34
 11599 3960 70747200 		.ascii	"ptr\000"
 11600 3964 01       		.byte	0x1
ARM GAS  C:\Users\AHMED~1.ELE\AppData\Local\Temp\ccAQ67OG.s 			page 245


 11601 3965 C705     		.2byte	0x5c7
 11602 3967 C3000000 		.4byte	0xc3
 11603 396b 97120000 		.4byte	.LLST120
 11604 396f 30       		.uleb128 0x30
 11605 3970 591D0000 		.4byte	.LASF796
 11606 3974 01       		.byte	0x1
 11607 3975 C705     		.2byte	0x5c7
 11608 3977 C3000000 		.4byte	0xc3
 11609 397b B5120000 		.4byte	.LLST121
 11610 397f 3F       		.uleb128 0x3f
 11611 3980 0B160000 		.4byte	0x160b
 11612 3984 30000000 		.4byte	.LBB53
 11613 3988 06000000 		.4byte	.LBE53-.LBB53
 11614 398c 01       		.byte	0x1
 11615 398d CF05     		.2byte	0x5cf
 11616 398f AC390000 		.4byte	0x39ac
 11617 3993 27       		.uleb128 0x27
 11618 3994 1C160000 		.4byte	0x161c
 11619 3998 D3120000 		.4byte	.LLST122
 11620 399c 25       		.uleb128 0x25
 11621 399d 36000000 		.4byte	.LVL434
 11622 39a1 3E1B0000 		.4byte	0x1b3e
 11623 39a5 24       		.uleb128 0x24
 11624 39a6 01       		.uleb128 0x1
 11625 39a7 50       		.byte	0x50
 11626 39a8 01       		.uleb128 0x1
 11627 39a9 30       		.byte	0x30
 11628 39aa 00       		.byte	0
 11629 39ab 00       		.byte	0
 11630 39ac 3F       		.uleb128 0x3f
 11631 39ad 0B160000 		.4byte	0x160b
 11632 39b1 E0000000 		.4byte	.LBB55
 11633 39b5 08000000 		.4byte	.LBE55-.LBB55
 11634 39b9 01       		.byte	0x1
 11635 39ba F105     		.2byte	0x5f1
 11636 39bc DA390000 		.4byte	0x39da
 11637 39c0 27       		.uleb128 0x27
 11638 39c1 1C160000 		.4byte	0x161c
 11639 39c5 E7120000 		.4byte	.LLST123
 11640 39c9 25       		.uleb128 0x25
 11641 39ca E6000000 		.4byte	.LVL449
 11642 39ce 3E1B0000 		.4byte	0x1b3e
 11643 39d2 24       		.uleb128 0x24
 11644 39d3 01       		.uleb128 0x1
 11645 39d4 50       		.byte	0x50
 11646 39d5 02       		.uleb128 0x2
 11647 39d6 74       		.byte	0x74
 11648 39d7 00       		.sleb128 0
 11649 39d8 00       		.byte	0
 11650 39d9 00       		.byte	0
 11651 39da 31       		.uleb128 0x31
 11652 39db 28000000 		.4byte	.LVL432
 11653 39df 27180000 		.4byte	0x1827
 11654 39e3 23       		.uleb128 0x23
 11655 39e4 4A000000 		.4byte	.LVL435
 11656 39e8 053F0000 		.4byte	0x3f05
 11657 39ec 033A0000 		.4byte	0x3a03
ARM GAS  C:\Users\AHMED~1.ELE\AppData\Local\Temp\ccAQ67OG.s 			page 246


 11658 39f0 24       		.uleb128 0x24
 11659 39f1 01       		.uleb128 0x1
 11660 39f2 51       		.byte	0x51
 11661 39f3 05       		.uleb128 0x5
 11662 39f4 03       		.byte	0x3
 11663 39f5 1A020000 		.4byte	.LC58
 11664 39f9 24       		.uleb128 0x24
 11665 39fa 01       		.uleb128 0x1
 11666 39fb 50       		.byte	0x50
 11667 39fc 05       		.uleb128 0x5
 11668 39fd 03       		.byte	0x3
 11669 39fe DD050000 		.4byte	.LANCHOR0+1501
 11670 3a02 00       		.byte	0
 11671 3a03 23       		.uleb128 0x23
 11672 3a04 52000000 		.4byte	.LVL436
 11673 3a08 A2150000 		.4byte	0x15a2
 11674 3a0c 1F3A0000 		.4byte	0x3a1f
 11675 3a10 24       		.uleb128 0x24
 11676 3a11 01       		.uleb128 0x1
 11677 3a12 51       		.byte	0x51
 11678 3a13 01       		.uleb128 0x1
 11679 3a14 32       		.byte	0x32
 11680 3a15 24       		.uleb128 0x24
 11681 3a16 01       		.uleb128 0x1
 11682 3a17 50       		.byte	0x50
 11683 3a18 05       		.uleb128 0x5
 11684 3a19 03       		.byte	0x3
 11685 3a1a DD050000 		.4byte	.LANCHOR0+1501
 11686 3a1e 00       		.byte	0
 11687 3a1f 23       		.uleb128 0x23
 11688 3a20 60000000 		.4byte	.LVL437
 11689 3a24 EB3E0000 		.4byte	0x3eeb
 11690 3a28 3F3A0000 		.4byte	0x3a3f
 11691 3a2c 24       		.uleb128 0x24
 11692 3a2d 01       		.uleb128 0x1
 11693 3a2e 51       		.byte	0x51
 11694 3a2f 05       		.uleb128 0x5
 11695 3a30 03       		.byte	0x3
 11696 3a31 27020000 		.4byte	.LC59
 11697 3a35 24       		.uleb128 0x24
 11698 3a36 01       		.uleb128 0x1
 11699 3a37 50       		.byte	0x50
 11700 3a38 05       		.uleb128 0x5
 11701 3a39 03       		.byte	0x3
 11702 3a3a 00000000 		.4byte	.LANCHOR0
 11703 3a3e 00       		.byte	0
 11704 3a3f 23       		.uleb128 0x23
 11705 3a40 7A000000 		.4byte	.LVL439
 11706 3a44 B03F0000 		.4byte	0x3fb0
 11707 3a48 583A0000 		.4byte	0x3a58
 11708 3a4c 24       		.uleb128 0x24
 11709 3a4d 01       		.uleb128 0x1
 11710 3a4e 51       		.byte	0x51
 11711 3a4f 01       		.uleb128 0x1
 11712 3a50 3A       		.byte	0x3a
 11713 3a51 24       		.uleb128 0x24
 11714 3a52 01       		.uleb128 0x1
ARM GAS  C:\Users\AHMED~1.ELE\AppData\Local\Temp\ccAQ67OG.s 			page 247


 11715 3a53 50       		.byte	0x50
 11716 3a54 02       		.uleb128 0x2
 11717 3a55 7B       		.byte	0x7b
 11718 3a56 00       		.sleb128 0
 11719 3a57 00       		.byte	0
 11720 3a58 23       		.uleb128 0x23
 11721 3a59 86000000 		.4byte	.LVL441
 11722 3a5d B93E0000 		.4byte	0x3eb9
 11723 3a61 6F3A0000 		.4byte	0x3a6f
 11724 3a65 24       		.uleb128 0x24
 11725 3a66 01       		.uleb128 0x1
 11726 3a67 50       		.byte	0x50
 11727 3a68 05       		.uleb128 0x5
 11728 3a69 03       		.byte	0x3
 11729 3a6a 00000000 		.4byte	.LANCHOR0
 11730 3a6e 00       		.byte	0
 11731 3a6f 23       		.uleb128 0x23
 11732 3a70 98000000 		.4byte	.LVL443
 11733 3a74 823E0000 		.4byte	0x3e82
 11734 3a78 833A0000 		.4byte	0x3a83
 11735 3a7c 24       		.uleb128 0x24
 11736 3a7d 01       		.uleb128 0x1
 11737 3a7e 51       		.byte	0x51
 11738 3a7f 02       		.uleb128 0x2
 11739 3a80 74       		.byte	0x74
 11740 3a81 00       		.sleb128 0
 11741 3a82 00       		.byte	0
 11742 3a83 23       		.uleb128 0x23
 11743 3a84 A8000000 		.4byte	.LVL444
 11744 3a88 443E0000 		.4byte	0x3e44
 11745 3a8c A73A0000 		.4byte	0x3aa7
 11746 3a90 24       		.uleb128 0x24
 11747 3a91 01       		.uleb128 0x1
 11748 3a92 53       		.byte	0x53
 11749 3a93 01       		.uleb128 0x1
 11750 3a94 35       		.byte	0x35
 11751 3a95 24       		.uleb128 0x24
 11752 3a96 01       		.uleb128 0x1
 11753 3a97 51       		.byte	0x51
 11754 3a98 01       		.uleb128 0x1
 11755 3a99 37       		.byte	0x37
 11756 3a9a 24       		.uleb128 0x24
 11757 3a9b 01       		.uleb128 0x1
 11758 3a9c 50       		.byte	0x50
 11759 3a9d 01       		.uleb128 0x1
 11760 3a9e 3F       		.byte	0x3f
 11761 3a9f 24       		.uleb128 0x24
 11762 3aa0 02       		.uleb128 0x2
 11763 3aa1 7D       		.byte	0x7d
 11764 3aa2 00       		.sleb128 0
 11765 3aa3 02       		.uleb128 0x2
 11766 3aa4 76       		.byte	0x76
 11767 3aa5 00       		.sleb128 0
 11768 3aa6 00       		.byte	0
 11769 3aa7 23       		.uleb128 0x23
 11770 3aa8 BE000000 		.4byte	.LVL445
 11771 3aac CE3E0000 		.4byte	0x3ece
ARM GAS  C:\Users\AHMED~1.ELE\AppData\Local\Temp\ccAQ67OG.s 			page 248


 11772 3ab0 C23A0000 		.4byte	0x3ac2
 11773 3ab4 24       		.uleb128 0x24
 11774 3ab5 01       		.uleb128 0x1
 11775 3ab6 51       		.byte	0x51
 11776 3ab7 03       		.uleb128 0x3
 11777 3ab8 91       		.byte	0x91
 11778 3ab9 B87C     		.sleb128 -456
 11779 3abb 24       		.uleb128 0x24
 11780 3abc 01       		.uleb128 0x1
 11781 3abd 50       		.byte	0x50
 11782 3abe 02       		.uleb128 0x2
 11783 3abf 77       		.byte	0x77
 11784 3ac0 3C       		.sleb128 60
 11785 3ac1 00       		.byte	0
 11786 3ac2 25       		.uleb128 0x25
 11787 3ac3 D0000000 		.4byte	.LVL446
 11788 3ac7 CE3E0000 		.4byte	0x3ece
 11789 3acb 24       		.uleb128 0x24
 11790 3acc 01       		.uleb128 0x1
 11791 3acd 52       		.byte	0x52
 11792 3ace 02       		.uleb128 0x2
 11793 3acf 08       		.byte	0x8
 11794 3ad0 3A       		.byte	0x3a
 11795 3ad1 24       		.uleb128 0x24
 11796 3ad2 01       		.uleb128 0x1
 11797 3ad3 51       		.byte	0x51
 11798 3ad4 0C       		.uleb128 0xc
 11799 3ad5 78       		.byte	0x78
 11800 3ad6 00       		.sleb128 0
 11801 3ad7 08       		.byte	0x8
 11802 3ad8 3C       		.byte	0x3c
 11803 3ad9 1E       		.byte	0x1e
 11804 3ada 75       		.byte	0x75
 11805 3adb 00       		.sleb128 0
 11806 3adc 22       		.byte	0x22
 11807 3add 23       		.byte	0x23
 11808 3ade 808901   		.uleb128 0x4480
 11809 3ae1 24       		.uleb128 0x24
 11810 3ae2 01       		.uleb128 0x1
 11811 3ae3 50       		.byte	0x50
 11812 3ae4 02       		.uleb128 0x2
 11813 3ae5 77       		.byte	0x77
 11814 3ae6 00       		.sleb128 0
 11815 3ae7 00       		.byte	0
 11816 3ae8 00       		.byte	0
 11817 3ae9 06       		.uleb128 0x6
 11818 3aea 04       		.byte	0x4
 11819 3aeb 5B140000 		.4byte	0x145b
 11820 3aef 2F       		.uleb128 0x2f
 11821 3af0 E01F0000 		.4byte	.LASF797
 11822 3af4 01       		.byte	0x1
 11823 3af5 FE05     		.2byte	0x5fe
 11824 3af7 97000000 		.4byte	0x97
 11825 3afb 00000000 		.4byte	.LFB40
 11826 3aff 84000000 		.4byte	.LFE40-.LFB40
 11827 3b03 01       		.uleb128 0x1
 11828 3b04 9C       		.byte	0x9c
ARM GAS  C:\Users\AHMED~1.ELE\AppData\Local\Temp\ccAQ67OG.s 			page 249


 11829 3b05 503C0000 		.4byte	0x3c50
 11830 3b09 32       		.uleb128 0x32
 11831 3b0a 25060000 		.4byte	.LASF798
 11832 3b0e 01       		.byte	0x1
 11833 3b0f FE05     		.2byte	0x5fe
 11834 3b11 B8000000 		.4byte	0xb8
 11835 3b15 FB120000 		.4byte	.LLST124
 11836 3b19 35       		.uleb128 0x35
 11837 3b1a 28000000 		.4byte	.LBB57
 11838 3b1e 32000000 		.4byte	.LBE57-.LBB57
 11839 3b22 C63B0000 		.4byte	0x3bc6
 11840 3b26 34       		.uleb128 0x34
 11841 3b27 6C656E00 		.ascii	"len\000"
 11842 3b2b 01       		.byte	0x1
 11843 3b2c 0B06     		.2byte	0x60b
 11844 3b2e B8000000 		.4byte	0xb8
 11845 3b32 40130000 		.4byte	.LLST125
 11846 3b36 34       		.uleb128 0x34
 11847 3b37 70747200 		.ascii	"ptr\000"
 11848 3b3b 01       		.byte	0x1
 11849 3b3c 0B06     		.2byte	0x60b
 11850 3b3e C3000000 		.4byte	0xc3
 11851 3b42 54130000 		.4byte	.LLST126
 11852 3b46 23       		.uleb128 0x23
 11853 3b47 30000000 		.4byte	.LVL460
 11854 3b4b 783F0000 		.4byte	0x3f78
 11855 3b4f 5F3B0000 		.4byte	0x3b5f
 11856 3b53 24       		.uleb128 0x24
 11857 3b54 01       		.uleb128 0x1
 11858 3b55 51       		.byte	0x51
 11859 3b56 01       		.uleb128 0x1
 11860 3b57 39       		.byte	0x39
 11861 3b58 24       		.uleb128 0x24
 11862 3b59 01       		.uleb128 0x1
 11863 3b5a 50       		.byte	0x50
 11864 3b5b 02       		.uleb128 0x2
 11865 3b5c 08       		.byte	0x8
 11866 3b5d 92       		.byte	0x92
 11867 3b5e 00       		.byte	0
 11868 3b5f 23       		.uleb128 0x23
 11869 3b60 3C000000 		.4byte	.LVL461
 11870 3b64 CE3E0000 		.4byte	0x3ece
 11871 3b68 813B0000 		.4byte	0x3b81
 11872 3b6c 24       		.uleb128 0x24
 11873 3b6d 01       		.uleb128 0x1
 11874 3b6e 52       		.byte	0x52
 11875 3b6f 01       		.uleb128 0x1
 11876 3b70 38       		.byte	0x38
 11877 3b71 24       		.uleb128 0x24
 11878 3b72 01       		.uleb128 0x1
 11879 3b73 51       		.byte	0x51
 11880 3b74 05       		.uleb128 0x5
 11881 3b75 03       		.byte	0x3
 11882 3b76 71020000 		.4byte	.LC66
 11883 3b7a 24       		.uleb128 0x24
 11884 3b7b 01       		.uleb128 0x1
 11885 3b7c 50       		.byte	0x50
ARM GAS  C:\Users\AHMED~1.ELE\AppData\Local\Temp\ccAQ67OG.s 			page 250


 11886 3b7d 02       		.uleb128 0x2
 11887 3b7e 75       		.byte	0x75
 11888 3b7f 00       		.sleb128 0
 11889 3b80 00       		.byte	0
 11890 3b81 23       		.uleb128 0x23
 11891 3b82 52000000 		.4byte	.LVL462
 11892 3b86 443E0000 		.4byte	0x3e44
 11893 3b8a AF3B0000 		.4byte	0x3baf
 11894 3b8e 24       		.uleb128 0x24
 11895 3b8f 01       		.uleb128 0x1
 11896 3b90 53       		.byte	0x53
 11897 3b91 03       		.uleb128 0x3
 11898 3b92 0A       		.byte	0xa
 11899 3b93 0008     		.2byte	0x800
 11900 3b95 24       		.uleb128 0x24
 11901 3b96 01       		.uleb128 0x1
 11902 3b97 52       		.byte	0x52
 11903 3b98 02       		.uleb128 0x2
 11904 3b99 75       		.byte	0x75
 11905 3b9a 00       		.sleb128 0
 11906 3b9b 24       		.uleb128 0x24
 11907 3b9c 01       		.uleb128 0x1
 11908 3b9d 51       		.byte	0x51
 11909 3b9e 02       		.uleb128 0x2
 11910 3b9f 08       		.byte	0x8
 11911 3ba0 25       		.byte	0x25
 11912 3ba1 24       		.uleb128 0x24
 11913 3ba2 01       		.uleb128 0x1
 11914 3ba3 50       		.byte	0x50
 11915 3ba4 01       		.uleb128 0x1
 11916 3ba5 3F       		.byte	0x3f
 11917 3ba6 24       		.uleb128 0x24
 11918 3ba7 02       		.uleb128 0x2
 11919 3ba8 7D       		.byte	0x7d
 11920 3ba9 00       		.sleb128 0
 11921 3baa 03       		.uleb128 0x3
 11922 3bab 0A       		.byte	0xa
 11923 3bac 0020     		.2byte	0x2000
 11924 3bae 00       		.byte	0
 11925 3baf 25       		.uleb128 0x25
 11926 3bb0 5A000000 		.4byte	.LVL463
 11927 3bb4 783F0000 		.4byte	0x3f78
 11928 3bb8 24       		.uleb128 0x24
 11929 3bb9 01       		.uleb128 0x1
 11930 3bba 51       		.byte	0x51
 11931 3bbb 02       		.uleb128 0x2
 11932 3bbc 75       		.byte	0x75
 11933 3bbd 00       		.sleb128 0
 11934 3bbe 24       		.uleb128 0x24
 11935 3bbf 01       		.uleb128 0x1
 11936 3bc0 50       		.byte	0x50
 11937 3bc1 02       		.uleb128 0x2
 11938 3bc2 08       		.byte	0x8
 11939 3bc3 94       		.byte	0x94
 11940 3bc4 00       		.byte	0
 11941 3bc5 00       		.byte	0
 11942 3bc6 23       		.uleb128 0x23
ARM GAS  C:\Users\AHMED~1.ELE\AppData\Local\Temp\ccAQ67OG.s 			page 251


 11943 3bc7 10000000 		.4byte	.LVL454
 11944 3bcb 053F0000 		.4byte	0x3f05
 11945 3bcf ED3B0000 		.4byte	0x3bed
 11946 3bd3 24       		.uleb128 0x24
 11947 3bd4 01       		.uleb128 0x1
 11948 3bd5 52       		.byte	0x52
 11949 3bd6 03       		.uleb128 0x3
 11950 3bd7 F3       		.byte	0xf3
 11951 3bd8 01       		.uleb128 0x1
 11952 3bd9 50       		.byte	0x50
 11953 3bda 24       		.uleb128 0x24
 11954 3bdb 01       		.uleb128 0x1
 11955 3bdc 51       		.byte	0x51
 11956 3bdd 05       		.uleb128 0x5
 11957 3bde 03       		.byte	0x3
 11958 3bdf 56020000 		.4byte	.LC64
 11959 3be3 24       		.uleb128 0x24
 11960 3be4 01       		.uleb128 0x1
 11961 3be5 50       		.byte	0x50
 11962 3be6 05       		.uleb128 0x5
 11963 3be7 03       		.byte	0x3
 11964 3be8 DD050000 		.4byte	.LANCHOR0+1501
 11965 3bec 00       		.byte	0
 11966 3bed 23       		.uleb128 0x23
 11967 3bee 18000000 		.4byte	.LVL456
 11968 3bf2 CA3F0000 		.4byte	0x3fca
 11969 3bf6 043C0000 		.4byte	0x3c04
 11970 3bfa 24       		.uleb128 0x24
 11971 3bfb 01       		.uleb128 0x1
 11972 3bfc 51       		.byte	0x51
 11973 3bfd 05       		.uleb128 0x5
 11974 3bfe 03       		.byte	0x3
 11975 3bff 63020000 		.4byte	.LC65
 11976 3c03 00       		.byte	0
 11977 3c04 31       		.uleb128 0x31
 11978 3c05 1C000000 		.4byte	.LVL457
 11979 3c09 27180000 		.4byte	0x1827
 11980 3c0d 23       		.uleb128 0x23
 11981 3c0e 24000000 		.4byte	.LVL458
 11982 3c12 A2150000 		.4byte	0x15a2
 11983 3c16 293C0000 		.4byte	0x3c29
 11984 3c1a 24       		.uleb128 0x24
 11985 3c1b 01       		.uleb128 0x1
 11986 3c1c 51       		.byte	0x51
 11987 3c1d 01       		.uleb128 0x1
 11988 3c1e 32       		.byte	0x32
 11989 3c1f 24       		.uleb128 0x24
 11990 3c20 01       		.uleb128 0x1
 11991 3c21 50       		.byte	0x50
 11992 3c22 05       		.uleb128 0x5
 11993 3c23 03       		.byte	0x3
 11994 3c24 DD050000 		.4byte	.LANCHOR0+1501
 11995 3c28 00       		.byte	0
 11996 3c29 25       		.uleb128 0x25
 11997 3c2a 6A000000 		.4byte	.LVL464
 11998 3c2e 443E0000 		.4byte	0x3e44
 11999 3c32 24       		.uleb128 0x24
ARM GAS  C:\Users\AHMED~1.ELE\AppData\Local\Temp\ccAQ67OG.s 			page 252


 12000 3c33 01       		.uleb128 0x1
 12001 3c34 53       		.byte	0x53
 12002 3c35 01       		.uleb128 0x1
 12003 3c36 30       		.byte	0x30
 12004 3c37 24       		.uleb128 0x24
 12005 3c38 01       		.uleb128 0x1
 12006 3c39 52       		.byte	0x52
 12007 3c3a 03       		.uleb128 0x3
 12008 3c3b 0A       		.byte	0xa
 12009 3c3c 2823     		.2byte	0x2328
 12010 3c3e 24       		.uleb128 0x24
 12011 3c3f 01       		.uleb128 0x1
 12012 3c40 51       		.byte	0x51
 12013 3c41 01       		.uleb128 0x1
 12014 3c42 33       		.byte	0x33
 12015 3c43 24       		.uleb128 0x24
 12016 3c44 01       		.uleb128 0x1
 12017 3c45 50       		.byte	0x50
 12018 3c46 01       		.uleb128 0x1
 12019 3c47 40       		.byte	0x40
 12020 3c48 24       		.uleb128 0x24
 12021 3c49 02       		.uleb128 0x2
 12022 3c4a 7D       		.byte	0x7d
 12023 3c4b 00       		.sleb128 0
 12024 3c4c 01       		.uleb128 0x1
 12025 3c4d 30       		.byte	0x30
 12026 3c4e 00       		.byte	0
 12027 3c4f 00       		.byte	0
 12028 3c50 2F       		.uleb128 0x2f
 12029 3c51 70280000 		.4byte	.LASF799
 12030 3c55 01       		.byte	0x1
 12031 3c56 1C06     		.2byte	0x61c
 12032 3c58 97000000 		.4byte	0x97
 12033 3c5c 00000000 		.4byte	.LFB41
 12034 3c60 B4000000 		.4byte	.LFE41-.LFB41
 12035 3c64 01       		.uleb128 0x1
 12036 3c65 9C       		.byte	0x9c
 12037 3c66 4D3D0000 		.4byte	0x3d4d
 12038 3c6a 32       		.uleb128 0x32
 12039 3c6b F5110000 		.4byte	.LASF800
 12040 3c6f 01       		.byte	0x1
 12041 3c70 1C06     		.2byte	0x61c
 12042 3c72 C3000000 		.4byte	0xc3
 12043 3c76 72130000 		.4byte	.LLST127
 12044 3c7a 32       		.uleb128 0x32
 12045 3c7b 99140000 		.4byte	.LASF791
 12046 3c7f 01       		.byte	0x1
 12047 3c80 1C06     		.2byte	0x61c
 12048 3c82 C3000000 		.4byte	0xc3
 12049 3c86 9E130000 		.4byte	.LLST128
 12050 3c8a 32       		.uleb128 0x32
 12051 3c8b 8B270000 		.4byte	.LASF740
 12052 3c8f 01       		.byte	0x1
 12053 3c90 1C06     		.2byte	0x61c
 12054 3c92 B8000000 		.4byte	0xb8
 12055 3c96 CA130000 		.4byte	.LLST129
 12056 3c9a 3B       		.uleb128 0x3b
ARM GAS  C:\Users\AHMED~1.ELE\AppData\Local\Temp\ccAQ67OG.s 			page 253


 12057 3c9b 2D320000 		.4byte	.LASF793
 12058 3c9f 01       		.byte	0x1
 12059 3ca0 1E06     		.2byte	0x61e
 12060 3ca2 630F0000 		.4byte	0xf63
 12061 3ca6 03       		.uleb128 0x3
 12062 3ca7 91       		.byte	0x91
 12063 3ca8 FC7B     		.sleb128 -516
 12064 3caa 3B       		.uleb128 0x3b
 12065 3cab B7180000 		.4byte	.LASF794
 12066 3caf 01       		.byte	0x1
 12067 3cb0 1F06     		.2byte	0x61f
 12068 3cb2 C9000000 		.4byte	0xc9
 12069 3cb6 03       		.uleb128 0x3
 12070 3cb7 91       		.byte	0x91
 12071 3cb8 E07D     		.sleb128 -288
 12072 3cba 33       		.uleb128 0x33
 12073 3cbb 6C656E00 		.ascii	"len\000"
 12074 3cbf 01       		.byte	0x1
 12075 3cc0 2006     		.2byte	0x620
 12076 3cc2 B8000000 		.4byte	0xb8
 12077 3cc6 03       		.uleb128 0x3
 12078 3cc7 91       		.byte	0x91
 12079 3cc8 E07B     		.sleb128 -544
 12080 3cca 3B       		.uleb128 0x3b
 12081 3ccb 58140000 		.4byte	.LASF795
 12082 3ccf 01       		.byte	0x1
 12083 3cd0 2106     		.2byte	0x621
 12084 3cd2 97100000 		.4byte	0x1097
 12085 3cd6 03       		.uleb128 0x3
 12086 3cd7 91       		.byte	0x91
 12087 3cd8 E47B     		.sleb128 -540
 12088 3cda 23       		.uleb128 0x23
 12089 3cdb 28000000 		.4byte	.LVL467
 12090 3cdf B93E0000 		.4byte	0x3eb9
 12091 3ce3 EE3C0000 		.4byte	0x3cee
 12092 3ce7 24       		.uleb128 0x24
 12093 3ce8 01       		.uleb128 0x1
 12094 3ce9 50       		.byte	0x50
 12095 3cea 02       		.uleb128 0x2
 12096 3ceb 79       		.byte	0x79
 12097 3cec 00       		.sleb128 0
 12098 3ced 00       		.byte	0
 12099 3cee 23       		.uleb128 0x23
 12100 3cef 5A000000 		.4byte	.LVL468
 12101 3cf3 B93E0000 		.4byte	0x3eb9
 12102 3cf7 023D0000 		.4byte	0x3d02
 12103 3cfb 24       		.uleb128 0x24
 12104 3cfc 01       		.uleb128 0x1
 12105 3cfd 50       		.byte	0x50
 12106 3cfe 02       		.uleb128 0x2
 12107 3cff 79       		.byte	0x79
 12108 3d00 00       		.sleb128 0
 12109 3d01 00       		.byte	0
 12110 3d02 31       		.uleb128 0x31
 12111 3d03 80000000 		.4byte	.LVL469
 12112 3d07 CE3E0000 		.4byte	0x3ece
 12113 3d0b 23       		.uleb128 0x23
ARM GAS  C:\Users\AHMED~1.ELE\AppData\Local\Temp\ccAQ67OG.s 			page 254


 12114 3d0c 8E000000 		.4byte	.LVL470
 12115 3d10 CE3E0000 		.4byte	0x3ece
 12116 3d14 2C3D0000 		.4byte	0x3d2c
 12117 3d18 24       		.uleb128 0x24
 12118 3d19 01       		.uleb128 0x1
 12119 3d1a 52       		.byte	0x52
 12120 3d1b 02       		.uleb128 0x2
 12121 3d1c 77       		.byte	0x77
 12122 3d1d 00       		.sleb128 0
 12123 3d1e 24       		.uleb128 0x24
 12124 3d1f 01       		.uleb128 0x1
 12125 3d20 51       		.byte	0x51
 12126 3d21 02       		.uleb128 0x2
 12127 3d22 78       		.byte	0x78
 12128 3d23 00       		.sleb128 0
 12129 3d24 24       		.uleb128 0x24
 12130 3d25 01       		.uleb128 0x1
 12131 3d26 50       		.byte	0x50
 12132 3d27 03       		.uleb128 0x3
 12133 3d28 91       		.byte	0x91
 12134 3d29 C07C     		.sleb128 -448
 12135 3d2b 00       		.byte	0
 12136 3d2c 25       		.uleb128 0x25
 12137 3d2d 9E000000 		.4byte	.LVL471
 12138 3d31 443E0000 		.4byte	0x3e44
 12139 3d35 24       		.uleb128 0x24
 12140 3d36 01       		.uleb128 0x1
 12141 3d37 53       		.byte	0x53
 12142 3d38 01       		.uleb128 0x1
 12143 3d39 37       		.byte	0x37
 12144 3d3a 24       		.uleb128 0x24
 12145 3d3b 01       		.uleb128 0x1
 12146 3d3c 51       		.byte	0x51
 12147 3d3d 01       		.uleb128 0x1
 12148 3d3e 37       		.byte	0x37
 12149 3d3f 24       		.uleb128 0x24
 12150 3d40 01       		.uleb128 0x1
 12151 3d41 50       		.byte	0x50
 12152 3d42 01       		.uleb128 0x1
 12153 3d43 3F       		.byte	0x3f
 12154 3d44 24       		.uleb128 0x24
 12155 3d45 02       		.uleb128 0x2
 12156 3d46 7D       		.byte	0x7d
 12157 3d47 00       		.sleb128 0
 12158 3d48 02       		.uleb128 0x2
 12159 3d49 76       		.byte	0x76
 12160 3d4a 00       		.sleb128 0
 12161 3d4b 00       		.byte	0
 12162 3d4c 00       		.byte	0
 12163 3d4d 2F       		.uleb128 0x2f
 12164 3d4e AE240000 		.4byte	.LASF801
 12165 3d52 01       		.byte	0x1
 12166 3d53 5106     		.2byte	0x651
 12167 3d55 97000000 		.4byte	0x97
 12168 3d59 00000000 		.4byte	.LFB42
 12169 3d5d 38000000 		.4byte	.LFE42-.LFB42
 12170 3d61 01       		.uleb128 0x1
ARM GAS  C:\Users\AHMED~1.ELE\AppData\Local\Temp\ccAQ67OG.s 			page 255


 12171 3d62 9C       		.byte	0x9c
 12172 3d63 CF3D0000 		.4byte	0x3dcf
 12173 3d67 3F       		.uleb128 0x3f
 12174 3d68 0B160000 		.4byte	0x160b
 12175 3d6c 20000000 		.4byte	.LBB60
 12176 3d70 06000000 		.4byte	.LBE60-.LBB60
 12177 3d74 01       		.byte	0x1
 12178 3d75 5A06     		.2byte	0x65a
 12179 3d77 923D0000 		.4byte	0x3d92
 12180 3d7b 40       		.uleb128 0x40
 12181 3d7c 1C160000 		.4byte	0x161c
 12182 3d80 00       		.byte	0
 12183 3d81 25       		.uleb128 0x25
 12184 3d82 26000000 		.4byte	.LVL475
 12185 3d86 3E1B0000 		.4byte	0x1b3e
 12186 3d8a 24       		.uleb128 0x24
 12187 3d8b 01       		.uleb128 0x1
 12188 3d8c 50       		.byte	0x50
 12189 3d8d 02       		.uleb128 0x2
 12190 3d8e 74       		.byte	0x74
 12191 3d8f 00       		.sleb128 0
 12192 3d90 00       		.byte	0
 12193 3d91 00       		.byte	0
 12194 3d92 23       		.uleb128 0x23
 12195 3d93 14000000 		.4byte	.LVL473
 12196 3d97 443E0000 		.4byte	0x3e44
 12197 3d9b B63D0000 		.4byte	0x3db6
 12198 3d9f 24       		.uleb128 0x24
 12199 3da0 01       		.uleb128 0x1
 12200 3da1 53       		.byte	0x53
 12201 3da2 01       		.uleb128 0x1
 12202 3da3 3A       		.byte	0x3a
 12203 3da4 24       		.uleb128 0x24
 12204 3da5 01       		.uleb128 0x1
 12205 3da6 51       		.byte	0x51
 12206 3da7 01       		.uleb128 0x1
 12207 3da8 37       		.byte	0x37
 12208 3da9 24       		.uleb128 0x24
 12209 3daa 01       		.uleb128 0x1
 12210 3dab 50       		.byte	0x50
 12211 3dac 01       		.uleb128 0x1
 12212 3dad 3F       		.byte	0x3f
 12213 3dae 24       		.uleb128 0x24
 12214 3daf 02       		.uleb128 0x2
 12215 3db0 7D       		.byte	0x7d
 12216 3db1 00       		.sleb128 0
 12217 3db2 02       		.uleb128 0x2
 12218 3db3 74       		.byte	0x74
 12219 3db4 00       		.sleb128 0
 12220 3db5 00       		.byte	0
 12221 3db6 25       		.uleb128 0x25
 12222 3db7 20000000 		.4byte	.LVL474
 12223 3dbb E3160000 		.4byte	0x16e3
 12224 3dbf 24       		.uleb128 0x24
 12225 3dc0 01       		.uleb128 0x1
 12226 3dc1 51       		.byte	0x51
 12227 3dc2 01       		.uleb128 0x1
ARM GAS  C:\Users\AHMED~1.ELE\AppData\Local\Temp\ccAQ67OG.s 			page 256


 12228 3dc3 44       		.byte	0x44
 12229 3dc4 24       		.uleb128 0x24
 12230 3dc5 01       		.uleb128 0x1
 12231 3dc6 50       		.byte	0x50
 12232 3dc7 05       		.uleb128 0x5
 12233 3dc8 03       		.byte	0x3
 12234 3dc9 04000000 		.4byte	gGSMData+4
 12235 3dcd 00       		.byte	0
 12236 3dce 00       		.byte	0
 12237 3dcf 08       		.uleb128 0x8
 12238 3dd0 8C000000 		.4byte	0x8c
 12239 3dd4 DF3D0000 		.4byte	0x3ddf
 12240 3dd8 09       		.uleb128 0x9
 12241 3dd9 78000000 		.4byte	0x78
 12242 3ddd 03       		.byte	0x3
 12243 3dde 00       		.byte	0
 12244 3ddf 22       		.uleb128 0x22
 12245 3de0 34050000 		.4byte	.LASF802
 12246 3de4 01       		.byte	0x1
 12247 3de5 47       		.byte	0x47
 12248 3de6 F03D0000 		.4byte	0x3df0
 12249 3dea 05       		.uleb128 0x5
 12250 3deb 03       		.byte	0x3
 12251 3dec 0C000000 		.4byte	KBookID
 12252 3df0 07       		.uleb128 0x7
 12253 3df1 CF3D0000 		.4byte	0x3dcf
 12254 3df5 08       		.uleb128 0x8
 12255 3df6 85000000 		.4byte	0x85
 12256 3dfa 063E0000 		.4byte	0x3e06
 12257 3dfe 11       		.uleb128 0x11
 12258 3dff 78000000 		.4byte	0x78
 12259 3e03 DC05     		.2byte	0x5dc
 12260 3e05 00       		.byte	0
 12261 3e06 22       		.uleb128 0x22
 12262 3e07 78320000 		.4byte	.LASF803
 12263 3e0b 01       		.byte	0x1
 12264 3e0c 4E       		.byte	0x4e
 12265 3e0d F53D0000 		.4byte	0x3df5
 12266 3e11 05       		.uleb128 0x5
 12267 3e12 03       		.byte	0x3
 12268 3e13 DD050000 		.4byte	gAtCmdIn
 12269 3e17 22       		.uleb128 0x22
 12270 3e18 D0200000 		.4byte	.LASF804
 12271 3e1c 01       		.byte	0x1
 12272 3e1d 4F       		.byte	0x4f
 12273 3e1e F53D0000 		.4byte	0x3df5
 12274 3e22 05       		.uleb128 0x5
 12275 3e23 03       		.byte	0x3
 12276 3e24 00000000 		.4byte	gAtCmdOut
 12277 3e28 41       		.uleb128 0x41
 12278 3e29 08010000 		.4byte	.LASF805
 12279 3e2d 08       		.byte	0x8
 12280 3e2e 43       		.byte	0x43
 12281 3e2f 5D000000 		.4byte	0x5d
 12282 3e33 42       		.uleb128 0x42
 12283 3e34 640D0000 		.4byte	.LASF806
 12284 3e38 01       		.byte	0x1
ARM GAS  C:\Users\AHMED~1.ELE\AppData\Local\Temp\ccAQ67OG.s 			page 257


 12285 3e39 51       		.byte	0x51
 12286 3e3a B4140000 		.4byte	0x14b4
 12287 3e3e 05       		.uleb128 0x5
 12288 3e3f 03       		.byte	0x3
 12289 3e40 00000000 		.4byte	gGSMData
 12290 3e44 43       		.uleb128 0x43
 12291 3e45 4F0C0000 		.4byte	.LASF807
 12292 3e49 04       		.byte	0x4
 12293 3e4a A0       		.byte	0xa0
 12294 3e4b B8000000 		.4byte	0xb8
 12295 3e4f 6D3E0000 		.4byte	0x3e6d
 12296 3e53 44       		.uleb128 0x44
 12297 3e54 B8000000 		.4byte	0xb8
 12298 3e58 44       		.uleb128 0x44
 12299 3e59 B8000000 		.4byte	0xb8
 12300 3e5d 44       		.uleb128 0x44
 12301 3e5e B8000000 		.4byte	0xb8
 12302 3e62 44       		.uleb128 0x44
 12303 3e63 B8000000 		.4byte	0xb8
 12304 3e67 44       		.uleb128 0x44
 12305 3e68 B8000000 		.4byte	0xb8
 12306 3e6c 00       		.byte	0
 12307 3e6d 43       		.uleb128 0x43
 12308 3e6e 901D0000 		.4byte	.LASF808
 12309 3e72 04       		.byte	0x4
 12310 3e73 A1       		.byte	0xa1
 12311 3e74 B8000000 		.4byte	0xb8
 12312 3e78 823E0000 		.4byte	0x3e82
 12313 3e7c 44       		.uleb128 0x44
 12314 3e7d B8000000 		.4byte	0xb8
 12315 3e81 00       		.byte	0
 12316 3e82 43       		.uleb128 0x43
 12317 3e83 FA150000 		.4byte	.LASF809
 12318 3e87 09       		.byte	0x9
 12319 3e88 1E       		.byte	0x1e
 12320 3e89 7F000000 		.4byte	0x7f
 12321 3e8d 9C3E0000 		.4byte	0x3e9c
 12322 3e91 44       		.uleb128 0x44
 12323 3e92 7F000000 		.4byte	0x7f
 12324 3e96 44       		.uleb128 0x44
 12325 3e97 8C000000 		.4byte	0x8c
 12326 3e9b 00       		.byte	0
 12327 3e9c 45       		.uleb128 0x45
 12328 3e9d 84270000 		.4byte	.LASF811
 12329 3ea1 76000000 		.4byte	0x76
 12330 3ea5 B93E0000 		.4byte	0x3eb9
 12331 3ea9 44       		.uleb128 0x44
 12332 3eaa 76000000 		.4byte	0x76
 12333 3eae 44       		.uleb128 0x44
 12334 3eaf 5D000000 		.4byte	0x5d
 12335 3eb3 44       		.uleb128 0x44
 12336 3eb4 78000000 		.4byte	0x78
 12337 3eb8 00       		.byte	0
 12338 3eb9 43       		.uleb128 0x43
 12339 3eba BB2D0000 		.4byte	.LASF810
 12340 3ebe 09       		.byte	0x9
 12341 3ebf 21       		.byte	0x21
ARM GAS  C:\Users\AHMED~1.ELE\AppData\Local\Temp\ccAQ67OG.s 			page 258


 12342 3ec0 6B000000 		.4byte	0x6b
 12343 3ec4 CE3E0000 		.4byte	0x3ece
 12344 3ec8 44       		.uleb128 0x44
 12345 3ec9 8C000000 		.4byte	0x8c
 12346 3ecd 00       		.byte	0
 12347 3ece 45       		.uleb128 0x45
 12348 3ecf 432E0000 		.4byte	.LASF812
 12349 3ed3 76000000 		.4byte	0x76
 12350 3ed7 EB3E0000 		.4byte	0x3eeb
 12351 3edb 44       		.uleb128 0x44
 12352 3edc 76000000 		.4byte	0x76
 12353 3ee0 44       		.uleb128 0x44
 12354 3ee1 DE0E0000 		.4byte	0xede
 12355 3ee5 44       		.uleb128 0x44
 12356 3ee6 78000000 		.4byte	0x78
 12357 3eea 00       		.byte	0
 12358 3eeb 43       		.uleb128 0x43
 12359 3eec 09290000 		.4byte	.LASF813
 12360 3ef0 09       		.byte	0x9
 12361 3ef1 28       		.byte	0x28
 12362 3ef2 7F000000 		.4byte	0x7f
 12363 3ef6 053F0000 		.4byte	0x3f05
 12364 3efa 44       		.uleb128 0x44
 12365 3efb 8C000000 		.4byte	0x8c
 12366 3eff 44       		.uleb128 0x44
 12367 3f00 8C000000 		.4byte	0x8c
 12368 3f04 00       		.byte	0
 12369 3f05 43       		.uleb128 0x43
 12370 3f06 4A180000 		.4byte	.LASF814
 12371 3f0a 0A       		.byte	0xa
 12372 3f0b DD       		.byte	0xdd
 12373 3f0c 5D000000 		.4byte	0x5d
 12374 3f10 203F0000 		.4byte	0x3f20
 12375 3f14 44       		.uleb128 0x44
 12376 3f15 7F000000 		.4byte	0x7f
 12377 3f19 44       		.uleb128 0x44
 12378 3f1a 8C000000 		.4byte	0x8c
 12379 3f1e 46       		.uleb128 0x46
 12380 3f1f 00       		.byte	0
 12381 3f20 43       		.uleb128 0x43
 12382 3f21 45260000 		.4byte	.LASF815
 12383 3f25 0B       		.byte	0xb
 12384 3f26 24       		.byte	0x24
 12385 3f27 B8000000 		.4byte	0xb8
 12386 3f2b 3F3F0000 		.4byte	0x3f3f
 12387 3f2f 44       		.uleb128 0x44
 12388 3f30 C3000000 		.4byte	0xc3
 12389 3f34 44       		.uleb128 0x44
 12390 3f35 B8000000 		.4byte	0xb8
 12391 3f39 44       		.uleb128 0x44
 12392 3f3a B8000000 		.4byte	0xb8
 12393 3f3e 00       		.byte	0
 12394 3f3f 43       		.uleb128 0x43
 12395 3f40 10290000 		.4byte	.LASF816
 12396 3f44 09       		.byte	0x9
 12397 3f45 16       		.byte	0x16
 12398 3f46 5D000000 		.4byte	0x5d
ARM GAS  C:\Users\AHMED~1.ELE\AppData\Local\Temp\ccAQ67OG.s 			page 259


 12399 3f4a 5E3F0000 		.4byte	0x3f5e
 12400 3f4e 44       		.uleb128 0x44
 12401 3f4f DE0E0000 		.4byte	0xede
 12402 3f53 44       		.uleb128 0x44
 12403 3f54 DE0E0000 		.4byte	0xede
 12404 3f58 44       		.uleb128 0x44
 12405 3f59 6B000000 		.4byte	0x6b
 12406 3f5d 00       		.byte	0
 12407 3f5e 43       		.uleb128 0x43
 12408 3f5f CE300000 		.4byte	.LASF817
 12409 3f63 09       		.byte	0x9
 12410 3f64 1A       		.byte	0x1a
 12411 3f65 7F000000 		.4byte	0x7f
 12412 3f69 783F0000 		.4byte	0x3f78
 12413 3f6d 44       		.uleb128 0x44
 12414 3f6e 7F000000 		.4byte	0x7f
 12415 3f72 44       		.uleb128 0x44
 12416 3f73 8C000000 		.4byte	0x8c
 12417 3f77 00       		.byte	0
 12418 3f78 43       		.uleb128 0x43
 12419 3f79 9A1D0000 		.4byte	.LASF818
 12420 3f7d 04       		.byte	0x4
 12421 3f7e A2       		.byte	0xa2
 12422 3f7f B8000000 		.4byte	0xb8
 12423 3f83 923F0000 		.4byte	0x3f92
 12424 3f87 44       		.uleb128 0x44
 12425 3f88 B8000000 		.4byte	0xb8
 12426 3f8c 44       		.uleb128 0x44
 12427 3f8d B8000000 		.4byte	0xb8
 12428 3f91 00       		.byte	0
 12429 3f92 47       		.uleb128 0x47
 12430 3f93 7C1E0000 		.4byte	.LASF826
 12431 3f97 0C       		.byte	0xc
 12432 3f98 00       		.byte	0
 12433 3f99 60080000 		.4byte	.LASF819
 12434 3f9d 7F000000 		.4byte	0x7f
 12435 3fa1 B03F0000 		.4byte	0x3fb0
 12436 3fa5 44       		.uleb128 0x44
 12437 3fa6 8C000000 		.4byte	0x8c
 12438 3faa 44       		.uleb128 0x44
 12439 3fab 5D000000 		.4byte	0x5d
 12440 3faf 00       		.byte	0
 12441 3fb0 43       		.uleb128 0x43
 12442 3fb1 60080000 		.4byte	.LASF819
 12443 3fb5 09       		.byte	0x9
 12444 3fb6 1B       		.byte	0x1b
 12445 3fb7 7F000000 		.4byte	0x7f
 12446 3fbb CA3F0000 		.4byte	0x3fca
 12447 3fbf 44       		.uleb128 0x44
 12448 3fc0 8C000000 		.4byte	0x8c
 12449 3fc4 44       		.uleb128 0x44
 12450 3fc5 5D000000 		.4byte	0x5d
 12451 3fc9 00       		.byte	0
 12452 3fca 48       		.uleb128 0x48
 12453 3fcb DC2B0000 		.4byte	.LASF820
 12454 3fcf 0C       		.byte	0xc
 12455 3fd0 00       		.byte	0
ARM GAS  C:\Users\AHMED~1.ELE\AppData\Local\Temp\ccAQ67OG.s 			page 260


 12456 3fd1 FA150000 		.4byte	.LASF809
 12457 3fd5 7F000000 		.4byte	0x7f
 12458 3fd9 44       		.uleb128 0x44
 12459 3fda 7F000000 		.4byte	0x7f
 12460 3fde 44       		.uleb128 0x44
 12461 3fdf 8C000000 		.4byte	0x8c
 12462 3fe3 00       		.byte	0
 12463 3fe4 00       		.byte	0
 12464              		.section	.debug_abbrev,"",%progbits
 12465              	.Ldebug_abbrev0:
 12466 0000 01       		.uleb128 0x1
 12467 0001 11       		.uleb128 0x11
 12468 0002 01       		.byte	0x1
 12469 0003 25       		.uleb128 0x25
 12470 0004 0E       		.uleb128 0xe
 12471 0005 13       		.uleb128 0x13
 12472 0006 0B       		.uleb128 0xb
 12473 0007 03       		.uleb128 0x3
 12474 0008 0E       		.uleb128 0xe
 12475 0009 1B       		.uleb128 0x1b
 12476 000a 0E       		.uleb128 0xe
 12477 000b 55       		.uleb128 0x55
 12478 000c 17       		.uleb128 0x17
 12479 000d 11       		.uleb128 0x11
 12480 000e 01       		.uleb128 0x1
 12481 000f 10       		.uleb128 0x10
 12482 0010 17       		.uleb128 0x17
 12483 0011 00       		.byte	0
 12484 0012 00       		.byte	0
 12485 0013 02       		.uleb128 0x2
 12486 0014 24       		.uleb128 0x24
 12487 0015 00       		.byte	0
 12488 0016 0B       		.uleb128 0xb
 12489 0017 0B       		.uleb128 0xb
 12490 0018 3E       		.uleb128 0x3e
 12491 0019 0B       		.uleb128 0xb
 12492 001a 03       		.uleb128 0x3
 12493 001b 0E       		.uleb128 0xe
 12494 001c 00       		.byte	0
 12495 001d 00       		.byte	0
 12496 001e 03       		.uleb128 0x3
 12497 001f 24       		.uleb128 0x24
 12498 0020 00       		.byte	0
 12499 0021 0B       		.uleb128 0xb
 12500 0022 0B       		.uleb128 0xb
 12501 0023 3E       		.uleb128 0x3e
 12502 0024 0B       		.uleb128 0xb
 12503 0025 03       		.uleb128 0x3
 12504 0026 08       		.uleb128 0x8
 12505 0027 00       		.byte	0
 12506 0028 00       		.byte	0
 12507 0029 04       		.uleb128 0x4
 12508 002a 16       		.uleb128 0x16
 12509 002b 00       		.byte	0
 12510 002c 03       		.uleb128 0x3
 12511 002d 0E       		.uleb128 0xe
 12512 002e 3A       		.uleb128 0x3a
ARM GAS  C:\Users\AHMED~1.ELE\AppData\Local\Temp\ccAQ67OG.s 			page 261


 12513 002f 0B       		.uleb128 0xb
 12514 0030 3B       		.uleb128 0x3b
 12515 0031 0B       		.uleb128 0xb
 12516 0032 49       		.uleb128 0x49
 12517 0033 13       		.uleb128 0x13
 12518 0034 00       		.byte	0
 12519 0035 00       		.byte	0
 12520 0036 05       		.uleb128 0x5
 12521 0037 0F       		.uleb128 0xf
 12522 0038 00       		.byte	0
 12523 0039 0B       		.uleb128 0xb
 12524 003a 0B       		.uleb128 0xb
 12525 003b 00       		.byte	0
 12526 003c 00       		.byte	0
 12527 003d 06       		.uleb128 0x6
 12528 003e 0F       		.uleb128 0xf
 12529 003f 00       		.byte	0
 12530 0040 0B       		.uleb128 0xb
 12531 0041 0B       		.uleb128 0xb
 12532 0042 49       		.uleb128 0x49
 12533 0043 13       		.uleb128 0x13
 12534 0044 00       		.byte	0
 12535 0045 00       		.byte	0
 12536 0046 07       		.uleb128 0x7
 12537 0047 26       		.uleb128 0x26
 12538 0048 00       		.byte	0
 12539 0049 49       		.uleb128 0x49
 12540 004a 13       		.uleb128 0x13
 12541 004b 00       		.byte	0
 12542 004c 00       		.byte	0
 12543 004d 08       		.uleb128 0x8
 12544 004e 01       		.uleb128 0x1
 12545 004f 01       		.byte	0x1
 12546 0050 49       		.uleb128 0x49
 12547 0051 13       		.uleb128 0x13
 12548 0052 01       		.uleb128 0x1
 12549 0053 13       		.uleb128 0x13
 12550 0054 00       		.byte	0
 12551 0055 00       		.byte	0
 12552 0056 09       		.uleb128 0x9
 12553 0057 21       		.uleb128 0x21
 12554 0058 00       		.byte	0
 12555 0059 49       		.uleb128 0x49
 12556 005a 13       		.uleb128 0x13
 12557 005b 2F       		.uleb128 0x2f
 12558 005c 0B       		.uleb128 0xb
 12559 005d 00       		.byte	0
 12560 005e 00       		.byte	0
 12561 005f 0A       		.uleb128 0xa
 12562 0060 04       		.uleb128 0x4
 12563 0061 01       		.byte	0x1
 12564 0062 03       		.uleb128 0x3
 12565 0063 0E       		.uleb128 0xe
 12566 0064 0B       		.uleb128 0xb
 12567 0065 0B       		.uleb128 0xb
 12568 0066 3A       		.uleb128 0x3a
 12569 0067 0B       		.uleb128 0xb
ARM GAS  C:\Users\AHMED~1.ELE\AppData\Local\Temp\ccAQ67OG.s 			page 262


 12570 0068 3B       		.uleb128 0x3b
 12571 0069 05       		.uleb128 0x5
 12572 006a 01       		.uleb128 0x1
 12573 006b 13       		.uleb128 0x13
 12574 006c 00       		.byte	0
 12575 006d 00       		.byte	0
 12576 006e 0B       		.uleb128 0xb
 12577 006f 28       		.uleb128 0x28
 12578 0070 00       		.byte	0
 12579 0071 03       		.uleb128 0x3
 12580 0072 0E       		.uleb128 0xe
 12581 0073 1C       		.uleb128 0x1c
 12582 0074 0D       		.uleb128 0xd
 12583 0075 00       		.byte	0
 12584 0076 00       		.byte	0
 12585 0077 0C       		.uleb128 0xc
 12586 0078 26       		.uleb128 0x26
 12587 0079 00       		.byte	0
 12588 007a 00       		.byte	0
 12589 007b 00       		.byte	0
 12590 007c 0D       		.uleb128 0xd
 12591 007d 04       		.uleb128 0x4
 12592 007e 01       		.byte	0x1
 12593 007f 0B       		.uleb128 0xb
 12594 0080 0B       		.uleb128 0xb
 12595 0081 3A       		.uleb128 0x3a
 12596 0082 0B       		.uleb128 0xb
 12597 0083 3B       		.uleb128 0x3b
 12598 0084 05       		.uleb128 0x5
 12599 0085 01       		.uleb128 0x1
 12600 0086 13       		.uleb128 0x13
 12601 0087 00       		.byte	0
 12602 0088 00       		.byte	0
 12603 0089 0E       		.uleb128 0xe
 12604 008a 13       		.uleb128 0x13
 12605 008b 01       		.byte	0x1
 12606 008c 03       		.uleb128 0x3
 12607 008d 0E       		.uleb128 0xe
 12608 008e 0B       		.uleb128 0xb
 12609 008f 0B       		.uleb128 0xb
 12610 0090 3A       		.uleb128 0x3a
 12611 0091 0B       		.uleb128 0xb
 12612 0092 3B       		.uleb128 0x3b
 12613 0093 05       		.uleb128 0x5
 12614 0094 01       		.uleb128 0x1
 12615 0095 13       		.uleb128 0x13
 12616 0096 00       		.byte	0
 12617 0097 00       		.byte	0
 12618 0098 0F       		.uleb128 0xf
 12619 0099 0D       		.uleb128 0xd
 12620 009a 00       		.byte	0
 12621 009b 03       		.uleb128 0x3
 12622 009c 0E       		.uleb128 0xe
 12623 009d 3A       		.uleb128 0x3a
 12624 009e 0B       		.uleb128 0xb
 12625 009f 3B       		.uleb128 0x3b
 12626 00a0 05       		.uleb128 0x5
ARM GAS  C:\Users\AHMED~1.ELE\AppData\Local\Temp\ccAQ67OG.s 			page 263


 12627 00a1 49       		.uleb128 0x49
 12628 00a2 13       		.uleb128 0x13
 12629 00a3 38       		.uleb128 0x38
 12630 00a4 0B       		.uleb128 0xb
 12631 00a5 00       		.byte	0
 12632 00a6 00       		.byte	0
 12633 00a7 10       		.uleb128 0x10
 12634 00a8 13       		.uleb128 0x13
 12635 00a9 01       		.byte	0x1
 12636 00aa 03       		.uleb128 0x3
 12637 00ab 0E       		.uleb128 0xe
 12638 00ac 0B       		.uleb128 0xb
 12639 00ad 05       		.uleb128 0x5
 12640 00ae 3A       		.uleb128 0x3a
 12641 00af 0B       		.uleb128 0xb
 12642 00b0 3B       		.uleb128 0x3b
 12643 00b1 05       		.uleb128 0x5
 12644 00b2 01       		.uleb128 0x1
 12645 00b3 13       		.uleb128 0x13
 12646 00b4 00       		.byte	0
 12647 00b5 00       		.byte	0
 12648 00b6 11       		.uleb128 0x11
 12649 00b7 21       		.uleb128 0x21
 12650 00b8 00       		.byte	0
 12651 00b9 49       		.uleb128 0x49
 12652 00ba 13       		.uleb128 0x13
 12653 00bb 2F       		.uleb128 0x2f
 12654 00bc 05       		.uleb128 0x5
 12655 00bd 00       		.byte	0
 12656 00be 00       		.byte	0
 12657 00bf 12       		.uleb128 0x12
 12658 00c0 04       		.uleb128 0x4
 12659 00c1 01       		.byte	0x1
 12660 00c2 0B       		.uleb128 0xb
 12661 00c3 0B       		.uleb128 0xb
 12662 00c4 3A       		.uleb128 0x3a
 12663 00c5 0B       		.uleb128 0xb
 12664 00c6 3B       		.uleb128 0x3b
 12665 00c7 0B       		.uleb128 0xb
 12666 00c8 01       		.uleb128 0x1
 12667 00c9 13       		.uleb128 0x13
 12668 00ca 00       		.byte	0
 12669 00cb 00       		.byte	0
 12670 00cc 13       		.uleb128 0x13
 12671 00cd 13       		.uleb128 0x13
 12672 00ce 01       		.byte	0x1
 12673 00cf 03       		.uleb128 0x3
 12674 00d0 0E       		.uleb128 0xe
 12675 00d1 0B       		.uleb128 0xb
 12676 00d2 0B       		.uleb128 0xb
 12677 00d3 3A       		.uleb128 0x3a
 12678 00d4 0B       		.uleb128 0xb
 12679 00d5 3B       		.uleb128 0x3b
 12680 00d6 0B       		.uleb128 0xb
 12681 00d7 01       		.uleb128 0x1
 12682 00d8 13       		.uleb128 0x13
 12683 00d9 00       		.byte	0
ARM GAS  C:\Users\AHMED~1.ELE\AppData\Local\Temp\ccAQ67OG.s 			page 264


 12684 00da 00       		.byte	0
 12685 00db 14       		.uleb128 0x14
 12686 00dc 0D       		.uleb128 0xd
 12687 00dd 00       		.byte	0
 12688 00de 03       		.uleb128 0x3
 12689 00df 0E       		.uleb128 0xe
 12690 00e0 3A       		.uleb128 0x3a
 12691 00e1 0B       		.uleb128 0xb
 12692 00e2 3B       		.uleb128 0x3b
 12693 00e3 0B       		.uleb128 0xb
 12694 00e4 49       		.uleb128 0x49
 12695 00e5 13       		.uleb128 0x13
 12696 00e6 38       		.uleb128 0x38
 12697 00e7 0B       		.uleb128 0xb
 12698 00e8 00       		.byte	0
 12699 00e9 00       		.byte	0
 12700 00ea 15       		.uleb128 0x15
 12701 00eb 13       		.uleb128 0x13
 12702 00ec 01       		.byte	0x1
 12703 00ed 03       		.uleb128 0x3
 12704 00ee 0E       		.uleb128 0xe
 12705 00ef 0B       		.uleb128 0xb
 12706 00f0 05       		.uleb128 0x5
 12707 00f1 3A       		.uleb128 0x3a
 12708 00f2 0B       		.uleb128 0xb
 12709 00f3 3B       		.uleb128 0x3b
 12710 00f4 0B       		.uleb128 0xb
 12711 00f5 01       		.uleb128 0x1
 12712 00f6 13       		.uleb128 0x13
 12713 00f7 00       		.byte	0
 12714 00f8 00       		.byte	0
 12715 00f9 16       		.uleb128 0x16
 12716 00fa 0D       		.uleb128 0xd
 12717 00fb 00       		.byte	0
 12718 00fc 03       		.uleb128 0x3
 12719 00fd 0E       		.uleb128 0xe
 12720 00fe 3A       		.uleb128 0x3a
 12721 00ff 0B       		.uleb128 0xb
 12722 0100 3B       		.uleb128 0x3b
 12723 0101 0B       		.uleb128 0xb
 12724 0102 49       		.uleb128 0x49
 12725 0103 13       		.uleb128 0x13
 12726 0104 38       		.uleb128 0x38
 12727 0105 05       		.uleb128 0x5
 12728 0106 00       		.byte	0
 12729 0107 00       		.byte	0
 12730 0108 17       		.uleb128 0x17
 12731 0109 35       		.uleb128 0x35
 12732 010a 00       		.byte	0
 12733 010b 49       		.uleb128 0x49
 12734 010c 13       		.uleb128 0x13
 12735 010d 00       		.byte	0
 12736 010e 00       		.byte	0
 12737 010f 18       		.uleb128 0x18
 12738 0110 2E       		.uleb128 0x2e
 12739 0111 01       		.byte	0x1
 12740 0112 03       		.uleb128 0x3
ARM GAS  C:\Users\AHMED~1.ELE\AppData\Local\Temp\ccAQ67OG.s 			page 265


 12741 0113 0E       		.uleb128 0xe
 12742 0114 3A       		.uleb128 0x3a
 12743 0115 0B       		.uleb128 0xb
 12744 0116 3B       		.uleb128 0x3b
 12745 0117 0B       		.uleb128 0xb
 12746 0118 27       		.uleb128 0x27
 12747 0119 19       		.uleb128 0x19
 12748 011a 49       		.uleb128 0x49
 12749 011b 13       		.uleb128 0x13
 12750 011c 20       		.uleb128 0x20
 12751 011d 0B       		.uleb128 0xb
 12752 011e 01       		.uleb128 0x1
 12753 011f 13       		.uleb128 0x13
 12754 0120 00       		.byte	0
 12755 0121 00       		.byte	0
 12756 0122 19       		.uleb128 0x19
 12757 0123 05       		.uleb128 0x5
 12758 0124 00       		.byte	0
 12759 0125 03       		.uleb128 0x3
 12760 0126 0E       		.uleb128 0xe
 12761 0127 3A       		.uleb128 0x3a
 12762 0128 0B       		.uleb128 0xb
 12763 0129 3B       		.uleb128 0x3b
 12764 012a 0B       		.uleb128 0xb
 12765 012b 49       		.uleb128 0x49
 12766 012c 13       		.uleb128 0x13
 12767 012d 00       		.byte	0
 12768 012e 00       		.byte	0
 12769 012f 1A       		.uleb128 0x1a
 12770 0130 34       		.uleb128 0x34
 12771 0131 00       		.byte	0
 12772 0132 03       		.uleb128 0x3
 12773 0133 0E       		.uleb128 0xe
 12774 0134 3A       		.uleb128 0x3a
 12775 0135 0B       		.uleb128 0xb
 12776 0136 3B       		.uleb128 0x3b
 12777 0137 0B       		.uleb128 0xb
 12778 0138 49       		.uleb128 0x49
 12779 0139 13       		.uleb128 0x13
 12780 013a 00       		.byte	0
 12781 013b 00       		.byte	0
 12782 013c 1B       		.uleb128 0x1b
 12783 013d 34       		.uleb128 0x34
 12784 013e 00       		.byte	0
 12785 013f 03       		.uleb128 0x3
 12786 0140 08       		.uleb128 0x8
 12787 0141 3A       		.uleb128 0x3a
 12788 0142 0B       		.uleb128 0xb
 12789 0143 3B       		.uleb128 0x3b
 12790 0144 0B       		.uleb128 0xb
 12791 0145 49       		.uleb128 0x49
 12792 0146 13       		.uleb128 0x13
 12793 0147 00       		.byte	0
 12794 0148 00       		.byte	0
 12795 0149 1C       		.uleb128 0x1c
 12796 014a 2E       		.uleb128 0x2e
 12797 014b 01       		.byte	0x1
ARM GAS  C:\Users\AHMED~1.ELE\AppData\Local\Temp\ccAQ67OG.s 			page 266


 12798 014c 03       		.uleb128 0x3
 12799 014d 0E       		.uleb128 0xe
 12800 014e 3A       		.uleb128 0x3a
 12801 014f 0B       		.uleb128 0xb
 12802 0150 3B       		.uleb128 0x3b
 12803 0151 05       		.uleb128 0x5
 12804 0152 27       		.uleb128 0x27
 12805 0153 19       		.uleb128 0x19
 12806 0154 49       		.uleb128 0x49
 12807 0155 13       		.uleb128 0x13
 12808 0156 20       		.uleb128 0x20
 12809 0157 0B       		.uleb128 0xb
 12810 0158 01       		.uleb128 0x1
 12811 0159 13       		.uleb128 0x13
 12812 015a 00       		.byte	0
 12813 015b 00       		.byte	0
 12814 015c 1D       		.uleb128 0x1d
 12815 015d 05       		.uleb128 0x5
 12816 015e 00       		.byte	0
 12817 015f 03       		.uleb128 0x3
 12818 0160 0E       		.uleb128 0xe
 12819 0161 3A       		.uleb128 0x3a
 12820 0162 0B       		.uleb128 0xb
 12821 0163 3B       		.uleb128 0x3b
 12822 0164 05       		.uleb128 0x5
 12823 0165 49       		.uleb128 0x49
 12824 0166 13       		.uleb128 0x13
 12825 0167 00       		.byte	0
 12826 0168 00       		.byte	0
 12827 0169 1E       		.uleb128 0x1e
 12828 016a 2E       		.uleb128 0x2e
 12829 016b 01       		.byte	0x1
 12830 016c 3F       		.uleb128 0x3f
 12831 016d 19       		.uleb128 0x19
 12832 016e 03       		.uleb128 0x3
 12833 016f 0E       		.uleb128 0xe
 12834 0170 3A       		.uleb128 0x3a
 12835 0171 0B       		.uleb128 0xb
 12836 0172 3B       		.uleb128 0x3b
 12837 0173 05       		.uleb128 0x5
 12838 0174 27       		.uleb128 0x27
 12839 0175 19       		.uleb128 0x19
 12840 0176 49       		.uleb128 0x49
 12841 0177 13       		.uleb128 0x13
 12842 0178 20       		.uleb128 0x20
 12843 0179 0B       		.uleb128 0xb
 12844 017a 01       		.uleb128 0x1
 12845 017b 13       		.uleb128 0x13
 12846 017c 00       		.byte	0
 12847 017d 00       		.byte	0
 12848 017e 1F       		.uleb128 0x1f
 12849 017f 34       		.uleb128 0x34
 12850 0180 00       		.byte	0
 12851 0181 03       		.uleb128 0x3
 12852 0182 08       		.uleb128 0x8
 12853 0183 3A       		.uleb128 0x3a
 12854 0184 0B       		.uleb128 0xb
ARM GAS  C:\Users\AHMED~1.ELE\AppData\Local\Temp\ccAQ67OG.s 			page 267


 12855 0185 3B       		.uleb128 0x3b
 12856 0186 05       		.uleb128 0x5
 12857 0187 49       		.uleb128 0x49
 12858 0188 13       		.uleb128 0x13
 12859 0189 00       		.byte	0
 12860 018a 00       		.byte	0
 12861 018b 20       		.uleb128 0x20
 12862 018c 34       		.uleb128 0x34
 12863 018d 00       		.byte	0
 12864 018e 03       		.uleb128 0x3
 12865 018f 0E       		.uleb128 0xe
 12866 0190 3A       		.uleb128 0x3a
 12867 0191 0B       		.uleb128 0xb
 12868 0192 3B       		.uleb128 0x3b
 12869 0193 05       		.uleb128 0x5
 12870 0194 49       		.uleb128 0x49
 12871 0195 13       		.uleb128 0x13
 12872 0196 00       		.byte	0
 12873 0197 00       		.byte	0
 12874 0198 21       		.uleb128 0x21
 12875 0199 2E       		.uleb128 0x2e
 12876 019a 01       		.byte	0x1
 12877 019b 03       		.uleb128 0x3
 12878 019c 0E       		.uleb128 0xe
 12879 019d 3A       		.uleb128 0x3a
 12880 019e 0B       		.uleb128 0xb
 12881 019f 3B       		.uleb128 0x3b
 12882 01a0 0B       		.uleb128 0xb
 12883 01a1 27       		.uleb128 0x27
 12884 01a2 19       		.uleb128 0x19
 12885 01a3 11       		.uleb128 0x11
 12886 01a4 01       		.uleb128 0x1
 12887 01a5 12       		.uleb128 0x12
 12888 01a6 06       		.uleb128 0x6
 12889 01a7 40       		.uleb128 0x40
 12890 01a8 18       		.uleb128 0x18
 12891 01a9 9742     		.uleb128 0x2117
 12892 01ab 19       		.uleb128 0x19
 12893 01ac 01       		.uleb128 0x1
 12894 01ad 13       		.uleb128 0x13
 12895 01ae 00       		.byte	0
 12896 01af 00       		.byte	0
 12897 01b0 22       		.uleb128 0x22
 12898 01b1 34       		.uleb128 0x34
 12899 01b2 00       		.byte	0
 12900 01b3 03       		.uleb128 0x3
 12901 01b4 0E       		.uleb128 0xe
 12902 01b5 3A       		.uleb128 0x3a
 12903 01b6 0B       		.uleb128 0xb
 12904 01b7 3B       		.uleb128 0x3b
 12905 01b8 0B       		.uleb128 0xb
 12906 01b9 49       		.uleb128 0x49
 12907 01ba 13       		.uleb128 0x13
 12908 01bb 02       		.uleb128 0x2
 12909 01bc 18       		.uleb128 0x18
 12910 01bd 00       		.byte	0
 12911 01be 00       		.byte	0
ARM GAS  C:\Users\AHMED~1.ELE\AppData\Local\Temp\ccAQ67OG.s 			page 268


 12912 01bf 23       		.uleb128 0x23
 12913 01c0 898201   		.uleb128 0x4109
 12914 01c3 01       		.byte	0x1
 12915 01c4 11       		.uleb128 0x11
 12916 01c5 01       		.uleb128 0x1
 12917 01c6 31       		.uleb128 0x31
 12918 01c7 13       		.uleb128 0x13
 12919 01c8 01       		.uleb128 0x1
 12920 01c9 13       		.uleb128 0x13
 12921 01ca 00       		.byte	0
 12922 01cb 00       		.byte	0
 12923 01cc 24       		.uleb128 0x24
 12924 01cd 8A8201   		.uleb128 0x410a
 12925 01d0 00       		.byte	0
 12926 01d1 02       		.uleb128 0x2
 12927 01d2 18       		.uleb128 0x18
 12928 01d3 9142     		.uleb128 0x2111
 12929 01d5 18       		.uleb128 0x18
 12930 01d6 00       		.byte	0
 12931 01d7 00       		.byte	0
 12932 01d8 25       		.uleb128 0x25
 12933 01d9 898201   		.uleb128 0x4109
 12934 01dc 01       		.byte	0x1
 12935 01dd 11       		.uleb128 0x11
 12936 01de 01       		.uleb128 0x1
 12937 01df 31       		.uleb128 0x31
 12938 01e0 13       		.uleb128 0x13
 12939 01e1 00       		.byte	0
 12940 01e2 00       		.byte	0
 12941 01e3 26       		.uleb128 0x26
 12942 01e4 2E       		.uleb128 0x2e
 12943 01e5 01       		.byte	0x1
 12944 01e6 31       		.uleb128 0x31
 12945 01e7 13       		.uleb128 0x13
 12946 01e8 11       		.uleb128 0x11
 12947 01e9 01       		.uleb128 0x1
 12948 01ea 12       		.uleb128 0x12
 12949 01eb 06       		.uleb128 0x6
 12950 01ec 40       		.uleb128 0x40
 12951 01ed 18       		.uleb128 0x18
 12952 01ee 9742     		.uleb128 0x2117
 12953 01f0 19       		.uleb128 0x19
 12954 01f1 01       		.uleb128 0x1
 12955 01f2 13       		.uleb128 0x13
 12956 01f3 00       		.byte	0
 12957 01f4 00       		.byte	0
 12958 01f5 27       		.uleb128 0x27
 12959 01f6 05       		.uleb128 0x5
 12960 01f7 00       		.byte	0
 12961 01f8 31       		.uleb128 0x31
 12962 01f9 13       		.uleb128 0x13
 12963 01fa 02       		.uleb128 0x2
 12964 01fb 17       		.uleb128 0x17
 12965 01fc 00       		.byte	0
 12966 01fd 00       		.byte	0
 12967 01fe 28       		.uleb128 0x28
 12968 01ff 34       		.uleb128 0x34
ARM GAS  C:\Users\AHMED~1.ELE\AppData\Local\Temp\ccAQ67OG.s 			page 269


 12969 0200 00       		.byte	0
 12970 0201 31       		.uleb128 0x31
 12971 0202 13       		.uleb128 0x13
 12972 0203 02       		.uleb128 0x2
 12973 0204 18       		.uleb128 0x18
 12974 0205 00       		.byte	0
 12975 0206 00       		.byte	0
 12976 0207 29       		.uleb128 0x29
 12977 0208 34       		.uleb128 0x34
 12978 0209 00       		.byte	0
 12979 020a 31       		.uleb128 0x31
 12980 020b 13       		.uleb128 0x13
 12981 020c 02       		.uleb128 0x2
 12982 020d 17       		.uleb128 0x17
 12983 020e 00       		.byte	0
 12984 020f 00       		.byte	0
 12985 0210 2A       		.uleb128 0x2a
 12986 0211 34       		.uleb128 0x34
 12987 0212 00       		.byte	0
 12988 0213 31       		.uleb128 0x31
 12989 0214 13       		.uleb128 0x13
 12990 0215 00       		.byte	0
 12991 0216 00       		.byte	0
 12992 0217 2B       		.uleb128 0x2b
 12993 0218 898201   		.uleb128 0x4109
 12994 021b 01       		.byte	0x1
 12995 021c 11       		.uleb128 0x11
 12996 021d 01       		.uleb128 0x1
 12997 021e 9542     		.uleb128 0x2115
 12998 0220 19       		.uleb128 0x19
 12999 0221 31       		.uleb128 0x31
 13000 0222 13       		.uleb128 0x13
 13001 0223 01       		.uleb128 0x1
 13002 0224 13       		.uleb128 0x13
 13003 0225 00       		.byte	0
 13004 0226 00       		.byte	0
 13005 0227 2C       		.uleb128 0x2c
 13006 0228 2E       		.uleb128 0x2e
 13007 0229 01       		.byte	0x1
 13008 022a 3F       		.uleb128 0x3f
 13009 022b 19       		.uleb128 0x19
 13010 022c 03       		.uleb128 0x3
 13011 022d 0E       		.uleb128 0xe
 13012 022e 3A       		.uleb128 0x3a
 13013 022f 0B       		.uleb128 0xb
 13014 0230 3B       		.uleb128 0x3b
 13015 0231 0B       		.uleb128 0xb
 13016 0232 27       		.uleb128 0x27
 13017 0233 19       		.uleb128 0x19
 13018 0234 49       		.uleb128 0x49
 13019 0235 13       		.uleb128 0x13
 13020 0236 11       		.uleb128 0x11
 13021 0237 01       		.uleb128 0x1
 13022 0238 12       		.uleb128 0x12
 13023 0239 06       		.uleb128 0x6
 13024 023a 40       		.uleb128 0x40
 13025 023b 18       		.uleb128 0x18
ARM GAS  C:\Users\AHMED~1.ELE\AppData\Local\Temp\ccAQ67OG.s 			page 270


 13026 023c 9742     		.uleb128 0x2117
 13027 023e 19       		.uleb128 0x19
 13028 023f 01       		.uleb128 0x1
 13029 0240 13       		.uleb128 0x13
 13030 0241 00       		.byte	0
 13031 0242 00       		.byte	0
 13032 0243 2D       		.uleb128 0x2d
 13033 0244 05       		.uleb128 0x5
 13034 0245 00       		.byte	0
 13035 0246 03       		.uleb128 0x3
 13036 0247 0E       		.uleb128 0xe
 13037 0248 3A       		.uleb128 0x3a
 13038 0249 0B       		.uleb128 0xb
 13039 024a 3B       		.uleb128 0x3b
 13040 024b 0B       		.uleb128 0xb
 13041 024c 49       		.uleb128 0x49
 13042 024d 13       		.uleb128 0x13
 13043 024e 02       		.uleb128 0x2
 13044 024f 17       		.uleb128 0x17
 13045 0250 00       		.byte	0
 13046 0251 00       		.byte	0
 13047 0252 2E       		.uleb128 0x2e
 13048 0253 34       		.uleb128 0x34
 13049 0254 00       		.byte	0
 13050 0255 03       		.uleb128 0x3
 13051 0256 0E       		.uleb128 0xe
 13052 0257 3A       		.uleb128 0x3a
 13053 0258 0B       		.uleb128 0xb
 13054 0259 3B       		.uleb128 0x3b
 13055 025a 0B       		.uleb128 0xb
 13056 025b 49       		.uleb128 0x49
 13057 025c 13       		.uleb128 0x13
 13058 025d 02       		.uleb128 0x2
 13059 025e 17       		.uleb128 0x17
 13060 025f 00       		.byte	0
 13061 0260 00       		.byte	0
 13062 0261 2F       		.uleb128 0x2f
 13063 0262 2E       		.uleb128 0x2e
 13064 0263 01       		.byte	0x1
 13065 0264 3F       		.uleb128 0x3f
 13066 0265 19       		.uleb128 0x19
 13067 0266 03       		.uleb128 0x3
 13068 0267 0E       		.uleb128 0xe
 13069 0268 3A       		.uleb128 0x3a
 13070 0269 0B       		.uleb128 0xb
 13071 026a 3B       		.uleb128 0x3b
 13072 026b 05       		.uleb128 0x5
 13073 026c 27       		.uleb128 0x27
 13074 026d 19       		.uleb128 0x19
 13075 026e 49       		.uleb128 0x49
 13076 026f 13       		.uleb128 0x13
 13077 0270 11       		.uleb128 0x11
 13078 0271 01       		.uleb128 0x1
 13079 0272 12       		.uleb128 0x12
 13080 0273 06       		.uleb128 0x6
 13081 0274 40       		.uleb128 0x40
 13082 0275 18       		.uleb128 0x18
ARM GAS  C:\Users\AHMED~1.ELE\AppData\Local\Temp\ccAQ67OG.s 			page 271


 13083 0276 9742     		.uleb128 0x2117
 13084 0278 19       		.uleb128 0x19
 13085 0279 01       		.uleb128 0x1
 13086 027a 13       		.uleb128 0x13
 13087 027b 00       		.byte	0
 13088 027c 00       		.byte	0
 13089 027d 30       		.uleb128 0x30
 13090 027e 34       		.uleb128 0x34
 13091 027f 00       		.byte	0
 13092 0280 03       		.uleb128 0x3
 13093 0281 0E       		.uleb128 0xe
 13094 0282 3A       		.uleb128 0x3a
 13095 0283 0B       		.uleb128 0xb
 13096 0284 3B       		.uleb128 0x3b
 13097 0285 05       		.uleb128 0x5
 13098 0286 49       		.uleb128 0x49
 13099 0287 13       		.uleb128 0x13
 13100 0288 02       		.uleb128 0x2
 13101 0289 17       		.uleb128 0x17
 13102 028a 00       		.byte	0
 13103 028b 00       		.byte	0
 13104 028c 31       		.uleb128 0x31
 13105 028d 898201   		.uleb128 0x4109
 13106 0290 00       		.byte	0
 13107 0291 11       		.uleb128 0x11
 13108 0292 01       		.uleb128 0x1
 13109 0293 31       		.uleb128 0x31
 13110 0294 13       		.uleb128 0x13
 13111 0295 00       		.byte	0
 13112 0296 00       		.byte	0
 13113 0297 32       		.uleb128 0x32
 13114 0298 05       		.uleb128 0x5
 13115 0299 00       		.byte	0
 13116 029a 03       		.uleb128 0x3
 13117 029b 0E       		.uleb128 0xe
 13118 029c 3A       		.uleb128 0x3a
 13119 029d 0B       		.uleb128 0xb
 13120 029e 3B       		.uleb128 0x3b
 13121 029f 05       		.uleb128 0x5
 13122 02a0 49       		.uleb128 0x49
 13123 02a1 13       		.uleb128 0x13
 13124 02a2 02       		.uleb128 0x2
 13125 02a3 17       		.uleb128 0x17
 13126 02a4 00       		.byte	0
 13127 02a5 00       		.byte	0
 13128 02a6 33       		.uleb128 0x33
 13129 02a7 34       		.uleb128 0x34
 13130 02a8 00       		.byte	0
 13131 02a9 03       		.uleb128 0x3
 13132 02aa 08       		.uleb128 0x8
 13133 02ab 3A       		.uleb128 0x3a
 13134 02ac 0B       		.uleb128 0xb
 13135 02ad 3B       		.uleb128 0x3b
 13136 02ae 05       		.uleb128 0x5
 13137 02af 49       		.uleb128 0x49
 13138 02b0 13       		.uleb128 0x13
 13139 02b1 02       		.uleb128 0x2
ARM GAS  C:\Users\AHMED~1.ELE\AppData\Local\Temp\ccAQ67OG.s 			page 272


 13140 02b2 18       		.uleb128 0x18
 13141 02b3 00       		.byte	0
 13142 02b4 00       		.byte	0
 13143 02b5 34       		.uleb128 0x34
 13144 02b6 34       		.uleb128 0x34
 13145 02b7 00       		.byte	0
 13146 02b8 03       		.uleb128 0x3
 13147 02b9 08       		.uleb128 0x8
 13148 02ba 3A       		.uleb128 0x3a
 13149 02bb 0B       		.uleb128 0xb
 13150 02bc 3B       		.uleb128 0x3b
 13151 02bd 05       		.uleb128 0x5
 13152 02be 49       		.uleb128 0x49
 13153 02bf 13       		.uleb128 0x13
 13154 02c0 02       		.uleb128 0x2
 13155 02c1 17       		.uleb128 0x17
 13156 02c2 00       		.byte	0
 13157 02c3 00       		.byte	0
 13158 02c4 35       		.uleb128 0x35
 13159 02c5 0B       		.uleb128 0xb
 13160 02c6 01       		.byte	0x1
 13161 02c7 11       		.uleb128 0x11
 13162 02c8 01       		.uleb128 0x1
 13163 02c9 12       		.uleb128 0x12
 13164 02ca 06       		.uleb128 0x6
 13165 02cb 01       		.uleb128 0x1
 13166 02cc 13       		.uleb128 0x13
 13167 02cd 00       		.byte	0
 13168 02ce 00       		.byte	0
 13169 02cf 36       		.uleb128 0x36
 13170 02d0 0B       		.uleb128 0xb
 13171 02d1 01       		.byte	0x1
 13172 02d2 11       		.uleb128 0x11
 13173 02d3 01       		.uleb128 0x1
 13174 02d4 12       		.uleb128 0x12
 13175 02d5 06       		.uleb128 0x6
 13176 02d6 00       		.byte	0
 13177 02d7 00       		.byte	0
 13178 02d8 37       		.uleb128 0x37
 13179 02d9 1D       		.uleb128 0x1d
 13180 02da 01       		.byte	0x1
 13181 02db 31       		.uleb128 0x31
 13182 02dc 13       		.uleb128 0x13
 13183 02dd 52       		.uleb128 0x52
 13184 02de 01       		.uleb128 0x1
 13185 02df 55       		.uleb128 0x55
 13186 02e0 17       		.uleb128 0x17
 13187 02e1 58       		.uleb128 0x58
 13188 02e2 0B       		.uleb128 0xb
 13189 02e3 59       		.uleb128 0x59
 13190 02e4 05       		.uleb128 0x5
 13191 02e5 01       		.uleb128 0x1
 13192 02e6 13       		.uleb128 0x13
 13193 02e7 00       		.byte	0
 13194 02e8 00       		.byte	0
 13195 02e9 38       		.uleb128 0x38
 13196 02ea 0B       		.uleb128 0xb
ARM GAS  C:\Users\AHMED~1.ELE\AppData\Local\Temp\ccAQ67OG.s 			page 273


 13197 02eb 01       		.byte	0x1
 13198 02ec 55       		.uleb128 0x55
 13199 02ed 17       		.uleb128 0x17
 13200 02ee 00       		.byte	0
 13201 02ef 00       		.byte	0
 13202 02f0 39       		.uleb128 0x39
 13203 02f1 2E       		.uleb128 0x2e
 13204 02f2 01       		.byte	0x1
 13205 02f3 3F       		.uleb128 0x3f
 13206 02f4 19       		.uleb128 0x19
 13207 02f5 03       		.uleb128 0x3
 13208 02f6 0E       		.uleb128 0xe
 13209 02f7 3A       		.uleb128 0x3a
 13210 02f8 0B       		.uleb128 0xb
 13211 02f9 3B       		.uleb128 0x3b
 13212 02fa 05       		.uleb128 0x5
 13213 02fb 27       		.uleb128 0x27
 13214 02fc 19       		.uleb128 0x19
 13215 02fd 11       		.uleb128 0x11
 13216 02fe 01       		.uleb128 0x1
 13217 02ff 12       		.uleb128 0x12
 13218 0300 06       		.uleb128 0x6
 13219 0301 40       		.uleb128 0x40
 13220 0302 18       		.uleb128 0x18
 13221 0303 9742     		.uleb128 0x2117
 13222 0305 19       		.uleb128 0x19
 13223 0306 01       		.uleb128 0x1
 13224 0307 13       		.uleb128 0x13
 13225 0308 00       		.byte	0
 13226 0309 00       		.byte	0
 13227 030a 3A       		.uleb128 0x3a
 13228 030b 05       		.uleb128 0x5
 13229 030c 00       		.byte	0
 13230 030d 03       		.uleb128 0x3
 13231 030e 08       		.uleb128 0x8
 13232 030f 3A       		.uleb128 0x3a
 13233 0310 0B       		.uleb128 0xb
 13234 0311 3B       		.uleb128 0x3b
 13235 0312 05       		.uleb128 0x5
 13236 0313 49       		.uleb128 0x49
 13237 0314 13       		.uleb128 0x13
 13238 0315 02       		.uleb128 0x2
 13239 0316 17       		.uleb128 0x17
 13240 0317 00       		.byte	0
 13241 0318 00       		.byte	0
 13242 0319 3B       		.uleb128 0x3b
 13243 031a 34       		.uleb128 0x34
 13244 031b 00       		.byte	0
 13245 031c 03       		.uleb128 0x3
 13246 031d 0E       		.uleb128 0xe
 13247 031e 3A       		.uleb128 0x3a
 13248 031f 0B       		.uleb128 0xb
 13249 0320 3B       		.uleb128 0x3b
 13250 0321 05       		.uleb128 0x5
 13251 0322 49       		.uleb128 0x49
 13252 0323 13       		.uleb128 0x13
 13253 0324 02       		.uleb128 0x2
ARM GAS  C:\Users\AHMED~1.ELE\AppData\Local\Temp\ccAQ67OG.s 			page 274


 13254 0325 18       		.uleb128 0x18
 13255 0326 00       		.byte	0
 13256 0327 00       		.byte	0
 13257 0328 3C       		.uleb128 0x3c
 13258 0329 34       		.uleb128 0x34
 13259 032a 00       		.byte	0
 13260 032b 03       		.uleb128 0x3
 13261 032c 08       		.uleb128 0x8
 13262 032d 3A       		.uleb128 0x3a
 13263 032e 0B       		.uleb128 0xb
 13264 032f 3B       		.uleb128 0x3b
 13265 0330 05       		.uleb128 0x5
 13266 0331 49       		.uleb128 0x49
 13267 0332 13       		.uleb128 0x13
 13268 0333 1C       		.uleb128 0x1c
 13269 0334 0B       		.uleb128 0xb
 13270 0335 00       		.byte	0
 13271 0336 00       		.byte	0
 13272 0337 3D       		.uleb128 0x3d
 13273 0338 05       		.uleb128 0x5
 13274 0339 00       		.byte	0
 13275 033a 03       		.uleb128 0x3
 13276 033b 08       		.uleb128 0x8
 13277 033c 3A       		.uleb128 0x3a
 13278 033d 0B       		.uleb128 0xb
 13279 033e 3B       		.uleb128 0x3b
 13280 033f 05       		.uleb128 0x5
 13281 0340 49       		.uleb128 0x49
 13282 0341 13       		.uleb128 0x13
 13283 0342 00       		.byte	0
 13284 0343 00       		.byte	0
 13285 0344 3E       		.uleb128 0x3e
 13286 0345 2E       		.uleb128 0x2e
 13287 0346 01       		.byte	0x1
 13288 0347 03       		.uleb128 0x3
 13289 0348 0E       		.uleb128 0xe
 13290 0349 3A       		.uleb128 0x3a
 13291 034a 0B       		.uleb128 0xb
 13292 034b 3B       		.uleb128 0x3b
 13293 034c 05       		.uleb128 0x5
 13294 034d 27       		.uleb128 0x27
 13295 034e 19       		.uleb128 0x19
 13296 034f 20       		.uleb128 0x20
 13297 0350 0B       		.uleb128 0xb
 13298 0351 01       		.uleb128 0x1
 13299 0352 13       		.uleb128 0x13
 13300 0353 00       		.byte	0
 13301 0354 00       		.byte	0
 13302 0355 3F       		.uleb128 0x3f
 13303 0356 1D       		.uleb128 0x1d
 13304 0357 01       		.byte	0x1
 13305 0358 31       		.uleb128 0x31
 13306 0359 13       		.uleb128 0x13
 13307 035a 11       		.uleb128 0x11
 13308 035b 01       		.uleb128 0x1
 13309 035c 12       		.uleb128 0x12
 13310 035d 06       		.uleb128 0x6
ARM GAS  C:\Users\AHMED~1.ELE\AppData\Local\Temp\ccAQ67OG.s 			page 275


 13311 035e 58       		.uleb128 0x58
 13312 035f 0B       		.uleb128 0xb
 13313 0360 59       		.uleb128 0x59
 13314 0361 05       		.uleb128 0x5
 13315 0362 01       		.uleb128 0x1
 13316 0363 13       		.uleb128 0x13
 13317 0364 00       		.byte	0
 13318 0365 00       		.byte	0
 13319 0366 40       		.uleb128 0x40
 13320 0367 05       		.uleb128 0x5
 13321 0368 00       		.byte	0
 13322 0369 31       		.uleb128 0x31
 13323 036a 13       		.uleb128 0x13
 13324 036b 1C       		.uleb128 0x1c
 13325 036c 0B       		.uleb128 0xb
 13326 036d 00       		.byte	0
 13327 036e 00       		.byte	0
 13328 036f 41       		.uleb128 0x41
 13329 0370 34       		.uleb128 0x34
 13330 0371 00       		.byte	0
 13331 0372 03       		.uleb128 0x3
 13332 0373 0E       		.uleb128 0xe
 13333 0374 3A       		.uleb128 0x3a
 13334 0375 0B       		.uleb128 0xb
 13335 0376 3B       		.uleb128 0x3b
 13336 0377 0B       		.uleb128 0xb
 13337 0378 49       		.uleb128 0x49
 13338 0379 13       		.uleb128 0x13
 13339 037a 3F       		.uleb128 0x3f
 13340 037b 19       		.uleb128 0x19
 13341 037c 3C       		.uleb128 0x3c
 13342 037d 19       		.uleb128 0x19
 13343 037e 00       		.byte	0
 13344 037f 00       		.byte	0
 13345 0380 42       		.uleb128 0x42
 13346 0381 34       		.uleb128 0x34
 13347 0382 00       		.byte	0
 13348 0383 03       		.uleb128 0x3
 13349 0384 0E       		.uleb128 0xe
 13350 0385 3A       		.uleb128 0x3a
 13351 0386 0B       		.uleb128 0xb
 13352 0387 3B       		.uleb128 0x3b
 13353 0388 0B       		.uleb128 0xb
 13354 0389 49       		.uleb128 0x49
 13355 038a 13       		.uleb128 0x13
 13356 038b 3F       		.uleb128 0x3f
 13357 038c 19       		.uleb128 0x19
 13358 038d 02       		.uleb128 0x2
 13359 038e 18       		.uleb128 0x18
 13360 038f 00       		.byte	0
 13361 0390 00       		.byte	0
 13362 0391 43       		.uleb128 0x43
 13363 0392 2E       		.uleb128 0x2e
 13364 0393 01       		.byte	0x1
 13365 0394 3F       		.uleb128 0x3f
 13366 0395 19       		.uleb128 0x19
 13367 0396 03       		.uleb128 0x3
ARM GAS  C:\Users\AHMED~1.ELE\AppData\Local\Temp\ccAQ67OG.s 			page 276


 13368 0397 0E       		.uleb128 0xe
 13369 0398 3A       		.uleb128 0x3a
 13370 0399 0B       		.uleb128 0xb
 13371 039a 3B       		.uleb128 0x3b
 13372 039b 0B       		.uleb128 0xb
 13373 039c 27       		.uleb128 0x27
 13374 039d 19       		.uleb128 0x19
 13375 039e 49       		.uleb128 0x49
 13376 039f 13       		.uleb128 0x13
 13377 03a0 3C       		.uleb128 0x3c
 13378 03a1 19       		.uleb128 0x19
 13379 03a2 01       		.uleb128 0x1
 13380 03a3 13       		.uleb128 0x13
 13381 03a4 00       		.byte	0
 13382 03a5 00       		.byte	0
 13383 03a6 44       		.uleb128 0x44
 13384 03a7 05       		.uleb128 0x5
 13385 03a8 00       		.byte	0
 13386 03a9 49       		.uleb128 0x49
 13387 03aa 13       		.uleb128 0x13
 13388 03ab 00       		.byte	0
 13389 03ac 00       		.byte	0
 13390 03ad 45       		.uleb128 0x45
 13391 03ae 2E       		.uleb128 0x2e
 13392 03af 01       		.byte	0x1
 13393 03b0 3F       		.uleb128 0x3f
 13394 03b1 19       		.uleb128 0x19
 13395 03b2 03       		.uleb128 0x3
 13396 03b3 0E       		.uleb128 0xe
 13397 03b4 27       		.uleb128 0x27
 13398 03b5 19       		.uleb128 0x19
 13399 03b6 49       		.uleb128 0x49
 13400 03b7 13       		.uleb128 0x13
 13401 03b8 34       		.uleb128 0x34
 13402 03b9 19       		.uleb128 0x19
 13403 03ba 3C       		.uleb128 0x3c
 13404 03bb 19       		.uleb128 0x19
 13405 03bc 01       		.uleb128 0x1
 13406 03bd 13       		.uleb128 0x13
 13407 03be 00       		.byte	0
 13408 03bf 00       		.byte	0
 13409 03c0 46       		.uleb128 0x46
 13410 03c1 18       		.uleb128 0x18
 13411 03c2 00       		.byte	0
 13412 03c3 00       		.byte	0
 13413 03c4 00       		.byte	0
 13414 03c5 47       		.uleb128 0x47
 13415 03c6 2E       		.uleb128 0x2e
 13416 03c7 01       		.byte	0x1
 13417 03c8 3F       		.uleb128 0x3f
 13418 03c9 19       		.uleb128 0x19
 13419 03ca 03       		.uleb128 0x3
 13420 03cb 0E       		.uleb128 0xe
 13421 03cc 3A       		.uleb128 0x3a
 13422 03cd 0B       		.uleb128 0xb
 13423 03ce 3B       		.uleb128 0x3b
 13424 03cf 0B       		.uleb128 0xb
ARM GAS  C:\Users\AHMED~1.ELE\AppData\Local\Temp\ccAQ67OG.s 			page 277


 13425 03d0 6E       		.uleb128 0x6e
 13426 03d1 0E       		.uleb128 0xe
 13427 03d2 27       		.uleb128 0x27
 13428 03d3 19       		.uleb128 0x19
 13429 03d4 49       		.uleb128 0x49
 13430 03d5 13       		.uleb128 0x13
 13431 03d6 3C       		.uleb128 0x3c
 13432 03d7 19       		.uleb128 0x19
 13433 03d8 01       		.uleb128 0x1
 13434 03d9 13       		.uleb128 0x13
 13435 03da 00       		.byte	0
 13436 03db 00       		.byte	0
 13437 03dc 48       		.uleb128 0x48
 13438 03dd 2E       		.uleb128 0x2e
 13439 03de 01       		.byte	0x1
 13440 03df 3F       		.uleb128 0x3f
 13441 03e0 19       		.uleb128 0x19
 13442 03e1 03       		.uleb128 0x3
 13443 03e2 0E       		.uleb128 0xe
 13444 03e3 3A       		.uleb128 0x3a
 13445 03e4 0B       		.uleb128 0xb
 13446 03e5 3B       		.uleb128 0x3b
 13447 03e6 0B       		.uleb128 0xb
 13448 03e7 6E       		.uleb128 0x6e
 13449 03e8 0E       		.uleb128 0xe
 13450 03e9 27       		.uleb128 0x27
 13451 03ea 19       		.uleb128 0x19
 13452 03eb 49       		.uleb128 0x49
 13453 03ec 13       		.uleb128 0x13
 13454 03ed 3C       		.uleb128 0x3c
 13455 03ee 19       		.uleb128 0x19
 13456 03ef 00       		.byte	0
 13457 03f0 00       		.byte	0
 13458 03f1 00       		.byte	0
 13459              		.section	.debug_loc,"",%progbits
 13460              	.Ldebug_loc0:
 13461              	.LLST0:
 13462 0000 00000000 		.4byte	.LVL3
 13463 0004 12000000 		.4byte	.LVL4
 13464 0008 0100     		.2byte	0x1
 13465 000a 50       		.byte	0x50
 13466 000b 12000000 		.4byte	.LVL4
 13467 000f 1F000000 		.4byte	.LVL6-1
 13468 0013 0100     		.2byte	0x1
 13469 0015 53       		.byte	0x53
 13470 0016 1F000000 		.4byte	.LVL6-1
 13471 001a 28010000 		.4byte	.LFE43
 13472 001e 0400     		.2byte	0x4
 13473 0020 F3       		.byte	0xf3
 13474 0021 01       		.uleb128 0x1
 13475 0022 50       		.byte	0x50
 13476 0023 9F       		.byte	0x9f
 13477 0024 00000000 		.4byte	0
 13478 0028 00000000 		.4byte	0
 13479              	.LLST1:
 13480 002c 00000000 		.4byte	.LVL3
 13481 0030 1A000000 		.4byte	.LVL5
ARM GAS  C:\Users\AHMED~1.ELE\AppData\Local\Temp\ccAQ67OG.s 			page 278


 13482 0034 0100     		.2byte	0x1
 13483 0036 51       		.byte	0x51
 13484 0037 1A000000 		.4byte	.LVL5
 13485 003b 28010000 		.4byte	.LFE43
 13486 003f 0400     		.2byte	0x4
 13487 0041 F3       		.byte	0xf3
 13488 0042 01       		.uleb128 0x1
 13489 0043 51       		.byte	0x51
 13490 0044 9F       		.byte	0x9f
 13491 0045 00000000 		.4byte	0
 13492 0049 00000000 		.4byte	0
 13493              	.LLST2:
 13494 004d 52000000 		.4byte	.LVL10
 13495 0051 0E010000 		.4byte	.LVL25
 13496 0055 0100     		.2byte	0x1
 13497 0057 56       		.byte	0x56
 13498 0058 00000000 		.4byte	0
 13499 005c 00000000 		.4byte	0
 13500              	.LLST3:
 13501 0060 5A000000 		.4byte	.LVL11
 13502 0064 6E000000 		.4byte	.LVL12
 13503 0068 0100     		.2byte	0x1
 13504 006a 50       		.byte	0x50
 13505 006b 00000000 		.4byte	0
 13506 006f 00000000 		.4byte	0
 13507              	.LLST4:
 13508 0073 B4000000 		.4byte	.LVL16
 13509 0077 B8000000 		.4byte	.LVL17
 13510 007b 0100     		.2byte	0x1
 13511 007d 50       		.byte	0x50
 13512 007e B8000000 		.4byte	.LVL17
 13513 0082 BB000000 		.4byte	.LVL18-1
 13514 0086 0100     		.2byte	0x1
 13515 0088 52       		.byte	0x52
 13516 0089 BB000000 		.4byte	.LVL18-1
 13517 008d EA000000 		.4byte	.LVL23
 13518 0091 0100     		.2byte	0x1
 13519 0093 59       		.byte	0x59
 13520 0094 00000000 		.4byte	0
 13521 0098 00000000 		.4byte	0
 13522              	.LLST5:
 13523 009c 44000000 		.4byte	.LVL8
 13524 00a0 52000000 		.4byte	.LVL10
 13525 00a4 0600     		.2byte	0x6
 13526 00a6 03       		.byte	0x3
 13527 00a7 00000000 		.4byte	gAtCmdOut
 13528 00ab 9F       		.byte	0x9f
 13529 00ac 52000000 		.4byte	.LVL10
 13530 00b0 0E010000 		.4byte	.LVL25
 13531 00b4 0100     		.2byte	0x1
 13532 00b6 54       		.byte	0x54
 13533 00b7 00000000 		.4byte	0
 13534 00bb 00000000 		.4byte	0
 13535              	.LLST6:
 13536 00bf 00000000 		.4byte	.LVL26
 13537 00c3 08000000 		.4byte	.LVL27
 13538 00c7 0100     		.2byte	0x1
ARM GAS  C:\Users\AHMED~1.ELE\AppData\Local\Temp\ccAQ67OG.s 			page 279


 13539 00c9 50       		.byte	0x50
 13540 00ca 08000000 		.4byte	.LVL27
 13541 00ce 44000000 		.4byte	.LVL33
 13542 00d2 0100     		.2byte	0x1
 13543 00d4 56       		.byte	0x56
 13544 00d5 44000000 		.4byte	.LVL33
 13545 00d9 47000000 		.4byte	.LVL34-1
 13546 00dd 0100     		.2byte	0x1
 13547 00df 50       		.byte	0x50
 13548 00e0 47000000 		.4byte	.LVL34-1
 13549 00e4 48000000 		.4byte	.LVL34
 13550 00e8 0400     		.2byte	0x4
 13551 00ea F3       		.byte	0xf3
 13552 00eb 01       		.uleb128 0x1
 13553 00ec 50       		.byte	0x50
 13554 00ed 9F       		.byte	0x9f
 13555 00ee 48000000 		.4byte	.LVL34
 13556 00f2 64000000 		.4byte	.LVL36
 13557 00f6 0100     		.2byte	0x1
 13558 00f8 56       		.byte	0x56
 13559 00f9 64000000 		.4byte	.LVL36
 13560 00fd 68000000 		.4byte	.LFE0
 13561 0101 0400     		.2byte	0x4
 13562 0103 F3       		.byte	0xf3
 13563 0104 01       		.uleb128 0x1
 13564 0105 50       		.byte	0x50
 13565 0106 9F       		.byte	0x9f
 13566 0107 00000000 		.4byte	0
 13567 010b 00000000 		.4byte	0
 13568              	.LLST7:
 13569 010f 00000000 		.4byte	.LVL26
 13570 0113 0D000000 		.4byte	.LVL28-1
 13571 0117 0100     		.2byte	0x1
 13572 0119 51       		.byte	0x51
 13573 011a 0D000000 		.4byte	.LVL28-1
 13574 011e 68000000 		.4byte	.LFE0
 13575 0122 0400     		.2byte	0x4
 13576 0124 F3       		.byte	0xf3
 13577 0125 01       		.uleb128 0x1
 13578 0126 51       		.byte	0x51
 13579 0127 9F       		.byte	0x9f
 13580 0128 00000000 		.4byte	0
 13581 012c 00000000 		.4byte	0
 13582              	.LLST8:
 13583 0130 10000000 		.4byte	.LVL29
 13584 0134 44000000 		.4byte	.LVL33
 13585 0138 0100     		.2byte	0x1
 13586 013a 57       		.byte	0x57
 13587 013b 48000000 		.4byte	.LVL34
 13588 013f 64000000 		.4byte	.LVL36
 13589 0143 0100     		.2byte	0x1
 13590 0145 57       		.byte	0x57
 13591 0146 00000000 		.4byte	0
 13592 014a 00000000 		.4byte	0
 13593              	.LLST9:
 13594 014e 18000000 		.4byte	.LVL30
 13595 0152 1C000000 		.4byte	.LVL31
ARM GAS  C:\Users\AHMED~1.ELE\AppData\Local\Temp\ccAQ67OG.s 			page 280


 13596 0156 0100     		.2byte	0x1
 13597 0158 50       		.byte	0x50
 13598 0159 00000000 		.4byte	0
 13599 015d 00000000 		.4byte	0
 13600              	.LLST10:
 13601 0161 00000000 		.4byte	.LVL37
 13602 0165 10000000 		.4byte	.LVL38
 13603 0169 0100     		.2byte	0x1
 13604 016b 50       		.byte	0x50
 13605 016c 10000000 		.4byte	.LVL38
 13606 0170 13000000 		.4byte	.LVL39-1
 13607 0174 0500     		.2byte	0x5
 13608 0176 03       		.byte	0x3
 13609 0177 2C000000 		.4byte	gGSMData+44
 13610 017b 13000000 		.4byte	.LVL39-1
 13611 017f 3C000000 		.4byte	.LFE44
 13612 0183 0400     		.2byte	0x4
 13613 0185 F3       		.byte	0xf3
 13614 0186 01       		.uleb128 0x1
 13615 0187 50       		.byte	0x50
 13616 0188 9F       		.byte	0x9f
 13617 0189 00000000 		.4byte	0
 13618 018d 00000000 		.4byte	0
 13619              	.LLST11:
 13620 0191 00000000 		.4byte	.LVL41
 13621 0195 08000000 		.4byte	.LVL42
 13622 0199 0100     		.2byte	0x1
 13623 019b 50       		.byte	0x50
 13624 019c 08000000 		.4byte	.LVL42
 13625 01a0 10000000 		.4byte	.LVL43
 13626 01a4 0300     		.2byte	0x3
 13627 01a6 71       		.byte	0x71
 13628 01a7 01       		.sleb128 1
 13629 01a8 9F       		.byte	0x9f
 13630 01a9 10000000 		.4byte	.LVL43
 13631 01ad 1E000000 		.4byte	.LVL45
 13632 01b1 0100     		.2byte	0x1
 13633 01b3 51       		.byte	0x51
 13634 01b4 1E000000 		.4byte	.LVL45
 13635 01b8 20000000 		.4byte	.LVL46
 13636 01bc 0300     		.2byte	0x3
 13637 01be 71       		.byte	0x71
 13638 01bf 01       		.sleb128 1
 13639 01c0 9F       		.byte	0x9f
 13640 01c1 00000000 		.4byte	0
 13641 01c5 00000000 		.4byte	0
 13642              	.LLST12:
 13643 01c9 14000000 		.4byte	.LVL44
 13644 01cd 20000000 		.4byte	.LVL46
 13645 01d1 0100     		.2byte	0x1
 13646 01d3 53       		.byte	0x53
 13647 01d4 00000000 		.4byte	0
 13648 01d8 00000000 		.4byte	0
 13649              	.LLST13:
 13650 01dc 00000000 		.4byte	.LVL41
 13651 01e0 08000000 		.4byte	.LVL42
 13652 01e4 0200     		.2byte	0x2
ARM GAS  C:\Users\AHMED~1.ELE\AppData\Local\Temp\ccAQ67OG.s 			page 281


 13653 01e6 33       		.byte	0x33
 13654 01e7 9F       		.byte	0x9f
 13655 01e8 08000000 		.4byte	.LVL42
 13656 01ec 10000000 		.4byte	.LVL43
 13657 01f0 0800     		.2byte	0x8
 13658 01f2 72       		.byte	0x72
 13659 01f3 7D       		.sleb128 -3
 13660 01f4 71       		.byte	0x71
 13661 01f5 00       		.sleb128 0
 13662 01f6 1C       		.byte	0x1c
 13663 01f7 23       		.byte	0x23
 13664 01f8 02       		.uleb128 0x2
 13665 01f9 9F       		.byte	0x9f
 13666 01fa 00000000 		.4byte	0
 13667 01fe 00000000 		.4byte	0
 13668              	.LLST14:
 13669 0202 00000000 		.4byte	.LVL47
 13670 0206 08000000 		.4byte	.LVL48
 13671 020a 0100     		.2byte	0x1
 13672 020c 50       		.byte	0x50
 13673 020d 08000000 		.4byte	.LVL48
 13674 0211 48000000 		.4byte	.LVL58
 13675 0215 0100     		.2byte	0x1
 13676 0217 55       		.byte	0x55
 13677 0218 48000000 		.4byte	.LVL58
 13678 021c 4C000000 		.4byte	.LFE2
 13679 0220 0400     		.2byte	0x4
 13680 0222 F3       		.byte	0xf3
 13681 0223 01       		.uleb128 0x1
 13682 0224 50       		.byte	0x50
 13683 0225 9F       		.byte	0x9f
 13684 0226 00000000 		.4byte	0
 13685 022a 00000000 		.4byte	0
 13686              	.LLST15:
 13687 022e 32000000 		.4byte	.LVL53
 13688 0232 3C000000 		.4byte	.LVL54
 13689 0236 0100     		.2byte	0x1
 13690 0238 50       		.byte	0x50
 13691 0239 42000000 		.4byte	.LVL56
 13692 023d 44000000 		.4byte	.LVL57
 13693 0241 0100     		.2byte	0x1
 13694 0243 50       		.byte	0x50
 13695 0244 00000000 		.4byte	0
 13696 0248 00000000 		.4byte	0
 13697              	.LLST16:
 13698 024c 0E000000 		.4byte	.LVL50
 13699 0250 48000000 		.4byte	.LVL58
 13700 0254 0100     		.2byte	0x1
 13701 0256 54       		.byte	0x54
 13702 0257 00000000 		.4byte	0
 13703 025b 00000000 		.4byte	0
 13704              	.LLST17:
 13705 025f 16000000 		.4byte	.LVL51
 13706 0263 18000000 		.4byte	.LVL52
 13707 0267 0100     		.2byte	0x1
 13708 0269 50       		.byte	0x50
 13709 026a 00000000 		.4byte	0
ARM GAS  C:\Users\AHMED~1.ELE\AppData\Local\Temp\ccAQ67OG.s 			page 282


 13710 026e 00000000 		.4byte	0
 13711              	.LLST18:
 13712 0272 00000000 		.4byte	.LVL59
 13713 0276 22000000 		.4byte	.LVL63
 13714 027a 0200     		.2byte	0x2
 13715 027c 30       		.byte	0x30
 13716 027d 9F       		.byte	0x9f
 13717 027e 22000000 		.4byte	.LVL63
 13718 0282 2A000000 		.4byte	.LVL65
 13719 0286 0100     		.2byte	0x1
 13720 0288 54       		.byte	0x54
 13721 0289 00000000 		.4byte	0
 13722 028d 00000000 		.4byte	0
 13723              	.LLST19:
 13724 0291 00000000 		.4byte	.LVL66
 13725 0295 0C000000 		.4byte	.LVL67
 13726 0299 0100     		.2byte	0x1
 13727 029b 50       		.byte	0x50
 13728 029c 0C000000 		.4byte	.LVL67
 13729 02a0 84000000 		.4byte	.LFE4
 13730 02a4 0400     		.2byte	0x4
 13731 02a6 F3       		.byte	0xf3
 13732 02a7 01       		.uleb128 0x1
 13733 02a8 50       		.byte	0x50
 13734 02a9 9F       		.byte	0x9f
 13735 02aa 00000000 		.4byte	0
 13736 02ae 00000000 		.4byte	0
 13737              	.LLST20:
 13738 02b2 50000000 		.4byte	.LVL75
 13739 02b6 56000000 		.4byte	.LVL76
 13740 02ba 0100     		.2byte	0x1
 13741 02bc 50       		.byte	0x50
 13742 02bd 56000000 		.4byte	.LVL76
 13743 02c1 60000000 		.4byte	.LVL78
 13744 02c5 0100     		.2byte	0x1
 13745 02c7 55       		.byte	0x55
 13746 02c8 00000000 		.4byte	0
 13747 02cc 00000000 		.4byte	0
 13748              	.LLST21:
 13749 02d0 00000000 		.4byte	.LVL84
 13750 02d4 0A000000 		.4byte	.LVL85
 13751 02d8 0100     		.2byte	0x1
 13752 02da 50       		.byte	0x50
 13753 02db 0A000000 		.4byte	.LVL85
 13754 02df AC000000 		.4byte	.LVL106
 13755 02e3 0100     		.2byte	0x1
 13756 02e5 57       		.byte	0x57
 13757 02e6 AC000000 		.4byte	.LVL106
 13758 02ea BC000000 		.4byte	.LFE8
 13759 02ee 0400     		.2byte	0x4
 13760 02f0 F3       		.byte	0xf3
 13761 02f1 01       		.uleb128 0x1
 13762 02f2 50       		.byte	0x50
 13763 02f3 9F       		.byte	0x9f
 13764 02f4 00000000 		.4byte	0
 13765 02f8 00000000 		.4byte	0
 13766              	.LLST22:
ARM GAS  C:\Users\AHMED~1.ELE\AppData\Local\Temp\ccAQ67OG.s 			page 283


 13767 02fc 00000000 		.4byte	.LVL84
 13768 0300 0C000000 		.4byte	.LVL86
 13769 0304 0100     		.2byte	0x1
 13770 0306 51       		.byte	0x51
 13771 0307 0C000000 		.4byte	.LVL86
 13772 030b AC000000 		.4byte	.LVL106
 13773 030f 0100     		.2byte	0x1
 13774 0311 56       		.byte	0x56
 13775 0312 AC000000 		.4byte	.LVL106
 13776 0316 BC000000 		.4byte	.LFE8
 13777 031a 0400     		.2byte	0x4
 13778 031c F3       		.byte	0xf3
 13779 031d 01       		.uleb128 0x1
 13780 031e 51       		.byte	0x51
 13781 031f 9F       		.byte	0x9f
 13782 0320 00000000 		.4byte	0
 13783 0324 00000000 		.4byte	0
 13784              	.LLST23:
 13785 0328 18000000 		.4byte	.LVL88
 13786 032c AC000000 		.4byte	.LVL106
 13787 0330 0100     		.2byte	0x1
 13788 0332 56       		.byte	0x56
 13789 0333 AC000000 		.4byte	.LVL106
 13790 0337 BC000000 		.4byte	.LFE8
 13791 033b 0400     		.2byte	0x4
 13792 033d F3       		.byte	0xf3
 13793 033e 01       		.uleb128 0x1
 13794 033f 51       		.byte	0x51
 13795 0340 9F       		.byte	0x9f
 13796 0341 00000000 		.4byte	0
 13797 0345 00000000 		.4byte	0
 13798              	.LLST24:
 13799 0349 18000000 		.4byte	.LVL88
 13800 034d AC000000 		.4byte	.LVL106
 13801 0351 0100     		.2byte	0x1
 13802 0353 57       		.byte	0x57
 13803 0354 AC000000 		.4byte	.LVL106
 13804 0358 BC000000 		.4byte	.LFE8
 13805 035c 0400     		.2byte	0x4
 13806 035e F3       		.byte	0xf3
 13807 035f 01       		.uleb128 0x1
 13808 0360 50       		.byte	0x50
 13809 0361 9F       		.byte	0x9f
 13810 0362 00000000 		.4byte	0
 13811 0366 00000000 		.4byte	0
 13812              	.LLST25:
 13813 036a 22000000 		.4byte	.LVL89
 13814 036e 2A000000 		.4byte	.LVL90
 13815 0372 0100     		.2byte	0x1
 13816 0374 50       		.byte	0x50
 13817 0375 2A000000 		.4byte	.LVL90
 13818 0379 AC000000 		.4byte	.LVL106
 13819 037d 0100     		.2byte	0x1
 13820 037f 55       		.byte	0x55
 13821 0380 00000000 		.4byte	0
 13822 0384 00000000 		.4byte	0
 13823              	.LLST26:
ARM GAS  C:\Users\AHMED~1.ELE\AppData\Local\Temp\ccAQ67OG.s 			page 284


 13824 0388 40000000 		.4byte	.LVL94
 13825 038c 4C000000 		.4byte	.LVL96
 13826 0390 0100     		.2byte	0x1
 13827 0392 50       		.byte	0x50
 13828 0393 4C000000 		.4byte	.LVL96
 13829 0397 5A000000 		.4byte	.LVL98
 13830 039b 0100     		.2byte	0x1
 13831 039d 58       		.byte	0x58
 13832 039e 00000000 		.4byte	0
 13833 03a2 00000000 		.4byte	0
 13834              	.LLST27:
 13835 03a6 54000000 		.4byte	.LVL97
 13836 03aa 60000000 		.4byte	.LVL100
 13837 03ae 0100     		.2byte	0x1
 13838 03b0 50       		.byte	0x50
 13839 03b1 6E000000 		.4byte	.LVL102
 13840 03b5 AC000000 		.4byte	.LVL106
 13841 03b9 0300     		.2byte	0x3
 13842 03bb 78       		.byte	0x78
 13843 03bc 01       		.sleb128 1
 13844 03bd 9F       		.byte	0x9f
 13845 03be 00000000 		.4byte	0
 13846 03c2 00000000 		.4byte	0
 13847              	.LLST28:
 13848 03c6 6A000000 		.4byte	.LVL101
 13849 03ca 6E000000 		.4byte	.LVL102
 13850 03ce 0100     		.2byte	0x1
 13851 03d0 50       		.byte	0x50
 13852 03d1 6E000000 		.4byte	.LVL102
 13853 03d5 70000000 		.4byte	.LVL103
 13854 03d9 0800     		.2byte	0x8
 13855 03db 70       		.byte	0x70
 13856 03dc 00       		.sleb128 0
 13857 03dd 78       		.byte	0x78
 13858 03de 00       		.sleb128 0
 13859 03df 22       		.byte	0x22
 13860 03e0 23       		.byte	0x23
 13861 03e1 02       		.uleb128 0x2
 13862 03e2 9F       		.byte	0x9f
 13863 03e3 00000000 		.4byte	0
 13864 03e7 00000000 		.4byte	0
 13865              	.LLST29:
 13866 03eb 34000000 		.4byte	.LVL92
 13867 03ef AC000000 		.4byte	.LVL106
 13868 03f3 0100     		.2byte	0x1
 13869 03f5 54       		.byte	0x54
 13870 03f6 00000000 		.4byte	0
 13871 03fa 00000000 		.4byte	0
 13872              	.LLST30:
 13873 03fe 00000000 		.4byte	.LVL107
 13874 0402 0E000000 		.4byte	.LVL109
 13875 0406 0100     		.2byte	0x1
 13876 0408 50       		.byte	0x50
 13877 0409 0E000000 		.4byte	.LVL109
 13878 040d A8000000 		.4byte	.LVL131
 13879 0411 0100     		.2byte	0x1
 13880 0413 55       		.byte	0x55
ARM GAS  C:\Users\AHMED~1.ELE\AppData\Local\Temp\ccAQ67OG.s 			page 285


 13881 0414 A8000000 		.4byte	.LVL131
 13882 0418 B4000000 		.4byte	.LFE10
 13883 041c 0400     		.2byte	0x4
 13884 041e F3       		.byte	0xf3
 13885 041f 01       		.uleb128 0x1
 13886 0420 50       		.byte	0x50
 13887 0421 9F       		.byte	0x9f
 13888 0422 00000000 		.4byte	0
 13889 0426 00000000 		.4byte	0
 13890              	.LLST31:
 13891 042a 00000000 		.4byte	.LVL107
 13892 042e 0A000000 		.4byte	.LVL108
 13893 0432 0100     		.2byte	0x1
 13894 0434 51       		.byte	0x51
 13895 0435 0A000000 		.4byte	.LVL108
 13896 0439 A8000000 		.4byte	.LVL131
 13897 043d 0100     		.2byte	0x1
 13898 043f 56       		.byte	0x56
 13899 0440 A8000000 		.4byte	.LVL131
 13900 0444 B4000000 		.4byte	.LFE10
 13901 0448 0400     		.2byte	0x4
 13902 044a F3       		.byte	0xf3
 13903 044b 01       		.uleb128 0x1
 13904 044c 51       		.byte	0x51
 13905 044d 9F       		.byte	0x9f
 13906 044e 00000000 		.4byte	0
 13907 0452 00000000 		.4byte	0
 13908              	.LLST32:
 13909 0456 2A000000 		.4byte	.LVL113
 13910 045a A4000000 		.4byte	.LVL130
 13911 045e 0100     		.2byte	0x1
 13912 0460 56       		.byte	0x56
 13913 0461 00000000 		.4byte	0
 13914 0465 00000000 		.4byte	0
 13915              	.LLST33:
 13916 0469 2A000000 		.4byte	.LVL113
 13917 046d A4000000 		.4byte	.LVL130
 13918 0471 0100     		.2byte	0x1
 13919 0473 55       		.byte	0x55
 13920 0474 00000000 		.4byte	0
 13921 0478 00000000 		.4byte	0
 13922              	.LLST34:
 13923 047c 34000000 		.4byte	.LVL114
 13924 0480 3C000000 		.4byte	.LVL115
 13925 0484 0100     		.2byte	0x1
 13926 0486 50       		.byte	0x50
 13927 0487 3C000000 		.4byte	.LVL115
 13928 048b A4000000 		.4byte	.LVL130
 13929 048f 0100     		.2byte	0x1
 13930 0491 57       		.byte	0x57
 13931 0492 00000000 		.4byte	0
 13932 0496 00000000 		.4byte	0
 13933              	.LLST35:
 13934 049a 48000000 		.4byte	.LVL117
 13935 049e A4000000 		.4byte	.LVL130
 13936 04a2 0100     		.2byte	0x1
 13937 04a4 54       		.byte	0x54
ARM GAS  C:\Users\AHMED~1.ELE\AppData\Local\Temp\ccAQ67OG.s 			page 286


 13938 04a5 00000000 		.4byte	0
 13939 04a9 00000000 		.4byte	0
 13940              	.LLST36:
 13941 04ad 4E000000 		.4byte	.LVL118
 13942 04b1 A4000000 		.4byte	.LVL130
 13943 04b5 0100     		.2byte	0x1
 13944 04b7 54       		.byte	0x54
 13945 04b8 00000000 		.4byte	0
 13946 04bc 00000000 		.4byte	0
 13947              	.LLST37:
 13948 04c0 4E000000 		.4byte	.LVL118
 13949 04c4 A4000000 		.4byte	.LVL130
 13950 04c8 0100     		.2byte	0x1
 13951 04ca 57       		.byte	0x57
 13952 04cb 00000000 		.4byte	0
 13953 04cf 00000000 		.4byte	0
 13954              	.LLST38:
 13955 04d3 4E000000 		.4byte	.LVL118
 13956 04d7 A4000000 		.4byte	.LVL130
 13957 04db 0100     		.2byte	0x1
 13958 04dd 55       		.byte	0x55
 13959 04de 00000000 		.4byte	0
 13960 04e2 00000000 		.4byte	0
 13961              	.LLST39:
 13962 04e6 4E000000 		.4byte	.LVL118
 13963 04ea 56000000 		.4byte	.LVL119
 13964 04ee 0200     		.2byte	0x2
 13965 04f0 30       		.byte	0x30
 13966 04f1 9F       		.byte	0x9f
 13967 04f2 56000000 		.4byte	.LVL119
 13968 04f6 90000000 		.4byte	.LVL127
 13969 04fa 0100     		.2byte	0x1
 13970 04fc 52       		.byte	0x52
 13971 04fd 90000000 		.4byte	.LVL127
 13972 0501 9C000000 		.4byte	.LVL128
 13973 0505 0100     		.2byte	0x1
 13974 0507 5C       		.byte	0x5c
 13975 0508 9C000000 		.4byte	.LVL128
 13976 050c A4000000 		.4byte	.LVL130
 13977 0510 0100     		.2byte	0x1
 13978 0512 52       		.byte	0x52
 13979 0513 00000000 		.4byte	0
 13980 0517 00000000 		.4byte	0
 13981              	.LLST40:
 13982 051b 4E000000 		.4byte	.LVL118
 13983 051f 56000000 		.4byte	.LVL119
 13984 0523 0200     		.2byte	0x2
 13985 0525 30       		.byte	0x30
 13986 0526 9F       		.byte	0x9f
 13987 0527 56000000 		.4byte	.LVL119
 13988 052b 7E000000 		.4byte	.LVL124
 13989 052f 0100     		.2byte	0x1
 13990 0531 51       		.byte	0x51
 13991 0532 7E000000 		.4byte	.LVL124
 13992 0536 88000000 		.4byte	.LVL126
 13993 053a 0100     		.2byte	0x1
 13994 053c 5C       		.byte	0x5c
ARM GAS  C:\Users\AHMED~1.ELE\AppData\Local\Temp\ccAQ67OG.s 			page 287


 13995 053d 88000000 		.4byte	.LVL126
 13996 0541 A4000000 		.4byte	.LVL130
 13997 0545 0100     		.2byte	0x1
 13998 0547 51       		.byte	0x51
 13999 0548 00000000 		.4byte	0
 14000 054c 00000000 		.4byte	0
 14001              	.LLST41:
 14002 0550 4E000000 		.4byte	.LVL118
 14003 0554 56000000 		.4byte	.LVL119
 14004 0558 0100     		.2byte	0x1
 14005 055a 57       		.byte	0x57
 14006 055b 56000000 		.4byte	.LVL119
 14007 055f 62000000 		.4byte	.LVL120
 14008 0563 0100     		.2byte	0x1
 14009 0565 50       		.byte	0x50
 14010 0566 62000000 		.4byte	.LVL120
 14011 056a 6C000000 		.4byte	.LVL122
 14012 056e 0300     		.2byte	0x3
 14013 0570 70       		.byte	0x70
 14014 0571 7F       		.sleb128 -1
 14015 0572 9F       		.byte	0x9f
 14016 0573 6C000000 		.4byte	.LVL122
 14017 0577 6E000000 		.4byte	.LVL123
 14018 057b 0100     		.2byte	0x1
 14019 057d 50       		.byte	0x50
 14020 057e 6E000000 		.4byte	.LVL123
 14021 0582 86000000 		.4byte	.LVL125
 14022 0586 0300     		.2byte	0x3
 14023 0588 70       		.byte	0x70
 14024 0589 7F       		.sleb128 -1
 14025 058a 9F       		.byte	0x9f
 14026 058b 86000000 		.4byte	.LVL125
 14027 058f 88000000 		.4byte	.LVL126
 14028 0593 0100     		.2byte	0x1
 14029 0595 50       		.byte	0x50
 14030 0596 88000000 		.4byte	.LVL126
 14031 059a 9C000000 		.4byte	.LVL128
 14032 059e 0300     		.2byte	0x3
 14033 05a0 70       		.byte	0x70
 14034 05a1 7F       		.sleb128 -1
 14035 05a2 9F       		.byte	0x9f
 14036 05a3 9C000000 		.4byte	.LVL128
 14037 05a7 A2000000 		.4byte	.LVL129
 14038 05ab 0100     		.2byte	0x1
 14039 05ad 50       		.byte	0x50
 14040 05ae 00000000 		.4byte	0
 14041 05b2 00000000 		.4byte	0
 14042              	.LLST42:
 14043 05b6 4E000000 		.4byte	.LVL118
 14044 05ba 56000000 		.4byte	.LVL119
 14045 05be 0200     		.2byte	0x2
 14046 05c0 30       		.byte	0x30
 14047 05c1 9F       		.byte	0x9f
 14048 05c2 56000000 		.4byte	.LVL119
 14049 05c6 6A000000 		.4byte	.LVL121
 14050 05ca 0100     		.2byte	0x1
 14051 05cc 53       		.byte	0x53
ARM GAS  C:\Users\AHMED~1.ELE\AppData\Local\Temp\ccAQ67OG.s 			page 288


 14052 05cd 6C000000 		.4byte	.LVL122
 14053 05d1 A4000000 		.4byte	.LVL130
 14054 05d5 0100     		.2byte	0x1
 14055 05d7 53       		.byte	0x53
 14056 05d8 00000000 		.4byte	0
 14057 05dc 00000000 		.4byte	0
 14058              	.LLST43:
 14059 05e0 16000000 		.4byte	.LVL133
 14060 05e4 18000000 		.4byte	.LVL134
 14061 05e8 0200     		.2byte	0x2
 14062 05ea 30       		.byte	0x30
 14063 05eb 9F       		.byte	0x9f
 14064 05ec 18000000 		.4byte	.LVL134
 14065 05f0 2E000000 		.4byte	.LVL135
 14066 05f4 0100     		.2byte	0x1
 14067 05f6 55       		.byte	0x55
 14068 05f7 2E000000 		.4byte	.LVL135
 14069 05fb 42000000 		.4byte	.LVL138
 14070 05ff 0300     		.2byte	0x3
 14071 0601 75       		.byte	0x75
 14072 0602 7F       		.sleb128 -1
 14073 0603 9F       		.byte	0x9f
 14074 0604 42000000 		.4byte	.LVL138
 14075 0608 44000000 		.4byte	.LVL139
 14076 060c 0100     		.2byte	0x1
 14077 060e 55       		.byte	0x55
 14078 060f 00000000 		.4byte	0
 14079 0613 00000000 		.4byte	0
 14080              	.LLST44:
 14081 0617 00000000 		.4byte	.LVL132
 14082 061b 18000000 		.4byte	.LVL134
 14083 061f 0200     		.2byte	0x2
 14084 0621 30       		.byte	0x30
 14085 0622 9F       		.byte	0x9f
 14086 0623 18000000 		.4byte	.LVL134
 14087 0627 44000000 		.4byte	.LVL139
 14088 062b 0100     		.2byte	0x1
 14089 062d 54       		.byte	0x54
 14090 062e 00000000 		.4byte	0
 14091 0632 00000000 		.4byte	0
 14092              	.LLST45:
 14093 0636 16000000 		.4byte	.LVL133
 14094 063a 18000000 		.4byte	.LVL134
 14095 063e 0100     		.2byte	0x1
 14096 0640 52       		.byte	0x52
 14097 0641 18000000 		.4byte	.LVL134
 14098 0645 44000000 		.4byte	.LVL139
 14099 0649 0100     		.2byte	0x1
 14100 064b 57       		.byte	0x57
 14101 064c 00000000 		.4byte	0
 14102 0650 00000000 		.4byte	0
 14103              	.LLST46:
 14104 0654 16000000 		.4byte	.LVL140
 14105 0658 A8000000 		.4byte	.LVL153
 14106 065c 0100     		.2byte	0x1
 14107 065e 5B       		.byte	0x5b
 14108 065f 00000000 		.4byte	0
ARM GAS  C:\Users\AHMED~1.ELE\AppData\Local\Temp\ccAQ67OG.s 			page 289


 14109 0663 00000000 		.4byte	0
 14110              	.LLST47:
 14111 0667 26000000 		.4byte	.LVL141
 14112 066b 28000000 		.4byte	.LVL142
 14113 066f 0100     		.2byte	0x1
 14114 0671 59       		.byte	0x59
 14115 0672 28000000 		.4byte	.LVL142
 14116 0676 A2000000 		.4byte	.LVL151
 14117 067a 0100     		.2byte	0x1
 14118 067c 56       		.byte	0x56
 14119 067d A4000000 		.4byte	.LVL152
 14120 0681 AA000000 		.4byte	.LVL154
 14121 0685 0100     		.2byte	0x1
 14122 0687 56       		.byte	0x56
 14123 0688 00000000 		.4byte	0
 14124 068c 00000000 		.4byte	0
 14125              	.LLST48:
 14126 0690 54000000 		.4byte	.LVL144
 14127 0694 5A000000 		.4byte	.LVL145
 14128 0698 0200     		.2byte	0x2
 14129 069a 91       		.byte	0x91
 14130 069b 50       		.sleb128 -48
 14131 069c 5A000000 		.4byte	.LVL145
 14132 06a0 6C000000 		.4byte	.LVL146
 14133 06a4 1800     		.2byte	0x18
 14134 06a6 70       		.byte	0x70
 14135 06a7 00       		.sleb128 0
 14136 06a8 12       		.byte	0x12
 14137 06a9 0A       		.byte	0xa
 14138 06aa FFFF     		.2byte	0xffff
 14139 06ac 1A       		.byte	0x1a
 14140 06ad 91       		.byte	0x91
 14141 06ae 50       		.sleb128 -48
 14142 06af 94       		.byte	0x94
 14143 06b0 02       		.byte	0x2
 14144 06b1 16       		.byte	0x16
 14145 06b2 14       		.byte	0x14
 14146 06b3 0A       		.byte	0xa
 14147 06b4 FFFF     		.2byte	0xffff
 14148 06b6 1A       		.byte	0x1a
 14149 06b7 2D       		.byte	0x2d
 14150 06b8 28       		.byte	0x28
 14151 06b9 0100     		.2byte	0x1
 14152 06bb 16       		.byte	0x16
 14153 06bc 13       		.byte	0x13
 14154 06bd 9F       		.byte	0x9f
 14155 06be 6C000000 		.4byte	.LVL146
 14156 06c2 71000000 		.4byte	.LVL147-1
 14157 06c6 1800     		.2byte	0x18
 14158 06c8 7E       		.byte	0x7e
 14159 06c9 00       		.sleb128 0
 14160 06ca 12       		.byte	0x12
 14161 06cb 0A       		.byte	0xa
 14162 06cc FFFF     		.2byte	0xffff
 14163 06ce 1A       		.byte	0x1a
 14164 06cf 91       		.byte	0x91
 14165 06d0 50       		.sleb128 -48
ARM GAS  C:\Users\AHMED~1.ELE\AppData\Local\Temp\ccAQ67OG.s 			page 290


 14166 06d1 94       		.byte	0x94
 14167 06d2 02       		.byte	0x2
 14168 06d3 16       		.byte	0x16
 14169 06d4 14       		.byte	0x14
 14170 06d5 0A       		.byte	0xa
 14171 06d6 FFFF     		.2byte	0xffff
 14172 06d8 1A       		.byte	0x1a
 14173 06d9 2D       		.byte	0x2d
 14174 06da 28       		.byte	0x28
 14175 06db 0100     		.2byte	0x1
 14176 06dd 16       		.byte	0x16
 14177 06de 13       		.byte	0x13
 14178 06df 9F       		.byte	0x9f
 14179 06e0 00000000 		.4byte	0
 14180 06e4 00000000 		.4byte	0
 14181              	.LLST49:
 14182 06e8 5A000000 		.4byte	.LVL145
 14183 06ec 6C000000 		.4byte	.LVL146
 14184 06f0 0100     		.2byte	0x1
 14185 06f2 50       		.byte	0x50
 14186 06f3 6C000000 		.4byte	.LVL146
 14187 06f7 71000000 		.4byte	.LVL147-1
 14188 06fb 0100     		.2byte	0x1
 14189 06fd 5E       		.byte	0x5e
 14190 06fe 00000000 		.4byte	0
 14191 0702 00000000 		.4byte	0
 14192              	.LLST50:
 14193 0706 00000000 		.4byte	.LVL155
 14194 070a 11000000 		.4byte	.LVL156-1
 14195 070e 0100     		.2byte	0x1
 14196 0710 50       		.byte	0x50
 14197 0711 11000000 		.4byte	.LVL156-1
 14198 0715 6E000000 		.4byte	.LVL167
 14199 0719 0100     		.2byte	0x1
 14200 071b 55       		.byte	0x55
 14201 071c 6E000000 		.4byte	.LVL167
 14202 0720 00010000 		.4byte	.LFE13
 14203 0724 0400     		.2byte	0x4
 14204 0726 F3       		.byte	0xf3
 14205 0727 01       		.uleb128 0x1
 14206 0728 50       		.byte	0x50
 14207 0729 9F       		.byte	0x9f
 14208 072a 00000000 		.4byte	0
 14209 072e 00000000 		.4byte	0
 14210              	.LLST51:
 14211 0732 3C000000 		.4byte	.LVL160
 14212 0736 D4000000 		.4byte	.LVL182
 14213 073a 0600     		.2byte	0x6
 14214 073c 03       		.byte	0x3
 14215 073d 1C000000 		.4byte	gGSMData+28
 14216 0741 9F       		.byte	0x9f
 14217 0742 00000000 		.4byte	0
 14218 0746 00000000 		.4byte	0
 14219              	.LLST52:
 14220 074a 3C000000 		.4byte	.LVL160
 14221 074e D4000000 		.4byte	.LVL182
 14222 0752 0600     		.2byte	0x6
ARM GAS  C:\Users\AHMED~1.ELE\AppData\Local\Temp\ccAQ67OG.s 			page 291


 14223 0754 03       		.byte	0x3
 14224 0755 20000000 		.4byte	gGSMData+32
 14225 0759 9F       		.byte	0x9f
 14226 075a 00000000 		.4byte	0
 14227 075e 00000000 		.4byte	0
 14228              	.LLST53:
 14229 0762 50000000 		.4byte	.LVL162
 14230 0766 58000000 		.4byte	.LVL163
 14231 076a 0100     		.2byte	0x1
 14232 076c 50       		.byte	0x50
 14233 076d 58000000 		.4byte	.LVL163
 14234 0771 D4000000 		.4byte	.LVL182
 14235 0775 0100     		.2byte	0x1
 14236 0777 57       		.byte	0x57
 14237 0778 00000000 		.4byte	0
 14238 077c 00000000 		.4byte	0
 14239              	.LLST54:
 14240 0780 6E000000 		.4byte	.LVL167
 14241 0784 7A000000 		.4byte	.LVL169
 14242 0788 0100     		.2byte	0x1
 14243 078a 50       		.byte	0x50
 14244 078b 7A000000 		.4byte	.LVL169
 14245 078f 88000000 		.4byte	.LVL171
 14246 0793 0100     		.2byte	0x1
 14247 0795 55       		.byte	0x55
 14248 0796 00000000 		.4byte	0
 14249 079a 00000000 		.4byte	0
 14250              	.LLST55:
 14251 079e 82000000 		.4byte	.LVL170
 14252 07a2 8C000000 		.4byte	.LVL173
 14253 07a6 0100     		.2byte	0x1
 14254 07a8 50       		.byte	0x50
 14255 07a9 9A000000 		.4byte	.LVL175
 14256 07ad D4000000 		.4byte	.LVL182
 14257 07b1 0300     		.2byte	0x3
 14258 07b3 75       		.byte	0x75
 14259 07b4 01       		.sleb128 1
 14260 07b5 9F       		.byte	0x9f
 14261 07b6 00000000 		.4byte	0
 14262 07ba 00000000 		.4byte	0
 14263              	.LLST56:
 14264 07be 96000000 		.4byte	.LVL174
 14265 07c2 9C000000 		.4byte	.LVL176
 14266 07c6 0100     		.2byte	0x1
 14267 07c8 50       		.byte	0x50
 14268 07c9 00000000 		.4byte	0
 14269 07cd 00000000 		.4byte	0
 14270              	.LLST57:
 14271 07d1 62000000 		.4byte	.LVL165
 14272 07d5 A2000000 		.4byte	.LVL178
 14273 07d9 0100     		.2byte	0x1
 14274 07db 54       		.byte	0x54
 14275 07dc 00000000 		.4byte	0
 14276 07e0 00000000 		.4byte	0
 14277              	.LLST58:
 14278 07e4 00000000 		.4byte	.LVL183
 14279 07e8 0C000000 		.4byte	.LVL184
ARM GAS  C:\Users\AHMED~1.ELE\AppData\Local\Temp\ccAQ67OG.s 			page 292


 14280 07ec 0100     		.2byte	0x1
 14281 07ee 50       		.byte	0x50
 14282 07ef 0C000000 		.4byte	.LVL184
 14283 07f3 72000000 		.4byte	.LVL198
 14284 07f7 0100     		.2byte	0x1
 14285 07f9 56       		.byte	0x56
 14286 07fa 72000000 		.4byte	.LVL198
 14287 07fe 90000000 		.4byte	.LFE14
 14288 0802 0400     		.2byte	0x4
 14289 0804 F3       		.byte	0xf3
 14290 0805 01       		.uleb128 0x1
 14291 0806 50       		.byte	0x50
 14292 0807 9F       		.byte	0x9f
 14293 0808 00000000 		.4byte	0
 14294 080c 00000000 		.4byte	0
 14295              	.LLST59:
 14296 0810 00000000 		.4byte	.LVL183
 14297 0814 10000000 		.4byte	.LVL185
 14298 0818 0100     		.2byte	0x1
 14299 081a 51       		.byte	0x51
 14300 081b 10000000 		.4byte	.LVL185
 14301 081f 16000000 		.4byte	.LVL187
 14302 0823 0100     		.2byte	0x1
 14303 0825 55       		.byte	0x55
 14304 0826 16000000 		.4byte	.LVL187
 14305 082a 18000000 		.4byte	.LVL188
 14306 082e 0100     		.2byte	0x1
 14307 0830 51       		.byte	0x51
 14308 0831 18000000 		.4byte	.LVL188
 14309 0835 72000000 		.4byte	.LVL198
 14310 0839 0100     		.2byte	0x1
 14311 083b 55       		.byte	0x55
 14312 083c 72000000 		.4byte	.LVL198
 14313 0840 90000000 		.4byte	.LFE14
 14314 0844 0400     		.2byte	0x4
 14315 0846 F3       		.byte	0xf3
 14316 0847 01       		.uleb128 0x1
 14317 0848 51       		.byte	0x51
 14318 0849 9F       		.byte	0x9f
 14319 084a 00000000 		.4byte	0
 14320 084e 00000000 		.4byte	0
 14321              	.LLST60:
 14322 0852 00000000 		.4byte	.LVL199
 14323 0856 08000000 		.4byte	.LVL200
 14324 085a 0100     		.2byte	0x1
 14325 085c 50       		.byte	0x50
 14326 085d 08000000 		.4byte	.LVL200
 14327 0861 0D000000 		.4byte	.LVL202-1
 14328 0865 0100     		.2byte	0x1
 14329 0867 52       		.byte	0x52
 14330 0868 0D000000 		.4byte	.LVL202-1
 14331 086c 5C000000 		.4byte	.LFE15
 14332 0870 0400     		.2byte	0x4
 14333 0872 F3       		.byte	0xf3
 14334 0873 01       		.uleb128 0x1
 14335 0874 50       		.byte	0x50
 14336 0875 9F       		.byte	0x9f
ARM GAS  C:\Users\AHMED~1.ELE\AppData\Local\Temp\ccAQ67OG.s 			page 293


 14337 0876 00000000 		.4byte	0
 14338 087a 00000000 		.4byte	0
 14339              	.LLST61:
 14340 087e 00000000 		.4byte	.LVL199
 14341 0882 0A000000 		.4byte	.LVL201
 14342 0886 0100     		.2byte	0x1
 14343 0888 51       		.byte	0x51
 14344 0889 0A000000 		.4byte	.LVL201
 14345 088d 1E000000 		.4byte	.LVL204
 14346 0891 0100     		.2byte	0x1
 14347 0893 54       		.byte	0x54
 14348 0894 1E000000 		.4byte	.LVL204
 14349 0898 5C000000 		.4byte	.LFE15
 14350 089c 0400     		.2byte	0x4
 14351 089e F3       		.byte	0xf3
 14352 089f 01       		.uleb128 0x1
 14353 08a0 51       		.byte	0x51
 14354 08a1 9F       		.byte	0x9f
 14355 08a2 00000000 		.4byte	0
 14356 08a6 00000000 		.4byte	0
 14357              	.LLST62:
 14358 08aa 1E000000 		.4byte	.LVL204
 14359 08ae 36000000 		.4byte	.LVL205
 14360 08b2 0100     		.2byte	0x1
 14361 08b4 54       		.byte	0x54
 14362 08b5 36000000 		.4byte	.LVL205
 14363 08b9 3A000000 		.4byte	.LVL206
 14364 08bd 0300     		.2byte	0x3
 14365 08bf 74       		.byte	0x74
 14366 08c0 7F       		.sleb128 -1
 14367 08c1 9F       		.byte	0x9f
 14368 08c2 3A000000 		.4byte	.LVL206
 14369 08c6 4C000000 		.4byte	.LVL208
 14370 08ca 0100     		.2byte	0x1
 14371 08cc 54       		.byte	0x54
 14372 08cd 00000000 		.4byte	0
 14373 08d1 00000000 		.4byte	0
 14374              	.LLST63:
 14375 08d5 00000000 		.4byte	.LVL209
 14376 08d9 09000000 		.4byte	.LVL210-1
 14377 08dd 0100     		.2byte	0x1
 14378 08df 50       		.byte	0x50
 14379 08e0 09000000 		.4byte	.LVL210-1
 14380 08e4 38000000 		.4byte	.LVL215
 14381 08e8 0100     		.2byte	0x1
 14382 08ea 54       		.byte	0x54
 14383 08eb 38000000 		.4byte	.LVL215
 14384 08ef 4C000000 		.4byte	.LFE16
 14385 08f3 0400     		.2byte	0x4
 14386 08f5 F3       		.byte	0xf3
 14387 08f6 01       		.uleb128 0x1
 14388 08f7 50       		.byte	0x50
 14389 08f8 9F       		.byte	0x9f
 14390 08f9 00000000 		.4byte	0
 14391 08fd 00000000 		.4byte	0
 14392              	.LLST64:
 14393 0901 00000000 		.4byte	.LVL209
ARM GAS  C:\Users\AHMED~1.ELE\AppData\Local\Temp\ccAQ67OG.s 			page 294


 14394 0905 09000000 		.4byte	.LVL210-1
 14395 0909 0100     		.2byte	0x1
 14396 090b 51       		.byte	0x51
 14397 090c 09000000 		.4byte	.LVL210-1
 14398 0910 4C000000 		.4byte	.LFE16
 14399 0914 0400     		.2byte	0x4
 14400 0916 F3       		.byte	0xf3
 14401 0917 01       		.uleb128 0x1
 14402 0918 51       		.byte	0x51
 14403 0919 9F       		.byte	0x9f
 14404 091a 00000000 		.4byte	0
 14405 091e 00000000 		.4byte	0
 14406              	.LLST65:
 14407 0922 00000000 		.4byte	.LVL216
 14408 0926 0A000000 		.4byte	.LVL217
 14409 092a 0100     		.2byte	0x1
 14410 092c 50       		.byte	0x50
 14411 092d 0A000000 		.4byte	.LVL217
 14412 0931 32000000 		.4byte	.LVL223
 14413 0935 0100     		.2byte	0x1
 14414 0937 55       		.byte	0x55
 14415 0938 32000000 		.4byte	.LVL223
 14416 093c 40000000 		.4byte	.LFE17
 14417 0940 0400     		.2byte	0x4
 14418 0942 F3       		.byte	0xf3
 14419 0943 01       		.uleb128 0x1
 14420 0944 50       		.byte	0x50
 14421 0945 9F       		.byte	0x9f
 14422 0946 00000000 		.4byte	0
 14423 094a 00000000 		.4byte	0
 14424              	.LLST66:
 14425 094e 00000000 		.4byte	.LVL224
 14426 0952 08000000 		.4byte	.LVL225
 14427 0956 0100     		.2byte	0x1
 14428 0958 50       		.byte	0x50
 14429 0959 08000000 		.4byte	.LVL225
 14430 095d 36000000 		.4byte	.LVL231
 14431 0961 0100     		.2byte	0x1
 14432 0963 54       		.byte	0x54
 14433 0964 36000000 		.4byte	.LVL231
 14434 0968 4C000000 		.4byte	.LFE18
 14435 096c 0400     		.2byte	0x4
 14436 096e F3       		.byte	0xf3
 14437 096f 01       		.uleb128 0x1
 14438 0970 50       		.byte	0x50
 14439 0971 9F       		.byte	0x9f
 14440 0972 00000000 		.4byte	0
 14441 0976 00000000 		.4byte	0
 14442              	.LLST67:
 14443 097a 1C000000 		.4byte	.LVL233
 14444 097e 20000000 		.4byte	.LVL234
 14445 0982 0100     		.2byte	0x1
 14446 0984 50       		.byte	0x50
 14447 0985 20000000 		.4byte	.LVL234
 14448 0989 23000000 		.4byte	.LVL235-1
 14449 098d 0100     		.2byte	0x1
 14450 098f 52       		.byte	0x52
ARM GAS  C:\Users\AHMED~1.ELE\AppData\Local\Temp\ccAQ67OG.s 			page 295


 14451 0990 23000000 		.4byte	.LVL235-1
 14452 0994 62000000 		.4byte	.LVL243
 14453 0998 0100     		.2byte	0x1
 14454 099a 54       		.byte	0x54
 14455 099b 00000000 		.4byte	0
 14456 099f 00000000 		.4byte	0
 14457              	.LLST68:
 14458 09a3 2C000000 		.4byte	.LVL237
 14459 09a7 30000000 		.4byte	.LVL238
 14460 09ab 0100     		.2byte	0x1
 14461 09ad 50       		.byte	0x50
 14462 09ae 30000000 		.4byte	.LVL238
 14463 09b2 74000000 		.4byte	.LVL245
 14464 09b6 0100     		.2byte	0x1
 14465 09b8 56       		.byte	0x56
 14466 09b9 00000000 		.4byte	0
 14467 09bd 00000000 		.4byte	0
 14468              	.LLST69:
 14469 09c1 34000000 		.4byte	.LVL239
 14470 09c5 3F000000 		.4byte	.LVL240-1
 14471 09c9 0100     		.2byte	0x1
 14472 09cb 50       		.byte	0x50
 14473 09cc 3F000000 		.4byte	.LVL240-1
 14474 09d0 74000000 		.4byte	.LVL245
 14475 09d4 0100     		.2byte	0x1
 14476 09d6 55       		.byte	0x55
 14477 09d7 00000000 		.4byte	0
 14478 09db 00000000 		.4byte	0
 14479              	.LLST70:
 14480 09df 00000000 		.4byte	.LVL249
 14481 09e3 05000000 		.4byte	.LVL250-1
 14482 09e7 0100     		.2byte	0x1
 14483 09e9 50       		.byte	0x50
 14484 09ea 05000000 		.4byte	.LVL250-1
 14485 09ee 1C000000 		.4byte	.LFE21
 14486 09f2 0400     		.2byte	0x4
 14487 09f4 F3       		.byte	0xf3
 14488 09f5 01       		.uleb128 0x1
 14489 09f6 50       		.byte	0x50
 14490 09f7 9F       		.byte	0x9f
 14491 09f8 00000000 		.4byte	0
 14492 09fc 00000000 		.4byte	0
 14493              	.LLST71:
 14494 0a00 44000000 		.4byte	.LVL257
 14495 0a04 4A000000 		.4byte	.LVL258
 14496 0a08 0100     		.2byte	0x1
 14497 0a0a 50       		.byte	0x50
 14498 0a0b 00000000 		.4byte	0
 14499 0a0f 00000000 		.4byte	0
 14500              	.LLST72:
 14501 0a13 00000000 		.4byte	.LVL263
 14502 0a17 08000000 		.4byte	.LVL264
 14503 0a1b 0100     		.2byte	0x1
 14504 0a1d 50       		.byte	0x50
 14505 0a1e 08000000 		.4byte	.LVL264
 14506 0a22 0B000000 		.4byte	.LVL265-1
 14507 0a26 0100     		.2byte	0x1
ARM GAS  C:\Users\AHMED~1.ELE\AppData\Local\Temp\ccAQ67OG.s 			page 296


 14508 0a28 52       		.byte	0x52
 14509 0a29 0B000000 		.4byte	.LVL265-1
 14510 0a2d 20000000 		.4byte	.LFE25
 14511 0a31 0400     		.2byte	0x4
 14512 0a33 F3       		.byte	0xf3
 14513 0a34 01       		.uleb128 0x1
 14514 0a35 50       		.byte	0x50
 14515 0a36 9F       		.byte	0x9f
 14516 0a37 00000000 		.4byte	0
 14517 0a3b 00000000 		.4byte	0
 14518              	.LLST73:
 14519 0a3f 00000000 		.4byte	.LVL267
 14520 0a43 08000000 		.4byte	.LVL268
 14521 0a47 0100     		.2byte	0x1
 14522 0a49 50       		.byte	0x50
 14523 0a4a 08000000 		.4byte	.LVL268
 14524 0a4e 0D000000 		.4byte	.LVL270-1
 14525 0a52 0100     		.2byte	0x1
 14526 0a54 52       		.byte	0x52
 14527 0a55 0D000000 		.4byte	.LVL270-1
 14528 0a59 3C000000 		.4byte	.LFE26
 14529 0a5d 0400     		.2byte	0x4
 14530 0a5f F3       		.byte	0xf3
 14531 0a60 01       		.uleb128 0x1
 14532 0a61 50       		.byte	0x50
 14533 0a62 9F       		.byte	0x9f
 14534 0a63 00000000 		.4byte	0
 14535 0a67 00000000 		.4byte	0
 14536              	.LLST74:
 14537 0a6b 00000000 		.4byte	.LVL267
 14538 0a6f 0A000000 		.4byte	.LVL269
 14539 0a73 0100     		.2byte	0x1
 14540 0a75 51       		.byte	0x51
 14541 0a76 0A000000 		.4byte	.LVL269
 14542 0a7a 0D000000 		.4byte	.LVL270-1
 14543 0a7e 0100     		.2byte	0x1
 14544 0a80 53       		.byte	0x53
 14545 0a81 0D000000 		.4byte	.LVL270-1
 14546 0a85 3C000000 		.4byte	.LFE26
 14547 0a89 0400     		.2byte	0x4
 14548 0a8b F3       		.byte	0xf3
 14549 0a8c 01       		.uleb128 0x1
 14550 0a8d 51       		.byte	0x51
 14551 0a8e 9F       		.byte	0x9f
 14552 0a8f 00000000 		.4byte	0
 14553 0a93 00000000 		.4byte	0
 14554              	.LLST75:
 14555 0a97 24000000 		.4byte	.LVL273
 14556 0a9b 2A000000 		.4byte	.LVL274
 14557 0a9f 0100     		.2byte	0x1
 14558 0aa1 50       		.byte	0x50
 14559 0aa2 00000000 		.4byte	0
 14560 0aa6 00000000 		.4byte	0
 14561              	.LLST76:
 14562 0aaa 00000000 		.4byte	.LVL275
 14563 0aae 0D000000 		.4byte	.LVL276-1
 14564 0ab2 0100     		.2byte	0x1
ARM GAS  C:\Users\AHMED~1.ELE\AppData\Local\Temp\ccAQ67OG.s 			page 297


 14565 0ab4 50       		.byte	0x50
 14566 0ab5 0D000000 		.4byte	.LVL276-1
 14567 0ab9 2E000000 		.4byte	.LVL283
 14568 0abd 0100     		.2byte	0x1
 14569 0abf 54       		.byte	0x54
 14570 0ac0 2E000000 		.4byte	.LVL283
 14571 0ac4 6C000000 		.4byte	.LFE27
 14572 0ac8 0400     		.2byte	0x4
 14573 0aca F3       		.byte	0xf3
 14574 0acb 01       		.uleb128 0x1
 14575 0acc 50       		.byte	0x50
 14576 0acd 9F       		.byte	0x9f
 14577 0ace 00000000 		.4byte	0
 14578 0ad2 00000000 		.4byte	0
 14579              	.LLST77:
 14580 0ad6 00000000 		.4byte	.LVL275
 14581 0ada 0D000000 		.4byte	.LVL276-1
 14582 0ade 0100     		.2byte	0x1
 14583 0ae0 51       		.byte	0x51
 14584 0ae1 0D000000 		.4byte	.LVL276-1
 14585 0ae5 2E000000 		.4byte	.LVL283
 14586 0ae9 0100     		.2byte	0x1
 14587 0aeb 55       		.byte	0x55
 14588 0aec 2E000000 		.4byte	.LVL283
 14589 0af0 6C000000 		.4byte	.LFE27
 14590 0af4 0400     		.2byte	0x4
 14591 0af6 F3       		.byte	0xf3
 14592 0af7 01       		.uleb128 0x1
 14593 0af8 51       		.byte	0x51
 14594 0af9 9F       		.byte	0x9f
 14595 0afa 00000000 		.4byte	0
 14596 0afe 00000000 		.4byte	0
 14597              	.LLST78:
 14598 0b02 20000000 		.4byte	.LVL278
 14599 0b06 24000000 		.4byte	.LVL280
 14600 0b0a 0100     		.2byte	0x1
 14601 0b0c 50       		.byte	0x50
 14602 0b0d 00000000 		.4byte	0
 14603 0b11 00000000 		.4byte	0
 14604              	.LLST79:
 14605 0b15 22000000 		.4byte	.LVL279
 14606 0b19 2E000000 		.4byte	.LVL283
 14607 0b1d 0100     		.2byte	0x1
 14608 0b1f 55       		.byte	0x55
 14609 0b20 2E000000 		.4byte	.LVL283
 14610 0b24 36000000 		.4byte	.LVL284
 14611 0b28 0400     		.2byte	0x4
 14612 0b2a F3       		.byte	0xf3
 14613 0b2b 01       		.uleb128 0x1
 14614 0b2c 51       		.byte	0x51
 14615 0b2d 9F       		.byte	0x9f
 14616 0b2e 44000000 		.4byte	.LVL287
 14617 0b32 4E000000 		.4byte	.LVL290
 14618 0b36 0B00     		.2byte	0xb
 14619 0b38 74       		.byte	0x74
 14620 0b39 00       		.sleb128 0
 14621 0b3a 20       		.byte	0x20
ARM GAS  C:\Users\AHMED~1.ELE\AppData\Local\Temp\ccAQ67OG.s 			page 298


 14622 0b3b 74       		.byte	0x74
 14623 0b3c 00       		.sleb128 0
 14624 0b3d 22       		.byte	0x22
 14625 0b3e F3       		.byte	0xf3
 14626 0b3f 01       		.uleb128 0x1
 14627 0b40 51       		.byte	0x51
 14628 0b41 22       		.byte	0x22
 14629 0b42 9F       		.byte	0x9f
 14630 0b43 00000000 		.4byte	0
 14631 0b47 00000000 		.4byte	0
 14632              	.LLST80:
 14633 0b4b 22000000 		.4byte	.LVL279
 14634 0b4f 48000000 		.4byte	.LVL288
 14635 0b53 0100     		.2byte	0x1
 14636 0b55 54       		.byte	0x54
 14637 0b56 48000000 		.4byte	.LVL288
 14638 0b5a 4C000000 		.4byte	.LVL289
 14639 0b5e 0300     		.2byte	0x3
 14640 0b60 74       		.byte	0x74
 14641 0b61 01       		.sleb128 1
 14642 0b62 9F       		.byte	0x9f
 14643 0b63 4C000000 		.4byte	.LVL289
 14644 0b67 5E000000 		.4byte	.LVL294
 14645 0b6b 0100     		.2byte	0x1
 14646 0b6d 54       		.byte	0x54
 14647 0b6e 00000000 		.4byte	0
 14648 0b72 00000000 		.4byte	0
 14649              	.LLST81:
 14650 0b76 2A000000 		.4byte	.LVL281
 14651 0b7a 2C000000 		.4byte	.LVL282
 14652 0b7e 0100     		.2byte	0x1
 14653 0b80 50       		.byte	0x50
 14654 0b81 2C000000 		.4byte	.LVL282
 14655 0b85 2E000000 		.4byte	.LVL283
 14656 0b89 0300     		.2byte	0x3
 14657 0b8b 70       		.byte	0x70
 14658 0b8c 01       		.sleb128 1
 14659 0b8d 9F       		.byte	0x9f
 14660 0b8e 00000000 		.4byte	0
 14661 0b92 00000000 		.4byte	0
 14662              	.LLST82:
 14663 0b96 40000000 		.4byte	.LVL285
 14664 0b9a 42000000 		.4byte	.LVL286
 14665 0b9e 0100     		.2byte	0x1
 14666 0ba0 50       		.byte	0x50
 14667 0ba1 4E000000 		.4byte	.LVL290
 14668 0ba5 52000000 		.4byte	.LVL291
 14669 0ba9 0600     		.2byte	0x6
 14670 0bab 70       		.byte	0x70
 14671 0bac 00       		.sleb128 0
 14672 0bad 74       		.byte	0x74
 14673 0bae 00       		.sleb128 0
 14674 0baf 1C       		.byte	0x1c
 14675 0bb0 9F       		.byte	0x9f
 14676 0bb1 52000000 		.4byte	.LVL291
 14677 0bb5 5A000000 		.4byte	.LVL292
 14678 0bb9 0800     		.2byte	0x8
ARM GAS  C:\Users\AHMED~1.ELE\AppData\Local\Temp\ccAQ67OG.s 			page 299


 14679 0bbb 70       		.byte	0x70
 14680 0bbc 00       		.sleb128 0
 14681 0bbd 74       		.byte	0x74
 14682 0bbe 00       		.sleb128 0
 14683 0bbf 1C       		.byte	0x1c
 14684 0bc0 23       		.byte	0x23
 14685 0bc1 01       		.uleb128 0x1
 14686 0bc2 9F       		.byte	0x9f
 14687 0bc3 5A000000 		.4byte	.LVL292
 14688 0bc7 5C000000 		.4byte	.LVL293
 14689 0bcb 0700     		.2byte	0x7
 14690 0bcd 74       		.byte	0x74
 14691 0bce 00       		.sleb128 0
 14692 0bcf 20       		.byte	0x20
 14693 0bd0 70       		.byte	0x70
 14694 0bd1 00       		.sleb128 0
 14695 0bd2 22       		.byte	0x22
 14696 0bd3 9F       		.byte	0x9f
 14697 0bd4 5C000000 		.4byte	.LVL293
 14698 0bd8 5E000000 		.4byte	.LVL294
 14699 0bdc 0800     		.2byte	0x8
 14700 0bde 70       		.byte	0x70
 14701 0bdf 00       		.sleb128 0
 14702 0be0 74       		.byte	0x74
 14703 0be1 00       		.sleb128 0
 14704 0be2 1C       		.byte	0x1c
 14705 0be3 23       		.byte	0x23
 14706 0be4 01       		.uleb128 0x1
 14707 0be5 9F       		.byte	0x9f
 14708 0be6 00000000 		.4byte	0
 14709 0bea 00000000 		.4byte	0
 14710              	.LLST83:
 14711 0bee 00000000 		.4byte	.LVL295
 14712 0bf2 09000000 		.4byte	.LVL296-1
 14713 0bf6 0100     		.2byte	0x1
 14714 0bf8 50       		.byte	0x50
 14715 0bf9 09000000 		.4byte	.LVL296-1
 14716 0bfd 98000000 		.4byte	.LFE28
 14717 0c01 0400     		.2byte	0x4
 14718 0c03 F3       		.byte	0xf3
 14719 0c04 01       		.uleb128 0x1
 14720 0c05 50       		.byte	0x50
 14721 0c06 9F       		.byte	0x9f
 14722 0c07 00000000 		.4byte	0
 14723 0c0b 00000000 		.4byte	0
 14724              	.LLST84:
 14725 0c0f 00000000 		.4byte	.LVL295
 14726 0c13 09000000 		.4byte	.LVL296-1
 14727 0c17 0100     		.2byte	0x1
 14728 0c19 51       		.byte	0x51
 14729 0c1a 09000000 		.4byte	.LVL296-1
 14730 0c1e 52000000 		.4byte	.LVL304
 14731 0c22 0100     		.2byte	0x1
 14732 0c24 54       		.byte	0x54
 14733 0c25 52000000 		.4byte	.LVL304
 14734 0c29 54000000 		.4byte	.LVL305
 14735 0c2d 0400     		.2byte	0x4
ARM GAS  C:\Users\AHMED~1.ELE\AppData\Local\Temp\ccAQ67OG.s 			page 300


 14736 0c2f F3       		.byte	0xf3
 14737 0c30 01       		.uleb128 0x1
 14738 0c31 51       		.byte	0x51
 14739 0c32 9F       		.byte	0x9f
 14740 0c33 54000000 		.4byte	.LVL305
 14741 0c37 56000000 		.4byte	.LVL306
 14742 0c3b 0100     		.2byte	0x1
 14743 0c3d 54       		.byte	0x54
 14744 0c3e 56000000 		.4byte	.LVL306
 14745 0c42 58000000 		.4byte	.LVL307
 14746 0c46 0400     		.2byte	0x4
 14747 0c48 F3       		.byte	0xf3
 14748 0c49 01       		.uleb128 0x1
 14749 0c4a 51       		.byte	0x51
 14750 0c4b 9F       		.byte	0x9f
 14751 0c4c 58000000 		.4byte	.LVL307
 14752 0c50 5A000000 		.4byte	.LVL308
 14753 0c54 0100     		.2byte	0x1
 14754 0c56 54       		.byte	0x54
 14755 0c57 5A000000 		.4byte	.LVL308
 14756 0c5b 98000000 		.4byte	.LFE28
 14757 0c5f 0400     		.2byte	0x4
 14758 0c61 F3       		.byte	0xf3
 14759 0c62 01       		.uleb128 0x1
 14760 0c63 51       		.byte	0x51
 14761 0c64 9F       		.byte	0x9f
 14762 0c65 00000000 		.4byte	0
 14763 0c69 00000000 		.4byte	0
 14764              	.LLST85:
 14765 0c6d 00000000 		.4byte	.LVL295
 14766 0c71 5A000000 		.4byte	.LVL308
 14767 0c75 0200     		.2byte	0x2
 14768 0c77 30       		.byte	0x30
 14769 0c78 9F       		.byte	0x9f
 14770 0c79 5A000000 		.4byte	.LVL308
 14771 0c7d 70000000 		.4byte	.LVL312
 14772 0c81 0100     		.2byte	0x1
 14773 0c83 54       		.byte	0x54
 14774 0c84 70000000 		.4byte	.LVL312
 14775 0c88 98000000 		.4byte	.LFE28
 14776 0c8c 0100     		.2byte	0x1
 14777 0c8e 50       		.byte	0x50
 14778 0c8f 00000000 		.4byte	0
 14779 0c93 00000000 		.4byte	0
 14780              	.LLST86:
 14781 0c97 00000000 		.4byte	.LVL313
 14782 0c9b 5C000000 		.4byte	.LVL321
 14783 0c9f 0300     		.2byte	0x3
 14784 0ca1 08       		.byte	0x8
 14785 0ca2 FF       		.byte	0xff
 14786 0ca3 9F       		.byte	0x9f
 14787 0ca4 5C000000 		.4byte	.LVL321
 14788 0ca8 64000000 		.4byte	.LVL323
 14789 0cac 0100     		.2byte	0x1
 14790 0cae 54       		.byte	0x54
 14791 0caf 64000000 		.4byte	.LVL323
 14792 0cb3 80000000 		.4byte	.LFE29
ARM GAS  C:\Users\AHMED~1.ELE\AppData\Local\Temp\ccAQ67OG.s 			page 301


 14793 0cb7 0100     		.2byte	0x1
 14794 0cb9 50       		.byte	0x50
 14795 0cba 00000000 		.4byte	0
 14796 0cbe 00000000 		.4byte	0
 14797              	.LLST87:
 14798 0cc2 00000000 		.4byte	.LVL324
 14799 0cc6 08000000 		.4byte	.LVL325
 14800 0cca 0100     		.2byte	0x1
 14801 0ccc 50       		.byte	0x50
 14802 0ccd 08000000 		.4byte	.LVL325
 14803 0cd1 4C000000 		.4byte	.LFE30
 14804 0cd5 0400     		.2byte	0x4
 14805 0cd7 F3       		.byte	0xf3
 14806 0cd8 01       		.uleb128 0x1
 14807 0cd9 50       		.byte	0x50
 14808 0cda 9F       		.byte	0x9f
 14809 0cdb 00000000 		.4byte	0
 14810 0cdf 00000000 		.4byte	0
 14811              	.LLST88:
 14812 0ce3 00000000 		.4byte	.LVL324
 14813 0ce7 0C000000 		.4byte	.LVL326
 14814 0ceb 0100     		.2byte	0x1
 14815 0ced 51       		.byte	0x51
 14816 0cee 0C000000 		.4byte	.LVL326
 14817 0cf2 11000000 		.4byte	.LVL327-1
 14818 0cf6 0100     		.2byte	0x1
 14819 0cf8 52       		.byte	0x52
 14820 0cf9 11000000 		.4byte	.LVL327-1
 14821 0cfd 4C000000 		.4byte	.LFE30
 14822 0d01 0400     		.2byte	0x4
 14823 0d03 F3       		.byte	0xf3
 14824 0d04 01       		.uleb128 0x1
 14825 0d05 51       		.byte	0x51
 14826 0d06 9F       		.byte	0x9f
 14827 0d07 00000000 		.4byte	0
 14828 0d0b 00000000 		.4byte	0
 14829              	.LLST89:
 14830 0d0f 00000000 		.4byte	.LVL324
 14831 0d13 2E000000 		.4byte	.LVL330
 14832 0d17 0200     		.2byte	0x2
 14833 0d19 30       		.byte	0x30
 14834 0d1a 9F       		.byte	0x9f
 14835 0d1b 2E000000 		.4byte	.LVL330
 14836 0d1f 36000000 		.4byte	.LVL332
 14837 0d23 0100     		.2byte	0x1
 14838 0d25 54       		.byte	0x54
 14839 0d26 00000000 		.4byte	0
 14840 0d2a 00000000 		.4byte	0
 14841              	.LLST90:
 14842 0d2e 00000000 		.4byte	.LVL333
 14843 0d32 0B000000 		.4byte	.LVL334-1
 14844 0d36 0100     		.2byte	0x1
 14845 0d38 50       		.byte	0x50
 14846 0d39 0B000000 		.4byte	.LVL334-1
 14847 0d3d 6E000000 		.4byte	.LVL349
 14848 0d41 0100     		.2byte	0x1
 14849 0d43 56       		.byte	0x56
ARM GAS  C:\Users\AHMED~1.ELE\AppData\Local\Temp\ccAQ67OG.s 			page 302


 14850 0d44 6E000000 		.4byte	.LVL349
 14851 0d48 94000000 		.4byte	.LFE31
 14852 0d4c 0400     		.2byte	0x4
 14853 0d4e F3       		.byte	0xf3
 14854 0d4f 01       		.uleb128 0x1
 14855 0d50 50       		.byte	0x50
 14856 0d51 9F       		.byte	0x9f
 14857 0d52 00000000 		.4byte	0
 14858 0d56 00000000 		.4byte	0
 14859              	.LLST91:
 14860 0d5a 00000000 		.4byte	.LVL333
 14861 0d5e 0B000000 		.4byte	.LVL334-1
 14862 0d62 0100     		.2byte	0x1
 14863 0d64 51       		.byte	0x51
 14864 0d65 0B000000 		.4byte	.LVL334-1
 14865 0d69 50000000 		.4byte	.LVL341
 14866 0d6d 0100     		.2byte	0x1
 14867 0d6f 54       		.byte	0x54
 14868 0d70 50000000 		.4byte	.LVL341
 14869 0d74 52000000 		.4byte	.LVL342
 14870 0d78 0400     		.2byte	0x4
 14871 0d7a F3       		.byte	0xf3
 14872 0d7b 01       		.uleb128 0x1
 14873 0d7c 51       		.byte	0x51
 14874 0d7d 9F       		.byte	0x9f
 14875 0d7e 52000000 		.4byte	.LVL342
 14876 0d82 54000000 		.4byte	.LVL343
 14877 0d86 0100     		.2byte	0x1
 14878 0d88 54       		.byte	0x54
 14879 0d89 54000000 		.4byte	.LVL343
 14880 0d8d 56000000 		.4byte	.LVL344
 14881 0d91 0400     		.2byte	0x4
 14882 0d93 F3       		.byte	0xf3
 14883 0d94 01       		.uleb128 0x1
 14884 0d95 51       		.byte	0x51
 14885 0d96 9F       		.byte	0x9f
 14886 0d97 56000000 		.4byte	.LVL344
 14887 0d9b 58000000 		.4byte	.LVL345
 14888 0d9f 0100     		.2byte	0x1
 14889 0da1 54       		.byte	0x54
 14890 0da2 58000000 		.4byte	.LVL345
 14891 0da6 94000000 		.4byte	.LFE31
 14892 0daa 0400     		.2byte	0x4
 14893 0dac F3       		.byte	0xf3
 14894 0dad 01       		.uleb128 0x1
 14895 0dae 51       		.byte	0x51
 14896 0daf 9F       		.byte	0x9f
 14897 0db0 00000000 		.4byte	0
 14898 0db4 00000000 		.4byte	0
 14899              	.LLST92:
 14900 0db8 00000000 		.4byte	.LVL333
 14901 0dbc 0B000000 		.4byte	.LVL334-1
 14902 0dc0 0100     		.2byte	0x1
 14903 0dc2 52       		.byte	0x52
 14904 0dc3 0B000000 		.4byte	.LVL334-1
 14905 0dc7 6E000000 		.4byte	.LVL349
 14906 0dcb 0100     		.2byte	0x1
ARM GAS  C:\Users\AHMED~1.ELE\AppData\Local\Temp\ccAQ67OG.s 			page 303


 14907 0dcd 55       		.byte	0x55
 14908 0dce 6E000000 		.4byte	.LVL349
 14909 0dd2 94000000 		.4byte	.LFE31
 14910 0dd6 0400     		.2byte	0x4
 14911 0dd8 F3       		.byte	0xf3
 14912 0dd9 01       		.uleb128 0x1
 14913 0dda 52       		.byte	0x52
 14914 0ddb 9F       		.byte	0x9f
 14915 0ddc 00000000 		.4byte	0
 14916 0de0 00000000 		.4byte	0
 14917              	.LLST93:
 14918 0de4 00000000 		.4byte	.LVL333
 14919 0de8 58000000 		.4byte	.LVL345
 14920 0dec 0200     		.2byte	0x2
 14921 0dee 30       		.byte	0x30
 14922 0def 9F       		.byte	0x9f
 14923 0df0 58000000 		.4byte	.LVL345
 14924 0df4 6E000000 		.4byte	.LVL349
 14925 0df8 0100     		.2byte	0x1
 14926 0dfa 54       		.byte	0x54
 14927 0dfb 6E000000 		.4byte	.LVL349
 14928 0dff 94000000 		.4byte	.LFE31
 14929 0e03 0100     		.2byte	0x1
 14930 0e05 50       		.byte	0x50
 14931 0e06 00000000 		.4byte	0
 14932 0e0a 00000000 		.4byte	0
 14933              	.LLST94:
 14934 0e0e 00000000 		.4byte	.LVL350
 14935 0e12 06000000 		.4byte	.LVL351
 14936 0e16 0100     		.2byte	0x1
 14937 0e18 50       		.byte	0x50
 14938 0e19 06000000 		.4byte	.LVL351
 14939 0e1d 08000000 		.4byte	.LVL352
 14940 0e21 0400     		.2byte	0x4
 14941 0e23 F3       		.byte	0xf3
 14942 0e24 01       		.uleb128 0x1
 14943 0e25 50       		.byte	0x50
 14944 0e26 9F       		.byte	0x9f
 14945 0e27 08000000 		.4byte	.LVL352
 14946 0e2b 0A000000 		.4byte	.LVL353
 14947 0e2f 0100     		.2byte	0x1
 14948 0e31 50       		.byte	0x50
 14949 0e32 0A000000 		.4byte	.LVL353
 14950 0e36 20000000 		.4byte	.LFE32
 14951 0e3a 0400     		.2byte	0x4
 14952 0e3c F3       		.byte	0xf3
 14953 0e3d 01       		.uleb128 0x1
 14954 0e3e 50       		.byte	0x50
 14955 0e3f 9F       		.byte	0x9f
 14956 0e40 00000000 		.4byte	0
 14957 0e44 00000000 		.4byte	0
 14958              	.LLST95:
 14959 0e48 00000000 		.4byte	.LVL359
 14960 0e4c 0B000000 		.4byte	.LVL360-1
 14961 0e50 0100     		.2byte	0x1
 14962 0e52 50       		.byte	0x50
 14963 0e53 0B000000 		.4byte	.LVL360-1
ARM GAS  C:\Users\AHMED~1.ELE\AppData\Local\Temp\ccAQ67OG.s 			page 304


 14964 0e57 8E000000 		.4byte	.LVL379
 14965 0e5b 0100     		.2byte	0x1
 14966 0e5d 58       		.byte	0x58
 14967 0e5e 8E000000 		.4byte	.LVL379
 14968 0e62 A0000000 		.4byte	.LFE35
 14969 0e66 0400     		.2byte	0x4
 14970 0e68 F3       		.byte	0xf3
 14971 0e69 01       		.uleb128 0x1
 14972 0e6a 50       		.byte	0x50
 14973 0e6b 9F       		.byte	0x9f
 14974 0e6c 00000000 		.4byte	0
 14975 0e70 00000000 		.4byte	0
 14976              	.LLST96:
 14977 0e74 00000000 		.4byte	.LVL359
 14978 0e78 0B000000 		.4byte	.LVL360-1
 14979 0e7c 0100     		.2byte	0x1
 14980 0e7e 51       		.byte	0x51
 14981 0e7f 0B000000 		.4byte	.LVL360-1
 14982 0e83 8E000000 		.4byte	.LVL379
 14983 0e87 0100     		.2byte	0x1
 14984 0e89 57       		.byte	0x57
 14985 0e8a 8E000000 		.4byte	.LVL379
 14986 0e8e A0000000 		.4byte	.LFE35
 14987 0e92 0400     		.2byte	0x4
 14988 0e94 F3       		.byte	0xf3
 14989 0e95 01       		.uleb128 0x1
 14990 0e96 51       		.byte	0x51
 14991 0e97 9F       		.byte	0x9f
 14992 0e98 00000000 		.4byte	0
 14993 0e9c 00000000 		.4byte	0
 14994              	.LLST97:
 14995 0ea0 26000000 		.4byte	.LVL363
 14996 0ea4 8E000000 		.4byte	.LVL379
 14997 0ea8 0100     		.2byte	0x1
 14998 0eaa 57       		.byte	0x57
 14999 0eab 8E000000 		.4byte	.LVL379
 15000 0eaf A0000000 		.4byte	.LFE35
 15001 0eb3 0400     		.2byte	0x4
 15002 0eb5 F3       		.byte	0xf3
 15003 0eb6 01       		.uleb128 0x1
 15004 0eb7 51       		.byte	0x51
 15005 0eb8 9F       		.byte	0x9f
 15006 0eb9 00000000 		.4byte	0
 15007 0ebd 00000000 		.4byte	0
 15008              	.LLST98:
 15009 0ec1 26000000 		.4byte	.LVL363
 15010 0ec5 8E000000 		.4byte	.LVL379
 15011 0ec9 0100     		.2byte	0x1
 15012 0ecb 58       		.byte	0x58
 15013 0ecc 8E000000 		.4byte	.LVL379
 15014 0ed0 A0000000 		.4byte	.LFE35
 15015 0ed4 0400     		.2byte	0x4
 15016 0ed6 F3       		.byte	0xf3
 15017 0ed7 01       		.uleb128 0x1
 15018 0ed8 50       		.byte	0x50
 15019 0ed9 9F       		.byte	0x9f
 15020 0eda 00000000 		.4byte	0
ARM GAS  C:\Users\AHMED~1.ELE\AppData\Local\Temp\ccAQ67OG.s 			page 305


 15021 0ede 00000000 		.4byte	0
 15022              	.LLST99:
 15023 0ee2 2E000000 		.4byte	.LVL364
 15024 0ee6 36000000 		.4byte	.LVL365
 15025 0eea 0100     		.2byte	0x1
 15026 0eec 50       		.byte	0x50
 15027 0eed 36000000 		.4byte	.LVL365
 15028 0ef1 8E000000 		.4byte	.LVL379
 15029 0ef5 0100     		.2byte	0x1
 15030 0ef7 56       		.byte	0x56
 15031 0ef8 00000000 		.4byte	0
 15032 0efc 00000000 		.4byte	0
 15033              	.LLST100:
 15034 0f00 4C000000 		.4byte	.LVL369
 15035 0f04 58000000 		.4byte	.LVL371
 15036 0f08 0100     		.2byte	0x1
 15037 0f0a 50       		.byte	0x50
 15038 0f0b 58000000 		.4byte	.LVL371
 15039 0f0f 6E000000 		.4byte	.LVL377
 15040 0f13 0100     		.2byte	0x1
 15041 0f15 55       		.byte	0x55
 15042 0f16 6E000000 		.4byte	.LVL377
 15043 0f1a 8E000000 		.4byte	.LVL379
 15044 0f1e 0300     		.2byte	0x3
 15045 0f20 75       		.byte	0x75
 15046 0f21 7E       		.sleb128 -2
 15047 0f22 9F       		.byte	0x9f
 15048 0f23 00000000 		.4byte	0
 15049 0f27 00000000 		.4byte	0
 15050              	.LLST101:
 15051 0f2b 64000000 		.4byte	.LVL373
 15052 0f2f 66000000 		.4byte	.LVL374
 15053 0f33 0100     		.2byte	0x1
 15054 0f35 50       		.byte	0x50
 15055 0f36 66000000 		.4byte	.LVL374
 15056 0f3a 68000000 		.4byte	.LVL375
 15057 0f3e 0800     		.2byte	0x8
 15058 0f40 70       		.byte	0x70
 15059 0f41 00       		.sleb128 0
 15060 0f42 75       		.byte	0x75
 15061 0f43 00       		.sleb128 0
 15062 0f44 22       		.byte	0x22
 15063 0f45 23       		.byte	0x23
 15064 0f46 01       		.uleb128 0x1
 15065 0f47 9F       		.byte	0x9f
 15066 0f48 68000000 		.4byte	.LVL375
 15067 0f4c 6E000000 		.4byte	.LVL377
 15068 0f50 0800     		.2byte	0x8
 15069 0f52 75       		.byte	0x75
 15070 0f53 00       		.sleb128 0
 15071 0f54 79       		.byte	0x79
 15072 0f55 00       		.sleb128 0
 15073 0f56 22       		.byte	0x22
 15074 0f57 23       		.byte	0x23
 15075 0f58 01       		.uleb128 0x1
 15076 0f59 9F       		.byte	0x9f
 15077 0f5a 6E000000 		.4byte	.LVL377
ARM GAS  C:\Users\AHMED~1.ELE\AppData\Local\Temp\ccAQ67OG.s 			page 306


 15078 0f5e 8E000000 		.4byte	.LVL379
 15079 0f62 0800     		.2byte	0x8
 15080 0f64 75       		.byte	0x75
 15081 0f65 00       		.sleb128 0
 15082 0f66 79       		.byte	0x79
 15083 0f67 00       		.sleb128 0
 15084 0f68 22       		.byte	0x22
 15085 0f69 31       		.byte	0x31
 15086 0f6a 1C       		.byte	0x1c
 15087 0f6b 9F       		.byte	0x9f
 15088 0f6c 00000000 		.4byte	0
 15089 0f70 00000000 		.4byte	0
 15090              	.LLST102:
 15091 0f74 40000000 		.4byte	.LVL367
 15092 0f78 8E000000 		.4byte	.LVL379
 15093 0f7c 0100     		.2byte	0x1
 15094 0f7e 54       		.byte	0x54
 15095 0f7f 00000000 		.4byte	0
 15096 0f83 00000000 		.4byte	0
 15097              	.LLST103:
 15098 0f87 5A000000 		.4byte	.LVL388
 15099 0f8b 6B000000 		.4byte	.LVL390-1
 15100 0f8f 0100     		.2byte	0x1
 15101 0f91 50       		.byte	0x50
 15102 0f92 6B000000 		.4byte	.LVL390-1
 15103 0f96 9A010000 		.4byte	.LVL415
 15104 0f9a 0100     		.2byte	0x1
 15105 0f9c 5A       		.byte	0x5a
 15106 0f9d A6010000 		.4byte	.LVL418
 15107 0fa1 AA010000 		.4byte	.LVL419
 15108 0fa5 0100     		.2byte	0x1
 15109 0fa7 5A       		.byte	0x5a
 15110 0fa8 00000000 		.4byte	0
 15111 0fac 00000000 		.4byte	0
 15112              	.LLST104:
 15113 0fb0 32000000 		.4byte	.LVL385
 15114 0fb4 AC010000 		.4byte	.LVL420
 15115 0fb8 0100     		.2byte	0x1
 15116 0fba 57       		.byte	0x57
 15117 0fbb AE010000 		.4byte	.LVL421
 15118 0fbf B2010000 		.4byte	.LVL422
 15119 0fc3 0100     		.2byte	0x1
 15120 0fc5 57       		.byte	0x57
 15121 0fc6 00000000 		.4byte	0
 15122 0fca 00000000 		.4byte	0
 15123              	.LLST105:
 15124 0fce 30000000 		.4byte	.LVL384
 15125 0fd2 32000000 		.4byte	.LVL385
 15126 0fd6 0200     		.2byte	0x2
 15127 0fd8 30       		.byte	0x30
 15128 0fd9 9F       		.byte	0x9f
 15129 0fda 32000000 		.4byte	.LVL385
 15130 0fde 66000000 		.4byte	.LVL389
 15131 0fe2 0100     		.2byte	0x1
 15132 0fe4 56       		.byte	0x56
 15133 0fe5 70000000 		.4byte	.LVL391
 15134 0fe9 B2010000 		.4byte	.LVL422
ARM GAS  C:\Users\AHMED~1.ELE\AppData\Local\Temp\ccAQ67OG.s 			page 307


 15135 0fed 0100     		.2byte	0x1
 15136 0fef 56       		.byte	0x56
 15137 0ff0 00000000 		.4byte	0
 15138 0ff4 00000000 		.4byte	0
 15139              	.LLST106:
 15140 0ff8 1A000000 		.4byte	.LVL382
 15141 0ffc 20000000 		.4byte	.LVL383
 15142 1000 0200     		.2byte	0x2
 15143 1002 31       		.byte	0x31
 15144 1003 9F       		.byte	0x9f
 15145 1004 00000000 		.4byte	0
 15146 1008 00000000 		.4byte	0
 15147              	.LLST107:
 15148 100c 72000000 		.4byte	.LVL392
 15149 1010 74000000 		.4byte	.LVL393
 15150 1014 0100     		.2byte	0x1
 15151 1016 50       		.byte	0x50
 15152 1017 74000000 		.4byte	.LVL393
 15153 101b 9A010000 		.4byte	.LVL415
 15154 101f 0200     		.2byte	0x2
 15155 1021 91       		.byte	0x91
 15156 1022 44       		.sleb128 -60
 15157 1023 A6010000 		.4byte	.LVL418
 15158 1027 AA010000 		.4byte	.LVL419
 15159 102b 0200     		.2byte	0x2
 15160 102d 91       		.byte	0x91
 15161 102e 44       		.sleb128 -60
 15162 102f 00000000 		.4byte	0
 15163 1033 00000000 		.4byte	0
 15164              	.LLST108:
 15165 1037 72000000 		.4byte	.LVL392
 15166 103b 9A010000 		.4byte	.LVL415
 15167 103f 0100     		.2byte	0x1
 15168 1041 5A       		.byte	0x5a
 15169 1042 A6010000 		.4byte	.LVL418
 15170 1046 AA010000 		.4byte	.LVL419
 15171 104a 0100     		.2byte	0x1
 15172 104c 5A       		.byte	0x5a
 15173 104d 00000000 		.4byte	0
 15174 1051 00000000 		.4byte	0
 15175              	.LLST109:
 15176 1055 72000000 		.4byte	.LVL392
 15177 1059 94010000 		.4byte	.LVL414
 15178 105d 0C00     		.2byte	0xc
 15179 105f 75       		.byte	0x75
 15180 1060 00       		.sleb128 0
 15181 1061 08       		.byte	0x8
 15182 1062 3C       		.byte	0x3c
 15183 1063 1E       		.byte	0x1e
 15184 1064 03       		.byte	0x3
 15185 1065 80440000 		.4byte	gGSMData+17536
 15186 1069 22       		.byte	0x22
 15187 106a 9F       		.byte	0x9f
 15188 106b 94010000 		.4byte	.LVL414
 15189 106f 9A010000 		.4byte	.LVL415
 15190 1073 0C00     		.2byte	0xc
 15191 1075 75       		.byte	0x75
ARM GAS  C:\Users\AHMED~1.ELE\AppData\Local\Temp\ccAQ67OG.s 			page 308


 15192 1076 7F       		.sleb128 -1
 15193 1077 08       		.byte	0x8
 15194 1078 3C       		.byte	0x3c
 15195 1079 1E       		.byte	0x1e
 15196 107a 03       		.byte	0x3
 15197 107b 80440000 		.4byte	gGSMData+17536
 15198 107f 22       		.byte	0x22
 15199 1080 9F       		.byte	0x9f
 15200 1081 A6010000 		.4byte	.LVL418
 15201 1085 AA010000 		.4byte	.LVL419
 15202 1089 0C00     		.2byte	0xc
 15203 108b 75       		.byte	0x75
 15204 108c 7F       		.sleb128 -1
 15205 108d 08       		.byte	0x8
 15206 108e 3C       		.byte	0x3c
 15207 108f 1E       		.byte	0x1e
 15208 1090 03       		.byte	0x3
 15209 1091 80440000 		.4byte	gGSMData+17536
 15210 1095 22       		.byte	0x22
 15211 1096 9F       		.byte	0x9f
 15212 1097 00000000 		.4byte	0
 15213 109b 00000000 		.4byte	0
 15214              	.LLST110:
 15215 109f 72000000 		.4byte	.LVL392
 15216 10a3 80000000 		.4byte	.LVL395
 15217 10a7 0200     		.2byte	0x2
 15218 10a9 30       		.byte	0x30
 15219 10aa 9F       		.byte	0x9f
 15220 10ab 80000000 		.4byte	.LVL395
 15221 10af 9C000000 		.4byte	.LVL398
 15222 10b3 0100     		.2byte	0x1
 15223 10b5 51       		.byte	0x51
 15224 10b6 B4000000 		.4byte	.LVL400
 15225 10ba CC000000 		.4byte	.LVL404
 15226 10be 0100     		.2byte	0x1
 15227 10c0 51       		.byte	0x51
 15228 10c1 CC000000 		.4byte	.LVL404
 15229 10c5 D6000000 		.4byte	.LVL405
 15230 10c9 0100     		.2byte	0x1
 15231 10cb 52       		.byte	0x52
 15232 10cc D6000000 		.4byte	.LVL405
 15233 10d0 1E010000 		.4byte	.LVL410
 15234 10d4 0100     		.2byte	0x1
 15235 10d6 51       		.byte	0x51
 15236 10d7 00000000 		.4byte	0
 15237 10db 00000000 		.4byte	0
 15238              	.LLST111:
 15239 10df 72000000 		.4byte	.LVL392
 15240 10e3 80000000 		.4byte	.LVL395
 15241 10e7 0200     		.2byte	0x2
 15242 10e9 30       		.byte	0x30
 15243 10ea 9F       		.byte	0x9f
 15244 10eb 80000000 		.4byte	.LVL395
 15245 10ef E6000000 		.4byte	.LVL406
 15246 10f3 0100     		.2byte	0x1
 15247 10f5 59       		.byte	0x59
 15248 10f6 E6000000 		.4byte	.LVL406
ARM GAS  C:\Users\AHMED~1.ELE\AppData\Local\Temp\ccAQ67OG.s 			page 309


 15249 10fa FA000000 		.4byte	.LVL407
 15250 10fe 0100     		.2byte	0x1
 15251 1100 5C       		.byte	0x5c
 15252 1101 FA000000 		.4byte	.LVL407
 15253 1105 9A010000 		.4byte	.LVL415
 15254 1109 0100     		.2byte	0x1
 15255 110b 59       		.byte	0x59
 15256 110c A6010000 		.4byte	.LVL418
 15257 1110 AA010000 		.4byte	.LVL419
 15258 1114 0100     		.2byte	0x1
 15259 1116 59       		.byte	0x59
 15260 1117 00000000 		.4byte	0
 15261 111b 00000000 		.4byte	0
 15262              	.LLST112:
 15263 111f 72000000 		.4byte	.LVL392
 15264 1123 80000000 		.4byte	.LVL395
 15265 1127 0200     		.2byte	0x2
 15266 1129 30       		.byte	0x30
 15267 112a 9F       		.byte	0x9f
 15268 112b 80000000 		.4byte	.LVL395
 15269 112f 0A010000 		.4byte	.LVL408
 15270 1133 0100     		.2byte	0x1
 15271 1135 58       		.byte	0x58
 15272 1136 0A010000 		.4byte	.LVL408
 15273 113a 1C010000 		.4byte	.LVL409
 15274 113e 0100     		.2byte	0x1
 15275 1140 5C       		.byte	0x5c
 15276 1141 1C010000 		.4byte	.LVL409
 15277 1145 9A010000 		.4byte	.LVL415
 15278 1149 0100     		.2byte	0x1
 15279 114b 58       		.byte	0x58
 15280 114c A6010000 		.4byte	.LVL418
 15281 1150 AA010000 		.4byte	.LVL419
 15282 1154 0100     		.2byte	0x1
 15283 1156 58       		.byte	0x58
 15284 1157 00000000 		.4byte	0
 15285 115b 00000000 		.4byte	0
 15286              	.LLST113:
 15287 115f 80000000 		.4byte	.LVL395
 15288 1163 8E000000 		.4byte	.LVL396
 15289 1167 0100     		.2byte	0x1
 15290 1169 50       		.byte	0x50
 15291 116a 8E000000 		.4byte	.LVL396
 15292 116e 98000000 		.4byte	.LVL397
 15293 1172 0300     		.2byte	0x3
 15294 1174 70       		.byte	0x70
 15295 1175 7F       		.sleb128 -1
 15296 1176 9F       		.byte	0x9f
 15297 1177 B4000000 		.4byte	.LVL400
 15298 117b B8000000 		.4byte	.LVL402
 15299 117f 0300     		.2byte	0x3
 15300 1181 70       		.byte	0x70
 15301 1182 7F       		.sleb128 -1
 15302 1183 9F       		.byte	0x9f
 15303 1184 B8000000 		.4byte	.LVL402
 15304 1188 BA000000 		.4byte	.LVL403
 15305 118c 0100     		.2byte	0x1
ARM GAS  C:\Users\AHMED~1.ELE\AppData\Local\Temp\ccAQ67OG.s 			page 310


 15306 118e 50       		.byte	0x50
 15307 118f BA000000 		.4byte	.LVL403
 15308 1193 1C010000 		.4byte	.LVL409
 15309 1197 0300     		.2byte	0x3
 15310 1199 70       		.byte	0x70
 15311 119a 7F       		.sleb128 -1
 15312 119b 9F       		.byte	0x9f
 15313 119c 1C010000 		.4byte	.LVL409
 15314 11a0 1E010000 		.4byte	.LVL410
 15315 11a4 0100     		.2byte	0x1
 15316 11a6 50       		.byte	0x50
 15317 11a7 00000000 		.4byte	0
 15318 11ab 00000000 		.4byte	0
 15319              	.LLST114:
 15320 11af 72000000 		.4byte	.LVL392
 15321 11b3 80000000 		.4byte	.LVL395
 15322 11b7 0200     		.2byte	0x2
 15323 11b9 30       		.byte	0x30
 15324 11ba 9F       		.byte	0x9f
 15325 11bb 80000000 		.4byte	.LVL395
 15326 11bf A1000000 		.4byte	.LVL399-1
 15327 11c3 0100     		.2byte	0x1
 15328 11c5 53       		.byte	0x53
 15329 11c6 B4000000 		.4byte	.LVL400
 15330 11ca B6000000 		.4byte	.LVL401
 15331 11ce 0100     		.2byte	0x1
 15332 11d0 53       		.byte	0x53
 15333 11d1 B8000000 		.4byte	.LVL402
 15334 11d5 1E010000 		.4byte	.LVL410
 15335 11d9 0100     		.2byte	0x1
 15336 11db 53       		.byte	0x53
 15337 11dc 00000000 		.4byte	0
 15338 11e0 00000000 		.4byte	0
 15339              	.LLST115:
 15340 11e4 A0010000 		.4byte	.LVL416
 15341 11e8 A6010000 		.4byte	.LVL418
 15342 11ec 0200     		.2byte	0x2
 15343 11ee 30       		.byte	0x30
 15344 11ef 9F       		.byte	0x9f
 15345 11f0 00000000 		.4byte	0
 15346 11f4 00000000 		.4byte	0
 15347              	.LLST116:
 15348 11f8 B2010000 		.4byte	.LVL422
 15349 11fc 62020000 		.4byte	.LVL428
 15350 1200 0100     		.2byte	0x1
 15351 1202 57       		.byte	0x57
 15352 1203 64020000 		.4byte	.LVL429
 15353 1207 6A020000 		.4byte	.LVL430
 15354 120b 0100     		.2byte	0x1
 15355 120d 57       		.byte	0x57
 15356 120e 00000000 		.4byte	0
 15357 1212 00000000 		.4byte	0
 15358              	.LLST117:
 15359 1216 C8010000 		.4byte	.LVL423
 15360 121a CA010000 		.4byte	.LVL424
 15361 121e 0100     		.2byte	0x1
 15362 1220 58       		.byte	0x58
ARM GAS  C:\Users\AHMED~1.ELE\AppData\Local\Temp\ccAQ67OG.s 			page 311


 15363 1221 CA010000 		.4byte	.LVL424
 15364 1225 5C020000 		.4byte	.LVL426
 15365 1229 0100     		.2byte	0x1
 15366 122b 56       		.byte	0x56
 15367 122c 5E020000 		.4byte	.LVL427
 15368 1230 64020000 		.4byte	.LVL429
 15369 1234 0100     		.2byte	0x1
 15370 1236 56       		.byte	0x56
 15371 1237 00000000 		.4byte	0
 15372 123b 00000000 		.4byte	0
 15373              	.LLST118:
 15374 123f 00000000 		.4byte	.LVL431
 15375 1243 27000000 		.4byte	.LVL432-1
 15376 1247 0100     		.2byte	0x1
 15377 1249 50       		.byte	0x50
 15378 124a 27000000 		.4byte	.LVL432-1
 15379 124e F4000000 		.4byte	.LVL451
 15380 1252 0100     		.2byte	0x1
 15381 1254 57       		.byte	0x57
 15382 1255 F4000000 		.4byte	.LVL451
 15383 1259 0C010000 		.4byte	.LFE39
 15384 125d 0400     		.2byte	0x4
 15385 125f F3       		.byte	0xf3
 15386 1260 01       		.uleb128 0x1
 15387 1261 50       		.byte	0x50
 15388 1262 9F       		.byte	0x9f
 15389 1263 00000000 		.4byte	0
 15390 1267 00000000 		.4byte	0
 15391              	.LLST119:
 15392 126b 00000000 		.4byte	.LVL431
 15393 126f 27000000 		.4byte	.LVL432-1
 15394 1273 0100     		.2byte	0x1
 15395 1275 51       		.byte	0x51
 15396 1276 27000000 		.4byte	.LVL432-1
 15397 127a F4000000 		.4byte	.LVL451
 15398 127e 0100     		.2byte	0x1
 15399 1280 58       		.byte	0x58
 15400 1281 F4000000 		.4byte	.LVL451
 15401 1285 0C010000 		.4byte	.LFE39
 15402 1289 0400     		.2byte	0x4
 15403 128b F3       		.byte	0xf3
 15404 128c 01       		.uleb128 0x1
 15405 128d 51       		.byte	0x51
 15406 128e 9F       		.byte	0x9f
 15407 128f 00000000 		.4byte	0
 15408 1293 00000000 		.4byte	0
 15409              	.LLST120:
 15410 1297 60000000 		.4byte	.LVL437
 15411 129b 74000000 		.4byte	.LVL438
 15412 129f 0100     		.2byte	0x1
 15413 12a1 50       		.byte	0x50
 15414 12a2 74000000 		.4byte	.LVL438
 15415 12a6 8A000000 		.4byte	.LVL442
 15416 12aa 0100     		.2byte	0x1
 15417 12ac 5B       		.byte	0x5b
 15418 12ad 00000000 		.4byte	0
 15419 12b1 00000000 		.4byte	0
ARM GAS  C:\Users\AHMED~1.ELE\AppData\Local\Temp\ccAQ67OG.s 			page 312


 15420              	.LLST121:
 15421 12b5 7A000000 		.4byte	.LVL439
 15422 12b9 80000000 		.4byte	.LVL440
 15423 12bd 0100     		.2byte	0x1
 15424 12bf 50       		.byte	0x50
 15425 12c0 80000000 		.4byte	.LVL440
 15426 12c4 D4000000 		.4byte	.LVL447
 15427 12c8 0100     		.2byte	0x1
 15428 12ca 54       		.byte	0x54
 15429 12cb 00000000 		.4byte	0
 15430 12cf 00000000 		.4byte	0
 15431              	.LLST122:
 15432 12d3 30000000 		.4byte	.LVL433
 15433 12d7 36000000 		.4byte	.LVL434
 15434 12db 0200     		.2byte	0x2
 15435 12dd 30       		.byte	0x30
 15436 12de 9F       		.byte	0x9f
 15437 12df 00000000 		.4byte	0
 15438 12e3 00000000 		.4byte	0
 15439              	.LLST123:
 15440 12e7 E0000000 		.4byte	.LVL448
 15441 12eb E8000000 		.4byte	.LVL450
 15442 12ef 0200     		.2byte	0x2
 15443 12f1 31       		.byte	0x31
 15444 12f2 9F       		.byte	0x9f
 15445 12f3 00000000 		.4byte	0
 15446 12f7 00000000 		.4byte	0
 15447              	.LLST124:
 15448 12fb 00000000 		.4byte	.LVL452
 15449 12ff 08000000 		.4byte	.LVL453
 15450 1303 0100     		.2byte	0x1
 15451 1305 50       		.byte	0x50
 15452 1306 08000000 		.4byte	.LVL453
 15453 130a 0F000000 		.4byte	.LVL454-1
 15454 130e 0100     		.2byte	0x1
 15455 1310 52       		.byte	0x52
 15456 1311 0F000000 		.4byte	.LVL454-1
 15457 1315 12000000 		.4byte	.LVL455
 15458 1319 0400     		.2byte	0x4
 15459 131b F3       		.byte	0xf3
 15460 131c 01       		.uleb128 0x1
 15461 131d 50       		.byte	0x50
 15462 131e 9F       		.byte	0x9f
 15463 131f 12000000 		.4byte	.LVL455
 15464 1323 17000000 		.4byte	.LVL456-1
 15465 1327 0100     		.2byte	0x1
 15466 1329 52       		.byte	0x52
 15467 132a 17000000 		.4byte	.LVL456-1
 15468 132e 84000000 		.4byte	.LFE40
 15469 1332 0400     		.2byte	0x4
 15470 1334 F3       		.byte	0xf3
 15471 1335 01       		.uleb128 0x1
 15472 1336 50       		.byte	0x50
 15473 1337 9F       		.byte	0x9f
 15474 1338 00000000 		.4byte	0
 15475 133c 00000000 		.4byte	0
 15476              	.LLST125:
ARM GAS  C:\Users\AHMED~1.ELE\AppData\Local\Temp\ccAQ67OG.s 			page 313


 15477 1340 28000000 		.4byte	.LVL459
 15478 1344 6C000000 		.4byte	.LVL465
 15479 1348 0200     		.2byte	0x2
 15480 134a 38       		.byte	0x38
 15481 134b 9F       		.byte	0x9f
 15482 134c 00000000 		.4byte	0
 15483 1350 00000000 		.4byte	0
 15484              	.LLST126:
 15485 1354 30000000 		.4byte	.LVL460
 15486 1358 3B000000 		.4byte	.LVL461-1
 15487 135c 0100     		.2byte	0x1
 15488 135e 50       		.byte	0x50
 15489 135f 3B000000 		.4byte	.LVL461-1
 15490 1363 6C000000 		.4byte	.LVL465
 15491 1367 0100     		.2byte	0x1
 15492 1369 55       		.byte	0x55
 15493 136a 00000000 		.4byte	0
 15494 136e 00000000 		.4byte	0
 15495              	.LLST127:
 15496 1372 00000000 		.4byte	.LVL466
 15497 1376 27000000 		.4byte	.LVL467-1
 15498 137a 0100     		.2byte	0x1
 15499 137c 50       		.byte	0x50
 15500 137d 27000000 		.4byte	.LVL467-1
 15501 1381 AC000000 		.4byte	.LVL472
 15502 1385 0100     		.2byte	0x1
 15503 1387 59       		.byte	0x59
 15504 1388 AC000000 		.4byte	.LVL472
 15505 138c B4000000 		.4byte	.LFE41
 15506 1390 0400     		.2byte	0x4
 15507 1392 F3       		.byte	0xf3
 15508 1393 01       		.uleb128 0x1
 15509 1394 50       		.byte	0x50
 15510 1395 9F       		.byte	0x9f
 15511 1396 00000000 		.4byte	0
 15512 139a 00000000 		.4byte	0
 15513              	.LLST128:
 15514 139e 00000000 		.4byte	.LVL466
 15515 13a2 27000000 		.4byte	.LVL467-1
 15516 13a6 0100     		.2byte	0x1
 15517 13a8 51       		.byte	0x51
 15518 13a9 27000000 		.4byte	.LVL467-1
 15519 13ad AC000000 		.4byte	.LVL472
 15520 13b1 0100     		.2byte	0x1
 15521 13b3 58       		.byte	0x58
 15522 13b4 AC000000 		.4byte	.LVL472
 15523 13b8 B4000000 		.4byte	.LFE41
 15524 13bc 0400     		.2byte	0x4
 15525 13be F3       		.byte	0xf3
 15526 13bf 01       		.uleb128 0x1
 15527 13c0 51       		.byte	0x51
 15528 13c1 9F       		.byte	0x9f
 15529 13c2 00000000 		.4byte	0
 15530 13c6 00000000 		.4byte	0
 15531              	.LLST129:
 15532 13ca 00000000 		.4byte	.LVL466
 15533 13ce 27000000 		.4byte	.LVL467-1
ARM GAS  C:\Users\AHMED~1.ELE\AppData\Local\Temp\ccAQ67OG.s 			page 314


 15534 13d2 0100     		.2byte	0x1
 15535 13d4 52       		.byte	0x52
 15536 13d5 27000000 		.4byte	.LVL467-1
 15537 13d9 AC000000 		.4byte	.LVL472
 15538 13dd 0100     		.2byte	0x1
 15539 13df 57       		.byte	0x57
 15540 13e0 AC000000 		.4byte	.LVL472
 15541 13e4 B4000000 		.4byte	.LFE41
 15542 13e8 0400     		.2byte	0x4
 15543 13ea F3       		.byte	0xf3
 15544 13eb 01       		.uleb128 0x1
 15545 13ec 52       		.byte	0x52
 15546 13ed 9F       		.byte	0x9f
 15547 13ee 00000000 		.4byte	0
 15548 13f2 00000000 		.4byte	0
 15549              		.section	.debug_aranges,"",%progbits
 15550 0000 54010000 		.4byte	0x154
 15551 0004 0200     		.2byte	0x2
 15552 0006 00000000 		.4byte	.Ldebug_info0
 15553 000a 04       		.byte	0x4
 15554 000b 00       		.byte	0
 15555 000c 0000     		.2byte	0
 15556 000e 0000     		.2byte	0
 15557 0010 00000000 		.4byte	.LFB1
 15558 0014 48000000 		.4byte	.LFE1-.LFB1
 15559 0018 00000000 		.4byte	.LFB43
 15560 001c 28010000 		.4byte	.LFE43-.LFB43
 15561 0020 00000000 		.4byte	.LFB0
 15562 0024 68000000 		.4byte	.LFE0-.LFB0
 15563 0028 00000000 		.4byte	.LFB44
 15564 002c 3C000000 		.4byte	.LFE44-.LFB44
 15565 0030 00000000 		.4byte	.LFB49
 15566 0034 22000000 		.4byte	.LFE49-.LFB49
 15567 0038 00000000 		.4byte	.LFB2
 15568 003c 4C000000 		.4byte	.LFE2-.LFB2
 15569 0040 00000000 		.4byte	.LFB3
 15570 0044 38000000 		.4byte	.LFE3-.LFB3
 15571 0048 00000000 		.4byte	.LFB4
 15572 004c 84000000 		.4byte	.LFE4-.LFB4
 15573 0050 00000000 		.4byte	.LFB5
 15574 0054 34000000 		.4byte	.LFE5-.LFB5
 15575 0058 00000000 		.4byte	.LFB8
 15576 005c BC000000 		.4byte	.LFE8-.LFB8
 15577 0060 00000000 		.4byte	.LFB10
 15578 0064 B4000000 		.4byte	.LFE10-.LFB10
 15579 0068 00000000 		.4byte	.LFB11
 15580 006c 48000000 		.4byte	.LFE11-.LFB11
 15581 0070 00000000 		.4byte	.LFB12
 15582 0074 B8000000 		.4byte	.LFE12-.LFB12
 15583 0078 00000000 		.4byte	.LFB13
 15584 007c 00010000 		.4byte	.LFE13-.LFB13
 15585 0080 00000000 		.4byte	.LFB14
 15586 0084 90000000 		.4byte	.LFE14-.LFB14
 15587 0088 00000000 		.4byte	.LFB15
 15588 008c 5C000000 		.4byte	.LFE15-.LFB15
 15589 0090 00000000 		.4byte	.LFB16
 15590 0094 4C000000 		.4byte	.LFE16-.LFB16
ARM GAS  C:\Users\AHMED~1.ELE\AppData\Local\Temp\ccAQ67OG.s 			page 315


 15591 0098 00000000 		.4byte	.LFB17
 15592 009c 40000000 		.4byte	.LFE17-.LFB17
 15593 00a0 00000000 		.4byte	.LFB18
 15594 00a4 4C000000 		.4byte	.LFE18-.LFB18
 15595 00a8 00000000 		.4byte	.LFB19
 15596 00ac 80000000 		.4byte	.LFE19-.LFB19
 15597 00b0 00000000 		.4byte	.LFB20
 15598 00b4 28000000 		.4byte	.LFE20-.LFB20
 15599 00b8 00000000 		.4byte	.LFB21
 15600 00bc 1C000000 		.4byte	.LFE21-.LFB21
 15601 00c0 00000000 		.4byte	.LFB22
 15602 00c4 28000000 		.4byte	.LFE22-.LFB22
 15603 00c8 00000000 		.4byte	.LFB23
 15604 00cc 58000000 		.4byte	.LFE23-.LFB23
 15605 00d0 00000000 		.4byte	.LFB24
 15606 00d4 54000000 		.4byte	.LFE24-.LFB24
 15607 00d8 00000000 		.4byte	.LFB25
 15608 00dc 20000000 		.4byte	.LFE25-.LFB25
 15609 00e0 00000000 		.4byte	.LFB26
 15610 00e4 3C000000 		.4byte	.LFE26-.LFB26
 15611 00e8 00000000 		.4byte	.LFB27
 15612 00ec 6C000000 		.4byte	.LFE27-.LFB27
 15613 00f0 00000000 		.4byte	.LFB28
 15614 00f4 98000000 		.4byte	.LFE28-.LFB28
 15615 00f8 00000000 		.4byte	.LFB29
 15616 00fc 80000000 		.4byte	.LFE29-.LFB29
 15617 0100 00000000 		.4byte	.LFB30
 15618 0104 4C000000 		.4byte	.LFE30-.LFB30
 15619 0108 00000000 		.4byte	.LFB31
 15620 010c 94000000 		.4byte	.LFE31-.LFB31
 15621 0110 00000000 		.4byte	.LFB32
 15622 0114 20000000 		.4byte	.LFE32-.LFB32
 15623 0118 00000000 		.4byte	.LFB33
 15624 011c 4C000000 		.4byte	.LFE33-.LFB33
 15625 0120 00000000 		.4byte	.LFB35
 15626 0124 A0000000 		.4byte	.LFE35-.LFB35
 15627 0128 00000000 		.4byte	.LFB38
 15628 012c 9C020000 		.4byte	.LFE38-.LFB38
 15629 0130 00000000 		.4byte	.LFB39
 15630 0134 0C010000 		.4byte	.LFE39-.LFB39
 15631 0138 00000000 		.4byte	.LFB40
 15632 013c 84000000 		.4byte	.LFE40-.LFB40
 15633 0140 00000000 		.4byte	.LFB41
 15634 0144 B4000000 		.4byte	.LFE41-.LFB41
 15635 0148 00000000 		.4byte	.LFB42
 15636 014c 38000000 		.4byte	.LFE42-.LFB42
 15637 0150 00000000 		.4byte	0
 15638 0154 00000000 		.4byte	0
 15639              		.section	.debug_ranges,"",%progbits
 15640              	.Ldebug_ranges0:
 15641 0000 4E000000 		.4byte	.LBB12
 15642 0004 50000000 		.4byte	.LBE12
 15643 0008 52000000 		.4byte	.LBB15
 15644 000c A0000000 		.4byte	.LBE15
 15645 0010 00000000 		.4byte	0
 15646 0014 00000000 		.4byte	0
 15647 0018 3C000000 		.4byte	.LBB18
ARM GAS  C:\Users\AHMED~1.ELE\AppData\Local\Temp\ccAQ67OG.s 			page 316


 15648 001c AC000000 		.4byte	.LBE18
 15649 0020 B6000000 		.4byte	.LBB21
 15650 0024 B8000000 		.4byte	.LBE21
 15651 0028 00000000 		.4byte	0
 15652 002c 00000000 		.4byte	0
 15653 0030 6C000000 		.4byte	.LBB41
 15654 0034 6E000000 		.4byte	.LBE41
 15655 0038 72000000 		.4byte	.LBB44
 15656 003c 74010000 		.4byte	.LBE44
 15657 0040 00000000 		.4byte	0
 15658 0044 00000000 		.4byte	0
 15659 0048 00000000 		.4byte	.LFB1
 15660 004c 48000000 		.4byte	.LFE1
 15661 0050 00000000 		.4byte	.LFB43
 15662 0054 28010000 		.4byte	.LFE43
 15663 0058 00000000 		.4byte	.LFB0
 15664 005c 68000000 		.4byte	.LFE0
 15665 0060 00000000 		.4byte	.LFB44
 15666 0064 3C000000 		.4byte	.LFE44
 15667 0068 00000000 		.4byte	.LFB49
 15668 006c 22000000 		.4byte	.LFE49
 15669 0070 00000000 		.4byte	.LFB2
 15670 0074 4C000000 		.4byte	.LFE2
 15671 0078 00000000 		.4byte	.LFB3
 15672 007c 38000000 		.4byte	.LFE3
 15673 0080 00000000 		.4byte	.LFB4
 15674 0084 84000000 		.4byte	.LFE4
 15675 0088 00000000 		.4byte	.LFB5
 15676 008c 34000000 		.4byte	.LFE5
 15677 0090 00000000 		.4byte	.LFB8
 15678 0094 BC000000 		.4byte	.LFE8
 15679 0098 00000000 		.4byte	.LFB10
 15680 009c B4000000 		.4byte	.LFE10
 15681 00a0 00000000 		.4byte	.LFB11
 15682 00a4 48000000 		.4byte	.LFE11
 15683 00a8 00000000 		.4byte	.LFB12
 15684 00ac B8000000 		.4byte	.LFE12
 15685 00b0 00000000 		.4byte	.LFB13
 15686 00b4 00010000 		.4byte	.LFE13
 15687 00b8 00000000 		.4byte	.LFB14
 15688 00bc 90000000 		.4byte	.LFE14
 15689 00c0 00000000 		.4byte	.LFB15
 15690 00c4 5C000000 		.4byte	.LFE15
 15691 00c8 00000000 		.4byte	.LFB16
 15692 00cc 4C000000 		.4byte	.LFE16
 15693 00d0 00000000 		.4byte	.LFB17
 15694 00d4 40000000 		.4byte	.LFE17
 15695 00d8 00000000 		.4byte	.LFB18
 15696 00dc 4C000000 		.4byte	.LFE18
 15697 00e0 00000000 		.4byte	.LFB19
 15698 00e4 80000000 		.4byte	.LFE19
 15699 00e8 00000000 		.4byte	.LFB20
 15700 00ec 28000000 		.4byte	.LFE20
 15701 00f0 00000000 		.4byte	.LFB21
 15702 00f4 1C000000 		.4byte	.LFE21
 15703 00f8 00000000 		.4byte	.LFB22
 15704 00fc 28000000 		.4byte	.LFE22
ARM GAS  C:\Users\AHMED~1.ELE\AppData\Local\Temp\ccAQ67OG.s 			page 317


 15705 0100 00000000 		.4byte	.LFB23
 15706 0104 58000000 		.4byte	.LFE23
 15707 0108 00000000 		.4byte	.LFB24
 15708 010c 54000000 		.4byte	.LFE24
 15709 0110 00000000 		.4byte	.LFB25
 15710 0114 20000000 		.4byte	.LFE25
 15711 0118 00000000 		.4byte	.LFB26
 15712 011c 3C000000 		.4byte	.LFE26
 15713 0120 00000000 		.4byte	.LFB27
 15714 0124 6C000000 		.4byte	.LFE27
 15715 0128 00000000 		.4byte	.LFB28
 15716 012c 98000000 		.4byte	.LFE28
 15717 0130 00000000 		.4byte	.LFB29
 15718 0134 80000000 		.4byte	.LFE29
 15719 0138 00000000 		.4byte	.LFB30
 15720 013c 4C000000 		.4byte	.LFE30
 15721 0140 00000000 		.4byte	.LFB31
 15722 0144 94000000 		.4byte	.LFE31
 15723 0148 00000000 		.4byte	.LFB32
 15724 014c 20000000 		.4byte	.LFE32
 15725 0150 00000000 		.4byte	.LFB33
 15726 0154 4C000000 		.4byte	.LFE33
 15727 0158 00000000 		.4byte	.LFB35
 15728 015c A0000000 		.4byte	.LFE35
 15729 0160 00000000 		.4byte	.LFB38
 15730 0164 9C020000 		.4byte	.LFE38
 15731 0168 00000000 		.4byte	.LFB39
 15732 016c 0C010000 		.4byte	.LFE39
 15733 0170 00000000 		.4byte	.LFB40
 15734 0174 84000000 		.4byte	.LFE40
 15735 0178 00000000 		.4byte	.LFB41
 15736 017c B4000000 		.4byte	.LFE41
 15737 0180 00000000 		.4byte	.LFB42
 15738 0184 38000000 		.4byte	.LFE42
 15739 0188 00000000 		.4byte	0
 15740 018c 00000000 		.4byte	0
 15741              		.section	.debug_line,"",%progbits
 15742              	.Ldebug_line0:
 15743 0000 FF060000 		.section	.debug_str,"MS",%progbits,1
 15743      02002601 
 15743      00000201 
 15743      FB0E0D00 
 15743      01010101 
 15744              	.LASF327:
 15745 0000 4F535F46 		.ascii	"OS_FN_CLICC_LED_OPEN\000"
 15745      4E5F434C 
 15745      4943435F 
 15745      4C45445F 
 15745      4F50454E 
 15746              	.LASF340:
 15747 0015 4F535F46 		.ascii	"OS_FN_DRIVER_REGISTER\000"
 15747      4E5F4452 
 15747      49564552 
 15747      5F524547 
 15747      49535445 
 15748              	.LASF10:
 15749 002b 63686172 		.ascii	"char\000"
ARM GAS  C:\Users\AHMED~1.ELE\AppData\Local\Temp\ccAQ67OG.s 			page 318


 15749      00
 15750              	.LASF315:
 15751 0030 4F535F46 		.ascii	"OS_FN_CODEC_CLOSE\000"
 15751      4E5F434F 
 15751      4445435F 
 15751      434C4F53 
 15751      4500
 15752              	.LASF824:
 15753 0042 436C6561 		.ascii	"ClearCmdBuf\000"
 15753      72436D64 
 15753      42756600 
 15754              	.LASF427:
 15755 004e 4F535F46 		.ascii	"OS_FN_GET_CALLID\000"
 15755      4E5F4745 
 15755      545F4341 
 15755      4C4C4944 
 15755      00
 15756              	.LASF515:
 15757 005f 67707273 		.ascii	"gprs_sms_tp_mti_list\000"
 15757      5F736D73 
 15757      5F74705F 
 15757      6D74695F 
 15757      6C697374 
 15758              	.LASF614:
 15759 0074 41504D5F 		.ascii	"APM_CLRKEY\000"
 15759      434C524B 
 15759      455900
 15760              	.LASF656:
 15761 007f 41504D5F 		.ascii	"APM_GET_REV_REC\000"
 15761      4745545F 
 15761      5245565F 
 15761      52454300 
 15762              	.LASF638:
 15763 008f 41504D5F 		.ascii	"APM_GETLOGOTBL\000"
 15763      4745544C 
 15763      4F474F54 
 15763      424C00
 15764              	.LASF193:
 15765 009e 4F535F46 		.ascii	"OS_FN_FILE_INIT_SEARCH\000"
 15765      4E5F4649 
 15765      4C455F49 
 15765      4E49545F 
 15765      53454152 
 15766              	.LASF722:
 15767 00b5 47657453 		.ascii	"GetSmsTotal\000"
 15767      6D73546F 
 15767      74616C00 
 15768              	.LASF680:
 15769 00c1 625F7374 		.ascii	"b_status\000"
 15769      61747573 
 15769      00
 15770              	.LASF11:
 15771 00ca 73697A65 		.ascii	"size_t\000"
 15771      5F7400
 15772              	.LASF173:
 15773 00d1 4F535F46 		.ascii	"OS_FN_FILE_SEEK\000"
 15773      4E5F4649 
ARM GAS  C:\Users\AHMED~1.ELE\AppData\Local\Temp\ccAQ67OG.s 			page 319


 15773      4C455F53 
 15773      45454B00 
 15774              	.LASF9:
 15775 00e1 73697A65 		.ascii	"sizetype\000"
 15775      74797065 
 15775      00
 15776              	.LASF414:
 15777 00ea 4F535F46 		.ascii	"OS_FN_NFC_IC_REG_DIRECT_WRITE\000"
 15777      4E5F4E46 
 15777      435F4943 
 15777      5F524547 
 15777      5F444952 
 15778              	.LASF805:
 15779 0108 67477072 		.ascii	"gGprsHandle\000"
 15779      7348616E 
 15779      646C6500 
 15780              	.LASF708:
 15781 0114 61557365 		.ascii	"aUsed\000"
 15781      6400
 15782              	.LASF303:
 15783 011a 4F535F46 		.ascii	"OS_FN_GPRS_SMS_SEND\000"
 15783      4E5F4750 
 15783      52535F53 
 15783      4D535F53 
 15783      454E4400 
 15784              	.LASF253:
 15785 012e 4F535F46 		.ascii	"OS_FN_FL_PAGE\000"
 15785      4E5F464C 
 15785      5F504147 
 15785      4500
 15786              	.LASF672:
 15787 013c 42555359 		.ascii	"BUSY\000"
 15787      00
 15788              	.LASF642:
 15789 0141 41504D5F 		.ascii	"APM_SETPENDING\000"
 15789      53455450 
 15789      454E4449 
 15789      4E4700
 15790              	.LASF630:
 15791 0150 41504D5F 		.ascii	"APM_GETCARDTBL\000"
 15791      47455443 
 15791      41524454 
 15791      424C00
 15792              	.LASF528:
 15793 015f 625F7479 		.ascii	"b_type\000"
 15793      706500
 15794              	.LASF654:
 15795 0166 41504D5F 		.ascii	"APM_GET_REC_COUNT\000"
 15795      4745545F 
 15795      5245435F 
 15795      434F554E 
 15795      5400
 15796              	.LASF332:
 15797 0178 4F535F46 		.ascii	"OS_FN_CLICC_LED_ON\000"
 15797      4E5F434C 
 15797      4943435F 
 15797      4C45445F 
ARM GAS  C:\Users\AHMED~1.ELE\AppData\Local\Temp\ccAQ67OG.s 			page 320


 15797      4F4E00
 15798              	.LASF339:
 15799 018b 4F535F46 		.ascii	"OS_FN_USBHOST_DEVICEMAP\000"
 15799      4E5F5553 
 15799      42484F53 
 15799      545F4445 
 15799      56494345 
 15800              	.LASF572:
 15801 01a3 464F5045 		.ascii	"FOPENMW\000"
 15801      4E4D5700 
 15802              	.LASF457:
 15803 01ab 4F535F46 		.ascii	"OS_FN_GCM_AES_OPEN\000"
 15803      4E5F4743 
 15803      4D5F4145 
 15803      535F4F50 
 15803      454E00
 15804              	.LASF597:
 15805 01be 44495350 		.ascii	"DISP_SETPMW\000"
 15805      5F534554 
 15805      504D5700 
 15806              	.LASF314:
 15807 01ca 4F535F46 		.ascii	"OS_FN_CODEC_OPEN\000"
 15807      4E5F434F 
 15807      4445435F 
 15807      4F50454E 
 15807      00
 15808              	.LASF704:
 15809 01db 72785F6C 		.ascii	"rx_len\000"
 15809      656E00
 15810              	.LASF605:
 15811 01e2 534D535F 		.ascii	"SMS_TX_MW\000"
 15811      54585F4D 
 15811      5700
 15812              	.LASF365:
 15813 01ec 4F535F46 		.ascii	"OS_FN_USBKBD_GETKEY\000"
 15813      4E5F5553 
 15813      424B4244 
 15813      5F474554 
 15813      4B455900 
 15814              	.LASF81:
 15815 0200 4F535F46 		.ascii	"OS_FN_COM3_SREAD\000"
 15815      4E5F434F 
 15815      4D335F53 
 15815      52454144 
 15815      00
 15816              	.LASF169:
 15817 0211 4F535F46 		.ascii	"OS_FN_FILE_EXIST\000"
 15817      4E5F4649 
 15817      4C455F45 
 15817      58495354 
 15817      00
 15818              	.LASF479:
 15819 0222 4F535F46 		.ascii	"OS_FN_IMG_SENSOR_LED_OPEN\000"
 15819      4E5F494D 
 15819      475F5345 
 15819      4E534F52 
 15819      5F4C4544 
ARM GAS  C:\Users\AHMED~1.ELE\AppData\Local\Temp\ccAQ67OG.s 			page 321


 15820              	.LASF118:
 15821 023c 4F535F46 		.ascii	"OS_FN_SM4_DECRYPT\000"
 15821      4E5F534D 
 15821      345F4445 
 15821      43525950 
 15821      5400
 15822              	.LASF649:
 15823 024e 41504D5F 		.ascii	"APM_STIS_ADDTBL\000"
 15823      53544953 
 15823      5F414444 
 15823      54424C00 
 15824              	.LASF487:
 15825 025e 4F535F46 		.ascii	"OS_FN_GPS_GET_DETAIL_INFO\000"
 15825      4E5F4750 
 15825      535F4745 
 15825      545F4445 
 15825      5441494C 
 15826              	.LASF724:
 15827 0278 61507472 		.ascii	"aPtr\000"
 15827      00
 15828              	.LASF299:
 15829 027d 4F535F46 		.ascii	"OS_FN_GPRS_GET_CID\000"
 15829      4E5F4750 
 15829      52535F47 
 15829      45545F43 
 15829      494400
 15830              	.LASF368:
 15831 0290 4F535F46 		.ascii	"OS_FN_TAMPER_RESET_STATUS\000"
 15831      4E5F5441 
 15831      4D504552 
 15831      5F524553 
 15831      45545F53 
 15832              	.LASF728:
 15833 02aa 614E616D 		.ascii	"aNameSize\000"
 15833      6553697A 
 15833      6500
 15834              	.LASF441:
 15835 02b4 4F535F46 		.ascii	"OS_FN_POWER\000"
 15835      4E5F504F 
 15835      57455200 
 15836              	.LASF706:
 15837 02c0 53657453 		.ascii	"SetSmsMode\000"
 15837      6D734D6F 
 15837      646500
 15838              	.LASF396:
 15839 02cb 4F535F46 		.ascii	"OS_FN_BARCODE_SCAN\000"
 15839      4E5F4241 
 15839      52434F44 
 15839      455F5343 
 15839      414E00
 15840              	.LASF56:
 15841 02de 4F535F46 		.ascii	"OS_FN_COM1_OPEN\000"
 15841      4E5F434F 
 15841      4D315F4F 
 15841      50454E00 
 15842              	.LASF778:
 15843 02ee 4368616E 		.ascii	"ChangePin\000"
ARM GAS  C:\Users\AHMED~1.ELE\AppData\Local\Temp\ccAQ67OG.s 			page 322


 15843      67655069 
 15843      6E00
 15844              	.LASF289:
 15845 02f8 4F535F46 		.ascii	"OS_FN_ADC_CH_DISABLE\000"
 15845      4E5F4144 
 15845      435F4348 
 15845      5F444953 
 15845      41424C45 
 15846              	.LASF215:
 15847 030d 4F535F46 		.ascii	"OS_FN_MMC_SIZE\000"
 15847      4E5F4D4D 
 15847      435F5349 
 15847      5A4500
 15848              	.LASF750:
 15849 031c 53656C65 		.ascii	"SelectPHBook\000"
 15849      63745048 
 15849      426F6F6B 
 15849      00
 15850              	.LASF484:
 15851 0329 4F535F46 		.ascii	"OS_FN_TAMPER_UNLOCK\000"
 15851      4E5F5441 
 15851      4D504552 
 15851      5F554E4C 
 15851      4F434B00 
 15852              	.LASF501:
 15853 033d 4B5F4750 		.ascii	"K_GPRS_STATUS_CMUXUP\000"
 15853      52535F53 
 15853      54415455 
 15853      535F434D 
 15853      55585550 
 15854              	.LASF182:
 15855 0352 4F535F46 		.ascii	"OS_FN_FILE_DSEARCH_ALL\000"
 15855      4E5F4649 
 15855      4C455F44 
 15855      53454152 
 15855      43485F41 
 15856              	.LASF436:
 15857 0369 4F535F46 		.ascii	"OS_FN_DMK_KVC_READ\000"
 15857      4E5F444D 
 15857      4B5F4B56 
 15857      435F5245 
 15857      414400
 15858              	.LASF28:
 15859 037c 4F535F46 		.ascii	"OS_FN_TIMER_SET\000"
 15859      4E5F5449 
 15859      4D45525F 
 15859      53455400 
 15860              	.LASF129:
 15861 038c 4F535F46 		.ascii	"OS_FN_KEY_SAVE_NC\000"
 15861      4E5F4B45 
 15861      595F5341 
 15861      56455F4E 
 15861      4300
 15862              	.LASF463:
 15863 039e 4F535F46 		.ascii	"OS_FN_SYS_THREAD_CREATE\000"
 15863      4E5F5359 
 15863      535F5448 
ARM GAS  C:\Users\AHMED~1.ELE\AppData\Local\Temp\ccAQ67OG.s 			page 323


 15863      52454144 
 15863      5F435245 
 15864              	.LASF146:
 15865 03b6 4F535F46 		.ascii	"OS_FN_BUFMAN_FREE\000"
 15865      4E5F4255 
 15865      464D414E 
 15865      5F465245 
 15865      4500
 15866              	.LASF294:
 15867 03c8 4F535F46 		.ascii	"OS_FN_GPRS_AT_RESP\000"
 15867      4E5F4750 
 15867      52535F41 
 15867      545F5245 
 15867      535000
 15868              	.LASF610:
 15869 03db 46465452 		.ascii	"FFTRUNCATEMW\000"
 15869      554E4341 
 15869      54454D57 
 15869      00
 15870              	.LASF761:
 15871 03e8 746D7062 		.ascii	"tmpbuf\000"
 15871      756600
 15872              	.LASF673:
 15873 03ef 434F4E4E 		.ascii	"CONNECTING\000"
 15873      45435449 
 15873      4E4700
 15874              	.LASF743:
 15875 03fa 73746174 		.ascii	"state\000"
 15875      6500
 15876              	.LASF477:
 15877 0400 4F535F46 		.ascii	"OS_FN_GPRS_IS_HL6RD_OLD_FRM\000"
 15877      4E5F4750 
 15877      52535F49 
 15877      535F484C 
 15877      3652445F 
 15878              	.LASF278:
 15879 041c 4F535F46 		.ascii	"OS_FN_MCOM_TXRDY\000"
 15879      4E5F4D43 
 15879      4F4D5F54 
 15879      58524459 
 15879      00
 15880              	.LASF769:
 15881 042d 61547970 		.ascii	"aType\000"
 15881      6500
 15882              	.LASF222:
 15883 0433 4F535F46 		.ascii	"OS_FN_SLE_OPEN\000"
 15883      4E5F534C 
 15883      455F4F50 
 15883      454E00
 15884              	.LASF49:
 15885 0442 4F535F46 		.ascii	"OS_FN_DISP_BRIGHTNESS\000"
 15885      4E5F4449 
 15885      53505F42 
 15885      52494748 
 15885      544E4553 
 15886              	.LASF305:
 15887 0458 4F535F46 		.ascii	"OS_FN_GPRS_SMS_READ\000"
ARM GAS  C:\Users\AHMED~1.ELE\AppData\Local\Temp\ccAQ67OG.s 			page 324


 15887      4E5F4750 
 15887      52535F53 
 15887      4D535F52 
 15887      45414400 
 15888              	.LASF587:
 15889 046c 49434349 		.ascii	"ICCINSERTEDMW\000"
 15889      4E534552 
 15889      5445444D 
 15889      5700
 15890              	.LASF296:
 15891 047a 4F535F46 		.ascii	"OS_FN_GPRS_READ\000"
 15891      4E5F4750 
 15891      52535F52 
 15891      45414400 
 15892              	.LASF525:
 15893 048a 55534246 		.ascii	"USBFPRT_GENERAL_INFO_IMG_BPP\000"
 15893      5052545F 
 15893      47454E45 
 15893      52414C5F 
 15893      494E464F 
 15894              	.LASF189:
 15895 04a7 4F535F46 		.ascii	"OS_FN_FILE_GET_FREE_SPACE\000"
 15895      4E5F4649 
 15895      4C455F47 
 15895      45545F46 
 15895      5245455F 
 15896              	.LASF633:
 15897 04c1 41504D5F 		.ascii	"APM_GETACQCOUNT\000"
 15897      47455441 
 15897      4351434F 
 15897      554E5400 
 15898              	.LASF689:
 15899 04d1 645F7573 		.ascii	"d_used_count\000"
 15899      65645F63 
 15899      6F756E74 
 15899      00
 15900              	.LASF468:
 15901 04de 4F535F46 		.ascii	"OS_FN_WIFI_SOCKET_SEND_UDP\000"
 15901      4E5F5749 
 15901      46495F53 
 15901      4F434B45 
 15901      545F5345 
 15902              	.LASF439:
 15903 04f9 4F535F46 		.ascii	"OS_FN_RMB_CONTROL\000"
 15903      4E5F524D 
 15903      425F434F 
 15903      4E54524F 
 15903      4C00
 15904              	.LASF109:
 15905 050b 4F535F46 		.ascii	"OS_FN_SM2_GET_SIGNATURE\000"
 15905      4E5F534D 
 15905      325F4745 
 15905      545F5349 
 15905      474E4154 
 15906              	.LASF75:
 15907 0523 4F535F46 		.ascii	"OS_FN_COM3_CLOSE\000"
 15907      4E5F434F 
ARM GAS  C:\Users\AHMED~1.ELE\AppData\Local\Temp\ccAQ67OG.s 			page 325


 15907      4D335F43 
 15907      4C4F5345 
 15907      00
 15908              	.LASF802:
 15909 0534 4B426F6F 		.ascii	"KBookID\000"
 15909      6B494400 
 15910              	.LASF295:
 15911 053c 4F535F46 		.ascii	"OS_FN_GPRS_SEND\000"
 15911      4E5F4750 
 15911      52535F53 
 15911      454E4400 
 15912              	.LASF338:
 15913 054c 4F535F46 		.ascii	"OS_FN_USBHOST_DEVINFO\000"
 15913      4E5F5553 
 15913      42484F53 
 15913      545F4445 
 15913      56494E46 
 15914              	.LASF235:
 15915 0562 4F535F46 		.ascii	"OS_FN_MSR_RXLEN\000"
 15915      4E5F4D53 
 15915      525F5258 
 15915      4C454E00 
 15916              	.LASF554:
 15917 0572 735F7374 		.ascii	"s_str\000"
 15917      7200
 15918              	.LASF718:
 15919 0578 726C656E 		.ascii	"rlen\000"
 15919      00
 15920              	.LASF681:
 15921 057d 534D535F 		.ascii	"SMS_MSG\000"
 15921      4D534700 
 15922              	.LASF94:
 15923 0585 4F535F46 		.ascii	"OS_FN_AES_ENCRYPT_BLOCK\000"
 15923      4E5F4145 
 15923      535F454E 
 15923      43525950 
 15923      545F424C 
 15924              	.LASF179:
 15925 059d 4F535F46 		.ascii	"OS_FN_FILE_END\000"
 15925      4E5F4649 
 15925      4C455F45 
 15925      4E4400
 15926              	.LASF507:
 15927 05ac 4B5F4750 		.ascii	"K_GPRS_STATUS_SMSRXRDY\000"
 15927      52535F53 
 15927      54415455 
 15927      535F534D 
 15927      53525852 
 15928              	.LASF206:
 15929 05c3 4F535F46 		.ascii	"OS_FN_SAM_SELECT\000"
 15929      4E5F5341 
 15929      4D5F5345 
 15929      4C454354 
 15929      00
 15930              	.LASF423:
 15931 05d4 4F535F46 		.ascii	"OS_FN_GPS_ENABLED\000"
 15931      4E5F4750 
ARM GAS  C:\Users\AHMED~1.ELE\AppData\Local\Temp\ccAQ67OG.s 			page 326


 15931      535F454E 
 15931      41424C45 
 15931      4400
 15932              	.LASF399:
 15933 05e6 4F535F46 		.ascii	"OS_FN_BARCODE_STATUS\000"
 15933      4E5F4241 
 15933      52434F44 
 15933      455F5354 
 15933      41545553 
 15934              	.LASF70:
 15935 05fb 4F535F46 		.ascii	"OS_FN_COM2_SEND\000"
 15935      4E5F434F 
 15935      4D325F53 
 15935      454E4400 
 15936              	.LASF204:
 15937 060b 4F535F46 		.ascii	"OS_FN_SAM_OPEN\000"
 15937      4E5F5341 
 15937      4D5F4F50 
 15937      454E00
 15938              	.LASF549:
 15939 061a 73625F63 		.ascii	"sb_content\000"
 15939      6F6E7465 
 15939      6E7400
 15940              	.LASF798:
 15941 0625 61496478 		.ascii	"aIdx\000"
 15941      00
 15942              	.LASF102:
 15943 062a 4F535F46 		.ascii	"OS_FN_SHA_FINISH\000"
 15943      4E5F5348 
 15943      415F4649 
 15943      4E495348 
 15943      00
 15944              	.LASF383:
 15945 063b 4F535F46 		.ascii	"OS_FN_MIF_INC\000"
 15945      4E5F4D49 
 15945      465F494E 
 15945      4300
 15946              	.LASF421:
 15947 0649 4F535F46 		.ascii	"OS_FN_GPS_RESP\000"
 15947      4E5F4750 
 15947      535F5245 
 15947      535000
 15948              	.LASF691:
 15949 0658 645F736D 		.ascii	"d_sms_total\000"
 15949      735F746F 
 15949      74616C00 
 15950              	.LASF185:
 15951 0664 4F535F46 		.ascii	"OS_FN_FILE_GET_NAME\000"
 15951      4E5F4649 
 15951      4C455F47 
 15951      45545F4E 
 15951      414D4500 
 15952              	.LASF720:
 15953 0678 614E616D 		.ascii	"aName\000"
 15953      6500
 15954              	.LASF110:
 15955 067e 4F535F46 		.ascii	"OS_FN_SM2_VERIFY_SIGNATURE\000"
ARM GAS  C:\Users\AHMED~1.ELE\AppData\Local\Temp\ccAQ67OG.s 			page 327


 15955      4E5F534D 
 15955      325F5645 
 15955      52494659 
 15955      5F534947 
 15956              	.LASF678:
 15957 0699 534D535F 		.ascii	"SMS_LIST\000"
 15957      4C495354 
 15957      00
 15958              	.LASF562:
 15959 06a2 434C4F53 		.ascii	"CLOSEMW\000"
 15959      454D5700 
 15960              	.LASF95:
 15961 06aa 4F535F46 		.ascii	"OS_FN_AES_DECRYPT_BLOCK\000"
 15961      4E5F4145 
 15961      535F4445 
 15961      43525950 
 15961      545F424C 
 15962              	.LASF121:
 15963 06c2 4F535F46 		.ascii	"OS_FN_KEY_DES\000"
 15963      4E5F4B45 
 15963      595F4445 
 15963      5300
 15964              	.LASF13:
 15965 06d0 42595445 		.ascii	"BYTE\000"
 15965      00
 15966              	.LASF406:
 15967 06d5 4F535F46 		.ascii	"OS_FN_WIFI_PROFILES_WRITE\000"
 15967      4E5F5749 
 15967      46495F50 
 15967      524F4649 
 15967      4C45535F 
 15968              	.LASF119:
 15969 06ef 4F535F46 		.ascii	"OS_FN_KEY_SAVE\000"
 15969      4E5F4B45 
 15969      595F5341 
 15969      564500
 15970              	.LASF92:
 15971 06fe 4F535F46 		.ascii	"OS_FN_RSA_PRIVATE\000"
 15971      4E5F5253 
 15971      415F5052 
 15971      49564154 
 15971      4500
 15972              	.LASF254:
 15973 0710 4F535F46 		.ascii	"OS_FN_FL_PGM\000"
 15973      4E5F464C 
 15973      5F50474D 
 15973      00
 15974              	.LASF196:
 15975 071d 4F535F46 		.ascii	"OS_FN_FILE_RMDIR\000"
 15975      4E5F4649 
 15975      4C455F52 
 15975      4D444952 
 15975      00
 15976              	.LASF152:
 15977 072e 4F535F46 		.ascii	"OS_FN_LED_SET\000"
 15977      4E5F4C45 
 15977      445F5345 
ARM GAS  C:\Users\AHMED~1.ELE\AppData\Local\Temp\ccAQ67OG.s 			page 328


 15977      5400
 15978              	.LASF578:
 15979 073c 46434F4D 		.ascii	"FCOMMITALLMW\000"
 15979      4D495441 
 15979      4C4C4D57 
 15979      00
 15980              	.LASF442:
 15981 0749 4F535F46 		.ascii	"OS_FN_CLICC_DEBUG\000"
 15981      4E5F434C 
 15981      4943435F 
 15981      44454255 
 15981      4700
 15982              	.LASF651:
 15983 075b 41504D5F 		.ascii	"APM_TERMDATA_UPD\000"
 15983      5445524D 
 15983      44415441 
 15983      5F555044 
 15983      00
 15984              	.LASF280:
 15985 076c 4F535F46 		.ascii	"OS_FN_MCOM_SSEND\000"
 15985      4E5F4D43 
 15985      4F4D5F53 
 15985      53454E44 
 15985      00
 15986              	.LASF342:
 15987 077d 4F535F46 		.ascii	"OS_FN_DEVICE_ALLOC\000"
 15987      4E5F4445 
 15987      56494345 
 15987      5F414C4C 
 15987      4F4300
 15988              	.LASF707:
 15989 0790 614D6F64 		.ascii	"aMode\000"
 15989      6500
 15990              	.LASF453:
 15991 0796 4F535F46 		.ascii	"OS_FN_FPRT_INFO_GET\000"
 15991      4E5F4650 
 15991      52545F49 
 15991      4E464F5F 
 15991      47455400 
 15992              	.LASF198:
 15993 07aa 4F535F46 		.ascii	"OS_FN_FILE_SYNC\000"
 15993      4E5F4649 
 15993      4C455F53 
 15993      594E4300 
 15994              	.LASF449:
 15995 07ba 4F535F46 		.ascii	"OS_FN_FPRT_OPEN\000"
 15995      4E5F4650 
 15995      52545F4F 
 15995      50454E00 
 15996              	.LASF573:
 15997 07ca 46434C4F 		.ascii	"FCLOSEMW\000"
 15997      53454D57 
 15997      00
 15998              	.LASF386:
 15999 07d3 4F535F46 		.ascii	"OS_FN_MIF_TRANSFER\000"
 15999      4E5F4D49 
 15999      465F5452 
ARM GAS  C:\Users\AHMED~1.ELE\AppData\Local\Temp\ccAQ67OG.s 			page 329


 15999      414E5346 
 15999      455200
 16000              	.LASF568:
 16001 07e6 4745544C 		.ascii	"GETLASTERRMW\000"
 16001      41535445 
 16001      52524D57 
 16001      00
 16002              	.LASF236:
 16003 07f3 4F535F46 		.ascii	"OS_FN_MSR_GETC\000"
 16003      4E5F4D53 
 16003      525F4745 
 16003      544300
 16004              	.LASF561:
 16005 0802 4F50454E 		.ascii	"OPENMW\000"
 16005      4D5700
 16006              	.LASF538:
 16007 0809 625F7470 		.ascii	"b_tp_fcs\000"
 16007      5F666373 
 16007      00
 16008              	.LASF391:
 16009 0812 4F535F46 		.ascii	"OS_FN_MIF_INFO_SET\000"
 16009      4E5F4D49 
 16009      465F494E 
 16009      464F5F53 
 16009      455400
 16010              	.LASF356:
 16011 0825 4F535F46 		.ascii	"OS_FN_USBOTG_GET_STATE\000"
 16011      4E5F5553 
 16011      424F5447 
 16011      5F474554 
 16011      5F535441 
 16012              	.LASF625:
 16013 083c 41504D5F 		.ascii	"APM_FLUSHCOMM\000"
 16013      464C5553 
 16013      48434F4D 
 16013      4D00
 16014              	.LASF4:
 16015 084a 6C6F6E67 		.ascii	"long int\000"
 16015      20696E74 
 16015      00
 16016              	.LASF648:
 16017 0853 41504D5F 		.ascii	"APM_STIS_CLR\000"
 16017      53544953 
 16017      5F434C52 
 16017      00
 16018              	.LASF819:
 16019 0860 73747263 		.ascii	"strchr\000"
 16019      687200
 16020              	.LASF145:
 16021 0867 4F535F46 		.ascii	"OS_FN_BUFMAN_ALLOC\000"
 16021      4E5F4255 
 16021      464D414E 
 16021      5F414C4C 
 16021      4F4300
 16022              	.LASF714:
 16023 087a 47657450 		.ascii	"GetPHBCapcity\000"
 16023      48424361 
ARM GAS  C:\Users\AHMED~1.ELE\AppData\Local\Temp\ccAQ67OG.s 			page 330


 16023      70636974 
 16023      7900
 16024              	.LASF300:
 16025 0888 4F535F46 		.ascii	"OS_FN_GPRS_READ_USSD\000"
 16025      4E5F4750 
 16025      52535F52 
 16025      4541445F 
 16025      55535344 
 16026              	.LASF111:
 16027 089d 4F535F46 		.ascii	"OS_FN_SM2_ENCRYPT\000"
 16027      4E5F534D 
 16027      325F454E 
 16027      43525950 
 16027      5400
 16028              	.LASF460:
 16029 08af 4F535F46 		.ascii	"OS_FN_GCM_AES_PROCESS\000"
 16029      4E5F4743 
 16029      4D5F4145 
 16029      535F5052 
 16029      4F434553 
 16030              	.LASF344:
 16031 08c5 4F535F46 		.ascii	"OS_FN_DEVICE_UNREGISTER\000"
 16031      4E5F4445 
 16031      56494345 
 16031      5F554E52 
 16031      45474953 
 16032              	.LASF520:
 16033 08dd 4B5F4750 		.ascii	"K_GPRS_SMS_TP_MTI_SMS_STATUS_REPORT\000"
 16033      52535F53 
 16033      4D535F54 
 16033      505F4D54 
 16033      495F534D 
 16034              	.LASF737:
 16035 0901 47657443 		.ascii	"GetContactInfo\000"
 16035      6F6E7461 
 16035      6374496E 
 16035      666F00
 16036              	.LASF108:
 16037 0910 4F535F46 		.ascii	"OS_FN_SM2_FREE_CURVE\000"
 16037      4E5F534D 
 16037      325F4652 
 16037      45455F43 
 16037      55525645 
 16038              	.LASF485:
 16039 0925 4F535F46 		.ascii	"OS_FN_BATT_LEVEL2\000"
 16039      4E5F4241 
 16039      54545F4C 
 16039      4556454C 
 16039      3200
 16040              	.LASF288:
 16041 0937 4F535F46 		.ascii	"OS_FN_ADC_CH_ENABLE\000"
 16041      4E5F4144 
 16041      435F4348 
 16041      5F454E41 
 16041      424C4500 
 16042              	.LASF260:
 16043 094b 4F535F46 		.ascii	"OS_FN_FL_COPYB_START\000"
ARM GAS  C:\Users\AHMED~1.ELE\AppData\Local\Temp\ccAQ67OG.s 			page 331


 16043      4E5F464C 
 16043      5F434F50 
 16043      59425F53 
 16043      54415254 
 16044              	.LASF47:
 16045 0960 4F535F46 		.ascii	"OS_FN_DISP_TEXTC\000"
 16045      4E5F4449 
 16045      53505F54 
 16045      45585443 
 16045      00
 16046              	.LASF536:
 16047 0971 625F7470 		.ascii	"b_tp_mr\000"
 16047      5F6D7200 
 16048              	.LASF621:
 16049 0979 41504D5F 		.ascii	"APM_PACKCOMM\000"
 16049      5041434B 
 16049      434F4D4D 
 16049      00
 16050              	.LASF780:
 16051 0986 614E6577 		.ascii	"aNewPin\000"
 16051      50696E00 
 16052              	.LASF319:
 16053 098e 4F535F46 		.ascii	"OS_FN_CODEC_STATUS\000"
 16053      4E5F434F 
 16053      4445435F 
 16053      53544154 
 16053      555300
 16054              	.LASF665:
 16055 09a1 41504D5F 		.ascii	"APM_MERCHFUNC\000"
 16055      4D455243 
 16055      4846554E 
 16055      4300
 16056              	.LASF181:
 16057 09af 4F535F46 		.ascii	"OS_FN_FILE_DSEARCH\000"
 16057      4E5F4649 
 16057      4C455F44 
 16057      53454152 
 16057      434800
 16058              	.LASF652:
 16059 09c2 41504D5F 		.ascii	"APM_BATCH_CLEAR\000"
 16059      42415443 
 16059      485F434C 
 16059      45415200 
 16060              	.LASF404:
 16061 09d2 4F535F46 		.ascii	"OS_FN_WIFI_STATUS\000"
 16061      4E5F5749 
 16061      46495F53 
 16061      54415455 
 16061      5300
 16062              	.LASF763:
 16063 09e4 53656E64 		.ascii	"SendKeyPress\000"
 16063      4B657950 
 16063      72657373 
 16063      00
 16064              	.LASF604:
 16065 09f1 534D535F 		.ascii	"SMS_RX_MW\000"
 16065      52585F4D 
ARM GAS  C:\Users\AHMED~1.ELE\AppData\Local\Temp\ccAQ67OG.s 			page 332


 16065      5700
 16066              	.LASF526:
 16067 09fb 55534246 		.ascii	"USBFPRT_GENERAL_INFO_END\000"
 16067      5052545F 
 16067      47454E45 
 16067      52414C5F 
 16067      494E464F 
 16068              	.LASF36:
 16069 0a14 4F535F46 		.ascii	"OS_FN_DISP_OPEN\000"
 16069      4E5F4449 
 16069      53505F4F 
 16069      50454E00 
 16070              	.LASF38:
 16071 0a24 4F535F46 		.ascii	"OS_FN_DISP_PUTC\000"
 16071      4E5F4449 
 16071      53505F50 
 16071      55544300 
 16072              	.LASF326:
 16073 0a34 4F535F46 		.ascii	"OS_FN_CLICC_EMV_LV1\000"
 16073      4E5F434C 
 16073      4943435F 
 16073      454D565F 
 16073      4C563100 
 16074              	.LASF42:
 16075 0a48 4F535F46 		.ascii	"OS_FN_DISP_PUTG\000"
 16075      4E5F4449 
 16075      53505F50 
 16075      55544700 
 16076              	.LASF496:
 16077 0a58 4B5F4750 		.ascii	"K_GPRS_STATUS_SMS_READY\000"
 16077      52535F53 
 16077      54415455 
 16077      535F534D 
 16077      535F5245 
 16078              	.LASF132:
 16079 0a70 4F535F46 		.ascii	"OS_FN_KEY_SAVE_TMK_CBC_NC\000"
 16079      4E5F4B45 
 16079      595F5341 
 16079      56455F54 
 16079      4D4B5F43 
 16080              	.LASF570:
 16081 0a8a 46435245 		.ascii	"FCREATEMW\000"
 16081      4154454D 
 16081      5700
 16082              	.LASF40:
 16083 0a94 4F535F46 		.ascii	"OS_FN_DISP_PUTN\000"
 16083      4E5F4449 
 16083      53505F50 
 16083      55544E00 
 16084              	.LASF473:
 16085 0aa4 4F535F46 		.ascii	"OS_FN_IMG_SENSOR_GET_FRAME\000"
 16085      4E5F494D 
 16085      475F5345 
 16085      4E534F52 
 16085      5F474554 
 16086              	.LASF43:
 16087 0abf 4F535F46 		.ascii	"OS_FN_DISP_PUTP\000"
ARM GAS  C:\Users\AHMED~1.ELE\AppData\Local\Temp\ccAQ67OG.s 			page 333


 16087      4E5F4449 
 16087      53505F50 
 16087      55545000 
 16088              	.LASF434:
 16089 0acf 4F535F46 		.ascii	"OS_FN_DUMMY\000"
 16089      4E5F4455 
 16089      4D4D5900 
 16090              	.LASF318:
 16091 0adb 4F535F46 		.ascii	"OS_FN_CODEC_STOP\000"
 16091      4E5F434F 
 16091      4445435F 
 16091      53544F50 
 16091      00
 16092              	.LASF39:
 16093 0aec 4F535F46 		.ascii	"OS_FN_DISP_PUTS\000"
 16093      4E5F4449 
 16093      53505F50 
 16093      55545300 
 16094              	.LASF201:
 16095 0afc 4F535F46 		.ascii	"OS_FN_CONFIG_READ\000"
 16095      4E5F434F 
 16095      4E464947 
 16095      5F524541 
 16095      4400
 16096              	.LASF545:
 16097 0b0e 625F7470 		.ascii	"b_tp_udl\000"
 16097      5F75646C 
 16097      00
 16098              	.LASF555:
 16099 0b17 645F6C65 		.ascii	"d_len\000"
 16099      6E00
 16100              	.LASF88:
 16101 0b1d 4F535F46 		.ascii	"OS_FN_COM_DES2\000"
 16101      4E5F434F 
 16101      4D5F4445 
 16101      533200
 16102              	.LASF619:
 16103 0b2c 41504D5F 		.ascii	"APM_SETKBDTO\000"
 16103      5345544B 
 16103      4244544F 
 16103      00
 16104              	.LASF407:
 16105 0b39 4F535F46 		.ascii	"OS_FN_NFC_OPEN_FELICA\000"
 16105      4E5F4E46 
 16105      435F4F50 
 16105      454E5F46 
 16105      454C4943 
 16106              	.LASF639:
 16107 0b4f 41504D5F 		.ascii	"APM_GETEXPARAMCOUNT\000"
 16107      47455445 
 16107      58504152 
 16107      414D434F 
 16107      554E5400 
 16108              	.LASF154:
 16109 0b63 4F535F46 		.ascii	"OS_FN_LED_ON\000"
 16109      4E5F4C45 
 16109      445F4F4E 
ARM GAS  C:\Users\AHMED~1.ELE\AppData\Local\Temp\ccAQ67OG.s 			page 334


 16109      00
 16110              	.LASF150:
 16111 0b70 4F535F46 		.ascii	"OS_FN_LED_CLOSE\000"
 16111      4E5F4C45 
 16111      445F434C 
 16111      4F534500 
 16112              	.LASF596:
 16113 0b80 44495350 		.ascii	"DISP_LINEMW\000"
 16113      5F4C494E 
 16113      454D5700 
 16114              	.LASF166:
 16115 0b8c 4F535F46 		.ascii	"OS_FN_FILE_OPEN\000"
 16115      4E5F4649 
 16115      4C455F4F 
 16115      50454E00 
 16116              	.LASF176:
 16117 0b9c 4F535F46 		.ascii	"OS_FN_FILE_PUTC\000"
 16117      4E5F4649 
 16117      4C455F50 
 16117      55544300 
 16118              	.LASF142:
 16119 0bac 4F535F46 		.ascii	"OS_FN_THREAD_PUSH\000"
 16119      4E5F5448 
 16119      52454144 
 16119      5F505553 
 16119      4800
 16120              	.LASF710:
 16121 0bbe 69647831 		.ascii	"idx1\000"
 16121      00
 16122              	.LASF711:
 16123 0bc3 69647832 		.ascii	"idx2\000"
 16123      00
 16124              	.LASF712:
 16125 0bc8 69647833 		.ascii	"idx3\000"
 16125      00
 16126              	.LASF564:
 16127 0bcd 57524954 		.ascii	"WRITEMW\000"
 16127      454D5700 
 16128              	.LASF531:
 16129 0bd5 534D535F 		.ascii	"SMS_PDU\000"
 16129      50445500 
 16130              	.LASF586:
 16131 0bdd 44495350 		.ascii	"DISPLOGOMW\000"
 16131      4C4F474F 
 16131      4D5700
 16132              	.LASF435:
 16133 0be8 4F535F46 		.ascii	"OS_FN_OFF\000"
 16133      4E5F4F46 
 16133      4600
 16134              	.LASF742:
 16135 0bf2 6E616D65 		.ascii	"name_len\000"
 16135      5F6C656E 
 16135      00
 16136              	.LASF20:
 16137 0bfb 4F535F46 		.ascii	"OS_FN_KBD_CLOSE\000"
 16137      4E5F4B42 
 16137      445F434C 
ARM GAS  C:\Users\AHMED~1.ELE\AppData\Local\Temp\ccAQ67OG.s 			page 335


 16137      4F534500 
 16138              	.LASF640:
 16139 0c0b 41504D5F 		.ascii	"APM_GETEXPARAM\000"
 16139      47455445 
 16139      58504152 
 16139      414D00
 16140              	.LASF567:
 16141 0c1a 53544154 		.ascii	"STATMW\000"
 16141      4D5700
 16142              	.LASF19:
 16143 0c21 4F535F46 		.ascii	"OS_FN_KBD_OPEN\000"
 16143      4E5F4B42 
 16143      445F4F50 
 16143      454E00
 16144              	.LASF788:
 16145 0c30 4C6F6164 		.ascii	"LoadSmsInbox\000"
 16145      536D7349 
 16145      6E626F78 
 16145      00
 16146              	.LASF126:
 16147 0c3d 4F535F46 		.ascii	"OS_FN_KEY_CUP_MAC\000"
 16147      4E5F4B45 
 16147      595F4355 
 16147      505F4D41 
 16147      4300
 16148              	.LASF807:
 16149 0c4f 6C69625F 		.ascii	"lib_app_call\000"
 16149      6170705F 
 16149      63616C6C 
 16149      00
 16150              	.LASF500:
 16151 0c5c 4B5F4750 		.ascii	"K_GPRS_STATUS_TIMEOUT\000"
 16151      52535F53 
 16151      54415455 
 16151      535F5449 
 16151      4D454F55 
 16152              	.LASF52:
 16153 0c72 4F535F46 		.ascii	"OS_FN_DISP_ICON_PUTC\000"
 16153      4E5F4449 
 16153      53505F49 
 16153      434F4E5F 
 16153      50555443 
 16154              	.LASF200:
 16155 0c87 4F535F46 		.ascii	"OS_FN_CONFIG_LENGTH\000"
 16155      4E5F434F 
 16155      4E464947 
 16155      5F4C454E 
 16155      47544800 
 16156              	.LASF687:
 16157 0c9b 645F6D61 		.ascii	"d_max_name_size\000"
 16157      785F6E61 
 16157      6D655F73 
 16157      697A6500 
 16158              	.LASF577:
 16159 0cab 46575249 		.ascii	"FWRITEMW\000"
 16159      54454D57 
 16159      00
ARM GAS  C:\Users\AHMED~1.ELE\AppData\Local\Temp\ccAQ67OG.s 			page 336


 16160              	.LASF580:
 16161 0cb4 46445345 		.ascii	"FDSEARCHMW\000"
 16161      41524348 
 16161      4D5700
 16162              	.LASF136:
 16163 0cbf 4F535F46 		.ascii	"OS_FN_THREAD_OPEN\000"
 16163      4E5F5448 
 16163      52454144 
 16163      5F4F5045 
 16163      4E00
 16164              	.LASF175:
 16165 0cd1 4F535F46 		.ascii	"OS_FN_FILE_WRITE\000"
 16165      4E5F4649 
 16165      4C455F57 
 16165      52495445 
 16165      00
 16166              	.LASF757:
 16167 0ce2 4D616B65 		.ascii	"MakeCall\000"
 16167      43616C6C 
 16167      00
 16168              	.LASF409:
 16169 0ceb 4F535F46 		.ascii	"OS_FN_NFC_CANCEL\000"
 16169      4E5F4E46 
 16169      435F4341 
 16169      4E43454C 
 16169      00
 16170              	.LASF589:
 16171 0cfc 5343484E 		.ascii	"SCHNLGETPINMW\000"
 16171      4C474554 
 16171      50494E4D 
 16171      5700
 16172              	.LASF348:
 16173 0d0a 4F535F46 		.ascii	"OS_FN_DEVICE_SEARCH_NEXT\000"
 16173      4E5F4445 
 16173      56494345 
 16173      5F534541 
 16173      5243485F 
 16174              	.LASF469:
 16175 0d23 4F535F46 		.ascii	"OS_FN_WIFI_GET_DEVICE_STATE\000"
 16175      4E5F5749 
 16175      46495F47 
 16175      45545F44 
 16175      45564943 
 16176              	.LASF558:
 16177 0d3f 645F6465 		.ascii	"d_dest\000"
 16177      737400
 16178              	.LASF61:
 16179 0d46 4F535F46 		.ascii	"OS_FN_COM1_SEND\000"
 16179      4E5F434F 
 16179      4D315F53 
 16179      454E4400 
 16180              	.LASF135:
 16181 0d56 4F535F46 		.ascii	"OS_FN_PCI_DSS\000"
 16181      4E5F5043 
 16181      495F4453 
 16181      5300
 16182              	.LASF806:
ARM GAS  C:\Users\AHMED~1.ELE\AppData\Local\Temp\ccAQ67OG.s 			page 337


 16183 0d64 6747534D 		.ascii	"gGSMData\000"
 16183      44617461 
 16183      00
 16184              	.LASF602:
 16185 0d6d 42535F43 		.ascii	"BS_CALL_MW\000"
 16185      414C4C5F 
 16185      4D5700
 16186              	.LASF353:
 16187 0d78 4F535F46 		.ascii	"OS_FN_INTERRUPT_UNREGISTER\000"
 16187      4E5F494E 
 16187      54455252 
 16187      5550545F 
 16187      554E5245 
 16188              	.LASF735:
 16189 0d93 61475052 		.ascii	"aGPRS\000"
 16189      5300
 16190              	.LASF151:
 16191 0d99 4F535F46 		.ascii	"OS_FN_LED_STATUS\000"
 16191      4E5F4C45 
 16191      445F5354 
 16191      41545553 
 16191      00
 16192              	.LASF69:
 16193 0daa 4F535F46 		.ascii	"OS_FN_COM2_READ\000"
 16193      4E5F434F 
 16193      4D325F52 
 16193      45414400 
 16194              	.LASF30:
 16195 0dba 4F535F46 		.ascii	"OS_FN_BUZ_OPEN\000"
 16195      4E5F4255 
 16195      5A5F4F50 
 16195      454E00
 16196              	.LASF328:
 16197 0dc9 4F535F46 		.ascii	"OS_FN_CLICC_LED_CLOSE\000"
 16197      4E5F434C 
 16197      4943435F 
 16197      4C45445F 
 16197      434C4F53 
 16198              	.LASF384:
 16199 0ddf 4F535F46 		.ascii	"OS_FN_MIF_DEC\000"
 16199      4E5F4D49 
 16199      465F4445 
 16199      4300
 16200              	.LASF226:
 16201 0ded 4F535F46 		.ascii	"OS_FN_LAN_OPEN\000"
 16201      4E5F4C41 
 16201      4E5F4F50 
 16201      454E00
 16202              	.LASF594:
 16203 0dfc 44495350 		.ascii	"DISP_CLRBELOWMW\000"
 16203      5F434C52 
 16203      42454C4F 
 16203      574D5700 
 16204              	.LASF448:
 16205 0e0c 4F535F46 		.ascii	"OS_FN_LPT_GET_COUNT\000"
 16205      4E5F4C50 
 16205      545F4745 
ARM GAS  C:\Users\AHMED~1.ELE\AppData\Local\Temp\ccAQ67OG.s 			page 338


 16205      545F434F 
 16205      554E5400 
 16206              	.LASF284:
 16207 0e20 4F535F46 		.ascii	"OS_FN_BATT_LEVEL\000"
 16207      4E5F4241 
 16207      54545F4C 
 16207      4556454C 
 16207      00
 16208              	.LASF432:
 16209 0e31 4F535F46 		.ascii	"OS_FN_HD_CONFIG\000"
 16209      4E5F4844 
 16209      5F434F4E 
 16209      46494700 
 16210              	.LASF698:
 16211 0e41 61436D64 		.ascii	"aCmdStr\000"
 16211      53747200 
 16212              	.LASF776:
 16213 0e49 7265715F 		.ascii	"req_pin\000"
 16213      70696E00 
 16214              	.LASF766:
 16215 0e51 43686563 		.ascii	"CheckCallEnd\000"
 16215      6B43616C 
 16215      6C456E64 
 16215      00
 16216              	.LASF790:
 16217 0e5e 52656164 		.ascii	"ReadSms\000"
 16217      536D7300 
 16218              	.LASF229:
 16219 0e66 4F535F46 		.ascii	"OS_FN_LAN_TXRDY\000"
 16219      4E5F4C41 
 16219      4E5F5458 
 16219      52445900 
 16220              	.LASF137:
 16221 0e76 4F535F46 		.ascii	"OS_FN_THREAD_CLOSE\000"
 16221      4E5F5448 
 16221      52454144 
 16221      5F434C4F 
 16221      534500
 16222              	.LASF623:
 16223 0e89 41504D5F 		.ascii	"APM_CONNECTOK\000"
 16223      434F4E4E 
 16223      4543544F 
 16223      4B00
 16224              	.LASF286:
 16225 0e97 4F535F46 		.ascii	"OS_FN_BATT_CONTROL\000"
 16225      4E5F4241 
 16225      54545F43 
 16225      4F4E5452 
 16225      4F4C00
 16226              	.LASF373:
 16227 0eaa 4F535F46 		.ascii	"OS_FN_MIF_CARD_TYPE\000"
 16227      4E5F4D49 
 16227      465F4341 
 16227      52445F54 
 16227      59504500 
 16228              	.LASF220:
 16229 0ebe 4F535F46 		.ascii	"OS_FN_MMC_WRITE\000"
ARM GAS  C:\Users\AHMED~1.ELE\AppData\Local\Temp\ccAQ67OG.s 			page 339


 16229      4E5F4D4D 
 16229      435F5752 
 16229      49544500 
 16230              	.LASF532:
 16231 0ece 735F736D 		.ascii	"s_smsc\000"
 16231      736300
 16232              	.LASF690:
 16233 0ed5 625F736D 		.ascii	"b_sms_mode\000"
 16233      735F6D6F 
 16233      646500
 16234              	.LASF603:
 16235 0ee0 534D535F 		.ascii	"SMS_ENB_MW\000"
 16235      454E425F 
 16235      4D5700
 16236              	.LASF454:
 16237 0eeb 4F535F46 		.ascii	"OS_FN_ECC_KEYPAIR_GENERATE\000"
 16237      4E5F4543 
 16237      435F4B45 
 16237      59504149 
 16237      525F4745 
 16238              	.LASF276:
 16239 0f06 4F535F46 		.ascii	"OS_FN_MCOM_PERMIT\000"
 16239      4E5F4D43 
 16239      4F4D5F50 
 16239      45524D49 
 16239      5400
 16240              	.LASF666:
 16241 0f18 41504D5F 		.ascii	"APM_PWRSLEEP\000"
 16241      50575253 
 16241      4C454550 
 16241      00
 16242              	.LASF389:
 16243 0f25 4F535F46 		.ascii	"OS_FN_MIF_SENDCMD\000"
 16243      4E5F4D49 
 16243      465F5345 
 16243      4E44434D 
 16243      4400
 16244              	.LASF22:
 16245 0f37 4F535F46 		.ascii	"OS_FN_KBD_SCODE\000"
 16245      4E5F4B42 
 16245      445F5343 
 16245      4F444500 
 16246              	.LASF646:
 16247 0f47 41504D5F 		.ascii	"APM_SETROC\000"
 16247      53455452 
 16247      4F4300
 16248              	.LASF464:
 16249 0f52 4F535F46 		.ascii	"OS_FN_WIFI_SOCKET_CONNECT\000"
 16249      4E5F5749 
 16249      46495F53 
 16249      4F434B45 
 16249      545F434F 
 16250              	.LASF456:
 16251 0f6c 4F535F46 		.ascii	"OS_FN_ECC_SCALAR_MULTIPLY\000"
 16251      4E5F4543 
 16251      435F5343 
 16251      414C4152 
ARM GAS  C:\Users\AHMED~1.ELE\AppData\Local\Temp\ccAQ67OG.s 			page 340


 16251      5F4D554C 
 16252              	.LASF613:
 16253 0f86 41504D5F 		.ascii	"APM_GETHWHANDLE\000"
 16253      47455448 
 16253      5748414E 
 16253      444C4500 
 16254              	.LASF517:
 16255 0f96 4B5F4750 		.ascii	"K_GPRS_SMS_TP_MTI_SMS_DELIVER_REPORT\000"
 16255      52535F53 
 16255      4D535F54 
 16255      505F4D54 
 16255      495F534D 
 16256              	.LASF379:
 16257 0fbb 4F535F46 		.ascii	"OS_FN_MIF_AUTH1\000"
 16257      4E5F4D49 
 16257      465F4155 
 16257      54483100 
 16258              	.LASF380:
 16259 0fcb 4F535F46 		.ascii	"OS_FN_MIF_AUTH2\000"
 16259      4E5F4D49 
 16259      465F4155 
 16259      54483200 
 16260              	.LASF12:
 16261 0fdb 424F4F4C 		.ascii	"BOOLEAN\000"
 16261      45414E00 
 16262              	.LASF765:
 16263 0fe3 48616E67 		.ascii	"HangUp\000"
 16263      557000
 16264              	.LASF822:
 16265 0fea 7372632F 		.ascii	"src/wavecom.c\000"
 16265      77617665 
 16265      636F6D2E 
 16265      6300
 16266              	.LASF85:
 16267 0ff8 4F535F46 		.ascii	"OS_FN_DES2\000"
 16267      4E5F4445 
 16267      533200
 16268              	.LASF751:
 16269 1003 57726974 		.ascii	"WriteContact\000"
 16269      65436F6E 
 16269      74616374 
 16269      00
 16270              	.LASF491:
 16271 1010 4B5F4750 		.ascii	"K_GPRS_STATUS_CALLSTATE\000"
 16271      52535F53 
 16271      54415455 
 16271      535F4341 
 16271      4C4C5354 
 16272              	.LASF694:
 16273 1028 735F5048 		.ascii	"s_PHBook\000"
 16273      426F6F6B 
 16273      00
 16274              	.LASF343:
 16275 1031 4F535F46 		.ascii	"OS_FN_DEVICE_REGISTER\000"
 16275      4E5F4445 
 16275      56494345 
 16275      5F524547 
ARM GAS  C:\Users\AHMED~1.ELE\AppData\Local\Temp\ccAQ67OG.s 			page 341


 16275      49535445 
 16276              	.LASF767:
 16277 1047 47657443 		.ascii	"GetCallerID\000"
 16277      616C6C65 
 16277      72494400 
 16278              	.LASF60:
 16279 1053 4F535F46 		.ascii	"OS_FN_COM1_READ\000"
 16279      4E5F434F 
 16279      4D315F52 
 16279      45414400 
 16280              	.LASF223:
 16281 1063 4F535F46 		.ascii	"OS_FN_SLE_CLOSE\000"
 16281      4E5F534C 
 16281      455F434C 
 16281      4F534500 
 16282              	.LASF232:
 16283 1073 4F535F46 		.ascii	"OS_FN_LAN_STATUS\000"
 16283      4E5F4C41 
 16283      4E5F5354 
 16283      41545553 
 16283      00
 16284              	.LASF732:
 16285 1084 64657465 		.ascii	"detected\000"
 16285      63746564 
 16285      00
 16286              	.LASF159:
 16287 108d 4F535F46 		.ascii	"OS_FN_APP_GET_VIRGIN\000"
 16287      4E5F4150 
 16287      505F4745 
 16287      545F5649 
 16287      5247494E 
 16288              	.LASF582:
 16289 10a2 4B424453 		.ascii	"KBDSCODEMW\000"
 16289      434F4445 
 16289      4D5700
 16290              	.LASF208:
 16291 10ad 4F535F46 		.ascii	"OS_FN_SAM_ON\000"
 16291      4E5F5341 
 16291      4D5F4F4E 
 16291      00
 16292              	.LASF283:
 16293 10ba 4F535F46 		.ascii	"OS_FN_MCOM_SEND\000"
 16293      4E5F4D43 
 16293      4F4D5F53 
 16293      454E4400 
 16294              	.LASF699:
 16295 10ca 61576169 		.ascii	"aWaitRsp\000"
 16295      74527370 
 16295      00
 16296              	.LASF245:
 16297 10d3 4F535F46 		.ascii	"OS_FN_USBSER_CLOSE\000"
 16297      4E5F5553 
 16297      42534552 
 16297      5F434C4F 
 16297      534500
 16298              	.LASF418:
 16299 10e6 4F535F46 		.ascii	"OS_FN_GPS_GET_INFO\000"
ARM GAS  C:\Users\AHMED~1.ELE\AppData\Local\Temp\ccAQ67OG.s 			page 342


 16299      4E5F4750 
 16299      535F4745 
 16299      545F494E 
 16299      464F00
 16300              	.LASF269:
 16301 10f9 4F535F46 		.ascii	"OS_FN_MDM_DIAL\000"
 16301      4E5F4D44 
 16301      4D5F4449 
 16301      414C00
 16302              	.LASF495:
 16303 1108 4B5F4750 		.ascii	"K_GPRS_STATUS_PHONEBOOK_READY\000"
 16303      52535F53 
 16303      54415455 
 16303      535F5048 
 16303      4F4E4542 
 16304              	.LASF149:
 16305 1126 4F535F46 		.ascii	"OS_FN_LED_OPEN\000"
 16305      4E5F4C45 
 16305      445F4F50 
 16305      454E00
 16306              	.LASF34:
 16307 1135 4F535F46 		.ascii	"OS_FN_RTC_GET\000"
 16307      4E5F5254 
 16307      435F4745 
 16307      5400
 16308              	.LASF480:
 16309 1143 4F535F46 		.ascii	"OS_FN_DISP_PUTS_ANYWHERE\000"
 16309      4E5F4449 
 16309      53505F50 
 16309      5554535F 
 16309      414E5957 
 16310              	.LASF401:
 16311 115c 4F535F46 		.ascii	"OS_FN_WIFI_CONTROL\000"
 16311      4E5F5749 
 16311      46495F43 
 16311      4F4E5452 
 16311      4F4C00
 16312              	.LASF153:
 16313 116f 4F535F46 		.ascii	"OS_FN_LED_CLEAR\000"
 16313      4E5F4C45 
 16313      445F434C 
 16313      45415200 
 16314              	.LASF703:
 16315 117f 63757272 		.ascii	"curr_tick\000"
 16315      5F746963 
 16315      6B00
 16316              	.LASF445:
 16317 1189 4F535F46 		.ascii	"OS_FN_DTIMER_LATCH_STOP\000"
 16317      4E5F4454 
 16317      494D4552 
 16317      5F4C4154 
 16317      43485F53 
 16318              	.LASF354:
 16319 11a1 4F535F46 		.ascii	"OS_FN_BUS_START\000"
 16319      4E5F4255 
 16319      535F5354 
 16319      41525400 
ARM GAS  C:\Users\AHMED~1.ELE\AppData\Local\Temp\ccAQ67OG.s 			page 343


 16320              	.LASF643:
 16321 11b1 41504D5F 		.ascii	"APM_GETBATCH\000"
 16321      47455442 
 16321      41544348 
 16321      00
 16322              	.LASF713:
 16323 11be 725F6C65 		.ascii	"r_len\000"
 16323      6E00
 16324              	.LASF540:
 16325 11c4 625F7470 		.ascii	"b_tp_pid\000"
 16325      5F706964 
 16325      00
 16326              	.LASF522:
 16327 11cd 55534246 		.ascii	"USBFPRT_GENERAL_INFO_MODEL\000"
 16327      5052545F 
 16327      47454E45 
 16327      52414C5F 
 16327      494E464F 
 16328              	.LASF416:
 16329 11e8 4F535F46 		.ascii	"OS_FN_GPS_ON\000"
 16329      4E5F4750 
 16329      535F4F4E 
 16329      00
 16330              	.LASF800:
 16331 11f5 6154656C 		.ascii	"aTel\000"
 16331      00
 16332              	.LASF317:
 16333 11fa 4F535F46 		.ascii	"OS_FN_CODEC_PLAY_RAM\000"
 16333      4E5F434F 
 16333      4445435F 
 16333      504C4159 
 16333      5F52414D 
 16334              	.LASF281:
 16335 120f 4F535F46 		.ascii	"OS_FN_MCOM_STATUS\000"
 16335      4E5F4D43 
 16335      4F4D5F53 
 16335      54415455 
 16335      5300
 16336              	.LASF53:
 16337 1221 4F535F46 		.ascii	"OS_FN_DISP_ICON_TEXTC\000"
 16337      4E5F4449 
 16337      53505F49 
 16337      434F4E5F 
 16337      54455854 
 16338              	.LASF429:
 16339 1237 4F535F46 		.ascii	"OS_FN_POWER_SLEEP\000"
 16339      4E5F504F 
 16339      5745525F 
 16339      534C4545 
 16339      5000
 16340              	.LASF167:
 16341 1249 4F535F46 		.ascii	"OS_FN_FILE_CREATE\000"
 16341      4E5F4649 
 16341      4C455F43 
 16341      52454154 
 16341      4500
 16342              	.LASF239:
ARM GAS  C:\Users\AHMED~1.ELE\AppData\Local\Temp\ccAQ67OG.s 			page 344


 16343 125b 4F535F46 		.ascii	"OS_FN_LPT_OPEN\000"
 16343      4E5F4C50 
 16343      545F4F50 
 16343      454E00
 16344              	.LASF241:
 16345 126a 4F535F46 		.ascii	"OS_FN_LPT_PUTC\000"
 16345      4E5F4C50 
 16345      545F5055 
 16345      544300
 16346              	.LASF231:
 16347 1279 4F535F46 		.ascii	"OS_FN_LAN_SEND\000"
 16347      4E5F4C41 
 16347      4E5F5345 
 16347      4E4400
 16348              	.LASF374:
 16349 1288 4F535F46 		.ascii	"OS_FN_MIF_TAG\000"
 16349      4E5F4D49 
 16349      465F5441 
 16349      4700
 16350              	.LASF387:
 16351 1296 4F535F46 		.ascii	"OS_FN_MIF_DEC_TRANS\000"
 16351      4E5F4D49 
 16351      465F4445 
 16351      435F5452 
 16351      414E5300 
 16352              	.LASF490:
 16353 12aa 67707273 		.ascii	"gprs_status_list\000"
 16353      5F737461 
 16353      7475735F 
 16353      6C697374 
 16353      00
 16354              	.LASF287:
 16355 12bb 4F535F46 		.ascii	"OS_FN_BATT_CHARGE_MODE\000"
 16355      4E5F4241 
 16355      54545F43 
 16355      48415247 
 16355      455F4D4F 
 16356              	.LASF451:
 16357 12d2 4F535F46 		.ascii	"OS_FN_FPRT_SCAN_IMG\000"
 16357      4E5F4650 
 16357      52545F53 
 16357      43414E5F 
 16357      494D4700 
 16358              	.LASF99:
 16359 12e6 4F535F46 		.ascii	"OS_FN_MD5_FINISH\000"
 16359      4E5F4D44 
 16359      355F4649 
 16359      4E495348 
 16359      00
 16360              	.LASF309:
 16361 12f7 4F535F46 		.ascii	"OS_FN_TPAD_DEL_OBJ\000"
 16361      4E5F5450 
 16361      41445F44 
 16361      454C5F4F 
 16361      424A00
 16362              	.LASF569:
 16363 130a 46535953 		.ascii	"FSYSINITMW\000"
ARM GAS  C:\Users\AHMED~1.ELE\AppData\Local\Temp\ccAQ67OG.s 			page 345


 16363      494E4954 
 16363      4D5700
 16364              	.LASF566:
 16365 1315 494F4354 		.ascii	"IOCTLMW\000"
 16365      4C4D5700 
 16366              	.LASF341:
 16367 131d 4F535F46 		.ascii	"OS_FN_DRIVER_UNREGISTER\000"
 16367      4E5F4452 
 16367      49564552 
 16367      5F554E52 
 16367      45474953 
 16368              	.LASF244:
 16369 1335 4F535F46 		.ascii	"OS_FN_USBSER_OPEN\000"
 16369      4E5F5553 
 16369      42534552 
 16369      5F4F5045 
 16369      4E00
 16370              	.LASF433:
 16371 1347 4F535F46 		.ascii	"OS_FN_RDLL_APP\000"
 16371      4E5F5244 
 16371      4C4C5F41 
 16371      505000
 16372              	.LASF174:
 16373 1356 4F535F46 		.ascii	"OS_FN_FILE_READ\000"
 16373      4E5F4649 
 16373      4C455F52 
 16373      45414400 
 16374              	.LASF143:
 16375 1366 4F535F46 		.ascii	"OS_FN_THREAD_POP\000"
 16375      4E5F5448 
 16375      52454144 
 16375      5F504F50 
 16375      00
 16376              	.LASF537:
 16377 1377 625F7470 		.ascii	"b_tp_st\000"
 16377      5F737400 
 16378              	.LASF556:
 16379 137f 645F6163 		.ascii	"d_ack_type\000"
 16379      6B5F7479 
 16379      706500
 16380              	.LASF764:
 16381 138a 61436861 		.ascii	"aChar\000"
 16381      7200
 16382              	.LASF590:
 16383 1390 4C4C5345 		.ascii	"LLSEEKMW\000"
 16383      454B4D57 
 16383      00
 16384              	.LASF323:
 16385 1399 4F535F46 		.ascii	"OS_FN_CLICC_CLOSE\000"
 16385      4E5F434C 
 16385      4943435F 
 16385      434C4F53 
 16385      4500
 16386              	.LASF513:
 16387 13ab 4B5F4750 		.ascii	"K_GPRS_STATUS_ROUTER\000"
 16387      52535F53 
 16387      54415455 
ARM GAS  C:\Users\AHMED~1.ELE\AppData\Local\Temp\ccAQ67OG.s 			page 346


 16387      535F524F 
 16387      55544552 
 16388              	.LASF650:
 16389 13c0 41504D5F 		.ascii	"APM_TERMDATA_CLR\000"
 16389      5445524D 
 16389      44415441 
 16389      5F434C52 
 16389      00
 16390              	.LASF489:
 16391 13d1 73797374 		.ascii	"system_call_list\000"
 16391      656D5F63 
 16391      616C6C5F 
 16391      6C697374 
 16391      00
 16392              	.LASF608:
 16393 13e2 4652454E 		.ascii	"FRENAMEMW\000"
 16393      414D454D 
 16393      5700
 16394              	.LASF225:
 16395 13ec 4F535F46 		.ascii	"OS_FN_SLE_IO\000"
 16395      4E5F534C 
 16395      455F494F 
 16395      00
 16396              	.LASF783:
 16397 13f9 47657453 		.ascii	"GetSmsInfo\000"
 16397      6D73496E 
 16397      666F00
 16398              	.LASF271:
 16399 1404 4F535F46 		.ascii	"OS_FN_MDM_CID\000"
 16399      4E5F4D44 
 16399      4D5F4349 
 16399      4400
 16400              	.LASF277:
 16401 1412 4F535F46 		.ascii	"OS_FN_MCOM_RXRDY\000"
 16401      4E5F4D43 
 16401      4F4D5F52 
 16401      58524459 
 16401      00
 16402              	.LASF240:
 16403 1423 4F535F46 		.ascii	"OS_FN_LPT_CLOSE\000"
 16403      4E5F4C50 
 16403      545F434C 
 16403      4F534500 
 16404              	.LASF675:
 16405 1433 73625F6E 		.ascii	"sb_name\000"
 16405      616D6500 
 16406              	.LASF762:
 16407 143b 416E7377 		.ascii	"AnswerCall\000"
 16407      65724361 
 16407      6C6C00
 16408              	.LASF104:
 16409 1446 4F535F46 		.ascii	"OS_FN_RC4_ENCRYPT\000"
 16409      4E5F5243 
 16409      345F454E 
 16409      43525950 
 16409      5400
 16410              	.LASF795:
ARM GAS  C:\Users\AHMED~1.ELE\AppData\Local\Temp\ccAQ67OG.s 			page 347


 16411 1458 736D735F 		.ascii	"sms_data\000"
 16411      64617461 
 16411      00
 16412              	.LASF752:
 16413 1461 61437572 		.ascii	"aCurrRec\000"
 16413      72526563 
 16413      00
 16414              	.LASF122:
 16415 146a 4F535F46 		.ascii	"OS_FN_KEY_RSA\000"
 16415      4E5F4B45 
 16415      595F5253 
 16415      4100
 16416              	.LASF205:
 16417 1478 4F535F46 		.ascii	"OS_FN_SAM_CLOSE\000"
 16417      4E5F5341 
 16417      4D5F434C 
 16417      4F534500 
 16418              	.LASF86:
 16419 1488 4F535F46 		.ascii	"OS_FN_COM_DESKEY\000"
 16419      4E5F434F 
 16419      4D5F4445 
 16419      534B4559 
 16419      00
 16420              	.LASF791:
 16421 1499 614D7367 		.ascii	"aMsg\000"
 16421      00
 16422              	.LASF503:
 16423 149e 4B5F4750 		.ascii	"K_GPRS_STATUS_LINE\000"
 16423      52535F53 
 16423      54415455 
 16423      535F4C49 
 16423      4E4500
 16424              	.LASF552:
 16425 14b1 47505253 		.ascii	"GPRSSMSDATA\000"
 16425      534D5344 
 16425      41544100 
 16426              	.LASF372:
 16427 14bd 4F535F46 		.ascii	"OS_FN_MIF_HALT\000"
 16427      4E5F4D49 
 16427      465F4841 
 16427      4C5400
 16428              	.LASF661:
 16429 14cc 41504D5F 		.ascii	"APM_TRACE_IN_REV\000"
 16429      54524143 
 16429      455F494E 
 16429      5F524556 
 16429      00
 16430              	.LASF265:
 16431 14dd 4F535F46 		.ascii	"OS_FN_FL_CREAD_END\000"
 16431      4E5F464C 
 16431      5F435245 
 16431      41445F45 
 16431      4E4400
 16432              	.LASF238:
 16433 14f0 4F535F46 		.ascii	"OS_FN_MSR_STATUS\000"
 16433      4E5F4D53 
 16433      525F5354 
ARM GAS  C:\Users\AHMED~1.ELE\AppData\Local\Temp\ccAQ67OG.s 			page 348


 16433      41545553 
 16433      00
 16434              	.LASF393:
 16435 1501 4F535F46 		.ascii	"OS_FN_BARCODE_OPEN\000"
 16435      4E5F4241 
 16435      52434F44 
 16435      455F4F50 
 16435      454E00
 16436              	.LASF744:
 16437 1514 7265635F 		.ascii	"rec_idx\000"
 16437      69647800 
 16438              	.LASF471:
 16439 151c 4F535F46 		.ascii	"OS_FN_WIFI_SOCKET_LISTEN\000"
 16439      4E5F5749 
 16439      46495F53 
 16439      4F434B45 
 16439      545F4C49 
 16440              	.LASF781:
 16441 1535 5365744E 		.ascii	"SetNewMsgInd\000"
 16441      65774D73 
 16441      67496E64 
 16441      00
 16442              	.LASF247:
 16443 1542 4F535F46 		.ascii	"OS_FN_USBSER_WRITE\000"
 16443      4E5F5553 
 16443      42534552 
 16443      5F575249 
 16443      544500
 16444              	.LASF371:
 16445 1555 4F535F46 		.ascii	"OS_FN_MIF_CANCEL\000"
 16445      4E5F4D49 
 16445      465F4341 
 16445      4E43454C 
 16445      00
 16446              	.LASF5:
 16447 1566 6C6F6E67 		.ascii	"long unsigned int\000"
 16447      20756E73 
 16447      69676E65 
 16447      6420696E 
 16447      7400
 16448              	.LASF48:
 16449 1578 4F535F46 		.ascii	"OS_FN_DISP_BACKC\000"
 16449      4E5F4449 
 16449      53505F42 
 16449      41434B43 
 16449      00
 16450              	.LASF516:
 16451 1589 4B5F4750 		.ascii	"K_GPRS_SMS_TP_MTI_SMS_DELIVER\000"
 16451      52535F53 
 16451      4D535F54 
 16451      505F4D54 
 16451      495F534D 
 16452              	.LASF160:
 16453 15a7 4F535F46 		.ascii	"OS_FN_APP_CLR_VIRGIN\000"
 16453      4E5F4150 
 16453      505F434C 
 16453      525F5649 
ARM GAS  C:\Users\AHMED~1.ELE\AppData\Local\Temp\ccAQ67OG.s 			page 349


 16453      5247494E 
 16454              	.LASF424:
 16455 15bc 4F535F46 		.ascii	"OS_FN_BREG_READ\000"
 16455      4E5F4252 
 16455      45475F52 
 16455      45414400 
 16456              	.LASF302:
 16457 15cc 4F535F46 		.ascii	"OS_FN_GPRS_SMS_ACK\000"
 16457      4E5F4750 
 16457      52535F53 
 16457      4D535F41 
 16457      434B00
 16458              	.LASF17:
 16459 15df 4F535F46 		.ascii	"OS_FN_RAND\000"
 16459      4E5F5241 
 16459      4E4400
 16460              	.LASF234:
 16461 15ea 4F535F46 		.ascii	"OS_FN_MSR_CLOSE\000"
 16461      4E5F4D53 
 16461      525F434C 
 16461      4F534500 
 16462              	.LASF809:
 16463 15fa 73747263 		.ascii	"strcpy\000"
 16463      707900
 16464              	.LASF729:
 16465 1601 73746174 		.ascii	"status\000"
 16465      757300
 16466              	.LASF584:
 16467 1608 4445534D 		.ascii	"DESMW\000"
 16467      5700
 16468              	.LASF403:
 16469 160e 4F535F46 		.ascii	"OS_FN_WIFI_RECV_RESPONSE\000"
 16469      4E5F5749 
 16469      46495F52 
 16469      4543565F 
 16469      52455350 
 16470              	.LASF230:
 16471 1627 4F535F46 		.ascii	"OS_FN_LAN_READ\000"
 16471      4E5F4C41 
 16471      4E5F5245 
 16471      414400
 16472              	.LASF492:
 16473 1636 4B5F4750 		.ascii	"K_GPRS_STATUS_PSSUP\000"
 16473      52535F53 
 16473      54415455 
 16473      535F5053 
 16473      53555000 
 16474              	.LASF559:
 16475 164a 53544152 		.ascii	"STARTUPMW\000"
 16475      5455504D 
 16475      5700
 16476              	.LASF498:
 16477 1654 4B5F4750 		.ascii	"K_GPRS_STATUS_RING\000"
 16477      52535F53 
 16477      54415455 
 16477      535F5249 
 16477      4E4700
ARM GAS  C:\Users\AHMED~1.ELE\AppData\Local\Temp\ccAQ67OG.s 			page 350


 16478              	.LASF325:
 16479 1667 4F535F46 		.ascii	"OS_FN_CLICC_CTRL\000"
 16479      4E5F434C 
 16479      4943435F 
 16479      4354524C 
 16479      00
 16480              	.LASF821:
 16481 1678 474E5520 		.ascii	"GNU C 4.9.3 20141119 (release) [ARM/embedded-4_9-br"
 16481      4320342E 
 16481      392E3320 
 16481      32303134 
 16481      31313139 
 16482 16ab 616E6368 		.ascii	"anch revision 218278] -mthumb -mcpu=cortex-a5 -mthu"
 16482      20726576 
 16482      6973696F 
 16482      6E203231 
 16482      38323738 
 16483 16de 6D622D69 		.ascii	"mb-interwork -mstructure-size-boundary=32 -mno-unal"
 16483      6E746572 
 16483      776F726B 
 16483      202D6D73 
 16483      74727563 
 16484 1711 69676E65 		.ascii	"igned-access -g -Os -ffunction-sections -fsigned-ch"
 16484      642D6163 
 16484      63657373 
 16484      202D6720 
 16484      2D4F7320 
 16485 1744 617200   		.ascii	"ar\000"
 16486              	.LASF462:
 16487 1747 4F535F46 		.ascii	"OS_FN_GCM_AES_CLOSE\000"
 16487      4E5F4743 
 16487      4D5F4145 
 16487      535F434C 
 16487      4F534500 
 16488              	.LASF508:
 16489 175b 4B5F4750 		.ascii	"K_GPRS_STATUS_TXRDY1\000"
 16489      52535F53 
 16489      54415455 
 16489      535F5458 
 16489      52445931 
 16490              	.LASF273:
 16491 1770 4F535F46 		.ascii	"OS_FN_MDM_LAST_CONN_STAT\000"
 16491      4E5F4D44 
 16491      4D5F4C41 
 16491      53545F43 
 16491      4F4E4E5F 
 16492              	.LASF428:
 16493 1789 4F535F46 		.ascii	"OS_FN_SLEEP\000"
 16493      4E5F534C 
 16493      45455000 
 16494              	.LASF679:
 16495 1795 73625F64 		.ascii	"sb_date_time\000"
 16495      6174655F 
 16495      74696D65 
 16495      00
 16496              	.LASF676:
 16497 17a2 73625F74 		.ascii	"sb_tel\000"
ARM GAS  C:\Users\AHMED~1.ELE\AppData\Local\Temp\ccAQ67OG.s 			page 351


 16497      656C00
 16498              	.LASF606:
 16499 17a9 534D535F 		.ascii	"SMS_COUNT_MW\000"
 16499      434F554E 
 16499      545F4D57 
 16499      00
 16500              	.LASF773:
 16501 17b6 61456E61 		.ascii	"aEnable\000"
 16501      626C6500 
 16502              	.LASF530:
 16503 17be 534D535F 		.ascii	"SMS_ADDR\000"
 16503      41444452 
 16503      00
 16504              	.LASF242:
 16505 17c7 4F535F46 		.ascii	"OS_FN_LPT_PUTDW\000"
 16505      4E5F4C50 
 16505      545F5055 
 16505      54445700 
 16506              	.LASF746:
 16507 17d7 4C6F6164 		.ascii	"LoadPhoneBook\000"
 16507      50686F6E 
 16507      65426F6F 
 16507      6B00
 16508              	.LASF24:
 16509 17e5 4F535F46 		.ascii	"OS_FN_KBD_LOCK\000"
 16509      4E5F4B42 
 16509      445F4C4F 
 16509      434B00
 16510              	.LASF631:
 16511 17f4 41504D5F 		.ascii	"APM_GETISSUERCOUNT\000"
 16511      47455449 
 16511      53535545 
 16511      52434F55 
 16511      4E5400
 16512              	.LASF476:
 16513 1807 4F535F46 		.ascii	"OS_FN_GPRS_IS_HL6RD\000"
 16513      4E5F4750 
 16513      52535F49 
 16513      535F484C 
 16513      36524400 
 16514              	.LASF186:
 16515 181b 4F535F46 		.ascii	"OS_FN_FILE_TRUNCATE\000"
 16515      4E5F4649 
 16515      4C455F54 
 16515      52554E43 
 16515      41544500 
 16516              	.LASF574:
 16517 182f 464C454E 		.ascii	"FLENGTHMW\000"
 16517      4754484D 
 16517      5700
 16518              	.LASF320:
 16519 1839 4F535F46 		.ascii	"OS_FN_CLICC_OPEN\000"
 16519      4E5F434C 
 16519      4943435F 
 16519      4F50454E 
 16519      00
 16520              	.LASF814:
ARM GAS  C:\Users\AHMED~1.ELE\AppData\Local\Temp\ccAQ67OG.s 			page 352


 16521 184a 73707269 		.ascii	"sprintf\000"
 16521      6E746600 
 16522              	.LASF455:
 16523 1852 4F535F46 		.ascii	"OS_FN_ECC_PUBKEY_VERIFY\000"
 16523      4E5F4543 
 16523      435F5055 
 16523      424B4559 
 16523      5F564552 
 16524              	.LASF364:
 16525 186a 4F535F46 		.ascii	"OS_FN_USBKBD_INKEY\000"
 16525      4E5F5553 
 16525      424B4244 
 16525      5F494E4B 
 16525      455900
 16526              	.LASF635:
 16527 187d 41504D5F 		.ascii	"APM_GETDESCCOUNT\000"
 16527      47455444 
 16527      45534343 
 16527      4F554E54 
 16527      00
 16528              	.LASF140:
 16529 188e 4F535F46 		.ascii	"OS_FN_THREAD_LOCK\000"
 16529      4E5F5448 
 16529      52454144 
 16529      5F4C4F43 
 16529      4B00
 16530              	.LASF355:
 16531 18a0 4F535F46 		.ascii	"OS_FN_BUS_STOP\000"
 16531      4E5F4255 
 16531      535F5354 
 16531      4F5000
 16532              	.LASF786:
 16533 18af 7374735F 		.ascii	"sts_len\000"
 16533      6C656E00 
 16534              	.LASF794:
 16535 18b7 746D7073 		.ascii	"tmpstr\000"
 16535      747200
 16536              	.LASF734:
 16537 18be 6154696D 		.ascii	"aTimeout\000"
 16537      656F7574 
 16537      00
 16538              	.LASF301:
 16539 18c7 4F535F46 		.ascii	"OS_FN_GPRS_SMS_DECODE\000"
 16539      4E5F4750 
 16539      52535F53 
 16539      4D535F44 
 16539      45434F44 
 16540              	.LASF279:
 16541 18dd 4F535F46 		.ascii	"OS_FN_MCOM_SREAD\000"
 16541      4E5F4D43 
 16541      4F4D5F53 
 16541      52454144 
 16541      00
 16542              	.LASF128:
 16543 18ee 4F535F46 		.ascii	"OS_FN_KEY_HASH\000"
 16543      4E5F4B45 
 16543      595F4841 
ARM GAS  C:\Users\AHMED~1.ELE\AppData\Local\Temp\ccAQ67OG.s 			page 353


 16543      534800
 16544              	.LASF190:
 16545 18fd 4F535F46 		.ascii	"OS_FN_FILE_FREESPACE\000"
 16545      4E5F4649 
 16545      4C455F46 
 16545      52454553 
 16545      50414345 
 16546              	.LASF210:
 16547 1912 4F535F46 		.ascii	"OS_FN_SAM_T1\000"
 16547      4E5F5341 
 16547      4D5F5431 
 16547      00
 16548              	.LASF248:
 16549 191f 4F535F46 		.ascii	"OS_FN_USBSER_STATUS\000"
 16549      4E5F5553 
 16549      42534552 
 16549      5F535441 
 16549      54555300 
 16550              	.LASF194:
 16551 1933 4F535F46 		.ascii	"OS_FN_FILE_READDIR\000"
 16551      4E5F4649 
 16551      4C455F52 
 16551      45414444 
 16551      495200
 16552              	.LASF32:
 16553 1946 4F535F46 		.ascii	"OS_FN_BUZ_BEEP\000"
 16553      4E5F4255 
 16553      5A5F4245 
 16553      455000
 16554              	.LASF165:
 16555 1955 4F535F46 		.ascii	"OS_FN_FILE_CREATE_OWNER\000"
 16555      4E5F4649 
 16555      4C455F43 
 16555      52454154 
 16555      455F4F57 
 16556              	.LASF440:
 16557 196d 4F535F46 		.ascii	"OS_FN_APPCALL_RETURN\000"
 16557      4E5F4150 
 16557      5043414C 
 16557      4C5F5245 
 16557      5455524E 
 16558              	.LASF120:
 16559 1982 4F535F46 		.ascii	"OS_FN_KEY_SAVE_TMK\000"
 16559      4E5F4B45 
 16559      595F5341 
 16559      56455F54 
 16559      4D4B00
 16560              	.LASF581:
 16561 1995 47455443 		.ascii	"GETCHARMW\000"
 16561      4841524D 
 16561      5700
 16562              	.LASF18:
 16563 199f 4F535F46 		.ascii	"OS_FN_RAND_UPDATE\000"
 16563      4E5F5241 
 16563      4E445F55 
 16563      50444154 
 16563      4500
ARM GAS  C:\Users\AHMED~1.ELE\AppData\Local\Temp\ccAQ67OG.s 			page 354


 16564              	.LASF770:
 16565 19b1 57726974 		.ascii	"WriteGain\000"
 16565      65476169 
 16565      6E00
 16566              	.LASF168:
 16567 19bb 4F535F46 		.ascii	"OS_FN_FILE_CLOSE\000"
 16567      4E5F4649 
 16567      4C455F43 
 16567      4C4F5345 
 16567      00
 16568              	.LASF164:
 16569 19cc 4F535F46 		.ascii	"OS_FN_FREE\000"
 16569      4E5F4652 
 16569      454500
 16570              	.LASF671:
 16571 19d7 4E4F5F43 		.ascii	"NO_CARRIER\000"
 16571      41525249 
 16571      455200
 16572              	.LASF261:
 16573 19e2 4F535F46 		.ascii	"OS_FN_FL_COPYB_PGM\000"
 16573      4E5F464C 
 16573      5F434F50 
 16573      59425F50 
 16573      474D00
 16574              	.LASF593:
 16575 19f5 44495350 		.ascii	"DISP_CLRLINEMW\000"
 16575      5F434C52 
 16575      4C494E45 
 16575      4D5700
 16576              	.LASF784:
 16577 1a04 735F7074 		.ascii	"s_ptr\000"
 16577      7200
 16578              	.LASF6:
 16579 1a0a 6C6F6E67 		.ascii	"long long int\000"
 16579      206C6F6E 
 16579      6720696E 
 16579      7400
 16580              	.LASF138:
 16581 1a18 4F535F46 		.ascii	"OS_FN_THREAD_CREATE\000"
 16581      4E5F5448 
 16581      52454144 
 16581      5F435245 
 16581      41544500 
 16582              	.LASF37:
 16583 1a2c 4F535F46 		.ascii	"OS_FN_DISP_CLOSE\000"
 16583      4E5F4449 
 16583      53505F43 
 16583      4C4F5345 
 16583      00
 16584              	.LASF377:
 16585 1a3d 4F535F46 		.ascii	"OS_FN_MIF_SELECT\000"
 16585      4E5F4D49 
 16585      465F5345 
 16585      4C454354 
 16585      00
 16586              	.LASF747:
 16587 1a4e 536F7274 		.ascii	"SortPhoneBook\000"
ARM GAS  C:\Users\AHMED~1.ELE\AppData\Local\Temp\ccAQ67OG.s 			page 355


 16587      50686F6E 
 16587      65426F6F 
 16587      6B00
 16588              	.LASF494:
 16589 1a5c 4B5F4750 		.ascii	"K_GPRS_STATUS_NETWORK_READY\000"
 16589      52535F53 
 16589      54415455 
 16589      535F4E45 
 16589      54574F52 
 16590              	.LASF266:
 16591 1a78 4F535F46 		.ascii	"OS_FN_FL_COPYBACK\000"
 16591      4E5F464C 
 16591      5F434F50 
 16591      59424143 
 16591      4B00
 16592              	.LASF583:
 16593 1a8a 4445534B 		.ascii	"DESKEYMW\000"
 16593      45594D57 
 16593      00
 16594              	.LASF360:
 16595 1a93 4F535F46 		.ascii	"OS_FN_NETDEV_EVENT\000"
 16595      4E5F4E45 
 16595      54444556 
 16595      5F455645 
 16595      4E5400
 16596              	.LASF71:
 16597 1aa6 4F535F46 		.ascii	"OS_FN_COM2_STATUS\000"
 16597      4E5F434F 
 16597      4D325F53 
 16597      54415455 
 16597      5300
 16598              	.LASF527:
 16599 1ab8 625F6C65 		.ascii	"b_len\000"
 16599      6E00
 16600              	.LASF756:
 16601 1abe 63616E63 		.ascii	"cancel\000"
 16601      656C00
 16602              	.LASF534:
 16603 1ac5 625F7470 		.ascii	"b_tp_flags\000"
 16603      5F666C61 
 16603      677300
 16604              	.LASF571:
 16605 1ad0 4644454C 		.ascii	"FDELETEMW\000"
 16605      4554454D 
 16605      5700
 16606              	.LASF297:
 16607 1ada 4F535F46 		.ascii	"OS_FN_GPRS_RESET\000"
 16607      4E5F4750 
 16607      52535F52 
 16607      45534554 
 16607      00
 16608              	.LASF293:
 16609 1aeb 4F535F46 		.ascii	"OS_FN_GPRS_AT_CMD\000"
 16609      4E5F4750 
 16609      52535F41 
 16609      545F434D 
 16609      4400
ARM GAS  C:\Users\AHMED~1.ELE\AppData\Local\Temp\ccAQ67OG.s 			page 356


 16610              	.LASF394:
 16611 1afd 4F535F46 		.ascii	"OS_FN_BARCODE_CLOSE\000"
 16611      4E5F4241 
 16611      52434F44 
 16611      455F434C 
 16611      4F534500 
 16612              	.LASF255:
 16613 1b11 4F535F46 		.ascii	"OS_FN_FL_PGM_START\000"
 16613      4E5F464C 
 16613      5F50474D 
 16613      5F535441 
 16613      525400
 16614              	.LASF259:
 16615 1b24 4F535F46 		.ascii	"OS_FN_FL_ERASE_END\000"
 16615      4E5F464C 
 16615      5F455241 
 16615      53455F45 
 16615      4E4400
 16616              	.LASF25:
 16617 1b37 4F535F46 		.ascii	"OS_FN_KBD_UNLOCK\000"
 16617      4E5F4B42 
 16617      445F554E 
 16617      4C4F434B 
 16617      00
 16618              	.LASF243:
 16619 1b48 4F535F46 		.ascii	"OS_FN_LPT_STATUS\000"
 16619      4E5F4C50 
 16619      545F5354 
 16619      41545553 
 16619      00
 16620              	.LASF636:
 16621 1b59 41504D5F 		.ascii	"APM_GETDESCTBL\000"
 16621      47455444 
 16621      45534354 
 16621      424C00
 16622              	.LASF51:
 16623 1b68 4F535F46 		.ascii	"OS_FN_DISP_ICON_COLOR\000"
 16623      4E5F4449 
 16623      53505F49 
 16623      434F4E5F 
 16623      434F4C4F 
 16624              	.LASF504:
 16625 1b7e 4B5F4750 		.ascii	"K_GPRS_STATUS_SMS_SEND_OK\000"
 16625      52535F53 
 16625      54415455 
 16625      535F534D 
 16625      535F5345 
 16626              	.LASF695:
 16627 1b98 735F4375 		.ascii	"s_CurrPHB\000"
 16627      72725048 
 16627      4200
 16628              	.LASF157:
 16629 1ba2 4F535F46 		.ascii	"OS_FN_APP_SEARCH_ID\000"
 16629      4E5F4150 
 16629      505F5345 
 16629      41524348 
 16629      5F494400 
ARM GAS  C:\Users\AHMED~1.ELE\AppData\Local\Temp\ccAQ67OG.s 			page 357


 16630              	.LASF349:
 16631 1bb6 4F535F46 		.ascii	"OS_FN_DEVICE_OPEN\000"
 16631      4E5F4445 
 16631      56494345 
 16631      5F4F5045 
 16631      4E00
 16632              	.LASF55:
 16633 1bc8 4F535F46 		.ascii	"OS_FN_DISP_OVERLAY\000"
 16633      4E5F4449 
 16633      53505F4F 
 16633      5645524C 
 16633      415900
 16634              	.LASF313:
 16635 1bdb 4F535F46 		.ascii	"OS_FN_TPAD_RAW_POS\000"
 16635      4E5F5450 
 16635      41445F52 
 16635      41575F50 
 16635      4F5300
 16636              	.LASF213:
 16637 1bee 4F535F46 		.ascii	"OS_FN_MMC_CLOSE\000"
 16637      4E5F4D4D 
 16637      435F434C 
 16637      4F534500 
 16638              	.LASF359:
 16639 1bfe 4F535F46 		.ascii	"OS_FN_NETDEV_GETLINK\000"
 16639      4E5F4E45 
 16639      54444556 
 16639      5F474554 
 16639      4C494E4B 
 16640              	.LASF83:
 16641 1c13 4F535F46 		.ascii	"OS_FN_DESKEY\000"
 16641      4E5F4445 
 16641      534B4559 
 16641      00
 16642              	.LASF58:
 16643 1c20 4F535F46 		.ascii	"OS_FN_COM1_RXRDY\000"
 16643      4E5F434F 
 16643      4D315F52 
 16643      58524459 
 16643      00
 16644              	.LASF246:
 16645 1c31 4F535F46 		.ascii	"OS_FN_USBSER_READ\000"
 16645      4E5F5553 
 16645      42534552 
 16645      5F524541 
 16645      4400
 16646              	.LASF98:
 16647 1c43 4F535F46 		.ascii	"OS_FN_MD5_PROCESS\000"
 16647      4E5F4D44 
 16647      355F5052 
 16647      4F434553 
 16647      5300
 16648              	.LASF267:
 16649 1c55 4F535F46 		.ascii	"OS_FN_MDM_OPEN\000"
 16649      4E5F4D44 
 16649      4D5F4F50 
 16649      454E00
ARM GAS  C:\Users\AHMED~1.ELE\AppData\Local\Temp\ccAQ67OG.s 			page 358


 16650              	.LASF772:
 16651 1c64 46616369 		.ascii	"FacilityEnable\000"
 16651      6C697479 
 16651      456E6162 
 16651      6C6500
 16652              	.LASF565:
 16653 1c73 4C534545 		.ascii	"LSEEKMW\000"
 16653      4B4D5700 
 16654              	.LASF782:
 16655 1c7b 47657453 		.ascii	"GetSmsMode\000"
 16655      6D734D6F 
 16655      646500
 16656              	.LASF59:
 16657 1c86 4F535F46 		.ascii	"OS_FN_COM1_TXRDY\000"
 16657      4E5F434F 
 16657      4D315F54 
 16657      58524459 
 16657      00
 16658              	.LASF170:
 16659 1c97 4F535F46 		.ascii	"OS_FN_FILE_RENAME\000"
 16659      4E5F4649 
 16659      4C455F52 
 16659      454E414D 
 16659      4500
 16660              	.LASF450:
 16661 1ca9 4F535F46 		.ascii	"OS_FN_FPRT_CLOSE\000"
 16661      4E5F4650 
 16661      52545F43 
 16661      4C4F5345 
 16661      00
 16662              	.LASF125:
 16663 1cba 4F535F46 		.ascii	"OS_FN_KEY_DUKPT_MAC_CAL\000"
 16663      4E5F4B45 
 16663      595F4455 
 16663      4B50545F 
 16663      4D41435F 
 16664              	.LASF789:
 16665 1cd2 636F756E 		.ascii	"count\000"
 16665      7400
 16666              	.LASF352:
 16667 1cd8 4F535F46 		.ascii	"OS_FN_INTERRUPT_REGISTER\000"
 16667      4E5F494E 
 16667      54455252 
 16667      5550545F 
 16667      52454749 
 16668              	.LASF192:
 16669 1cf1 4F535F46 		.ascii	"OS_FN_FILE_FTRUNCATE\000"
 16669      4E5F4649 
 16669      4C455F46 
 16669      5452554E 
 16669      43415445 
 16670              	.LASF634:
 16671 1d06 41504D5F 		.ascii	"APM_GETACQTBL\000"
 16671      47455441 
 16671      43515442 
 16671      4C00
 16672              	.LASF684:
ARM GAS  C:\Users\AHMED~1.ELE\AppData\Local\Temp\ccAQ67OG.s 			page 359


 16673 1d14 645F6361 		.ascii	"d_call_status\000"
 16673      6C6C5F73 
 16673      74617475 
 16673      7300
 16674              	.LASF211:
 16675 1d22 4F535F46 		.ascii	"OS_FN_SAM_CHANGE\000"
 16675      4E5F5341 
 16675      4D5F4348 
 16675      414E4745 
 16675      00
 16676              	.LASF184:
 16677 1d33 4F535F46 		.ascii	"OS_FN_FILE_ACTIVATE\000"
 16677      4E5F4649 
 16677      4C455F41 
 16677      43544956 
 16677      41544500 
 16678              	.LASF45:
 16679 1d47 4F535F46 		.ascii	"OS_FN_DISP_LENGTH\000"
 16679      4E5F4449 
 16679      53505F4C 
 16679      454E4754 
 16679      4800
 16680              	.LASF796:
 16681 1d59 6D707472 		.ascii	"mptr\000"
 16681      00
 16682              	.LASF607:
 16683 1d5e 534D535F 		.ascii	"SMS_CLEAR_ALL_MW\000"
 16683      434C4541 
 16683      525F414C 
 16683      4C5F4D57 
 16683      00
 16684              	.LASF452:
 16685 1d6f 4F535F46 		.ascii	"OS_FN_FPRT_INFO_SET\000"
 16685      4E5F4650 
 16685      52545F49 
 16685      4E464F5F 
 16685      53455400 
 16686              	.LASF8:
 16687 1d83 756E7369 		.ascii	"unsigned int\000"
 16687      676E6564 
 16687      20696E74 
 16687      00
 16688              	.LASF808:
 16689 1d90 7379735F 		.ascii	"sys_func0\000"
 16689      66756E63 
 16689      3000
 16690              	.LASF818:
 16691 1d9a 7379735F 		.ascii	"sys_func1\000"
 16691      66756E63 
 16691      3100
 16692              	.LASF446:
 16693 1da4 4F535F46 		.ascii	"OS_FN_DTIMER_LATCH_TIME\000"
 16693      4E5F4454 
 16693      494D4552 
 16693      5F4C4154 
 16693      43485F54 
 16694              	.LASF696:
ARM GAS  C:\Users\AHMED~1.ELE\AppData\Local\Temp\ccAQ67OG.s 			page 360


 16695 1dbc 735F534D 		.ascii	"s_SMSList\000"
 16695      534C6973 
 16695      7400
 16696              	.LASF324:
 16697 1dc6 4F535F46 		.ascii	"OS_FN_CLICC_SENDCOMMAND\000"
 16697      4E5F434C 
 16697      4943435F 
 16697      53454E44 
 16697      434F4D4D 
 16698              	.LASF677:
 16699 1dde 645F6964 		.ascii	"d_idx\000"
 16699      7800
 16700              	.LASF410:
 16701 1de4 4F535F46 		.ascii	"OS_FN_NFC_CLOSE\000"
 16701      4E5F4E46 
 16701      435F434C 
 16701      4F534500 
 16702              	.LASF437:
 16703 1df4 4F535F46 		.ascii	"OS_FN_DLL_REQ\000"
 16703      4E5F444C 
 16703      4C5F5245 
 16703      5100
 16704              	.LASF548:
 16705 1e02 645F7469 		.ascii	"d_timeout\000"
 16705      6D656F75 
 16705      7400
 16706              	.LASF702:
 16707 1e0c 6C617374 		.ascii	"last_tick\000"
 16707      5F746963 
 16707      6B00
 16708              	.LASF177:
 16709 1e16 4F535F46 		.ascii	"OS_FN_FILE_GETC\000"
 16709      4E5F4649 
 16709      4C455F47 
 16709      45544300 
 16710              	.LASF397:
 16711 1e26 4F535F46 		.ascii	"OS_FN_BARCODE_READ\000"
 16711      4E5F4241 
 16711      52434F44 
 16711      455F5245 
 16711      414400
 16712              	.LASF599:
 16713 1e39 44495350 		.ascii	"DISP_PUTGMW\000"
 16713      5F505554 
 16713      474D5700 
 16714              	.LASF474:
 16715 1e45 4F535F46 		.ascii	"OS_FN_IMG_SENSOR_GET_FRAME_COMPLETE\000"
 16715      4E5F494D 
 16715      475F5345 
 16715      4E534F52 
 16715      5F474554 
 16716              	.LASF298:
 16717 1e69 4F535F46 		.ascii	"OS_FN_GPRS_CONTROL\000"
 16717      4E5F4750 
 16717      52535F43 
 16717      4F4E5452 
 16717      4F4C00
ARM GAS  C:\Users\AHMED~1.ELE\AppData\Local\Temp\ccAQ67OG.s 			page 361


 16718              	.LASF826:
 16719 1e7c 5F5F6275 		.ascii	"__builtin_strchr\000"
 16719      696C7469 
 16719      6E5F7374 
 16719      72636872 
 16719      00
 16720              	.LASF419:
 16721 1e8d 4F535F46 		.ascii	"OS_FN_GPRS_GET_GPS_INFO\000"
 16721      4E5F4750 
 16721      52535F47 
 16721      45545F47 
 16721      50535F49 
 16722              	.LASF641:
 16723 1ea5 41504D5F 		.ascii	"APM_GETPENDING\000"
 16723      47455450 
 16723      454E4449 
 16723      4E4700
 16724              	.LASF506:
 16725 1eb4 4B5F4750 		.ascii	"K_GPRS_STATUS_SMS_SEND_TIMEOUT\000"
 16725      52535F53 
 16725      54415455 
 16725      535F534D 
 16725      535F5345 
 16726              	.LASF127:
 16727 1ed3 4F535F46 		.ascii	"OS_FN_KEY_CBC_MAC\000"
 16727      4E5F4B45 
 16727      595F4342 
 16727      435F4D41 
 16727      4300
 16728              	.LASF93:
 16729 1ee5 4F535F46 		.ascii	"OS_FN_AES_SETUP_KEY\000"
 16729      4E5F4145 
 16729      535F5345 
 16729      5455505F 
 16729      4B455900 
 16730              	.LASF350:
 16731 1ef9 4F535F46 		.ascii	"OS_FN_DEVICE_MOUNT\000"
 16731      4E5F4445 
 16731      56494345 
 16731      5F4D4F55 
 16731      4E5400
 16732              	.LASF89:
 16733 1f0c 4F535F46 		.ascii	"OS_FN_NEW_DES\000"
 16733      4E5F4E45 
 16733      575F4445 
 16733      5300
 16734              	.LASF183:
 16735 1f1a 4F535F46 		.ascii	"OS_FN_FILE_DEACTIVATE\000"
 16735      4E5F4649 
 16735      4C455F44 
 16735      45414354 
 16735      49564154 
 16736              	.LASF366:
 16737 1f30 4F535F46 		.ascii	"OS_FN_TAMPER_ON\000"
 16737      4E5F5441 
 16737      4D504552 
 16737      5F4F4E00 
ARM GAS  C:\Users\AHMED~1.ELE\AppData\Local\Temp\ccAQ67OG.s 			page 362


 16738              	.LASF257:
 16739 1f40 4F535F46 		.ascii	"OS_FN_FL_PGM_END\000"
 16739      4E5F464C 
 16739      5F50474D 
 16739      5F454E44 
 16739      00
 16740              	.LASF264:
 16741 1f51 4F535F46 		.ascii	"OS_FN_FL_CREAD\000"
 16741      4E5F464C 
 16741      5F435245 
 16741      414400
 16742              	.LASF601:
 16743 1f60 4F535F43 		.ascii	"OS_CALL_MW\000"
 16743      414C4C5F 
 16743      4D5700
 16744              	.LASF415:
 16745 1f6b 4F535F46 		.ascii	"OS_FN_NFC_IC_REG_DIRECT_READ\000"
 16745      4E5F4E46 
 16745      435F4943 
 16745      5F524547 
 16745      5F444952 
 16746              	.LASF759:
 16747 1f88 4D616B65 		.ascii	"MakeReqCall\000"
 16747      52657143 
 16747      616C6C00 
 16748              	.LASF539:
 16749 1f94 625F7470 		.ascii	"b_tp_pi\000"
 16749      5F706900 
 16750              	.LASF388:
 16751 1f9c 4F535F46 		.ascii	"OS_FN_MIF_SNO\000"
 16751      4E5F4D49 
 16751      465F534E 
 16751      4F00
 16752              	.LASF130:
 16753 1faa 4F535F46 		.ascii	"OS_FN_KEY_SAVE_TMK_NC\000"
 16753      4E5F4B45 
 16753      595F5341 
 16753      56455F54 
 16753      4D4B5F4E 
 16754              	.LASF251:
 16755 1fc0 4F535F46 		.ascii	"OS_FN_FL_STATUS\000"
 16755      4E5F464C 
 16755      5F535441 
 16755      54555300 
 16756              	.LASF306:
 16757 1fd0 4F535F46 		.ascii	"OS_FN_TPAD_OPEN\000"
 16757      4E5F5450 
 16757      41445F4F 
 16757      50454E00 
 16758              	.LASF797:
 16759 1fe0 44656C53 		.ascii	"DelSms\000"
 16759      6D7300
 16760              	.LASF719:
 16761 1fe7 4765744F 		.ascii	"GetOptrName\000"
 16761      7074724E 
 16761      616D6500 
 16762              	.LASF112:
ARM GAS  C:\Users\AHMED~1.ELE\AppData\Local\Temp\ccAQ67OG.s 			page 363


 16763 1ff3 4F535F46 		.ascii	"OS_FN_SM2_DECRYPT\000"
 16763      4E5F534D 
 16763      325F4445 
 16763      43525950 
 16763      5400
 16764              	.LASF715:
 16765 2005 47657443 		.ascii	"GetContact\000"
 16765      6F6E7461 
 16765      637400
 16766              	.LASF777:
 16767 2010 456E7465 		.ascii	"EnterPin\000"
 16767      7250696E 
 16767      00
 16768              	.LASF224:
 16769 2019 4F535F46 		.ascii	"OS_FN_SLE_HIST\000"
 16769      4E5F534C 
 16769      455F4849 
 16769      535400
 16770              	.LASF425:
 16771 2028 4F535F46 		.ascii	"OS_FN_BREG_WRITE\000"
 16771      4E5F4252 
 16771      45475F57 
 16771      52495445 
 16771      00
 16772              	.LASF117:
 16773 2039 4F535F46 		.ascii	"OS_FN_SM4_ENCRYPT\000"
 16773      4E5F534D 
 16773      345F454E 
 16773      43525950 
 16773      5400
 16774              	.LASF730:
 16775 204b 57616974 		.ascii	"WaitModuReady\000"
 16775      4D6F6475 
 16775      52656164 
 16775      7900
 16776              	.LASF216:
 16777 2059 4F535F46 		.ascii	"OS_FN_MMC_PSTATUS\000"
 16777      4E5F4D4D 
 16777      435F5053 
 16777      54415455 
 16777      5300
 16778              	.LASF749:
 16779 206b 6C656E32 		.ascii	"len2\000"
 16779      00
 16780              	.LASF258:
 16781 2070 4F535F46 		.ascii	"OS_FN_FL_ERASE_START\000"
 16781      4E5F464C 
 16781      5F455241 
 16781      53455F53 
 16781      54415254 
 16782              	.LASF748:
 16783 2085 6C656E31 		.ascii	"len1\000"
 16783      00
 16784              	.LASF316:
 16785 208a 4F535F46 		.ascii	"OS_FN_CODEC_PLAY\000"
 16785      4E5F434F 
 16785      4445435F 
ARM GAS  C:\Users\AHMED~1.ELE\AppData\Local\Temp\ccAQ67OG.s 			page 364


 16785      504C4159 
 16785      00
 16786              	.LASF486:
 16787 209b 4F535F46 		.ascii	"OS_FN_IMG_SENSOR_SET_MODE\000"
 16787      4E5F494D 
 16787      475F5345 
 16787      4E534F52 
 16787      5F534554 
 16788              	.LASF50:
 16789 20b5 4F535F46 		.ascii	"OS_FN_DISP_BL_CONTROL\000"
 16789      4E5F4449 
 16789      53505F42 
 16789      4C5F434F 
 16789      4E54524F 
 16790              	.LASF14:
 16791 20cb 574F5244 		.ascii	"WORD\000"
 16791      00
 16792              	.LASF804:
 16793 20d0 67417443 		.ascii	"gAtCmdOut\000"
 16793      6D644F75 
 16793      7400
 16794              	.LASF357:
 16795 20da 4F535F46 		.ascii	"OS_FN_NETDEV_OPEN\000"
 16795      4E5F4E45 
 16795      54444556 
 16795      5F4F5045 
 16795      4E00
 16796              	.LASF461:
 16797 20ec 4F535F46 		.ascii	"OS_FN_GCM_AES_FINISH\000"
 16797      4E5F4743 
 16797      4D5F4145 
 16797      535F4649 
 16797      4E495348 
 16798              	.LASF655:
 16799 2101 41504D5F 		.ascii	"APM_GET_BATCH_REC\000"
 16799      4745545F 
 16799      42415443 
 16799      485F5245 
 16799      4300
 16800              	.LASF502:
 16801 2113 4B5F4750 		.ascii	"K_GPRS_STATUS_CD\000"
 16801      52535F53 
 16801      54415455 
 16801      535F4344 
 16801      00
 16802              	.LASF1:
 16803 2124 756E7369 		.ascii	"unsigned char\000"
 16803      676E6564 
 16803      20636861 
 16803      7200
 16804              	.LASF658:
 16805 2132 41504D5F 		.ascii	"APM_SAVE_BAT_REC\000"
 16805      53415645 
 16805      5F424154 
 16805      5F524543 
 16805      00
 16806              	.LASF330:
ARM GAS  C:\Users\AHMED~1.ELE\AppData\Local\Temp\ccAQ67OG.s 			page 365


 16807 2143 4F535F46 		.ascii	"OS_FN_CLICC_LED_SET\000"
 16807      4E5F434C 
 16807      4943435F 
 16807      4C45445F 
 16807      53455400 
 16808              	.LASF674:
 16809 2157 50484F4E 		.ascii	"PHONE_LIST\000"
 16809      455F4C49 
 16809      535400
 16810              	.LASF408:
 16811 2162 4F535F46 		.ascii	"OS_FN_NFC_SEND_FELICA_COMMAND\000"
 16811      4E5F4E46 
 16811      435F5345 
 16811      4E445F46 
 16811      454C4943 
 16812              	.LASF41:
 16813 2180 4F535F46 		.ascii	"OS_FN_DISP_GETG\000"
 16813      4E5F4449 
 16813      53505F47 
 16813      45544700 
 16814              	.LASF668:
 16815 2190 4E4F545F 		.ascii	"NOT_READY\000"
 16815      52454144 
 16815      5900
 16816              	.LASF505:
 16817 219a 4B5F4750 		.ascii	"K_GPRS_STATUS_SMS_SEND_ERROR\000"
 16817      52535F53 
 16817      54415455 
 16817      535F534D 
 16817      535F5345 
 16818              	.LASF771:
 16819 21b7 6156616C 		.ascii	"aVal\000"
 16819      00
 16820              	.LASF218:
 16821 21bc 4F535F46 		.ascii	"OS_FN_MMC_BLK_WRITE\000"
 16821      4E5F4D4D 
 16821      435F424C 
 16821      4B5F5752 
 16821      49544500 
 16822              	.LASF115:
 16823 21d0 4F535F46 		.ascii	"OS_FN_SM3\000"
 16823      4E5F534D 
 16823      3300
 16824              	.LASF745:
 16825 21da 6D61785F 		.ascii	"max_rec\000"
 16825      72656300 
 16826              	.LASF44:
 16827 21e2 4F535F46 		.ascii	"OS_FN_DISP_GETP\000"
 16827      4E5F4449 
 16827      53505F47 
 16827      45545000 
 16828              	.LASF363:
 16829 21f2 4F535F46 		.ascii	"OS_FN_USBKBD_CLOSE\000"
 16829      4E5F5553 
 16829      424B4244 
 16829      5F434C4F 
 16829      534500
ARM GAS  C:\Users\AHMED~1.ELE\AppData\Local\Temp\ccAQ67OG.s 			page 366


 16830              	.LASF187:
 16831 2205 4F535F46 		.ascii	"OS_FN_FILE_AUTH\000"
 16831      4E5F4649 
 16831      4C455F41 
 16831      55544800 
 16832              	.LASF550:
 16833 2215 47505253 		.ascii	"GPRSATRESP\000"
 16833      41545245 
 16833      535000
 16834              	.LASF21:
 16835 2220 4F535F46 		.ascii	"OS_FN_KBD_INKEY\000"
 16835      4E5F4B42 
 16835      445F494E 
 16835      4B455900 
 16836              	.LASF758:
 16837 2230 7050686F 		.ascii	"pPhoneNum\000"
 16837      6E654E75 
 16837      6D00
 16838              	.LASF29:
 16839 223a 4F535F46 		.ascii	"OS_FN_TIMER_GET\000"
 16839      4E5F5449 
 16839      4D45525F 
 16839      47455400 
 16840              	.LASF77:
 16841 224a 4F535F46 		.ascii	"OS_FN_COM3_TXRDY\000"
 16841      4E5F434F 
 16841      4D335F54 
 16841      58524459 
 16841      00
 16842              	.LASF178:
 16843 225b 4F535F46 		.ascii	"OS_FN_FILE_LENGTH\000"
 16843      4E5F4649 
 16843      4C455F4C 
 16843      454E4754 
 16843      4800
 16844              	.LASF488:
 16845 226d 454E445F 		.ascii	"END_OF_OS_FN_LIST\000"
 16845      4F465F4F 
 16845      535F464E 
 16845      5F4C4953 
 16845      5400
 16846              	.LASF723:
 16847 227f 41736332 		.ascii	"Asc2DWVAL\000"
 16847      44575641 
 16847      4C00
 16848              	.LASF162:
 16849 2289 4F535F46 		.ascii	"OS_FN_MALLOC\000"
 16849      4E5F4D41 
 16849      4C4C4F43 
 16849      00
 16850              	.LASF551:
 16851 2296 645F6D61 		.ascii	"d_maxlen\000"
 16851      786C656E 
 16851      00
 16852              	.LASF739:
 16853 229f 61537472 		.ascii	"aStr\000"
 16853      00
ARM GAS  C:\Users\AHMED~1.ELE\AppData\Local\Temp\ccAQ67OG.s 			page 367


 16854              	.LASF444:
 16855 22a4 4F535F46 		.ascii	"OS_FN_DTIMER_LATCH_START\000"
 16855      4E5F4454 
 16855      494D4552 
 16855      5F4C4154 
 16855      43485F53 
 16856              	.LASF738:
 16857 22bd 61436F6E 		.ascii	"aContact\000"
 16857      74616374 
 16857      00
 16858              	.LASF420:
 16859 22c6 4F535F46 		.ascii	"OS_FN_GPS_CMD\000"
 16859      4E5F4750 
 16859      535F434D 
 16859      4400
 16860              	.LASF543:
 16861 22d4 73625F74 		.ascii	"sb_tp_time\000"
 16861      705F7469 
 16861      6D6500
 16862              	.LASF400:
 16863 22df 4F535F46 		.ascii	"OS_FN_BARCODE_ENABLED\000"
 16863      4E5F4241 
 16863      52434F44 
 16863      455F454E 
 16863      41424C45 
 16864              	.LASF171:
 16865 22f5 4F535F46 		.ascii	"OS_FN_FILE_DELETE\000"
 16865      4E5F4649 
 16865      4C455F44 
 16865      454C4554 
 16865      4500
 16866              	.LASF147:
 16867 2307 4F535F46 		.ascii	"OS_FN_BUFMAN_REALLOC\000"
 16867      4E5F4255 
 16867      464D414E 
 16867      5F524541 
 16867      4C4C4F43 
 16868              	.LASF312:
 16869 231c 4F535F46 		.ascii	"OS_FN_TPAD_CALIBRATE\000"
 16869      4E5F5450 
 16869      41445F43 
 16869      414C4942 
 16869      52415445 
 16870              	.LASF659:
 16871 2331 41504D5F 		.ascii	"APM_UPD_BAT_REC\000"
 16871      5550445F 
 16871      4241545F 
 16871      52454300 
 16872              	.LASF585:
 16873 2341 44455332 		.ascii	"DES2MW\000"
 16873      4D5700
 16874              	.LASF107:
 16875 2348 4F535F46 		.ascii	"OS_FN_SM2_SET_CURVE\000"
 16875      4E5F534D 
 16875      325F5345 
 16875      545F4355 
 16875      52564500 
ARM GAS  C:\Users\AHMED~1.ELE\AppData\Local\Temp\ccAQ67OG.s 			page 368


 16876              	.LASF274:
 16877 235c 4F535F46 		.ascii	"OS_FN_MCOM_OPEN\000"
 16877      4E5F4D43 
 16877      4F4D5F4F 
 16877      50454E00 
 16878              	.LASF331:
 16879 236c 4F535F46 		.ascii	"OS_FN_CLICC_LED_CLEAR\000"
 16879      4E5F434C 
 16879      4943435F 
 16879      4C45445F 
 16879      434C4541 
 16880              	.LASF518:
 16881 2382 4B5F4750 		.ascii	"K_GPRS_SMS_TP_MTI_SMS_SUBMIT\000"
 16881      52535F53 
 16881      4D535F54 
 16881      505F4D54 
 16881      495F534D 
 16882              	.LASF158:
 16883 239f 4F535F46 		.ascii	"OS_FN_APP_SEARCH_NAME\000"
 16883      4E5F4150 
 16883      505F5345 
 16883      41524348 
 16883      5F4E414D 
 16884              	.LASF101:
 16885 23b5 4F535F46 		.ascii	"OS_FN_SHA_PROCESS\000"
 16885      4E5F5348 
 16885      415F5052 
 16885      4F434553 
 16885      5300
 16886              	.LASF701:
 16887 23c7 61745F72 		.ascii	"at_resp\000"
 16887      65737000 
 16888              	.LASF361:
 16889 23cf 4F535F46 		.ascii	"OS_FN_NETDEV_IOCTL\000"
 16889      4E5F4E45 
 16889      54444556 
 16889      5F494F43 
 16889      544C00
 16890              	.LASF84:
 16891 23e2 4F535F46 		.ascii	"OS_FN_DES\000"
 16891      4E5F4445 
 16891      5300
 16892              	.LASF475:
 16893 23ec 4F535F46 		.ascii	"OS_FN_IMG_SENSOR_CLOSE\000"
 16893      4E5F494D 
 16893      475F5345 
 16893      4E534F52 
 16893      5F434C4F 
 16894              	.LASF775:
 16895 2403 43686563 		.ascii	"CheckPinState\000"
 16895      6B50696E 
 16895      53746174 
 16895      6500
 16896              	.LASF514:
 16897 2411 4B5F4750 		.ascii	"K_GPRS_STATUS_ALL\000"
 16897      52535F53 
 16897      54415455 
ARM GAS  C:\Users\AHMED~1.ELE\AppData\Local\Temp\ccAQ67OG.s 			page 369


 16897      535F414C 
 16897      4C00
 16898              	.LASF57:
 16899 2423 4F535F46 		.ascii	"OS_FN_COM1_CLOSE\000"
 16899      4E5F434F 
 16899      4D315F43 
 16899      4C4F5345 
 16899      00
 16900              	.LASF263:
 16901 2434 4F535F46 		.ascii	"OS_FN_FL_CREAD_RAND\000"
 16901      4E5F464C 
 16901      5F435245 
 16901      41445F52 
 16901      414E4400 
 16902              	.LASF637:
 16903 2448 41504D5F 		.ascii	"APM_GETLOGOCOUNT\000"
 16903      4745544C 
 16903      4F474F43 
 16903      4F554E54 
 16903      00
 16904              	.LASF779:
 16905 2459 614F6C64 		.ascii	"aOldPin\000"
 16905      50696E00 
 16906              	.LASF23:
 16907 2461 4F535F46 		.ascii	"OS_FN_KBD_GETKEY\000"
 16907      4E5F4B42 
 16907      445F4745 
 16907      544B4559 
 16907      00
 16908              	.LASF335:
 16909 2472 4F535F46 		.ascii	"OS_FN_USBHOST_RESET_DEVICE\000"
 16909      4E5F5553 
 16909      42484F53 
 16909      545F5245 
 16909      5345545F 
 16910              	.LASF774:
 16911 248d 6150696E 		.ascii	"aPin\000"
 16911      00
 16912              	.LASF622:
 16913 2492 41504D5F 		.ascii	"APM_PRECONNECT\000"
 16913      50524543 
 16913      4F4E4E45 
 16913      435400
 16914              	.LASF620:
 16915 24a1 41504D5F 		.ascii	"APM_GETKBDTO\000"
 16915      4745544B 
 16915      4244544F 
 16915      00
 16916              	.LASF801:
 16917 24ae 4D6F6475 		.ascii	"ModuleInit\000"
 16917      6C65496E 
 16917      697400
 16918              	.LASF308:
 16919 24b9 4F535F46 		.ascii	"OS_FN_TPAD_ADD_OBJ\000"
 16919      4E5F5450 
 16919      41445F41 
 16919      44445F4F 
ARM GAS  C:\Users\AHMED~1.ELE\AppData\Local\Temp\ccAQ67OG.s 			page 370


 16919      424A00
 16920              	.LASF731:
 16921 24cc 53696D44 		.ascii	"SimDetect\000"
 16921      65746563 
 16921      7400
 16922              	.LASF7:
 16923 24d6 6C6F6E67 		.ascii	"long long unsigned int\000"
 16923      206C6F6E 
 16923      6720756E 
 16923      7369676E 
 16923      65642069 
 16924              	.LASF512:
 16925 24ed 4B5F4750 		.ascii	"K_GPRS_STATUS_POWER\000"
 16925      52535F53 
 16925      54415455 
 16925      535F504F 
 16925      57455200 
 16926              	.LASF199:
 16927 2501 4F535F46 		.ascii	"OS_FN_FILE_IOCTL\000"
 16927      4E5F4649 
 16927      4C455F49 
 16927      4F43544C 
 16927      00
 16928              	.LASF180:
 16929 2512 4F535F46 		.ascii	"OS_FN_FILE_SEARCH\000"
 16929      4E5F4649 
 16929      4C455F53 
 16929      45415243 
 16929      4800
 16930              	.LASF727:
 16931 2524 6154656C 		.ascii	"aTelSize\000"
 16931      53697A65 
 16931      00
 16932              	.LASF411:
 16933 252d 4F535F46 		.ascii	"OS_FN_NFC_GET_VALID_RESP\000"
 16933      4E5F4E46 
 16933      435F4745 
 16933      545F5641 
 16933      4C49445F 
 16934              	.LASF557:
 16935 2546 645F7465 		.ascii	"d_text_mode\000"
 16935      78745F6D 
 16935      6F646500 
 16936              	.LASF612:
 16937 2552 4D575F46 		.ascii	"MW_FUNC_COUNT\000"
 16937      554E435F 
 16937      434F554E 
 16937      5400
 16938              	.LASF497:
 16939 2560 4B5F4750 		.ascii	"K_GPRS_STATUS_CBM_READY\000"
 16939      52535F53 
 16939      54415455 
 16939      535F4342 
 16939      4D5F5245 
 16940              	.LASF465:
 16941 2578 4F535F46 		.ascii	"OS_FN_WIFI_SOCKET_DISCONNECT\000"
 16941      4E5F5749 
ARM GAS  C:\Users\AHMED~1.ELE\AppData\Local\Temp\ccAQ67OG.s 			page 371


 16941      46495F53 
 16941      4F434B45 
 16941      545F4449 
 16942              	.LASF546:
 16943 2595 73625F74 		.ascii	"sb_tp_ud\000"
 16943      705F7564 
 16943      00
 16944              	.LASF760:
 16945 259e 43686563 		.ascii	"CheckCallStatus\000"
 16945      6B43616C 
 16945      6C537461 
 16945      74757300 
 16946              	.LASF521:
 16947 25ae 4B5F4750 		.ascii	"K_GPRS_SMS_TP_MTI_SMS_COMMAND\000"
 16947      52535F53 
 16947      4D535F54 
 16947      505F4D54 
 16947      495F534D 
 16948              	.LASF600:
 16949 25cc 4745545F 		.ascii	"GET_LCD_TYPEMW\000"
 16949      4C43445F 
 16949      54595045 
 16949      4D5700
 16950              	.LASF311:
 16951 25db 4F535F46 		.ascii	"OS_FN_TPAD_ALERT_RETURN\000"
 16951      4E5F5450 
 16951      41445F41 
 16951      4C455254 
 16951      5F524554 
 16952              	.LASF131:
 16953 25f3 4F535F46 		.ascii	"OS_FN_KEY_SAVE_TMK_CBC\000"
 16953      4E5F4B45 
 16953      595F5341 
 16953      56455F54 
 16953      4D4B5F43 
 16954              	.LASF87:
 16955 260a 4F535F46 		.ascii	"OS_FN_COM_DES\000"
 16955      4E5F434F 
 16955      4D5F4445 
 16955      5300
 16956              	.LASF106:
 16957 2618 4F535F46 		.ascii	"OS_FN_MD4_FINISH\000"
 16957      4E5F4D44 
 16957      345F4649 
 16957      4E495348 
 16957      00
 16958              	.LASF74:
 16959 2629 4F535F46 		.ascii	"OS_FN_COM3_OPEN\000"
 16959      4E5F434F 
 16959      4D335F4F 
 16959      50454E00 
 16960              	.LASF825:
 16961 2639 536F7274 		.ascii	"SortSmsList\000"
 16961      536D734C 
 16961      69737400 
 16962              	.LASF815:
 16963 2645 666E6462 		.ascii	"fndb\000"
ARM GAS  C:\Users\AHMED~1.ELE\AppData\Local\Temp\ccAQ67OG.s 			page 372


 16963      00
 16964              	.LASF509:
 16965 264a 4B5F4750 		.ascii	"K_GPRS_STATUS_TXRDY2\000"
 16965      52535F53 
 16965      54415455 
 16965      535F5458 
 16965      52445932 
 16966              	.LASF362:
 16967 265f 4F535F46 		.ascii	"OS_FN_USBKBD_OPEN\000"
 16967      4E5F5553 
 16967      424B4244 
 16967      5F4F5045 
 16967      4E00
 16968              	.LASF626:
 16969 2671 41504D5F 		.ascii	"APM_RESETCOMM\000"
 16969      52455345 
 16969      54434F4D 
 16969      4D00
 16970              	.LASF670:
 16971 267f 434F4E4E 		.ascii	"CONNECTED\000"
 16971      45435445 
 16971      4400
 16972              	.LASF685:
 16973 2689 73625F6F 		.ascii	"sb_optr_name\000"
 16973      7074725F 
 16973      6E616D65 
 16973      00
 16974              	.LASF647:
 16975 2696 41504D5F 		.ascii	"APM_SETTRACE\000"
 16975      53455454 
 16975      52414345 
 16975      00
 16976              	.LASF262:
 16977 26a3 4F535F46 		.ascii	"OS_FN_FL_COPYB_END\000"
 16977      4E5F464C 
 16977      5F434F50 
 16977      59425F45 
 16977      4E4400
 16978              	.LASF66:
 16979 26b6 4F535F46 		.ascii	"OS_FN_COM2_CLOSE\000"
 16979      4E5F434F 
 16979      4D325F43 
 16979      4C4F5345 
 16979      00
 16980              	.LASF753:
 16981 26c7 44656C43 		.ascii	"DelContact\000"
 16981      6F6E7461 
 16981      637400
 16982              	.LASF221:
 16983 26d2 4F535F46 		.ascii	"OS_FN_MMC_INSERTED\000"
 16983      4E5F4D4D 
 16983      435F494E 
 16983      53455254 
 16983      454400
 16984              	.LASF422:
 16985 26e5 4F535F46 		.ascii	"OS_FN_GPS_RESET\000"
 16985      4E5F4750 
ARM GAS  C:\Users\AHMED~1.ELE\AppData\Local\Temp\ccAQ67OG.s 			page 373


 16985      535F5245 
 16985      53455400 
 16986              	.LASF369:
 16987 26f5 4F535F46 		.ascii	"OS_FN_MIF_OPEN\000"
 16987      4E5F4D49 
 16987      465F4F50 
 16987      454E00
 16988              	.LASF609:
 16989 2704 46545255 		.ascii	"FTRUNCATEMW\000"
 16989      4E434154 
 16989      454D5700 
 16990              	.LASF458:
 16991 2710 4F535F46 		.ascii	"OS_FN_GCM_AES_INIT\000"
 16991      4E5F4743 
 16991      4D5F4145 
 16991      535F494E 
 16991      495400
 16992              	.LASF483:
 16993 2723 4F535F46 		.ascii	"OS_FN_WIFI_SET_REGULATORY_DOMAIN\000"
 16993      4E5F5749 
 16993      46495F53 
 16993      45545F52 
 16993      4547554C 
 16994              	.LASF285:
 16995 2744 4F535F46 		.ascii	"OS_FN_BATT_TEMP\000"
 16995      4E5F4241 
 16995      54545F54 
 16995      454D5000 
 16996              	.LASF535:
 16997 2754 735F7470 		.ascii	"s_tp_a\000"
 16997      5F6100
 16998              	.LASF616:
 16999 275b 41504D5F 		.ascii	"APM_WAITKEY\000"
 16999      57414954 
 16999      4B455900 
 17000              	.LASF553:
 17001 2767 735F7064 		.ascii	"s_pdu\000"
 17001      7500
 17002              	.LASF632:
 17003 276d 41504D5F 		.ascii	"APM_GETISSUER\000"
 17003      47455449 
 17003      53535545 
 17003      5200
 17004              	.LASF542:
 17005 277b 625F7470 		.ascii	"b_tp_dcs\000"
 17005      5F646373 
 17005      00
 17006              	.LASF811:
 17007 2784 6D656D73 		.ascii	"memset\000"
 17007      657400
 17008              	.LASF740:
 17009 278b 614C656E 		.ascii	"aLen\000"
 17009      00
 17010              	.LASF27:
 17011 2790 4F535F46 		.ascii	"OS_FN_TIMER_CLOSE\000"
 17011      4E5F5449 
 17011      4D45525F 
ARM GAS  C:\Users\AHMED~1.ELE\AppData\Local\Temp\ccAQ67OG.s 			page 374


 17011      434C4F53 
 17011      4500
 17012              	.LASF148:
 17013 27a2 4F535F46 		.ascii	"OS_FN_BUFMAN_SHRINK\000"
 17013      4E5F4255 
 17013      464D414E 
 17013      5F534852 
 17013      494E4B00 
 17014              	.LASF741:
 17015 27b6 74656C5F 		.ascii	"tel_len\000"
 17015      6C656E00 
 17016              	.LASF68:
 17017 27be 4F535F46 		.ascii	"OS_FN_COM2_TXRDY\000"
 17017      4E5F434F 
 17017      4D325F54 
 17017      58524459 
 17017      00
 17018              	.LASF275:
 17019 27cf 4F535F46 		.ascii	"OS_FN_MCOM_CLOSE\000"
 17019      4E5F4D43 
 17019      4F4D5F43 
 17019      4C4F5345 
 17019      00
 17020              	.LASF792:
 17021 27e0 614C6973 		.ascii	"aListId\000"
 17021      74496400 
 17022              	.LASF398:
 17023 27e8 4F535F46 		.ascii	"OS_FN_BARCODE_ABORT\000"
 17023      4E5F4241 
 17023      52434F44 
 17023      455F4142 
 17023      4F525400 
 17024              	.LASF385:
 17025 27fc 4F535F46 		.ascii	"OS_FN_MIF_RESTORE\000"
 17025      4E5F4D49 
 17025      465F5245 
 17025      53544F52 
 17025      4500
 17026              	.LASF395:
 17027 280e 4F535F46 		.ascii	"OS_FN_BARCODE_CMD\000"
 17027      4E5F4241 
 17027      52434F44 
 17027      455F434D 
 17027      4400
 17028              	.LASF560:
 17029 2820 53485554 		.ascii	"SHUTDOWNMW\000"
 17029      444F574E 
 17029      4D5700
 17030              	.LASF33:
 17031 282b 4F535F46 		.ascii	"OS_FN_BUZ_STATE\000"
 17031      4E5F4255 
 17031      5A5F5354 
 17031      41544500 
 17032              	.LASF304:
 17033 283b 4F535F46 		.ascii	"OS_FN_GPRS_SMS_CONTROL\000"
 17033      4E5F4750 
 17033      52535F53 
ARM GAS  C:\Users\AHMED~1.ELE\AppData\Local\Temp\ccAQ67OG.s 			page 375


 17033      4D535F43 
 17033      4F4E5452 
 17034              	.LASF228:
 17035 2852 4F535F46 		.ascii	"OS_FN_LAN_RXRDY\000"
 17035      4E5F4C41 
 17035      4E5F5258 
 17035      52445900 
 17036              	.LASF35:
 17037 2862 4F535F46 		.ascii	"OS_FN_RTC_SET\000"
 17037      4E5F5254 
 17037      435F5345 
 17037      5400
 17038              	.LASF799:
 17039 2870 536D7353 		.ascii	"SmsSend\000"
 17039      656E6400 
 17040              	.LASF336:
 17041 2878 4F535F46 		.ascii	"OS_FN_USBHOST_STATUS\000"
 17041      4E5F5553 
 17041      42484F53 
 17041      545F5354 
 17041      41545553 
 17042              	.LASF705:
 17043 288d 53656E64 		.ascii	"SendWaitRsp\000"
 17043      57616974 
 17043      52737000 
 17044              	.LASF591:
 17045 2899 44495350 		.ascii	"DISP_PUTCMW\000"
 17045      5F505554 
 17045      434D5700 
 17046              	.LASF663:
 17047 28a5 41504D5F 		.ascii	"APM_SELYESNO\000"
 17047      53454C59 
 17047      45534E4F 
 17047      00
 17048              	.LASF346:
 17049 28b2 4F535F46 		.ascii	"OS_FN_DEVICE_IOCTL\000"
 17049      4E5F4445 
 17049      56494345 
 17049      5F494F43 
 17049      544C00
 17050              	.LASF155:
 17051 28c5 4F535F46 		.ascii	"OS_FN_GET_CHALLENGE\000"
 17051      4E5F4745 
 17051      545F4348 
 17051      414C4C45 
 17051      4E474500 
 17052              	.LASF217:
 17053 28d9 4F535F46 		.ascii	"OS_FN_MMC_BLK_READ\000"
 17053      4E5F4D4D 
 17053      435F424C 
 17053      4B5F5245 
 17053      414400
 17054              	.LASF709:
 17055 28ec 61546F74 		.ascii	"aTotal\000"
 17055      616C00
 17056              	.LASF700:
 17057 28f3 61745F63 		.ascii	"at_cmd\000"
ARM GAS  C:\Users\AHMED~1.ELE\AppData\Local\Temp\ccAQ67OG.s 			page 376


 17057      6D6400
 17058              	.LASF97:
 17059 28fa 4F535F46 		.ascii	"OS_FN_MD5_INIT\000"
 17059      4E5F4D44 
 17059      355F494E 
 17059      495400
 17060              	.LASF813:
 17061 2909 73747273 		.ascii	"strstr\000"
 17061      747200
 17062              	.LASF816:
 17063 2910 6D656D63 		.ascii	"memcmp\000"
 17063      6D7000
 17064              	.LASF618:
 17065 2917 41504D5F 		.ascii	"APM_GETKBD\000"
 17065      4745544B 
 17065      424400
 17066              	.LASF144:
 17067 2922 4F535F46 		.ascii	"OS_FN_THREAD_RETURN\000"
 17067      4E5F5448 
 17067      52454144 
 17067      5F524554 
 17067      55524E00 
 17068              	.LASF203:
 17069 2936 4F535F46 		.ascii	"OS_FN_CONFIG_UPDATE\000"
 17069      4E5F434F 
 17069      4E464947 
 17069      5F555044 
 17069      41544500 
 17070              	.LASF412:
 17071 294a 4F535F46 		.ascii	"OS_FN_NFC_INFO_GET\000"
 17071      4E5F4E46 
 17071      435F494E 
 17071      464F5F47 
 17071      455400
 17072              	.LASF667:
 17073 295d 41504D5F 		.ascii	"APM_FUNC_COUNT\000"
 17073      46554E43 
 17073      5F434F55 
 17073      4E5400
 17074              	.LASF660:
 17075 296c 41504D5F 		.ascii	"APM_TRACE_IN_BATCH\000"
 17075      54524143 
 17075      455F494E 
 17075      5F424154 
 17075      434800
 17076              	.LASF533:
 17077 297f 625F7064 		.ascii	"b_pdu_len\000"
 17077      755F6C65 
 17077      6E00
 17078              	.LASF191:
 17079 2989 4F535F46 		.ascii	"OS_FN_FILE_GET_SYSTEMINFO\000"
 17079      4E5F4649 
 17079      4C455F47 
 17079      45545F53 
 17079      59535445 
 17080              	.LASF378:
 17081 29a3 4F535F46 		.ascii	"OS_FN_MIF_LOAD_KEY\000"
ARM GAS  C:\Users\AHMED~1.ELE\AppData\Local\Temp\ccAQ67OG.s 			page 377


 17081      4E5F4D49 
 17081      465F4C4F 
 17081      41445F4B 
 17081      455900
 17082              	.LASF212:
 17083 29b6 4F535F46 		.ascii	"OS_FN_MMC_OPEN\000"
 17083      4E5F4D4D 
 17083      435F4F50 
 17083      454E00
 17084              	.LASF345:
 17085 29c5 4F535F46 		.ascii	"OS_FN_DEVICE_ALLOC_MEDIA\000"
 17085      4E5F4445 
 17085      56494345 
 17085      5F414C4C 
 17085      4F435F4D 
 17086              	.LASF692:
 17087 29de 645F736D 		.ascii	"d_sms_used\000"
 17087      735F7573 
 17087      656400
 17088              	.LASF459:
 17089 29e9 4F535F46 		.ascii	"OS_FN_GCM_AES_PROCESS_AAD\000"
 17089      4E5F4743 
 17089      4D5F4145 
 17089      535F5052 
 17089      4F434553 
 17090              	.LASF367:
 17091 2a03 4F535F46 		.ascii	"OS_FN_TAMPER_GET_STATUS\000"
 17091      4E5F5441 
 17091      4D504552 
 17091      5F474554 
 17091      5F535441 
 17092              	.LASF79:
 17093 2a1b 4F535F46 		.ascii	"OS_FN_COM3_SEND\000"
 17093      4E5F434F 
 17093      4D335F53 
 17093      454E4400 
 17094              	.LASF688:
 17095 2a2b 645F746F 		.ascii	"d_total_count\000"
 17095      74616C5F 
 17095      636F756E 
 17095      7400
 17096              	.LASF124:
 17097 2a39 4F535F46 		.ascii	"OS_FN_KEY_DUKPT_ENCRYPT\000"
 17097      4E5F4B45 
 17097      595F4455 
 17097      4B50545F 
 17097      454E4352 
 17098              	.LASF141:
 17099 2a51 4F535F46 		.ascii	"OS_FN_THREAD_UNLOCK\000"
 17099      4E5F5448 
 17099      52454144 
 17099      5F554E4C 
 17099      4F434B00 
 17100              	.LASF370:
 17101 2a65 4F535F46 		.ascii	"OS_FN_MIF_CLOSE\000"
 17101      4E5F4D49 
 17101      465F434C 
ARM GAS  C:\Users\AHMED~1.ELE\AppData\Local\Temp\ccAQ67OG.s 			page 378


 17101      4F534500 
 17102              	.LASF80:
 17103 2a75 4F535F46 		.ascii	"OS_FN_COM3_STATUS\000"
 17103      4E5F434F 
 17103      4D335F53 
 17103      54415455 
 17103      5300
 17104              	.LASF307:
 17105 2a87 4F535F46 		.ascii	"OS_FN_TPAD_CLOSE\000"
 17105      4E5F5450 
 17105      41445F43 
 17105      4C4F5345 
 17105      00
 17106              	.LASF2:
 17107 2a98 73686F72 		.ascii	"short int\000"
 17107      7420696E 
 17107      7400
 17108              	.LASF105:
 17109 2aa2 4F535F46 		.ascii	"OS_FN_MD4_PROCESS\000"
 17109      4E5F4D44 
 17109      345F5052 
 17109      4F434553 
 17109      5300
 17110              	.LASF207:
 17111 2ab4 4F535F46 		.ascii	"OS_FN_SAM_INSERTED\000"
 17111      4E5F5341 
 17111      4D5F494E 
 17111      53455254 
 17111      454400
 17112              	.LASF523:
 17113 2ac7 55534246 		.ascii	"USBFPRT_GENERAL_INFO_IMG_WIDTH\000"
 17113      5052545F 
 17113      47454E45 
 17113      52414C5F 
 17113      494E464F 
 17114              	.LASF329:
 17115 2ae6 4F535F46 		.ascii	"OS_FN_CLICC_LED_STATUS\000"
 17115      4E5F434C 
 17115      4943435F 
 17115      4C45445F 
 17115      53544154 
 17116              	.LASF64:
 17117 2afd 4F535F46 		.ascii	"OS_FN_COM1_SSEND\000"
 17117      4E5F434F 
 17117      4D315F53 
 17117      53454E44 
 17117      00
 17118              	.LASF347:
 17119 2b0e 4F535F46 		.ascii	"OS_FN_DEVICE_SEARCH_INIT\000"
 17119      4E5F4445 
 17119      56494345 
 17119      5F534541 
 17119      5243485F 
 17120              	.LASF282:
 17121 2b27 4F535F46 		.ascii	"OS_FN_MCOM_READ\000"
 17121      4E5F4D43 
 17121      4F4D5F52 
ARM GAS  C:\Users\AHMED~1.ELE\AppData\Local\Temp\ccAQ67OG.s 			page 379


 17121      45414400 
 17122              	.LASF519:
 17123 2b37 4B5F4750 		.ascii	"K_GPRS_SMS_TP_MTI_SMS_SUBMIT_REPORT\000"
 17123      52535F53 
 17123      4D535F54 
 17123      505F4D54 
 17123      495F534D 
 17124              	.LASF645:
 17125 2b5b 41504D5F 		.ascii	"APM_SELACQUIRER\000"
 17125      53454C41 
 17125      43515549 
 17125      52455200 
 17126              	.LASF431:
 17127 2b6b 4F535F46 		.ascii	"OS_FN_FREE_RUN\000"
 17127      4E5F4652 
 17127      45455F52 
 17127      554E00
 17128              	.LASF547:
 17129 2b7a 47505253 		.ascii	"GPRSATCMD\000"
 17129      4154434D 
 17129      4400
 17130              	.LASF291:
 17131 2b84 4F535F46 		.ascii	"OS_FN_GPRS_SIGNAL\000"
 17131      4E5F4750 
 17131      52535F53 
 17131      49474E41 
 17131      4C00
 17132              	.LASF250:
 17133 2b96 4F535F46 		.ascii	"OS_FN_FL_INFO\000"
 17133      4E5F464C 
 17133      5F494E46 
 17133      4F00
 17134              	.LASF478:
 17135 2ba4 4F535F46 		.ascii	"OS_FN_GPRS_SET_PIN_STATUS\000"
 17135      4E5F4750 
 17135      52535F53 
 17135      45545F50 
 17135      494E5F53 
 17136              	.LASF114:
 17137 2bbe 4F535F46 		.ascii	"OS_FN_SM3_ASCII\000"
 17137      4E5F534D 
 17137      335F4153 
 17137      43494900 
 17138              	.LASF209:
 17139 2bce 4F535F46 		.ascii	"OS_FN_SAM_OFF\000"
 17139      4E5F5341 
 17139      4D5F4F46 
 17139      4600
 17140              	.LASF820:
 17141 2bdc 5F5F6275 		.ascii	"__builtin_strcpy\000"
 17141      696C7469 
 17141      6E5F7374 
 17141      72637079 
 17141      00
 17142              	.LASF417:
 17143 2bed 4F535F46 		.ascii	"OS_FN_GPS_OFF\000"
 17143      4E5F4750 
ARM GAS  C:\Users\AHMED~1.ELE\AppData\Local\Temp\ccAQ67OG.s 			page 380


 17143      535F4F46 
 17143      4600
 17144              	.LASF123:
 17145 2bfb 4F535F46 		.ascii	"OS_FN_KEY_FLUSH\000"
 17145      4E5F4B45 
 17145      595F464C 
 17145      55534800 
 17146              	.LASF733:
 17147 2c0b 52656769 		.ascii	"RegisterNetwork\000"
 17147      73746572 
 17147      4E657477 
 17147      6F726B00 
 17148              	.LASF653:
 17149 2c1b 41504D5F 		.ascii	"APM_BATCH_FULL\000"
 17149      42415443 
 17149      485F4655 
 17149      4C4C00
 17150              	.LASF113:
 17151 2c2a 4F535F46 		.ascii	"OS_FN_SM2_GET_MESS\000"
 17151      4E5F534D 
 17151      325F4745 
 17151      545F4D45 
 17151      535300
 17152              	.LASF252:
 17153 2c3d 4F535F46 		.ascii	"OS_FN_FL_PAGE_READ\000"
 17153      4E5F464C 
 17153      5F504147 
 17153      455F5245 
 17153      414400
 17154              	.LASF541:
 17155 2c50 625F7470 		.ascii	"b_tp_ct\000"
 17155      5F637400 
 17156              	.LASF163:
 17157 2c58 4F535F46 		.ascii	"OS_FN_REALLOC\000"
 17157      4E5F5245 
 17157      414C4C4F 
 17157      4300
 17158              	.LASF466:
 17159 2c66 4F535F46 		.ascii	"OS_FN_WIFI_SOCKET_GET_STATE\000"
 17159      4E5F5749 
 17159      46495F53 
 17159      4F434B45 
 17159      545F4745 
 17160              	.LASF376:
 17161 2c82 4F535F46 		.ascii	"OS_FN_MIF_ANTICOLL\000"
 17161      4E5F4D49 
 17161      465F414E 
 17161      5449434F 
 17161      4C4C00
 17162              	.LASF481:
 17163 2c95 4F535F46 		.ascii	"OS_FN_BATT_CHARGE_NOW\000"
 17163      4E5F4241 
 17163      54545F43 
 17163      48415247 
 17163      455F4E4F 
 17164              	.LASF413:
 17165 2cab 4F535F46 		.ascii	"OS_FN_NFC_INFO_SET\000"
ARM GAS  C:\Users\AHMED~1.ELE\AppData\Local\Temp\ccAQ67OG.s 			page 381


 17165      4E5F4E46 
 17165      435F494E 
 17165      464F5F53 
 17165      455400
 17166              	.LASF717:
 17167 2cbe 61526563 		.ascii	"aRecIdx\000"
 17167      49647800 
 17168              	.LASF467:
 17169 2cc6 4F535F46 		.ascii	"OS_FN_WIFI_SOCKET_SEND_TCP\000"
 17169      4E5F5749 
 17169      46495F53 
 17169      4F434B45 
 17169      545F5345 
 17170              	.LASF598:
 17171 2ce1 44495350 		.ascii	"DISP_GETGMW\000"
 17171      5F474554 
 17171      474D5700 
 17172              	.LASF133:
 17173 2ced 4F535F46 		.ascii	"OS_FN_PCI_DSS_GET_KVC\000"
 17173      4E5F5043 
 17173      495F4453 
 17173      535F4745 
 17173      545F4B56 
 17174              	.LASF544:
 17175 2d03 73625F74 		.ascii	"sb_tp_dt\000"
 17175      705F6474 
 17175      00
 17176              	.LASF470:
 17177 2d0c 4F535F46 		.ascii	"OS_FN_WIFI_SOCKET_GET_STATUS\000"
 17177      4E5F5749 
 17177      46495F53 
 17177      4F434B45 
 17177      545F4745 
 17178              	.LASF116:
 17179 2d29 4F535F46 		.ascii	"OS_FN_SM4_SET_KEY\000"
 17179      4E5F534D 
 17179      345F5345 
 17179      545F4B45 
 17179      5900
 17180              	.LASF54:
 17181 2d3b 4F535F46 		.ascii	"OS_FN_DISP_ICON_SET_SIGNAL_TYPE\000"
 17181      4E5F4449 
 17181      53505F49 
 17181      434F4E5F 
 17181      5345545F 
 17182              	.LASF310:
 17183 2d5b 4F535F46 		.ascii	"OS_FN_TPAD_CPOS\000"
 17183      4E5F5450 
 17183      41445F43 
 17183      504F5300 
 17184              	.LASF0:
 17185 2d6b 7369676E 		.ascii	"signed char\000"
 17185      65642063 
 17185      68617200 
 17186              	.LASF493:
 17187 2d77 4B5F4750 		.ascii	"K_GPRS_STATUS_READY\000"
 17187      52535F53 
ARM GAS  C:\Users\AHMED~1.ELE\AppData\Local\Temp\ccAQ67OG.s 			page 382


 17187      54415455 
 17187      535F5245 
 17187      41445900 
 17188              	.LASF402:
 17189 2d8b 4F535F46 		.ascii	"OS_FN_WIFI_SEND_COMMAND\000"
 17189      4E5F5749 
 17189      46495F53 
 17189      454E445F 
 17189      434F4D4D 
 17190              	.LASF657:
 17191 2da3 41504D5F 		.ascii	"APM_CLR_REV_REC\000"
 17191      434C525F 
 17191      5245565F 
 17191      52454300 
 17192              	.LASF576:
 17193 2db3 46524541 		.ascii	"FREADMW\000"
 17193      444D5700 
 17194              	.LASF810:
 17195 2dbb 7374726C 		.ascii	"strlen\000"
 17195      656E00
 17196              	.LASF62:
 17197 2dc2 4F535F46 		.ascii	"OS_FN_COM1_STATUS\000"
 17197      4E5F434F 
 17197      4D315F53 
 17197      54415455 
 17197      5300
 17198              	.LASF664:
 17199 2dd4 41504D5F 		.ascii	"APM_SELAPP\000"
 17199      53454C41 
 17199      505000
 17200              	.LASF683:
 17201 2ddf 47534D5F 		.ascii	"GSM_DATA\000"
 17201      44415441 
 17201      00
 17202              	.LASF134:
 17203 2de8 4F535F46 		.ascii	"OS_FN_PCI_DSS_REGEN_KEY\000"
 17203      4E5F5043 
 17203      495F4453 
 17203      535F5245 
 17203      47454E5F 
 17204              	.LASF78:
 17205 2e00 4F535F46 		.ascii	"OS_FN_COM3_READ\000"
 17205      4E5F434F 
 17205      4D335F52 
 17205      45414400 
 17206              	.LASF482:
 17207 2e10 4F535F46 		.ascii	"OS_FN_WIFI_GET_REGULATORY_DOMAIN\000"
 17207      4E5F5749 
 17207      46495F47 
 17207      45545F52 
 17207      4547554C 
 17208              	.LASF662:
 17209 2e31 41504D5F 		.ascii	"APM_GETACCESSCODE\000"
 17209      47455441 
 17209      43434553 
 17209      53434F44 
 17209      4500
ARM GAS  C:\Users\AHMED~1.ELE\AppData\Local\Temp\ccAQ67OG.s 			page 383


 17210              	.LASF812:
 17211 2e43 6D656D63 		.ascii	"memcpy\000"
 17211      707900
 17212              	.LASF390:
 17213 2e4a 4F535F46 		.ascii	"OS_FN_MIF_GET\000"
 17213      4E5F4D49 
 17213      465F4745 
 17213      5400
 17214              	.LASF139:
 17215 2e58 4F535F46 		.ascii	"OS_FN_THREAD_DELETE\000"
 17215      4E5F5448 
 17215      52454144 
 17215      5F44454C 
 17215      45544500 
 17216              	.LASF188:
 17217 2e6c 4F535F46 		.ascii	"OS_FN_FILE_SET_LOCK\000"
 17217      4E5F4649 
 17217      4C455F53 
 17217      45545F4C 
 17217      4F434B00 
 17218              	.LASF693:
 17219 2e80 645F736D 		.ascii	"d_sms_recv\000"
 17219      735F7265 
 17219      637600
 17220              	.LASF161:
 17221 2e8b 4F535F46 		.ascii	"OS_FN_APP_INFO\000"
 17221      4E5F4150 
 17221      505F494E 
 17221      464F00
 17222              	.LASF510:
 17223 2e9a 4B5F4750 		.ascii	"K_GPRS_STATUS_RXRDY1\000"
 17223      52535F53 
 17223      54415455 
 17223      535F5258 
 17223      52445931 
 17224              	.LASF511:
 17225 2eaf 4B5F4750 		.ascii	"K_GPRS_STATUS_RXRDY2\000"
 17225      52535F53 
 17225      54415455 
 17225      535F5258 
 17225      52445932 
 17226              	.LASF624:
 17227 2ec4 41504D5F 		.ascii	"APM_SENDRCVD\000"
 17227      53454E44 
 17227      52435644 
 17227      00
 17228              	.LASF617:
 17229 2ed1 41504D5F 		.ascii	"APM_YESNO\000"
 17229      5945534E 
 17229      4F00
 17230              	.LASF237:
 17231 2edb 4F535F46 		.ascii	"OS_FN_MSR_READ\000"
 17231      4E5F4D53 
 17231      525F5245 
 17231      414400
 17232              	.LASF615:
 17233 2eea 41504D5F 		.ascii	"APM_GETKEY\000"
ARM GAS  C:\Users\AHMED~1.ELE\AppData\Local\Temp\ccAQ67OG.s 			page 384


 17233      4745544B 
 17233      455900
 17234              	.LASF382:
 17235 2ef5 4F535F46 		.ascii	"OS_FN_MIF_WRITE\000"
 17235      4E5F4D49 
 17235      465F5752 
 17235      49544500 
 17236              	.LASF787:
 17237 2f05 6474696D 		.ascii	"dtime_len\000"
 17237      655F6C65 
 17237      6E00
 17238              	.LASF629:
 17239 2f0f 41504D5F 		.ascii	"APM_GETCARDCOUNT\000"
 17239      47455443 
 17239      41524443 
 17239      4F554E54 
 17239      00
 17240              	.LASF611:
 17241 2f20 41505049 		.ascii	"APPINFO_GETMW\000"
 17241      4E464F5F 
 17241      4745544D 
 17241      5700
 17242              	.LASF381:
 17243 2f2e 4F535F46 		.ascii	"OS_FN_MIF_READ\000"
 17243      4E5F4D49 
 17243      465F5245 
 17243      414400
 17244              	.LASF628:
 17245 2f3d 41504D5F 		.ascii	"APM_GETTERMCFG\000"
 17245      47455454 
 17245      45524D43 
 17245      464700
 17246              	.LASF426:
 17247 2f4c 4F535F46 		.ascii	"OS_FN_APPDL_WRITE_APP\000"
 17247      4E5F4150 
 17247      50444C5F 
 17247      57524954 
 17247      455F4150 
 17248              	.LASF195:
 17249 2f62 4F535F46 		.ascii	"OS_FN_FILE_MKDIR\000"
 17249      4E5F4649 
 17249      4C455F4D 
 17249      4B444952 
 17249      00
 17250              	.LASF156:
 17251 2f73 4F535F46 		.ascii	"OS_FN_AUTH\000"
 17251      4E5F4155 
 17251      544800
 17252              	.LASF768:
 17253 2f7e 52656164 		.ascii	"ReadGain\000"
 17253      4761696E 
 17253      00
 17254              	.LASF227:
 17255 2f87 4F535F46 		.ascii	"OS_FN_LAN_CLOSE\000"
 17255      4E5F4C41 
 17255      4E5F434C 
 17255      4F534500 
ARM GAS  C:\Users\AHMED~1.ELE\AppData\Local\Temp\ccAQ67OG.s 			page 385


 17256              	.LASF96:
 17257 2f97 4F535F46 		.ascii	"OS_FN_SHA1\000"
 17257      4E5F5348 
 17257      413100
 17258              	.LASF26:
 17259 2fa2 4F535F46 		.ascii	"OS_FN_TIMER_OPEN\000"
 17259      4E5F5449 
 17259      4D45525F 
 17259      4F50454E 
 17259      00
 17260              	.LASF214:
 17261 2fb3 4F535F46 		.ascii	"OS_FN_MMC_BLK_SIZE\000"
 17261      4E5F4D4D 
 17261      435F424C 
 17261      4B5F5349 
 17261      5A4500
 17262              	.LASF67:
 17263 2fc6 4F535F46 		.ascii	"OS_FN_COM2_RXRDY\000"
 17263      4E5F434F 
 17263      4D325F52 
 17263      58524459 
 17263      00
 17264              	.LASF438:
 17265 2fd7 4F535F46 		.ascii	"OS_FN_GET_MCLK\000"
 17265      4E5F4745 
 17265      545F4D43 
 17265      4C4B00
 17266              	.LASF65:
 17267 2fe6 4F535F46 		.ascii	"OS_FN_COM2_OPEN\000"
 17267      4E5F434F 
 17267      4D325F4F 
 17267      50454E00 
 17268              	.LASF588:
 17269 2ff6 5343484E 		.ascii	"SCHNLSETUPMW\000"
 17269      4C534554 
 17269      55504D57 
 17269      00
 17270              	.LASF272:
 17271 3003 4F535F46 		.ascii	"OS_FN_MDM_STATUS\000"
 17271      4E5F4D44 
 17271      4D5F5354 
 17271      41545553 
 17271      00
 17272              	.LASF529:
 17273 3014 73625F61 		.ascii	"sb_addr\000"
 17273      64647200 
 17274              	.LASF405:
 17275 301c 4F535F46 		.ascii	"OS_FN_WIFI_PROFILES_READ\000"
 17275      4E5F5749 
 17275      46495F50 
 17275      524F4649 
 17275      4C45535F 
 17276              	.LASF15:
 17277 3035 44574F52 		.ascii	"DWORD\000"
 17277      4400
 17278              	.LASF233:
 17279 303b 4F535F46 		.ascii	"OS_FN_MSR_OPEN\000"
ARM GAS  C:\Users\AHMED~1.ELE\AppData\Local\Temp\ccAQ67OG.s 			page 386


 17279      4E5F4D53 
 17279      525F4F50 
 17279      454E00
 17280              	.LASF322:
 17281 304a 4F535F46 		.ascii	"OS_FN_CLICC_REMOVE\000"
 17281      4E5F434C 
 17281      4943435F 
 17281      52454D4F 
 17281      564500
 17282              	.LASF627:
 17283 305d 41504D5F 		.ascii	"APM_GETTERMDATA\000"
 17283      47455454 
 17283      45524D44 
 17283      41544100 
 17284              	.LASF575:
 17285 306d 46534545 		.ascii	"FSEEKMW\000"
 17285      4B4D5700 
 17286              	.LASF256:
 17287 3075 4F535F46 		.ascii	"OS_FN_FL_WRITE\000"
 17287      4E5F464C 
 17287      5F575249 
 17287      544500
 17288              	.LASF73:
 17289 3084 4F535F46 		.ascii	"OS_FN_COM2_SSEND\000"
 17289      4E5F434F 
 17289      4D325F53 
 17289      53454E44 
 17289      00
 17290              	.LASF595:
 17291 3095 44495350 		.ascii	"DISP_GOTOMW\000"
 17291      5F474F54 
 17291      4F4D5700 
 17292              	.LASF219:
 17293 30a1 4F535F46 		.ascii	"OS_FN_MMC_READ\000"
 17293      4E5F4D4D 
 17293      435F5245 
 17293      414400
 17294              	.LASF270:
 17295 30b0 4F535F46 		.ascii	"OS_FN_MDM_DISC\000"
 17295      4E5F4D44 
 17295      4D5F4449 
 17295      534300
 17296              	.LASF90:
 17297 30bf 4F535F46 		.ascii	"OS_FN_NEW_DES2\000"
 17297      4E5F4E45 
 17297      575F4445 
 17297      533200
 17298              	.LASF817:
 17299 30ce 73747263 		.ascii	"strcat\000"
 17299      617400
 17300              	.LASF682:
 17301 30d5 625F696E 		.ascii	"b_info\000"
 17301      666F00
 17302              	.LASF3:
 17303 30dc 73686F72 		.ascii	"short unsigned int\000"
 17303      7420756E 
 17303      7369676E 
ARM GAS  C:\Users\AHMED~1.ELE\AppData\Local\Temp\ccAQ67OG.s 			page 387


 17303      65642069 
 17303      6E7400
 17304              	.LASF755:
 17305 30ef 7054656C 		.ascii	"pTel\000"
 17305      00
 17306              	.LASF524:
 17307 30f4 55534246 		.ascii	"USBFPRT_GENERAL_INFO_IMG_HEIGHT\000"
 17307      5052545F 
 17307      47454E45 
 17307      52414C5F 
 17307      494E464F 
 17308              	.LASF358:
 17309 3114 4F535F46 		.ascii	"OS_FN_NETDEV_CLOSE\000"
 17309      4E5F4E45 
 17309      54444556 
 17309      5F434C4F 
 17309      534500
 17310              	.LASF472:
 17311 3127 4F535F46 		.ascii	"OS_FN_IMG_SENSOR_OPEN\000"
 17311      4E5F494D 
 17311      475F5345 
 17311      4E534F52 
 17311      5F4F5045 
 17312              	.LASF63:
 17313 313d 4F535F46 		.ascii	"OS_FN_COM1_SREAD\000"
 17313      4E5F434F 
 17313      4D315F53 
 17313      52454144 
 17313      00
 17314              	.LASF103:
 17315 314e 4F535F46 		.ascii	"OS_FN_RC4_SETUP\000"
 17315      4E5F5243 
 17315      345F5345 
 17315      54555000 
 17316              	.LASF197:
 17317 315e 4F535F46 		.ascii	"OS_FN_FILE_GET_LONGNAME\000"
 17317      4E5F4649 
 17317      4C455F47 
 17317      45545F4C 
 17317      4F4E474E 
 17318              	.LASF754:
 17319 3176 416C6C43 		.ascii	"AllCallForward\000"
 17319      616C6C46 
 17319      6F727761 
 17319      726400
 17320              	.LASF91:
 17321 3185 4F535F46 		.ascii	"OS_FN_RSA\000"
 17321      4E5F5253 
 17321      4100
 17322              	.LASF337:
 17323 318f 4F535F46 		.ascii	"OS_FN_USBHOST_RHPORT_STATUS\000"
 17323      4E5F5553 
 17323      42484F53 
 17323      545F5248 
 17323      504F5254 
 17324              	.LASF669:
 17325 31ab 4E4F5F41 		.ascii	"NO_ANSWER\000"
ARM GAS  C:\Users\AHMED~1.ELE\AppData\Local\Temp\ccAQ67OG.s 			page 388


 17325      4E535745 
 17325      5200
 17326              	.LASF716:
 17327 31b5 61526563 		.ascii	"aRec\000"
 17327      00
 17328              	.LASF351:
 17329 31ba 4F535F46 		.ascii	"OS_FN_DEVICE_UNMOUNT\000"
 17329      4E5F4445 
 17329      56494345 
 17329      5F554E4D 
 17329      4F554E54 
 17330              	.LASF76:
 17331 31cf 4F535F46 		.ascii	"OS_FN_COM3_RXRDY\000"
 17331      4E5F434F 
 17331      4D335F52 
 17331      58524459 
 17331      00
 17332              	.LASF392:
 17333 31e0 4F535F46 		.ascii	"OS_FN_MIF_INFO_GET\000"
 17333      4E5F4D49 
 17333      465F494E 
 17333      464F5F47 
 17333      455400
 17334              	.LASF686:
 17335 31f3 645F6D61 		.ascii	"d_max_phone_len\000"
 17335      785F7068 
 17335      6F6E655F 
 17335      6C656E00 
 17336              	.LASF249:
 17337 3203 4F535F46 		.ascii	"OS_FN_USBSER_ENABLE\000"
 17337      4E5F5553 
 17337      42534552 
 17337      5F454E41 
 17337      424C4500 
 17338              	.LASF447:
 17339 3217 4F535F46 		.ascii	"OS_FN_LPT_RESET_COUNT\000"
 17339      4E5F4C50 
 17339      545F5245 
 17339      5345545F 
 17339      434F554E 
 17340              	.LASF793:
 17341 322d 736D735F 		.ascii	"sms_pdu\000"
 17341      70647500 
 17342              	.LASF725:
 17343 3235 74656D70 		.ascii	"temp\000"
 17343      00
 17344              	.LASF430:
 17345 323a 4F535F46 		.ascii	"OS_FN_RESET\000"
 17345      4E5F5245 
 17345      53455400 
 17346              	.LASF579:
 17347 3246 46464C55 		.ascii	"FFLUSHMW\000"
 17347      53484D57 
 17347      00
 17348              	.LASF292:
 17349 324f 4F535F46 		.ascii	"OS_FN_GPRS_STATUS\000"
 17349      4E5F4750 
ARM GAS  C:\Users\AHMED~1.ELE\AppData\Local\Temp\ccAQ67OG.s 			page 389


 17349      52535F53 
 17349      54415455 
 17349      5300
 17350              	.LASF644:
 17351 3261 41504D5F 		.ascii	"APM_SETBATCH\000"
 17351      53455442 
 17351      41544348 
 17351      00
 17352              	.LASF697:
 17353 326e 735F4375 		.ascii	"s_CurrSMS\000"
 17353      7272534D 
 17353      5300
 17354              	.LASF803:
 17355 3278 67417443 		.ascii	"gAtCmdIn\000"
 17355      6D64496E 
 17355      00
 17356              	.LASF82:
 17357 3281 4F535F46 		.ascii	"OS_FN_COM3_SSEND\000"
 17357      4E5F434F 
 17357      4D335F53 
 17357      53454E44 
 17357      00
 17358              	.LASF785:
 17359 3292 7374735F 		.ascii	"sts_buf\000"
 17359      62756600 
 17360              	.LASF499:
 17361 329a 4B5F4750 		.ascii	"K_GPRS_STATUS_CID\000"
 17361      52535F53 
 17361      54415455 
 17361      535F4349 
 17361      4400
 17362              	.LASF823:
 17363 32ac 443A5C42 		.ascii	"D:\\Bank Miser\\Core\\S_MISR\\APP\\MISR\000"
 17363      616E6B20 
 17363      4D697365 
 17363      725C436F 
 17363      72655C53 
 17364              	.LASF16:
 17365 32cf 4F535F46 		.ascii	"OS_FN_GET_VERSION\000"
 17365      4E5F4745 
 17365      545F5645 
 17365      5253494F 
 17365      4E00
 17366              	.LASF736:
 17367 32e1 41747461 		.ascii	"AttachGPRS\000"
 17367      63684750 
 17367      525300
 17368              	.LASF290:
 17369 32ec 4F535F46 		.ascii	"OS_FN_ADC_CH_READ\000"
 17369      4E5F4144 
 17369      435F4348 
 17369      5F524541 
 17369      4400
 17370              	.LASF268:
 17371 32fe 4F535F46 		.ascii	"OS_FN_MDM_CLOSE\000"
 17371      4E5F4D44 
 17371      4D5F434C 
ARM GAS  C:\Users\AHMED~1.ELE\AppData\Local\Temp\ccAQ67OG.s 			page 390


 17371      4F534500 
 17372              	.LASF592:
 17373 330e 44495350 		.ascii	"DISP_PUTNMW\000"
 17373      5F505554 
 17373      4E4D5700 
 17374              	.LASF443:
 17375 331a 4F535F46 		.ascii	"OS_FN_DMK_INJECT\000"
 17375      4E5F444D 
 17375      4B5F494E 
 17375      4A454354 
 17375      00
 17376              	.LASF563:
 17377 332b 52454144 		.ascii	"READMW\000"
 17377      4D5700
 17378              	.LASF31:
 17379 3332 4F535F46 		.ascii	"OS_FN_BUZ_CLOSE\000"
 17379      4E5F4255 
 17379      5A5F434C 
 17379      4F534500 
 17380              	.LASF172:
 17381 3342 4F535F46 		.ascii	"OS_FN_FILE_FLUSHED\000"
 17381      4E5F4649 
 17381      4C455F46 
 17381      4C555348 
 17381      454400
 17382              	.LASF100:
 17383 3355 4F535F46 		.ascii	"OS_FN_SHA_INIT\000"
 17383      4E5F5348 
 17383      415F494E 
 17383      495400
 17384              	.LASF46:
 17385 3364 4F535F46 		.ascii	"OS_FN_DISP_GET_LCD_BUFFER\000"
 17385      4E5F4449 
 17385      53505F47 
 17385      45545F4C 
 17385      43445F42 
 17386              	.LASF726:
 17387 337e 47657450 		.ascii	"GetPHBConfig\000"
 17387      4842436F 
 17387      6E666967 
 17387      00
 17388              	.LASF321:
 17389 338b 4F535F46 		.ascii	"OS_FN_CLICC_POLL\000"
 17389      4E5F434C 
 17389      4943435F 
 17389      504F4C4C 
 17389      00
 17390              	.LASF72:
 17391 339c 4F535F46 		.ascii	"OS_FN_COM2_SREAD\000"
 17391      4E5F434F 
 17391      4D325F53 
 17391      52454144 
 17391      00
 17392              	.LASF375:
 17393 33ad 4F535F46 		.ascii	"OS_FN_MIF_STATUS\000"
 17393      4E5F4D49 
 17393      465F5354 
ARM GAS  C:\Users\AHMED~1.ELE\AppData\Local\Temp\ccAQ67OG.s 			page 391


 17393      41545553 
 17393      00
 17394              	.LASF721:
 17395 33be 614D6178 		.ascii	"aMaxLen\000"
 17395      4C656E00 
 17396              	.LASF333:
 17397 33c6 4F535F46 		.ascii	"OS_FN_USBHOST_SUBMIT_BUFFER\000"
 17397      4E5F5553 
 17397      42484F53 
 17397      545F5355 
 17397      424D4954 
 17398              	.LASF202:
 17399 33e2 4F535F46 		.ascii	"OS_FN_CONFIG_WRITE\000"
 17399      4E5F434F 
 17399      4E464947 
 17399      5F575249 
 17399      544500
 17400              	.LASF334:
 17401 33f5 4F535F46 		.ascii	"OS_FN_USBHOST_UNLINK_BUFFER\000"
 17401      4E5F5553 
 17401      42484F53 
 17401      545F554E 
 17401      4C494E4B 
 17402              		.ident	"GCC: (GNU Tools for ARM Embedded Processors) 4.9.3 20141119 (release) [ARM/embedded-4_9-br
ARM GAS  C:\Users\AHMED~1.ELE\AppData\Local\Temp\ccAQ67OG.s 			page 392


DEFINED SYMBOLS
                            *ABS*:00000000 wavecom.c
C:\Users\AHMED~1.ELE\AppData\Local\Temp\ccAQ67OG.s:19     .text.ClearCmdBuf:00000000 $t
C:\Users\AHMED~1.ELE\AppData\Local\Temp\ccAQ67OG.s:23     .text.ClearCmdBuf:00000000 ClearCmdBuf
C:\Users\AHMED~1.ELE\AppData\Local\Temp\ccAQ67OG.s:75     .text.ClearCmdBuf:00000044 $d
C:\Users\AHMED~1.ELE\AppData\Local\Temp\ccAQ67OG.s:80     .text.SendWaitRsp.part.0:00000000 $t
C:\Users\AHMED~1.ELE\AppData\Local\Temp\ccAQ67OG.s:84     .text.SendWaitRsp.part.0:00000000 SendWaitRsp.part.0
C:\Users\AHMED~1.ELE\AppData\Local\Temp\ccAQ67OG.s:282    .text.SendWaitRsp.part.0:00000118 $d
C:\Users\AHMED~1.ELE\AppData\Local\Temp\ccAQ67OG.s:290    .text.SendWaitRsp:00000000 $t
C:\Users\AHMED~1.ELE\AppData\Local\Temp\ccAQ67OG.s:294    .text.SendWaitRsp:00000000 SendWaitRsp
C:\Users\AHMED~1.ELE\AppData\Local\Temp\ccAQ67OG.s:384    .text.SendWaitRsp:00000064 $d
C:\Users\AHMED~1.ELE\AppData\Local\Temp\ccAQ67OG.s:389    .text.SetSmsMode.part.1:00000000 $t
C:\Users\AHMED~1.ELE\AppData\Local\Temp\ccAQ67OG.s:393    .text.SetSmsMode.part.1:00000000 SetSmsMode.part.1
C:\Users\AHMED~1.ELE\AppData\Local\Temp\ccAQ67OG.s:438    .text.SetSmsMode.part.1:0000002c $d
                            *COM*:00005ccc gGSMData
C:\Users\AHMED~1.ELE\AppData\Local\Temp\ccAQ67OG.s:446    .text.Asc2DWVAL.constprop.7:00000000 $t
C:\Users\AHMED~1.ELE\AppData\Local\Temp\ccAQ67OG.s:450    .text.Asc2DWVAL.constprop.7:00000000 Asc2DWVAL.constprop.7
C:\Users\AHMED~1.ELE\AppData\Local\Temp\ccAQ67OG.s:492    .text.WaitModuReady:00000000 $t
C:\Users\AHMED~1.ELE\AppData\Local\Temp\ccAQ67OG.s:497    .text.WaitModuReady:00000000 WaitModuReady
C:\Users\AHMED~1.ELE\AppData\Local\Temp\ccAQ67OG.s:563    .text.WaitModuReady:00000048 $d
C:\Users\AHMED~1.ELE\AppData\Local\Temp\ccAQ67OG.s:568    .text.SimDetect:00000000 $t
C:\Users\AHMED~1.ELE\AppData\Local\Temp\ccAQ67OG.s:573    .text.SimDetect:00000000 SimDetect
C:\Users\AHMED~1.ELE\AppData\Local\Temp\ccAQ67OG.s:617    .text.SimDetect:0000002c $d
C:\Users\AHMED~1.ELE\AppData\Local\Temp\ccAQ67OG.s:624    .text.RegisterNetwork:00000000 $t
C:\Users\AHMED~1.ELE\AppData\Local\Temp\ccAQ67OG.s:629    .text.RegisterNetwork:00000000 RegisterNetwork
C:\Users\AHMED~1.ELE\AppData\Local\Temp\ccAQ67OG.s:722    .text.RegisterNetwork:00000070 $d
C:\Users\AHMED~1.ELE\AppData\Local\Temp\ccAQ67OG.s:731    .text.AttachGPRS:00000000 $t
C:\Users\AHMED~1.ELE\AppData\Local\Temp\ccAQ67OG.s:736    .text.AttachGPRS:00000000 AttachGPRS
C:\Users\AHMED~1.ELE\AppData\Local\Temp\ccAQ67OG.s:776    .text.AttachGPRS:00000028 $d
C:\Users\AHMED~1.ELE\AppData\Local\Temp\ccAQ67OG.s:783    .text.GetPHBCapcity:00000000 $t
C:\Users\AHMED~1.ELE\AppData\Local\Temp\ccAQ67OG.s:788    .text.GetPHBCapcity:00000000 GetPHBCapcity
C:\Users\AHMED~1.ELE\AppData\Local\Temp\ccAQ67OG.s:930    .text.GetPHBCapcity:000000ac $d
C:\Users\AHMED~1.ELE\AppData\Local\Temp\ccAQ67OG.s:938    .text.GetContact:00000000 $t
C:\Users\AHMED~1.ELE\AppData\Local\Temp\ccAQ67OG.s:943    .text.GetContact:00000000 GetContact
C:\Users\AHMED~1.ELE\AppData\Local\Temp\ccAQ67OG.s:1102   .text.GetContact:000000a8 $d
C:\Users\AHMED~1.ELE\AppData\Local\Temp\ccAQ67OG.s:1109   .text.LoadPhoneBook:00000000 $t
C:\Users\AHMED~1.ELE\AppData\Local\Temp\ccAQ67OG.s:1114   .text.LoadPhoneBook:00000000 LoadPhoneBook
C:\Users\AHMED~1.ELE\AppData\Local\Temp\ccAQ67OG.s:1180   .text.LoadPhoneBook:00000044 $d
C:\Users\AHMED~1.ELE\AppData\Local\Temp\ccAQ67OG.s:1185   .text.SortPhoneBook:00000000 $t
C:\Users\AHMED~1.ELE\AppData\Local\Temp\ccAQ67OG.s:1190   .text.SortPhoneBook:00000000 SortPhoneBook
C:\Users\AHMED~1.ELE\AppData\Local\Temp\ccAQ67OG.s:1321   .text.SortPhoneBook:000000b0 $d
C:\Users\AHMED~1.ELE\AppData\Local\Temp\ccAQ67OG.s:1327   .text.SelectPHBook:00000000 $t
C:\Users\AHMED~1.ELE\AppData\Local\Temp\ccAQ67OG.s:1332   .text.SelectPHBook:00000000 SelectPHBook
C:\Users\AHMED~1.ELE\AppData\Local\Temp\ccAQ67OG.s:1519   .text.SelectPHBook:000000e0 $d
C:\Users\AHMED~1.ELE\AppData\Local\Temp\ccAQ67OG.s:1531   .text.WriteContact:00000000 $t
C:\Users\AHMED~1.ELE\AppData\Local\Temp\ccAQ67OG.s:1536   .text.WriteContact:00000000 WriteContact
C:\Users\AHMED~1.ELE\AppData\Local\Temp\ccAQ67OG.s:1635   .text.WriteContact:00000074 $d
C:\Users\AHMED~1.ELE\AppData\Local\Temp\ccAQ67OG.s:1646   .text.DelContact:00000000 $t
C:\Users\AHMED~1.ELE\AppData\Local\Temp\ccAQ67OG.s:1651   .text.DelContact:00000000 DelContact
C:\Users\AHMED~1.ELE\AppData\Local\Temp\ccAQ67OG.s:1722   .text.DelContact:00000050 $d
C:\Users\AHMED~1.ELE\AppData\Local\Temp\ccAQ67OG.s:1729   .text.AllCallForward:00000000 $t
C:\Users\AHMED~1.ELE\AppData\Local\Temp\ccAQ67OG.s:1734   .text.AllCallForward:00000000 AllCallForward
C:\Users\AHMED~1.ELE\AppData\Local\Temp\ccAQ67OG.s:1791   .text.AllCallForward:00000038 $d
C:\Users\AHMED~1.ELE\AppData\Local\Temp\ccAQ67OG.s:1800   .text.MakeCall:00000000 $t
C:\Users\AHMED~1.ELE\AppData\Local\Temp\ccAQ67OG.s:1805   .text.MakeCall:00000000 MakeCall
C:\Users\AHMED~1.ELE\AppData\Local\Temp\ccAQ67OG.s:1855   .text.MakeCall:00000034 $d
C:\Users\AHMED~1.ELE\AppData\Local\Temp\ccAQ67OG.s:1862   .text.MakeReqCall:00000000 $t
ARM GAS  C:\Users\AHMED~1.ELE\AppData\Local\Temp\ccAQ67OG.s 			page 393


C:\Users\AHMED~1.ELE\AppData\Local\Temp\ccAQ67OG.s:1867   .text.MakeReqCall:00000000 MakeReqCall
C:\Users\AHMED~1.ELE\AppData\Local\Temp\ccAQ67OG.s:1919   .text.MakeReqCall:00000038 $d
C:\Users\AHMED~1.ELE\AppData\Local\Temp\ccAQ67OG.s:1928   .text.CheckCallStatus:00000000 $t
C:\Users\AHMED~1.ELE\AppData\Local\Temp\ccAQ67OG.s:1933   .text.CheckCallStatus:00000000 CheckCallStatus
C:\Users\AHMED~1.ELE\AppData\Local\Temp\ccAQ67OG.s:2025   .text.CheckCallStatus:00000074 $d
C:\Users\AHMED~1.ELE\AppData\Local\Temp\ccAQ67OG.s:2032   .text.AnswerCall:00000000 $t
C:\Users\AHMED~1.ELE\AppData\Local\Temp\ccAQ67OG.s:2037   .text.AnswerCall:00000000 AnswerCall
C:\Users\AHMED~1.ELE\AppData\Local\Temp\ccAQ67OG.s:2069   .text.AnswerCall:00000020 $d
C:\Users\AHMED~1.ELE\AppData\Local\Temp\ccAQ67OG.s:2075   .text.SendKeyPress:00000000 $t
C:\Users\AHMED~1.ELE\AppData\Local\Temp\ccAQ67OG.s:2080   .text.SendKeyPress:00000000 SendKeyPress
C:\Users\AHMED~1.ELE\AppData\Local\Temp\ccAQ67OG.s:2107   .text.SendKeyPress:00000018 $d
C:\Users\AHMED~1.ELE\AppData\Local\Temp\ccAQ67OG.s:2112   .text.HangUp:00000000 $t
C:\Users\AHMED~1.ELE\AppData\Local\Temp\ccAQ67OG.s:2117   .text.HangUp:00000000 HangUp
C:\Users\AHMED~1.ELE\AppData\Local\Temp\ccAQ67OG.s:2149   .text.HangUp:00000020 $d
C:\Users\AHMED~1.ELE\AppData\Local\Temp\ccAQ67OG.s:2155   .text.CheckCallEnd:00000000 $t
C:\Users\AHMED~1.ELE\AppData\Local\Temp\ccAQ67OG.s:2160   .text.CheckCallEnd:00000000 CheckCallEnd
C:\Users\AHMED~1.ELE\AppData\Local\Temp\ccAQ67OG.s:2226   .text.CheckCallEnd:00000050 $d
C:\Users\AHMED~1.ELE\AppData\Local\Temp\ccAQ67OG.s:2232   .text.GetCallerID:00000000 $t
C:\Users\AHMED~1.ELE\AppData\Local\Temp\ccAQ67OG.s:2237   .text.GetCallerID:00000000 GetCallerID
C:\Users\AHMED~1.ELE\AppData\Local\Temp\ccAQ67OG.s:2302   .text.GetCallerID:0000004c $d
C:\Users\AHMED~1.ELE\AppData\Local\Temp\ccAQ67OG.s:2308   .text.ReadGain:00000000 $t
C:\Users\AHMED~1.ELE\AppData\Local\Temp\ccAQ67OG.s:2313   .text.ReadGain:00000000 ReadGain
C:\Users\AHMED~1.ELE\AppData\Local\Temp\ccAQ67OG.s:2345   .text.ReadGain:0000001c $d
C:\Users\AHMED~1.ELE\AppData\Local\Temp\ccAQ67OG.s:2350   .text.WriteGain:00000000 $t
C:\Users\AHMED~1.ELE\AppData\Local\Temp\ccAQ67OG.s:2355   .text.WriteGain:00000000 WriteGain
C:\Users\AHMED~1.ELE\AppData\Local\Temp\ccAQ67OG.s:2401   .text.WriteGain:0000002c $d
C:\Users\AHMED~1.ELE\AppData\Local\Temp\ccAQ67OG.s:2409   .text.GetOptrName:00000000 $t
C:\Users\AHMED~1.ELE\AppData\Local\Temp\ccAQ67OG.s:2414   .text.GetOptrName:00000000 GetOptrName
C:\Users\AHMED~1.ELE\AppData\Local\Temp\ccAQ67OG.s:2519   .text.GetOptrName:00000060 $d
C:\Users\AHMED~1.ELE\AppData\Local\Temp\ccAQ67OG.s:2526   .text.FacilityEnable:00000000 $t
C:\Users\AHMED~1.ELE\AppData\Local\Temp\ccAQ67OG.s:2531   .text.FacilityEnable:00000000 FacilityEnable
C:\Users\AHMED~1.ELE\AppData\Local\Temp\ccAQ67OG.s:2633   .text.FacilityEnable:00000070 $d
C:\Users\AHMED~1.ELE\AppData\Local\Temp\ccAQ67OG.s:2647   .text.CheckPinState:00000000 $t
C:\Users\AHMED~1.ELE\AppData\Local\Temp\ccAQ67OG.s:2652   .text.CheckPinState:00000000 CheckPinState
C:\Users\AHMED~1.ELE\AppData\Local\Temp\ccAQ67OG.s:2738   .text.CheckPinState:00000064 $d
C:\Users\AHMED~1.ELE\AppData\Local\Temp\ccAQ67OG.s:2749   .text.EnterPin:00000000 $t
C:\Users\AHMED~1.ELE\AppData\Local\Temp\ccAQ67OG.s:2754   .text.EnterPin:00000000 EnterPin
C:\Users\AHMED~1.ELE\AppData\Local\Temp\ccAQ67OG.s:2810   .text.EnterPin:00000038 $d
C:\Users\AHMED~1.ELE\AppData\Local\Temp\ccAQ67OG.s:2819   .text.ChangePin:00000000 $t
C:\Users\AHMED~1.ELE\AppData\Local\Temp\ccAQ67OG.s:2824   .text.ChangePin:00000000 ChangePin
C:\Users\AHMED~1.ELE\AppData\Local\Temp\ccAQ67OG.s:2924   .text.ChangePin:00000070 $d
C:\Users\AHMED~1.ELE\AppData\Local\Temp\ccAQ67OG.s:2937   .text.SetNewMsgInd:00000000 $t
C:\Users\AHMED~1.ELE\AppData\Local\Temp\ccAQ67OG.s:2942   .text.SetNewMsgInd:00000000 SetNewMsgInd
C:\Users\AHMED~1.ELE\AppData\Local\Temp\ccAQ67OG.s:2977   .text.SetNewMsgInd:00000018 $d
C:\Users\AHMED~1.ELE\AppData\Local\Temp\ccAQ67OG.s:2983   .text.GetSmsMode:00000000 $t
C:\Users\AHMED~1.ELE\AppData\Local\Temp\ccAQ67OG.s:2988   .text.GetSmsMode:00000000 GetSmsMode
C:\Users\AHMED~1.ELE\AppData\Local\Temp\ccAQ67OG.s:3038   .text.GetSmsMode:00000038 $d
C:\Users\AHMED~1.ELE\AppData\Local\Temp\ccAQ67OG.s:3047   .text.GetSmsTotal:00000000 $t
C:\Users\AHMED~1.ELE\AppData\Local\Temp\ccAQ67OG.s:3052   .text.GetSmsTotal:00000000 GetSmsTotal
C:\Users\AHMED~1.ELE\AppData\Local\Temp\ccAQ67OG.s:3180   .text.GetSmsTotal:00000090 $d
C:\Users\AHMED~1.ELE\AppData\Local\Temp\ccAQ67OG.s:3188   .text.LoadSmsInbox:00000000 $t
C:\Users\AHMED~1.ELE\AppData\Local\Temp\ccAQ67OG.s:3193   .text.LoadSmsInbox:00000000 LoadSmsInbox
C:\Users\AHMED~1.ELE\AppData\Local\Temp\ccAQ67OG.s:3600   .text.LoadSmsInbox:0000026c $d
C:\Users\AHMED~1.ELE\AppData\Local\Temp\ccAQ67OG.s:3616   .text.ReadSms:00000000 $t
C:\Users\AHMED~1.ELE\AppData\Local\Temp\ccAQ67OG.s:3621   .text.ReadSms:00000000 ReadSms
C:\Users\AHMED~1.ELE\AppData\Local\Temp\ccAQ67OG.s:3804   .text.ReadSms:000000f4 $d
C:\Users\AHMED~1.ELE\AppData\Local\Temp\ccAQ67OG.s:3814   .text.DelSms:00000000 $t
ARM GAS  C:\Users\AHMED~1.ELE\AppData\Local\Temp\ccAQ67OG.s 			page 394


C:\Users\AHMED~1.ELE\AppData\Local\Temp\ccAQ67OG.s:3819   .text.DelSms:00000000 DelSms
C:\Users\AHMED~1.ELE\AppData\Local\Temp\ccAQ67OG.s:3915   .text.DelSms:00000074 $d
C:\Users\AHMED~1.ELE\AppData\Local\Temp\ccAQ67OG.s:3923   .text.SmsSend:00000000 $t
C:\Users\AHMED~1.ELE\AppData\Local\Temp\ccAQ67OG.s:3928   .text.SmsSend:00000000 SmsSend
C:\Users\AHMED~1.ELE\AppData\Local\Temp\ccAQ67OG.s:4066   .text.SmsSend:000000ac $d
C:\Users\AHMED~1.ELE\AppData\Local\Temp\ccAQ67OG.s:4072   .text.ModuleInit:00000000 $t
C:\Users\AHMED~1.ELE\AppData\Local\Temp\ccAQ67OG.s:4077   .text.ModuleInit:00000000 ModuleInit
C:\Users\AHMED~1.ELE\AppData\Local\Temp\ccAQ67OG.s:4124   .text.ModuleInit:00000030 $d
C:\Users\AHMED~1.ELE\AppData\Local\Temp\ccAQ67OG.s:4131   .rodata:00000000 $d
C:\Users\AHMED~1.ELE\AppData\Local\Temp\ccAQ67OG.s:4139   .rodata:0000000c KBookID
C:\Users\AHMED~1.ELE\AppData\Local\Temp\ccAQ67OG.s:4146   .rodata:0000001c CSWTCH.85
C:\Users\AHMED~1.ELE\AppData\Local\Temp\ccAQ67OG.s:4311   .bss:00000000 gAtCmdOut
C:\Users\AHMED~1.ELE\AppData\Local\Temp\ccAQ67OG.s:4312   .bss:00000000 $d
C:\Users\AHMED~1.ELE\AppData\Local\Temp\ccAQ67OG.s:4315   .bss:000005dd gAtCmdIn
                     .debug_frame:00000010 $d

UNDEFINED SYMBOLS
lib_app_call
sys_func0
gGprsHandle
strcpy
memset
strlen
memcpy
strstr
sprintf
fndb
memcmp
strcat
sys_func1
strchr
