Archive member included because of file (symbol)

../LibA5T1000/gcc\libsyscall.a(app_call.o)
                              obj/Adjust.o (lib_app_call)
../LibA5T1000/gcc\libsyscall.a(sys_call.o)
                              obj/ParamTest.o (sys_func3)
../LibA5T1000/gcc\libbasecall.a(base_call.o)
                              obj/network.o (base_func0)
../LibA5T1000/gcc\libsptutil.a(bcd2bin.o)
                              obj/Settle.o (bcd2bin)
../LibA5T1000/gcc\libsptutil.a(bcd2val.o)
                              obj/Chkoptn.o (bcd2val)
../LibA5T1000/gcc\libsptutil.a(bcdadd.o)
                              obj/Sysutil.o (bcdadd)
../LibA5T1000/gcc\libsptutil.a(bcdinc.o)
                              obj/Settle.o (bcdinc)
../LibA5T1000/gcc\libsptutil.a(bcdsub.o)
                              obj/Sysutil.o (bcdsub)
../LibA5T1000/gcc\libsptutil.a(bin2bcd.o)
                              obj/hostmsg.o (bin2bcd)
../LibA5T1000/gcc\libsptutil.a(bin2dec.o)
                              obj/Func.o (bin2dec)
../LibA5T1000/gcc\libsptutil.a(bindec_d.o)
                              obj/Print.o (bindec_data)
../LibA5T1000/gcc\libsptutil.a(chkdok.o)
                              obj/input.o (chk_digit_ok)
../LibA5T1000/gcc\libsptutil.a(compress.o)
                              obj/Settle.o (compress)
../LibA5T1000/gcc\libsptutil.a(crcccitt.o)
                              obj/corevar.o (cal_crc)
../LibA5T1000/gcc\libsptutil.a(dbin2asc.o)
                              obj/Sysutil.o (dbin2asc)
../LibA5T1000/gcc\libsptutil.a(dbin2bcd.o)
                              obj/ctltrans.o (dbin2bcd)
../LibA5T1000/gcc\libsptutil.a(decbin4b.o)
                              obj/hostmsg.o (decbin4b)
../LibA5T1000/gcc\libsptutil.a(decbin8b.o)
                              obj/Adjust.o (decbin8b)
../LibA5T1000/gcc\libsptutil.a(fndb.o)
                              obj/Ecr.o (fndb)
../LibA5T1000/gcc\libsptutil.a(get_byte.o)
                              obj/hostmsg.o (get_byte)
../LibA5T1000/gcc\libsptutil.a(get_dist.o)
                              obj/corevar.o (get_distance)
../LibA5T1000/gcc\libsptutil.a(get_mem.o)
                              obj/hostmsg.o (get_mem)
../LibA5T1000/gcc\libsptutil.a(get_pptr.o)
                              obj/hostmsg.o (get_pptr)
../LibA5T1000/gcc\libsptutil.a(hex_val.o)
                              ../LibA5T1000/gcc\libsptutil.a(compress.o) (hex_value)
../LibA5T1000/gcc\libsptutil.a(inc_pptr.o)
                              obj/corevar.o (inc_pptr)
../LibA5T1000/gcc\libsptutil.a(isbdigit.o)
                              obj/input.o (isbdigit)
../LibA5T1000/gcc\libsptutil.a(pack_b.o)
                              obj/Settle.o (pack_byte)
../LibA5T1000/gcc\libsptutil.a(pack_lf.o)
                              obj/Func.o (pack_lf)
../LibA5T1000/gcc\libsptutil.a(pack_lfs.o)
                              obj/Func.o (pack_lfs)
../LibA5T1000/gcc\libsptutil.a(pack_mem.o)
                              obj/Func.o (pack_mem)
../LibA5T1000/gcc\libsptutil.a(pack_nb.o)
                              obj/Print.o (pack_nbyte)
../LibA5T1000/gcc\libsptutil.a(pack_spc.o)
                              obj/Func.o (pack_space)
../LibA5T1000/gcc\libsptutil.a(pack_str.o)
                              obj/Func.o (pack_str)
../LibA5T1000/gcc\libsptutil.a(peek_b.o)
                              obj/hostmsg.o (peek_byte)
../LibA5T1000/gcc\libsptutil.a(set_pptr.o)
                              ../LibA5T1000/gcc\libsptutil.a(get_mem.o) (buffer_overflow)
../LibA5T1000/gcc\libsptutil.a(skpb.o)
                              obj/Sysutil.o (skpb)
../LibA5T1000/gcc\libsptutil.a(split.o)
                              obj/Ecr.o (split)
../LibA5T1000/gcc\libsptutil.a(split_d.o)
                              obj/Func.o (split_data)
../LibA5T1000/gcc\libsptutil.a(val2bcd.o)
                              ../LibA5T1000/gcc\libsptutil.a(bcdadd.o) (val2bcd)
../LibA5T1000/gcc\libsptutil.a(hexdigit.o)
                              ../LibA5T1000/gcc\libsptutil.a(split.o) (hex_digit)
../LibA5T1000/gcc\libspglib.a(GIFLib.o)
                              obj/ParamTest.o (GIFSetPos)
../LibA5T1000/gcc\libspglib.a(GLib.o)
                              obj/tpadtest.o (GD_SetDotSize)
C:\DevTools\gcc_v49_2014q4/arm-none-eabi/lib/thumb\libc.a(lib_a-memcmp.o)
                              obj/Others.o (memcmp)
C:\DevTools\gcc_v49_2014q4/arm-none-eabi/lib/thumb\libc.a(lib_a-memcpy.o)
                              obj/Adjust.o (memcpy)
C:\DevTools\gcc_v49_2014q4/arm-none-eabi/lib/thumb\libc.a(lib_a-memmove.o)
                              obj/Coremain.o (memmove)
C:\DevTools\gcc_v49_2014q4/arm-none-eabi/lib/thumb\libc.a(lib_a-memset.o)
                              obj/Adjust.o (memset)
C:\DevTools\gcc_v49_2014q4/arm-none-eabi/lib/thumb\libc.a(lib_a-puts.o)
                              obj/ctltrans.o (puts)
C:\DevTools\gcc_v49_2014q4/arm-none-eabi/lib/thumb\libc.a(lib_a-strcat.o)
                              obj/ParamTest.o (strcat)
C:\DevTools\gcc_v49_2014q4/arm-none-eabi/lib/thumb\libc.a(lib_a-strchr.o)
                              obj/wavecom.o (strchr)
C:\DevTools\gcc_v49_2014q4/arm-none-eabi/lib/thumb\libc.a(lib_a-strcpy.o)
                              obj/Coremain.o (strcpy)
C:\DevTools\gcc_v49_2014q4/arm-none-eabi/lib/thumb\libc.a(lib_a-strlen.o)
                              obj/Adjust.o (strlen)
C:\DevTools\gcc_v49_2014q4/arm-none-eabi/lib/thumb\libc.a(lib_a-strstr.o)
                              obj/network.o (strstr)
C:\DevTools\gcc_v49_2014q4/arm-none-eabi/lib/thumb\libc.a(lib_a-fvwrite.o)
                              C:\DevTools\gcc_v49_2014q4/arm-none-eabi/lib/thumb\libc.a(lib_a-puts.o) (__sfvwrite_r)
C:\DevTools\gcc_v49_2014q4/arm-none-eabi/lib/thumb\libc.a(lib_a-impure.o)
                              C:\DevTools\gcc_v49_2014q4/arm-none-eabi/lib/thumb\libc.a(lib_a-puts.o) (_impure_ptr)
C:\DevTools\gcc_v49_2014q4/arm-none-eabi/lib/thumb\libc.a(lib_a-mallocr.o)
                              C:\DevTools\gcc_v49_2014q4/arm-none-eabi/lib/thumb\libc.a(lib_a-fvwrite.o) (_malloc_r)
C:\DevTools\gcc_v49_2014q4/arm-none-eabi/lib/thumb\libc.a(lib_a-memchr.o)
                              C:\DevTools\gcc_v49_2014q4/arm-none-eabi/lib/thumb\libc.a(lib_a-strstr.o) (memchr)
C:\DevTools\gcc_v49_2014q4/arm-none-eabi/lib/thumb\libc.a(lib_a-mlock.o)
                              C:\DevTools\gcc_v49_2014q4/arm-none-eabi/lib/thumb\libc.a(lib_a-mallocr.o) (__malloc_lock)
C:\DevTools\gcc_v49_2014q4/arm-none-eabi/lib/thumb\libc.a(lib_a-reallocr.o)
                              C:\DevTools\gcc_v49_2014q4/arm-none-eabi/lib/thumb\libc.a(lib_a-fvwrite.o) (_realloc_r)
C:\DevTools\gcc_v49_2014q4/arm-none-eabi/lib/thumb\libc.a(lib_a-wsetup.o)
                              C:\DevTools\gcc_v49_2014q4/arm-none-eabi/lib/thumb\libc.a(lib_a-fvwrite.o) (__swsetup_r)
C:\DevTools\gcc_v49_2014q4/arm-none-eabi/lib/thumb\libc.a(lib_a-fflush.o)
                              C:\DevTools\gcc_v49_2014q4/arm-none-eabi/lib/thumb\libc.a(lib_a-fvwrite.o) (_fflush_r)
C:\DevTools\gcc_v49_2014q4/arm-none-eabi/lib/thumb\libc.a(lib_a-findfp.o)
                              C:\DevTools\gcc_v49_2014q4/arm-none-eabi/lib/thumb\libc.a(lib_a-wsetup.o) (__sinit)
C:\DevTools\gcc_v49_2014q4/arm-none-eabi/lib/thumb\libc.a(lib_a-freer.o)
                              C:\DevTools\gcc_v49_2014q4/arm-none-eabi/lib/thumb\libc.a(lib_a-fvwrite.o) (_free_r)
C:\DevTools\gcc_v49_2014q4/arm-none-eabi/lib/thumb\libc.a(lib_a-fwalk.o)
                              C:\DevTools\gcc_v49_2014q4/arm-none-eabi/lib/thumb\libc.a(lib_a-findfp.o) (_fwalk)
C:\DevTools\gcc_v49_2014q4/arm-none-eabi/lib/thumb\libc.a(lib_a-makebuf.o)
                              C:\DevTools\gcc_v49_2014q4/arm-none-eabi/lib/thumb\libc.a(lib_a-wsetup.o) (__smakebuf_r)
C:\DevTools\gcc_v49_2014q4/arm-none-eabi/lib/thumb\libc.a(lib_a-stdio.o)
                              C:\DevTools\gcc_v49_2014q4/arm-none-eabi/lib/thumb\libc.a(lib_a-findfp.o) (__sread)
C:\DevTools\gcc_v49_2014q4/arm-none-eabi/lib/thumb\libc.a(lib_a-fclose.o)
                              C:\DevTools\gcc_v49_2014q4/arm-none-eabi/lib/thumb\libc.a(lib_a-findfp.o) (_fclose_r)
C:\DevTools\gcc_v49_2014q4/arm-none-eabi/lib/thumb\libc.a(lib_a-isattyr.o)
                              C:\DevTools\gcc_v49_2014q4/arm-none-eabi/lib/thumb\libc.a(lib_a-makebuf.o) (_isatty_r)
C:\DevTools\gcc_v49_2014q4/arm-none-eabi/lib/thumb\libc.a(lib_a-reent.o)
                              C:\DevTools\gcc_v49_2014q4/arm-none-eabi/lib/thumb\libc.a(lib_a-isattyr.o) (errno)
C:\DevTools\gcc_v49_2014q4/arm-none-eabi/lib/thumb\libnosys.a(isatty.o)
                              C:\DevTools\gcc_v49_2014q4/arm-none-eabi/lib/thumb\libc.a(lib_a-isattyr.o) (_isatty)
C:\DevTools\gcc_v49_2014q4/arm-none-eabi/lib/thumb\libm.a(lib_a-w_sqrt.o)
                              ../LibA5T1000/gcc\libspglib.a(GLib.o) (sqrt)
C:\DevTools\gcc_v49_2014q4/arm-none-eabi/lib/thumb\libm.a(lib_a-e_sqrt.o)
                              C:\DevTools\gcc_v49_2014q4/arm-none-eabi/lib/thumb\libm.a(lib_a-w_sqrt.o) (__ieee754_sqrt)
C:\DevTools\gcc_v49_2014q4/arm-none-eabi/lib/thumb\libm.a(lib_a-s_fpclassify.o)
                              C:\DevTools\gcc_v49_2014q4/arm-none-eabi/lib/thumb\libm.a(lib_a-w_sqrt.o) (__fpclassifyd)
C:\DevTools\gcc_v49_2014q4/arm-none-eabi/lib/thumb\libm.a(lib_a-s_lib_ver.o)
                              C:\DevTools\gcc_v49_2014q4/arm-none-eabi/lib/thumb\libm.a(lib_a-w_sqrt.o) (__fdlib_version)
C:\DevTools\gcc_v49_2014q4/arm-none-eabi/lib/thumb\libm.a(lib_a-s_matherr.o)
                              C:\DevTools\gcc_v49_2014q4/arm-none-eabi/lib/thumb\libm.a(lib_a-w_sqrt.o) (matherr)
c:/devtools/gcc_v49_2014q4/bin/../lib/gcc/arm-none-eabi/4.9.3\libgcc.a(_udivsi3.o)
                              obj/ParamTest.o (__aeabi_uidiv)
c:/devtools/gcc_v49_2014q4/bin/../lib/gcc/arm-none-eabi/4.9.3\libgcc.a(_divsi3.o)
                              obj/menu.o (__aeabi_idiv)
c:/devtools/gcc_v49_2014q4/bin/../lib/gcc/arm-none-eabi/4.9.3\libgcc.a(_dvmd_tls.o)
                              c:/devtools/gcc_v49_2014q4/bin/../lib/gcc/arm-none-eabi/4.9.3\libgcc.a(_udivsi3.o) (__aeabi_idiv0)
c:/devtools/gcc_v49_2014q4/bin/../lib/gcc/arm-none-eabi/4.9.3\libgcc.a(_arm_addsubdf3.o)
                              C:\DevTools\gcc_v49_2014q4/arm-none-eabi/lib/thumb\libm.a(lib_a-e_sqrt.o) (__aeabi_dsub)
c:/devtools/gcc_v49_2014q4/bin/../lib/gcc/arm-none-eabi/4.9.3\libgcc.a(_arm_muldivdf3.o)
                              obj/libc.o (__aeabi_dmul)
c:/devtools/gcc_v49_2014q4/bin/../lib/gcc/arm-none-eabi/4.9.3\libgcc.a(_arm_cmpdf2.o)
                              obj/libc.o (__aeabi_dcmpeq)
c:/devtools/gcc_v49_2014q4/bin/../lib/gcc/arm-none-eabi/4.9.3\libgcc.a(_arm_fixunsdfsi.o)
                              ../LibA5T1000/gcc\libspglib.a(GLib.o) (__aeabi_d2uiz)
c:/devtools/gcc_v49_2014q4/bin/../lib/gcc/arm-none-eabi/4.9.3\libgcc.a(_aeabi_ldivmod.o)
                              obj/libc.o (__aeabi_ldivmod)
c:/devtools/gcc_v49_2014q4/bin/../lib/gcc/arm-none-eabi/4.9.3\libgcc.a(_aeabi_uldivmod.o)
                              obj/TLVUtil.o (__aeabi_uldivmod)
c:/devtools/gcc_v49_2014q4/bin/../lib/gcc/arm-none-eabi/4.9.3\libgcc.a(_fixdfdi.o)
                              obj/libc.o (__aeabi_d2lz)
c:/devtools/gcc_v49_2014q4/bin/../lib/gcc/arm-none-eabi/4.9.3\libgcc.a(_fixunsdfdi.o)
                              c:/devtools/gcc_v49_2014q4/bin/../lib/gcc/arm-none-eabi/4.9.3\libgcc.a(_fixdfdi.o) (__aeabi_d2ulz)
c:/devtools/gcc_v49_2014q4/bin/../lib/gcc/arm-none-eabi/4.9.3\libgcc.a(bpabi.o)
                              c:/devtools/gcc_v49_2014q4/bin/../lib/gcc/arm-none-eabi/4.9.3\libgcc.a(_aeabi_ldivmod.o) (__gnu_ldivmod_helper)
c:/devtools/gcc_v49_2014q4/bin/../lib/gcc/arm-none-eabi/4.9.3\libgcc.a(_divdi3.o)
                              c:/devtools/gcc_v49_2014q4/bin/../lib/gcc/arm-none-eabi/4.9.3\libgcc.a(bpabi.o) (__divdi3)
c:/devtools/gcc_v49_2014q4/bin/../lib/gcc/arm-none-eabi/4.9.3\libgcc.a(_udivdi3.o)
                              c:/devtools/gcc_v49_2014q4/bin/../lib/gcc/arm-none-eabi/4.9.3\libgcc.a(bpabi.o) (__udivdi3)
c:/devtools/gcc_v49_2014q4/bin/../lib/gcc/arm-none-eabi/4.9.3\libgcc.a(_clzdi2.o)
                              c:/devtools/gcc_v49_2014q4/bin/../lib/gcc/arm-none-eabi/4.9.3\libgcc.a(_divdi3.o) (__clzdi2)
c:/devtools/gcc_v49_2014q4/bin/../lib/gcc/arm-none-eabi/4.9.3\libgcc.a(_clzsi2.o)
                              c:/devtools/gcc_v49_2014q4/bin/../lib/gcc/arm-none-eabi/4.9.3\libgcc.a(_clzdi2.o) (__clzsi2)

Allocating common symbols
Common symbol       size              file

gGTS                0x748             obj/tranutil.o
gOptrMain           0x20              obj/network.o
__errno             0x1               ../LibA5T1000/gcc\libspglib.a(GLib.o)
gAux2Handle         0x4               obj/hardware.o
errno               0x4               C:\DevTools\gcc_v49_2014q4/arm-none-eabi/lib/thumb\libc.a(lib_a-reent.o)
init_pack_ptr       0x4               ../LibA5T1000/gcc\libsptutil.a(set_pptr.o)
pack_ptr            0x4               ../LibA5T1000/gcc\libsptutil.a(set_pptr.o)
gLptHandle          0x4               obj/hardware.o
gGprsHandle         0x4               obj/hardware.o
gOptrBkup           0x20              obj/network.o
gTimerHdl           0x1c              obj/hardware.o
gCdc1Handle         0x4               obj/hardware.o
gOptrName1          0x20              obj/network.o
gAppDat             0x1b0             obj/corevar.o
gPppHandle          0x4               obj/hardware.o
gIccHandle          0x4               obj/hardware.o
gIsMaestro          0x1               obj/emvtrans.o
gGDS                0x4               obj/corevar.o
gMsrHandle          0x4               obj/hardware.o
gGSMData            0x5ccc            obj/wavecom.o
gAux1Handle         0x4               obj/hardware.o
gOptrName2          0x20              obj/network.o
battery             0x1               obj/Coremain.o
pack_ptr_end        0x4               ../LibA5T1000/gcc\libsptutil.a(set_pptr.o)
gEMVTestCfg         0x4               obj/DemoTest.o

Discarded input sections

 .bss           0x00000000        0x0 obj/Adjust.o
 .bss           0x00000000        0x0 obj/Auth.o
 .bss           0x00000000        0x0 obj/Chkoptn.o
 .bss           0x00000000        0x0 obj/Constant.o
 .bss           0x00000000        0x0 obj/DemoTest.o
 .bss           0x00000000        0x0 obj/Ecr.o
 .bss           0x00000000        0x0 obj/Func.o
 .bss           0x00000000        0x0 obj/Offline.o
 .bss           0x00000000        0x0 obj/Others.o
 .bss           0x00000000        0x0 obj/Print.o
 .bss           0x00000000        0x0 obj/Reversal.o
 .bss           0x00000000        0x0 obj/Sale.o
 .bss           0x00000000        0x0 obj/SaleOffl.o
 .bss           0x00000000        0x0 obj/Settle.o
 .bss           0x00000000        0x0 obj/Sysutil.o
 .bss           0x00000000        0x0 obj/TLVUtil.o
 .bss           0x00000000        0x0 obj/Void.o
 .bss           0x00000000        0x0 obj/auxcom.o
 .bss           0x00000000        0x0 obj/brdrtest.o
 .bss           0x00000000        0x0 obj/corevar.o
 .bss           0x00000000        0x0 obj/debugstis.o
 .bss           0x00000000        0x0 obj/emvl2cfg.o
 .bss           0x00000000        0x0 obj/hostmsg.o
 .bss           0x00000000        0x0 obj/iface_util.o
 .bss           0x00000000        0x0 obj/input.o
 .bss           0x00000000        0x0 obj/main.o
 .bss           0x00000000        0x0 obj/menu.o
 .bss           0x00000000        0x0 obj/message.o
 .bss           0x00000000        0x0 obj/record.o
 .bss           0x00000000        0x0 obj/refund.o
 .bss           0x00000000        0x0 obj/testrans.o
 .bss           0x00000000        0x0 obj/toggle.o
 .bss           0x00000000        0x0 obj/tranutil.o
 .bss           0x00000000        0x0 obj/cstartup.o
 .bss           0x00000000        0x0 obj/expect_send.o
 .bss           0x00000000        0x0 ../LibA5T1000/gcc\libsyscall.a(app_call.o)
 .bss           0x00000000        0x0 ../LibA5T1000/gcc\libsyscall.a(sys_call.o)
 .bss           0x00000000        0x0 ../LibA5T1000/gcc\libbasecall.a(base_call.o)
 .bss           0x00000000        0x0 ../LibA5T1000/gcc\libsptutil.a(bcd2bin.o)
 .bss           0x00000000        0x0 ../LibA5T1000/gcc\libsptutil.a(bcd2val.o)
 .bss           0x00000000        0x0 ../LibA5T1000/gcc\libsptutil.a(bcdadd.o)
 .bss           0x00000000        0x0 ../LibA5T1000/gcc\libsptutil.a(bcdinc.o)
 .bss           0x00000000        0x0 ../LibA5T1000/gcc\libsptutil.a(bcdsub.o)
 .bss           0x00000000        0x0 ../LibA5T1000/gcc\libsptutil.a(bin2bcd.o)
 .bss           0x00000000        0x0 ../LibA5T1000/gcc\libsptutil.a(bin2dec.o)
 .bss           0x00000000        0x0 ../LibA5T1000/gcc\libsptutil.a(bindec_d.o)
 .bss           0x00000000        0x0 ../LibA5T1000/gcc\libsptutil.a(chkdok.o)
 .bss           0x00000000        0x0 ../LibA5T1000/gcc\libsptutil.a(compress.o)
 .bss           0x00000000        0x0 ../LibA5T1000/gcc\libsptutil.a(crcccitt.o)
 .bss           0x00000000        0x0 ../LibA5T1000/gcc\libsptutil.a(dbin2asc.o)
 .bss           0x00000000        0x0 ../LibA5T1000/gcc\libsptutil.a(dbin2bcd.o)
 .bss           0x00000000        0x0 ../LibA5T1000/gcc\libsptutil.a(decbin4b.o)
 .bss           0x00000000        0x0 ../LibA5T1000/gcc\libsptutil.a(decbin8b.o)
 .bss           0x00000000        0x0 ../LibA5T1000/gcc\libsptutil.a(fndb.o)
 .bss           0x00000000        0x0 ../LibA5T1000/gcc\libsptutil.a(get_byte.o)
 .bss           0x00000000        0x0 ../LibA5T1000/gcc\libsptutil.a(get_dist.o)
 .bss           0x00000000        0x0 ../LibA5T1000/gcc\libsptutil.a(get_mem.o)
 .bss           0x00000000        0x0 ../LibA5T1000/gcc\libsptutil.a(get_pptr.o)
 .bss           0x00000000        0x0 ../LibA5T1000/gcc\libsptutil.a(hex_val.o)
 .bss           0x00000000        0x0 ../LibA5T1000/gcc\libsptutil.a(inc_pptr.o)
 .bss           0x00000000        0x0 ../LibA5T1000/gcc\libsptutil.a(isbdigit.o)
 .bss           0x00000000        0x0 ../LibA5T1000/gcc\libsptutil.a(pack_b.o)
 .bss           0x00000000        0x0 ../LibA5T1000/gcc\libsptutil.a(pack_lf.o)
 .bss           0x00000000        0x0 ../LibA5T1000/gcc\libsptutil.a(pack_lfs.o)
 .bss           0x00000000        0x0 ../LibA5T1000/gcc\libsptutil.a(pack_mem.o)
 .bss           0x00000000        0x0 ../LibA5T1000/gcc\libsptutil.a(pack_nb.o)
 .bss           0x00000000        0x0 ../LibA5T1000/gcc\libsptutil.a(pack_spc.o)
 .bss           0x00000000        0x0 ../LibA5T1000/gcc\libsptutil.a(pack_str.o)
 .bss           0x00000000        0x0 ../LibA5T1000/gcc\libsptutil.a(peek_b.o)
 .bss           0x00000000        0x0 ../LibA5T1000/gcc\libsptutil.a(set_pptr.o)
 .bss           0x00000000        0x0 ../LibA5T1000/gcc\libsptutil.a(skpb.o)
 .bss           0x00000000        0x0 ../LibA5T1000/gcc\libsptutil.a(split.o)
 .bss           0x00000000        0x0 ../LibA5T1000/gcc\libsptutil.a(split_d.o)
 .bss           0x00000000        0x0 ../LibA5T1000/gcc\libsptutil.a(val2bcd.o)
 .bss           0x00000000        0x0 ../LibA5T1000/gcc\libsptutil.a(hexdigit.o)
 .bss           0x00000000        0x0 C:\DevTools\gcc_v49_2014q4/arm-none-eabi/lib/thumb\libc.a(lib_a-memcmp.o)
 .bss           0x00000000        0x0 C:\DevTools\gcc_v49_2014q4/arm-none-eabi/lib/thumb\libc.a(lib_a-memcpy.o)
 .bss           0x00000000        0x0 C:\DevTools\gcc_v49_2014q4/arm-none-eabi/lib/thumb\libc.a(lib_a-memmove.o)
 .bss           0x00000000        0x0 C:\DevTools\gcc_v49_2014q4/arm-none-eabi/lib/thumb\libc.a(lib_a-memset.o)
 .bss           0x00000000        0x0 C:\DevTools\gcc_v49_2014q4/arm-none-eabi/lib/thumb\libc.a(lib_a-puts.o)
 .bss           0x00000000        0x0 C:\DevTools\gcc_v49_2014q4/arm-none-eabi/lib/thumb\libc.a(lib_a-strcat.o)
 .bss           0x00000000        0x0 C:\DevTools\gcc_v49_2014q4/arm-none-eabi/lib/thumb\libc.a(lib_a-strchr.o)
 .bss           0x00000000        0x0 C:\DevTools\gcc_v49_2014q4/arm-none-eabi/lib/thumb\libc.a(lib_a-strcpy.o)
 .bss           0x00000000        0x0 C:\DevTools\gcc_v49_2014q4/arm-none-eabi/lib/thumb\libc.a(lib_a-strlen.o)
 .bss           0x00000000        0x0 C:\DevTools\gcc_v49_2014q4/arm-none-eabi/lib/thumb\libc.a(lib_a-strstr.o)
 .bss           0x00000000        0x0 C:\DevTools\gcc_v49_2014q4/arm-none-eabi/lib/thumb\libc.a(lib_a-fvwrite.o)
 .bss           0x00000000        0x0 C:\DevTools\gcc_v49_2014q4/arm-none-eabi/lib/thumb\libc.a(lib_a-impure.o)
 .bss           0x00000000        0x0 C:\DevTools\gcc_v49_2014q4/arm-none-eabi/lib/thumb\libc.a(lib_a-mallocr.o)
 .bss           0x00000000        0x0 C:\DevTools\gcc_v49_2014q4/arm-none-eabi/lib/thumb\libc.a(lib_a-memchr.o)
 .bss           0x00000000        0x0 C:\DevTools\gcc_v49_2014q4/arm-none-eabi/lib/thumb\libc.a(lib_a-mlock.o)
 .bss           0x00000000        0x0 C:\DevTools\gcc_v49_2014q4/arm-none-eabi/lib/thumb\libc.a(lib_a-reallocr.o)
 .bss           0x00000000        0x0 C:\DevTools\gcc_v49_2014q4/arm-none-eabi/lib/thumb\libc.a(lib_a-wsetup.o)
 .bss           0x00000000        0x0 C:\DevTools\gcc_v49_2014q4/arm-none-eabi/lib/thumb\libc.a(lib_a-fflush.o)
 .bss           0x00000000        0x0 C:\DevTools\gcc_v49_2014q4/arm-none-eabi/lib/thumb\libc.a(lib_a-findfp.o)
 .bss           0x00000000        0x0 C:\DevTools\gcc_v49_2014q4/arm-none-eabi/lib/thumb\libc.a(lib_a-freer.o)
 .bss           0x00000000        0x0 C:\DevTools\gcc_v49_2014q4/arm-none-eabi/lib/thumb\libc.a(lib_a-fwalk.o)
 .bss           0x00000000        0x0 C:\DevTools\gcc_v49_2014q4/arm-none-eabi/lib/thumb\libc.a(lib_a-makebuf.o)
 .bss           0x00000000        0x0 C:\DevTools\gcc_v49_2014q4/arm-none-eabi/lib/thumb\libc.a(lib_a-stdio.o)
 .bss           0x00000000        0x0 C:\DevTools\gcc_v49_2014q4/arm-none-eabi/lib/thumb\libc.a(lib_a-fclose.o)
 .bss           0x00000000        0x0 C:\DevTools\gcc_v49_2014q4/arm-none-eabi/lib/thumb\libc.a(lib_a-isattyr.o)
 .bss           0x00000000        0x0 C:\DevTools\gcc_v49_2014q4/arm-none-eabi/lib/thumb\libc.a(lib_a-reent.o)
 .bss           0x00000000        0x0 C:\DevTools\gcc_v49_2014q4/arm-none-eabi/lib/thumb\libnosys.a(isatty.o)
 .bss           0x00000000        0x0 C:\DevTools\gcc_v49_2014q4/arm-none-eabi/lib/thumb\libm.a(lib_a-w_sqrt.o)
 .bss           0x00000000        0x0 C:\DevTools\gcc_v49_2014q4/arm-none-eabi/lib/thumb\libm.a(lib_a-e_sqrt.o)
 .bss           0x00000000        0x0 C:\DevTools\gcc_v49_2014q4/arm-none-eabi/lib/thumb\libm.a(lib_a-s_fpclassify.o)
 .bss           0x00000000        0x0 C:\DevTools\gcc_v49_2014q4/arm-none-eabi/lib/thumb\libm.a(lib_a-s_lib_ver.o)
 .bss           0x00000000        0x0 C:\DevTools\gcc_v49_2014q4/arm-none-eabi/lib/thumb\libm.a(lib_a-s_matherr.o)
 .bss           0x00000000        0x0 c:/devtools/gcc_v49_2014q4/bin/../lib/gcc/arm-none-eabi/4.9.3\libgcc.a(_udivsi3.o)
 .bss           0x00000000        0x0 c:/devtools/gcc_v49_2014q4/bin/../lib/gcc/arm-none-eabi/4.9.3\libgcc.a(_divsi3.o)
 .bss           0x00000000        0x0 c:/devtools/gcc_v49_2014q4/bin/../lib/gcc/arm-none-eabi/4.9.3\libgcc.a(_dvmd_tls.o)
 .bss           0x00000000        0x0 c:/devtools/gcc_v49_2014q4/bin/../lib/gcc/arm-none-eabi/4.9.3\libgcc.a(_arm_addsubdf3.o)
 .bss           0x00000000        0x0 c:/devtools/gcc_v49_2014q4/bin/../lib/gcc/arm-none-eabi/4.9.3\libgcc.a(_arm_muldivdf3.o)
 .bss           0x00000000        0x0 c:/devtools/gcc_v49_2014q4/bin/../lib/gcc/arm-none-eabi/4.9.3\libgcc.a(_arm_cmpdf2.o)
 .bss           0x00000000        0x0 c:/devtools/gcc_v49_2014q4/bin/../lib/gcc/arm-none-eabi/4.9.3\libgcc.a(_arm_fixunsdfsi.o)
 .bss           0x00000000        0x0 c:/devtools/gcc_v49_2014q4/bin/../lib/gcc/arm-none-eabi/4.9.3\libgcc.a(_aeabi_ldivmod.o)
 .bss           0x00000000        0x0 c:/devtools/gcc_v49_2014q4/bin/../lib/gcc/arm-none-eabi/4.9.3\libgcc.a(_aeabi_uldivmod.o)
 .bss           0x00000000        0x0 c:/devtools/gcc_v49_2014q4/bin/../lib/gcc/arm-none-eabi/4.9.3\libgcc.a(_fixdfdi.o)
 .bss           0x00000000        0x0 c:/devtools/gcc_v49_2014q4/bin/../lib/gcc/arm-none-eabi/4.9.3\libgcc.a(_fixunsdfdi.o)
 .bss           0x00000000        0x0 c:/devtools/gcc_v49_2014q4/bin/../lib/gcc/arm-none-eabi/4.9.3\libgcc.a(bpabi.o)
 .bss           0x00000000        0x0 c:/devtools/gcc_v49_2014q4/bin/../lib/gcc/arm-none-eabi/4.9.3\libgcc.a(_divdi3.o)
 .ARM.extab     0x00000000        0x0 c:/devtools/gcc_v49_2014q4/bin/../lib/gcc/arm-none-eabi/4.9.3\libgcc.a(_divdi3.o)
 .bss           0x00000000        0x0 c:/devtools/gcc_v49_2014q4/bin/../lib/gcc/arm-none-eabi/4.9.3\libgcc.a(_udivdi3.o)
 .ARM.extab     0x00000000        0x0 c:/devtools/gcc_v49_2014q4/bin/../lib/gcc/arm-none-eabi/4.9.3\libgcc.a(_udivdi3.o)
 .bss           0x00000000        0x0 c:/devtools/gcc_v49_2014q4/bin/../lib/gcc/arm-none-eabi/4.9.3\libgcc.a(_clzdi2.o)
 .bss           0x00000000        0x0 c:/devtools/gcc_v49_2014q4/bin/../lib/gcc/arm-none-eabi/4.9.3\libgcc.a(_clzsi2.o)

Memory Configuration

Name             Origin             Length             Attributes
*default*        0x00000000         0xffffffff

Linker script and memory map

START GROUP
LOAD obj/Adjust.o
LOAD obj/Auth.o
LOAD obj/Chkoptn.o
LOAD obj/Constant.o
LOAD obj/Coremain.o
LOAD obj/DemoTest.o
LOAD obj/Ecr.o
LOAD obj/Func.o
LOAD obj/Offline.o
LOAD obj/Others.o
LOAD obj/ParamTest.o
LOAD obj/Print.o
LOAD obj/Reversal.o
LOAD obj/Sale.o
LOAD obj/SaleOffl.o
LOAD obj/Settle.o
LOAD obj/Sysutil.o
LOAD obj/TLVUtil.o
LOAD obj/TestCfg.o
LOAD obj/Void.o
LOAD obj/auxcom.o
LOAD obj/brdrtest.o
LOAD obj/camtest.o
LOAD obj/corevar.o
LOAD obj/ctltrans.o
LOAD obj/debugstis.o
LOAD obj/emvl2cfg.o
LOAD obj/emvtrans.o
LOAD obj/hardware.o
LOAD obj/hostmsg.o
LOAD obj/iface.o
LOAD obj/iface_util.o
LOAD obj/input.o
LOAD obj/keytrans.o
LOAD obj/lptutil.o
LOAD obj/main.o
LOAD obj/menu.o
LOAD obj/message.o
LOAD obj/network.o
LOAD obj/record.o
LOAD obj/refund.o
LOAD obj/testrans.o
LOAD obj/toggle.o
LOAD obj/tpadtest.o
LOAD obj/tranutil.o
LOAD obj/wavecom.o
LOAD obj/cstartup.o
LOAD obj/expect_send.o
LOAD obj/libc.o
LOAD ../LibA5T1000/gcc\libsyscall.a
LOAD ../LibA5T1000/gcc\libbasecall.a
LOAD ../LibA5T1000/gcc\libsptutil.a
LOAD ../LibA5T1000/gcc\libspglib.a
LOAD ../LibA5T1000/gcc\libspqr.a
LOAD C:\DevTools\gcc_v49_2014q4/arm-none-eabi/lib/thumb\libc.a
LOAD C:\DevTools\gcc_v49_2014q4/arm-none-eabi/lib/thumb\libnosys.a
LOAD C:\DevTools\gcc_v49_2014q4/arm-none-eabi/lib/thumb\libm.a
LOAD c:/devtools/gcc_v49_2014q4/bin/../lib/gcc/arm-none-eabi/4.9.3\libgcc.a
END GROUP
                0x01000000                _start_of_flash = 0x1000000
                0x01800000                _start_of_data = 0x1800000
                0x01c00000                _end_of_sram = (_start_of_data + 0x400000)
                0x01000020                _start_of_header = (_start_of_flash + 0x20)
                0x01000050                _start_of_app = (_start_of_flash + 0x50)
                0x01000000                . = _start_of_flash

.startup        0x01000000       0x1a
 *(sect_startup)
 sect_startup   0x01000000       0x1a obj/cstartup.o
                0x01000000                cstartup
                0x01000020                . = _start_of_header

.header         0x01000020       0x30
 *(sect_apphdr)
 sect_apphdr    0x01000020       0x30 obj/cstartup.o
                0x01000020                KAppHeader
                0x01000150                . = (_start_of_app + 0x100)

.text           0x01000150    0x21ef4
 *(.text* .glue_7* .gnu.linkonce.t.*)
 .glue_7        0x00000000        0x0 linker stubs
 .glue_7t       0x00000000        0x0 linker stubs
 .text          0x01000150        0x0 obj/Adjust.o
 .text.DispCurrTotal
                0x01000150       0x84 obj/Adjust.o
 .text.AdjustTrans
                0x010001d4      0x4cc obj/Adjust.o
                0x010001d4                AdjustTrans
 .text          0x010006a0        0x0 obj/Auth.o
 .text.AuthTrans
                0x010006a0      0x118 obj/Auth.o
                0x010006a0                AuthTrans
 .text          0x010007b8        0x0 obj/Chkoptn.o
 .text.AdjustPSWReqd
                0x010007b8       0x14 obj/Chkoptn.o
                0x010007b8                AdjustPSWReqd
 .text.SettlePSWReqd
                0x010007cc       0x14 obj/Chkoptn.o
                0x010007cc                SettlePSWReqd
 .text.ManualPSWReqd
                0x010007e0       0x14 obj/Chkoptn.o
                0x010007e0                ManualPSWReqd
 .text.DispMSRReqd
                0x010007f4       0x10 obj/Chkoptn.o
                0x010007f4                DispMSRReqd
 .text.TIPsReqd
                0x01000804       0x10 obj/Chkoptn.o
                0x01000804                TIPsReqd
 .text.PrintTimeReqd
                0x01000814       0x10 obj/Chkoptn.o
                0x01000814                PrintTimeReqd
 .text.DDMMBusinessDate
                0x01000824       0x10 obj/Chkoptn.o
                0x01000824                DDMMBusinessDate
 .text.ComfirmTotal
                0x01000834       0x10 obj/Chkoptn.o
                0x01000834                ComfirmTotal
 .text.EcrRefReqd
                0x01000844       0x10 obj/Chkoptn.o
                0x01000844                EcrRefReqd
 .text.PromptTips
                0x01000854       0x14 obj/Chkoptn.o
                0x01000854                PromptTips
 .text.BlockLocalTrans
                0x01000868       0x14 obj/Chkoptn.o
                0x01000868                BlockLocalTrans
 .text.NumOfRcptCopy
                0x0100087c       0x10 obj/Chkoptn.o
                0x0100087c                NumOfRcptCopy
 .text.ReferralDial
                0x0100088c       0x10 obj/Chkoptn.o
                0x0100088c                ReferralDial
 .text.HostSettlePending
                0x0100089c       0x14 obj/Chkoptn.o
                0x0100089c                HostSettlePending
 .text.RefundOffline
                0x010008b0       0x14 obj/Chkoptn.o
                0x010008b0                RefundOffline
 .text.VoidOffline
                0x010008c4       0x14 obj/Chkoptn.o
                0x010008c4                VoidOffline
 .text.PiggybackOffline
                0x010008d8       0x14 obj/Chkoptn.o
                0x010008d8                PiggybackOffline
 .text.Prompt4DBC
                0x010008ec       0x14 obj/Chkoptn.o
                0x010008ec                Prompt4DBC
 .text.MultiAdjustAllowed
                0x01000900       0x14 obj/Chkoptn.o
                0x01000900                MultiAdjustAllowed
 .text.ExtraMsgLen
                0x01000914       0x14 obj/Chkoptn.o
                0x01000914                ExtraMsgLen
 .text.CheckDuplicate
                0x01000928       0x14 obj/Chkoptn.o
                0x01000928                CheckDuplicate
 .text.FallbackDialup
                0x0100093c       0x14 obj/Chkoptn.o
                0x0100093c                FallbackDialup
 .text.GetHostType
                0x01000950       0x14 obj/Chkoptn.o
                0x01000950                GetHostType
 .text.UnderFloorLimit
                0x01000964       0x3c obj/Chkoptn.o
                0x01000964                UnderFloorLimit
 .text.ManualEntryAllow
                0x010009a0       0x14 obj/Chkoptn.o
                0x010009a0                ManualEntryAllow
 .text.OfflineAllowed
                0x010009b4       0x14 obj/Chkoptn.o
                0x010009b4                OfflineAllowed
 .text.ExpDateReqd
                0x010009c8       0x14 obj/Chkoptn.o
                0x010009c8                ExpDateReqd
 .text.VoiceReferral
                0x010009dc       0x20 obj/Chkoptn.o
                0x010009dc                VoiceReferral
 .text.DescriptorReqd
                0x010009fc       0x14 obj/Chkoptn.o
                0x010009fc                DescriptorReqd
 .text.AdjustAllowed
                0x01000a10       0x14 obj/Chkoptn.o
                0x01000a10                AdjustAllowed
 .text.CheckPAN
                0x01000a24       0x14 obj/Chkoptn.o
                0x01000a24                CheckPAN
 .text.PrintReqd
                0x01000a38       0x14 obj/Chkoptn.o
                0x01000a38                PrintReqd
 .text.DefaultCapture
                0x01000a4c       0x14 obj/Chkoptn.o
                0x01000a4c                DefaultCapture
 .text.CheckExpDate
                0x01000a60       0x14 obj/Chkoptn.o
                0x01000a60                CheckExpDate
 .text.RefundBlocked
                0x01000a74       0x14 obj/Chkoptn.o
                0x01000a74                RefundBlocked
 .text.AuthBlocked
                0x01000a88       0x14 obj/Chkoptn.o
                0x01000a88                AuthBlocked
 .text.VoidBlocked
                0x01000a9c       0x14 obj/Chkoptn.o
                0x01000a9c                VoidBlocked
 .text.BlockAuthCode
                0x01000ab0       0x14 obj/Chkoptn.o
                0x01000ab0                BlockAuthCode
 .text.MaskCardNo
                0x01000ac4       0x14 obj/Chkoptn.o
                0x01000ac4                MaskCardNo
 .text.ExpiryReject
                0x01000ad8       0x14 obj/Chkoptn.o
                0x01000ad8                ExpiryReject
 .text.BlockLocalManual
                0x01000aec       0x14 obj/Chkoptn.o
                0x01000aec                BlockLocalManual
 .text.BlockLocalSwipe
                0x01000b00       0x14 obj/Chkoptn.o
                0x01000b00                BlockLocalSwipe
 .text.Track1Enable
                0x01000b14       0x14 obj/Chkoptn.o
                0x01000b14                Track1Enable
 .text.EMVProcDisable
                0x01000b28       0x14 obj/Chkoptn.o
                0x01000b28                EMVProcDisable
 .text          0x01000b3c        0x0 obj/Constant.o
 .text.SaleType
                0x01000b3c       0x18 obj/Constant.o
                0x01000b3c                SaleType
 .text          0x01000b54        0x0 obj/Coremain.o
 .text.DispDTG  0x01000b54       0xdc obj/Coremain.o
 .text.VirginInit
                0x01000c30      0x150 obj/Coremain.o
                0x01000c30                VirginInit
 .text.GlobalsInit
                0x01000d80       0x5c obj/Coremain.o
                0x01000d80                GlobalsInit
 .text.GlobalsCleanUp
                0x01000ddc       0x18 obj/Coremain.o
                0x01000ddc                GlobalsCleanUp
 .text.TransModeDisp
                0x01000df4      0x134 obj/Coremain.o
                0x01000df4                TransModeDisp
 .text.Coremain
                0x01000f28      0x4c8 obj/Coremain.o
                0x01000f28                Coremain
 .text          0x010013f0        0x0 obj/DemoTest.o
 .text          0x010013f0        0x0 obj/Ecr.o
 .text.EcrGetAmount
                0x010013f0       0x50 obj/Ecr.o
                0x010013f0                EcrGetAmount
 .text.EcrGetRef
                0x01001440       0x4c obj/Ecr.o
                0x01001440                EcrGetRef
 .text.EcrResp  0x0100148c      0x284 obj/Ecr.o
                0x0100148c                EcrResp
 .text.GetLastTrace
                0x01001710       0x74 obj/Ecr.o
                0x01001710                GetLastTrace
 .text.GetHostIdx
                0x01001784       0x38 obj/Ecr.o
                0x01001784                GetHostIdx
 .text.GetHostName
                0x010017bc       0x4c obj/Ecr.o
                0x010017bc                GetHostName
 .text.GetHostTot
                0x01001808       0x50 obj/Ecr.o
                0x01001808                GetHostTot
 .text.EcrSettle
                0x01001858       0x28 obj/Ecr.o
                0x01001858                EcrSettle
 .text.EcrCmdProcess
                0x01001880       0x90 obj/Ecr.o
                0x01001880                EcrCmdProcess
 .text          0x01001910        0x0 obj/Func.o
 .text.DispStatusMsg
                0x01001910       0x1a obj/Func.o
 *fill*         0x0100192a        0x2 
 .text.DispTransData
                0x0100192c      0x1e8 obj/Func.o
 .text.DispReversal
                0x01001b14      0x3b8 obj/Func.o
                0x01001b14                DispReversal
 .text.ClearReversal
                0x01001ecc      0x190 obj/Func.o
                0x01001ecc                ClearReversal
 .text.DisplayRecordno
                0x0100205c      0x2e8 obj/Func.o
                0x0100205c                DisplayRecordno
 .text.DisplayBatch
                0x01002344      0x324 obj/Func.o
                0x01002344                DisplayBatch
 .text.ClearBatch
                0x01002668      0x180 obj/Func.o
                0x01002668                ClearBatch
 .text.DispTransTotal
                0x010027e8      0x1a0 obj/Func.o
                0x010027e8                DispTransTotal
 .text.ReprintTxn
                0x01002988       0x68 obj/Func.o
                0x01002988                ReprintTxn
 .text.PrintTotals
                0x010029f0       0x80 obj/Func.o
                0x010029f0                PrintTotals
 .text.PrintTxnRecord
                0x01002a70      0x348 obj/Func.o
                0x01002a70                PrintTxnRecord
 .text.MerchantFunc
                0x01002db8      0x354 obj/Func.o
                0x01002db8                MerchantFunc
 .text          0x0100310c        0x0 obj/Offline.o
 .text.OfflineSent
                0x0100310c      0x1ac obj/Offline.o
                0x0100310c                OfflineSent
 .text          0x010032b8        0x0 obj/Others.o
 .text.GetAccessrefund
                0x010032b8       0xd8 obj/Others.o
                0x010032b8                GetAccessrefund
 .text.GetAccessrevoid
                0x01003390       0xd8 obj/Others.o
                0x01003390                GetAccessrevoid
 .text.OtherTrans
                0x01003468       0xa8 obj/Others.o
                0x01003468                OtherTrans
 .text.OtherCurrency
                0x01003510       0x34 obj/Others.o
                0x01003510                OtherCurrency
 .text          0x01003544        0x0 obj/ParamTest.o
 .text.ReadBmp  0x01003544       0x28 obj/ParamTest.o
 .text.LptPutN  0x0100356c       0xc4 obj/ParamTest.o
 .text.LptClose
                0x01003630       0x5c obj/ParamTest.o
 .text.WritePrn.constprop.0
                0x0100368c       0x14 obj/ParamTest.o
 .text.DispParamFile
                0x010036a0      0x1b4 obj/ParamTest.o
                0x010036a0                DispParamFile
 .text.LptParamFile
                0x01003854      0x41c obj/ParamTest.o
                0x01003854                LptParamFile
 .text          0x01003c70        0x0 obj/Print.o
 .text.PackLogo
                0x01003c70       0x50 obj/Print.o
                0x01003c70                PackLogo
 .text.PackDtg  0x01003cc0       0x32 obj/Print.o
                0x01003cc0                PackDtg
 *fill*         0x01003cf2        0x2 
 .text.PackCurrentDate
                0x01003cf4       0x80 obj/Print.o
                0x01003cf4                PackCurrentDate
 .text.PackSeperator
                0x01003d74       0x10 obj/Print.o
                0x01003d74                PackSeperator
 .text.PackRcptHeader
                0x01003d84       0x44 obj/Print.o
                0x01003d84                PackRcptHeader
 .text.PackAmt  0x01003dc8       0x40 obj/Print.o
                0x01003dc8                PackAmt
 .text.PackCountAmt
                0x01003e08       0x3a obj/Print.o
 .text.PackFF   0x01003e42       0x1a obj/Print.o
                0x01003e42                PackFF
 .text.PackTotals
                0x01003e5c       0xbc obj/Print.o
                0x01003e5c                PackTotals
 .text.PackEndOfRep
                0x01003f18       0x34 obj/Print.o
                0x01003f18                PackEndOfRep
 .text.SaveLastRcpt
                0x01003f4c       0xb0 obj/Print.o
                0x01003f4c                SaveLastRcpt
 .text.GetLastRcpt
                0x01003ffc       0x54 obj/Print.o
                0x01003ffc                GetLastRcpt
 .text.ReprintLast
                0x01004050       0x94 obj/Print.o
                0x01004050                ReprintLast
 .text.ManualFeed
                0x010040e4       0x30 obj/Print.o
                0x010040e4                ManualFeed
 .text          0x01004114        0x0 obj/Reversal.o
 .text.ReversalOK
                0x01004114       0xf4 obj/Reversal.o
                0x01004114                ReversalOK
 .text          0x01004208        0x0 obj/Sale.o
 .text.ReferralCall
                0x01004208      0x19c obj/Sale.o
                0x01004208                ReferralCall
 .text.ReferralProcess
                0x010043a4       0xec obj/Sale.o
                0x010043a4                ReferralProcess
 .text.SaleTrans
                0x01004490      0x15c obj/Sale.o
                0x01004490                SaleTrans
 .text          0x010045ec        0x0 obj/SaleOffl.o
 .text.SaleOfflTrans
                0x010045ec       0x6c obj/SaleOffl.o
                0x010045ec                SaleOfflTrans
 .text          0x01004658        0x0 obj/Settle.o
 .text.AllTotalZero
                0x01004658       0x48 obj/Settle.o
 .text.GetSettleAmount
                0x010046a0       0x80 obj/Settle.o
 .text.PackBatchText
                0x01004720       0x48 obj/Settle.o
 .text.CloseBatch
                0x01004768      0x1ac obj/Settle.o
 .text.ConfirmSetlTot
                0x01004914      0x304 obj/Settle.o
                0x01004914                ConfirmSetlTot
 .text.SettleTrans
                0x01004c18      0x350 obj/Settle.o
                0x01004c18                SettleTrans
 .text          0x01004f68        0x0 obj/Sysutil.o
 .text.LongBeep
                0x01004f68        0xc obj/Sysutil.o
                0x01004f68                LongBeep
 .text.AcceptBeep
                0x01004f74        0xc obj/Sysutil.o
                0x01004f74                AcceptBeep
 .text.Short2Beep
                0x01004f80        0xc obj/Sysutil.o
                0x01004f80                Short2Beep
 .text.Short1Beep
                0x01004f8c        0xc obj/Sysutil.o
                0x01004f8c                Short1Beep
 .text.Delay1Sec
                0x01004f98       0x44 obj/Sysutil.o
                0x01004f98                Delay1Sec
 .text.ErrorDelay
                0x01004fdc        0x8 obj/Sysutil.o
                0x01004fdc                ErrorDelay
 .text.Delay10ms
                0x01004fe4       0x28 obj/Sysutil.o
                0x01004fe4                Delay10ms
 .text.SetRTC   0x0100500c       0x26 obj/Sysutil.o
                0x0100500c                SetRTC
 .text.ReadRTC  0x01005032       0x1a obj/Sysutil.o
                0x01005032                ReadRTC
 .text.ConvDateTime
                0x0100504c       0x84 obj/Sysutil.o
                0x0100504c                ConvDateTime
 .text.ConvDateTimeT
                0x010050d0       0x48 obj/Sysutil.o
                0x010050d0                ConvDateTimeT
 .text.SetDTG   0x01005118       0x5a obj/Sysutil.o
                0x01005118                SetDTG
 .text.FreeRunMark
                0x01005172        0x8 obj/Sysutil.o
                0x01005172                FreeRunMark
 .text.FreeRunElapsed
                0x0100517a       0x14 obj/Sysutil.o
                0x0100517a                FreeRunElapsed
 .text.ByteCopy
                0x0100518e        0x4 obj/Sysutil.o
                0x0100518e                ByteCopy
 .text.CompressInputData
                0x01005192       0x32 obj/Sysutil.o
                0x01005192                CompressInputData
 .text.CompressInputFData
                0x010051c4       0x36 obj/Sysutil.o
                0x010051c4                CompressInputFData
 *fill*         0x010051fa        0x2 
 .text.GetMonthText
                0x010051fc       0x10 obj/Sysutil.o
                0x010051fc                GetMonthText
 .text.MemFatalErr
                0x0100520c       0x6c obj/Sysutil.o
                0x0100520c                MemFatalErr
 .text.DebugPoint
                0x01005278       0x5c obj/Sysutil.o
                0x01005278                DebugPoint
 .text.ConvAmount
                0x010052d4       0x80 obj/Sysutil.o
                0x010052d4                ConvAmount
 .text.Disp2x16Msg
                0x01005354       0xbc obj/Sysutil.o
                0x01005354                Disp2x16Msg
 .text.PrintLcd2LptCtr
                0x01005410      0x1c4 obj/Sysutil.o
                0x01005410                PrintLcd2LptCtr
 .text.debugAsc
                0x010055d4       0x60 obj/Sysutil.o
                0x010055d4                debugAsc
 .text.debugHex
                0x01005634       0x80 obj/Sysutil.o
                0x01005634                debugHex
 .text.ShowIp   0x010056b4       0x88 obj/Sysutil.o
                0x010056b4                ShowIp
 .text          0x0100573c        0x0 obj/TLVUtil.o
 .text.DDWORD2bcd
                0x0100573c       0x60 obj/TLVUtil.o
                0x0100573c                DDWORD2bcd
 .text.bcd2DDWORD
                0x0100579c       0x2a obj/TLVUtil.o
                0x0100579c                bcd2DDWORD
 .text.WPut     0x010057c6        0x8 obj/TLVUtil.o
                0x010057c6                WPut
 .text.TlvTSize
                0x010057ce       0x12 obj/TLVUtil.o
                0x010057ce                TlvTSize
 .text.TlvTag   0x010057e0       0x1a obj/TLVUtil.o
                0x010057e0                TlvTag
 .text.TlvLSize
                0x010057fa       0x1e obj/TLVUtil.o
                0x010057fa                TlvLSize
 .text.TlvLen   0x01005818       0x32 obj/TLVUtil.o
                0x01005818                TlvLen
 .text.TlvSizeOf
                0x0100584a       0x24 obj/TLVUtil.o
                0x0100584a                TlvSizeOf
 .text.TlvVPtr  0x0100586e       0x1a obj/TLVUtil.o
                0x0100586e                TlvVPtr
 .text.TlvSeek  0x01005888       0x44 obj/TLVUtil.o
                0x01005888                TlvSeek
 .text.TlvNext  0x010058cc       0x10 obj/TLVUtil.o
                0x010058cc                TlvNext
 .text.TlvIsCTag
                0x010058dc       0x14 obj/TLVUtil.o
                0x010058dc                TlvIsCTag
 .text.TlvPack  0x010058f0       0x58 obj/TLVUtil.o
                0x010058f0                TlvPack
 .text          0x01005948        0x0 obj/TestCfg.o
 .text.KernelReady
                0x01005948       0x12 obj/TestCfg.o
 *fill*         0x0100595a        0x2 
 .text.DoSetup  0x0100595c       0x40 obj/TestCfg.o
 .text.DoCTLSetup
                0x0100599c       0x40 obj/TestCfg.o
 .text.DebugAutoRun
                0x010059dc        0x4 obj/TestCfg.o
                0x010059dc                DebugAutoRun
 .text.GetAutoTrans
                0x010059e0        0x4 obj/TestCfg.o
                0x010059e0                GetAutoTrans
 .text.GetAutoAmount
                0x010059e4       0x10 obj/TestCfg.o
                0x010059e4                GetAutoAmount
 .text.GetAutoPin
                0x010059f4       0x10 obj/TestCfg.o
                0x010059f4                GetAutoPin
 .text.DebugEnd
                0x01005a04        0x4 obj/TestCfg.o
                0x01005a04                DebugEnd
 .text.LoadEMVKey
                0x01005a08       0x7c obj/TestCfg.o
                0x01005a08                LoadEMVKey
 .text.LoadEMVCfg
                0x01005a84       0xb8 obj/TestCfg.o
                0x01005a84                LoadEMVCfg
 .text.ExtPPadSetup
                0x01005b3c       0x5c obj/TestCfg.o
                0x01005b3c                ExtPPadSetup
 .text.LoadCTLKey
                0x01005b98       0x80 obj/TestCfg.o
                0x01005b98                LoadCTLKey
 .text.LoadCTLCfg
                0x01005c18       0xbc obj/TestCfg.o
                0x01005c18                LoadCTLCfg
 .text          0x01005cd4        0x0 obj/Void.o
 .text.VoidTrans
                0x01005cd4      0x2ec obj/Void.o
                0x01005cd4                VoidTrans
 .text          0x01005fc0        0x0 obj/auxcom.o
 .text.AuxOpen  0x01005fc0       0x24 obj/auxcom.o
                0x01005fc0                AuxOpen
 .text.AuxClose
                0x01005fe4       0x20 obj/auxcom.o
                0x01005fe4                AuxClose
 .text.AuxRead  0x01006004       0x14 obj/auxcom.o
                0x01006004                AuxRead
 .text.AuxRxRdy
                0x01006018        0xe obj/auxcom.o
                0x01006018                AuxRxRdy
 .text.AuxTxRdy
                0x01006026        0xe obj/auxcom.o
                0x01006026                AuxTxRdy
 .text.AuxWrite
                0x01006034       0x24 obj/auxcom.o
                0x01006034                AuxWrite
 .text.AuxEnable
                0x01006058       0x18 obj/auxcom.o
                0x01006058                AuxEnable
 .text.AuxDisable
                0x01006070       0x1c obj/auxcom.o
                0x01006070                AuxDisable
 .text.dbgHex   0x0100608c       0x7c obj/auxcom.o
                0x0100608c                dbgHex
 .text          0x01006108        0x0 obj/brdrtest.o
 .text.BRdrTest
                0x01006108      0x3f4 obj/brdrtest.o
                0x01006108                BRdrTest
 .text          0x010064fc        0x0 obj/camtest.o
 .text.ShowLayer
                0x010064fc       0x28 obj/camtest.o
 .text.SensorClose
                0x01006524       0x24 obj/camtest.o
 .text.SensorSwMode
                0x01006548      0x124 obj/camtest.o
 .text.SensorOpen
                0x0100666c      0x140 obj/camtest.o
 .text.LcdOnLayerEnable.part.0
                0x010067ac       0x20 obj/camtest.o
 .text.LcdOnLayerShow.constprop.1
                0x010067cc       0x54 obj/camtest.o
 .text.Y800toLcdLeft
                0x01006820       0x5a obj/camtest.o
                0x01006820                Y800toLcdLeft
 *fill*         0x0100687a        0x2 
 .text.ShowBarcode
                0x0100687c       0x98 obj/camtest.o
                0x0100687c                ShowBarcode
 .text.CamTest2D
                0x01006914      0x634 obj/camtest.o
                0x01006914                CamTest2D
 .text.CamTestAll
                0x01006f48      0x740 obj/camtest.o
                0x01006f48                CamTestAll
 .text          0x01007688        0x0 obj/corevar.o
 .text.DataFileInit
                0x01007688       0xd4 obj/corevar.o
                0x01007688                DataFileInit
 .text.DataFileUpdate
                0x0100775c       0x68 obj/corevar.o
                0x0100775c                DataFileUpdate
 .text.DataFileClose
                0x010077c4       0x70 obj/corevar.o
                0x010077c4                DataFileClose
 .text.CorrectHost
                0x01007834        0x4 obj/corevar.o
                0x01007834                CorrectHost
 .text.GenAuthCode
                0x01007838       0x20 obj/corevar.o
                0x01007838                GenAuthCode
 .text.SetDefault
                0x01007858       0x10 obj/corevar.o
                0x01007858                SetDefault
 .text.MsgBufSetup
                0x01007868       0x14 obj/corevar.o
                0x01007868                MsgBufSetup
 .text.PackMsgBufLen
                0x0100787c       0x14 obj/corevar.o
                0x0100787c                PackMsgBufLen
 .text.TxBufSetup
                0x01007890       0x28 obj/corevar.o
                0x01007890                TxBufSetup
 .text.PackTxBufLen
                0x010078b8       0x2c obj/corevar.o
                0x010078b8                PackTxBufLen
 .text.RxBufSetup
                0x010078e4       0x28 obj/corevar.o
                0x010078e4                RxBufSetup
 .text.PackRxBufLen
                0x0100790c       0x30 obj/corevar.o
                0x0100790c                PackRxBufLen
 .text.ValidRecordCRC
                0x0100793c       0x24 obj/corevar.o
                0x0100793c                ValidRecordCRC
 .text.RefreshDispAfter
                0x01007960       0x24 obj/corevar.o
                0x01007960                RefreshDispAfter
 .text.FreeGDS  0x01007984       0x14 obj/corevar.o
                0x01007984                FreeGDS
 .text.MallocGDS
                0x01007998       0x3c obj/corevar.o
                0x01007998                MallocGDS
 .text.TrainingModeON
                0x010079d4       0x18 obj/corevar.o
                0x010079d4                TrainingModeON
 .text.IncAPMTraceNoEnd
                0x010079ec       0x48 obj/corevar.o
                0x010079ec                IncAPMTraceNoEnd
 .text.IncAPMTraceNo
                0x01007a34       0x48 obj/corevar.o
                0x01007a34                IncAPMTraceNo
 .text.CTLEnable
                0x01007a7c        0xc obj/corevar.o
                0x01007a7c                CTLEnable
 .text.CTLEnabled
                0x01007a88        0xc obj/corevar.o
                0x01007a88                CTLEnabled
 .text.PPPCfgUpdate
                0x01007a94       0x1c obj/corevar.o
                0x01007a94                PPPCfgUpdate
 .text          0x01007ab0        0x0 obj/ctltrans.o
 .text.CTLTagSeek.part.1
                0x01007ab0       0x74 obj/ctltrans.o
 .text.CL_Led   0x01007b24       0x60 obj/ctltrans.o
                0x01007b24                CL_Led
 .text.CL_LedSet
                0x01007b84       0x8c obj/ctltrans.o
                0x01007b84                CL_LedSet
 .text.GetCTLKeyInfo
                0x01007c10       0x54 obj/ctltrans.o
                0x01007c10                GetCTLKeyInfo
 .text.CL_Init  0x01007c64       0x74 obj/ctltrans.o
                0x01007c64                CL_Init
 .text.CL_WaitCard
                0x01007cd8       0x94 obj/ctltrans.o
                0x01007cd8                CL_WaitCard
 .text.CL_Close
                0x01007d6c       0x40 obj/ctltrans.o
                0x01007d6c                CL_Close
 .text.CL_Off   0x01007dac       0x16 obj/ctltrans.o
                0x01007dac                CL_Off
 *fill*         0x01007dc2        0x2 
 .text.debugCTL
                0x01007dc4       0xd8 obj/ctltrans.o
                0x01007dc4                debugCTL
 .text.debugAuxCTL
                0x01007e9c       0xd0 obj/ctltrans.o
                0x01007e9c                debugAuxCTL
 .text.CTLTagSeek
                0x01007f6c       0x28 obj/ctltrans.o
                0x01007f6c                CTLTagSeek
 .text.CTLFatal
                0x01007f94       0x40 obj/ctltrans.o
                0x01007f94                CTLFatal
 .text.ValidCTLData
                0x01007fd4      0x168 obj/ctltrans.o
                0x01007fd4                ValidCTLData
 .text.PackCTLDummyData
                0x0100813c       0x38 obj/ctltrans.o
                0x0100813c                PackCTLDummyData
 .text.PackCTLTagsData
                0x01008174       0x40 obj/ctltrans.o
                0x01008174                PackCTLTagsData
 .text.PackCTLData
                0x010081b4       0x20 obj/ctltrans.o
                0x010081b4                PackCTLData
 .text.CTLComplete
                0x010081d4      0x3fc obj/ctltrans.o
 .text.CTLError.isra.3
                0x010085d0      0x160 obj/ctltrans.o
 .text.CTLPreProcess
                0x01008730       0xf0 obj/ctltrans.o
                0x01008730                CTLPreProcess
 .text.CTLWaitCard
                0x01008820       0x3e obj/ctltrans.o
                0x01008820                CTLWaitCard
 *fill*         0x0100885e        0x2 
 .text.debugEMV
                0x01008860       0xac obj/ctltrans.o
                0x01008860                debugEMV
 .text.CTLDebug
                0x0100890c      0x440 obj/ctltrans.o
                0x0100890c                CTLDebug
 .text.CTLProcess
                0x01008d4c       0xbc obj/ctltrans.o
                0x01008d4c                CTLProcess
 .text.CTLTrans
                0x01008e08       0xd4 obj/ctltrans.o
                0x01008e08                CTLTrans
 .text.CtlUnderTransLimit
                0x01008edc       0x20 obj/ctltrans.o
                0x01008edc                CtlUnderTransLimit
 .text.DispDefinedLogo
                0x01008efc       0x44 obj/ctltrans.o
                0x01008efc                DispDefinedLogo
 .text          0x01008f40        0x0 obj/debugstis.o
 .text.SaveSTISDbgData
                0x01008f40       0xd8 obj/debugstis.o
                0x01008f40                SaveSTISDbgData
 .text          0x01009018        0x0 obj/emvl2cfg.o
 .text          0x01009018        0x0 obj/emvtrans.o
 .text.EMVCancel
                0x01009018       0x70 obj/emvtrans.o
 .text.DeAss    0x01009088       0x82 obj/emvtrans.o
                0x01009088                DeAss
 .text.TagPut   0x0100910a       0x10 obj/emvtrans.o
                0x0100910a                TagPut
 .text.TagSeek  0x0100911a       0x10 obj/emvtrans.o
                0x0100911a                TagSeek
 .text.TagData  0x0100912a       0x14 obj/emvtrans.o
                0x0100912a                TagData
 *fill*         0x0100913e        0x2 
 .text.PackTagsData
                0x01009140       0x48 obj/emvtrans.o
                0x01009140                PackTagsData
 .text.EMVFatal
                0x01009188       0x40 obj/emvtrans.o
                0x01009188                EMVFatal
 .text.EMVInput
                0x010091c8      0x198 obj/emvtrans.o
                0x010091c8                EMVInput
 .text.GetApplNameTag
                0x01009360       0x40 obj/emvtrans.o
                0x01009360                GetApplNameTag
 .text.ValidEMVData
                0x010093a0      0x1e4 obj/emvtrans.o
                0x010093a0                ValidEMVData
 .text.PackEMVData
                0x01009584       0x20 obj/emvtrans.o
                0x01009584                PackEMVData
 .text.debugEMV2
                0x010095a4       0x78 obj/emvtrans.o
                0x010095a4                debugEMV2
 .text.GetTxnCode
                0x0100961c       0x1c obj/emvtrans.o
                0x0100961c                GetTxnCode
 .text.EMVProcess
                0x01009638      0x8fc obj/emvtrans.o
                0x01009638                EMVProcess
 .text.EMVTrans
                0x01009f34      0x148 obj/emvtrans.o
                0x01009f34                EMVTrans
 .text.EMVInit  0x0100a07c       0x48 obj/emvtrans.o
                0x0100a07c                EMVInit
 .text          0x0100a0c4        0x0 obj/hardware.o
 .text.CloseAllHw
                0x0100a0c4       0x50 obj/hardware.o
                0x0100a0c4                CloseAllHw
 .text.WaitKey  0x0100a114       0xac obj/hardware.o
                0x0100a114                WaitKey
 .text.MSRSwiped
                0x0100a1c0       0xc8 obj/hardware.o
                0x0100a1c0                MSRSwiped
 .text.ICCInserted
                0x0100a288       0x4c obj/hardware.o
                0x0100a288                ICCInserted
 .text.ICCReaderRdy
                0x0100a2d4       0x38 obj/hardware.o
                0x0100a2d4                ICCReaderRdy
 .text.WaitICCRemove
                0x0100a30c       0x4c obj/hardware.o
                0x0100a30c                WaitICCRemove
 .text.PowerOnICC
                0x0100a358       0x18 obj/hardware.o
                0x0100a358                PowerOnICC
 .text.PowerOffICC
                0x0100a370       0x16 obj/hardware.o
                0x0100a370                PowerOffICC
 .text.OffDevice
                0x0100a386       0x34 obj/hardware.o
                0x0100a386                OffDevice
 *fill*         0x0100a3ba        0x2 
 .text.InitAllHw
                0x0100a3bc       0x90 obj/hardware.o
                0x0100a3bc                InitAllHw
 .text.OnDevice
                0x0100a44c       0x3c obj/hardware.o
                0x0100a44c                OnDevice
 .text.PwrSleep
                0x0100a488      0x19c obj/hardware.o
                0x0100a488                PwrSleep
 .text          0x0100a624        0x0 obj/hostmsg.o
 .text.PackProcCode
                0x0100a624       0x3c obj/hostmsg.o
                0x0100a624                PackProcCode
 .text.PackHostMsg
                0x0100a660      0x19c obj/hostmsg.o
                0x0100a660                PackHostMsg
 .text.CheckHostRsp
                0x0100a7fc      0x478 obj/hostmsg.o
                0x0100a7fc                CheckHostRsp
 .text          0x0100ac74        0x0 obj/iface.o
 .text.UpdIfaceDat
                0x0100ac74       0x8c obj/iface.o
 .text.keyPut   0x0100ad00       0x88 obj/iface.o
 .text.encrypt  0x0100ad88       0xf8 obj/iface.o
 .text.errRspData.isra.0
                0x0100ae80       0x12 obj/iface.o
 .text.IfaceRx.part.8
                0x0100ae92       0x2e obj/iface.o
 .text.rspPackFmt.isra.6.constprop.9
                0x0100aec0      0x150 obj/iface.o
 .text.IfaceInitData
                0x0100b010      0x11c obj/iface.o
                0x0100b010                IfaceInitData
 .text.packFullEmvData
                0x0100b12c      0x2f0 obj/iface.o
                0x0100b12c                packFullEmvData
 .text.ItfVoid  0x0100b41c        0xe obj/iface.o
                0x0100b41c                ItfVoid
 *fill*         0x0100b42a        0x2 
 .text.ItfHostTot
                0x0100b42c       0x24 obj/iface.o
                0x0100b42c                ItfHostTot
 .text.ItfSettle
                0x0100b450       0x44 obj/iface.o
                0x0100b450                ItfSettle
 .text.Spt3MsgHdr
                0x0100b494      0x5a8 obj/iface.o
                0x0100b494                Spt3MsgHdr
 .text.IfaceInit
                0x0100ba3c        0x4 obj/iface.o
                0x0100ba3c                IfaceInit
 .text.IfaceClose
                0x0100ba40        0x4 obj/iface.o
                0x0100ba40                IfaceClose
 .text.debugAuxIface
                0x0100ba44      0x108 obj/iface.o
                0x0100ba44                debugAuxIface
 .text.IfaceTx  0x0100bb4c       0x2a obj/iface.o
                0x0100bb4c                IfaceTx
 .text.IfaceRx  0x0100bb76       0x28 obj/iface.o
                0x0100bb76                IfaceRx
 *fill*         0x0100bb9e        0x2 
 .text.IfaceProcess
                0x0100bba0       0x60 obj/iface.o
                0x0100bba0                IfaceProcess
 .text          0x0100bc00        0x0 obj/iface_util.o
 .text.UGet     0x0100bc00       0x16 obj/iface_util.o
                0x0100bc00                UGet
 .text.UPut     0x0100bc16       0x10 obj/iface_util.o
                0x0100bc16                UPut
 .text.WGet     0x0100bc26        0xc obj/iface_util.o
                0x0100bc26                WGet
 .text.Des      0x0100bc32       0x26 obj/iface_util.o
                0x0100bc32                Des
 .text.Des2     0x0100bc58       0x26 obj/iface_util.o
                0x0100bc58                Des2
 .text.TDes     0x0100bc7e       0x26 obj/iface_util.o
                0x0100bc7e                TDes
 .text.TDes2    0x0100bca4       0x26 obj/iface_util.o
                0x0100bca4                TDes2
 *fill*         0x0100bcca        0x2 
 .text.Crc16    0x0100bccc       0x28 obj/iface_util.o
                0x0100bccc                Crc16
 .text.Random   0x0100bcf4       0x38 obj/iface_util.o
                0x0100bcf4                Random
 .text          0x0100bd2c        0x0 obj/input.o
 .text.DispKeyinPAN
                0x0100bd2c       0x94 obj/input.o
 .text.FindSeperator.constprop.2
                0x0100bdc0       0x30 obj/input.o
 .text.CheckCurrency
                0x0100bdf0       0x8c obj/input.o
                0x0100bdf0                CheckCurrency
 .text.InCardTable
                0x0100be7c      0x1a0 obj/input.o
                0x0100be7c                InCardTable
 .text.PromptYesNo
                0x0100c01c       0x28 obj/input.o
                0x0100c01c                PromptYesNo
 .text.GetAuthCode
                0x0100c044       0xbc obj/input.o
                0x0100c044                GetAuthCode
 .text.GetAmount
                0x0100c100      0x248 obj/input.o
                0x0100c100                GetAmount
 .text.Expire_diff
                0x0100c348       0x58 obj/input.o
                0x0100c348                Expire_diff
 .text.ValidCard
                0x0100c3a0      0x308 obj/input.o
                0x0100c3a0                ValidCard
 .text.GetExpDate
                0x0100c6a8      0x118 obj/input.o
                0x0100c6a8                GetExpDate
 .text.GetProductCode
                0x0100c7c0      0x2c0 obj/input.o
                0x0100c7c0                GetProductCode
 .text.Get4DBC  0x0100ca80       0x7c obj/input.o
                0x0100ca80                Get4DBC
 .text.SearchRecord
                0x0100cafc      0x108 obj/input.o
                0x0100cafc                SearchRecord
 .text.GetCardNbr
                0x0100cc04       0xe8 obj/input.o
                0x0100cc04                GetCardNbr
 .text.GetCard  0x0100ccec       0xf8 obj/input.o
                0x0100ccec                GetCard
 .text.WaitCardTrans
                0x0100cde4      0x328 obj/input.o
                0x0100cde4                WaitCardTrans
 .text.GetEcrRef
                0x0100d10c       0x84 obj/input.o
                0x0100d10c                GetEcrRef
 .text.GetCashBackAmount
                0x0100d190       0xcc obj/input.o
                0x0100d190                GetCashBackAmount
 .text          0x0100d25c        0x0 obj/keytrans.o
 .text.key_ready
                0x0100d25c       0x24 obj/keytrans.o
                0x0100d25c                key_ready
 .text.ResetKey
                0x0100d280       0x54 obj/keytrans.o
                0x0100d280                ResetKey
 .text.LoadTmk  0x0100d2d4      0x28c obj/keytrans.o
                0x0100d2d4                LoadTmk
 .text.LoadKeys
                0x0100d560      0x220 obj/keytrans.o
                0x0100d560                LoadKeys
 .text.EncData  0x0100d780      0x114 obj/keytrans.o
                0x0100d780                EncData
 .text.DecData  0x0100d894      0x114 obj/keytrans.o
                0x0100d894                DecData
 .text.SetMode  0x0100d9a8      0x154 obj/keytrans.o
                0x0100d9a8                SetMode
 .text.GetPIN   0x0100dafc       0xb4 obj/keytrans.o
                0x0100dafc                GetPIN
 .text.SetDhostIdx
                0x0100dbb0       0x84 obj/keytrans.o
                0x0100dbb0                SetDhostIdx
 .text.ResetDukptIkey
                0x0100dc34       0xac obj/keytrans.o
                0x0100dc34                ResetDukptIkey
 .text.LoadDukptIkey
                0x0100dce0       0xdc obj/keytrans.o
                0x0100dce0                LoadDukptIkey
 .text.GetDukptPin
                0x0100ddbc      0x108 obj/keytrans.o
                0x0100ddbc                GetDukptPin
 .text.IccTmkInject
                0x0100dec4       0xec obj/keytrans.o
                0x0100dec4                IccTmkInject
 .text          0x0100dfb0        0x0 obj/lptutil.o
 .text.RestartLpt
                0x0100dfb0       0x2c obj/lptutil.o
 .text.ResetLpt
                0x0100dfdc       0x2c obj/lptutil.o
 .text.WaitPrnFinish
                0x0100e008       0xe0 obj/lptutil.o
                0x0100e008                WaitPrnFinish
 .text.GetBatteryLevel
                0x0100e0e8       0x1e obj/lptutil.o
                0x0100e0e8                GetBatteryLevel
 .text.PrintLowBatt
                0x0100e106       0x10 obj/lptutil.o
                0x0100e106                PrintLowBatt
 *fill*         0x0100e116        0x2 
 .text.LptClose
                0x0100e118       0x2c obj/lptutil.o
                0x0100e118                LptClose
 .text.LptOpen  0x0100e144       0xf0 obj/lptutil.o
                0x0100e144                LptOpen
 .text.LptPutN  0x0100e234       0x54 obj/lptutil.o
                0x0100e234                LptPutN
 .text.LptPutS  0x0100e288       0x14 obj/lptutil.o
                0x0100e288                LptPutS
 .text.Adv2Bookmark
                0x0100e29c       0x78 obj/lptutil.o
                0x0100e29c                Adv2Bookmark
 .text.PrintLogo
                0x0100e314       0x88 obj/lptutil.o
                0x0100e314                PrintLogo
 .text.PrintBuf
                0x0100e39c      0x148 obj/lptutil.o
                0x0100e39c                PrintBuf
 .text.PrintRcptLF
                0x0100e4e4       0x24 obj/lptutil.o
                0x0100e4e4                PrintRcptLF
 .text.PrintRcptFF
                0x0100e508        0x6 obj/lptutil.o
                0x0100e508                PrintRcptFF
 .text          0x0100e50e        0x0 obj/main.o
 *fill*         0x0100e50e        0x2 
 .text.startup.main
                0x0100e510       0x78 obj/main.o
                0x0100e510                main
 .text          0x0100e588        0x0 obj/menu.o
 .text.MenuSelect
                0x0100e588      0x590 obj/menu.o
                0x0100e588                MenuSelect
 .text          0x0100eb18        0x0 obj/message.o
 .text.GetConstMsg
                0x0100eb18       0x10 obj/message.o
                0x0100eb18                GetConstMsg
 .text          0x0100eb28        0x0 obj/network.o
 .text.SetBannerMode
                0x0100eb28       0x48 obj/network.o
                0x0100eb28                SetBannerMode
 .text.IconPuts
                0x0100eb70       0x40 obj/network.o
                0x0100eb70                IconPuts
 .text.SetBannerText
                0x0100ebb0       0x14 obj/network.o
                0x0100ebb0                SetBannerText
 .text.GPRSReset
                0x0100ebc4      0x14c obj/network.o
                0x0100ebc4                GPRSReset
 .text.SetPPPConfig
                0x0100ed10       0xa6 obj/network.o
                0x0100ed10                SetPPPConfig
 *fill*         0x0100edb6        0x2 
 .text.NetworkInfo
                0x0100edb8      0x538 obj/network.o
                0x0100edb8                NetworkInfo
 .text.SelSIM   0x0100f2f0      0x2a4 obj/network.o
                0x0100f2f0                SelSIM
 .text.GetBatteryPercent
                0x0100f594       0x60 obj/network.o
                0x0100f594                GetBatteryPercent
 .text.ShowSimStatus
                0x0100f5f4      0x154 obj/network.o
                0x0100f5f4                ShowSimStatus
 .text.SimStatusThrd
                0x0100f748       0x18 obj/network.o
                0x0100f748                SimStatusThrd
 .text.NetworkInit
                0x0100f760      0x26c obj/network.o
                0x0100f760                NetworkInit
 .text.GetSubNum
                0x0100f9cc       0xb4 obj/network.o
                0x0100f9cc                GetSubNum
 .text.GetMobileNum
                0x0100fa80      0x1dc obj/network.o
                0x0100fa80                GetMobileNum
 .text.GetSimCCID
                0x0100fc5c      0x28c obj/network.o
                0x0100fc5c                GetSimCCID
 .text.MobileNumTest
                0x0100fee8       0xe4 obj/network.o
                0x0100fee8                MobileNumTest
 .text.SNTest   0x0100ffcc       0xe8 obj/network.o
                0x0100ffcc                SNTest
 .text.GetPPPStatus
                0x010100b4       0x20 obj/network.o
                0x010100b4                GetPPPStatus
 .text.DispNifInfo2
                0x010100d4       0xe4 obj/network.o
                0x010100d4                DispNifInfo2
 .text.ShowPPPStatus
                0x010101b8      0x144 obj/network.o
                0x010101b8                ShowPPPStatus
 .text          0x010102fc        0x0 obj/record.o
 .text.MoveInput2Tx
                0x010102fc       0x2c obj/record.o
                0x010102fc                MoveInput2Tx
 .text.Input2RecordBuf
                0x01010328       0xa0 obj/record.o
                0x01010328                Input2RecordBuf
 .text.UpdateHostStatus
                0x010103c8       0xa0 obj/record.o
                0x010103c8                UpdateHostStatus
 .text.SaveRecord
                0x01010468       0x78 obj/record.o
                0x01010468                SaveRecord
 .text.SaveOfflRecord
                0x010104e0       0x70 obj/record.o
                0x010104e0                SaveOfflRecord
 .text.UpdateRecord
                0x01010550       0x70 obj/record.o
                0x01010550                UpdateRecord
 .text          0x010105c0        0x0 obj/refund.o
 .text.RefundTrans
                0x010105c0      0x138 obj/refund.o
                0x010105c0                RefundTrans
 .text          0x010106f8        0x0 obj/testrans.o
 .text.TestTrans
                0x010106f8       0xc0 obj/testrans.o
                0x010106f8                TestTrans
 .text          0x010107b8        0x0 obj/toggle.o
 .text.ToggleOption
                0x010107b8      0x12c obj/toggle.o
                0x010107b8                ToggleOption
 .text          0x010108e4        0x0 obj/tpadtest.o
 .text.IconPutS
                0x010108e4       0x2e obj/tpadtest.o
 *fill*         0x01010912        0x2 
 .text.TouchDetected2
                0x01010914       0x60 obj/tpadtest.o
 .text.TouchDetected1
                0x01010974       0x60 obj/tpadtest.o
 .text.TouchDetected0
                0x010109d4       0x60 obj/tpadtest.o
 .text.TouchLoss
                0x01010a34       0x38 obj/tpadtest.o
 .text.CleanTPadConf
                0x01010a6c        0xa obj/tpadtest.o
 *fill*         0x01010a76        0x2 
 .text.UpdTPadDotSize
                0x01010a78       0x5c obj/tpadtest.o
 .text.DotUpDn  0x01010ad4       0x2c obj/tpadtest.o
 .text.DotDn    0x01010b00       0x14 obj/tpadtest.o
 .text.DotUp    0x01010b14       0x14 obj/tpadtest.o
 .text.TPadTest
                0x01010b28      0x1e4 obj/tpadtest.o
                0x01010b28                TPadTest
 .text.TPadTestEnable
                0x01010d0c       0x10 obj/tpadtest.o
                0x01010d0c                TPadTestEnable
 .text.SPadTest
                0x01010d1c      0x1dc obj/tpadtest.o
                0x01010d1c                SPadTest
 .text          0x01010ef8        0x0 obj/tranutil.o
 .text.AddTotal
                0x01010ef8       0x16 obj/tranutil.o
 *fill*         0x01010f0e        0x2 
 .text.PackContents
                0x01010f10      0x29c obj/tranutil.o
 .text.PackContent
                0x010111ac      0x264 obj/tranutil.o
 .text.PackTelNo
                0x01011410       0x88 obj/tranutil.o
 .text.PackTxnSlip.part.0
                0x01011498       0x14 obj/tranutil.o
 .text.ValidAcquirer
                0x010114ac       0x68 obj/tranutil.o
 .text.OverMargin
                0x01011514       0x44 obj/tranutil.o
                0x01011514                OverMargin
 .text.PackDTGAA
                0x01011558       0x2c obj/tranutil.o
                0x01011558                PackDTGAA
 .text.PackDateTime
                0x01011584       0x48 obj/tranutil.o
                0x01011584                PackDateTime
 .text.Packprintissuer
                0x010115cc      0x210 obj/tranutil.o
                0x010115cc                Packprintissuer
 .text.Packprintconfig
                0x010117dc      0x6b4 obj/tranutil.o
                0x010117dc                Packprintconfig
 .text.PackHeader
                0x01011e90       0x78 obj/tranutil.o
                0x01011e90                PackHeader
 .text.PackRecordP
                0x01011f08       0xc8 obj/tranutil.o
                0x01011f08                PackRecordP
 .text.PackInputP
                0x01011fd0       0xf0 obj/tranutil.o
                0x01011fd0                PackInputP
 .text.DispHeader
                0x010120c0       0xc0 obj/tranutil.o
                0x010120c0                DispHeader
 .text.SetRspCode
                0x01012180        0xc obj/tranutil.o
                0x01012180                SetRspCode
 .text.ClearResponse
                0x0101218c       0x3c obj/tranutil.o
                0x0101218c                ClearResponse
 .text.ConfirmCard
                0x010121c8      0x1e8 obj/tranutil.o
                0x010121c8                ConfirmCard
 .text.PackRspText
                0x010123b0       0xa4 obj/tranutil.o
                0x010123b0                PackRspText
 .text.DispRspText
                0x01012454       0xd0 obj/tranutil.o
                0x01012454                DispRspText
 .text.DispErrorMsg
                0x01012524       0x30 obj/tranutil.o
                0x01012524                DispErrorMsg
 .text.TransEnd
                0x01012554      0x138 obj/tranutil.o
                0x01012554                TransEnd
 .text.DispAmount
                0x0101268c       0x98 obj/tranutil.o
                0x0101268c                DispAmount
 .text.AddToTotals
                0x01012724      0x1b0 obj/tranutil.o
                0x01012724                AddToTotals
 .text.CalIssuerSum
                0x010128d4       0x40 obj/tranutil.o
 .text.CalTotals
                0x01012914       0x5c obj/tranutil.o
                0x01012914                CalTotals
 .text.PackIssuerSum
                0x01012970      0x2d8 obj/tranutil.o
                0x01012970                PackIssuerSum
 .text.PackIssuerSumT
                0x01012c48      0x278 obj/tranutil.o
                0x01012c48                PackIssuerSumT
 .text.FormatHolderName
                0x01012ec0       0x6e obj/tranutil.o
                0x01012ec0                FormatHolderName
 *fill*         0x01012f2e        0x2 
 .text.IncTraceNoEND
                0x01012f30       0x34 obj/tranutil.o
                0x01012f30                IncTraceNoEND
 .text.IncTraceNo
                0x01012f64       0x30 obj/tranutil.o
                0x01012f64                IncTraceNo
 .text.ClearRspData
                0x01012f94       0x4c obj/tranutil.o
                0x01012f94                ClearRspData
 .text.ResetTerm
                0x01012fe0       0x6c obj/tranutil.o
                0x01012fe0                ResetTerm
 .text.PackComm
                0x0101304c      0x400 obj/tranutil.o
                0x0101304c                PackComm
 .text.TransAllowed
                0x0101344c      0x16c obj/tranutil.o
                0x0101344c                TransAllowed
 .text          0x010135b8        0x0 obj/wavecom.o
 .text.ClearCmdBuf
                0x010135b8       0x48 obj/wavecom.o
 .text.SendWaitRsp.part.0
                0x01013600      0x128 obj/wavecom.o
 .text.SendWaitRsp
                0x01013728       0x68 obj/wavecom.o
 .text.SetSmsMode.part.1
                0x01013790       0x3c obj/wavecom.o
 .text.Asc2DWVAL.constprop.7
                0x010137cc       0x22 obj/wavecom.o
 *fill*         0x010137ee        0x2 
 .text.WaitModuReady
                0x010137f0       0x4c obj/wavecom.o
                0x010137f0                WaitModuReady
 .text.SimDetect
                0x0101383c       0x38 obj/wavecom.o
                0x0101383c                SimDetect
 .text.RegisterNetwork
                0x01013874       0x84 obj/wavecom.o
                0x01013874                RegisterNetwork
 .text.AttachGPRS
                0x010138f8       0x34 obj/wavecom.o
                0x010138f8                AttachGPRS
 .text.GetPHBCapcity
                0x0101392c       0xbc obj/wavecom.o
                0x0101392c                GetPHBCapcity
 .text.GetContact
                0x010139e8       0xb4 obj/wavecom.o
                0x010139e8                GetContact
 .text.LoadPhoneBook
                0x01013a9c       0x48 obj/wavecom.o
                0x01013a9c                LoadPhoneBook
 .text.SortPhoneBook
                0x01013ae4       0xb8 obj/wavecom.o
                0x01013ae4                SortPhoneBook
 .text.SelectPHBook
                0x01013b9c      0x100 obj/wavecom.o
                0x01013b9c                SelectPHBook
 .text.WriteContact
                0x01013c9c       0x90 obj/wavecom.o
                0x01013c9c                WriteContact
 .text.DelContact
                0x01013d2c       0x5c obj/wavecom.o
                0x01013d2c                DelContact
 .text.AllCallForward
                0x01013d88       0x4c obj/wavecom.o
                0x01013d88                AllCallForward
 .text.MakeCall
                0x01013dd4       0x40 obj/wavecom.o
                0x01013dd4                MakeCall
 .text.MakeReqCall
                0x01013e14       0x4c obj/wavecom.o
                0x01013e14                MakeReqCall
 .text.CheckCallStatus
                0x01013e60       0x80 obj/wavecom.o
                0x01013e60                CheckCallStatus
 .text.AnswerCall
                0x01013ee0       0x28 obj/wavecom.o
                0x01013ee0                AnswerCall
 .text.SendKeyPress
                0x01013f08       0x1c obj/wavecom.o
                0x01013f08                SendKeyPress
 .text.HangUp   0x01013f24       0x28 obj/wavecom.o
                0x01013f24                HangUp
 .text.CheckCallEnd
                0x01013f4c       0x58 obj/wavecom.o
                0x01013f4c                CheckCallEnd
 .text.GetCallerID
                0x01013fa4       0x54 obj/wavecom.o
                0x01013fa4                GetCallerID
 .text.ReadGain
                0x01013ff8       0x20 obj/wavecom.o
                0x01013ff8                ReadGain
 .text.WriteGain
                0x01014018       0x3c obj/wavecom.o
                0x01014018                WriteGain
 .text.GetOptrName
                0x01014054       0x6c obj/wavecom.o
                0x01014054                GetOptrName
 .text.FacilityEnable
                0x010140c0       0x98 obj/wavecom.o
                0x010140c0                FacilityEnable
 .text.CheckPinState
                0x01014158       0x80 obj/wavecom.o
                0x01014158                CheckPinState
 .text.EnterPin
                0x010141d8       0x4c obj/wavecom.o
                0x010141d8                EnterPin
 .text.ChangePin
                0x01014224       0x94 obj/wavecom.o
                0x01014224                ChangePin
 .text.SetNewMsgInd
                0x010142b8       0x20 obj/wavecom.o
                0x010142b8                SetNewMsgInd
 .text.GetSmsMode
                0x010142d8       0x4c obj/wavecom.o
                0x010142d8                GetSmsMode
 .text.GetSmsTotal
                0x01014324       0xa0 obj/wavecom.o
                0x01014324                GetSmsTotal
 .text.LoadSmsInbox
                0x010143c4      0x29c obj/wavecom.o
                0x010143c4                LoadSmsInbox
 .text.ReadSms  0x01014660      0x10c obj/wavecom.o
                0x01014660                ReadSms
 .text.DelSms   0x0101476c       0x84 obj/wavecom.o
                0x0101476c                DelSms
 .text.SmsSend  0x010147f0       0xb4 obj/wavecom.o
                0x010147f0                SmsSend
 .text.ModuleInit
                0x010148a4       0x38 obj/wavecom.o
                0x010148a4                ModuleInit
 .text          0x010148dc        0x0 obj/cstartup.o
 .text.SegmentInit
                0x010148dc       0x78 obj/cstartup.o
                0x010148dc                SegmentInit
 .text          0x01014954        0x0 obj/expect_send.o
 .text.expect_send_release
                0x01014954       0x58 obj/expect_send.o
                0x01014954                expect_send_release
 .text.expect_send_alloc
                0x010149ac      0x10e obj/expect_send.o
                0x010149ac                expect_send_alloc
 .text          0x01014aba        0x0 obj/libc.o
 .text.printchar
                0x01014aba       0x14 obj/libc.o
 .text.prints   0x01014ace       0xaa obj/libc.o
 .text.printi   0x01014b78       0xa0 obj/libc.o
 .text.print    0x01014c18      0x2c0 obj/libc.o
 .text._read_r  0x01014ed8       0x2a obj/libc.o
                0x01014ed8                _read_r
 .text._write_r
                0x01014f02       0x22 obj/libc.o
                0x01014f02                _write_r
 .text._close_r
                0x01014f24        0x4 obj/libc.o
                0x01014f24                _close_r
 .text._lseek_r
                0x01014f28        0x4 obj/libc.o
                0x01014f28                _lseek_r
 .text._fstat_r
                0x01014f2c        0xa obj/libc.o
                0x01014f2c                _fstat_r
 .text.isatty   0x01014f36        0x4 obj/libc.o
                0x01014f36                isatty
 *fill*         0x01014f3a        0x2 
 .text._sbrk_r  0x01014f3c       0x2c obj/libc.o
                0x01014f3c                _sbrk_r
 .text.putchar  0x01014f68        0xe obj/libc.o
                0x01014f68                putchar
 .text.printf   0x01014f76       0x1c obj/libc.o
                0x01014f76                printf
 .text.sprintf  0x01014f92       0x1e obj/libc.o
                0x01014f92                sprintf
 .text          0x01014fb0      0x5f4 ../LibA5T1000/gcc\libsyscall.a(app_call.o)
                0x01014fb0                lib_app_call
 .text          0x010155a4       0x20 ../LibA5T1000/gcc\libsyscall.a(sys_call.o)
                0x010155a4                sys_func3
                0x010155a8                sys_func0
                0x010155b4                sys_func1
                0x010155bc                sys_func2
 .text          0x010155c4       0x1c ../LibA5T1000/gcc\libbasecall.a(base_call.o)
                0x010155c4                base_func3
                0x010155c8                base_func0
                0x010155d2                base_func1
                0x010155da                base_func2
 .text          0x010155e0       0x52 ../LibA5T1000/gcc\libsptutil.a(bcd2bin.o)
                0x010155e0                bcd2bin
                0x010155fc                lbcd2lbin
 .text          0x01015632        0xe ../LibA5T1000/gcc\libsptutil.a(bcd2val.o)
                0x01015632                bcd2val
 .text          0x01015640       0x40 ../LibA5T1000/gcc\libsptutil.a(bcdadd.o)
                0x01015640                bcdadd
 .text          0x01015680       0x32 ../LibA5T1000/gcc\libsptutil.a(bcdinc.o)
                0x01015680                bcdinc
 .text          0x010156b2       0x3e ../LibA5T1000/gcc\libsptutil.a(bcdsub.o)
                0x010156b2                bcdsub
 .text          0x010156f0       0x3c ../LibA5T1000/gcc\libsptutil.a(bin2bcd.o)
                0x010156f0                binary2bcd
                0x01015726                bin2bcd
 .text          0x0101572c       0x28 ../LibA5T1000/gcc\libsptutil.a(bin2dec.o)
                0x0101572c                bin2dec
 .text          0x01015754       0x1a ../LibA5T1000/gcc\libsptutil.a(bindec_d.o)
                0x01015754                bindec_data
 .text          0x0101576e       0x36 ../LibA5T1000/gcc\libsptutil.a(chkdok.o)
                0x0101576e                chk_digit_ok
 .text          0x010157a4       0x32 ../LibA5T1000/gcc\libsptutil.a(compress.o)
                0x010157a4                compress
 *fill*         0x010157d6        0x2 
 .text          0x010157d8       0x30 ../LibA5T1000/gcc\libsptutil.a(crcccitt.o)
                0x010157d8                cal_crcx
                0x01015800                cal_crc
 .text          0x01015808       0x42 ../LibA5T1000/gcc\libsptutil.a(dbin2asc.o)
                0x01015808                dbin2asc
 .text          0x0101584a       0x60 ../LibA5T1000/gcc\libsptutil.a(dbin2bcd.o)
                0x0101584a                dbin2bcd
 .text          0x010158aa       0x1c ../LibA5T1000/gcc\libsptutil.a(decbin4b.o)
                0x010158aa                decbin4b
 .text          0x010158c6       0x40 ../LibA5T1000/gcc\libsptutil.a(decbin8b.o)
                0x010158c6                decbin8b
 .text          0x01015906       0x18 ../LibA5T1000/gcc\libsptutil.a(fndb.o)
                0x01015906                fndb
 *fill*         0x0101591e        0x2 
 .text          0x01015920       0x64 ../LibA5T1000/gcc\libsptutil.a(get_byte.o)
                0x01015920                get_byte
                0x01015930                get_word
                0x01015940                get_dword
                0x01015960                get_dword_le
 .text          0x01015984       0x14 ../LibA5T1000/gcc\libsptutil.a(get_dist.o)
                0x01015984                get_distance
 .text          0x01015998       0x2c ../LibA5T1000/gcc\libsptutil.a(get_mem.o)
                0x01015998                get_mem
 .text          0x010159c4        0xc ../LibA5T1000/gcc\libsptutil.a(get_pptr.o)
                0x010159c4                get_pptr
 .text          0x010159d0       0x10 ../LibA5T1000/gcc\libsptutil.a(hex_val.o)
                0x010159d0                hex_value
 .text          0x010159e0       0x20 ../LibA5T1000/gcc\libsptutil.a(inc_pptr.o)
                0x010159e0                inc_pptr
 .text          0x01015a00       0x18 ../LibA5T1000/gcc\libsptutil.a(isbdigit.o)
                0x01015a00                isbdigit
 .text          0x01015a18       0xfc ../LibA5T1000/gcc\libsptutil.a(pack_b.o)
                0x01015a18                pack_byte
                0x01015a3c                pack_word
                0x01015a68                pack_dword
                0x01015aa8                pack_word_le
                0x01015ad4                pack_dword_le
 .text          0x01015b14        0x6 ../LibA5T1000/gcc\libsptutil.a(pack_lf.o)
                0x01015b14                pack_lf
 .text          0x01015b1a        0x8 ../LibA5T1000/gcc\libsptutil.a(pack_lfs.o)
                0x01015b1a                pack_lfs
 *fill*         0x01015b22        0x2 
 .text          0x01015b24       0x28 ../LibA5T1000/gcc\libsptutil.a(pack_mem.o)
                0x01015b24                pack_mem
 .text          0x01015b4c       0x28 ../LibA5T1000/gcc\libsptutil.a(pack_nb.o)
                0x01015b4c                pack_nbyte
 .text          0x01015b74        0x8 ../LibA5T1000/gcc\libsptutil.a(pack_spc.o)
                0x01015b74                pack_space
 .text          0x01015b7c       0x18 ../LibA5T1000/gcc\libsptutil.a(pack_str.o)
                0x01015b7c                pack_str
 .text          0x01015b94        0xc ../LibA5T1000/gcc\libsptutil.a(peek_b.o)
                0x01015b94                peek_byte
 .text          0x01015ba0       0x38 ../LibA5T1000/gcc\libsptutil.a(set_pptr.o)
                0x01015ba0                buffer_overflow
                0x01015bbc                set_pptr
 .text          0x01015bd8       0x18 ../LibA5T1000/gcc\libsptutil.a(skpb.o)
                0x01015bd8                skpb
 .text          0x01015bf0       0x2c ../LibA5T1000/gcc\libsptutil.a(split.o)
                0x01015bf0                split
 .text          0x01015c1c       0x28 ../LibA5T1000/gcc\libsptutil.a(split_d.o)
                0x01015c1c                split_data
 .text          0x01015c44       0x18 ../LibA5T1000/gcc\libsptutil.a(val2bcd.o)
                0x01015c44                val2bcd
 .text          0x01015c5c        0xe ../LibA5T1000/gcc\libsptutil.a(hexdigit.o)
                0x01015c5c                hex_digit
 *fill*         0x01015c6a        0x2 
 .text          0x01015c6c      0x7b4 ../LibA5T1000/gcc\libspglib.a(GIFLib.o)
                0x01015f8c                GIFSetPos
                0x01015f98                GIFPlay
                0x01016034                GIFPlayOn
                0x0101604c                GIFStop
                0x0101609c                GIFUnLoad
                0x01016108                GIFLoadMem
 .text          0x01016420      0x340 ../LibA5T1000/gcc\libspglib.a(GLib.o)
                0x01016420                GD_SetDotSize
                0x01016444                GD_SetDotColor
                0x01016470                GD_SetInSpace
                0x0101647c                GD_SetOutSpace
                0x01016488                FillColorPixel
                0x010164bc                FillMonoPixel
                0x010164f6                GD_Dot
                0x01016568                GD_Point
                0x0101656e                GD_Line
                0x01016644                GD_Rectangle
                0x010166cc                GD_Triangle
                0x010166f4                GD_Circle
 .text          0x01016760        0x0 C:\DevTools\gcc_v49_2014q4/arm-none-eabi/lib/thumb\libc.a(lib_a-memcmp.o)
 .text.memcmp   0x01016760       0x54 C:\DevTools\gcc_v49_2014q4/arm-none-eabi/lib/thumb\libc.a(lib_a-memcmp.o)
                0x01016760                memcmp
 .text          0x010167b4        0x0 C:\DevTools\gcc_v49_2014q4/arm-none-eabi/lib/thumb\libc.a(lib_a-memcpy.o)
 .text.memcpy   0x010167b4       0x80 C:\DevTools\gcc_v49_2014q4/arm-none-eabi/lib/thumb\libc.a(lib_a-memcpy.o)
                0x010167b4                memcpy
 .text          0x01016834        0x0 C:\DevTools\gcc_v49_2014q4/arm-none-eabi/lib/thumb\libc.a(lib_a-memmove.o)
 .text.memmove  0x01016834       0x9c C:\DevTools\gcc_v49_2014q4/arm-none-eabi/lib/thumb\libc.a(lib_a-memmove.o)
                0x01016834                memmove
 .text          0x010168d0        0x0 C:\DevTools\gcc_v49_2014q4/arm-none-eabi/lib/thumb\libc.a(lib_a-memset.o)
 .text.memset   0x010168d0       0x94 C:\DevTools\gcc_v49_2014q4/arm-none-eabi/lib/thumb\libc.a(lib_a-memset.o)
                0x010168d0                memset
 .text          0x01016964        0x0 C:\DevTools\gcc_v49_2014q4/arm-none-eabi/lib/thumb\libc.a(lib_a-puts.o)
 .text._puts_r  0x01016964       0x60 C:\DevTools\gcc_v49_2014q4/arm-none-eabi/lib/thumb\libc.a(lib_a-puts.o)
                0x01016964                _puts_r
 .text.puts     0x010169c4       0x18 C:\DevTools\gcc_v49_2014q4/arm-none-eabi/lib/thumb\libc.a(lib_a-puts.o)
                0x010169c4                puts
 .text          0x010169dc        0x0 C:\DevTools\gcc_v49_2014q4/arm-none-eabi/lib/thumb\libc.a(lib_a-strcat.o)
 .text.strcat   0x010169dc       0x54 C:\DevTools\gcc_v49_2014q4/arm-none-eabi/lib/thumb\libc.a(lib_a-strcat.o)
                0x010169dc                strcat
 .text          0x01016a30        0x0 C:\DevTools\gcc_v49_2014q4/arm-none-eabi/lib/thumb\libc.a(lib_a-strchr.o)
 .text.strchr   0x01016a30       0xdc C:\DevTools\gcc_v49_2014q4/arm-none-eabi/lib/thumb\libc.a(lib_a-strchr.o)
                0x01016a30                strchr
 .text          0x01016b0c        0x0 C:\DevTools\gcc_v49_2014q4/arm-none-eabi/lib/thumb\libc.a(lib_a-strcpy.o)
 .text.strcpy   0x01016b0c       0x10 C:\DevTools\gcc_v49_2014q4/arm-none-eabi/lib/thumb\libc.a(lib_a-strcpy.o)
                0x01016b0c                strcpy
 .text          0x01016b1c        0x0 C:\DevTools\gcc_v49_2014q4/arm-none-eabi/lib/thumb\libc.a(lib_a-strlen.o)
 .text.strlen   0x01016b1c       0x6c C:\DevTools\gcc_v49_2014q4/arm-none-eabi/lib/thumb\libc.a(lib_a-strlen.o)
                0x01016b1c                strlen
 .text          0x01016b88        0x0 C:\DevTools\gcc_v49_2014q4/arm-none-eabi/lib/thumb\libc.a(lib_a-strstr.o)
 .text.critical_factorization
                0x01016b88       0xc4 C:\DevTools\gcc_v49_2014q4/arm-none-eabi/lib/thumb\libc.a(lib_a-strstr.o)
 .text.two_way_long_needle
                0x01016c4c      0x1f8 C:\DevTools\gcc_v49_2014q4/arm-none-eabi/lib/thumb\libc.a(lib_a-strstr.o)
 .text.strstr   0x01016e44      0x228 C:\DevTools\gcc_v49_2014q4/arm-none-eabi/lib/thumb\libc.a(lib_a-strstr.o)
                0x01016e44                strstr
 .text          0x0101706c        0x0 C:\DevTools\gcc_v49_2014q4/arm-none-eabi/lib/thumb\libc.a(lib_a-fvwrite.o)
 .text.__sfvwrite_r
                0x0101706c      0x340 C:\DevTools\gcc_v49_2014q4/arm-none-eabi/lib/thumb\libc.a(lib_a-fvwrite.o)
                0x0101706c                __sfvwrite_r
 .text          0x010173ac        0x0 C:\DevTools\gcc_v49_2014q4/arm-none-eabi/lib/thumb\libc.a(lib_a-impure.o)
 .text          0x010173ac        0x0 C:\DevTools\gcc_v49_2014q4/arm-none-eabi/lib/thumb\libc.a(lib_a-mallocr.o)
 .text._malloc_r
                0x010173ac      0x54c C:\DevTools\gcc_v49_2014q4/arm-none-eabi/lib/thumb\libc.a(lib_a-mallocr.o)
                0x010173ac                _malloc_r
 .text          0x010178f8        0x0 C:\DevTools\gcc_v49_2014q4/arm-none-eabi/lib/thumb\libc.a(lib_a-memchr.o)
 .text.memchr   0x010178f8       0x8c C:\DevTools\gcc_v49_2014q4/arm-none-eabi/lib/thumb\libc.a(lib_a-memchr.o)
                0x010178f8                memchr
 .text          0x01017984        0x0 C:\DevTools\gcc_v49_2014q4/arm-none-eabi/lib/thumb\libc.a(lib_a-mlock.o)
 .text.__malloc_lock
                0x01017984        0x4 C:\DevTools\gcc_v49_2014q4/arm-none-eabi/lib/thumb\libc.a(lib_a-mlock.o)
                0x01017984                __malloc_lock
 .text.__malloc_unlock
                0x01017988        0x4 C:\DevTools\gcc_v49_2014q4/arm-none-eabi/lib/thumb\libc.a(lib_a-mlock.o)
                0x01017988                __malloc_unlock
 .text          0x0101798c        0x0 C:\DevTools\gcc_v49_2014q4/arm-none-eabi/lib/thumb\libc.a(lib_a-reallocr.o)
 .text._realloc_r
                0x0101798c      0x3dc C:\DevTools\gcc_v49_2014q4/arm-none-eabi/lib/thumb\libc.a(lib_a-reallocr.o)
                0x0101798c                _realloc_r
 .text          0x01017d68        0x0 C:\DevTools\gcc_v49_2014q4/arm-none-eabi/lib/thumb\libc.a(lib_a-wsetup.o)
 .text.__swsetup_r
                0x01017d68       0xd0 C:\DevTools\gcc_v49_2014q4/arm-none-eabi/lib/thumb\libc.a(lib_a-wsetup.o)
                0x01017d68                __swsetup_r
 .text          0x01017e38        0x0 C:\DevTools\gcc_v49_2014q4/arm-none-eabi/lib/thumb\libc.a(lib_a-fflush.o)
 .text.__sflush_r
                0x01017e38      0x168 C:\DevTools\gcc_v49_2014q4/arm-none-eabi/lib/thumb\libc.a(lib_a-fflush.o)
                0x01017e38                __sflush_r
 .text._fflush_r
                0x01017fa0       0x30 C:\DevTools\gcc_v49_2014q4/arm-none-eabi/lib/thumb\libc.a(lib_a-fflush.o)
                0x01017fa0                _fflush_r
 .text.fflush   0x01017fd0       0x2c C:\DevTools\gcc_v49_2014q4/arm-none-eabi/lib/thumb\libc.a(lib_a-fflush.o)
                0x01017fd0                fflush
 .text          0x01017ffc        0x0 C:\DevTools\gcc_v49_2014q4/arm-none-eabi/lib/thumb\libc.a(lib_a-findfp.o)
 .text.__fp_lock
                0x01017ffc        0x4 C:\DevTools\gcc_v49_2014q4/arm-none-eabi/lib/thumb\libc.a(lib_a-findfp.o)
 .text.__fp_unlock
                0x01018000        0x4 C:\DevTools\gcc_v49_2014q4/arm-none-eabi/lib/thumb\libc.a(lib_a-findfp.o)
 .text._cleanup_r
                0x01018004       0x14 C:\DevTools\gcc_v49_2014q4/arm-none-eabi/lib/thumb\libc.a(lib_a-findfp.o)
                0x01018004                _cleanup_r
 .text.__sinit.part.1
                0x01018018       0xf4 C:\DevTools\gcc_v49_2014q4/arm-none-eabi/lib/thumb\libc.a(lib_a-findfp.o)
 .text.__sfmoreglue
                0x0101810c       0x34 C:\DevTools\gcc_v49_2014q4/arm-none-eabi/lib/thumb\libc.a(lib_a-findfp.o)
                0x0101810c                __sfmoreglue
 .text.__sfp    0x01018140       0x94 C:\DevTools\gcc_v49_2014q4/arm-none-eabi/lib/thumb\libc.a(lib_a-findfp.o)
                0x01018140                __sfp
 .text._cleanup
                0x010181d4       0x1c C:\DevTools\gcc_v49_2014q4/arm-none-eabi/lib/thumb\libc.a(lib_a-findfp.o)
                0x010181d4                _cleanup
 .text.__sinit  0x010181f0       0x14 C:\DevTools\gcc_v49_2014q4/arm-none-eabi/lib/thumb\libc.a(lib_a-findfp.o)
                0x010181f0                __sinit
 .text.__sfp_lock_acquire
                0x01018204        0x4 C:\DevTools\gcc_v49_2014q4/arm-none-eabi/lib/thumb\libc.a(lib_a-findfp.o)
                0x01018204                __sfp_lock_acquire
 .text.__sfp_lock_release
                0x01018208        0x4 C:\DevTools\gcc_v49_2014q4/arm-none-eabi/lib/thumb\libc.a(lib_a-findfp.o)
                0x01018208                __sfp_lock_release
 .text.__sinit_lock_acquire
                0x0101820c        0x4 C:\DevTools\gcc_v49_2014q4/arm-none-eabi/lib/thumb\libc.a(lib_a-findfp.o)
                0x0101820c                __sinit_lock_acquire
 .text.__sinit_lock_release
                0x01018210        0x4 C:\DevTools\gcc_v49_2014q4/arm-none-eabi/lib/thumb\libc.a(lib_a-findfp.o)
                0x01018210                __sinit_lock_release
 .text.__fp_lock_all
                0x01018214       0x1c C:\DevTools\gcc_v49_2014q4/arm-none-eabi/lib/thumb\libc.a(lib_a-findfp.o)
                0x01018214                __fp_lock_all
 .text.__fp_unlock_all
                0x01018230       0x1c C:\DevTools\gcc_v49_2014q4/arm-none-eabi/lib/thumb\libc.a(lib_a-findfp.o)
                0x01018230                __fp_unlock_all
 .text          0x0101824c        0x0 C:\DevTools\gcc_v49_2014q4/arm-none-eabi/lib/thumb\libc.a(lib_a-freer.o)
 .text._malloc_trim_r
                0x0101824c       0xa4 C:\DevTools\gcc_v49_2014q4/arm-none-eabi/lib/thumb\libc.a(lib_a-freer.o)
                0x0101824c                _malloc_trim_r
 .text._free_r  0x010182f0      0x1b4 C:\DevTools\gcc_v49_2014q4/arm-none-eabi/lib/thumb\libc.a(lib_a-freer.o)
                0x010182f0                _free_r
 .text          0x010184a4        0x0 C:\DevTools\gcc_v49_2014q4/arm-none-eabi/lib/thumb\libc.a(lib_a-fwalk.o)
 .text._fwalk   0x010184a4       0x50 C:\DevTools\gcc_v49_2014q4/arm-none-eabi/lib/thumb\libc.a(lib_a-fwalk.o)
                0x010184a4                _fwalk
 .text._fwalk_reent
                0x010184f4       0x58 C:\DevTools\gcc_v49_2014q4/arm-none-eabi/lib/thumb\libc.a(lib_a-fwalk.o)
                0x010184f4                _fwalk_reent
 .text          0x0101854c        0x0 C:\DevTools\gcc_v49_2014q4/arm-none-eabi/lib/thumb\libc.a(lib_a-makebuf.o)
 .text.__smakebuf_r
                0x0101854c      0x100 C:\DevTools\gcc_v49_2014q4/arm-none-eabi/lib/thumb\libc.a(lib_a-makebuf.o)
                0x0101854c                __smakebuf_r
 .text          0x0101864c        0x0 C:\DevTools\gcc_v49_2014q4/arm-none-eabi/lib/thumb\libc.a(lib_a-stdio.o)
 .text.__sread  0x0101864c       0x2c C:\DevTools\gcc_v49_2014q4/arm-none-eabi/lib/thumb\libc.a(lib_a-stdio.o)
                0x0101864c                __sread
 .text.__seofread
                0x01018678        0x4 C:\DevTools\gcc_v49_2014q4/arm-none-eabi/lib/thumb\libc.a(lib_a-stdio.o)
                0x01018678                __seofread
 .text.__swrite
                0x0101867c       0x3c C:\DevTools\gcc_v49_2014q4/arm-none-eabi/lib/thumb\libc.a(lib_a-stdio.o)
                0x0101867c                __swrite
 .text.__sseek  0x010186b8       0x30 C:\DevTools\gcc_v49_2014q4/arm-none-eabi/lib/thumb\libc.a(lib_a-stdio.o)
                0x010186b8                __sseek
 .text.__sclose
                0x010186e8       0x10 C:\DevTools\gcc_v49_2014q4/arm-none-eabi/lib/thumb\libc.a(lib_a-stdio.o)
                0x010186e8                __sclose
 .text          0x010186f8        0x0 C:\DevTools\gcc_v49_2014q4/arm-none-eabi/lib/thumb\libc.a(lib_a-fclose.o)
 .text._fclose_r
                0x010186f8       0x94 C:\DevTools\gcc_v49_2014q4/arm-none-eabi/lib/thumb\libc.a(lib_a-fclose.o)
                0x010186f8                _fclose_r
 .text.fclose   0x0101878c       0x18 C:\DevTools\gcc_v49_2014q4/arm-none-eabi/lib/thumb\libc.a(lib_a-fclose.o)
                0x0101878c                fclose
 .text          0x010187a4        0x0 C:\DevTools\gcc_v49_2014q4/arm-none-eabi/lib/thumb\libc.a(lib_a-isattyr.o)
 .text._isatty_r
                0x010187a4       0x28 C:\DevTools\gcc_v49_2014q4/arm-none-eabi/lib/thumb\libc.a(lib_a-isattyr.o)
                0x010187a4                _isatty_r
 .text          0x010187cc        0x0 C:\DevTools\gcc_v49_2014q4/arm-none-eabi/lib/thumb\libc.a(lib_a-reent.o)
 .text.cleanup_glue
                0x010187cc       0x20 C:\DevTools\gcc_v49_2014q4/arm-none-eabi/lib/thumb\libc.a(lib_a-reent.o)
                0x010187cc                cleanup_glue
 .text._reclaim_reent
                0x010187ec       0xa0 C:\DevTools\gcc_v49_2014q4/arm-none-eabi/lib/thumb\libc.a(lib_a-reent.o)
                0x010187ec                _reclaim_reent
 .text          0x0101888c        0x0 C:\DevTools\gcc_v49_2014q4/arm-none-eabi/lib/thumb\libnosys.a(isatty.o)
 .text._isatty  0x0101888c       0x10 C:\DevTools\gcc_v49_2014q4/arm-none-eabi/lib/thumb\libnosys.a(isatty.o)
                0x0101888c                _isatty
 .text          0x0101889c        0x0 C:\DevTools\gcc_v49_2014q4/arm-none-eabi/lib/thumb\libm.a(lib_a-w_sqrt.o)
 .text.sqrt     0x0101889c       0xbc C:\DevTools\gcc_v49_2014q4/arm-none-eabi/lib/thumb\libm.a(lib_a-w_sqrt.o)
                0x0101889c                sqrt
 .text          0x01018958        0x0 C:\DevTools\gcc_v49_2014q4/arm-none-eabi/lib/thumb\libm.a(lib_a-e_sqrt.o)
 .text.__ieee754_sqrt
                0x01018958      0x1d4 C:\DevTools\gcc_v49_2014q4/arm-none-eabi/lib/thumb\libm.a(lib_a-e_sqrt.o)
                0x01018958                __ieee754_sqrt
 .text          0x01018b2c        0x0 C:\DevTools\gcc_v49_2014q4/arm-none-eabi/lib/thumb\libm.a(lib_a-s_fpclassify.o)
 .text.__fpclassifyd
                0x01018b2c       0x5c C:\DevTools\gcc_v49_2014q4/arm-none-eabi/lib/thumb\libm.a(lib_a-s_fpclassify.o)
                0x01018b2c                __fpclassifyd
 .text          0x01018b88        0x0 C:\DevTools\gcc_v49_2014q4/arm-none-eabi/lib/thumb\libm.a(lib_a-s_lib_ver.o)
 .text          0x01018b88        0x0 C:\DevTools\gcc_v49_2014q4/arm-none-eabi/lib/thumb\libm.a(lib_a-s_matherr.o)
 .text.matherr  0x01018b88        0x4 C:\DevTools\gcc_v49_2014q4/arm-none-eabi/lib/thumb\libm.a(lib_a-s_matherr.o)
                0x01018b88                matherr
 .text          0x01018b8c      0x114 c:/devtools/gcc_v49_2014q4/bin/../lib/gcc/arm-none-eabi/4.9.3\libgcc.a(_udivsi3.o)
                0x01018b8c                __aeabi_uidiv
                0x01018b8c                __udivsi3
                0x01018c80                __aeabi_uidivmod
 .text          0x01018ca0      0x148 c:/devtools/gcc_v49_2014q4/bin/../lib/gcc/arm-none-eabi/4.9.3\libgcc.a(_divsi3.o)
                0x01018ca0                __divsi3
                0x01018ca0                __aeabi_idiv
                0x01018dc8                __aeabi_idivmod
 .text          0x01018de8        0x4 c:/devtools/gcc_v49_2014q4/bin/../lib/gcc/arm-none-eabi/4.9.3\libgcc.a(_dvmd_tls.o)
                0x01018de8                __aeabi_idiv0
                0x01018de8                __aeabi_ldiv0
 .text          0x01018dec      0x41c c:/devtools/gcc_v49_2014q4/bin/../lib/gcc/arm-none-eabi/4.9.3\libgcc.a(_arm_addsubdf3.o)
                0x01018dec                __aeabi_drsub
                0x01018df4                __aeabi_dsub
                0x01018df4                __subdf3
                0x01018df8                __aeabi_dadd
                0x01018df8                __adddf3
                0x01019108                __floatunsidf
                0x01019108                __aeabi_ui2d
                0x0101912c                __floatsidf
                0x0101912c                __aeabi_i2d
                0x01019154                __aeabi_f2d
                0x01019154                __extendsfdf2
                0x01019194                __floatundidf
                0x01019194                __aeabi_ul2d
                0x010191a8                __floatdidf
                0x010191a8                __aeabi_l2d
 .text          0x01019208      0x49c c:/devtools/gcc_v49_2014q4/bin/../lib/gcc/arm-none-eabi/4.9.3\libgcc.a(_arm_muldivdf3.o)
                0x01019208                __aeabi_dmul
                0x01019208                __muldf3
                0x01019498                __divdf3
                0x01019498                __aeabi_ddiv
 .text          0x010196a4      0x144 c:/devtools/gcc_v49_2014q4/bin/../lib/gcc/arm-none-eabi/4.9.3\libgcc.a(_arm_cmpdf2.o)
                0x010196a4                __gtdf2
                0x010196a4                __gedf2
                0x010196ac                __ltdf2
                0x010196ac                __ledf2
                0x010196b4                __nedf2
                0x010196b4                __eqdf2
                0x010196b4                __cmpdf2
                0x0101973c                __aeabi_cdrcmple
                0x01019758                __aeabi_cdcmpeq
                0x01019758                __aeabi_cdcmple
                0x01019770                __aeabi_dcmpeq
                0x01019788                __aeabi_dcmplt
                0x010197a0                __aeabi_dcmple
                0x010197b8                __aeabi_dcmpge
                0x010197d0                __aeabi_dcmpgt
 .text          0x010197e8       0x54 c:/devtools/gcc_v49_2014q4/bin/../lib/gcc/arm-none-eabi/4.9.3\libgcc.a(_arm_fixunsdfsi.o)
                0x010197e8                __aeabi_d2uiz
                0x010197e8                __fixunsdfsi
 .text          0x0101983c       0x44 c:/devtools/gcc_v49_2014q4/bin/../lib/gcc/arm-none-eabi/4.9.3\libgcc.a(_aeabi_ldivmod.o)
                0x0101983c                __aeabi_ldivmod
 .text          0x01019880       0x3c c:/devtools/gcc_v49_2014q4/bin/../lib/gcc/arm-none-eabi/4.9.3\libgcc.a(_aeabi_uldivmod.o)
                0x01019880                __aeabi_uldivmod
 .text          0x010198bc       0x4c c:/devtools/gcc_v49_2014q4/bin/../lib/gcc/arm-none-eabi/4.9.3\libgcc.a(_fixdfdi.o)
                0x010198bc                __fixdfdi
                0x010198bc                __aeabi_d2lz
 .text          0x01019908       0x6c c:/devtools/gcc_v49_2014q4/bin/../lib/gcc/arm-none-eabi/4.9.3\libgcc.a(_fixunsdfdi.o)
                0x01019908                __fixunsdfdi
                0x01019908                __aeabi_d2ulz
 .text          0x01019974       0x84 c:/devtools/gcc_v49_2014q4/bin/../lib/gcc/arm-none-eabi/4.9.3\libgcc.a(bpabi.o)
                0x01019974                __gnu_ldivmod_helper
                0x010199b8                __gnu_uldivmod_helper
 .text          0x010199f8      0x178 c:/devtools/gcc_v49_2014q4/bin/../lib/gcc/arm-none-eabi/4.9.3\libgcc.a(_divdi3.o)
                0x010199f8                __divdi3
 .text          0x01019b70      0x120 c:/devtools/gcc_v49_2014q4/bin/../lib/gcc/arm-none-eabi/4.9.3\libgcc.a(_udivdi3.o)
                0x01019b70                __udivdi3
 .text          0x01019c90       0x28 c:/devtools/gcc_v49_2014q4/bin/../lib/gcc/arm-none-eabi/4.9.3\libgcc.a(_clzdi2.o)
                0x01019c90                __clzdi2
 .text          0x01019cb8       0x48 c:/devtools/gcc_v49_2014q4/bin/../lib/gcc/arm-none-eabi/4.9.3\libgcc.a(_clzsi2.o)
                0x01019cb8                __clzsi2
 *(.init)
 *(.fini)
 *crtbegin.o(.ctors)
 *crtbegin?.o(.ctors)
 *(EXCLUDE_FILE(*crtend.o *crtend?.o) .ctors)
 *(SORT(.ctors.*))
 *(.ctors)
 *crtbegin.o(.dtors)
 *crtbegin?.o(.dtors)
 *(EXCLUDE_FILE(*crtend.o *crtend?.o) .dtors)
 *(SORT(.dtors.*))
 *(.dtors)
 *(.rodata* .gnu.linkonce.r.*)
 .rodata        0x01019d00       0x10 obj/Adjust.o
 .rodata        0x01019d10      0x25c obj/Constant.o
                0x01019d10                KTransBitmap
                0x01019f50                KTransHeader
                0x01019f68                KSetlPCode2
 .rodata        0x01019f6c       0x24 obj/Coremain.o
                0x01019f7c                KSoftName
                0x01019f88                KExportFunc
 .rodata.str1.1
                0x01019f90       0x9b obj/Coremain.o
 *fill*         0x0101a02b        0x1 
 .rodata        0x0101a02c     0x3388 obj/DemoTest.o
                0x0101a02c                KCtlKeyRoom
                0x0101b2c4                KCtlApplCfg
                0x0101bd38                KKeyRoom
                0x0101c940                KApplCfg
 .rodata        0x0101d3b4       0x56 obj/Ecr.o
                0x0101d3b4                KSettleResp
                0x0101d3b8                KHostTotResp
                0x0101d3be                KHostNameResp
                0x0101d3c4                KLastTrace
                0x0101d3cc                KOfflSaleResp
                0x0101d3ea                KSaleResp
 *fill*         0x0101d40a        0x2 
 .rodata        0x0101d40c      0x2a0 obj/Func.o
 .rodata.str1.1
                0x0101d6ac      0x1a8 obj/Func.o
                                0x1b1 (size before relaxing)
 .rodata        0x0101d854      0x198 obj/Others.o
                0x0101d854                KOtherTransMenu
                0x0101d870                KOthercurrMenu
                0x0101d88c                KOtherTxncurr
                0x0101d90c                KOtherTxnItem
 .rodata.str1.1
                0x0101d9ec       0x50 obj/Others.o
 .rodata        0x0101da3c        0xc obj/ParamTest.o
 .rodata.str1.1
                0x0101da48       0x39 obj/ParamTest.o
 .rodata        0x0101da81       0x62 obj/Print.o
 .rodata.str1.1
                0x0101dae3       0x40 obj/Print.o
                                 0x48 (size before relaxing)
 .rodata.str1.1
                0x0101db23       0x2f obj/Sale.o
 *fill*         0x0101db52        0x2 
 .rodata        0x0101db54       0x78 obj/Settle.o
 .rodata.str1.1
                0x0101dbcc       0x22 obj/Settle.o
                                 0x28 (size before relaxing)
 .rodata        0x0101dbee       0x2c obj/Sysutil.o
 .rodata.str1.1
                0x0101dc1a       0x59 obj/Sysutil.o
                                 0x5b (size before relaxing)
 .rodata.str1.1
                0x0101dc73       0x18 obj/auxcom.o
                                 0x21 (size before relaxing)
 .rodata.str1.1
                0x0101dc8b       0x72 obj/brdrtest.o
 .rodata.str1.1
                0x0101dcfd       0xb2 obj/camtest.o
 .rodata        0x0101ddaf        0xc obj/corevar.o
 .rodata.str1.1
                0x0101ddbb       0x10 obj/corevar.o
 *fill*         0x0101ddcb        0x1 
 .rodata        0x0101ddcc       0x70 obj/ctltrans.o
                0x0101ddfe                wCTLDummyTags
                0x0101de0a                wCTLOnlineTags
 .rodata.str1.1
                0x0101de3c       0xa8 obj/ctltrans.o
                                 0xb4 (size before relaxing)
 *fill*         0x0101dee4        0x4 
 .rodata        0x0101dee8      0x400 obj/debugstis.o
 .rodata        0x0101e2e8       0xd4 obj/emvtrans.o
                0x0101e2f8                wVMOnlineTags
                0x0101e373                KPinMsg
 .rodata.str1.1
                0x0101e3bc       0x20 obj/emvtrans.o
                                 0x3b (size before relaxing)
 .rodata.str1.1
                0x0101e3dc       0x22 obj/hardware.o
 .rodata        0x0101e3fe        0x7 obj/hostmsg.o
 .rodata.str1.1
                0x0101e405        0xc obj/hostmsg.o
                                 0x11 (size before relaxing)
 *fill*         0x0101e411        0x1 
 .rodata        0x0101e412       0x82 obj/iface.o
                0x0101e428                KItfSettleResp
                0x0101e430                KItfHostTotResp
                0x0101e438                KItfHostNameResp
                0x0101e440                KItfLastTrace
                0x0101e44a                KItfOfflSaleResp
                0x0101e46e                KItfSaleResp
 .rodata.str1.1
                0x0101e494       0x49 obj/iface.o
                                 0x4c (size before relaxing)
 *fill*         0x0101e4dd        0x1 
 .rodata        0x0101e4de      0x200 obj/iface_util.o
 *fill*         0x0101e6de        0x2 
 .rodata        0x0101e6e0       0x10 obj/input.o
 .rodata.str1.1
                0x0101e6f0       0x59 obj/input.o
                                 0x5c (size before relaxing)
 .rodata        0x0101e749       0x2d obj/keytrans.o
 .rodata.str1.1
                0x0101e776      0x23d obj/keytrans.o
 *fill*         0x0101e9b3        0x1 
 .rodata        0x0101e9b4      0x914 obj/lptutil.o
 .rodata.str1.1
                0x00000000        0xc obj/lptutil.o
 .rodata        0x0101f2c8       0x18 obj/main.o
                0x0101f2c8                KAppHdr
 .rodata.str1.1
                0x0101f2e0       0x26 obj/main.o
 .rodata.str1.1
                0x0101f306       0x3d obj/menu.o
 *fill*         0x0101f343        0x1 
 .rodata        0x0101f344      0x670 obj/message.o
                0x0101f7d4                KRspText
 .rodata.str1.1
                0x0101f9b4      0xfa2 obj/message.o
 *fill*         0x01020956        0x2 
 .rodata        0x01020958       0x24 obj/network.o
 .rodata.str1.1
                0x0102097c      0x29d obj/network.o
                                0x2ae (size before relaxing)
 .rodata.str1.1
                0x01020c19      0x127 obj/toggle.o
                                0x137 (size before relaxing)
 .rodata        0x01020d40       0x50 obj/tpadtest.o
                0x01020d40                KPadObj
                0x01020d70                KPadConf
 .rodata.str1.1
                0x01020d90       0xb9 obj/tpadtest.o
 *fill*         0x01020e49        0x3 
 .rodata        0x01020e4c      0x104 obj/tranutil.o
 .rodata.str1.1
                0x01020f50      0xc14 obj/tranutil.o
                                0xca3 (size before relaxing)
 .rodata        0x01021b64       0x30 obj/wavecom.o
 .rodata.str1.1
                0x01021b94      0x271 obj/wavecom.o
                                0x286 (size before relaxing)
 .rodata.str1.1
                0x01021e05       0x20 obj/cstartup.o
 .rodata.str1.1
                0x01021e25        0x7 obj/libc.o
 .rodata        0x01021e2c      0x200 ../LibA5T1000/gcc\libsptutil.a(crcccitt.o)
 .rodata.str1.1
                0x0102202c        0x4 ../LibA5T1000/gcc\libspglib.a(GIFLib.o)
 .rodata.str1.4
                0x01022030        0x2 C:\DevTools\gcc_v49_2014q4/arm-none-eabi/lib/thumb\libc.a(lib_a-puts.o)
                                  0x4 (size before relaxing)
 *fill*         0x01022032        0x2 
 .rodata.str1.4
                0x01022034        0x2 C:\DevTools\gcc_v49_2014q4/arm-none-eabi/lib/thumb\libc.a(lib_a-impure.o)
                                  0x4 (size before relaxing)
 *fill*         0x01022036        0x2 
 .rodata._global_impure_ptr
                0x01022038        0x4 C:\DevTools\gcc_v49_2014q4/arm-none-eabi/lib/thumb\libc.a(lib_a-impure.o)
                0x01022038                _global_impure_ptr
 .rodata.str1.4
                0x0102203c        0x8 C:\DevTools\gcc_v49_2014q4/arm-none-eabi/lib/thumb\libm.a(lib_a-w_sqrt.o)
 *(.eh_frame*)

.vfp11_veneer   0x01022044        0x0
 .vfp11_veneer  0x00000000        0x0 linker stubs

.v4_bx          0x01022044        0x0
 .v4_bx         0x00000000        0x0 linker stubs

.iplt           0x01022044        0x0
 .iplt          0x00000000        0x0 obj/Adjust.o

.ARM.extab
 *(.ARM.extab* .gnu.linkonce.armextab.*)
                0x01022044                __exidx_start = .

.ARM.exidx      0x01022044        0x8
 *(.ARM.exidx* .gnu.linkonce.armexidx.*)
 .ARM.exidx     0x01022044        0x8 c:/devtools/gcc_v49_2014q4/bin/../lib/gcc/arm-none-eabi/4.9.3\libgcc.a(_divdi3.o)
 .ARM.exidx     0x0102204c        0x0 c:/devtools/gcc_v49_2014q4/bin/../lib/gcc/arm-none-eabi/4.9.3\libgcc.a(_udivdi3.o)
                                  0x8 (size before relaxing)
                0x0102204c                __exidx_end = .

.text_kek       0x0102204c        0x8
 *(sect_kek)
 sect_kek       0x0102204c        0x8 obj/cstartup.o
                0x0102204c                KKek
                0x01022054                _end_of_app = ALIGN (0x4)

.rel.dyn        0x01022054        0x0
 .rel.iplt      0x00000000        0x0 obj/Adjust.o
                0x01800000                . = _start_of_data

.data           0x01800000     0xca30 load address 0x01022054
 *(.data*)
 .data          0x01800000        0x0 obj/Adjust.o
 .data          0x01800000        0x0 obj/Auth.o
 .data          0x01800000        0x0 obj/Chkoptn.o
 .data          0x01800000        0x0 obj/Constant.o
 .data          0x01800000     0xbf8f obj/Coremain.o
                0x01800000                landingzone_logo
                0x0180bb88                landingzone_logo_bw
                0x0180bf8c                bytes
 .data          0x0180bf8f        0x0 obj/DemoTest.o
 *fill*         0x0180bf8f        0x1 
 .data          0x0180bf90       0x28 obj/Ecr.o
                0x0180bf90                KEcrRespTbl
 .data          0x0180bfb8        0x0 obj/Func.o
 .data          0x0180bfb8        0x0 obj/Offline.o
 .data          0x0180bfb8        0x0 obj/Others.o
 .data          0x0180bfb8        0x4 obj/ParamTest.o
 .data          0x0180bfbc        0x9 obj/Print.o
 .data          0x0180bfc5        0x0 obj/Reversal.o
 .data          0x0180bfc5        0x0 obj/Sale.o
 .data          0x0180bfc5        0x0 obj/SaleOffl.o
 .data          0x0180bfc5        0x0 obj/Settle.o
 .data          0x0180bfc5        0x0 obj/Sysutil.o
 .data          0x0180bfc5        0x0 obj/TLVUtil.o
 .data          0x0180bfc5        0x0 obj/TestCfg.o
 .data          0x0180bfc5        0x0 obj/Void.o
 *fill*         0x0180bfc5        0x3 
 .data          0x0180bfc8        0x4 obj/auxcom.o
 .data          0x0180bfcc        0x0 obj/brdrtest.o
 .data          0x0180bfcc        0x0 obj/camtest.o
 .data          0x0180bfcc        0x4 obj/corevar.o
                0x0180bfcc                gAppDatHdl
 .data          0x0180bfd0        0x0 obj/ctltrans.o
 .data          0x0180bfd0        0x0 obj/debugstis.o
 .data          0x0180bfd0        0x0 obj/emvl2cfg.o
 .data          0x0180bfd0        0x0 obj/emvtrans.o
 .data          0x0180bfd0        0x0 obj/hardware.o
 .data          0x0180bfd0        0x0 obj/hostmsg.o
 .data          0x0180bfd0       0x28 obj/iface.o
                0x0180bfd0                KItfRespTbl
 .data          0x0180bff8        0x0 obj/iface_util.o
 .data          0x0180bff8       0x18 obj/input.o
                0x0180bff8                gCurInfo
 .data          0x0180c010        0x0 obj/keytrans.o
 .data          0x0180c010        0x4 obj/lptutil.o
 .data          0x0180c014        0x0 obj/main.o
 .data          0x0180c014        0x0 obj/menu.o
 .data          0x0180c014        0x0 obj/message.o
 .data          0x0180c014       0xc0 obj/network.o
                0x0180c014                gGprsCfg2
                0x0180c074                gGprsCfg1
 .data          0x0180c0d4        0x0 obj/record.o
 .data          0x0180c0d4        0x0 obj/refund.o
 .data          0x0180c0d4        0x0 obj/testrans.o
 .data          0x0180c0d4      0x100 obj/toggle.o
                0x0180c0d4                KMdmSpeed
                0x0180c100                KCcittMode
                0x0180c10c                KProtoMode
                0x0180c118                KPPPport
                0x0180c130                KAuxDataLen
                0x0180c13c                KAuxCommMode
                0x0180c15c                KAuxPort
                0x0180c16c                KAuxSpeed
                0x0180c194                KEnable
                0x0180c1a0                KOnOff
                0x0180c1ac                KDialMode
                0x0180c1b8                KTrueFalse
                0x0180c1c4                KInitMode
 .data          0x0180c1d4       0x18 obj/tpadtest.o
                0x0180c1d8                KTPadTest
                0x0180c1dc                KSPadConf
                0x0180c1e0                KSPadTest
                0x0180c1e4                gOld_pt
 .data          0x0180c1ec        0x0 obj/tranutil.o
 .data          0x0180c1ec        0x0 obj/wavecom.o
 .data          0x0180c1ec        0x0 obj/cstartup.o
 .data          0x0180c1ec        0x0 obj/expect_send.o
 .data          0x0180c1ec        0x0 obj/libc.o
 .data          0x0180c1ec        0x0 ../LibA5T1000/gcc\libsyscall.a(app_call.o)
 .data          0x0180c1ec        0x0 ../LibA5T1000/gcc\libsyscall.a(sys_call.o)
 .data          0x0180c1ec        0x0 ../LibA5T1000/gcc\libbasecall.a(base_call.o)
 .data          0x0180c1ec        0x0 ../LibA5T1000/gcc\libsptutil.a(bcd2bin.o)
 .data          0x0180c1ec        0x0 ../LibA5T1000/gcc\libsptutil.a(bcd2val.o)
 .data          0x0180c1ec        0x0 ../LibA5T1000/gcc\libsptutil.a(bcdadd.o)
 .data          0x0180c1ec        0x0 ../LibA5T1000/gcc\libsptutil.a(bcdinc.o)
 .data          0x0180c1ec        0x0 ../LibA5T1000/gcc\libsptutil.a(bcdsub.o)
 .data          0x0180c1ec        0x0 ../LibA5T1000/gcc\libsptutil.a(bin2bcd.o)
 .data          0x0180c1ec        0x0 ../LibA5T1000/gcc\libsptutil.a(bin2dec.o)
 .data          0x0180c1ec        0x0 ../LibA5T1000/gcc\libsptutil.a(bindec_d.o)
 .data          0x0180c1ec        0x0 ../LibA5T1000/gcc\libsptutil.a(chkdok.o)
 .data          0x0180c1ec        0x0 ../LibA5T1000/gcc\libsptutil.a(compress.o)
 .data          0x0180c1ec        0x0 ../LibA5T1000/gcc\libsptutil.a(crcccitt.o)
 .data          0x0180c1ec        0x0 ../LibA5T1000/gcc\libsptutil.a(dbin2asc.o)
 .data          0x0180c1ec        0x0 ../LibA5T1000/gcc\libsptutil.a(dbin2bcd.o)
 .data          0x0180c1ec        0x0 ../LibA5T1000/gcc\libsptutil.a(decbin4b.o)
 .data          0x0180c1ec        0x0 ../LibA5T1000/gcc\libsptutil.a(decbin8b.o)
 .data          0x0180c1ec        0x0 ../LibA5T1000/gcc\libsptutil.a(fndb.o)
 .data          0x0180c1ec        0x0 ../LibA5T1000/gcc\libsptutil.a(get_byte.o)
 .data          0x0180c1ec        0x0 ../LibA5T1000/gcc\libsptutil.a(get_dist.o)
 .data          0x0180c1ec        0x0 ../LibA5T1000/gcc\libsptutil.a(get_mem.o)
 .data          0x0180c1ec        0x0 ../LibA5T1000/gcc\libsptutil.a(get_pptr.o)
 .data          0x0180c1ec        0x0 ../LibA5T1000/gcc\libsptutil.a(hex_val.o)
 .data          0x0180c1ec        0x0 ../LibA5T1000/gcc\libsptutil.a(inc_pptr.o)
 .data          0x0180c1ec        0x0 ../LibA5T1000/gcc\libsptutil.a(isbdigit.o)
 .data          0x0180c1ec        0x0 ../LibA5T1000/gcc\libsptutil.a(pack_b.o)
 .data          0x0180c1ec        0x0 ../LibA5T1000/gcc\libsptutil.a(pack_lf.o)
 .data          0x0180c1ec        0x0 ../LibA5T1000/gcc\libsptutil.a(pack_lfs.o)
 .data          0x0180c1ec        0x0 ../LibA5T1000/gcc\libsptutil.a(pack_mem.o)
 .data          0x0180c1ec        0x0 ../LibA5T1000/gcc\libsptutil.a(pack_nb.o)
 .data          0x0180c1ec        0x0 ../LibA5T1000/gcc\libsptutil.a(pack_spc.o)
 .data          0x0180c1ec        0x0 ../LibA5T1000/gcc\libsptutil.a(pack_str.o)
 .data          0x0180c1ec        0x0 ../LibA5T1000/gcc\libsptutil.a(peek_b.o)
 .data          0x0180c1ec        0x0 ../LibA5T1000/gcc\libsptutil.a(set_pptr.o)
 .data          0x0180c1ec        0x0 ../LibA5T1000/gcc\libsptutil.a(skpb.o)
 .data          0x0180c1ec        0x0 ../LibA5T1000/gcc\libsptutil.a(split.o)
 .data          0x0180c1ec        0x0 ../LibA5T1000/gcc\libsptutil.a(split_d.o)
 .data          0x0180c1ec        0x0 ../LibA5T1000/gcc\libsptutil.a(val2bcd.o)
 .data          0x0180c1ec        0x0 ../LibA5T1000/gcc\libsptutil.a(hexdigit.o)
 .data          0x0180c1ec        0x0 ../LibA5T1000/gcc\libspglib.a(GIFLib.o)
 .data          0x0180c1ec        0x4 ../LibA5T1000/gcc\libspglib.a(GLib.o)
 .data          0x0180c1f0        0x0 C:\DevTools\gcc_v49_2014q4/arm-none-eabi/lib/thumb\libc.a(lib_a-memcmp.o)
 .data          0x0180c1f0        0x0 C:\DevTools\gcc_v49_2014q4/arm-none-eabi/lib/thumb\libc.a(lib_a-memcpy.o)
 .data          0x0180c1f0        0x0 C:\DevTools\gcc_v49_2014q4/arm-none-eabi/lib/thumb\libc.a(lib_a-memmove.o)
 .data          0x0180c1f0        0x0 C:\DevTools\gcc_v49_2014q4/arm-none-eabi/lib/thumb\libc.a(lib_a-memset.o)
 .data          0x0180c1f0        0x0 C:\DevTools\gcc_v49_2014q4/arm-none-eabi/lib/thumb\libc.a(lib_a-puts.o)
 .data          0x0180c1f0        0x0 C:\DevTools\gcc_v49_2014q4/arm-none-eabi/lib/thumb\libc.a(lib_a-strcat.o)
 .data          0x0180c1f0        0x0 C:\DevTools\gcc_v49_2014q4/arm-none-eabi/lib/thumb\libc.a(lib_a-strchr.o)
 .data          0x0180c1f0        0x0 C:\DevTools\gcc_v49_2014q4/arm-none-eabi/lib/thumb\libc.a(lib_a-strcpy.o)
 .data          0x0180c1f0        0x0 C:\DevTools\gcc_v49_2014q4/arm-none-eabi/lib/thumb\libc.a(lib_a-strlen.o)
 .data          0x0180c1f0        0x0 C:\DevTools\gcc_v49_2014q4/arm-none-eabi/lib/thumb\libc.a(lib_a-strstr.o)
 .data          0x0180c1f0        0x0 C:\DevTools\gcc_v49_2014q4/arm-none-eabi/lib/thumb\libc.a(lib_a-fvwrite.o)
 .data          0x0180c1f0        0x0 C:\DevTools\gcc_v49_2014q4/arm-none-eabi/lib/thumb\libc.a(lib_a-impure.o)
 .data.impure_data
                0x0180c1f0      0x428 C:\DevTools\gcc_v49_2014q4/arm-none-eabi/lib/thumb\libc.a(lib_a-impure.o)
 .data._impure_ptr
                0x0180c618        0x4 C:\DevTools\gcc_v49_2014q4/arm-none-eabi/lib/thumb\libc.a(lib_a-impure.o)
                0x0180c618                _impure_ptr
 .data          0x0180c61c        0x0 C:\DevTools\gcc_v49_2014q4/arm-none-eabi/lib/thumb\libc.a(lib_a-mallocr.o)
 .data.__malloc_av_
                0x0180c61c      0x408 C:\DevTools\gcc_v49_2014q4/arm-none-eabi/lib/thumb\libc.a(lib_a-mallocr.o)
                0x0180c61c                __malloc_av_
 .data.__malloc_trim_threshold
                0x0180ca24        0x4 C:\DevTools\gcc_v49_2014q4/arm-none-eabi/lib/thumb\libc.a(lib_a-mallocr.o)
                0x0180ca24                __malloc_trim_threshold
 .data.__malloc_sbrk_base
                0x0180ca28        0x4 C:\DevTools\gcc_v49_2014q4/arm-none-eabi/lib/thumb\libc.a(lib_a-mallocr.o)
                0x0180ca28                __malloc_sbrk_base
 .data          0x0180ca2c        0x0 C:\DevTools\gcc_v49_2014q4/arm-none-eabi/lib/thumb\libc.a(lib_a-memchr.o)
 .data          0x0180ca2c        0x0 C:\DevTools\gcc_v49_2014q4/arm-none-eabi/lib/thumb\libc.a(lib_a-mlock.o)
 .data          0x0180ca2c        0x0 C:\DevTools\gcc_v49_2014q4/arm-none-eabi/lib/thumb\libc.a(lib_a-reallocr.o)
 .data          0x0180ca2c        0x0 C:\DevTools\gcc_v49_2014q4/arm-none-eabi/lib/thumb\libc.a(lib_a-wsetup.o)
 .data          0x0180ca2c        0x0 C:\DevTools\gcc_v49_2014q4/arm-none-eabi/lib/thumb\libc.a(lib_a-fflush.o)
 .data          0x0180ca2c        0x0 C:\DevTools\gcc_v49_2014q4/arm-none-eabi/lib/thumb\libc.a(lib_a-findfp.o)
 .data          0x0180ca2c        0x0 C:\DevTools\gcc_v49_2014q4/arm-none-eabi/lib/thumb\libc.a(lib_a-freer.o)
 .data          0x0180ca2c        0x0 C:\DevTools\gcc_v49_2014q4/arm-none-eabi/lib/thumb\libc.a(lib_a-fwalk.o)
 .data          0x0180ca2c        0x0 C:\DevTools\gcc_v49_2014q4/arm-none-eabi/lib/thumb\libc.a(lib_a-makebuf.o)
 .data          0x0180ca2c        0x0 C:\DevTools\gcc_v49_2014q4/arm-none-eabi/lib/thumb\libc.a(lib_a-stdio.o)
 .data          0x0180ca2c        0x0 C:\DevTools\gcc_v49_2014q4/arm-none-eabi/lib/thumb\libc.a(lib_a-fclose.o)
 .data          0x0180ca2c        0x0 C:\DevTools\gcc_v49_2014q4/arm-none-eabi/lib/thumb\libc.a(lib_a-isattyr.o)
 .data          0x0180ca2c        0x0 C:\DevTools\gcc_v49_2014q4/arm-none-eabi/lib/thumb\libc.a(lib_a-reent.o)
 .data          0x0180ca2c        0x0 C:\DevTools\gcc_v49_2014q4/arm-none-eabi/lib/thumb\libnosys.a(isatty.o)
 .data          0x0180ca2c        0x0 C:\DevTools\gcc_v49_2014q4/arm-none-eabi/lib/thumb\libm.a(lib_a-w_sqrt.o)
 .data          0x0180ca2c        0x0 C:\DevTools\gcc_v49_2014q4/arm-none-eabi/lib/thumb\libm.a(lib_a-e_sqrt.o)
 .data          0x0180ca2c        0x0 C:\DevTools\gcc_v49_2014q4/arm-none-eabi/lib/thumb\libm.a(lib_a-s_fpclassify.o)
 .data          0x0180ca2c        0x0 C:\DevTools\gcc_v49_2014q4/arm-none-eabi/lib/thumb\libm.a(lib_a-s_lib_ver.o)
 .data.__fdlib_version
                0x0180ca2c        0x1 C:\DevTools\gcc_v49_2014q4/arm-none-eabi/lib/thumb\libm.a(lib_a-s_lib_ver.o)
                0x0180ca2c                __fdlib_version
 .data          0x0180ca2d        0x0 C:\DevTools\gcc_v49_2014q4/arm-none-eabi/lib/thumb\libm.a(lib_a-s_matherr.o)
 .data          0x0180ca2d        0x0 c:/devtools/gcc_v49_2014q4/bin/../lib/gcc/arm-none-eabi/4.9.3\libgcc.a(_udivsi3.o)
 .data          0x0180ca2d        0x0 c:/devtools/gcc_v49_2014q4/bin/../lib/gcc/arm-none-eabi/4.9.3\libgcc.a(_divsi3.o)
 .data          0x0180ca2d        0x0 c:/devtools/gcc_v49_2014q4/bin/../lib/gcc/arm-none-eabi/4.9.3\libgcc.a(_dvmd_tls.o)
 .data          0x0180ca2d        0x0 c:/devtools/gcc_v49_2014q4/bin/../lib/gcc/arm-none-eabi/4.9.3\libgcc.a(_arm_addsubdf3.o)
 .data          0x0180ca2d        0x0 c:/devtools/gcc_v49_2014q4/bin/../lib/gcc/arm-none-eabi/4.9.3\libgcc.a(_arm_muldivdf3.o)
 .data          0x0180ca2d        0x0 c:/devtools/gcc_v49_2014q4/bin/../lib/gcc/arm-none-eabi/4.9.3\libgcc.a(_arm_cmpdf2.o)
 .data          0x0180ca2d        0x0 c:/devtools/gcc_v49_2014q4/bin/../lib/gcc/arm-none-eabi/4.9.3\libgcc.a(_arm_fixunsdfsi.o)
 .data          0x0180ca2d        0x0 c:/devtools/gcc_v49_2014q4/bin/../lib/gcc/arm-none-eabi/4.9.3\libgcc.a(_aeabi_ldivmod.o)
 .data          0x0180ca2d        0x0 c:/devtools/gcc_v49_2014q4/bin/../lib/gcc/arm-none-eabi/4.9.3\libgcc.a(_aeabi_uldivmod.o)
 .data          0x0180ca2d        0x0 c:/devtools/gcc_v49_2014q4/bin/../lib/gcc/arm-none-eabi/4.9.3\libgcc.a(_fixdfdi.o)
 .data          0x0180ca2d        0x0 c:/devtools/gcc_v49_2014q4/bin/../lib/gcc/arm-none-eabi/4.9.3\libgcc.a(_fixunsdfdi.o)
 .data          0x0180ca2d        0x0 c:/devtools/gcc_v49_2014q4/bin/../lib/gcc/arm-none-eabi/4.9.3\libgcc.a(bpabi.o)
 .data          0x0180ca2d        0x0 c:/devtools/gcc_v49_2014q4/bin/../lib/gcc/arm-none-eabi/4.9.3\libgcc.a(_divdi3.o)
 .data          0x0180ca2d        0x0 c:/devtools/gcc_v49_2014q4/bin/../lib/gcc/arm-none-eabi/4.9.3\libgcc.a(_udivdi3.o)
 .data          0x0180ca2d        0x0 c:/devtools/gcc_v49_2014q4/bin/../lib/gcc/arm-none-eabi/4.9.3\libgcc.a(_clzdi2.o)
 .data          0x0180ca2d        0x0 c:/devtools/gcc_v49_2014q4/bin/../lib/gcc/arm-none-eabi/4.9.3\libgcc.a(_clzsi2.o)
                0x0180ca30                . = ALIGN (0x4)
 *fill*         0x0180ca2d        0x3 
                0x0180ca30                __preinit_array_start = .
 *(.preinit_array)
                0x0180ca30                __preinit_array_end = .
                0x0180ca30                . = ALIGN (0x4)
                0x0180ca30                __init_array_start = .
 *(SORT(.init_array.*))
 *(.init_array)
                0x0180ca30                __init_array_end = .
                0x0180ca30                . = ALIGN (0x4)
                0x0180ca30                __fini_array_start = .
 *(.fini_array)
 *(SORT(.fini_array.*))
                0x0180ca30                __fini_array_end = .
                0x0180ca30                _end_of_data = ALIGN (0x4)

.igot.plt       0x0180ca30        0x0 load address 0x0102ea84
 .igot.plt      0x00000000        0x0 obj/Adjust.o
                0x0180ca30                . = _end_of_data
                0x0180ca30                _start_of_bss = .

.bss            0x0180ca30     0x8868 load address 0x0102ea88
 *(.bss*)
 .bss           0x0180ca30        0xc obj/Coremain.o
                0x0180ca31                gDispLogo
                0x0180ca34                fuctiongo
                0x0180ca38                advc
 .bss           0x0180ca3c        0xc obj/ParamTest.o
 .bss           0x0180ca48        0x8 obj/TestCfg.o
 .bss           0x0180ca50        0x1 obj/camtest.o
 *fill*         0x0180ca51        0x3 
 .bss           0x0180ca54      0x110 obj/ctltrans.o
 .bss           0x0180cb64        0x5 obj/emvtrans.o
 *fill*         0x0180cb69        0x3 
 .bss           0x0180cb6c        0xc obj/hardware.o
                0x0180cb70                gIdleCnt
 .bss           0x0180cb78     0x1298 obj/iface.o
                0x0180cb78                gIfaceData
 .bss           0x0180de10        0x3 obj/keytrans.o
 .bss           0x0180de13        0x1 obj/lptutil.o
 .bss           0x0180de14        0x1 obj/network.o
                0x0180de14                gSimSlot
 *fill*         0x0180de15        0x3 
 .bss           0x0180de18       0x18 obj/tpadtest.o
 .bss           0x0180de30      0xbba obj/wavecom.o
 *fill*         0x0180e9ea        0x2 
 .bss           0x0180e9ec        0x4 obj/libc.o
 .bss           0x0180e9f0      0x1b8 ../LibA5T1000/gcc\libspglib.a(GIFLib.o)
 .bss           0x0180eba8       0x18 ../LibA5T1000/gcc\libspglib.a(GLib.o)
 .bss.__malloc_max_total_mem
                0x0180ebc0        0x4 C:\DevTools\gcc_v49_2014q4/arm-none-eabi/lib/thumb\libc.a(lib_a-mallocr.o)
                0x0180ebc0                __malloc_max_total_mem
 .bss.__malloc_max_sbrked_mem
                0x0180ebc4        0x4 C:\DevTools\gcc_v49_2014q4/arm-none-eabi/lib/thumb\libc.a(lib_a-mallocr.o)
                0x0180ebc4                __malloc_max_sbrked_mem
 .bss.__malloc_top_pad
                0x0180ebc8        0x4 C:\DevTools\gcc_v49_2014q4/arm-none-eabi/lib/thumb\libc.a(lib_a-mallocr.o)
                0x0180ebc8                __malloc_top_pad
 .bss.__malloc_current_mallinfo
                0x0180ebcc       0x28 C:\DevTools\gcc_v49_2014q4/arm-none-eabi/lib/thumb\libc.a(lib_a-mallocr.o)
                0x0180ebcc                __malloc_current_mallinfo
 *(COMMON)
 COMMON         0x0180ebf4        0x1 obj/Coremain.o
                0x0180ebf4                battery
 *fill*         0x0180ebf5        0x3 
 COMMON         0x0180ebf8        0x4 obj/DemoTest.o
                0x0180ebf8                gEMVTestCfg
 COMMON         0x0180ebfc      0x1b4 obj/corevar.o
                0x0180ebfc                gAppDat
                0x0180edac                gGDS
 COMMON         0x0180edb0        0x1 obj/emvtrans.o
                0x0180edb0                gIsMaestro
 *fill*         0x0180edb1        0x3 
 COMMON         0x0180edb4       0x3c obj/hardware.o
                0x0180edb4                gAux2Handle
                0x0180edb8                gLptHandle
                0x0180edbc                gGprsHandle
                0x0180edc0                gTimerHdl
                0x0180eddc                gCdc1Handle
                0x0180ede0                gPppHandle
                0x0180ede4                gIccHandle
                0x0180ede8                gMsrHandle
                0x0180edec                gAux1Handle
 COMMON         0x0180edf0       0x80 obj/network.o
                0x0180edf0                gOptrMain
                0x0180ee10                gOptrBkup
                0x0180ee30                gOptrName1
                0x0180ee50                gOptrName2
 COMMON         0x0180ee70      0x748 obj/tranutil.o
                0x0180ee70                gGTS
 COMMON         0x0180f5b8     0x5ccc obj/wavecom.o
                0x0180f5b8                gGSMData
 COMMON         0x01815284        0xc ../LibA5T1000/gcc\libsptutil.a(set_pptr.o)
                0x01815284                init_pack_ptr
                0x01815288                pack_ptr
                0x0181528c                pack_ptr_end
 COMMON         0x01815290        0x1 ../LibA5T1000/gcc\libspglib.a(GLib.o)
                0x01815290                __errno
 *fill*         0x01815291        0x3 
 COMMON         0x01815294        0x4 C:\DevTools\gcc_v49_2014q4/arm-none-eabi/lib/thumb\libc.a(lib_a-reent.o)
                0x01815294                errno
                0x01815298                _end = ALIGN (0x4)
                0x01819298                _end_of_bss = (_end + 0x4000)
                0x0102ea84                _end_of_flash = (_end_of_app + SIZEOF (.data))
OUTPUT(app elf32-littlearm)

.debug_info     0x00000000    0x85db1
 .debug_info    0x00000000     0x36a9 obj/Adjust.o
 .debug_info    0x000036a9     0x1c94 obj/Auth.o
 .debug_info    0x0000533d     0x1603 obj/Chkoptn.o
 .debug_info    0x00006940      0x5e3 obj/Constant.o
 .debug_info    0x00006f23     0x4574 obj/Coremain.o
 .debug_info    0x0000b497      0x616 obj/DemoTest.o
 .debug_info    0x0000baad     0x2166 obj/Ecr.o
 .debug_info    0x0000dc13     0x6c62 obj/Func.o
 .debug_info    0x00014875     0x1aa2 obj/Offline.o
 .debug_info    0x00016317     0x2ee5 obj/Others.o
 .debug_info    0x000191fc     0x26e8 obj/ParamTest.o
 .debug_info    0x0001b8e4     0x3cd9 obj/Print.o
 .debug_info    0x0001f5bd     0x1cf1 obj/Reversal.o
 .debug_info    0x000212ae     0x320d obj/Sale.o
 .debug_info    0x000244bb     0x1875 obj/SaleOffl.o
 .debug_info    0x00025d30     0x3ecd obj/Settle.o
 .debug_info    0x00029bfd     0x2944 obj/Sysutil.o
 .debug_info    0x0002c541      0x58e obj/TLVUtil.o
 .debug_info    0x0002cacf     0x2dd4 obj/TestCfg.o
 .debug_info    0x0002f8a3     0x30f4 obj/Void.o
 .debug_info    0x00032997     0x115c obj/auxcom.o
 .debug_info    0x00033af3     0x1bf9 obj/brdrtest.o
 .debug_info    0x000356ec     0x403f obj/camtest.o
 .debug_info    0x0003972b     0x2fa6 obj/corevar.o
 .debug_info    0x0003c6d1     0x5f78 obj/ctltrans.o
 .debug_info    0x00042649      0xdea obj/debugstis.o
 .debug_info    0x00043433       0x72 obj/emvl2cfg.o
 .debug_info    0x000434a5     0x4762 obj/emvtrans.o
 .debug_info    0x00047c07     0x1de8 obj/hardware.o
 .debug_info    0x000499ef     0x28fb obj/hostmsg.o
 .debug_info    0x0004c2ea     0x4e6a obj/iface.o
 .debug_info    0x00051154     0x11d9 obj/iface_util.o
 .debug_info    0x0005232d     0x5184 obj/input.o
 .debug_info    0x000574b1     0x3cf2 obj/keytrans.o
 .debug_info    0x0005b1a3     0x223f obj/lptutil.o
 .debug_info    0x0005d3e2     0x10dc obj/main.o
 .debug_info    0x0005e4be     0x1cb5 obj/menu.o
 .debug_info    0x00060173      0x50a obj/message.o
 .debug_info    0x0006067d     0x6a6d obj/network.o
 .debug_info    0x000670ea     0x1f0a obj/record.o
 .debug_info    0x00068ff4     0x1b7c obj/refund.o
 .debug_info    0x0006ab70     0x1aa7 obj/testrans.o
 .debug_info    0x0006c617     0x1464 obj/toggle.o
 .debug_info    0x0006da7b     0x2426 obj/tpadtest.o
 .debug_info    0x0006fea1     0x8895 obj/tranutil.o
 .debug_info    0x00078736     0x3fe5 obj/wavecom.o
 .debug_info    0x0007c71b     0x1009 obj/cstartup.o
 .debug_info    0x0007d724     0x1132 obj/expect_send.o
 .debug_info    0x0007e856     0x1fef obj/libc.o
 .debug_info    0x00080845      0x101 ../LibA5T1000/gcc\libsyscall.a(app_call.o)
 .debug_info    0x00080946      0x2c6 ../LibA5T1000/gcc\libsyscall.a(sys_call.o)
 .debug_info    0x00080c0c      0x2c6 ../LibA5T1000/gcc\libbasecall.a(base_call.o)
 .debug_info    0x00080ed2      0x134 ../LibA5T1000/gcc\libsptutil.a(bcd2bin.o)
 .debug_info    0x00081006       0x79 ../LibA5T1000/gcc\libsptutil.a(bcd2val.o)
 .debug_info    0x0008107f      0x109 ../LibA5T1000/gcc\libsptutil.a(bcdadd.o)
 .debug_info    0x00081188       0xed ../LibA5T1000/gcc\libsptutil.a(bcdinc.o)
 .debug_info    0x00081275      0x109 ../LibA5T1000/gcc\libsptutil.a(bcdsub.o)
 .debug_info    0x0008137e      0x100 ../LibA5T1000/gcc\libsptutil.a(bin2bcd.o)
 .debug_info    0x0008147e       0xa4 ../LibA5T1000/gcc\libsptutil.a(bin2dec.o)
 .debug_info    0x00081522      0x11f ../LibA5T1000/gcc\libsptutil.a(bindec_d.o)
 .debug_info    0x00081641       0xdc ../LibA5T1000/gcc\libsptutil.a(chkdok.o)
 .debug_info    0x0008171d       0xcb ../LibA5T1000/gcc\libsptutil.a(compress.o)
 .debug_info    0x000817e8      0x14b ../LibA5T1000/gcc\libsptutil.a(crcccitt.o)
 .debug_info    0x00081933      0x125 ../LibA5T1000/gcc\libsptutil.a(dbin2asc.o)
 .debug_info    0x00081a58      0x117 ../LibA5T1000/gcc\libsptutil.a(dbin2bcd.o)
 .debug_info    0x00081b6f       0xb5 ../LibA5T1000/gcc\libsptutil.a(decbin4b.o)
 .debug_info    0x00081c24       0xe9 ../LibA5T1000/gcc\libsptutil.a(decbin8b.o)
 .debug_info    0x00081d0d       0xb5 ../LibA5T1000/gcc\libsptutil.a(fndb.o)
 .debug_info    0x00081dc2      0x15a ../LibA5T1000/gcc\libsptutil.a(get_byte.o)
 .debug_info    0x00081f1c       0x90 ../LibA5T1000/gcc\libsptutil.a(get_dist.o)
 .debug_info    0x00081fac      0x13e ../LibA5T1000/gcc\libsptutil.a(get_mem.o)
 .debug_info    0x000820ea       0x7a ../LibA5T1000/gcc\libsptutil.a(get_pptr.o)
 .debug_info    0x00082164       0x84 ../LibA5T1000/gcc\libsptutil.a(hex_val.o)
 .debug_info    0x000821e8       0xba ../LibA5T1000/gcc\libsptutil.a(inc_pptr.o)
 .debug_info    0x000822a2       0xb3 ../LibA5T1000/gcc\libsptutil.a(isbdigit.o)
 .debug_info    0x00082355      0x199 ../LibA5T1000/gcc\libsptutil.a(pack_b.o)
 .debug_info    0x000824ee       0x8a ../LibA5T1000/gcc\libsptutil.a(pack_lf.o)
 .debug_info    0x00082578       0xa1 ../LibA5T1000/gcc\libsptutil.a(pack_lfs.o)
 .debug_info    0x00082619      0x13a ../LibA5T1000/gcc\libsptutil.a(pack_mem.o)
 .debug_info    0x00082753      0x13c ../LibA5T1000/gcc\libsptutil.a(pack_nb.o)
 .debug_info    0x0008288f       0xa2 ../LibA5T1000/gcc\libsptutil.a(pack_spc.o)
 .debug_info    0x00082931      0x123 ../LibA5T1000/gcc\libsptutil.a(pack_str.o)
 .debug_info    0x00082a54       0x85 ../LibA5T1000/gcc\libsptutil.a(peek_b.o)
 .debug_info    0x00082ad9       0xf7 ../LibA5T1000/gcc\libsptutil.a(set_pptr.o)
 .debug_info    0x00082bd0       0xb5 ../LibA5T1000/gcc\libsptutil.a(skpb.o)
 .debug_info    0x00082c85       0xcb ../LibA5T1000/gcc\libsptutil.a(split.o)
 .debug_info    0x00082d50      0x12b ../LibA5T1000/gcc\libsptutil.a(split_d.o)
 .debug_info    0x00082e7b       0x79 ../LibA5T1000/gcc\libsptutil.a(val2bcd.o)
 .debug_info    0x00082ef4       0x79 ../LibA5T1000/gcc\libsptutil.a(hexdigit.o)
 .debug_info    0x00082f6d     0x194a ../LibA5T1000/gcc\libspglib.a(GIFLib.o)
 .debug_info    0x000848b7     0x14fa ../LibA5T1000/gcc\libspglib.a(GLib.o)

.debug_abbrev   0x00000000     0xa1cf
 .debug_abbrev  0x00000000      0x301 obj/Adjust.o
 .debug_abbrev  0x00000301      0x1fd obj/Auth.o
 .debug_abbrev  0x000004fe      0x1ba obj/Chkoptn.o
 .debug_abbrev  0x000006b8       0xb5 obj/Constant.o
 .debug_abbrev  0x0000076d      0x406 obj/Coremain.o
 .debug_abbrev  0x00000b73      0x11b obj/DemoTest.o
 .debug_abbrev  0x00000c8e      0x2e8 obj/Ecr.o
 .debug_abbrev  0x00000f76      0x42c obj/Func.o
 .debug_abbrev  0x000013a2      0x229 obj/Offline.o
 .debug_abbrev  0x000015cb      0x2e8 obj/Others.o
 .debug_abbrev  0x000018b3      0x3c5 obj/ParamTest.o
 .debug_abbrev  0x00001c78      0x36b obj/Print.o
 .debug_abbrev  0x00001fe3      0x21a obj/Reversal.o
 .debug_abbrev  0x000021fd      0x310 obj/Sale.o
 .debug_abbrev  0x0000250d      0x1fb obj/SaleOffl.o
 .debug_abbrev  0x00002708      0x3a5 obj/Settle.o
 .debug_abbrev  0x00002aad      0x317 obj/Sysutil.o
 .debug_abbrev  0x00002dc4      0x1a8 obj/TLVUtil.o
 .debug_abbrev  0x00002f6c      0x37b obj/TestCfg.o
 .debug_abbrev  0x000032e7      0x264 obj/Void.o
 .debug_abbrev  0x0000354b      0x160 obj/auxcom.o
 .debug_abbrev  0x000036ab      0x191 obj/brdrtest.o
 .debug_abbrev  0x0000383c      0x38c obj/camtest.o
 .debug_abbrev  0x00003bc8      0x2fd obj/corevar.o
 .debug_abbrev  0x00003ec5      0x4e2 obj/ctltrans.o
 .debug_abbrev  0x000043a7      0x15c obj/debugstis.o
 .debug_abbrev  0x00004503       0x26 obj/emvl2cfg.o
 .debug_abbrev  0x00004529      0x493 obj/emvtrans.o
 .debug_abbrev  0x000049bc      0x2f2 obj/hardware.o
 .debug_abbrev  0x00004cae      0x328 obj/hostmsg.o
 .debug_abbrev  0x00004fd6      0x47b obj/iface.o
 .debug_abbrev  0x00005451      0x1a3 obj/iface_util.o
 .debug_abbrev  0x000055f4      0x3f3 obj/input.o
 .debug_abbrev  0x000059e7      0x2b6 obj/keytrans.o
 .debug_abbrev  0x00005c9d      0x2d1 obj/lptutil.o
 .debug_abbrev  0x00005f6e      0x17d obj/main.o
 .debug_abbrev  0x000060eb      0x1c6 obj/menu.o
 .debug_abbrev  0x000062b1       0xcd obj/message.o
 .debug_abbrev  0x0000637e      0x446 obj/network.o
 .debug_abbrev  0x000067c4      0x220 obj/record.o
 .debug_abbrev  0x000069e4      0x1df obj/refund.o
 .debug_abbrev  0x00006bc3      0x1fb obj/testrans.o
 .debug_abbrev  0x00006dbe      0x192 obj/toggle.o
 .debug_abbrev  0x00006f50      0x327 obj/tpadtest.o
 .debug_abbrev  0x00007277      0x502 obj/tranutil.o
 .debug_abbrev  0x00007779      0x3f2 obj/wavecom.o
 .debug_abbrev  0x00007b6b      0x1a3 obj/cstartup.o
 .debug_abbrev  0x00007d0e      0x1c7 obj/expect_send.o
 .debug_abbrev  0x00007ed5      0x446 obj/libc.o
 .debug_abbrev  0x0000831b       0x64 ../LibA5T1000/gcc\libsyscall.a(app_call.o)
 .debug_abbrev  0x0000837f       0xfd ../LibA5T1000/gcc\libsyscall.a(sys_call.o)
 .debug_abbrev  0x0000847c       0xfd ../LibA5T1000/gcc\libbasecall.a(base_call.o)
 .debug_abbrev  0x00008579       0xf0 ../LibA5T1000/gcc\libsptutil.a(bcd2bin.o)
 .debug_abbrev  0x00008669       0x55 ../LibA5T1000/gcc\libsptutil.a(bcd2val.o)
 .debug_abbrev  0x000086be       0xb8 ../LibA5T1000/gcc\libsptutil.a(bcdadd.o)
 .debug_abbrev  0x00008776       0xa7 ../LibA5T1000/gcc\libsptutil.a(bcdinc.o)
 .debug_abbrev  0x0000881d       0xb8 ../LibA5T1000/gcc\libsptutil.a(bcdsub.o)
 .debug_abbrev  0x000088d5       0xb8 ../LibA5T1000/gcc\libsptutil.a(bin2bcd.o)
 .debug_abbrev  0x0000898d       0x6b ../LibA5T1000/gcc\libsptutil.a(bin2dec.o)
 .debug_abbrev  0x000089f8       0xdd ../LibA5T1000/gcc\libsptutil.a(bindec_d.o)
 .debug_abbrev  0x00008ad5       0x7c ../LibA5T1000/gcc\libsptutil.a(chkdok.o)
 .debug_abbrev  0x00008b51       0x83 ../LibA5T1000/gcc\libsptutil.a(compress.o)
 .debug_abbrev  0x00008bd4       0xcf ../LibA5T1000/gcc\libsptutil.a(crcccitt.o)
 .debug_abbrev  0x00008ca3       0xbf ../LibA5T1000/gcc\libsptutil.a(dbin2asc.o)
 .debug_abbrev  0x00008d62       0xbd ../LibA5T1000/gcc\libsptutil.a(dbin2bcd.o)
 .debug_abbrev  0x00008e1f       0x7c ../LibA5T1000/gcc\libsptutil.a(decbin4b.o)
 .debug_abbrev  0x00008e9b       0x96 ../LibA5T1000/gcc\libsptutil.a(decbin8b.o)
 .debug_abbrev  0x00008f31       0x8b ../LibA5T1000/gcc\libsptutil.a(fndb.o)
 .debug_abbrev  0x00008fbc       0x96 ../LibA5T1000/gcc\libsptutil.a(get_byte.o)
 .debug_abbrev  0x00009052       0x60 ../LibA5T1000/gcc\libsptutil.a(get_dist.o)
 .debug_abbrev  0x000090b2       0xea ../LibA5T1000/gcc\libsptutil.a(get_mem.o)
 .debug_abbrev  0x0000919c       0x60 ../LibA5T1000/gcc\libsptutil.a(get_pptr.o)
 .debug_abbrev  0x000091fc       0x55 ../LibA5T1000/gcc\libsptutil.a(hex_val.o)
 .debug_abbrev  0x00009251       0xa2 ../LibA5T1000/gcc\libsptutil.a(inc_pptr.o)
 .debug_abbrev  0x000092f3       0x6d ../LibA5T1000/gcc\libsptutil.a(isbdigit.o)
 .debug_abbrev  0x00009360       0xa2 ../LibA5T1000/gcc\libsptutil.a(pack_b.o)
 .debug_abbrev  0x00009402       0x78 ../LibA5T1000/gcc\libsptutil.a(pack_lf.o)
 .debug_abbrev  0x0000947a       0x87 ../LibA5T1000/gcc\libsptutil.a(pack_lfs.o)
 .debug_abbrev  0x00009501       0xe8 ../LibA5T1000/gcc\libsptutil.a(pack_mem.o)
 .debug_abbrev  0x000095e9       0xe3 ../LibA5T1000/gcc\libsptutil.a(pack_nb.o)
 .debug_abbrev  0x000096cc       0x87 ../LibA5T1000/gcc\libsptutil.a(pack_spc.o)
 .debug_abbrev  0x00009753       0xc4 ../LibA5T1000/gcc\libsptutil.a(pack_str.o)
 .debug_abbrev  0x00009817       0x60 ../LibA5T1000/gcc\libsptutil.a(peek_b.o)
 .debug_abbrev  0x00009877       0x80 ../LibA5T1000/gcc\libsptutil.a(set_pptr.o)
 .debug_abbrev  0x000098f7       0x8b ../LibA5T1000/gcc\libsptutil.a(skpb.o)
 .debug_abbrev  0x00009982       0x83 ../LibA5T1000/gcc\libsptutil.a(split.o)
 .debug_abbrev  0x00009a05       0xda ../LibA5T1000/gcc\libsptutil.a(split_d.o)
 .debug_abbrev  0x00009adf       0x55 ../LibA5T1000/gcc\libsptutil.a(val2bcd.o)
 .debug_abbrev  0x00009b34       0x55 ../LibA5T1000/gcc\libsptutil.a(hexdigit.o)
 .debug_abbrev  0x00009b89      0x325 ../LibA5T1000/gcc\libspglib.a(GIFLib.o)
 .debug_abbrev  0x00009eae      0x321 ../LibA5T1000/gcc\libspglib.a(GLib.o)

.debug_loc      0x00000000    0x13844
 .debug_loc     0x00000000      0x324 obj/Adjust.o
 .debug_loc     0x00000324       0x2c obj/Auth.o
 .debug_loc     0x00000350       0x88 obj/Chkoptn.o
 .debug_loc     0x000003d8       0x21 obj/Constant.o
 .debug_loc     0x000003f9      0x2a7 obj/Coremain.o
 .debug_loc     0x000006a0      0x303 obj/Ecr.o
 .debug_loc     0x000009a3     0x10ac obj/Func.o
 .debug_loc     0x00001a4f       0xbc obj/Offline.o
 .debug_loc     0x00001b0b      0x1db obj/Others.o
 .debug_loc     0x00001ce6      0xc21 obj/ParamTest.o
 .debug_loc     0x00002907      0x30d obj/Print.o
 .debug_loc     0x00002c14       0x1e obj/Reversal.o
 .debug_loc     0x00002c32      0x1d1 obj/Sale.o
 .debug_loc     0x00002e03       0x2c obj/SaleOffl.o
 .debug_loc     0x00002e2f      0x231 obj/Settle.o
 .debug_loc     0x00003060      0xb27 obj/Sysutil.o
 .debug_loc     0x00003b87      0x4ce obj/TLVUtil.o
 .debug_loc     0x00004055      0x170 obj/TestCfg.o
 .debug_loc     0x000041c5       0x7b obj/Void.o
 .debug_loc     0x00004240      0x199 obj/auxcom.o
 .debug_loc     0x000043d9      0x313 obj/brdrtest.o
 .debug_loc     0x000046ec     0x1524 obj/camtest.o
 .debug_loc     0x00005c10      0x1e1 obj/corevar.o
 .debug_loc     0x00005df1      0xe48 obj/ctltrans.o
 .debug_loc     0x00006c39       0x40 obj/debugstis.o
 .debug_loc     0x00006c79      0x716 obj/emvtrans.o
 .debug_loc     0x0000738f      0x408 obj/hardware.o
 .debug_loc     0x00007797      0x2f8 obj/hostmsg.o
 .debug_loc     0x00007a8f      0xffe obj/iface.o
 .debug_loc     0x00008a8d      0x3f7 obj/iface_util.o
 .debug_loc     0x00008e84      0xbf7 obj/input.o
 .debug_loc     0x00009a7b      0x694 obj/keytrans.o
 .debug_loc     0x0000a10f      0x50f obj/lptutil.o
 .debug_loc     0x0000a61e       0xb9 obj/main.o
 .debug_loc     0x0000a6d7      0x6de obj/menu.o
 .debug_loc     0x0000adb5       0x21 obj/message.o
 .debug_loc     0x0000add6     0x11de obj/network.o
 .debug_loc     0x0000bfb4       0x66 obj/record.o
 .debug_loc     0x0000c01a       0x2c obj/refund.o
 .debug_loc     0x0000c046       0x34 obj/testrans.o
 .debug_loc     0x0000c07a      0x19a obj/toggle.o
 .debug_loc     0x0000c214      0x41a obj/tpadtest.o
 .debug_loc     0x0000c62e      0xc87 obj/tranutil.o
 .debug_loc     0x0000d2b5     0x13f6 obj/wavecom.o
 .debug_loc     0x0000e6ab       0xa5 obj/cstartup.o
 .debug_loc     0x0000e750      0x30e obj/expect_send.o
 .debug_loc     0x0000ea5e      0xd82 obj/libc.o
 .debug_loc     0x0000f7e0     0x1907 ../LibA5T1000/gcc\libsyscall.a(app_call.o)
 .debug_loc     0x000110e7       0x84 ../LibA5T1000/gcc\libsyscall.a(sys_call.o)
 .debug_loc     0x0001116b       0x84 ../LibA5T1000/gcc\libbasecall.a(base_call.o)
 .debug_loc     0x000111ef      0x166 ../LibA5T1000/gcc\libsptutil.a(bcd2bin.o)
 .debug_loc     0x00011355       0x21 ../LibA5T1000/gcc\libsptutil.a(bcd2val.o)
 .debug_loc     0x00011376       0xd8 ../LibA5T1000/gcc\libsptutil.a(bcdadd.o)
 .debug_loc     0x0001144e       0xb7 ../LibA5T1000/gcc\libsptutil.a(bcdinc.o)
 .debug_loc     0x00011505       0xd8 ../LibA5T1000/gcc\libsptutil.a(bcdsub.o)
 .debug_loc     0x000115dd      0x154 ../LibA5T1000/gcc\libsptutil.a(bin2bcd.o)
 .debug_loc     0x00011731       0x8b ../LibA5T1000/gcc\libsptutil.a(bin2dec.o)
 .debug_loc     0x000117bc       0x5f ../LibA5T1000/gcc\libsptutil.a(bindec_d.o)
 .debug_loc     0x0001181b       0xdc ../LibA5T1000/gcc\libsptutil.a(chkdok.o)
 .debug_loc     0x000118f7       0xca ../LibA5T1000/gcc\libsptutil.a(compress.o)
 .debug_loc     0x000119c1       0xed ../LibA5T1000/gcc\libsptutil.a(crcccitt.o)
 .debug_loc     0x00011aae       0xa0 ../LibA5T1000/gcc\libsptutil.a(dbin2asc.o)
 .debug_loc     0x00011b4e       0xbc ../LibA5T1000/gcc\libsptutil.a(dbin2bcd.o)
 .debug_loc     0x00011c0a       0xb4 ../LibA5T1000/gcc\libsptutil.a(decbin4b.o)
 .debug_loc     0x00011cbe       0xfe ../LibA5T1000/gcc\libsptutil.a(decbin8b.o)
 .debug_loc     0x00011dbc       0x87 ../LibA5T1000/gcc\libsptutil.a(fndb.o)
 .debug_loc     0x00011e43       0xe6 ../LibA5T1000/gcc\libsptutil.a(get_byte.o)
 .debug_loc     0x00011f29       0x58 ../LibA5T1000/gcc\libsptutil.a(get_mem.o)
 .debug_loc     0x00011f81       0x21 ../LibA5T1000/gcc\libsptutil.a(hex_val.o)
 .debug_loc     0x00011fa2       0x2c ../LibA5T1000/gcc\libsptutil.a(inc_pptr.o)
 .debug_loc     0x00011fce       0xa6 ../LibA5T1000/gcc\libsptutil.a(isbdigit.o)
 .debug_loc     0x00012074       0xdc ../LibA5T1000/gcc\libsptutil.a(pack_b.o)
 .debug_loc     0x00012150       0x2c ../LibA5T1000/gcc\libsptutil.a(pack_lfs.o)
 .debug_loc     0x0001217c       0x58 ../LibA5T1000/gcc\libsptutil.a(pack_mem.o)
 .debug_loc     0x000121d4       0x58 ../LibA5T1000/gcc\libsptutil.a(pack_nb.o)
 .debug_loc     0x0001222c       0x2c ../LibA5T1000/gcc\libsptutil.a(pack_spc.o)
 .debug_loc     0x00012258       0x42 ../LibA5T1000/gcc\libsptutil.a(pack_str.o)
 .debug_loc     0x0001229a       0x42 ../LibA5T1000/gcc\libsptutil.a(set_pptr.o)
 .debug_loc     0x000122dc       0x87 ../LibA5T1000/gcc\libsptutil.a(skpb.o)
 .debug_loc     0x00012363       0xca ../LibA5T1000/gcc\libsptutil.a(split.o)
 .debug_loc     0x0001242d       0x58 ../LibA5T1000/gcc\libsptutil.a(split_d.o)
 .debug_loc     0x00012485       0x1e ../LibA5T1000/gcc\libsptutil.a(val2bcd.o)
 .debug_loc     0x000124a3       0x2e ../LibA5T1000/gcc\libsptutil.a(hexdigit.o)
 .debug_loc     0x000124d1      0xb27 ../LibA5T1000/gcc\libspglib.a(GIFLib.o)
 .debug_loc     0x00012ff8      0x84c ../LibA5T1000/gcc\libspglib.a(GLib.o)

.debug_aranges  0x00000000     0x18a0
 .debug_aranges
                0x00000000       0x28 obj/Adjust.o
 .debug_aranges
                0x00000028       0x20 obj/Auth.o
 .debug_aranges
                0x00000048      0x178 obj/Chkoptn.o
 .debug_aranges
                0x000001c0       0x20 obj/Constant.o
 .debug_aranges
                0x000001e0       0x48 obj/Coremain.o
 .debug_aranges
                0x00000228       0x18 obj/DemoTest.o
 .debug_aranges
                0x00000240       0x60 obj/Ecr.o
 .debug_aranges
                0x000002a0       0x78 obj/Func.o
 .debug_aranges
                0x00000318       0x20 obj/Offline.o
 .debug_aranges
                0x00000338       0x38 obj/Others.o
 .debug_aranges
                0x00000370       0x48 obj/ParamTest.o
 .debug_aranges
                0x000003b8       0x88 obj/Print.o
 .debug_aranges
                0x00000440       0x20 obj/Reversal.o
 .debug_aranges
                0x00000460       0x30 obj/Sale.o
 .debug_aranges
                0x00000490       0x20 obj/SaleOffl.o
 .debug_aranges
                0x000004b0       0x48 obj/Settle.o
 .debug_aranges
                0x000004f8       0xe8 obj/Sysutil.o
 .debug_aranges
                0x000005e0       0x80 obj/TLVUtil.o
 .debug_aranges
                0x00000660       0x80 obj/TestCfg.o
 .debug_aranges
                0x000006e0       0x20 obj/Void.o
 .debug_aranges
                0x00000700       0x60 obj/auxcom.o
 .debug_aranges
                0x00000760       0x20 obj/brdrtest.o
 .debug_aranges
                0x00000780       0x68 obj/camtest.o
 .debug_aranges
                0x000007e8       0xc8 obj/corevar.o
 .debug_aranges
                0x000008b0       0xe8 obj/ctltrans.o
 .debug_aranges
                0x00000998       0x20 obj/debugstis.o
 .debug_aranges
                0x000009b8       0x18 obj/emvl2cfg.o
 .debug_aranges
                0x000009d0       0x98 obj/emvtrans.o
 .debug_aranges
                0x00000a68       0x78 obj/hardware.o
 .debug_aranges
                0x00000ae0       0x30 obj/hostmsg.o
 .debug_aranges
                0x00000b10       0xa8 obj/iface.o
 .debug_aranges
                0x00000bb8       0x60 obj/iface_util.o
 .debug_aranges
                0x00000c18       0xa8 obj/input.o
 .debug_aranges
                0x00000cc0       0x80 obj/keytrans.o
 .debug_aranges
                0x00000d40       0x88 obj/lptutil.o
 .debug_aranges
                0x00000dc8       0x20 obj/main.o
 .debug_aranges
                0x00000de8       0x20 obj/menu.o
 .debug_aranges
                0x00000e08       0x20 obj/message.o
 .debug_aranges
                0x00000e28       0xb0 obj/network.o
 .debug_aranges
                0x00000ed8       0x48 obj/record.o
 .debug_aranges
                0x00000f20       0x20 obj/refund.o
 .debug_aranges
                0x00000f40       0x20 obj/testrans.o
 .debug_aranges
                0x00000f60       0x20 obj/toggle.o
 .debug_aranges
                0x00000f80       0x80 obj/tpadtest.o
 .debug_aranges
                0x00001000      0x130 obj/tranutil.o
 .debug_aranges
                0x00001130      0x158 obj/wavecom.o
 .debug_aranges
                0x00001288       0x28 obj/cstartup.o
 .debug_aranges
                0x000012b0       0x28 obj/expect_send.o
 .debug_aranges
                0x000012d8       0x88 obj/libc.o
 .debug_aranges
                0x00001360       0x20 ../LibA5T1000/gcc\libsyscall.a(app_call.o)
 .debug_aranges
                0x00001380       0x20 ../LibA5T1000/gcc\libsyscall.a(sys_call.o)
 .debug_aranges
                0x000013a0       0x20 ../LibA5T1000/gcc\libbasecall.a(base_call.o)
 .debug_aranges
                0x000013c0       0x20 ../LibA5T1000/gcc\libsptutil.a(bcd2bin.o)
 .debug_aranges
                0x000013e0       0x20 ../LibA5T1000/gcc\libsptutil.a(bcd2val.o)
 .debug_aranges
                0x00001400       0x20 ../LibA5T1000/gcc\libsptutil.a(bcdadd.o)
 .debug_aranges
                0x00001420       0x20 ../LibA5T1000/gcc\libsptutil.a(bcdinc.o)
 .debug_aranges
                0x00001440       0x20 ../LibA5T1000/gcc\libsptutil.a(bcdsub.o)
 .debug_aranges
                0x00001460       0x20 ../LibA5T1000/gcc\libsptutil.a(bin2bcd.o)
 .debug_aranges
                0x00001480       0x20 ../LibA5T1000/gcc\libsptutil.a(bin2dec.o)
 .debug_aranges
                0x000014a0       0x20 ../LibA5T1000/gcc\libsptutil.a(bindec_d.o)
 .debug_aranges
                0x000014c0       0x20 ../LibA5T1000/gcc\libsptutil.a(chkdok.o)
 .debug_aranges
                0x000014e0       0x20 ../LibA5T1000/gcc\libsptutil.a(compress.o)
 .debug_aranges
                0x00001500       0x20 ../LibA5T1000/gcc\libsptutil.a(crcccitt.o)
 .debug_aranges
                0x00001520       0x20 ../LibA5T1000/gcc\libsptutil.a(dbin2asc.o)
 .debug_aranges
                0x00001540       0x20 ../LibA5T1000/gcc\libsptutil.a(dbin2bcd.o)
 .debug_aranges
                0x00001560       0x20 ../LibA5T1000/gcc\libsptutil.a(decbin4b.o)
 .debug_aranges
                0x00001580       0x20 ../LibA5T1000/gcc\libsptutil.a(decbin8b.o)
 .debug_aranges
                0x000015a0       0x20 ../LibA5T1000/gcc\libsptutil.a(fndb.o)
 .debug_aranges
                0x000015c0       0x20 ../LibA5T1000/gcc\libsptutil.a(get_byte.o)
 .debug_aranges
                0x000015e0       0x20 ../LibA5T1000/gcc\libsptutil.a(get_dist.o)
 .debug_aranges
                0x00001600       0x20 ../LibA5T1000/gcc\libsptutil.a(get_mem.o)
 .debug_aranges
                0x00001620       0x20 ../LibA5T1000/gcc\libsptutil.a(get_pptr.o)
 .debug_aranges
                0x00001640       0x20 ../LibA5T1000/gcc\libsptutil.a(hex_val.o)
 .debug_aranges
                0x00001660       0x20 ../LibA5T1000/gcc\libsptutil.a(inc_pptr.o)
 .debug_aranges
                0x00001680       0x20 ../LibA5T1000/gcc\libsptutil.a(isbdigit.o)
 .debug_aranges
                0x000016a0       0x20 ../LibA5T1000/gcc\libsptutil.a(pack_b.o)
 .debug_aranges
                0x000016c0       0x20 ../LibA5T1000/gcc\libsptutil.a(pack_lf.o)
 .debug_aranges
                0x000016e0       0x20 ../LibA5T1000/gcc\libsptutil.a(pack_lfs.o)
 .debug_aranges
                0x00001700       0x20 ../LibA5T1000/gcc\libsptutil.a(pack_mem.o)
 .debug_aranges
                0x00001720       0x20 ../LibA5T1000/gcc\libsptutil.a(pack_nb.o)
 .debug_aranges
                0x00001740       0x20 ../LibA5T1000/gcc\libsptutil.a(pack_spc.o)
 .debug_aranges
                0x00001760       0x20 ../LibA5T1000/gcc\libsptutil.a(pack_str.o)
 .debug_aranges
                0x00001780       0x20 ../LibA5T1000/gcc\libsptutil.a(peek_b.o)
 .debug_aranges
                0x000017a0       0x20 ../LibA5T1000/gcc\libsptutil.a(set_pptr.o)
 .debug_aranges
                0x000017c0       0x20 ../LibA5T1000/gcc\libsptutil.a(skpb.o)
 .debug_aranges
                0x000017e0       0x20 ../LibA5T1000/gcc\libsptutil.a(split.o)
 .debug_aranges
                0x00001800       0x20 ../LibA5T1000/gcc\libsptutil.a(split_d.o)
 .debug_aranges
                0x00001820       0x20 ../LibA5T1000/gcc\libsptutil.a(val2bcd.o)
 .debug_aranges
                0x00001840       0x20 ../LibA5T1000/gcc\libsptutil.a(hexdigit.o)
 .debug_aranges
                0x00001860       0x20 ../LibA5T1000/gcc\libspglib.a(GIFLib.o)
 .debug_aranges
                0x00001880       0x20 ../LibA5T1000/gcc\libspglib.a(GLib.o)

.debug_ranges   0x00000000     0x18d0
 .debug_ranges  0x00000000       0x18 obj/Adjust.o
 .debug_ranges  0x00000018       0x10 obj/Auth.o
 .debug_ranges  0x00000028      0x168 obj/Chkoptn.o
 .debug_ranges  0x00000190       0x10 obj/Constant.o
 .debug_ranges  0x000001a0       0x68 obj/Coremain.o
 .debug_ranges  0x00000208       0x50 obj/Ecr.o
 .debug_ranges  0x00000258      0x1a8 obj/Func.o
 .debug_ranges  0x00000400       0x10 obj/Offline.o
 .debug_ranges  0x00000410       0x28 obj/Others.o
 .debug_ranges  0x00000438       0xb8 obj/ParamTest.o
 .debug_ranges  0x000004f0       0x78 obj/Print.o
 .debug_ranges  0x00000568       0x10 obj/Reversal.o
 .debug_ranges  0x00000578       0x70 obj/Sale.o
 .debug_ranges  0x000005e8       0x10 obj/SaleOffl.o
 .debug_ranges  0x000005f8       0x88 obj/Settle.o
 .debug_ranges  0x00000680      0x108 obj/Sysutil.o
 .debug_ranges  0x00000788       0x88 obj/TLVUtil.o
 .debug_ranges  0x00000810       0xa0 obj/TestCfg.o
 .debug_ranges  0x000008b0       0x10 obj/Void.o
 .debug_ranges  0x000008c0       0x50 obj/auxcom.o
 .debug_ranges  0x00000910       0x28 obj/brdrtest.o
 .debug_ranges  0x00000938       0x98 obj/camtest.o
 .debug_ranges  0x000009d0       0xb8 obj/corevar.o
 .debug_ranges  0x00000a88      0x120 obj/ctltrans.o
 .debug_ranges  0x00000ba8       0x10 obj/debugstis.o
 .debug_ranges  0x00000bb8       0xb8 obj/emvtrans.o
 .debug_ranges  0x00000c70       0x80 obj/hardware.o
 .debug_ranges  0x00000cf0       0x50 obj/hostmsg.o
 .debug_ranges  0x00000d40       0xd8 obj/iface.o
 .debug_ranges  0x00000e18       0x50 obj/iface_util.o
 .debug_ranges  0x00000e68       0xf8 obj/input.o
 .debug_ranges  0x00000f60       0xb0 obj/keytrans.o
 .debug_ranges  0x00001010       0x78 obj/lptutil.o
 .debug_ranges  0x00001088       0x10 obj/main.o
 .debug_ranges  0x00001098       0x60 obj/menu.o
 .debug_ranges  0x000010f8       0x10 obj/message.o
 .debug_ranges  0x00001108      0x118 obj/network.o
 .debug_ranges  0x00001220       0x38 obj/record.o
 .debug_ranges  0x00001258       0x10 obj/refund.o
 .debug_ranges  0x00001268       0x10 obj/testrans.o
 .debug_ranges  0x00001278       0x48 obj/toggle.o
 .debug_ranges  0x000012c0       0x90 obj/tpadtest.o
 .debug_ranges  0x00001350      0x280 obj/tranutil.o
 .debug_ranges  0x000015d0      0x190 obj/wavecom.o
 .debug_ranges  0x00001760       0x18 obj/cstartup.o
 .debug_ranges  0x00001778       0x18 obj/expect_send.o
 .debug_ranges  0x00001790       0x78 obj/libc.o
 .debug_ranges  0x00001808       0x10 ../LibA5T1000/gcc\libsyscall.a(sys_call.o)
 .debug_ranges  0x00001818       0x10 ../LibA5T1000/gcc\libbasecall.a(base_call.o)
 .debug_ranges  0x00001828       0x10 ../LibA5T1000/gcc\libsptutil.a(bindec_d.o)
 .debug_ranges  0x00001838       0x38 ../LibA5T1000/gcc\libspglib.a(GIFLib.o)
 .debug_ranges  0x00001870       0x60 ../LibA5T1000/gcc\libspglib.a(GLib.o)

.debug_line     0x00000000     0xac81
 .debug_line    0x00000000      0x23c obj/Adjust.o
 .debug_line    0x0000023c      0x148 obj/Auth.o
 .debug_line    0x00000384      0x3b9 obj/Chkoptn.o
 .debug_line    0x0000073d       0x76 obj/Constant.o
 .debug_line    0x000007b3      0x3dd obj/Coremain.o
 .debug_line    0x00000b90       0x7e obj/DemoTest.o
 .debug_line    0x00000c0e      0x2d9 obj/Ecr.o
 .debug_line    0x00000ee7      0x69d obj/Func.o
 .debug_line    0x00001584      0x142 obj/Offline.o
 .debug_line    0x000016c6      0x239 obj/Others.o
 .debug_line    0x000018ff      0x340 obj/ParamTest.o
 .debug_line    0x00001c3f      0x2fc obj/Print.o
 .debug_line    0x00001f3b      0x117 obj/Reversal.o
 .debug_line    0x00002052      0x291 obj/Sale.o
 .debug_line    0x000022e3       0xf8 obj/SaleOffl.o
 .debug_line    0x000023db      0x35a obj/Settle.o
 .debug_line    0x00002735      0x497 obj/Sysutil.o
 .debug_line    0x00002bcc      0x1e3 obj/TLVUtil.o
 .debug_line    0x00002daf      0x295 obj/TestCfg.o
 .debug_line    0x00003044      0x22b obj/Void.o
 .debug_line    0x0000326f      0x1d5 obj/auxcom.o
 .debug_line    0x00003444      0x1bb obj/brdrtest.o
 .debug_line    0x000035ff      0x5e7 obj/camtest.o
 .debug_line    0x00003be6      0x340 obj/corevar.o
 .debug_line    0x00003f26      0x6f0 obj/ctltrans.o
 .debug_line    0x00004616       0x93 obj/debugstis.o
 .debug_line    0x000046a9       0x1d obj/emvl2cfg.o
 .debug_line    0x000046c6      0x585 obj/emvtrans.o
 .debug_line    0x00004c4b      0x319 obj/hardware.o
 .debug_line    0x00004f64      0x2ea obj/hostmsg.o
 .debug_line    0x0000524e      0x58d obj/iface.o
 .debug_line    0x000057db      0x171 obj/iface_util.o
 .debug_line    0x0000594c      0x763 obj/input.o
 .debug_line    0x000060af      0x423 obj/keytrans.o
 .debug_line    0x000064d2      0x2ee obj/lptutil.o
 .debug_line    0x000067c0       0x87 obj/main.o
 .debug_line    0x00006847      0x270 obj/menu.o
 .debug_line    0x00006ab7       0x67 obj/message.o
 .debug_line    0x00006b1e      0x662 obj/network.o
 .debug_line    0x00007180      0x20b obj/record.o
 .debug_line    0x0000738b      0x14b obj/refund.o
 .debug_line    0x000074d6      0x10d obj/testrans.o
 .debug_line    0x000075e3      0x13f obj/toggle.o
 .debug_line    0x00007722      0x31b obj/tpadtest.o
 .debug_line    0x00007a3d      0xa65 obj/tranutil.o
 .debug_line    0x000084a2      0x703 obj/wavecom.o
 .debug_line    0x00008ba5       0xad obj/cstartup.o
 .debug_line    0x00008c52      0x169 obj/expect_send.o
 .debug_line    0x00008dbb      0x3ab obj/libc.o
 .debug_line    0x00009166      0x267 ../LibA5T1000/gcc\libsyscall.a(app_call.o)
 .debug_line    0x000093cd       0x7e ../LibA5T1000/gcc\libsyscall.a(sys_call.o)
 .debug_line    0x0000944b       0x7f ../LibA5T1000/gcc\libbasecall.a(base_call.o)
 .debug_line    0x000094ca       0x95 ../LibA5T1000/gcc\libsptutil.a(bcd2bin.o)
 .debug_line    0x0000955f       0x61 ../LibA5T1000/gcc\libsptutil.a(bcd2val.o)
 .debug_line    0x000095c0       0x77 ../LibA5T1000/gcc\libsptutil.a(bcdadd.o)
 .debug_line    0x00009637       0x7e ../LibA5T1000/gcc\libsptutil.a(bcdinc.o)
 .debug_line    0x000096b5       0x77 ../LibA5T1000/gcc\libsptutil.a(bcdsub.o)
 .debug_line    0x0000972c       0x8e ../LibA5T1000/gcc\libsptutil.a(bin2bcd.o)
 .debug_line    0x000097ba       0x64 ../LibA5T1000/gcc\libsptutil.a(bin2dec.o)
 .debug_line    0x0000981e       0x73 ../LibA5T1000/gcc\libsptutil.a(bindec_d.o)
 .debug_line    0x00009891       0x69 ../LibA5T1000/gcc\libsptutil.a(chkdok.o)
 .debug_line    0x000098fa       0x74 ../LibA5T1000/gcc\libsptutil.a(compress.o)
 .debug_line    0x0000996e       0x7a ../LibA5T1000/gcc\libsptutil.a(crcccitt.o)
 .debug_line    0x000099e8      0x10f ../LibA5T1000/gcc\libsptutil.a(dbin2asc.o)
 .debug_line    0x00009af7       0xa9 ../LibA5T1000/gcc\libsptutil.a(dbin2bcd.o)
 .debug_line    0x00009ba0       0x6a ../LibA5T1000/gcc\libsptutil.a(decbin4b.o)
 .debug_line    0x00009c0a       0x94 ../LibA5T1000/gcc\libsptutil.a(decbin8b.o)
 .debug_line    0x00009c9e       0x60 ../LibA5T1000/gcc\libsptutil.a(fndb.o)
 .debug_line    0x00009cfe       0x71 ../LibA5T1000/gcc\libsptutil.a(get_byte.o)
 .debug_line    0x00009d6f       0x60 ../LibA5T1000/gcc\libsptutil.a(get_dist.o)
 .debug_line    0x00009dcf       0x79 ../LibA5T1000/gcc\libsptutil.a(get_mem.o)
 .debug_line    0x00009e48       0x5f ../LibA5T1000/gcc\libsptutil.a(get_pptr.o)
 .debug_line    0x00009ea7       0x5f ../LibA5T1000/gcc\libsptutil.a(hex_val.o)
 .debug_line    0x00009f06       0x77 ../LibA5T1000/gcc\libsptutil.a(inc_pptr.o)
 .debug_line    0x00009f7d       0x64 ../LibA5T1000/gcc\libsptutil.a(isbdigit.o)
 .debug_line    0x00009fe1       0xa1 ../LibA5T1000/gcc\libsptutil.a(pack_b.o)
 .debug_line    0x0000a082       0x6f ../LibA5T1000/gcc\libsptutil.a(pack_lf.o)
 .debug_line    0x0000a0f1       0x71 ../LibA5T1000/gcc\libsptutil.a(pack_lfs.o)
 .debug_line    0x0000a162       0x75 ../LibA5T1000/gcc\libsptutil.a(pack_mem.o)
 .debug_line    0x0000a1d7       0xfc ../LibA5T1000/gcc\libsptutil.a(pack_nb.o)
 .debug_line    0x0000a2d3       0x71 ../LibA5T1000/gcc\libsptutil.a(pack_spc.o)
 .debug_line    0x0000a344       0xfb ../LibA5T1000/gcc\libsptutil.a(pack_str.o)
 .debug_line    0x0000a43f       0x5e ../LibA5T1000/gcc\libsptutil.a(peek_b.o)
 .debug_line    0x0000a49d       0x64 ../LibA5T1000/gcc\libsptutil.a(set_pptr.o)
 .debug_line    0x0000a501       0x68 ../LibA5T1000/gcc\libsptutil.a(skpb.o)
 .debug_line    0x0000a569       0x71 ../LibA5T1000/gcc\libsptutil.a(split.o)
 .debug_line    0x0000a5da       0x75 ../LibA5T1000/gcc\libsptutil.a(split_d.o)
 .debug_line    0x0000a64f       0x61 ../LibA5T1000/gcc\libsptutil.a(val2bcd.o)
 .debug_line    0x0000a6b0       0x60 ../LibA5T1000/gcc\libsptutil.a(hexdigit.o)
 .debug_line    0x0000a710      0x35d ../LibA5T1000/gcc\libspglib.a(GIFLib.o)
 .debug_line    0x0000aa6d      0x214 ../LibA5T1000/gcc\libspglib.a(GLib.o)

.debug_str      0x00000000     0xad59
 .debug_str     0x00000000     0x4151 obj/Adjust.o
                               0x4284 (size before relaxing)
 .debug_str     0x00004151       0xe4 obj/Auth.o
                               0x152a (size before relaxing)
 .debug_str     0x00004235      0x239 obj/Chkoptn.o
                                0xf40 (size before relaxing)
 .debug_str     0x0000446e       0x7d obj/Constant.o
                                0xd4c (size before relaxing)
 .debug_str     0x000044eb      0xb3e obj/Coremain.o
                               0x4d0e (size before relaxing)
 .debug_str     0x00005029      0x55c obj/DemoTest.o
                                0x7ba (size before relaxing)
 .debug_str     0x00005585      0x167 obj/Ecr.o
                               0x14a7 (size before relaxing)
 .debug_str     0x000056ec      0x3da obj/Func.o
                               0x46ac (size before relaxing)
 .debug_str     0x00005ac6       0x22 obj/Offline.o
                               0x12aa (size before relaxing)
 .debug_str     0x00005ae8       0x79 obj/Others.o
                               0x38b6 (size before relaxing)
 .debug_str     0x00005b61      0x1f0 obj/ParamTest.o
                               0x2d73 (size before relaxing)
 .debug_str     0x00005d51       0xf8 obj/Print.o
                               0x413c (size before relaxing)
 .debug_str     0x00005e49      0x254 obj/Reversal.o
                               0x14a8 (size before relaxing)
 .debug_str     0x0000609d      0x359 obj/Sale.o
                               0x3b90 (size before relaxing)
 .debug_str     0x000063f6       0x28 obj/SaleOffl.o
                                0xf65 (size before relaxing)
 .debug_str     0x0000641e      0x1a1 obj/Settle.o
                               0x4506 (size before relaxing)
 .debug_str     0x000065bf      0x26d obj/Sysutil.o
                               0x2b55 (size before relaxing)
 .debug_str     0x0000682c       0x8d obj/TLVUtil.o
                                0x283 (size before relaxing)
 .debug_str     0x000068b9      0x1f2 obj/TestCfg.o
                               0x3f2e (size before relaxing)
 .debug_str     0x00006aab       0x13 obj/Void.o
                               0x427c (size before relaxing)
 .debug_str     0x00006abe       0x5a obj/auxcom.o
                               0x256f (size before relaxing)
 .debug_str     0x00006b18       0xe0 obj/brdrtest.o
                               0x2af3 (size before relaxing)
 .debug_str     0x00006bf8      0x36e obj/camtest.o
                               0x2ebe (size before relaxing)
 .debug_str     0x00006f66       0xf6 obj/corevar.o
                               0x3ad8 (size before relaxing)
 .debug_str     0x0000705c      0x303 obj/ctltrans.o
                               0x524b (size before relaxing)
 .debug_str     0x0000735f       0xa9 obj/debugstis.o
                                0xd83 (size before relaxing)
 .debug_str     0x00007408        0xf obj/emvl2cfg.o
                                0x193 (size before relaxing)
 .debug_str     0x00007417      0x1b6 obj/emvtrans.o
                               0x46a8 (size before relaxing)
 .debug_str     0x000075cd       0xbf obj/hardware.o
                               0x2d5f (size before relaxing)
 .debug_str     0x0000768c       0xb4 obj/hostmsg.o
                               0x1b5d (size before relaxing)
 .debug_str     0x00007740      0x307 obj/iface.o
                               0x3cac (size before relaxing)
 .debug_str     0x00007a47       0x34 obj/iface_util.o
                               0x254f (size before relaxing)
 .debug_str     0x00007a7b      0x1a3 obj/input.o
                               0x475a (size before relaxing)
 .debug_str     0x00007c1e      0x2ad obj/keytrans.o
                               0x318e (size before relaxing)
 .debug_str     0x00007ecb       0x89 obj/lptutil.o
                               0x3668 (size before relaxing)
 .debug_str     0x00007f54       0x67 obj/main.o
                               0x25f5 (size before relaxing)
 .debug_str     0x00007fbb       0x95 obj/menu.o
                               0x2add (size before relaxing)
 .debug_str     0x00008050       0x5a obj/message.o
                                0xbee (size before relaxing)
 .debug_str     0x000080aa      0xef0 obj/network.o
                               0x5327 (size before relaxing)
 .debug_str     0x00008f9a       0x39 obj/record.o
                               0x13e1 (size before relaxing)
 .debug_str     0x00008fd3        0xd obj/refund.o
                               0x132b (size before relaxing)
 .debug_str     0x00008fe0        0xf obj/testrans.o
                               0x1299 (size before relaxing)
 .debug_str     0x00008fef       0xb5 obj/toggle.o
                               0x2b3b (size before relaxing)
 .debug_str     0x000090a4      0x207 obj/tpadtest.o
                               0x332f (size before relaxing)
 .debug_str     0x000092ab      0x390 obj/tranutil.o
                               0x5360 (size before relaxing)
 .debug_str     0x0000963b      0x5f9 obj/wavecom.o
                               0x3411 (size before relaxing)
 .debug_str     0x00009c34       0xbe obj/cstartup.o
                               0x2602 (size before relaxing)
 .debug_str     0x00009cf2       0x54 obj/expect_send.o
                               0x24f4 (size before relaxing)
 .debug_str     0x00009d46      0x52f obj/libc.o
                               0x2aad (size before relaxing)
 .debug_str     0x0000a275      0x124 ../LibA5T1000/gcc\libsyscall.a(app_call.o)
                                0x1b1 (size before relaxing)
 .debug_str     0x0000a399       0x36 ../LibA5T1000/gcc\libsyscall.a(sys_call.o)
                                0x1bb (size before relaxing)
 .debug_str     0x0000a3cf      0x10a ../LibA5T1000/gcc\libbasecall.a(base_call.o)
                                0x1c1 (size before relaxing)
 .debug_str     0x0000a4d9       0x4d ../LibA5T1000/gcc\libsptutil.a(bcd2bin.o)
                                0x176 (size before relaxing)
 .debug_str     0x0000a526       0x11 ../LibA5T1000/gcc\libsptutil.a(bcd2val.o)
                                0x147 (size before relaxing)
 .debug_str     0x0000a537       0x18 ../LibA5T1000/gcc\libsptutil.a(bcdadd.o)
                                0x15f (size before relaxing)
 .debug_str     0x0000a54f       0x10 ../LibA5T1000/gcc\libsptutil.a(bcdinc.o)
                                0x15a (size before relaxing)
 .debug_str     0x0000a55f       0x10 ../LibA5T1000/gcc\libsptutil.a(bcdsub.o)
                                0x15f (size before relaxing)
 .debug_str     0x0000a56f       0x1c ../LibA5T1000/gcc\libsptutil.a(bin2bcd.o)
                                0x165 (size before relaxing)
 .debug_str     0x0000a58b       0x11 ../LibA5T1000/gcc\libsptutil.a(bin2dec.o)
                                0x151 (size before relaxing)
 .debug_str     0x0000a59c       0x12 ../LibA5T1000/gcc\libsptutil.a(bindec_d.o)
                                0x16f (size before relaxing)
 .debug_str     0x0000a5ae       0x10 ../LibA5T1000/gcc\libsptutil.a(chkdok.o)
                                0x16a (size before relaxing)
 .debug_str     0x0000a5be       0x28 ../LibA5T1000/gcc\libsptutil.a(compress.o)
                                0x169 (size before relaxing)
 .debug_str     0x0000a5e6       0x22 ../LibA5T1000/gcc\libsptutil.a(crcccitt.o)
                                0x16e (size before relaxing)
 .debug_str     0x0000a608       0x12 ../LibA5T1000/gcc\libsptutil.a(dbin2asc.o)
                                0x1ac (size before relaxing)
 .debug_str     0x0000a61a       0x12 ../LibA5T1000/gcc\libsptutil.a(dbin2bcd.o)
                                0x1a5 (size before relaxing)
 .debug_str     0x0000a62c       0x12 ../LibA5T1000/gcc\libsptutil.a(decbin4b.o)
                                0x155 (size before relaxing)
 .debug_str     0x0000a63e       0x12 ../LibA5T1000/gcc\libsptutil.a(decbin8b.o)
                                0x15c (size before relaxing)
 .debug_str     0x0000a650       0x15 ../LibA5T1000/gcc\libsptutil.a(fndb.o)
                                0x15a (size before relaxing)
 .debug_str     0x0000a665       0x29 ../LibA5T1000/gcc\libsptutil.a(get_byte.o)
                                0x177 (size before relaxing)
 .debug_str     0x0000a68e       0x20 ../LibA5T1000/gcc\libsptutil.a(get_dist.o)
                                0x169 (size before relaxing)
 .debug_str     0x0000a6ae       0x21 ../LibA5T1000/gcc\libsptutil.a(get_mem.o)
                                0x1b5 (size before relaxing)
 .debug_str     0x0000a6cf       0x12 ../LibA5T1000/gcc\libsptutil.a(get_pptr.o)
                                0x151 (size before relaxing)
 .debug_str     0x0000a6e1       0x11 ../LibA5T1000/gcc\libsptutil.a(hex_val.o)
                                0x154 (size before relaxing)
 .debug_str     0x0000a6f2       0x1c ../LibA5T1000/gcc\libsptutil.a(inc_pptr.o)
                                0x171 (size before relaxing)
 .debug_str     0x0000a70e       0x12 ../LibA5T1000/gcc\libsptutil.a(isbdigit.o)
                                0x15b (size before relaxing)
 .debug_str     0x0000a720       0x40 ../LibA5T1000/gcc\libsptutil.a(pack_b.o)
                                0x19c (size before relaxing)
 .debug_str     0x0000a760       0x11 ../LibA5T1000/gcc\libsptutil.a(pack_lf.o)
                                0x151 (size before relaxing)
 .debug_str     0x0000a771       0x12 ../LibA5T1000/gcc\libsptutil.a(pack_lfs.o)
                                0x154 (size before relaxing)
 .debug_str     0x0000a783       0x12 ../LibA5T1000/gcc\libsptutil.a(pack_mem.o)
                                0x1b9 (size before relaxing)
 .debug_str     0x0000a795       0x11 ../LibA5T1000/gcc\libsptutil.a(pack_nb.o)
                                0x1c0 (size before relaxing)
 .debug_str     0x0000a7a6       0x12 ../LibA5T1000/gcc\libsptutil.a(pack_spc.o)
                                0x156 (size before relaxing)
 .debug_str     0x0000a7b8       0x12 ../LibA5T1000/gcc\libsptutil.a(pack_str.o)
                                0x1b0 (size before relaxing)
 .debug_str     0x0000a7ca       0x10 ../LibA5T1000/gcc\libsptutil.a(peek_b.o)
                                0x156 (size before relaxing)
 .debug_str     0x0000a7da       0x1f ../LibA5T1000/gcc\libsptutil.a(set_pptr.o)
                                0x182 (size before relaxing)
 .debug_str     0x0000a7f9        0xe ../LibA5T1000/gcc\libsptutil.a(skpb.o)
                                0x15a (size before relaxing)
 .debug_str     0x0000a807       0x19 ../LibA5T1000/gcc\libsptutil.a(split.o)
                                0x163 (size before relaxing)
 .debug_str     0x0000a820       0x11 ../LibA5T1000/gcc\libsptutil.a(split_d.o)
                                0x1b9 (size before relaxing)
 .debug_str     0x0000a831       0x11 ../LibA5T1000/gcc\libsptutil.a(val2bcd.o)
                                0x147 (size before relaxing)
 .debug_str     0x0000a842       0x12 ../LibA5T1000/gcc\libsptutil.a(hexdigit.o)
                                0x150 (size before relaxing)
 .debug_str     0x0000a854      0x36d ../LibA5T1000/gcc\libspglib.a(GIFLib.o)
                               0x23d4 (size before relaxing)
 .debug_str     0x0000abc1      0x198 ../LibA5T1000/gcc\libspglib.a(GLib.o)
                               0x223e (size before relaxing)

.comment        0x00000000       0x70
 .comment       0x00000000       0x70 obj/Adjust.o
                                 0x71 (size before relaxing)
 .comment       0x00000000       0x71 obj/Auth.o
 .comment       0x00000000       0x71 obj/Chkoptn.o
 .comment       0x00000000       0x71 obj/Constant.o
 .comment       0x00000000       0x71 obj/Coremain.o
 .comment       0x00000000       0x71 obj/DemoTest.o
 .comment       0x00000000       0x71 obj/Ecr.o
 .comment       0x00000000       0x71 obj/Func.o
 .comment       0x00000000       0x71 obj/Offline.o
 .comment       0x00000000       0x71 obj/Others.o
 .comment       0x00000000       0x71 obj/ParamTest.o
 .comment       0x00000000       0x71 obj/Print.o
 .comment       0x00000000       0x71 obj/Reversal.o
 .comment       0x00000000       0x71 obj/Sale.o
 .comment       0x00000000       0x71 obj/SaleOffl.o
 .comment       0x00000000       0x71 obj/Settle.o
 .comment       0x00000000       0x71 obj/Sysutil.o
 .comment       0x00000000       0x71 obj/TLVUtil.o
 .comment       0x00000000       0x71 obj/TestCfg.o
 .comment       0x00000000       0x71 obj/Void.o
 .comment       0x00000000       0x71 obj/auxcom.o
 .comment       0x00000000       0x71 obj/brdrtest.o
 .comment       0x00000000       0x71 obj/camtest.o
 .comment       0x00000000       0x71 obj/corevar.o
 .comment       0x00000000       0x71 obj/ctltrans.o
 .comment       0x00000000       0x71 obj/debugstis.o
 .comment       0x00000000       0x71 obj/emvl2cfg.o
 .comment       0x00000000       0x71 obj/emvtrans.o
 .comment       0x00000000       0x71 obj/hardware.o
 .comment       0x00000000       0x71 obj/hostmsg.o
 .comment       0x00000000       0x71 obj/iface.o
 .comment       0x00000000       0x71 obj/iface_util.o
 .comment       0x00000000       0x71 obj/input.o
 .comment       0x00000000       0x71 obj/keytrans.o
 .comment       0x00000000       0x71 obj/lptutil.o
 .comment       0x00000000       0x71 obj/main.o
 .comment       0x00000000       0x71 obj/menu.o
 .comment       0x00000000       0x71 obj/message.o
 .comment       0x00000000       0x71 obj/network.o
 .comment       0x00000000       0x71 obj/record.o
 .comment       0x00000000       0x71 obj/refund.o
 .comment       0x00000000       0x71 obj/testrans.o
 .comment       0x00000000       0x71 obj/toggle.o
 .comment       0x00000000       0x71 obj/tpadtest.o
 .comment       0x00000000       0x71 obj/tranutil.o
 .comment       0x00000000       0x71 obj/wavecom.o
 .comment       0x00000000       0x71 obj/cstartup.o
 .comment       0x00000000       0x71 obj/expect_send.o
 .comment       0x00000000       0x71 obj/libc.o
 .comment       0x00000000       0x71 ../LibA5T1000/gcc\libsyscall.a(app_call.o)
 .comment       0x00000000       0x71 ../LibA5T1000/gcc\libsyscall.a(sys_call.o)
 .comment       0x00000000       0x71 ../LibA5T1000/gcc\libbasecall.a(base_call.o)
 .comment       0x00000000       0x71 ../LibA5T1000/gcc\libsptutil.a(bcd2bin.o)
 .comment       0x00000000       0x71 ../LibA5T1000/gcc\libsptutil.a(bcd2val.o)
 .comment       0x00000000       0x71 ../LibA5T1000/gcc\libsptutil.a(bcdadd.o)
 .comment       0x00000000       0x71 ../LibA5T1000/gcc\libsptutil.a(bcdinc.o)
 .comment       0x00000000       0x71 ../LibA5T1000/gcc\libsptutil.a(bcdsub.o)
 .comment       0x00000000       0x71 ../LibA5T1000/gcc\libsptutil.a(bin2bcd.o)
 .comment       0x00000000       0x71 ../LibA5T1000/gcc\libsptutil.a(bin2dec.o)
 .comment       0x00000000       0x71 ../LibA5T1000/gcc\libsptutil.a(bindec_d.o)
 .comment       0x00000000       0x71 ../LibA5T1000/gcc\libsptutil.a(chkdok.o)
 .comment       0x00000000       0x71 ../LibA5T1000/gcc\libsptutil.a(compress.o)
 .comment       0x00000000       0x71 ../LibA5T1000/gcc\libsptutil.a(crcccitt.o)
 .comment       0x00000000       0x71 ../LibA5T1000/gcc\libsptutil.a(dbin2asc.o)
 .comment       0x00000000       0x71 ../LibA5T1000/gcc\libsptutil.a(dbin2bcd.o)
 .comment       0x00000000       0x71 ../LibA5T1000/gcc\libsptutil.a(decbin4b.o)
 .comment       0x00000000       0x71 ../LibA5T1000/gcc\libsptutil.a(decbin8b.o)
 .comment       0x00000000       0x71 ../LibA5T1000/gcc\libsptutil.a(fndb.o)
 .comment       0x00000000       0x71 ../LibA5T1000/gcc\libsptutil.a(get_byte.o)
 .comment       0x00000000       0x71 ../LibA5T1000/gcc\libsptutil.a(get_dist.o)
 .comment       0x00000000       0x71 ../LibA5T1000/gcc\libsptutil.a(get_mem.o)
 .comment       0x00000000       0x71 ../LibA5T1000/gcc\libsptutil.a(get_pptr.o)
 .comment       0x00000000       0x71 ../LibA5T1000/gcc\libsptutil.a(hex_val.o)
 .comment       0x00000000       0x71 ../LibA5T1000/gcc\libsptutil.a(inc_pptr.o)
 .comment       0x00000000       0x71 ../LibA5T1000/gcc\libsptutil.a(isbdigit.o)
 .comment       0x00000000       0x71 ../LibA5T1000/gcc\libsptutil.a(pack_b.o)
 .comment       0x00000000       0x71 ../LibA5T1000/gcc\libsptutil.a(pack_lf.o)
 .comment       0x00000000       0x71 ../LibA5T1000/gcc\libsptutil.a(pack_lfs.o)
 .comment       0x00000000       0x71 ../LibA5T1000/gcc\libsptutil.a(pack_mem.o)
 .comment       0x00000000       0x71 ../LibA5T1000/gcc\libsptutil.a(pack_nb.o)
 .comment       0x00000000       0x71 ../LibA5T1000/gcc\libsptutil.a(pack_spc.o)
 .comment       0x00000000       0x71 ../LibA5T1000/gcc\libsptutil.a(pack_str.o)
 .comment       0x00000000       0x71 ../LibA5T1000/gcc\libsptutil.a(peek_b.o)
 .comment       0x00000000       0x71 ../LibA5T1000/gcc\libsptutil.a(set_pptr.o)
 .comment       0x00000000       0x71 ../LibA5T1000/gcc\libsptutil.a(skpb.o)
 .comment       0x00000000       0x71 ../LibA5T1000/gcc\libsptutil.a(split.o)
 .comment       0x00000000       0x71 ../LibA5T1000/gcc\libsptutil.a(split_d.o)
 .comment       0x00000000       0x71 ../LibA5T1000/gcc\libsptutil.a(val2bcd.o)
 .comment       0x00000000       0x71 ../LibA5T1000/gcc\libsptutil.a(hexdigit.o)
 .comment       0x00000000       0x71 ../LibA5T1000/gcc\libspglib.a(GIFLib.o)
 .comment       0x00000000       0x71 ../LibA5T1000/gcc\libspglib.a(GLib.o)

.ARM.attributes
                0x00000000       0x37
 .ARM.attributes
                0x00000000       0x37 obj/Adjust.o
 .ARM.attributes
                0x00000037       0x37 obj/Auth.o
 .ARM.attributes
                0x0000006e       0x37 obj/Chkoptn.o
 .ARM.attributes
                0x000000a5       0x37 obj/Constant.o
 .ARM.attributes
                0x000000dc       0x37 obj/Coremain.o
 .ARM.attributes
                0x00000113       0x37 obj/DemoTest.o
 .ARM.attributes
                0x0000014a       0x37 obj/Ecr.o
 .ARM.attributes
                0x00000181       0x37 obj/Func.o
 .ARM.attributes
                0x000001b8       0x37 obj/Offline.o
 .ARM.attributes
                0x000001ef       0x37 obj/Others.o
 .ARM.attributes
                0x00000226       0x37 obj/ParamTest.o
 .ARM.attributes
                0x0000025d       0x37 obj/Print.o
 .ARM.attributes
                0x00000294       0x37 obj/Reversal.o
 .ARM.attributes
                0x000002cb       0x37 obj/Sale.o
 .ARM.attributes
                0x00000302       0x37 obj/SaleOffl.o
 .ARM.attributes
                0x00000339       0x37 obj/Settle.o
 .ARM.attributes
                0x00000370       0x37 obj/Sysutil.o
 .ARM.attributes
                0x000003a7       0x37 obj/TLVUtil.o
 .ARM.attributes
                0x000003de       0x37 obj/TestCfg.o
 .ARM.attributes
                0x00000415       0x37 obj/Void.o
 .ARM.attributes
                0x0000044c       0x37 obj/auxcom.o
 .ARM.attributes
                0x00000483       0x37 obj/brdrtest.o
 .ARM.attributes
                0x000004ba       0x37 obj/camtest.o
 .ARM.attributes
                0x000004f1       0x37 obj/corevar.o
 .ARM.attributes
                0x00000528       0x37 obj/ctltrans.o
 .ARM.attributes
                0x0000055f       0x37 obj/debugstis.o
 .ARM.attributes
                0x00000596       0x37 obj/emvl2cfg.o
 .ARM.attributes
                0x000005cd       0x37 obj/emvtrans.o
 .ARM.attributes
                0x00000604       0x37 obj/hardware.o
 .ARM.attributes
                0x0000063b       0x37 obj/hostmsg.o
 .ARM.attributes
                0x00000672       0x37 obj/iface.o
 .ARM.attributes
                0x000006a9       0x37 obj/iface_util.o
 .ARM.attributes
                0x000006e0       0x37 obj/input.o
 .ARM.attributes
                0x00000717       0x37 obj/keytrans.o
 .ARM.attributes
                0x0000074e       0x37 obj/lptutil.o
 .ARM.attributes
                0x00000785       0x37 obj/main.o
 .ARM.attributes
                0x000007bc       0x37 obj/menu.o
 .ARM.attributes
                0x000007f3       0x37 obj/message.o
 .ARM.attributes
                0x0000082a       0x37 obj/network.o
 .ARM.attributes
                0x00000861       0x37 obj/record.o
 .ARM.attributes
                0x00000898       0x37 obj/refund.o
 .ARM.attributes
                0x000008cf       0x37 obj/testrans.o
 .ARM.attributes
                0x00000906       0x37 obj/toggle.o
 .ARM.attributes
                0x0000093d       0x37 obj/tpadtest.o
 .ARM.attributes
                0x00000974       0x37 obj/tranutil.o
 .ARM.attributes
                0x000009ab       0x37 obj/wavecom.o
 .ARM.attributes
                0x000009e2       0x37 obj/cstartup.o
 .ARM.attributes
                0x00000a19       0x37 obj/expect_send.o
 .ARM.attributes
                0x00000a50       0x37 obj/libc.o
 .ARM.attributes
                0x00000a87       0x37 ../LibA5T1000/gcc\libsyscall.a(app_call.o)
 .ARM.attributes
                0x00000abe       0x37 ../LibA5T1000/gcc\libsyscall.a(sys_call.o)
 .ARM.attributes
                0x00000af5       0x37 ../LibA5T1000/gcc\libbasecall.a(base_call.o)
 .ARM.attributes
                0x00000b2c       0x37 ../LibA5T1000/gcc\libsptutil.a(bcd2bin.o)
 .ARM.attributes
                0x00000b63       0x37 ../LibA5T1000/gcc\libsptutil.a(bcd2val.o)
 .ARM.attributes
                0x00000b9a       0x37 ../LibA5T1000/gcc\libsptutil.a(bcdadd.o)
 .ARM.attributes
                0x00000bd1       0x37 ../LibA5T1000/gcc\libsptutil.a(bcdinc.o)
 .ARM.attributes
                0x00000c08       0x37 ../LibA5T1000/gcc\libsptutil.a(bcdsub.o)
 .ARM.attributes
                0x00000c3f       0x37 ../LibA5T1000/gcc\libsptutil.a(bin2bcd.o)
 .ARM.attributes
                0x00000c76       0x37 ../LibA5T1000/gcc\libsptutil.a(bin2dec.o)
 .ARM.attributes
                0x00000cad       0x37 ../LibA5T1000/gcc\libsptutil.a(bindec_d.o)
 .ARM.attributes
                0x00000ce4       0x37 ../LibA5T1000/gcc\libsptutil.a(chkdok.o)
 .ARM.attributes
                0x00000d1b       0x37 ../LibA5T1000/gcc\libsptutil.a(compress.o)
 .ARM.attributes
                0x00000d52       0x37 ../LibA5T1000/gcc\libsptutil.a(crcccitt.o)
 .ARM.attributes
                0x00000d89       0x37 ../LibA5T1000/gcc\libsptutil.a(dbin2asc.o)
 .ARM.attributes
                0x00000dc0       0x37 ../LibA5T1000/gcc\libsptutil.a(dbin2bcd.o)
 .ARM.attributes
                0x00000df7       0x37 ../LibA5T1000/gcc\libsptutil.a(decbin4b.o)
 .ARM.attributes
                0x00000e2e       0x37 ../LibA5T1000/gcc\libsptutil.a(decbin8b.o)
 .ARM.attributes
                0x00000e65       0x37 ../LibA5T1000/gcc\libsptutil.a(fndb.o)
 .ARM.attributes
                0x00000e9c       0x37 ../LibA5T1000/gcc\libsptutil.a(get_byte.o)
 .ARM.attributes
                0x00000ed3       0x37 ../LibA5T1000/gcc\libsptutil.a(get_dist.o)
 .ARM.attributes
                0x00000f0a       0x37 ../LibA5T1000/gcc\libsptutil.a(get_mem.o)
 .ARM.attributes
                0x00000f41       0x37 ../LibA5T1000/gcc\libsptutil.a(get_pptr.o)
 .ARM.attributes
                0x00000f78       0x37 ../LibA5T1000/gcc\libsptutil.a(hex_val.o)
 .ARM.attributes
                0x00000faf       0x37 ../LibA5T1000/gcc\libsptutil.a(inc_pptr.o)
 .ARM.attributes
                0x00000fe6       0x37 ../LibA5T1000/gcc\libsptutil.a(isbdigit.o)
 .ARM.attributes
                0x0000101d       0x37 ../LibA5T1000/gcc\libsptutil.a(pack_b.o)
 .ARM.attributes
                0x00001054       0x37 ../LibA5T1000/gcc\libsptutil.a(pack_lf.o)
 .ARM.attributes
                0x0000108b       0x37 ../LibA5T1000/gcc\libsptutil.a(pack_lfs.o)
 .ARM.attributes
                0x000010c2       0x37 ../LibA5T1000/gcc\libsptutil.a(pack_mem.o)
 .ARM.attributes
                0x000010f9       0x37 ../LibA5T1000/gcc\libsptutil.a(pack_nb.o)
 .ARM.attributes
                0x00001130       0x37 ../LibA5T1000/gcc\libsptutil.a(pack_spc.o)
 .ARM.attributes
                0x00001167       0x37 ../LibA5T1000/gcc\libsptutil.a(pack_str.o)
 .ARM.attributes
                0x0000119e       0x37 ../LibA5T1000/gcc\libsptutil.a(peek_b.o)
 .ARM.attributes
                0x000011d5       0x37 ../LibA5T1000/gcc\libsptutil.a(set_pptr.o)
 .ARM.attributes
                0x0000120c       0x37 ../LibA5T1000/gcc\libsptutil.a(skpb.o)
 .ARM.attributes
                0x00001243       0x37 ../LibA5T1000/gcc\libsptutil.a(split.o)
 .ARM.attributes
                0x0000127a       0x37 ../LibA5T1000/gcc\libsptutil.a(split_d.o)
 .ARM.attributes
                0x000012b1       0x37 ../LibA5T1000/gcc\libsptutil.a(val2bcd.o)
 .ARM.attributes
                0x000012e8       0x37 ../LibA5T1000/gcc\libsptutil.a(hexdigit.o)
 .ARM.attributes
                0x0000131f       0x37 ../LibA5T1000/gcc\libspglib.a(GIFLib.o)
 .ARM.attributes
                0x00001356       0x37 ../LibA5T1000/gcc\libspglib.a(GLib.o)
 .ARM.attributes
                0x0000138d       0x30 C:\DevTools\gcc_v49_2014q4/arm-none-eabi/lib/thumb\libc.a(lib_a-memcmp.o)
 .ARM.attributes
                0x000013bd       0x30 C:\DevTools\gcc_v49_2014q4/arm-none-eabi/lib/thumb\libc.a(lib_a-memcpy.o)
 .ARM.attributes
                0x000013ed       0x30 C:\DevTools\gcc_v49_2014q4/arm-none-eabi/lib/thumb\libc.a(lib_a-memmove.o)
 .ARM.attributes
                0x0000141d       0x30 C:\DevTools\gcc_v49_2014q4/arm-none-eabi/lib/thumb\libc.a(lib_a-memset.o)
 .ARM.attributes
                0x0000144d       0x30 C:\DevTools\gcc_v49_2014q4/arm-none-eabi/lib/thumb\libc.a(lib_a-puts.o)
 .ARM.attributes
                0x0000147d       0x30 C:\DevTools\gcc_v49_2014q4/arm-none-eabi/lib/thumb\libc.a(lib_a-strcat.o)
 .ARM.attributes
                0x000014ad       0x30 C:\DevTools\gcc_v49_2014q4/arm-none-eabi/lib/thumb\libc.a(lib_a-strchr.o)
 .ARM.attributes
                0x000014dd       0x30 C:\DevTools\gcc_v49_2014q4/arm-none-eabi/lib/thumb\libc.a(lib_a-strcpy.o)
 .ARM.attributes
                0x0000150d       0x30 C:\DevTools\gcc_v49_2014q4/arm-none-eabi/lib/thumb\libc.a(lib_a-strlen.o)
 .ARM.attributes
                0x0000153d       0x30 C:\DevTools\gcc_v49_2014q4/arm-none-eabi/lib/thumb\libc.a(lib_a-strstr.o)
 .ARM.attributes
                0x0000156d       0x30 C:\DevTools\gcc_v49_2014q4/arm-none-eabi/lib/thumb\libc.a(lib_a-fvwrite.o)
 .ARM.attributes
                0x0000159d       0x30 C:\DevTools\gcc_v49_2014q4/arm-none-eabi/lib/thumb\libc.a(lib_a-impure.o)
 .ARM.attributes
                0x000015cd       0x30 C:\DevTools\gcc_v49_2014q4/arm-none-eabi/lib/thumb\libc.a(lib_a-mallocr.o)
 .ARM.attributes
                0x000015fd       0x30 C:\DevTools\gcc_v49_2014q4/arm-none-eabi/lib/thumb\libc.a(lib_a-memchr.o)
 .ARM.attributes
                0x0000162d       0x30 C:\DevTools\gcc_v49_2014q4/arm-none-eabi/lib/thumb\libc.a(lib_a-mlock.o)
 .ARM.attributes
                0x0000165d       0x30 C:\DevTools\gcc_v49_2014q4/arm-none-eabi/lib/thumb\libc.a(lib_a-reallocr.o)
 .ARM.attributes
                0x0000168d       0x30 C:\DevTools\gcc_v49_2014q4/arm-none-eabi/lib/thumb\libc.a(lib_a-wsetup.o)
 .ARM.attributes
                0x000016bd       0x30 C:\DevTools\gcc_v49_2014q4/arm-none-eabi/lib/thumb\libc.a(lib_a-fflush.o)
 .ARM.attributes
                0x000016ed       0x30 C:\DevTools\gcc_v49_2014q4/arm-none-eabi/lib/thumb\libc.a(lib_a-findfp.o)
 .ARM.attributes
                0x0000171d       0x30 C:\DevTools\gcc_v49_2014q4/arm-none-eabi/lib/thumb\libc.a(lib_a-freer.o)
 .ARM.attributes
                0x0000174d       0x30 C:\DevTools\gcc_v49_2014q4/arm-none-eabi/lib/thumb\libc.a(lib_a-fwalk.o)
 .ARM.attributes
                0x0000177d       0x30 C:\DevTools\gcc_v49_2014q4/arm-none-eabi/lib/thumb\libc.a(lib_a-makebuf.o)
 .ARM.attributes
                0x000017ad       0x30 C:\DevTools\gcc_v49_2014q4/arm-none-eabi/lib/thumb\libc.a(lib_a-stdio.o)
 .ARM.attributes
                0x000017dd       0x30 C:\DevTools\gcc_v49_2014q4/arm-none-eabi/lib/thumb\libc.a(lib_a-fclose.o)
 .ARM.attributes
                0x0000180d       0x30 C:\DevTools\gcc_v49_2014q4/arm-none-eabi/lib/thumb\libc.a(lib_a-isattyr.o)
 .ARM.attributes
                0x0000183d       0x30 C:\DevTools\gcc_v49_2014q4/arm-none-eabi/lib/thumb\libc.a(lib_a-reent.o)
 .ARM.attributes
                0x0000186d       0x30 C:\DevTools\gcc_v49_2014q4/arm-none-eabi/lib/thumb\libnosys.a(isatty.o)
 .ARM.attributes
                0x0000189d       0x30 C:\DevTools\gcc_v49_2014q4/arm-none-eabi/lib/thumb\libm.a(lib_a-w_sqrt.o)
 .ARM.attributes
                0x000018cd       0x30 C:\DevTools\gcc_v49_2014q4/arm-none-eabi/lib/thumb\libm.a(lib_a-e_sqrt.o)
 .ARM.attributes
                0x000018fd       0x30 C:\DevTools\gcc_v49_2014q4/arm-none-eabi/lib/thumb\libm.a(lib_a-s_fpclassify.o)
 .ARM.attributes
                0x0000192d       0x30 C:\DevTools\gcc_v49_2014q4/arm-none-eabi/lib/thumb\libm.a(lib_a-s_lib_ver.o)
 .ARM.attributes
                0x0000195d       0x30 C:\DevTools\gcc_v49_2014q4/arm-none-eabi/lib/thumb\libm.a(lib_a-s_matherr.o)
 .ARM.attributes
                0x0000198d       0x18 c:/devtools/gcc_v49_2014q4/bin/../lib/gcc/arm-none-eabi/4.9.3\libgcc.a(_udivsi3.o)
 .ARM.attributes
                0x000019a5       0x18 c:/devtools/gcc_v49_2014q4/bin/../lib/gcc/arm-none-eabi/4.9.3\libgcc.a(_divsi3.o)
 .ARM.attributes
                0x000019bd       0x18 c:/devtools/gcc_v49_2014q4/bin/../lib/gcc/arm-none-eabi/4.9.3\libgcc.a(_dvmd_tls.o)
 .ARM.attributes
                0x000019d5       0x18 c:/devtools/gcc_v49_2014q4/bin/../lib/gcc/arm-none-eabi/4.9.3\libgcc.a(_arm_addsubdf3.o)
 .ARM.attributes
                0x000019ed       0x18 c:/devtools/gcc_v49_2014q4/bin/../lib/gcc/arm-none-eabi/4.9.3\libgcc.a(_arm_muldivdf3.o)
 .ARM.attributes
                0x00001a05       0x18 c:/devtools/gcc_v49_2014q4/bin/../lib/gcc/arm-none-eabi/4.9.3\libgcc.a(_arm_cmpdf2.o)
 .ARM.attributes
                0x00001a1d       0x18 c:/devtools/gcc_v49_2014q4/bin/../lib/gcc/arm-none-eabi/4.9.3\libgcc.a(_arm_fixunsdfsi.o)
 .ARM.attributes
                0x00001a35       0x18 c:/devtools/gcc_v49_2014q4/bin/../lib/gcc/arm-none-eabi/4.9.3\libgcc.a(_aeabi_ldivmod.o)
 .ARM.attributes
                0x00001a4d       0x18 c:/devtools/gcc_v49_2014q4/bin/../lib/gcc/arm-none-eabi/4.9.3\libgcc.a(_aeabi_uldivmod.o)
 .ARM.attributes
                0x00001a65       0x30 c:/devtools/gcc_v49_2014q4/bin/../lib/gcc/arm-none-eabi/4.9.3\libgcc.a(_fixdfdi.o)
 .ARM.attributes
                0x00001a95       0x30 c:/devtools/gcc_v49_2014q4/bin/../lib/gcc/arm-none-eabi/4.9.3\libgcc.a(_fixunsdfdi.o)
 .ARM.attributes
                0x00001ac5       0x30 c:/devtools/gcc_v49_2014q4/bin/../lib/gcc/arm-none-eabi/4.9.3\libgcc.a(bpabi.o)
 .ARM.attributes
                0x00001af5       0x30 c:/devtools/gcc_v49_2014q4/bin/../lib/gcc/arm-none-eabi/4.9.3\libgcc.a(_divdi3.o)
 .ARM.attributes
                0x00001b25       0x30 c:/devtools/gcc_v49_2014q4/bin/../lib/gcc/arm-none-eabi/4.9.3\libgcc.a(_udivdi3.o)
 .ARM.attributes
                0x00001b55       0x18 c:/devtools/gcc_v49_2014q4/bin/../lib/gcc/arm-none-eabi/4.9.3\libgcc.a(_clzdi2.o)
 .ARM.attributes
                0x00001b6d       0x18 c:/devtools/gcc_v49_2014q4/bin/../lib/gcc/arm-none-eabi/4.9.3\libgcc.a(_clzsi2.o)

.debug_frame    0x00000000     0x5794
 .debug_frame   0x00000000       0x7c obj/Adjust.o
 .debug_frame   0x0000007c       0x38 obj/Auth.o
 .debug_frame   0x000000b4      0x2e8 obj/Chkoptn.o
 .debug_frame   0x0000039c       0x20 obj/Constant.o
 .debug_frame   0x000003bc      0x114 obj/Coremain.o
 .debug_frame   0x000004d0      0x15c obj/Ecr.o
 .debug_frame   0x0000062c      0x228 obj/Func.o
 .debug_frame   0x00000854       0x3c obj/Offline.o
 .debug_frame   0x00000890       0xc8 obj/Others.o
 .debug_frame   0x00000958       0xf8 obj/ParamTest.o
 .debug_frame   0x00000a50      0x20c obj/Print.o
 .debug_frame   0x00000c5c       0x38 obj/Reversal.o
 .debug_frame   0x00000c94       0x94 obj/Sale.o
 .debug_frame   0x00000d28       0x30 obj/SaleOffl.o
 .debug_frame   0x00000d58       0xf0 obj/Settle.o
 .debug_frame   0x00000e48      0x34c obj/Sysutil.o
 .debug_frame   0x00001194      0x17c obj/TLVUtil.o
 .debug_frame   0x00001310      0x1ac obj/TestCfg.o
 .debug_frame   0x000014bc       0x44 obj/Void.o
 .debug_frame   0x00001500      0x11c obj/auxcom.o
 .debug_frame   0x0000161c       0x40 obj/brdrtest.o
 .debug_frame   0x0000165c      0x1c0 obj/camtest.o
 .debug_frame   0x0000181c      0x27c obj/corevar.o
 .debug_frame   0x00001a98      0x3f0 obj/ctltrans.o
 .debug_frame   0x00001e88       0x40 obj/debugstis.o
 .debug_frame   0x00001ec8      0x21c obj/emvtrans.o
 .debug_frame   0x000020e4      0x1c0 obj/hardware.o
 .debug_frame   0x000022a4       0x88 obj/hostmsg.o
 .debug_frame   0x0000232c      0x2a8 obj/iface.o
 .debug_frame   0x000025d4      0x100 obj/iface_util.o
 .debug_frame   0x000026d4      0x2e0 obj/input.o
 .debug_frame   0x000029b4      0x1f8 obj/keytrans.o
 .debug_frame   0x00002bac      0x1e4 obj/lptutil.o
 .debug_frame   0x00002d90       0x38 obj/main.o
 .debug_frame   0x00002dc8       0x48 obj/menu.o
 .debug_frame   0x00002e10       0x20 obj/message.o
 .debug_frame   0x00002e30      0x300 obj/network.o
 .debug_frame   0x00003130       0xfc obj/record.o
 .debug_frame   0x0000322c       0x38 obj/refund.o
 .debug_frame   0x00003264       0x38 obj/testrans.o
 .debug_frame   0x0000329c       0x48 obj/toggle.o
 .debug_frame   0x000032e4      0x1c0 obj/tpadtest.o
 .debug_frame   0x000034a4      0x580 obj/tranutil.o
 .debug_frame   0x00003a24      0x5a0 obj/wavecom.o
 .debug_frame   0x00003fc4       0x58 obj/cstartup.o
 .debug_frame   0x0000401c       0x68 obj/expect_send.o
 .debug_frame   0x00004084      0x1d4 obj/libc.o
 .debug_frame   0x00004258       0x2c ../LibA5T1000/gcc\libsyscall.a(app_call.o)
 .debug_frame   0x00004284       0x50 ../LibA5T1000/gcc\libsyscall.a(sys_call.o)
 .debug_frame   0x000042d4       0x50 ../LibA5T1000/gcc\libbasecall.a(base_call.o)
 .debug_frame   0x00004324       0x58 ../LibA5T1000/gcc\libsptutil.a(bcd2bin.o)
 .debug_frame   0x0000437c       0x20 ../LibA5T1000/gcc\libsptutil.a(bcd2val.o)
 .debug_frame   0x0000439c       0x38 ../LibA5T1000/gcc\libsptutil.a(bcdadd.o)
 .debug_frame   0x000043d4       0x30 ../LibA5T1000/gcc\libsptutil.a(bcdinc.o)
 .debug_frame   0x00004404       0x38 ../LibA5T1000/gcc\libsptutil.a(bcdsub.o)
 .debug_frame   0x0000443c       0x3c ../LibA5T1000/gcc\libsptutil.a(bin2bcd.o)
 .debug_frame   0x00004478       0x30 ../LibA5T1000/gcc\libsptutil.a(bin2dec.o)
 .debug_frame   0x000044a8       0x2c ../LibA5T1000/gcc\libsptutil.a(bindec_d.o)
 .debug_frame   0x000044d4       0x2c ../LibA5T1000/gcc\libsptutil.a(chkdok.o)
 .debug_frame   0x00004500       0x30 ../LibA5T1000/gcc\libsptutil.a(compress.o)
 .debug_frame   0x00004530       0x3c ../LibA5T1000/gcc\libsptutil.a(crcccitt.o)
 .debug_frame   0x0000456c       0x38 ../LibA5T1000/gcc\libsptutil.a(dbin2asc.o)
 .debug_frame   0x000045a4       0x3c ../LibA5T1000/gcc\libsptutil.a(dbin2bcd.o)
 .debug_frame   0x000045e0       0x2c ../LibA5T1000/gcc\libsptutil.a(decbin4b.o)
 .debug_frame   0x0000460c       0x34 ../LibA5T1000/gcc\libsptutil.a(decbin8b.o)
 .debug_frame   0x00004640       0x2c ../LibA5T1000/gcc\libsptutil.a(fndb.o)
 .debug_frame   0x0000466c       0x78 ../LibA5T1000/gcc\libsptutil.a(get_byte.o)
 .debug_frame   0x000046e4       0x20 ../LibA5T1000/gcc\libsptutil.a(get_dist.o)
 .debug_frame   0x00004704       0x30 ../LibA5T1000/gcc\libsptutil.a(get_mem.o)
 .debug_frame   0x00004734       0x20 ../LibA5T1000/gcc\libsptutil.a(get_pptr.o)
 .debug_frame   0x00004754       0x20 ../LibA5T1000/gcc\libsptutil.a(hex_val.o)
 .debug_frame   0x00004774       0x2c ../LibA5T1000/gcc\libsptutil.a(inc_pptr.o)
 .debug_frame   0x000047a0       0x20 ../LibA5T1000/gcc\libsptutil.a(isbdigit.o)
 .debug_frame   0x000047c0       0x9c ../LibA5T1000/gcc\libsptutil.a(pack_b.o)
 .debug_frame   0x0000485c       0x20 ../LibA5T1000/gcc\libsptutil.a(pack_lf.o)
 .debug_frame   0x0000487c       0x20 ../LibA5T1000/gcc\libsptutil.a(pack_lfs.o)
 .debug_frame   0x0000489c       0x30 ../LibA5T1000/gcc\libsptutil.a(pack_mem.o)
 .debug_frame   0x000048cc       0x30 ../LibA5T1000/gcc\libsptutil.a(pack_nb.o)
 .debug_frame   0x000048fc       0x20 ../LibA5T1000/gcc\libsptutil.a(pack_spc.o)
 .debug_frame   0x0000491c       0x34 ../LibA5T1000/gcc\libsptutil.a(pack_str.o)
 .debug_frame   0x00004950       0x20 ../LibA5T1000/gcc\libsptutil.a(peek_b.o)
 .debug_frame   0x00004970       0x30 ../LibA5T1000/gcc\libsptutil.a(set_pptr.o)
 .debug_frame   0x000049a0       0x2c ../LibA5T1000/gcc\libsptutil.a(skpb.o)
 .debug_frame   0x000049cc       0x30 ../LibA5T1000/gcc\libsptutil.a(split.o)
 .debug_frame   0x000049fc       0x38 ../LibA5T1000/gcc\libsptutil.a(split_d.o)
 .debug_frame   0x00004a34       0x30 ../LibA5T1000/gcc\libsptutil.a(val2bcd.o)
 .debug_frame   0x00004a64       0x20 ../LibA5T1000/gcc\libsptutil.a(hexdigit.o)
 .debug_frame   0x00004a84      0x178 ../LibA5T1000/gcc\libspglib.a(GIFLib.o)
 .debug_frame   0x00004bfc      0x184 ../LibA5T1000/gcc\libspglib.a(GLib.o)
 .debug_frame   0x00004d80       0x2c C:\DevTools\gcc_v49_2014q4/arm-none-eabi/lib/thumb\libc.a(lib_a-memcmp.o)
 .debug_frame   0x00004dac       0x2c C:\DevTools\gcc_v49_2014q4/arm-none-eabi/lib/thumb\libc.a(lib_a-memcpy.o)
 .debug_frame   0x00004dd8       0x2c C:\DevTools\gcc_v49_2014q4/arm-none-eabi/lib/thumb\libc.a(lib_a-memmove.o)
 .debug_frame   0x00004e04       0x2c C:\DevTools\gcc_v49_2014q4/arm-none-eabi/lib/thumb\libc.a(lib_a-memset.o)
 .debug_frame   0x00004e30       0x44 C:\DevTools\gcc_v49_2014q4/arm-none-eabi/lib/thumb\libc.a(lib_a-puts.o)
 .debug_frame   0x00004e74       0x2c C:\DevTools\gcc_v49_2014q4/arm-none-eabi/lib/thumb\libc.a(lib_a-strcat.o)
 .debug_frame   0x00004ea0       0x2c C:\DevTools\gcc_v49_2014q4/arm-none-eabi/lib/thumb\libc.a(lib_a-strchr.o)
 .debug_frame   0x00004ecc       0x20 C:\DevTools\gcc_v49_2014q4/arm-none-eabi/lib/thumb\libc.a(lib_a-strcpy.o)
 .debug_frame   0x00004eec       0x28 C:\DevTools\gcc_v49_2014q4/arm-none-eabi/lib/thumb\libc.a(lib_a-strlen.o)
 .debug_frame   0x00004f14       0x8c C:\DevTools\gcc_v49_2014q4/arm-none-eabi/lib/thumb\libc.a(lib_a-strstr.o)
 .debug_frame   0x00004fa0       0x3c C:\DevTools\gcc_v49_2014q4/arm-none-eabi/lib/thumb\libc.a(lib_a-fvwrite.o)
 .debug_frame   0x00004fdc       0x3c C:\DevTools\gcc_v49_2014q4/arm-none-eabi/lib/thumb\libc.a(lib_a-mallocr.o)
 .debug_frame   0x00005018       0x2c C:\DevTools\gcc_v49_2014q4/arm-none-eabi/lib/thumb\libc.a(lib_a-memchr.o)
 .debug_frame   0x00005044       0x30 C:\DevTools\gcc_v49_2014q4/arm-none-eabi/lib/thumb\libc.a(lib_a-mlock.o)
 .debug_frame   0x00005074       0x3c C:\DevTools\gcc_v49_2014q4/arm-none-eabi/lib/thumb\libc.a(lib_a-reallocr.o)
 .debug_frame   0x000050b0       0x2c C:\DevTools\gcc_v49_2014q4/arm-none-eabi/lib/thumb\libc.a(lib_a-wsetup.o)
 .debug_frame   0x000050dc       0x68 C:\DevTools\gcc_v49_2014q4/arm-none-eabi/lib/thumb\libc.a(lib_a-fflush.o)
 .debug_frame   0x00005144      0x14c C:\DevTools\gcc_v49_2014q4/arm-none-eabi/lib/thumb\libc.a(lib_a-findfp.o)
 .debug_frame   0x00005290       0x54 C:\DevTools\gcc_v49_2014q4/arm-none-eabi/lib/thumb\libc.a(lib_a-freer.o)
 .debug_frame   0x000052e4       0x5c C:\DevTools\gcc_v49_2014q4/arm-none-eabi/lib/thumb\libc.a(lib_a-fwalk.o)
 .debug_frame   0x00005340       0x38 C:\DevTools\gcc_v49_2014q4/arm-none-eabi/lib/thumb\libc.a(lib_a-makebuf.o)
 .debug_frame   0x00005378       0x90 C:\DevTools\gcc_v49_2014q4/arm-none-eabi/lib/thumb\libc.a(lib_a-stdio.o)
 .debug_frame   0x00005408       0x44 C:\DevTools\gcc_v49_2014q4/arm-none-eabi/lib/thumb\libc.a(lib_a-fclose.o)
 .debug_frame   0x0000544c       0x2c C:\DevTools\gcc_v49_2014q4/arm-none-eabi/lib/thumb\libc.a(lib_a-isattyr.o)
 .debug_frame   0x00005478       0x48 C:\DevTools\gcc_v49_2014q4/arm-none-eabi/lib/thumb\libc.a(lib_a-reent.o)
 .debug_frame   0x000054c0       0x20 C:\DevTools\gcc_v49_2014q4/arm-none-eabi/lib/thumb\libnosys.a(isatty.o)
 .debug_frame   0x000054e0       0x38 C:\DevTools\gcc_v49_2014q4/arm-none-eabi/lib/thumb\libm.a(lib_a-w_sqrt.o)
 .debug_frame   0x00005518       0x3c C:\DevTools\gcc_v49_2014q4/arm-none-eabi/lib/thumb\libm.a(lib_a-e_sqrt.o)
 .debug_frame   0x00005554       0x28 C:\DevTools\gcc_v49_2014q4/arm-none-eabi/lib/thumb\libm.a(lib_a-s_fpclassify.o)
 .debug_frame   0x0000557c       0x20 C:\DevTools\gcc_v49_2014q4/arm-none-eabi/lib/thumb\libm.a(lib_a-s_matherr.o)
 .debug_frame   0x0000559c       0x20 c:/devtools/gcc_v49_2014q4/bin/../lib/gcc/arm-none-eabi/4.9.3\libgcc.a(_udivsi3.o)
 .debug_frame   0x000055bc       0x20 c:/devtools/gcc_v49_2014q4/bin/../lib/gcc/arm-none-eabi/4.9.3\libgcc.a(_divsi3.o)
 .debug_frame   0x000055dc       0x28 c:/devtools/gcc_v49_2014q4/bin/../lib/gcc/arm-none-eabi/4.9.3\libgcc.a(_aeabi_ldivmod.o)
 .debug_frame   0x00005604       0x28 c:/devtools/gcc_v49_2014q4/bin/../lib/gcc/arm-none-eabi/4.9.3\libgcc.a(_aeabi_uldivmod.o)
 .debug_frame   0x0000562c       0x44 c:/devtools/gcc_v49_2014q4/bin/../lib/gcc/arm-none-eabi/4.9.3\libgcc.a(_fixdfdi.o)
 .debug_frame   0x00005670       0x34 c:/devtools/gcc_v49_2014q4/bin/../lib/gcc/arm-none-eabi/4.9.3\libgcc.a(_fixunsdfdi.o)
 .debug_frame   0x000056a4       0x68 c:/devtools/gcc_v49_2014q4/bin/../lib/gcc/arm-none-eabi/4.9.3\libgcc.a(bpabi.o)
 .debug_frame   0x0000570c       0x48 c:/devtools/gcc_v49_2014q4/bin/../lib/gcc/arm-none-eabi/4.9.3\libgcc.a(_divdi3.o)
 .debug_frame   0x00005754       0x40 c:/devtools/gcc_v49_2014q4/bin/../lib/gcc/arm-none-eabi/4.9.3\libgcc.a(_udivdi3.o)

.stab           0x00000000       0x24
 .stab          0x00000000       0x24 C:\DevTools\gcc_v49_2014q4/arm-none-eabi/lib/thumb\libnosys.a(isatty.o)

.stabstr        0x00000000       0x42
 .stabstr       0x00000000       0x42 C:\DevTools\gcc_v49_2014q4/arm-none-eabi/lib/thumb\libnosys.a(isatty.o)

Cross Reference Table

Symbol                                            File
AcceptBeep                                        obj/Sysutil.o
                                                  obj/tranutil.o
                                                  obj/refund.o
                                                  obj/emvtrans.o
                                                  obj/Func.o
                                                  obj/Adjust.o
AddToTotals                                       obj/tranutil.o
AdjustAllowed                                     obj/Chkoptn.o
                                                  obj/Adjust.o
AdjustPSWReqd                                     obj/Chkoptn.o
AdjustTrans                                       obj/Adjust.o
                                                  obj/Others.o
                                                  obj/Func.o
Adv2Bookmark                                      obj/lptutil.o
AllCallForward                                    obj/wavecom.o
AnswerCall                                        obj/wavecom.o
AttachGPRS                                        obj/wavecom.o
AuthBlocked                                       obj/Chkoptn.o
                                                  obj/tranutil.o
                                                  obj/emvtrans.o
AuthTrans                                         obj/Auth.o
                                                  obj/input.o
                                                  obj/Coremain.o
AuxClose                                          obj/auxcom.o
                                                  obj/iface.o
                                                  obj/ctltrans.o
AuxDisable                                        obj/auxcom.o
AuxEnable                                         obj/auxcom.o
                                                  obj/Coremain.o
AuxOpen                                           obj/auxcom.o
                                                  obj/iface.o
                                                  obj/ctltrans.o
AuxRead                                           obj/auxcom.o
AuxRxRdy                                          obj/auxcom.o
AuxTxRdy                                          obj/auxcom.o
                                                  obj/iface.o
                                                  obj/ctltrans.o
AuxWrite                                          obj/auxcom.o
                                                  obj/iface.o
                                                  obj/ctltrans.o
BRdrTest                                          obj/brdrtest.o
BlockAuthCode                                     obj/Chkoptn.o
                                                  obj/emvtrans.o
                                                  obj/Sale.o
BlockLocalManual                                  obj/Chkoptn.o
                                                  obj/tranutil.o
BlockLocalSwipe                                   obj/Chkoptn.o
                                                  obj/tranutil.o
BlockLocalTrans                                   obj/Chkoptn.o
                                                  obj/tranutil.o
                                                  obj/emvtrans.o
                                                  obj/ctltrans.o
ByteCopy                                          obj/Sysutil.o
                                                  obj/tranutil.o
                                                  obj/record.o
                                                  obj/hostmsg.o
                                                  obj/Void.o
                                                  obj/Settle.o
                                                  obj/Offline.o
                                                  obj/Func.o
CL_Close                                          obj/ctltrans.o
                                                  obj/input.o
                                                  obj/hardware.o
CL_Init                                           obj/ctltrans.o
                                                  obj/hardware.o
CL_Led                                            obj/ctltrans.o
CL_LedSet                                         obj/ctltrans.o
                                                  obj/input.o
                                                  obj/hardware.o
                                                  obj/Coremain.o
CL_Off                                            obj/ctltrans.o
                                                  obj/hardware.o
CL_WaitCard                                       obj/ctltrans.o
CTLDebug                                          obj/ctltrans.o
CTLEnable                                         obj/corevar.o
                                                  obj/ctltrans.o
                                                  obj/Func.o
CTLEnabled                                        obj/corevar.o
                                                  obj/input.o
                                                  obj/hardware.o
                                                  obj/Coremain.o
CTLFatal                                          obj/ctltrans.o
                                                  obj/TestCfg.o
CTLPreProcess                                     obj/ctltrans.o
                                                  obj/input.o
CTLProcess                                        obj/ctltrans.o
CTLTagSeek                                        obj/ctltrans.o
CTLTrans                                          obj/ctltrans.o
                                                  obj/input.o
                                                  obj/Coremain.o
CTLWaitCard                                       obj/ctltrans.o
                                                  obj/input.o
                                                  obj/Coremain.o
CalTotals                                         obj/tranutil.o
                                                  obj/iface.o
                                                  obj/Settle.o
                                                  obj/Func.o
                                                  obj/Ecr.o
CamTest2D                                         obj/camtest.o
CamTestAll                                        obj/camtest.o
                                                  obj/Func.o
ChangePin                                         obj/wavecom.o
CheckCallEnd                                      obj/wavecom.o
CheckCallStatus                                   obj/wavecom.o
CheckCurrency                                     obj/input.o
CheckDuplicate                                    obj/Chkoptn.o
CheckExpDate                                      obj/Chkoptn.o
                                                  obj/input.o
CheckHostRsp                                      obj/hostmsg.o
                                                  obj/testrans.o
                                                  obj/refund.o
                                                  obj/emvtrans.o
                                                  obj/ctltrans.o
                                                  obj/Void.o
                                                  obj/Settle.o
                                                  obj/Sale.o
                                                  obj/Reversal.o
                                                  obj/Offline.o
                                                  obj/Auth.o
CheckPAN                                          obj/Chkoptn.o
                                                  obj/input.o
CheckPinState                                     obj/wavecom.o
ClearBatch                                        obj/Func.o
ClearResponse                                     obj/tranutil.o
                                                  obj/testrans.o
                                                  obj/refund.o
                                                  obj/iface.o
                                                  obj/emvtrans.o
                                                  obj/ctltrans.o
                                                  obj/Void.o
                                                  obj/Settle.o
                                                  obj/Sale.o
                                                  obj/Reversal.o
                                                  obj/Offline.o
                                                  obj/Ecr.o
                                                  obj/Auth.o
ClearReversal                                     obj/Func.o
ClearRspData                                      obj/tranutil.o
                                                  obj/input.o
CloseAllHw                                        obj/hardware.o
                                                  obj/Coremain.o
ComfirmTotal                                      obj/Chkoptn.o
                                                  obj/Settle.o
CompressInputData                                 obj/Sysutil.o
                                                  obj/input.o
                                                  obj/Settle.o
CompressInputFData                                obj/Sysutil.o
                                                  obj/input.o
ConfirmCard                                       obj/tranutil.o
ConfirmSetlTot                                    obj/Settle.o
ConvAmount                                        obj/Sysutil.o
                                                  obj/tranutil.o
                                                  obj/Print.o
                                                  obj/Func.o
ConvDateTime                                      obj/Sysutil.o
                                                  obj/tranutil.o
                                                  obj/network.o
                                                  obj/Settle.o
                                                  obj/Print.o
                                                  obj/ParamTest.o
                                                  obj/Func.o
                                                  obj/Coremain.o
ConvDateTimeT                                     obj/Sysutil.o
                                                  obj/Func.o
Coremain                                          obj/Coremain.o
                                                  obj/main.o
CorrectHost                                       obj/corevar.o
                                                  obj/tranutil.o
                                                  obj/input.o
                                                  obj/Settle.o
                                                  obj/Func.o
                                                  obj/Coremain.o
Crc16                                             obj/iface_util.o
                                                  obj/iface.o
CtlUnderTransLimit                                obj/ctltrans.o
                                                  obj/input.o
                                                  obj/Coremain.o
DDMMBusinessDate                                  obj/Chkoptn.o
                                                  obj/Settle.o
DDWORD2bcd                                        obj/TLVUtil.o
                                                  obj/iface.o
                                                  obj/Ecr.o
DataFileClose                                     obj/corevar.o
                                                  obj/Coremain.o
DataFileInit                                      obj/corevar.o
                                                  obj/Coremain.o
DataFileUpdate                                    obj/corevar.o
DeAss                                             obj/emvtrans.o
                                                  obj/ctltrans.o
DebugAutoRun                                      obj/TestCfg.o
DebugEnd                                          obj/TestCfg.o
DebugPoint                                        obj/Sysutil.o
DecData                                           obj/keytrans.o
                                                  obj/Func.o
DefaultCapture                                    obj/Chkoptn.o
                                                  obj/Coremain.o
DelContact                                        obj/wavecom.o
DelSms                                            obj/wavecom.o
Delay10ms                                         obj/Sysutil.o
                                                  obj/tpadtest.o
                                                  obj/network.o
                                                  obj/lptutil.o
                                                  obj/camtest.o
                                                  obj/brdrtest.o
                                                  obj/Void.o
                                                  obj/ParamTest.o
Delay1Sec                                         obj/Sysutil.o
                                                  obj/tranutil.o
                                                  obj/lptutil.o
                                                  obj/Settle.o
                                                  obj/Func.o
                                                  obj/Coremain.o
                                                  obj/Adjust.o
Des                                               obj/iface_util.o
                                                  obj/iface.o
Des2                                              obj/iface_util.o
                                                  obj/iface.o
DescriptorReqd                                    obj/Chkoptn.o
                                                  obj/input.o
Disp2x16Msg                                       obj/Sysutil.o
                                                  obj/tranutil.o
                                                  obj/network.o
                                                  obj/lptutil.o
                                                  obj/input.o
                                                  obj/hostmsg.o
                                                  obj/emvtrans.o
                                                  obj/ctltrans.o
                                                  obj/Settle.o
                                                  obj/Print.o
                                                  obj/Func.o
                                                  obj/Coremain.o
                                                  obj/Adjust.o
DispAmount                                        obj/tranutil.o
                                                  obj/input.o
                                                  obj/Void.o
                                                  obj/Settle.o
                                                  obj/Func.o
                                                  obj/Coremain.o
                                                  obj/Adjust.o
DispDefinedLogo                                   obj/ctltrans.o
                                                  obj/Coremain.o
DispErrorMsg                                      obj/tranutil.o
                                                  obj/input.o
                                                  obj/emvtrans.o
                                                  obj/ctltrans.o
                                                  obj/Void.o
                                                  obj/Settle.o
                                                  obj/Coremain.o
                                                  obj/Adjust.o
DispHeader                                        obj/tranutil.o
                                                  obj/testrans.o
                                                  obj/refund.o
                                                  obj/input.o
                                                  obj/emvtrans.o
                                                  obj/ctltrans.o
                                                  obj/Void.o
                                                  obj/Settle.o
                                                  obj/SaleOffl.o
                                                  obj/Sale.o
                                                  obj/Coremain.o
                                                  obj/Auth.o
                                                  obj/Adjust.o
DispMSRReqd                                       obj/Chkoptn.o
                                                  obj/tranutil.o
DispNifInfo2                                      obj/network.o
DispParamFile                                     obj/ParamTest.o
                                                  obj/Coremain.o
DispReversal                                      obj/Func.o
DispRspText                                       obj/tranutil.o
                                                  obj/input.o
                                                  obj/Func.o
DispTransTotal                                    obj/Func.o
DisplayBatch                                      obj/Func.o
DisplayRecordno                                   obj/Func.o
EMVFatal                                          obj/emvtrans.o
                                                  obj/TestCfg.o
EMVInit                                           obj/emvtrans.o
EMVInput                                          obj/emvtrans.o
EMVProcDisable                                    obj/Chkoptn.o
                                                  obj/input.o
EMVProcess                                        obj/emvtrans.o
EMVTrans                                          obj/emvtrans.o
                                                  obj/input.o
                                                  obj/Coremain.o
EcrCmdProcess                                     obj/Ecr.o
                                                  obj/Coremain.o
EcrGetAmount                                      obj/Ecr.o
                                                  obj/input.o
EcrGetRef                                         obj/Ecr.o
                                                  obj/input.o
EcrRefReqd                                        obj/Chkoptn.o
                                                  obj/input.o
EcrResp                                           obj/Ecr.o
                                                  obj/tranutil.o
EcrSettle                                         obj/Ecr.o
EncData                                           obj/keytrans.o
                                                  obj/Func.o
EnterPin                                          obj/wavecom.o
ErrorDelay                                        obj/Sysutil.o
                                                  obj/input.o
                                                  obj/iface.o
                                                  obj/Sale.o
                                                  obj/Func.o
ExpDateReqd                                       obj/Chkoptn.o
                                                  obj/tranutil.o
                                                  obj/input.o
Expire_diff                                       obj/input.o
                                                  obj/emvtrans.o
ExpiryReject                                      obj/Chkoptn.o
                                                  obj/input.o
ExtPPadSetup                                      obj/TestCfg.o
                                                  obj/Coremain.o
ExtraMsgLen                                       obj/Chkoptn.o
                                                  obj/hostmsg.o
FacilityEnable                                    obj/wavecom.o
FallbackDialup                                    obj/Chkoptn.o
FillColorPixel                                    ../LibA5T1000/gcc\libspglib.a(GLib.o)
FillMonoPixel                                     ../LibA5T1000/gcc\libspglib.a(GLib.o)
FormatHolderName                                  obj/tranutil.o
FreeGDS                                           obj/corevar.o
                                                  obj/Coremain.o
FreeRunElapsed                                    obj/Sysutil.o
                                                  obj/hardware.o
                                                  obj/ctltrans.o
FreeRunMark                                       obj/Sysutil.o
                                                  obj/tranutil.o
                                                  obj/input.o
                                                  obj/iface.o
                                                  obj/hardware.o
                                                  obj/ctltrans.o
                                                  obj/Coremain.o
GD_Circle                                         ../LibA5T1000/gcc\libspglib.a(GLib.o)
GD_Dot                                            ../LibA5T1000/gcc\libspglib.a(GLib.o)
GD_Line                                           ../LibA5T1000/gcc\libspglib.a(GLib.o)
                                                  obj/tpadtest.o
GD_Point                                          ../LibA5T1000/gcc\libspglib.a(GLib.o)
GD_Rectangle                                      ../LibA5T1000/gcc\libspglib.a(GLib.o)
GD_SetDotColor                                    ../LibA5T1000/gcc\libspglib.a(GLib.o)
                                                  obj/tpadtest.o
GD_SetDotSize                                     ../LibA5T1000/gcc\libspglib.a(GLib.o)
                                                  obj/tpadtest.o
GD_SetInSpace                                     ../LibA5T1000/gcc\libspglib.a(GLib.o)
GD_SetOutSpace                                    ../LibA5T1000/gcc\libspglib.a(GLib.o)
GD_Triangle                                       ../LibA5T1000/gcc\libspglib.a(GLib.o)
GIFLoadMem                                        ../LibA5T1000/gcc\libspglib.a(GIFLib.o)
                                                  obj/ParamTest.o
GIFPlay                                           ../LibA5T1000/gcc\libspglib.a(GIFLib.o)
                                                  obj/ParamTest.o
GIFPlayOn                                         ../LibA5T1000/gcc\libspglib.a(GIFLib.o)
GIFSetPos                                         ../LibA5T1000/gcc\libspglib.a(GIFLib.o)
                                                  obj/ParamTest.o
GIFStop                                           ../LibA5T1000/gcc\libspglib.a(GIFLib.o)
                                                  obj/ParamTest.o
GIFUnLoad                                         ../LibA5T1000/gcc\libspglib.a(GIFLib.o)
                                                  obj/ParamTest.o
GPRSReset                                         obj/network.o
GenAuthCode                                       obj/corevar.o
                                                  obj/refund.o
                                                  obj/emvtrans.o
                                                  obj/Sale.o
Get4DBC                                           obj/input.o
                                                  obj/tranutil.o
GetAccessrefund                                   obj/Others.o
GetAccessrevoid                                   obj/Others.o
GetAmount                                         obj/input.o
                                                  obj/tranutil.o
                                                  obj/emvtrans.o
GetApplNameTag                                    obj/emvtrans.o
GetAuthCode                                       obj/input.o
                                                  obj/emvtrans.o
                                                  obj/ctltrans.o
                                                  obj/SaleOffl.o
                                                  obj/Sale.o
GetAutoAmount                                     obj/TestCfg.o
GetAutoPin                                        obj/TestCfg.o
GetAutoTrans                                      obj/TestCfg.o
GetBatteryLevel                                   obj/lptutil.o
GetBatteryPercent                                 obj/network.o
                                                  obj/Coremain.o
GetCTLKeyInfo                                     obj/ctltrans.o
GetCallerID                                       obj/wavecom.o
GetCard                                           obj/input.o
                                                  obj/emvtrans.o
                                                  obj/Coremain.o
GetCardNbr                                        obj/input.o
GetCashBackAmount                                 obj/input.o
                                                  obj/emvtrans.o
GetConstMsg                                       obj/message.o
                                                  obj/tranutil.o
                                                  obj/network.o
                                                  obj/lptutil.o
                                                  obj/input.o
                                                  obj/hostmsg.o
                                                  obj/emvtrans.o
                                                  obj/ctltrans.o
                                                  obj/Void.o
                                                  obj/Settle.o
                                                  obj/Print.o
                                                  obj/Func.o
                                                  obj/Coremain.o
                                                  obj/Adjust.o
GetContact                                        obj/wavecom.o
GetDukptPin                                       obj/keytrans.o
                                                  obj/Func.o
GetEcrRef                                         obj/input.o
                                                  obj/tranutil.o
                                                  obj/emvtrans.o
                                                  obj/ctltrans.o
GetExpDate                                        obj/input.o
                                                  obj/tranutil.o
GetHostIdx                                        obj/Ecr.o
GetHostName                                       obj/Ecr.o
GetHostTot                                        obj/Ecr.o
GetHostType                                       obj/Chkoptn.o
                                                  obj/tranutil.o
                                                  obj/input.o
                                                  obj/Settle.o
                                                  obj/Func.o
GetLastRcpt                                       obj/Print.o
GetLastTrace                                      obj/Ecr.o
GetMobileNum                                      obj/network.o
GetMonthText                                      obj/Sysutil.o
                                                  obj/Settle.o
GetOptrName                                       obj/wavecom.o
                                                  obj/tranutil.o
                                                  obj/network.o
GetPHBCapcity                                     obj/wavecom.o
GetPIN                                            obj/keytrans.o
                                                  obj/tranutil.o
                                                  obj/emvtrans.o
                                                  obj/ctltrans.o
                                                  obj/Func.o
GetPPPStatus                                      obj/network.o
GetProductCode                                    obj/input.o
                                                  obj/tranutil.o
                                                  obj/emvtrans.o
GetSimCCID                                        obj/network.o
                                                  obj/tranutil.o
GetSmsMode                                        obj/wavecom.o
GetSmsTotal                                       obj/wavecom.o
GetSubNum                                         obj/network.o
GetTxnCode                                        obj/emvtrans.o
GlobalsCleanUp                                    obj/Coremain.o
                                                  obj/main.o
GlobalsInit                                       obj/Coremain.o
                                                  obj/main.o
HangUp                                            obj/wavecom.o
HostSettlePending                                 obj/Chkoptn.o
                                                  obj/tranutil.o
                                                  obj/emvtrans.o
                                                  obj/ctltrans.o
                                                  obj/Void.o
                                                  obj/Adjust.o
ICCInserted                                       obj/hardware.o
                                                  obj/input.o
                                                  obj/Coremain.o
ICCReaderRdy                                      obj/hardware.o
                                                  obj/input.o
                                                  obj/Coremain.o
IccTmkInject                                      obj/keytrans.o
                                                  obj/Func.o
IconPuts                                          obj/network.o
IfaceClose                                        obj/iface.o
IfaceInit                                         obj/iface.o
IfaceInitData                                     obj/iface.o
                                                  obj/Coremain.o
IfaceProcess                                      obj/iface.o
                                                  obj/Coremain.o
IfaceRx                                           obj/iface.o
IfaceTx                                           obj/iface.o
InCardTable                                       obj/input.o
                                                  obj/emvtrans.o
                                                  obj/ctltrans.o
IncAPMTraceNo                                     obj/corevar.o
                                                  obj/tranutil.o
                                                  obj/emvtrans.o
                                                  obj/ctltrans.o
IncAPMTraceNoEnd                                  obj/corevar.o
IncTraceNo                                        obj/tranutil.o
                                                  obj/testrans.o
                                                  obj/refund.o
                                                  obj/emvtrans.o
                                                  obj/Void.o
                                                  obj/Settle.o
                                                  obj/SaleOffl.o
                                                  obj/Sale.o
                                                  obj/Auth.o
IncTraceNoEND                                     obj/tranutil.o
                                                  obj/refund.o
                                                  obj/Void.o
                                                  obj/SaleOffl.o
                                                  obj/Sale.o
InitAllHw                                         obj/hardware.o
                                                  obj/Coremain.o
Input2RecordBuf                                   obj/record.o
                                                  obj/emvtrans.o
ItfHostTot                                        obj/iface.o
ItfSettle                                         obj/iface.o
ItfVoid                                           obj/iface.o
KAppHdr                                           obj/main.o
                                                  obj/cstartup.o
KAppHeader                                        obj/cstartup.o
KApplCfg                                          obj/DemoTest.o
                                                  obj/TestCfg.o
KAuxCommMode                                      obj/toggle.o
KAuxDataLen                                       obj/toggle.o
KAuxPort                                          obj/toggle.o
KAuxSpeed                                         obj/toggle.o
KCcittMode                                        obj/toggle.o
KCtlApplCfg                                       obj/DemoTest.o
                                                  obj/TestCfg.o
KCtlKeyRoom                                       obj/DemoTest.o
                                                  obj/TestCfg.o
KDialMode                                         obj/toggle.o
KEcrRespTbl                                       obj/Ecr.o
KEnable                                           obj/toggle.o
KExportFunc                                       obj/Coremain.o
                                                  obj/main.o
KHostNameResp                                     obj/Ecr.o
KHostTotResp                                      obj/Ecr.o
KInitMode                                         obj/toggle.o
KItfHostNameResp                                  obj/iface.o
KItfHostTotResp                                   obj/iface.o
KItfLastTrace                                     obj/iface.o
KItfOfflSaleResp                                  obj/iface.o
KItfRespTbl                                       obj/iface.o
KItfSaleResp                                      obj/iface.o
KItfSettleResp                                    obj/iface.o
KKek                                              obj/cstartup.o
KKeyRoom                                          obj/DemoTest.o
                                                  obj/TestCfg.o
KLastTrace                                        obj/Ecr.o
KMdmSpeed                                         obj/toggle.o
KOfflSaleResp                                     obj/Ecr.o
KOnOff                                            obj/toggle.o
KOtherTransMenu                                   obj/Others.o
KOtherTxnItem                                     obj/Others.o
KOtherTxncurr                                     obj/Others.o
KOthercurrMenu                                    obj/Others.o
KPPPport                                          obj/toggle.o
KPadConf                                          obj/tpadtest.o
KPadObj                                           obj/tpadtest.o
KPinMsg                                           obj/emvtrans.o
KProtoMode                                        obj/toggle.o
KRspText                                          obj/message.o
                                                  obj/tranutil.o
KSPadConf                                         obj/tpadtest.o
KSPadTest                                         obj/tpadtest.o
KSaleResp                                         obj/Ecr.o
KSetlPCode2                                       obj/Constant.o
                                                  obj/hostmsg.o
                                                  obj/Settle.o
KSettleResp                                       obj/Ecr.o
KSoftName                                         obj/Coremain.o
                                                  obj/main.o
KTPadTest                                         obj/tpadtest.o
KTransBitmap                                      obj/Constant.o
                                                  obj/hostmsg.o
KTransHeader                                      obj/Constant.o
                                                  obj/tranutil.o
                                                  obj/Settle.o
                                                  obj/Func.o
KTrueFalse                                        obj/toggle.o
LoadCTLCfg                                        obj/TestCfg.o
                                                  obj/Func.o
LoadCTLKey                                        obj/TestCfg.o
                                                  obj/Func.o
LoadDukptIkey                                     obj/keytrans.o
                                                  obj/Func.o
LoadEMVCfg                                        obj/TestCfg.o
                                                  obj/Func.o
LoadEMVKey                                        obj/TestCfg.o
                                                  obj/Func.o
LoadKeys                                          obj/keytrans.o
                                                  obj/Func.o
LoadPhoneBook                                     obj/wavecom.o
LoadSmsInbox                                      obj/wavecom.o
LoadTmk                                           obj/keytrans.o
                                                  obj/Func.o
LongBeep                                          obj/Sysutil.o
                                                  obj/tranutil.o
                                                  obj/toggle.o
                                                  obj/testrans.o
                                                  obj/network.o
                                                  obj/menu.o
                                                  obj/lptutil.o
                                                  obj/keytrans.o
                                                  obj/input.o
                                                  obj/iface.o
                                                  obj/hardware.o
                                                  obj/emvtrans.o
                                                  obj/ctltrans.o
                                                  obj/camtest.o
                                                  obj/Settle.o
                                                  obj/Sale.o
                                                  obj/Print.o
                                                  obj/Others.o
                                                  obj/Ecr.o
                                                  obj/Coremain.o
                                                  obj/Adjust.o
LptClose                                          obj/lptutil.o
                                                  obj/Sysutil.o
LptOpen                                           obj/lptutil.o
                                                  obj/emvtrans.o
                                                  obj/Sysutil.o
LptParamFile                                      obj/ParamTest.o
LptPutN                                           obj/lptutil.o
                                                  obj/emvtrans.o
                                                  obj/Sysutil.o
                                                  obj/Print.o
LptPutS                                           obj/lptutil.o
                                                  obj/emvtrans.o
                                                  obj/Sysutil.o
MSRSwiped                                         obj/hardware.o
                                                  obj/input.o
                                                  obj/Coremain.o
MakeCall                                          obj/wavecom.o
MakeReqCall                                       obj/wavecom.o
MallocGDS                                         obj/corevar.o
                                                  obj/Coremain.o
ManualEntryAllow                                  obj/Chkoptn.o
                                                  obj/tranutil.o
ManualFeed                                        obj/Print.o
ManualPSWReqd                                     obj/Chkoptn.o
MaskCardNo                                        obj/Chkoptn.o
                                                  obj/Func.o
MemFatalErr                                       obj/Sysutil.o
                                                  obj/lptutil.o
                                                  obj/iface.o
                                                  obj/corevar.o
MenuSelect                                        obj/menu.o
                                                  obj/Others.o
                                                  obj/Func.o
MerchantFunc                                      obj/Func.o
                                                  obj/Coremain.o
MobileNumTest                                     obj/network.o
ModuleInit                                        obj/wavecom.o
MoveInput2Tx                                      obj/record.o
                                                  obj/testrans.o
                                                  obj/refund.o
                                                  obj/emvtrans.o
                                                  obj/ctltrans.o
                                                  obj/Sale.o
                                                  obj/Auth.o
MsgBufSetup                                       obj/corevar.o
                                                  obj/tranutil.o
                                                  obj/Settle.o
                                                  obj/Func.o
MultiAdjustAllowed                                obj/Chkoptn.o
                                                  obj/Adjust.o
NetworkInfo                                       obj/network.o
NetworkInit                                       obj/network.o
                                                  obj/Coremain.o
NumOfRcptCopy                                     obj/Chkoptn.o
OffDevice                                         obj/hardware.o
                                                  obj/input.o
                                                  obj/Coremain.o
OfflineAllowed                                    obj/Chkoptn.o
                                                  obj/tranutil.o
OfflineSent                                       obj/Offline.o
                                                  obj/refund.o
                                                  obj/emvtrans.o
                                                  obj/ctltrans.o
                                                  obj/Void.o
                                                  obj/Settle.o
                                                  obj/Sale.o
                                                  obj/Auth.o
OnDevice                                          obj/hardware.o
                                                  obj/input.o
OtherCurrency                                     obj/Others.o
                                                  obj/Coremain.o
OtherTrans                                        obj/Others.o
                                                  obj/Coremain.o
OverMargin                                        obj/tranutil.o
                                                  obj/input.o
                                                  obj/Adjust.o
PPPCfgUpdate                                      obj/corevar.o
                                                  obj/network.o
PackAmt                                           obj/Print.o
                                                  obj/tranutil.o
PackCTLData                                       obj/ctltrans.o
PackCTLDummyData                                  obj/ctltrans.o
PackCTLTagsData                                   obj/ctltrans.o
PackComm                                          obj/tranutil.o
                                                  obj/testrans.o
                                                  obj/emvtrans.o
                                                  obj/ctltrans.o
                                                  obj/Void.o
                                                  obj/Settle.o
PackCurrentDate                                   obj/Print.o
                                                  obj/tranutil.o
                                                  obj/Func.o
PackDTGAA                                         obj/tranutil.o
                                                  obj/refund.o
                                                  obj/emvtrans.o
                                                  obj/ctltrans.o
                                                  obj/SaleOffl.o
                                                  obj/Sale.o
PackDateTime                                      obj/tranutil.o
PackDtg                                           obj/Print.o
PackEMVData                                       obj/emvtrans.o
PackEndOfRep                                      obj/Print.o
PackFF                                            obj/Print.o
                                                  obj/tranutil.o
                                                  obj/Settle.o
                                                  obj/Func.o
PackHeader                                        obj/tranutil.o
                                                  obj/refund.o
                                                  obj/emvtrans.o
                                                  obj/SaleOffl.o
PackHostMsg                                       obj/hostmsg.o
                                                  obj/testrans.o
                                                  obj/refund.o
                                                  obj/emvtrans.o
                                                  obj/ctltrans.o
                                                  obj/Void.o
                                                  obj/Settle.o
                                                  obj/Sale.o
                                                  obj/Reversal.o
                                                  obj/Offline.o
                                                  obj/Auth.o
PackInputP                                        obj/tranutil.o
                                                  obj/refund.o
                                                  obj/emvtrans.o
                                                  obj/ctltrans.o
                                                  obj/SaleOffl.o
                                                  obj/Sale.o
                                                  obj/Auth.o
PackIssuerSum                                     obj/tranutil.o
                                                  obj/Settle.o
                                                  obj/Func.o
PackIssuerSumT                                    obj/tranutil.o
                                                  obj/Func.o
PackLogo                                          obj/Print.o
                                                  obj/Settle.o
                                                  obj/Func.o
PackMsgBufLen                                     obj/corevar.o
                                                  obj/tranutil.o
                                                  obj/Settle.o
                                                  obj/Func.o
PackProcCode                                      obj/hostmsg.o
                                                  obj/testrans.o
                                                  obj/refund.o
                                                  obj/emvtrans.o
                                                  obj/ctltrans.o
                                                  obj/Void.o
                                                  obj/Settle.o
                                                  obj/Sale.o
                                                  obj/Reversal.o
                                                  obj/Offline.o
                                                  obj/Auth.o
PackRcptHeader                                    obj/Print.o
                                                  obj/Settle.o
PackRecordP                                       obj/tranutil.o
                                                  obj/Void.o
                                                  obj/Func.o
PackRspText                                       obj/tranutil.o
                                                  obj/emvtrans.o
                                                  obj/ctltrans.o
                                                  obj/Settle.o
                                                  obj/Sale.o
PackRxBufLen                                      obj/corevar.o
PackSeperator                                     obj/Print.o
                                                  obj/tranutil.o
                                                  obj/Func.o
PackTagsData                                      obj/emvtrans.o
PackTotals                                        obj/Print.o
                                                  obj/tranutil.o
                                                  obj/Settle.o
PackTxBufLen                                      obj/corevar.o
                                                  obj/hostmsg.o
Packprintconfig                                   obj/tranutil.o
                                                  obj/Func.o
Packprintissuer                                   obj/tranutil.o
                                                  obj/Func.o
PiggybackOffline                                  obj/Chkoptn.o
                                                  obj/Offline.o
PowerOffICC                                       obj/hardware.o
                                                  obj/input.o
                                                  obj/Coremain.o
PowerOnICC                                        obj/hardware.o
                                                  obj/input.o
                                                  obj/Coremain.o
PrintBuf                                          obj/lptutil.o
                                                  obj/tranutil.o
                                                  obj/Print.o
                                                  obj/Func.o
PrintLcd2LptCtr                                   obj/Sysutil.o
                                                  obj/tpadtest.o
PrintLogo                                         obj/lptutil.o
PrintLowBatt                                      obj/lptutil.o
PrintRcptFF                                       obj/lptutil.o
PrintRcptLF                                       obj/lptutil.o
PrintReqd                                         obj/Chkoptn.o
PrintTimeReqd                                     obj/Chkoptn.o
                                                  obj/tranutil.o
                                                  obj/Print.o
PrintTotals                                       obj/Func.o
PrintTxnRecord                                    obj/Func.o
Prompt4DBC                                        obj/Chkoptn.o
                                                  obj/tranutil.o
PromptTips                                        obj/Chkoptn.o
                                                  obj/input.o
PromptYesNo                                       obj/input.o
                                                  obj/Void.o
                                                  obj/Settle.o
                                                  obj/Adjust.o
PwrSleep                                          obj/hardware.o
Random                                            obj/iface_util.o
                                                  obj/iface.o
ReadGain                                          obj/wavecom.o
ReadRTC                                           obj/Sysutil.o
                                                  obj/tranutil.o
                                                  obj/record.o
                                                  obj/network.o
                                                  obj/input.o
                                                  obj/hostmsg.o
                                                  obj/Void.o
                                                  obj/Settle.o
                                                  obj/ParamTest.o
                                                  obj/Coremain.o
ReadSms                                           obj/wavecom.o
ReferralCall                                      obj/Sale.o
ReferralDial                                      obj/Chkoptn.o
                                                  obj/Sale.o
ReferralProcess                                   obj/Sale.o
                                                  obj/Auth.o
RefreshDispAfter                                  obj/corevar.o
                                                  obj/tranutil.o
                                                  obj/testrans.o
                                                  obj/refund.o
                                                  obj/input.o
                                                  obj/hardware.o
                                                  obj/Settle.o
                                                  obj/SaleOffl.o
                                                  obj/Sale.o
                                                  obj/Func.o
                                                  obj/Ecr.o
                                                  obj/Coremain.o
                                                  obj/Auth.o
RefundBlocked                                     obj/Chkoptn.o
                                                  obj/tranutil.o
RefundOffline                                     obj/Chkoptn.o
                                                  obj/refund.o
RefundTrans                                       obj/refund.o
                                                  obj/input.o
RegisterNetwork                                   obj/wavecom.o
ReprintLast                                       obj/Print.o
                                                  obj/Func.o
ReprintTxn                                        obj/Func.o
ResetDukptIkey                                    obj/keytrans.o
                                                  obj/Func.o
ResetKey                                          obj/keytrans.o
                                                  obj/Func.o
ResetTerm                                         obj/tranutil.o
                                                  obj/iface.o
                                                  obj/Others.o
                                                  obj/Ecr.o
                                                  obj/Coremain.o
ReversalOK                                        obj/Reversal.o
                                                  obj/refund.o
                                                  obj/emvtrans.o
                                                  obj/ctltrans.o
                                                  obj/Void.o
                                                  obj/Settle.o
                                                  obj/Sale.o
                                                  obj/Auth.o
RxBufSetup                                        obj/corevar.o
                                                  obj/hostmsg.o
SNTest                                            obj/network.o
SPadTest                                          obj/tpadtest.o
                                                  obj/Func.o
SaleOfflTrans                                     obj/SaleOffl.o
                                                  obj/input.o
SaleTrans                                         obj/Sale.o
                                                  obj/input.o
                                                  obj/emvtrans.o
                                                  obj/Coremain.o
SaleType                                          obj/Constant.o
                                                  obj/tranutil.o
                                                  obj/Void.o
                                                  obj/Adjust.o
SaveLastRcpt                                      obj/Print.o
                                                  obj/tranutil.o
SaveOfflRecord                                    obj/record.o
                                                  obj/refund.o
                                                  obj/SaleOffl.o
                                                  obj/Sale.o
SaveRecord                                        obj/record.o
                                                  obj/refund.o
                                                  obj/emvtrans.o
                                                  obj/ctltrans.o
                                                  obj/Sale.o
SaveSTISDbgData                                   obj/debugstis.o
                                                  obj/Func.o
SearchRecord                                      obj/input.o
                                                  obj/Void.o
                                                  obj/Func.o
                                                  obj/Adjust.o
SegmentInit                                       obj/cstartup.o
SelSIM                                            obj/network.o
SelectPHBook                                      obj/wavecom.o
SendKeyPress                                      obj/wavecom.o
SetBannerMode                                     obj/network.o
SetBannerText                                     obj/network.o
SetDTG                                            obj/Sysutil.o
SetDefault                                        obj/corevar.o
                                                  obj/Func.o
SetDhostIdx                                       obj/keytrans.o
                                                  obj/Func.o
SetMode                                           obj/keytrans.o
SetNewMsgInd                                      obj/wavecom.o
SetPPPConfig                                      obj/network.o
SetRTC                                            obj/Sysutil.o
                                                  obj/hostmsg.o
SetRspCode                                        obj/tranutil.o
                                                  obj/emvtrans.o
                                                  obj/ctltrans.o
                                                  obj/Settle.o
                                                  obj/Sale.o
SettlePSWReqd                                     obj/Chkoptn.o
SettleTrans                                       obj/Settle.o
                                                  obj/iface.o
                                                  obj/Others.o
                                                  obj/Ecr.o
Short1Beep                                        obj/Sysutil.o
                                                  obj/tranutil.o
                                                  obj/input.o
                                                  obj/emvtrans.o
                                                  obj/Settle.o
                                                  obj/Offline.o
Short2Beep                                        obj/Sysutil.o
                                                  obj/keytrans.o
                                                  obj/hardware.o
                                                  obj/camtest.o
                                                  obj/brdrtest.o
ShowBarcode                                       obj/camtest.o
ShowIp                                            obj/Sysutil.o
                                                  obj/network.o
ShowPPPStatus                                     obj/network.o
                                                  obj/Func.o
ShowSimStatus                                     obj/network.o
SimDetect                                         obj/wavecom.o
SimStatusThrd                                     obj/network.o
                                                  obj/Coremain.o
SmsSend                                           obj/wavecom.o
SortPhoneBook                                     obj/wavecom.o
Spt3MsgHdr                                        obj/iface.o
TDes                                              obj/iface_util.o
                                                  obj/iface.o
TDes2                                             obj/iface_util.o
                                                  obj/iface.o
TIPsReqd                                          obj/Chkoptn.o
                                                  obj/tranutil.o
                                                  obj/emvtrans.o
                                                  obj/Print.o
                                                  obj/Coremain.o
                                                  obj/Adjust.o
TPadTest                                          obj/tpadtest.o
TPadTestEnable                                    obj/tpadtest.o
TagData                                           obj/emvtrans.o
TagPut                                            obj/emvtrans.o
                                                  obj/ctltrans.o
TagSeek                                           obj/emvtrans.o
                                                  obj/ctltrans.o
TestTrans                                         obj/testrans.o
                                                  obj/Func.o
TlvIsCTag                                         obj/TLVUtil.o
TlvLSize                                          obj/TLVUtil.o
TlvLen                                            obj/TLVUtil.o
                                                  obj/input.o
                                                  obj/iface.o
                                                  obj/emvtrans.o
                                                  obj/Ecr.o
TlvNext                                           obj/TLVUtil.o
TlvPack                                           obj/TLVUtil.o
                                                  obj/iface.o
                                                  obj/Ecr.o
TlvSeek                                           obj/TLVUtil.o
                                                  obj/input.o
                                                  obj/iface.o
                                                  obj/Ecr.o
TlvSizeOf                                         obj/TLVUtil.o
                                                  obj/emvtrans.o
TlvTSize                                          obj/TLVUtil.o
TlvTag                                            obj/TLVUtil.o
                                                  obj/emvtrans.o
TlvVPtr                                           obj/TLVUtil.o
                                                  obj/input.o
                                                  obj/iface.o
                                                  obj/emvtrans.o
                                                  obj/Ecr.o
ToggleOption                                      obj/toggle.o
                                                  obj/network.o
Track1Enable                                      obj/Chkoptn.o
TrainingModeON                                    obj/corevar.o
                                                  obj/hostmsg.o
                                                  obj/Coremain.o
TransAllowed                                      obj/tranutil.o
                                                  obj/refund.o
                                                  obj/SaleOffl.o
                                                  obj/Sale.o
                                                  obj/Auth.o
TransEnd                                          obj/tranutil.o
                                                  obj/testrans.o
                                                  obj/refund.o
                                                  obj/input.o
                                                  obj/emvtrans.o
                                                  obj/ctltrans.o
                                                  obj/Void.o
                                                  obj/Settle.o
                                                  obj/SaleOffl.o
                                                  obj/Sale.o
                                                  obj/Coremain.o
                                                  obj/Auth.o
TransModeDisp                                     obj/Coremain.o
TxBufSetup                                        obj/corevar.o
                                                  obj/hostmsg.o
UGet                                              obj/iface_util.o
                                                  obj/iface.o
UPut                                              obj/iface_util.o
                                                  obj/iface.o
UnderFloorLimit                                   obj/Chkoptn.o
                                                  obj/Sale.o
UpdateHostStatus                                  obj/record.o
                                                  obj/refund.o
                                                  obj/emvtrans.o
                                                  obj/ctltrans.o
                                                  obj/Void.o
                                                  obj/Settle.o
                                                  obj/Sale.o
                                                  obj/Reversal.o
                                                  obj/Offline.o
                                                  obj/Auth.o
UpdateRecord                                      obj/record.o
                                                  obj/Void.o
                                                  obj/Offline.o
                                                  obj/Adjust.o
ValidCTLData                                      obj/ctltrans.o
ValidCard                                         obj/input.o
                                                  obj/Coremain.o
ValidEMVData                                      obj/emvtrans.o
                                                  obj/input.o
ValidRecordCRC                                    obj/corevar.o
                                                  obj/Settle.o
VirginInit                                        obj/Coremain.o
                                                  obj/main.o
VoiceReferral                                     obj/Chkoptn.o
                                                  obj/Sale.o
                                                  obj/Auth.o
VoidBlocked                                       obj/Chkoptn.o
                                                  obj/Void.o
VoidOffline                                       obj/Chkoptn.o
                                                  obj/Void.o
VoidTrans                                         obj/Void.o
                                                  obj/iface.o
                                                  obj/Others.o
WGet                                              obj/iface_util.o
                                                  obj/iface.o
WPut                                              obj/TLVUtil.o
                                                  obj/iface.o
                                                  obj/ctltrans.o
WaitCardTrans                                     obj/input.o
                                                  obj/iface.o
                                                  obj/Others.o
                                                  obj/Ecr.o
WaitICCRemove                                     obj/hardware.o
                                                  obj/keytrans.o
                                                  obj/input.o
                                                  obj/Coremain.o
WaitKey                                           obj/hardware.o
                                                  obj/input.o
                                                  obj/ctltrans.o
WaitModuReady                                     obj/wavecom.o
WaitPrnFinish                                     obj/lptutil.o
WriteContact                                      obj/wavecom.o
WriteGain                                         obj/wavecom.o
Y800toLcdLeft                                     obj/camtest.o
__adddf3                                          c:/devtools/gcc_v49_2014q4/bin/../lib/gcc/arm-none-eabi/4.9.3\libgcc.a(_arm_addsubdf3.o)
__aeabi_cdcmpeq                                   c:/devtools/gcc_v49_2014q4/bin/../lib/gcc/arm-none-eabi/4.9.3\libgcc.a(_arm_cmpdf2.o)
__aeabi_cdcmple                                   c:/devtools/gcc_v49_2014q4/bin/../lib/gcc/arm-none-eabi/4.9.3\libgcc.a(_arm_cmpdf2.o)
__aeabi_cdrcmple                                  c:/devtools/gcc_v49_2014q4/bin/../lib/gcc/arm-none-eabi/4.9.3\libgcc.a(_arm_cmpdf2.o)
__aeabi_d2lz                                      c:/devtools/gcc_v49_2014q4/bin/../lib/gcc/arm-none-eabi/4.9.3\libgcc.a(_fixdfdi.o)
                                                  obj/libc.o
__aeabi_d2uiz                                     c:/devtools/gcc_v49_2014q4/bin/../lib/gcc/arm-none-eabi/4.9.3\libgcc.a(_arm_fixunsdfsi.o)
                                                  c:/devtools/gcc_v49_2014q4/bin/../lib/gcc/arm-none-eabi/4.9.3\libgcc.a(_fixunsdfdi.o)
                                                  ../LibA5T1000/gcc\libspglib.a(GLib.o)
__aeabi_d2ulz                                     c:/devtools/gcc_v49_2014q4/bin/../lib/gcc/arm-none-eabi/4.9.3\libgcc.a(_fixunsdfdi.o)
                                                  c:/devtools/gcc_v49_2014q4/bin/../lib/gcc/arm-none-eabi/4.9.3\libgcc.a(_fixdfdi.o)
__aeabi_dadd                                      c:/devtools/gcc_v49_2014q4/bin/../lib/gcc/arm-none-eabi/4.9.3\libgcc.a(_arm_addsubdf3.o)
                                                  C:\DevTools\gcc_v49_2014q4/arm-none-eabi/lib/thumb\libm.a(lib_a-e_sqrt.o)
                                                  obj/libc.o
__aeabi_dcmpeq                                    c:/devtools/gcc_v49_2014q4/bin/../lib/gcc/arm-none-eabi/4.9.3\libgcc.a(_arm_cmpdf2.o)
                                                  obj/libc.o
__aeabi_dcmpge                                    c:/devtools/gcc_v49_2014q4/bin/../lib/gcc/arm-none-eabi/4.9.3\libgcc.a(_arm_cmpdf2.o)
__aeabi_dcmpgt                                    c:/devtools/gcc_v49_2014q4/bin/../lib/gcc/arm-none-eabi/4.9.3\libgcc.a(_arm_cmpdf2.o)
__aeabi_dcmple                                    c:/devtools/gcc_v49_2014q4/bin/../lib/gcc/arm-none-eabi/4.9.3\libgcc.a(_arm_cmpdf2.o)
__aeabi_dcmplt                                    c:/devtools/gcc_v49_2014q4/bin/../lib/gcc/arm-none-eabi/4.9.3\libgcc.a(_arm_cmpdf2.o)
                                                  c:/devtools/gcc_v49_2014q4/bin/../lib/gcc/arm-none-eabi/4.9.3\libgcc.a(_fixdfdi.o)
                                                  C:\DevTools\gcc_v49_2014q4/arm-none-eabi/lib/thumb\libm.a(lib_a-w_sqrt.o)
__aeabi_ddiv                                      c:/devtools/gcc_v49_2014q4/bin/../lib/gcc/arm-none-eabi/4.9.3\libgcc.a(_arm_muldivdf3.o)
                                                  C:\DevTools\gcc_v49_2014q4/arm-none-eabi/lib/thumb\libm.a(lib_a-e_sqrt.o)
                                                  C:\DevTools\gcc_v49_2014q4/arm-none-eabi/lib/thumb\libm.a(lib_a-w_sqrt.o)
                                                  obj/libc.o
__aeabi_dmul                                      c:/devtools/gcc_v49_2014q4/bin/../lib/gcc/arm-none-eabi/4.9.3\libgcc.a(_arm_muldivdf3.o)
                                                  c:/devtools/gcc_v49_2014q4/bin/../lib/gcc/arm-none-eabi/4.9.3\libgcc.a(_fixunsdfdi.o)
                                                  C:\DevTools\gcc_v49_2014q4/arm-none-eabi/lib/thumb\libm.a(lib_a-e_sqrt.o)
                                                  obj/libc.o
__aeabi_drsub                                     c:/devtools/gcc_v49_2014q4/bin/../lib/gcc/arm-none-eabi/4.9.3\libgcc.a(_arm_addsubdf3.o)
__aeabi_dsub                                      c:/devtools/gcc_v49_2014q4/bin/../lib/gcc/arm-none-eabi/4.9.3\libgcc.a(_arm_addsubdf3.o)
                                                  c:/devtools/gcc_v49_2014q4/bin/../lib/gcc/arm-none-eabi/4.9.3\libgcc.a(_fixunsdfdi.o)
                                                  C:\DevTools\gcc_v49_2014q4/arm-none-eabi/lib/thumb\libm.a(lib_a-e_sqrt.o)
__aeabi_f2d                                       c:/devtools/gcc_v49_2014q4/bin/../lib/gcc/arm-none-eabi/4.9.3\libgcc.a(_arm_addsubdf3.o)
__aeabi_i2d                                       c:/devtools/gcc_v49_2014q4/bin/../lib/gcc/arm-none-eabi/4.9.3\libgcc.a(_arm_addsubdf3.o)
__aeabi_idiv                                      c:/devtools/gcc_v49_2014q4/bin/../lib/gcc/arm-none-eabi/4.9.3\libgcc.a(_divsi3.o)
                                                  C:\DevTools\gcc_v49_2014q4/arm-none-eabi/lib/thumb\libc.a(lib_a-fvwrite.o)
                                                  ../LibA5T1000/gcc\libspglib.a(GLib.o)
                                                  obj/menu.o
__aeabi_idiv0                                     c:/devtools/gcc_v49_2014q4/bin/../lib/gcc/arm-none-eabi/4.9.3\libgcc.a(_dvmd_tls.o)
                                                  c:/devtools/gcc_v49_2014q4/bin/../lib/gcc/arm-none-eabi/4.9.3\libgcc.a(_divsi3.o)
                                                  c:/devtools/gcc_v49_2014q4/bin/../lib/gcc/arm-none-eabi/4.9.3\libgcc.a(_udivsi3.o)
__aeabi_idivmod                                   c:/devtools/gcc_v49_2014q4/bin/../lib/gcc/arm-none-eabi/4.9.3\libgcc.a(_divsi3.o)
                                                  obj/toggle.o
                                                  obj/menu.o
__aeabi_l2d                                       c:/devtools/gcc_v49_2014q4/bin/../lib/gcc/arm-none-eabi/4.9.3\libgcc.a(_arm_addsubdf3.o)
                                                  obj/libc.o
__aeabi_ldiv0                                     c:/devtools/gcc_v49_2014q4/bin/../lib/gcc/arm-none-eabi/4.9.3\libgcc.a(_dvmd_tls.o)
                                                  c:/devtools/gcc_v49_2014q4/bin/../lib/gcc/arm-none-eabi/4.9.3\libgcc.a(_aeabi_uldivmod.o)
                                                  c:/devtools/gcc_v49_2014q4/bin/../lib/gcc/arm-none-eabi/4.9.3\libgcc.a(_aeabi_ldivmod.o)
__aeabi_ldivmod                                   c:/devtools/gcc_v49_2014q4/bin/../lib/gcc/arm-none-eabi/4.9.3\libgcc.a(_aeabi_ldivmod.o)
                                                  obj/libc.o
__aeabi_ui2d                                      c:/devtools/gcc_v49_2014q4/bin/../lib/gcc/arm-none-eabi/4.9.3\libgcc.a(_arm_addsubdf3.o)
                                                  c:/devtools/gcc_v49_2014q4/bin/../lib/gcc/arm-none-eabi/4.9.3\libgcc.a(_fixunsdfdi.o)
                                                  ../LibA5T1000/gcc\libspglib.a(GLib.o)
__aeabi_uidiv                                     c:/devtools/gcc_v49_2014q4/bin/../lib/gcc/arm-none-eabi/4.9.3\libgcc.a(_udivsi3.o)
                                                  ../LibA5T1000/gcc\libspglib.a(GIFLib.o)
                                                  ../LibA5T1000/gcc\libsptutil.a(val2bcd.o)
                                                  ../LibA5T1000/gcc\libsptutil.a(bin2dec.o)
                                                  obj/libc.o
                                                  obj/network.o
                                                  obj/hardware.o
                                                  obj/camtest.o
                                                  obj/ParamTest.o
__aeabi_uidivmod                                  c:/devtools/gcc_v49_2014q4/bin/../lib/gcc/arm-none-eabi/4.9.3\libgcc.a(_udivsi3.o)
                                                  ../LibA5T1000/gcc\libspglib.a(GIFLib.o)
                                                  ../LibA5T1000/gcc\libsptutil.a(val2bcd.o)
                                                  ../LibA5T1000/gcc\libsptutil.a(bin2dec.o)
                                                  obj/libc.o
                                                  obj/ctltrans.o
__aeabi_ul2d                                      c:/devtools/gcc_v49_2014q4/bin/../lib/gcc/arm-none-eabi/4.9.3\libgcc.a(_arm_addsubdf3.o)
__aeabi_uldivmod                                  c:/devtools/gcc_v49_2014q4/bin/../lib/gcc/arm-none-eabi/4.9.3\libgcc.a(_aeabi_uldivmod.o)
                                                  ../LibA5T1000/gcc\libsptutil.a(dbin2bcd.o)
                                                  ../LibA5T1000/gcc\libsptutil.a(dbin2asc.o)
                                                  obj/tranutil.o
                                                  obj/TLVUtil.o
__clzdi2                                          c:/devtools/gcc_v49_2014q4/bin/../lib/gcc/arm-none-eabi/4.9.3\libgcc.a(_clzdi2.o)
                                                  c:/devtools/gcc_v49_2014q4/bin/../lib/gcc/arm-none-eabi/4.9.3\libgcc.a(_udivdi3.o)
                                                  c:/devtools/gcc_v49_2014q4/bin/../lib/gcc/arm-none-eabi/4.9.3\libgcc.a(_divdi3.o)
__clzsi2                                          c:/devtools/gcc_v49_2014q4/bin/../lib/gcc/arm-none-eabi/4.9.3\libgcc.a(_clzsi2.o)
                                                  c:/devtools/gcc_v49_2014q4/bin/../lib/gcc/arm-none-eabi/4.9.3\libgcc.a(_clzdi2.o)
__cmpdf2                                          c:/devtools/gcc_v49_2014q4/bin/../lib/gcc/arm-none-eabi/4.9.3\libgcc.a(_arm_cmpdf2.o)
__divdf3                                          c:/devtools/gcc_v49_2014q4/bin/../lib/gcc/arm-none-eabi/4.9.3\libgcc.a(_arm_muldivdf3.o)
__divdi3                                          c:/devtools/gcc_v49_2014q4/bin/../lib/gcc/arm-none-eabi/4.9.3\libgcc.a(_divdi3.o)
                                                  c:/devtools/gcc_v49_2014q4/bin/../lib/gcc/arm-none-eabi/4.9.3\libgcc.a(bpabi.o)
__divsi3                                          c:/devtools/gcc_v49_2014q4/bin/../lib/gcc/arm-none-eabi/4.9.3\libgcc.a(_divsi3.o)
__eqdf2                                           c:/devtools/gcc_v49_2014q4/bin/../lib/gcc/arm-none-eabi/4.9.3\libgcc.a(_arm_cmpdf2.o)
__errno                                           ../LibA5T1000/gcc\libspglib.a(GLib.o)
                                                  C:\DevTools\gcc_v49_2014q4/arm-none-eabi/lib/thumb\libm.a(lib_a-w_sqrt.o)
__extendsfdf2                                     c:/devtools/gcc_v49_2014q4/bin/../lib/gcc/arm-none-eabi/4.9.3\libgcc.a(_arm_addsubdf3.o)
__fdlib_version                                   C:\DevTools\gcc_v49_2014q4/arm-none-eabi/lib/thumb\libm.a(lib_a-s_lib_ver.o)
                                                  C:\DevTools\gcc_v49_2014q4/arm-none-eabi/lib/thumb\libm.a(lib_a-w_sqrt.o)
__fixdfdi                                         c:/devtools/gcc_v49_2014q4/bin/../lib/gcc/arm-none-eabi/4.9.3\libgcc.a(_fixdfdi.o)
__fixunsdfdi                                      c:/devtools/gcc_v49_2014q4/bin/../lib/gcc/arm-none-eabi/4.9.3\libgcc.a(_fixunsdfdi.o)
__fixunsdfsi                                      c:/devtools/gcc_v49_2014q4/bin/../lib/gcc/arm-none-eabi/4.9.3\libgcc.a(_arm_fixunsdfsi.o)
__floatdidf                                       c:/devtools/gcc_v49_2014q4/bin/../lib/gcc/arm-none-eabi/4.9.3\libgcc.a(_arm_addsubdf3.o)
__floatsidf                                       c:/devtools/gcc_v49_2014q4/bin/../lib/gcc/arm-none-eabi/4.9.3\libgcc.a(_arm_addsubdf3.o)
__floatundidf                                     c:/devtools/gcc_v49_2014q4/bin/../lib/gcc/arm-none-eabi/4.9.3\libgcc.a(_arm_addsubdf3.o)
__floatunsidf                                     c:/devtools/gcc_v49_2014q4/bin/../lib/gcc/arm-none-eabi/4.9.3\libgcc.a(_arm_addsubdf3.o)
__fp_lock_all                                     C:\DevTools\gcc_v49_2014q4/arm-none-eabi/lib/thumb\libc.a(lib_a-findfp.o)
__fp_unlock_all                                   C:\DevTools\gcc_v49_2014q4/arm-none-eabi/lib/thumb\libc.a(lib_a-findfp.o)
__fpclassifyd                                     C:\DevTools\gcc_v49_2014q4/arm-none-eabi/lib/thumb\libm.a(lib_a-s_fpclassify.o)
                                                  C:\DevTools\gcc_v49_2014q4/arm-none-eabi/lib/thumb\libm.a(lib_a-w_sqrt.o)
__gedf2                                           c:/devtools/gcc_v49_2014q4/bin/../lib/gcc/arm-none-eabi/4.9.3\libgcc.a(_arm_cmpdf2.o)
__gnu_ldivmod_helper                              c:/devtools/gcc_v49_2014q4/bin/../lib/gcc/arm-none-eabi/4.9.3\libgcc.a(bpabi.o)
                                                  c:/devtools/gcc_v49_2014q4/bin/../lib/gcc/arm-none-eabi/4.9.3\libgcc.a(_aeabi_ldivmod.o)
__gnu_uldivmod_helper                             c:/devtools/gcc_v49_2014q4/bin/../lib/gcc/arm-none-eabi/4.9.3\libgcc.a(bpabi.o)
                                                  c:/devtools/gcc_v49_2014q4/bin/../lib/gcc/arm-none-eabi/4.9.3\libgcc.a(_aeabi_uldivmod.o)
__gtdf2                                           c:/devtools/gcc_v49_2014q4/bin/../lib/gcc/arm-none-eabi/4.9.3\libgcc.a(_arm_cmpdf2.o)
__ieee754_sqrt                                    C:\DevTools\gcc_v49_2014q4/arm-none-eabi/lib/thumb\libm.a(lib_a-e_sqrt.o)
                                                  C:\DevTools\gcc_v49_2014q4/arm-none-eabi/lib/thumb\libm.a(lib_a-w_sqrt.o)
__ledf2                                           c:/devtools/gcc_v49_2014q4/bin/../lib/gcc/arm-none-eabi/4.9.3\libgcc.a(_arm_cmpdf2.o)
__ltdf2                                           c:/devtools/gcc_v49_2014q4/bin/../lib/gcc/arm-none-eabi/4.9.3\libgcc.a(_arm_cmpdf2.o)
__malloc_av_                                      C:\DevTools\gcc_v49_2014q4/arm-none-eabi/lib/thumb\libc.a(lib_a-mallocr.o)
                                                  C:\DevTools\gcc_v49_2014q4/arm-none-eabi/lib/thumb\libc.a(lib_a-freer.o)
                                                  C:\DevTools\gcc_v49_2014q4/arm-none-eabi/lib/thumb\libc.a(lib_a-reallocr.o)
__malloc_current_mallinfo                         C:\DevTools\gcc_v49_2014q4/arm-none-eabi/lib/thumb\libc.a(lib_a-mallocr.o)
                                                  C:\DevTools\gcc_v49_2014q4/arm-none-eabi/lib/thumb\libc.a(lib_a-freer.o)
__malloc_lock                                     C:\DevTools\gcc_v49_2014q4/arm-none-eabi/lib/thumb\libc.a(lib_a-mlock.o)
                                                  C:\DevTools\gcc_v49_2014q4/arm-none-eabi/lib/thumb\libc.a(lib_a-freer.o)
                                                  C:\DevTools\gcc_v49_2014q4/arm-none-eabi/lib/thumb\libc.a(lib_a-reallocr.o)
                                                  C:\DevTools\gcc_v49_2014q4/arm-none-eabi/lib/thumb\libc.a(lib_a-mallocr.o)
__malloc_max_sbrked_mem                           C:\DevTools\gcc_v49_2014q4/arm-none-eabi/lib/thumb\libc.a(lib_a-mallocr.o)
__malloc_max_total_mem                            C:\DevTools\gcc_v49_2014q4/arm-none-eabi/lib/thumb\libc.a(lib_a-mallocr.o)
__malloc_sbrk_base                                C:\DevTools\gcc_v49_2014q4/arm-none-eabi/lib/thumb\libc.a(lib_a-mallocr.o)
                                                  C:\DevTools\gcc_v49_2014q4/arm-none-eabi/lib/thumb\libc.a(lib_a-freer.o)
__malloc_top_pad                                  C:\DevTools\gcc_v49_2014q4/arm-none-eabi/lib/thumb\libc.a(lib_a-mallocr.o)
                                                  C:\DevTools\gcc_v49_2014q4/arm-none-eabi/lib/thumb\libc.a(lib_a-freer.o)
__malloc_trim_threshold                           C:\DevTools\gcc_v49_2014q4/arm-none-eabi/lib/thumb\libc.a(lib_a-mallocr.o)
                                                  C:\DevTools\gcc_v49_2014q4/arm-none-eabi/lib/thumb\libc.a(lib_a-freer.o)
__malloc_unlock                                   C:\DevTools\gcc_v49_2014q4/arm-none-eabi/lib/thumb\libc.a(lib_a-mlock.o)
                                                  C:\DevTools\gcc_v49_2014q4/arm-none-eabi/lib/thumb\libc.a(lib_a-freer.o)
                                                  C:\DevTools\gcc_v49_2014q4/arm-none-eabi/lib/thumb\libc.a(lib_a-reallocr.o)
                                                  C:\DevTools\gcc_v49_2014q4/arm-none-eabi/lib/thumb\libc.a(lib_a-mallocr.o)
__muldf3                                          c:/devtools/gcc_v49_2014q4/bin/../lib/gcc/arm-none-eabi/4.9.3\libgcc.a(_arm_muldivdf3.o)
__nedf2                                           c:/devtools/gcc_v49_2014q4/bin/../lib/gcc/arm-none-eabi/4.9.3\libgcc.a(_arm_cmpdf2.o)
__sclose                                          C:\DevTools\gcc_v49_2014q4/arm-none-eabi/lib/thumb\libc.a(lib_a-stdio.o)
                                                  C:\DevTools\gcc_v49_2014q4/arm-none-eabi/lib/thumb\libc.a(lib_a-findfp.o)
__seofread                                        C:\DevTools\gcc_v49_2014q4/arm-none-eabi/lib/thumb\libc.a(lib_a-stdio.o)
__sflush_r                                        C:\DevTools\gcc_v49_2014q4/arm-none-eabi/lib/thumb\libc.a(lib_a-fflush.o)
                                                  C:\DevTools\gcc_v49_2014q4/arm-none-eabi/lib/thumb\libc.a(lib_a-fclose.o)
__sfmoreglue                                      C:\DevTools\gcc_v49_2014q4/arm-none-eabi/lib/thumb\libc.a(lib_a-findfp.o)
__sfp                                             C:\DevTools\gcc_v49_2014q4/arm-none-eabi/lib/thumb\libc.a(lib_a-findfp.o)
__sfp_lock_acquire                                C:\DevTools\gcc_v49_2014q4/arm-none-eabi/lib/thumb\libc.a(lib_a-findfp.o)
                                                  C:\DevTools\gcc_v49_2014q4/arm-none-eabi/lib/thumb\libc.a(lib_a-fclose.o)
__sfp_lock_release                                C:\DevTools\gcc_v49_2014q4/arm-none-eabi/lib/thumb\libc.a(lib_a-findfp.o)
                                                  C:\DevTools\gcc_v49_2014q4/arm-none-eabi/lib/thumb\libc.a(lib_a-fclose.o)
__sfvwrite_r                                      C:\DevTools\gcc_v49_2014q4/arm-none-eabi/lib/thumb\libc.a(lib_a-fvwrite.o)
                                                  C:\DevTools\gcc_v49_2014q4/arm-none-eabi/lib/thumb\libc.a(lib_a-puts.o)
__sinit                                           C:\DevTools\gcc_v49_2014q4/arm-none-eabi/lib/thumb\libc.a(lib_a-findfp.o)
                                                  C:\DevTools\gcc_v49_2014q4/arm-none-eabi/lib/thumb\libc.a(lib_a-fclose.o)
                                                  C:\DevTools\gcc_v49_2014q4/arm-none-eabi/lib/thumb\libc.a(lib_a-fflush.o)
                                                  C:\DevTools\gcc_v49_2014q4/arm-none-eabi/lib/thumb\libc.a(lib_a-wsetup.o)
__sinit_lock_acquire                              C:\DevTools\gcc_v49_2014q4/arm-none-eabi/lib/thumb\libc.a(lib_a-findfp.o)
__sinit_lock_release                              C:\DevTools\gcc_v49_2014q4/arm-none-eabi/lib/thumb\libc.a(lib_a-findfp.o)
__smakebuf_r                                      C:\DevTools\gcc_v49_2014q4/arm-none-eabi/lib/thumb\libc.a(lib_a-makebuf.o)
                                                  C:\DevTools\gcc_v49_2014q4/arm-none-eabi/lib/thumb\libc.a(lib_a-wsetup.o)
__sread                                           C:\DevTools\gcc_v49_2014q4/arm-none-eabi/lib/thumb\libc.a(lib_a-stdio.o)
                                                  C:\DevTools\gcc_v49_2014q4/arm-none-eabi/lib/thumb\libc.a(lib_a-findfp.o)
__sseek                                           C:\DevTools\gcc_v49_2014q4/arm-none-eabi/lib/thumb\libc.a(lib_a-stdio.o)
                                                  C:\DevTools\gcc_v49_2014q4/arm-none-eabi/lib/thumb\libc.a(lib_a-makebuf.o)
                                                  C:\DevTools\gcc_v49_2014q4/arm-none-eabi/lib/thumb\libc.a(lib_a-findfp.o)
__subdf3                                          c:/devtools/gcc_v49_2014q4/bin/../lib/gcc/arm-none-eabi/4.9.3\libgcc.a(_arm_addsubdf3.o)
__swrite                                          C:\DevTools\gcc_v49_2014q4/arm-none-eabi/lib/thumb\libc.a(lib_a-stdio.o)
                                                  C:\DevTools\gcc_v49_2014q4/arm-none-eabi/lib/thumb\libc.a(lib_a-findfp.o)
__swsetup_r                                       C:\DevTools\gcc_v49_2014q4/arm-none-eabi/lib/thumb\libc.a(lib_a-wsetup.o)
                                                  C:\DevTools\gcc_v49_2014q4/arm-none-eabi/lib/thumb\libc.a(lib_a-fvwrite.o)
__udivdi3                                         c:/devtools/gcc_v49_2014q4/bin/../lib/gcc/arm-none-eabi/4.9.3\libgcc.a(_udivdi3.o)
                                                  c:/devtools/gcc_v49_2014q4/bin/../lib/gcc/arm-none-eabi/4.9.3\libgcc.a(bpabi.o)
__udivsi3                                         c:/devtools/gcc_v49_2014q4/bin/../lib/gcc/arm-none-eabi/4.9.3\libgcc.a(_udivsi3.o)
_cleanup                                          C:\DevTools\gcc_v49_2014q4/arm-none-eabi/lib/thumb\libc.a(lib_a-findfp.o)
_cleanup_r                                        C:\DevTools\gcc_v49_2014q4/arm-none-eabi/lib/thumb\libc.a(lib_a-findfp.o)
                                                  C:\DevTools\gcc_v49_2014q4/arm-none-eabi/lib/thumb\libc.a(lib_a-makebuf.o)
_close_r                                          obj/libc.o
                                                  C:\DevTools\gcc_v49_2014q4/arm-none-eabi/lib/thumb\libc.a(lib_a-stdio.o)
_end                                              obj/libc.o
_end_of_app                                       obj/cstartup.o
_end_of_bss                                       obj/libc.o
                                                  obj/cstartup.o
_end_of_data                                      obj/cstartup.o
_end_of_flash                                     obj/cstartup.o
_end_of_sram                                      obj/cstartup.o
_fclose_r                                         C:\DevTools\gcc_v49_2014q4/arm-none-eabi/lib/thumb\libc.a(lib_a-fclose.o)
                                                  C:\DevTools\gcc_v49_2014q4/arm-none-eabi/lib/thumb\libc.a(lib_a-findfp.o)
_fflush_r                                         C:\DevTools\gcc_v49_2014q4/arm-none-eabi/lib/thumb\libc.a(lib_a-fflush.o)
                                                  C:\DevTools\gcc_v49_2014q4/arm-none-eabi/lib/thumb\libc.a(lib_a-fvwrite.o)
_free_r                                           C:\DevTools\gcc_v49_2014q4/arm-none-eabi/lib/thumb\libc.a(lib_a-freer.o)
                                                  C:\DevTools\gcc_v49_2014q4/arm-none-eabi/lib/thumb\libc.a(lib_a-reent.o)
                                                  C:\DevTools\gcc_v49_2014q4/arm-none-eabi/lib/thumb\libc.a(lib_a-fclose.o)
                                                  C:\DevTools\gcc_v49_2014q4/arm-none-eabi/lib/thumb\libc.a(lib_a-fflush.o)
                                                  C:\DevTools\gcc_v49_2014q4/arm-none-eabi/lib/thumb\libc.a(lib_a-wsetup.o)
                                                  C:\DevTools\gcc_v49_2014q4/arm-none-eabi/lib/thumb\libc.a(lib_a-reallocr.o)
                                                  C:\DevTools\gcc_v49_2014q4/arm-none-eabi/lib/thumb\libc.a(lib_a-mallocr.o)
                                                  C:\DevTools\gcc_v49_2014q4/arm-none-eabi/lib/thumb\libc.a(lib_a-fvwrite.o)
_fstat_r                                          obj/libc.o
                                                  C:\DevTools\gcc_v49_2014q4/arm-none-eabi/lib/thumb\libc.a(lib_a-makebuf.o)
_fwalk                                            C:\DevTools\gcc_v49_2014q4/arm-none-eabi/lib/thumb\libc.a(lib_a-fwalk.o)
                                                  C:\DevTools\gcc_v49_2014q4/arm-none-eabi/lib/thumb\libc.a(lib_a-findfp.o)
_fwalk_reent                                      C:\DevTools\gcc_v49_2014q4/arm-none-eabi/lib/thumb\libc.a(lib_a-fwalk.o)
                                                  C:\DevTools\gcc_v49_2014q4/arm-none-eabi/lib/thumb\libc.a(lib_a-findfp.o)
                                                  C:\DevTools\gcc_v49_2014q4/arm-none-eabi/lib/thumb\libc.a(lib_a-fflush.o)
_global_impure_ptr                                C:\DevTools\gcc_v49_2014q4/arm-none-eabi/lib/thumb\libc.a(lib_a-impure.o)
                                                  C:\DevTools\gcc_v49_2014q4/arm-none-eabi/lib/thumb\libc.a(lib_a-findfp.o)
                                                  C:\DevTools\gcc_v49_2014q4/arm-none-eabi/lib/thumb\libc.a(lib_a-fflush.o)
_impure_ptr                                       C:\DevTools\gcc_v49_2014q4/arm-none-eabi/lib/thumb\libc.a(lib_a-impure.o)
                                                  C:\DevTools\gcc_v49_2014q4/arm-none-eabi/lib/thumb\libc.a(lib_a-reent.o)
                                                  C:\DevTools\gcc_v49_2014q4/arm-none-eabi/lib/thumb\libc.a(lib_a-fclose.o)
                                                  C:\DevTools\gcc_v49_2014q4/arm-none-eabi/lib/thumb\libc.a(lib_a-findfp.o)
                                                  C:\DevTools\gcc_v49_2014q4/arm-none-eabi/lib/thumb\libc.a(lib_a-fflush.o)
                                                  C:\DevTools\gcc_v49_2014q4/arm-none-eabi/lib/thumb\libc.a(lib_a-wsetup.o)
                                                  C:\DevTools\gcc_v49_2014q4/arm-none-eabi/lib/thumb\libc.a(lib_a-puts.o)
_isatty                                           C:\DevTools\gcc_v49_2014q4/arm-none-eabi/lib/thumb\libnosys.a(isatty.o)
                                                  C:\DevTools\gcc_v49_2014q4/arm-none-eabi/lib/thumb\libc.a(lib_a-isattyr.o)
_isatty_r                                         C:\DevTools\gcc_v49_2014q4/arm-none-eabi/lib/thumb\libc.a(lib_a-isattyr.o)
                                                  C:\DevTools\gcc_v49_2014q4/arm-none-eabi/lib/thumb\libc.a(lib_a-makebuf.o)
_lseek_r                                          obj/libc.o
                                                  C:\DevTools\gcc_v49_2014q4/arm-none-eabi/lib/thumb\libc.a(lib_a-stdio.o)
_malloc_r                                         C:\DevTools\gcc_v49_2014q4/arm-none-eabi/lib/thumb\libc.a(lib_a-mallocr.o)
                                                  C:\DevTools\gcc_v49_2014q4/arm-none-eabi/lib/thumb\libc.a(lib_a-makebuf.o)
                                                  C:\DevTools\gcc_v49_2014q4/arm-none-eabi/lib/thumb\libc.a(lib_a-findfp.o)
                                                  C:\DevTools\gcc_v49_2014q4/arm-none-eabi/lib/thumb\libc.a(lib_a-reallocr.o)
                                                  C:\DevTools\gcc_v49_2014q4/arm-none-eabi/lib/thumb\libc.a(lib_a-fvwrite.o)
_malloc_trim_r                                    C:\DevTools\gcc_v49_2014q4/arm-none-eabi/lib/thumb\libc.a(lib_a-freer.o)
_puts_r                                           C:\DevTools\gcc_v49_2014q4/arm-none-eabi/lib/thumb\libc.a(lib_a-puts.o)
_read_r                                           obj/libc.o
                                                  C:\DevTools\gcc_v49_2014q4/arm-none-eabi/lib/thumb\libc.a(lib_a-stdio.o)
_realloc_r                                        C:\DevTools\gcc_v49_2014q4/arm-none-eabi/lib/thumb\libc.a(lib_a-reallocr.o)
                                                  C:\DevTools\gcc_v49_2014q4/arm-none-eabi/lib/thumb\libc.a(lib_a-fvwrite.o)
_reclaim_reent                                    C:\DevTools\gcc_v49_2014q4/arm-none-eabi/lib/thumb\libc.a(lib_a-reent.o)
_sbrk_r                                           obj/libc.o
                                                  C:\DevTools\gcc_v49_2014q4/arm-none-eabi/lib/thumb\libc.a(lib_a-freer.o)
                                                  C:\DevTools\gcc_v49_2014q4/arm-none-eabi/lib/thumb\libc.a(lib_a-mallocr.o)
_start_of_app                                     obj/cstartup.o
_start_of_bss                                     obj/cstartup.o
_start_of_data                                    obj/cstartup.o
_write_r                                          obj/libc.o
                                                  C:\DevTools\gcc_v49_2014q4/arm-none-eabi/lib/thumb\libc.a(lib_a-stdio.o)
advc                                              obj/Coremain.o
base_func0                                        ../LibA5T1000/gcc\libbasecall.a(base_call.o)
                                                  obj/network.o
base_func1                                        ../LibA5T1000/gcc\libbasecall.a(base_call.o)
base_func2                                        ../LibA5T1000/gcc\libbasecall.a(base_call.o)
                                                  obj/network.o
base_func3                                        ../LibA5T1000/gcc\libbasecall.a(base_call.o)
battery                                           obj/Coremain.o
bcd2DDWORD                                        obj/TLVUtil.o
                                                  obj/Ecr.o
bcd2bin                                           ../LibA5T1000/gcc\libsptutil.a(bcd2bin.o)
                                                  obj/input.o
                                                  obj/hostmsg.o
                                                  obj/Sysutil.o
                                                  obj/Settle.o
bcd2val                                           ../LibA5T1000/gcc\libsptutil.a(bcd2val.o)
                                                  ../LibA5T1000/gcc\libsptutil.a(bcdsub.o)
                                                  ../LibA5T1000/gcc\libsptutil.a(bcdinc.o)
                                                  ../LibA5T1000/gcc\libsptutil.a(bcdadd.o)
                                                  ../LibA5T1000/gcc\libsptutil.a(bcd2bin.o)
                                                  obj/tranutil.o
                                                  obj/Chkoptn.o
bcdadd                                            ../LibA5T1000/gcc\libsptutil.a(bcdadd.o)
                                                  obj/hostmsg.o
                                                  obj/Sysutil.o
bcdinc                                            ../LibA5T1000/gcc\libsptutil.a(bcdinc.o)
                                                  obj/corevar.o
                                                  obj/Settle.o
bcdsub                                            ../LibA5T1000/gcc\libsptutil.a(bcdsub.o)
                                                  obj/hostmsg.o
                                                  obj/Sysutil.o
bin2bcd                                           ../LibA5T1000/gcc\libsptutil.a(bin2bcd.o)
                                                  obj/hostmsg.o
bin2dec                                           ../LibA5T1000/gcc\libsptutil.a(bin2dec.o)
                                                  ../LibA5T1000/gcc\libsptutil.a(bindec_d.o)
                                                  obj/Func.o
binary2bcd                                        ../LibA5T1000/gcc\libsptutil.a(bin2bcd.o)
bindec_data                                       ../LibA5T1000/gcc\libsptutil.a(bindec_d.o)
                                                  obj/tranutil.o
                                                  obj/Print.o
buffer_overflow                                   ../LibA5T1000/gcc\libsptutil.a(set_pptr.o)
                                                  ../LibA5T1000/gcc\libsptutil.a(split_d.o)
                                                  ../LibA5T1000/gcc\libsptutil.a(pack_nb.o)
                                                  ../LibA5T1000/gcc\libsptutil.a(pack_mem.o)
                                                  ../LibA5T1000/gcc\libsptutil.a(pack_b.o)
                                                  ../LibA5T1000/gcc\libsptutil.a(inc_pptr.o)
                                                  ../LibA5T1000/gcc\libsptutil.a(get_mem.o)
bytes                                             obj/Coremain.o
cal_crc                                           ../LibA5T1000/gcc\libsptutil.a(crcccitt.o)
                                                  obj/record.o
                                                  obj/corevar.o
cal_crcx                                          ../LibA5T1000/gcc\libsptutil.a(crcccitt.o)
chk_digit_ok                                      ../LibA5T1000/gcc\libsptutil.a(chkdok.o)
                                                  obj/input.o
cleanup_glue                                      C:\DevTools\gcc_v49_2014q4/arm-none-eabi/lib/thumb\libc.a(lib_a-reent.o)
compress                                          ../LibA5T1000/gcc\libsptutil.a(compress.o)
                                                  obj/keytrans.o
                                                  obj/input.o
                                                  obj/hostmsg.o
                                                  obj/ctltrans.o
                                                  obj/Sysutil.o
                                                  obj/Settle.o
cstartup                                          obj/cstartup.o
dbgHex                                            obj/auxcom.o
                                                  obj/hostmsg.o
dbin2asc                                          ../LibA5T1000/gcc\libsptutil.a(dbin2asc.o)
                                                  obj/Sysutil.o
dbin2bcd                                          ../LibA5T1000/gcc\libsptutil.a(dbin2bcd.o)
                                                  obj/hostmsg.o
                                                  obj/emvtrans.o
                                                  obj/ctltrans.o
debugAsc                                          obj/Sysutil.o
debugAuxCTL                                       obj/ctltrans.o
debugAuxIface                                     obj/iface.o
debugCTL                                          obj/ctltrans.o
debugEMV                                          obj/ctltrans.o
debugEMV2                                         obj/emvtrans.o
debugHex                                          obj/Sysutil.o
decbin4b                                          ../LibA5T1000/gcc\libsptutil.a(decbin4b.o)
                                                  obj/hostmsg.o
decbin8b                                          ../LibA5T1000/gcc\libsptutil.a(decbin8b.o)
                                                  obj/input.o
                                                  obj/Settle.o
                                                  obj/Adjust.o
errno                                             C:\DevTools\gcc_v49_2014q4/arm-none-eabi/lib/thumb\libc.a(lib_a-reent.o)
                                                  C:\DevTools\gcc_v49_2014q4/arm-none-eabi/lib/thumb\libnosys.a(isatty.o)
                                                  C:\DevTools\gcc_v49_2014q4/arm-none-eabi/lib/thumb\libc.a(lib_a-isattyr.o)
expect_send_alloc                                 obj/expect_send.o
expect_send_release                               obj/expect_send.o
fclose                                            C:\DevTools\gcc_v49_2014q4/arm-none-eabi/lib/thumb\libc.a(lib_a-fclose.o)
fflush                                            C:\DevTools\gcc_v49_2014q4/arm-none-eabi/lib/thumb\libc.a(lib_a-fflush.o)
fndb                                              ../LibA5T1000/gcc\libsptutil.a(fndb.o)
                                                  obj/wavecom.o
                                                  obj/tranutil.o
                                                  obj/input.o
                                                  obj/iface.o
                                                  obj/hostmsg.o
                                                  obj/emvtrans.o
                                                  obj/ctltrans.o
                                                  obj/Func.o
                                                  obj/Ecr.o
fuctiongo                                         obj/Coremain.o
                                                  obj/ParamTest.o
gAppDat                                           obj/corevar.o
                                                  obj/tranutil.o
                                                  obj/Reversal.o
gAppDatHdl                                        obj/corevar.o
gAux1Handle                                       obj/hardware.o
gAux2Handle                                       obj/hardware.o
gCdc1Handle                                       obj/hardware.o
gCurInfo                                          obj/input.o
                                                  obj/tranutil.o
                                                  obj/Func.o
gDispLogo                                         obj/Coremain.o
                                                  obj/input.o
gEMVTestCfg                                       obj/DemoTest.o
                                                  obj/TestCfg.o
gGDS                                              obj/corevar.o
                                                  obj/tranutil.o
                                                  obj/testrans.o
                                                  obj/refund.o
                                                  obj/record.o
                                                  obj/input.o
                                                  obj/iface.o
                                                  obj/hostmsg.o
                                                  obj/emvtrans.o
                                                  obj/ctltrans.o
                                                  obj/Void.o
                                                  obj/TestCfg.o
                                                  obj/Settle.o
                                                  obj/SaleOffl.o
                                                  obj/Sale.o
                                                  obj/Reversal.o
                                                  obj/Print.o
                                                  obj/Others.o
                                                  obj/Offline.o
                                                  obj/Func.o
                                                  obj/Ecr.o
                                                  obj/Coremain.o
                                                  obj/Chkoptn.o
                                                  obj/Auth.o
                                                  obj/Adjust.o
gGSMData                                          obj/wavecom.o
gGTS                                              obj/tranutil.o
                                                  obj/testrans.o
                                                  obj/refund.o
                                                  obj/record.o
                                                  obj/network.o
                                                  obj/keytrans.o
                                                  obj/input.o
                                                  obj/iface.o
                                                  obj/hostmsg.o
                                                  obj/emvtrans.o
                                                  obj/ctltrans.o
                                                  obj/Void.o
                                                  obj/Settle.o
                                                  obj/SaleOffl.o
                                                  obj/Sale.o
                                                  obj/Reversal.o
                                                  obj/Others.o
                                                  obj/Offline.o
                                                  obj/Func.o
                                                  obj/Ecr.o
                                                  obj/Coremain.o
                                                  obj/Auth.o
                                                  obj/Adjust.o
gGprsCfg1                                         obj/network.o
gGprsCfg2                                         obj/network.o
gGprsHandle                                       obj/hardware.o
                                                  obj/wavecom.o
                                                  obj/network.o
gIccHandle                                        obj/hardware.o
                                                  obj/emvtrans.o
gIdleCnt                                          obj/hardware.o
                                                  obj/tranutil.o
                                                  obj/input.o
                                                  obj/iface.o
                                                  obj/Coremain.o
gIfaceData                                        obj/iface.o
gIsMaestro                                        obj/emvtrans.o
gLptHandle                                        obj/hardware.o
                                                  obj/Print.o
gMsrHandle                                        obj/hardware.o
                                                  obj/tranutil.o
                                                  obj/input.o
gOld_pt                                           obj/tpadtest.o
gOptrBkup                                         obj/network.o
gOptrMain                                         obj/network.o
gOptrName1                                        obj/network.o
gOptrName2                                        obj/network.o
gPppHandle                                        obj/hardware.o
                                                  obj/network.o
gSimSlot                                          obj/network.o
gTimerHdl                                         obj/hardware.o
                                                  obj/network.o
                                                  obj/input.o
                                                  obj/corevar.o
                                                  obj/ParamTest.o
                                                  obj/Coremain.o
get_byte                                          ../LibA5T1000/gcc\libsptutil.a(get_byte.o)
                                                  obj/hostmsg.o
get_distance                                      ../LibA5T1000/gcc\libsptutil.a(get_dist.o)
                                                  obj/iface.o
                                                  obj/ctltrans.o
                                                  obj/corevar.o
get_dword                                         ../LibA5T1000/gcc\libsptutil.a(get_byte.o)
get_dword_le                                      ../LibA5T1000/gcc\libsptutil.a(get_byte.o)
get_mem                                           ../LibA5T1000/gcc\libsptutil.a(get_mem.o)
                                                  obj/hostmsg.o
get_pptr                                          ../LibA5T1000/gcc\libsptutil.a(get_pptr.o)
                                                  obj/hostmsg.o
get_word                                          ../LibA5T1000/gcc\libsptutil.a(get_byte.o)
                                                  obj/hostmsg.o
hex_digit                                         ../LibA5T1000/gcc\libsptutil.a(hexdigit.o)
                                                  ../LibA5T1000/gcc\libsptutil.a(split.o)
hex_value                                         ../LibA5T1000/gcc\libsptutil.a(hex_val.o)
                                                  ../LibA5T1000/gcc\libsptutil.a(compress.o)
inc_pptr                                          ../LibA5T1000/gcc\libsptutil.a(inc_pptr.o)
                                                  obj/hostmsg.o
                                                  obj/corevar.o
init_pack_ptr                                     ../LibA5T1000/gcc\libsptutil.a(set_pptr.o)
                                                  ../LibA5T1000/gcc\libsptutil.a(get_dist.o)
isatty                                            obj/libc.o
isbdigit                                          ../LibA5T1000/gcc\libsptutil.a(isbdigit.o)
                                                  obj/input.o
key_ready                                         obj/keytrans.o
landingzone_logo                                  obj/Coremain.o
landingzone_logo_bw                               obj/Coremain.o
lbcd2lbin                                         ../LibA5T1000/gcc\libsptutil.a(bcd2bin.o)
lib_app_call                                      ../LibA5T1000/gcc\libsyscall.a(app_call.o)
                                                  obj/wavecom.o
                                                  obj/tranutil.o
                                                  obj/tpadtest.o
                                                  obj/toggle.o
                                                  obj/testrans.o
                                                  obj/refund.o
                                                  obj/record.o
                                                  obj/network.o
                                                  obj/menu.o
                                                  obj/lptutil.o
                                                  obj/keytrans.o
                                                  obj/input.o
                                                  obj/iface.o
                                                  obj/hardware.o
                                                  obj/emvtrans.o
                                                  obj/debugstis.o
                                                  obj/ctltrans.o
                                                  obj/corevar.o
                                                  obj/camtest.o
                                                  obj/brdrtest.o
                                                  obj/Void.o
                                                  obj/TestCfg.o
                                                  obj/Sysutil.o
                                                  obj/Settle.o
                                                  obj/Sale.o
                                                  obj/Reversal.o
                                                  obj/Print.o
                                                  obj/ParamTest.o
                                                  obj/Others.o
                                                  obj/Offline.o
                                                  obj/Func.o
                                                  obj/Ecr.o
                                                  obj/Coremain.o
                                                  obj/Auth.o
                                                  obj/Adjust.o
main                                              obj/main.o
                                                  obj/cstartup.o
matherr                                           C:\DevTools\gcc_v49_2014q4/arm-none-eabi/lib/thumb\libm.a(lib_a-s_matherr.o)
                                                  C:\DevTools\gcc_v49_2014q4/arm-none-eabi/lib/thumb\libm.a(lib_a-w_sqrt.o)
memchr                                            C:\DevTools\gcc_v49_2014q4/arm-none-eabi/lib/thumb\libc.a(lib_a-memchr.o)
                                                  C:\DevTools\gcc_v49_2014q4/arm-none-eabi/lib/thumb\libc.a(lib_a-fvwrite.o)
                                                  C:\DevTools\gcc_v49_2014q4/arm-none-eabi/lib/thumb\libc.a(lib_a-strstr.o)
memcmp                                            C:\DevTools\gcc_v49_2014q4/arm-none-eabi/lib/thumb\libc.a(lib_a-memcmp.o)
                                                  C:\DevTools\gcc_v49_2014q4/arm-none-eabi/lib/thumb\libc.a(lib_a-strstr.o)
                                                  ../LibA5T1000/gcc\libspglib.a(GIFLib.o)
                                                  obj/wavecom.o
                                                  obj/tranutil.o
                                                  obj/record.o
                                                  obj/input.o
                                                  obj/iface.o
                                                  obj/hostmsg.o
                                                  obj/emvtrans.o
                                                  obj/corevar.o
                                                  obj/Sysutil.o
                                                  obj/ParamTest.o
                                                  obj/Others.o
memcpy                                            C:\DevTools\gcc_v49_2014q4/arm-none-eabi/lib/thumb\libc.a(lib_a-memcpy.o)
                                                  C:\DevTools\gcc_v49_2014q4/arm-none-eabi/lib/thumb\libc.a(lib_a-fvwrite.o)
                                                  ../LibA5T1000/gcc\libspglib.a(GIFLib.o)
                                                  ../LibA5T1000/gcc\libsptutil.a(pack_mem.o)
                                                  ../LibA5T1000/gcc\libsptutil.a(get_mem.o)
                                                  obj/expect_send.o
                                                  obj/wavecom.o
                                                  obj/tranutil.o
                                                  obj/tpadtest.o
                                                  obj/toggle.o
                                                  obj/record.o
                                                  obj/network.o
                                                  obj/menu.o
                                                  obj/lptutil.o
                                                  obj/keytrans.o
                                                  obj/input.o
                                                  obj/iface_util.o
                                                  obj/iface.o
                                                  obj/hostmsg.o
                                                  obj/hardware.o
                                                  obj/emvtrans.o
                                                  obj/debugstis.o
                                                  obj/ctltrans.o
                                                  obj/corevar.o
                                                  obj/camtest.o
                                                  obj/brdrtest.o
                                                  obj/Void.o
                                                  obj/TestCfg.o
                                                  obj/TLVUtil.o
                                                  obj/Sysutil.o
                                                  obj/Settle.o
                                                  obj/Sale.o
                                                  obj/Reversal.o
                                                  obj/Print.o
                                                  obj/ParamTest.o
                                                  obj/Others.o
                                                  obj/Offline.o
                                                  obj/Func.o
                                                  obj/Ecr.o
                                                  obj/Coremain.o
                                                  obj/Adjust.o
memmove                                           C:\DevTools\gcc_v49_2014q4/arm-none-eabi/lib/thumb\libc.a(lib_a-memmove.o)
                                                  C:\DevTools\gcc_v49_2014q4/arm-none-eabi/lib/thumb\libc.a(lib_a-reallocr.o)
                                                  C:\DevTools\gcc_v49_2014q4/arm-none-eabi/lib/thumb\libc.a(lib_a-fvwrite.o)
                                                  obj/network.o
                                                  obj/Sysutil.o
                                                  obj/ParamTest.o
                                                  obj/Coremain.o
memset                                            C:\DevTools\gcc_v49_2014q4/arm-none-eabi/lib/thumb\libc.a(lib_a-memset.o)
                                                  C:\DevTools\gcc_v49_2014q4/arm-none-eabi/lib/thumb\libc.a(lib_a-findfp.o)
                                                  ../LibA5T1000/gcc\libspglib.a(GLib.o)
                                                  ../LibA5T1000/gcc\libspglib.a(GIFLib.o)
                                                  ../LibA5T1000/gcc\libsptutil.a(pack_nb.o)
                                                  ../LibA5T1000/gcc\libsptutil.a(dbin2bcd.o)
                                                  ../LibA5T1000/gcc\libsptutil.a(dbin2asc.o)
                                                  obj/expect_send.o
                                                  obj/wavecom.o
                                                  obj/tranutil.o
                                                  obj/tpadtest.o
                                                  obj/record.o
                                                  obj/network.o
                                                  obj/menu.o
                                                  obj/keytrans.o
                                                  obj/input.o
                                                  obj/iface.o
                                                  obj/hostmsg.o
                                                  obj/hardware.o
                                                  obj/emvtrans.o
                                                  obj/ctltrans.o
                                                  obj/corevar.o
                                                  obj/camtest.o
                                                  obj/TestCfg.o
                                                  obj/TLVUtil.o
                                                  obj/Sysutil.o
                                                  obj/Settle.o
                                                  obj/Sale.o
                                                  obj/ParamTest.o
                                                  obj/Others.o
                                                  obj/Func.o
                                                  obj/Ecr.o
                                                  obj/Coremain.o
                                                  obj/Adjust.o
packFullEmvData                                   obj/iface.o
pack_byte                                         ../LibA5T1000/gcc\libsptutil.a(pack_b.o)
                                                  ../LibA5T1000/gcc\libsptutil.a(pack_lf.o)
                                                  obj/tranutil.o
                                                  obj/hostmsg.o
                                                  obj/Settle.o
pack_dword                                        ../LibA5T1000/gcc\libsptutil.a(pack_b.o)
pack_dword_le                                     ../LibA5T1000/gcc\libsptutil.a(pack_b.o)
pack_lf                                           ../LibA5T1000/gcc\libsptutil.a(pack_lf.o)
                                                  obj/tranutil.o
                                                  obj/Settle.o
                                                  obj/Print.o
                                                  obj/Func.o
pack_lfs                                          ../LibA5T1000/gcc\libsptutil.a(pack_lfs.o)
                                                  obj/tranutil.o
                                                  obj/Settle.o
                                                  obj/Print.o
                                                  obj/Func.o
pack_mem                                          ../LibA5T1000/gcc\libsptutil.a(pack_mem.o)
                                                  ../LibA5T1000/gcc\libsptutil.a(pack_str.o)
                                                  ../LibA5T1000/gcc\libsptutil.a(bindec_d.o)
                                                  obj/tranutil.o
                                                  obj/iface.o
                                                  obj/hostmsg.o
                                                  obj/ctltrans.o
                                                  obj/Settle.o
                                                  obj/Print.o
                                                  obj/Func.o
pack_nbyte                                        ../LibA5T1000/gcc\libsptutil.a(pack_nb.o)
                                                  ../LibA5T1000/gcc\libsptutil.a(pack_spc.o)
                                                  ../LibA5T1000/gcc\libsptutil.a(pack_lfs.o)
                                                  obj/tranutil.o
                                                  obj/Print.o
pack_ptr                                          ../LibA5T1000/gcc\libsptutil.a(set_pptr.o)
                                                  ../LibA5T1000/gcc\libsptutil.a(split_d.o)
                                                  ../LibA5T1000/gcc\libsptutil.a(peek_b.o)
                                                  ../LibA5T1000/gcc\libsptutil.a(pack_nb.o)
                                                  ../LibA5T1000/gcc\libsptutil.a(pack_mem.o)
                                                  ../LibA5T1000/gcc\libsptutil.a(pack_b.o)
                                                  ../LibA5T1000/gcc\libsptutil.a(inc_pptr.o)
                                                  ../LibA5T1000/gcc\libsptutil.a(get_pptr.o)
                                                  ../LibA5T1000/gcc\libsptutil.a(get_mem.o)
                                                  ../LibA5T1000/gcc\libsptutil.a(get_dist.o)
                                                  ../LibA5T1000/gcc\libsptutil.a(get_byte.o)
pack_ptr_end                                      ../LibA5T1000/gcc\libsptutil.a(set_pptr.o)
pack_space                                        ../LibA5T1000/gcc\libsptutil.a(pack_spc.o)
                                                  obj/tranutil.o
                                                  obj/Settle.o
                                                  obj/Print.o
                                                  obj/Func.o
pack_str                                          ../LibA5T1000/gcc\libsptutil.a(pack_str.o)
                                                  obj/tranutil.o
                                                  obj/Print.o
                                                  obj/Func.o
pack_word                                         ../LibA5T1000/gcc\libsptutil.a(pack_b.o)
pack_word_le                                      ../LibA5T1000/gcc\libsptutil.a(pack_b.o)
peek_byte                                         ../LibA5T1000/gcc\libsptutil.a(peek_b.o)
                                                  obj/hostmsg.o
printf                                            obj/libc.o
                                                  obj/ctltrans.o
putchar                                           obj/libc.o
                                                  obj/ctltrans.o
puts                                              C:\DevTools\gcc_v49_2014q4/arm-none-eabi/lib/thumb\libc.a(lib_a-puts.o)
                                                  obj/ctltrans.o
set_pptr                                          ../LibA5T1000/gcc\libsptutil.a(set_pptr.o)
                                                  obj/iface.o
                                                  obj/ctltrans.o
                                                  obj/corevar.o
skpb                                              ../LibA5T1000/gcc\libsptutil.a(skpb.o)
                                                  obj/network.o
                                                  obj/Sysutil.o
split                                             ../LibA5T1000/gcc\libsptutil.a(split.o)
                                                  ../LibA5T1000/gcc\libsptutil.a(split_d.o)
                                                  obj/tranutil.o
                                                  obj/keytrans.o
                                                  obj/input.o
                                                  obj/iface.o
                                                  obj/hostmsg.o
                                                  obj/emvtrans.o
                                                  obj/ctltrans.o
                                                  obj/corevar.o
                                                  obj/Sysutil.o
                                                  obj/Settle.o
                                                  obj/Func.o
                                                  obj/Ecr.o
split_data                                        ../LibA5T1000/gcc\libsptutil.a(split_d.o)
                                                  obj/tranutil.o
                                                  obj/iface.o
                                                  obj/hostmsg.o
                                                  obj/ctltrans.o
                                                  obj/Settle.o
                                                  obj/Func.o
sprintf                                           obj/libc.o
                                                  obj/wavecom.o
                                                  obj/tranutil.o
                                                  obj/tpadtest.o
                                                  obj/network.o
                                                  obj/menu.o
                                                  obj/keytrans.o
                                                  obj/iface.o
                                                  obj/hostmsg.o
                                                  obj/hardware.o
                                                  obj/emvtrans.o
                                                  obj/ctltrans.o
                                                  obj/camtest.o
                                                  obj/brdrtest.o
                                                  obj/auxcom.o
                                                  obj/Sysutil.o
                                                  obj/ParamTest.o
                                                  obj/Func.o
sqrt                                              C:\DevTools\gcc_v49_2014q4/arm-none-eabi/lib/thumb\libm.a(lib_a-w_sqrt.o)
                                                  ../LibA5T1000/gcc\libspglib.a(GLib.o)
strcat                                            C:\DevTools\gcc_v49_2014q4/arm-none-eabi/lib/thumb\libc.a(lib_a-strcat.o)
                                                  obj/wavecom.o
                                                  obj/network.o
                                                  obj/ParamTest.o
strchr                                            C:\DevTools\gcc_v49_2014q4/arm-none-eabi/lib/thumb\libc.a(lib_a-strchr.o)
                                                  C:\DevTools\gcc_v49_2014q4/arm-none-eabi/lib/thumb\libc.a(lib_a-strstr.o)
                                                  obj/wavecom.o
strcpy                                            C:\DevTools\gcc_v49_2014q4/arm-none-eabi/lib/thumb\libc.a(lib_a-strcpy.o)
                                                  C:\DevTools\gcc_v49_2014q4/arm-none-eabi/lib/thumb\libc.a(lib_a-strcat.o)
                                                  obj/expect_send.o
                                                  obj/wavecom.o
                                                  obj/tranutil.o
                                                  obj/network.o
                                                  obj/lptutil.o
                                                  obj/iface.o
                                                  obj/corevar.o
                                                  obj/brdrtest.o
                                                  obj/Print.o
                                                  obj/ParamTest.o
                                                  obj/Func.o
                                                  obj/Coremain.o
strlen                                            C:\DevTools\gcc_v49_2014q4/arm-none-eabi/lib/thumb\libc.a(lib_a-strlen.o)
                                                  C:\DevTools\gcc_v49_2014q4/arm-none-eabi/lib/thumb\libc.a(lib_a-puts.o)
                                                  ../LibA5T1000/gcc\libsptutil.a(pack_str.o)
                                                  obj/expect_send.o
                                                  obj/wavecom.o
                                                  obj/tranutil.o
                                                  obj/tpadtest.o
                                                  obj/toggle.o
                                                  obj/network.o
                                                  obj/menu.o
                                                  obj/lptutil.o
                                                  obj/keytrans.o
                                                  obj/input.o
                                                  obj/iface.o
                                                  obj/hardware.o
                                                  obj/emvtrans.o
                                                  obj/ctltrans.o
                                                  obj/camtest.o
                                                  obj/brdrtest.o
                                                  obj/auxcom.o
                                                  obj/Void.o
                                                  obj/Sysutil.o
                                                  obj/Settle.o
                                                  obj/Sale.o
                                                  obj/Print.o
                                                  obj/ParamTest.o
                                                  obj/Others.o
                                                  obj/Func.o
                                                  obj/Coremain.o
                                                  obj/Adjust.o
strstr                                            C:\DevTools\gcc_v49_2014q4/arm-none-eabi/lib/thumb\libc.a(lib_a-strstr.o)
                                                  obj/wavecom.o
                                                  obj/network.o
sys_func0                                         ../LibA5T1000/gcc\libsyscall.a(sys_call.o)
                                                  ../LibA5T1000/gcc\libspglib.a(GIFLib.o)
                                                  obj/libc.o
                                                  obj/cstartup.o
                                                  obj/wavecom.o
                                                  obj/tpadtest.o
                                                  obj/network.o
                                                  obj/menu.o
                                                  obj/main.o
                                                  obj/lptutil.o
                                                  obj/iface.o
                                                  obj/hardware.o
                                                  obj/emvtrans.o
                                                  obj/ctltrans.o
                                                  obj/camtest.o
                                                  obj/brdrtest.o
                                                  obj/auxcom.o
                                                  obj/Sysutil.o
                                                  obj/Sale.o
                                                  obj/ParamTest.o
                                                  obj/Coremain.o
sys_func1                                         ../LibA5T1000/gcc\libsyscall.a(sys_call.o)
                                                  ../LibA5T1000/gcc\libspglib.a(GLib.o)
                                                  ../LibA5T1000/gcc\libspglib.a(GIFLib.o)
                                                  obj/libc.o
                                                  obj/expect_send.o
                                                  obj/cstartup.o
                                                  obj/wavecom.o
                                                  obj/tranutil.o
                                                  obj/tpadtest.o
                                                  obj/toggle.o
                                                  obj/network.o
                                                  obj/menu.o
                                                  obj/main.o
                                                  obj/lptutil.o
                                                  obj/keytrans.o
                                                  obj/input.o
                                                  obj/iface_util.o
                                                  obj/iface.o
                                                  obj/hardware.o
                                                  obj/emvtrans.o
                                                  obj/ctltrans.o
                                                  obj/corevar.o
                                                  obj/camtest.o
                                                  obj/brdrtest.o
                                                  obj/auxcom.o
                                                  obj/Void.o
                                                  obj/TestCfg.o
                                                  obj/Sysutil.o
                                                  obj/Settle.o
                                                  obj/Sale.o
                                                  obj/Print.o
                                                  obj/ParamTest.o
                                                  obj/Others.o
                                                  obj/Func.o
                                                  obj/Coremain.o
                                                  obj/Adjust.o
sys_func2                                         ../LibA5T1000/gcc\libsyscall.a(sys_call.o)
                                                  ../LibA5T1000/gcc\libspglib.a(GIFLib.o)
                                                  obj/tranutil.o
                                                  obj/tpadtest.o
                                                  obj/network.o
                                                  obj/main.o
                                                  obj/keytrans.o
                                                  obj/iface_util.o
                                                  obj/hardware.o
                                                  obj/ctltrans.o
                                                  obj/corevar.o
                                                  obj/brdrtest.o
                                                  obj/auxcom.o
                                                  obj/TestCfg.o
                                                  obj/ParamTest.o
                                                  obj/Coremain.o
sys_func3                                         ../LibA5T1000/gcc\libsyscall.a(sys_call.o)
                                                  obj/ctltrans.o
                                                  obj/camtest.o
                                                  obj/Sysutil.o
                                                  obj/ParamTest.o
val2bcd                                           ../LibA5T1000/gcc\libsptutil.a(val2bcd.o)
                                                  ../LibA5T1000/gcc\libsptutil.a(bcdsub.o)
                                                  ../LibA5T1000/gcc\libsptutil.a(bcdinc.o)
                                                  ../LibA5T1000/gcc\libsptutil.a(bcdadd.o)
wCTLDummyTags                                     obj/ctltrans.o
wCTLOnlineTags                                    obj/ctltrans.o
wVMOnlineTags                                     obj/emvtrans.o
